
vsrtmidi.elf:	file format elf32-mos

SYMBOL TABLE:
00000000 l    df *ABS*	00000000 zero-bss.c
00000000 l    df *ABS*	00000000 zero-zp-bss.c
00000000 l    df *ABS*	00000000 ld-temp.o
0000033b l     F .text	00000380 f256Init
00000030 l     O .zp.bss	00000007 kernelEventData
0000184d l     O .rodata	00000030 textColors
00000037 l     O .zp.bss	00000001 _col
00000038 l     O .zp.bss	00000001 _row
00002047 l     O .bss	00000001 kernelError
000006c1 l     F .text	000001b8 f256main
0000187d l     O .rodata	00000038 plugin
00001f47 l     O .rodata	00000100 midi_instruments
00000c16 l     F .text	00000bb0 printf
00000879 l     F .text	000001ba __putchar
00000039 l     O .zp.bss	00000002 __putchar.s
00000a38 l     F .text	000000d1 _ZN12_GLOBAL__N_13putEcP6Status
00000b09 l     F .text	0000010d _ZN12_GLOBAL__N_112print_stringEPKcP6Status
000006bb g     F .text	00000006 main
00000311 g       .text	00000000 __after_main
00000300 g       .text	00000000 __do_init_stack
00000308 g       .text	00000000 __do_zero_bss
00000315 g     F .text	00000013 __zero_bss
0000030b g       .text	00000000 __do_zero_zp_bss
00000328 g     F .text	00000013 __zero_zp_bss
00000a33 g     F .text	00000005 exit
00000314 g       .text	00000000 _fini
00001812 g       .rodata	00000000 __set_v
000017f2  w    F .text	00000020 __memset
00001000  w      *ABS*	00000000 __heap_default_limit
00002048 g       .noinit	00000000 __heap_start
000017c6  w    F .text	0000002c memcpy
00000010 g       *ABS*	00000000 __rc0
00000012 g       *ABS*	00000000 __rc2
00000014 g       *ABS*	00000000 __rc4
00000016 g       *ABS*	00000000 __rc6
00000018 g       *ABS*	00000000 __rc8
0000001a g       *ABS*	00000000 __rc10
0000001c g       *ABS*	00000000 __rc12
0000001e g       *ABS*	00000000 __rc14
00000020 g       *ABS*	00000000 __rc16
00000022 g       *ABS*	00000000 __rc18
00000024 g       *ABS*	00000000 __rc20
00000026 g       *ABS*	00000000 __rc22
00000028 g       *ABS*	00000000 __rc24
0000002a g       *ABS*	00000000 __rc26
0000002c g       *ABS*	00000000 __rc28
0000002e g       *ABS*	00000000 __rc30
0000002f g       *ABS*	00000000 __rc31
00000300 g       *ABS*	00000000 __f256_start
0000a000 g       *ABS*	00000000 __stack
0000a000 g       *ABS*	00000000 __SLOT_ADDR
0800a000 g       *ABS*	00000000 __block8_lma
00002000 g       *ABS*	00000000 __BLOCK_SIZE
0900a000 g       *ABS*	00000000 __block9_lma
0a00a000 g       *ABS*	00000000 __block10_lma
0b00a000 g       *ABS*	00000000 __block11_lma
0c00a000 g       *ABS*	00000000 __block12_lma
0d00a000 g       *ABS*	00000000 __block13_lma
0e00a000 g       *ABS*	00000000 __block14_lma
0f00a000 g       *ABS*	00000000 __block15_lma
1000a000 g       *ABS*	00000000 __block16_lma
1100a000 g       *ABS*	00000000 __block17_lma
1200a000 g       *ABS*	00000000 __block18_lma
1300a000 g       *ABS*	00000000 __block19_lma
1400a000 g       *ABS*	00000000 __block20_lma
1500a000 g       *ABS*	00000000 __block21_lma
1600a000 g       *ABS*	00000000 __block22_lma
1700a000 g       *ABS*	00000000 __block23_lma
00002047 g       .bss	00000000 __bss_start
00000300 g       .text	00000000 _start
0000002d g       *ABS*	00000000 __rc29
0000002b g       *ABS*	00000000 __rc27
00000029 g       *ABS*	00000000 __rc25
00000027 g       *ABS*	00000000 __rc23
00000025 g       *ABS*	00000000 __rc21
00000023 g       *ABS*	00000000 __rc19
00000021 g       *ABS*	00000000 __rc17
0000001f g       *ABS*	00000000 __rc15
0000001d g       *ABS*	00000000 __rc13
0000001b g       *ABS*	00000000 __rc11
00000019 g       *ABS*	00000000 __rc9
00000017 g       *ABS*	00000000 __rc7
00000015 g       *ABS*	00000000 __rc5
00000013 g       *ABS*	00000000 __rc3
00000011 g       *ABS*	00000000 __rc1
00000030 g       .zp.data	00000000 __zp_data_start
00000300 g       *ABS*	00000000 __zp_data_load_start
00000000 g       *ABS*	00000000 __zp_data_size
00000030 g       .zp.bss	00000000 __zp_bss_start
0000000b g       *ABS*	00000000 __zp_bss_size
00000300 g       .text	00000000 _init
00001812 g       .text	00000000 __init_array_start
00001812 g       .text	00000000 __init_array_end
00001812 g       .text	00000000 __fini_array_start
00001812 g       .text	00000000 __fini_array_end
00002047 g       .data	00000000 __data_start
00002047 g       .data	00000000 __data_end
00002047 g       *ABS*	00000000 __data_load_start
00000000 g       *ABS*	00000000 __data_size
00002048 g       .bss	00000000 __bss_end
00000001 g       *ABS*	00000000 __bss_size
00002048 g       .noinit	00000000 end_block8
00002048 g       .noinit	00000000 end_block9
00002048 g       .noinit	00000000 end_block10
00002048 g       .noinit	00000000 end_block11
00002048 g       .noinit	00000000 end_block12
00002048 g       .noinit	00000000 end_block13
00002048 g       .noinit	00000000 end_block14
00002048 g       .noinit	00000000 end_block15
00002048 g       .noinit	00000000 end_block16
00002048 g       .noinit	00000000 end_block17
00002048 g       .noinit	00000000 end_block18
00002048 g       .noinit	00000000 end_block19
00002048 g       .noinit	00000000 end_block20
00002048 g       .noinit	00000000 end_block21
00002048 g       .noinit	00000000 end_block22
00002048 g       .noinit	00000000 end_block23

Disassembly of section .text:

00000300 <_start>:
     300: a9 00        	lda	#$0
     302: 85 10        	sta	$10                     ; 0x2010 <midi_instruments+0xc9>
     304: a9 a0        	lda	#$a0
     306: 85 11        	sta	$11                     ; 0x2011 <midi_instruments+0xca>

00000308 <__do_zero_bss>:
     308: 20 15 03     	jsr	$315 <__zero_bss>

0000030b <__do_zero_zp_bss>:
     30b: 20 28 03     	jsr	$328 <__zero_zp_bss>
     30e: 20 bb 06     	jsr	$6bb <main>

00000311 <__after_main>:
     311: 4c 33 0a     	jmp	$a33 <exit>

00000314 <_fini>:
     314: 60           	rts

00000315 <__zero_bss>:
     315: a2 01        	ldx	#$1
     317: a0 00        	ldy	#$0
     319: a9 47        	lda	#$47
     31b: 85 12        	sta	$12                     ; 0x2012 <midi_instruments+0xcb>
     31d: a9 20        	lda	#$20
     31f: 85 13        	sta	$13                     ; 0x2013 <midi_instruments+0xcc>
     321: a9 00        	lda	#$0
     323: 84 14        	sty	$14                     ; 0x2014 <midi_instruments+0xcd>
     325: 4c f2 17     	jmp	$17f2 <__memset>

00000328 <__zero_zp_bss>:
     328: a2 0b        	ldx	#$b
     32a: a0 00        	ldy	#$0
     32c: a9 30        	lda	#$30
     32e: 85 12        	sta	$12                     ; 0x2012 <midi_instruments+0xcb>
     330: a9 00        	lda	#$0
     332: 85 13        	sta	$13                     ; 0x2013 <midi_instruments+0xcc>
     334: a9 00        	lda	#$0
     336: 84 14        	sty	$14                     ; 0x2014 <midi_instruments+0xcd>
     338: 4c f2 17     	jmp	$17f2 <__memset>

0000033b <f256Init>:
     33b: 64 14        	stz	$14                     ; 0x2014 <midi_instruments+0xcd>
     33d: a2 00        	ldx	#$0
     33f: 86 12        	stx	$12                     ; 0x2012 <midi_instruments+0xcb>
     341: a2 c0        	ldx	#$c0
     343: 86 13        	stx	$13                     ; 0x2013 <midi_instruments+0xcc>
     345: 64 01        	stz	$1                      ; 0x2001 <midi_instruments+0xba>
     347: a2 3f        	ldx	#$3f
     349: 8e 00 d0     	stx	$d000                   ; 0xd000 <end_block9+0xafb8>
     34c: a2 b3        	ldx	#$b3
     34e: 86 00        	stx	$0                      ; 0x2000 <midi_instruments+0xb9>
     350: 64 08        	stz	$8                      ; 0x2008 <midi_instruments+0xc1>
     352: a2 01        	ldx	#$1
     354: 86 09        	stx	$9                      ; 0x2009 <midi_instruments+0xc2>
     356: e8           	inx
     357: 86 0a        	stx	$a                      ; 0x200a <midi_instruments+0xc3>
     359: e8           	inx
     35a: 86 0b        	stx	$b                      ; 0x200b <midi_instruments+0xc4>
     35c: e8           	inx
     35d: 86 0c        	stx	$c                      ; 0x200c <midi_instruments+0xc5>
     35f: e8           	inx
     360: 86 0d        	stx	$d                      ; 0x200d <midi_instruments+0xc6>
     362: a2 30        	ldx	#$30
     364: a0 00        	ldy	#$0
     366: 86 f0        	stx	$f0                     ; 0x20f0 <end_block9+0xa8>
     368: 84 f1        	sty	$f1                     ; 0x20f1 <end_block9+0xa9>
     36a: a2 00        	ldx	#$0
     36c: 86 18        	stx	$18                     ; 0x2018 <midi_instruments+0xd1>
     36e: ca           	dex
     36f: 86 19        	stx	$19                     ; 0x2019 <midi_instruments+0xd2>
     371: 8a           	txa
     372: 0a           	asl
     373: 0a           	asl
     374: 18           	clc
     375: 69 d4        	adc	#$d4
     377: 85 1a        	sta	$1a                     ; 0x201a <midi_instruments+0xd3>
     379: a0 00        	ldy	#$0
     37b: 64 17        	stz	$17                     ; 0x2017 <midi_instruments+0xd0>
     37d: 64 16        	stz	$16                     ; 0x2016 <midi_instruments+0xcf>
     37f: a6 19        	ldx	$19                     ; 0x2019 <midi_instruments+0xd2>
     381: e0 03        	cpx	#$3
     383: a6 01        	ldx	$1                      ; 0x2001 <midi_instruments+0xba>
     385: 86 1c        	stx	$1c                     ; 0x201c <midi_instruments+0xd5>
     387: a2 d0        	ldx	#$d0
     389: 84 1b        	sty	$1b                     ; 0x201b <midi_instruments+0xd4>
     38b: b0 02        	bcs	$38f <f256Init+0x54>
     38d: a6 1a        	ldx	$1a                     ; 0x201a <midi_instruments+0xd3>
     38f: 86 15        	stx	$15                     ; 0x2015 <midi_instruments+0xce>
     391: a5 17        	lda	$17                     ; 0x2017 <midi_instruments+0xd0>
     393: 18           	clc
     394: 65 14        	adc	$14                     ; 0x2014 <midi_instruments+0xcd>
     396: a8           	tay
     397: a6 17        	ldx	$17                     ; 0x2017 <midi_instruments+0xd0>
     399: a5 16        	lda	$16                     ; 0x2016 <midi_instruments+0xcf>
     39b: 85 1d        	sta	$1d                     ; 0x201d <midi_instruments+0xd6>
     39d: a5 16        	lda	$16                     ; 0x2016 <midi_instruments+0xcf>
     39f: 65 15        	adc	$15                     ; 0x2015 <midi_instruments+0xce>
     3a1: 84 16        	sty	$16                     ; 0x2016 <midi_instruments+0xcf>
     3a3: a0 01        	ldy	#$1
     3a5: 84 01        	sty	$1                      ; 0x2001 <midi_instruments+0xba>
     3a7: 85 17        	sta	$17                     ; 0x2017 <midi_instruments+0xd0>
     3a9: a5 1b        	lda	$1b                     ; 0x201b <midi_instruments+0xd4>
     3ab: 92 16        	sta	($16)                   ; 0x2016 <midi_instruments+0xcf>
     3ad: 91 16        	sta	($16),y                 ; 0x2016 <midi_instruments+0xcf>
     3af: c8           	iny
     3b0: 91 16        	sta	($16),y                 ; 0x2016 <midi_instruments+0xcf>
     3b2: 85 15        	sta	$15                     ; 0x2015 <midi_instruments+0xce>
     3b4: c8           	iny
     3b5: a9 ff        	lda	#$ff
     3b7: 91 16        	sta	($16),y                 ; 0x2016 <midi_instruments+0xcf>
     3b9: 8a           	txa
     3ba: a6 1c        	ldx	$1c                     ; 0x201c <midi_instruments+0xd5>
     3bc: 86 01        	stx	$1                      ; 0x2001 <midi_instruments+0xba>
     3be: 18           	clc
     3bf: 69 04        	adc	#$4
     3c1: 85 17        	sta	$17                     ; 0x2017 <midi_instruments+0xd0>
     3c3: a5 1d        	lda	$1d                     ; 0x201d <midi_instruments+0xd6>
     3c5: 69 00        	adc	#$0
     3c7: e6 15        	inc	$15                     ; 0x2015 <midi_instruments+0xce>
     3c9: a4 15        	ldy	$15                     ; 0x2015 <midi_instruments+0xce>
     3cb: 85 16        	sta	$16                     ; 0x2016 <midi_instruments+0xcf>
     3cd: c9 04        	cmp	#$4
     3cf: f0 03        	beq	$3d4 <f256Init+0x99>
     3d1: 4c 7f 03     	jmp	$37f <f256Init+0x44>
     3d4: a5 17        	lda	$17                     ; 0x2017 <midi_instruments+0xd0>
     3d6: f0 03        	beq	$3db <f256Init+0xa0>
     3d8: 4c 7f 03     	jmp	$37f <f256Init+0x44>
     3db: a6 18        	ldx	$18                     ; 0x2018 <midi_instruments+0xd1>
     3dd: e8           	inx
     3de: e0 04        	cpx	#$4
     3e0: f0 03        	beq	$3e5 <f256Init+0xaa>
     3e2: 4c 6c 03     	jmp	$36c <f256Init+0x31>
     3e5: ad 02 d0     	lda	$d002                   ; 0xd002 <end_block9+0xafba>
     3e8: 29 f0        	and	#$f0
     3ea: 8d 02 d0     	sta	$d002                   ; 0xd002 <end_block9+0xafba>
     3ed: ad 02 d0     	lda	$d002                   ; 0xd002 <end_block9+0xafba>
     3f0: 29 0f        	and	#$f
     3f2: 09 10        	ora	#$10
     3f4: 8d 02 d0     	sta	$d002                   ; 0xd002 <end_block9+0xafba>
     3f7: a2 02        	ldx	#$2
     3f9: 8e 03 d0     	stx	$d003                   ; 0xd003 <end_block9+0xafbb>
     3fc: ad 01 d0     	lda	$d001                   ; 0xd001 <end_block9+0xafb9>
     3ff: 29 f9        	and	#$f9
     401: 09 04        	ora	#$4
     403: 8d 01 d0     	sta	$d001                   ; 0xd001 <end_block9+0xafb9>
     406: 64 14        	stz	$14                     ; 0x2014 <midi_instruments+0xcd>
     408: 9c 10 d0     	stz	$d010                   ; 0xd010 <end_block9+0xafc8>
     40b: a2 00        	ldx	#$0
     40d: 64 15        	stz	$15                     ; 0x2015 <midi_instruments+0xce>
     40f: 86 18        	stx	$18                     ; 0x2018 <midi_instruments+0xd1>
     411: a4 18        	ldy	$18                     ; 0x2018 <midi_instruments+0xd1>
     413: be 4d 18     	ldx	$184d,y                 ; 0x184d <textColors>
     416: 86 19        	stx	$19                     ; 0x2019 <midi_instruments+0xd2>
     418: be 4e 18     	ldx	$184e,y                 ; 0x184e <textColors+0x1>
     41b: 86 1a        	stx	$1a                     ; 0x201a <midi_instruments+0xd3>
     41d: be 4f 18     	ldx	$184f,y                 ; 0x184f <textColors+0x2>
     420: 86 1b        	stx	$1b                     ; 0x201b <midi_instruments+0xd4>
     422: a6 15        	ldx	$15                     ; 0x2015 <midi_instruments+0xce>
     424: 8e 00 de     	stx	$de00                   ; 0xde00 <end_block9+0xbdb8>
     427: 86 17        	stx	$17                     ; 0x2017 <midi_instruments+0xd0>
     429: 9c 01 de     	stz	$de01                   ; 0xde01 <end_block9+0xbdb9>
     42c: a2 04        	ldx	#$4
     42e: 8e 02 de     	stx	$de02                   ; 0xde02 <end_block9+0xbdba>
     431: 9c 03 de     	stz	$de03                   ; 0xde03 <end_block9+0xbdbb>
     434: ad 10 de     	lda	$de10                   ; 0xde10 <end_block9+0xbdc8>
     437: ac 11 de     	ldy	$de11                   ; 0xde11 <end_block9+0xbdc9>
     43a: 84 15        	sty	$15                     ; 0x2015 <midi_instruments+0xce>
     43c: ac 12 de     	ldy	$de12                   ; 0xde12 <end_block9+0xbdca>
     43f: ac 13 de     	ldy	$de13                   ; 0xde13 <end_block9+0xbdcb>
     442: 18           	clc
     443: 65 14        	adc	$14                     ; 0x2014 <midi_instruments+0xcd>
     445: 85 16        	sta	$16                     ; 0x2016 <midi_instruments+0xcf>
     447: a6 17        	ldx	$17                     ; 0x2017 <midi_instruments+0xd0>
     449: a9 d8        	lda	#$d8
     44b: 65 15        	adc	$15                     ; 0x2015 <midi_instruments+0xce>
     44d: 85 17        	sta	$17                     ; 0x2017 <midi_instruments+0xd0>
     44f: a5 1b        	lda	$1b                     ; 0x201b <midi_instruments+0xd4>
     451: 92 16        	sta	($16)                   ; 0x2016 <midi_instruments+0xcf>
     453: a0 01        	ldy	#$1
     455: a5 1a        	lda	$1a                     ; 0x201a <midi_instruments+0xd3>
     457: 91 16        	sta	($16),y                 ; 0x2016 <midi_instruments+0xcf>
     459: c8           	iny
     45a: a5 19        	lda	$19                     ; 0x2019 <midi_instruments+0xd2>
     45c: 91 16        	sta	($16),y                 ; 0x2016 <midi_instruments+0xcf>
     45e: c8           	iny
     45f: a9 ff        	lda	#$ff
     461: 91 16        	sta	($16),y                 ; 0x2016 <midi_instruments+0xcf>
     463: 8e 00 de     	stx	$de00                   ; 0xde00 <end_block9+0xbdb8>
     466: 9c 01 de     	stz	$de01                   ; 0xde01 <end_block9+0xbdb9>
     469: c8           	iny
     46a: 8c 02 de     	sty	$de02                   ; 0xde02 <end_block9+0xbdba>
     46d: 9c 03 de     	stz	$de03                   ; 0xde03 <end_block9+0xbdbb>
     470: ad 10 de     	lda	$de10                   ; 0xde10 <end_block9+0xbdc8>
     473: 85 15        	sta	$15                     ; 0x2015 <midi_instruments+0xce>
     475: ad 11 de     	lda	$de11                   ; 0xde11 <end_block9+0xbdc9>
     478: 85 16        	sta	$16                     ; 0x2016 <midi_instruments+0xcf>
     47a: a9 40        	lda	#$40
     47c: 18           	clc
     47d: 65 15        	adc	$15                     ; 0x2015 <midi_instruments+0xce>
     47f: a8           	tay
     480: a9 d8        	lda	#$d8
     482: 65 16        	adc	$16                     ; 0x2016 <midi_instruments+0xcf>
     484: 85 17        	sta	$17                     ; 0x2017 <midi_instruments+0xd0>
     486: 84 16        	sty	$16                     ; 0x2016 <midi_instruments+0xcf>
     488: ad 12 de     	lda	$de12                   ; 0xde12 <end_block9+0xbdca>
     48b: ad 13 de     	lda	$de13                   ; 0xde13 <end_block9+0xbdcb>
     48e: a5 1b        	lda	$1b                     ; 0x201b <midi_instruments+0xd4>
     490: 92 16        	sta	($16)                   ; 0x2016 <midi_instruments+0xcf>
     492: a5 1a        	lda	$1a                     ; 0x201a <midi_instruments+0xd3>
     494: a0 01        	ldy	#$1
     496: 91 16        	sta	($16),y                 ; 0x2016 <midi_instruments+0xcf>
     498: a5 19        	lda	$19                     ; 0x2019 <midi_instruments+0xd2>
     49a: c8           	iny
     49b: 91 16        	sta	($16),y                 ; 0x2016 <midi_instruments+0xcf>
     49d: c8           	iny
     49e: a9 ff        	lda	#$ff
     4a0: 91 16        	sta	($16),y                 ; 0x2016 <midi_instruments+0xcf>
     4a2: e8           	inx
     4a3: 86 15        	stx	$15                     ; 0x2015 <midi_instruments+0xce>
     4a5: 18           	clc
     4a6: a5 18        	lda	$18                     ; 0x2018 <midi_instruments+0xd1>
     4a8: 69 03        	adc	#$3
     4aa: aa           	tax
     4ab: c9 30        	cmp	#$30
     4ad: f0 03        	beq	$4b2 <f256Init+0x177>
     4af: 4c 0f 04     	jmp	$40f <f256Init+0xd4>
     4b2: a6 01        	ldx	$1                      ; 0x2001 <midi_instruments+0xba>
     4b4: 86 18        	stx	$18                     ; 0x2018 <midi_instruments+0xd1>
     4b6: a2 50        	ldx	#$50
     4b8: 8e 00 de     	stx	$de00                   ; 0xde00 <end_block9+0xbdb8>
     4bb: 9c 01 de     	stz	$de01                   ; 0xde01 <end_block9+0xbdb9>
     4be: a2 1e        	ldx	#$1e
     4c0: 8e 02 de     	stx	$de02                   ; 0xde02 <end_block9+0xbdba>
     4c3: 9c 03 de     	stz	$de03                   ; 0xde03 <end_block9+0xbdbb>
     4c6: ae 10 de     	ldx	$de10                   ; 0xde10 <end_block9+0xbdc8>
     4c9: ac 11 de     	ldy	$de11                   ; 0xde11 <end_block9+0xbdc9>
     4cc: ad 12 de     	lda	$de12                   ; 0xde12 <end_block9+0xbdca>
     4cf: ad 13 de     	lda	$de13                   ; 0xde13 <end_block9+0xbdcb>
     4d2: a9 02        	lda	#$2
     4d4: 85 01        	sta	$1                      ; 0x2001 <midi_instruments+0xba>
     4d6: e0 01        	cpx	#$1
     4d8: 98           	tya
     4d9: e9 00        	sbc	#$0
     4db: 50 02        	bvc	$4df <f256Init+0x1a4>
     4dd: 49 80        	eor	#$80
     4df: c9 00        	cmp	#$0
     4e1: 30 48        	bmi	$52b <f256Init+0x1f0>
     4e3: a9 20        	lda	#$20
     4e5: 86 19        	stx	$19                     ; 0x2019 <midi_instruments+0xd2>
     4e7: 86 14        	stx	$14                     ; 0x2014 <midi_instruments+0xcd>
     4e9: 84 15        	sty	$15                     ; 0x2015 <midi_instruments+0xce>
     4eb: a2 00        	ldx	#$0
     4ed: 86 16        	stx	$16                     ; 0x2016 <midi_instruments+0xcf>
     4ef: a2 c0        	ldx	#$c0
     4f1: 86 17        	stx	$17                     ; 0x2017 <midi_instruments+0xd0>
     4f3: 92 16        	sta	($16)                   ; 0x2016 <midi_instruments+0xcf>
     4f5: e6 16        	inc	$16                     ; 0x2016 <midi_instruments+0xcf>
     4f7: d0 02        	bne	$4fb <f256Init+0x1c0>
     4f9: e6 17        	inc	$17                     ; 0x2017 <midi_instruments+0xd0>
     4fb: a2 ff        	ldx	#$ff
     4fd: c6 14        	dec	$14                     ; 0x2014 <midi_instruments+0xcd>
     4ff: e4 14        	cpx	$14                     ; 0x2014 <midi_instruments+0xcd>
     501: d0 02        	bne	$505 <f256Init+0x1ca>
     503: c6 15        	dec	$15                     ; 0x2015 <midi_instruments+0xce>
     505: a6 15        	ldx	$15                     ; 0x2015 <midi_instruments+0xce>
     507: d0 ea        	bne	$4f3 <f256Init+0x1b8>
     509: a6 14        	ldx	$14                     ; 0x2014 <midi_instruments+0xcd>
     50b: d0 e6        	bne	$4f3 <f256Init+0x1b8>
     50d: a2 03        	ldx	#$3
     50f: 86 01        	stx	$1                      ; 0x2001 <midi_instruments+0xba>
     511: a6 19        	ldx	$19                     ; 0x2019 <midi_instruments+0xd2>
     513: a9 f0        	lda	#$f0
     515: 92 12        	sta	($12)                   ; 0x2012 <midi_instruments+0xcb>
     517: e6 12        	inc	$12                     ; 0x2012 <midi_instruments+0xcb>
     519: d0 02        	bne	$51d <f256Init+0x1e2>
     51b: e6 13        	inc	$13                     ; 0x2013 <midi_instruments+0xcc>
     51d: ca           	dex
     51e: e0 ff        	cpx	#$ff
     520: d0 01        	bne	$523 <f256Init+0x1e8>
     522: 88           	dey
     523: 98           	tya
     524: d0 ed        	bne	$513 <f256Init+0x1d8>
     526: 8a           	txa
     527: d0 ea        	bne	$513 <f256Init+0x1d8>
     529: 80 04        	bra	$52f <f256Init+0x1f4>
     52b: a2 03        	ldx	#$3
     52d: 86 01        	stx	$1                      ; 0x2001 <midi_instruments+0xba>
     52f: a6 18        	ldx	$18                     ; 0x2018 <midi_instruments+0xd1>
     531: 86 01        	stx	$1                      ; 0x2001 <midi_instruments+0xba>
     533: 64 37        	stz	$37                     ; 0x2037 <midi_instruments+0xf0>
     535: 9c 14 d0     	stz	$d014                   ; 0xd014 <end_block9+0xafcc>
     538: 9c 15 d0     	stz	$d015                   ; 0xd015 <end_block9+0xafcd>
     53b: 64 38        	stz	$38                     ; 0x2038 <midi_instruments+0xf1>
     53d: 9c 16 d0     	stz	$d016                   ; 0xd016 <end_block9+0xafce>
     540: 9c 17 d0     	stz	$d017                   ; 0xd017 <end_block9+0xafcf>
     543: a2 40        	ldx	#$40
     545: 8e 00 de     	stx	$de00                   ; 0xde00 <end_block9+0xbdb8>
     548: a2 01        	ldx	#$1
     54a: 8e 01 de     	stx	$de01                   ; 0xde01 <end_block9+0xbdb9>
     54d: a2 f0        	ldx	#$f0
     54f: 8e 02 de     	stx	$de02                   ; 0xde02 <end_block9+0xbdba>
     552: 9c 03 de     	stz	$de03                   ; 0xde03 <end_block9+0xbdbb>
     555: ae 10 de     	ldx	$de10                   ; 0xde10 <end_block9+0xbdc8>
     558: 86 17        	stx	$17                     ; 0x2017 <midi_instruments+0xd0>
     55a: ae 11 de     	ldx	$de11                   ; 0xde11 <end_block9+0xbdc9>
     55d: 86 12        	stx	$12                     ; 0x2012 <midi_instruments+0xcb>
     55f: ae 12 de     	ldx	$de12                   ; 0xde12 <end_block9+0xbdca>
     562: 86 13        	stx	$13                     ; 0x2013 <midi_instruments+0xcc>
     564: ae 13 de     	ldx	$de13                   ; 0xde13 <end_block9+0xbdcb>
     567: 86 14        	stx	$14                     ; 0x2014 <midi_instruments+0xcd>
     569: a4 12        	ldy	$12                     ; 0x2012 <midi_instruments+0xcb>
     56b: 84 15        	sty	$15                     ; 0x2015 <midi_instruments+0xce>
     56d: 06 15        	asl	$15                     ; 0x2015 <midi_instruments+0xce>
     56f: a5 13        	lda	$13                     ; 0x2013 <midi_instruments+0xcc>
     571: 2a           	rol
     572: 86 16        	stx	$16                     ; 0x2016 <midi_instruments+0xcf>
     574: 26 16        	rol	$16                     ; 0x2016 <midi_instruments+0xcf>
     576: 06 15        	asl	$15                     ; 0x2015 <midi_instruments+0xce>
     578: 2a           	rol
     579: 26 16        	rol	$16                     ; 0x2016 <midi_instruments+0xcf>
     57b: 06 15        	asl	$15                     ; 0x2015 <midi_instruments+0xce>
     57d: 2a           	rol
     57e: 26 16        	rol	$16                     ; 0x2016 <midi_instruments+0xcf>
     580: 85 15        	sta	$15                     ; 0x2015 <midi_instruments+0xce>
     582: 8d 00 de     	sta	$de00                   ; 0xde00 <end_block9+0xbdb8>
     585: a5 16        	lda	$16                     ; 0x2016 <midi_instruments+0xcf>
     587: 8d 01 de     	sta	$de01                   ; 0xde01 <end_block9+0xbdb9>
     58a: 9c 02 de     	stz	$de02                   ; 0xde02 <end_block9+0xbdba>
     58d: a2 20        	ldx	#$20
     58f: 8e 03 de     	stx	$de03                   ; 0xde03 <end_block9+0xbdbb>
     592: ae 10 de     	ldx	$de10                   ; 0xde10 <end_block9+0xbdc8>
     595: 86 16        	stx	$16                     ; 0x2016 <midi_instruments+0xcf>
     597: ae 11 de     	ldx	$de11                   ; 0xde11 <end_block9+0xbdc9>
     59a: 86 18        	stx	$18                     ; 0x2018 <midi_instruments+0xd1>
     59c: ac 12 de     	ldy	$de12                   ; 0xde12 <end_block9+0xbdca>
     59f: ae 13 de     	ldx	$de13                   ; 0xde13 <end_block9+0xbdcb>
     5a2: e4 14        	cpx	$14                     ; 0x2014 <midi_instruments+0xcd>
     5a4: d0 14        	bne	$5ba <f256Init+0x27f>
     5a6: c4 13        	cpy	$13                     ; 0x2013 <midi_instruments+0xcc>
     5a8: d0 10        	bne	$5ba <f256Init+0x27f>
     5aa: a6 18        	ldx	$18                     ; 0x2018 <midi_instruments+0xd1>
     5ac: e4 12        	cpx	$12                     ; 0x2012 <midi_instruments+0xcb>
     5ae: d0 0a        	bne	$5ba <f256Init+0x27f>
     5b0: a6 16        	ldx	$16                     ; 0x2016 <midi_instruments+0xcf>
     5b2: e4 17        	cpx	$17                     ; 0x2017 <midi_instruments+0xd0>
     5b4: d0 04        	bne	$5ba <f256Init+0x27f>
     5b6: a6 15        	ldx	$15                     ; 0x2015 <midi_instruments+0xce>
     5b8: 80 06        	bra	$5c0 <f256Init+0x285>
     5ba: a6 15        	ldx	$15                     ; 0x2015 <midi_instruments+0xce>
     5bc: e8           	inx
     5bd: d0 01        	bne	$5c0 <f256Init+0x285>
     5bf: 1a           	inc
     5c0: 8e 00 de     	stx	$de00                   ; 0xde00 <end_block9+0xbdb8>
     5c3: 8d 01 de     	sta	$de01                   ; 0xde01 <end_block9+0xbdb9>
     5c6: 9c 02 de     	stz	$de02                   ; 0xde02 <end_block9+0xbdba>
     5c9: a2 20        	ldx	#$20
     5cb: 8e 03 de     	stx	$de03                   ; 0xde03 <end_block9+0xbdbb>
     5ce: ae 10 de     	ldx	$de10                   ; 0xde10 <end_block9+0xbdc8>
     5d1: 86 12        	stx	$12                     ; 0x2012 <midi_instruments+0xcb>
     5d3: ae 11 de     	ldx	$de11                   ; 0xde11 <end_block9+0xbdc9>
     5d6: 86 13        	stx	$13                     ; 0x2013 <midi_instruments+0xcc>
     5d8: ae 12 de     	ldx	$de12                   ; 0xde12 <end_block9+0xbdca>
     5db: 86 14        	stx	$14                     ; 0x2014 <midi_instruments+0xcd>
     5dd: a9 00        	lda	#$0
     5df: 38           	sec
     5e0: e5 12        	sbc	$12                     ; 0x2012 <midi_instruments+0xcb>
     5e2: a8           	tay
     5e3: a9 00        	lda	#$0
     5e5: e5 13        	sbc	$13                     ; 0x2013 <midi_instruments+0xcc>
     5e7: 85 15        	sta	$15                     ; 0x2015 <midi_instruments+0xce>
     5e9: a9 08        	lda	#$8
     5eb: e5 14        	sbc	$14                     ; 0x2014 <midi_instruments+0xcd>
     5ed: aa           	tax
     5ee: 98           	tya
     5ef: 84 17        	sty	$17                     ; 0x2017 <midi_instruments+0xd0>
     5f1: 38           	sec
     5f2: e5 12        	sbc	$12                     ; 0x2012 <midi_instruments+0xcb>
     5f4: 85 16        	sta	$16                     ; 0x2016 <midi_instruments+0xcf>
     5f6: a5 15        	lda	$15                     ; 0x2015 <midi_instruments+0xce>
     5f8: e5 13        	sbc	$13                     ; 0x2013 <midi_instruments+0xcc>
     5fa: 85 18        	sta	$18                     ; 0x2018 <midi_instruments+0xd1>
     5fc: 8a           	txa
     5fd: 86 19        	stx	$19                     ; 0x2019 <midi_instruments+0xd2>
     5ff: e5 14        	sbc	$14                     ; 0x2014 <midi_instruments+0xcd>
     601: a8           	tay
     602: 38           	sec
     603: a5 16        	lda	$16                     ; 0x2016 <midi_instruments+0xcf>
     605: e5 12        	sbc	$12                     ; 0x2012 <midi_instruments+0xcb>
     607: 85 12        	sta	$12                     ; 0x2012 <midi_instruments+0xcb>
     609: a5 18        	lda	$18                     ; 0x2018 <midi_instruments+0xd1>
     60b: e5 13        	sbc	$13                     ; 0x2013 <midi_instruments+0xcc>
     60d: 85 13        	sta	$13                     ; 0x2013 <midi_instruments+0xcc>
     60f: 98           	tya
     610: e5 14        	sbc	$14                     ; 0x2014 <midi_instruments+0xcd>
     612: ae 13 de     	ldx	$de13                   ; 0xde13 <end_block9+0xbdcb>
     615: a6 17        	ldx	$17                     ; 0x2017 <midi_instruments+0xd0>
     617: 8e 01 d1     	stx	$d101                   ; 0xd101 <end_block9+0xb0b9>
     61a: a6 15        	ldx	$15                     ; 0x2015 <midi_instruments+0xce>
     61c: 8e 02 d1     	stx	$d102                   ; 0xd102 <end_block9+0xb0ba>
     61f: a6 19        	ldx	$19                     ; 0x2019 <midi_instruments+0xd2>
     621: 8e 03 d1     	stx	$d103                   ; 0xd103 <end_block9+0xb0bb>
     624: a6 16        	ldx	$16                     ; 0x2016 <midi_instruments+0xcf>
     626: 8e 09 d1     	stx	$d109                   ; 0xd109 <end_block9+0xb0c1>
     629: a6 18        	ldx	$18                     ; 0x2018 <midi_instruments+0xd1>
     62b: 8e 0a d1     	stx	$d10a                   ; 0xd10a <end_block9+0xb0c2>
     62e: 8c 0b d1     	sty	$d10b                   ; 0xd10b <end_block9+0xb0c3>
     631: a6 12        	ldx	$12                     ; 0x2012 <midi_instruments+0xcb>
     633: 8e 11 d1     	stx	$d111                   ; 0xd111 <end_block9+0xb0c9>
     636: a6 13        	ldx	$13                     ; 0x2013 <midi_instruments+0xcc>
     638: 8e 12 d1     	stx	$d112                   ; 0xd112 <end_block9+0xb0ca>
     63b: 8d 13 d1     	sta	$d113                   ; 0xd113 <end_block9+0xb0cb>
     63e: 9c 00 d1     	stz	$d100                   ; 0xd100 <end_block9+0xb0b8>
     641: 9c 08 d1     	stz	$d108                   ; 0xd108 <end_block9+0xb0c0>
     644: 9c 10 d1     	stz	$d110                   ; 0xd110 <end_block9+0xb0c8>
     647: a2 10        	ldx	#$10
     649: 8e 00 d2     	stx	$d200                   ; 0xd200 <end_block9+0xb1b8>
     64c: 8e 0c d2     	stx	$d20c                   ; 0xd20c <end_block9+0xb1c4>
     64f: 8e 18 d2     	stx	$d218                   ; 0xd218 <end_block9+0xb1d0>
     652: a0 d9        	ldy	#$d9
     654: a2 40        	ldx	#$40
     656: 64 12        	stz	$12                     ; 0x2012 <midi_instruments+0xcb>
     658: 84 13        	sty	$13                     ; 0x2013 <midi_instruments+0xcc>
     65a: a9 00        	lda	#$0
     65c: 92 12        	sta	($12)                   ; 0x2012 <midi_instruments+0xcb>
     65e: ca           	dex
     65f: 18           	clc
     660: a5 12        	lda	$12                     ; 0x2012 <midi_instruments+0xcb>
     662: 69 08        	adc	#$8
     664: 85 12        	sta	$12                     ; 0x2012 <midi_instruments+0xcb>
     666: 98           	tya
     667: 69 00        	adc	#$0
     669: a8           	tay
     66a: 8a           	txa
     66b: d0 eb        	bne	$658 <f256Init+0x31d>
     66d: a2 3b        	ldx	#$3b
     66f: a0 00        	ldy	#$0
     671: 86 fb        	stx	$fb                     ; 0x20fb <end_block9+0xb3>
     673: 84 fc        	sty	$fc                     ; 0x20fc <end_block9+0xb4>
     675: a2 08        	ldx	#$8
     677: 86 fd        	stx	$fd                     ; 0x20fd <end_block9+0xb5>
     679: a2 43        	ldx	#$43
     67b: a0 00        	ldy	#$0
     67d: 86 12        	stx	$12                     ; 0x2012 <midi_instruments+0xcb>
     67f: 84 13        	sty	$13                     ; 0x2013 <midi_instruments+0xcc>
     681: a2 47        	ldx	#$47
     683: 86 14        	stx	$14                     ; 0x2014 <midi_instruments+0xcd>
     685: a2 20        	ldx	#$20
     687: 86 15        	stx	$15                     ; 0x2015 <midi_instruments+0xce>
     689: 20 dc ff     	jsr	$ffdc <end_block9+0xdf94>
     68c: 92 12        	sta	($12)                   ; 0x2012 <midi_instruments+0xcb>
     68e: a9 00        	lda	#$0
     690: 6a           	ror
     691: 85 14        	sta	$14                     ; 0x2014 <midi_instruments+0xcd>
     693: a6 41        	ldx	$41                     ; 0x2041 <midi_instruments+0xfa>
     695: a4 42        	ldy	$42                     ; 0x2042 <midi_instruments+0xfb>
     697: 8e 00 de     	stx	$de00                   ; 0xde00 <end_block9+0xbdb8>
     69a: 9c 01 de     	stz	$de01                   ; 0xde01 <end_block9+0xbdb9>
     69d: 8c 02 de     	sty	$de02                   ; 0xde02 <end_block9+0xbdba>
     6a0: 9c 03 de     	stz	$de03                   ; 0xde03 <end_block9+0xbdbb>
     6a3: ae 10 de     	ldx	$de10                   ; 0xde10 <end_block9+0xbdc8>
     6a6: ac 11 de     	ldy	$de11                   ; 0xde11 <end_block9+0xbdc9>
     6a9: ad 12 de     	lda	$de12                   ; 0xde12 <end_block9+0xbdca>
     6ac: ad 13 de     	lda	$de13                   ; 0xde13 <end_block9+0xbdcb>
     6af: 8e a4 d6     	stx	$d6a4                   ; 0xd6a4 <end_block9+0xb65c>
     6b2: 8c a5 d6     	sty	$d6a5                   ; 0xd6a5 <end_block9+0xb65d>
     6b5: a2 03        	ldx	#$3
     6b7: 8e a6 d6     	stx	$d6a6                   ; 0xd6a6 <end_block9+0xb65e>
     6ba: 60           	rts

000006bb <main>:
     6bb: 20 3b 03     	jsr	$33b <f256Init>
     6be: 20 c1 06     	jsr	$6c1 <f256main>

000006c1 <f256main>:
     6c1: 18           	clc
     6c2: a5 10        	lda	$10                     ; 0x2010 <midi_instruments+0xc9>
     6c4: 69 fe        	adc	#$fe
     6c6: 85 10        	sta	$10                     ; 0x2010 <midi_instruments+0xc9>
     6c8: a5 11        	lda	$11                     ; 0x2011 <midi_instruments+0xca>
     6ca: 69 ff        	adc	#$ff
     6cc: 85 11        	sta	$11                     ; 0x2011 <midi_instruments+0xca>
     6ce: a2 1f        	ldx	#$1f
     6d0: 8e 20 d6     	stx	$d620                   ; 0xd620 <end_block9+0xb5d8>
     6d3: a2 2a        	ldx	#$2a
     6d5: 8e 21 d6     	stx	$d621                   ; 0xd621 <end_block9+0xb5d9>
     6d8: a2 01        	ldx	#$1
     6da: 8e 22 d6     	stx	$d622                   ; 0xd622 <end_block9+0xb5da>
     6dd: ad 22 d6     	lda	$d622                   ; 0xd622 <end_block9+0xb5da>
     6e0: 29 01        	and	#$1
     6e2: 29 01        	and	#$1
     6e4: d0 f7        	bne	$6dd <f256main+0x1c>
     6e6: a9 00        	lda	#$0
     6e8: 64 12        	stz	$12                     ; 0x2012 <midi_instruments+0xcb>
     6ea: a4 12        	ldy	$12                     ; 0x2012 <midi_instruments+0xcb>
     6ec: 84 13        	sty	$13                     ; 0x2013 <midi_instruments+0xcc>
     6ee: 85 12        	sta	$12                     ; 0x2012 <midi_instruments+0xcb>
     6f0: 18           	clc
     6f1: 69 02        	adc	#$2
     6f3: aa           	tax
     6f4: 98           	tya
     6f5: 69 00        	adc	#$0
     6f7: 85 14        	sta	$14                     ; 0x2014 <midi_instruments+0xcd>
     6f9: 06 12        	asl	$12                     ; 0x2012 <midi_instruments+0xcb>
     6fb: 26 13        	rol	$13                     ; 0x2013 <midi_instruments+0xcc>
     6fd: a9 7d        	lda	#$7d
     6ff: 18           	clc
     700: 65 12        	adc	$12                     ; 0x2012 <midi_instruments+0xcb>
     702: 85 12        	sta	$12                     ; 0x2012 <midi_instruments+0xcb>
     704: a9 18        	lda	#$18
     706: 65 13        	adc	$13                     ; 0x2013 <midi_instruments+0xcc>
     708: 85 13        	sta	$13                     ; 0x2013 <midi_instruments+0xcc>
     70a: a0 02        	ldy	#$2
     70c: b1 12        	lda	($12),y                 ; 0x2012 <midi_instruments+0xcb>
     70e: f0 53        	beq	$763 <f256main+0xa2>
     710: 85 16        	sta	$16                     ; 0x2016 <midi_instruments+0xcf>
     712: b2 12        	lda	($12)                   ; 0x2012 <midi_instruments+0xcb>
     714: 85 17        	sta	$17                     ; 0x2017 <midi_instruments+0xd0>
     716: 8a           	txa
     717: a6 14        	ldx	$14                     ; 0x2014 <midi_instruments+0xcd>
     719: a0 01        	ldy	#$1
     71b: 85 14        	sta	$14                     ; 0x2014 <midi_instruments+0xcd>
     71d: 0a           	asl
     71e: 85 12        	sta	$12                     ; 0x2012 <midi_instruments+0xcb>
     720: 86 15        	stx	$15                     ; 0x2015 <midi_instruments+0xce>
     722: 8a           	txa
     723: 2a           	rol
     724: 85 13        	sta	$13                     ; 0x2013 <midi_instruments+0xcc>
     726: a9 7d        	lda	#$7d
     728: 18           	clc
     729: 65 12        	adc	$12                     ; 0x2012 <midi_instruments+0xcb>
     72b: 85 12        	sta	$12                     ; 0x2012 <midi_instruments+0xcb>
     72d: a9 18        	lda	#$18
     72f: 65 13        	adc	$13                     ; 0x2013 <midi_instruments+0xcc>
     731: 85 13        	sta	$13                     ; 0x2013 <midi_instruments+0xcc>
     733: b2 12        	lda	($12)                   ; 0x2012 <midi_instruments+0xcb>
     735: 85 18        	sta	$18                     ; 0x2018 <midi_instruments+0xd1>
     737: b1 12        	lda	($12),y                 ; 0x2012 <midi_instruments+0xcb>
     739: a6 17        	ldx	$17                     ; 0x2017 <midi_instruments+0xd0>
     73b: 8e 01 d7     	stx	$d701                   ; 0xd701 <end_block9+0xb6b9>
     73e: a6 18        	ldx	$18                     ; 0x2018 <midi_instruments+0xd1>
     740: 8e 02 d7     	stx	$d702                   ; 0xd702 <end_block9+0xb6ba>
     743: 8d 03 d7     	sta	$d703                   ; 0xd703 <end_block9+0xb6bb>
     746: 8c 00 d7     	sty	$d700                   ; 0xd700 <end_block9+0xb6b8>
     749: 9c 00 d7     	stz	$d700                   ; 0xd700 <end_block9+0xb6b8>
     74c: ae 00 d7     	ldx	$d700                   ; 0xd700 <end_block9+0xb6b8>
     74f: 30 fb        	bmi	$74c <f256main+0x8b>
     751: c6 16        	dec	$16                     ; 0x2016 <midi_instruments+0xcf>
     753: a5 14        	lda	$14                     ; 0x2014 <midi_instruments+0xcd>
     755: a6 15        	ldx	$15                     ; 0x2015 <midi_instruments+0xce>
     757: 1a           	inc
     758: d0 01        	bne	$75b <f256main+0x9a>
     75a: e8           	inx
     75b: e6 16        	inc	$16                     ; 0x2016 <midi_instruments+0xcf>
     75d: c6 16        	dec	$16                     ; 0x2016 <midi_instruments+0xcf>
     75f: d0 ba        	bne	$71b <f256main+0x5a>
     761: 80 03        	bra	$766 <f256main+0xa5>
     763: 8a           	txa
     764: a6 14        	ldx	$14                     ; 0x2014 <midi_instruments+0xcd>
     766: e0 00        	cpx	#$0
     768: d0 09        	bne	$773 <f256main+0xb2>
     76a: 86 12        	stx	$12                     ; 0x2012 <midi_instruments+0xcb>
     76c: c9 1c        	cmp	#$1c
     76e: b0 0c        	bcs	$77c <f256main+0xbb>
     770: 4c ea 06     	jmp	$6ea <f256main+0x29>
     773: 86 12        	stx	$12                     ; 0x2012 <midi_instruments+0xcb>
     775: e0 00        	cpx	#$0
     777: b0 03        	bcs	$77c <f256main+0xbb>
     779: 4c ea 06     	jmp	$6ea <f256main+0x29>
     77c: a2 c0        	ldx	#$c0
     77e: 8e b1 dd     	stx	$ddb1                   ; 0xddb1 <end_block9+0xbd69>
     781: a2 1e        	ldx	#$1e
     783: 8e b1 dd     	stx	$ddb1                   ; 0xddb1 <end_block9+0xbd69>
     786: a2 3b        	ldx	#$3b
     788: a0 00        	ldy	#$0
     78a: 86 24        	stx	$24                     ; 0x2024 <midi_instruments+0xdd>
     78c: 84 25        	sty	$25                     ; 0x2025 <midi_instruments+0xde>
     78e: a2 47        	ldx	#$47
     790: 86 26        	stx	$26                     ; 0x2026 <midi_instruments+0xdf>
     792: a2 20        	ldx	#$20
     794: 86 27        	stx	$27                     ; 0x2027 <midi_instruments+0xe0>
     796: a0 00        	ldy	#$0
     798: 4c 74 08     	jmp	$874 <f256main+0x1b3>
     79b: a6 14        	ldx	$14                     ; 0x2014 <midi_instruments+0xcd>
     79d: e0 7f        	cpx	#$7f
     79f: b0 03        	bcs	$7a4 <f256main+0xe3>
     7a1: 4c 21 08     	jmp	$821 <f256main+0x160>
     7a4: ad a0 dd     	lda	$dda0                   ; 0xdda0 <end_block9+0xbd58>
     7a7: 29 02        	and	#$2
     7a9: d0 3c        	bne	$7e7 <f256main+0x126>
     7ab: ac a2 dd     	ldy	$dda2                   ; 0xdda2 <end_block9+0xbd5a>
     7ae: 84 12        	sty	$12                     ; 0x2012 <midi_instruments+0xcb>
     7b0: ad a3 dd     	lda	$dda3                   ; 0xdda3 <end_block9+0xbd5b>
     7b3: 29 0f        	and	#$f
     7b5: 85 13        	sta	$13                     ; 0x2013 <midi_instruments+0xcc>
     7b7: a5 13        	lda	$13                     ; 0x2013 <midi_instruments+0xcc>
     7b9: d0 04        	bne	$7bf <f256main+0xfe>
     7bb: a5 12        	lda	$12                     ; 0x2012 <midi_instruments+0xcb>
     7bd: f0 28        	beq	$7e7 <f256main+0x126>
     7bf: a0 01        	ldy	#$1
     7c1: a9 00        	lda	#$0
     7c3: c5 13        	cmp	$13                     ; 0x2013 <midi_instruments+0xcc>
     7c5: a2 01        	ldx	#$1
     7c7: b0 02        	bcs	$7cb <f256main+0x10a>
     7c9: a2 00        	ldx	#$0
     7cb: 86 15        	stx	$15                     ; 0x2015 <midi_instruments+0xce>
     7cd: ad a1 dd     	lda	$dda1                   ; 0xdda1 <end_block9+0xbd59>
     7d0: 8d b1 dd     	sta	$ddb1                   ; 0xddb1 <end_block9+0xbd69>
     7d3: 98           	tya
     7d4: 1a           	inc
     7d5: a2 00        	ldx	#$0
     7d7: e4 13        	cpx	$13                     ; 0x2013 <midi_instruments+0xcc>
     7d9: d0 07        	bne	$7e2 <f256main+0x121>
     7db: c4 12        	cpy	$12                     ; 0x2012 <midi_instruments+0xcb>
     7dd: a8           	tay
     7de: 90 ed        	bcc	$7cd <f256main+0x10c>
     7e0: 80 05        	bra	$7e7 <f256main+0x126>
     7e2: a8           	tay
     7e3: a5 15        	lda	$15                     ; 0x2015 <midi_instruments+0xce>
     7e5: f0 e6        	beq	$7cd <f256main+0x10c>
     7e7: 64 30        	stz	$30                     ; 0x2030 <midi_instruments+0xe9>
     7e9: 20 00 ff     	jsr	$ff00 <end_block9+0xdeb8>
     7ec: 92 24        	sta	($24)                   ; 0x2024 <midi_instruments+0xdd>
     7ee: a9 00        	lda	#$0
     7f0: 6a           	ror
     7f1: 85 26        	sta	$26                     ; 0x2026 <midi_instruments+0xdf>
     7f3: a4 30        	ldy	$30                     ; 0x2030 <midi_instruments+0xe9>
     7f5: c0 08        	cpy	#$8
     7f7: d0 ab        	bne	$7a4 <f256main+0xe3>
     7f9: a4 34        	ldy	$34                     ; 0x2034 <midi_instruments+0xed>
     7fb: c0 b6        	cpy	#$b6
     7fd: d0 03        	bne	$802 <f256main+0x141>
     7ff: 4c 9b 07     	jmp	$79b <f256main+0xda>
     802: c0 b7        	cpy	#$b7
     804: f0 03        	beq	$809 <f256main+0x148>
     806: 4c a4 07     	jmp	$7a4 <f256main+0xe3>
     809: a0 00        	ldy	#$0
     80b: a5 14        	lda	$14                     ; 0x2014 <midi_instruments+0xcd>
     80d: d0 03        	bne	$812 <f256main+0x151>
     80f: 4c 74 08     	jmp	$874 <f256main+0x1b3>
     812: a6 14        	ldx	$14                     ; 0x2014 <midi_instruments+0xcd>
     814: ca           	dex
     815: a0 86        	ldy	#$86
     817: 84 12        	sty	$12                     ; 0x2012 <midi_instruments+0xcb>
     819: a0 1d        	ldy	#$1d
     81b: 84 13        	sty	$13                     ; 0x2013 <midi_instruments+0xcc>
     81d: da           	phx
     81e: 7a           	ply
     81f: 80 0c        	bra	$82d <f256main+0x16c>
     821: e6 14        	inc	$14                     ; 0x2014 <midi_instruments+0xcd>
     823: a0 e4        	ldy	#$e4
     825: 84 12        	sty	$12                     ; 0x2012 <midi_instruments+0xcb>
     827: a0 1d        	ldy	#$1d
     829: 84 13        	sty	$13                     ; 0x2013 <midi_instruments+0xcc>
     82b: a4 14        	ldy	$14                     ; 0x2014 <midi_instruments+0xcd>
     82d: 98           	tya
     82e: 0a           	asl
     82f: 85 14        	sta	$14                     ; 0x2014 <midi_instruments+0xcd>
     831: a9 00        	lda	#$0
     833: 2a           	rol
     834: 85 15        	sta	$15                     ; 0x2015 <midi_instruments+0xce>
     836: a9 47        	lda	#$47
     838: 18           	clc
     839: 65 14        	adc	$14                     ; 0x2014 <midi_instruments+0xcd>
     83b: 85 14        	sta	$14                     ; 0x2014 <midi_instruments+0xcd>
     83d: a9 1f        	lda	#$1f
     83f: 65 15        	adc	$15                     ; 0x2015 <midi_instruments+0xce>
     841: a2 c0        	ldx	#$c0
     843: 8e b1 dd     	stx	$ddb1                   ; 0xddb1 <end_block9+0xbd69>
     846: 8c b1 dd     	sty	$ddb1                   ; 0xddb1 <end_block9+0xbd69>
     849: 64 37        	stz	$37                     ; 0x2037 <midi_instruments+0xf0>
     84b: 9c 14 d0     	stz	$d014                   ; 0xd014 <end_block9+0xafcc>
     84e: 9c 15 d0     	stz	$d015                   ; 0xd015 <end_block9+0xafcd>
     851: 64 38        	stz	$38                     ; 0x2038 <midi_instruments+0xf1>
     853: 9c 16 d0     	stz	$d016                   ; 0xd016 <end_block9+0xafce>
     856: 9c 17 d0     	stz	$d017                   ; 0xd017 <end_block9+0xafcf>
     859: 85 15        	sta	$15                     ; 0x2015 <midi_instruments+0xce>
     85b: b2 14        	lda	($14)                   ; 0x2014 <midi_instruments+0xcd>
     85d: 85 16        	sta	$16                     ; 0x2016 <midi_instruments+0xcf>
     85f: 84 28        	sty	$28                     ; 0x2028 <midi_instruments+0xe1>
     861: a0 01        	ldy	#$1
     863: b1 14        	lda	($14),y                 ; 0x2014 <midi_instruments+0xcd>
     865: 85 14        	sta	$14                     ; 0x2014 <midi_instruments+0xcd>
     867: a5 16        	lda	$16                     ; 0x2016 <midi_instruments+0xcf>
     869: 92 10        	sta	($10)                   ; 0x2010 <midi_instruments+0xc9>
     86b: a5 14        	lda	$14                     ; 0x2014 <midi_instruments+0xcd>
     86d: 91 10        	sta	($10),y                 ; 0x2010 <midi_instruments+0xc9>
     86f: 20 16 0c     	jsr	$c16 <printf>
     872: a4 28        	ldy	$28                     ; 0x2028 <midi_instruments+0xe1>
     874: 84 14        	sty	$14                     ; 0x2014 <midi_instruments+0xcd>
     876: 4c a4 07     	jmp	$7a4 <f256main+0xe3>

00000879 <__putchar>:
     879: 85 39        	sta	$39                     ; 0x2039 <midi_instruments+0xf2>
     87b: a6 01        	ldx	$1                      ; 0x2001 <midi_instruments+0xba>
     87d: 86 22        	stx	$22                     ; 0x2022 <midi_instruments+0xdb>
     87f: a6 38        	ldx	$38                     ; 0x2038 <midi_instruments+0xf1>
     881: a0 50        	ldy	#$50
     883: 8c 00 de     	sty	$de00                   ; 0xde00 <end_block9+0xbdb8>
     886: 9c 01 de     	stz	$de01                   ; 0xde01 <end_block9+0xbdb9>
     889: 8e 02 de     	stx	$de02                   ; 0xde02 <end_block9+0xbdba>
     88c: 9c 03 de     	stz	$de03                   ; 0xde03 <end_block9+0xbdbb>
     88f: ae 10 de     	ldx	$de10                   ; 0xde10 <end_block9+0xbdc8>
     892: ac 11 de     	ldy	$de11                   ; 0xde11 <end_block9+0xbdc9>
     895: 84 13        	sty	$13                     ; 0x2013 <midi_instruments+0xcc>
     897: ad 12 de     	lda	$de12                   ; 0xde12 <end_block9+0xbdca>
     89a: ac 13 de     	ldy	$de13                   ; 0xde13 <end_block9+0xbdcb>
     89d: 84 1a        	sty	$1a                     ; 0x201a <midi_instruments+0xd3>
     89f: 9c 08 de     	stz	$de08                   ; 0xde08 <end_block9+0xbdc0>
     8a2: a0 c0        	ldy	#$c0
     8a4: 8c 09 de     	sty	$de09                   ; 0xde09 <end_block9+0xbdc1>
     8a7: 9c 0a de     	stz	$de0a                   ; 0xde0a <end_block9+0xbdc2>
     8aa: 9c 0b de     	stz	$de0b                   ; 0xde0b <end_block9+0xbdc3>
     8ad: 8e 0c de     	stx	$de0c                   ; 0xde0c <end_block9+0xbdc4>
     8b0: 64 12        	stz	$12                     ; 0x2012 <midi_instruments+0xcb>
     8b2: a2 00        	ldx	#$0
     8b4: 86 14        	stx	$14                     ; 0x2014 <midi_instruments+0xcd>
     8b6: a2 c0        	ldx	#$c0
     8b8: 86 15        	stx	$15                     ; 0x2015 <midi_instruments+0xce>
     8ba: a2 11        	ldx	#$11
     8bc: 86 16        	stx	$16                     ; 0x2016 <midi_instruments+0xcf>
     8be: a2 c9        	ldx	#$c9
     8c0: 86 17        	stx	$17                     ; 0x2017 <midi_instruments+0xd0>
     8c2: a2 10        	ldx	#$10
     8c4: 86 18        	stx	$18                     ; 0x2018 <midi_instruments+0xd1>
     8c6: a2 c9        	ldx	#$c9
     8c8: 86 19        	stx	$19                     ; 0x2019 <midi_instruments+0xd2>
     8ca: a6 13        	ldx	$13                     ; 0x2013 <midi_instruments+0xcc>
     8cc: 8e 0d de     	stx	$de0d                   ; 0xde0d <end_block9+0xbdc5>
     8cf: 8d 0e de     	sta	$de0e                   ; 0xde0e <end_block9+0xbdc6>
     8d2: a6 1a        	ldx	$1a                     ; 0x201a <midi_instruments+0xd3>
     8d4: 8e 0f de     	stx	$de0f                   ; 0xde0f <end_block9+0xbdc7>
     8d7: ac 18 de     	ldy	$de18                   ; 0xde18 <end_block9+0xbdd0>
     8da: ad 19 de     	lda	$de19                   ; 0xde19 <end_block9+0xbdd1>
     8dd: ae 1a de     	ldx	$de1a                   ; 0xde1a <end_block9+0xbdd2>
     8e0: ae 1b de     	ldx	$de1b                   ; 0xde1b <end_block9+0xbdd3>
     8e3: 84 1a        	sty	$1a                     ; 0x201a <midi_instruments+0xd3>
     8e5: 85 1b        	sta	$1b                     ; 0x201b <midi_instruments+0xd4>
     8e7: 64 13        	stz	$13                     ; 0x2013 <midi_instruments+0xcc>
     8e9: 80 13        	bra	$8fe <__putchar+0x85>
     8eb: a5 1a        	lda	$1a                     ; 0x201a <midi_instruments+0xd3>
     8ed: 18           	clc
     8ee: 69 50        	adc	#$50
     8f0: 85 1a        	sta	$1a                     ; 0x201a <midi_instruments+0xd3>
     8f2: a5 1b        	lda	$1b                     ; 0x201b <midi_instruments+0xd4>
     8f4: 69 00        	adc	#$0
     8f6: 85 1b        	sta	$1b                     ; 0x201b <midi_instruments+0xd4>
     8f8: e6 12        	inc	$12                     ; 0x2012 <midi_instruments+0xcb>
     8fa: d0 02        	bne	$8fe <__putchar+0x85>
     8fc: e6 13        	inc	$13                     ; 0x2013 <midi_instruments+0xcc>
     8fe: a9 39        	lda	#$39
     900: 18           	clc
     901: 65 12        	adc	$12                     ; 0x2012 <midi_instruments+0xcb>
     903: 85 1c        	sta	$1c                     ; 0x201c <midi_instruments+0xd5>
     905: a9 00        	lda	#$0
     907: 65 13        	adc	$13                     ; 0x2013 <midi_instruments+0xcc>
     909: 85 1d        	sta	$1d                     ; 0x201d <midi_instruments+0xd6>
     90b: b2 1c        	lda	($1c)                   ; 0x201c <midi_instruments+0xd5>
     90d: c9 0a        	cmp	#$a
     90f: f0 26        	beq	$937 <__putchar+0xbe>
     911: c9 0d        	cmp	#$d
     913: f0 22        	beq	$937 <__putchar+0xbe>
     915: aa           	tax
     916: d0 03        	bne	$91b <__putchar+0xa2>
     918: 4c 1c 0a     	jmp	$a1c <__putchar+0x1a3>
     91b: a2 03        	ldx	#$3
     91d: 86 01        	stx	$1                      ; 0x2001 <midi_instruments+0xba>
     91f: a4 37        	ldy	$37                     ; 0x2037 <midi_instruments+0xf0>
     921: a9 f0        	lda	#$f0
     923: 91 1a        	sta	($1a),y                 ; 0x201a <midi_instruments+0xd3>
     925: ca           	dex
     926: 86 01        	stx	$1                      ; 0x2001 <midi_instruments+0xba>
     928: b2 1c        	lda	($1c)                   ; 0x201c <midi_instruments+0xd5>
     92a: a4 37        	ldy	$37                     ; 0x2037 <midi_instruments+0xf0>
     92c: 91 1a        	sta	($1a),y                 ; 0x201a <midi_instruments+0xd3>
     92e: a6 37        	ldx	$37                     ; 0x2037 <midi_instruments+0xf0>
     930: e8           	inx
     931: e6 37        	inc	$37                     ; 0x2037 <midi_instruments+0xf0>
     933: e0 50        	cpx	#$50
     935: d0 c1        	bne	$8f8 <__putchar+0x7f>
     937: 64 37        	stz	$37                     ; 0x2037 <midi_instruments+0xf0>
     939: a6 38        	ldx	$38                     ; 0x2038 <midi_instruments+0xf1>
     93b: e8           	inx
     93c: e6 38        	inc	$38                     ; 0x2038 <midi_instruments+0xf1>
     93e: e0 1e        	cpx	#$1e
     940: f0 03        	beq	$945 <__putchar+0xcc>
     942: 4c eb 08     	jmp	$8eb <__putchar+0x72>
     945: a2 03        	ldx	#$3
     947: 86 01        	stx	$1                      ; 0x2001 <midi_instruments+0xba>
     949: a2 01        	ldx	#$1
     94b: 86 1a        	stx	$1a                     ; 0x201a <midi_instruments+0xd3>
     94d: a2 09        	ldx	#$9
     94f: a0 10        	ldy	#$10
     951: a9 00        	lda	#$0
     953: 85 1c        	sta	$1c                     ; 0x201c <midi_instruments+0xd5>
     955: a9 c0        	lda	#$c0
     957: 85 1d        	sta	$1d                     ; 0x201d <midi_instruments+0xd6>
     959: 84 1b        	sty	$1b                     ; 0x201b <midi_instruments+0xd4>
     95b: a0 50        	ldy	#$50
     95d: b1 1c        	lda	($1c),y                 ; 0x201c <midi_instruments+0xd5>
     95f: 92 1c        	sta	($1c)                   ; 0x201c <midi_instruments+0xd5>
     961: a9 ff        	lda	#$ff
     963: c6 1b        	dec	$1b                     ; 0x201b <midi_instruments+0xd4>
     965: c5 1b        	cmp	$1b                     ; 0x201b <midi_instruments+0xd4>
     967: d0 01        	bne	$96a <__putchar+0xf1>
     969: ca           	dex
     96a: e6 1c        	inc	$1c                     ; 0x201c <midi_instruments+0xd5>
     96c: d0 02        	bne	$970 <__putchar+0xf7>
     96e: e6 1d        	inc	$1d                     ; 0x201d <midi_instruments+0xd6>
     970: 8a           	txa
     971: d0 ea        	bne	$95d <__putchar+0xe4>
     973: a5 1b        	lda	$1b                     ; 0x201b <midi_instruments+0xd4>
     975: d0 e6        	bne	$95d <__putchar+0xe4>
     977: a2 02        	ldx	#$2
     979: 86 01        	stx	$1                      ; 0x2001 <midi_instruments+0xba>
     97b: a2 00        	ldx	#$0
     97d: a5 1a        	lda	$1a                     ; 0x201a <midi_instruments+0xd3>
     97f: d0 ca        	bne	$94b <__putchar+0xd2>
     981: a2 03        	ldx	#$3
     983: 86 01        	stx	$1                      ; 0x2001 <midi_instruments+0xba>
     985: a2 50        	ldx	#$50
     987: a0 11        	ldy	#$11
     989: 84 1a        	sty	$1a                     ; 0x201a <midi_instruments+0xd3>
     98b: a0 c9        	ldy	#$c9
     98d: 84 1b        	sty	$1b                     ; 0x201b <midi_instruments+0xd4>
     98f: a0 10        	ldy	#$10
     991: 84 1c        	sty	$1c                     ; 0x201c <midi_instruments+0xd5>
     993: a0 c9        	ldy	#$c9
     995: 84 1d        	sty	$1d                     ; 0x201d <midi_instruments+0xd6>
     997: a9 f0        	lda	#$f0
     999: a4 1a        	ldy	$1a                     ; 0x201a <midi_instruments+0xd3>
     99b: 84 1e        	sty	$1e                     ; 0x201e <midi_instruments+0xd7>
     99d: a4 1b        	ldy	$1b                     ; 0x201b <midi_instruments+0xd4>
     99f: 84 1f        	sty	$1f                     ; 0x201f <midi_instruments+0xd8>
     9a1: 92 1c        	sta	($1c)                   ; 0x201c <midi_instruments+0xd5>
     9a3: e6 1a        	inc	$1a                     ; 0x201a <midi_instruments+0xd3>
     9a5: d0 02        	bne	$9a9 <__putchar+0x130>
     9a7: e6 1b        	inc	$1b                     ; 0x201b <midi_instruments+0xd4>
     9a9: ca           	dex
     9aa: a4 1e        	ldy	$1e                     ; 0x201e <midi_instruments+0xd7>
     9ac: 84 1c        	sty	$1c                     ; 0x201c <midi_instruments+0xd5>
     9ae: a4 1f        	ldy	$1f                     ; 0x201f <midi_instruments+0xd8>
     9b0: 84 1d        	sty	$1d                     ; 0x201d <midi_instruments+0xd6>
     9b2: e0 00        	cpx	#$0
     9b4: d0 e3        	bne	$999 <__putchar+0x120>
     9b6: a2 02        	ldx	#$2
     9b8: 86 01        	stx	$1                      ; 0x2001 <midi_instruments+0xba>
     9ba: a2 50        	ldx	#$50
     9bc: a0 11        	ldy	#$11
     9be: 84 1a        	sty	$1a                     ; 0x201a <midi_instruments+0xd3>
     9c0: a0 c9        	ldy	#$c9
     9c2: 84 1b        	sty	$1b                     ; 0x201b <midi_instruments+0xd4>
     9c4: a0 10        	ldy	#$10
     9c6: 84 1c        	sty	$1c                     ; 0x201c <midi_instruments+0xd5>
     9c8: a0 c9        	ldy	#$c9
     9ca: 84 1d        	sty	$1d                     ; 0x201d <midi_instruments+0xd6>
     9cc: a9 20        	lda	#$20
     9ce: a4 1a        	ldy	$1a                     ; 0x201a <midi_instruments+0xd3>
     9d0: 84 1e        	sty	$1e                     ; 0x201e <midi_instruments+0xd7>
     9d2: a4 1b        	ldy	$1b                     ; 0x201b <midi_instruments+0xd4>
     9d4: 84 1f        	sty	$1f                     ; 0x201f <midi_instruments+0xd8>
     9d6: 92 1c        	sta	($1c)                   ; 0x201c <midi_instruments+0xd5>
     9d8: e6 1a        	inc	$1a                     ; 0x201a <midi_instruments+0xd3>
     9da: d0 02        	bne	$9de <__putchar+0x165>
     9dc: e6 1b        	inc	$1b                     ; 0x201b <midi_instruments+0xd4>
     9de: ca           	dex
     9df: a4 1e        	ldy	$1e                     ; 0x201e <midi_instruments+0xd7>
     9e1: 84 1c        	sty	$1c                     ; 0x201c <midi_instruments+0xd5>
     9e3: a4 1f        	ldy	$1f                     ; 0x201f <midi_instruments+0xd8>
     9e5: 84 1d        	sty	$1d                     ; 0x201d <midi_instruments+0xd6>
     9e7: e0 00        	cpx	#$0
     9e9: d0 e3        	bne	$9ce <__putchar+0x155>
     9eb: c6 38        	dec	$38                     ; 0x2038 <midi_instruments+0xf1>
     9ed: 9c 08 de     	stz	$de08                   ; 0xde08 <end_block9+0xbdc0>
     9f0: a2 c0        	ldx	#$c0
     9f2: 8e 09 de     	stx	$de09                   ; 0xde09 <end_block9+0xbdc1>
     9f5: 9c 0a de     	stz	$de0a                   ; 0xde0a <end_block9+0xbdc2>
     9f8: 9c 0b de     	stz	$de0b                   ; 0xde0b <end_block9+0xbdc3>
     9fb: a2 1d        	ldx	#$1d
     9fd: 8e 0c de     	stx	$de0c                   ; 0xde0c <end_block9+0xbdc4>
     a00: 9c 0d de     	stz	$de0d                   ; 0xde0d <end_block9+0xbdc5>
     a03: 9c 0e de     	stz	$de0e                   ; 0xde0e <end_block9+0xbdc6>
     a06: 9c 0f de     	stz	$de0f                   ; 0xde0f <end_block9+0xbdc7>
     a09: ae 18 de     	ldx	$de18                   ; 0xde18 <end_block9+0xbdd0>
     a0c: ac 19 de     	ldy	$de19                   ; 0xde19 <end_block9+0xbdd1>
     a0f: ad 1a de     	lda	$de1a                   ; 0xde1a <end_block9+0xbdd2>
     a12: ad 1b de     	lda	$de1b                   ; 0xde1b <end_block9+0xbdd3>
     a15: 86 1a        	stx	$1a                     ; 0x201a <midi_instruments+0xd3>
     a17: 84 1b        	sty	$1b                     ; 0x201b <midi_instruments+0xd4>
     a19: 4c f8 08     	jmp	$8f8 <__putchar+0x7f>
     a1c: a6 22        	ldx	$22                     ; 0x2022 <midi_instruments+0xdb>
     a1e: 86 01        	stx	$1                      ; 0x2001 <midi_instruments+0xba>
     a20: a6 37        	ldx	$37                     ; 0x2037 <midi_instruments+0xf0>
     a22: a4 38        	ldy	$38                     ; 0x2038 <midi_instruments+0xf1>
     a24: 8e 14 d0     	stx	$d014                   ; 0xd014 <end_block9+0xafcc>
     a27: 9c 15 d0     	stz	$d015                   ; 0xd015 <end_block9+0xafcd>
     a2a: 84 38        	sty	$38                     ; 0x2038 <midi_instruments+0xf1>
     a2c: 8c 16 d0     	sty	$d016                   ; 0xd016 <end_block9+0xafce>
     a2f: 9c 17 d0     	stz	$d017                   ; 0xd017 <end_block9+0xafcf>
     a32: 60           	rts

00000a33 <exit>:
     a33: 20 14 03     	jsr	$314 <_fini>
     a36: 80 fe        	bra	$a36 <exit+0x3>

00000a38 <_ZN12_GLOBAL__N_13putEcP6Status>:
     a38: 85 18        	sta	$18                     ; 0x2018 <midi_instruments+0xd1>
     a3a: a6 13        	ldx	$13                     ; 0x2013 <midi_instruments+0xcc>
     a3c: 18           	clc
     a3d: a5 12        	lda	$12                     ; 0x2012 <midi_instruments+0xcb>
     a3f: 69 05        	adc	#$5
     a41: a8           	tay
     a42: a5 13        	lda	$13                     ; 0x2013 <midi_instruments+0xcc>
     a44: 86 15        	stx	$15                     ; 0x2015 <midi_instruments+0xce>
     a46: 69 00        	adc	#$0
     a48: 18           	clc
     a49: 84 16        	sty	$16                     ; 0x2016 <midi_instruments+0xcf>
     a4b: a0 05        	ldy	#$5
     a4d: 85 17        	sta	$17                     ; 0x2017 <midi_instruments+0xd0>
     a4f: b1 12        	lda	($12),y                 ; 0x2012 <midi_instruments+0xcb>
     a51: aa           	tax
     a52: a5 12        	lda	$12                     ; 0x2012 <midi_instruments+0xcb>
     a54: 69 03        	adc	#$3
     a56: 85 14        	sta	$14                     ; 0x2014 <midi_instruments+0xcd>
     a58: a5 15        	lda	$15                     ; 0x2015 <midi_instruments+0xce>
     a5a: 69 00        	adc	#$0
     a5c: 85 15        	sta	$15                     ; 0x2015 <midi_instruments+0xce>
     a5e: a0 01        	ldy	#$1
     a60: b1 16        	lda	($16),y                 ; 0x2016 <midi_instruments+0xcf>
     a62: d1 14        	cmp	($14),y                 ; 0x2014 <midi_instruments+0xcd>
     a64: d0 11        	bne	$a77 <_ZN12_GLOBAL__N_13putEcP6Status+0x3f>
     a66: a0 03        	ldy	#$3
     a68: 85 17        	sta	$17                     ; 0x2017 <midi_instruments+0xd0>
     a6a: b1 12        	lda	($12),y                 ; 0x2012 <midi_instruments+0xcb>
     a6c: 85 14        	sta	$14                     ; 0x2014 <midi_instruments+0xcd>
     a6e: 86 16        	stx	$16                     ; 0x2016 <midi_instruments+0xcf>
     a70: e4 14        	cpx	$14                     ; 0x2014 <midi_instruments+0xcd>
     a72: 90 0e        	bcc	$a82 <_ZN12_GLOBAL__N_13putEcP6Status+0x4a>
     a74: 4c e1 0a     	jmp	$ae1 <_ZN12_GLOBAL__N_13putEcP6Status+0xa9>
     a77: 86 16        	stx	$16                     ; 0x2016 <midi_instruments+0xcf>
     a79: d1 14        	cmp	($14),y                 ; 0x2014 <midi_instruments+0xcd>
     a7b: 85 17        	sta	$17                     ; 0x2017 <midi_instruments+0xd0>
     a7d: 90 03        	bcc	$a82 <_ZN12_GLOBAL__N_13putEcP6Status+0x4a>
     a7f: 4c e1 0a     	jmp	$ae1 <_ZN12_GLOBAL__N_13putEcP6Status+0xa9>
     a82: a5 12        	lda	$12                     ; 0x2012 <midi_instruments+0xcb>
     a84: 18           	clc
     a85: 69 0f        	adc	#$f
     a87: 85 14        	sta	$14                     ; 0x2014 <midi_instruments+0xcd>
     a89: a5 13        	lda	$13                     ; 0x2013 <midi_instruments+0xcc>
     a8b: 69 00        	adc	#$0
     a8d: 85 15        	sta	$15                     ; 0x2015 <midi_instruments+0xce>
     a8f: a0 01        	ldy	#$1
     a91: b1 14        	lda	($14),y                 ; 0x2014 <midi_instruments+0xcd>
     a93: a2 00        	ldx	#$0
     a95: 86 14        	stx	$14                     ; 0x2014 <midi_instruments+0xcd>
     a97: a2 00        	ldx	#$0
     a99: 86 15        	stx	$15                     ; 0x2015 <midi_instruments+0xce>
     a9b: c5 15        	cmp	$15                     ; 0x2015 <midi_instruments+0xce>
     a9d: d0 2d        	bne	$acc <_ZN12_GLOBAL__N_13putEcP6Status+0x94>
     a9f: a0 0f        	ldy	#$f
     aa1: b1 12        	lda	($12),y                 ; 0x2012 <midi_instruments+0xcb>
     aa3: c5 14        	cmp	$14                     ; 0x2014 <midi_instruments+0xcd>
     aa5: d0 25        	bne	$acc <_ZN12_GLOBAL__N_13putEcP6Status+0x94>
     aa7: a5 12        	lda	$12                     ; 0x2012 <midi_instruments+0xcb>
     aa9: 18           	clc
     aaa: 69 09        	adc	#$9
     aac: 85 14        	sta	$14                     ; 0x2014 <midi_instruments+0xcd>
     aae: a5 13        	lda	$13                     ; 0x2013 <midi_instruments+0xcc>
     ab0: 69 00        	adc	#$0
     ab2: a0 09        	ldy	#$9
     ab4: 85 15        	sta	$15                     ; 0x2015 <midi_instruments+0xce>
     ab6: 18           	clc
     ab7: a5 16        	lda	$16                     ; 0x2016 <midi_instruments+0xcf>
     ab9: 71 12        	adc	($12),y                 ; 0x2012 <midi_instruments+0xcb>
     abb: aa           	tax
     abc: a0 01        	ldy	#$1
     abe: a5 17        	lda	$17                     ; 0x2017 <midi_instruments+0xd0>
     ac0: 71 14        	adc	($14),y                 ; 0x2014 <midi_instruments+0xcd>
     ac2: 86 14        	stx	$14                     ; 0x2014 <midi_instruments+0xcd>
     ac4: 85 15        	sta	$15                     ; 0x2015 <midi_instruments+0xce>
     ac6: a5 18        	lda	$18                     ; 0x2018 <midi_instruments+0xd1>
     ac8: 92 14        	sta	($14)                   ; 0x2014 <midi_instruments+0xcd>
     aca: 80 15        	bra	$ae1 <_ZN12_GLOBAL__N_13putEcP6Status+0xa9>
     acc: a6 12        	ldx	$12                     ; 0x2012 <midi_instruments+0xcb>
     ace: 86 91        	stx	$91                     ; 0x2091 <end_block9+0x49>
     ad0: a6 13        	ldx	$13                     ; 0x2013 <midi_instruments+0xcc>
     ad2: 86 92        	stx	$92                     ; 0x2092 <end_block9+0x4a>
     ad4: a5 18        	lda	$18                     ; 0x2018 <midi_instruments+0xd1>
     ad6: 20 79 08     	jsr	$879 <__putchar>
     ad9: a6 91        	ldx	$91                     ; 0x2091 <end_block9+0x49>
     adb: 86 12        	stx	$12                     ; 0x2012 <midi_instruments+0xcb>
     add: a6 92        	ldx	$92                     ; 0x2092 <end_block9+0x4a>
     adf: 86 13        	stx	$13                     ; 0x2013 <midi_instruments+0xcc>
     ae1: a0 05        	ldy	#$5
     ae3: a5 12        	lda	$12                     ; 0x2012 <midi_instruments+0xcb>
     ae5: 18           	clc
     ae6: 69 05        	adc	#$5
     ae8: 85 14        	sta	$14                     ; 0x2014 <midi_instruments+0xcd>
     aea: a5 13        	lda	$13                     ; 0x2013 <midi_instruments+0xcc>
     aec: 69 00        	adc	#$0
     aee: 85 15        	sta	$15                     ; 0x2015 <midi_instruments+0xce>
     af0: b1 12        	lda	($12),y                 ; 0x2012 <midi_instruments+0xcb>
     af2: aa           	tax
     af3: a0 01        	ldy	#$1
     af5: b1 14        	lda	($14),y                 ; 0x2014 <midi_instruments+0xcd>
     af7: e8           	inx
     af8: d0 01        	bne	$afb <_ZN12_GLOBAL__N_13putEcP6Status+0xc3>
     afa: 1a           	inc
     afb: 85 16        	sta	$16                     ; 0x2016 <midi_instruments+0xcf>
     afd: 8a           	txa
     afe: a0 05        	ldy	#$5
     b00: 91 12        	sta	($12),y                 ; 0x2012 <midi_instruments+0xcb>
     b02: a0 01        	ldy	#$1
     b04: a5 16        	lda	$16                     ; 0x2016 <midi_instruments+0xcf>
     b06: 91 14        	sta	($14),y                 ; 0x2014 <midi_instruments+0xcd>
     b08: 60           	rts

00000b09 <_ZN12_GLOBAL__N_112print_stringEPKcP6Status>:
     b09: a6 12        	ldx	$12                     ; 0x2012 <midi_instruments+0xcb>
     b0b: 86 89        	stx	$89                     ; 0x2089 <end_block9+0x41>
     b0d: a6 13        	ldx	$13                     ; 0x2013 <midi_instruments+0xcc>
     b0f: 86 8a        	stx	$8a                     ; 0x208a <end_block9+0x42>
     b11: a6 14        	ldx	$14                     ; 0x2014 <midi_instruments+0xcd>
     b13: 86 8b        	stx	$8b                     ; 0x208b <end_block9+0x43>
     b15: a6 15        	ldx	$15                     ; 0x2015 <midi_instruments+0xce>
     b17: 86 8c        	stx	$8c                     ; 0x208c <end_block9+0x44>
     b19: a5 8b        	lda	$8b                     ; 0x208b <end_block9+0x43>
     b1b: 18           	clc
     b1c: 69 0d        	adc	#$d
     b1e: 85 12        	sta	$12                     ; 0x2012 <midi_instruments+0xcb>
     b20: a5 8c        	lda	$8c                     ; 0x208c <end_block9+0x44>
     b22: 69 00        	adc	#$0
     b24: 85 13        	sta	$13                     ; 0x2013 <midi_instruments+0xcc>
     b26: a0 01        	ldy	#$1
     b28: b1 12        	lda	($12),y                 ; 0x2012 <midi_instruments+0xcb>
     b2a: 30 16        	bmi	$b42 <_ZN12_GLOBAL__N_112print_stringEPKcP6Status+0x39>
     b2c: a0 0d        	ldy	#$d
     b2e: 85 12        	sta	$12                     ; 0x2012 <midi_instruments+0xcb>
     b30: b1 8b        	lda	($8b),y                 ; 0x208b <end_block9+0x43>
     b32: a6 12        	ldx	$12                     ; 0x2012 <midi_instruments+0xcb>
     b34: 86 90        	stx	$90                     ; 0x2090 <end_block9+0x48>
     b36: d0 0f        	bne	$b47 <_ZN12_GLOBAL__N_112print_stringEPKcP6Status+0x3e>
     b38: aa           	tax
     b39: d0 0c        	bne	$b47 <_ZN12_GLOBAL__N_112print_stringEPKcP6Status+0x3e>
     b3b: 64 8d        	stz	$8d                     ; 0x208d <end_block9+0x45>
     b3d: a2 00        	ldx	#$0
     b3f: 4c 11 0c     	jmp	$c11 <_ZN12_GLOBAL__N_112print_stringEPKcP6Status+0x108>
     b42: a9 ff        	lda	#$ff
     b44: aa           	tax
     b45: 86 90        	stx	$90                     ; 0x2090 <end_block9+0x48>
     b47: 85 8d        	sta	$8d                     ; 0x208d <end_block9+0x45>
     b49: 64 12        	stz	$12                     ; 0x2012 <midi_instruments+0xcb>
     b4b: a4 89        	ldy	$89                     ; 0x2089 <end_block9+0x41>
     b4d: a6 8a        	ldx	$8a                     ; 0x208a <end_block9+0x42>
     b4f: 86 16        	stx	$16                     ; 0x2016 <midi_instruments+0xcf>
     b51: 64 13        	stz	$13                     ; 0x2013 <midi_instruments+0xcc>
     b53: 98           	tya
     b54: 18           	clc
     b55: 65 12        	adc	$12                     ; 0x2012 <midi_instruments+0xcb>
     b57: 85 14        	sta	$14                     ; 0x2014 <midi_instruments+0xcd>
     b59: a5 8a        	lda	$8a                     ; 0x208a <end_block9+0x42>
     b5b: 65 13        	adc	$13                     ; 0x2013 <midi_instruments+0xcc>
     b5d: 85 15        	sta	$15                     ; 0x2015 <midi_instruments+0xce>
     b5f: b2 14        	lda	($14)                   ; 0x2014 <midi_instruments+0xcd>
     b61: d0 03        	bne	$b66 <_ZN12_GLOBAL__N_112print_stringEPKcP6Status+0x5d>
     b63: 4c 0b 0c     	jmp	$c0b <_ZN12_GLOBAL__N_112print_stringEPKcP6Status+0x102>
     b66: e6 12        	inc	$12                     ; 0x2012 <midi_instruments+0xcb>
     b68: d0 02        	bne	$b6c <_ZN12_GLOBAL__N_112print_stringEPKcP6Status+0x63>
     b6a: e6 13        	inc	$13                     ; 0x2013 <midi_instruments+0xcc>
     b6c: a6 90        	ldx	$90                     ; 0x2090 <end_block9+0x48>
     b6e: e4 13        	cpx	$13                     ; 0x2013 <midi_instruments+0xcc>
     b70: d0 e1        	bne	$b53 <_ZN12_GLOBAL__N_112print_stringEPKcP6Status+0x4a>
     b72: a6 8d        	ldx	$8d                     ; 0x208d <end_block9+0x45>
     b74: e4 12        	cpx	$12                     ; 0x2012 <midi_instruments+0xcb>
     b76: d0 db        	bne	$b53 <_ZN12_GLOBAL__N_112print_stringEPKcP6Status+0x4a>
     b78: a0 01        	ldy	#$1
     b7a: 98           	tya
     b7b: 31 8b        	and	($8b),y                 ; 0x208b <end_block9+0x43>
     b7d: 29 01        	and	#$1
     b7f: f0 03        	beq	$b84 <_ZN12_GLOBAL__N_112print_stringEPKcP6Status+0x7b>
     b81: 4c dc 0b     	jmp	$bdc <_ZN12_GLOBAL__N_112print_stringEPKcP6Status+0xd3>
     b84: a0 0b        	ldy	#$b
     b86: a5 8b        	lda	$8b                     ; 0x208b <end_block9+0x43>
     b88: 18           	clc
     b89: 69 0b        	adc	#$b
     b8b: 85 14        	sta	$14                     ; 0x2014 <midi_instruments+0xcd>
     b8d: a5 8c        	lda	$8c                     ; 0x208c <end_block9+0x44>
     b8f: 69 00        	adc	#$0
     b91: 85 15        	sta	$15                     ; 0x2015 <midi_instruments+0xce>
     b93: b1 8b        	lda	($8b),y                 ; 0x208b <end_block9+0x43>
     b95: 85 12        	sta	$12                     ; 0x2012 <midi_instruments+0xcb>
     b97: a0 01        	ldy	#$1
     b99: b1 14        	lda	($14),y                 ; 0x2014 <midi_instruments+0xcd>
     b9b: 85 13        	sta	$13                     ; 0x2013 <midi_instruments+0xcc>
     b9d: a6 90        	ldx	$90                     ; 0x2090 <end_block9+0x48>
     b9f: e4 13        	cpx	$13                     ; 0x2013 <midi_instruments+0xcc>
     ba1: d0 08        	bne	$bab <_ZN12_GLOBAL__N_112print_stringEPKcP6Status+0xa2>
     ba3: a6 8d        	ldx	$8d                     ; 0x208d <end_block9+0x45>
     ba5: e4 12        	cpx	$12                     ; 0x2012 <midi_instruments+0xcb>
     ba7: 90 06        	bcc	$baf <_ZN12_GLOBAL__N_112print_stringEPKcP6Status+0xa6>
     ba9: 80 31        	bra	$bdc <_ZN12_GLOBAL__N_112print_stringEPKcP6Status+0xd3>
     bab: e4 13        	cpx	$13                     ; 0x2013 <midi_instruments+0xcc>
     bad: b0 2d        	bcs	$bdc <_ZN12_GLOBAL__N_112print_stringEPKcP6Status+0xd3>
     baf: 38           	sec
     bb0: a5 8d        	lda	$8d                     ; 0x208d <end_block9+0x45>
     bb2: e5 12        	sbc	$12                     ; 0x2012 <midi_instruments+0xcb>
     bb4: a8           	tay
     bb5: a5 90        	lda	$90                     ; 0x2090 <end_block9+0x48>
     bb7: e5 13        	sbc	$13                     ; 0x2013 <midi_instruments+0xcc>
     bb9: 85 8f        	sta	$8f                     ; 0x208f <end_block9+0x47>
     bbb: a6 8b        	ldx	$8b                     ; 0x208b <end_block9+0x43>
     bbd: 86 12        	stx	$12                     ; 0x2012 <midi_instruments+0xcb>
     bbf: a6 8c        	ldx	$8c                     ; 0x208c <end_block9+0x44>
     bc1: 86 13        	stx	$13                     ; 0x2013 <midi_instruments+0xcc>
     bc3: 84 8e        	sty	$8e                     ; 0x208e <end_block9+0x46>
     bc5: a9 20        	lda	#$20
     bc7: 20 38 0a     	jsr	$a38 <_ZN12_GLOBAL__N_13putEcP6Status>
     bca: a6 8f        	ldx	$8f                     ; 0x208f <end_block9+0x47>
     bcc: e6 8e        	inc	$8e                     ; 0x208e <end_block9+0x46>
     bce: d0 01        	bne	$bd1 <_ZN12_GLOBAL__N_112print_stringEPKcP6Status+0xc8>
     bd0: e8           	inx
     bd1: 86 8f        	stx	$8f                     ; 0x208f <end_block9+0x47>
     bd3: a4 8e        	ldy	$8e                     ; 0x208e <end_block9+0x46>
     bd5: 8a           	txa
     bd6: d0 e3        	bne	$bbb <_ZN12_GLOBAL__N_112print_stringEPKcP6Status+0xb2>
     bd8: a5 8e        	lda	$8e                     ; 0x208e <end_block9+0x46>
     bda: d0 df        	bne	$bbb <_ZN12_GLOBAL__N_112print_stringEPKcP6Status+0xb2>
     bdc: a4 90        	ldy	$90                     ; 0x2090 <end_block9+0x48>
     bde: d0 04        	bne	$be4 <_ZN12_GLOBAL__N_112print_stringEPKcP6Status+0xdb>
     be0: a5 8d        	lda	$8d                     ; 0x208d <end_block9+0x45>
     be2: f0 26        	beq	$c0a <_ZN12_GLOBAL__N_112print_stringEPKcP6Status+0x101>
     be4: a2 ff        	ldx	#$ff
     be6: c6 8d        	dec	$8d                     ; 0x208d <end_block9+0x45>
     be8: e4 8d        	cpx	$8d                     ; 0x208d <end_block9+0x45>
     bea: d0 01        	bne	$bed <_ZN12_GLOBAL__N_112print_stringEPKcP6Status+0xe4>
     bec: 88           	dey
     bed: 84 8e        	sty	$8e                     ; 0x208e <end_block9+0x46>
     bef: b2 89        	lda	($89)                   ; 0x2089 <end_block9+0x41>
     bf1: e6 89        	inc	$89                     ; 0x2089 <end_block9+0x41>
     bf3: d0 02        	bne	$bf7 <_ZN12_GLOBAL__N_112print_stringEPKcP6Status+0xee>
     bf5: e6 8a        	inc	$8a                     ; 0x208a <end_block9+0x42>
     bf7: a6 8b        	ldx	$8b                     ; 0x208b <end_block9+0x43>
     bf9: 86 12        	stx	$12                     ; 0x2012 <midi_instruments+0xcb>
     bfb: a6 8c        	ldx	$8c                     ; 0x208c <end_block9+0x44>
     bfd: 86 13        	stx	$13                     ; 0x2013 <midi_instruments+0xcc>
     bff: 20 38 0a     	jsr	$a38 <_ZN12_GLOBAL__N_13putEcP6Status>
     c02: a4 8e        	ldy	$8e                     ; 0x208e <end_block9+0x46>
     c04: d0 de        	bne	$be4 <_ZN12_GLOBAL__N_112print_stringEPKcP6Status+0xdb>
     c06: a5 8d        	lda	$8d                     ; 0x208d <end_block9+0x45>
     c08: d0 da        	bne	$be4 <_ZN12_GLOBAL__N_112print_stringEPKcP6Status+0xdb>
     c0a: 60           	rts
     c0b: a6 12        	ldx	$12                     ; 0x2012 <midi_instruments+0xcb>
     c0d: 86 8d        	stx	$8d                     ; 0x208d <end_block9+0x45>
     c0f: a6 13        	ldx	$13                     ; 0x2013 <midi_instruments+0xcc>
     c11: 86 90        	stx	$90                     ; 0x2090 <end_block9+0x48>
     c13: 4c 78 0b     	jmp	$b78 <_ZN12_GLOBAL__N_112print_stringEPKcP6Status+0x6f>

00000c16 <printf>:
     c16: a6 12        	ldx	$12                     ; 0x2012 <midi_instruments+0xcb>
     c18: 86 3e        	stx	$3e                     ; 0x203e <midi_instruments+0xf7>
     c1a: a6 13        	ldx	$13                     ; 0x2013 <midi_instruments+0xcc>
     c1c: 86 3f        	stx	$3f                     ; 0x203f <midi_instruments+0xf8>
     c1e: 18           	clc
     c1f: a6 10        	ldx	$10                     ; 0x2010 <midi_instruments+0xc9>
     c21: a4 11        	ldy	$11                     ; 0x2011 <midi_instruments+0xca>
     c23: 86 7f        	stx	$7f                     ; 0x207f <end_block9+0x37>
     c25: 84 80        	sty	$80                     ; 0x2080 <end_block9+0x38>
     c27: a6 7f        	ldx	$7f                     ; 0x207f <end_block9+0x37>
     c29: a4 80        	ldy	$80                     ; 0x2080 <end_block9+0x38>
     c2b: 86 6a        	stx	$6a                     ; 0x206a <end_block9+0x22>
     c2d: 84 6b        	sty	$6b                     ; 0x206b <end_block9+0x23>
     c2f: a2 ff        	ldx	#$ff
     c31: 86 6f        	stx	$6f                     ; 0x206f <end_block9+0x27>
     c33: 86 70        	stx	$70                     ; 0x2070 <end_block9+0x28>
     c35: 64 71        	stz	$71                     ; 0x2071 <end_block9+0x29>
     c37: 64 72        	stz	$72                     ; 0x2072 <end_block9+0x2a>
     c39: e8           	inx
     c3a: 86 40        	stx	$40                     ; 0x2040 <midi_instruments+0xf9>
     c3c: a2 00        	ldx	#$0
     c3e: 86 41        	stx	$41                     ; 0x2041 <midi_instruments+0xfa>
     c40: a6 40        	ldx	$40                     ; 0x2040 <midi_instruments+0xf9>
     c42: a4 41        	ldy	$41                     ; 0x2041 <midi_instruments+0xfa>
     c44: 86 75        	stx	$75                     ; 0x2075 <end_block9+0x2d>
     c46: 84 76        	sty	$76                     ; 0x2076 <end_block9+0x2e>
     c48: a2 02        	ldx	#$2
     c4a: 86 7b        	stx	$7b                     ; 0x207b <end_block9+0x33>
     c4c: 64 7c        	stz	$7c                     ; 0x207c <end_block9+0x34>
     c4e: a6 6a        	ldx	$6a                     ; 0x206a <end_block9+0x22>
     c50: a4 6b        	ldy	$6b                     ; 0x206b <end_block9+0x23>
     c52: 86 7d        	stx	$7d                     ; 0x207d <end_block9+0x35>
     c54: 84 7e        	sty	$7e                     ; 0x207e <end_block9+0x36>
     c56: a2 61        	ldx	#$61
     c58: a0 00        	ldy	#$0
     c5a: 86 12        	stx	$12                     ; 0x2012 <midi_instruments+0xcb>
     c5c: 84 13        	sty	$13                     ; 0x2013 <midi_instruments+0xcc>
     c5e: a0 01        	ldy	#$1
     c60: a9 48        	lda	#$48
     c62: 18           	clc
     c63: 69 02        	adc	#$2
     c65: 85 87        	sta	$87                     ; 0x2087 <end_block9+0x3f>
     c67: a9 00        	lda	#$0
     c69: 69 00        	adc	#$0
     c6b: 85 88        	sta	$88                     ; 0x2088 <end_block9+0x40>
     c6d: e6 12        	inc	$12                     ; 0x2012 <midi_instruments+0xcb>
     c6f: d0 02        	bne	$c73 <printf+0x5d>
     c71: e6 13        	inc	$13                     ; 0x2013 <midi_instruments+0xcc>
     c73: a6 12        	ldx	$12                     ; 0x2012 <midi_instruments+0xcb>
     c75: 86 84        	stx	$84                     ; 0x2084 <end_block9+0x3c>
     c77: a6 13        	ldx	$13                     ; 0x2013 <midi_instruments+0xcc>
     c79: 86 85        	stx	$85                     ; 0x2085 <end_block9+0x3d>
     c7b: a6 3e        	ldx	$3e                     ; 0x203e <midi_instruments+0xf7>
     c7d: 86 42        	stx	$42                     ; 0x2042 <midi_instruments+0xfb>
     c7f: a6 3f        	ldx	$3f                     ; 0x203f <midi_instruments+0xf8>
     c81: 86 43        	stx	$43                     ; 0x2043 <midi_instruments+0xfc>
     c83: b2 3e        	lda	($3e)                   ; 0x203e <midi_instruments+0xf7>
     c85: c9 25        	cmp	#$25
     c87: f0 21        	beq	$caa <printf+0x94>
     c89: aa           	tax
     c8a: d0 03        	bne	$c8f <printf+0x79>
     c8c: 4c c5 17     	jmp	$17c5 <printf+0xbaf>
     c8f: 20 79 08     	jsr	$879 <__putchar>
     c92: a0 01        	ldy	#$1
     c94: e6 42        	inc	$42                     ; 0x2042 <midi_instruments+0xfb>
     c96: d0 02        	bne	$c9a <printf+0x84>
     c98: e6 43        	inc	$43                     ; 0x2043 <midi_instruments+0xfc>
     c9a: e6 71        	inc	$71                     ; 0x2071 <end_block9+0x29>
     c9c: d0 02        	bne	$ca0 <printf+0x8a>
     c9e: e6 72        	inc	$72                     ; 0x2072 <end_block9+0x2a>
     ca0: a6 42        	ldx	$42                     ; 0x2042 <midi_instruments+0xfb>
     ca2: 86 3e        	stx	$3e                     ; 0x203e <midi_instruments+0xf7>
     ca4: a6 43        	ldx	$43                     ; 0x2043 <midi_instruments+0xfc>
     ca6: 86 3f        	stx	$3f                     ; 0x203f <midi_instruments+0xf8>
     ca8: 80 d1        	bra	$c7b <printf+0x65>
     caa: a6 3e        	ldx	$3e                     ; 0x203e <midi_instruments+0xf7>
     cac: 86 12        	stx	$12                     ; 0x2012 <midi_instruments+0xcb>
     cae: a6 3f        	ldx	$3f                     ; 0x203f <midi_instruments+0xf8>
     cb0: 86 13        	stx	$13                     ; 0x2013 <midi_instruments+0xcc>
     cb2: e6 12        	inc	$12                     ; 0x2012 <midi_instruments+0xcb>
     cb4: d0 02        	bne	$cb8 <printf+0xa2>
     cb6: e6 13        	inc	$13                     ; 0x2013 <midi_instruments+0xcc>
     cb8: b1 42        	lda	($42),y                 ; 0x2042 <midi_instruments+0xfb>
     cba: c9 25        	cmp	#$25
     cbc: d0 16        	bne	$cd4 <printf+0xbe>
     cbe: a4 71        	ldy	$71                     ; 0x2071 <end_block9+0x29>
     cc0: a5 72        	lda	$72                     ; 0x2072 <end_block9+0x2a>
     cc2: c5 70        	cmp	$70                     ; 0x2070 <end_block9+0x28>
     cc4: f0 03        	beq	$cc9 <printf+0xb3>
     cc6: 4c da 0d     	jmp	$dda <printf+0x1c4>
     cc9: a6 6f        	ldx	$6f                     ; 0x206f <end_block9+0x27>
     ccb: 86 12        	stx	$12                     ; 0x2012 <midi_instruments+0xcb>
     ccd: 84 13        	sty	$13                     ; 0x2013 <midi_instruments+0xcc>
     ccf: c4 12        	cpy	$12                     ; 0x2012 <midi_instruments+0xcb>
     cd1: 4c de 0d     	jmp	$dde <printf+0x1c8>
     cd4: 64 6d        	stz	$6d                     ; 0x206d <end_block9+0x25>
     cd6: 64 6e        	stz	$6e                     ; 0x206e <end_block9+0x26>
     cd8: 64 6c        	stz	$6c                     ; 0x206c <end_block9+0x24>
     cda: 64 77        	stz	$77                     ; 0x2077 <end_block9+0x2f>
     cdc: 64 78        	stz	$78                     ; 0x2078 <end_block9+0x30>
     cde: a2 ff        	ldx	#$ff
     ce0: 86 79        	stx	$79                     ; 0x2079 <end_block9+0x31>
     ce2: 86 7a        	stx	$7a                     ; 0x207a <end_block9+0x32>
     ce4: 64 3d        	stz	$3d                     ; 0x203d <midi_instruments+0xf6>
     ce6: 80 33        	bra	$d1b <printf+0x105>
     ce8: a2 02        	ldx	#$2
     cea: 80 15        	bra	$d01 <printf+0xeb>
     cec: e0 20        	cpx	#$20
     cee: f0 15        	beq	$d05 <printf+0xef>
     cf0: 86 15        	stx	$15                     ; 0x2015 <midi_instruments+0xce>
     cf2: e0 23        	cpx	#$23
     cf4: f0 03        	beq	$cf9 <printf+0xe3>
     cf6: 4c 78 0d     	jmp	$d78 <printf+0x162>
     cf9: a5 3d        	lda	$3d                     ; 0x203d <midi_instruments+0xf6>
     cfb: a2 04        	ldx	#$4
     cfd: 80 02        	bra	$d01 <printf+0xeb>
     cff: a2 10        	ldx	#$10
     d01: 86 14        	stx	$14                     ; 0x2014 <midi_instruments+0xcd>
     d03: 80 06        	bra	$d0b <printf+0xf5>
     d05: a2 08        	ldx	#$8
     d07: 86 14        	stx	$14                     ; 0x2014 <midi_instruments+0xcd>
     d09: a5 3d        	lda	$3d                     ; 0x203d <midi_instruments+0xf6>
     d0b: 05 14        	ora	$14                     ; 0x2014 <midi_instruments+0xcd>
     d0d: 85 3d        	sta	$3d                     ; 0x203d <midi_instruments+0xf6>
     d0f: 85 6d        	sta	$6d                     ; 0x206d <end_block9+0x25>
     d11: a2 00        	ldx	#$0
     d13: 86 6e        	stx	$6e                     ; 0x206e <end_block9+0x26>
     d15: e6 12        	inc	$12                     ; 0x2012 <midi_instruments+0xcb>
     d17: d0 02        	bne	$d1b <printf+0x105>
     d19: e6 13        	inc	$13                     ; 0x2013 <midi_instruments+0xcc>
     d1b: b2 12        	lda	($12)                   ; 0x2012 <midi_instruments+0xcb>
     d1d: aa           	tax
     d1e: 38           	sec
     d1f: e9 2a        	sbc	#$2a
     d21: c9 07        	cmp	#$7
     d23: b0 c7        	bcs	$cec <printf+0xd6>
     d25: 86 15        	stx	$15                     ; 0x2015 <midi_instruments+0xce>
     d27: 0a           	asl
     d28: aa           	tax
     d29: a0 01        	ldy	#$1
     d2b: 84 14        	sty	$14                     ; 0x2014 <midi_instruments+0xcd>
     d2d: a5 3d        	lda	$3d                     ; 0x203d <midi_instruments+0xf6>
     d2f: 7c 13 18     	jmp	($1813,x)               ; 0x1813 <__set_v+0x1>
     d32: a5 7d        	lda	$7d                     ; 0x207d <end_block9+0x35>
     d34: a6 7e        	ldx	$7e                     ; 0x207e <end_block9+0x36>
     d36: 85 16        	sta	$16                     ; 0x2016 <midi_instruments+0xcf>
     d38: 86 17        	stx	$17                     ; 0x2017 <midi_instruments+0xd0>
     d3a: 18           	clc
     d3b: 69 02        	adc	#$2
     d3d: a8           	tay
     d3e: 8a           	txa
     d3f: 69 00        	adc	#$0
     d41: 84 7d        	sty	$7d                     ; 0x207d <end_block9+0x35>
     d43: 85 7e        	sta	$7e                     ; 0x207e <end_block9+0x36>
     d45: b2 16        	lda	($16)                   ; 0x2016 <midi_instruments+0xcf>
     d47: 85 15        	sta	$15                     ; 0x2015 <midi_instruments+0xce>
     d49: a0 01        	ldy	#$1
     d4b: b1 16        	lda	($16),y                 ; 0x2016 <midi_instruments+0xcf>
     d4d: 85 14        	sta	$14                     ; 0x2014 <midi_instruments+0xcd>
     d4f: 10 15        	bpl	$d66 <printf+0x150>
     d51: a5 3d        	lda	$3d                     ; 0x203d <midi_instruments+0xf6>
     d53: 09 01        	ora	#$1
     d55: 85 3d        	sta	$3d                     ; 0x203d <midi_instruments+0xf6>
     d57: 85 6d        	sta	$6d                     ; 0x206d <end_block9+0x25>
     d59: a2 00        	ldx	#$0
     d5b: 86 6e        	stx	$6e                     ; 0x206e <end_block9+0x26>
     d5d: 8a           	txa
     d5e: 38           	sec
     d5f: e5 15        	sbc	$15                     ; 0x2015 <midi_instruments+0xce>
     d61: 85 15        	sta	$15                     ; 0x2015 <midi_instruments+0xce>
     d63: 8a           	txa
     d64: e5 14        	sbc	$14                     ; 0x2014 <midi_instruments+0xcd>
     d66: a6 15        	ldx	$15                     ; 0x2015 <midi_instruments+0xce>
     d68: 86 77        	stx	$77                     ; 0x2077 <end_block9+0x2f>
     d6a: 85 78        	sta	$78                     ; 0x2078 <end_block9+0x30>
     d6c: e6 12        	inc	$12                     ; 0x2012 <midi_instruments+0xcb>
     d6e: f0 03        	beq	$d73 <printf+0x15d>
     d70: 4c 2c 0e     	jmp	$e2c <printf+0x216>
     d73: e6 13        	inc	$13                     ; 0x2013 <midi_instruments+0xcc>
     d75: 4c 2c 0e     	jmp	$e2c <printf+0x216>
     d78: a5 15        	lda	$15                     ; 0x2015 <midi_instruments+0xce>
     d7a: 18           	clc
     d7b: 69 d0        	adc	#$d0
     d7d: c9 0a        	cmp	#$a
     d7f: 90 03        	bcc	$d84 <printf+0x16e>
     d81: 4c 1e 0e     	jmp	$e1e <printf+0x208>
     d84: a6 15        	ldx	$15                     ; 0x2015 <midi_instruments+0xce>
     d86: 86 14        	stx	$14                     ; 0x2014 <midi_instruments+0xcd>
     d88: 64 16        	stz	$16                     ; 0x2016 <midi_instruments+0xcf>
     d8a: 64 15        	stz	$15                     ; 0x2015 <midi_instruments+0xce>
     d8c: 64 17        	stz	$17                     ; 0x2017 <midi_instruments+0xd0>
     d8e: a0 01        	ldy	#$1
     d90: 06 16        	asl	$16                     ; 0x2016 <midi_instruments+0xcf>
     d92: 26 17        	rol	$17                     ; 0x2017 <midi_instruments+0xd0>
     d94: a5 16        	lda	$16                     ; 0x2016 <midi_instruments+0xcf>
     d96: 0a           	asl
     d97: aa           	tax
     d98: a5 17        	lda	$17                     ; 0x2017 <midi_instruments+0xd0>
     d9a: 2a           	rol
     d9b: 86 18        	stx	$18                     ; 0x2018 <midi_instruments+0xd1>
     d9d: 06 18        	asl	$18                     ; 0x2018 <midi_instruments+0xd1>
     d9f: 2a           	rol
     da0: aa           	tax
     da1: a5 18        	lda	$18                     ; 0x2018 <midi_instruments+0xd1>
     da3: 18           	clc
     da4: 65 16        	adc	$16                     ; 0x2016 <midi_instruments+0xcf>
     da6: 85 16        	sta	$16                     ; 0x2016 <midi_instruments+0xcf>
     da8: 8a           	txa
     da9: 65 17        	adc	$17                     ; 0x2017 <midi_instruments+0xd0>
     dab: 85 17        	sta	$17                     ; 0x2017 <midi_instruments+0xd0>
     dad: a5 16        	lda	$16                     ; 0x2016 <midi_instruments+0xcf>
     daf: 18           	clc
     db0: 65 14        	adc	$14                     ; 0x2014 <midi_instruments+0xcd>
     db2: 85 14        	sta	$14                     ; 0x2014 <midi_instruments+0xcd>
     db4: a5 17        	lda	$17                     ; 0x2017 <midi_instruments+0xd0>
     db6: 65 15        	adc	$15                     ; 0x2015 <midi_instruments+0xce>
     db8: aa           	tax
     db9: 18           	clc
     dba: a5 14        	lda	$14                     ; 0x2014 <midi_instruments+0xcd>
     dbc: 69 d0        	adc	#$d0
     dbe: 85 16        	sta	$16                     ; 0x2016 <midi_instruments+0xcf>
     dc0: 8a           	txa
     dc1: 69 ff        	adc	#$ff
     dc3: 85 17        	sta	$17                     ; 0x2017 <midi_instruments+0xd0>
     dc5: b1 12        	lda	($12),y                 ; 0x2012 <midi_instruments+0xcb>
     dc7: 85 14        	sta	$14                     ; 0x2014 <midi_instruments+0xcd>
     dc9: 18           	clc
     dca: 69 d0        	adc	#$d0
     dcc: e6 12        	inc	$12                     ; 0x2012 <midi_instruments+0xcb>
     dce: d0 02        	bne	$dd2 <printf+0x1bc>
     dd0: e6 13        	inc	$13                     ; 0x2013 <midi_instruments+0xcc>
     dd2: c9 0a        	cmp	#$a
     dd4: 64 15        	stz	$15                     ; 0x2015 <midi_instruments+0xce>
     dd6: 90 b8        	bcc	$d90 <printf+0x17a>
     dd8: 80 4a        	bra	$e24 <printf+0x20e>
     dda: 84 13        	sty	$13                     ; 0x2013 <midi_instruments+0xcc>
     ddc: c5 70        	cmp	$70                     ; 0x2070 <end_block9+0x28>
     dde: a0 01        	ldy	#$1
     de0: b0 26        	bcs	$e08 <printf+0x1f2>
     de2: a6 7c        	ldx	$7c                     ; 0x207c <end_block9+0x34>
     de4: e4 41        	cpx	$41                     ; 0x2041 <midi_instruments+0xfa>
     de6: d0 19        	bne	$e01 <printf+0x1eb>
     de8: a6 7b        	ldx	$7b                     ; 0x207b <end_block9+0x33>
     dea: e4 40        	cpx	$40                     ; 0x2040 <midi_instruments+0xf9>
     dec: d0 13        	bne	$e01 <printf+0x1eb>
     dee: 18           	clc
     def: aa           	tax
     df0: a5 13        	lda	$13                     ; 0x2013 <midi_instruments+0xcc>
     df2: 65 75        	adc	$75                     ; 0x2075 <end_block9+0x2d>
     df4: 85 12        	sta	$12                     ; 0x2012 <midi_instruments+0xcb>
     df6: 8a           	txa
     df7: 65 76        	adc	$76                     ; 0x2076 <end_block9+0x2e>
     df9: 85 13        	sta	$13                     ; 0x2013 <midi_instruments+0xcc>
     dfb: a9 25        	lda	#$25
     dfd: 92 12        	sta	($12)                   ; 0x2012 <midi_instruments+0xcb>
     dff: 80 07        	bra	$e08 <printf+0x1f2>
     e01: a9 25        	lda	#$25
     e03: 20 79 08     	jsr	$879 <__putchar>
     e06: a0 01        	ldy	#$1
     e08: e6 71        	inc	$71                     ; 0x2071 <end_block9+0x29>
     e0a: d0 02        	bne	$e0e <printf+0x1f8>
     e0c: e6 72        	inc	$72                     ; 0x2072 <end_block9+0x2a>
     e0e: a5 42        	lda	$42                     ; 0x2042 <midi_instruments+0xfb>
     e10: 18           	clc
     e11: 69 02        	adc	#$2
     e13: 85 3e        	sta	$3e                     ; 0x203e <midi_instruments+0xf7>
     e15: a5 43        	lda	$43                     ; 0x2043 <midi_instruments+0xfc>
     e17: 69 00        	adc	#$0
     e19: 85 3f        	sta	$3f                     ; 0x203f <midi_instruments+0xf8>
     e1b: 4c 7b 0c     	jmp	$c7b <printf+0x65>
     e1e: 64 16        	stz	$16                     ; 0x2016 <midi_instruments+0xcf>
     e20: 64 17        	stz	$17                     ; 0x2017 <midi_instruments+0xd0>
     e22: a0 01        	ldy	#$1
     e24: a6 16        	ldx	$16                     ; 0x2016 <midi_instruments+0xcf>
     e26: 86 77        	stx	$77                     ; 0x2077 <end_block9+0x2f>
     e28: a5 17        	lda	$17                     ; 0x2017 <midi_instruments+0xd0>
     e2a: 85 78        	sta	$78                     ; 0x2078 <end_block9+0x30>
     e2c: 86 46        	stx	$46                     ; 0x2046 <midi_instruments+0xff>
     e2e: 85 44        	sta	$44                     ; 0x2044 <midi_instruments+0xfd>
     e30: b2 12        	lda	($12)                   ; 0x2012 <midi_instruments+0xcb>
     e32: a2 ff        	ldx	#$ff
     e34: c9 2e        	cmp	#$2e
     e36: d0 39        	bne	$e71 <printf+0x25b>
     e38: b1 12        	lda	($12),y                 ; 0x2012 <midi_instruments+0xcb>
     e3a: c9 2a        	cmp	#$2a
     e3c: d0 38        	bne	$e76 <printf+0x260>
     e3e: a5 7d        	lda	$7d                     ; 0x207d <end_block9+0x35>
     e40: a6 7e        	ldx	$7e                     ; 0x207e <end_block9+0x36>
     e42: 85 14        	sta	$14                     ; 0x2014 <midi_instruments+0xcd>
     e44: 86 15        	stx	$15                     ; 0x2015 <midi_instruments+0xce>
     e46: 18           	clc
     e47: 69 02        	adc	#$2
     e49: 85 16        	sta	$16                     ; 0x2016 <midi_instruments+0xcf>
     e4b: 8a           	txa
     e4c: 69 00        	adc	#$0
     e4e: a6 16        	ldx	$16                     ; 0x2016 <midi_instruments+0xcf>
     e50: 86 7d        	stx	$7d                     ; 0x207d <end_block9+0x35>
     e52: 85 7e        	sta	$7e                     ; 0x207e <end_block9+0x36>
     e54: a5 12        	lda	$12                     ; 0x2012 <midi_instruments+0xcb>
     e56: 18           	clc
     e57: 69 02        	adc	#$2
     e59: 85 12        	sta	$12                     ; 0x2012 <midi_instruments+0xcb>
     e5b: a5 13        	lda	$13                     ; 0x2013 <midi_instruments+0xcc>
     e5d: 69 00        	adc	#$0
     e5f: 85 13        	sta	$13                     ; 0x2013 <midi_instruments+0xcc>
     e61: b2 14        	lda	($14)                   ; 0x2014 <midi_instruments+0xcd>
     e63: aa           	tax
     e64: b1 14        	lda	($14),y                 ; 0x2014 <midi_instruments+0xcd>
     e66: 86 18        	stx	$18                     ; 0x2018 <midi_instruments+0xd1>
     e68: 86 79        	stx	$79                     ; 0x2079 <end_block9+0x31>
     e6a: 85 19        	sta	$19                     ; 0x2019 <midi_instruments+0xd2>
     e6c: 85 7a        	sta	$7a                     ; 0x207a <end_block9+0x32>
     e6e: 4c 21 0f     	jmp	$f21 <printf+0x30b>
     e71: 86 18        	stx	$18                     ; 0x2018 <midi_instruments+0xd1>
     e73: 4c 31 0f     	jmp	$f31 <printf+0x31b>
     e76: 85 17        	sta	$17                     ; 0x2017 <midi_instruments+0xd0>
     e78: 18           	clc
     e79: 69 d0        	adc	#$d0
     e7b: c9 0a        	cmp	#$a
     e7d: 90 03        	bcc	$e82 <printf+0x26c>
     e7f: 4c 13 0f     	jmp	$f13 <printf+0x2fd>
     e82: 64 16        	stz	$16                     ; 0x2016 <midi_instruments+0xcf>
     e84: a2 01        	ldx	#$1
     e86: 64 18        	stz	$18                     ; 0x2018 <midi_instruments+0xd1>
     e88: 64 19        	stz	$19                     ; 0x2019 <midi_instruments+0xd2>
     e8a: a0 01        	ldy	#$1
     e8c: 64 1a        	stz	$1a                     ; 0x201a <midi_instruments+0xd3>
     e8e: 5a           	phy
     e8f: a4 1a        	ldy	$1a                     ; 0x201a <midi_instruments+0xd3>
     e91: 84 14        	sty	$14                     ; 0x2014 <midi_instruments+0xcd>
     e93: 86 15        	stx	$15                     ; 0x2015 <midi_instruments+0xce>
     e95: 06 18        	asl	$18                     ; 0x2018 <midi_instruments+0xd1>
     e97: 26 19        	rol	$19                     ; 0x2019 <midi_instruments+0xd2>
     e99: a5 18        	lda	$18                     ; 0x2018 <midi_instruments+0xd1>
     e9b: 0a           	asl
     e9c: 85 1d        	sta	$1d                     ; 0x201d <midi_instruments+0xd6>
     e9e: a5 19        	lda	$19                     ; 0x2019 <midi_instruments+0xd2>
     ea0: 2a           	rol
     ea1: 06 1d        	asl	$1d                     ; 0x201d <midi_instruments+0xd6>
     ea3: 2a           	rol
     ea4: 85 1e        	sta	$1e                     ; 0x201e <midi_instruments+0xd7>
     ea6: a5 1d        	lda	$1d                     ; 0x201d <midi_instruments+0xd6>
     ea8: 18           	clc
     ea9: 65 18        	adc	$18                     ; 0x2018 <midi_instruments+0xd1>
     eab: 85 18        	sta	$18                     ; 0x2018 <midi_instruments+0xd1>
     ead: a5 1e        	lda	$1e                     ; 0x201e <midi_instruments+0xd7>
     eaf: 65 19        	adc	$19                     ; 0x2019 <midi_instruments+0xd2>
     eb1: 85 19        	sta	$19                     ; 0x2019 <midi_instruments+0xd2>
     eb3: a5 18        	lda	$18                     ; 0x2018 <midi_instruments+0xd1>
     eb5: 18           	clc
     eb6: 65 17        	adc	$17                     ; 0x2017 <midi_instruments+0xd0>
     eb8: 85 17        	sta	$17                     ; 0x2017 <midi_instruments+0xd0>
     eba: a5 19        	lda	$19                     ; 0x2019 <midi_instruments+0xd2>
     ebc: 65 16        	adc	$16                     ; 0x2016 <midi_instruments+0xcf>
     ebe: 85 16        	sta	$16                     ; 0x2016 <midi_instruments+0xcf>
     ec0: 18           	clc
     ec1: a5 17        	lda	$17                     ; 0x2017 <midi_instruments+0xd0>
     ec3: 69 d0        	adc	#$d0
     ec5: 85 18        	sta	$18                     ; 0x2018 <midi_instruments+0xd1>
     ec7: a5 16        	lda	$16                     ; 0x2016 <midi_instruments+0xcf>
     ec9: 69 ff        	adc	#$ff
     ecb: 85 19        	sta	$19                     ; 0x2019 <midi_instruments+0xd2>
     ecd: e8           	inx
     ece: d0 02        	bne	$ed2 <printf+0x2bc>
     ed0: e6 1a        	inc	$1a                     ; 0x201a <midi_instruments+0xd3>
     ed2: a5 12        	lda	$12                     ; 0x2012 <midi_instruments+0xcb>
     ed4: 18           	clc
     ed5: 65 15        	adc	$15                     ; 0x2015 <midi_instruments+0xce>
     ed7: 85 1d        	sta	$1d                     ; 0x201d <midi_instruments+0xd6>
     ed9: a5 13        	lda	$13                     ; 0x2013 <midi_instruments+0xcc>
     edb: 65 14        	adc	$14                     ; 0x2014 <midi_instruments+0xcd>
     edd: a4 1d        	ldy	$1d                     ; 0x201d <midi_instruments+0xd6>
     edf: 84 16        	sty	$16                     ; 0x2016 <midi_instruments+0xcf>
     ee1: 7a           	ply
     ee2: 85 17        	sta	$17                     ; 0x2017 <midi_instruments+0xd0>
     ee4: b1 16        	lda	($16),y                 ; 0x2016 <midi_instruments+0xcf>
     ee6: 85 17        	sta	$17                     ; 0x2017 <midi_instruments+0xd0>
     ee8: 18           	clc
     ee9: 69 d0        	adc	#$d0
     eeb: c9 0a        	cmp	#$a
     eed: 64 16        	stz	$16                     ; 0x2016 <midi_instruments+0xcf>
     eef: b0 03        	bcs	$ef4 <printf+0x2de>
     ef1: 4c 8e 0e     	jmp	$e8e <printf+0x278>
     ef4: a5 12        	lda	$12                     ; 0x2012 <midi_instruments+0xcb>
     ef6: 18           	clc
     ef7: 65 15        	adc	$15                     ; 0x2015 <midi_instruments+0xce>
     ef9: 85 12        	sta	$12                     ; 0x2012 <midi_instruments+0xcb>
     efb: a5 13        	lda	$13                     ; 0x2013 <midi_instruments+0xcc>
     efd: 65 14        	adc	$14                     ; 0x2014 <midi_instruments+0xcd>
     eff: 85 13        	sta	$13                     ; 0x2013 <midi_instruments+0xcc>
     f01: e6 12        	inc	$12                     ; 0x2012 <midi_instruments+0xcb>
     f03: d0 02        	bne	$f07 <printf+0x2f1>
     f05: e6 13        	inc	$13                     ; 0x2013 <midi_instruments+0xcc>
     f07: a6 18        	ldx	$18                     ; 0x2018 <midi_instruments+0xd1>
     f09: 86 79        	stx	$79                     ; 0x2079 <end_block9+0x31>
     f0b: a6 19        	ldx	$19                     ; 0x2019 <midi_instruments+0xd2>
     f0d: 86 7a        	stx	$7a                     ; 0x207a <end_block9+0x32>
     f0f: a0 01        	ldy	#$1
     f11: 80 0e        	bra	$f21 <printf+0x30b>
     f13: e6 12        	inc	$12                     ; 0x2012 <midi_instruments+0xcb>
     f15: d0 02        	bne	$f19 <printf+0x303>
     f17: e6 13        	inc	$13                     ; 0x2013 <midi_instruments+0xcc>
     f19: 64 18        	stz	$18                     ; 0x2018 <midi_instruments+0xd1>
     f1b: 64 79        	stz	$79                     ; 0x2079 <end_block9+0x31>
     f1d: 64 7a        	stz	$7a                     ; 0x207a <end_block9+0x32>
     f1f: 64 19        	stz	$19                     ; 0x2019 <midi_instruments+0xd2>
     f21: a5 3d        	lda	$3d                     ; 0x203d <midi_instruments+0xf6>
     f23: 29 ef        	and	#$ef
     f25: 85 3d        	sta	$3d                     ; 0x203d <midi_instruments+0xf6>
     f27: 85 6d        	sta	$6d                     ; 0x206d <end_block9+0x25>
     f29: a2 00        	ldx	#$0
     f2b: 86 6e        	stx	$6e                     ; 0x206e <end_block9+0x26>
     f2d: b2 12        	lda	($12)                   ; 0x2012 <midi_instruments+0xcb>
     f2f: a6 19        	ldx	$19                     ; 0x2019 <midi_instruments+0xd2>
     f31: 86 15        	stx	$15                     ; 0x2015 <midi_instruments+0xce>
     f33: a6 12        	ldx	$12                     ; 0x2012 <midi_instruments+0xcb>
     f35: 86 3e        	stx	$3e                     ; 0x203e <midi_instruments+0xf7>
     f37: a6 13        	ldx	$13                     ; 0x2013 <midi_instruments+0xcc>
     f39: 86 3f        	stx	$3f                     ; 0x203f <midi_instruments+0xf8>
     f3b: e6 3e        	inc	$3e                     ; 0x203e <midi_instruments+0xf7>
     f3d: d0 02        	bne	$f41 <printf+0x32b>
     f3f: e6 3f        	inc	$3f                     ; 0x203f <midi_instruments+0xf8>
     f41: 85 14        	sta	$14                     ; 0x2014 <midi_instruments+0xcd>
     f43: 38           	sec
     f44: e9 6c        	sbc	#$6c
     f46: 50 02        	bvc	$f4a <printf+0x334>
     f48: 49 80        	eor	#$80
     f4a: aa           	tax
     f4b: 10 1d        	bpl	$f6a <printf+0x354>
     f4d: a5 14        	lda	$14                     ; 0x2014 <midi_instruments+0xcd>
     f4f: c9 4c        	cmp	#$4c
     f51: f0 27        	beq	$f7a <printf+0x364>
     f53: c9 68        	cmp	#$68
     f55: d0 03        	bne	$f5a <printf+0x344>
     f57: 4c e1 0f     	jmp	$fe1 <printf+0x3cb>
     f5a: a2 08        	ldx	#$8
     f5c: c9 6a        	cmp	#$6a
     f5e: d0 2e        	bne	$f8e <printf+0x378>
     f60: a5 3e        	lda	$3e                     ; 0x203e <midi_instruments+0xf7>
     f62: 85 12        	sta	$12                     ; 0x2012 <midi_instruments+0xcb>
     f64: a5 3f        	lda	$3f                     ; 0x203f <midi_instruments+0xf8>
     f66: 85 13        	sta	$13                     ; 0x2013 <midi_instruments+0xcc>
     f68: 80 43        	bra	$fad <printf+0x397>
     f6a: a6 14        	ldx	$14                     ; 0x2014 <midi_instruments+0xcd>
     f6c: e0 6c        	cpx	#$6c
     f6e: f0 23        	beq	$f93 <printf+0x37d>
     f70: e0 74        	cpx	#$74
     f72: f0 12        	beq	$f86 <printf+0x370>
     f74: e0 7a        	cpx	#$7a
     f76: f0 0e        	beq	$f86 <printf+0x370>
     f78: 80 14        	bra	$f8e <printf+0x378>
     f7a: a5 3d        	lda	$3d                     ; 0x203d <midi_instruments+0xf6>
     f7c: 09 40        	ora	#$40
     f7e: 85 3d        	sta	$3d                     ; 0x203d <midi_instruments+0xf6>
     f80: 85 6d        	sta	$6d                     ; 0x206d <end_block9+0x25>
     f82: a2 00        	ldx	#$0
     f84: 86 6e        	stx	$6e                     ; 0x206e <end_block9+0x26>
     f86: a6 3e        	ldx	$3e                     ; 0x203e <midi_instruments+0xf7>
     f88: 86 12        	stx	$12                     ; 0x2012 <midi_instruments+0xcb>
     f8a: a6 3f        	ldx	$3f                     ; 0x203f <midi_instruments+0xf8>
     f8c: 86 13        	stx	$13                     ; 0x2013 <midi_instruments+0xcc>
     f8e: a2 02        	ldx	#$2
     f90: 8a           	txa
     f91: 80 1c        	bra	$faf <printf+0x399>
     f93: b1 12        	lda	($12),y                 ; 0x2012 <midi_instruments+0xcb>
     f95: a2 04        	ldx	#$4
     f97: c9 6c        	cmp	#$6c
     f99: f0 03        	beq	$f9e <printf+0x388>
     f9b: 4c e0 12     	jmp	$12e0 <printf+0x6ca>
     f9e: a5 12        	lda	$12                     ; 0x2012 <midi_instruments+0xcb>
     fa0: 18           	clc
     fa1: 69 02        	adc	#$2
     fa3: 85 12        	sta	$12                     ; 0x2012 <midi_instruments+0xcb>
     fa5: a5 13        	lda	$13                     ; 0x2013 <midi_instruments+0xcc>
     fa7: 69 00        	adc	#$0
     fa9: 85 13        	sta	$13                     ; 0x2013 <midi_instruments+0xcc>
     fab: a2 08        	ldx	#$8
     fad: a9 08        	lda	#$8
     faf: 85 83        	sta	$83                     ; 0x2083 <end_block9+0x3b>
     fb1: b2 12        	lda	($12)                   ; 0x2012 <midi_instruments+0xcb>
     fb3: 5a           	phy
     fb4: a4 12        	ldy	$12                     ; 0x2012 <midi_instruments+0xcb>
     fb6: 84 3e        	sty	$3e                     ; 0x203e <midi_instruments+0xf7>
     fb8: a4 13        	ldy	$13                     ; 0x2013 <midi_instruments+0xcc>
     fba: 84 3f        	sty	$3f                     ; 0x203f <midi_instruments+0xf8>
     fbc: 7a           	ply
     fbd: 86 40        	stx	$40                     ; 0x2040 <midi_instruments+0xf9>
     fbf: aa           	tax
     fc0: 38           	sec
     fc1: e9 63        	sbc	#$63
     fc3: c9 16        	cmp	#$16
     fc5: b0 39        	bcs	$1000 <printf+0x3ea>
     fc7: 0a           	asl
     fc8: aa           	tax
     fc9: 7c 21 18     	jmp	($1821,x)               ; 0x1821 <__set_v+0xf>
     fcc: a6 15        	ldx	$15                     ; 0x2015 <midi_instruments+0xce>
     fce: 86 81        	stx	$81                     ; 0x2081 <end_block9+0x39>
     fd0: a6 18        	ldx	$18                     ; 0x2018 <midi_instruments+0xd1>
     fd2: 86 86        	stx	$86                     ; 0x2086 <end_block9+0x3e>
     fd4: a0 0a        	ldy	#$a
     fd6: a2 0a        	ldx	#$a
     fd8: 86 82        	stx	$82                     ; 0x2082 <end_block9+0x3a>
     fda: 84 6c        	sty	$6c                     ; 0x206c <end_block9+0x24>
     fdc: 64 47        	stz	$47                     ; 0x2047 <kernelError>
     fde: 4c 00 11     	jmp	$1100 <printf+0x4ea>
     fe1: b1 12        	lda	($12),y                 ; 0x2012 <midi_instruments+0xcb>
     fe3: a2 02        	ldx	#$2
     fe5: c9 68        	cmp	#$68
     fe7: f0 03        	beq	$fec <printf+0x3d6>
     fe9: 4c e6 12     	jmp	$12e6 <printf+0x6d0>
     fec: a5 12        	lda	$12                     ; 0x2012 <midi_instruments+0xcb>
     fee: 18           	clc
     fef: 69 02        	adc	#$2
     ff1: 85 12        	sta	$12                     ; 0x2012 <midi_instruments+0xcb>
     ff3: a5 13        	lda	$13                     ; 0x2013 <midi_instruments+0xcc>
     ff5: 69 00        	adc	#$0
     ff7: 85 13        	sta	$13                     ; 0x2013 <midi_instruments+0xcc>
     ff9: a2 01        	ldx	#$1
     ffb: 86 83        	stx	$83                     ; 0x2083 <end_block9+0x3b>
     ffd: e8           	inx
     ffe: 80 b1        	bra	$fb1 <printf+0x39b>
    1000: e0 58        	cpx	#$58
    1002: f0 03        	beq	$1007 <printf+0x3f1>
    1004: 4c 81 17     	jmp	$1781 <printf+0xb6b>
    1007: a6 15        	ldx	$15                     ; 0x2015 <midi_instruments+0xce>
    1009: 86 81        	stx	$81                     ; 0x2081 <end_block9+0x39>
    100b: a6 18        	ldx	$18                     ; 0x2018 <midi_instruments+0xd1>
    100d: 86 86        	stx	$86                     ; 0x2086 <end_block9+0x3e>
    100f: a2 10        	ldx	#$10
    1011: 86 6c        	stx	$6c                     ; 0x206c <end_block9+0x24>
    1013: a9 00        	lda	#$0
    1015: 09 01        	ora	#$1
    1017: a6 3d        	ldx	$3d                     ; 0x203d <midi_instruments+0xf6>
    1019: 80 29        	bra	$1044 <printf+0x42e>
    101b: a6 15        	ldx	$15                     ; 0x2015 <midi_instruments+0xce>
    101d: 86 81        	stx	$81                     ; 0x2081 <end_block9+0x39>
    101f: a6 18        	ldx	$18                     ; 0x2018 <midi_instruments+0xd1>
    1021: 86 86        	stx	$86                     ; 0x2086 <end_block9+0x3e>
    1023: a2 10        	ldx	#$10
    1025: 86 6c        	stx	$6c                     ; 0x206c <end_block9+0x24>
    1027: a5 3d        	lda	$3d                     ; 0x203d <midi_instruments+0xf6>
    1029: 09 84        	ora	#$84
    102b: 80 10        	bra	$103d <printf+0x427>
    102d: a6 15        	ldx	$15                     ; 0x2015 <midi_instruments+0xce>
    102f: 86 81        	stx	$81                     ; 0x2081 <end_block9+0x39>
    1031: a6 18        	ldx	$18                     ; 0x2018 <midi_instruments+0xd1>
    1033: 86 86        	stx	$86                     ; 0x2086 <end_block9+0x3e>
    1035: a2 10        	ldx	#$10
    1037: 86 6c        	stx	$6c                     ; 0x206c <end_block9+0x24>
    1039: a5 3d        	lda	$3d                     ; 0x203d <midi_instruments+0xf6>
    103b: 09 80        	ora	#$80
    103d: aa           	tax
    103e: a9 00        	lda	#$0
    1040: 09 01        	ora	#$1
    1042: 86 3d        	stx	$3d                     ; 0x203d <midi_instruments+0xf6>
    1044: 86 6d        	stx	$6d                     ; 0x206d <end_block9+0x25>
    1046: 85 47        	sta	$47                     ; 0x2047 <kernelError>
    1048: 85 6e        	sta	$6e                     ; 0x206e <end_block9+0x26>
    104a: a2 10        	ldx	#$10
    104c: 86 82        	stx	$82                     ; 0x2082 <end_block9+0x3a>
    104e: 4c 00 11     	jmp	$1100 <printf+0x4ea>
    1051: a5 7d        	lda	$7d                     ; 0x207d <end_block9+0x35>
    1053: a6 7e        	ldx	$7e                     ; 0x207e <end_block9+0x36>
    1055: 85 12        	sta	$12                     ; 0x2012 <midi_instruments+0xcb>
    1057: 86 13        	stx	$13                     ; 0x2013 <midi_instruments+0xcc>
    1059: 18           	clc
    105a: 69 02        	adc	#$2
    105c: 85 14        	sta	$14                     ; 0x2014 <midi_instruments+0xcd>
    105e: 8a           	txa
    105f: 69 00        	adc	#$0
    1061: a6 14        	ldx	$14                     ; 0x2014 <midi_instruments+0xcd>
    1063: 86 7d        	stx	$7d                     ; 0x207d <end_block9+0x35>
    1065: 85 7e        	sta	$7e                     ; 0x207e <end_block9+0x36>
    1067: b2 12        	lda	($12)                   ; 0x2012 <midi_instruments+0xcb>
    1069: aa           	tax
    106a: b1 12        	lda	($12),y                 ; 0x2012 <midi_instruments+0xcb>
    106c: 86 12        	stx	$12                     ; 0x2012 <midi_instruments+0xcb>
    106e: 85 13        	sta	$13                     ; 0x2013 <midi_instruments+0xcc>
    1070: a5 71        	lda	$71                     ; 0x2071 <end_block9+0x29>
    1072: a6 72        	ldx	$72                     ; 0x2072 <end_block9+0x2a>
    1074: 92 12        	sta	($12)                   ; 0x2012 <midi_instruments+0xcb>
    1076: 8a           	txa
    1077: 91 12        	sta	($12),y                 ; 0x2012 <midi_instruments+0xcb>
    1079: 4c d9 10     	jmp	$10d9 <printf+0x4c3>
    107c: a5 7d        	lda	$7d                     ; 0x207d <end_block9+0x35>
    107e: a6 7e        	ldx	$7e                     ; 0x207e <end_block9+0x36>
    1080: 85 12        	sta	$12                     ; 0x2012 <midi_instruments+0xcb>
    1082: 86 13        	stx	$13                     ; 0x2013 <midi_instruments+0xcc>
    1084: 18           	clc
    1085: 69 02        	adc	#$2
    1087: 85 14        	sta	$14                     ; 0x2014 <midi_instruments+0xcd>
    1089: 8a           	txa
    108a: 69 00        	adc	#$0
    108c: a6 14        	ldx	$14                     ; 0x2014 <midi_instruments+0xcd>
    108e: 86 7d        	stx	$7d                     ; 0x207d <end_block9+0x35>
    1090: 85 7e        	sta	$7e                     ; 0x207e <end_block9+0x36>
    1092: b2 12        	lda	($12)                   ; 0x2012 <midi_instruments+0xcb>
    1094: aa           	tax
    1095: b1 12        	lda	($12),y                 ; 0x2012 <midi_instruments+0xcb>
    1097: 86 12        	stx	$12                     ; 0x2012 <midi_instruments+0xcb>
    1099: 85 13        	sta	$13                     ; 0x2013 <midi_instruments+0xcc>
    109b: 80 2f        	bra	$10cc <printf+0x4b6>
    109d: a6 15        	ldx	$15                     ; 0x2015 <midi_instruments+0xce>
    109f: 86 81        	stx	$81                     ; 0x2081 <end_block9+0x39>
    10a1: a6 18        	ldx	$18                     ; 0x2018 <midi_instruments+0xd1>
    10a3: 86 86        	stx	$86                     ; 0x2086 <end_block9+0x3e>
    10a5: a0 08        	ldy	#$8
    10a7: a2 08        	ldx	#$8
    10a9: 80 45        	bra	$10f0 <printf+0x4da>
    10ab: a5 7d        	lda	$7d                     ; 0x207d <end_block9+0x35>
    10ad: a6 7e        	ldx	$7e                     ; 0x207e <end_block9+0x36>
    10af: 85 12        	sta	$12                     ; 0x2012 <midi_instruments+0xcb>
    10b1: 86 13        	stx	$13                     ; 0x2013 <midi_instruments+0xcc>
    10b3: 18           	clc
    10b4: 69 02        	adc	#$2
    10b6: a8           	tay
    10b7: 8a           	txa
    10b8: 69 00        	adc	#$0
    10ba: 84 7d        	sty	$7d                     ; 0x207d <end_block9+0x35>
    10bc: 85 7e        	sta	$7e                     ; 0x207e <end_block9+0x36>
    10be: b2 12        	lda	($12)                   ; 0x2012 <midi_instruments+0xcb>
    10c0: 85 5f        	sta	$5f                     ; 0x205f <end_block9+0x17>
    10c2: 64 60        	stz	$60                     ; 0x2060 <end_block9+0x18>
    10c4: a2 5f        	ldx	#$5f
    10c6: 86 12        	stx	$12                     ; 0x2012 <midi_instruments+0xcb>
    10c8: a2 00        	ldx	#$0
    10ca: 86 13        	stx	$13                     ; 0x2013 <midi_instruments+0xcc>
    10cc: a2 6c        	ldx	#$6c
    10ce: 86 14        	stx	$14                     ; 0x2014 <midi_instruments+0xcd>
    10d0: a2 00        	ldx	#$0
    10d2: 86 15        	stx	$15                     ; 0x2015 <midi_instruments+0xce>
    10d4: 20 09 0b     	jsr	$b09 <_ZN12_GLOBAL__N_112print_stringEPKcP6Status>
    10d7: a0 01        	ldy	#$1
    10d9: a2 00        	ldx	#$0
    10db: 86 40        	stx	$40                     ; 0x2040 <midi_instruments+0xf9>
    10dd: a2 00        	ldx	#$0
    10df: 86 41        	stx	$41                     ; 0x2041 <midi_instruments+0xfa>
    10e1: 4c 69 17     	jmp	$1769 <printf+0xb53>
    10e4: a6 15        	ldx	$15                     ; 0x2015 <midi_instruments+0xce>
    10e6: 86 81        	stx	$81                     ; 0x2081 <end_block9+0x39>
    10e8: a6 18        	ldx	$18                     ; 0x2018 <midi_instruments+0xd1>
    10ea: 86 86        	stx	$86                     ; 0x2086 <end_block9+0x3e>
    10ec: a0 0a        	ldy	#$a
    10ee: a2 0a        	ldx	#$a
    10f0: 86 82        	stx	$82                     ; 0x2082 <end_block9+0x3a>
    10f2: 84 6c        	sty	$6c                     ; 0x206c <end_block9+0x24>
    10f4: a9 00        	lda	#$0
    10f6: 09 01        	ora	#$1
    10f8: a6 3d        	ldx	$3d                     ; 0x203d <midi_instruments+0xf6>
    10fa: 86 6d        	stx	$6d                     ; 0x206d <end_block9+0x25>
    10fc: 85 47        	sta	$47                     ; 0x2047 <kernelError>
    10fe: 85 6e        	sta	$6e                     ; 0x206e <end_block9+0x26>
    1100: a5 83        	lda	$83                     ; 0x2083 <end_block9+0x3b>
    1102: 85 61        	sta	$61                     ; 0x2061 <end_block9+0x19>
    1104: a4 7d        	ldy	$7d                     ; 0x207d <end_block9+0x35>
    1106: a6 7e        	ldx	$7e                     ; 0x207e <end_block9+0x36>
    1108: 86 45        	stx	$45                     ; 0x2045 <midi_instruments+0xfe>
    110a: 84 14        	sty	$14                     ; 0x2014 <midi_instruments+0xcd>
    110c: 84 3c        	sty	$3c                     ; 0x203c <midi_instruments+0xf5>
    110e: 86 15        	stx	$15                     ; 0x2015 <midi_instruments+0xce>
    1110: a6 84        	ldx	$84                     ; 0x2084 <end_block9+0x3c>
    1112: 86 12        	stx	$12                     ; 0x2012 <midi_instruments+0xcb>
    1114: a6 85        	ldx	$85                     ; 0x2085 <end_block9+0x3d>
    1116: 86 13        	stx	$13                     ; 0x2013 <midi_instruments+0xcc>
    1118: a2 00        	ldx	#$0
    111a: 85 41        	sta	$41                     ; 0x2041 <midi_instruments+0xfa>
    111c: 20 c6 17     	jsr	$17c6 <memcpy>
    111f: 18           	clc
    1120: a5 3c        	lda	$3c                     ; 0x203c <midi_instruments+0xf5>
    1122: 65 40        	adc	$40                     ; 0x2040 <midi_instruments+0xf9>
    1124: aa           	tax
    1125: a5 45        	lda	$45                     ; 0x2045 <midi_instruments+0xfe>
    1127: 69 00        	adc	#$0
    1129: 86 7d        	stx	$7d                     ; 0x207d <end_block9+0x35>
    112b: 85 7e        	sta	$7e                     ; 0x207e <end_block9+0x36>
    112d: a5 47        	lda	$47                     ; 0x2047 <kernelError>
    112f: 29 01        	and	#$1
    1131: b8           	clv
    1132: f0 03        	beq	$1137 <printf+0x521>
    1134: 4c 8b 11     	jmp	$118b <printf+0x575>
    1137: a6 41        	ldx	$41                     ; 0x2041 <midi_instruments+0xfa>
    1139: b5 61        	lda	$61,x                   ; 0x2061 <end_block9+0x19>
    113b: aa           	tax
    113c: a0 01        	ldy	#$1
    113e: a5 44        	lda	$44                     ; 0x2044 <midi_instruments+0xfd>
    1140: 85 1a        	sta	$1a                     ; 0x201a <midi_instruments+0xd3>
    1142: a5 86        	lda	$86                     ; 0x2086 <end_block9+0x3e>
    1144: 85 44        	sta	$44                     ; 0x2044 <midi_instruments+0xfd>
    1146: a9 00        	lda	#$0
    1148: 85 40        	sta	$40                     ; 0x2040 <midi_instruments+0xf9>
    114a: a9 00        	lda	#$0
    114c: 85 41        	sta	$41                     ; 0x2041 <midi_instruments+0xfa>
    114e: a5 81        	lda	$81                     ; 0x2081 <end_block9+0x39>
    1150: 85 45        	sta	$45                     ; 0x2045 <midi_instruments+0xfe>
    1152: 8a           	txa
    1153: 10 4c        	bpl	$11a1 <printf+0x58b>
    1155: a2 00        	ldx	#$0
    1157: 64 12        	stz	$12                     ; 0x2012 <midi_instruments+0xcb>
    1159: a9 00        	lda	#$0
    115b: 38           	sec
    115c: f5 62        	sbc	$62,x                   ; 0x2062 <end_block9+0x1a>
    115e: a0 00        	ldy	#$0
    1160: b0 02        	bcs	$1164 <printf+0x54e>
    1162: a0 01        	ldy	#$1
    1164: 38           	sec
    1165: e5 12        	sbc	$12                     ; 0x2012 <midi_instruments+0xcb>
    1167: 85 13        	sta	$13                     ; 0x2013 <midi_instruments+0xcc>
    1169: 64 12        	stz	$12                     ; 0x2012 <midi_instruments+0xcb>
    116b: b0 04        	bcs	$1171 <printf+0x55b>
    116d: a9 01        	lda	#$1
    116f: 85 12        	sta	$12                     ; 0x2012 <midi_instruments+0xcb>
    1171: 98           	tya
    1172: 05 12        	ora	$12                     ; 0x2012 <midi_instruments+0xcb>
    1174: 85 12        	sta	$12                     ; 0x2012 <midi_instruments+0xcb>
    1176: a5 13        	lda	$13                     ; 0x2013 <midi_instruments+0xcc>
    1178: 9d 62 00     	sta	$62,x                   ; 0x62 <__rc31+0x33>
    117b: e8           	inx
    117c: 86 13        	stx	$13                     ; 0x2013 <midi_instruments+0xcc>
    117e: a4 83        	ldy	$83                     ; 0x2083 <end_block9+0x3b>
    1180: c4 13        	cpy	$13                     ; 0x2013 <midi_instruments+0xcc>
    1182: d0 d5        	bne	$1159 <printf+0x543>
    1184: 2c 12 18     	bit	$1812                   ; 0x1812 <__set_v>
    1187: a0 01        	ldy	#$1
    1189: 80 16        	bra	$11a1 <printf+0x58b>
    118b: a0 01        	ldy	#$1
    118d: a6 44        	ldx	$44                     ; 0x2044 <midi_instruments+0xfd>
    118f: 86 1a        	stx	$1a                     ; 0x201a <midi_instruments+0xd3>
    1191: a6 86        	ldx	$86                     ; 0x2086 <end_block9+0x3e>
    1193: 86 44        	stx	$44                     ; 0x2044 <midi_instruments+0xfd>
    1195: a2 00        	ldx	#$0
    1197: 86 40        	stx	$40                     ; 0x2040 <midi_instruments+0xf9>
    1199: a2 00        	ldx	#$0
    119b: 86 41        	stx	$41                     ; 0x2041 <midi_instruments+0xfa>
    119d: a6 81        	ldx	$81                     ; 0x2081 <end_block9+0x39>
    119f: 86 45        	stx	$45                     ; 0x2045 <midi_instruments+0xfe>
    11a1: a2 01        	ldx	#$1
    11a3: 70 02        	bvs	$11a7 <printf+0x591>
    11a5: a2 00        	ldx	#$0
    11a7: 86 16        	stx	$16                     ; 0x2016 <midi_instruments+0xcf>
    11a9: a5 83        	lda	$83                     ; 0x2083 <end_block9+0x3b>
    11ab: 0a           	asl
    11ac: 0a           	asl
    11ad: 0a           	asl
    11ae: 85 12        	sta	$12                     ; 0x2012 <midi_instruments+0xcb>
    11b0: a2 00        	ldx	#$0
    11b2: 8a           	txa
    11b3: 4c 67 12     	jmp	$1267 <printf+0x651>
    11b6: da           	phx
    11b7: 7a           	ply
    11b8: c8           	iny
    11b9: 9d 4a 00     	sta	$4a,x                   ; 0x4a <__rc31+0x1b>
    11bc: 5a           	phy
    11bd: fa           	plx
    11be: c4 3c        	cpy	$3c                     ; 0x203c <midi_instruments+0xf5>
    11c0: f0 30        	beq	$11f2 <printf+0x5dc>
    11c2: b5 4a        	lda	$4a,x                   ; 0x204a <end_block9+0x2>
    11c4: 0a           	asl
    11c5: a4 81        	ldy	$81                     ; 0x2081 <end_block9+0x39>
    11c7: f0 02        	beq	$11cb <printf+0x5b5>
    11c9: 09 01        	ora	#$1
    11cb: a4 82        	ldy	$82                     ; 0x2082 <end_block9+0x3a>
    11cd: 84 14        	sty	$14                     ; 0x2014 <midi_instruments+0xcd>
    11cf: c5 14        	cmp	$14                     ; 0x2014 <midi_instruments+0xcd>
    11d1: a0 01        	ldy	#$1
    11d3: b0 02        	bcs	$11d7 <printf+0x5c1>
    11d5: a0 00        	ldy	#$0
    11d7: 84 81        	sty	$81                     ; 0x2081 <end_block9+0x39>
    11d9: 90 db        	bcc	$11b6 <printf+0x5a0>
    11db: 38           	sec
    11dc: e5 14        	sbc	$14                     ; 0x2014 <midi_instruments+0xcd>
    11de: 9d 4a 00     	sta	$4a,x                   ; 0x4a <__rc31+0x1b>
    11e1: e8           	inx
    11e2: e4 3c        	cpx	$3c                     ; 0x203c <midi_instruments+0xf5>
    11e4: d0 dc        	bne	$11c2 <printf+0x5ac>
    11e6: a4 3c        	ldy	$3c                     ; 0x203c <midi_instruments+0xf5>
    11e8: a6 3c        	ldx	$3c                     ; 0x203c <midi_instruments+0xf5>
    11ea: e8           	inx
    11eb: a9 01        	lda	#$1
    11ed: 99 4a 00     	sta	$4a,y                   ; 0x4a <__rc31+0x1b>
    11f0: 86 3c        	stx	$3c                     ; 0x203c <midi_instruments+0xf5>
    11f2: a6 83        	ldx	$83                     ; 0x2083 <end_block9+0x3b>
    11f4: b5 61        	lda	$61,x                   ; 0x2061 <end_block9+0x19>
    11f6: aa           	tax
    11f7: 30 0f        	bmi	$1208 <printf+0x5f2>
    11f9: a0 01        	ldy	#$1
    11fb: 80 42        	bra	$123f <printf+0x629>
    11fd: a6 83        	ldx	$83                     ; 0x2083 <end_block9+0x3b>
    11ff: b5 61        	lda	$61,x                   ; 0x2061 <end_block9+0x19>
    1201: aa           	tax
    1202: 64 3c        	stz	$3c                     ; 0x203c <midi_instruments+0xf5>
    1204: 10 39        	bpl	$123f <printf+0x629>
    1206: 80 2a        	bra	$1232 <printf+0x61c>
    1208: a5 3c        	lda	$3c                     ; 0x203c <midi_instruments+0xf5>
    120a: f0 24        	beq	$1230 <printf+0x61a>
    120c: a2 00        	ldx	#$0
    120e: a4 82        	ldy	$82                     ; 0x2082 <end_block9+0x3a>
    1210: 84 14        	sty	$14                     ; 0x2014 <midi_instruments+0xcd>
    1212: b5 4a        	lda	$4a,x                   ; 0x204a <end_block9+0x2>
    1214: 1a           	inc
    1215: f6 4a        	inc	$4a,x                   ; 0x204a <end_block9+0x2>
    1217: c5 14        	cmp	$14                     ; 0x2014 <midi_instruments+0xcd>
    1219: 90 de        	bcc	$11f9 <printf+0x5e3>
    121b: a4 14        	ldy	$14                     ; 0x2014 <midi_instruments+0xcd>
    121d: 84 13        	sty	$13                     ; 0x2013 <midi_instruments+0xcc>
    121f: 38           	sec
    1220: e5 13        	sbc	$13                     ; 0x2013 <midi_instruments+0xcc>
    1222: 9d 4a 00     	sta	$4a,x                   ; 0x4a <__rc31+0x1b>
    1225: e8           	inx
    1226: 86 13        	stx	$13                     ; 0x2013 <midi_instruments+0xcc>
    1228: a4 3c        	ldy	$3c                     ; 0x203c <midi_instruments+0xf5>
    122a: c4 13        	cpy	$13                     ; 0x2013 <midi_instruments+0xcc>
    122c: d0 e4        	bne	$1212 <printf+0x5fc>
    122e: 80 02        	bra	$1232 <printf+0x61c>
    1230: 64 3c        	stz	$3c                     ; 0x203c <midi_instruments+0xf5>
    1232: a4 3c        	ldy	$3c                     ; 0x203c <midi_instruments+0xf5>
    1234: a6 3c        	ldx	$3c                     ; 0x203c <midi_instruments+0xf5>
    1236: e8           	inx
    1237: a9 01        	lda	#$1
    1239: 99 4a 00     	sta	$4a,y                   ; 0x4a <__rc31+0x1b>
    123c: a8           	tay
    123d: 86 3c        	stx	$3c                     ; 0x203c <midi_instruments+0xf5>
    123f: a2 01        	ldx	#$1
    1241: 64 13        	stz	$13                     ; 0x2013 <midi_instruments+0xcc>
    1243: a5 83        	lda	$83                     ; 0x2083 <end_block9+0x3b>
    1245: 85 14        	sta	$14                     ; 0x2014 <midi_instruments+0xcd>
    1247: b5 61        	lda	$61,x                   ; 0x2061 <end_block9+0x19>
    1249: 0a           	asl
    124a: 64 15        	stz	$15                     ; 0x2015 <midi_instruments+0xce>
    124c: 26 15        	rol	$15                     ; 0x2015 <midi_instruments+0xce>
    124e: 05 13        	ora	$13                     ; 0x2013 <midi_instruments+0xcc>
    1250: 9d 61 00     	sta	$61,x                   ; 0x61 <__rc31+0x32>
    1253: e8           	inx
    1254: c6 14        	dec	$14                     ; 0x2014 <midi_instruments+0xcd>
    1256: a5 15        	lda	$15                     ; 0x2015 <midi_instruments+0xce>
    1258: 85 13        	sta	$13                     ; 0x2013 <midi_instruments+0xcc>
    125a: a5 14        	lda	$14                     ; 0x2014 <midi_instruments+0xcd>
    125c: d0 e9        	bne	$1247 <printf+0x631>
    125e: a5 17        	lda	$17                     ; 0x2017 <midi_instruments+0xd0>
    1260: 1a           	inc
    1261: c5 12        	cmp	$12                     ; 0x2012 <midi_instruments+0xcb>
    1263: a6 3c        	ldx	$3c                     ; 0x203c <midi_instruments+0xf5>
    1265: b0 13        	bcs	$127a <printf+0x664>
    1267: 85 17        	sta	$17                     ; 0x2017 <midi_instruments+0xd0>
    1269: 8a           	txa
    126a: d0 03        	bne	$126f <printf+0x659>
    126c: 4c fd 11     	jmp	$11fd <printf+0x5e7>
    126f: 86 3c        	stx	$3c                     ; 0x203c <midi_instruments+0xf5>
    1271: a2 00        	ldx	#$0
    1273: 86 81        	stx	$81                     ; 0x2081 <end_block9+0x39>
    1275: a2 00        	ldx	#$0
    1277: 4c c2 11     	jmp	$11c2 <printf+0x5ac>
    127a: a5 3d        	lda	$3d                     ; 0x203d <midi_instruments+0xf6>
    127c: e6 45        	inc	$45                     ; 0x2045 <midi_instruments+0xfe>
    127e: c6 45        	dec	$45                     ; 0x2045 <midi_instruments+0xfe>
    1280: 10 08        	bpl	$128a <printf+0x674>
    1282: a2 01        	ldx	#$1
    1284: 64 45        	stz	$45                     ; 0x2045 <midi_instruments+0xfe>
    1286: 86 44        	stx	$44                     ; 0x2044 <midi_instruments+0xfd>
    1288: a6 3c        	ldx	$3c                     ; 0x203c <midi_instruments+0xf5>
    128a: 29 04        	and	#$4
    128c: f0 2b        	beq	$12b9 <printf+0x6a3>
    128e: a5 82        	lda	$82                     ; 0x2082 <end_block9+0x3a>
    1290: c9 10        	cmp	#$10
    1292: f0 14        	beq	$12a8 <printf+0x692>
    1294: c9 08        	cmp	#$8
    1296: d0 21        	bne	$12b9 <printf+0x6a3>
    1298: a2 00        	ldx	#$0
    129a: e4 45        	cpx	$45                     ; 0x2045 <midi_instruments+0xfe>
    129c: f0 03        	beq	$12a1 <printf+0x68b>
    129e: 4c 8e 17     	jmp	$178e <printf+0xb78>
    12a1: a6 3c        	ldx	$3c                     ; 0x203c <midi_instruments+0xf5>
    12a3: e4 44        	cpx	$44                     ; 0x2044 <midi_instruments+0xfd>
    12a5: 4c 90 17     	jmp	$1790 <printf+0xb7a>
    12a8: 8a           	txa
    12a9: f0 0e        	beq	$12b9 <printf+0x6a3>
    12ab: a5 3d        	lda	$3d                     ; 0x203d <midi_instruments+0xf6>
    12ad: 29 80        	and	#$80
    12af: d0 03        	bne	$12b4 <printf+0x69e>
    12b1: 4c a9 17     	jmp	$17a9 <printf+0xb93>
    12b4: a2 78        	ldx	#$78
    12b6: 4c ab 17     	jmp	$17ab <printf+0xb95>
    12b9: a6 3d        	ldx	$3d                     ; 0x203d <midi_instruments+0xf6>
    12bb: a9 2d        	lda	#$2d
    12bd: 85 83        	sta	$83                     ; 0x2083 <end_block9+0x3b>
    12bf: a5 16        	lda	$16                     ; 0x2016 <midi_instruments+0xcf>
    12c1: d0 32        	bne	$12f5 <printf+0x6df>
    12c3: 86 12        	stx	$12                     ; 0x2012 <midi_instruments+0xcb>
    12c5: 8a           	txa
    12c6: 29 02        	and	#$2
    12c8: a2 2b        	ldx	#$2b
    12ca: 86 83        	stx	$83                     ; 0x2083 <end_block9+0x3b>
    12cc: aa           	tax
    12cd: d0 26        	bne	$12f5 <printf+0x6df>
    12cf: a5 12        	lda	$12                     ; 0x2012 <midi_instruments+0xcb>
    12d1: 29 08        	and	#$8
    12d3: d0 1c        	bne	$12f1 <printf+0x6db>
    12d5: a2 01        	ldx	#$1
    12d7: 86 82        	stx	$82                     ; 0x2082 <end_block9+0x3a>
    12d9: a9 00        	lda	#$0
    12db: aa           	tax
    12dc: 86 81        	stx	$81                     ; 0x2081 <end_block9+0x39>
    12de: 80 1c        	bra	$12fc <printf+0x6e6>
    12e0: 85 12        	sta	$12                     ; 0x2012 <midi_instruments+0xcb>
    12e2: a9 04        	lda	#$4
    12e4: 80 04        	bra	$12ea <printf+0x6d4>
    12e6: 85 12        	sta	$12                     ; 0x2012 <midi_instruments+0xcb>
    12e8: a9 02        	lda	#$2
    12ea: 85 83        	sta	$83                     ; 0x2083 <end_block9+0x3b>
    12ec: a5 12        	lda	$12                     ; 0x2012 <midi_instruments+0xcb>
    12ee: 4c bd 0f     	jmp	$fbd <printf+0x3a7>
    12f1: a2 20        	ldx	#$20
    12f3: 86 83        	stx	$83                     ; 0x2083 <end_block9+0x3b>
    12f5: a2 00        	ldx	#$0
    12f7: 86 82        	stx	$82                     ; 0x2082 <end_block9+0x3a>
    12f9: 86 81        	stx	$81                     ; 0x2081 <end_block9+0x39>
    12fb: 98           	tya
    12fc: a6 45        	ldx	$45                     ; 0x2045 <midi_instruments+0xfe>
    12fe: d0 35        	bne	$1335 <printf+0x71f>
    1300: a6 44        	ldx	$44                     ; 0x2044 <midi_instruments+0xfd>
    1302: a4 3c        	ldy	$3c                     ; 0x203c <midi_instruments+0xf5>
    1304: 84 12        	sty	$12                     ; 0x2012 <midi_instruments+0xcb>
    1306: e4 12        	cpx	$12                     ; 0x2012 <midi_instruments+0xcb>
    1308: a6 44        	ldx	$44                     ; 0x2044 <midi_instruments+0xfd>
    130a: 86 12        	stx	$12                     ; 0x2012 <midi_instruments+0xcb>
    130c: a6 45        	ldx	$45                     ; 0x2045 <midi_instruments+0xfe>
    130e: 86 13        	stx	$13                     ; 0x2013 <midi_instruments+0xcc>
    1310: b0 04        	bcs	$1316 <printf+0x700>
    1312: 84 12        	sty	$12                     ; 0x2012 <midi_instruments+0xcb>
    1314: 64 13        	stz	$13                     ; 0x2013 <midi_instruments+0xcc>
    1316: 85 18        	sta	$18                     ; 0x2018 <midi_instruments+0xd1>
    1318: 18           	clc
    1319: 65 12        	adc	$12                     ; 0x2012 <midi_instruments+0xcb>
    131b: 85 16        	sta	$16                     ; 0x2016 <midi_instruments+0xcf>
    131d: 85 14        	sta	$14                     ; 0x2014 <midi_instruments+0xcd>
    131f: a5 13        	lda	$13                     ; 0x2013 <midi_instruments+0xcc>
    1321: 69 00        	adc	#$0
    1323: 85 15        	sta	$15                     ; 0x2015 <midi_instruments+0xce>
    1325: c5 1a        	cmp	$1a                     ; 0x201a <midi_instruments+0xd3>
    1327: d0 1e        	bne	$1347 <printf+0x731>
    1329: a6 1a        	ldx	$1a                     ; 0x201a <midi_instruments+0xd3>
    132b: 86 17        	stx	$17                     ; 0x2017 <midi_instruments+0xd0>
    132d: a6 46        	ldx	$46                     ; 0x2046 <midi_instruments+0xff>
    132f: a5 16        	lda	$16                     ; 0x2016 <midi_instruments+0xcf>
    1331: c5 46        	cmp	$46                     ; 0x2046 <midi_instruments+0xff>
    1333: 80 1c        	bra	$1351 <printf+0x73b>
    1335: a6 45        	ldx	$45                     ; 0x2045 <midi_instruments+0xfe>
    1337: e0 00        	cpx	#$0
    1339: a6 44        	ldx	$44                     ; 0x2044 <midi_instruments+0xfd>
    133b: 86 12        	stx	$12                     ; 0x2012 <midi_instruments+0xcb>
    133d: a6 45        	ldx	$45                     ; 0x2045 <midi_instruments+0xfe>
    133f: 86 13        	stx	$13                     ; 0x2013 <midi_instruments+0xcc>
    1341: a4 3c        	ldy	$3c                     ; 0x203c <midi_instruments+0xf5>
    1343: 90 cd        	bcc	$1312 <printf+0x6fc>
    1345: 80 cf        	bra	$1316 <printf+0x700>
    1347: a6 46        	ldx	$46                     ; 0x2046 <midi_instruments+0xff>
    1349: 5a           	phy
    134a: a4 1a        	ldy	$1a                     ; 0x201a <midi_instruments+0xd3>
    134c: 84 17        	sty	$17                     ; 0x2017 <midi_instruments+0xd0>
    134e: 7a           	ply
    134f: c5 1a        	cmp	$1a                     ; 0x201a <midi_instruments+0xd3>
    1351: 64 47        	stz	$47                     ; 0x2047 <kernelError>
    1353: 64 46        	stz	$46                     ; 0x2046 <midi_instruments+0xff>
    1355: 90 03        	bcc	$135a <printf+0x744>
    1357: 4c ed 13     	jmp	$13ed <printf+0x7d7>
    135a: a5 3d        	lda	$3d                     ; 0x203d <midi_instruments+0xf6>
    135c: 29 11        	and	#$11
    135e: 86 16        	stx	$16                     ; 0x2016 <midi_instruments+0xcf>
    1360: f0 0f        	beq	$1371 <printf+0x75b>
    1362: 8a           	txa
    1363: 38           	sec
    1364: e5 14        	sbc	$14                     ; 0x2014 <midi_instruments+0xcd>
    1366: 85 47        	sta	$47                     ; 0x2047 <kernelError>
    1368: a5 1a        	lda	$1a                     ; 0x201a <midi_instruments+0xd3>
    136a: e5 15        	sbc	$15                     ; 0x2015 <midi_instruments+0xce>
    136c: 85 46        	sta	$46                     ; 0x2046 <midi_instruments+0xff>
    136e: 4c ed 13     	jmp	$13ed <printf+0x7d7>
    1371: a6 71        	ldx	$71                     ; 0x2071 <end_block9+0x29>
    1373: 86 14        	stx	$14                     ; 0x2014 <midi_instruments+0xcd>
    1375: 38           	sec
    1376: a5 18        	lda	$18                     ; 0x2018 <midi_instruments+0xd1>
    1378: e5 16        	sbc	$16                     ; 0x2016 <midi_instruments+0xcf>
    137a: aa           	tax
    137b: a9 00        	lda	#$0
    137d: e5 17        	sbc	$17                     ; 0x2017 <midi_instruments+0xd0>
    137f: a8           	tay
    1380: 18           	clc
    1381: 8a           	txa
    1382: 65 12        	adc	$12                     ; 0x2012 <midi_instruments+0xcb>
    1384: 85 3d        	sta	$3d                     ; 0x203d <midi_instruments+0xf6>
    1386: 98           	tya
    1387: 65 13        	adc	$13                     ; 0x2013 <midi_instruments+0xcc>
    1389: a4 72        	ldy	$72                     ; 0x2072 <end_block9+0x2a>
    138b: 80 47        	bra	$13d4 <printf+0x7be>
    138d: c4 70        	cpy	$70                     ; 0x2070 <end_block9+0x28>
    138f: b0 25        	bcs	$13b6 <printf+0x7a0>
    1391: a6 7c        	ldx	$7c                     ; 0x207c <end_block9+0x34>
    1393: e4 41        	cpx	$41                     ; 0x2041 <midi_instruments+0xfa>
    1395: d0 18        	bne	$13af <printf+0x799>
    1397: a6 7b        	ldx	$7b                     ; 0x207b <end_block9+0x33>
    1399: e4 40        	cpx	$40                     ; 0x2040 <midi_instruments+0xf9>
    139b: d0 12        	bne	$13af <printf+0x799>
    139d: 18           	clc
    139e: a5 14        	lda	$14                     ; 0x2014 <midi_instruments+0xcd>
    13a0: 65 75        	adc	$75                     ; 0x2075 <end_block9+0x2d>
    13a2: 85 12        	sta	$12                     ; 0x2012 <midi_instruments+0xcb>
    13a4: 98           	tya
    13a5: 65 76        	adc	$76                     ; 0x2076 <end_block9+0x2e>
    13a7: 85 13        	sta	$13                     ; 0x2013 <midi_instruments+0xcc>
    13a9: a9 20        	lda	#$20
    13ab: 92 12        	sta	($12)                   ; 0x2012 <midi_instruments+0xcb>
    13ad: 80 05        	bra	$13b4 <printf+0x79e>
    13af: a9 20        	lda	#$20
    13b1: 20 79 08     	jsr	$879 <__putchar>
    13b4: a5 46        	lda	$46                     ; 0x2046 <midi_instruments+0xff>
    13b6: a6 71        	ldx	$71                     ; 0x2071 <end_block9+0x29>
    13b8: a4 72        	ldy	$72                     ; 0x2072 <end_block9+0x2a>
    13ba: e8           	inx
    13bb: d0 01        	bne	$13be <printf+0x7a8>
    13bd: c8           	iny
    13be: 86 14        	stx	$14                     ; 0x2014 <midi_instruments+0xcd>
    13c0: 86 71        	stx	$71                     ; 0x2071 <end_block9+0x29>
    13c2: 84 72        	sty	$72                     ; 0x2072 <end_block9+0x2a>
    13c4: a6 3d        	ldx	$3d                     ; 0x203d <midi_instruments+0xf6>
    13c6: e8           	inx
    13c7: d0 01        	bne	$13ca <printf+0x7b4>
    13c9: 1a           	inc
    13ca: 86 3d        	stx	$3d                     ; 0x203d <midi_instruments+0xf6>
    13cc: c9 00        	cmp	#$0
    13ce: d0 04        	bne	$13d4 <printf+0x7be>
    13d0: e0 00        	cpx	#$0
    13d2: f0 13        	beq	$13e7 <printf+0x7d1>
    13d4: 85 46        	sta	$46                     ; 0x2046 <midi_instruments+0xff>
    13d6: c4 70        	cpy	$70                     ; 0x2070 <end_block9+0x28>
    13d8: d0 b3        	bne	$138d <printf+0x777>
    13da: a6 6f        	ldx	$6f                     ; 0x206f <end_block9+0x27>
    13dc: 86 12        	stx	$12                     ; 0x2012 <midi_instruments+0xcb>
    13de: a6 14        	ldx	$14                     ; 0x2014 <midi_instruments+0xcd>
    13e0: e4 12        	cpx	$12                     ; 0x2012 <midi_instruments+0xcb>
    13e2: b0 d2        	bcs	$13b6 <printf+0x7a0>
    13e4: 4c 91 13     	jmp	$1391 <printf+0x77b>
    13e7: 64 47        	stz	$47                     ; 0x2047 <kernelError>
    13e9: 64 46        	stz	$46                     ; 0x2046 <midi_instruments+0xff>
    13eb: a4 3c        	ldy	$3c                     ; 0x203c <midi_instruments+0xf5>
    13ed: a6 82        	ldx	$82                     ; 0x2082 <end_block9+0x3a>
    13ef: d0 4d        	bne	$143e <printf+0x828>
    13f1: a6 71        	ldx	$71                     ; 0x2071 <end_block9+0x29>
    13f3: a5 72        	lda	$72                     ; 0x2072 <end_block9+0x2a>
    13f5: c5 70        	cmp	$70                     ; 0x2070 <end_block9+0x28>
    13f7: d0 10        	bne	$1409 <printf+0x7f3>
    13f9: 86 13        	stx	$13                     ; 0x2013 <midi_instruments+0xcc>
    13fb: a6 6f        	ldx	$6f                     ; 0x206f <end_block9+0x27>
    13fd: 86 12        	stx	$12                     ; 0x2012 <midi_instruments+0xcb>
    13ff: a4 3c        	ldy	$3c                     ; 0x203c <midi_instruments+0xf5>
    1401: a6 13        	ldx	$13                     ; 0x2013 <midi_instruments+0xcc>
    1403: e4 12        	cpx	$12                     ; 0x2012 <midi_instruments+0xcb>
    1405: 90 08        	bcc	$140f <printf+0x7f9>
    1407: 80 2f        	bra	$1438 <printf+0x822>
    1409: 86 13        	stx	$13                     ; 0x2013 <midi_instruments+0xcc>
    140b: c5 70        	cmp	$70                     ; 0x2070 <end_block9+0x28>
    140d: b0 29        	bcs	$1438 <printf+0x822>
    140f: a6 7c        	ldx	$7c                     ; 0x207c <end_block9+0x34>
    1411: e4 41        	cpx	$41                     ; 0x2041 <midi_instruments+0xfa>
    1413: d0 1c        	bne	$1431 <printf+0x81b>
    1415: a6 7b        	ldx	$7b                     ; 0x207b <end_block9+0x33>
    1417: e4 40        	cpx	$40                     ; 0x2040 <midi_instruments+0xf9>
    1419: d0 16        	bne	$1431 <printf+0x81b>
    141b: 18           	clc
    141c: 85 12        	sta	$12                     ; 0x2012 <midi_instruments+0xcb>
    141e: a5 13        	lda	$13                     ; 0x2013 <midi_instruments+0xcc>
    1420: 65 75        	adc	$75                     ; 0x2075 <end_block9+0x2d>
    1422: aa           	tax
    1423: a5 12        	lda	$12                     ; 0x2012 <midi_instruments+0xcb>
    1425: 65 76        	adc	$76                     ; 0x2076 <end_block9+0x2e>
    1427: 86 12        	stx	$12                     ; 0x2012 <midi_instruments+0xcb>
    1429: 85 13        	sta	$13                     ; 0x2013 <midi_instruments+0xcc>
    142b: a5 83        	lda	$83                     ; 0x2083 <end_block9+0x3b>
    142d: 92 12        	sta	($12)                   ; 0x2012 <midi_instruments+0xcb>
    142f: 80 05        	bra	$1436 <printf+0x820>
    1431: a5 83        	lda	$83                     ; 0x2083 <end_block9+0x3b>
    1433: 20 79 08     	jsr	$879 <__putchar>
    1436: a4 3c        	ldy	$3c                     ; 0x203c <midi_instruments+0xf5>
    1438: e6 71        	inc	$71                     ; 0x2071 <end_block9+0x29>
    143a: d0 02        	bne	$143e <printf+0x828>
    143c: e6 72        	inc	$72                     ; 0x2072 <end_block9+0x2a>
    143e: a6 81        	ldx	$81                     ; 0x2081 <end_block9+0x39>
    1440: f0 4d        	beq	$148f <printf+0x879>
    1442: a6 71        	ldx	$71                     ; 0x2071 <end_block9+0x29>
    1444: a5 72        	lda	$72                     ; 0x2072 <end_block9+0x2a>
    1446: c5 70        	cmp	$70                     ; 0x2070 <end_block9+0x28>
    1448: d0 10        	bne	$145a <printf+0x844>
    144a: 86 13        	stx	$13                     ; 0x2013 <midi_instruments+0xcc>
    144c: a6 6f        	ldx	$6f                     ; 0x206f <end_block9+0x27>
    144e: 86 12        	stx	$12                     ; 0x2012 <midi_instruments+0xcb>
    1450: a4 3c        	ldy	$3c                     ; 0x203c <midi_instruments+0xf5>
    1452: a6 13        	ldx	$13                     ; 0x2013 <midi_instruments+0xcc>
    1454: e4 12        	cpx	$12                     ; 0x2012 <midi_instruments+0xcb>
    1456: 90 08        	bcc	$1460 <printf+0x84a>
    1458: 80 2f        	bra	$1489 <printf+0x873>
    145a: 86 13        	stx	$13                     ; 0x2013 <midi_instruments+0xcc>
    145c: c5 70        	cmp	$70                     ; 0x2070 <end_block9+0x28>
    145e: b0 29        	bcs	$1489 <printf+0x873>
    1460: a6 7c        	ldx	$7c                     ; 0x207c <end_block9+0x34>
    1462: e4 41        	cpx	$41                     ; 0x2041 <midi_instruments+0xfa>
    1464: d0 1c        	bne	$1482 <printf+0x86c>
    1466: a6 7b        	ldx	$7b                     ; 0x207b <end_block9+0x33>
    1468: e4 40        	cpx	$40                     ; 0x2040 <midi_instruments+0xf9>
    146a: d0 16        	bne	$1482 <printf+0x86c>
    146c: 18           	clc
    146d: 85 12        	sta	$12                     ; 0x2012 <midi_instruments+0xcb>
    146f: a5 13        	lda	$13                     ; 0x2013 <midi_instruments+0xcc>
    1471: 65 75        	adc	$75                     ; 0x2075 <end_block9+0x2d>
    1473: aa           	tax
    1474: a5 12        	lda	$12                     ; 0x2012 <midi_instruments+0xcb>
    1476: 65 76        	adc	$76                     ; 0x2076 <end_block9+0x2e>
    1478: 86 12        	stx	$12                     ; 0x2012 <midi_instruments+0xcb>
    147a: 85 13        	sta	$13                     ; 0x2013 <midi_instruments+0xcc>
    147c: a5 86        	lda	$86                     ; 0x2086 <end_block9+0x3e>
    147e: 92 12        	sta	($12)                   ; 0x2012 <midi_instruments+0xcb>
    1480: 80 05        	bra	$1487 <printf+0x871>
    1482: a5 86        	lda	$86                     ; 0x2086 <end_block9+0x3e>
    1484: 20 79 08     	jsr	$879 <__putchar>
    1487: a4 3c        	ldy	$3c                     ; 0x203c <midi_instruments+0xf5>
    1489: e6 71        	inc	$71                     ; 0x2071 <end_block9+0x29>
    148b: d0 02        	bne	$148f <printf+0x879>
    148d: e6 72        	inc	$72                     ; 0x2072 <end_block9+0x2a>
    148f: a9 10        	lda	#$10
    1491: 25 6d        	and	$6d                     ; 0x206d <end_block9+0x25>
    1493: d0 03        	bne	$1498 <printf+0x882>
    1495: 4c 20 15     	jmp	$1520 <printf+0x90a>
    1498: a5 6d        	lda	$6d                     ; 0x206d <end_block9+0x25>
    149a: 29 01        	and	#$1
    149c: 29 01        	and	#$1
    149e: f0 03        	beq	$14a3 <printf+0x88d>
    14a0: 4c 20 15     	jmp	$1520 <printf+0x90a>
    14a3: a6 47        	ldx	$47                     ; 0x2047 <kernelError>
    14a5: a5 46        	lda	$46                     ; 0x2046 <midi_instruments+0xff>
    14a7: d0 06        	bne	$14af <printf+0x899>
    14a9: 8a           	txa
    14aa: d0 03        	bne	$14af <printf+0x899>
    14ac: 4c be 17     	jmp	$17be <printf+0xba8>
    14af: a6 71        	ldx	$71                     ; 0x2071 <end_block9+0x29>
    14b1: 86 13        	stx	$13                     ; 0x2013 <midi_instruments+0xcc>
    14b3: a5 72        	lda	$72                     ; 0x2072 <end_block9+0x2a>
    14b5: 80 4f        	bra	$1506 <printf+0x8f0>
    14b7: c5 70        	cmp	$70                     ; 0x2070 <end_block9+0x28>
    14b9: b0 24        	bcs	$14df <printf+0x8c9>
    14bb: a6 7c        	ldx	$7c                     ; 0x207c <end_block9+0x34>
    14bd: e4 41        	cpx	$41                     ; 0x2041 <midi_instruments+0xfa>
    14bf: d0 19        	bne	$14da <printf+0x8c4>
    14c1: a6 7b        	ldx	$7b                     ; 0x207b <end_block9+0x33>
    14c3: e4 40        	cpx	$40                     ; 0x2040 <midi_instruments+0xf9>
    14c5: d0 13        	bne	$14da <printf+0x8c4>
    14c7: 18           	clc
    14c8: aa           	tax
    14c9: a5 13        	lda	$13                     ; 0x2013 <midi_instruments+0xcc>
    14cb: 65 75        	adc	$75                     ; 0x2075 <end_block9+0x2d>
    14cd: 85 12        	sta	$12                     ; 0x2012 <midi_instruments+0xcb>
    14cf: 8a           	txa
    14d0: 65 76        	adc	$76                     ; 0x2076 <end_block9+0x2e>
    14d2: 85 13        	sta	$13                     ; 0x2013 <midi_instruments+0xcc>
    14d4: a9 30        	lda	#$30
    14d6: 92 12        	sta	($12)                   ; 0x2012 <midi_instruments+0xcb>
    14d8: 80 05        	bra	$14df <printf+0x8c9>
    14da: a9 30        	lda	#$30
    14dc: 20 79 08     	jsr	$879 <__putchar>
    14df: a6 71        	ldx	$71                     ; 0x2071 <end_block9+0x29>
    14e1: a5 72        	lda	$72                     ; 0x2072 <end_block9+0x2a>
    14e3: e8           	inx
    14e4: d0 01        	bne	$14e7 <printf+0x8d1>
    14e6: 1a           	inc
    14e7: 86 13        	stx	$13                     ; 0x2013 <midi_instruments+0xcc>
    14e9: 86 71        	stx	$71                     ; 0x2071 <end_block9+0x29>
    14eb: 85 72        	sta	$72                     ; 0x2072 <end_block9+0x2a>
    14ed: a4 47        	ldy	$47                     ; 0x2047 <kernelError>
    14ef: a6 46        	ldx	$46                     ; 0x2046 <midi_instruments+0xff>
    14f1: 86 12        	stx	$12                     ; 0x2012 <midi_instruments+0xcb>
    14f3: 88           	dey
    14f4: c0 ff        	cpy	#$ff
    14f6: d0 02        	bne	$14fa <printf+0x8e4>
    14f8: c6 12        	dec	$12                     ; 0x2012 <midi_instruments+0xcb>
    14fa: 84 47        	sty	$47                     ; 0x2047 <kernelError>
    14fc: a6 12        	ldx	$12                     ; 0x2012 <midi_instruments+0xcb>
    14fe: 86 46        	stx	$46                     ; 0x2046 <midi_instruments+0xff>
    1500: d0 04        	bne	$1506 <printf+0x8f0>
    1502: c0 00        	cpy	#$0
    1504: f0 14        	beq	$151a <printf+0x904>
    1506: c5 70        	cmp	$70                     ; 0x2070 <end_block9+0x28>
    1508: f0 03        	beq	$150d <printf+0x8f7>
    150a: 4c b7 14     	jmp	$14b7 <printf+0x8a1>
    150d: a6 6f        	ldx	$6f                     ; 0x206f <end_block9+0x27>
    150f: 86 12        	stx	$12                     ; 0x2012 <midi_instruments+0xcb>
    1511: a6 13        	ldx	$13                     ; 0x2013 <midi_instruments+0xcc>
    1513: e4 12        	cpx	$12                     ; 0x2012 <midi_instruments+0xcb>
    1515: b0 c8        	bcs	$14df <printf+0x8c9>
    1517: 4c bb 14     	jmp	$14bb <printf+0x8a5>
    151a: 64 47        	stz	$47                     ; 0x2047 <kernelError>
    151c: 64 46        	stz	$46                     ; 0x2046 <midi_instruments+0xff>
    151e: a4 3c        	ldy	$3c                     ; 0x203c <midi_instruments+0xf5>
    1520: a2 00        	ldx	#$0
    1522: e4 45        	cpx	$45                     ; 0x2045 <midi_instruments+0xfe>
    1524: d0 07        	bne	$152d <printf+0x917>
    1526: c4 44        	cpy	$44                     ; 0x2044 <midi_instruments+0xfd>
    1528: 90 0a        	bcc	$1534 <printf+0x91e>
    152a: 4c a2 15     	jmp	$15a2 <printf+0x98c>
    152d: e4 45        	cpx	$45                     ; 0x2045 <midi_instruments+0xfe>
    152f: 90 03        	bcc	$1534 <printf+0x91e>
    1531: 4c a2 15     	jmp	$15a2 <printf+0x98c>
    1534: a6 71        	ldx	$71                     ; 0x2071 <end_block9+0x29>
    1536: 86 13        	stx	$13                     ; 0x2013 <midi_instruments+0xcc>
    1538: a5 72        	lda	$72                     ; 0x2072 <end_block9+0x2a>
    153a: a2 ff        	ldx	#$ff
    153c: c6 44        	dec	$44                     ; 0x2044 <midi_instruments+0xfd>
    153e: e4 44        	cpx	$44                     ; 0x2044 <midi_instruments+0xfd>
    1540: d0 02        	bne	$1544 <printf+0x92e>
    1542: c6 45        	dec	$45                     ; 0x2045 <midi_instruments+0xfe>
    1544: c5 70        	cmp	$70                     ; 0x2070 <end_block9+0x28>
    1546: d0 0c        	bne	$1554 <printf+0x93e>
    1548: a6 6f        	ldx	$6f                     ; 0x206f <end_block9+0x27>
    154a: 86 12        	stx	$12                     ; 0x2012 <midi_instruments+0xcb>
    154c: a6 13        	ldx	$13                     ; 0x2013 <midi_instruments+0xcc>
    154e: e4 12        	cpx	$12                     ; 0x2012 <midi_instruments+0xcb>
    1550: 90 06        	bcc	$1558 <printf+0x942>
    1552: 80 28        	bra	$157c <printf+0x966>
    1554: c5 70        	cmp	$70                     ; 0x2070 <end_block9+0x28>
    1556: b0 24        	bcs	$157c <printf+0x966>
    1558: a6 7c        	ldx	$7c                     ; 0x207c <end_block9+0x34>
    155a: e4 41        	cpx	$41                     ; 0x2041 <midi_instruments+0xfa>
    155c: d0 19        	bne	$1577 <printf+0x961>
    155e: a6 7b        	ldx	$7b                     ; 0x207b <end_block9+0x33>
    1560: e4 40        	cpx	$40                     ; 0x2040 <midi_instruments+0xf9>
    1562: d0 13        	bne	$1577 <printf+0x961>
    1564: 18           	clc
    1565: aa           	tax
    1566: a5 13        	lda	$13                     ; 0x2013 <midi_instruments+0xcc>
    1568: 65 75        	adc	$75                     ; 0x2075 <end_block9+0x2d>
    156a: 85 12        	sta	$12                     ; 0x2012 <midi_instruments+0xcb>
    156c: 8a           	txa
    156d: 65 76        	adc	$76                     ; 0x2076 <end_block9+0x2e>
    156f: 85 13        	sta	$13                     ; 0x2013 <midi_instruments+0xcc>
    1571: a9 30        	lda	#$30
    1573: 92 12        	sta	($12)                   ; 0x2012 <midi_instruments+0xcb>
    1575: 80 05        	bra	$157c <printf+0x966>
    1577: a9 30        	lda	#$30
    1579: 20 79 08     	jsr	$879 <__putchar>
    157c: a6 71        	ldx	$71                     ; 0x2071 <end_block9+0x29>
    157e: a5 72        	lda	$72                     ; 0x2072 <end_block9+0x2a>
    1580: e8           	inx
    1581: d0 01        	bne	$1584 <printf+0x96e>
    1583: 1a           	inc
    1584: 86 13        	stx	$13                     ; 0x2013 <midi_instruments+0xcc>
    1586: 86 71        	stx	$71                     ; 0x2071 <end_block9+0x29>
    1588: 85 72        	sta	$72                     ; 0x2072 <end_block9+0x2a>
    158a: a2 00        	ldx	#$0
    158c: e4 45        	cpx	$45                     ; 0x2045 <midi_instruments+0xfe>
    158e: d0 09        	bne	$1599 <printf+0x983>
    1590: a4 3c        	ldy	$3c                     ; 0x203c <midi_instruments+0xf5>
    1592: c4 44        	cpy	$44                     ; 0x2044 <midi_instruments+0xfd>
    1594: b0 0c        	bcs	$15a2 <printf+0x98c>
    1596: 4c 3a 15     	jmp	$153a <printf+0x924>
    1599: e4 45        	cpx	$45                     ; 0x2045 <midi_instruments+0xfe>
    159b: a4 3c        	ldy	$3c                     ; 0x203c <midi_instruments+0xf5>
    159d: b0 03        	bcs	$15a2 <printf+0x98c>
    159f: 4c 3a 15     	jmp	$153a <printf+0x924>
    15a2: 98           	tya
    15a3: d0 03        	bne	$15a8 <printf+0x992>
    15a5: 4c 97 16     	jmp	$1697 <printf+0xa81>
    15a8: 88           	dey
    15a9: d0 03        	bne	$15ae <printf+0x998>
    15ab: 4c 36 16     	jmp	$1636 <printf+0xa20>
    15ae: 84 44        	sty	$44                     ; 0x2044 <midi_instruments+0xfd>
    15b0: a6 87        	ldx	$87                     ; 0x2087 <end_block9+0x3f>
    15b2: 8a           	txa
    15b3: 18           	clc
    15b4: 65 44        	adc	$44                     ; 0x2044 <midi_instruments+0xfd>
    15b6: 85 3c        	sta	$3c                     ; 0x203c <midi_instruments+0xf5>
    15b8: a5 88        	lda	$88                     ; 0x2088 <end_block9+0x40>
    15ba: 69 00        	adc	#$0
    15bc: 85 3d        	sta	$3d                     ; 0x203d <midi_instruments+0xf6>
    15be: 4c 28 16     	jmp	$1628 <printf+0xa12>
    15c1: a8           	tay
    15c2: a9 80        	lda	#$80
    15c4: 25 6d        	and	$6d                     ; 0x206d <end_block9+0x25>
    15c6: f0 04        	beq	$15cc <printf+0x9b6>
    15c8: a2 61        	ldx	#$61
    15ca: 80 02        	bra	$15ce <printf+0x9b8>
    15cc: a2 41        	ldx	#$41
    15ce: 86 12        	stx	$12                     ; 0x2012 <midi_instruments+0xcb>
    15d0: 18           	clc
    15d1: 98           	tya
    15d2: 65 12        	adc	$12                     ; 0x2012 <midi_instruments+0xcb>
    15d4: 18           	clc
    15d5: 69 f6        	adc	#$f6
    15d7: a4 71        	ldy	$71                     ; 0x2071 <end_block9+0x29>
    15d9: a6 72        	ldx	$72                     ; 0x2072 <end_block9+0x2a>
    15db: e4 70        	cpx	$70                     ; 0x2070 <end_block9+0x28>
    15dd: d0 0c        	bne	$15eb <printf+0x9d5>
    15df: 86 14        	stx	$14                     ; 0x2014 <midi_instruments+0xcd>
    15e1: a6 6f        	ldx	$6f                     ; 0x206f <end_block9+0x27>
    15e3: 86 12        	stx	$12                     ; 0x2012 <midi_instruments+0xcb>
    15e5: c4 12        	cpy	$12                     ; 0x2012 <midi_instruments+0xcb>
    15e7: 90 08        	bcc	$15f1 <printf+0x9db>
    15e9: 80 27        	bra	$1612 <printf+0x9fc>
    15eb: 86 14        	stx	$14                     ; 0x2014 <midi_instruments+0xcd>
    15ed: e4 70        	cpx	$70                     ; 0x2070 <end_block9+0x28>
    15ef: b0 21        	bcs	$1612 <printf+0x9fc>
    15f1: a6 7c        	ldx	$7c                     ; 0x207c <end_block9+0x34>
    15f3: e4 41        	cpx	$41                     ; 0x2041 <midi_instruments+0xfa>
    15f5: d0 18        	bne	$160f <printf+0x9f9>
    15f7: a6 7b        	ldx	$7b                     ; 0x207b <end_block9+0x33>
    15f9: e4 40        	cpx	$40                     ; 0x2040 <midi_instruments+0xf9>
    15fb: d0 12        	bne	$160f <printf+0x9f9>
    15fd: 18           	clc
    15fe: aa           	tax
    15ff: 98           	tya
    1600: 65 75        	adc	$75                     ; 0x2075 <end_block9+0x2d>
    1602: 85 12        	sta	$12                     ; 0x2012 <midi_instruments+0xcb>
    1604: a5 14        	lda	$14                     ; 0x2014 <midi_instruments+0xcd>
    1606: 65 76        	adc	$76                     ; 0x2076 <end_block9+0x2e>
    1608: 85 13        	sta	$13                     ; 0x2013 <midi_instruments+0xcc>
    160a: 8a           	txa
    160b: 92 12        	sta	($12)                   ; 0x2012 <midi_instruments+0xcb>
    160d: 80 03        	bra	$1612 <printf+0x9fc>
    160f: 20 79 08     	jsr	$879 <__putchar>
    1612: e6 71        	inc	$71                     ; 0x2071 <end_block9+0x29>
    1614: d0 02        	bne	$1618 <printf+0xa02>
    1616: e6 72        	inc	$72                     ; 0x2072 <end_block9+0x2a>
    1618: c6 44        	dec	$44                     ; 0x2044 <midi_instruments+0xfd>
    161a: a2 ff        	ldx	#$ff
    161c: c6 3c        	dec	$3c                     ; 0x203c <midi_instruments+0xf5>
    161e: e4 3c        	cpx	$3c                     ; 0x203c <midi_instruments+0xf5>
    1620: d0 02        	bne	$1624 <printf+0xa0e>
    1622: c6 3d        	dec	$3d                     ; 0x203d <midi_instruments+0xf6>
    1624: a5 44        	lda	$44                     ; 0x2044 <midi_instruments+0xfd>
    1626: f0 0e        	beq	$1636 <printf+0xa20>
    1628: b2 3c        	lda	($3c)                   ; 0x203c <midi_instruments+0xf5>
    162a: c9 0a        	cmp	#$a
    162c: 90 03        	bcc	$1631 <printf+0xa1b>
    162e: 4c c1 15     	jmp	$15c1 <printf+0x9ab>
    1631: 09 30        	ora	#$30
    1633: 4c d7 15     	jmp	$15d7 <printf+0x9c1>
    1636: a5 4a        	lda	$4a                     ; 0x204a <end_block9+0x2>
    1638: c9 0a        	cmp	#$a
    163a: b0 04        	bcs	$1640 <printf+0xa2a>
    163c: 09 30        	ora	#$30
    163e: 80 16        	bra	$1656 <printf+0xa40>
    1640: a8           	tay
    1641: a9 80        	lda	#$80
    1643: 25 6d        	and	$6d                     ; 0x206d <end_block9+0x25>
    1645: f0 04        	beq	$164b <printf+0xa35>
    1647: a2 61        	ldx	#$61
    1649: 80 02        	bra	$164d <printf+0xa37>
    164b: a2 41        	ldx	#$41
    164d: 86 12        	stx	$12                     ; 0x2012 <midi_instruments+0xcb>
    164f: 18           	clc
    1650: 98           	tya
    1651: 65 12        	adc	$12                     ; 0x2012 <midi_instruments+0xcb>
    1653: 18           	clc
    1654: 69 f6        	adc	#$f6
    1656: a4 71        	ldy	$71                     ; 0x2071 <end_block9+0x29>
    1658: a6 72        	ldx	$72                     ; 0x2072 <end_block9+0x2a>
    165a: e4 70        	cpx	$70                     ; 0x2070 <end_block9+0x28>
    165c: d0 0c        	bne	$166a <printf+0xa54>
    165e: 86 14        	stx	$14                     ; 0x2014 <midi_instruments+0xcd>
    1660: a6 6f        	ldx	$6f                     ; 0x206f <end_block9+0x27>
    1662: 86 12        	stx	$12                     ; 0x2012 <midi_instruments+0xcb>
    1664: c4 12        	cpy	$12                     ; 0x2012 <midi_instruments+0xcb>
    1666: 90 08        	bcc	$1670 <printf+0xa5a>
    1668: 80 27        	bra	$1691 <printf+0xa7b>
    166a: 86 14        	stx	$14                     ; 0x2014 <midi_instruments+0xcd>
    166c: e4 70        	cpx	$70                     ; 0x2070 <end_block9+0x28>
    166e: b0 21        	bcs	$1691 <printf+0xa7b>
    1670: a6 7c        	ldx	$7c                     ; 0x207c <end_block9+0x34>
    1672: e4 41        	cpx	$41                     ; 0x2041 <midi_instruments+0xfa>
    1674: d0 18        	bne	$168e <printf+0xa78>
    1676: a6 7b        	ldx	$7b                     ; 0x207b <end_block9+0x33>
    1678: e4 40        	cpx	$40                     ; 0x2040 <midi_instruments+0xf9>
    167a: d0 12        	bne	$168e <printf+0xa78>
    167c: 18           	clc
    167d: aa           	tax
    167e: 98           	tya
    167f: 65 75        	adc	$75                     ; 0x2075 <end_block9+0x2d>
    1681: 85 12        	sta	$12                     ; 0x2012 <midi_instruments+0xcb>
    1683: a5 14        	lda	$14                     ; 0x2014 <midi_instruments+0xcd>
    1685: 65 76        	adc	$76                     ; 0x2076 <end_block9+0x2e>
    1687: 85 13        	sta	$13                     ; 0x2013 <midi_instruments+0xcc>
    1689: 8a           	txa
    168a: 92 12        	sta	($12)                   ; 0x2012 <midi_instruments+0xcb>
    168c: 80 03        	bra	$1691 <printf+0xa7b>
    168e: 20 79 08     	jsr	$879 <__putchar>
    1691: e6 71        	inc	$71                     ; 0x2071 <end_block9+0x29>
    1693: d0 02        	bne	$1697 <printf+0xa81>
    1695: e6 72        	inc	$72                     ; 0x2072 <end_block9+0x2a>
    1697: a9 01        	lda	#$1
    1699: 25 6d        	and	$6d                     ; 0x206d <end_block9+0x25>
    169b: 29 01        	and	#$1
    169d: d0 1e        	bne	$16bd <printf+0xaa7>
    169f: a6 71        	ldx	$71                     ; 0x2071 <end_block9+0x29>
    16a1: 86 14        	stx	$14                     ; 0x2014 <midi_instruments+0xcd>
    16a3: a5 72        	lda	$72                     ; 0x2072 <end_block9+0x2a>
    16a5: a4 6f        	ldy	$6f                     ; 0x206f <end_block9+0x27>
    16a7: a6 70        	ldx	$70                     ; 0x2070 <end_block9+0x28>
    16a9: 86 12        	stx	$12                     ; 0x2012 <midi_instruments+0xcb>
    16ab: 86 13        	stx	$13                     ; 0x2013 <midi_instruments+0xcc>
    16ad: c5 12        	cmp	$12                     ; 0x2012 <midi_instruments+0xcb>
    16af: f0 03        	beq	$16b4 <printf+0xa9e>
    16b1: 4c 40 17     	jmp	$1740 <printf+0xb2a>
    16b4: 84 12        	sty	$12                     ; 0x2012 <midi_instruments+0xcb>
    16b6: a6 14        	ldx	$14                     ; 0x2014 <midi_instruments+0xcd>
    16b8: e4 12        	cpx	$12                     ; 0x2012 <midi_instruments+0xcb>
    16ba: 4c 44 17     	jmp	$1744 <printf+0xb2e>
    16bd: a6 71        	ldx	$71                     ; 0x2071 <end_block9+0x29>
    16bf: 86 14        	stx	$14                     ; 0x2014 <midi_instruments+0xcd>
    16c1: a5 72        	lda	$72                     ; 0x2072 <end_block9+0x2a>
    16c3: a6 47        	ldx	$47                     ; 0x2047 <kernelError>
    16c5: a4 46        	ldy	$46                     ; 0x2046 <midi_instruments+0xff>
    16c7: f0 03        	beq	$16cc <printf+0xab6>
    16c9: 4c 2c 17     	jmp	$172c <printf+0xb16>
    16cc: e0 00        	cpx	#$0
    16ce: f0 d5        	beq	$16a5 <printf+0xa8f>
    16d0: 4c 2c 17     	jmp	$172c <printf+0xb16>
    16d3: c5 70        	cmp	$70                     ; 0x2070 <end_block9+0x28>
    16d5: b0 24        	bcs	$16fb <printf+0xae5>
    16d7: a6 7c        	ldx	$7c                     ; 0x207c <end_block9+0x34>
    16d9: e4 41        	cpx	$41                     ; 0x2041 <midi_instruments+0xfa>
    16db: d0 19        	bne	$16f6 <printf+0xae0>
    16dd: a6 7b        	ldx	$7b                     ; 0x207b <end_block9+0x33>
    16df: e4 40        	cpx	$40                     ; 0x2040 <midi_instruments+0xf9>
    16e1: d0 13        	bne	$16f6 <printf+0xae0>
    16e3: 18           	clc
    16e4: aa           	tax
    16e5: a5 14        	lda	$14                     ; 0x2014 <midi_instruments+0xcd>
    16e7: 65 75        	adc	$75                     ; 0x2075 <end_block9+0x2d>
    16e9: 85 12        	sta	$12                     ; 0x2012 <midi_instruments+0xcb>
    16eb: 8a           	txa
    16ec: 65 76        	adc	$76                     ; 0x2076 <end_block9+0x2e>
    16ee: 85 13        	sta	$13                     ; 0x2013 <midi_instruments+0xcc>
    16f0: a9 20        	lda	#$20
    16f2: 92 12        	sta	($12)                   ; 0x2012 <midi_instruments+0xcb>
    16f4: 80 05        	bra	$16fb <printf+0xae5>
    16f6: a9 20        	lda	#$20
    16f8: 20 79 08     	jsr	$879 <__putchar>
    16fb: a6 71        	ldx	$71                     ; 0x2071 <end_block9+0x29>
    16fd: a5 72        	lda	$72                     ; 0x2072 <end_block9+0x2a>
    16ff: e8           	inx
    1700: d0 01        	bne	$1703 <printf+0xaed>
    1702: 1a           	inc
    1703: 86 14        	stx	$14                     ; 0x2014 <midi_instruments+0xcd>
    1705: 86 71        	stx	$71                     ; 0x2071 <end_block9+0x29>
    1707: 85 72        	sta	$72                     ; 0x2072 <end_block9+0x2a>
    1709: a6 47        	ldx	$47                     ; 0x2047 <kernelError>
    170b: 86 12        	stx	$12                     ; 0x2012 <midi_instruments+0xcb>
    170d: a6 46        	ldx	$46                     ; 0x2046 <midi_instruments+0xff>
    170f: 86 13        	stx	$13                     ; 0x2013 <midi_instruments+0xcc>
    1711: a2 ff        	ldx	#$ff
    1713: c6 12        	dec	$12                     ; 0x2012 <midi_instruments+0xcb>
    1715: e4 12        	cpx	$12                     ; 0x2012 <midi_instruments+0xcb>
    1717: d0 02        	bne	$171b <printf+0xb05>
    1719: c6 13        	dec	$13                     ; 0x2013 <midi_instruments+0xcc>
    171b: a6 12        	ldx	$12                     ; 0x2012 <midi_instruments+0xcb>
    171d: 86 47        	stx	$47                     ; 0x2047 <kernelError>
    171f: a6 13        	ldx	$13                     ; 0x2013 <midi_instruments+0xcc>
    1721: 86 46        	stx	$46                     ; 0x2046 <midi_instruments+0xff>
    1723: d0 07        	bne	$172c <printf+0xb16>
    1725: a6 12        	ldx	$12                     ; 0x2012 <midi_instruments+0xcb>
    1727: d0 03        	bne	$172c <printf+0xb16>
    1729: 4c a5 16     	jmp	$16a5 <printf+0xa8f>
    172c: c5 70        	cmp	$70                     ; 0x2070 <end_block9+0x28>
    172e: f0 03        	beq	$1733 <printf+0xb1d>
    1730: 4c d3 16     	jmp	$16d3 <printf+0xabd>
    1733: a6 6f        	ldx	$6f                     ; 0x206f <end_block9+0x27>
    1735: 86 12        	stx	$12                     ; 0x2012 <midi_instruments+0xcb>
    1737: a6 14        	ldx	$14                     ; 0x2014 <midi_instruments+0xcd>
    1739: e4 12        	cpx	$12                     ; 0x2012 <midi_instruments+0xcb>
    173b: b0 be        	bcs	$16fb <printf+0xae5>
    173d: 4c d7 16     	jmp	$16d7 <printf+0xac1>
    1740: 86 12        	stx	$12                     ; 0x2012 <midi_instruments+0xcb>
    1742: c5 12        	cmp	$12                     ; 0x2012 <midi_instruments+0xcb>
    1744: 98           	tya
    1745: a0 01        	ldy	#$1
    1747: 90 20        	bcc	$1769 <printf+0xb53>
    1749: a6 13        	ldx	$13                     ; 0x2013 <midi_instruments+0xcc>
    174b: d0 03        	bne	$1750 <printf+0xb3a>
    174d: aa           	tax
    174e: f0 19        	beq	$1769 <printf+0xb53>
    1750: 18           	clc
    1751: 65 75        	adc	$75                     ; 0x2075 <end_block9+0x2d>
    1753: 85 12        	sta	$12                     ; 0x2012 <midi_instruments+0xcb>
    1755: a5 13        	lda	$13                     ; 0x2013 <midi_instruments+0xcc>
    1757: 65 76        	adc	$76                     ; 0x2076 <end_block9+0x2e>
    1759: 85 13        	sta	$13                     ; 0x2013 <midi_instruments+0xcc>
    175b: a2 ff        	ldx	#$ff
    175d: c6 12        	dec	$12                     ; 0x2012 <midi_instruments+0xcb>
    175f: e4 12        	cpx	$12                     ; 0x2012 <midi_instruments+0xcb>
    1761: d0 02        	bne	$1765 <printf+0xb4f>
    1763: c6 13        	dec	$13                     ; 0x2013 <midi_instruments+0xcc>
    1765: a9 00        	lda	#$0
    1767: 92 12        	sta	($12)                   ; 0x2012 <midi_instruments+0xcb>
    1769: e6 3e        	inc	$3e                     ; 0x203e <midi_instruments+0xf7>
    176b: d0 02        	bne	$176f <printf+0xb59>
    176d: e6 3f        	inc	$3f                     ; 0x203f <midi_instruments+0xf8>
    176f: a6 3f        	ldx	$3f                     ; 0x203f <midi_instruments+0xf8>
    1771: e4 43        	cpx	$43                     ; 0x2043 <midi_instruments+0xfc>
    1773: f0 03        	beq	$1778 <printf+0xb62>
    1775: 4c 7b 0c     	jmp	$c7b <printf+0x65>
    1778: a6 3e        	ldx	$3e                     ; 0x203e <midi_instruments+0xf7>
    177a: e4 42        	cpx	$42                     ; 0x2042 <midi_instruments+0xfb>
    177c: f0 03        	beq	$1781 <printf+0xb6b>
    177e: 4c 7b 0c     	jmp	$c7b <printf+0x65>
    1781: b2 42        	lda	($42)                   ; 0x2042 <midi_instruments+0xfb>
    1783: a2 00        	ldx	#$0
    1785: 86 40        	stx	$40                     ; 0x2040 <midi_instruments+0xf9>
    1787: a2 00        	ldx	#$0
    1789: 86 41        	stx	$41                     ; 0x2041 <midi_instruments+0xfa>
    178b: 4c 8f 0c     	jmp	$c8f <printf+0x79>
    178e: e4 45        	cpx	$45                     ; 0x2045 <midi_instruments+0xfe>
    1790: a6 3d        	ldx	$3d                     ; 0x203d <midi_instruments+0xf6>
    1792: b0 03        	bcs	$1797 <printf+0xb81>
    1794: 4c bb 12     	jmp	$12bb <printf+0x6a5>
    1797: a5 3c        	lda	$3c                     ; 0x203c <midi_instruments+0xf5>
    1799: 85 44        	sta	$44                     ; 0x2044 <midi_instruments+0xfd>
    179b: 64 45        	stz	$45                     ; 0x2045 <midi_instruments+0xfe>
    179d: e6 44        	inc	$44                     ; 0x2044 <midi_instruments+0xfd>
    179f: f0 03        	beq	$17a4 <printf+0xb8e>
    17a1: 4c bb 12     	jmp	$12bb <printf+0x6a5>
    17a4: e6 45        	inc	$45                     ; 0x2045 <midi_instruments+0xfe>
    17a6: 4c bb 12     	jmp	$12bb <printf+0x6a5>
    17a9: a2 58        	ldx	#$58
    17ab: 86 86        	stx	$86                     ; 0x2086 <end_block9+0x3e>
    17ad: a2 01        	ldx	#$1
    17af: 86 81        	stx	$81                     ; 0x2081 <end_block9+0x39>
    17b1: a2 30        	ldx	#$30
    17b3: 86 83        	stx	$83                     ; 0x2083 <end_block9+0x3b>
    17b5: a9 02        	lda	#$2
    17b7: a2 00        	ldx	#$0
    17b9: 86 82        	stx	$82                     ; 0x2082 <end_block9+0x3a>
    17bb: 4c fc 12     	jmp	$12fc <printf+0x6e6>
    17be: 64 47        	stz	$47                     ; 0x2047 <kernelError>
    17c0: 64 46        	stz	$46                     ; 0x2046 <midi_instruments+0xff>
    17c2: 4c 20 15     	jmp	$1520 <printf+0x90a>
    17c5: 60           	rts

000017c6 <memcpy>:
    17c6: a8           	tay
    17c7: 8a           	txa
    17c8: d0 03        	bne	$17cd <memcpy+0x7>
    17ca: 98           	tya
    17cb: f0 24        	beq	$17f1 <memcpy+0x2b>
    17cd: a5 12        	lda	$12                     ; 0x2012 <midi_instruments+0xcb>
    17cf: 85 16        	sta	$16                     ; 0x2016 <midi_instruments+0xcf>
    17d1: a5 13        	lda	$13                     ; 0x2013 <midi_instruments+0xcc>
    17d3: 85 17        	sta	$17                     ; 0x2017 <midi_instruments+0xd0>
    17d5: b2 14        	lda	($14)                   ; 0x2014 <midi_instruments+0xcd>
    17d7: 92 16        	sta	($16)                   ; 0x2016 <midi_instruments+0xcf>
    17d9: e6 16        	inc	$16                     ; 0x2016 <midi_instruments+0xcf>
    17db: d0 02        	bne	$17df <memcpy+0x19>
    17dd: e6 17        	inc	$17                     ; 0x2017 <midi_instruments+0xd0>
    17df: e6 14        	inc	$14                     ; 0x2014 <midi_instruments+0xcd>
    17e1: d0 02        	bne	$17e5 <memcpy+0x1f>
    17e3: e6 15        	inc	$15                     ; 0x2015 <midi_instruments+0xce>
    17e5: 88           	dey
    17e6: c0 ff        	cpy	#$ff
    17e8: d0 01        	bne	$17eb <memcpy+0x25>
    17ea: ca           	dex
    17eb: 8a           	txa
    17ec: d0 e7        	bne	$17d5 <memcpy+0xf>
    17ee: 98           	tya
    17ef: d0 e4        	bne	$17d5 <memcpy+0xf>
    17f1: 60           	rts

000017f2 <__memset>:
    17f2: a4 14        	ldy	$14                     ; 0x2014 <midi_instruments+0xcd>
    17f4: d0 04        	bne	$17fa <__memset+0x8>
    17f6: e0 00        	cpx	#$0
    17f8: f0 17        	beq	$1811 <__memset+0x1f>
    17fa: 92 12        	sta	($12)                   ; 0x2012 <midi_instruments+0xcb>
    17fc: e6 12        	inc	$12                     ; 0x2012 <midi_instruments+0xcb>
    17fe: d0 02        	bne	$1802 <__memset+0x10>
    1800: e6 13        	inc	$13                     ; 0x2013 <midi_instruments+0xcc>
    1802: ca           	dex
    1803: e0 ff        	cpx	#$ff
    1805: d0 02        	bne	$1809 <__memset+0x17>
    1807: c6 14        	dec	$14                     ; 0x2014 <midi_instruments+0xcd>
    1809: a4 14        	ldy	$14                     ; 0x2014 <midi_instruments+0xcd>
    180b: d0 ed        	bne	$17fa <__memset+0x8>
    180d: e0 00        	cpx	#$0
    180f: d0 e9        	bne	$17fa <__memset+0x8>
    1811: 60           	rts
