
multiRead.elf:	file format elf32-mos

SYMBOL TABLE:
00000000 l    df *ABS*	00000000 zero-bss.c
00000000 l    df *ABS*	00000000 zero-zp-bss.c
00000000 l    df *ABS*	00000000 copy-zp-data.c
00000000 l    df *ABS*	00000000 ld-temp.o
0000007a l     O .zp.bss	00000007 kernelEventData
00000030 l     O .zp.data	00000030 textColors
00000060 l     O .zp.bss	00000001 _col
00000061 l     O .zp.bss	00000001 _row
00000062 l     O .zp.bss	00000004 _BITMAP_BASE.0
00000066 l     O .zp.bss	00000004 _BITMAP_BASE.1
0000006a l     O .zp.bss	00000004 _BITMAP_BASE.2
0000408e l     O .bss	00000001 kernelError
00000074 l     O .zp.bss	00000002 theOne.0
00003d25 l     F .text	00000032 __mulhi3
00003a2d l     F .text	000002ac malloc
00000078 l     O .zp.bss	00000002 theOne.2
00002c6d l     F .text	00000bd9 printf
00000076 l     O .zp.bss	00000002 theOne.1
00000070 l     O .zp.bss	00000004 timer0PerTick
00003d57 l     F .text	00000070 __mulsi3
00002210 l     F .text	00000879 readMIDICmd
00003dc7 l     F .text	0000016f __udivsi3
00002a8e l     F .text	000000d3 _ZN12_GLOBAL__N_13putEcP6Status
00003846 l     F .text	000001e7 putchar
00002b61 l     F .text	0000010c _ZN12_GLOBAL__N_112print_stringEPKcP6Status
0000006e l     O .zp.bss	00000002 __putchar.s
00000081 l     O .zp.bss	00000001 _ZN12_GLOBAL__N_111initializedE
00000348 l     F .text	00000135 _ZN12_GLOBAL__N_19FreeChunk6insertEPvj
00000084 l     O .zp.bss	00000002 _ZN12_GLOBAL__N_19free_listE
00000082 l     O .zp.bss	00000002 _ZN12_GLOBAL__N_19free_sizeE
000004ba g     F .text	00001d56 main
00010000 g       .music	00000000 music_start
0001cf7a g       .music	00000000 music_end
00000344 g       .text	00000000 __after_main
00000330 g       .text	00000000 __do_init_stack
0000033e g       .text	00000000 __do_copy_zp_data
000004a3 g     F .text	00000017 __copy_zp_data
00000338 g       .text	00000000 __do_zero_bss
0000047d g     F .text	00000013 __zero_bss
0000033b g       .text	00000000 __do_zero_zp_bss
00000490 g     F .text	00000013 __zero_zp_bss
00002a89 g     F .text	00000005 exit
00000347 g       .text	00000000 _fini
00003f36 g       .rodata	00000000 __set_v
00003d05  w    F .text	00000020 __memset
00001000  w      *ABS*	00000000 __heap_default_limit
00004090 g       .noinit	00000000 __heap_start
00003cd9  w    F .text	0000002c memcpy
00000010 g       *ABS*	00000000 __rc0
00000012 g       *ABS*	00000000 __rc2
00000014 g       *ABS*	00000000 __rc4
00000016 g       *ABS*	00000000 __rc6
00000018 g       *ABS*	00000000 __rc8
0000001a g       *ABS*	00000000 __rc10
0000001c g       *ABS*	00000000 __rc12
0000001e g       *ABS*	00000000 __rc14
00000020 g       *ABS*	00000000 __rc16
00000022 g       *ABS*	00000000 __rc18
00000024 g       *ABS*	00000000 __rc20
00000026 g       *ABS*	00000000 __rc22
00000028 g       *ABS*	00000000 __rc24
0000002a g       *ABS*	00000000 __rc26
0000002c g       *ABS*	00000000 __rc28
0000002e g       *ABS*	00000000 __rc30
0000002f g       *ABS*	00000000 __rc31
00000300 g       *ABS*	00000000 __f256_start
0000c000 g       *ABS*	00000000 __stack
0000c000 g       *ABS*	00000000 __SLOT_ADDR
0800c000 g       *ABS*	00000000 __block8_lma
00002000 g       *ABS*	00000000 __BLOCK_SIZE
0900c000 g       *ABS*	00000000 __block9_lma
0a00c000 g       *ABS*	00000000 __block10_lma
0b00c000 g       *ABS*	00000000 __block11_lma
0c00c000 g       *ABS*	00000000 __block12_lma
0d00c000 g       *ABS*	00000000 __block13_lma
0e00c000 g       *ABS*	00000000 __block14_lma
0f00c000 g       *ABS*	00000000 __block15_lma
1000c000 g       *ABS*	00000000 __block16_lma
1100c000 g       *ABS*	00000000 __block17_lma
1200c000 g       *ABS*	00000000 __block18_lma
1300c000 g       *ABS*	00000000 __block19_lma
1400c000 g       *ABS*	00000000 __block20_lma
1500c000 g       *ABS*	00000000 __block21_lma
1600c000 g       *ABS*	00000000 __block22_lma
1700c000 g       *ABS*	00000000 __block23_lma
00010000 g       *ABS*	00000000 __music_lma
0000cf7a g       *ABS*	00000000 __music_size
0000408e g       .bss	00000000 __bss_start
0001cf7a g       .music	00000000 end_music
00000330 g       .text	00000000 _start
0000002d g       *ABS*	00000000 __rc29
0000002b g       *ABS*	00000000 __rc27
00000029 g       *ABS*	00000000 __rc25
00000027 g       *ABS*	00000000 __rc23
00000025 g       *ABS*	00000000 __rc21
00000023 g       *ABS*	00000000 __rc19
00000021 g       *ABS*	00000000 __rc17
0000001f g       *ABS*	00000000 __rc15
0000001d g       *ABS*	00000000 __rc13
0000001b g       *ABS*	00000000 __rc11
00000019 g       *ABS*	00000000 __rc9
00000017 g       *ABS*	00000000 __rc7
00000015 g       *ABS*	00000000 __rc5
00000013 g       *ABS*	00000000 __rc3
00000011 g       *ABS*	00000000 __rc1
00000030 g       .zp.data	00000000 __zp_data_start
00000300 g       *ABS*	00000000 __zp_data_load_start
00000030 g       *ABS*	00000000 __zp_data_size
00000060 g       .zp.bss	00000000 __zp_bss_start
00000026 g       *ABS*	00000000 __zp_bss_size
00000330 g       .text	00000000 _init
00003f36 g       .text	00000000 __init_array_start
00003f36 g       .text	00000000 __init_array_end
00003f36 g       .text	00000000 __fini_array_start
00003f36 g       .text	00000000 __fini_array_end
0000408e g       .data	00000000 __data_start
0000408e g       .data	00000000 __data_end
0000408e g       *ABS*	00000000 __data_load_start
00000000 g       *ABS*	00000000 __data_size
0000408f g       .bss	00000000 __bss_end
00000001 g       *ABS*	00000000 __bss_size
0000408f g       .noinit	00000000 end_block8
0000408f g       .noinit	00000000 end_block9
0000408f g       .noinit	00000000 end_block10
0000408f g       .noinit	00000000 end_block11
0000408f g       .noinit	00000000 end_block12
0000408f g       .noinit	00000000 end_block13
0000408f g       .noinit	00000000 end_block14
0000408f g       .noinit	00000000 end_block15
0000408f g       .noinit	00000000 end_block16
0000408f g       .noinit	00000000 end_block17
0000408f g       .noinit	00000000 end_block18
0000408f g       .noinit	00000000 end_block19
0000408f g       .noinit	00000000 end_block20
0000408f g       .noinit	00000000 end_block21
0000408f g       .noinit	00000000 end_block22
0000408f g       .noinit	00000000 end_block23

Disassembly of section .text:

00000330 <_start>:
     330: a9 00        	lda	#$0
     332: 85 10        	sta	$10                     ; 0x2010 <main+0x1b56>
     334: a9 c0        	lda	#$c0
     336: 85 11        	sta	$11                     ; 0x2011 <main+0x1b57>

00000338 <__do_zero_bss>:
     338: 20 7d 04     	jsr	$47d <__zero_bss>

0000033b <__do_zero_zp_bss>:
     33b: 20 90 04     	jsr	$490 <__zero_zp_bss>

0000033e <__do_copy_zp_data>:
     33e: 20 a3 04     	jsr	$4a3 <__copy_zp_data>
     341: 20 ba 04     	jsr	$4ba <main>

00000344 <__after_main>:
     344: 4c 89 2a     	jmp	$2a89 <exit>

00000347 <_fini>:
     347: 60           	rts

00000348 <_ZN12_GLOBAL__N_19FreeChunk6insertEPvj>:
     348: 85 16        	sta	$16                     ; 0x2016 <main+0x1b5c>
     34a: 29 fe        	and	#$fe
     34c: 85 14        	sta	$14                     ; 0x2014 <main+0x1b5a>
     34e: a0 01        	ldy	#$1
     350: 98           	tya
     351: 32 12        	and	($12)                   ; 0x2012 <main+0x1b58>
     353: 05 14        	ora	$14                     ; 0x2014 <main+0x1b5a>
     355: 92 12        	sta	($12)                   ; 0x2012 <main+0x1b58>
     357: a5 12        	lda	$12                     ; 0x2012 <main+0x1b58>
     359: 18           	clc
     35a: 65 14        	adc	$14                     ; 0x2014 <main+0x1b5a>
     35c: 85 15        	sta	$15                     ; 0x2015 <main+0x1b5b>
     35e: 8a           	txa
     35f: 65 13        	adc	$13                     ; 0x2013 <main+0x1b59>
     361: 85 14        	sta	$14                     ; 0x2014 <main+0x1b5a>
     363: 18           	clc
     364: a5 15        	lda	$15                     ; 0x2015 <main+0x1b5b>
     366: 69 fe        	adc	#$fe
     368: 85 17        	sta	$17                     ; 0x2017 <main+0x1b5d>
     36a: a5 14        	lda	$14                     ; 0x2014 <main+0x1b5a>
     36c: 69 ff        	adc	#$ff
     36e: 85 15        	sta	$15                     ; 0x2015 <main+0x1b5b>
     370: a5 17        	lda	$17                     ; 0x2017 <main+0x1b5d>
     372: 85 14        	sta	$14                     ; 0x2014 <main+0x1b5a>
     374: 8a           	txa
     375: 91 12        	sta	($12),y                 ; 0x2012 <main+0x1b58>
     377: a5 16        	lda	$16                     ; 0x2016 <main+0x1b5c>
     379: 92 14        	sta	($14)                   ; 0x2014 <main+0x1b5a>
     37b: 8a           	txa
     37c: 91 14        	sta	($14),y                 ; 0x2014 <main+0x1b5a>
     37e: b1 12        	lda	($12),y                 ; 0x2012 <main+0x1b58>
     380: 85 14        	sta	$14                     ; 0x2014 <main+0x1b5a>
     382: a9 fe        	lda	#$fe
     384: 32 12        	and	($12)                   ; 0x2012 <main+0x1b58>
     386: 18           	clc
     387: 65 82        	adc	$82                     ; 0x2082 <main+0x1bc8>
     389: aa           	tax
     38a: a5 14        	lda	$14                     ; 0x2014 <main+0x1b5a>
     38c: 65 83        	adc	$83                     ; 0x2083 <main+0x1bc9>
     38e: a8           	tay
     38f: 18           	clc
     390: 8a           	txa
     391: 69 fe        	adc	#$fe
     393: aa           	tax
     394: 98           	tya
     395: 69 ff        	adc	#$ff
     397: 86 82        	stx	$82                     ; 0x2082 <main+0x1bc8>
     399: 85 83        	sta	$83                     ; 0x2083 <main+0x1bc9>
     39b: a6 84        	ldx	$84                     ; 0x2084 <main+0x1bca>
     39d: 86 16        	stx	$16                     ; 0x2016 <main+0x1b5c>
     39f: a4 85        	ldy	$85                     ; 0x2085 <main+0x1bcb>
     3a1: a2 00        	ldx	#$0
     3a3: 86 14        	stx	$14                     ; 0x2014 <main+0x1b5a>
     3a5: a2 00        	ldx	#$0
     3a7: 86 15        	stx	$15                     ; 0x2015 <main+0x1b5b>
     3a9: c4 15        	cpy	$15                     ; 0x2015 <main+0x1b5b>
     3ab: d0 3c        	bne	$3e9 <_ZN12_GLOBAL__N_19FreeChunk6insertEPvj+0xa1>
     3ad: a6 16        	ldx	$16                     ; 0x2016 <main+0x1b5c>
     3af: e4 14        	cpx	$14                     ; 0x2014 <main+0x1b5a>
     3b1: d0 36        	bne	$3e9 <_ZN12_GLOBAL__N_19FreeChunk6insertEPvj+0xa1>
     3b3: a0 04        	ldy	#$4
     3b5: a5 12        	lda	$12                     ; 0x2012 <main+0x1b58>
     3b7: 18           	clc
     3b8: 69 04        	adc	#$4
     3ba: 85 14        	sta	$14                     ; 0x2014 <main+0x1b5a>
     3bc: a5 13        	lda	$13                     ; 0x2013 <main+0x1b59>
     3be: 69 00        	adc	#$0
     3c0: 18           	clc
     3c1: 85 15        	sta	$15                     ; 0x2015 <main+0x1b5b>
     3c3: a5 12        	lda	$12                     ; 0x2012 <main+0x1b58>
     3c5: 91 12        	sta	($12),y                 ; 0x2012 <main+0x1b58>
     3c7: a0 02        	ldy	#$2
     3c9: 85 17        	sta	$17                     ; 0x2017 <main+0x1b5d>
     3cb: 69 02        	adc	#$2
     3cd: 85 16        	sta	$16                     ; 0x2016 <main+0x1b5c>
     3cf: a5 17        	lda	$17                     ; 0x2017 <main+0x1b5d>
     3d1: 91 12        	sta	($12),y                 ; 0x2012 <main+0x1b58>
     3d3: a5 13        	lda	$13                     ; 0x2013 <main+0x1b59>
     3d5: 69 00        	adc	#$0
     3d7: 85 17        	sta	$17                     ; 0x2017 <main+0x1b5d>
     3d9: 88           	dey
     3da: a5 13        	lda	$13                     ; 0x2013 <main+0x1b59>
     3dc: 91 14        	sta	($14),y                 ; 0x2014 <main+0x1b5a>
     3de: 91 16        	sta	($16),y                 ; 0x2016 <main+0x1b5c>
     3e0: a6 12        	ldx	$12                     ; 0x2012 <main+0x1b58>
     3e2: 86 84        	stx	$84                     ; 0x2084 <main+0x1bca>
     3e4: a6 13        	ldx	$13                     ; 0x2013 <main+0x1b59>
     3e6: 86 85        	stx	$85                     ; 0x2085 <main+0x1bcb>
     3e8: 60           	rts
     3e9: a6 12        	ldx	$12                     ; 0x2012 <main+0x1b58>
     3eb: a5 12        	lda	$12                     ; 0x2012 <main+0x1b58>
     3ed: 18           	clc
     3ee: 69 02        	adc	#$2
     3f0: 85 14        	sta	$14                     ; 0x2014 <main+0x1b5a>
     3f2: 84 18        	sty	$18                     ; 0x2018 <main+0x1b5e>
     3f4: a5 13        	lda	$13                     ; 0x2013 <main+0x1b59>
     3f6: 69 00        	adc	#$0
     3f8: 85 15        	sta	$15                     ; 0x2015 <main+0x1b5b>
     3fa: a5 16        	lda	$16                     ; 0x2016 <main+0x1b5c>
     3fc: 84 17        	sty	$17                     ; 0x2017 <main+0x1b5d>
     3fe: a0 02        	ldy	#$2
     400: 91 12        	sta	($12),y                 ; 0x2012 <main+0x1b58>
     402: 85 19        	sta	$19                     ; 0x2019 <main+0x1b5f>
     404: 88           	dey
     405: a5 18        	lda	$18                     ; 0x2018 <main+0x1b5e>
     407: 91 14        	sta	($14),y                 ; 0x2014 <main+0x1b5a>
     409: 18           	clc
     40a: a5 19        	lda	$19                     ; 0x2019 <main+0x1b5f>
     40c: 69 04        	adc	#$4
     40e: a8           	tay
     40f: a5 18        	lda	$18                     ; 0x2018 <main+0x1b5e>
     411: 69 00        	adc	#$0
     413: 85 19        	sta	$19                     ; 0x2019 <main+0x1b5f>
     415: 84 18        	sty	$18                     ; 0x2018 <main+0x1b5e>
     417: 8a           	txa
     418: 18           	clc
     419: 69 04        	adc	#$4
     41b: 85 1a        	sta	$1a                     ; 0x201a <main+0x1b60>
     41d: a5 13        	lda	$13                     ; 0x2013 <main+0x1b59>
     41f: 69 00        	adc	#$0
     421: 85 1b        	sta	$1b                     ; 0x201b <main+0x1b61>
     423: a0 04        	ldy	#$4
     425: b1 16        	lda	($16),y                 ; 0x2016 <main+0x1b5c>
     427: 85 16        	sta	$16                     ; 0x2016 <main+0x1b5c>
     429: 85 1d        	sta	$1d                     ; 0x201d <main+0x1b63>
     42b: a0 01        	ldy	#$1
     42d: b1 18        	lda	($18),y                 ; 0x2018 <main+0x1b5e>
     42f: 85 17        	sta	$17                     ; 0x2017 <main+0x1b5d>
     431: 85 19        	sta	$19                     ; 0x2019 <main+0x1b5f>
     433: a0 04        	ldy	#$4
     435: a5 1d        	lda	$1d                     ; 0x201d <main+0x1b63>
     437: 91 12        	sta	($12),y                 ; 0x2012 <main+0x1b58>
     439: a5 19        	lda	$19                     ; 0x2019 <main+0x1b5f>
     43b: a0 01        	ldy	#$1
     43d: 91 1a        	sta	($1a),y                 ; 0x201a <main+0x1b60>
     43f: 18           	clc
     440: a5 1d        	lda	$1d                     ; 0x201d <main+0x1b63>
     442: 69 02        	adc	#$2
     444: 85 18        	sta	$18                     ; 0x2018 <main+0x1b5e>
     446: a5 19        	lda	$19                     ; 0x2019 <main+0x1b5f>
     448: 69 00        	adc	#$0
     44a: 85 19        	sta	$19                     ; 0x2019 <main+0x1b5f>
     44c: 8a           	txa
     44d: c8           	iny
     44e: 91 16        	sta	($16),y                 ; 0x2016 <main+0x1b5c>
     450: a5 13        	lda	$13                     ; 0x2013 <main+0x1b59>
     452: 88           	dey
     453: 91 18        	sta	($18),y                 ; 0x2018 <main+0x1b5e>
     455: c8           	iny
     456: b1 12        	lda	($12),y                 ; 0x2012 <main+0x1b58>
     458: 85 16        	sta	$16                     ; 0x2016 <main+0x1b5c>
     45a: 85 18        	sta	$18                     ; 0x2018 <main+0x1b5e>
     45c: 88           	dey
     45d: b1 14        	lda	($14),y                 ; 0x2014 <main+0x1b5a>
     45f: 85 17        	sta	$17                     ; 0x2017 <main+0x1b5d>
     461: 85 14        	sta	$14                     ; 0x2014 <main+0x1b5a>
     463: 8a           	txa
     464: a0 04        	ldy	#$4
     466: 91 16        	sta	($16),y                 ; 0x2016 <main+0x1b5c>
     468: 18           	clc
     469: a5 18        	lda	$18                     ; 0x2018 <main+0x1b5e>
     46b: 69 04        	adc	#$4
     46d: a8           	tay
     46e: a5 14        	lda	$14                     ; 0x2014 <main+0x1b5a>
     470: 69 00        	adc	#$0
     472: 84 14        	sty	$14                     ; 0x2014 <main+0x1b5a>
     474: 85 15        	sta	$15                     ; 0x2015 <main+0x1b5b>
     476: a5 13        	lda	$13                     ; 0x2013 <main+0x1b59>
     478: a0 01        	ldy	#$1
     47a: 91 14        	sta	($14),y                 ; 0x2014 <main+0x1b5a>
     47c: 60           	rts

0000047d <__zero_bss>:
     47d: a2 01        	ldx	#$1
     47f: a0 00        	ldy	#$0
     481: a9 8e        	lda	#$8e
     483: 85 12        	sta	$12                     ; 0x2012 <main+0x1b58>
     485: a9 40        	lda	#$40
     487: 85 13        	sta	$13                     ; 0x2013 <main+0x1b59>
     489: a9 00        	lda	#$0
     48b: 84 14        	sty	$14                     ; 0x2014 <main+0x1b5a>
     48d: 4c 05 3d     	jmp	$3d05 <__memset>

00000490 <__zero_zp_bss>:
     490: a2 26        	ldx	#$26
     492: a0 00        	ldy	#$0
     494: a9 60        	lda	#$60
     496: 85 12        	sta	$12                     ; 0x2012 <main+0x1b58>
     498: a9 00        	lda	#$0
     49a: 85 13        	sta	$13                     ; 0x2013 <main+0x1b59>
     49c: a9 00        	lda	#$0
     49e: 84 14        	sty	$14                     ; 0x2014 <main+0x1b5a>
     4a0: 4c 05 3d     	jmp	$3d05 <__memset>

000004a3 <__copy_zp_data>:
     4a3: a9 30        	lda	#$30
     4a5: a2 00        	ldx	#$0
     4a7: a0 30        	ldy	#$30
     4a9: 84 12        	sty	$12                     ; 0x2012 <main+0x1b58>
     4ab: a0 00        	ldy	#$0
     4ad: 84 13        	sty	$13                     ; 0x2013 <main+0x1b59>
     4af: a0 00        	ldy	#$0
     4b1: 84 14        	sty	$14                     ; 0x2014 <main+0x1b5a>
     4b3: a0 03        	ldy	#$3
     4b5: 84 15        	sty	$15                     ; 0x2015 <main+0x1b5b>
     4b7: 4c d9 3c     	jmp	$3cd9 <memcpy>

000004ba <main>:
     4ba: 18           	clc
     4bb: a5 10        	lda	$10                     ; 0x2010 <main+0x1b56>
     4bd: 69 de        	adc	#$de
     4bf: 85 10        	sta	$10                     ; 0x2010 <main+0x1b56>
     4c1: a5 11        	lda	$11                     ; 0x2011 <main+0x1b57>
     4c3: 69 ff        	adc	#$ff
     4c5: 85 11        	sta	$11                     ; 0x2011 <main+0x1b57>
     4c7: a6 24        	ldx	$24                     ; 0x2024 <main+0x1b6a>
     4c9: da           	phx
     4ca: a6 25        	ldx	$25                     ; 0x2025 <main+0x1b6b>
     4cc: da           	phx
     4cd: a6 26        	ldx	$26                     ; 0x2026 <main+0x1b6c>
     4cf: da           	phx
     4d0: a6 27        	ldx	$27                     ; 0x2027 <main+0x1b6d>
     4d2: da           	phx
     4d3: a5 28        	lda	$28                     ; 0x2028 <main+0x1b6e>
     4d5: a0 11        	ldy	#$11
     4d7: 91 10        	sta	($10),y                 ; 0x2010 <main+0x1b56>
     4d9: a5 29        	lda	$29                     ; 0x2029 <main+0x1b6f>
     4db: 88           	dey
     4dc: 91 10        	sta	($10),y                 ; 0x2010 <main+0x1b56>
     4de: a5 2a        	lda	$2a                     ; 0x202a <main+0x1b70>
     4e0: 88           	dey
     4e1: 91 10        	sta	($10),y                 ; 0x2010 <main+0x1b56>
     4e3: a5 2b        	lda	$2b                     ; 0x202b <main+0x1b71>
     4e5: 88           	dey
     4e6: 91 10        	sta	($10),y                 ; 0x2010 <main+0x1b56>
     4e8: a5 2c        	lda	$2c                     ; 0x202c <main+0x1b72>
     4ea: 88           	dey
     4eb: 91 10        	sta	($10),y                 ; 0x2010 <main+0x1b56>
     4ed: a5 2d        	lda	$2d                     ; 0x202d <main+0x1b73>
     4ef: 88           	dey
     4f0: 91 10        	sta	($10),y                 ; 0x2010 <main+0x1b56>
     4f2: a5 2e        	lda	$2e                     ; 0x202e <main+0x1b74>
     4f4: 88           	dey
     4f5: 91 10        	sta	($10),y                 ; 0x2010 <main+0x1b56>
     4f7: a5 2f        	lda	$2f                     ; 0x202f <main+0x1b75>
     4f9: 88           	dey
     4fa: 91 10        	sta	($10),y                 ; 0x2010 <main+0x1b56>
     4fc: 64 1c        	stz	$1c                     ; 0x201c <main+0x1b62>
     4fe: a2 00        	ldx	#$0
     500: 86 1a        	stx	$1a                     ; 0x201a <main+0x1b60>
     502: a2 d0        	ldx	#$d0
     504: 86 1b        	stx	$1b                     ; 0x201b <main+0x1b61>
     506: a2 00        	ldx	#$0
     508: 86 16        	stx	$16                     ; 0x2016 <main+0x1b5c>
     50a: a2 d8        	ldx	#$d8
     50c: 86 17        	stx	$17                     ; 0x2017 <main+0x1b5d>
     50e: a2 00        	ldx	#$0
     510: 86 18        	stx	$18                     ; 0x2018 <main+0x1b5e>
     512: a2 d4        	ldx	#$d4
     514: 86 19        	stx	$19                     ; 0x2019 <main+0x1b5f>
     516: a2 00        	ldx	#$0
     518: 86 14        	stx	$14                     ; 0x2014 <main+0x1b5a>
     51a: a2 dc        	ldx	#$dc
     51c: 86 15        	stx	$15                     ; 0x2015 <main+0x1b5b>
     51e: a2 00        	ldx	#$0
     520: 86 12        	stx	$12                     ; 0x2012 <main+0x1b58>
     522: a2 c0        	ldx	#$c0
     524: 86 13        	stx	$13                     ; 0x2013 <main+0x1b59>
     526: 64 01        	stz	$1                      ; 0x2001 <main+0x1b47>
     528: a2 3f        	ldx	#$3f
     52a: 8e 00 d0     	stx	$d000                   ; 0xd000 <__heap_start+0x8f70>
     52d: a2 b3        	ldx	#$b3
     52f: 86 00        	stx	$0                      ; 0x2000 <main+0x1b46>
     531: 64 08        	stz	$8                      ; 0x2008 <main+0x1b4e>
     533: a2 01        	ldx	#$1
     535: 86 09        	stx	$9                      ; 0x2009 <main+0x1b4f>
     537: e8           	inx
     538: 86 0a        	stx	$a                      ; 0x200a <main+0x1b50>
     53a: e8           	inx
     53b: 86 0b        	stx	$b                      ; 0x200b <main+0x1b51>
     53d: e8           	inx
     53e: 86 0c        	stx	$c                      ; 0x200c <main+0x1b52>
     540: e8           	inx
     541: 86 0d        	stx	$d                      ; 0x200d <main+0x1b53>
     543: a2 7a        	ldx	#$7a
     545: a9 00        	lda	#$0
     547: 86 f0        	stx	$f0                     ; 0x20f0 <main+0x1c36>
     549: 85 f1        	sta	$f1                     ; 0x20f1 <main+0x1c37>
     54b: a6 01        	ldx	$1                      ; 0x2001 <main+0x1b47>
     54d: a0 01        	ldy	#$1
     54f: 84 01        	sty	$1                      ; 0x2001 <main+0x1b47>
     551: a5 1c        	lda	$1c                     ; 0x201c <main+0x1b62>
     553: 92 1a        	sta	($1a)                   ; 0x201a <main+0x1b60>
     555: 91 1a        	sta	($1a),y                 ; 0x201a <main+0x1b60>
     557: c8           	iny
     558: 91 1a        	sta	($1a),y                 ; 0x201a <main+0x1b60>
     55a: c8           	iny
     55b: a9 ff        	lda	#$ff
     55d: 91 1a        	sta	($1a),y                 ; 0x201a <main+0x1b60>
     55f: 86 01        	stx	$1                      ; 0x2001 <main+0x1b47>
     561: a5 1a        	lda	$1a                     ; 0x201a <main+0x1b60>
     563: 18           	clc
     564: 69 04        	adc	#$4
     566: 85 1a        	sta	$1a                     ; 0x201a <main+0x1b60>
     568: a5 1b        	lda	$1b                     ; 0x201b <main+0x1b61>
     56a: 69 00        	adc	#$0
     56c: e6 1c        	inc	$1c                     ; 0x201c <main+0x1b62>
     56e: 85 1b        	sta	$1b                     ; 0x201b <main+0x1b61>
     570: d0 d9        	bne	$54b <main+0x91>
     572: a9 00        	lda	#$0
     574: a6 01        	ldx	$1                      ; 0x2001 <main+0x1b47>
     576: a0 01        	ldy	#$1
     578: 84 01        	sty	$1                      ; 0x2001 <main+0x1b47>
     57a: 92 18        	sta	($18)                   ; 0x2018 <main+0x1b5e>
     57c: 91 18        	sta	($18),y                 ; 0x2018 <main+0x1b5e>
     57e: c8           	iny
     57f: 91 18        	sta	($18),y                 ; 0x2018 <main+0x1b5e>
     581: c8           	iny
     582: 85 1a        	sta	$1a                     ; 0x201a <main+0x1b60>
     584: a9 ff        	lda	#$ff
     586: 91 18        	sta	($18),y                 ; 0x2018 <main+0x1b5e>
     588: 86 01        	stx	$1                      ; 0x2001 <main+0x1b47>
     58a: a5 18        	lda	$18                     ; 0x2018 <main+0x1b5e>
     58c: 18           	clc
     58d: 69 04        	adc	#$4
     58f: 85 18        	sta	$18                     ; 0x2018 <main+0x1b5e>
     591: a5 19        	lda	$19                     ; 0x2019 <main+0x1b5f>
     593: 69 00        	adc	#$0
     595: e6 1a        	inc	$1a                     ; 0x201a <main+0x1b60>
     597: 85 19        	sta	$19                     ; 0x2019 <main+0x1b5f>
     599: a5 1a        	lda	$1a                     ; 0x201a <main+0x1b60>
     59b: d0 d7        	bne	$574 <main+0xba>
     59d: a9 00        	lda	#$0
     59f: a6 01        	ldx	$1                      ; 0x2001 <main+0x1b47>
     5a1: a0 01        	ldy	#$1
     5a3: 84 01        	sty	$1                      ; 0x2001 <main+0x1b47>
     5a5: 92 16        	sta	($16)                   ; 0x2016 <main+0x1b5c>
     5a7: 91 16        	sta	($16),y                 ; 0x2016 <main+0x1b5c>
     5a9: c8           	iny
     5aa: 91 16        	sta	($16),y                 ; 0x2016 <main+0x1b5c>
     5ac: c8           	iny
     5ad: 85 18        	sta	$18                     ; 0x2018 <main+0x1b5e>
     5af: a9 ff        	lda	#$ff
     5b1: 91 16        	sta	($16),y                 ; 0x2016 <main+0x1b5c>
     5b3: 86 01        	stx	$1                      ; 0x2001 <main+0x1b47>
     5b5: a5 16        	lda	$16                     ; 0x2016 <main+0x1b5c>
     5b7: 18           	clc
     5b8: 69 04        	adc	#$4
     5ba: 85 16        	sta	$16                     ; 0x2016 <main+0x1b5c>
     5bc: a5 17        	lda	$17                     ; 0x2017 <main+0x1b5d>
     5be: 69 00        	adc	#$0
     5c0: e6 18        	inc	$18                     ; 0x2018 <main+0x1b5e>
     5c2: 85 17        	sta	$17                     ; 0x2017 <main+0x1b5d>
     5c4: a5 18        	lda	$18                     ; 0x2018 <main+0x1b5e>
     5c6: d0 d7        	bne	$59f <main+0xe5>
     5c8: a9 00        	lda	#$0
     5ca: a6 01        	ldx	$1                      ; 0x2001 <main+0x1b47>
     5cc: a0 01        	ldy	#$1
     5ce: 84 01        	sty	$1                      ; 0x2001 <main+0x1b47>
     5d0: 92 14        	sta	($14)                   ; 0x2014 <main+0x1b5a>
     5d2: 91 14        	sta	($14),y                 ; 0x2014 <main+0x1b5a>
     5d4: c8           	iny
     5d5: 91 14        	sta	($14),y                 ; 0x2014 <main+0x1b5a>
     5d7: c8           	iny
     5d8: 85 16        	sta	$16                     ; 0x2016 <main+0x1b5c>
     5da: a9 ff        	lda	#$ff
     5dc: 91 14        	sta	($14),y                 ; 0x2014 <main+0x1b5a>
     5de: 86 01        	stx	$1                      ; 0x2001 <main+0x1b47>
     5e0: a5 14        	lda	$14                     ; 0x2014 <main+0x1b5a>
     5e2: 18           	clc
     5e3: 69 04        	adc	#$4
     5e5: 85 14        	sta	$14                     ; 0x2014 <main+0x1b5a>
     5e7: a5 15        	lda	$15                     ; 0x2015 <main+0x1b5b>
     5e9: 69 00        	adc	#$0
     5eb: e6 16        	inc	$16                     ; 0x2016 <main+0x1b5c>
     5ed: 85 15        	sta	$15                     ; 0x2015 <main+0x1b5b>
     5ef: a5 16        	lda	$16                     ; 0x2016 <main+0x1b5c>
     5f1: d0 d7        	bne	$5ca <main+0x110>
     5f3: ad 02 d0     	lda	$d002                   ; 0xd002 <__heap_start+0x8f72>
     5f6: 29 f0        	and	#$f0
     5f8: 8d 02 d0     	sta	$d002                   ; 0xd002 <__heap_start+0x8f72>
     5fb: ad 02 d0     	lda	$d002                   ; 0xd002 <__heap_start+0x8f72>
     5fe: 29 0f        	and	#$f
     600: 09 10        	ora	#$10
     602: 8d 02 d0     	sta	$d002                   ; 0xd002 <__heap_start+0x8f72>
     605: a2 02        	ldx	#$2
     607: 8e 03 d0     	stx	$d003                   ; 0xd003 <__heap_start+0x8f73>
     60a: ad 01 d0     	lda	$d001                   ; 0xd001 <__heap_start+0x8f71>
     60d: 29 f9        	and	#$f9
     60f: 09 04        	ora	#$4
     611: 8d 01 d0     	sta	$d001                   ; 0xd001 <__heap_start+0x8f71>
     614: 64 14        	stz	$14                     ; 0x2014 <main+0x1b5a>
     616: 9c 10 d0     	stz	$d010                   ; 0xd010 <__heap_start+0x8f80>
     619: a2 00        	ldx	#$0
     61b: 64 15        	stz	$15                     ; 0x2015 <main+0x1b5b>
     61d: 86 18        	stx	$18                     ; 0x2018 <main+0x1b5e>
     61f: a4 18        	ldy	$18                     ; 0x2018 <main+0x1b5e>
     621: b6 30        	ldx	$30,y                   ; 0x2030 <main+0x1b76>
     623: 86 19        	stx	$19                     ; 0x2019 <main+0x1b5f>
     625: b6 31        	ldx	$31,y                   ; 0x2031 <main+0x1b77>
     627: 86 1a        	stx	$1a                     ; 0x201a <main+0x1b60>
     629: b6 32        	ldx	$32,y                   ; 0x2032 <main+0x1b78>
     62b: 86 1b        	stx	$1b                     ; 0x201b <main+0x1b61>
     62d: a6 15        	ldx	$15                     ; 0x2015 <main+0x1b5b>
     62f: 8e 00 de     	stx	$de00                   ; 0xde00 <__heap_start+0x9d70>
     632: 86 17        	stx	$17                     ; 0x2017 <main+0x1b5d>
     634: 9c 01 de     	stz	$de01                   ; 0xde01 <__heap_start+0x9d71>
     637: a2 04        	ldx	#$4
     639: 8e 02 de     	stx	$de02                   ; 0xde02 <__heap_start+0x9d72>
     63c: 9c 03 de     	stz	$de03                   ; 0xde03 <__heap_start+0x9d73>
     63f: ad 10 de     	lda	$de10                   ; 0xde10 <__heap_start+0x9d80>
     642: ac 11 de     	ldy	$de11                   ; 0xde11 <__heap_start+0x9d81>
     645: 84 15        	sty	$15                     ; 0x2015 <main+0x1b5b>
     647: ac 12 de     	ldy	$de12                   ; 0xde12 <__heap_start+0x9d82>
     64a: ac 13 de     	ldy	$de13                   ; 0xde13 <__heap_start+0x9d83>
     64d: 18           	clc
     64e: 65 14        	adc	$14                     ; 0x2014 <main+0x1b5a>
     650: 85 16        	sta	$16                     ; 0x2016 <main+0x1b5c>
     652: a6 17        	ldx	$17                     ; 0x2017 <main+0x1b5d>
     654: a9 d8        	lda	#$d8
     656: 65 15        	adc	$15                     ; 0x2015 <main+0x1b5b>
     658: 85 17        	sta	$17                     ; 0x2017 <main+0x1b5d>
     65a: a5 1b        	lda	$1b                     ; 0x201b <main+0x1b61>
     65c: 92 16        	sta	($16)                   ; 0x2016 <main+0x1b5c>
     65e: a0 01        	ldy	#$1
     660: a5 1a        	lda	$1a                     ; 0x201a <main+0x1b60>
     662: 91 16        	sta	($16),y                 ; 0x2016 <main+0x1b5c>
     664: c8           	iny
     665: a5 19        	lda	$19                     ; 0x2019 <main+0x1b5f>
     667: 91 16        	sta	($16),y                 ; 0x2016 <main+0x1b5c>
     669: c8           	iny
     66a: a9 ff        	lda	#$ff
     66c: 91 16        	sta	($16),y                 ; 0x2016 <main+0x1b5c>
     66e: 8e 00 de     	stx	$de00                   ; 0xde00 <__heap_start+0x9d70>
     671: 9c 01 de     	stz	$de01                   ; 0xde01 <__heap_start+0x9d71>
     674: c8           	iny
     675: 8c 02 de     	sty	$de02                   ; 0xde02 <__heap_start+0x9d72>
     678: 9c 03 de     	stz	$de03                   ; 0xde03 <__heap_start+0x9d73>
     67b: ad 10 de     	lda	$de10                   ; 0xde10 <__heap_start+0x9d80>
     67e: 85 15        	sta	$15                     ; 0x2015 <main+0x1b5b>
     680: ad 11 de     	lda	$de11                   ; 0xde11 <__heap_start+0x9d81>
     683: 85 16        	sta	$16                     ; 0x2016 <main+0x1b5c>
     685: a9 40        	lda	#$40
     687: 18           	clc
     688: 65 15        	adc	$15                     ; 0x2015 <main+0x1b5b>
     68a: a8           	tay
     68b: a9 d8        	lda	#$d8
     68d: 65 16        	adc	$16                     ; 0x2016 <main+0x1b5c>
     68f: 85 17        	sta	$17                     ; 0x2017 <main+0x1b5d>
     691: 84 16        	sty	$16                     ; 0x2016 <main+0x1b5c>
     693: ad 12 de     	lda	$de12                   ; 0xde12 <__heap_start+0x9d82>
     696: ad 13 de     	lda	$de13                   ; 0xde13 <__heap_start+0x9d83>
     699: a5 1b        	lda	$1b                     ; 0x201b <main+0x1b61>
     69b: 92 16        	sta	($16)                   ; 0x2016 <main+0x1b5c>
     69d: a5 1a        	lda	$1a                     ; 0x201a <main+0x1b60>
     69f: a0 01        	ldy	#$1
     6a1: 91 16        	sta	($16),y                 ; 0x2016 <main+0x1b5c>
     6a3: a5 19        	lda	$19                     ; 0x2019 <main+0x1b5f>
     6a5: c8           	iny
     6a6: 91 16        	sta	($16),y                 ; 0x2016 <main+0x1b5c>
     6a8: c8           	iny
     6a9: a9 ff        	lda	#$ff
     6ab: 91 16        	sta	($16),y                 ; 0x2016 <main+0x1b5c>
     6ad: e8           	inx
     6ae: 86 15        	stx	$15                     ; 0x2015 <main+0x1b5b>
     6b0: 18           	clc
     6b1: a5 18        	lda	$18                     ; 0x2018 <main+0x1b5e>
     6b3: 69 03        	adc	#$3
     6b5: aa           	tax
     6b6: c9 30        	cmp	#$30
     6b8: f0 03        	beq	$6bd <main+0x203>
     6ba: 4c 1d 06     	jmp	$61d <main+0x163>
     6bd: a6 01        	ldx	$1                      ; 0x2001 <main+0x1b47>
     6bf: 86 18        	stx	$18                     ; 0x2018 <main+0x1b5e>
     6c1: a2 50        	ldx	#$50
     6c3: 8e 00 de     	stx	$de00                   ; 0xde00 <__heap_start+0x9d70>
     6c6: 9c 01 de     	stz	$de01                   ; 0xde01 <__heap_start+0x9d71>
     6c9: a2 1e        	ldx	#$1e
     6cb: 8e 02 de     	stx	$de02                   ; 0xde02 <__heap_start+0x9d72>
     6ce: 9c 03 de     	stz	$de03                   ; 0xde03 <__heap_start+0x9d73>
     6d1: ae 10 de     	ldx	$de10                   ; 0xde10 <__heap_start+0x9d80>
     6d4: ac 11 de     	ldy	$de11                   ; 0xde11 <__heap_start+0x9d81>
     6d7: ad 12 de     	lda	$de12                   ; 0xde12 <__heap_start+0x9d82>
     6da: ad 13 de     	lda	$de13                   ; 0xde13 <__heap_start+0x9d83>
     6dd: a9 02        	lda	#$2
     6df: 85 01        	sta	$1                      ; 0x2001 <main+0x1b47>
     6e1: e0 01        	cpx	#$1
     6e3: 98           	tya
     6e4: e9 00        	sbc	#$0
     6e6: 50 02        	bvc	$6ea <main+0x230>
     6e8: 49 80        	eor	#$80
     6ea: c9 00        	cmp	#$0
     6ec: 10 03        	bpl	$6f1 <main+0x237>
     6ee: 4c 48 07     	jmp	$748 <main+0x28e>
     6f1: a9 20        	lda	#$20
     6f3: 86 19        	stx	$19                     ; 0x2019 <main+0x1b5f>
     6f5: 86 14        	stx	$14                     ; 0x2014 <main+0x1b5a>
     6f7: 84 15        	sty	$15                     ; 0x2015 <main+0x1b5b>
     6f9: a2 00        	ldx	#$0
     6fb: 86 16        	stx	$16                     ; 0x2016 <main+0x1b5c>
     6fd: a2 c0        	ldx	#$c0
     6ff: 86 17        	stx	$17                     ; 0x2017 <main+0x1b5d>
     701: 80 04        	bra	$707 <main+0x24d>
     703: a6 15        	ldx	$15                     ; 0x2015 <main+0x1b5b>
     705: f0 14        	beq	$71b <main+0x261>
     707: 92 16        	sta	($16)                   ; 0x2016 <main+0x1b5c>
     709: e6 16        	inc	$16                     ; 0x2016 <main+0x1b5c>
     70b: d0 02        	bne	$70f <main+0x255>
     70d: e6 17        	inc	$17                     ; 0x2017 <main+0x1b5d>
     70f: a2 ff        	ldx	#$ff
     711: c6 14        	dec	$14                     ; 0x2014 <main+0x1b5a>
     713: e4 14        	cpx	$14                     ; 0x2014 <main+0x1b5a>
     715: d0 ec        	bne	$703 <main+0x249>
     717: c6 15        	dec	$15                     ; 0x2015 <main+0x1b5b>
     719: 80 e8        	bra	$703 <main+0x249>
     71b: a6 14        	ldx	$14                     ; 0x2014 <main+0x1b5a>
     71d: d0 e8        	bne	$707 <main+0x24d>
     71f: a2 03        	ldx	#$3
     721: 86 01        	stx	$1                      ; 0x2001 <main+0x1b47>
     723: a6 19        	ldx	$19                     ; 0x2019 <main+0x1b5f>
     725: 80 03        	bra	$72a <main+0x270>
     727: 98           	tya
     728: f0 19        	beq	$743 <main+0x289>
     72a: a9 f0        	lda	#$f0
     72c: 92 12        	sta	($12)                   ; 0x2012 <main+0x1b58>
     72e: e6 12        	inc	$12                     ; 0x2012 <main+0x1b58>
     730: f0 07        	beq	$739 <main+0x27f>
     732: ca           	dex
     733: e0 ff        	cpx	#$ff
     735: d0 f0        	bne	$727 <main+0x26d>
     737: 80 07        	bra	$740 <main+0x286>
     739: e6 13        	inc	$13                     ; 0x2013 <main+0x1b59>
     73b: ca           	dex
     73c: e0 ff        	cpx	#$ff
     73e: d0 e7        	bne	$727 <main+0x26d>
     740: 88           	dey
     741: 80 e4        	bra	$727 <main+0x26d>
     743: 8a           	txa
     744: d0 e4        	bne	$72a <main+0x270>
     746: 80 04        	bra	$74c <main+0x292>
     748: a2 03        	ldx	#$3
     74a: 86 01        	stx	$1                      ; 0x2001 <main+0x1b47>
     74c: a6 18        	ldx	$18                     ; 0x2018 <main+0x1b5e>
     74e: 86 01        	stx	$1                      ; 0x2001 <main+0x1b47>
     750: 64 60        	stz	$60                     ; 0x2060 <main+0x1ba6>
     752: 9c 14 d0     	stz	$d014                   ; 0xd014 <__heap_start+0x8f84>
     755: 9c 15 d0     	stz	$d015                   ; 0xd015 <__heap_start+0x8f85>
     758: 64 61        	stz	$61                     ; 0x2061 <main+0x1ba7>
     75a: 9c 16 d0     	stz	$d016                   ; 0xd016 <__heap_start+0x8f86>
     75d: 9c 17 d0     	stz	$d017                   ; 0xd017 <__heap_start+0x8f87>
     760: a2 40        	ldx	#$40
     762: 8e 00 de     	stx	$de00                   ; 0xde00 <__heap_start+0x9d70>
     765: a2 01        	ldx	#$1
     767: 8e 01 de     	stx	$de01                   ; 0xde01 <__heap_start+0x9d71>
     76a: a2 f0        	ldx	#$f0
     76c: 8e 02 de     	stx	$de02                   ; 0xde02 <__heap_start+0x9d72>
     76f: 9c 03 de     	stz	$de03                   ; 0xde03 <__heap_start+0x9d73>
     772: ae 10 de     	ldx	$de10                   ; 0xde10 <__heap_start+0x9d80>
     775: 86 17        	stx	$17                     ; 0x2017 <main+0x1b5d>
     777: ae 11 de     	ldx	$de11                   ; 0xde11 <__heap_start+0x9d81>
     77a: 86 12        	stx	$12                     ; 0x2012 <main+0x1b58>
     77c: ae 12 de     	ldx	$de12                   ; 0xde12 <__heap_start+0x9d82>
     77f: 86 13        	stx	$13                     ; 0x2013 <main+0x1b59>
     781: ae 13 de     	ldx	$de13                   ; 0xde13 <__heap_start+0x9d83>
     784: 86 14        	stx	$14                     ; 0x2014 <main+0x1b5a>
     786: a4 12        	ldy	$12                     ; 0x2012 <main+0x1b58>
     788: 84 15        	sty	$15                     ; 0x2015 <main+0x1b5b>
     78a: 06 15        	asl	$15                     ; 0x2015 <main+0x1b5b>
     78c: a5 13        	lda	$13                     ; 0x2013 <main+0x1b59>
     78e: 2a           	rol
     78f: 86 16        	stx	$16                     ; 0x2016 <main+0x1b5c>
     791: 26 16        	rol	$16                     ; 0x2016 <main+0x1b5c>
     793: 06 15        	asl	$15                     ; 0x2015 <main+0x1b5b>
     795: 2a           	rol
     796: 26 16        	rol	$16                     ; 0x2016 <main+0x1b5c>
     798: 06 15        	asl	$15                     ; 0x2015 <main+0x1b5b>
     79a: 2a           	rol
     79b: 26 16        	rol	$16                     ; 0x2016 <main+0x1b5c>
     79d: 85 15        	sta	$15                     ; 0x2015 <main+0x1b5b>
     79f: 8d 00 de     	sta	$de00                   ; 0xde00 <__heap_start+0x9d70>
     7a2: a5 16        	lda	$16                     ; 0x2016 <main+0x1b5c>
     7a4: 8d 01 de     	sta	$de01                   ; 0xde01 <__heap_start+0x9d71>
     7a7: 9c 02 de     	stz	$de02                   ; 0xde02 <__heap_start+0x9d72>
     7aa: a2 20        	ldx	#$20
     7ac: 8e 03 de     	stx	$de03                   ; 0xde03 <__heap_start+0x9d73>
     7af: ae 10 de     	ldx	$de10                   ; 0xde10 <__heap_start+0x9d80>
     7b2: 86 16        	stx	$16                     ; 0x2016 <main+0x1b5c>
     7b4: ae 11 de     	ldx	$de11                   ; 0xde11 <__heap_start+0x9d81>
     7b7: 86 18        	stx	$18                     ; 0x2018 <main+0x1b5e>
     7b9: ac 12 de     	ldy	$de12                   ; 0xde12 <__heap_start+0x9d82>
     7bc: ae 13 de     	ldx	$de13                   ; 0xde13 <__heap_start+0x9d83>
     7bf: e4 14        	cpx	$14                     ; 0x2014 <main+0x1b5a>
     7c1: d0 14        	bne	$7d7 <main+0x31d>
     7c3: c4 13        	cpy	$13                     ; 0x2013 <main+0x1b59>
     7c5: d0 10        	bne	$7d7 <main+0x31d>
     7c7: a6 18        	ldx	$18                     ; 0x2018 <main+0x1b5e>
     7c9: e4 12        	cpx	$12                     ; 0x2012 <main+0x1b58>
     7cb: d0 0a        	bne	$7d7 <main+0x31d>
     7cd: a6 16        	ldx	$16                     ; 0x2016 <main+0x1b5c>
     7cf: e4 17        	cpx	$17                     ; 0x2017 <main+0x1b5d>
     7d1: d0 04        	bne	$7d7 <main+0x31d>
     7d3: a6 15        	ldx	$15                     ; 0x2015 <main+0x1b5b>
     7d5: 80 06        	bra	$7dd <main+0x323>
     7d7: a6 15        	ldx	$15                     ; 0x2015 <main+0x1b5b>
     7d9: e8           	inx
     7da: d0 01        	bne	$7dd <main+0x323>
     7dc: 1a           	inc
     7dd: 8e 00 de     	stx	$de00                   ; 0xde00 <__heap_start+0x9d70>
     7e0: 8d 01 de     	sta	$de01                   ; 0xde01 <__heap_start+0x9d71>
     7e3: 9c 02 de     	stz	$de02                   ; 0xde02 <__heap_start+0x9d72>
     7e6: a2 20        	ldx	#$20
     7e8: 8e 03 de     	stx	$de03                   ; 0xde03 <__heap_start+0x9d73>
     7eb: ae 10 de     	ldx	$de10                   ; 0xde10 <__heap_start+0x9d80>
     7ee: 86 12        	stx	$12                     ; 0x2012 <main+0x1b58>
     7f0: ae 11 de     	ldx	$de11                   ; 0xde11 <__heap_start+0x9d81>
     7f3: 86 13        	stx	$13                     ; 0x2013 <main+0x1b59>
     7f5: ae 12 de     	ldx	$de12                   ; 0xde12 <__heap_start+0x9d82>
     7f8: 86 14        	stx	$14                     ; 0x2014 <main+0x1b5a>
     7fa: ae 13 de     	ldx	$de13                   ; 0xde13 <__heap_start+0x9d83>
     7fd: 86 15        	stx	$15                     ; 0x2015 <main+0x1b5b>
     7ff: a9 00        	lda	#$0
     801: 38           	sec
     802: e5 12        	sbc	$12                     ; 0x2012 <main+0x1b58>
     804: 85 19        	sta	$19                     ; 0x2019 <main+0x1b5f>
     806: a9 00        	lda	#$0
     808: e5 13        	sbc	$13                     ; 0x2013 <main+0x1b59>
     80a: aa           	tax
     80b: a9 08        	lda	#$8
     80d: e5 14        	sbc	$14                     ; 0x2014 <main+0x1b5a>
     80f: 85 16        	sta	$16                     ; 0x2016 <main+0x1b5c>
     811: a9 00        	lda	#$0
     813: e5 15        	sbc	$15                     ; 0x2015 <main+0x1b5b>
     815: 86 63        	stx	$63                     ; 0x2063 <main+0x1ba9>
     817: a4 16        	ldy	$16                     ; 0x2016 <main+0x1b5c>
     819: 84 64        	sty	$64                     ; 0x2064 <main+0x1baa>
     81b: 85 65        	sta	$65                     ; 0x2065 <main+0x1bab>
     81d: a8           	tay
     81e: 38           	sec
     81f: a5 19        	lda	$19                     ; 0x2019 <main+0x1b5f>
     821: e5 12        	sbc	$12                     ; 0x2012 <main+0x1b58>
     823: 85 18        	sta	$18                     ; 0x2018 <main+0x1b5e>
     825: 8a           	txa
     826: e5 13        	sbc	$13                     ; 0x2013 <main+0x1b59>
     828: 85 1a        	sta	$1a                     ; 0x201a <main+0x1b60>
     82a: a5 16        	lda	$16                     ; 0x2016 <main+0x1b5c>
     82c: e5 14        	sbc	$14                     ; 0x2014 <main+0x1b5a>
     82e: 85 16        	sta	$16                     ; 0x2016 <main+0x1b5c>
     830: 98           	tya
     831: e5 15        	sbc	$15                     ; 0x2015 <main+0x1b5b>
     833: 85 17        	sta	$17                     ; 0x2017 <main+0x1b5d>
     835: 38           	sec
     836: a4 18        	ldy	$18                     ; 0x2018 <main+0x1b5e>
     838: 84 66        	sty	$66                     ; 0x2066 <main+0x1bac>
     83a: a6 1a        	ldx	$1a                     ; 0x201a <main+0x1b60>
     83c: 86 67        	stx	$67                     ; 0x2067 <main+0x1bad>
     83e: a4 16        	ldy	$16                     ; 0x2016 <main+0x1b5c>
     840: 84 68        	sty	$68                     ; 0x2068 <main+0x1bae>
     842: 85 69        	sta	$69                     ; 0x2069 <main+0x1baf>
     844: a5 18        	lda	$18                     ; 0x2018 <main+0x1b5e>
     846: e5 12        	sbc	$12                     ; 0x2012 <main+0x1b58>
     848: 85 18        	sta	$18                     ; 0x2018 <main+0x1b5e>
     84a: a5 1a        	lda	$1a                     ; 0x201a <main+0x1b60>
     84c: e5 13        	sbc	$13                     ; 0x2013 <main+0x1b59>
     84e: a8           	tay
     84f: a5 16        	lda	$16                     ; 0x2016 <main+0x1b5c>
     851: e5 14        	sbc	$14                     ; 0x2014 <main+0x1b5a>
     853: 85 12        	sta	$12                     ; 0x2012 <main+0x1b58>
     855: a5 17        	lda	$17                     ; 0x2017 <main+0x1b5d>
     857: e5 15        	sbc	$15                     ; 0x2015 <main+0x1b5b>
     859: a6 18        	ldx	$18                     ; 0x2018 <main+0x1b5e>
     85b: 86 6a        	stx	$6a                     ; 0x206a <main+0x1bb0>
     85d: 84 6b        	sty	$6b                     ; 0x206b <main+0x1bb1>
     85f: a6 19        	ldx	$19                     ; 0x2019 <main+0x1b5f>
     861: 86 62        	stx	$62                     ; 0x2062 <main+0x1ba8>
     863: a4 12        	ldy	$12                     ; 0x2012 <main+0x1b58>
     865: 84 6c        	sty	$6c                     ; 0x206c <main+0x1bb2>
     867: 85 6d        	sta	$6d                     ; 0x206d <main+0x1bb3>
     869: 8e 01 d1     	stx	$d101                   ; 0xd101 <__heap_start+0x9071>
     86c: a6 63        	ldx	$63                     ; 0x2063 <main+0x1ba9>
     86e: 8e 02 d1     	stx	$d102                   ; 0xd102 <__heap_start+0x9072>
     871: a6 64        	ldx	$64                     ; 0x2064 <main+0x1baa>
     873: 8e 03 d1     	stx	$d103                   ; 0xd103 <__heap_start+0x9073>
     876: a6 66        	ldx	$66                     ; 0x2066 <main+0x1bac>
     878: 8e 09 d1     	stx	$d109                   ; 0xd109 <__heap_start+0x9079>
     87b: a6 67        	ldx	$67                     ; 0x2067 <main+0x1bad>
     87d: 8e 0a d1     	stx	$d10a                   ; 0xd10a <__heap_start+0x907a>
     880: a6 68        	ldx	$68                     ; 0x2068 <main+0x1bae>
     882: 8e 0b d1     	stx	$d10b                   ; 0xd10b <__heap_start+0x907b>
     885: a6 6a        	ldx	$6a                     ; 0x206a <main+0x1bb0>
     887: 8e 11 d1     	stx	$d111                   ; 0xd111 <__heap_start+0x9081>
     88a: a6 6b        	ldx	$6b                     ; 0x206b <main+0x1bb1>
     88c: 8e 12 d1     	stx	$d112                   ; 0xd112 <__heap_start+0x9082>
     88f: a6 6c        	ldx	$6c                     ; 0x206c <main+0x1bb2>
     891: 8e 13 d1     	stx	$d113                   ; 0xd113 <__heap_start+0x9083>
     894: 9c 00 d1     	stz	$d100                   ; 0xd100 <__heap_start+0x9070>
     897: 9c 08 d1     	stz	$d108                   ; 0xd108 <__heap_start+0x9078>
     89a: 9c 10 d1     	stz	$d110                   ; 0xd110 <__heap_start+0x9080>
     89d: a2 10        	ldx	#$10
     89f: 8e 00 d2     	stx	$d200                   ; 0xd200 <__heap_start+0x9170>
     8a2: 8e 0c d2     	stx	$d20c                   ; 0xd20c <__heap_start+0x917c>
     8a5: 8e 18 d2     	stx	$d218                   ; 0xd218 <__heap_start+0x9188>
     8a8: a0 d9        	ldy	#$d9
     8aa: a2 40        	ldx	#$40
     8ac: 64 12        	stz	$12                     ; 0x2012 <main+0x1b58>
     8ae: 84 13        	sty	$13                     ; 0x2013 <main+0x1b59>
     8b0: a9 00        	lda	#$0
     8b2: 92 12        	sta	($12)                   ; 0x2012 <main+0x1b58>
     8b4: ca           	dex
     8b5: 18           	clc
     8b6: a5 12        	lda	$12                     ; 0x2012 <main+0x1b58>
     8b8: 69 08        	adc	#$8
     8ba: 85 12        	sta	$12                     ; 0x2012 <main+0x1b58>
     8bc: 98           	tya
     8bd: 69 00        	adc	#$0
     8bf: a8           	tay
     8c0: 8a           	txa
     8c1: d0 eb        	bne	$8ae <main+0x3f4>
     8c3: 18           	clc
     8c4: a5 10        	lda	$10                     ; 0x2010 <main+0x1b56>
     8c6: 69 1a        	adc	#$1a
     8c8: 85 26        	sta	$26                     ; 0x2026 <main+0x1b6c>
     8ca: a5 11        	lda	$11                     ; 0x2011 <main+0x1b57>
     8cc: 69 00        	adc	#$0
     8ce: 85 27        	sta	$27                     ; 0x2027 <main+0x1b6d>
     8d0: a6 26        	ldx	$26                     ; 0x2026 <main+0x1b6c>
     8d2: 86 fb        	stx	$fb                     ; 0x20fb <main+0x1c41>
     8d4: 85 fc        	sta	$fc                     ; 0x20fc <main+0x1c42>
     8d6: a2 08        	ldx	#$8
     8d8: 86 fd        	stx	$fd                     ; 0x20fd <main+0x1c43>
     8da: 18           	clc
     8db: a5 10        	lda	$10                     ; 0x2010 <main+0x1b56>
     8dd: 69 19        	adc	#$19
     8df: 85 12        	sta	$12                     ; 0x2012 <main+0x1b58>
     8e1: a5 11        	lda	$11                     ; 0x2011 <main+0x1b57>
     8e3: 69 00        	adc	#$0
     8e5: 85 13        	sta	$13                     ; 0x2013 <main+0x1b59>
     8e7: a2 8e        	ldx	#$8e
     8e9: 86 14        	stx	$14                     ; 0x2014 <main+0x1b5a>
     8eb: a2 40        	ldx	#$40
     8ed: 86 15        	stx	$15                     ; 0x2015 <main+0x1b5b>
     8ef: a0 06        	ldy	#$6
     8f1: 20 dc ff     	jsr	$ffdc <__heap_start+0xbf4c>
     8f4: 92 12        	sta	($12)                   ; 0x2012 <main+0x1b58>
     8f6: a9 00        	lda	#$0
     8f8: 6a           	ror
     8f9: 85 14        	sta	$14                     ; 0x2014 <main+0x1b5a>
     8fb: b1 26        	lda	($26),y                 ; 0x2026 <main+0x1b6c>
     8fd: 85 12        	sta	$12                     ; 0x2012 <main+0x1b58>
     8ff: c8           	iny
     900: b1 26        	lda	($26),y                 ; 0x2026 <main+0x1b6c>
     902: a6 12        	ldx	$12                     ; 0x2012 <main+0x1b58>
     904: 8e 00 de     	stx	$de00                   ; 0xde00 <__heap_start+0x9d70>
     907: 9c 01 de     	stz	$de01                   ; 0xde01 <__heap_start+0x9d71>
     90a: 8d 02 de     	sta	$de02                   ; 0xde02 <__heap_start+0x9d72>
     90d: 9c 03 de     	stz	$de03                   ; 0xde03 <__heap_start+0x9d73>
     910: ae 10 de     	ldx	$de10                   ; 0xde10 <__heap_start+0x9d80>
     913: ac 11 de     	ldy	$de11                   ; 0xde11 <__heap_start+0x9d81>
     916: ad 12 de     	lda	$de12                   ; 0xde12 <__heap_start+0x9d82>
     919: ad 13 de     	lda	$de13                   ; 0xde13 <__heap_start+0x9d83>
     91c: 8e a4 d6     	stx	$d6a4                   ; 0xd6a4 <__heap_start+0x9614>
     91f: 8c a5 d6     	sty	$d6a5                   ; 0xd6a5 <__heap_start+0x9615>
     922: a2 03        	ldx	#$3
     924: 8e a6 d6     	stx	$d6a6                   ; 0xd6a6 <__heap_start+0x9616>
     927: a4 0f        	ldy	$f                      ; 0x200f <main+0x1b55>
     929: 78           	sei
     92a: a9 08        	lda	#$8
     92c: 85 0f        	sta	$f                      ; 0x200f <main+0x1b55>
     92e: ae 0a e0     	ldx	$e00a                   ; 0xe00a <__heap_start+0x9f7a>
     931: 84 0f        	sty	$f                      ; 0x200f <main+0x1b55>
     933: 58           	cli
     934: a4 0f        	ldy	$f                      ; 0x200f <main+0x1b55>
     936: 78           	sei
     937: 85 0f        	sta	$f                      ; 0x200f <main+0x1b55>
     939: ad 0b e0     	lda	$e00b                   ; 0xe00b <__heap_start+0x9f7b>
     93c: 84 0f        	sty	$f                      ; 0x200f <main+0x1b55>
     93e: 58           	cli
     93f: 85 74        	sta	$74                     ; 0x2074 <main+0x1bba>
     941: 86 75        	stx	$75                     ; 0x2075 <main+0x1bbb>
     943: a0 16        	ldy	#$16
     945: 64 13        	stz	$13                     ; 0x2013 <main+0x1b59>
     947: 84 12        	sty	$12                     ; 0x2012 <main+0x1b58>
     949: 20 25 3d     	jsr	$3d25 <__mulhi3>
     94c: 20 2d 3a     	jsr	$3a2d <malloc>
     94f: a6 12        	ldx	$12                     ; 0x2012 <main+0x1b58>
     951: a4 13        	ldy	$13                     ; 0x2013 <main+0x1b59>
     953: 86 78        	stx	$78                     ; 0x2078 <main+0x1bbe>
     955: 84 79        	sty	$79                     ; 0x2079 <main+0x1bbf>
     957: a5 74        	lda	$74                     ; 0x2074 <main+0x1bba>
     959: a6 75        	ldx	$75                     ; 0x2075 <main+0x1bbb>
     95b: 92 10        	sta	($10)                   ; 0x2010 <main+0x1b56>
     95d: a0 01        	ldy	#$1
     95f: 8a           	txa
     960: 91 10        	sta	($10),y                 ; 0x2010 <main+0x1b56>
     962: a2 37        	ldx	#$37
     964: 86 12        	stx	$12                     ; 0x2012 <main+0x1b58>
     966: a2 40        	ldx	#$40
     968: 86 13        	stx	$13                     ; 0x2013 <main+0x1b59>
     96a: 20 6d 2c     	jsr	$2c6d <printf>
     96d: a6 74        	ldx	$74                     ; 0x2074 <main+0x1bba>
     96f: 86 28        	stx	$28                     ; 0x2028 <main+0x1b6e>
     971: a6 75        	ldx	$75                     ; 0x2075 <main+0x1bbb>
     973: 86 29        	stx	$29                     ; 0x2029 <main+0x1b6f>
     975: a5 29        	lda	$29                     ; 0x2029 <main+0x1b6f>
     977: d0 07        	bne	$980 <main+0x4c6>
     979: a5 28        	lda	$28                     ; 0x2028 <main+0x1b6e>
     97b: d0 03        	bne	$980 <main+0x4c6>
     97d: 4c fc 09     	jmp	$9fc <main+0x542>
     980: a6 78        	ldx	$78                     ; 0x2078 <main+0x1bbe>
     982: a4 79        	ldy	$79                     ; 0x2079 <main+0x1bbf>
     984: 86 2a        	stx	$2a                     ; 0x202a <main+0x1b70>
     986: 84 2b        	sty	$2b                     ; 0x202b <main+0x1b71>
     988: a9 00        	lda	#$0
     98a: aa           	tax
     98b: 86 2f        	stx	$2f                     ; 0x202f <main+0x1b75>
     98d: 85 2e        	sta	$2e                     ; 0x202e <main+0x1b74>
     98f: a6 2a        	ldx	$2a                     ; 0x202a <main+0x1b70>
     991: 86 24        	stx	$24                     ; 0x2024 <main+0x1b6a>
     993: a6 2b        	ldx	$2b                     ; 0x202b <main+0x1b71>
     995: 86 25        	stx	$25                     ; 0x2025 <main+0x1b6b>
     997: a6 28        	ldx	$28                     ; 0x2028 <main+0x1b6e>
     999: 86 2c        	stx	$2c                     ; 0x202c <main+0x1b72>
     99b: a6 29        	ldx	$29                     ; 0x2029 <main+0x1b6f>
     99d: 86 2d        	stx	$2d                     ; 0x202d <main+0x1b73>
     99f: 80 06        	bra	$9a7 <main+0x4ed>
     9a1: 85 25        	sta	$25                     ; 0x2025 <main+0x1b6b>
     9a3: a5 2d        	lda	$2d                     ; 0x202d <main+0x1b73>
     9a5: f0 32        	beq	$9d9 <main+0x51f>
     9a7: a6 24        	ldx	$24                     ; 0x2024 <main+0x1b6a>
     9a9: 86 12        	stx	$12                     ; 0x2012 <main+0x1b58>
     9ab: a6 25        	ldx	$25                     ; 0x2025 <main+0x1b6b>
     9ad: 86 13        	stx	$13                     ; 0x2013 <main+0x1b59>
     9af: 64 14        	stz	$14                     ; 0x2014 <main+0x1b5a>
     9b1: a9 00        	lda	#$0
     9b3: a2 14        	ldx	#$14
     9b5: 20 05 3d     	jsr	$3d05 <__memset>
     9b8: a0 14        	ldy	#$14
     9ba: a9 01        	lda	#$1
     9bc: 91 24        	sta	($24),y                 ; 0x2024 <main+0x1b6a>
     9be: c8           	iny
     9bf: 3a           	dec
     9c0: 91 24        	sta	($24),y                 ; 0x2024 <main+0x1b6a>
     9c2: a5 24        	lda	$24                     ; 0x2024 <main+0x1b6a>
     9c4: 18           	clc
     9c5: 69 16        	adc	#$16
     9c7: 85 24        	sta	$24                     ; 0x2024 <main+0x1b6a>
     9c9: a5 25        	lda	$25                     ; 0x2025 <main+0x1b6b>
     9cb: 69 00        	adc	#$0
     9cd: a2 ff        	ldx	#$ff
     9cf: c6 2c        	dec	$2c                     ; 0x202c <main+0x1b72>
     9d1: e4 2c        	cpx	$2c                     ; 0x202c <main+0x1b72>
     9d3: d0 cc        	bne	$9a1 <main+0x4e7>
     9d5: c6 2d        	dec	$2d                     ; 0x202d <main+0x1b73>
     9d7: 80 c8        	bra	$9a1 <main+0x4e7>
     9d9: a5 2c        	lda	$2c                     ; 0x202c <main+0x1b72>
     9db: d0 ca        	bne	$9a7 <main+0x4ed>
     9dd: a6 2f        	ldx	$2f                     ; 0x202f <main+0x1b75>
     9df: a4 2e        	ldy	$2e                     ; 0x202e <main+0x1b74>
     9e1: c8           	iny
     9e2: f0 08        	beq	$9ec <main+0x532>
     9e4: 98           	tya
     9e5: e4 29        	cpx	$29                     ; 0x2029 <main+0x1b6f>
     9e7: f0 0c        	beq	$9f5 <main+0x53b>
     9e9: 4c 8b 09     	jmp	$98b <main+0x4d1>
     9ec: e8           	inx
     9ed: 98           	tya
     9ee: e4 29        	cpx	$29                     ; 0x2029 <main+0x1b6f>
     9f0: f0 03        	beq	$9f5 <main+0x53b>
     9f2: 4c 8b 09     	jmp	$98b <main+0x4d1>
     9f5: c5 28        	cmp	$28                     ; 0x2028 <main+0x1b6e>
     9f7: f0 03        	beq	$9fc <main+0x542>
     9f9: 4c 8b 09     	jmp	$98b <main+0x4d1>
     9fc: a4 0f        	ldy	$f                      ; 0x200f <main+0x1b55>
     9fe: 78           	sei
     9ff: a9 08        	lda	#$8
     a01: 85 0f        	sta	$f                      ; 0x200f <main+0x1b55>
     a03: ae 0c e0     	ldx	$e00c                   ; 0xe00c <__heap_start+0x9f7c>
     a06: 84 0f        	sty	$f                      ; 0x200f <main+0x1b55>
     a08: 58           	cli
     a09: a4 0f        	ldy	$f                      ; 0x200f <main+0x1b55>
     a0b: 78           	sei
     a0c: 85 0f        	sta	$f                      ; 0x200f <main+0x1b55>
     a0e: ad 0d e0     	lda	$e00d                   ; 0xe00d <__heap_start+0x9f7d>
     a11: 84 0f        	sty	$f                      ; 0x200f <main+0x1b55>
     a13: 58           	cli
     a14: 85 76        	sta	$76                     ; 0x2076 <main+0x1bbc>
     a16: 86 77        	stx	$77                     ; 0x2077 <main+0x1bbd>
     a18: a6 74        	ldx	$74                     ; 0x2074 <main+0x1bba>
     a1a: a4 75        	ldy	$75                     ; 0x2075 <main+0x1bbb>
     a1c: d0 06        	bne	$a24 <main+0x56a>
     a1e: 8a           	txa
     a1f: d0 03        	bne	$a24 <main+0x56a>
     a21: 4c 25 1c     	jmp	$1c25 <main+0x176b>
     a24: a0 0e        	ldy	#$e
     a26: a2 08        	ldx	#$8
     a28: 64 2d        	stz	$2d                     ; 0x202d <main+0x1b73>
     a2a: 86 2e        	stx	$2e                     ; 0x202e <main+0x1b74>
     a2c: 64 13        	stz	$13                     ; 0x2013 <main+0x1b59>
     a2e: 64 18        	stz	$18                     ; 0x2018 <main+0x1b5e>
     a30: 64 28        	stz	$28                     ; 0x2028 <main+0x1b6e>
     a32: 64 15        	stz	$15                     ; 0x2015 <main+0x1b5b>
     a34: 64 16        	stz	$16                     ; 0x2016 <main+0x1b5c>
     a36: 98           	tya
     a37: 18           	clc
     a38: 69 00        	adc	#$0
     a3a: a5 13        	lda	$13                     ; 0x2013 <main+0x1b59>
     a3c: a6 13        	ldx	$13                     ; 0x2013 <main+0x1b59>
     a3e: 86 1a        	stx	$1a                     ; 0x201a <main+0x1b60>
     a40: 69 00        	adc	#$0
     a42: 85 12        	sta	$12                     ; 0x2012 <main+0x1b58>
     a44: a6 18        	ldx	$18                     ; 0x2018 <main+0x1b5e>
     a46: 86 2c        	stx	$2c                     ; 0x202c <main+0x1b72>
     a48: a5 18        	lda	$18                     ; 0x2018 <main+0x1b5e>
     a4a: 69 01        	adc	#$1
     a4c: a6 0f        	ldx	$f                      ; 0x200f <main+0x1b55>
     a4e: 78           	sei
     a4f: 06 12        	asl	$12                     ; 0x2012 <main+0x1b58>
     a51: 2a           	rol
     a52: 06 12        	asl	$12                     ; 0x2012 <main+0x1b58>
     a54: 2a           	rol
     a55: 06 12        	asl	$12                     ; 0x2012 <main+0x1b58>
     a57: 2a           	rol
     a58: 85 0f        	sta	$f                      ; 0x200f <main+0x1b55>
     a5a: a5 13        	lda	$13                     ; 0x2013 <main+0x1b59>
     a5c: 09 e0        	ora	#$e0
     a5e: 84 12        	sty	$12                     ; 0x2012 <main+0x1b58>
     a60: 85 13        	sta	$13                     ; 0x2013 <main+0x1b59>
     a62: b2 12        	lda	($12)                   ; 0x2012 <main+0x1b58>
     a64: 86 0f        	stx	$f                      ; 0x200f <main+0x1b55>
     a66: 58           	cli
     a67: 98           	tya
     a68: 18           	clc
     a69: 69 01        	adc	#$1
     a6b: 85 13        	sta	$13                     ; 0x2013 <main+0x1b59>
     a6d: a5 1a        	lda	$1a                     ; 0x201a <main+0x1b60>
     a6f: 69 00        	adc	#$0
     a71: 85 18        	sta	$18                     ; 0x2018 <main+0x1b5e>
     a73: a5 2c        	lda	$2c                     ; 0x202c <main+0x1b72>
     a75: 69 01        	adc	#$1
     a77: a6 0f        	ldx	$f                      ; 0x200f <main+0x1b55>
     a79: 78           	sei
     a7a: 5a           	phy
     a7b: a4 18        	ldy	$18                     ; 0x2018 <main+0x1b5e>
     a7d: 84 12        	sty	$12                     ; 0x2012 <main+0x1b58>
     a7f: 06 12        	asl	$12                     ; 0x2012 <main+0x1b58>
     a81: 2a           	rol
     a82: 06 12        	asl	$12                     ; 0x2012 <main+0x1b58>
     a84: 2a           	rol
     a85: 06 12        	asl	$12                     ; 0x2012 <main+0x1b58>
     a87: 2a           	rol
     a88: 85 0f        	sta	$f                      ; 0x200f <main+0x1b55>
     a8a: a5 18        	lda	$18                     ; 0x2018 <main+0x1b5e>
     a8c: 09 e0        	ora	#$e0
     a8e: a4 13        	ldy	$13                     ; 0x2013 <main+0x1b59>
     a90: 84 12        	sty	$12                     ; 0x2012 <main+0x1b58>
     a92: 7a           	ply
     a93: 85 13        	sta	$13                     ; 0x2013 <main+0x1b59>
     a95: b2 12        	lda	($12)                   ; 0x2012 <main+0x1b58>
     a97: 86 0f        	stx	$f                      ; 0x200f <main+0x1b55>
     a99: 58           	cli
     a9a: 98           	tya
     a9b: 18           	clc
     a9c: 69 02        	adc	#$2
     a9e: 85 13        	sta	$13                     ; 0x2013 <main+0x1b59>
     aa0: a5 1a        	lda	$1a                     ; 0x201a <main+0x1b60>
     aa2: 69 00        	adc	#$0
     aa4: 85 18        	sta	$18                     ; 0x2018 <main+0x1b5e>
     aa6: a5 2c        	lda	$2c                     ; 0x202c <main+0x1b72>
     aa8: 69 01        	adc	#$1
     aaa: a6 0f        	ldx	$f                      ; 0x200f <main+0x1b55>
     aac: 78           	sei
     aad: 5a           	phy
     aae: a4 18        	ldy	$18                     ; 0x2018 <main+0x1b5e>
     ab0: 84 12        	sty	$12                     ; 0x2012 <main+0x1b58>
     ab2: 06 12        	asl	$12                     ; 0x2012 <main+0x1b58>
     ab4: 2a           	rol
     ab5: 06 12        	asl	$12                     ; 0x2012 <main+0x1b58>
     ab7: 2a           	rol
     ab8: 06 12        	asl	$12                     ; 0x2012 <main+0x1b58>
     aba: 2a           	rol
     abb: 85 0f        	sta	$f                      ; 0x200f <main+0x1b55>
     abd: a5 18        	lda	$18                     ; 0x2018 <main+0x1b5e>
     abf: 09 e0        	ora	#$e0
     ac1: a4 13        	ldy	$13                     ; 0x2013 <main+0x1b59>
     ac3: 84 12        	sty	$12                     ; 0x2012 <main+0x1b58>
     ac5: 7a           	ply
     ac6: 85 13        	sta	$13                     ; 0x2013 <main+0x1b59>
     ac8: b2 12        	lda	($12)                   ; 0x2012 <main+0x1b58>
     aca: 86 0f        	stx	$f                      ; 0x200f <main+0x1b55>
     acc: 58           	cli
     acd: 98           	tya
     ace: 18           	clc
     acf: 69 03        	adc	#$3
     ad1: 85 13        	sta	$13                     ; 0x2013 <main+0x1b59>
     ad3: a5 1a        	lda	$1a                     ; 0x201a <main+0x1b60>
     ad5: 69 00        	adc	#$0
     ad7: 85 18        	sta	$18                     ; 0x2018 <main+0x1b5e>
     ad9: a5 2c        	lda	$2c                     ; 0x202c <main+0x1b72>
     adb: 69 01        	adc	#$1
     add: a6 0f        	ldx	$f                      ; 0x200f <main+0x1b55>
     adf: 78           	sei
     ae0: 5a           	phy
     ae1: a4 18        	ldy	$18                     ; 0x2018 <main+0x1b5e>
     ae3: 84 12        	sty	$12                     ; 0x2012 <main+0x1b58>
     ae5: 06 12        	asl	$12                     ; 0x2012 <main+0x1b58>
     ae7: 2a           	rol
     ae8: 06 12        	asl	$12                     ; 0x2012 <main+0x1b58>
     aea: 2a           	rol
     aeb: 06 12        	asl	$12                     ; 0x2012 <main+0x1b58>
     aed: 2a           	rol
     aee: 85 0f        	sta	$f                      ; 0x200f <main+0x1b55>
     af0: a5 18        	lda	$18                     ; 0x2018 <main+0x1b5e>
     af2: 09 e0        	ora	#$e0
     af4: a4 13        	ldy	$13                     ; 0x2013 <main+0x1b59>
     af6: 84 12        	sty	$12                     ; 0x2012 <main+0x1b58>
     af8: 7a           	ply
     af9: 85 13        	sta	$13                     ; 0x2013 <main+0x1b59>
     afb: b2 12        	lda	($12)                   ; 0x2012 <main+0x1b58>
     afd: 86 0f        	stx	$f                      ; 0x200f <main+0x1b55>
     aff: 58           	cli
     b00: 98           	tya
     b01: 18           	clc
     b02: 69 04        	adc	#$4
     b04: 85 13        	sta	$13                     ; 0x2013 <main+0x1b59>
     b06: a5 1a        	lda	$1a                     ; 0x201a <main+0x1b60>
     b08: 69 00        	adc	#$0
     b0a: 85 18        	sta	$18                     ; 0x2018 <main+0x1b5e>
     b0c: a5 2c        	lda	$2c                     ; 0x202c <main+0x1b72>
     b0e: 69 01        	adc	#$1
     b10: a6 0f        	ldx	$f                      ; 0x200f <main+0x1b55>
     b12: 78           	sei
     b13: 5a           	phy
     b14: a4 18        	ldy	$18                     ; 0x2018 <main+0x1b5e>
     b16: 84 12        	sty	$12                     ; 0x2012 <main+0x1b58>
     b18: 06 12        	asl	$12                     ; 0x2012 <main+0x1b58>
     b1a: 2a           	rol
     b1b: 06 12        	asl	$12                     ; 0x2012 <main+0x1b58>
     b1d: 2a           	rol
     b1e: 06 12        	asl	$12                     ; 0x2012 <main+0x1b58>
     b20: 2a           	rol
     b21: 85 0f        	sta	$f                      ; 0x200f <main+0x1b55>
     b23: a5 18        	lda	$18                     ; 0x2018 <main+0x1b5e>
     b25: 09 e0        	ora	#$e0
     b27: a4 13        	ldy	$13                     ; 0x2013 <main+0x1b59>
     b29: 84 12        	sty	$12                     ; 0x2012 <main+0x1b58>
     b2b: 7a           	ply
     b2c: 85 13        	sta	$13                     ; 0x2013 <main+0x1b59>
     b2e: b2 12        	lda	($12)                   ; 0x2012 <main+0x1b58>
     b30: 5a           	phy
     b31: a0 18        	ldy	#$18
     b33: 91 10        	sta	($10),y                 ; 0x2010 <main+0x1b56>
     b35: 7a           	ply
     b36: 86 0f        	stx	$f                      ; 0x200f <main+0x1b55>
     b38: 58           	cli
     b39: 98           	tya
     b3a: 18           	clc
     b3b: 69 05        	adc	#$5
     b3d: 85 13        	sta	$13                     ; 0x2013 <main+0x1b59>
     b3f: a5 1a        	lda	$1a                     ; 0x201a <main+0x1b60>
     b41: 69 00        	adc	#$0
     b43: 85 18        	sta	$18                     ; 0x2018 <main+0x1b5e>
     b45: a5 2c        	lda	$2c                     ; 0x202c <main+0x1b72>
     b47: 69 01        	adc	#$1
     b49: a6 0f        	ldx	$f                      ; 0x200f <main+0x1b55>
     b4b: 78           	sei
     b4c: 5a           	phy
     b4d: a4 18        	ldy	$18                     ; 0x2018 <main+0x1b5e>
     b4f: 84 12        	sty	$12                     ; 0x2012 <main+0x1b58>
     b51: 06 12        	asl	$12                     ; 0x2012 <main+0x1b58>
     b53: 2a           	rol
     b54: 06 12        	asl	$12                     ; 0x2012 <main+0x1b58>
     b56: 2a           	rol
     b57: 06 12        	asl	$12                     ; 0x2012 <main+0x1b58>
     b59: 2a           	rol
     b5a: 85 0f        	sta	$f                      ; 0x200f <main+0x1b55>
     b5c: a5 18        	lda	$18                     ; 0x2018 <main+0x1b5e>
     b5e: 09 e0        	ora	#$e0
     b60: a4 13        	ldy	$13                     ; 0x2013 <main+0x1b59>
     b62: 84 12        	sty	$12                     ; 0x2012 <main+0x1b58>
     b64: 7a           	ply
     b65: 85 13        	sta	$13                     ; 0x2013 <main+0x1b59>
     b67: b2 12        	lda	($12)                   ; 0x2012 <main+0x1b58>
     b69: 5a           	phy
     b6a: a0 17        	ldy	#$17
     b6c: 91 10        	sta	($10),y                 ; 0x2010 <main+0x1b56>
     b6e: 7a           	ply
     b6f: 86 0f        	stx	$f                      ; 0x200f <main+0x1b55>
     b71: 58           	cli
     b72: 98           	tya
     b73: 18           	clc
     b74: 69 06        	adc	#$6
     b76: 85 13        	sta	$13                     ; 0x2013 <main+0x1b59>
     b78: a5 1a        	lda	$1a                     ; 0x201a <main+0x1b60>
     b7a: 69 00        	adc	#$0
     b7c: 85 18        	sta	$18                     ; 0x2018 <main+0x1b5e>
     b7e: a5 2c        	lda	$2c                     ; 0x202c <main+0x1b72>
     b80: 69 01        	adc	#$1
     b82: 5a           	phy
     b83: a6 18        	ldx	$18                     ; 0x2018 <main+0x1b5e>
     b85: 86 12        	stx	$12                     ; 0x2012 <main+0x1b58>
     b87: 06 12        	asl	$12                     ; 0x2012 <main+0x1b58>
     b89: 2a           	rol
     b8a: 06 12        	asl	$12                     ; 0x2012 <main+0x1b58>
     b8c: 2a           	rol
     b8d: 06 12        	asl	$12                     ; 0x2012 <main+0x1b58>
     b8f: 2a           	rol
     b90: a6 0f        	ldx	$f                      ; 0x200f <main+0x1b55>
     b92: 78           	sei
     b93: 85 0f        	sta	$f                      ; 0x200f <main+0x1b55>
     b95: a5 18        	lda	$18                     ; 0x2018 <main+0x1b5e>
     b97: 09 e0        	ora	#$e0
     b99: a4 13        	ldy	$13                     ; 0x2013 <main+0x1b59>
     b9b: 84 12        	sty	$12                     ; 0x2012 <main+0x1b58>
     b9d: 7a           	ply
     b9e: 85 13        	sta	$13                     ; 0x2013 <main+0x1b59>
     ba0: b2 12        	lda	($12)                   ; 0x2012 <main+0x1b58>
     ba2: 5a           	phy
     ba3: a0 16        	ldy	#$16
     ba5: 91 10        	sta	($10),y                 ; 0x2010 <main+0x1b56>
     ba7: 7a           	ply
     ba8: 86 0f        	stx	$f                      ; 0x200f <main+0x1b55>
     baa: 98           	tya
     bab: 18           	clc
     bac: 69 07        	adc	#$7
     bae: 85 13        	sta	$13                     ; 0x2013 <main+0x1b59>
     bb0: a5 1a        	lda	$1a                     ; 0x201a <main+0x1b60>
     bb2: 69 00        	adc	#$0
     bb4: 85 18        	sta	$18                     ; 0x2018 <main+0x1b5e>
     bb6: a5 2c        	lda	$2c                     ; 0x202c <main+0x1b72>
     bb8: 69 01        	adc	#$1
     bba: 5a           	phy
     bbb: a6 18        	ldx	$18                     ; 0x2018 <main+0x1b5e>
     bbd: 86 12        	stx	$12                     ; 0x2012 <main+0x1b58>
     bbf: 06 12        	asl	$12                     ; 0x2012 <main+0x1b58>
     bc1: 2a           	rol
     bc2: 06 12        	asl	$12                     ; 0x2012 <main+0x1b58>
     bc4: 2a           	rol
     bc5: 06 12        	asl	$12                     ; 0x2012 <main+0x1b58>
     bc7: 2a           	rol
     bc8: 58           	cli
     bc9: a6 0f        	ldx	$f                      ; 0x200f <main+0x1b55>
     bcb: 78           	sei
     bcc: 85 0f        	sta	$f                      ; 0x200f <main+0x1b55>
     bce: a5 18        	lda	$18                     ; 0x2018 <main+0x1b5e>
     bd0: 09 e0        	ora	#$e0
     bd2: a4 13        	ldy	$13                     ; 0x2013 <main+0x1b59>
     bd4: 84 12        	sty	$12                     ; 0x2012 <main+0x1b58>
     bd6: 7a           	ply
     bd7: 85 13        	sta	$13                     ; 0x2013 <main+0x1b59>
     bd9: b2 12        	lda	($12)                   ; 0x2012 <main+0x1b58>
     bdb: 85 2f        	sta	$2f                     ; 0x202f <main+0x1b75>
     bdd: 86 0f        	stx	$f                      ; 0x200f <main+0x1b55>
     bdf: 58           	cli
     be0: a5 2e        	lda	$2e                     ; 0x202e <main+0x1b74>
     be2: 18           	clc
     be3: 65 78        	adc	$78                     ; 0x2078 <main+0x1bbe>
     be5: aa           	tax
     be6: a5 2d        	lda	$2d                     ; 0x202d <main+0x1b73>
     be8: 65 79        	adc	$79                     ; 0x2079 <main+0x1bbf>
     bea: 85 13        	sta	$13                     ; 0x2013 <main+0x1b59>
     bec: 18           	clc
     bed: 8a           	txa
     bee: 69 f8        	adc	#$f8
     bf0: 85 12        	sta	$12                     ; 0x2012 <main+0x1b58>
     bf2: a5 13        	lda	$13                     ; 0x2013 <main+0x1b59>
     bf4: 69 ff        	adc	#$ff
     bf6: 85 13        	sta	$13                     ; 0x2013 <main+0x1b59>
     bf8: 18           	clc
     bf9: 98           	tya
     bfa: 69 08        	adc	#$8
     bfc: 85 2a        	sta	$2a                     ; 0x202a <main+0x1b70>
     bfe: a5 1a        	lda	$1a                     ; 0x201a <main+0x1b60>
     c00: 69 00        	adc	#$0
     c02: a2 01        	ldx	#$1
     c04: b0 02        	bcs	$c08 <main+0x74e>
     c06: a2 00        	ldx	#$0
     c08: 86 25        	stx	$25                     ; 0x2025 <main+0x1b6b>
     c0a: 85 2b        	sta	$2b                     ; 0x202b <main+0x1b71>
     c0c: a5 2c        	lda	$2c                     ; 0x202c <main+0x1b72>
     c0e: 69 00        	adc	#$0
     c10: aa           	tax
     c11: a5 28        	lda	$28                     ; 0x2028 <main+0x1b6e>
     c13: 69 00        	adc	#$0
     c15: 85 14        	sta	$14                     ; 0x2014 <main+0x1b5a>
     c17: a5 2f        	lda	$2f                     ; 0x202f <main+0x1b75>
     c19: 92 12        	sta	($12)                   ; 0x2012 <main+0x1b58>
     c1b: a0 01        	ldy	#$1
     c1d: 5a           	phy
     c1e: a0 16        	ldy	#$16
     c20: b1 10        	lda	($10),y                 ; 0x2010 <main+0x1b56>
     c22: 7a           	ply
     c23: 91 12        	sta	($12),y                 ; 0x2012 <main+0x1b58>
     c25: a0 02        	ldy	#$2
     c27: 5a           	phy
     c28: a0 17        	ldy	#$17
     c2a: b1 10        	lda	($10),y                 ; 0x2010 <main+0x1b56>
     c2c: 7a           	ply
     c2d: 91 12        	sta	($12),y                 ; 0x2012 <main+0x1b58>
     c2f: a0 03        	ldy	#$3
     c31: 5a           	phy
     c32: a0 18        	ldy	#$18
     c34: b1 10        	lda	($10),y                 ; 0x2010 <main+0x1b56>
     c36: 7a           	ply
     c37: 91 12        	sta	($12),y                 ; 0x2012 <main+0x1b58>
     c39: a5 2a        	lda	$2a                     ; 0x202a <main+0x1b70>
     c3b: a0 13        	ldy	#$13
     c3d: 91 10        	sta	($10),y                 ; 0x2010 <main+0x1b56>
     c3f: 8a           	txa
     c40: c8           	iny
     c41: 91 10        	sta	($10),y                 ; 0x2010 <main+0x1b56>
     c43: 48           	pha
     c44: a5 14        	lda	$14                     ; 0x2014 <main+0x1b5a>
     c46: c8           	iny
     c47: 91 10        	sta	($10),y                 ; 0x2010 <main+0x1b56>
     c49: 68           	pla
     c4a: a0 04        	ldy	#$4
     c4c: 91 10        	sta	($10),y                 ; 0x2010 <main+0x1b56>
     c4e: c8           	iny
     c4f: a5 14        	lda	$14                     ; 0x2014 <main+0x1b5a>
     c51: 91 10        	sta	($10),y                 ; 0x2010 <main+0x1b56>
     c53: a5 15        	lda	$15                     ; 0x2015 <main+0x1b5b>
     c55: a0 12        	ldy	#$12
     c57: 91 10        	sta	($10),y                 ; 0x2010 <main+0x1b56>
     c59: 92 10        	sta	($10)                   ; 0x2010 <main+0x1b56>
     c5b: a5 16        	lda	$16                     ; 0x2016 <main+0x1b5c>
     c5d: a0 01        	ldy	#$1
     c5f: 91 10        	sta	($10),y                 ; 0x2010 <main+0x1b56>
     c61: 85 24        	sta	$24                     ; 0x2024 <main+0x1b6a>
     c63: a5 2a        	lda	$2a                     ; 0x202a <main+0x1b70>
     c65: c8           	iny
     c66: 91 10        	sta	($10),y                 ; 0x2010 <main+0x1b56>
     c68: a5 2b        	lda	$2b                     ; 0x202b <main+0x1b71>
     c6a: c8           	iny
     c6b: 91 10        	sta	($10),y                 ; 0x2010 <main+0x1b56>
     c6d: a0 06        	ldy	#$6
     c6f: a5 2f        	lda	$2f                     ; 0x202f <main+0x1b75>
     c71: 91 10        	sta	($10),y                 ; 0x2010 <main+0x1b56>
     c73: c8           	iny
     c74: 5a           	phy
     c75: a0 16        	ldy	#$16
     c77: b1 10        	lda	($10),y                 ; 0x2010 <main+0x1b56>
     c79: 7a           	ply
     c7a: 91 10        	sta	($10),y                 ; 0x2010 <main+0x1b56>
     c7c: a0 08        	ldy	#$8
     c7e: 5a           	phy
     c7f: a0 17        	ldy	#$17
     c81: b1 10        	lda	($10),y                 ; 0x2010 <main+0x1b56>
     c83: 7a           	ply
     c84: 91 10        	sta	($10),y                 ; 0x2010 <main+0x1b56>
     c86: a0 09        	ldy	#$9
     c88: 5a           	phy
     c89: a0 18        	ldy	#$18
     c8b: b1 10        	lda	($10),y                 ; 0x2010 <main+0x1b56>
     c8d: 7a           	ply
     c8e: 91 10        	sta	($10),y                 ; 0x2010 <main+0x1b56>
     c90: a2 45        	ldx	#$45
     c92: 86 12        	stx	$12                     ; 0x2012 <main+0x1b58>
     c94: a2 40        	ldx	#$40
     c96: 86 13        	stx	$13                     ; 0x2013 <main+0x1b59>
     c98: 20 6d 2c     	jsr	$2c6d <printf>
     c9b: a5 2c        	lda	$2c                     ; 0x202c <main+0x1b72>
     c9d: a6 25        	ldx	$25                     ; 0x2025 <main+0x1b6b>
     c9f: e0 01        	cpx	#$1
     ca1: 69 01        	adc	#$1
     ca3: 85 14        	sta	$14                     ; 0x2014 <main+0x1b5a>
     ca5: a5 28        	lda	$28                     ; 0x2028 <main+0x1b6e>
     ca7: 69 00        	adc	#$0
     ca9: 85 15        	sta	$15                     ; 0x2015 <main+0x1b5b>
     cab: a5 2e        	lda	$2e                     ; 0x202e <main+0x1b74>
     cad: 18           	clc
     cae: 65 78        	adc	$78                     ; 0x2078 <main+0x1bbe>
     cb0: 85 12        	sta	$12                     ; 0x2012 <main+0x1b58>
     cb2: a5 2d        	lda	$2d                     ; 0x202d <main+0x1b73>
     cb4: 65 79        	adc	$79                     ; 0x2079 <main+0x1bbf>
     cb6: 85 13        	sta	$13                     ; 0x2013 <main+0x1b59>
     cb8: a5 2a        	lda	$2a                     ; 0x202a <main+0x1b70>
     cba: 92 12        	sta	($12)                   ; 0x2012 <main+0x1b58>
     cbc: a5 2b        	lda	$2b                     ; 0x202b <main+0x1b71>
     cbe: a0 01        	ldy	#$1
     cc0: 91 12        	sta	($12),y                 ; 0x2012 <main+0x1b58>
     cc2: a5 14        	lda	$14                     ; 0x2014 <main+0x1b5a>
     cc4: c8           	iny
     cc5: 91 12        	sta	($12),y                 ; 0x2012 <main+0x1b58>
     cc7: a5 15        	lda	$15                     ; 0x2015 <main+0x1b5b>
     cc9: c8           	iny
     cca: 91 12        	sta	($12),y                 ; 0x2012 <main+0x1b58>
     ccc: a5 2f        	lda	$2f                     ; 0x202f <main+0x1b75>
     cce: 18           	clc
     ccf: 48           	pha
     cd0: a0 13        	ldy	#$13
     cd2: b1 10        	lda	($10),y                 ; 0x2010 <main+0x1b56>
     cd4: 85 12        	sta	$12                     ; 0x2012 <main+0x1b58>
     cd6: 68           	pla
     cd7: 65 12        	adc	$12                     ; 0x2012 <main+0x1b58>
     cd9: a8           	tay
     cda: 5a           	phy
     cdb: a0 16        	ldy	#$16
     cdd: b1 10        	lda	($10),y                 ; 0x2010 <main+0x1b56>
     cdf: 65 2b        	adc	$2b                     ; 0x202b <main+0x1b71>
     ce1: 85 13        	sta	$13                     ; 0x2013 <main+0x1b59>
     ce3: c8           	iny
     ce4: b1 10        	lda	($10),y                 ; 0x2010 <main+0x1b56>
     ce6: 48           	pha
     ce7: a0 14        	ldy	#$14
     ce9: b1 10        	lda	($10),y                 ; 0x2010 <main+0x1b56>
     ceb: 85 12        	sta	$12                     ; 0x2012 <main+0x1b58>
     ced: 68           	pla
     cee: 65 12        	adc	$12                     ; 0x2012 <main+0x1b58>
     cf0: 85 18        	sta	$18                     ; 0x2018 <main+0x1b5e>
     cf2: a0 18        	ldy	#$18
     cf4: b1 10        	lda	($10),y                 ; 0x2010 <main+0x1b56>
     cf6: 48           	pha
     cf7: a0 15        	ldy	#$15
     cf9: b1 10        	lda	($10),y                 ; 0x2010 <main+0x1b56>
     cfb: 85 12        	sta	$12                     ; 0x2012 <main+0x1b58>
     cfd: 68           	pla
     cfe: 65 12        	adc	$12                     ; 0x2012 <main+0x1b58>
     d00: 85 28        	sta	$28                     ; 0x2028 <main+0x1b6e>
     d02: a0 12        	ldy	#$12
     d04: b1 10        	lda	($10),y                 ; 0x2010 <main+0x1b56>
     d06: 7a           	ply
     d07: 85 15        	sta	$15                     ; 0x2015 <main+0x1b5b>
     d09: e6 15        	inc	$15                     ; 0x2015 <main+0x1b5b>
     d0b: d0 02        	bne	$d0f <main+0x855>
     d0d: e6 24        	inc	$24                     ; 0x2024 <main+0x1b6a>
     d0f: a6 74        	ldx	$74                     ; 0x2074 <main+0x1bba>
     d11: 86 12        	stx	$12                     ; 0x2012 <main+0x1b58>
     d13: 18           	clc
     d14: a5 2e        	lda	$2e                     ; 0x202e <main+0x1b74>
     d16: 69 16        	adc	#$16
     d18: 85 2e        	sta	$2e                     ; 0x202e <main+0x1b74>
     d1a: a5 2d        	lda	$2d                     ; 0x202d <main+0x1b73>
     d1c: 69 00        	adc	#$0
     d1e: 85 2d        	sta	$2d                     ; 0x202d <main+0x1b73>
     d20: a6 24        	ldx	$24                     ; 0x2024 <main+0x1b6a>
     d22: 86 16        	stx	$16                     ; 0x2016 <main+0x1b5c>
     d24: e4 75        	cpx	$75                     ; 0x2075 <main+0x1bbb>
     d26: d0 09        	bne	$d31 <main+0x877>
     d28: a6 15        	ldx	$15                     ; 0x2015 <main+0x1b5b>
     d2a: e4 12        	cpx	$12                     ; 0x2012 <main+0x1b58>
     d2c: b0 0a        	bcs	$d38 <main+0x87e>
     d2e: 4c 36 0a     	jmp	$a36 <main+0x57c>
     d31: e4 75        	cpx	$75                     ; 0x2075 <main+0x1bbb>
     d33: b0 03        	bcs	$d38 <main+0x87e>
     d35: 4c 36 0a     	jmp	$a36 <main+0x57c>
     d38: a6 75        	ldx	$75                     ; 0x2075 <main+0x1bbb>
     d3a: d0 07        	bne	$d43 <main+0x889>
     d3c: a5 12        	lda	$12                     ; 0x2012 <main+0x1b58>
     d3e: d0 03        	bne	$d43 <main+0x889>
     d40: 4c 25 1c     	jmp	$1c25 <main+0x176b>
     d43: 64 24        	stz	$24                     ; 0x2024 <main+0x1b6a>
     d45: a2 16        	ldx	#$16
     d47: 64 29        	stz	$29                     ; 0x2029 <main+0x1b6f>
     d49: a9 00        	lda	#$0
     d4b: a4 78        	ldy	$78                     ; 0x2078 <main+0x1bbe>
     d4d: 84 2a        	sty	$2a                     ; 0x202a <main+0x1b70>
     d4f: a4 79        	ldy	$79                     ; 0x2079 <main+0x1bbf>
     d51: 84 28        	sty	$28                     ; 0x2028 <main+0x1b6e>
     d53: 86 12        	stx	$12                     ; 0x2012 <main+0x1b58>
     d55: 64 13        	stz	$13                     ; 0x2013 <main+0x1b59>
     d57: aa           	tax
     d58: 85 25        	sta	$25                     ; 0x2025 <main+0x1b6b>
     d5a: a5 29        	lda	$29                     ; 0x2029 <main+0x1b6f>
     d5c: 20 25 3d     	jsr	$3d25 <__mulhi3>
     d5f: 85 12        	sta	$12                     ; 0x2012 <main+0x1b58>
     d61: 86 13        	stx	$13                     ; 0x2013 <main+0x1b59>
     d63: 18           	clc
     d64: a5 2a        	lda	$2a                     ; 0x202a <main+0x1b70>
     d66: 65 12        	adc	$12                     ; 0x2012 <main+0x1b58>
     d68: a8           	tay
     d69: a5 28        	lda	$28                     ; 0x2028 <main+0x1b6e>
     d6b: 65 13        	adc	$13                     ; 0x2013 <main+0x1b59>
     d6d: 84 16        	sty	$16                     ; 0x2016 <main+0x1b5c>
     d6f: 84 12        	sty	$12                     ; 0x2012 <main+0x1b58>
     d71: 85 17        	sta	$17                     ; 0x2017 <main+0x1b5d>
     d73: 85 13        	sta	$13                     ; 0x2013 <main+0x1b59>
     d75: a0 15        	ldy	#$15
     d77: b1 12        	lda	($12),y                 ; 0x2012 <main+0x1b58>
     d79: f0 03        	beq	$d7e <main+0x8c4>
     d7b: 4c 76 12     	jmp	$1276 <main+0xdbc>
     d7e: a5 25        	lda	$25                     ; 0x2025 <main+0x1b6b>
     d80: a0 18        	ldy	#$18
     d82: 91 10        	sta	($10),y                 ; 0x2010 <main+0x1b56>
     d84: a6 29        	ldx	$29                     ; 0x2029 <main+0x1b6f>
     d86: 86 2a        	stx	$2a                     ; 0x202a <main+0x1b70>
     d88: 18           	clc
     d89: a5 16        	lda	$16                     ; 0x2016 <main+0x1b5c>
     d8b: 69 04        	adc	#$4
     d8d: 85 14        	sta	$14                     ; 0x2014 <main+0x1b5a>
     d8f: a5 17        	lda	$17                     ; 0x2017 <main+0x1b5d>
     d91: 69 00        	adc	#$0
     d93: 85 15        	sta	$15                     ; 0x2015 <main+0x1b5b>
     d95: a0 03        	ldy	#$3
     d97: b1 14        	lda	($14),y                 ; 0x2014 <main+0x1b5a>
     d99: d1 12        	cmp	($12),y                 ; 0x2012 <main+0x1b58>
     d9b: d0 24        	bne	$dc1 <main+0x907>
     d9d: a0 02        	ldy	#$2
     d9f: b1 14        	lda	($14),y                 ; 0x2014 <main+0x1b5a>
     da1: aa           	tax
     da2: b1 12        	lda	($12),y                 ; 0x2012 <main+0x1b58>
     da4: 85 16        	sta	$16                     ; 0x2016 <main+0x1b5c>
     da6: e4 16        	cpx	$16                     ; 0x2016 <main+0x1b5c>
     da8: d0 1e        	bne	$dc8 <main+0x90e>
     daa: a0 01        	ldy	#$1
     dac: b1 14        	lda	($14),y                 ; 0x2014 <main+0x1b5a>
     dae: aa           	tax
     daf: b1 12        	lda	($12),y                 ; 0x2012 <main+0x1b58>
     db1: 85 14        	sta	$14                     ; 0x2014 <main+0x1b5a>
     db3: e4 14        	cpx	$14                     ; 0x2014 <main+0x1b5a>
     db5: d0 03        	bne	$dba <main+0x900>
     db7: 4c d3 12     	jmp	$12d3 <main+0xe19>
     dba: e4 14        	cpx	$14                     ; 0x2014 <main+0x1b5a>
     dbc: 90 11        	bcc	$dcf <main+0x915>
     dbe: 4c 6a 12     	jmp	$126a <main+0xdb0>
     dc1: d1 12        	cmp	($12),y                 ; 0x2012 <main+0x1b58>
     dc3: 90 0a        	bcc	$dcf <main+0x915>
     dc5: 4c 6a 12     	jmp	$126a <main+0xdb0>
     dc8: e4 16        	cpx	$16                     ; 0x2016 <main+0x1b5c>
     dca: 90 03        	bcc	$dcf <main+0x915>
     dcc: 4c 6a 12     	jmp	$126a <main+0xdb0>
     dcf: a5 29        	lda	$29                     ; 0x2029 <main+0x1b6f>
     dd1: 18           	clc
     dd2: 69 0f        	adc	#$f
     dd4: 64 60        	stz	$60                     ; 0x2060 <main+0x1ba6>
     dd6: 9c 14 d0     	stz	$d014                   ; 0xd014 <__heap_start+0x8f84>
     dd9: 9c 15 d0     	stz	$d015                   ; 0xd015 <__heap_start+0x8f85>
     ddc: 85 61        	sta	$61                     ; 0x2061 <main+0x1ba7>
     dde: 8d 16 d0     	sta	$d016                   ; 0xd016 <__heap_start+0x8f86>
     de1: 9c 17 d0     	stz	$d017                   ; 0xd017 <__heap_start+0x8f87>
     de4: 4c ea 0e     	jmp	$eea <main+0xa30>
     de7: 85 1d        	sta	$1d                     ; 0x201d <main+0x1b63>
     de9: a0 04        	ldy	#$4
     deb: a5 1a        	lda	$1a                     ; 0x201a <main+0x1b60>
     ded: 91 12        	sta	($12),y                 ; 0x2012 <main+0x1b58>
     def: a0 01        	ldy	#$1
     df1: a5 1b        	lda	$1b                     ; 0x201b <main+0x1b61>
     df3: 91 16        	sta	($16),y                 ; 0x2016 <main+0x1b5c>
     df5: c8           	iny
     df6: a5 1c        	lda	$1c                     ; 0x201c <main+0x1b62>
     df8: 91 16        	sta	($16),y                 ; 0x2016 <main+0x1b5c>
     dfa: c8           	iny
     dfb: a5 1d        	lda	$1d                     ; 0x201d <main+0x1b63>
     dfd: 91 16        	sta	($16),y                 ; 0x2016 <main+0x1b5c>
     dff: 18           	clc
     e00: a0 08        	ldy	#$8
     e02: a5 18        	lda	$18                     ; 0x2018 <main+0x1b5e>
     e04: 71 12        	adc	($12),y                 ; 0x2012 <main+0x1b58>
     e06: 85 16        	sta	$16                     ; 0x2016 <main+0x1b5c>
     e08: a5 19        	lda	$19                     ; 0x2019 <main+0x1b5f>
     e0a: a0 01        	ldy	#$1
     e0c: 71 14        	adc	($14),y                 ; 0x2014 <main+0x1b5a>
     e0e: 85 12        	sta	$12                     ; 0x2012 <main+0x1b58>
     e10: 8a           	txa
     e11: c8           	iny
     e12: 71 14        	adc	($14),y                 ; 0x2014 <main+0x1b5a>
     e14: 85 13        	sta	$13                     ; 0x2013 <main+0x1b59>
     e16: a5 12        	lda	$12                     ; 0x2012 <main+0x1b58>
     e18: 06 12        	asl	$12                     ; 0x2012 <main+0x1b58>
     e1a: 26 13        	rol	$13                     ; 0x2013 <main+0x1b59>
     e1c: 06 12        	asl	$12                     ; 0x2012 <main+0x1b58>
     e1e: 26 13        	rol	$13                     ; 0x2013 <main+0x1b59>
     e20: 06 12        	asl	$12                     ; 0x2012 <main+0x1b58>
     e22: 26 13        	rol	$13                     ; 0x2013 <main+0x1b59>
     e24: a4 13        	ldy	$13                     ; 0x2013 <main+0x1b59>
     e26: a6 0f        	ldx	$f                      ; 0x200f <main+0x1b55>
     e28: 78           	sei
     e29: 84 0f        	sty	$f                      ; 0x200f <main+0x1b55>
     e2b: a4 16        	ldy	$16                     ; 0x2016 <main+0x1b5c>
     e2d: 84 12        	sty	$12                     ; 0x2012 <main+0x1b58>
     e2f: 09 e0        	ora	#$e0
     e31: 85 13        	sta	$13                     ; 0x2013 <main+0x1b59>
     e33: b2 12        	lda	($12)                   ; 0x2012 <main+0x1b58>
     e35: 86 0f        	stx	$f                      ; 0x200f <main+0x1b55>
     e37: 58           	cli
     e38: aa           	tax
     e39: 10 03        	bpl	$e3e <main+0x984>
     e3b: 4c 5e 0f     	jmp	$f5e <main+0xaa4>
     e3e: 85 2d        	sta	$2d                     ; 0x202d <main+0x1b73>
     e40: 64 2e        	stz	$2e                     ; 0x202e <main+0x1b74>
     e42: 64 17        	stz	$17                     ; 0x2017 <main+0x1b5d>
     e44: a9 00        	lda	#$0
     e46: 64 2b        	stz	$2b                     ; 0x202b <main+0x1b71>
     e48: 64 25        	stz	$25                     ; 0x2025 <main+0x1b6b>
     e4a: 64 12        	stz	$12                     ; 0x2012 <main+0x1b58>
     e4c: 64 13        	stz	$13                     ; 0x2013 <main+0x1b59>
     e4e: 64 14        	stz	$14                     ; 0x2014 <main+0x1b5a>
     e50: 64 2c        	stz	$2c                     ; 0x202c <main+0x1b72>
     e52: 85 16        	sta	$16                     ; 0x2016 <main+0x1b5c>
     e54: a5 2d        	lda	$2d                     ; 0x202d <main+0x1b73>
     e56: 05 16        	ora	$16                     ; 0x2016 <main+0x1b5c>
     e58: a8           	tay
     e59: a5 2c        	lda	$2c                     ; 0x202c <main+0x1b72>
     e5b: 05 2b        	ora	$2b                     ; 0x202b <main+0x1b71>
     e5d: aa           	tax
     e5e: a5 2e        	lda	$2e                     ; 0x202e <main+0x1b74>
     e60: 05 25        	ora	$25                     ; 0x2025 <main+0x1b6b>
     e62: 85 16        	sta	$16                     ; 0x2016 <main+0x1b5c>
     e64: 98           	tya
     e65: 05 12        	ora	$12                     ; 0x2012 <main+0x1b58>
     e67: a8           	tay
     e68: 8a           	txa
     e69: 05 13        	ora	$13                     ; 0x2013 <main+0x1b59>
     e6b: 85 15        	sta	$15                     ; 0x2015 <main+0x1b5b>
     e6d: 98           	tya
     e6e: 05 14        	ora	$14                     ; 0x2014 <main+0x1b5a>
     e70: 85 14        	sta	$14                     ; 0x2014 <main+0x1b5a>
     e72: a5 70        	lda	$70                     ; 0x2070 <main+0x1bb6>
     e74: a6 71        	ldx	$71                     ; 0x2071 <main+0x1bb7>
     e76: 86 18        	stx	$18                     ; 0x2018 <main+0x1b5e>
     e78: a4 72        	ldy	$72                     ; 0x2072 <main+0x1bb8>
     e7a: a6 73        	ldx	$73                     ; 0x2073 <main+0x1bb9>
     e7c: 84 12        	sty	$12                     ; 0x2012 <main+0x1b58>
     e7e: 86 13        	stx	$13                     ; 0x2013 <main+0x1b59>
     e80: a6 18        	ldx	$18                     ; 0x2018 <main+0x1b5e>
     e82: 20 57 3d     	jsr	$3d57 <__mulsi3>
     e85: 85 25        	sta	$25                     ; 0x2025 <main+0x1b6b>
     e87: 86 28        	stx	$28                     ; 0x2028 <main+0x1b6e>
     e89: a6 12        	ldx	$12                     ; 0x2012 <main+0x1b58>
     e8b: 86 2b        	stx	$2b                     ; 0x202b <main+0x1b71>
     e8d: a6 13        	ldx	$13                     ; 0x2013 <main+0x1b59>
     e8f: 86 2c        	stx	$2c                     ; 0x202c <main+0x1b72>
     e91: a6 78        	ldx	$78                     ; 0x2078 <main+0x1bbe>
     e93: 86 2e        	stx	$2e                     ; 0x202e <main+0x1b74>
     e95: a6 79        	ldx	$79                     ; 0x2079 <main+0x1bbf>
     e97: 86 2d        	stx	$2d                     ; 0x202d <main+0x1b73>
     e99: a2 16        	ldx	#$16
     e9b: 86 12        	stx	$12                     ; 0x2012 <main+0x1b58>
     e9d: 64 13        	stz	$13                     ; 0x2013 <main+0x1b59>
     e9f: a2 00        	ldx	#$0
     ea1: a4 2a        	ldy	$2a                     ; 0x202a <main+0x1b70>
     ea3: 84 29        	sty	$29                     ; 0x2029 <main+0x1b6f>
     ea5: a5 2a        	lda	$2a                     ; 0x202a <main+0x1b70>
     ea7: 20 25 3d     	jsr	$3d25 <__mulhi3>
     eaa: 85 12        	sta	$12                     ; 0x2012 <main+0x1b58>
     eac: 86 13        	stx	$13                     ; 0x2013 <main+0x1b59>
     eae: 18           	clc
     eaf: a5 2e        	lda	$2e                     ; 0x202e <main+0x1b74>
     eb1: 65 12        	adc	$12                     ; 0x2012 <main+0x1b58>
     eb3: a8           	tay
     eb4: a5 2d        	lda	$2d                     ; 0x202d <main+0x1b73>
     eb6: 65 13        	adc	$13                     ; 0x2013 <main+0x1b59>
     eb8: aa           	tax
     eb9: 98           	tya
     eba: 84 12        	sty	$12                     ; 0x2012 <main+0x1b58>
     ebc: 86 13        	stx	$13                     ; 0x2013 <main+0x1b59>
     ebe: 18           	clc
     ebf: 69 0c        	adc	#$c
     ec1: 85 14        	sta	$14                     ; 0x2014 <main+0x1b5a>
     ec3: 8a           	txa
     ec4: 69 00        	adc	#$0
     ec6: 85 15        	sta	$15                     ; 0x2015 <main+0x1b5b>
     ec8: a0 0c        	ldy	#$c
     eca: a5 25        	lda	$25                     ; 0x2025 <main+0x1b6b>
     ecc: 91 12        	sta	($12),y                 ; 0x2012 <main+0x1b58>
     ece: a0 01        	ldy	#$1
     ed0: a5 28        	lda	$28                     ; 0x2028 <main+0x1b6e>
     ed2: 91 14        	sta	($14),y                 ; 0x2014 <main+0x1b5a>
     ed4: c8           	iny
     ed5: a5 2b        	lda	$2b                     ; 0x202b <main+0x1b71>
     ed7: 91 14        	sta	($14),y                 ; 0x2014 <main+0x1b5a>
     ed9: c8           	iny
     eda: a5 2c        	lda	$2c                     ; 0x202c <main+0x1b72>
     edc: 91 14        	sta	($14),y                 ; 0x2014 <main+0x1b5a>
     ede: a5 2a        	lda	$2a                     ; 0x202a <main+0x1b70>
     ee0: 20 10 22     	jsr	$2210 <readMIDICmd>
     ee3: c9 01        	cmp	#$1
     ee5: f0 03        	beq	$eea <main+0xa30>
     ee7: 4c 36 12     	jmp	$1236 <main+0xd7c>
     eea: a6 78        	ldx	$78                     ; 0x2078 <main+0x1bbe>
     eec: 86 28        	stx	$28                     ; 0x2028 <main+0x1b6e>
     eee: a6 79        	ldx	$79                     ; 0x2079 <main+0x1bbf>
     ef0: 86 25        	stx	$25                     ; 0x2025 <main+0x1b6b>
     ef2: a2 16        	ldx	#$16
     ef4: 86 12        	stx	$12                     ; 0x2012 <main+0x1b58>
     ef6: 64 13        	stz	$13                     ; 0x2013 <main+0x1b59>
     ef8: a2 00        	ldx	#$0
     efa: a5 29        	lda	$29                     ; 0x2029 <main+0x1b6f>
     efc: 20 25 3d     	jsr	$3d25 <__mulhi3>
     eff: 85 12        	sta	$12                     ; 0x2012 <main+0x1b58>
     f01: 86 13        	stx	$13                     ; 0x2013 <main+0x1b59>
     f03: 18           	clc
     f04: a5 28        	lda	$28                     ; 0x2028 <main+0x1b6e>
     f06: 65 12        	adc	$12                     ; 0x2012 <main+0x1b58>
     f08: a8           	tay
     f09: a5 25        	lda	$25                     ; 0x2025 <main+0x1b6b>
     f0b: 65 13        	adc	$13                     ; 0x2013 <main+0x1b59>
     f0d: aa           	tax
     f0e: 84 12        	sty	$12                     ; 0x2012 <main+0x1b58>
     f10: 85 13        	sta	$13                     ; 0x2013 <main+0x1b59>
     f12: 18           	clc
     f13: 98           	tya
     f14: 69 08        	adc	#$8
     f16: 85 14        	sta	$14                     ; 0x2014 <main+0x1b5a>
     f18: 8a           	txa
     f19: 69 00        	adc	#$0
     f1b: 85 15        	sta	$15                     ; 0x2015 <main+0x1b5b>
     f1d: 18           	clc
     f1e: 98           	tya
     f1f: 69 04        	adc	#$4
     f21: 85 16        	sta	$16                     ; 0x2016 <main+0x1b5c>
     f23: 8a           	txa
     f24: 69 00        	adc	#$0
     f26: 85 17        	sta	$17                     ; 0x2017 <main+0x1b5d>
     f28: a0 04        	ldy	#$4
     f2a: b1 12        	lda	($12),y                 ; 0x2012 <main+0x1b58>
     f2c: 85 18        	sta	$18                     ; 0x2018 <main+0x1b5e>
     f2e: a0 01        	ldy	#$1
     f30: b1 16        	lda	($16),y                 ; 0x2016 <main+0x1b5c>
     f32: 85 19        	sta	$19                     ; 0x2019 <main+0x1b5f>
     f34: c8           	iny
     f35: b1 16        	lda	($16),y                 ; 0x2016 <main+0x1b5c>
     f37: aa           	tax
     f38: c8           	iny
     f39: b1 16        	lda	($16),y                 ; 0x2016 <main+0x1b5c>
     f3b: a4 18        	ldy	$18                     ; 0x2018 <main+0x1b5e>
     f3d: 84 1a        	sty	$1a                     ; 0x201a <main+0x1b60>
     f3f: a4 19        	ldy	$19                     ; 0x2019 <main+0x1b5f>
     f41: 84 1b        	sty	$1b                     ; 0x201b <main+0x1b61>
     f43: 86 1c        	stx	$1c                     ; 0x201c <main+0x1b62>
     f45: e6 1a        	inc	$1a                     ; 0x201a <main+0x1b60>
     f47: f0 03        	beq	$f4c <main+0xa92>
     f49: 4c e7 0d     	jmp	$de7 <main+0x92d>
     f4c: e6 1b        	inc	$1b                     ; 0x201b <main+0x1b61>
     f4e: f0 03        	beq	$f53 <main+0xa99>
     f50: 4c e7 0d     	jmp	$de7 <main+0x92d>
     f53: e6 1c        	inc	$1c                     ; 0x201c <main+0x1b62>
     f55: f0 03        	beq	$f5a <main+0xaa0>
     f57: 4c e7 0d     	jmp	$de7 <main+0x92d>
     f5a: 1a           	inc
     f5b: 4c e7 0d     	jmp	$de7 <main+0x92d>
     f5e: 4a           	lsr
     f5f: aa           	tax
     f60: a9 00        	lda	#$0
     f62: 6a           	ror
     f63: 29 80        	and	#$80
     f65: 85 2d        	sta	$2d                     ; 0x202d <main+0x1b73>
     f67: 8a           	txa
     f68: 29 3f        	and	#$3f
     f6a: 85 2c        	sta	$2c                     ; 0x202c <main+0x1b72>
     f6c: a6 78        	ldx	$78                     ; 0x2078 <main+0x1bbe>
     f6e: 86 28        	stx	$28                     ; 0x2028 <main+0x1b6e>
     f70: a6 79        	ldx	$79                     ; 0x2079 <main+0x1bbf>
     f72: 86 25        	stx	$25                     ; 0x2025 <main+0x1b6b>
     f74: a2 16        	ldx	#$16
     f76: 86 12        	stx	$12                     ; 0x2012 <main+0x1b58>
     f78: 64 13        	stz	$13                     ; 0x2013 <main+0x1b59>
     f7a: a2 00        	ldx	#$0
     f7c: a5 29        	lda	$29                     ; 0x2029 <main+0x1b6f>
     f7e: 20 25 3d     	jsr	$3d25 <__mulhi3>
     f81: a0 04        	ldy	#$4
     f83: 85 12        	sta	$12                     ; 0x2012 <main+0x1b58>
     f85: 86 13        	stx	$13                     ; 0x2013 <main+0x1b59>
     f87: 18           	clc
     f88: a5 28        	lda	$28                     ; 0x2028 <main+0x1b6e>
     f8a: 65 12        	adc	$12                     ; 0x2012 <main+0x1b58>
     f8c: 85 12        	sta	$12                     ; 0x2012 <main+0x1b58>
     f8e: a5 25        	lda	$25                     ; 0x2025 <main+0x1b6b>
     f90: 65 13        	adc	$13                     ; 0x2013 <main+0x1b59>
     f92: aa           	tax
     f93: a5 12        	lda	$12                     ; 0x2012 <main+0x1b58>
     f95: 86 13        	stx	$13                     ; 0x2013 <main+0x1b59>
     f97: 18           	clc
     f98: 85 16        	sta	$16                     ; 0x2016 <main+0x1b5c>
     f9a: 69 08        	adc	#$8
     f9c: 85 14        	sta	$14                     ; 0x2014 <main+0x1b5a>
     f9e: 8a           	txa
     f9f: 69 00        	adc	#$0
     fa1: 85 15        	sta	$15                     ; 0x2015 <main+0x1b5b>
     fa3: 18           	clc
     fa4: a5 16        	lda	$16                     ; 0x2016 <main+0x1b5c>
     fa6: 69 04        	adc	#$4
     fa8: 85 16        	sta	$16                     ; 0x2016 <main+0x1b5c>
     faa: 8a           	txa
     fab: 69 00        	adc	#$0
     fad: 85 17        	sta	$17                     ; 0x2017 <main+0x1b5d>
     faf: b1 12        	lda	($12),y                 ; 0x2012 <main+0x1b58>
     fb1: 85 18        	sta	$18                     ; 0x2018 <main+0x1b5e>
     fb3: a0 01        	ldy	#$1
     fb5: b1 16        	lda	($16),y                 ; 0x2016 <main+0x1b5c>
     fb7: 85 19        	sta	$19                     ; 0x2019 <main+0x1b5f>
     fb9: c8           	iny
     fba: b1 16        	lda	($16),y                 ; 0x2016 <main+0x1b5c>
     fbc: aa           	tax
     fbd: c8           	iny
     fbe: b1 16        	lda	($16),y                 ; 0x2016 <main+0x1b5c>
     fc0: 85 1b        	sta	$1b                     ; 0x201b <main+0x1b61>
     fc2: a5 18        	lda	$18                     ; 0x2018 <main+0x1b5e>
     fc4: a4 19        	ldy	$19                     ; 0x2019 <main+0x1b5f>
     fc6: 86 1c        	stx	$1c                     ; 0x201c <main+0x1b62>
     fc8: 1a           	inc
     fc9: d0 09        	bne	$fd4 <main+0xb1a>
     fcb: c8           	iny
     fcc: d0 06        	bne	$fd4 <main+0xb1a>
     fce: e6 1c        	inc	$1c                     ; 0x201c <main+0x1b62>
     fd0: d0 02        	bne	$fd4 <main+0xb1a>
     fd2: e6 1b        	inc	$1b                     ; 0x201b <main+0x1b61>
     fd4: 84 1d        	sty	$1d                     ; 0x201d <main+0x1b63>
     fd6: a0 04        	ldy	#$4
     fd8: 91 12        	sta	($12),y                 ; 0x2012 <main+0x1b58>
     fda: a0 01        	ldy	#$1
     fdc: a5 1d        	lda	$1d                     ; 0x201d <main+0x1b63>
     fde: 91 16        	sta	($16),y                 ; 0x2016 <main+0x1b5c>
     fe0: c8           	iny
     fe1: a5 1c        	lda	$1c                     ; 0x201c <main+0x1b62>
     fe3: 91 16        	sta	($16),y                 ; 0x2016 <main+0x1b5c>
     fe5: c8           	iny
     fe6: a5 1b        	lda	$1b                     ; 0x201b <main+0x1b61>
     fe8: 91 16        	sta	($16),y                 ; 0x2016 <main+0x1b5c>
     fea: 18           	clc
     feb: a5 18        	lda	$18                     ; 0x2018 <main+0x1b5e>
     fed: a0 08        	ldy	#$8
     fef: 71 12        	adc	($12),y                 ; 0x2012 <main+0x1b58>
     ff1: 85 13        	sta	$13                     ; 0x2013 <main+0x1b59>
     ff3: a5 19        	lda	$19                     ; 0x2019 <main+0x1b5f>
     ff5: a0 01        	ldy	#$1
     ff7: 71 14        	adc	($14),y                 ; 0x2014 <main+0x1b5a>
     ff9: 85 12        	sta	$12                     ; 0x2012 <main+0x1b58>
     ffb: c8           	iny
     ffc: 8a           	txa
     ffd: 71 14        	adc	($14),y                 ; 0x2014 <main+0x1b5a>
     fff: 85 14        	sta	$14                     ; 0x2014 <main+0x1b5a>
    1001: a5 12        	lda	$12                     ; 0x2012 <main+0x1b58>
    1003: 06 12        	asl	$12                     ; 0x2012 <main+0x1b58>
    1005: 26 14        	rol	$14                     ; 0x2014 <main+0x1b5a>
    1007: 06 12        	asl	$12                     ; 0x2012 <main+0x1b58>
    1009: 26 14        	rol	$14                     ; 0x2014 <main+0x1b5a>
    100b: 06 12        	asl	$12                     ; 0x2012 <main+0x1b58>
    100d: 26 14        	rol	$14                     ; 0x2014 <main+0x1b5a>
    100f: a4 14        	ldy	$14                     ; 0x2014 <main+0x1b5a>
    1011: a6 0f        	ldx	$f                      ; 0x200f <main+0x1b55>
    1013: 78           	sei
    1014: 84 0f        	sty	$f                      ; 0x200f <main+0x1b55>
    1016: a4 13        	ldy	$13                     ; 0x2013 <main+0x1b59>
    1018: 84 12        	sty	$12                     ; 0x2012 <main+0x1b58>
    101a: 09 e0        	ora	#$e0
    101c: 85 13        	sta	$13                     ; 0x2013 <main+0x1b59>
    101e: b2 12        	lda	($12)                   ; 0x2012 <main+0x1b58>
    1020: 86 0f        	stx	$f                      ; 0x200f <main+0x1b55>
    1022: 58           	cli
    1023: aa           	tax
    1024: 30 11        	bmi	$1037 <main+0xb7d>
    1026: 64 17        	stz	$17                     ; 0x2017 <main+0x1b5d>
    1028: 64 2b        	stz	$2b                     ; 0x202b <main+0x1b71>
    102a: 64 25        	stz	$25                     ; 0x2025 <main+0x1b6b>
    102c: 64 12        	stz	$12                     ; 0x2012 <main+0x1b58>
    102e: 64 2e        	stz	$2e                     ; 0x202e <main+0x1b74>
    1030: 64 13        	stz	$13                     ; 0x2013 <main+0x1b59>
    1032: 64 14        	stz	$14                     ; 0x2014 <main+0x1b5a>
    1034: 4c 52 0e     	jmp	$e52 <main+0x998>
    1037: 64 13        	stz	$13                     ; 0x2013 <main+0x1b59>
    1039: 4a           	lsr
    103a: aa           	tax
    103b: a9 00        	lda	#$0
    103d: 6a           	ror
    103e: 29 80        	and	#$80
    1040: 85 28        	sta	$28                     ; 0x2028 <main+0x1b6e>
    1042: 8a           	txa
    1043: 29 3f        	and	#$3f
    1045: 85 2b        	sta	$2b                     ; 0x202b <main+0x1b71>
    1047: a6 2c        	ldx	$2c                     ; 0x202c <main+0x1b72>
    1049: 86 2e        	stx	$2e                     ; 0x202e <main+0x1b74>
    104b: 46 2e        	lsr	$2e                     ; 0x202e <main+0x1b74>
    104d: a6 2d        	ldx	$2d                     ; 0x202d <main+0x1b73>
    104f: 86 2c        	stx	$2c                     ; 0x202c <main+0x1b72>
    1051: 66 2c        	ror	$2c                     ; 0x202c <main+0x1b72>
    1053: 64 2d        	stz	$2d                     ; 0x202d <main+0x1b73>
    1055: 66 2d        	ror	$2d                     ; 0x202d <main+0x1b73>
    1057: a6 78        	ldx	$78                     ; 0x2078 <main+0x1bbe>
    1059: 86 2f        	stx	$2f                     ; 0x202f <main+0x1b75>
    105b: a6 79        	ldx	$79                     ; 0x2079 <main+0x1bbf>
    105d: 86 25        	stx	$25                     ; 0x2025 <main+0x1b6b>
    105f: a2 16        	ldx	#$16
    1061: 86 12        	stx	$12                     ; 0x2012 <main+0x1b58>
    1063: a2 00        	ldx	#$0
    1065: a5 29        	lda	$29                     ; 0x2029 <main+0x1b6f>
    1067: 20 25 3d     	jsr	$3d25 <__mulhi3>
    106a: a0 04        	ldy	#$4
    106c: 85 12        	sta	$12                     ; 0x2012 <main+0x1b58>
    106e: 86 13        	stx	$13                     ; 0x2013 <main+0x1b59>
    1070: 18           	clc
    1071: a5 2f        	lda	$2f                     ; 0x202f <main+0x1b75>
    1073: 65 12        	adc	$12                     ; 0x2012 <main+0x1b58>
    1075: 85 12        	sta	$12                     ; 0x2012 <main+0x1b58>
    1077: a5 25        	lda	$25                     ; 0x2025 <main+0x1b6b>
    1079: 65 13        	adc	$13                     ; 0x2013 <main+0x1b59>
    107b: aa           	tax
    107c: a5 12        	lda	$12                     ; 0x2012 <main+0x1b58>
    107e: 86 13        	stx	$13                     ; 0x2013 <main+0x1b59>
    1080: 18           	clc
    1081: 85 16        	sta	$16                     ; 0x2016 <main+0x1b5c>
    1083: 69 08        	adc	#$8
    1085: 85 14        	sta	$14                     ; 0x2014 <main+0x1b5a>
    1087: 8a           	txa
    1088: 69 00        	adc	#$0
    108a: 85 15        	sta	$15                     ; 0x2015 <main+0x1b5b>
    108c: 18           	clc
    108d: a5 16        	lda	$16                     ; 0x2016 <main+0x1b5c>
    108f: 69 04        	adc	#$4
    1091: 85 16        	sta	$16                     ; 0x2016 <main+0x1b5c>
    1093: 8a           	txa
    1094: 69 00        	adc	#$0
    1096: 85 17        	sta	$17                     ; 0x2017 <main+0x1b5d>
    1098: b1 12        	lda	($12),y                 ; 0x2012 <main+0x1b58>
    109a: 85 18        	sta	$18                     ; 0x2018 <main+0x1b5e>
    109c: a0 01        	ldy	#$1
    109e: b1 16        	lda	($16),y                 ; 0x2016 <main+0x1b5c>
    10a0: 85 19        	sta	$19                     ; 0x2019 <main+0x1b5f>
    10a2: c8           	iny
    10a3: b1 16        	lda	($16),y                 ; 0x2016 <main+0x1b5c>
    10a5: aa           	tax
    10a6: c8           	iny
    10a7: b1 16        	lda	($16),y                 ; 0x2016 <main+0x1b5c>
    10a9: 85 1b        	sta	$1b                     ; 0x201b <main+0x1b61>
    10ab: 86 1a        	stx	$1a                     ; 0x201a <main+0x1b60>
    10ad: a5 18        	lda	$18                     ; 0x2018 <main+0x1b5e>
    10af: a4 19        	ldy	$19                     ; 0x2019 <main+0x1b5f>
    10b1: 84 1c        	sty	$1c                     ; 0x201c <main+0x1b62>
    10b3: 1a           	inc
    10b4: d0 0a        	bne	$10c0 <main+0xc06>
    10b6: e6 1c        	inc	$1c                     ; 0x201c <main+0x1b62>
    10b8: d0 06        	bne	$10c0 <main+0xc06>
    10ba: e6 1a        	inc	$1a                     ; 0x201a <main+0x1b60>
    10bc: d0 02        	bne	$10c0 <main+0xc06>
    10be: e6 1b        	inc	$1b                     ; 0x201b <main+0x1b61>
    10c0: a0 04        	ldy	#$4
    10c2: 91 12        	sta	($12),y                 ; 0x2012 <main+0x1b58>
    10c4: a0 01        	ldy	#$1
    10c6: a5 1c        	lda	$1c                     ; 0x201c <main+0x1b62>
    10c8: 91 16        	sta	($16),y                 ; 0x2016 <main+0x1b5c>
    10ca: c8           	iny
    10cb: a5 1a        	lda	$1a                     ; 0x201a <main+0x1b60>
    10cd: 91 16        	sta	($16),y                 ; 0x2016 <main+0x1b5c>
    10cf: c8           	iny
    10d0: a5 1b        	lda	$1b                     ; 0x201b <main+0x1b61>
    10d2: 91 16        	sta	($16),y                 ; 0x2016 <main+0x1b5c>
    10d4: 18           	clc
    10d5: a0 08        	ldy	#$8
    10d7: a5 18        	lda	$18                     ; 0x2018 <main+0x1b5e>
    10d9: 71 12        	adc	($12),y                 ; 0x2012 <main+0x1b58>
    10db: 85 13        	sta	$13                     ; 0x2013 <main+0x1b59>
    10dd: a5 19        	lda	$19                     ; 0x2019 <main+0x1b5f>
    10df: a0 01        	ldy	#$1
    10e1: 71 14        	adc	($14),y                 ; 0x2014 <main+0x1b5a>
    10e3: 85 12        	sta	$12                     ; 0x2012 <main+0x1b58>
    10e5: c8           	iny
    10e6: 8a           	txa
    10e7: 71 14        	adc	($14),y                 ; 0x2014 <main+0x1b5a>
    10e9: 85 14        	sta	$14                     ; 0x2014 <main+0x1b5a>
    10eb: a5 12        	lda	$12                     ; 0x2012 <main+0x1b58>
    10ed: 06 12        	asl	$12                     ; 0x2012 <main+0x1b58>
    10ef: 26 14        	rol	$14                     ; 0x2014 <main+0x1b5a>
    10f1: 06 12        	asl	$12                     ; 0x2012 <main+0x1b58>
    10f3: 26 14        	rol	$14                     ; 0x2014 <main+0x1b5a>
    10f5: 06 12        	asl	$12                     ; 0x2012 <main+0x1b58>
    10f7: 26 14        	rol	$14                     ; 0x2014 <main+0x1b5a>
    10f9: a4 14        	ldy	$14                     ; 0x2014 <main+0x1b5a>
    10fb: a6 0f        	ldx	$f                      ; 0x200f <main+0x1b55>
    10fd: 78           	sei
    10fe: 84 0f        	sty	$f                      ; 0x200f <main+0x1b55>
    1100: a4 13        	ldy	$13                     ; 0x2013 <main+0x1b59>
    1102: 84 12        	sty	$12                     ; 0x2012 <main+0x1b58>
    1104: 09 e0        	ora	#$e0
    1106: 85 13        	sta	$13                     ; 0x2013 <main+0x1b59>
    1108: b2 12        	lda	($12)                   ; 0x2012 <main+0x1b58>
    110a: 86 0f        	stx	$f                      ; 0x200f <main+0x1b55>
    110c: 58           	cli
    110d: aa           	tax
    110e: 30 0f        	bmi	$111f <main+0xc65>
    1110: 64 25        	stz	$25                     ; 0x2025 <main+0x1b6b>
    1112: 85 12        	sta	$12                     ; 0x2012 <main+0x1b58>
    1114: 64 13        	stz	$13                     ; 0x2013 <main+0x1b59>
    1116: 64 14        	stz	$14                     ; 0x2014 <main+0x1b5a>
    1118: 64 17        	stz	$17                     ; 0x2017 <main+0x1b5d>
    111a: a5 28        	lda	$28                     ; 0x2028 <main+0x1b6e>
    111c: 4c 52 0e     	jmp	$e52 <main+0x998>
    111f: 85 14        	sta	$14                     ; 0x2014 <main+0x1b5a>
    1121: 46 14        	lsr	$14                     ; 0x2014 <main+0x1b5a>
    1123: 64 12        	stz	$12                     ; 0x2012 <main+0x1b58>
    1125: 66 12        	ror	$12                     ; 0x2012 <main+0x1b58>
    1127: 46 2b        	lsr	$2b                     ; 0x202b <main+0x1b71>
    1129: a5 2b        	lda	$2b                     ; 0x202b <main+0x1b71>
    112b: a0 15        	ldy	#$15
    112d: 91 10        	sta	($10),y                 ; 0x2010 <main+0x1b56>
    112f: a6 28        	ldx	$28                     ; 0x2028 <main+0x1b6e>
    1131: 86 2b        	stx	$2b                     ; 0x202b <main+0x1b71>
    1133: 66 2b        	ror	$2b                     ; 0x202b <main+0x1b71>
    1135: a9 00        	lda	#$0
    1137: 6a           	ror
    1138: 88           	dey
    1139: 91 10        	sta	($10),y                 ; 0x2010 <main+0x1b56>
    113b: a6 2e        	ldx	$2e                     ; 0x202e <main+0x1b74>
    113d: 86 28        	stx	$28                     ; 0x2028 <main+0x1b6e>
    113f: 46 28        	lsr	$28                     ; 0x2028 <main+0x1b6e>
    1141: 66 2c        	ror	$2c                     ; 0x202c <main+0x1b72>
    1143: a6 2c        	ldx	$2c                     ; 0x202c <main+0x1b72>
    1145: 86 2e        	stx	$2e                     ; 0x202e <main+0x1b74>
    1147: a6 2d        	ldx	$2d                     ; 0x202d <main+0x1b73>
    1149: 86 2c        	stx	$2c                     ; 0x202c <main+0x1b72>
    114b: 66 2c        	ror	$2c                     ; 0x202c <main+0x1b72>
    114d: 64 2d        	stz	$2d                     ; 0x202d <main+0x1b73>
    114f: 66 2d        	ror	$2d                     ; 0x202d <main+0x1b73>
    1151: a5 12        	lda	$12                     ; 0x2012 <main+0x1b58>
    1153: 29 80        	and	#$80
    1155: a0 17        	ldy	#$17
    1157: 91 10        	sta	($10),y                 ; 0x2010 <main+0x1b56>
    1159: a5 14        	lda	$14                     ; 0x2014 <main+0x1b5a>
    115b: 29 3f        	and	#$3f
    115d: 88           	dey
    115e: 91 10        	sta	($10),y                 ; 0x2010 <main+0x1b56>
    1160: a6 78        	ldx	$78                     ; 0x2078 <main+0x1bbe>
    1162: 86 2f        	stx	$2f                     ; 0x202f <main+0x1b75>
    1164: a6 79        	ldx	$79                     ; 0x2079 <main+0x1bbf>
    1166: 86 25        	stx	$25                     ; 0x2025 <main+0x1b6b>
    1168: a2 16        	ldx	#$16
    116a: 86 12        	stx	$12                     ; 0x2012 <main+0x1b58>
    116c: 64 13        	stz	$13                     ; 0x2013 <main+0x1b59>
    116e: a2 00        	ldx	#$0
    1170: a5 29        	lda	$29                     ; 0x2029 <main+0x1b6f>
    1172: 20 25 3d     	jsr	$3d25 <__mulhi3>
    1175: a4 28        	ldy	$28                     ; 0x2028 <main+0x1b6e>
    1177: 84 17        	sty	$17                     ; 0x2017 <main+0x1b5d>
    1179: 85 12        	sta	$12                     ; 0x2012 <main+0x1b58>
    117b: 86 13        	stx	$13                     ; 0x2013 <main+0x1b59>
    117d: 18           	clc
    117e: a5 2f        	lda	$2f                     ; 0x202f <main+0x1b75>
    1180: 65 12        	adc	$12                     ; 0x2012 <main+0x1b58>
    1182: a8           	tay
    1183: a5 25        	lda	$25                     ; 0x2025 <main+0x1b6b>
    1185: 65 13        	adc	$13                     ; 0x2013 <main+0x1b59>
    1187: aa           	tax
    1188: 98           	tya
    1189: 18           	clc
    118a: 69 08        	adc	#$8
    118c: 85 12        	sta	$12                     ; 0x2012 <main+0x1b58>
    118e: 8a           	txa
    118f: 69 00        	adc	#$0
    1191: 84 14        	sty	$14                     ; 0x2014 <main+0x1b5a>
    1193: 86 15        	stx	$15                     ; 0x2015 <main+0x1b5b>
    1195: 85 13        	sta	$13                     ; 0x2013 <main+0x1b59>
    1197: 18           	clc
    1198: 98           	tya
    1199: 69 04        	adc	#$4
    119b: 85 18        	sta	$18                     ; 0x2018 <main+0x1b5e>
    119d: 8a           	txa
    119e: 69 00        	adc	#$0
    11a0: 85 19        	sta	$19                     ; 0x2019 <main+0x1b5f>
    11a2: a0 04        	ldy	#$4
    11a4: b1 14        	lda	($14),y                 ; 0x2014 <main+0x1b5a>
    11a6: aa           	tax
    11a7: a0 01        	ldy	#$1
    11a9: b1 18        	lda	($18),y                 ; 0x2018 <main+0x1b5e>
    11ab: 85 16        	sta	$16                     ; 0x2016 <main+0x1b5c>
    11ad: c8           	iny
    11ae: b1 18        	lda	($18),y                 ; 0x2018 <main+0x1b5e>
    11b0: 85 1a        	sta	$1a                     ; 0x201a <main+0x1b60>
    11b2: c8           	iny
    11b3: b1 18        	lda	($18),y                 ; 0x2018 <main+0x1b5e>
    11b5: 85 1b        	sta	$1b                     ; 0x201b <main+0x1b61>
    11b7: a4 16        	ldy	$16                     ; 0x2016 <main+0x1b5c>
    11b9: 84 1c        	sty	$1c                     ; 0x201c <main+0x1b62>
    11bb: a4 1a        	ldy	$1a                     ; 0x201a <main+0x1b60>
    11bd: 84 1d        	sty	$1d                     ; 0x201d <main+0x1b63>
    11bf: 8a           	txa
    11c0: 1a           	inc
    11c1: d0 0b        	bne	$11ce <main+0xd14>
    11c3: e6 1c        	inc	$1c                     ; 0x201c <main+0x1b62>
    11c5: d0 07        	bne	$11ce <main+0xd14>
    11c7: e6 1d        	inc	$1d                     ; 0x201d <main+0x1b63>
    11c9: d0 03        	bne	$11ce <main+0xd14>
    11cb: 4c e2 12     	jmp	$12e2 <main+0xe28>
    11ce: a0 04        	ldy	#$4
    11d0: 91 14        	sta	($14),y                 ; 0x2014 <main+0x1b5a>
    11d2: a0 01        	ldy	#$1
    11d4: a5 1c        	lda	$1c                     ; 0x201c <main+0x1b62>
    11d6: 91 18        	sta	($18),y                 ; 0x2018 <main+0x1b5e>
    11d8: c8           	iny
    11d9: a5 1d        	lda	$1d                     ; 0x201d <main+0x1b63>
    11db: 91 18        	sta	($18),y                 ; 0x2018 <main+0x1b5e>
    11dd: a5 1b        	lda	$1b                     ; 0x201b <main+0x1b61>
    11df: c8           	iny
    11e0: 91 18        	sta	($18),y                 ; 0x2018 <main+0x1b5e>
    11e2: 18           	clc
    11e3: a0 08        	ldy	#$8
    11e5: 8a           	txa
    11e6: 71 14        	adc	($14),y                 ; 0x2014 <main+0x1b5a>
    11e8: 85 14        	sta	$14                     ; 0x2014 <main+0x1b5a>
    11ea: a0 01        	ldy	#$1
    11ec: a5 16        	lda	$16                     ; 0x2016 <main+0x1b5c>
    11ee: 71 12        	adc	($12),y                 ; 0x2012 <main+0x1b58>
    11f0: 85 15        	sta	$15                     ; 0x2015 <main+0x1b5b>
    11f2: a5 1a        	lda	$1a                     ; 0x201a <main+0x1b60>
    11f4: c8           	iny
    11f5: 71 12        	adc	($12),y                 ; 0x2012 <main+0x1b58>
    11f7: 85 12        	sta	$12                     ; 0x2012 <main+0x1b58>
    11f9: a5 15        	lda	$15                     ; 0x2015 <main+0x1b5b>
    11fb: 0a           	asl
    11fc: 26 12        	rol	$12                     ; 0x2012 <main+0x1b58>
    11fe: 0a           	asl
    11ff: 26 12        	rol	$12                     ; 0x2012 <main+0x1b58>
    1201: 0a           	asl
    1202: a5 12        	lda	$12                     ; 0x2012 <main+0x1b58>
    1204: 2a           	rol
    1205: a6 0f        	ldx	$f                      ; 0x200f <main+0x1b55>
    1207: 78           	sei
    1208: 85 0f        	sta	$f                      ; 0x200f <main+0x1b55>
    120a: a4 14        	ldy	$14                     ; 0x2014 <main+0x1b5a>
    120c: 84 12        	sty	$12                     ; 0x2012 <main+0x1b58>
    120e: a5 15        	lda	$15                     ; 0x2015 <main+0x1b5b>
    1210: 09 e0        	ora	#$e0
    1212: 85 13        	sta	$13                     ; 0x2013 <main+0x1b59>
    1214: b2 12        	lda	($12)                   ; 0x2012 <main+0x1b58>
    1216: 86 0f        	stx	$f                      ; 0x200f <main+0x1b55>
    1218: 48           	pha
    1219: a0 17        	ldy	#$17
    121b: b1 10        	lda	($10),y                 ; 0x2010 <main+0x1b56>
    121d: 85 12        	sta	$12                     ; 0x2012 <main+0x1b58>
    121f: 88           	dey
    1220: b1 10        	lda	($10),y                 ; 0x2010 <main+0x1b56>
    1222: 85 13        	sta	$13                     ; 0x2013 <main+0x1b59>
    1224: 68           	pla
    1225: 85 14        	sta	$14                     ; 0x2014 <main+0x1b5a>
    1227: a0 14        	ldy	#$14
    1229: b1 10        	lda	($10),y                 ; 0x2010 <main+0x1b56>
    122b: 58           	cli
    122c: 48           	pha
    122d: c8           	iny
    122e: b1 10        	lda	($10),y                 ; 0x2010 <main+0x1b56>
    1230: 85 25        	sta	$25                     ; 0x2025 <main+0x1b6b>
    1232: 68           	pla
    1233: 4c 52 0e     	jmp	$e52 <main+0x998>
    1236: 48           	pha
    1237: a0 18        	ldy	#$18
    1239: b1 10        	lda	($10),y                 ; 0x2010 <main+0x1b56>
    123b: 85 25        	sta	$25                     ; 0x2025 <main+0x1b6b>
    123d: 68           	pla
    123e: f0 36        	beq	$1276 <main+0xdbc>
    1240: a6 78        	ldx	$78                     ; 0x2078 <main+0x1bbe>
    1242: 86 28        	stx	$28                     ; 0x2028 <main+0x1b6e>
    1244: a6 79        	ldx	$79                     ; 0x2079 <main+0x1bbf>
    1246: 86 25        	stx	$25                     ; 0x2025 <main+0x1b6b>
    1248: a2 16        	ldx	#$16
    124a: 86 12        	stx	$12                     ; 0x2012 <main+0x1b58>
    124c: 64 13        	stz	$13                     ; 0x2013 <main+0x1b59>
    124e: a2 00        	ldx	#$0
    1250: a4 2a        	ldy	$2a                     ; 0x202a <main+0x1b70>
    1252: 84 29        	sty	$29                     ; 0x2029 <main+0x1b6f>
    1254: a5 2a        	lda	$2a                     ; 0x202a <main+0x1b70>
    1256: 20 25 3d     	jsr	$3d25 <__mulhi3>
    1259: 85 12        	sta	$12                     ; 0x2012 <main+0x1b58>
    125b: 86 13        	stx	$13                     ; 0x2013 <main+0x1b59>
    125d: 18           	clc
    125e: a5 28        	lda	$28                     ; 0x2028 <main+0x1b6e>
    1260: 65 12        	adc	$12                     ; 0x2012 <main+0x1b58>
    1262: 85 12        	sta	$12                     ; 0x2012 <main+0x1b58>
    1264: a5 25        	lda	$25                     ; 0x2025 <main+0x1b6b>
    1266: 65 13        	adc	$13                     ; 0x2013 <main+0x1b59>
    1268: 85 13        	sta	$13                     ; 0x2013 <main+0x1b59>
    126a: a0 15        	ldy	#$15
    126c: a9 01        	lda	#$1
    126e: 91 12        	sta	($12),y                 ; 0x2012 <main+0x1b58>
    1270: a0 18        	ldy	#$18
    1272: b1 10        	lda	($10),y                 ; 0x2010 <main+0x1b56>
    1274: 85 25        	sta	$25                     ; 0x2025 <main+0x1b6b>
    1276: a6 25        	ldx	$25                     ; 0x2025 <main+0x1b6b>
    1278: e6 29        	inc	$29                     ; 0x2029 <main+0x1b6f>
    127a: d0 01        	bne	$127d <main+0xdc3>
    127c: e8           	inx
    127d: 8a           	txa
    127e: a6 74        	ldx	$74                     ; 0x2074 <main+0x1bba>
    1280: 86 25        	stx	$25                     ; 0x2025 <main+0x1b6b>
    1282: a6 75        	ldx	$75                     ; 0x2075 <main+0x1bbb>
    1284: 86 2a        	stx	$2a                     ; 0x202a <main+0x1b70>
    1286: c5 2a        	cmp	$2a                     ; 0x202a <main+0x1b70>
    1288: d0 0b        	bne	$1295 <main+0xddb>
    128a: a6 29        	ldx	$29                     ; 0x2029 <main+0x1b6f>
    128c: e4 25        	cpx	$25                     ; 0x2025 <main+0x1b6b>
    128e: a2 16        	ldx	#$16
    1290: b0 0c        	bcs	$129e <main+0xde4>
    1292: 4c 4b 0d     	jmp	$d4b <main+0x891>
    1295: c5 2a        	cmp	$2a                     ; 0x202a <main+0x1b70>
    1297: a2 16        	ldx	#$16
    1299: b0 03        	bcs	$129e <main+0xde4>
    129b: 4c 4b 0d     	jmp	$d4b <main+0x891>
    129e: a5 2a        	lda	$2a                     ; 0x202a <main+0x1b70>
    12a0: d0 07        	bne	$12a9 <main+0xdef>
    12a2: a5 25        	lda	$25                     ; 0x2025 <main+0x1b6b>
    12a4: d0 03        	bne	$12a9 <main+0xdef>
    12a6: 4c 25 1c     	jmp	$1c25 <main+0x176b>
    12a9: a2 ff        	ldx	#$ff
    12ab: 8a           	txa
    12ac: a0 18        	ldy	#$18
    12ae: 91 10        	sta	($10),y                 ; 0x2010 <main+0x1b56>
    12b0: 64 2b        	stz	$2b                     ; 0x202b <main+0x1b71>
    12b2: a2 8e        	ldx	#$8e
    12b4: 86 28        	stx	$28                     ; 0x2028 <main+0x1b6e>
    12b6: a2 40        	ldx	#$40
    12b8: 86 29        	stx	$29                     ; 0x2029 <main+0x1b6f>
    12ba: 64 15        	stz	$15                     ; 0x2015 <main+0x1b5b>
    12bc: 64 14        	stz	$14                     ; 0x2014 <main+0x1b5a>
    12be: a2 ff        	ldx	#$ff
    12c0: 8a           	txa
    12c1: a0 16        	ldy	#$16
    12c3: 91 10        	sta	($10),y                 ; 0x2010 <main+0x1b56>
    12c5: 88           	dey
    12c6: 91 10        	sta	($10),y                 ; 0x2010 <main+0x1b56>
    12c8: a0 13        	ldy	#$13
    12ca: 91 10        	sta	($10),y                 ; 0x2010 <main+0x1b56>
    12cc: c8           	iny
    12cd: 91 10        	sta	($10),y                 ; 0x2010 <main+0x1b56>
    12cf: 8a           	txa
    12d0: 4c a0 1a     	jmp	$1aa0 <main+0x15e6>
    12d3: a0 04        	ldy	#$4
    12d5: b1 12        	lda	($12),y                 ; 0x2012 <main+0x1b58>
    12d7: 85 15        	sta	$15                     ; 0x2015 <main+0x1b5b>
    12d9: b2 12        	lda	($12)                   ; 0x2012 <main+0x1b58>
    12db: 85 14        	sta	$14                     ; 0x2014 <main+0x1b5a>
    12dd: a6 15        	ldx	$15                     ; 0x2015 <main+0x1b5b>
    12df: 4c ba 0d     	jmp	$dba <main+0x900>
    12e2: e6 1b        	inc	$1b                     ; 0x201b <main+0x1b61>
    12e4: 4c ce 11     	jmp	$11ce <main+0xd14>
    12e7: a4 1a        	ldy	$1a                     ; 0x201a <main+0x1b60>
    12e9: f0 03        	beq	$12ee <main+0xe34>
    12eb: 4c 2c 1b     	jmp	$1b2c <main+0x1672>
    12ee: a4 19        	ldy	$19                     ; 0x2019 <main+0x1b5f>
    12f0: f0 03        	beq	$12f5 <main+0xe3b>
    12f2: 4c 2c 1b     	jmp	$1b2c <main+0x1672>
    12f5: 4c b8 1c     	jmp	$1cb8 <main+0x17fe>
    12f8: 85 1a        	sta	$1a                     ; 0x201a <main+0x1b60>
    12fa: c9 01        	cmp	#$1
    12fc: a6 24        	ldx	$24                     ; 0x2024 <main+0x1b6a>
    12fe: 8a           	txa
    12ff: a0 18        	ldy	#$18
    1301: 91 10        	sta	($10),y                 ; 0x2010 <main+0x1b56>
    1303: 90 03        	bcc	$1308 <main+0xe4e>
    1305: 4c 24 14     	jmp	$1424 <main+0xf6a>
    1308: a2 80        	ldx	#$80
    130a: 86 f3        	stx	$f3                     ; 0x20f3 <main+0x1c39>
    130c: 20 f0 ff     	jsr	$fff0 <__heap_start+0xbf60>
    130f: 92 26        	sta	($26)                   ; 0x2026 <main+0x1b6c>
    1311: a9 00        	lda	#$0
    1313: 6a           	ror
    1314: 85 28        	sta	$28                     ; 0x2028 <main+0x1b6e>
    1316: a9 05        	lda	#$5
    1318: 18           	clc
    1319: 72 26        	adc	($26)                   ; 0x2026 <main+0x1b6c>
    131b: 64 f3        	stz	$f3                     ; 0x20f3 <main+0x1c39>
    131d: 85 f4        	sta	$f4                     ; 0x20f4 <main+0x1c3a>
    131f: a2 d5        	ldx	#$d5
    1321: 86 f5        	stx	$f5                     ; 0x20f5 <main+0x1c3b>
    1323: 20 f0 ff     	jsr	$fff0 <__heap_start+0xbf60>
    1326: 92 26        	sta	($26)                   ; 0x2026 <main+0x1b6c>
    1328: a9 00        	lda	#$0
    132a: 6a           	ror
    132b: 85 28        	sta	$28                     ; 0x2028 <main+0x1b6e>
    132d: 64 7a        	stz	$7a                     ; 0x207a <main+0x1bc0>
    132f: 20 00 ff     	jsr	$ff00 <__heap_start+0xbe70>
    1332: 92 26        	sta	($26)                   ; 0x2026 <main+0x1b6c>
    1334: a9 00        	lda	#$0
    1336: 6a           	ror
    1337: 85 28        	sta	$28                     ; 0x2028 <main+0x1b6e>
    1339: a6 7a        	ldx	$7a                     ; 0x207a <main+0x1bc0>
    133b: e0 52        	cpx	#$52
    133d: d0 ee        	bne	$132d <main+0xe73>
    133f: a6 7e        	ldx	$7e                     ; 0x207e <main+0x1bc4>
    1341: e0 d5        	cpx	#$d5
    1343: d0 e8        	bne	$132d <main+0xe73>
    1345: a6 78        	ldx	$78                     ; 0x2078 <main+0x1bbe>
    1347: 86 25        	stx	$25                     ; 0x2025 <main+0x1b6b>
    1349: a6 79        	ldx	$79                     ; 0x2079 <main+0x1bbf>
    134b: 86 24        	stx	$24                     ; 0x2024 <main+0x1b6a>
    134d: a2 16        	ldx	#$16
    134f: 86 12        	stx	$12                     ; 0x2012 <main+0x1b58>
    1351: 64 13        	stz	$13                     ; 0x2013 <main+0x1b59>
    1353: 64 2b        	stz	$2b                     ; 0x202b <main+0x1b71>
    1355: a2 00        	ldx	#$0
    1357: a0 18        	ldy	#$18
    1359: b1 10        	lda	($10),y                 ; 0x2010 <main+0x1b56>
    135b: 20 25 3d     	jsr	$3d25 <__mulhi3>
    135e: 86 14        	stx	$14                     ; 0x2014 <main+0x1b5a>
    1360: 85 12        	sta	$12                     ; 0x2012 <main+0x1b58>
    1362: 85 15        	sta	$15                     ; 0x2015 <main+0x1b5b>
    1364: 18           	clc
    1365: a5 25        	lda	$25                     ; 0x2025 <main+0x1b6b>
    1367: 65 12        	adc	$12                     ; 0x2012 <main+0x1b58>
    1369: aa           	tax
    136a: a5 24        	lda	$24                     ; 0x2024 <main+0x1b6a>
    136c: 65 14        	adc	$14                     ; 0x2014 <main+0x1b5a>
    136e: 86 12        	stx	$12                     ; 0x2012 <main+0x1b58>
    1370: 85 13        	sta	$13                     ; 0x2013 <main+0x1b59>
    1372: a0 10        	ldy	#$10
    1374: b1 12        	lda	($12),y                 ; 0x2012 <main+0x1b58>
    1376: 8d a1 dd     	sta	$dda1                   ; 0xdda1 <__heap_start+0x9d11>
    1379: 18           	clc
    137a: a5 15        	lda	$15                     ; 0x2015 <main+0x1b5b>
    137c: 65 78        	adc	$78                     ; 0x2078 <main+0x1bbe>
    137e: 85 12        	sta	$12                     ; 0x2012 <main+0x1b58>
    1380: a5 14        	lda	$14                     ; 0x2014 <main+0x1b5a>
    1382: 65 79        	adc	$79                     ; 0x2079 <main+0x1bbf>
    1384: 85 13        	sta	$13                     ; 0x2013 <main+0x1b59>
    1386: c8           	iny
    1387: b1 12        	lda	($12),y                 ; 0x2012 <main+0x1b58>
    1389: 8d a1 dd     	sta	$dda1                   ; 0xdda1 <__heap_start+0x9d11>
    138c: a6 78        	ldx	$78                     ; 0x2078 <main+0x1bbe>
    138e: a4 79        	ldy	$79                     ; 0x2079 <main+0x1bbf>
    1390: 84 25        	sty	$25                     ; 0x2025 <main+0x1b6b>
    1392: 18           	clc
    1393: a5 15        	lda	$15                     ; 0x2015 <main+0x1b5b>
    1395: 65 78        	adc	$78                     ; 0x2078 <main+0x1bbe>
    1397: 85 12        	sta	$12                     ; 0x2012 <main+0x1b58>
    1399: a5 14        	lda	$14                     ; 0x2014 <main+0x1b5a>
    139b: 65 79        	adc	$79                     ; 0x2079 <main+0x1bbf>
    139d: 85 13        	sta	$13                     ; 0x2013 <main+0x1b59>
    139f: a0 14        	ldy	#$14
    13a1: b1 12        	lda	($12),y                 ; 0x2012 <main+0x1b58>
    13a3: f0 0a        	beq	$13af <main+0xef5>
    13a5: 86 2a        	stx	$2a                     ; 0x202a <main+0x1b70>
    13a7: a6 74        	ldx	$74                     ; 0x2074 <main+0x1bba>
    13a9: a4 75        	ldy	$75                     ; 0x2075 <main+0x1bbb>
    13ab: d0 1d        	bne	$13ca <main+0xf10>
    13ad: 80 15        	bra	$13c4 <main+0xf0a>
    13af: a0 12        	ldy	#$12
    13b1: b1 12        	lda	($12),y                 ; 0x2012 <main+0x1b58>
    13b3: 8d a1 dd     	sta	$dda1                   ; 0xdda1 <__heap_start+0x9d11>
    13b6: a6 78        	ldx	$78                     ; 0x2078 <main+0x1bbe>
    13b8: a4 79        	ldy	$79                     ; 0x2079 <main+0x1bbf>
    13ba: 86 2a        	stx	$2a                     ; 0x202a <main+0x1b70>
    13bc: 84 25        	sty	$25                     ; 0x2025 <main+0x1b6b>
    13be: a6 74        	ldx	$74                     ; 0x2074 <main+0x1bba>
    13c0: a4 75        	ldy	$75                     ; 0x2075 <main+0x1bbb>
    13c2: d0 06        	bne	$13ca <main+0xf10>
    13c4: 8a           	txa
    13c5: d0 03        	bne	$13ca <main+0xf10>
    13c7: 4c 53 15     	jmp	$1553 <main+0x1099>
    13ca: 86 24        	stx	$24                     ; 0x2024 <main+0x1b6a>
    13cc: a2 16        	ldx	#$16
    13ce: 86 12        	stx	$12                     ; 0x2012 <main+0x1b58>
    13d0: 64 13        	stz	$13                     ; 0x2013 <main+0x1b59>
    13d2: 5a           	phy
    13d3: a0 16        	ldy	#$16
    13d5: b1 10        	lda	($10),y                 ; 0x2010 <main+0x1b56>
    13d7: 85 2d        	sta	$2d                     ; 0x202d <main+0x1b73>
    13d9: aa           	tax
    13da: a0 18        	ldy	#$18
    13dc: b1 10        	lda	($10),y                 ; 0x2010 <main+0x1b56>
    13de: 7a           	ply
    13df: 85 2c        	sta	$2c                     ; 0x202c <main+0x1b72>
    13e1: 84 2e        	sty	$2e                     ; 0x202e <main+0x1b74>
    13e3: 20 25 3d     	jsr	$3d25 <__mulhi3>
    13e6: 85 12        	sta	$12                     ; 0x2012 <main+0x1b58>
    13e8: 86 13        	stx	$13                     ; 0x2013 <main+0x1b59>
    13ea: a5 2a        	lda	$2a                     ; 0x202a <main+0x1b70>
    13ec: 18           	clc
    13ed: 65 12        	adc	$12                     ; 0x2012 <main+0x1b58>
    13ef: 85 14        	sta	$14                     ; 0x2014 <main+0x1b5a>
    13f1: a5 25        	lda	$25                     ; 0x2025 <main+0x1b6b>
    13f3: 65 13        	adc	$13                     ; 0x2013 <main+0x1b59>
    13f5: a6 14        	ldx	$14                     ; 0x2014 <main+0x1b5a>
    13f7: 86 12        	stx	$12                     ; 0x2012 <main+0x1b58>
    13f9: 85 13        	sta	$13                     ; 0x2013 <main+0x1b59>
    13fb: 85 15        	sta	$15                     ; 0x2015 <main+0x1b5b>
    13fd: 18           	clc
    13fe: a5 14        	lda	$14                     ; 0x2014 <main+0x1b5a>
    1400: 69 0c        	adc	#$c
    1402: 85 14        	sta	$14                     ; 0x2014 <main+0x1b5a>
    1404: a5 15        	lda	$15                     ; 0x2015 <main+0x1b5b>
    1406: 69 00        	adc	#$0
    1408: 85 15        	sta	$15                     ; 0x2015 <main+0x1b5b>
    140a: 18           	clc
    140b: a5 2a        	lda	$2a                     ; 0x202a <main+0x1b70>
    140d: 69 0c        	adc	#$c
    140f: 85 18        	sta	$18                     ; 0x2018 <main+0x1b5e>
    1411: a5 25        	lda	$25                     ; 0x2025 <main+0x1b6b>
    1413: 69 00        	adc	#$0
    1415: 85 19        	sta	$19                     ; 0x2019 <main+0x1b5f>
    1417: a6 24        	ldx	$24                     ; 0x2024 <main+0x1b6a>
    1419: a4 2e        	ldy	$2e                     ; 0x202e <main+0x1b74>
    141b: 84 1e        	sty	$1e                     ; 0x201e <main+0x1b64>
    141d: a4 2d        	ldy	$2d                     ; 0x202d <main+0x1b73>
    141f: 84 16        	sty	$16                     ; 0x2016 <main+0x1b5c>
    1421: 4c b8 14     	jmp	$14b8 <main+0xffe>
    1424: a6 19        	ldx	$19                     ; 0x2019 <main+0x1b5f>
    1426: 86 12        	stx	$12                     ; 0x2012 <main+0x1b58>
    1428: a4 13        	ldy	$13                     ; 0x2013 <main+0x1b59>
    142a: a2 80        	ldx	#$80
    142c: 86 f3        	stx	$f3                     ; 0x20f3 <main+0x1c39>
    142e: 20 f0 ff     	jsr	$fff0 <__heap_start+0xbf60>
    1431: 92 26        	sta	($26)                   ; 0x2026 <main+0x1b6c>
    1433: a9 00        	lda	#$0
    1435: 6a           	ror
    1436: 85 28        	sta	$28                     ; 0x2028 <main+0x1b6e>
    1438: a9 05        	lda	#$5
    143a: 18           	clc
    143b: 72 26        	adc	($26)                   ; 0x2026 <main+0x1b6c>
    143d: 64 f3        	stz	$f3                     ; 0x20f3 <main+0x1c39>
    143f: 85 f4        	sta	$f4                     ; 0x20f4 <main+0x1c3a>
    1441: a2 d5        	ldx	#$d5
    1443: 86 f5        	stx	$f5                     ; 0x20f5 <main+0x1c3b>
    1445: 20 f0 ff     	jsr	$fff0 <__heap_start+0xbf60>
    1448: 92 26        	sta	($26)                   ; 0x2026 <main+0x1b6c>
    144a: a9 00        	lda	#$0
    144c: 6a           	ror
    144d: 85 28        	sta	$28                     ; 0x2028 <main+0x1b6e>
    144f: 64 7a        	stz	$7a                     ; 0x207a <main+0x1bc0>
    1451: 20 00 ff     	jsr	$ff00 <__heap_start+0xbe70>
    1454: 92 26        	sta	($26)                   ; 0x2026 <main+0x1b6c>
    1456: a9 00        	lda	#$0
    1458: 6a           	ror
    1459: 85 28        	sta	$28                     ; 0x2028 <main+0x1b6e>
    145b: a6 7a        	ldx	$7a                     ; 0x207a <main+0x1bc0>
    145d: e0 52        	cpx	#$52
    145f: d0 ee        	bne	$144f <main+0xf95>
    1461: a6 7e        	ldx	$7e                     ; 0x207e <main+0x1bc4>
    1463: e0 d5        	cpx	#$d5
    1465: d0 e8        	bne	$144f <main+0xf95>
    1467: 18           	clc
    1468: 98           	tya
    1469: 69 01        	adc	#$1
    146b: 85 13        	sta	$13                     ; 0x2013 <main+0x1b59>
    146d: a5 18        	lda	$18                     ; 0x2018 <main+0x1b5e>
    146f: 69 00        	adc	#$0
    1471: 85 18        	sta	$18                     ; 0x2018 <main+0x1b5e>
    1473: a5 19        	lda	$19                     ; 0x2019 <main+0x1b5f>
    1475: 69 00        	adc	#$0
    1477: 85 19        	sta	$19                     ; 0x2019 <main+0x1b5f>
    1479: a5 1a        	lda	$1a                     ; 0x201a <main+0x1b60>
    147b: 69 ff        	adc	#$ff
    147d: c9 01        	cmp	#$1
    147f: f0 03        	beq	$1484 <main+0xfca>
    1481: 4c f8 12     	jmp	$12f8 <main+0xe3e>
    1484: 85 1a        	sta	$1a                     ; 0x201a <main+0x1b60>
    1486: a6 24        	ldx	$24                     ; 0x2024 <main+0x1b6a>
    1488: 8a           	txa
    1489: a0 18        	ldy	#$18
    148b: 91 10        	sta	($10),y                 ; 0x2010 <main+0x1b56>
    148d: a6 19        	ldx	$19                     ; 0x2019 <main+0x1b5f>
    148f: d0 09        	bne	$149a <main+0xfe0>
    1491: a5 18        	lda	$18                     ; 0x2018 <main+0x1b5e>
    1493: f0 03        	beq	$1498 <main+0xfde>
    1495: 4c f5 1b     	jmp	$1bf5 <main+0x173b>
    1498: a6 13        	ldx	$13                     ; 0x2013 <main+0x1b59>
    149a: e0 00        	cpx	#$0
    149c: 90 03        	bcc	$14a1 <main+0xfe7>
    149e: 4c 24 14     	jmp	$1424 <main+0xf6a>
    14a1: 4c 08 13     	jmp	$1308 <main+0xe4e>
    14a4: a5 18        	lda	$18                     ; 0x2018 <main+0x1b5e>
    14a6: 18           	clc
    14a7: 69 16        	adc	#$16
    14a9: 85 18        	sta	$18                     ; 0x2018 <main+0x1b5e>
    14ab: a5 19        	lda	$19                     ; 0x2019 <main+0x1b5f>
    14ad: 69 00        	adc	#$0
    14af: 85 19        	sta	$19                     ; 0x2019 <main+0x1b5f>
    14b1: a5 1e        	lda	$1e                     ; 0x201e <main+0x1b64>
    14b3: d0 03        	bne	$14b8 <main+0xffe>
    14b5: 4c 4d 15     	jmp	$154d <main+0x1093>
    14b8: a0 0c        	ldy	#$c
    14ba: b1 12        	lda	($12),y                 ; 0x2012 <main+0x1b58>
    14bc: 85 1c        	sta	$1c                     ; 0x201c <main+0x1b62>
    14be: a0 01        	ldy	#$1
    14c0: b1 14        	lda	($14),y                 ; 0x2014 <main+0x1b5a>
    14c2: 85 1b        	sta	$1b                     ; 0x201b <main+0x1b61>
    14c4: c8           	iny
    14c5: b1 14        	lda	($14),y                 ; 0x2014 <main+0x1b5a>
    14c7: 85 1a        	sta	$1a                     ; 0x201a <main+0x1b60>
    14c9: c8           	iny
    14ca: b1 14        	lda	($14),y                 ; 0x2014 <main+0x1b5a>
    14cc: 85 17        	sta	$17                     ; 0x2017 <main+0x1b5d>
    14ce: a5 17        	lda	$17                     ; 0x2017 <main+0x1b5d>
    14d0: d0 03        	bne	$14d5 <main+0x101b>
    14d2: 4c 3c 15     	jmp	$153c <main+0x1082>
    14d5: a0 09        	ldy	#$9
    14d7: b1 18        	lda	($18),y                 ; 0x2018 <main+0x1b5e>
    14d9: a0 01        	ldy	#$1
    14db: c9 00        	cmp	#$0
    14dd: d0 46        	bne	$1525 <main+0x106b>
    14df: a5 16        	lda	$16                     ; 0x2016 <main+0x1b5c>
    14e1: d0 04        	bne	$14e7 <main+0x102d>
    14e3: a5 2c        	lda	$2c                     ; 0x202c <main+0x1b72>
    14e5: f0 3e        	beq	$1525 <main+0x106b>
    14e7: b2 18        	lda	($18)                   ; 0x2018 <main+0x1b5e>
    14e9: 85 23        	sta	$23                     ; 0x2023 <main+0x1b69>
    14eb: b1 18        	lda	($18),y                 ; 0x2018 <main+0x1b5e>
    14ed: 85 22        	sta	$22                     ; 0x2022 <main+0x1b68>
    14ef: a0 02        	ldy	#$2
    14f1: b1 18        	lda	($18),y                 ; 0x2018 <main+0x1b5e>
    14f3: 85 1f        	sta	$1f                     ; 0x201f <main+0x1b65>
    14f5: c8           	iny
    14f6: b1 18        	lda	($18),y                 ; 0x2018 <main+0x1b5e>
    14f8: a8           	tay
    14f9: 38           	sec
    14fa: a5 23        	lda	$23                     ; 0x2023 <main+0x1b69>
    14fc: e5 1c        	sbc	$1c                     ; 0x201c <main+0x1b62>
    14fe: 85 1c        	sta	$1c                     ; 0x201c <main+0x1b62>
    1500: a5 22        	lda	$22                     ; 0x2022 <main+0x1b68>
    1502: e5 1b        	sbc	$1b                     ; 0x201b <main+0x1b61>
    1504: 85 1b        	sta	$1b                     ; 0x201b <main+0x1b61>
    1506: a5 1f        	lda	$1f                     ; 0x201f <main+0x1b65>
    1508: e5 1a        	sbc	$1a                     ; 0x201a <main+0x1b60>
    150a: 85 1a        	sta	$1a                     ; 0x201a <main+0x1b60>
    150c: 98           	tya
    150d: e5 17        	sbc	$17                     ; 0x2017 <main+0x1b5d>
    150f: 85 17        	sta	$17                     ; 0x2017 <main+0x1b5d>
    1511: a5 1c        	lda	$1c                     ; 0x201c <main+0x1b62>
    1513: 92 18        	sta	($18)                   ; 0x2018 <main+0x1b5e>
    1515: a5 1b        	lda	$1b                     ; 0x201b <main+0x1b61>
    1517: a0 01        	ldy	#$1
    1519: 91 18        	sta	($18),y                 ; 0x2018 <main+0x1b5e>
    151b: a5 1a        	lda	$1a                     ; 0x201a <main+0x1b60>
    151d: c8           	iny
    151e: 91 18        	sta	($18),y                 ; 0x2018 <main+0x1b5e>
    1520: a5 17        	lda	$17                     ; 0x2017 <main+0x1b5d>
    1522: c8           	iny
    1523: 91 18        	sta	($18),y                 ; 0x2018 <main+0x1b5e>
    1525: a9 ff        	lda	#$ff
    1527: c6 2c        	dec	$2c                     ; 0x202c <main+0x1b72>
    1529: c5 2c        	cmp	$2c                     ; 0x202c <main+0x1b72>
    152b: d0 02        	bne	$152f <main+0x1075>
    152d: c6 16        	dec	$16                     ; 0x2016 <main+0x1b5c>
    152f: ca           	dex
    1530: e0 ff        	cpx	#$ff
    1532: f0 03        	beq	$1537 <main+0x107d>
    1534: 4c a4 14     	jmp	$14a4 <main+0xfea>
    1537: c6 1e        	dec	$1e                     ; 0x201e <main+0x1b64>
    1539: 4c a4 14     	jmp	$14a4 <main+0xfea>
    153c: a5 1a        	lda	$1a                     ; 0x201a <main+0x1b60>
    153e: f0 03        	beq	$1543 <main+0x1089>
    1540: 4c d5 14     	jmp	$14d5 <main+0x101b>
    1543: a5 1b        	lda	$1b                     ; 0x201b <main+0x1b61>
    1545: f0 03        	beq	$154a <main+0x1090>
    1547: 4c d5 14     	jmp	$14d5 <main+0x101b>
    154a: 4c e0 15     	jmp	$15e0 <main+0x1126>
    154d: 8a           	txa
    154e: f0 03        	beq	$1553 <main+0x1099>
    1550: 4c b8 14     	jmp	$14b8 <main+0xffe>
    1553: a2 16        	ldx	#$16
    1555: 86 12        	stx	$12                     ; 0x2012 <main+0x1b58>
    1557: 64 13        	stz	$13                     ; 0x2013 <main+0x1b59>
    1559: a0 16        	ldy	#$16
    155b: b1 10        	lda	($10),y                 ; 0x2010 <main+0x1b56>
    155d: aa           	tax
    155e: a0 18        	ldy	#$18
    1560: b1 10        	lda	($10),y                 ; 0x2010 <main+0x1b56>
    1562: 20 25 3d     	jsr	$3d25 <__mulhi3>
    1565: 86 12        	stx	$12                     ; 0x2012 <main+0x1b58>
    1567: 18           	clc
    1568: 65 2a        	adc	$2a                     ; 0x202a <main+0x1b70>
    156a: a8           	tay
    156b: a5 25        	lda	$25                     ; 0x2025 <main+0x1b6b>
    156d: 65 12        	adc	$12                     ; 0x2012 <main+0x1b58>
    156f: 5a           	phy
    1570: fa           	plx
    1571: 84 12        	sty	$12                     ; 0x2012 <main+0x1b58>
    1573: 85 14        	sta	$14                     ; 0x2014 <main+0x1b5a>
    1575: 85 13        	sta	$13                     ; 0x2013 <main+0x1b59>
    1577: a0 15        	ldy	#$15
    1579: b1 12        	lda	($12),y                 ; 0x2012 <main+0x1b58>
    157b: f0 03        	beq	$1580 <main+0x10c6>
    157d: 4c 78 1a     	jmp	$1a78 <main+0x15be>
    1580: 18           	clc
    1581: 8a           	txa
    1582: 69 04        	adc	#$4
    1584: aa           	tax
    1585: a5 14        	lda	$14                     ; 0x2014 <main+0x1b5a>
    1587: 69 00        	adc	#$0
    1589: 86 14        	stx	$14                     ; 0x2014 <main+0x1b5a>
    158b: 85 15        	sta	$15                     ; 0x2015 <main+0x1b5b>
    158d: a0 03        	ldy	#$3
    158f: b1 14        	lda	($14),y                 ; 0x2014 <main+0x1b5a>
    1591: d1 12        	cmp	($12),y                 ; 0x2012 <main+0x1b58>
    1593: d0 2d        	bne	$15c2 <main+0x1108>
    1595: a0 02        	ldy	#$2
    1597: b1 14        	lda	($14),y                 ; 0x2014 <main+0x1b5a>
    1599: aa           	tax
    159a: b1 12        	lda	($12),y                 ; 0x2012 <main+0x1b58>
    159c: 85 16        	sta	$16                     ; 0x2016 <main+0x1b5c>
    159e: e4 16        	cpx	$16                     ; 0x2016 <main+0x1b5c>
    15a0: d0 27        	bne	$15c9 <main+0x110f>
    15a2: a0 01        	ldy	#$1
    15a4: b1 14        	lda	($14),y                 ; 0x2014 <main+0x1b5a>
    15a6: aa           	tax
    15a7: b1 12        	lda	($12),y                 ; 0x2012 <main+0x1b58>
    15a9: 85 14        	sta	$14                     ; 0x2014 <main+0x1b5a>
    15ab: e4 14        	cpx	$14                     ; 0x2014 <main+0x1b5a>
    15ad: d0 21        	bne	$15d0 <main+0x1116>
    15af: a0 04        	ldy	#$4
    15b1: b1 12        	lda	($12),y                 ; 0x2012 <main+0x1b58>
    15b3: 85 14        	sta	$14                     ; 0x2014 <main+0x1b5a>
    15b5: b2 12        	lda	($12)                   ; 0x2012 <main+0x1b58>
    15b7: 85 12        	sta	$12                     ; 0x2012 <main+0x1b58>
    15b9: a6 14        	ldx	$14                     ; 0x2014 <main+0x1b5a>
    15bb: e4 12        	cpx	$12                     ; 0x2012 <main+0x1b58>
    15bd: 90 18        	bcc	$15d7 <main+0x111d>
    15bf: 4c 78 1a     	jmp	$1a78 <main+0x15be>
    15c2: d1 12        	cmp	($12),y                 ; 0x2012 <main+0x1b58>
    15c4: 90 11        	bcc	$15d7 <main+0x111d>
    15c6: 4c 78 1a     	jmp	$1a78 <main+0x15be>
    15c9: e4 16        	cpx	$16                     ; 0x2016 <main+0x1b5c>
    15cb: 90 0a        	bcc	$15d7 <main+0x111d>
    15cd: 4c 78 1a     	jmp	$1a78 <main+0x15be>
    15d0: e4 14        	cpx	$14                     ; 0x2014 <main+0x1b5a>
    15d2: 90 03        	bcc	$15d7 <main+0x111d>
    15d4: 4c 78 1a     	jmp	$1a78 <main+0x15be>
    15d7: a0 18        	ldy	#$18
    15d9: b1 10        	lda	($10),y                 ; 0x2010 <main+0x1b56>
    15db: 85 2c        	sta	$2c                     ; 0x202c <main+0x1b72>
    15dd: 4c ef 16     	jmp	$16ef <main+0x1235>
    15e0: a5 1c        	lda	$1c                     ; 0x201c <main+0x1b62>
    15e2: f0 03        	beq	$15e7 <main+0x112d>
    15e4: 4c d5 14     	jmp	$14d5 <main+0x101b>
    15e7: 4c 53 15     	jmp	$1553 <main+0x1099>
    15ea: 85 1d        	sta	$1d                     ; 0x201d <main+0x1b63>
    15ec: a0 04        	ldy	#$4
    15ee: a5 1a        	lda	$1a                     ; 0x201a <main+0x1b60>
    15f0: 91 12        	sta	($12),y                 ; 0x2012 <main+0x1b58>
    15f2: a0 01        	ldy	#$1
    15f4: a5 1b        	lda	$1b                     ; 0x201b <main+0x1b61>
    15f6: 91 16        	sta	($16),y                 ; 0x2016 <main+0x1b5c>
    15f8: c8           	iny
    15f9: a5 1c        	lda	$1c                     ; 0x201c <main+0x1b62>
    15fb: 91 16        	sta	($16),y                 ; 0x2016 <main+0x1b5c>
    15fd: c8           	iny
    15fe: a5 1d        	lda	$1d                     ; 0x201d <main+0x1b63>
    1600: 91 16        	sta	($16),y                 ; 0x2016 <main+0x1b5c>
    1602: 18           	clc
    1603: a0 08        	ldy	#$8
    1605: a5 18        	lda	$18                     ; 0x2018 <main+0x1b5e>
    1607: 71 12        	adc	($12),y                 ; 0x2012 <main+0x1b58>
    1609: 85 16        	sta	$16                     ; 0x2016 <main+0x1b5c>
    160b: a5 19        	lda	$19                     ; 0x2019 <main+0x1b5f>
    160d: a0 01        	ldy	#$1
    160f: 71 14        	adc	($14),y                 ; 0x2014 <main+0x1b5a>
    1611: 85 12        	sta	$12                     ; 0x2012 <main+0x1b58>
    1613: 8a           	txa
    1614: c8           	iny
    1615: 71 14        	adc	($14),y                 ; 0x2014 <main+0x1b5a>
    1617: 85 13        	sta	$13                     ; 0x2013 <main+0x1b59>
    1619: a5 12        	lda	$12                     ; 0x2012 <main+0x1b58>
    161b: 06 12        	asl	$12                     ; 0x2012 <main+0x1b58>
    161d: 26 13        	rol	$13                     ; 0x2013 <main+0x1b59>
    161f: 06 12        	asl	$12                     ; 0x2012 <main+0x1b58>
    1621: 26 13        	rol	$13                     ; 0x2013 <main+0x1b59>
    1623: 06 12        	asl	$12                     ; 0x2012 <main+0x1b58>
    1625: 26 13        	rol	$13                     ; 0x2013 <main+0x1b59>
    1627: a4 13        	ldy	$13                     ; 0x2013 <main+0x1b59>
    1629: a6 0f        	ldx	$f                      ; 0x200f <main+0x1b55>
    162b: 78           	sei
    162c: 84 0f        	sty	$f                      ; 0x200f <main+0x1b55>
    162e: a4 16        	ldy	$16                     ; 0x2016 <main+0x1b5c>
    1630: 84 12        	sty	$12                     ; 0x2012 <main+0x1b58>
    1632: 09 e0        	ora	#$e0
    1634: 85 13        	sta	$13                     ; 0x2013 <main+0x1b59>
    1636: b2 12        	lda	($12)                   ; 0x2012 <main+0x1b58>
    1638: 86 0f        	stx	$f                      ; 0x200f <main+0x1b55>
    163a: 58           	cli
    163b: aa           	tax
    163c: 10 03        	bpl	$1641 <main+0x1187>
    163e: 4c 63 17     	jmp	$1763 <main+0x12a9>
    1641: 85 2e        	sta	$2e                     ; 0x202e <main+0x1b74>
    1643: 64 2f        	stz	$2f                     ; 0x202f <main+0x1b75>
    1645: 64 17        	stz	$17                     ; 0x2017 <main+0x1b5d>
    1647: a9 00        	lda	#$0
    1649: 64 24        	stz	$24                     ; 0x2024 <main+0x1b6a>
    164b: 64 25        	stz	$25                     ; 0x2025 <main+0x1b6b>
    164d: 64 12        	stz	$12                     ; 0x2012 <main+0x1b58>
    164f: 64 13        	stz	$13                     ; 0x2013 <main+0x1b59>
    1651: 64 14        	stz	$14                     ; 0x2014 <main+0x1b5a>
    1653: 64 2d        	stz	$2d                     ; 0x202d <main+0x1b73>
    1655: 85 16        	sta	$16                     ; 0x2016 <main+0x1b5c>
    1657: a5 2e        	lda	$2e                     ; 0x202e <main+0x1b74>
    1659: 05 16        	ora	$16                     ; 0x2016 <main+0x1b5c>
    165b: a8           	tay
    165c: a5 2d        	lda	$2d                     ; 0x202d <main+0x1b73>
    165e: 05 24        	ora	$24                     ; 0x2024 <main+0x1b6a>
    1660: aa           	tax
    1661: a5 2f        	lda	$2f                     ; 0x202f <main+0x1b75>
    1663: 05 25        	ora	$25                     ; 0x2025 <main+0x1b6b>
    1665: 85 16        	sta	$16                     ; 0x2016 <main+0x1b5c>
    1667: 98           	tya
    1668: 05 12        	ora	$12                     ; 0x2012 <main+0x1b58>
    166a: a8           	tay
    166b: 8a           	txa
    166c: 05 13        	ora	$13                     ; 0x2013 <main+0x1b59>
    166e: 85 15        	sta	$15                     ; 0x2015 <main+0x1b5b>
    1670: 98           	tya
    1671: 05 14        	ora	$14                     ; 0x2014 <main+0x1b5a>
    1673: 85 14        	sta	$14                     ; 0x2014 <main+0x1b5a>
    1675: a5 70        	lda	$70                     ; 0x2070 <main+0x1bb6>
    1677: a6 71        	ldx	$71                     ; 0x2071 <main+0x1bb7>
    1679: 86 18        	stx	$18                     ; 0x2018 <main+0x1b5e>
    167b: a4 72        	ldy	$72                     ; 0x2072 <main+0x1bb8>
    167d: a6 73        	ldx	$73                     ; 0x2073 <main+0x1bb9>
    167f: 84 12        	sty	$12                     ; 0x2012 <main+0x1b58>
    1681: 86 13        	stx	$13                     ; 0x2013 <main+0x1b59>
    1683: a6 18        	ldx	$18                     ; 0x2018 <main+0x1b5e>
    1685: 20 57 3d     	jsr	$3d57 <__mulsi3>
    1688: 85 24        	sta	$24                     ; 0x2024 <main+0x1b6a>
    168a: 86 25        	stx	$25                     ; 0x2025 <main+0x1b6b>
    168c: a6 12        	ldx	$12                     ; 0x2012 <main+0x1b58>
    168e: 86 2a        	stx	$2a                     ; 0x202a <main+0x1b70>
    1690: a6 13        	ldx	$13                     ; 0x2013 <main+0x1b59>
    1692: 86 2d        	stx	$2d                     ; 0x202d <main+0x1b73>
    1694: a6 78        	ldx	$78                     ; 0x2078 <main+0x1bbe>
    1696: 86 2f        	stx	$2f                     ; 0x202f <main+0x1b75>
    1698: a6 79        	ldx	$79                     ; 0x2079 <main+0x1bbf>
    169a: 86 2e        	stx	$2e                     ; 0x202e <main+0x1b74>
    169c: a2 16        	ldx	#$16
    169e: 86 12        	stx	$12                     ; 0x2012 <main+0x1b58>
    16a0: 64 13        	stz	$13                     ; 0x2013 <main+0x1b59>
    16a2: 64 2b        	stz	$2b                     ; 0x202b <main+0x1b71>
    16a4: a2 00        	ldx	#$0
    16a6: a0 18        	ldy	#$18
    16a8: b1 10        	lda	($10),y                 ; 0x2010 <main+0x1b56>
    16aa: 85 2c        	sta	$2c                     ; 0x202c <main+0x1b72>
    16ac: 20 25 3d     	jsr	$3d25 <__mulhi3>
    16af: 85 12        	sta	$12                     ; 0x2012 <main+0x1b58>
    16b1: 86 13        	stx	$13                     ; 0x2013 <main+0x1b59>
    16b3: 18           	clc
    16b4: a5 2f        	lda	$2f                     ; 0x202f <main+0x1b75>
    16b6: 65 12        	adc	$12                     ; 0x2012 <main+0x1b58>
    16b8: a8           	tay
    16b9: a5 2e        	lda	$2e                     ; 0x202e <main+0x1b74>
    16bb: 65 13        	adc	$13                     ; 0x2013 <main+0x1b59>
    16bd: aa           	tax
    16be: 98           	tya
    16bf: 84 12        	sty	$12                     ; 0x2012 <main+0x1b58>
    16c1: 86 13        	stx	$13                     ; 0x2013 <main+0x1b59>
    16c3: 18           	clc
    16c4: 69 0c        	adc	#$c
    16c6: 85 14        	sta	$14                     ; 0x2014 <main+0x1b5a>
    16c8: 8a           	txa
    16c9: 69 00        	adc	#$0
    16cb: 85 15        	sta	$15                     ; 0x2015 <main+0x1b5b>
    16cd: a0 0c        	ldy	#$c
    16cf: a5 24        	lda	$24                     ; 0x2024 <main+0x1b6a>
    16d1: 91 12        	sta	($12),y                 ; 0x2012 <main+0x1b58>
    16d3: a0 01        	ldy	#$1
    16d5: a5 25        	lda	$25                     ; 0x2025 <main+0x1b6b>
    16d7: 91 14        	sta	($14),y                 ; 0x2014 <main+0x1b5a>
    16d9: c8           	iny
    16da: a5 2a        	lda	$2a                     ; 0x202a <main+0x1b70>
    16dc: 91 14        	sta	($14),y                 ; 0x2014 <main+0x1b5a>
    16de: c8           	iny
    16df: a5 2d        	lda	$2d                     ; 0x202d <main+0x1b73>
    16e1: 91 14        	sta	($14),y                 ; 0x2014 <main+0x1b5a>
    16e3: a5 2c        	lda	$2c                     ; 0x202c <main+0x1b72>
    16e5: 20 10 22     	jsr	$2210 <readMIDICmd>
    16e8: c9 01        	cmp	#$1
    16ea: f0 03        	beq	$16ef <main+0x1235>
    16ec: 4c 3e 1a     	jmp	$1a3e <main+0x1584>
    16ef: a6 78        	ldx	$78                     ; 0x2078 <main+0x1bbe>
    16f1: 86 25        	stx	$25                     ; 0x2025 <main+0x1b6b>
    16f3: a6 79        	ldx	$79                     ; 0x2079 <main+0x1bbf>
    16f5: 86 24        	stx	$24                     ; 0x2024 <main+0x1b6a>
    16f7: a2 16        	ldx	#$16
    16f9: 86 12        	stx	$12                     ; 0x2012 <main+0x1b58>
    16fb: 64 13        	stz	$13                     ; 0x2013 <main+0x1b59>
    16fd: a2 00        	ldx	#$0
    16ff: a5 2c        	lda	$2c                     ; 0x202c <main+0x1b72>
    1701: 20 25 3d     	jsr	$3d25 <__mulhi3>
    1704: 85 12        	sta	$12                     ; 0x2012 <main+0x1b58>
    1706: 86 13        	stx	$13                     ; 0x2013 <main+0x1b59>
    1708: 18           	clc
    1709: a5 25        	lda	$25                     ; 0x2025 <main+0x1b6b>
    170b: 65 12        	adc	$12                     ; 0x2012 <main+0x1b58>
    170d: a8           	tay
    170e: a5 24        	lda	$24                     ; 0x2024 <main+0x1b6a>
    1710: 65 13        	adc	$13                     ; 0x2013 <main+0x1b59>
    1712: aa           	tax
    1713: 84 12        	sty	$12                     ; 0x2012 <main+0x1b58>
    1715: 85 13        	sta	$13                     ; 0x2013 <main+0x1b59>
    1717: 18           	clc
    1718: 98           	tya
    1719: 69 08        	adc	#$8
    171b: 85 14        	sta	$14                     ; 0x2014 <main+0x1b5a>
    171d: 8a           	txa
    171e: 69 00        	adc	#$0
    1720: 85 15        	sta	$15                     ; 0x2015 <main+0x1b5b>
    1722: 18           	clc
    1723: 98           	tya
    1724: 69 04        	adc	#$4
    1726: 85 16        	sta	$16                     ; 0x2016 <main+0x1b5c>
    1728: 8a           	txa
    1729: 69 00        	adc	#$0
    172b: 85 17        	sta	$17                     ; 0x2017 <main+0x1b5d>
    172d: a0 04        	ldy	#$4
    172f: b1 12        	lda	($12),y                 ; 0x2012 <main+0x1b58>
    1731: 85 18        	sta	$18                     ; 0x2018 <main+0x1b5e>
    1733: a0 01        	ldy	#$1
    1735: b1 16        	lda	($16),y                 ; 0x2016 <main+0x1b5c>
    1737: 85 19        	sta	$19                     ; 0x2019 <main+0x1b5f>
    1739: c8           	iny
    173a: b1 16        	lda	($16),y                 ; 0x2016 <main+0x1b5c>
    173c: aa           	tax
    173d: c8           	iny
    173e: b1 16        	lda	($16),y                 ; 0x2016 <main+0x1b5c>
    1740: a4 18        	ldy	$18                     ; 0x2018 <main+0x1b5e>
    1742: 84 1a        	sty	$1a                     ; 0x201a <main+0x1b60>
    1744: a4 19        	ldy	$19                     ; 0x2019 <main+0x1b5f>
    1746: 84 1b        	sty	$1b                     ; 0x201b <main+0x1b61>
    1748: 86 1c        	stx	$1c                     ; 0x201c <main+0x1b62>
    174a: e6 1a        	inc	$1a                     ; 0x201a <main+0x1b60>
    174c: f0 03        	beq	$1751 <main+0x1297>
    174e: 4c ea 15     	jmp	$15ea <main+0x1130>
    1751: e6 1b        	inc	$1b                     ; 0x201b <main+0x1b61>
    1753: f0 03        	beq	$1758 <main+0x129e>
    1755: 4c ea 15     	jmp	$15ea <main+0x1130>
    1758: e6 1c        	inc	$1c                     ; 0x201c <main+0x1b62>
    175a: f0 03        	beq	$175f <main+0x12a5>
    175c: 4c ea 15     	jmp	$15ea <main+0x1130>
    175f: 1a           	inc
    1760: 4c ea 15     	jmp	$15ea <main+0x1130>
    1763: 4a           	lsr
    1764: aa           	tax
    1765: a9 00        	lda	#$0
    1767: 6a           	ror
    1768: 29 80        	and	#$80
    176a: 85 2e        	sta	$2e                     ; 0x202e <main+0x1b74>
    176c: 8a           	txa
    176d: 29 3f        	and	#$3f
    176f: 85 2d        	sta	$2d                     ; 0x202d <main+0x1b73>
    1771: a6 78        	ldx	$78                     ; 0x2078 <main+0x1bbe>
    1773: 86 25        	stx	$25                     ; 0x2025 <main+0x1b6b>
    1775: a6 79        	ldx	$79                     ; 0x2079 <main+0x1bbf>
    1777: 86 24        	stx	$24                     ; 0x2024 <main+0x1b6a>
    1779: a2 16        	ldx	#$16
    177b: 86 12        	stx	$12                     ; 0x2012 <main+0x1b58>
    177d: 64 13        	stz	$13                     ; 0x2013 <main+0x1b59>
    177f: a2 00        	ldx	#$0
    1781: a5 2c        	lda	$2c                     ; 0x202c <main+0x1b72>
    1783: 20 25 3d     	jsr	$3d25 <__mulhi3>
    1786: 85 12        	sta	$12                     ; 0x2012 <main+0x1b58>
    1788: 86 13        	stx	$13                     ; 0x2013 <main+0x1b59>
    178a: 18           	clc
    178b: a5 25        	lda	$25                     ; 0x2025 <main+0x1b6b>
    178d: 65 12        	adc	$12                     ; 0x2012 <main+0x1b58>
    178f: a8           	tay
    1790: a5 24        	lda	$24                     ; 0x2024 <main+0x1b6a>
    1792: 65 13        	adc	$13                     ; 0x2013 <main+0x1b59>
    1794: aa           	tax
    1795: 84 12        	sty	$12                     ; 0x2012 <main+0x1b58>
    1797: 85 13        	sta	$13                     ; 0x2013 <main+0x1b59>
    1799: 18           	clc
    179a: 98           	tya
    179b: 69 08        	adc	#$8
    179d: 85 14        	sta	$14                     ; 0x2014 <main+0x1b5a>
    179f: 8a           	txa
    17a0: 69 00        	adc	#$0
    17a2: 85 15        	sta	$15                     ; 0x2015 <main+0x1b5b>
    17a4: 18           	clc
    17a5: 98           	tya
    17a6: 69 04        	adc	#$4
    17a8: 85 16        	sta	$16                     ; 0x2016 <main+0x1b5c>
    17aa: 8a           	txa
    17ab: 69 00        	adc	#$0
    17ad: 85 17        	sta	$17                     ; 0x2017 <main+0x1b5d>
    17af: a0 04        	ldy	#$4
    17b1: b1 12        	lda	($12),y                 ; 0x2012 <main+0x1b58>
    17b3: 85 18        	sta	$18                     ; 0x2018 <main+0x1b5e>
    17b5: a0 01        	ldy	#$1
    17b7: b1 16        	lda	($16),y                 ; 0x2016 <main+0x1b5c>
    17b9: 85 19        	sta	$19                     ; 0x2019 <main+0x1b5f>
    17bb: c8           	iny
    17bc: b1 16        	lda	($16),y                 ; 0x2016 <main+0x1b5c>
    17be: aa           	tax
    17bf: c8           	iny
    17c0: b1 16        	lda	($16),y                 ; 0x2016 <main+0x1b5c>
    17c2: 85 1b        	sta	$1b                     ; 0x201b <main+0x1b61>
    17c4: a5 18        	lda	$18                     ; 0x2018 <main+0x1b5e>
    17c6: a4 19        	ldy	$19                     ; 0x2019 <main+0x1b5f>
    17c8: 86 1c        	stx	$1c                     ; 0x201c <main+0x1b62>
    17ca: 1a           	inc
    17cb: d0 09        	bne	$17d6 <main+0x131c>
    17cd: c8           	iny
    17ce: d0 06        	bne	$17d6 <main+0x131c>
    17d0: e6 1c        	inc	$1c                     ; 0x201c <main+0x1b62>
    17d2: d0 02        	bne	$17d6 <main+0x131c>
    17d4: e6 1b        	inc	$1b                     ; 0x201b <main+0x1b61>
    17d6: 84 1d        	sty	$1d                     ; 0x201d <main+0x1b63>
    17d8: a0 04        	ldy	#$4
    17da: 91 12        	sta	($12),y                 ; 0x2012 <main+0x1b58>
    17dc: a0 01        	ldy	#$1
    17de: a5 1d        	lda	$1d                     ; 0x201d <main+0x1b63>
    17e0: 91 16        	sta	($16),y                 ; 0x2016 <main+0x1b5c>
    17e2: c8           	iny
    17e3: a5 1c        	lda	$1c                     ; 0x201c <main+0x1b62>
    17e5: 91 16        	sta	($16),y                 ; 0x2016 <main+0x1b5c>
    17e7: c8           	iny
    17e8: a5 1b        	lda	$1b                     ; 0x201b <main+0x1b61>
    17ea: 91 16        	sta	($16),y                 ; 0x2016 <main+0x1b5c>
    17ec: 18           	clc
    17ed: a5 18        	lda	$18                     ; 0x2018 <main+0x1b5e>
    17ef: a0 08        	ldy	#$8
    17f1: 71 12        	adc	($12),y                 ; 0x2012 <main+0x1b58>
    17f3: 85 13        	sta	$13                     ; 0x2013 <main+0x1b59>
    17f5: a5 19        	lda	$19                     ; 0x2019 <main+0x1b5f>
    17f7: a0 01        	ldy	#$1
    17f9: 71 14        	adc	($14),y                 ; 0x2014 <main+0x1b5a>
    17fb: 85 12        	sta	$12                     ; 0x2012 <main+0x1b58>
    17fd: c8           	iny
    17fe: 8a           	txa
    17ff: 71 14        	adc	($14),y                 ; 0x2014 <main+0x1b5a>
    1801: 85 14        	sta	$14                     ; 0x2014 <main+0x1b5a>
    1803: a5 12        	lda	$12                     ; 0x2012 <main+0x1b58>
    1805: 06 12        	asl	$12                     ; 0x2012 <main+0x1b58>
    1807: 26 14        	rol	$14                     ; 0x2014 <main+0x1b5a>
    1809: 06 12        	asl	$12                     ; 0x2012 <main+0x1b58>
    180b: 26 14        	rol	$14                     ; 0x2014 <main+0x1b5a>
    180d: 06 12        	asl	$12                     ; 0x2012 <main+0x1b58>
    180f: 26 14        	rol	$14                     ; 0x2014 <main+0x1b5a>
    1811: a4 14        	ldy	$14                     ; 0x2014 <main+0x1b5a>
    1813: a6 0f        	ldx	$f                      ; 0x200f <main+0x1b55>
    1815: 78           	sei
    1816: 84 0f        	sty	$f                      ; 0x200f <main+0x1b55>
    1818: a4 13        	ldy	$13                     ; 0x2013 <main+0x1b59>
    181a: 84 12        	sty	$12                     ; 0x2012 <main+0x1b58>
    181c: 09 e0        	ora	#$e0
    181e: 85 13        	sta	$13                     ; 0x2013 <main+0x1b59>
    1820: b2 12        	lda	($12)                   ; 0x2012 <main+0x1b58>
    1822: 86 0f        	stx	$f                      ; 0x200f <main+0x1b55>
    1824: 58           	cli
    1825: aa           	tax
    1826: 30 11        	bmi	$1839 <main+0x137f>
    1828: 64 17        	stz	$17                     ; 0x2017 <main+0x1b5d>
    182a: 64 24        	stz	$24                     ; 0x2024 <main+0x1b6a>
    182c: 64 25        	stz	$25                     ; 0x2025 <main+0x1b6b>
    182e: 64 12        	stz	$12                     ; 0x2012 <main+0x1b58>
    1830: 64 2f        	stz	$2f                     ; 0x202f <main+0x1b75>
    1832: 64 13        	stz	$13                     ; 0x2013 <main+0x1b59>
    1834: 64 14        	stz	$14                     ; 0x2014 <main+0x1b5a>
    1836: 4c 55 16     	jmp	$1655 <main+0x119b>
    1839: 64 13        	stz	$13                     ; 0x2013 <main+0x1b59>
    183b: 4a           	lsr
    183c: aa           	tax
    183d: a9 00        	lda	#$0
    183f: 6a           	ror
    1840: 29 80        	and	#$80
    1842: a0 17        	ldy	#$17
    1844: 91 10        	sta	($10),y                 ; 0x2010 <main+0x1b56>
    1846: 8a           	txa
    1847: 29 3f        	and	#$3f
    1849: 85 24        	sta	$24                     ; 0x2024 <main+0x1b6a>
    184b: a6 2d        	ldx	$2d                     ; 0x202d <main+0x1b73>
    184d: 86 2f        	stx	$2f                     ; 0x202f <main+0x1b75>
    184f: 46 2f        	lsr	$2f                     ; 0x202f <main+0x1b75>
    1851: a6 2e        	ldx	$2e                     ; 0x202e <main+0x1b74>
    1853: 86 2d        	stx	$2d                     ; 0x202d <main+0x1b73>
    1855: 66 2d        	ror	$2d                     ; 0x202d <main+0x1b73>
    1857: 64 2e        	stz	$2e                     ; 0x202e <main+0x1b74>
    1859: 66 2e        	ror	$2e                     ; 0x202e <main+0x1b74>
    185b: a6 78        	ldx	$78                     ; 0x2078 <main+0x1bbe>
    185d: 86 2a        	stx	$2a                     ; 0x202a <main+0x1b70>
    185f: a6 79        	ldx	$79                     ; 0x2079 <main+0x1bbf>
    1861: 86 25        	stx	$25                     ; 0x2025 <main+0x1b6b>
    1863: a2 16        	ldx	#$16
    1865: 86 12        	stx	$12                     ; 0x2012 <main+0x1b58>
    1867: a2 00        	ldx	#$0
    1869: a5 2c        	lda	$2c                     ; 0x202c <main+0x1b72>
    186b: 20 25 3d     	jsr	$3d25 <__mulhi3>
    186e: 85 12        	sta	$12                     ; 0x2012 <main+0x1b58>
    1870: 86 13        	stx	$13                     ; 0x2013 <main+0x1b59>
    1872: 18           	clc
    1873: a5 2a        	lda	$2a                     ; 0x202a <main+0x1b70>
    1875: 65 12        	adc	$12                     ; 0x2012 <main+0x1b58>
    1877: a8           	tay
    1878: a5 25        	lda	$25                     ; 0x2025 <main+0x1b6b>
    187a: 65 13        	adc	$13                     ; 0x2013 <main+0x1b59>
    187c: aa           	tax
    187d: 84 12        	sty	$12                     ; 0x2012 <main+0x1b58>
    187f: 85 13        	sta	$13                     ; 0x2013 <main+0x1b59>
    1881: 18           	clc
    1882: 98           	tya
    1883: 69 08        	adc	#$8
    1885: 85 14        	sta	$14                     ; 0x2014 <main+0x1b5a>
    1887: 8a           	txa
    1888: 69 00        	adc	#$0
    188a: 85 15        	sta	$15                     ; 0x2015 <main+0x1b5b>
    188c: 18           	clc
    188d: 98           	tya
    188e: 69 04        	adc	#$4
    1890: 85 16        	sta	$16                     ; 0x2016 <main+0x1b5c>
    1892: 8a           	txa
    1893: 69 00        	adc	#$0
    1895: 85 17        	sta	$17                     ; 0x2017 <main+0x1b5d>
    1897: a0 04        	ldy	#$4
    1899: b1 12        	lda	($12),y                 ; 0x2012 <main+0x1b58>
    189b: 85 18        	sta	$18                     ; 0x2018 <main+0x1b5e>
    189d: a0 01        	ldy	#$1
    189f: b1 16        	lda	($16),y                 ; 0x2016 <main+0x1b5c>
    18a1: 85 19        	sta	$19                     ; 0x2019 <main+0x1b5f>
    18a3: c8           	iny
    18a4: b1 16        	lda	($16),y                 ; 0x2016 <main+0x1b5c>
    18a6: aa           	tax
    18a7: c8           	iny
    18a8: b1 16        	lda	($16),y                 ; 0x2016 <main+0x1b5c>
    18aa: a4 18        	ldy	$18                     ; 0x2018 <main+0x1b5e>
    18ac: 84 1a        	sty	$1a                     ; 0x201a <main+0x1b60>
    18ae: a4 19        	ldy	$19                     ; 0x2019 <main+0x1b5f>
    18b0: 84 1b        	sty	$1b                     ; 0x201b <main+0x1b61>
    18b2: 86 1c        	stx	$1c                     ; 0x201c <main+0x1b62>
    18b4: e6 1a        	inc	$1a                     ; 0x201a <main+0x1b60>
    18b6: d0 09        	bne	$18c1 <main+0x1407>
    18b8: e6 1b        	inc	$1b                     ; 0x201b <main+0x1b61>
    18ba: d0 05        	bne	$18c1 <main+0x1407>
    18bc: e6 1c        	inc	$1c                     ; 0x201c <main+0x1b62>
    18be: d0 01        	bne	$18c1 <main+0x1407>
    18c0: 1a           	inc
    18c1: 85 1d        	sta	$1d                     ; 0x201d <main+0x1b63>
    18c3: a0 04        	ldy	#$4
    18c5: a5 1a        	lda	$1a                     ; 0x201a <main+0x1b60>
    18c7: 91 12        	sta	($12),y                 ; 0x2012 <main+0x1b58>
    18c9: a0 01        	ldy	#$1
    18cb: a5 1b        	lda	$1b                     ; 0x201b <main+0x1b61>
    18cd: 91 16        	sta	($16),y                 ; 0x2016 <main+0x1b5c>
    18cf: c8           	iny
    18d0: a5 1c        	lda	$1c                     ; 0x201c <main+0x1b62>
    18d2: 91 16        	sta	($16),y                 ; 0x2016 <main+0x1b5c>
    18d4: c8           	iny
    18d5: a5 1d        	lda	$1d                     ; 0x201d <main+0x1b63>
    18d7: 91 16        	sta	($16),y                 ; 0x2016 <main+0x1b5c>
    18d9: 18           	clc
    18da: a0 08        	ldy	#$8
    18dc: a5 18        	lda	$18                     ; 0x2018 <main+0x1b5e>
    18de: 71 12        	adc	($12),y                 ; 0x2012 <main+0x1b58>
    18e0: 85 13        	sta	$13                     ; 0x2013 <main+0x1b59>
    18e2: a5 19        	lda	$19                     ; 0x2019 <main+0x1b5f>
    18e4: a0 01        	ldy	#$1
    18e6: 71 14        	adc	($14),y                 ; 0x2014 <main+0x1b5a>
    18e8: 85 12        	sta	$12                     ; 0x2012 <main+0x1b58>
    18ea: c8           	iny
    18eb: 8a           	txa
    18ec: 71 14        	adc	($14),y                 ; 0x2014 <main+0x1b5a>
    18ee: 85 14        	sta	$14                     ; 0x2014 <main+0x1b5a>
    18f0: a5 12        	lda	$12                     ; 0x2012 <main+0x1b58>
    18f2: 06 12        	asl	$12                     ; 0x2012 <main+0x1b58>
    18f4: 26 14        	rol	$14                     ; 0x2014 <main+0x1b5a>
    18f6: 06 12        	asl	$12                     ; 0x2012 <main+0x1b58>
    18f8: 26 14        	rol	$14                     ; 0x2014 <main+0x1b5a>
    18fa: 06 12        	asl	$12                     ; 0x2012 <main+0x1b58>
    18fc: 26 14        	rol	$14                     ; 0x2014 <main+0x1b5a>
    18fe: a4 14        	ldy	$14                     ; 0x2014 <main+0x1b5a>
    1900: a6 0f        	ldx	$f                      ; 0x200f <main+0x1b55>
    1902: 78           	sei
    1903: 84 0f        	sty	$f                      ; 0x200f <main+0x1b55>
    1905: a4 13        	ldy	$13                     ; 0x2013 <main+0x1b59>
    1907: 84 12        	sty	$12                     ; 0x2012 <main+0x1b58>
    1909: 09 e0        	ora	#$e0
    190b: 85 13        	sta	$13                     ; 0x2013 <main+0x1b59>
    190d: b2 12        	lda	($12)                   ; 0x2012 <main+0x1b58>
    190f: 86 0f        	stx	$f                      ; 0x200f <main+0x1b55>
    1911: 58           	cli
    1912: aa           	tax
    1913: 30 11        	bmi	$1926 <main+0x146c>
    1915: 64 25        	stz	$25                     ; 0x2025 <main+0x1b6b>
    1917: 85 12        	sta	$12                     ; 0x2012 <main+0x1b58>
    1919: 64 13        	stz	$13                     ; 0x2013 <main+0x1b59>
    191b: 64 14        	stz	$14                     ; 0x2014 <main+0x1b5a>
    191d: 64 17        	stz	$17                     ; 0x2017 <main+0x1b5d>
    191f: a0 17        	ldy	#$17
    1921: b1 10        	lda	($10),y                 ; 0x2010 <main+0x1b56>
    1923: 4c 55 16     	jmp	$1655 <main+0x119b>
    1926: 85 14        	sta	$14                     ; 0x2014 <main+0x1b5a>
    1928: 46 14        	lsr	$14                     ; 0x2014 <main+0x1b5a>
    192a: 64 12        	stz	$12                     ; 0x2012 <main+0x1b58>
    192c: 66 12        	ror	$12                     ; 0x2012 <main+0x1b58>
    192e: 46 24        	lsr	$24                     ; 0x2024 <main+0x1b6a>
    1930: a5 24        	lda	$24                     ; 0x2024 <main+0x1b6a>
    1932: a0 14        	ldy	#$14
    1934: 91 10        	sta	($10),y                 ; 0x2010 <main+0x1b56>
    1936: a0 17        	ldy	#$17
    1938: b1 10        	lda	($10),y                 ; 0x2010 <main+0x1b56>
    193a: 85 24        	sta	$24                     ; 0x2024 <main+0x1b6a>
    193c: 66 24        	ror	$24                     ; 0x2024 <main+0x1b6a>
    193e: a9 00        	lda	#$0
    1940: 6a           	ror
    1941: 91 10        	sta	($10),y                 ; 0x2010 <main+0x1b56>
    1943: a6 2f        	ldx	$2f                     ; 0x202f <main+0x1b75>
    1945: 86 2a        	stx	$2a                     ; 0x202a <main+0x1b70>
    1947: 46 2a        	lsr	$2a                     ; 0x202a <main+0x1b70>
    1949: 66 2d        	ror	$2d                     ; 0x202d <main+0x1b73>
    194b: a6 2d        	ldx	$2d                     ; 0x202d <main+0x1b73>
    194d: 86 2f        	stx	$2f                     ; 0x202f <main+0x1b75>
    194f: a6 2e        	ldx	$2e                     ; 0x202e <main+0x1b74>
    1951: 86 2d        	stx	$2d                     ; 0x202d <main+0x1b73>
    1953: 66 2d        	ror	$2d                     ; 0x202d <main+0x1b73>
    1955: 64 2e        	stz	$2e                     ; 0x202e <main+0x1b74>
    1957: 66 2e        	ror	$2e                     ; 0x202e <main+0x1b74>
    1959: a5 12        	lda	$12                     ; 0x2012 <main+0x1b58>
    195b: 29 80        	and	#$80
    195d: 88           	dey
    195e: 91 10        	sta	($10),y                 ; 0x2010 <main+0x1b56>
    1960: a5 14        	lda	$14                     ; 0x2014 <main+0x1b5a>
    1962: 29 3f        	and	#$3f
    1964: 88           	dey
    1965: 91 10        	sta	($10),y                 ; 0x2010 <main+0x1b56>
    1967: a6 78        	ldx	$78                     ; 0x2078 <main+0x1bbe>
    1969: 86 2b        	stx	$2b                     ; 0x202b <main+0x1b71>
    196b: a6 79        	ldx	$79                     ; 0x2079 <main+0x1bbf>
    196d: 86 25        	stx	$25                     ; 0x2025 <main+0x1b6b>
    196f: a2 16        	ldx	#$16
    1971: 86 12        	stx	$12                     ; 0x2012 <main+0x1b58>
    1973: 64 13        	stz	$13                     ; 0x2013 <main+0x1b59>
    1975: a2 00        	ldx	#$0
    1977: a5 2c        	lda	$2c                     ; 0x202c <main+0x1b72>
    1979: 20 25 3d     	jsr	$3d25 <__mulhi3>
    197c: a4 2a        	ldy	$2a                     ; 0x202a <main+0x1b70>
    197e: 84 17        	sty	$17                     ; 0x2017 <main+0x1b5d>
    1980: 85 12        	sta	$12                     ; 0x2012 <main+0x1b58>
    1982: 86 13        	stx	$13                     ; 0x2013 <main+0x1b59>
    1984: 18           	clc
    1985: a5 2b        	lda	$2b                     ; 0x202b <main+0x1b71>
    1987: 65 12        	adc	$12                     ; 0x2012 <main+0x1b58>
    1989: a8           	tay
    198a: a5 25        	lda	$25                     ; 0x2025 <main+0x1b6b>
    198c: 65 13        	adc	$13                     ; 0x2013 <main+0x1b59>
    198e: aa           	tax
    198f: 18           	clc
    1990: 98           	tya
    1991: 69 08        	adc	#$8
    1993: 85 12        	sta	$12                     ; 0x2012 <main+0x1b58>
    1995: 8a           	txa
    1996: 69 00        	adc	#$0
    1998: 84 14        	sty	$14                     ; 0x2014 <main+0x1b5a>
    199a: 86 15        	stx	$15                     ; 0x2015 <main+0x1b5b>
    199c: 85 13        	sta	$13                     ; 0x2013 <main+0x1b59>
    199e: 18           	clc
    199f: 98           	tya
    19a0: 69 04        	adc	#$4
    19a2: 85 18        	sta	$18                     ; 0x2018 <main+0x1b5e>
    19a4: 8a           	txa
    19a5: 69 00        	adc	#$0
    19a7: 85 19        	sta	$19                     ; 0x2019 <main+0x1b5f>
    19a9: a0 04        	ldy	#$4
    19ab: b1 14        	lda	($14),y                 ; 0x2014 <main+0x1b5a>
    19ad: aa           	tax
    19ae: a0 01        	ldy	#$1
    19b0: b1 18        	lda	($18),y                 ; 0x2018 <main+0x1b5e>
    19b2: 85 16        	sta	$16                     ; 0x2016 <main+0x1b5c>
    19b4: c8           	iny
    19b5: b1 18        	lda	($18),y                 ; 0x2018 <main+0x1b5e>
    19b7: 85 1a        	sta	$1a                     ; 0x201a <main+0x1b60>
    19b9: c8           	iny
    19ba: b1 18        	lda	($18),y                 ; 0x2018 <main+0x1b5e>
    19bc: 85 1b        	sta	$1b                     ; 0x201b <main+0x1b61>
    19be: a4 16        	ldy	$16                     ; 0x2016 <main+0x1b5c>
    19c0: 84 1c        	sty	$1c                     ; 0x201c <main+0x1b62>
    19c2: a4 1a        	ldy	$1a                     ; 0x201a <main+0x1b60>
    19c4: 84 1d        	sty	$1d                     ; 0x201d <main+0x1b63>
    19c6: 8a           	txa
    19c7: 1a           	inc
    19c8: d0 0b        	bne	$19d5 <main+0x151b>
    19ca: e6 1c        	inc	$1c                     ; 0x201c <main+0x1b62>
    19cc: d0 07        	bne	$19d5 <main+0x151b>
    19ce: e6 1d        	inc	$1d                     ; 0x201d <main+0x1b63>
    19d0: d0 03        	bne	$19d5 <main+0x151b>
    19d2: 4c 73 1a     	jmp	$1a73 <main+0x15b9>
    19d5: a0 04        	ldy	#$4
    19d7: 91 14        	sta	($14),y                 ; 0x2014 <main+0x1b5a>
    19d9: a0 01        	ldy	#$1
    19db: a5 1c        	lda	$1c                     ; 0x201c <main+0x1b62>
    19dd: 91 18        	sta	($18),y                 ; 0x2018 <main+0x1b5e>
    19df: c8           	iny
    19e0: a5 1d        	lda	$1d                     ; 0x201d <main+0x1b63>
    19e2: 91 18        	sta	($18),y                 ; 0x2018 <main+0x1b5e>
    19e4: a5 1b        	lda	$1b                     ; 0x201b <main+0x1b61>
    19e6: c8           	iny
    19e7: 91 18        	sta	($18),y                 ; 0x2018 <main+0x1b5e>
    19e9: 18           	clc
    19ea: a0 08        	ldy	#$8
    19ec: 8a           	txa
    19ed: 71 14        	adc	($14),y                 ; 0x2014 <main+0x1b5a>
    19ef: 85 14        	sta	$14                     ; 0x2014 <main+0x1b5a>
    19f1: a0 01        	ldy	#$1
    19f3: a5 16        	lda	$16                     ; 0x2016 <main+0x1b5c>
    19f5: 71 12        	adc	($12),y                 ; 0x2012 <main+0x1b58>
    19f7: 85 15        	sta	$15                     ; 0x2015 <main+0x1b5b>
    19f9: a5 1a        	lda	$1a                     ; 0x201a <main+0x1b60>
    19fb: c8           	iny
    19fc: 71 12        	adc	($12),y                 ; 0x2012 <main+0x1b58>
    19fe: 85 12        	sta	$12                     ; 0x2012 <main+0x1b58>
    1a00: a5 15        	lda	$15                     ; 0x2015 <main+0x1b5b>
    1a02: 0a           	asl
    1a03: 26 12        	rol	$12                     ; 0x2012 <main+0x1b58>
    1a05: 0a           	asl
    1a06: 26 12        	rol	$12                     ; 0x2012 <main+0x1b58>
    1a08: 0a           	asl
    1a09: a5 12        	lda	$12                     ; 0x2012 <main+0x1b58>
    1a0b: 2a           	rol
    1a0c: a6 0f        	ldx	$f                      ; 0x200f <main+0x1b55>
    1a0e: 78           	sei
    1a0f: 85 0f        	sta	$f                      ; 0x200f <main+0x1b55>
    1a11: a4 14        	ldy	$14                     ; 0x2014 <main+0x1b5a>
    1a13: 84 12        	sty	$12                     ; 0x2012 <main+0x1b58>
    1a15: a5 15        	lda	$15                     ; 0x2015 <main+0x1b5b>
    1a17: 09 e0        	ora	#$e0
    1a19: 85 13        	sta	$13                     ; 0x2013 <main+0x1b59>
    1a1b: b2 12        	lda	($12)                   ; 0x2012 <main+0x1b58>
    1a1d: 86 0f        	stx	$f                      ; 0x200f <main+0x1b55>
    1a1f: 48           	pha
    1a20: a0 16        	ldy	#$16
    1a22: b1 10        	lda	($10),y                 ; 0x2010 <main+0x1b56>
    1a24: 85 12        	sta	$12                     ; 0x2012 <main+0x1b58>
    1a26: 88           	dey
    1a27: b1 10        	lda	($10),y                 ; 0x2010 <main+0x1b56>
    1a29: 85 13        	sta	$13                     ; 0x2013 <main+0x1b59>
    1a2b: 68           	pla
    1a2c: 85 14        	sta	$14                     ; 0x2014 <main+0x1b5a>
    1a2e: a0 17        	ldy	#$17
    1a30: b1 10        	lda	($10),y                 ; 0x2010 <main+0x1b56>
    1a32: 58           	cli
    1a33: 48           	pha
    1a34: a0 14        	ldy	#$14
    1a36: b1 10        	lda	($10),y                 ; 0x2010 <main+0x1b56>
    1a38: 85 25        	sta	$25                     ; 0x2025 <main+0x1b6b>
    1a3a: 68           	pla
    1a3b: 4c 55 16     	jmp	$1655 <main+0x119b>
    1a3e: aa           	tax
    1a3f: f0 37        	beq	$1a78 <main+0x15be>
    1a41: a6 78        	ldx	$78                     ; 0x2078 <main+0x1bbe>
    1a43: 86 25        	stx	$25                     ; 0x2025 <main+0x1b6b>
    1a45: a6 79        	ldx	$79                     ; 0x2079 <main+0x1bbf>
    1a47: 86 24        	stx	$24                     ; 0x2024 <main+0x1b6a>
    1a49: a2 16        	ldx	#$16
    1a4b: 86 12        	stx	$12                     ; 0x2012 <main+0x1b58>
    1a4d: 64 13        	stz	$13                     ; 0x2013 <main+0x1b59>
    1a4f: 64 2b        	stz	$2b                     ; 0x202b <main+0x1b71>
    1a51: a2 00        	ldx	#$0
    1a53: a0 18        	ldy	#$18
    1a55: b1 10        	lda	($10),y                 ; 0x2010 <main+0x1b56>
    1a57: 20 25 3d     	jsr	$3d25 <__mulhi3>
    1a5a: 85 12        	sta	$12                     ; 0x2012 <main+0x1b58>
    1a5c: 86 13        	stx	$13                     ; 0x2013 <main+0x1b59>
    1a5e: 18           	clc
    1a5f: a5 25        	lda	$25                     ; 0x2025 <main+0x1b6b>
    1a61: 65 12        	adc	$12                     ; 0x2012 <main+0x1b58>
    1a63: 85 12        	sta	$12                     ; 0x2012 <main+0x1b58>
    1a65: a5 24        	lda	$24                     ; 0x2024 <main+0x1b6a>
    1a67: 65 13        	adc	$13                     ; 0x2013 <main+0x1b59>
    1a69: 85 13        	sta	$13                     ; 0x2013 <main+0x1b59>
    1a6b: a9 01        	lda	#$1
    1a6d: a0 15        	ldy	#$15
    1a6f: 91 12        	sta	($12),y                 ; 0x2012 <main+0x1b58>
    1a71: 80 05        	bra	$1a78 <main+0x15be>
    1a73: e6 1b        	inc	$1b                     ; 0x201b <main+0x1b61>
    1a75: 4c d5 19     	jmp	$19d5 <main+0x151b>
    1a78: a6 74        	ldx	$74                     ; 0x2074 <main+0x1bba>
    1a7a: a4 75        	ldy	$75                     ; 0x2075 <main+0x1bbb>
    1a7c: 86 25        	stx	$25                     ; 0x2025 <main+0x1b6b>
    1a7e: 84 2a        	sty	$2a                     ; 0x202a <main+0x1b70>
    1a80: 64 15        	stz	$15                     ; 0x2015 <main+0x1b5b>
    1a82: 64 14        	stz	$14                     ; 0x2014 <main+0x1b5a>
    1a84: a9 ff        	lda	#$ff
    1a86: 5a           	phy
    1a87: a0 16        	ldy	#$16
    1a89: 91 10        	sta	($10),y                 ; 0x2010 <main+0x1b56>
    1a8b: a0 18        	ldy	#$18
    1a8d: 91 10        	sta	($10),y                 ; 0x2010 <main+0x1b56>
    1a8f: a0 15        	ldy	#$15
    1a91: 91 10        	sta	($10),y                 ; 0x2010 <main+0x1b56>
    1a93: a0 13        	ldy	#$13
    1a95: 91 10        	sta	($10),y                 ; 0x2010 <main+0x1b56>
    1a97: c8           	iny
    1a98: 91 10        	sta	($10),y                 ; 0x2010 <main+0x1b56>
    1a9a: 7a           	ply
    1a9b: d0 03        	bne	$1aa0 <main+0x15e6>
    1a9d: 4c 1e 1c     	jmp	$1c1e <main+0x1764>
    1aa0: 48           	pha
    1aa1: a0 18        	ldy	#$18
    1aa3: b1 10        	lda	($10),y                 ; 0x2010 <main+0x1b56>
    1aa5: 85 24        	sta	$24                     ; 0x2024 <main+0x1b6a>
    1aa7: a6 78        	ldx	$78                     ; 0x2078 <main+0x1bbe>
    1aa9: 86 2c        	stx	$2c                     ; 0x202c <main+0x1b72>
    1aab: a6 79        	ldx	$79                     ; 0x2079 <main+0x1bbf>
    1aad: 86 2d        	stx	$2d                     ; 0x202d <main+0x1b73>
    1aaf: a2 16        	ldx	#$16
    1ab1: 86 12        	stx	$12                     ; 0x2012 <main+0x1b58>
    1ab3: 64 13        	stz	$13                     ; 0x2013 <main+0x1b59>
    1ab5: a5 14        	lda	$14                     ; 0x2014 <main+0x1b5a>
    1ab7: 88           	dey
    1ab8: 91 10        	sta	($10),y                 ; 0x2010 <main+0x1b56>
    1aba: 68           	pla
    1abb: a6 14        	ldx	$14                     ; 0x2014 <main+0x1b5a>
    1abd: a4 15        	ldy	$15                     ; 0x2015 <main+0x1b5b>
    1abf: 84 2b        	sty	$2b                     ; 0x202b <main+0x1b71>
    1ac1: 85 2f        	sta	$2f                     ; 0x202f <main+0x1b75>
    1ac3: a5 15        	lda	$15                     ; 0x2015 <main+0x1b5b>
    1ac5: 20 25 3d     	jsr	$3d25 <__mulhi3>
    1ac8: 85 12        	sta	$12                     ; 0x2012 <main+0x1b58>
    1aca: 86 13        	stx	$13                     ; 0x2013 <main+0x1b59>
    1acc: a5 2c        	lda	$2c                     ; 0x202c <main+0x1b72>
    1ace: 18           	clc
    1acf: 65 12        	adc	$12                     ; 0x2012 <main+0x1b58>
    1ad1: aa           	tax
    1ad2: a5 2d        	lda	$2d                     ; 0x202d <main+0x1b73>
    1ad4: 85 2e        	sta	$2e                     ; 0x202e <main+0x1b74>
    1ad6: 65 13        	adc	$13                     ; 0x2013 <main+0x1b59>
    1ad8: a8           	tay
    1ad9: 18           	clc
    1ada: 8a           	txa
    1adb: 69 0c        	adc	#$c
    1add: 85 12        	sta	$12                     ; 0x2012 <main+0x1b58>
    1adf: 98           	tya
    1ae0: 69 00        	adc	#$0
    1ae2: 85 13        	sta	$13                     ; 0x2013 <main+0x1b59>
    1ae4: a0 15        	ldy	#$15
    1ae6: b1 10        	lda	($10),y                 ; 0x2010 <main+0x1b56>
    1ae8: 85 17        	sta	$17                     ; 0x2017 <main+0x1b5d>
    1aea: a0 13        	ldy	#$13
    1aec: b1 10        	lda	($10),y                 ; 0x2010 <main+0x1b56>
    1aee: 85 16        	sta	$16                     ; 0x2016 <main+0x1b5c>
    1af0: c8           	iny
    1af1: b1 10        	lda	($10),y                 ; 0x2010 <main+0x1b56>
    1af3: 85 15        	sta	$15                     ; 0x2015 <main+0x1b5b>
    1af5: a6 2f        	ldx	$2f                     ; 0x202f <main+0x1b75>
    1af7: 86 14        	stx	$14                     ; 0x2014 <main+0x1b5a>
    1af9: a6 2b        	ldx	$2b                     ; 0x202b <main+0x1b71>
    1afb: a0 09        	ldy	#$9
    1afd: b1 12        	lda	($12),y                 ; 0x2012 <main+0x1b58>
    1aff: f0 14        	beq	$1b15 <main+0x165b>
    1b01: a4 16        	ldy	$16                     ; 0x2016 <main+0x1b5c>
    1b03: 84 18        	sty	$18                     ; 0x2018 <main+0x1b5e>
    1b05: a4 15        	ldy	$15                     ; 0x2015 <main+0x1b5b>
    1b07: 84 19        	sty	$19                     ; 0x2019 <main+0x1b5f>
    1b09: a4 14        	ldy	$14                     ; 0x2014 <main+0x1b5a>
    1b0b: 84 1a        	sty	$1a                     ; 0x201a <main+0x1b60>
    1b0d: a0 17        	ldy	#$17
    1b0f: b1 10        	lda	($10),y                 ; 0x2010 <main+0x1b56>
    1b11: a8           	tay
    1b12: 4c 85 1b     	jmp	$1b85 <main+0x16cb>
    1b15: b2 12        	lda	($12)                   ; 0x2012 <main+0x1b58>
    1b17: 85 18        	sta	$18                     ; 0x2018 <main+0x1b5e>
    1b19: a0 01        	ldy	#$1
    1b1b: b1 12        	lda	($12),y                 ; 0x2012 <main+0x1b58>
    1b1d: 85 19        	sta	$19                     ; 0x2019 <main+0x1b5f>
    1b1f: c8           	iny
    1b20: b1 12        	lda	($12),y                 ; 0x2012 <main+0x1b58>
    1b22: 85 1a        	sta	$1a                     ; 0x201a <main+0x1b60>
    1b24: c8           	iny
    1b25: b1 12        	lda	($12),y                 ; 0x2012 <main+0x1b58>
    1b27: d0 03        	bne	$1b2c <main+0x1672>
    1b29: 4c e7 12     	jmp	$12e7 <main+0xe2d>
    1b2c: a4 18        	ldy	$18                     ; 0x2018 <main+0x1b5e>
    1b2e: 84 1b        	sty	$1b                     ; 0x201b <main+0x1b61>
    1b30: a4 19        	ldy	$19                     ; 0x2019 <main+0x1b5f>
    1b32: 84 1c        	sty	$1c                     ; 0x201c <main+0x1b62>
    1b34: a4 1a        	ldy	$1a                     ; 0x201a <main+0x1b60>
    1b36: 84 1d        	sty	$1d                     ; 0x201d <main+0x1b63>
    1b38: 48           	pha
    1b39: a0 17        	ldy	#$17
    1b3b: b1 10        	lda	($10),y                 ; 0x2010 <main+0x1b56>
    1b3d: a8           	tay
    1b3e: 68           	pla
    1b3f: c5 14        	cmp	$14                     ; 0x2014 <main+0x1b5a>
    1b41: d0 17        	bne	$1b5a <main+0x16a0>
    1b43: 85 1e        	sta	$1e                     ; 0x201e <main+0x1b64>
    1b45: a5 1a        	lda	$1a                     ; 0x201a <main+0x1b60>
    1b47: c5 15        	cmp	$15                     ; 0x2015 <main+0x1b5b>
    1b49: f0 03        	beq	$1b4e <main+0x1694>
    1b4b: 4c bf 1b     	jmp	$1bbf <main+0x1705>
    1b4e: a5 19        	lda	$19                     ; 0x2019 <main+0x1b5f>
    1b50: c5 16        	cmp	$16                     ; 0x2016 <main+0x1b5c>
    1b52: f0 03        	beq	$1b57 <main+0x169d>
    1b54: 4c 18 1c     	jmp	$1c18 <main+0x175e>
    1b57: 4c 12 1c     	jmp	$1c12 <main+0x1758>
    1b5a: c5 14        	cmp	$14                     ; 0x2014 <main+0x1b5a>
    1b5c: 5a           	phy
    1b5d: a4 16        	ldy	$16                     ; 0x2016 <main+0x1b5c>
    1b5f: 84 18        	sty	$18                     ; 0x2018 <main+0x1b5e>
    1b61: a4 15        	ldy	$15                     ; 0x2015 <main+0x1b5b>
    1b63: 84 19        	sty	$19                     ; 0x2019 <main+0x1b5f>
    1b65: a4 14        	ldy	$14                     ; 0x2014 <main+0x1b5a>
    1b67: 84 1a        	sty	$1a                     ; 0x201a <main+0x1b60>
    1b69: 7a           	ply
    1b6a: b0 19        	bcs	$1b85 <main+0x16cb>
    1b6c: 5a           	phy
    1b6d: a4 1b        	ldy	$1b                     ; 0x201b <main+0x1b61>
    1b6f: 84 17        	sty	$17                     ; 0x2017 <main+0x1b5d>
    1b71: a4 1c        	ldy	$1c                     ; 0x201c <main+0x1b62>
    1b73: 84 18        	sty	$18                     ; 0x2018 <main+0x1b5e>
    1b75: a4 1d        	ldy	$1d                     ; 0x201d <main+0x1b63>
    1b77: 84 19        	sty	$19                     ; 0x2019 <main+0x1b5f>
    1b79: 7a           	ply
    1b7a: 85 1a        	sta	$1a                     ; 0x201a <main+0x1b60>
    1b7c: 86 24        	stx	$24                     ; 0x2024 <main+0x1b6a>
    1b7e: 98           	tya
    1b7f: 5a           	phy
    1b80: a0 16        	ldy	#$16
    1b82: 91 10        	sta	($10),y                 ; 0x2010 <main+0x1b56>
    1b84: 7a           	ply
    1b85: e8           	inx
    1b86: d0 01        	bne	$1b89 <main+0x16cf>
    1b88: c8           	iny
    1b89: a5 12        	lda	$12                     ; 0x2012 <main+0x1b58>
    1b8b: 18           	clc
    1b8c: 69 16        	adc	#$16
    1b8e: 85 12        	sta	$12                     ; 0x2012 <main+0x1b58>
    1b90: a5 13        	lda	$13                     ; 0x2013 <main+0x1b59>
    1b92: 69 00        	adc	#$0
    1b94: 85 13        	sta	$13                     ; 0x2013 <main+0x1b59>
    1b96: c4 2a        	cpy	$2a                     ; 0x202a <main+0x1b70>
    1b98: d0 09        	bne	$1ba3 <main+0x16e9>
    1b9a: 98           	tya
    1b9b: a0 17        	ldy	#$17
    1b9d: 91 10        	sta	($10),y                 ; 0x2010 <main+0x1b56>
    1b9f: e4 25        	cpx	$25                     ; 0x2025 <main+0x1b6b>
    1ba1: 80 09        	bra	$1bac <main+0x16f2>
    1ba3: 98           	tya
    1ba4: 5a           	phy
    1ba5: a0 17        	ldy	#$17
    1ba7: 91 10        	sta	($10),y                 ; 0x2010 <main+0x1b56>
    1ba9: 7a           	ply
    1baa: c4 2a        	cpy	$2a                     ; 0x202a <main+0x1b70>
    1bac: a5 17        	lda	$17                     ; 0x2017 <main+0x1b5d>
    1bae: a4 18        	ldy	$18                     ; 0x2018 <main+0x1b5e>
    1bb0: 84 16        	sty	$16                     ; 0x2016 <main+0x1b5c>
    1bb2: a4 19        	ldy	$19                     ; 0x2019 <main+0x1b5f>
    1bb4: 84 15        	sty	$15                     ; 0x2015 <main+0x1b5b>
    1bb6: a4 1a        	ldy	$1a                     ; 0x201a <main+0x1b60>
    1bb8: 84 14        	sty	$14                     ; 0x2014 <main+0x1b5a>
    1bba: b0 21        	bcs	$1bdd <main+0x1723>
    1bbc: 4c fb 1a     	jmp	$1afb <main+0x1641>
    1bbf: 5a           	phy
    1bc0: a4 19        	ldy	$19                     ; 0x2019 <main+0x1b5f>
    1bc2: 84 1c        	sty	$1c                     ; 0x201c <main+0x1b62>
    1bc4: 7a           	ply
    1bc5: c5 15        	cmp	$15                     ; 0x2015 <main+0x1b5b>
    1bc7: a5 16        	lda	$16                     ; 0x2016 <main+0x1b5c>
    1bc9: 85 18        	sta	$18                     ; 0x2018 <main+0x1b5e>
    1bcb: a5 15        	lda	$15                     ; 0x2015 <main+0x1b5b>
    1bcd: 85 19        	sta	$19                     ; 0x2019 <main+0x1b5f>
    1bcf: a5 14        	lda	$14                     ; 0x2014 <main+0x1b5a>
    1bd1: 85 1a        	sta	$1a                     ; 0x201a <main+0x1b60>
    1bd3: a5 1e        	lda	$1e                     ; 0x201e <main+0x1b64>
    1bd5: b0 03        	bcs	$1bda <main+0x1720>
    1bd7: 4c 6c 1b     	jmp	$1b6c <main+0x16b2>
    1bda: 4c 85 1b     	jmp	$1b85 <main+0x16cb>
    1bdd: 85 13        	sta	$13                     ; 0x2013 <main+0x1b59>
    1bdf: c0 01        	cpy	#$1
    1be1: d0 1e        	bne	$1c01 <main+0x1747>
    1be3: a6 24        	ldx	$24                     ; 0x2024 <main+0x1b6a>
    1be5: 8a           	txa
    1be6: a0 18        	ldy	#$18
    1be8: 91 10        	sta	($10),y                 ; 0x2010 <main+0x1b56>
    1bea: a5 19        	lda	$19                     ; 0x2019 <main+0x1b5f>
    1bec: d0 18        	bne	$1c06 <main+0x174c>
    1bee: a5 18        	lda	$18                     ; 0x2018 <main+0x1b5e>
    1bf0: d0 03        	bne	$1bf5 <main+0x173b>
    1bf2: 4c 98 14     	jmp	$1498 <main+0xfde>
    1bf5: a6 18        	ldx	$18                     ; 0x2018 <main+0x1b5e>
    1bf7: e0 00        	cpx	#$0
    1bf9: 90 03        	bcc	$1bfe <main+0x1744>
    1bfb: 4c 24 14     	jmp	$1424 <main+0xf6a>
    1bfe: 4c 08 13     	jmp	$1308 <main+0xe4e>
    1c01: c0 01        	cpy	#$1
    1c03: 4c fc 12     	jmp	$12fc <main+0xe42>
    1c06: a6 19        	ldx	$19                     ; 0x2019 <main+0x1b5f>
    1c08: e0 00        	cpx	#$0
    1c0a: 90 03        	bcc	$1c0f <main+0x1755>
    1c0c: 4c 24 14     	jmp	$1424 <main+0xf6a>
    1c0f: 4c 08 13     	jmp	$1308 <main+0xe4e>
    1c12: a5 1b        	lda	$1b                     ; 0x201b <main+0x1b61>
    1c14: c5 17        	cmp	$17                     ; 0x2017 <main+0x1b5d>
    1c16: 80 af        	bra	$1bc7 <main+0x170d>
    1c18: 85 1c        	sta	$1c                     ; 0x201c <main+0x1b62>
    1c1a: c5 16        	cmp	$16                     ; 0x2016 <main+0x1b5c>
    1c1c: 80 a9        	bra	$1bc7 <main+0x170d>
    1c1e: e0 00        	cpx	#$0
    1c20: f0 03        	beq	$1c25 <main+0x176b>
    1c22: 4c a0 1a     	jmp	$1aa0 <main+0x15e6>
    1c25: a2 25        	ldx	#$25
    1c27: 86 12        	stx	$12                     ; 0x2012 <main+0x1b58>
    1c29: a2 40        	ldx	#$40
    1c2b: 86 13        	stx	$13                     ; 0x2013 <main+0x1b59>
    1c2d: 20 6d 2c     	jsr	$2c6d <printf>
    1c30: a2 8e        	ldx	#$8e
    1c32: 86 12        	stx	$12                     ; 0x2012 <main+0x1b58>
    1c34: a2 40        	ldx	#$40
    1c36: 86 13        	stx	$13                     ; 0x2013 <main+0x1b59>
    1c38: 64 7a        	stz	$7a                     ; 0x207a <main+0x1bc0>
    1c3a: 20 00 ff     	jsr	$ff00 <__heap_start+0xbe70>
    1c3d: 92 26        	sta	($26)                   ; 0x2026 <main+0x1b6c>
    1c3f: a9 00        	lda	#$0
    1c41: 6a           	ror
    1c42: 85 12        	sta	$12                     ; 0x2012 <main+0x1b58>
    1c44: a6 7a        	ldx	$7a                     ; 0x207a <main+0x1bc0>
    1c46: e0 08        	cpx	#$8
    1c48: d0 ee        	bne	$1c38 <main+0x177e>
    1c4a: a6 7e        	ldx	$7e                     ; 0x207e <main+0x1bc4>
    1c4c: e0 20        	cpx	#$20
    1c4e: f0 04        	beq	$1c54 <main+0x179a>
    1c50: e0 94        	cpx	#$94
    1c52: d0 e4        	bne	$1c38 <main+0x177e>
    1c54: 78           	sei
    1c55: a2 07        	ldx	#$7
    1c57: 86 0f        	stx	$f                      ; 0x200f <main+0x1b55>
    1c59: a2 de        	ldx	#$de
    1c5b: 8e a2 d6     	stx	$d6a2                   ; 0xd6a2 <__heap_start+0x9612>
    1c5e: a2 ad        	ldx	#$ad
    1c60: 8e a3 d6     	stx	$d6a3                   ; 0xd6a3 <__heap_start+0x9613>
    1c63: a2 f0        	ldx	#$f0
    1c65: 8e a0 d6     	stx	$d6a0                   ; 0xd6a0 <__heap_start+0x9610>
    1c68: 9c a0 d6     	stz	$d6a0                   ; 0xd6a0 <__heap_start+0x9610>
    1c6b: 6c fc ff     	jmp	($fffc)                 ; 0xfffc <__heap_start+0xbf6c>
    1c6e: a2 00        	ldx	#$0
    1c70: 8a           	txa
    1c71: 85 20        	sta	$20                     ; 0x2020 <main+0x1b66>
    1c73: a0 0a        	ldy	#$a
    1c75: b1 10        	lda	($10),y                 ; 0x2010 <main+0x1b56>
    1c77: 85 2f        	sta	$2f                     ; 0x202f <main+0x1b75>
    1c79: c8           	iny
    1c7a: b1 10        	lda	($10),y                 ; 0x2010 <main+0x1b56>
    1c7c: 85 2e        	sta	$2e                     ; 0x202e <main+0x1b74>
    1c7e: c8           	iny
    1c7f: b1 10        	lda	($10),y                 ; 0x2010 <main+0x1b56>
    1c81: 85 2d        	sta	$2d                     ; 0x202d <main+0x1b73>
    1c83: c8           	iny
    1c84: b1 10        	lda	($10),y                 ; 0x2010 <main+0x1b56>
    1c86: 85 2c        	sta	$2c                     ; 0x202c <main+0x1b72>
    1c88: c8           	iny
    1c89: b1 10        	lda	($10),y                 ; 0x2010 <main+0x1b56>
    1c8b: 85 2b        	sta	$2b                     ; 0x202b <main+0x1b71>
    1c8d: c8           	iny
    1c8e: b1 10        	lda	($10),y                 ; 0x2010 <main+0x1b56>
    1c90: 85 2a        	sta	$2a                     ; 0x202a <main+0x1b70>
    1c92: c8           	iny
    1c93: b1 10        	lda	($10),y                 ; 0x2010 <main+0x1b56>
    1c95: 85 29        	sta	$29                     ; 0x2029 <main+0x1b6f>
    1c97: c8           	iny
    1c98: b1 10        	lda	($10),y                 ; 0x2010 <main+0x1b56>
    1c9a: 85 28        	sta	$28                     ; 0x2028 <main+0x1b6e>
    1c9c: 7a           	ply
    1c9d: 84 27        	sty	$27                     ; 0x2027 <main+0x1b6d>
    1c9f: 7a           	ply
    1ca0: 84 26        	sty	$26                     ; 0x2026 <main+0x1b6c>
    1ca2: 7a           	ply
    1ca3: 84 25        	sty	$25                     ; 0x2025 <main+0x1b6b>
    1ca5: 7a           	ply
    1ca6: 84 24        	sty	$24                     ; 0x2024 <main+0x1b6a>
    1ca8: 18           	clc
    1ca9: a5 10        	lda	$10                     ; 0x2010 <main+0x1b56>
    1cab: 69 22        	adc	#$22
    1cad: 85 10        	sta	$10                     ; 0x2010 <main+0x1b56>
    1caf: a5 11        	lda	$11                     ; 0x2011 <main+0x1b57>
    1cb1: 69 00        	adc	#$0
    1cb3: 85 11        	sta	$11                     ; 0x2011 <main+0x1b57>
    1cb5: a5 20        	lda	$20                     ; 0x2020 <main+0x1b66>
    1cb7: 60           	rts
    1cb8: a4 18        	ldy	$18                     ; 0x2018 <main+0x1b5e>
    1cba: f0 03        	beq	$1cbf <main+0x1805>
    1cbc: 4c 2c 1b     	jmp	$1b2c <main+0x1672>
    1cbf: 8a           	txa
    1cc0: a2 16        	ldx	#$16
    1cc2: 86 12        	stx	$12                     ; 0x2012 <main+0x1b58>
    1cc4: 64 13        	stz	$13                     ; 0x2013 <main+0x1b59>
    1cc6: 64 2b        	stz	$2b                     ; 0x202b <main+0x1b71>
    1cc8: a2 00        	ldx	#$0
    1cca: a0 12        	ldy	#$12
    1ccc: 91 10        	sta	($10),y                 ; 0x2010 <main+0x1b56>
    1cce: 20 25 3d     	jsr	$3d25 <__mulhi3>
    1cd1: 85 12        	sta	$12                     ; 0x2012 <main+0x1b58>
    1cd3: 85 14        	sta	$14                     ; 0x2014 <main+0x1b5a>
    1cd5: 18           	clc
    1cd6: a5 2c        	lda	$2c                     ; 0x202c <main+0x1b72>
    1cd8: 65 12        	adc	$12                     ; 0x2012 <main+0x1b58>
    1cda: a8           	tay
    1cdb: 86 12        	stx	$12                     ; 0x2012 <main+0x1b58>
    1cdd: a5 2e        	lda	$2e                     ; 0x202e <main+0x1b74>
    1cdf: 65 12        	adc	$12                     ; 0x2012 <main+0x1b58>
    1ce1: 84 12        	sty	$12                     ; 0x2012 <main+0x1b58>
    1ce3: 85 13        	sta	$13                     ; 0x2013 <main+0x1b59>
    1ce5: a0 10        	ldy	#$10
    1ce7: b1 12        	lda	($12),y                 ; 0x2012 <main+0x1b58>
    1ce9: 8d a1 dd     	sta	$dda1                   ; 0xdda1 <__heap_start+0x9d11>
    1cec: 18           	clc
    1ced: a5 14        	lda	$14                     ; 0x2014 <main+0x1b5a>
    1cef: 65 78        	adc	$78                     ; 0x2078 <main+0x1bbe>
    1cf1: 85 12        	sta	$12                     ; 0x2012 <main+0x1b58>
    1cf3: 8a           	txa
    1cf4: 65 79        	adc	$79                     ; 0x2079 <main+0x1bbf>
    1cf6: 85 13        	sta	$13                     ; 0x2013 <main+0x1b59>
    1cf8: c8           	iny
    1cf9: b1 12        	lda	($12),y                 ; 0x2012 <main+0x1b58>
    1cfb: 8d a1 dd     	sta	$dda1                   ; 0xdda1 <__heap_start+0x9d11>
    1cfe: 18           	clc
    1cff: a5 14        	lda	$14                     ; 0x2014 <main+0x1b5a>
    1d01: 65 78        	adc	$78                     ; 0x2078 <main+0x1bbe>
    1d03: 85 12        	sta	$12                     ; 0x2012 <main+0x1b58>
    1d05: 8a           	txa
    1d06: 65 79        	adc	$79                     ; 0x2079 <main+0x1bbf>
    1d08: 85 13        	sta	$13                     ; 0x2013 <main+0x1b59>
    1d0a: a0 14        	ldy	#$14
    1d0c: b1 12        	lda	($12),y                 ; 0x2012 <main+0x1b58>
    1d0e: d0 07        	bne	$1d17 <main+0x185d>
    1d10: a0 12        	ldy	#$12
    1d12: b1 12        	lda	($12),y                 ; 0x2012 <main+0x1b58>
    1d14: 8d a1 dd     	sta	$dda1                   ; 0xdda1 <__heap_start+0x9d11>
    1d17: a0 12        	ldy	#$12
    1d19: b1 10        	lda	($10),y                 ; 0x2010 <main+0x1b56>
    1d1b: 85 24        	sta	$24                     ; 0x2024 <main+0x1b6a>
    1d1d: 4c 23 1e     	jmp	$1e23 <main+0x1969>
    1d20: 85 1d        	sta	$1d                     ; 0x201d <main+0x1b63>
    1d22: a0 04        	ldy	#$4
    1d24: a5 1a        	lda	$1a                     ; 0x201a <main+0x1b60>
    1d26: 91 12        	sta	($12),y                 ; 0x2012 <main+0x1b58>
    1d28: a0 01        	ldy	#$1
    1d2a: a5 1b        	lda	$1b                     ; 0x201b <main+0x1b61>
    1d2c: 91 16        	sta	($16),y                 ; 0x2016 <main+0x1b5c>
    1d2e: c8           	iny
    1d2f: a5 1c        	lda	$1c                     ; 0x201c <main+0x1b62>
    1d31: 91 16        	sta	($16),y                 ; 0x2016 <main+0x1b5c>
    1d33: c8           	iny
    1d34: a5 1d        	lda	$1d                     ; 0x201d <main+0x1b63>
    1d36: 91 16        	sta	($16),y                 ; 0x2016 <main+0x1b5c>
    1d38: 18           	clc
    1d39: a0 08        	ldy	#$8
    1d3b: a5 18        	lda	$18                     ; 0x2018 <main+0x1b5e>
    1d3d: 71 12        	adc	($12),y                 ; 0x2012 <main+0x1b58>
    1d3f: 85 16        	sta	$16                     ; 0x2016 <main+0x1b5c>
    1d41: a5 19        	lda	$19                     ; 0x2019 <main+0x1b5f>
    1d43: a0 01        	ldy	#$1
    1d45: 71 14        	adc	($14),y                 ; 0x2014 <main+0x1b5a>
    1d47: 85 12        	sta	$12                     ; 0x2012 <main+0x1b58>
    1d49: 8a           	txa
    1d4a: c8           	iny
    1d4b: 71 14        	adc	($14),y                 ; 0x2014 <main+0x1b5a>
    1d4d: 85 13        	sta	$13                     ; 0x2013 <main+0x1b59>
    1d4f: a5 12        	lda	$12                     ; 0x2012 <main+0x1b58>
    1d51: 06 12        	asl	$12                     ; 0x2012 <main+0x1b58>
    1d53: 26 13        	rol	$13                     ; 0x2013 <main+0x1b59>
    1d55: 06 12        	asl	$12                     ; 0x2012 <main+0x1b58>
    1d57: 26 13        	rol	$13                     ; 0x2013 <main+0x1b59>
    1d59: 06 12        	asl	$12                     ; 0x2012 <main+0x1b58>
    1d5b: 26 13        	rol	$13                     ; 0x2013 <main+0x1b59>
    1d5d: a4 13        	ldy	$13                     ; 0x2013 <main+0x1b59>
    1d5f: a6 0f        	ldx	$f                      ; 0x200f <main+0x1b55>
    1d61: 78           	sei
    1d62: 84 0f        	sty	$f                      ; 0x200f <main+0x1b55>
    1d64: a4 16        	ldy	$16                     ; 0x2016 <main+0x1b5c>
    1d66: 84 12        	sty	$12                     ; 0x2012 <main+0x1b58>
    1d68: 09 e0        	ora	#$e0
    1d6a: 85 13        	sta	$13                     ; 0x2013 <main+0x1b59>
    1d6c: b2 12        	lda	($12)                   ; 0x2012 <main+0x1b58>
    1d6e: 86 0f        	stx	$f                      ; 0x200f <main+0x1b55>
    1d70: 58           	cli
    1d71: aa           	tax
    1d72: 10 03        	bpl	$1d77 <main+0x18bd>
    1d74: 4c 97 1e     	jmp	$1e97 <main+0x19dd>
    1d77: 85 2e        	sta	$2e                     ; 0x202e <main+0x1b74>
    1d79: 64 2f        	stz	$2f                     ; 0x202f <main+0x1b75>
    1d7b: 64 17        	stz	$17                     ; 0x2017 <main+0x1b5d>
    1d7d: a9 00        	lda	#$0
    1d7f: 64 2c        	stz	$2c                     ; 0x202c <main+0x1b72>
    1d81: 64 25        	stz	$25                     ; 0x2025 <main+0x1b6b>
    1d83: 64 12        	stz	$12                     ; 0x2012 <main+0x1b58>
    1d85: 64 13        	stz	$13                     ; 0x2013 <main+0x1b59>
    1d87: 64 14        	stz	$14                     ; 0x2014 <main+0x1b5a>
    1d89: aa           	tax
    1d8a: 85 16        	sta	$16                     ; 0x2016 <main+0x1b5c>
    1d8c: a5 2e        	lda	$2e                     ; 0x202e <main+0x1b74>
    1d8e: 05 16        	ora	$16                     ; 0x2016 <main+0x1b5c>
    1d90: a8           	tay
    1d91: 8a           	txa
    1d92: 05 2c        	ora	$2c                     ; 0x202c <main+0x1b72>
    1d94: aa           	tax
    1d95: a5 2f        	lda	$2f                     ; 0x202f <main+0x1b75>
    1d97: 05 25        	ora	$25                     ; 0x2025 <main+0x1b6b>
    1d99: 85 16        	sta	$16                     ; 0x2016 <main+0x1b5c>
    1d9b: 98           	tya
    1d9c: 05 12        	ora	$12                     ; 0x2012 <main+0x1b58>
    1d9e: a8           	tay
    1d9f: 8a           	txa
    1da0: 05 13        	ora	$13                     ; 0x2013 <main+0x1b59>
    1da2: 85 15        	sta	$15                     ; 0x2015 <main+0x1b5b>
    1da4: 98           	tya
    1da5: 05 14        	ora	$14                     ; 0x2014 <main+0x1b5a>
    1da7: 85 14        	sta	$14                     ; 0x2014 <main+0x1b5a>
    1da9: a5 70        	lda	$70                     ; 0x2070 <main+0x1bb6>
    1dab: a6 71        	ldx	$71                     ; 0x2071 <main+0x1bb7>
    1dad: 86 18        	stx	$18                     ; 0x2018 <main+0x1b5e>
    1daf: a4 72        	ldy	$72                     ; 0x2072 <main+0x1bb8>
    1db1: a6 73        	ldx	$73                     ; 0x2073 <main+0x1bb9>
    1db3: 84 12        	sty	$12                     ; 0x2012 <main+0x1b58>
    1db5: 86 13        	stx	$13                     ; 0x2013 <main+0x1b59>
    1db7: a6 18        	ldx	$18                     ; 0x2018 <main+0x1b5e>
    1db9: 20 57 3d     	jsr	$3d57 <__mulsi3>
    1dbc: 85 2d        	sta	$2d                     ; 0x202d <main+0x1b73>
    1dbe: 86 2a        	stx	$2a                     ; 0x202a <main+0x1b70>
    1dc0: a6 12        	ldx	$12                     ; 0x2012 <main+0x1b58>
    1dc2: 86 2c        	stx	$2c                     ; 0x202c <main+0x1b72>
    1dc4: a6 13        	ldx	$13                     ; 0x2013 <main+0x1b59>
    1dc6: 86 2e        	stx	$2e                     ; 0x202e <main+0x1b74>
    1dc8: a6 78        	ldx	$78                     ; 0x2078 <main+0x1bbe>
    1dca: 86 25        	stx	$25                     ; 0x2025 <main+0x1b6b>
    1dcc: a6 79        	ldx	$79                     ; 0x2079 <main+0x1bbf>
    1dce: 86 2f        	stx	$2f                     ; 0x202f <main+0x1b75>
    1dd0: a2 16        	ldx	#$16
    1dd2: 86 12        	stx	$12                     ; 0x2012 <main+0x1b58>
    1dd4: 64 13        	stz	$13                     ; 0x2013 <main+0x1b59>
    1dd6: 64 2b        	stz	$2b                     ; 0x202b <main+0x1b71>
    1dd8: a2 00        	ldx	#$0
    1dda: a0 12        	ldy	#$12
    1ddc: b1 10        	lda	($10),y                 ; 0x2010 <main+0x1b56>
    1dde: 85 24        	sta	$24                     ; 0x2024 <main+0x1b6a>
    1de0: 20 25 3d     	jsr	$3d25 <__mulhi3>
    1de3: 85 12        	sta	$12                     ; 0x2012 <main+0x1b58>
    1de5: 86 13        	stx	$13                     ; 0x2013 <main+0x1b59>
    1de7: 18           	clc
    1de8: a5 25        	lda	$25                     ; 0x2025 <main+0x1b6b>
    1dea: 65 12        	adc	$12                     ; 0x2012 <main+0x1b58>
    1dec: a8           	tay
    1ded: a5 2f        	lda	$2f                     ; 0x202f <main+0x1b75>
    1def: 65 13        	adc	$13                     ; 0x2013 <main+0x1b59>
    1df1: aa           	tax
    1df2: 98           	tya
    1df3: 84 12        	sty	$12                     ; 0x2012 <main+0x1b58>
    1df5: 86 13        	stx	$13                     ; 0x2013 <main+0x1b59>
    1df7: 18           	clc
    1df8: 69 0c        	adc	#$c
    1dfa: 85 14        	sta	$14                     ; 0x2014 <main+0x1b5a>
    1dfc: 8a           	txa
    1dfd: 69 00        	adc	#$0
    1dff: 85 15        	sta	$15                     ; 0x2015 <main+0x1b5b>
    1e01: a0 0c        	ldy	#$c
    1e03: a5 2d        	lda	$2d                     ; 0x202d <main+0x1b73>
    1e05: 91 12        	sta	($12),y                 ; 0x2012 <main+0x1b58>
    1e07: a0 01        	ldy	#$1
    1e09: a5 2a        	lda	$2a                     ; 0x202a <main+0x1b70>
    1e0b: 91 14        	sta	($14),y                 ; 0x2014 <main+0x1b5a>
    1e0d: c8           	iny
    1e0e: a5 2c        	lda	$2c                     ; 0x202c <main+0x1b72>
    1e10: 91 14        	sta	($14),y                 ; 0x2014 <main+0x1b5a>
    1e12: c8           	iny
    1e13: a5 2e        	lda	$2e                     ; 0x202e <main+0x1b74>
    1e15: 91 14        	sta	($14),y                 ; 0x2014 <main+0x1b5a>
    1e17: a5 24        	lda	$24                     ; 0x2024 <main+0x1b6a>
    1e19: 20 10 22     	jsr	$2210 <readMIDICmd>
    1e1c: c9 01        	cmp	#$1
    1e1e: f0 03        	beq	$1e23 <main+0x1969>
    1e20: 4c 81 21     	jmp	$2181 <main+0x1cc7>
    1e23: a6 78        	ldx	$78                     ; 0x2078 <main+0x1bbe>
    1e25: 86 2a        	stx	$2a                     ; 0x202a <main+0x1b70>
    1e27: a6 79        	ldx	$79                     ; 0x2079 <main+0x1bbf>
    1e29: 86 25        	stx	$25                     ; 0x2025 <main+0x1b6b>
    1e2b: a2 16        	ldx	#$16
    1e2d: 86 12        	stx	$12                     ; 0x2012 <main+0x1b58>
    1e2f: 64 13        	stz	$13                     ; 0x2013 <main+0x1b59>
    1e31: a2 00        	ldx	#$0
    1e33: a5 24        	lda	$24                     ; 0x2024 <main+0x1b6a>
    1e35: 20 25 3d     	jsr	$3d25 <__mulhi3>
    1e38: 85 12        	sta	$12                     ; 0x2012 <main+0x1b58>
    1e3a: 86 13        	stx	$13                     ; 0x2013 <main+0x1b59>
    1e3c: 18           	clc
    1e3d: a5 2a        	lda	$2a                     ; 0x202a <main+0x1b70>
    1e3f: 65 12        	adc	$12                     ; 0x2012 <main+0x1b58>
    1e41: a8           	tay
    1e42: a5 25        	lda	$25                     ; 0x2025 <main+0x1b6b>
    1e44: 65 13        	adc	$13                     ; 0x2013 <main+0x1b59>
    1e46: aa           	tax
    1e47: 84 12        	sty	$12                     ; 0x2012 <main+0x1b58>
    1e49: 85 13        	sta	$13                     ; 0x2013 <main+0x1b59>
    1e4b: 18           	clc
    1e4c: 98           	tya
    1e4d: 69 08        	adc	#$8
    1e4f: 85 14        	sta	$14                     ; 0x2014 <main+0x1b5a>
    1e51: 8a           	txa
    1e52: 69 00        	adc	#$0
    1e54: 85 15        	sta	$15                     ; 0x2015 <main+0x1b5b>
    1e56: 18           	clc
    1e57: 98           	tya
    1e58: 69 04        	adc	#$4
    1e5a: 85 16        	sta	$16                     ; 0x2016 <main+0x1b5c>
    1e5c: 8a           	txa
    1e5d: 69 00        	adc	#$0
    1e5f: 85 17        	sta	$17                     ; 0x2017 <main+0x1b5d>
    1e61: a0 04        	ldy	#$4
    1e63: b1 12        	lda	($12),y                 ; 0x2012 <main+0x1b58>
    1e65: 85 18        	sta	$18                     ; 0x2018 <main+0x1b5e>
    1e67: a0 01        	ldy	#$1
    1e69: b1 16        	lda	($16),y                 ; 0x2016 <main+0x1b5c>
    1e6b: 85 19        	sta	$19                     ; 0x2019 <main+0x1b5f>
    1e6d: c8           	iny
    1e6e: b1 16        	lda	($16),y                 ; 0x2016 <main+0x1b5c>
    1e70: aa           	tax
    1e71: c8           	iny
    1e72: b1 16        	lda	($16),y                 ; 0x2016 <main+0x1b5c>
    1e74: a4 18        	ldy	$18                     ; 0x2018 <main+0x1b5e>
    1e76: 84 1a        	sty	$1a                     ; 0x201a <main+0x1b60>
    1e78: a4 19        	ldy	$19                     ; 0x2019 <main+0x1b5f>
    1e7a: 84 1b        	sty	$1b                     ; 0x201b <main+0x1b61>
    1e7c: 86 1c        	stx	$1c                     ; 0x201c <main+0x1b62>
    1e7e: e6 1a        	inc	$1a                     ; 0x201a <main+0x1b60>
    1e80: f0 03        	beq	$1e85 <main+0x19cb>
    1e82: 4c 20 1d     	jmp	$1d20 <main+0x1866>
    1e85: e6 1b        	inc	$1b                     ; 0x201b <main+0x1b61>
    1e87: f0 03        	beq	$1e8c <main+0x19d2>
    1e89: 4c 20 1d     	jmp	$1d20 <main+0x1866>
    1e8c: e6 1c        	inc	$1c                     ; 0x201c <main+0x1b62>
    1e8e: f0 03        	beq	$1e93 <main+0x19d9>
    1e90: 4c 20 1d     	jmp	$1d20 <main+0x1866>
    1e93: 1a           	inc
    1e94: 4c 20 1d     	jmp	$1d20 <main+0x1866>
    1e97: 4a           	lsr
    1e98: aa           	tax
    1e99: a9 00        	lda	#$0
    1e9b: 6a           	ror
    1e9c: 29 80        	and	#$80
    1e9e: 85 2e        	sta	$2e                     ; 0x202e <main+0x1b74>
    1ea0: 8a           	txa
    1ea1: 29 3f        	and	#$3f
    1ea3: 85 2a        	sta	$2a                     ; 0x202a <main+0x1b70>
    1ea5: a6 78        	ldx	$78                     ; 0x2078 <main+0x1bbe>
    1ea7: 86 2c        	stx	$2c                     ; 0x202c <main+0x1b72>
    1ea9: a6 79        	ldx	$79                     ; 0x2079 <main+0x1bbf>
    1eab: 86 25        	stx	$25                     ; 0x2025 <main+0x1b6b>
    1ead: a2 16        	ldx	#$16
    1eaf: 86 12        	stx	$12                     ; 0x2012 <main+0x1b58>
    1eb1: 64 13        	stz	$13                     ; 0x2013 <main+0x1b59>
    1eb3: a2 00        	ldx	#$0
    1eb5: a5 24        	lda	$24                     ; 0x2024 <main+0x1b6a>
    1eb7: 20 25 3d     	jsr	$3d25 <__mulhi3>
    1eba: 85 12        	sta	$12                     ; 0x2012 <main+0x1b58>
    1ebc: 86 13        	stx	$13                     ; 0x2013 <main+0x1b59>
    1ebe: 18           	clc
    1ebf: a5 2c        	lda	$2c                     ; 0x202c <main+0x1b72>
    1ec1: 65 12        	adc	$12                     ; 0x2012 <main+0x1b58>
    1ec3: a8           	tay
    1ec4: a5 25        	lda	$25                     ; 0x2025 <main+0x1b6b>
    1ec6: 65 13        	adc	$13                     ; 0x2013 <main+0x1b59>
    1ec8: aa           	tax
    1ec9: 84 12        	sty	$12                     ; 0x2012 <main+0x1b58>
    1ecb: 85 13        	sta	$13                     ; 0x2013 <main+0x1b59>
    1ecd: 18           	clc
    1ece: 98           	tya
    1ecf: 69 08        	adc	#$8
    1ed1: 85 14        	sta	$14                     ; 0x2014 <main+0x1b5a>
    1ed3: 8a           	txa
    1ed4: 69 00        	adc	#$0
    1ed6: 85 15        	sta	$15                     ; 0x2015 <main+0x1b5b>
    1ed8: 18           	clc
    1ed9: 98           	tya
    1eda: 69 04        	adc	#$4
    1edc: 85 16        	sta	$16                     ; 0x2016 <main+0x1b5c>
    1ede: 8a           	txa
    1edf: 69 00        	adc	#$0
    1ee1: 85 17        	sta	$17                     ; 0x2017 <main+0x1b5d>
    1ee3: a0 04        	ldy	#$4
    1ee5: b1 12        	lda	($12),y                 ; 0x2012 <main+0x1b58>
    1ee7: 85 18        	sta	$18                     ; 0x2018 <main+0x1b5e>
    1ee9: a0 01        	ldy	#$1
    1eeb: b1 16        	lda	($16),y                 ; 0x2016 <main+0x1b5c>
    1eed: 85 19        	sta	$19                     ; 0x2019 <main+0x1b5f>
    1eef: c8           	iny
    1ef0: b1 16        	lda	($16),y                 ; 0x2016 <main+0x1b5c>
    1ef2: aa           	tax
    1ef3: c8           	iny
    1ef4: b1 16        	lda	($16),y                 ; 0x2016 <main+0x1b5c>
    1ef6: 85 1b        	sta	$1b                     ; 0x201b <main+0x1b61>
    1ef8: a5 18        	lda	$18                     ; 0x2018 <main+0x1b5e>
    1efa: a4 19        	ldy	$19                     ; 0x2019 <main+0x1b5f>
    1efc: 86 1c        	stx	$1c                     ; 0x201c <main+0x1b62>
    1efe: 1a           	inc
    1eff: d0 09        	bne	$1f0a <main+0x1a50>
    1f01: c8           	iny
    1f02: d0 06        	bne	$1f0a <main+0x1a50>
    1f04: e6 1c        	inc	$1c                     ; 0x201c <main+0x1b62>
    1f06: d0 02        	bne	$1f0a <main+0x1a50>
    1f08: e6 1b        	inc	$1b                     ; 0x201b <main+0x1b61>
    1f0a: 84 1d        	sty	$1d                     ; 0x201d <main+0x1b63>
    1f0c: a0 04        	ldy	#$4
    1f0e: 91 12        	sta	($12),y                 ; 0x2012 <main+0x1b58>
    1f10: a0 01        	ldy	#$1
    1f12: a5 1d        	lda	$1d                     ; 0x201d <main+0x1b63>
    1f14: 91 16        	sta	($16),y                 ; 0x2016 <main+0x1b5c>
    1f16: c8           	iny
    1f17: a5 1c        	lda	$1c                     ; 0x201c <main+0x1b62>
    1f19: 91 16        	sta	($16),y                 ; 0x2016 <main+0x1b5c>
    1f1b: c8           	iny
    1f1c: a5 1b        	lda	$1b                     ; 0x201b <main+0x1b61>
    1f1e: 91 16        	sta	($16),y                 ; 0x2016 <main+0x1b5c>
    1f20: 18           	clc
    1f21: a5 18        	lda	$18                     ; 0x2018 <main+0x1b5e>
    1f23: a0 08        	ldy	#$8
    1f25: 71 12        	adc	($12),y                 ; 0x2012 <main+0x1b58>
    1f27: 85 13        	sta	$13                     ; 0x2013 <main+0x1b59>
    1f29: a5 19        	lda	$19                     ; 0x2019 <main+0x1b5f>
    1f2b: a0 01        	ldy	#$1
    1f2d: 71 14        	adc	($14),y                 ; 0x2014 <main+0x1b5a>
    1f2f: 85 12        	sta	$12                     ; 0x2012 <main+0x1b58>
    1f31: c8           	iny
    1f32: 8a           	txa
    1f33: 71 14        	adc	($14),y                 ; 0x2014 <main+0x1b5a>
    1f35: 85 14        	sta	$14                     ; 0x2014 <main+0x1b5a>
    1f37: a5 12        	lda	$12                     ; 0x2012 <main+0x1b58>
    1f39: 06 12        	asl	$12                     ; 0x2012 <main+0x1b58>
    1f3b: 26 14        	rol	$14                     ; 0x2014 <main+0x1b5a>
    1f3d: 06 12        	asl	$12                     ; 0x2012 <main+0x1b58>
    1f3f: 26 14        	rol	$14                     ; 0x2014 <main+0x1b5a>
    1f41: 06 12        	asl	$12                     ; 0x2012 <main+0x1b58>
    1f43: 26 14        	rol	$14                     ; 0x2014 <main+0x1b5a>
    1f45: a4 14        	ldy	$14                     ; 0x2014 <main+0x1b5a>
    1f47: a6 0f        	ldx	$f                      ; 0x200f <main+0x1b55>
    1f49: 78           	sei
    1f4a: 84 0f        	sty	$f                      ; 0x200f <main+0x1b55>
    1f4c: a4 13        	ldy	$13                     ; 0x2013 <main+0x1b59>
    1f4e: 84 12        	sty	$12                     ; 0x2012 <main+0x1b58>
    1f50: 09 e0        	ora	#$e0
    1f52: 85 13        	sta	$13                     ; 0x2013 <main+0x1b59>
    1f54: b2 12        	lda	($12)                   ; 0x2012 <main+0x1b58>
    1f56: 86 0f        	stx	$f                      ; 0x200f <main+0x1b55>
    1f58: 58           	cli
    1f59: aa           	tax
    1f5a: 30 13        	bmi	$1f6f <main+0x1ab5>
    1f5c: 64 17        	stz	$17                     ; 0x2017 <main+0x1b5d>
    1f5e: 64 2c        	stz	$2c                     ; 0x202c <main+0x1b72>
    1f60: 64 25        	stz	$25                     ; 0x2025 <main+0x1b6b>
    1f62: 64 12        	stz	$12                     ; 0x2012 <main+0x1b58>
    1f64: 64 2f        	stz	$2f                     ; 0x202f <main+0x1b75>
    1f66: 64 13        	stz	$13                     ; 0x2013 <main+0x1b59>
    1f68: 64 14        	stz	$14                     ; 0x2014 <main+0x1b5a>
    1f6a: a6 2a        	ldx	$2a                     ; 0x202a <main+0x1b70>
    1f6c: 4c 8a 1d     	jmp	$1d8a <main+0x18d0>
    1f6f: 64 13        	stz	$13                     ; 0x2013 <main+0x1b59>
    1f71: 4a           	lsr
    1f72: aa           	tax
    1f73: a9 00        	lda	#$0
    1f75: 6a           	ror
    1f76: 29 80        	and	#$80
    1f78: a0 18        	ldy	#$18
    1f7a: 91 10        	sta	($10),y                 ; 0x2010 <main+0x1b56>
    1f7c: 8a           	txa
    1f7d: 29 3f        	and	#$3f
    1f7f: 85 2c        	sta	$2c                     ; 0x202c <main+0x1b72>
    1f81: a6 2a        	ldx	$2a                     ; 0x202a <main+0x1b70>
    1f83: 86 2f        	stx	$2f                     ; 0x202f <main+0x1b75>
    1f85: 46 2f        	lsr	$2f                     ; 0x202f <main+0x1b75>
    1f87: 66 2e        	ror	$2e                     ; 0x202e <main+0x1b74>
    1f89: a5 2e        	lda	$2e                     ; 0x202e <main+0x1b74>
    1f8b: a0 16        	ldy	#$16
    1f8d: 91 10        	sta	($10),y                 ; 0x2010 <main+0x1b56>
    1f8f: 64 25        	stz	$25                     ; 0x2025 <main+0x1b6b>
    1f91: 66 25        	ror	$25                     ; 0x2025 <main+0x1b6b>
    1f93: a6 78        	ldx	$78                     ; 0x2078 <main+0x1bbe>
    1f95: 86 2a        	stx	$2a                     ; 0x202a <main+0x1b70>
    1f97: a6 79        	ldx	$79                     ; 0x2079 <main+0x1bbf>
    1f99: 86 2e        	stx	$2e                     ; 0x202e <main+0x1b74>
    1f9b: a2 16        	ldx	#$16
    1f9d: 86 12        	stx	$12                     ; 0x2012 <main+0x1b58>
    1f9f: a2 00        	ldx	#$0
    1fa1: a5 24        	lda	$24                     ; 0x2024 <main+0x1b6a>
    1fa3: 20 25 3d     	jsr	$3d25 <__mulhi3>
    1fa6: 85 12        	sta	$12                     ; 0x2012 <main+0x1b58>
    1fa8: 86 13        	stx	$13                     ; 0x2013 <main+0x1b59>
    1faa: 18           	clc
    1fab: a5 2a        	lda	$2a                     ; 0x202a <main+0x1b70>
    1fad: 65 12        	adc	$12                     ; 0x2012 <main+0x1b58>
    1faf: a8           	tay
    1fb0: a5 2e        	lda	$2e                     ; 0x202e <main+0x1b74>
    1fb2: 65 13        	adc	$13                     ; 0x2013 <main+0x1b59>
    1fb4: aa           	tax
    1fb5: 84 12        	sty	$12                     ; 0x2012 <main+0x1b58>
    1fb7: 85 13        	sta	$13                     ; 0x2013 <main+0x1b59>
    1fb9: 18           	clc
    1fba: 98           	tya
    1fbb: 69 08        	adc	#$8
    1fbd: 85 14        	sta	$14                     ; 0x2014 <main+0x1b5a>
    1fbf: 8a           	txa
    1fc0: 69 00        	adc	#$0
    1fc2: 85 15        	sta	$15                     ; 0x2015 <main+0x1b5b>
    1fc4: 18           	clc
    1fc5: 98           	tya
    1fc6: 69 04        	adc	#$4
    1fc8: 85 16        	sta	$16                     ; 0x2016 <main+0x1b5c>
    1fca: 8a           	txa
    1fcb: 69 00        	adc	#$0
    1fcd: 85 17        	sta	$17                     ; 0x2017 <main+0x1b5d>
    1fcf: a0 04        	ldy	#$4
    1fd1: b1 12        	lda	($12),y                 ; 0x2012 <main+0x1b58>
    1fd3: 85 18        	sta	$18                     ; 0x2018 <main+0x1b5e>
    1fd5: a0 01        	ldy	#$1
    1fd7: b1 16        	lda	($16),y                 ; 0x2016 <main+0x1b5c>
    1fd9: 85 19        	sta	$19                     ; 0x2019 <main+0x1b5f>
    1fdb: c8           	iny
    1fdc: b1 16        	lda	($16),y                 ; 0x2016 <main+0x1b5c>
    1fde: aa           	tax
    1fdf: c8           	iny
    1fe0: b1 16        	lda	($16),y                 ; 0x2016 <main+0x1b5c>
    1fe2: 85 1b        	sta	$1b                     ; 0x201b <main+0x1b61>
    1fe4: a5 18        	lda	$18                     ; 0x2018 <main+0x1b5e>
    1fe6: a4 19        	ldy	$19                     ; 0x2019 <main+0x1b5f>
    1fe8: 86 1c        	stx	$1c                     ; 0x201c <main+0x1b62>
    1fea: 1a           	inc
    1feb: d0 09        	bne	$1ff6 <main+0x1b3c>
    1fed: c8           	iny
    1fee: d0 06        	bne	$1ff6 <main+0x1b3c>
    1ff0: e6 1c        	inc	$1c                     ; 0x201c <main+0x1b62>
    1ff2: d0 02        	bne	$1ff6 <main+0x1b3c>
    1ff4: e6 1b        	inc	$1b                     ; 0x201b <main+0x1b61>
    1ff6: 84 1d        	sty	$1d                     ; 0x201d <main+0x1b63>
    1ff8: a0 04        	ldy	#$4
    1ffa: 91 12        	sta	($12),y                 ; 0x2012 <main+0x1b58>
    1ffc: a0 01        	ldy	#$1
    1ffe: a5 1d        	lda	$1d                     ; 0x201d <main+0x1b63>
    2000: 91 16        	sta	($16),y                 ; 0x2016 <main+0x1b5c>
    2002: c8           	iny
    2003: a5 1c        	lda	$1c                     ; 0x201c <main+0x1b62>
    2005: 91 16        	sta	($16),y                 ; 0x2016 <main+0x1b5c>
    2007: c8           	iny
    2008: a5 1b        	lda	$1b                     ; 0x201b <main+0x1b61>
    200a: 91 16        	sta	($16),y                 ; 0x2016 <main+0x1b5c>
    200c: 18           	clc
    200d: a0 08        	ldy	#$8
    200f: a5 18        	lda	$18                     ; 0x2018 <main+0x1b5e>
    2011: 71 12        	adc	($12),y                 ; 0x2012 <main+0x1b58>
    2013: 85 13        	sta	$13                     ; 0x2013 <main+0x1b59>
    2015: a5 19        	lda	$19                     ; 0x2019 <main+0x1b5f>
    2017: a0 01        	ldy	#$1
    2019: 71 14        	adc	($14),y                 ; 0x2014 <main+0x1b5a>
    201b: 85 12        	sta	$12                     ; 0x2012 <main+0x1b58>
    201d: c8           	iny
    201e: 8a           	txa
    201f: 71 14        	adc	($14),y                 ; 0x2014 <main+0x1b5a>
    2021: 85 14        	sta	$14                     ; 0x2014 <main+0x1b5a>
    2023: a5 12        	lda	$12                     ; 0x2012 <main+0x1b58>
    2025: 06 12        	asl	$12                     ; 0x2012 <main+0x1b58>
    2027: 26 14        	rol	$14                     ; 0x2014 <main+0x1b5a>
    2029: 06 12        	asl	$12                     ; 0x2012 <main+0x1b58>
    202b: 26 14        	rol	$14                     ; 0x2014 <main+0x1b5a>
    202d: 06 12        	asl	$12                     ; 0x2012 <main+0x1b58>
    202f: 26 14        	rol	$14                     ; 0x2014 <main+0x1b5a>
    2031: a4 14        	ldy	$14                     ; 0x2014 <main+0x1b5a>
    2033: a6 0f        	ldx	$f                      ; 0x200f <main+0x1b55>
    2035: 78           	sei
    2036: 84 0f        	sty	$f                      ; 0x200f <main+0x1b55>
    2038: a4 13        	ldy	$13                     ; 0x2013 <main+0x1b59>
    203a: 84 12        	sty	$12                     ; 0x2012 <main+0x1b58>
    203c: 09 e0        	ora	#$e0
    203e: 85 13        	sta	$13                     ; 0x2013 <main+0x1b59>
    2040: b2 12        	lda	($12)                   ; 0x2012 <main+0x1b58>
    2042: 86 0f        	stx	$f                      ; 0x200f <main+0x1b55>
    2044: 58           	cli
    2045: aa           	tax
    2046: 30 1a        	bmi	$2062 <main+0x1ba8>
    2048: a6 25        	ldx	$25                     ; 0x2025 <main+0x1b6b>
    204a: 86 2e        	stx	$2e                     ; 0x202e <main+0x1b74>
    204c: 64 25        	stz	$25                     ; 0x2025 <main+0x1b6b>
    204e: 85 12        	sta	$12                     ; 0x2012 <main+0x1b58>
    2050: 64 13        	stz	$13                     ; 0x2013 <main+0x1b59>
    2052: 64 14        	stz	$14                     ; 0x2014 <main+0x1b5a>
    2054: 64 17        	stz	$17                     ; 0x2017 <main+0x1b5d>
    2056: a0 16        	ldy	#$16
    2058: b1 10        	lda	($10),y                 ; 0x2010 <main+0x1b56>
    205a: aa           	tax
    205b: a0 18        	ldy	#$18
    205d: b1 10        	lda	($10),y                 ; 0x2010 <main+0x1b56>
    205f: 4c 8a 1d     	jmp	$1d8a <main+0x18d0>
    2062: 4a           	lsr
    2063: 64 14        	stz	$14                     ; 0x2014 <main+0x1b5a>
    2065: 66 14        	ror	$14                     ; 0x2014 <main+0x1b5a>
    2067: 46 2c        	lsr	$2c                     ; 0x202c <main+0x1b72>
    2069: 48           	pha
    206a: a5 2c        	lda	$2c                     ; 0x202c <main+0x1b72>
    206c: a0 15        	ldy	#$15
    206e: 91 10        	sta	($10),y                 ; 0x2010 <main+0x1b56>
    2070: a0 18        	ldy	#$18
    2072: b1 10        	lda	($10),y                 ; 0x2010 <main+0x1b56>
    2074: 85 2c        	sta	$2c                     ; 0x202c <main+0x1b72>
    2076: 66 2c        	ror	$2c                     ; 0x202c <main+0x1b72>
    2078: 64 12        	stz	$12                     ; 0x2012 <main+0x1b58>
    207a: 66 12        	ror	$12                     ; 0x2012 <main+0x1b58>
    207c: a5 12        	lda	$12                     ; 0x2012 <main+0x1b58>
    207e: 91 10        	sta	($10),y                 ; 0x2010 <main+0x1b56>
    2080: 68           	pla
    2081: a6 2f        	ldx	$2f                     ; 0x202f <main+0x1b75>
    2083: 86 2a        	stx	$2a                     ; 0x202a <main+0x1b70>
    2085: 46 2a        	lsr	$2a                     ; 0x202a <main+0x1b70>
    2087: a8           	tay
    2088: 5a           	phy
    2089: a0 16        	ldy	#$16
    208b: b1 10        	lda	($10),y                 ; 0x2010 <main+0x1b56>
    208d: 6a           	ror
    208e: 85 2f        	sta	$2f                     ; 0x202f <main+0x1b75>
    2090: 66 25        	ror	$25                     ; 0x2025 <main+0x1b6b>
    2092: 64 2e        	stz	$2e                     ; 0x202e <main+0x1b74>
    2094: 66 2e        	ror	$2e                     ; 0x202e <main+0x1b74>
    2096: a5 14        	lda	$14                     ; 0x2014 <main+0x1b5a>
    2098: 29 80        	and	#$80
    209a: a0 14        	ldy	#$14
    209c: 91 10        	sta	($10),y                 ; 0x2010 <main+0x1b56>
    209e: 7a           	ply
    209f: 98           	tya
    20a0: 29 3f        	and	#$3f
    20a2: a0 16        	ldy	#$16
    20a4: 91 10        	sta	($10),y                 ; 0x2010 <main+0x1b56>
    20a6: a6 78        	ldx	$78                     ; 0x2078 <main+0x1bbe>
    20a8: 86 2d        	stx	$2d                     ; 0x202d <main+0x1b73>
    20aa: a6 79        	ldx	$79                     ; 0x2079 <main+0x1bbf>
    20ac: 86 2b        	stx	$2b                     ; 0x202b <main+0x1b71>
    20ae: a2 16        	ldx	#$16
    20b0: 86 12        	stx	$12                     ; 0x2012 <main+0x1b58>
    20b2: 64 13        	stz	$13                     ; 0x2013 <main+0x1b59>
    20b4: a2 00        	ldx	#$0
    20b6: a5 24        	lda	$24                     ; 0x2024 <main+0x1b6a>
    20b8: 20 25 3d     	jsr	$3d25 <__mulhi3>
    20bb: a4 2a        	ldy	$2a                     ; 0x202a <main+0x1b70>
    20bd: 84 17        	sty	$17                     ; 0x2017 <main+0x1b5d>
    20bf: 85 12        	sta	$12                     ; 0x2012 <main+0x1b58>
    20c1: 86 13        	stx	$13                     ; 0x2013 <main+0x1b59>
    20c3: 18           	clc
    20c4: a5 2d        	lda	$2d                     ; 0x202d <main+0x1b73>
    20c6: 65 12        	adc	$12                     ; 0x2012 <main+0x1b58>
    20c8: a8           	tay
    20c9: a5 2b        	lda	$2b                     ; 0x202b <main+0x1b71>
    20cb: 65 13        	adc	$13                     ; 0x2013 <main+0x1b59>
    20cd: aa           	tax
    20ce: 18           	clc
    20cf: 98           	tya
    20d0: 69 08        	adc	#$8
    20d2: 85 12        	sta	$12                     ; 0x2012 <main+0x1b58>
    20d4: 8a           	txa
    20d5: 69 00        	adc	#$0
    20d7: 84 14        	sty	$14                     ; 0x2014 <main+0x1b5a>
    20d9: 86 15        	stx	$15                     ; 0x2015 <main+0x1b5b>
    20db: 85 13        	sta	$13                     ; 0x2013 <main+0x1b59>
    20dd: 18           	clc
    20de: 98           	tya
    20df: 69 04        	adc	#$4
    20e1: 85 18        	sta	$18                     ; 0x2018 <main+0x1b5e>
    20e3: 8a           	txa
    20e4: 69 00        	adc	#$0
    20e6: 85 19        	sta	$19                     ; 0x2019 <main+0x1b5f>
    20e8: a0 04        	ldy	#$4
    20ea: b1 14        	lda	($14),y                 ; 0x2014 <main+0x1b5a>
    20ec: 85 16        	sta	$16                     ; 0x2016 <main+0x1b5c>
    20ee: a0 01        	ldy	#$1
    20f0: b1 18        	lda	($18),y                 ; 0x2018 <main+0x1b5e>
    20f2: aa           	tax
    20f3: c8           	iny
    20f4: b1 18        	lda	($18),y                 ; 0x2018 <main+0x1b5e>
    20f6: 85 1a        	sta	$1a                     ; 0x201a <main+0x1b60>
    20f8: c8           	iny
    20f9: b1 18        	lda	($18),y                 ; 0x2018 <main+0x1b5e>
    20fb: a4 16        	ldy	$16                     ; 0x2016 <main+0x1b5c>
    20fd: 86 1b        	stx	$1b                     ; 0x201b <main+0x1b61>
    20ff: 48           	pha
    2100: a5 1a        	lda	$1a                     ; 0x201a <main+0x1b60>
    2102: 85 1c        	sta	$1c                     ; 0x201c <main+0x1b62>
    2104: 68           	pla
    2105: c8           	iny
    2106: d0 0b        	bne	$2113 <main+0x1c59>
    2108: e6 1b        	inc	$1b                     ; 0x201b <main+0x1b61>
    210a: d0 07        	bne	$2113 <main+0x1c59>
    210c: e6 1c        	inc	$1c                     ; 0x201c <main+0x1b62>
    210e: d0 03        	bne	$2113 <main+0x1c59>
    2110: 4c 0c 22     	jmp	$220c <main+0x1d52>
    2113: 85 1d        	sta	$1d                     ; 0x201d <main+0x1b63>
    2115: 98           	tya
    2116: a0 04        	ldy	#$4
    2118: 91 14        	sta	($14),y                 ; 0x2014 <main+0x1b5a>
    211a: a0 01        	ldy	#$1
    211c: a5 1b        	lda	$1b                     ; 0x201b <main+0x1b61>
    211e: 91 18        	sta	($18),y                 ; 0x2018 <main+0x1b5e>
    2120: c8           	iny
    2121: a5 1c        	lda	$1c                     ; 0x201c <main+0x1b62>
    2123: 91 18        	sta	($18),y                 ; 0x2018 <main+0x1b5e>
    2125: c8           	iny
    2126: a5 1d        	lda	$1d                     ; 0x201d <main+0x1b63>
    2128: 91 18        	sta	($18),y                 ; 0x2018 <main+0x1b5e>
    212a: 18           	clc
    212b: a0 08        	ldy	#$8
    212d: a5 16        	lda	$16                     ; 0x2016 <main+0x1b5c>
    212f: 71 14        	adc	($14),y                 ; 0x2014 <main+0x1b5a>
    2131: 85 14        	sta	$14                     ; 0x2014 <main+0x1b5a>
    2133: a0 01        	ldy	#$1
    2135: 8a           	txa
    2136: 71 12        	adc	($12),y                 ; 0x2012 <main+0x1b58>
    2138: 85 15        	sta	$15                     ; 0x2015 <main+0x1b5b>
    213a: a5 1a        	lda	$1a                     ; 0x201a <main+0x1b60>
    213c: c8           	iny
    213d: 71 12        	adc	($12),y                 ; 0x2012 <main+0x1b58>
    213f: a6 15        	ldx	$15                     ; 0x2015 <main+0x1b5b>
    2141: 86 12        	stx	$12                     ; 0x2012 <main+0x1b58>
    2143: 06 12        	asl	$12                     ; 0x2012 <main+0x1b58>
    2145: 2a           	rol
    2146: 06 12        	asl	$12                     ; 0x2012 <main+0x1b58>
    2148: 2a           	rol
    2149: 06 12        	asl	$12                     ; 0x2012 <main+0x1b58>
    214b: 2a           	rol
    214c: a6 0f        	ldx	$f                      ; 0x200f <main+0x1b55>
    214e: 78           	sei
    214f: 85 0f        	sta	$f                      ; 0x200f <main+0x1b55>
    2151: a4 14        	ldy	$14                     ; 0x2014 <main+0x1b5a>
    2153: 84 12        	sty	$12                     ; 0x2012 <main+0x1b58>
    2155: a5 15        	lda	$15                     ; 0x2015 <main+0x1b5b>
    2157: 09 e0        	ora	#$e0
    2159: 85 13        	sta	$13                     ; 0x2013 <main+0x1b59>
    215b: b2 12        	lda	($12)                   ; 0x2012 <main+0x1b58>
    215d: 86 0f        	stx	$f                      ; 0x200f <main+0x1b55>
    215f: 48           	pha
    2160: a0 14        	ldy	#$14
    2162: b1 10        	lda	($10),y                 ; 0x2010 <main+0x1b56>
    2164: 85 12        	sta	$12                     ; 0x2012 <main+0x1b58>
    2166: a0 16        	ldy	#$16
    2168: b1 10        	lda	($10),y                 ; 0x2010 <main+0x1b56>
    216a: 85 13        	sta	$13                     ; 0x2013 <main+0x1b59>
    216c: 68           	pla
    216d: 85 14        	sta	$14                     ; 0x2014 <main+0x1b5a>
    216f: a0 18        	ldy	#$18
    2171: b1 10        	lda	($10),y                 ; 0x2010 <main+0x1b56>
    2173: a6 25        	ldx	$25                     ; 0x2025 <main+0x1b6b>
    2175: 58           	cli
    2176: 48           	pha
    2177: a0 15        	ldy	#$15
    2179: b1 10        	lda	($10),y                 ; 0x2010 <main+0x1b56>
    217b: 85 25        	sta	$25                     ; 0x2025 <main+0x1b6b>
    217d: 68           	pla
    217e: 4c 8a 1d     	jmp	$1d8a <main+0x18d0>
    2181: aa           	tax
    2182: f0 30        	beq	$21b4 <main+0x1cfa>
    2184: a2 16        	ldx	#$16
    2186: a4 78        	ldy	$78                     ; 0x2078 <main+0x1bbe>
    2188: 84 25        	sty	$25                     ; 0x2025 <main+0x1b6b>
    218a: a4 79        	ldy	$79                     ; 0x2079 <main+0x1bbf>
    218c: 84 24        	sty	$24                     ; 0x2024 <main+0x1b6a>
    218e: 86 12        	stx	$12                     ; 0x2012 <main+0x1b58>
    2190: 64 13        	stz	$13                     ; 0x2013 <main+0x1b59>
    2192: 64 2b        	stz	$2b                     ; 0x202b <main+0x1b71>
    2194: a2 00        	ldx	#$0
    2196: a0 12        	ldy	#$12
    2198: b1 10        	lda	($10),y                 ; 0x2010 <main+0x1b56>
    219a: 20 25 3d     	jsr	$3d25 <__mulhi3>
    219d: 85 12        	sta	$12                     ; 0x2012 <main+0x1b58>
    219f: 86 13        	stx	$13                     ; 0x2013 <main+0x1b59>
    21a1: 18           	clc
    21a2: a5 25        	lda	$25                     ; 0x2025 <main+0x1b6b>
    21a4: 65 12        	adc	$12                     ; 0x2012 <main+0x1b58>
    21a6: 85 12        	sta	$12                     ; 0x2012 <main+0x1b58>
    21a8: a5 24        	lda	$24                     ; 0x2024 <main+0x1b6a>
    21aa: 65 13        	adc	$13                     ; 0x2013 <main+0x1b59>
    21ac: 85 13        	sta	$13                     ; 0x2013 <main+0x1b59>
    21ae: a9 01        	lda	#$1
    21b0: a0 15        	ldy	#$15
    21b2: 91 12        	sta	($12),y                 ; 0x2012 <main+0x1b58>
    21b4: a6 74        	ldx	$74                     ; 0x2074 <main+0x1bba>
    21b6: 86 25        	stx	$25                     ; 0x2025 <main+0x1b6b>
    21b8: a6 75        	ldx	$75                     ; 0x2075 <main+0x1bbb>
    21ba: a0 17        	ldy	#$17
    21bc: b1 10        	lda	($10),y                 ; 0x2010 <main+0x1b56>
    21be: a8           	tay
    21bf: c5 75        	cmp	$75                     ; 0x2075 <main+0x1bbb>
    21c1: d0 15        	bne	$21d8 <main+0x1d1e>
    21c3: 5a           	phy
    21c4: a0 12        	ldy	#$12
    21c6: b1 10        	lda	($10),y                 ; 0x2010 <main+0x1b56>
    21c8: c5 25        	cmp	$25                     ; 0x2025 <main+0x1b6b>
    21ca: 64 12        	stz	$12                     ; 0x2012 <main+0x1b58>
    21cc: 48           	pha
    21cd: a9 00        	lda	#$0
    21cf: a0 15        	ldy	#$15
    21d1: 91 10        	sta	($10),y                 ; 0x2010 <main+0x1b56>
    21d3: 68           	pla
    21d4: 86 2a        	stx	$2a                     ; 0x202a <main+0x1b70>
    21d6: 80 11        	bra	$21e9 <main+0x1d2f>
    21d8: c4 75        	cpy	$75                     ; 0x2075 <main+0x1bbb>
    21da: 64 12        	stz	$12                     ; 0x2012 <main+0x1b58>
    21dc: 5a           	phy
    21dd: a9 00        	lda	#$0
    21df: a0 15        	ldy	#$15
    21e1: 91 10        	sta	($10),y                 ; 0x2010 <main+0x1b56>
    21e3: 86 2a        	stx	$2a                     ; 0x202a <main+0x1b70>
    21e5: a0 12        	ldy	#$12
    21e7: b1 10        	lda	($10),y                 ; 0x2010 <main+0x1b56>
    21e9: 85 15        	sta	$15                     ; 0x2015 <main+0x1b5b>
    21eb: a0 18        	ldy	#$18
    21ed: 91 10        	sta	($10),y                 ; 0x2010 <main+0x1b56>
    21ef: 7a           	ply
    21f0: 98           	tya
    21f1: 5a           	phy
    21f2: a0 16        	ldy	#$16
    21f4: 91 10        	sta	($10),y                 ; 0x2010 <main+0x1b56>
    21f6: a9 00        	lda	#$0
    21f8: a0 13        	ldy	#$13
    21fa: 91 10        	sta	($10),y                 ; 0x2010 <main+0x1b56>
    21fc: c8           	iny
    21fd: 91 10        	sta	($10),y                 ; 0x2010 <main+0x1b56>
    21ff: 7a           	ply
    2200: a9 00        	lda	#$0
    2202: 84 14        	sty	$14                     ; 0x2014 <main+0x1b5a>
    2204: b0 03        	bcs	$2209 <main+0x1d4f>
    2206: 4c a0 1a     	jmp	$1aa0 <main+0x15e6>
    2209: 4c 08 13     	jmp	$1308 <main+0xe4e>
    220c: 1a           	inc
    220d: 4c 13 21     	jmp	$2113 <main+0x1c59>

00002210 <readMIDICmd>:
    2210: 48           	pha
    2211: 18           	clc
    2212: a5 10        	lda	$10                     ; 0x2010 <main+0x1b56>
    2214: 69 ef        	adc	#$ef
    2216: 85 10        	sta	$10                     ; 0x2010 <main+0x1b56>
    2218: a5 11        	lda	$11                     ; 0x2011 <main+0x1b57>
    221a: 69 ff        	adc	#$ff
    221c: 85 11        	sta	$11                     ; 0x2011 <main+0x1b57>
    221e: 68           	pla
    221f: a6 24        	ldx	$24                     ; 0x2024 <main+0x1b6a>
    2221: da           	phx
    2222: a6 25        	ldx	$25                     ; 0x2025 <main+0x1b6b>
    2224: da           	phx
    2225: a6 26        	ldx	$26                     ; 0x2026 <main+0x1b6c>
    2227: da           	phx
    2228: a6 27        	ldx	$27                     ; 0x2027 <main+0x1b6d>
    222a: da           	phx
    222b: 48           	pha
    222c: a5 28        	lda	$28                     ; 0x2028 <main+0x1b6e>
    222e: a0 0b        	ldy	#$b
    2230: 91 10        	sta	($10),y                 ; 0x2010 <main+0x1b56>
    2232: a5 29        	lda	$29                     ; 0x2029 <main+0x1b6f>
    2234: 88           	dey
    2235: 91 10        	sta	($10),y                 ; 0x2010 <main+0x1b56>
    2237: a5 2a        	lda	$2a                     ; 0x202a <main+0x1b70>
    2239: 88           	dey
    223a: 91 10        	sta	($10),y                 ; 0x2010 <main+0x1b56>
    223c: a5 2b        	lda	$2b                     ; 0x202b <main+0x1b71>
    223e: 88           	dey
    223f: 91 10        	sta	($10),y                 ; 0x2010 <main+0x1b56>
    2241: a5 2c        	lda	$2c                     ; 0x202c <main+0x1b72>
    2243: 88           	dey
    2244: 91 10        	sta	($10),y                 ; 0x2010 <main+0x1b56>
    2246: a5 2d        	lda	$2d                     ; 0x202d <main+0x1b73>
    2248: 88           	dey
    2249: 91 10        	sta	($10),y                 ; 0x2010 <main+0x1b56>
    224b: a5 2e        	lda	$2e                     ; 0x202e <main+0x1b74>
    224d: 88           	dey
    224e: 91 10        	sta	($10),y                 ; 0x2010 <main+0x1b56>
    2250: a5 2f        	lda	$2f                     ; 0x202f <main+0x1b75>
    2252: 88           	dey
    2253: 91 10        	sta	($10),y                 ; 0x2010 <main+0x1b56>
    2255: 68           	pla
    2256: a6 78        	ldx	$78                     ; 0x2078 <main+0x1bbe>
    2258: 86 25        	stx	$25                     ; 0x2025 <main+0x1b6b>
    225a: a6 79        	ldx	$79                     ; 0x2079 <main+0x1bbf>
    225c: 86 24        	stx	$24                     ; 0x2024 <main+0x1b6a>
    225e: a2 16        	ldx	#$16
    2260: 86 12        	stx	$12                     ; 0x2012 <main+0x1b58>
    2262: 64 13        	stz	$13                     ; 0x2013 <main+0x1b59>
    2264: a2 00        	ldx	#$0
    2266: a0 0f        	ldy	#$f
    2268: 91 10        	sta	($10),y                 ; 0x2010 <main+0x1b56>
    226a: 20 25 3d     	jsr	$3d25 <__mulhi3>
    226d: 85 13        	sta	$13                     ; 0x2013 <main+0x1b59>
    226f: 86 12        	stx	$12                     ; 0x2012 <main+0x1b58>
    2271: 18           	clc
    2272: a5 25        	lda	$25                     ; 0x2025 <main+0x1b6b>
    2274: 65 13        	adc	$13                     ; 0x2013 <main+0x1b59>
    2276: aa           	tax
    2277: a5 24        	lda	$24                     ; 0x2024 <main+0x1b6a>
    2279: 65 12        	adc	$12                     ; 0x2012 <main+0x1b58>
    227b: 86 14        	stx	$14                     ; 0x2014 <main+0x1b5a>
    227d: 85 15        	sta	$15                     ; 0x2015 <main+0x1b5b>
    227f: 85 18        	sta	$18                     ; 0x2018 <main+0x1b5e>
    2281: 8a           	txa
    2282: 18           	clc
    2283: 69 08        	adc	#$8
    2285: 85 16        	sta	$16                     ; 0x2016 <main+0x1b5c>
    2287: a5 18        	lda	$18                     ; 0x2018 <main+0x1b5e>
    2289: 69 00        	adc	#$0
    228b: a0 08        	ldy	#$8
    228d: 85 17        	sta	$17                     ; 0x2017 <main+0x1b5d>
    228f: b1 14        	lda	($14),y                 ; 0x2014 <main+0x1b5a>
    2291: 85 1a        	sta	$1a                     ; 0x201a <main+0x1b60>
    2293: 18           	clc
    2294: 8a           	txa
    2295: 69 04        	adc	#$4
    2297: aa           	tax
    2298: a5 18        	lda	$18                     ; 0x2018 <main+0x1b5e>
    229a: 69 00        	adc	#$0
    229c: 85 19        	sta	$19                     ; 0x2019 <main+0x1b5f>
    229e: a0 01        	ldy	#$1
    22a0: 86 18        	stx	$18                     ; 0x2018 <main+0x1b5e>
    22a2: b1 16        	lda	($16),y                 ; 0x2016 <main+0x1b5c>
    22a4: 85 1b        	sta	$1b                     ; 0x201b <main+0x1b61>
    22a6: c8           	iny
    22a7: b1 16        	lda	($16),y                 ; 0x2016 <main+0x1b5c>
    22a9: 85 16        	sta	$16                     ; 0x2016 <main+0x1b5c>
    22ab: 18           	clc
    22ac: a0 04        	ldy	#$4
    22ae: a5 1a        	lda	$1a                     ; 0x201a <main+0x1b60>
    22b0: 71 14        	adc	($14),y                 ; 0x2014 <main+0x1b5a>
    22b2: 85 15        	sta	$15                     ; 0x2015 <main+0x1b5b>
    22b4: a5 1b        	lda	$1b                     ; 0x201b <main+0x1b61>
    22b6: a0 01        	ldy	#$1
    22b8: 71 18        	adc	($18),y                 ; 0x2018 <main+0x1b5e>
    22ba: aa           	tax
    22bb: c8           	iny
    22bc: a5 16        	lda	$16                     ; 0x2016 <main+0x1b5c>
    22be: 71 18        	adc	($18),y                 ; 0x2018 <main+0x1b5e>
    22c0: 85 16        	sta	$16                     ; 0x2016 <main+0x1b5c>
    22c2: 8a           	txa
    22c3: 86 14        	stx	$14                     ; 0x2014 <main+0x1b5a>
    22c5: 06 14        	asl	$14                     ; 0x2014 <main+0x1b5a>
    22c7: 26 16        	rol	$16                     ; 0x2016 <main+0x1b5c>
    22c9: 06 14        	asl	$14                     ; 0x2014 <main+0x1b5a>
    22cb: 26 16        	rol	$16                     ; 0x2016 <main+0x1b5c>
    22cd: 06 14        	asl	$14                     ; 0x2014 <main+0x1b5a>
    22cf: 26 16        	rol	$16                     ; 0x2016 <main+0x1b5c>
    22d1: a4 16        	ldy	$16                     ; 0x2016 <main+0x1b5c>
    22d3: a6 0f        	ldx	$f                      ; 0x200f <main+0x1b55>
    22d5: 78           	sei
    22d6: 84 0f        	sty	$f                      ; 0x200f <main+0x1b55>
    22d8: a4 15        	ldy	$15                     ; 0x2015 <main+0x1b5b>
    22da: 84 14        	sty	$14                     ; 0x2014 <main+0x1b5a>
    22dc: 09 e0        	ora	#$e0
    22de: 85 15        	sta	$15                     ; 0x2015 <main+0x1b5b>
    22e0: b2 14        	lda	($14)                   ; 0x2014 <main+0x1b5a>
    22e2: 85 2e        	sta	$2e                     ; 0x202e <main+0x1b74>
    22e4: 86 0f        	stx	$f                      ; 0x200f <main+0x1b55>
    22e6: 58           	cli
    22e7: 18           	clc
    22e8: a5 13        	lda	$13                     ; 0x2013 <main+0x1b59>
    22ea: 65 78        	adc	$78                     ; 0x2078 <main+0x1bbe>
    22ec: aa           	tax
    22ed: a5 12        	lda	$12                     ; 0x2012 <main+0x1b58>
    22ef: 65 79        	adc	$79                     ; 0x2079 <main+0x1bbf>
    22f1: a8           	tay
    22f2: 8a           	txa
    22f3: 18           	clc
    22f4: 69 08        	adc	#$8
    22f6: 85 14        	sta	$14                     ; 0x2014 <main+0x1b5a>
    22f8: 98           	tya
    22f9: 69 00        	adc	#$0
    22fb: 85 15        	sta	$15                     ; 0x2015 <main+0x1b5b>
    22fd: 86 16        	stx	$16                     ; 0x2016 <main+0x1b5c>
    22ff: 84 17        	sty	$17                     ; 0x2017 <main+0x1b5d>
    2301: 18           	clc
    2302: 8a           	txa
    2303: 69 04        	adc	#$4
    2305: 85 18        	sta	$18                     ; 0x2018 <main+0x1b5e>
    2307: 98           	tya
    2308: 69 00        	adc	#$0
    230a: 85 19        	sta	$19                     ; 0x2019 <main+0x1b5f>
    230c: a0 04        	ldy	#$4
    230e: b1 16        	lda	($16),y                 ; 0x2016 <main+0x1b5c>
    2310: 85 1c        	sta	$1c                     ; 0x201c <main+0x1b62>
    2312: a0 01        	ldy	#$1
    2314: b1 18        	lda	($18),y                 ; 0x2018 <main+0x1b5e>
    2316: aa           	tax
    2317: c8           	iny
    2318: b1 18        	lda	($18),y                 ; 0x2018 <main+0x1b5e>
    231a: 85 1d        	sta	$1d                     ; 0x201d <main+0x1b63>
    231c: c8           	iny
    231d: b1 18        	lda	($18),y                 ; 0x2018 <main+0x1b5e>
    231f: 85 18        	sta	$18                     ; 0x2018 <main+0x1b5e>
    2321: 18           	clc
    2322: a0 08        	ldy	#$8
    2324: a5 1c        	lda	$1c                     ; 0x201c <main+0x1b62>
    2326: 71 16        	adc	($16),y                 ; 0x2016 <main+0x1b5c>
    2328: 85 16        	sta	$16                     ; 0x2016 <main+0x1b5c>
    232a: a0 01        	ldy	#$1
    232c: 8a           	txa
    232d: 71 14        	adc	($14),y                 ; 0x2014 <main+0x1b5a>
    232f: 85 17        	sta	$17                     ; 0x2017 <main+0x1b5d>
    2331: c8           	iny
    2332: a5 1d        	lda	$1d                     ; 0x201d <main+0x1b63>
    2334: 71 14        	adc	($14),y                 ; 0x2014 <main+0x1b5a>
    2336: aa           	tax
    2337: a5 18        	lda	$18                     ; 0x2018 <main+0x1b5e>
    2339: c8           	iny
    233a: 71 14        	adc	($14),y                 ; 0x2014 <main+0x1b5a>
    233c: a8           	tay
    233d: a5 17        	lda	$17                     ; 0x2017 <main+0x1b5d>
    233f: e6 16        	inc	$16                     ; 0x2016 <main+0x1b5c>
    2341: d0 07        	bne	$234a <readMIDICmd+0x13a>
    2343: 1a           	inc
    2344: d0 04        	bne	$234a <readMIDICmd+0x13a>
    2346: e8           	inx
    2347: d0 01        	bne	$234a <readMIDICmd+0x13a>
    2349: c8           	iny
    234a: 85 14        	sta	$14                     ; 0x2014 <main+0x1b5a>
    234c: 06 14        	asl	$14                     ; 0x2014 <main+0x1b5a>
    234e: 86 15        	stx	$15                     ; 0x2015 <main+0x1b5b>
    2350: 26 15        	rol	$15                     ; 0x2015 <main+0x1b5b>
    2352: 06 14        	asl	$14                     ; 0x2014 <main+0x1b5a>
    2354: 26 15        	rol	$15                     ; 0x2015 <main+0x1b5b>
    2356: 06 14        	asl	$14                     ; 0x2014 <main+0x1b5a>
    2358: 26 15        	rol	$15                     ; 0x2015 <main+0x1b5b>
    235a: a4 15        	ldy	$15                     ; 0x2015 <main+0x1b5b>
    235c: a6 0f        	ldx	$f                      ; 0x200f <main+0x1b55>
    235e: 78           	sei
    235f: 84 0f        	sty	$f                      ; 0x200f <main+0x1b55>
    2361: a4 16        	ldy	$16                     ; 0x2016 <main+0x1b5c>
    2363: 84 14        	sty	$14                     ; 0x2014 <main+0x1b5a>
    2365: 09 e0        	ora	#$e0
    2367: 85 15        	sta	$15                     ; 0x2015 <main+0x1b5b>
    2369: b2 14        	lda	($14)                   ; 0x2014 <main+0x1b5a>
    236b: 85 18        	sta	$18                     ; 0x2018 <main+0x1b5e>
    236d: 86 0f        	stx	$f                      ; 0x200f <main+0x1b55>
    236f: 58           	cli
    2370: 18           	clc
    2371: a5 13        	lda	$13                     ; 0x2013 <main+0x1b59>
    2373: 65 78        	adc	$78                     ; 0x2078 <main+0x1bbe>
    2375: a8           	tay
    2376: a5 12        	lda	$12                     ; 0x2012 <main+0x1b58>
    2378: 65 79        	adc	$79                     ; 0x2079 <main+0x1bbf>
    237a: aa           	tax
    237b: 98           	tya
    237c: 84 14        	sty	$14                     ; 0x2014 <main+0x1b5a>
    237e: 86 15        	stx	$15                     ; 0x2015 <main+0x1b5b>
    2380: 84 1a        	sty	$1a                     ; 0x201a <main+0x1b60>
    2382: 18           	clc
    2383: 69 04        	adc	#$4
    2385: 85 16        	sta	$16                     ; 0x2016 <main+0x1b5c>
    2387: 8a           	txa
    2388: 69 00        	adc	#$0
    238a: 85 17        	sta	$17                     ; 0x2017 <main+0x1b5d>
    238c: a0 04        	ldy	#$4
    238e: b1 14        	lda	($14),y                 ; 0x2014 <main+0x1b5a>
    2390: 85 19        	sta	$19                     ; 0x2019 <main+0x1b5f>
    2392: a0 01        	ldy	#$1
    2394: b1 16        	lda	($16),y                 ; 0x2016 <main+0x1b5c>
    2396: 85 1b        	sta	$1b                     ; 0x201b <main+0x1b61>
    2398: c8           	iny
    2399: b1 16        	lda	($16),y                 ; 0x2016 <main+0x1b5c>
    239b: 85 17        	sta	$17                     ; 0x2017 <main+0x1b5d>
    239d: 18           	clc
    239e: a0 08        	ldy	#$8
    23a0: a5 19        	lda	$19                     ; 0x2019 <main+0x1b5f>
    23a2: 71 14        	adc	($14),y                 ; 0x2014 <main+0x1b5a>
    23a4: a0 01        	ldy	#$1
    23a6: b0 02        	bcs	$23aa <readMIDICmd+0x19a>
    23a8: a0 00        	ldy	#$0
    23aa: 84 19        	sty	$19                     ; 0x2019 <main+0x1b5f>
    23ac: 85 16        	sta	$16                     ; 0x2016 <main+0x1b5c>
    23ae: 18           	clc
    23af: a5 1a        	lda	$1a                     ; 0x201a <main+0x1b60>
    23b1: 69 08        	adc	#$8
    23b3: 85 14        	sta	$14                     ; 0x2014 <main+0x1b5a>
    23b5: 8a           	txa
    23b6: 69 00        	adc	#$0
    23b8: 85 15        	sta	$15                     ; 0x2015 <main+0x1b5b>
    23ba: a0 01        	ldy	#$1
    23bc: a5 1b        	lda	$1b                     ; 0x201b <main+0x1b61>
    23be: a6 19        	ldx	$19                     ; 0x2019 <main+0x1b5f>
    23c0: e0 01        	cpx	#$1
    23c2: 71 14        	adc	($14),y                 ; 0x2014 <main+0x1b5a>
    23c4: 85 19        	sta	$19                     ; 0x2019 <main+0x1b5f>
    23c6: c8           	iny
    23c7: a5 17        	lda	$17                     ; 0x2017 <main+0x1b5d>
    23c9: 71 14        	adc	($14),y                 ; 0x2014 <main+0x1b5a>
    23cb: 85 14        	sta	$14                     ; 0x2014 <main+0x1b5a>
    23cd: 18           	clc
    23ce: a5 16        	lda	$16                     ; 0x2016 <main+0x1b5c>
    23d0: 69 02        	adc	#$2
    23d2: 85 16        	sta	$16                     ; 0x2016 <main+0x1b5c>
    23d4: a5 19        	lda	$19                     ; 0x2019 <main+0x1b5f>
    23d6: 69 00        	adc	#$0
    23d8: aa           	tax
    23d9: a5 14        	lda	$14                     ; 0x2014 <main+0x1b5a>
    23db: 69 00        	adc	#$0
    23dd: 85 15        	sta	$15                     ; 0x2015 <main+0x1b5b>
    23df: 8a           	txa
    23e0: 86 14        	stx	$14                     ; 0x2014 <main+0x1b5a>
    23e2: 06 14        	asl	$14                     ; 0x2014 <main+0x1b5a>
    23e4: 26 15        	rol	$15                     ; 0x2015 <main+0x1b5b>
    23e6: 06 14        	asl	$14                     ; 0x2014 <main+0x1b5a>
    23e8: 26 15        	rol	$15                     ; 0x2015 <main+0x1b5b>
    23ea: 06 14        	asl	$14                     ; 0x2014 <main+0x1b5a>
    23ec: 26 15        	rol	$15                     ; 0x2015 <main+0x1b5b>
    23ee: a4 15        	ldy	$15                     ; 0x2015 <main+0x1b5b>
    23f0: a6 0f        	ldx	$f                      ; 0x200f <main+0x1b55>
    23f2: 78           	sei
    23f3: 84 0f        	sty	$f                      ; 0x200f <main+0x1b55>
    23f5: a4 16        	ldy	$16                     ; 0x2016 <main+0x1b5c>
    23f7: 84 14        	sty	$14                     ; 0x2014 <main+0x1b5a>
    23f9: 09 e0        	ora	#$e0
    23fb: 85 15        	sta	$15                     ; 0x2015 <main+0x1b5b>
    23fd: b2 14        	lda	($14)                   ; 0x2014 <main+0x1b5a>
    23ff: 85 14        	sta	$14                     ; 0x2014 <main+0x1b5a>
    2401: 86 0f        	stx	$f                      ; 0x200f <main+0x1b55>
    2403: 58           	cli
    2404: a4 78        	ldy	$78                     ; 0x2078 <main+0x1bbe>
    2406: a6 79        	ldx	$79                     ; 0x2079 <main+0x1bbf>
    2408: 84 2d        	sty	$2d                     ; 0x202d <main+0x1b73>
    240a: 98           	tya
    240b: 18           	clc
    240c: 65 13        	adc	$13                     ; 0x2013 <main+0x1b59>
    240e: a8           	tay
    240f: 8a           	txa
    2410: 65 12        	adc	$12                     ; 0x2012 <main+0x1b58>
    2412: 84 28        	sty	$28                     ; 0x2028 <main+0x1b6e>
    2414: 85 29        	sta	$29                     ; 0x2029 <main+0x1b6f>
    2416: 85 12        	sta	$12                     ; 0x2012 <main+0x1b58>
    2418: 18           	clc
    2419: 98           	tya
    241a: 69 04        	adc	#$4
    241c: 85 26        	sta	$26                     ; 0x2026 <main+0x1b6c>
    241e: a5 12        	lda	$12                     ; 0x2012 <main+0x1b58>
    2420: 69 00        	adc	#$0
    2422: 85 27        	sta	$27                     ; 0x2027 <main+0x1b6d>
    2424: a0 10        	ldy	#$10
    2426: a5 2e        	lda	$2e                     ; 0x202e <main+0x1b74>
    2428: 91 28        	sta	($28),y                 ; 0x2028 <main+0x1b6e>
    242a: c8           	iny
    242b: a5 18        	lda	$18                     ; 0x2018 <main+0x1b5e>
    242d: 85 2f        	sta	$2f                     ; 0x202f <main+0x1b75>
    242f: 91 28        	sta	($28),y                 ; 0x2028 <main+0x1b6e>
    2431: c8           	iny
    2432: a5 14        	lda	$14                     ; 0x2014 <main+0x1b5a>
    2434: 85 16        	sta	$16                     ; 0x2016 <main+0x1b5c>
    2436: 91 28        	sta	($28),y                 ; 0x2028 <main+0x1b6e>
    2438: a0 04        	ldy	#$4
    243a: b1 28        	lda	($28),y                 ; 0x2028 <main+0x1b6e>
    243c: 85 13        	sta	$13                     ; 0x2013 <main+0x1b59>
    243e: a0 01        	ldy	#$1
    2440: b1 26        	lda	($26),y                 ; 0x2026 <main+0x1b6c>
    2442: 85 15        	sta	$15                     ; 0x2015 <main+0x1b5b>
    2444: c8           	iny
    2445: b1 26        	lda	($26),y                 ; 0x2026 <main+0x1b6c>
    2447: 85 12        	sta	$12                     ; 0x2012 <main+0x1b58>
    2449: c8           	iny
    244a: b1 26        	lda	($26),y                 ; 0x2026 <main+0x1b6c>
    244c: a8           	tay
    244d: a5 13        	lda	$13                     ; 0x2013 <main+0x1b59>
    244f: 85 24        	sta	$24                     ; 0x2024 <main+0x1b6a>
    2451: 5a           	phy
    2452: a4 15        	ldy	$15                     ; 0x2015 <main+0x1b5b>
    2454: 84 2b        	sty	$2b                     ; 0x202b <main+0x1b71>
    2456: a4 12        	ldy	$12                     ; 0x2012 <main+0x1b58>
    2458: 84 2c        	sty	$2c                     ; 0x202c <main+0x1b72>
    245a: 7a           	ply
    245b: 84 2a        	sty	$2a                     ; 0x202a <main+0x1b70>
    245d: 84 13        	sty	$13                     ; 0x2013 <main+0x1b59>
    245f: 1a           	inc
    2460: d0 0a        	bne	$246c <readMIDICmd+0x25c>
    2462: e6 15        	inc	$15                     ; 0x2015 <main+0x1b5b>
    2464: d0 06        	bne	$246c <readMIDICmd+0x25c>
    2466: e6 12        	inc	$12                     ; 0x2012 <main+0x1b58>
    2468: d0 02        	bne	$246c <readMIDICmd+0x25c>
    246a: e6 13        	inc	$13                     ; 0x2013 <main+0x1b59>
    246c: a0 04        	ldy	#$4
    246e: 85 14        	sta	$14                     ; 0x2014 <main+0x1b5a>
    2470: 91 28        	sta	($28),y                 ; 0x2028 <main+0x1b6e>
    2472: a0 01        	ldy	#$1
    2474: a5 15        	lda	$15                     ; 0x2015 <main+0x1b5b>
    2476: 85 25        	sta	$25                     ; 0x2025 <main+0x1b6b>
    2478: 91 26        	sta	($26),y                 ; 0x2026 <main+0x1b6c>
    247a: c8           	iny
    247b: a5 12        	lda	$12                     ; 0x2012 <main+0x1b58>
    247d: 85 17        	sta	$17                     ; 0x2017 <main+0x1b5d>
    247f: 91 26        	sta	($26),y                 ; 0x2026 <main+0x1b6c>
    2481: c8           	iny
    2482: a5 13        	lda	$13                     ; 0x2013 <main+0x1b59>
    2484: 91 26        	sta	($26),y                 ; 0x2026 <main+0x1b6c>
    2486: a4 2e        	ldy	$2e                     ; 0x202e <main+0x1b74>
    2488: 10 03        	bpl	$248d <readMIDICmd+0x27d>
    248a: 4c 73 25     	jmp	$2573 <readMIDICmd+0x363>
    248d: 86 25        	stx	$25                     ; 0x2025 <main+0x1b6b>
    248f: a2 16        	ldx	#$16
    2491: 86 12        	stx	$12                     ; 0x2012 <main+0x1b58>
    2493: 64 13        	stz	$13                     ; 0x2013 <main+0x1b59>
    2495: 64 14        	stz	$14                     ; 0x2014 <main+0x1b5a>
    2497: a9 00        	lda	#$0
    2499: a0 10        	ldy	#$10
    249b: 91 10        	sta	($10),y                 ; 0x2010 <main+0x1b56>
    249d: aa           	tax
    249e: 88           	dey
    249f: b1 10        	lda	($10),y                 ; 0x2010 <main+0x1b56>
    24a1: 20 25 3d     	jsr	$3d25 <__mulhi3>
    24a4: 85 12        	sta	$12                     ; 0x2012 <main+0x1b58>
    24a6: 86 13        	stx	$13                     ; 0x2013 <main+0x1b59>
    24a8: a5 2e        	lda	$2e                     ; 0x202e <main+0x1b74>
    24aa: a6 2e        	ldx	$2e                     ; 0x202e <main+0x1b74>
    24ac: a0 11        	ldy	#$11
    24ae: 91 28        	sta	($28),y                 ; 0x2028 <main+0x1b6e>
    24b0: a5 2f        	lda	$2f                     ; 0x202f <main+0x1b75>
    24b2: 85 16        	sta	$16                     ; 0x2016 <main+0x1b5c>
    24b4: c8           	iny
    24b5: 91 28        	sta	($28),y                 ; 0x2028 <main+0x1b6e>
    24b7: a5 24        	lda	$24                     ; 0x2024 <main+0x1b6a>
    24b9: a0 0d        	ldy	#$d
    24bb: 91 10        	sta	($10),y                 ; 0x2010 <main+0x1b56>
    24bd: a0 04        	ldy	#$4
    24bf: 91 28        	sta	($28),y                 ; 0x2028 <main+0x1b6e>
    24c1: a5 2d        	lda	$2d                     ; 0x202d <main+0x1b73>
    24c3: 18           	clc
    24c4: 65 12        	adc	$12                     ; 0x2012 <main+0x1b58>
    24c6: 85 12        	sta	$12                     ; 0x2012 <main+0x1b58>
    24c8: a5 25        	lda	$25                     ; 0x2025 <main+0x1b6b>
    24ca: a0 0c        	ldy	#$c
    24cc: 91 10        	sta	($10),y                 ; 0x2010 <main+0x1b56>
    24ce: 65 13        	adc	$13                     ; 0x2013 <main+0x1b59>
    24d0: 85 13        	sta	$13                     ; 0x2013 <main+0x1b59>
    24d2: a0 13        	ldy	#$13
    24d4: b1 12        	lda	($12),y                 ; 0x2012 <main+0x1b58>
    24d6: 85 2e        	sta	$2e                     ; 0x202e <main+0x1b74>
    24d8: b1 12        	lda	($12),y                 ; 0x2012 <main+0x1b58>
    24da: a0 10        	ldy	#$10
    24dc: 91 28        	sta	($28),y                 ; 0x2028 <main+0x1b6e>
    24de: a0 01        	ldy	#$1
    24e0: a5 2b        	lda	$2b                     ; 0x202b <main+0x1b71>
    24e2: 85 25        	sta	$25                     ; 0x2025 <main+0x1b6b>
    24e4: 91 26        	sta	($26),y                 ; 0x2026 <main+0x1b6c>
    24e6: c8           	iny
    24e7: a5 2c        	lda	$2c                     ; 0x202c <main+0x1b72>
    24e9: 91 26        	sta	($26),y                 ; 0x2026 <main+0x1b6c>
    24eb: 85 14        	sta	$14                     ; 0x2014 <main+0x1b5a>
    24ed: a5 2a        	lda	$2a                     ; 0x202a <main+0x1b70>
    24ef: a0 0e        	ldy	#$e
    24f1: 91 10        	sta	($10),y                 ; 0x2010 <main+0x1b56>
    24f3: a0 03        	ldy	#$3
    24f5: 91 26        	sta	($26),y                 ; 0x2026 <main+0x1b6c>
    24f7: 64 17        	stz	$17                     ; 0x2017 <main+0x1b5d>
    24f9: 64 18        	stz	$18                     ; 0x2018 <main+0x1b5e>
    24fb: 64 19        	stz	$19                     ; 0x2019 <main+0x1b5f>
    24fd: a4 14        	ldy	$14                     ; 0x2014 <main+0x1b5a>
    24ff: 84 24        	sty	$24                     ; 0x2024 <main+0x1b6a>
    2501: a4 2e        	ldy	$2e                     ; 0x202e <main+0x1b74>
    2503: c0 ff        	cpy	#$ff
    2505: d0 03        	bne	$250a <readMIDICmd+0x2fa>
    2507: 4c a1 25     	jmp	$25a1 <readMIDICmd+0x391>
    250a: a6 2e        	ldx	$2e                     ; 0x202e <main+0x1b74>
    250c: e0 c0        	cpx	#$c0
    250e: b0 03        	bcs	$2513 <readMIDICmd+0x303>
    2510: 4c b0 25     	jmp	$25b0 <readMIDICmd+0x3a0>
    2513: a6 2e        	ldx	$2e                     ; 0x202e <main+0x1b74>
    2515: e0 e0        	cpx	#$e0
    2517: 90 03        	bcc	$251c <readMIDICmd+0x30c>
    2519: 4c 21 26     	jmp	$2621 <readMIDICmd+0x411>
    251c: a0 0d        	ldy	#$d
    251e: b1 10        	lda	($10),y                 ; 0x2010 <main+0x1b56>
    2520: 48           	pha
    2521: c8           	iny
    2522: b1 10        	lda	($10),y                 ; 0x2010 <main+0x1b56>
    2524: aa           	tax
    2525: 68           	pla
    2526: 1a           	inc
    2527: d0 09        	bne	$2532 <readMIDICmd+0x322>
    2529: e6 25        	inc	$25                     ; 0x2025 <main+0x1b6b>
    252b: d0 05        	bne	$2532 <readMIDICmd+0x322>
    252d: e6 24        	inc	$24                     ; 0x2024 <main+0x1b6a>
    252f: d0 01        	bne	$2532 <readMIDICmd+0x322>
    2531: e8           	inx
    2532: a0 04        	ldy	#$4
    2534: 91 28        	sta	($28),y                 ; 0x2028 <main+0x1b6e>
    2536: a0 01        	ldy	#$1
    2538: a5 25        	lda	$25                     ; 0x2025 <main+0x1b6b>
    253a: 91 26        	sta	($26),y                 ; 0x2026 <main+0x1b6c>
    253c: c8           	iny
    253d: a5 24        	lda	$24                     ; 0x2024 <main+0x1b6a>
    253f: 91 26        	sta	($26),y                 ; 0x2026 <main+0x1b6c>
    2541: c8           	iny
    2542: 8a           	txa
    2543: 91 26        	sta	($26),y                 ; 0x2026 <main+0x1b6c>
    2545: a0 16        	ldy	#$16
    2547: 64 13        	stz	$13                     ; 0x2013 <main+0x1b59>
    2549: a2 00        	ldx	#$0
    254b: 84 12        	sty	$12                     ; 0x2012 <main+0x1b58>
    254d: a0 0f        	ldy	#$f
    254f: b1 10        	lda	($10),y                 ; 0x2010 <main+0x1b56>
    2551: 20 25 3d     	jsr	$3d25 <__mulhi3>
    2554: 85 12        	sta	$12                     ; 0x2012 <main+0x1b58>
    2556: 86 13        	stx	$13                     ; 0x2013 <main+0x1b59>
    2558: 18           	clc
    2559: a5 2d        	lda	$2d                     ; 0x202d <main+0x1b73>
    255b: 65 12        	adc	$12                     ; 0x2012 <main+0x1b58>
    255d: 85 12        	sta	$12                     ; 0x2012 <main+0x1b58>
    255f: a0 0c        	ldy	#$c
    2561: b1 10        	lda	($10),y                 ; 0x2010 <main+0x1b56>
    2563: 65 13        	adc	$13                     ; 0x2013 <main+0x1b59>
    2565: 85 13        	sta	$13                     ; 0x2013 <main+0x1b59>
    2567: a0 14        	ldy	#$14
    2569: a9 01        	lda	#$1
    256b: 91 12        	sta	($12),y                 ; 0x2012 <main+0x1b58>
    256d: 88           	dey
    256e: a5 2e        	lda	$2e                     ; 0x202e <main+0x1b74>
    2570: 4c 77 26     	jmp	$2677 <readMIDICmd+0x467>
    2573: 85 15        	sta	$15                     ; 0x2015 <main+0x1b5b>
    2575: 8a           	txa
    2576: a0 0c        	ldy	#$c
    2578: 91 10        	sta	($10),y                 ; 0x2010 <main+0x1b56>
    257a: a5 14        	lda	$14                     ; 0x2014 <main+0x1b5a>
    257c: c8           	iny
    257d: 91 10        	sta	($10),y                 ; 0x2010 <main+0x1b56>
    257f: a6 17        	ldx	$17                     ; 0x2017 <main+0x1b5d>
    2581: 86 24        	stx	$24                     ; 0x2024 <main+0x1b6a>
    2583: a5 15        	lda	$15                     ; 0x2015 <main+0x1b5b>
    2585: c8           	iny
    2586: 91 10        	sta	($10),y                 ; 0x2010 <main+0x1b56>
    2588: a6 2f        	ldx	$2f                     ; 0x202f <main+0x1b75>
    258a: 64 12        	stz	$12                     ; 0x2012 <main+0x1b58>
    258c: a9 00        	lda	#$0
    258e: a0 10        	ldy	#$10
    2590: 91 10        	sta	($10),y                 ; 0x2010 <main+0x1b56>
    2592: 64 17        	stz	$17                     ; 0x2017 <main+0x1b5d>
    2594: 64 18        	stz	$18                     ; 0x2018 <main+0x1b5e>
    2596: 64 19        	stz	$19                     ; 0x2019 <main+0x1b5f>
    2598: a4 2e        	ldy	$2e                     ; 0x202e <main+0x1b74>
    259a: c0 ff        	cpy	#$ff
    259c: f0 03        	beq	$25a1 <readMIDICmd+0x391>
    259e: 4c 0a 25     	jmp	$250a <readMIDICmd+0x2fa>
    25a1: a4 24        	ldy	$24                     ; 0x2024 <main+0x1b6a>
    25a3: 84 14        	sty	$14                     ; 0x2014 <main+0x1b5a>
    25a5: a0 10        	ldy	#$10
    25a7: b1 10        	lda	($10),y                 ; 0x2010 <main+0x1b56>
    25a9: a8           	tay
    25aa: d0 0e        	bne	$25ba <readMIDICmd+0x3aa>
    25ac: e0 5a        	cpx	#$5a
    25ae: 80 0c        	bra	$25bc <readMIDICmd+0x3ac>
    25b0: a5 2e        	lda	$2e                     ; 0x202e <main+0x1b74>
    25b2: 30 03        	bmi	$25b7 <readMIDICmd+0x3a7>
    25b4: 4c 79 26     	jmp	$2679 <readMIDICmd+0x469>
    25b7: 4c 27 26     	jmp	$2627 <readMIDICmd+0x417>
    25ba: c0 00        	cpy	#$0
    25bc: a0 01        	ldy	#$1
    25be: 98           	tya
    25bf: a0 10        	ldy	#$10
    25c1: 91 10        	sta	($10),y                 ; 0x2010 <main+0x1b56>
    25c3: 90 03        	bcc	$25c8 <readMIDICmd+0x3b8>
    25c5: 4c 3e 2a     	jmp	$2a3e <readMIDICmd+0x82e>
    25c8: 86 12        	stx	$12                     ; 0x2012 <main+0x1b58>
    25ca: 06 12        	asl	$12                     ; 0x2012 <main+0x1b58>
    25cc: a6 12        	ldx	$12                     ; 0x2012 <main+0x1b58>
    25ce: 7c 37 3f     	jmp	($3f37,x)               ; 0x3f37 <__set_v+0x1>
    25d1: a0 0d        	ldy	#$d
    25d3: b1 10        	lda	($10),y                 ; 0x2010 <main+0x1b56>
    25d5: 85 12        	sta	$12                     ; 0x2012 <main+0x1b58>
    25d7: 18           	clc
    25d8: c8           	iny
    25d9: b1 10        	lda	($10),y                 ; 0x2010 <main+0x1b56>
    25db: 85 15        	sta	$15                     ; 0x2015 <main+0x1b5b>
    25dd: a5 16        	lda	$16                     ; 0x2016 <main+0x1b5c>
    25df: 65 12        	adc	$12                     ; 0x2012 <main+0x1b58>
    25e1: 85 16        	sta	$16                     ; 0x2016 <main+0x1b5c>
    25e3: a9 00        	lda	#$0
    25e5: 65 25        	adc	$25                     ; 0x2025 <main+0x1b6b>
    25e7: a8           	tay
    25e8: a9 00        	lda	#$0
    25ea: 65 14        	adc	$14                     ; 0x2014 <main+0x1b5a>
    25ec: 85 12        	sta	$12                     ; 0x2012 <main+0x1b58>
    25ee: a9 00        	lda	#$0
    25f0: 65 15        	adc	$15                     ; 0x2015 <main+0x1b5b>
    25f2: aa           	tax
    25f3: 18           	clc
    25f4: a5 16        	lda	$16                     ; 0x2016 <main+0x1b5c>
    25f6: 69 02        	adc	#$2
    25f8: 85 15        	sta	$15                     ; 0x2015 <main+0x1b5b>
    25fa: 98           	tya
    25fb: 69 00        	adc	#$0
    25fd: 85 14        	sta	$14                     ; 0x2014 <main+0x1b5a>
    25ff: a5 12        	lda	$12                     ; 0x2012 <main+0x1b58>
    2601: 69 00        	adc	#$0
    2603: 85 12        	sta	$12                     ; 0x2012 <main+0x1b58>
    2605: 8a           	txa
    2606: 69 00        	adc	#$0
    2608: 85 13        	sta	$13                     ; 0x2013 <main+0x1b59>
    260a: a0 04        	ldy	#$4
    260c: a5 15        	lda	$15                     ; 0x2015 <main+0x1b5b>
    260e: 91 28        	sta	($28),y                 ; 0x2028 <main+0x1b6e>
    2610: a0 01        	ldy	#$1
    2612: a5 14        	lda	$14                     ; 0x2014 <main+0x1b5a>
    2614: 91 26        	sta	($26),y                 ; 0x2026 <main+0x1b6c>
    2616: c8           	iny
    2617: a5 12        	lda	$12                     ; 0x2012 <main+0x1b58>
    2619: 91 26        	sta	($26),y                 ; 0x2026 <main+0x1b6c>
    261b: c8           	iny
    261c: a5 13        	lda	$13                     ; 0x2013 <main+0x1b59>
    261e: 4c 35 2a     	jmp	$2a35 <readMIDICmd+0x825>
    2621: a6 2e        	ldx	$2e                     ; 0x202e <main+0x1b74>
    2623: e0 f0        	cpx	#$f0
    2625: b0 52        	bcs	$2679 <readMIDICmd+0x469>
    2627: a2 16        	ldx	#$16
    2629: 86 12        	stx	$12                     ; 0x2012 <main+0x1b58>
    262b: 64 13        	stz	$13                     ; 0x2013 <main+0x1b59>
    262d: a2 00        	ldx	#$0
    262f: a0 0f        	ldy	#$f
    2631: b1 10        	lda	($10),y                 ; 0x2010 <main+0x1b56>
    2633: 20 25 3d     	jsr	$3d25 <__mulhi3>
    2636: 85 12        	sta	$12                     ; 0x2012 <main+0x1b58>
    2638: 86 13        	stx	$13                     ; 0x2013 <main+0x1b59>
    263a: 18           	clc
    263b: a5 2d        	lda	$2d                     ; 0x202d <main+0x1b73>
    263d: 65 12        	adc	$12                     ; 0x2012 <main+0x1b58>
    263f: 85 12        	sta	$12                     ; 0x2012 <main+0x1b58>
    2641: a0 0c        	ldy	#$c
    2643: b1 10        	lda	($10),y                 ; 0x2010 <main+0x1b56>
    2645: 65 13        	adc	$13                     ; 0x2013 <main+0x1b59>
    2647: 85 13        	sta	$13                     ; 0x2013 <main+0x1b59>
    2649: a0 13        	ldy	#$13
    264b: a5 2e        	lda	$2e                     ; 0x202e <main+0x1b74>
    264d: 91 12        	sta	($12),y                 ; 0x2012 <main+0x1b58>
    264f: a0 0d        	ldy	#$d
    2651: b1 10        	lda	($10),y                 ; 0x2010 <main+0x1b56>
    2653: 18           	clc
    2654: 69 02        	adc	#$2
    2656: a0 04        	ldy	#$4
    2658: 91 28        	sta	($28),y                 ; 0x2028 <main+0x1b6e>
    265a: a5 25        	lda	$25                     ; 0x2025 <main+0x1b6b>
    265c: 69 00        	adc	#$0
    265e: a0 01        	ldy	#$1
    2660: 91 26        	sta	($26),y                 ; 0x2026 <main+0x1b6c>
    2662: a5 24        	lda	$24                     ; 0x2024 <main+0x1b6a>
    2664: 69 00        	adc	#$0
    2666: c8           	iny
    2667: 91 26        	sta	($26),y                 ; 0x2026 <main+0x1b6c>
    2669: a0 0e        	ldy	#$e
    266b: b1 10        	lda	($10),y                 ; 0x2010 <main+0x1b56>
    266d: 69 00        	adc	#$0
    266f: a0 03        	ldy	#$3
    2671: 91 26        	sta	($26),y                 ; 0x2026 <main+0x1b6c>
    2673: a0 14        	ldy	#$14
    2675: a9 00        	lda	#$0
    2677: 91 12        	sta	($12),y                 ; 0x2012 <main+0x1b58>
    2679: 64 12        	stz	$12                     ; 0x2012 <main+0x1b58>
    267b: a9 00        	lda	#$0
    267d: 4c 3a 2a     	jmp	$2a3a <readMIDICmd+0x82a>
    2680: 18           	clc
    2681: a0 0d        	ldy	#$d
    2683: b1 10        	lda	($10),y                 ; 0x2010 <main+0x1b56>
    2685: 69 03        	adc	#$3
    2687: 4c 0d 2a     	jmp	$2a0d <readMIDICmd+0x7fd>
    268a: 18           	clc
    268b: a0 0d        	ldy	#$d
    268d: b1 10        	lda	($10),y                 ; 0x2010 <main+0x1b56>
    268f: 69 07        	adc	#$7
    2691: 4c 0d 2a     	jmp	$2a0d <readMIDICmd+0x7fd>
    2694: a6 24        	ldx	$24                     ; 0x2024 <main+0x1b6a>
    2696: 86 2e        	stx	$2e                     ; 0x202e <main+0x1b74>
    2698: a0 0d        	ldy	#$d
    269a: b1 10        	lda	($10),y                 ; 0x2010 <main+0x1b56>
    269c: 48           	pha
    269d: c8           	iny
    269e: b1 10        	lda	($10),y                 ; 0x2010 <main+0x1b56>
    26a0: aa           	tax
    26a1: 68           	pla
    26a2: 1a           	inc
    26a3: d0 09        	bne	$26ae <readMIDICmd+0x49e>
    26a5: e6 25        	inc	$25                     ; 0x2025 <main+0x1b6b>
    26a7: d0 05        	bne	$26ae <readMIDICmd+0x49e>
    26a9: e6 2e        	inc	$2e                     ; 0x202e <main+0x1b74>
    26ab: d0 01        	bne	$26ae <readMIDICmd+0x49e>
    26ad: e8           	inx
    26ae: a0 04        	ldy	#$4
    26b0: 91 28        	sta	($28),y                 ; 0x2028 <main+0x1b6e>
    26b2: 85 28        	sta	$28                     ; 0x2028 <main+0x1b6e>
    26b4: a0 01        	ldy	#$1
    26b6: a5 25        	lda	$25                     ; 0x2025 <main+0x1b6b>
    26b8: 91 26        	sta	($26),y                 ; 0x2026 <main+0x1b6c>
    26ba: c8           	iny
    26bb: a5 2e        	lda	$2e                     ; 0x202e <main+0x1b74>
    26bd: 91 26        	sta	($26),y                 ; 0x2026 <main+0x1b6c>
    26bf: c8           	iny
    26c0: 8a           	txa
    26c1: 91 26        	sta	($26),y                 ; 0x2026 <main+0x1b6c>
    26c3: a2 16        	ldx	#$16
    26c5: 86 12        	stx	$12                     ; 0x2012 <main+0x1b58>
    26c7: 64 13        	stz	$13                     ; 0x2013 <main+0x1b59>
    26c9: a2 00        	ldx	#$0
    26cb: a0 0f        	ldy	#$f
    26cd: b1 10        	lda	($10),y                 ; 0x2010 <main+0x1b56>
    26cf: 20 25 3d     	jsr	$3d25 <__mulhi3>
    26d2: 85 29        	sta	$29                     ; 0x2029 <main+0x1b6f>
    26d4: 86 24        	stx	$24                     ; 0x2024 <main+0x1b6a>
    26d6: 85 12        	sta	$12                     ; 0x2012 <main+0x1b58>
    26d8: 86 13        	stx	$13                     ; 0x2013 <main+0x1b59>
    26da: 18           	clc
    26db: a5 2d        	lda	$2d                     ; 0x202d <main+0x1b73>
    26dd: 65 12        	adc	$12                     ; 0x2012 <main+0x1b58>
    26df: aa           	tax
    26e0: a0 0c        	ldy	#$c
    26e2: b1 10        	lda	($10),y                 ; 0x2010 <main+0x1b56>
    26e4: 65 13        	adc	$13                     ; 0x2013 <main+0x1b59>
    26e6: 86 12        	stx	$12                     ; 0x2012 <main+0x1b58>
    26e8: 85 13        	sta	$13                     ; 0x2013 <main+0x1b59>
    26ea: a8           	tay
    26eb: 18           	clc
    26ec: 8a           	txa
    26ed: 69 08        	adc	#$8
    26ef: 85 14        	sta	$14                     ; 0x2014 <main+0x1b5a>
    26f1: 98           	tya
    26f2: 69 00        	adc	#$0
    26f4: 85 15        	sta	$15                     ; 0x2015 <main+0x1b5b>
    26f6: a0 08        	ldy	#$8
    26f8: 18           	clc
    26f9: a5 28        	lda	$28                     ; 0x2028 <main+0x1b6e>
    26fb: 71 12        	adc	($12),y                 ; 0x2012 <main+0x1b58>
    26fd: 85 12        	sta	$12                     ; 0x2012 <main+0x1b58>
    26ff: a0 01        	ldy	#$1
    2701: a5 25        	lda	$25                     ; 0x2025 <main+0x1b6b>
    2703: 71 14        	adc	($14),y                 ; 0x2014 <main+0x1b5a>
    2705: 85 16        	sta	$16                     ; 0x2016 <main+0x1b5c>
    2707: c8           	iny
    2708: a5 2e        	lda	$2e                     ; 0x202e <main+0x1b74>
    270a: 71 14        	adc	($14),y                 ; 0x2014 <main+0x1b5a>
    270c: 85 13        	sta	$13                     ; 0x2013 <main+0x1b59>
    270e: a5 16        	lda	$16                     ; 0x2016 <main+0x1b5c>
    2710: 0a           	asl
    2711: 26 13        	rol	$13                     ; 0x2013 <main+0x1b59>
    2713: 0a           	asl
    2714: 26 13        	rol	$13                     ; 0x2013 <main+0x1b59>
    2716: 0a           	asl
    2717: a5 13        	lda	$13                     ; 0x2013 <main+0x1b59>
    2719: 2a           	rol
    271a: a6 0f        	ldx	$f                      ; 0x200f <main+0x1b55>
    271c: 78           	sei
    271d: 85 0f        	sta	$f                      ; 0x200f <main+0x1b55>
    271f: a5 16        	lda	$16                     ; 0x2016 <main+0x1b5c>
    2721: 09 e0        	ora	#$e0
    2723: 85 13        	sta	$13                     ; 0x2013 <main+0x1b59>
    2725: b2 12        	lda	($12)                   ; 0x2012 <main+0x1b58>
    2727: 86 0f        	stx	$f                      ; 0x200f <main+0x1b55>
    2729: 58           	cli
    272a: a5 29        	lda	$29                     ; 0x2029 <main+0x1b6f>
    272c: 18           	clc
    272d: 65 78        	adc	$78                     ; 0x2078 <main+0x1bbe>
    272f: aa           	tax
    2730: a5 24        	lda	$24                     ; 0x2024 <main+0x1b6a>
    2732: 65 79        	adc	$79                     ; 0x2079 <main+0x1bbf>
    2734: a8           	tay
    2735: 8a           	txa
    2736: 18           	clc
    2737: 69 08        	adc	#$8
    2739: 85 12        	sta	$12                     ; 0x2012 <main+0x1b58>
    273b: 98           	tya
    273c: 69 00        	adc	#$0
    273e: 86 14        	stx	$14                     ; 0x2014 <main+0x1b5a>
    2740: 84 15        	sty	$15                     ; 0x2015 <main+0x1b5b>
    2742: 85 13        	sta	$13                     ; 0x2013 <main+0x1b59>
    2744: 18           	clc
    2745: 8a           	txa
    2746: 69 04        	adc	#$4
    2748: 85 16        	sta	$16                     ; 0x2016 <main+0x1b5c>
    274a: 98           	tya
    274b: 69 00        	adc	#$0
    274d: 85 17        	sta	$17                     ; 0x2017 <main+0x1b5d>
    274f: a0 04        	ldy	#$4
    2751: b1 14        	lda	($14),y                 ; 0x2014 <main+0x1b5a>
    2753: 85 18        	sta	$18                     ; 0x2018 <main+0x1b5e>
    2755: a0 01        	ldy	#$1
    2757: b1 16        	lda	($16),y                 ; 0x2016 <main+0x1b5c>
    2759: aa           	tax
    275a: c8           	iny
    275b: b1 16        	lda	($16),y                 ; 0x2016 <main+0x1b5c>
    275d: 85 19        	sta	$19                     ; 0x2019 <main+0x1b5f>
    275f: c8           	iny
    2760: b1 16        	lda	($16),y                 ; 0x2016 <main+0x1b5c>
    2762: 85 16        	sta	$16                     ; 0x2016 <main+0x1b5c>
    2764: 18           	clc
    2765: a0 08        	ldy	#$8
    2767: a5 18        	lda	$18                     ; 0x2018 <main+0x1b5e>
    2769: 71 14        	adc	($14),y                 ; 0x2014 <main+0x1b5a>
    276b: 85 14        	sta	$14                     ; 0x2014 <main+0x1b5a>
    276d: a0 01        	ldy	#$1
    276f: 8a           	txa
    2770: 71 12        	adc	($12),y                 ; 0x2012 <main+0x1b58>
    2772: 85 15        	sta	$15                     ; 0x2015 <main+0x1b5b>
    2774: c8           	iny
    2775: a5 19        	lda	$19                     ; 0x2019 <main+0x1b5f>
    2777: 71 12        	adc	($12),y                 ; 0x2012 <main+0x1b58>
    2779: aa           	tax
    277a: a5 16        	lda	$16                     ; 0x2016 <main+0x1b5c>
    277c: c8           	iny
    277d: 71 12        	adc	($12),y                 ; 0x2012 <main+0x1b58>
    277f: a8           	tay
    2780: a5 15        	lda	$15                     ; 0x2015 <main+0x1b5b>
    2782: e6 14        	inc	$14                     ; 0x2014 <main+0x1b5a>
    2784: d0 07        	bne	$278d <readMIDICmd+0x57d>
    2786: 1a           	inc
    2787: d0 04        	bne	$278d <readMIDICmd+0x57d>
    2789: e8           	inx
    278a: d0 01        	bne	$278d <readMIDICmd+0x57d>
    278c: c8           	iny
    278d: 85 12        	sta	$12                     ; 0x2012 <main+0x1b58>
    278f: 06 12        	asl	$12                     ; 0x2012 <main+0x1b58>
    2791: 86 13        	stx	$13                     ; 0x2013 <main+0x1b59>
    2793: 26 13        	rol	$13                     ; 0x2013 <main+0x1b59>
    2795: 06 12        	asl	$12                     ; 0x2012 <main+0x1b58>
    2797: 26 13        	rol	$13                     ; 0x2013 <main+0x1b59>
    2799: 06 12        	asl	$12                     ; 0x2012 <main+0x1b58>
    279b: 26 13        	rol	$13                     ; 0x2013 <main+0x1b59>
    279d: a4 13        	ldy	$13                     ; 0x2013 <main+0x1b59>
    279f: a6 0f        	ldx	$f                      ; 0x200f <main+0x1b55>
    27a1: 78           	sei
    27a2: 84 0f        	sty	$f                      ; 0x200f <main+0x1b55>
    27a4: 09 e0        	ora	#$e0
    27a6: a4 14        	ldy	$14                     ; 0x2014 <main+0x1b5a>
    27a8: 84 12        	sty	$12                     ; 0x2012 <main+0x1b58>
    27aa: 85 13        	sta	$13                     ; 0x2013 <main+0x1b59>
    27ac: b2 12        	lda	($12)                   ; 0x2012 <main+0x1b58>
    27ae: 85 12        	sta	$12                     ; 0x2012 <main+0x1b58>
    27b0: 86 0f        	stx	$f                      ; 0x200f <main+0x1b55>
    27b2: 58           	cli
    27b3: a5 29        	lda	$29                     ; 0x2029 <main+0x1b6f>
    27b5: 18           	clc
    27b6: 65 78        	adc	$78                     ; 0x2078 <main+0x1bbe>
    27b8: aa           	tax
    27b9: a5 24        	lda	$24                     ; 0x2024 <main+0x1b6a>
    27bb: 65 79        	adc	$79                     ; 0x2079 <main+0x1bbf>
    27bd: a8           	tay
    27be: 8a           	txa
    27bf: 18           	clc
    27c0: 69 08        	adc	#$8
    27c2: 85 18        	sta	$18                     ; 0x2018 <main+0x1b5e>
    27c4: 98           	tya
    27c5: 69 00        	adc	#$0
    27c7: 85 19        	sta	$19                     ; 0x2019 <main+0x1b5f>
    27c9: 86 14        	stx	$14                     ; 0x2014 <main+0x1b5a>
    27cb: 84 15        	sty	$15                     ; 0x2015 <main+0x1b5b>
    27cd: 18           	clc
    27ce: 8a           	txa
    27cf: 69 04        	adc	#$4
    27d1: 85 16        	sta	$16                     ; 0x2016 <main+0x1b5c>
    27d3: 98           	tya
    27d4: 69 00        	adc	#$0
    27d6: 85 17        	sta	$17                     ; 0x2017 <main+0x1b5d>
    27d8: a0 04        	ldy	#$4
    27da: b1 14        	lda	($14),y                 ; 0x2014 <main+0x1b5a>
    27dc: 85 13        	sta	$13                     ; 0x2013 <main+0x1b59>
    27de: a0 01        	ldy	#$1
    27e0: b1 16        	lda	($16),y                 ; 0x2016 <main+0x1b5c>
    27e2: 85 1a        	sta	$1a                     ; 0x201a <main+0x1b60>
    27e4: c8           	iny
    27e5: b1 16        	lda	($16),y                 ; 0x2016 <main+0x1b5c>
    27e7: 85 16        	sta	$16                     ; 0x2016 <main+0x1b5c>
    27e9: 18           	clc
    27ea: a0 08        	ldy	#$8
    27ec: a5 13        	lda	$13                     ; 0x2013 <main+0x1b59>
    27ee: 71 14        	adc	($14),y                 ; 0x2014 <main+0x1b5a>
    27f0: 85 13        	sta	$13                     ; 0x2013 <main+0x1b59>
    27f2: a5 1a        	lda	$1a                     ; 0x201a <main+0x1b60>
    27f4: a0 01        	ldy	#$1
    27f6: 71 18        	adc	($18),y                 ; 0x2018 <main+0x1b5e>
    27f8: 85 17        	sta	$17                     ; 0x2017 <main+0x1b5d>
    27fa: a5 16        	lda	$16                     ; 0x2016 <main+0x1b5c>
    27fc: c8           	iny
    27fd: 71 18        	adc	($18),y                 ; 0x2018 <main+0x1b5e>
    27ff: 85 15        	sta	$15                     ; 0x2015 <main+0x1b5b>
    2801: 18           	clc
    2802: a5 13        	lda	$13                     ; 0x2013 <main+0x1b59>
    2804: 69 02        	adc	#$2
    2806: 85 14        	sta	$14                     ; 0x2014 <main+0x1b5a>
    2808: a5 17        	lda	$17                     ; 0x2017 <main+0x1b5d>
    280a: 69 00        	adc	#$0
    280c: aa           	tax
    280d: a5 15        	lda	$15                     ; 0x2015 <main+0x1b5b>
    280f: 69 00        	adc	#$0
    2811: 85 15        	sta	$15                     ; 0x2015 <main+0x1b5b>
    2813: 8a           	txa
    2814: 86 13        	stx	$13                     ; 0x2013 <main+0x1b59>
    2816: 06 13        	asl	$13                     ; 0x2013 <main+0x1b59>
    2818: 26 15        	rol	$15                     ; 0x2015 <main+0x1b5b>
    281a: 06 13        	asl	$13                     ; 0x2013 <main+0x1b59>
    281c: 26 15        	rol	$15                     ; 0x2015 <main+0x1b5b>
    281e: 06 13        	asl	$13                     ; 0x2013 <main+0x1b59>
    2820: 26 15        	rol	$15                     ; 0x2015 <main+0x1b5b>
    2822: a4 15        	ldy	$15                     ; 0x2015 <main+0x1b5b>
    2824: a6 0f        	ldx	$f                      ; 0x200f <main+0x1b55>
    2826: 78           	sei
    2827: 84 0f        	sty	$f                      ; 0x200f <main+0x1b55>
    2829: 09 e0        	ora	#$e0
    282b: 85 15        	sta	$15                     ; 0x2015 <main+0x1b5b>
    282d: b2 14        	lda	($14)                   ; 0x2014 <main+0x1b5a>
    282f: 85 18        	sta	$18                     ; 0x2018 <main+0x1b5e>
    2831: 86 0f        	stx	$f                      ; 0x200f <main+0x1b55>
    2833: 58           	cli
    2834: a5 29        	lda	$29                     ; 0x2029 <main+0x1b6f>
    2836: 18           	clc
    2837: 65 78        	adc	$78                     ; 0x2078 <main+0x1bbe>
    2839: a8           	tay
    283a: a5 24        	lda	$24                     ; 0x2024 <main+0x1b6a>
    283c: 65 79        	adc	$79                     ; 0x2079 <main+0x1bbf>
    283e: 84 16        	sty	$16                     ; 0x2016 <main+0x1b5c>
    2840: 85 17        	sta	$17                     ; 0x2017 <main+0x1b5d>
    2842: 85 13        	sta	$13                     ; 0x2013 <main+0x1b59>
    2844: 5a           	phy
    2845: fa           	plx
    2846: 18           	clc
    2847: 98           	tya
    2848: 69 04        	adc	#$4
    284a: 85 14        	sta	$14                     ; 0x2014 <main+0x1b5a>
    284c: a5 13        	lda	$13                     ; 0x2013 <main+0x1b59>
    284e: 85 1b        	sta	$1b                     ; 0x201b <main+0x1b61>
    2850: 69 00        	adc	#$0
    2852: 85 15        	sta	$15                     ; 0x2015 <main+0x1b5b>
    2854: a0 04        	ldy	#$4
    2856: b1 16        	lda	($16),y                 ; 0x2016 <main+0x1b5c>
    2858: 85 13        	sta	$13                     ; 0x2013 <main+0x1b59>
    285a: a0 01        	ldy	#$1
    285c: b1 14        	lda	($14),y                 ; 0x2014 <main+0x1b5a>
    285e: 85 1a        	sta	$1a                     ; 0x201a <main+0x1b60>
    2860: c8           	iny
    2861: b1 14        	lda	($14),y                 ; 0x2014 <main+0x1b5a>
    2863: 85 19        	sta	$19                     ; 0x2019 <main+0x1b5f>
    2865: 18           	clc
    2866: a0 08        	ldy	#$8
    2868: a5 13        	lda	$13                     ; 0x2013 <main+0x1b59>
    286a: 71 16        	adc	($16),y                 ; 0x2016 <main+0x1b5c>
    286c: a0 01        	ldy	#$1
    286e: b0 02        	bcs	$2872 <readMIDICmd+0x662>
    2870: a0 00        	ldy	#$0
    2872: 84 16        	sty	$16                     ; 0x2016 <main+0x1b5c>
    2874: 85 13        	sta	$13                     ; 0x2013 <main+0x1b59>
    2876: 18           	clc
    2877: 8a           	txa
    2878: 69 08        	adc	#$8
    287a: 85 14        	sta	$14                     ; 0x2014 <main+0x1b5a>
    287c: a5 1b        	lda	$1b                     ; 0x201b <main+0x1b61>
    287e: 69 00        	adc	#$0
    2880: 85 15        	sta	$15                     ; 0x2015 <main+0x1b5b>
    2882: a5 1a        	lda	$1a                     ; 0x201a <main+0x1b60>
    2884: a0 01        	ldy	#$1
    2886: a6 16        	ldx	$16                     ; 0x2016 <main+0x1b5c>
    2888: e0 01        	cpx	#$1
    288a: 71 14        	adc	($14),y                 ; 0x2014 <main+0x1b5a>
    288c: 85 16        	sta	$16                     ; 0x2016 <main+0x1b5c>
    288e: a5 19        	lda	$19                     ; 0x2019 <main+0x1b5f>
    2890: c8           	iny
    2891: 71 14        	adc	($14),y                 ; 0x2014 <main+0x1b5a>
    2893: 85 15        	sta	$15                     ; 0x2015 <main+0x1b5b>
    2895: 18           	clc
    2896: a5 13        	lda	$13                     ; 0x2013 <main+0x1b59>
    2898: 69 03        	adc	#$3
    289a: 85 14        	sta	$14                     ; 0x2014 <main+0x1b5a>
    289c: a5 16        	lda	$16                     ; 0x2016 <main+0x1b5c>
    289e: 69 00        	adc	#$0
    28a0: aa           	tax
    28a1: a5 15        	lda	$15                     ; 0x2015 <main+0x1b5b>
    28a3: 69 00        	adc	#$0
    28a5: 85 15        	sta	$15                     ; 0x2015 <main+0x1b5b>
    28a7: 8a           	txa
    28a8: 86 13        	stx	$13                     ; 0x2013 <main+0x1b59>
    28aa: 06 13        	asl	$13                     ; 0x2013 <main+0x1b59>
    28ac: 26 15        	rol	$15                     ; 0x2015 <main+0x1b5b>
    28ae: 06 13        	asl	$13                     ; 0x2013 <main+0x1b59>
    28b0: 26 15        	rol	$15                     ; 0x2015 <main+0x1b5b>
    28b2: 06 13        	asl	$13                     ; 0x2013 <main+0x1b59>
    28b4: 26 15        	rol	$15                     ; 0x2015 <main+0x1b5b>
    28b6: a4 15        	ldy	$15                     ; 0x2015 <main+0x1b5b>
    28b8: a6 0f        	ldx	$f                      ; 0x200f <main+0x1b55>
    28ba: 78           	sei
    28bb: 84 0f        	sty	$f                      ; 0x200f <main+0x1b55>
    28bd: 09 e0        	ora	#$e0
    28bf: 85 15        	sta	$15                     ; 0x2015 <main+0x1b5b>
    28c1: b2 14        	lda	($14)                   ; 0x2014 <main+0x1b5a>
    28c3: 85 19        	sta	$19                     ; 0x2019 <main+0x1b5f>
    28c5: 86 0f        	stx	$f                      ; 0x200f <main+0x1b55>
    28c7: 58           	cli
    28c8: a5 29        	lda	$29                     ; 0x2029 <main+0x1b6f>
    28ca: 18           	clc
    28cb: 65 78        	adc	$78                     ; 0x2078 <main+0x1bbe>
    28cd: aa           	tax
    28ce: a5 24        	lda	$24                     ; 0x2024 <main+0x1b6a>
    28d0: 65 79        	adc	$79                     ; 0x2079 <main+0x1bbf>
    28d2: 86 14        	stx	$14                     ; 0x2014 <main+0x1b5a>
    28d4: 85 15        	sta	$15                     ; 0x2015 <main+0x1b5b>
    28d6: 85 13        	sta	$13                     ; 0x2013 <main+0x1b59>
    28d8: a0 04        	ldy	#$4
    28da: b1 14        	lda	($14),y                 ; 0x2014 <main+0x1b5a>
    28dc: 18           	clc
    28dd: 69 04        	adc	#$4
    28df: 5a           	phy
    28e0: a0 01        	ldy	#$1
    28e2: b0 02        	bcs	$28e6 <readMIDICmd+0x6d6>
    28e4: a0 00        	ldy	#$0
    28e6: 84 16        	sty	$16                     ; 0x2016 <main+0x1b5c>
    28e8: 7a           	ply
    28e9: 91 14        	sta	($14),y                 ; 0x2014 <main+0x1b5a>
    28eb: 18           	clc
    28ec: 8a           	txa
    28ed: 69 04        	adc	#$4
    28ef: 85 14        	sta	$14                     ; 0x2014 <main+0x1b5a>
    28f1: a5 13        	lda	$13                     ; 0x2013 <main+0x1b59>
    28f3: 69 00        	adc	#$0
    28f5: 85 15        	sta	$15                     ; 0x2015 <main+0x1b5b>
    28f7: a0 01        	ldy	#$1
    28f9: b1 14        	lda	($14),y                 ; 0x2014 <main+0x1b5a>
    28fb: a6 16        	ldx	$16                     ; 0x2016 <main+0x1b5c>
    28fd: e0 01        	cpx	#$1
    28ff: 69 00        	adc	#$0
    2901: aa           	tax
    2902: c8           	iny
    2903: b1 14        	lda	($14),y                 ; 0x2014 <main+0x1b5a>
    2905: 69 00        	adc	#$0
    2907: 85 13        	sta	$13                     ; 0x2013 <main+0x1b59>
    2909: c8           	iny
    290a: b1 14        	lda	($14),y                 ; 0x2014 <main+0x1b5a>
    290c: 69 00        	adc	#$0
    290e: 85 16        	sta	$16                     ; 0x2016 <main+0x1b5c>
    2910: a0 01        	ldy	#$1
    2912: 8a           	txa
    2913: 91 14        	sta	($14),y                 ; 0x2014 <main+0x1b5a>
    2915: c8           	iny
    2916: a5 13        	lda	$13                     ; 0x2013 <main+0x1b59>
    2918: 91 14        	sta	($14),y                 ; 0x2014 <main+0x1b5a>
    291a: c8           	iny
    291b: a5 16        	lda	$16                     ; 0x2016 <main+0x1b5c>
    291d: 91 14        	sta	($14),y                 ; 0x2014 <main+0x1b5a>
    291f: a6 76        	ldx	$76                     ; 0x2076 <main+0x1bbc>
    2921: a4 77        	ldy	$77                     ; 0x2077 <main+0x1bbd>
    2923: 64 13        	stz	$13                     ; 0x2013 <main+0x1b59>
    2925: 86 14        	stx	$14                     ; 0x2014 <main+0x1b5a>
    2927: 84 15        	sty	$15                     ; 0x2015 <main+0x1b5b>
    2929: 64 16        	stz	$16                     ; 0x2016 <main+0x1b5c>
    292b: 64 17        	stz	$17                     ; 0x2017 <main+0x1b5d>
    292d: a6 18        	ldx	$18                     ; 0x2018 <main+0x1b5e>
    292f: a5 19        	lda	$19                     ; 0x2019 <main+0x1b5f>
    2931: 20 c7 3d     	jsr	$3dc7 <__udivsi3>
    2934: a0 19        	ldy	#$19
    2936: 84 14        	sty	$14                     ; 0x2014 <main+0x1b5a>
    2938: 64 15        	stz	$15                     ; 0x2015 <main+0x1b5b>
    293a: 64 16        	stz	$16                     ; 0x2016 <main+0x1b5c>
    293c: 64 17        	stz	$17                     ; 0x2017 <main+0x1b5d>
    293e: 20 57 3d     	jsr	$3d57 <__mulsi3>
    2941: a4 12        	ldy	$12                     ; 0x2012 <main+0x1b58>
    2943: 85 70        	sta	$70                     ; 0x2070 <main+0x1bb6>
    2945: 86 71        	stx	$71                     ; 0x2071 <main+0x1bb7>
    2947: 84 72        	sty	$72                     ; 0x2072 <main+0x1bb8>
    2949: a6 13        	ldx	$13                     ; 0x2013 <main+0x1b59>
    294b: 86 73        	stx	$73                     ; 0x2073 <main+0x1bb9>
    294d: a2 14        	ldx	#$14
    294f: 86 60        	stx	$60                     ; 0x2060 <main+0x1ba6>
    2951: 8e 14 d0     	stx	$d014                   ; 0xd014 <__heap_start+0x8f84>
    2954: 9c 15 d0     	stz	$d015                   ; 0xd015 <__heap_start+0x8f85>
    2957: a2 0b        	ldx	#$b
    2959: 86 61        	stx	$61                     ; 0x2061 <main+0x1ba7>
    295b: 8e 16 d0     	stx	$d016                   ; 0xd016 <__heap_start+0x8f86>
    295e: 9c 17 d0     	stz	$d017                   ; 0xd017 <__heap_start+0x8f87>
    2961: a5 70        	lda	$70                     ; 0x2070 <main+0x1bb6>
    2963: a6 71        	ldx	$71                     ; 0x2071 <main+0x1bb7>
    2965: 86 12        	stx	$12                     ; 0x2012 <main+0x1b58>
    2967: a6 72        	ldx	$72                     ; 0x2072 <main+0x1bb8>
    2969: 86 13        	stx	$13                     ; 0x2013 <main+0x1b59>
    296b: a6 73        	ldx	$73                     ; 0x2073 <main+0x1bb9>
    296d: 92 10        	sta	($10)                   ; 0x2010 <main+0x1b56>
    296f: a0 01        	ldy	#$1
    2971: a5 12        	lda	$12                     ; 0x2012 <main+0x1b58>
    2973: 91 10        	sta	($10),y                 ; 0x2010 <main+0x1b56>
    2975: c8           	iny
    2976: a5 13        	lda	$13                     ; 0x2013 <main+0x1b59>
    2978: 91 10        	sta	($10),y                 ; 0x2010 <main+0x1b56>
    297a: c8           	iny
    297b: 8a           	txa
    297c: 91 10        	sta	($10),y                 ; 0x2010 <main+0x1b56>
    297e: a2 7a        	ldx	#$7a
    2980: 86 12        	stx	$12                     ; 0x2012 <main+0x1b58>
    2982: a2 40        	ldx	#$40
    2984: 86 13        	stx	$13                     ; 0x2013 <main+0x1b59>
    2986: 20 6d 2c     	jsr	$2c6d <printf>
    2989: a6 70        	ldx	$70                     ; 0x2070 <main+0x1bb6>
    298b: 86 16        	stx	$16                     ; 0x2016 <main+0x1b5c>
    298d: a6 71        	ldx	$71                     ; 0x2071 <main+0x1bb7>
    298f: 86 14        	stx	$14                     ; 0x2014 <main+0x1b5a>
    2991: a6 72        	ldx	$72                     ; 0x2072 <main+0x1bb8>
    2993: 86 15        	stx	$15                     ; 0x2015 <main+0x1b5b>
    2995: a6 73        	ldx	$73                     ; 0x2073 <main+0x1bb9>
    2997: 86 18        	stx	$18                     ; 0x2018 <main+0x1b5e>
    2999: 18           	clc
    299a: a5 29        	lda	$29                     ; 0x2029 <main+0x1b6f>
    299c: 65 78        	adc	$78                     ; 0x2078 <main+0x1bbe>
    299e: aa           	tax
    299f: a5 24        	lda	$24                     ; 0x2024 <main+0x1b6a>
    29a1: 65 79        	adc	$79                     ; 0x2079 <main+0x1bbf>
    29a3: 86 12        	stx	$12                     ; 0x2012 <main+0x1b58>
    29a5: 85 13        	sta	$13                     ; 0x2013 <main+0x1b59>
    29a7: 85 19        	sta	$19                     ; 0x2019 <main+0x1b5f>
    29a9: a0 0c        	ldy	#$c
    29ab: a5 16        	lda	$16                     ; 0x2016 <main+0x1b5c>
    29ad: 91 12        	sta	($12),y                 ; 0x2012 <main+0x1b58>
    29af: 8a           	txa
    29b0: 18           	clc
    29b1: 69 0c        	adc	#$c
    29b3: 85 12        	sta	$12                     ; 0x2012 <main+0x1b58>
    29b5: a2 01        	ldx	#$1
    29b7: 8a           	txa
    29b8: a0 10        	ldy	#$10
    29ba: 91 10        	sta	($10),y                 ; 0x2010 <main+0x1b56>
    29bc: a5 19        	lda	$19                     ; 0x2019 <main+0x1b5f>
    29be: 69 00        	adc	#$0
    29c0: 85 13        	sta	$13                     ; 0x2013 <main+0x1b59>
    29c2: a0 01        	ldy	#$1
    29c4: a5 14        	lda	$14                     ; 0x2014 <main+0x1b5a>
    29c6: 91 12        	sta	($12),y                 ; 0x2012 <main+0x1b58>
    29c8: c8           	iny
    29c9: a5 15        	lda	$15                     ; 0x2015 <main+0x1b5b>
    29cb: 91 12        	sta	($12),y                 ; 0x2012 <main+0x1b58>
    29cd: c8           	iny
    29ce: a5 18        	lda	$18                     ; 0x2018 <main+0x1b5e>
    29d0: 91 12        	sta	($12),y                 ; 0x2012 <main+0x1b58>
    29d2: 4c 3e 2a     	jmp	$2a3e <readMIDICmd+0x82e>
    29d5: 18           	clc
    29d6: a0 0d        	ldy	#$d
    29d8: b1 10        	lda	($10),y                 ; 0x2010 <main+0x1b56>
    29da: 69 04        	adc	#$4
    29dc: 80 2f        	bra	$2a0d <readMIDICmd+0x7fd>
    29de: 18           	clc
    29df: a0 0d        	ldy	#$d
    29e1: b1 10        	lda	($10),y                 ; 0x2010 <main+0x1b56>
    29e3: 69 02        	adc	#$2
    29e5: a0 04        	ldy	#$4
    29e7: 91 28        	sta	($28),y                 ; 0x2028 <main+0x1b6e>
    29e9: a5 25        	lda	$25                     ; 0x2025 <main+0x1b6b>
    29eb: 69 00        	adc	#$0
    29ed: a0 01        	ldy	#$1
    29ef: 91 26        	sta	($26),y                 ; 0x2026 <main+0x1b6c>
    29f1: a5 24        	lda	$24                     ; 0x2024 <main+0x1b6a>
    29f3: 69 00        	adc	#$0
    29f5: c8           	iny
    29f6: 91 26        	sta	($26),y                 ; 0x2026 <main+0x1b6c>
    29f8: a0 0e        	ldy	#$e
    29fa: b1 10        	lda	($10),y                 ; 0x2010 <main+0x1b56>
    29fc: 69 00        	adc	#$0
    29fe: a0 03        	ldy	#$3
    2a00: 91 26        	sta	($26),y                 ; 0x2026 <main+0x1b6c>
    2a02: a2 02        	ldx	#$2
    2a04: 80 33        	bra	$2a39 <readMIDICmd+0x829>
    2a06: 18           	clc
    2a07: a0 0d        	ldy	#$d
    2a09: b1 10        	lda	($10),y                 ; 0x2010 <main+0x1b56>
    2a0b: 69 06        	adc	#$6
    2a0d: aa           	tax
    2a0e: a5 25        	lda	$25                     ; 0x2025 <main+0x1b6b>
    2a10: 69 00        	adc	#$0
    2a12: 85 15        	sta	$15                     ; 0x2015 <main+0x1b5b>
    2a14: a5 24        	lda	$24                     ; 0x2024 <main+0x1b6a>
    2a16: 69 00        	adc	#$0
    2a18: 85 14        	sta	$14                     ; 0x2014 <main+0x1b5a>
    2a1a: a0 0e        	ldy	#$e
    2a1c: b1 10        	lda	($10),y                 ; 0x2010 <main+0x1b56>
    2a1e: 69 00        	adc	#$0
    2a20: 85 12        	sta	$12                     ; 0x2012 <main+0x1b58>
    2a22: a0 04        	ldy	#$4
    2a24: 8a           	txa
    2a25: 91 28        	sta	($28),y                 ; 0x2028 <main+0x1b6e>
    2a27: a0 01        	ldy	#$1
    2a29: a5 15        	lda	$15                     ; 0x2015 <main+0x1b5b>
    2a2b: 91 26        	sta	($26),y                 ; 0x2026 <main+0x1b6c>
    2a2d: c8           	iny
    2a2e: a5 14        	lda	$14                     ; 0x2014 <main+0x1b5a>
    2a30: 91 26        	sta	($26),y                 ; 0x2026 <main+0x1b6c>
    2a32: c8           	iny
    2a33: a5 12        	lda	$12                     ; 0x2012 <main+0x1b58>
    2a35: 91 26        	sta	($26),y                 ; 0x2026 <main+0x1b6c>
    2a37: a2 01        	ldx	#$1
    2a39: 8a           	txa
    2a3a: a0 10        	ldy	#$10
    2a3c: 91 10        	sta	($10),y                 ; 0x2010 <main+0x1b56>
    2a3e: a0 10        	ldy	#$10
    2a40: b1 10        	lda	($10),y                 ; 0x2010 <main+0x1b56>
    2a42: 85 20        	sta	$20                     ; 0x2020 <main+0x1b66>
    2a44: a0 04        	ldy	#$4
    2a46: b1 10        	lda	($10),y                 ; 0x2010 <main+0x1b56>
    2a48: 85 2f        	sta	$2f                     ; 0x202f <main+0x1b75>
    2a4a: c8           	iny
    2a4b: b1 10        	lda	($10),y                 ; 0x2010 <main+0x1b56>
    2a4d: 85 2e        	sta	$2e                     ; 0x202e <main+0x1b74>
    2a4f: c8           	iny
    2a50: b1 10        	lda	($10),y                 ; 0x2010 <main+0x1b56>
    2a52: 85 2d        	sta	$2d                     ; 0x202d <main+0x1b73>
    2a54: c8           	iny
    2a55: b1 10        	lda	($10),y                 ; 0x2010 <main+0x1b56>
    2a57: 85 2c        	sta	$2c                     ; 0x202c <main+0x1b72>
    2a59: c8           	iny
    2a5a: b1 10        	lda	($10),y                 ; 0x2010 <main+0x1b56>
    2a5c: 85 2b        	sta	$2b                     ; 0x202b <main+0x1b71>
    2a5e: c8           	iny
    2a5f: b1 10        	lda	($10),y                 ; 0x2010 <main+0x1b56>
    2a61: 85 2a        	sta	$2a                     ; 0x202a <main+0x1b70>
    2a63: c8           	iny
    2a64: b1 10        	lda	($10),y                 ; 0x2010 <main+0x1b56>
    2a66: 85 29        	sta	$29                     ; 0x2029 <main+0x1b6f>
    2a68: c8           	iny
    2a69: b1 10        	lda	($10),y                 ; 0x2010 <main+0x1b56>
    2a6b: 85 28        	sta	$28                     ; 0x2028 <main+0x1b6e>
    2a6d: fa           	plx
    2a6e: 86 27        	stx	$27                     ; 0x2027 <main+0x1b6d>
    2a70: fa           	plx
    2a71: 86 26        	stx	$26                     ; 0x2026 <main+0x1b6c>
    2a73: fa           	plx
    2a74: 86 25        	stx	$25                     ; 0x2025 <main+0x1b6b>
    2a76: fa           	plx
    2a77: 86 24        	stx	$24                     ; 0x2024 <main+0x1b6a>
    2a79: 18           	clc
    2a7a: a5 10        	lda	$10                     ; 0x2010 <main+0x1b56>
    2a7c: 69 11        	adc	#$11
    2a7e: 85 10        	sta	$10                     ; 0x2010 <main+0x1b56>
    2a80: a5 11        	lda	$11                     ; 0x2011 <main+0x1b57>
    2a82: 69 00        	adc	#$0
    2a84: 85 11        	sta	$11                     ; 0x2011 <main+0x1b57>
    2a86: a5 20        	lda	$20                     ; 0x2020 <main+0x1b66>
    2a88: 60           	rts

00002a89 <exit>:
    2a89: 20 47 03     	jsr	$347 <_fini>
    2a8c: 80 fe        	bra	$2a8c <exit+0x3>

00002a8e <_ZN12_GLOBAL__N_13putEcP6Status>:
    2a8e: 85 18        	sta	$18                     ; 0x2018 <main+0x1b5e>
    2a90: a6 13        	ldx	$13                     ; 0x2013 <main+0x1b59>
    2a92: 18           	clc
    2a93: a5 12        	lda	$12                     ; 0x2012 <main+0x1b58>
    2a95: 69 05        	adc	#$5
    2a97: a8           	tay
    2a98: a5 13        	lda	$13                     ; 0x2013 <main+0x1b59>
    2a9a: 86 15        	stx	$15                     ; 0x2015 <main+0x1b5b>
    2a9c: 69 00        	adc	#$0
    2a9e: 18           	clc
    2a9f: 84 16        	sty	$16                     ; 0x2016 <main+0x1b5c>
    2aa1: a0 05        	ldy	#$5
    2aa3: 85 17        	sta	$17                     ; 0x2017 <main+0x1b5d>
    2aa5: b1 12        	lda	($12),y                 ; 0x2012 <main+0x1b58>
    2aa7: aa           	tax
    2aa8: a5 12        	lda	$12                     ; 0x2012 <main+0x1b58>
    2aaa: 69 03        	adc	#$3
    2aac: 85 14        	sta	$14                     ; 0x2014 <main+0x1b5a>
    2aae: a5 15        	lda	$15                     ; 0x2015 <main+0x1b5b>
    2ab0: 69 00        	adc	#$0
    2ab2: 85 15        	sta	$15                     ; 0x2015 <main+0x1b5b>
    2ab4: a0 01        	ldy	#$1
    2ab6: b1 16        	lda	($16),y                 ; 0x2016 <main+0x1b5c>
    2ab8: d1 14        	cmp	($14),y                 ; 0x2014 <main+0x1b5a>
    2aba: d0 11        	bne	$2acd <_ZN12_GLOBAL__N_13putEcP6Status+0x3f>
    2abc: a0 03        	ldy	#$3
    2abe: 85 17        	sta	$17                     ; 0x2017 <main+0x1b5d>
    2ac0: b1 12        	lda	($12),y                 ; 0x2012 <main+0x1b58>
    2ac2: 85 14        	sta	$14                     ; 0x2014 <main+0x1b5a>
    2ac4: 86 16        	stx	$16                     ; 0x2016 <main+0x1b5c>
    2ac6: e4 14        	cpx	$14                     ; 0x2014 <main+0x1b5a>
    2ac8: 90 0e        	bcc	$2ad8 <_ZN12_GLOBAL__N_13putEcP6Status+0x4a>
    2aca: 4c 39 2b     	jmp	$2b39 <_ZN12_GLOBAL__N_13putEcP6Status+0xab>
    2acd: 86 16        	stx	$16                     ; 0x2016 <main+0x1b5c>
    2acf: d1 14        	cmp	($14),y                 ; 0x2014 <main+0x1b5a>
    2ad1: 85 17        	sta	$17                     ; 0x2017 <main+0x1b5d>
    2ad3: 90 03        	bcc	$2ad8 <_ZN12_GLOBAL__N_13putEcP6Status+0x4a>
    2ad5: 4c 39 2b     	jmp	$2b39 <_ZN12_GLOBAL__N_13putEcP6Status+0xab>
    2ad8: a5 12        	lda	$12                     ; 0x2012 <main+0x1b58>
    2ada: 18           	clc
    2adb: 69 0f        	adc	#$f
    2add: 85 14        	sta	$14                     ; 0x2014 <main+0x1b5a>
    2adf: a5 13        	lda	$13                     ; 0x2013 <main+0x1b59>
    2ae1: 69 00        	adc	#$0
    2ae3: 85 15        	sta	$15                     ; 0x2015 <main+0x1b5b>
    2ae5: a0 01        	ldy	#$1
    2ae7: b1 14        	lda	($14),y                 ; 0x2014 <main+0x1b5a>
    2ae9: a2 00        	ldx	#$0
    2aeb: 86 14        	stx	$14                     ; 0x2014 <main+0x1b5a>
    2aed: a2 00        	ldx	#$0
    2aef: 86 15        	stx	$15                     ; 0x2015 <main+0x1b5b>
    2af1: c5 15        	cmp	$15                     ; 0x2015 <main+0x1b5b>
    2af3: d0 2d        	bne	$2b22 <_ZN12_GLOBAL__N_13putEcP6Status+0x94>
    2af5: a0 0f        	ldy	#$f
    2af7: b1 12        	lda	($12),y                 ; 0x2012 <main+0x1b58>
    2af9: c5 14        	cmp	$14                     ; 0x2014 <main+0x1b5a>
    2afb: d0 25        	bne	$2b22 <_ZN12_GLOBAL__N_13putEcP6Status+0x94>
    2afd: a5 12        	lda	$12                     ; 0x2012 <main+0x1b58>
    2aff: 18           	clc
    2b00: 69 09        	adc	#$9
    2b02: 85 14        	sta	$14                     ; 0x2014 <main+0x1b5a>
    2b04: a5 13        	lda	$13                     ; 0x2013 <main+0x1b59>
    2b06: 69 00        	adc	#$0
    2b08: a0 09        	ldy	#$9
    2b0a: 85 15        	sta	$15                     ; 0x2015 <main+0x1b5b>
    2b0c: 18           	clc
    2b0d: a5 16        	lda	$16                     ; 0x2016 <main+0x1b5c>
    2b0f: 71 12        	adc	($12),y                 ; 0x2012 <main+0x1b58>
    2b11: aa           	tax
    2b12: a0 01        	ldy	#$1
    2b14: a5 17        	lda	$17                     ; 0x2017 <main+0x1b5d>
    2b16: 71 14        	adc	($14),y                 ; 0x2014 <main+0x1b5a>
    2b18: 86 14        	stx	$14                     ; 0x2014 <main+0x1b5a>
    2b1a: 85 15        	sta	$15                     ; 0x2015 <main+0x1b5b>
    2b1c: a5 18        	lda	$18                     ; 0x2018 <main+0x1b5e>
    2b1e: 92 14        	sta	($14)                   ; 0x2014 <main+0x1b5a>
    2b20: 80 17        	bra	$2b39 <_ZN12_GLOBAL__N_13putEcP6Status+0xab>
    2b22: a6 12        	ldx	$12                     ; 0x2012 <main+0x1b58>
    2b24: 86 db        	stx	$db                     ; 0x20db <main+0x1c21>
    2b26: a6 13        	ldx	$13                     ; 0x2013 <main+0x1b59>
    2b28: 86 dc        	stx	$dc                     ; 0x20dc <main+0x1c22>
    2b2a: a2 00        	ldx	#$0
    2b2c: a5 18        	lda	$18                     ; 0x2018 <main+0x1b5e>
    2b2e: 20 46 38     	jsr	$3846 <putchar>
    2b31: a6 db        	ldx	$db                     ; 0x20db <main+0x1c21>
    2b33: 86 12        	stx	$12                     ; 0x2012 <main+0x1b58>
    2b35: a6 dc        	ldx	$dc                     ; 0x20dc <main+0x1c22>
    2b37: 86 13        	stx	$13                     ; 0x2013 <main+0x1b59>
    2b39: a0 05        	ldy	#$5
    2b3b: a5 12        	lda	$12                     ; 0x2012 <main+0x1b58>
    2b3d: 18           	clc
    2b3e: 69 05        	adc	#$5
    2b40: 85 14        	sta	$14                     ; 0x2014 <main+0x1b5a>
    2b42: a5 13        	lda	$13                     ; 0x2013 <main+0x1b59>
    2b44: 69 00        	adc	#$0
    2b46: 85 15        	sta	$15                     ; 0x2015 <main+0x1b5b>
    2b48: b1 12        	lda	($12),y                 ; 0x2012 <main+0x1b58>
    2b4a: aa           	tax
    2b4b: a0 01        	ldy	#$1
    2b4d: b1 14        	lda	($14),y                 ; 0x2014 <main+0x1b5a>
    2b4f: e8           	inx
    2b50: d0 01        	bne	$2b53 <_ZN12_GLOBAL__N_13putEcP6Status+0xc5>
    2b52: 1a           	inc
    2b53: 85 16        	sta	$16                     ; 0x2016 <main+0x1b5c>
    2b55: 8a           	txa
    2b56: a0 05        	ldy	#$5
    2b58: 91 12        	sta	($12),y                 ; 0x2012 <main+0x1b58>
    2b5a: a0 01        	ldy	#$1
    2b5c: a5 16        	lda	$16                     ; 0x2016 <main+0x1b5c>
    2b5e: 91 14        	sta	($14),y                 ; 0x2014 <main+0x1b5a>
    2b60: 60           	rts

00002b61 <_ZN12_GLOBAL__N_112print_stringEPKcP6Status>:
    2b61: a6 12        	ldx	$12                     ; 0x2012 <main+0x1b58>
    2b63: 86 d3        	stx	$d3                     ; 0x20d3 <main+0x1c19>
    2b65: a6 13        	ldx	$13                     ; 0x2013 <main+0x1b59>
    2b67: 86 d4        	stx	$d4                     ; 0x20d4 <main+0x1c1a>
    2b69: a6 14        	ldx	$14                     ; 0x2014 <main+0x1b5a>
    2b6b: 86 d5        	stx	$d5                     ; 0x20d5 <main+0x1c1b>
    2b6d: a6 15        	ldx	$15                     ; 0x2015 <main+0x1b5b>
    2b6f: 86 d6        	stx	$d6                     ; 0x20d6 <main+0x1c1c>
    2b71: a5 d5        	lda	$d5                     ; 0x20d5 <main+0x1c1b>
    2b73: 18           	clc
    2b74: 69 0d        	adc	#$d
    2b76: 85 12        	sta	$12                     ; 0x2012 <main+0x1b58>
    2b78: a5 d6        	lda	$d6                     ; 0x20d6 <main+0x1c1c>
    2b7a: 69 00        	adc	#$0
    2b7c: 85 13        	sta	$13                     ; 0x2013 <main+0x1b59>
    2b7e: a0 01        	ldy	#$1
    2b80: b1 12        	lda	($12),y                 ; 0x2012 <main+0x1b58>
    2b82: 30 16        	bmi	$2b9a <_ZN12_GLOBAL__N_112print_stringEPKcP6Status+0x39>
    2b84: a0 0d        	ldy	#$d
    2b86: 85 12        	sta	$12                     ; 0x2012 <main+0x1b58>
    2b88: b1 d5        	lda	($d5),y                 ; 0x20d5 <main+0x1c1b>
    2b8a: a6 12        	ldx	$12                     ; 0x2012 <main+0x1b58>
    2b8c: 86 da        	stx	$da                     ; 0x20da <main+0x1c20>
    2b8e: d0 0f        	bne	$2b9f <_ZN12_GLOBAL__N_112print_stringEPKcP6Status+0x3e>
    2b90: aa           	tax
    2b91: d0 0c        	bne	$2b9f <_ZN12_GLOBAL__N_112print_stringEPKcP6Status+0x3e>
    2b93: 64 d7        	stz	$d7                     ; 0x20d7 <main+0x1c1d>
    2b95: a2 00        	ldx	#$0
    2b97: 4c 68 2c     	jmp	$2c68 <_ZN12_GLOBAL__N_112print_stringEPKcP6Status+0x107>
    2b9a: a9 ff        	lda	#$ff
    2b9c: aa           	tax
    2b9d: 86 da        	stx	$da                     ; 0x20da <main+0x1c20>
    2b9f: 85 d7        	sta	$d7                     ; 0x20d7 <main+0x1c1d>
    2ba1: 64 12        	stz	$12                     ; 0x2012 <main+0x1b58>
    2ba3: a4 d3        	ldy	$d3                     ; 0x20d3 <main+0x1c19>
    2ba5: a6 d4        	ldx	$d4                     ; 0x20d4 <main+0x1c1a>
    2ba7: 86 16        	stx	$16                     ; 0x2016 <main+0x1b5c>
    2ba9: 64 13        	stz	$13                     ; 0x2013 <main+0x1b59>
    2bab: 98           	tya
    2bac: 18           	clc
    2bad: 65 12        	adc	$12                     ; 0x2012 <main+0x1b58>
    2baf: 85 14        	sta	$14                     ; 0x2014 <main+0x1b5a>
    2bb1: a5 d4        	lda	$d4                     ; 0x20d4 <main+0x1c1a>
    2bb3: 65 13        	adc	$13                     ; 0x2013 <main+0x1b59>
    2bb5: 85 15        	sta	$15                     ; 0x2015 <main+0x1b5b>
    2bb7: b2 14        	lda	($14)                   ; 0x2014 <main+0x1b5a>
    2bb9: d0 03        	bne	$2bbe <_ZN12_GLOBAL__N_112print_stringEPKcP6Status+0x5d>
    2bbb: 4c 62 2c     	jmp	$2c62 <_ZN12_GLOBAL__N_112print_stringEPKcP6Status+0x101>
    2bbe: e6 12        	inc	$12                     ; 0x2012 <main+0x1b58>
    2bc0: d0 02        	bne	$2bc4 <_ZN12_GLOBAL__N_112print_stringEPKcP6Status+0x63>
    2bc2: e6 13        	inc	$13                     ; 0x2013 <main+0x1b59>
    2bc4: a6 da        	ldx	$da                     ; 0x20da <main+0x1c20>
    2bc6: e4 13        	cpx	$13                     ; 0x2013 <main+0x1b59>
    2bc8: d0 e1        	bne	$2bab <_ZN12_GLOBAL__N_112print_stringEPKcP6Status+0x4a>
    2bca: a6 d7        	ldx	$d7                     ; 0x20d7 <main+0x1c1d>
    2bcc: e4 12        	cpx	$12                     ; 0x2012 <main+0x1b58>
    2bce: d0 db        	bne	$2bab <_ZN12_GLOBAL__N_112print_stringEPKcP6Status+0x4a>
    2bd0: a0 01        	ldy	#$1
    2bd2: b1 d5        	lda	($d5),y                 ; 0x20d5 <main+0x1c1b>
    2bd4: 29 01        	and	#$1
    2bd6: f0 03        	beq	$2bdb <_ZN12_GLOBAL__N_112print_stringEPKcP6Status+0x7a>
    2bd8: 4c 33 2c     	jmp	$2c33 <_ZN12_GLOBAL__N_112print_stringEPKcP6Status+0xd2>
    2bdb: a5 d5        	lda	$d5                     ; 0x20d5 <main+0x1c1b>
    2bdd: 18           	clc
    2bde: 69 0b        	adc	#$b
    2be0: 85 14        	sta	$14                     ; 0x2014 <main+0x1b5a>
    2be2: a5 d6        	lda	$d6                     ; 0x20d6 <main+0x1c1c>
    2be4: 69 00        	adc	#$0
    2be6: 85 15        	sta	$15                     ; 0x2015 <main+0x1b5b>
    2be8: a0 0b        	ldy	#$b
    2bea: b1 d5        	lda	($d5),y                 ; 0x20d5 <main+0x1c1b>
    2bec: 85 13        	sta	$13                     ; 0x2013 <main+0x1b59>
    2bee: a0 01        	ldy	#$1
    2bf0: b1 14        	lda	($14),y                 ; 0x2014 <main+0x1b5a>
    2bf2: 85 12        	sta	$12                     ; 0x2012 <main+0x1b58>
    2bf4: a6 da        	ldx	$da                     ; 0x20da <main+0x1c20>
    2bf6: e4 12        	cpx	$12                     ; 0x2012 <main+0x1b58>
    2bf8: d0 08        	bne	$2c02 <_ZN12_GLOBAL__N_112print_stringEPKcP6Status+0xa1>
    2bfa: a6 d7        	ldx	$d7                     ; 0x20d7 <main+0x1c1d>
    2bfc: e4 13        	cpx	$13                     ; 0x2013 <main+0x1b59>
    2bfe: 90 06        	bcc	$2c06 <_ZN12_GLOBAL__N_112print_stringEPKcP6Status+0xa5>
    2c00: 80 31        	bra	$2c33 <_ZN12_GLOBAL__N_112print_stringEPKcP6Status+0xd2>
    2c02: e4 12        	cpx	$12                     ; 0x2012 <main+0x1b58>
    2c04: b0 2d        	bcs	$2c33 <_ZN12_GLOBAL__N_112print_stringEPKcP6Status+0xd2>
    2c06: 38           	sec
    2c07: a5 d7        	lda	$d7                     ; 0x20d7 <main+0x1c1d>
    2c09: e5 13        	sbc	$13                     ; 0x2013 <main+0x1b59>
    2c0b: a8           	tay
    2c0c: a5 da        	lda	$da                     ; 0x20da <main+0x1c20>
    2c0e: e5 12        	sbc	$12                     ; 0x2012 <main+0x1b58>
    2c10: 85 d9        	sta	$d9                     ; 0x20d9 <main+0x1c1f>
    2c12: a6 d5        	ldx	$d5                     ; 0x20d5 <main+0x1c1b>
    2c14: 86 12        	stx	$12                     ; 0x2012 <main+0x1b58>
    2c16: a6 d6        	ldx	$d6                     ; 0x20d6 <main+0x1c1c>
    2c18: 86 13        	stx	$13                     ; 0x2013 <main+0x1b59>
    2c1a: 84 d8        	sty	$d8                     ; 0x20d8 <main+0x1c1e>
    2c1c: a9 20        	lda	#$20
    2c1e: 20 8e 2a     	jsr	$2a8e <_ZN12_GLOBAL__N_13putEcP6Status>
    2c21: a6 d9        	ldx	$d9                     ; 0x20d9 <main+0x1c1f>
    2c23: e6 d8        	inc	$d8                     ; 0x20d8 <main+0x1c1e>
    2c25: d0 01        	bne	$2c28 <_ZN12_GLOBAL__N_112print_stringEPKcP6Status+0xc7>
    2c27: e8           	inx
    2c28: 86 d9        	stx	$d9                     ; 0x20d9 <main+0x1c1f>
    2c2a: a4 d8        	ldy	$d8                     ; 0x20d8 <main+0x1c1e>
    2c2c: 8a           	txa
    2c2d: d0 e3        	bne	$2c12 <_ZN12_GLOBAL__N_112print_stringEPKcP6Status+0xb1>
    2c2f: a5 d8        	lda	$d8                     ; 0x20d8 <main+0x1c1e>
    2c31: d0 df        	bne	$2c12 <_ZN12_GLOBAL__N_112print_stringEPKcP6Status+0xb1>
    2c33: a4 da        	ldy	$da                     ; 0x20da <main+0x1c20>
    2c35: d0 04        	bne	$2c3b <_ZN12_GLOBAL__N_112print_stringEPKcP6Status+0xda>
    2c37: a5 d7        	lda	$d7                     ; 0x20d7 <main+0x1c1d>
    2c39: f0 26        	beq	$2c61 <_ZN12_GLOBAL__N_112print_stringEPKcP6Status+0x100>
    2c3b: a2 ff        	ldx	#$ff
    2c3d: c6 d7        	dec	$d7                     ; 0x20d7 <main+0x1c1d>
    2c3f: e4 d7        	cpx	$d7                     ; 0x20d7 <main+0x1c1d>
    2c41: d0 01        	bne	$2c44 <_ZN12_GLOBAL__N_112print_stringEPKcP6Status+0xe3>
    2c43: 88           	dey
    2c44: 84 d8        	sty	$d8                     ; 0x20d8 <main+0x1c1e>
    2c46: b2 d3        	lda	($d3)                   ; 0x20d3 <main+0x1c19>
    2c48: e6 d3        	inc	$d3                     ; 0x20d3 <main+0x1c19>
    2c4a: d0 02        	bne	$2c4e <_ZN12_GLOBAL__N_112print_stringEPKcP6Status+0xed>
    2c4c: e6 d4        	inc	$d4                     ; 0x20d4 <main+0x1c1a>
    2c4e: a6 d5        	ldx	$d5                     ; 0x20d5 <main+0x1c1b>
    2c50: 86 12        	stx	$12                     ; 0x2012 <main+0x1b58>
    2c52: a6 d6        	ldx	$d6                     ; 0x20d6 <main+0x1c1c>
    2c54: 86 13        	stx	$13                     ; 0x2013 <main+0x1b59>
    2c56: 20 8e 2a     	jsr	$2a8e <_ZN12_GLOBAL__N_13putEcP6Status>
    2c59: a4 d8        	ldy	$d8                     ; 0x20d8 <main+0x1c1e>
    2c5b: d0 de        	bne	$2c3b <_ZN12_GLOBAL__N_112print_stringEPKcP6Status+0xda>
    2c5d: a5 d7        	lda	$d7                     ; 0x20d7 <main+0x1c1d>
    2c5f: d0 da        	bne	$2c3b <_ZN12_GLOBAL__N_112print_stringEPKcP6Status+0xda>
    2c61: 60           	rts
    2c62: a6 12        	ldx	$12                     ; 0x2012 <main+0x1b58>
    2c64: 86 d7        	stx	$d7                     ; 0x20d7 <main+0x1c1d>
    2c66: a6 13        	ldx	$13                     ; 0x2013 <main+0x1b59>
    2c68: 86 da        	stx	$da                     ; 0x20da <main+0x1c20>
    2c6a: 4c d0 2b     	jmp	$2bd0 <_ZN12_GLOBAL__N_112print_stringEPKcP6Status+0x6f>

00002c6d <printf>:
    2c6d: a6 12        	ldx	$12                     ; 0x2012 <main+0x1b58>
    2c6f: 86 88        	stx	$88                     ; 0x2088 <main+0x1bce>
    2c71: a6 13        	ldx	$13                     ; 0x2013 <main+0x1b59>
    2c73: 86 89        	stx	$89                     ; 0x2089 <main+0x1bcf>
    2c75: 18           	clc
    2c76: a6 10        	ldx	$10                     ; 0x2010 <main+0x1b56>
    2c78: a4 11        	ldy	$11                     ; 0x2011 <main+0x1b57>
    2c7a: 86 c9        	stx	$c9                     ; 0x20c9 <main+0x1c0f>
    2c7c: 84 ca        	sty	$ca                     ; 0x20ca <main+0x1c10>
    2c7e: a6 c9        	ldx	$c9                     ; 0x20c9 <main+0x1c0f>
    2c80: a4 ca        	ldy	$ca                     ; 0x20ca <main+0x1c10>
    2c82: 86 b4        	stx	$b4                     ; 0x20b4 <main+0x1bfa>
    2c84: 84 b5        	sty	$b5                     ; 0x20b5 <main+0x1bfb>
    2c86: a2 ff        	ldx	#$ff
    2c88: 86 b9        	stx	$b9                     ; 0x20b9 <main+0x1bff>
    2c8a: 86 ba        	stx	$ba                     ; 0x20ba <main+0x1c00>
    2c8c: 64 bb        	stz	$bb                     ; 0x20bb <main+0x1c01>
    2c8e: 64 bc        	stz	$bc                     ; 0x20bc <main+0x1c02>
    2c90: e8           	inx
    2c91: 86 8a        	stx	$8a                     ; 0x208a <main+0x1bd0>
    2c93: a2 00        	ldx	#$0
    2c95: 86 8b        	stx	$8b                     ; 0x208b <main+0x1bd1>
    2c97: a6 8a        	ldx	$8a                     ; 0x208a <main+0x1bd0>
    2c99: a4 8b        	ldy	$8b                     ; 0x208b <main+0x1bd1>
    2c9b: 86 bf        	stx	$bf                     ; 0x20bf <main+0x1c05>
    2c9d: 84 c0        	sty	$c0                     ; 0x20c0 <main+0x1c06>
    2c9f: a2 02        	ldx	#$2
    2ca1: 86 c5        	stx	$c5                     ; 0x20c5 <main+0x1c0b>
    2ca3: 64 c6        	stz	$c6                     ; 0x20c6 <main+0x1c0c>
    2ca5: a6 b4        	ldx	$b4                     ; 0x20b4 <main+0x1bfa>
    2ca7: a4 b5        	ldy	$b5                     ; 0x20b5 <main+0x1bfb>
    2ca9: 86 c7        	stx	$c7                     ; 0x20c7 <main+0x1c0d>
    2cab: 84 c8        	sty	$c8                     ; 0x20c8 <main+0x1c0e>
    2cad: a2 ab        	ldx	#$ab
    2caf: a0 00        	ldy	#$0
    2cb1: 86 12        	stx	$12                     ; 0x2012 <main+0x1b58>
    2cb3: 84 13        	sty	$13                     ; 0x2013 <main+0x1b59>
    2cb5: a0 01        	ldy	#$1
    2cb7: a9 92        	lda	#$92
    2cb9: 18           	clc
    2cba: 69 02        	adc	#$2
    2cbc: 85 d1        	sta	$d1                     ; 0x20d1 <main+0x1c17>
    2cbe: a9 00        	lda	#$0
    2cc0: 69 00        	adc	#$0
    2cc2: 85 d2        	sta	$d2                     ; 0x20d2 <main+0x1c18>
    2cc4: e6 12        	inc	$12                     ; 0x2012 <main+0x1b58>
    2cc6: d0 02        	bne	$2cca <printf+0x5d>
    2cc8: e6 13        	inc	$13                     ; 0x2013 <main+0x1b59>
    2cca: a6 12        	ldx	$12                     ; 0x2012 <main+0x1b58>
    2ccc: 86 cd        	stx	$cd                     ; 0x20cd <main+0x1c13>
    2cce: a6 13        	ldx	$13                     ; 0x2013 <main+0x1b59>
    2cd0: 86 ce        	stx	$ce                     ; 0x20ce <main+0x1c14>
    2cd2: a6 88        	ldx	$88                     ; 0x2088 <main+0x1bce>
    2cd4: 86 8c        	stx	$8c                     ; 0x208c <main+0x1bd2>
    2cd6: a6 89        	ldx	$89                     ; 0x2089 <main+0x1bcf>
    2cd8: 86 8d        	stx	$8d                     ; 0x208d <main+0x1bd3>
    2cda: b2 88        	lda	($88)                   ; 0x2088 <main+0x1bce>
    2cdc: c9 25        	cmp	#$25
    2cde: f0 23        	beq	$2d03 <printf+0x96>
    2ce0: a2 00        	ldx	#$0
    2ce2: a8           	tay
    2ce3: d0 03        	bne	$2ce8 <printf+0x7b>
    2ce5: 4c 45 38     	jmp	$3845 <printf+0xbd8>
    2ce8: 20 46 38     	jsr	$3846 <putchar>
    2ceb: a0 01        	ldy	#$1
    2ced: e6 8c        	inc	$8c                     ; 0x208c <main+0x1bd2>
    2cef: d0 02        	bne	$2cf3 <printf+0x86>
    2cf1: e6 8d        	inc	$8d                     ; 0x208d <main+0x1bd3>
    2cf3: e6 bb        	inc	$bb                     ; 0x20bb <main+0x1c01>
    2cf5: d0 02        	bne	$2cf9 <printf+0x8c>
    2cf7: e6 bc        	inc	$bc                     ; 0x20bc <main+0x1c02>
    2cf9: a6 8c        	ldx	$8c                     ; 0x208c <main+0x1bd2>
    2cfb: 86 88        	stx	$88                     ; 0x2088 <main+0x1bce>
    2cfd: a6 8d        	ldx	$8d                     ; 0x208d <main+0x1bd3>
    2cff: 86 89        	stx	$89                     ; 0x2089 <main+0x1bcf>
    2d01: 80 cf        	bra	$2cd2 <printf+0x65>
    2d03: a6 88        	ldx	$88                     ; 0x2088 <main+0x1bce>
    2d05: 86 12        	stx	$12                     ; 0x2012 <main+0x1b58>
    2d07: a6 89        	ldx	$89                     ; 0x2089 <main+0x1bcf>
    2d09: 86 13        	stx	$13                     ; 0x2013 <main+0x1b59>
    2d0b: e6 12        	inc	$12                     ; 0x2012 <main+0x1b58>
    2d0d: d0 02        	bne	$2d11 <printf+0xa4>
    2d0f: e6 13        	inc	$13                     ; 0x2013 <main+0x1b59>
    2d11: b1 8c        	lda	($8c),y                 ; 0x208c <main+0x1bd2>
    2d13: c9 25        	cmp	#$25
    2d15: d0 16        	bne	$2d2d <printf+0xc0>
    2d17: a4 bb        	ldy	$bb                     ; 0x20bb <main+0x1c01>
    2d19: a5 bc        	lda	$bc                     ; 0x20bc <main+0x1c02>
    2d1b: c5 ba        	cmp	$ba                     ; 0x20ba <main+0x1c00>
    2d1d: f0 03        	beq	$2d22 <printf+0xb5>
    2d1f: 4c 33 2e     	jmp	$2e33 <printf+0x1c6>
    2d22: a6 b9        	ldx	$b9                     ; 0x20b9 <main+0x1bff>
    2d24: 86 12        	stx	$12                     ; 0x2012 <main+0x1b58>
    2d26: 84 13        	sty	$13                     ; 0x2013 <main+0x1b59>
    2d28: c4 12        	cpy	$12                     ; 0x2012 <main+0x1b58>
    2d2a: 4c 37 2e     	jmp	$2e37 <printf+0x1ca>
    2d2d: 64 b7        	stz	$b7                     ; 0x20b7 <main+0x1bfd>
    2d2f: 64 b8        	stz	$b8                     ; 0x20b8 <main+0x1bfe>
    2d31: 64 b6        	stz	$b6                     ; 0x20b6 <main+0x1bfc>
    2d33: 64 c1        	stz	$c1                     ; 0x20c1 <main+0x1c07>
    2d35: 64 c2        	stz	$c2                     ; 0x20c2 <main+0x1c08>
    2d37: a2 ff        	ldx	#$ff
    2d39: 86 c3        	stx	$c3                     ; 0x20c3 <main+0x1c09>
    2d3b: 86 c4        	stx	$c4                     ; 0x20c4 <main+0x1c0a>
    2d3d: 64 87        	stz	$87                     ; 0x2087 <main+0x1bcd>
    2d3f: 80 33        	bra	$2d74 <printf+0x107>
    2d41: a2 02        	ldx	#$2
    2d43: 80 15        	bra	$2d5a <printf+0xed>
    2d45: e0 20        	cpx	#$20
    2d47: f0 15        	beq	$2d5e <printf+0xf1>
    2d49: 86 15        	stx	$15                     ; 0x2015 <main+0x1b5b>
    2d4b: e0 23        	cpx	#$23
    2d4d: f0 03        	beq	$2d52 <printf+0xe5>
    2d4f: 4c d1 2d     	jmp	$2dd1 <printf+0x164>
    2d52: a5 87        	lda	$87                     ; 0x2087 <main+0x1bcd>
    2d54: a2 04        	ldx	#$4
    2d56: 80 02        	bra	$2d5a <printf+0xed>
    2d58: a2 10        	ldx	#$10
    2d5a: 86 14        	stx	$14                     ; 0x2014 <main+0x1b5a>
    2d5c: 80 06        	bra	$2d64 <printf+0xf7>
    2d5e: a2 08        	ldx	#$8
    2d60: 86 14        	stx	$14                     ; 0x2014 <main+0x1b5a>
    2d62: a5 87        	lda	$87                     ; 0x2087 <main+0x1bcd>
    2d64: 05 14        	ora	$14                     ; 0x2014 <main+0x1b5a>
    2d66: 85 87        	sta	$87                     ; 0x2087 <main+0x1bcd>
    2d68: 85 b7        	sta	$b7                     ; 0x20b7 <main+0x1bfd>
    2d6a: a2 00        	ldx	#$0
    2d6c: 86 b8        	stx	$b8                     ; 0x20b8 <main+0x1bfe>
    2d6e: e6 12        	inc	$12                     ; 0x2012 <main+0x1b58>
    2d70: d0 02        	bne	$2d74 <printf+0x107>
    2d72: e6 13        	inc	$13                     ; 0x2013 <main+0x1b59>
    2d74: b2 12        	lda	($12)                   ; 0x2012 <main+0x1b58>
    2d76: aa           	tax
    2d77: 18           	clc
    2d78: 69 d6        	adc	#$d6
    2d7a: c9 07        	cmp	#$7
    2d7c: b0 c7        	bcs	$2d45 <printf+0xd8>
    2d7e: 86 15        	stx	$15                     ; 0x2015 <main+0x1b5b>
    2d80: 0a           	asl
    2d81: aa           	tax
    2d82: a0 01        	ldy	#$1
    2d84: 84 14        	sty	$14                     ; 0x2014 <main+0x1b5a>
    2d86: a5 87        	lda	$87                     ; 0x2087 <main+0x1bcd>
    2d88: 7c eb 3f     	jmp	($3feb,x)               ; 0x3feb <__set_v+0xb5>
    2d8b: a5 c7        	lda	$c7                     ; 0x20c7 <main+0x1c0d>
    2d8d: a6 c8        	ldx	$c8                     ; 0x20c8 <main+0x1c0e>
    2d8f: 85 16        	sta	$16                     ; 0x2016 <main+0x1b5c>
    2d91: 86 17        	stx	$17                     ; 0x2017 <main+0x1b5d>
    2d93: 18           	clc
    2d94: 69 02        	adc	#$2
    2d96: a8           	tay
    2d97: 8a           	txa
    2d98: 69 00        	adc	#$0
    2d9a: 84 c7        	sty	$c7                     ; 0x20c7 <main+0x1c0d>
    2d9c: 85 c8        	sta	$c8                     ; 0x20c8 <main+0x1c0e>
    2d9e: b2 16        	lda	($16)                   ; 0x2016 <main+0x1b5c>
    2da0: 85 15        	sta	$15                     ; 0x2015 <main+0x1b5b>
    2da2: a0 01        	ldy	#$1
    2da4: b1 16        	lda	($16),y                 ; 0x2016 <main+0x1b5c>
    2da6: 85 14        	sta	$14                     ; 0x2014 <main+0x1b5a>
    2da8: 10 15        	bpl	$2dbf <printf+0x152>
    2daa: a5 87        	lda	$87                     ; 0x2087 <main+0x1bcd>
    2dac: 09 01        	ora	#$1
    2dae: 85 87        	sta	$87                     ; 0x2087 <main+0x1bcd>
    2db0: 85 b7        	sta	$b7                     ; 0x20b7 <main+0x1bfd>
    2db2: a2 00        	ldx	#$0
    2db4: 86 b8        	stx	$b8                     ; 0x20b8 <main+0x1bfe>
    2db6: 8a           	txa
    2db7: 38           	sec
    2db8: e5 15        	sbc	$15                     ; 0x2015 <main+0x1b5b>
    2dba: 85 15        	sta	$15                     ; 0x2015 <main+0x1b5b>
    2dbc: 8a           	txa
    2dbd: e5 14        	sbc	$14                     ; 0x2014 <main+0x1b5a>
    2dbf: a6 15        	ldx	$15                     ; 0x2015 <main+0x1b5b>
    2dc1: 86 c1        	stx	$c1                     ; 0x20c1 <main+0x1c07>
    2dc3: 85 c2        	sta	$c2                     ; 0x20c2 <main+0x1c08>
    2dc5: e6 12        	inc	$12                     ; 0x2012 <main+0x1b58>
    2dc7: f0 03        	beq	$2dcc <printf+0x15f>
    2dc9: 4c 87 2e     	jmp	$2e87 <printf+0x21a>
    2dcc: e6 13        	inc	$13                     ; 0x2013 <main+0x1b59>
    2dce: 4c 87 2e     	jmp	$2e87 <printf+0x21a>
    2dd1: a5 15        	lda	$15                     ; 0x2015 <main+0x1b5b>
    2dd3: 18           	clc
    2dd4: 69 d0        	adc	#$d0
    2dd6: c9 0a        	cmp	#$a
    2dd8: 90 03        	bcc	$2ddd <printf+0x170>
    2dda: 4c 79 2e     	jmp	$2e79 <printf+0x20c>
    2ddd: a6 15        	ldx	$15                     ; 0x2015 <main+0x1b5b>
    2ddf: 86 14        	stx	$14                     ; 0x2014 <main+0x1b5a>
    2de1: 64 16        	stz	$16                     ; 0x2016 <main+0x1b5c>
    2de3: 64 15        	stz	$15                     ; 0x2015 <main+0x1b5b>
    2de5: 64 17        	stz	$17                     ; 0x2017 <main+0x1b5d>
    2de7: a0 01        	ldy	#$1
    2de9: 06 16        	asl	$16                     ; 0x2016 <main+0x1b5c>
    2deb: 26 17        	rol	$17                     ; 0x2017 <main+0x1b5d>
    2ded: a5 16        	lda	$16                     ; 0x2016 <main+0x1b5c>
    2def: 0a           	asl
    2df0: aa           	tax
    2df1: a5 17        	lda	$17                     ; 0x2017 <main+0x1b5d>
    2df3: 2a           	rol
    2df4: 86 18        	stx	$18                     ; 0x2018 <main+0x1b5e>
    2df6: 06 18        	asl	$18                     ; 0x2018 <main+0x1b5e>
    2df8: 2a           	rol
    2df9: aa           	tax
    2dfa: a5 18        	lda	$18                     ; 0x2018 <main+0x1b5e>
    2dfc: 18           	clc
    2dfd: 65 16        	adc	$16                     ; 0x2016 <main+0x1b5c>
    2dff: 85 16        	sta	$16                     ; 0x2016 <main+0x1b5c>
    2e01: 8a           	txa
    2e02: 65 17        	adc	$17                     ; 0x2017 <main+0x1b5d>
    2e04: 85 17        	sta	$17                     ; 0x2017 <main+0x1b5d>
    2e06: a5 16        	lda	$16                     ; 0x2016 <main+0x1b5c>
    2e08: 18           	clc
    2e09: 65 14        	adc	$14                     ; 0x2014 <main+0x1b5a>
    2e0b: 85 14        	sta	$14                     ; 0x2014 <main+0x1b5a>
    2e0d: a5 17        	lda	$17                     ; 0x2017 <main+0x1b5d>
    2e0f: 65 15        	adc	$15                     ; 0x2015 <main+0x1b5b>
    2e11: aa           	tax
    2e12: 18           	clc
    2e13: a5 14        	lda	$14                     ; 0x2014 <main+0x1b5a>
    2e15: 69 d0        	adc	#$d0
    2e17: 85 16        	sta	$16                     ; 0x2016 <main+0x1b5c>
    2e19: 8a           	txa
    2e1a: 69 ff        	adc	#$ff
    2e1c: 85 17        	sta	$17                     ; 0x2017 <main+0x1b5d>
    2e1e: b1 12        	lda	($12),y                 ; 0x2012 <main+0x1b58>
    2e20: 85 14        	sta	$14                     ; 0x2014 <main+0x1b5a>
    2e22: 18           	clc
    2e23: 69 d0        	adc	#$d0
    2e25: e6 12        	inc	$12                     ; 0x2012 <main+0x1b58>
    2e27: d0 02        	bne	$2e2b <printf+0x1be>
    2e29: e6 13        	inc	$13                     ; 0x2013 <main+0x1b59>
    2e2b: c9 0a        	cmp	#$a
    2e2d: 64 15        	stz	$15                     ; 0x2015 <main+0x1b5b>
    2e2f: 90 b8        	bcc	$2de9 <printf+0x17c>
    2e31: 80 4c        	bra	$2e7f <printf+0x212>
    2e33: 84 13        	sty	$13                     ; 0x2013 <main+0x1b59>
    2e35: c5 ba        	cmp	$ba                     ; 0x20ba <main+0x1c00>
    2e37: a0 01        	ldy	#$1
    2e39: b0 28        	bcs	$2e63 <printf+0x1f6>
    2e3b: a6 c6        	ldx	$c6                     ; 0x20c6 <main+0x1c0c>
    2e3d: e4 8b        	cpx	$8b                     ; 0x208b <main+0x1bd1>
    2e3f: d0 19        	bne	$2e5a <printf+0x1ed>
    2e41: a6 c5        	ldx	$c5                     ; 0x20c5 <main+0x1c0b>
    2e43: e4 8a        	cpx	$8a                     ; 0x208a <main+0x1bd0>
    2e45: d0 13        	bne	$2e5a <printf+0x1ed>
    2e47: 18           	clc
    2e48: aa           	tax
    2e49: a5 13        	lda	$13                     ; 0x2013 <main+0x1b59>
    2e4b: 65 bf        	adc	$bf                     ; 0x20bf <main+0x1c05>
    2e4d: 85 12        	sta	$12                     ; 0x2012 <main+0x1b58>
    2e4f: 8a           	txa
    2e50: 65 c0        	adc	$c0                     ; 0x20c0 <main+0x1c06>
    2e52: 85 13        	sta	$13                     ; 0x2013 <main+0x1b59>
    2e54: a9 25        	lda	#$25
    2e56: 92 12        	sta	($12)                   ; 0x2012 <main+0x1b58>
    2e58: 80 09        	bra	$2e63 <printf+0x1f6>
    2e5a: a2 00        	ldx	#$0
    2e5c: a9 25        	lda	#$25
    2e5e: 20 46 38     	jsr	$3846 <putchar>
    2e61: a0 01        	ldy	#$1
    2e63: e6 bb        	inc	$bb                     ; 0x20bb <main+0x1c01>
    2e65: d0 02        	bne	$2e69 <printf+0x1fc>
    2e67: e6 bc        	inc	$bc                     ; 0x20bc <main+0x1c02>
    2e69: a5 8c        	lda	$8c                     ; 0x208c <main+0x1bd2>
    2e6b: 18           	clc
    2e6c: 69 02        	adc	#$2
    2e6e: 85 88        	sta	$88                     ; 0x2088 <main+0x1bce>
    2e70: a5 8d        	lda	$8d                     ; 0x208d <main+0x1bd3>
    2e72: 69 00        	adc	#$0
    2e74: 85 89        	sta	$89                     ; 0x2089 <main+0x1bcf>
    2e76: 4c d2 2c     	jmp	$2cd2 <printf+0x65>
    2e79: 64 16        	stz	$16                     ; 0x2016 <main+0x1b5c>
    2e7b: 64 17        	stz	$17                     ; 0x2017 <main+0x1b5d>
    2e7d: a0 01        	ldy	#$1
    2e7f: a6 16        	ldx	$16                     ; 0x2016 <main+0x1b5c>
    2e81: 86 c1        	stx	$c1                     ; 0x20c1 <main+0x1c07>
    2e83: a5 17        	lda	$17                     ; 0x2017 <main+0x1b5d>
    2e85: 85 c2        	sta	$c2                     ; 0x20c2 <main+0x1c08>
    2e87: 86 90        	stx	$90                     ; 0x2090 <main+0x1bd6>
    2e89: 85 8e        	sta	$8e                     ; 0x208e <main+0x1bd4>
    2e8b: b2 12        	lda	($12)                   ; 0x2012 <main+0x1b58>
    2e8d: a2 ff        	ldx	#$ff
    2e8f: c9 2e        	cmp	#$2e
    2e91: d0 39        	bne	$2ecc <printf+0x25f>
    2e93: b1 12        	lda	($12),y                 ; 0x2012 <main+0x1b58>
    2e95: c9 2a        	cmp	#$2a
    2e97: d0 38        	bne	$2ed1 <printf+0x264>
    2e99: a5 c7        	lda	$c7                     ; 0x20c7 <main+0x1c0d>
    2e9b: a6 c8        	ldx	$c8                     ; 0x20c8 <main+0x1c0e>
    2e9d: 85 14        	sta	$14                     ; 0x2014 <main+0x1b5a>
    2e9f: 86 15        	stx	$15                     ; 0x2015 <main+0x1b5b>
    2ea1: 18           	clc
    2ea2: 69 02        	adc	#$2
    2ea4: 85 16        	sta	$16                     ; 0x2016 <main+0x1b5c>
    2ea6: 8a           	txa
    2ea7: 69 00        	adc	#$0
    2ea9: a6 16        	ldx	$16                     ; 0x2016 <main+0x1b5c>
    2eab: 86 c7        	stx	$c7                     ; 0x20c7 <main+0x1c0d>
    2ead: 85 c8        	sta	$c8                     ; 0x20c8 <main+0x1c0e>
    2eaf: a5 12        	lda	$12                     ; 0x2012 <main+0x1b58>
    2eb1: 18           	clc
    2eb2: 69 02        	adc	#$2
    2eb4: 85 12        	sta	$12                     ; 0x2012 <main+0x1b58>
    2eb6: a5 13        	lda	$13                     ; 0x2013 <main+0x1b59>
    2eb8: 69 00        	adc	#$0
    2eba: 85 13        	sta	$13                     ; 0x2013 <main+0x1b59>
    2ebc: b2 14        	lda	($14)                   ; 0x2014 <main+0x1b5a>
    2ebe: aa           	tax
    2ebf: b1 14        	lda	($14),y                 ; 0x2014 <main+0x1b5a>
    2ec1: 86 18        	stx	$18                     ; 0x2018 <main+0x1b5e>
    2ec3: 86 c3        	stx	$c3                     ; 0x20c3 <main+0x1c09>
    2ec5: 85 19        	sta	$19                     ; 0x2019 <main+0x1b5f>
    2ec7: 85 c4        	sta	$c4                     ; 0x20c4 <main+0x1c0a>
    2ec9: 4c 7c 2f     	jmp	$2f7c <printf+0x30f>
    2ecc: 86 18        	stx	$18                     ; 0x2018 <main+0x1b5e>
    2ece: 4c 8c 2f     	jmp	$2f8c <printf+0x31f>
    2ed1: 85 17        	sta	$17                     ; 0x2017 <main+0x1b5d>
    2ed3: 18           	clc
    2ed4: 69 d0        	adc	#$d0
    2ed6: c9 0a        	cmp	#$a
    2ed8: 90 03        	bcc	$2edd <printf+0x270>
    2eda: 4c 6e 2f     	jmp	$2f6e <printf+0x301>
    2edd: 64 16        	stz	$16                     ; 0x2016 <main+0x1b5c>
    2edf: a2 01        	ldx	#$1
    2ee1: 64 18        	stz	$18                     ; 0x2018 <main+0x1b5e>
    2ee3: 64 19        	stz	$19                     ; 0x2019 <main+0x1b5f>
    2ee5: a0 01        	ldy	#$1
    2ee7: 64 1a        	stz	$1a                     ; 0x201a <main+0x1b60>
    2ee9: 5a           	phy
    2eea: a4 1a        	ldy	$1a                     ; 0x201a <main+0x1b60>
    2eec: 84 14        	sty	$14                     ; 0x2014 <main+0x1b5a>
    2eee: 86 15        	stx	$15                     ; 0x2015 <main+0x1b5b>
    2ef0: 06 18        	asl	$18                     ; 0x2018 <main+0x1b5e>
    2ef2: 26 19        	rol	$19                     ; 0x2019 <main+0x1b5f>
    2ef4: a5 18        	lda	$18                     ; 0x2018 <main+0x1b5e>
    2ef6: 0a           	asl
    2ef7: 85 1d        	sta	$1d                     ; 0x201d <main+0x1b63>
    2ef9: a5 19        	lda	$19                     ; 0x2019 <main+0x1b5f>
    2efb: 2a           	rol
    2efc: 06 1d        	asl	$1d                     ; 0x201d <main+0x1b63>
    2efe: 2a           	rol
    2eff: 85 1e        	sta	$1e                     ; 0x201e <main+0x1b64>
    2f01: a5 1d        	lda	$1d                     ; 0x201d <main+0x1b63>
    2f03: 18           	clc
    2f04: 65 18        	adc	$18                     ; 0x2018 <main+0x1b5e>
    2f06: 85 18        	sta	$18                     ; 0x2018 <main+0x1b5e>
    2f08: a5 1e        	lda	$1e                     ; 0x201e <main+0x1b64>
    2f0a: 65 19        	adc	$19                     ; 0x2019 <main+0x1b5f>
    2f0c: 85 19        	sta	$19                     ; 0x2019 <main+0x1b5f>
    2f0e: a5 18        	lda	$18                     ; 0x2018 <main+0x1b5e>
    2f10: 18           	clc
    2f11: 65 17        	adc	$17                     ; 0x2017 <main+0x1b5d>
    2f13: 85 17        	sta	$17                     ; 0x2017 <main+0x1b5d>
    2f15: a5 19        	lda	$19                     ; 0x2019 <main+0x1b5f>
    2f17: 65 16        	adc	$16                     ; 0x2016 <main+0x1b5c>
    2f19: 85 16        	sta	$16                     ; 0x2016 <main+0x1b5c>
    2f1b: 18           	clc
    2f1c: a5 17        	lda	$17                     ; 0x2017 <main+0x1b5d>
    2f1e: 69 d0        	adc	#$d0
    2f20: 85 18        	sta	$18                     ; 0x2018 <main+0x1b5e>
    2f22: a5 16        	lda	$16                     ; 0x2016 <main+0x1b5c>
    2f24: 69 ff        	adc	#$ff
    2f26: 85 19        	sta	$19                     ; 0x2019 <main+0x1b5f>
    2f28: e8           	inx
    2f29: d0 02        	bne	$2f2d <printf+0x2c0>
    2f2b: e6 1a        	inc	$1a                     ; 0x201a <main+0x1b60>
    2f2d: a5 12        	lda	$12                     ; 0x2012 <main+0x1b58>
    2f2f: 18           	clc
    2f30: 65 15        	adc	$15                     ; 0x2015 <main+0x1b5b>
    2f32: 85 1d        	sta	$1d                     ; 0x201d <main+0x1b63>
    2f34: a5 13        	lda	$13                     ; 0x2013 <main+0x1b59>
    2f36: 65 14        	adc	$14                     ; 0x2014 <main+0x1b5a>
    2f38: a4 1d        	ldy	$1d                     ; 0x201d <main+0x1b63>
    2f3a: 84 16        	sty	$16                     ; 0x2016 <main+0x1b5c>
    2f3c: 7a           	ply
    2f3d: 85 17        	sta	$17                     ; 0x2017 <main+0x1b5d>
    2f3f: b1 16        	lda	($16),y                 ; 0x2016 <main+0x1b5c>
    2f41: 85 17        	sta	$17                     ; 0x2017 <main+0x1b5d>
    2f43: 18           	clc
    2f44: 69 d0        	adc	#$d0
    2f46: c9 0a        	cmp	#$a
    2f48: 64 16        	stz	$16                     ; 0x2016 <main+0x1b5c>
    2f4a: b0 03        	bcs	$2f4f <printf+0x2e2>
    2f4c: 4c e9 2e     	jmp	$2ee9 <printf+0x27c>
    2f4f: a5 12        	lda	$12                     ; 0x2012 <main+0x1b58>
    2f51: 18           	clc
    2f52: 65 15        	adc	$15                     ; 0x2015 <main+0x1b5b>
    2f54: 85 12        	sta	$12                     ; 0x2012 <main+0x1b58>
    2f56: a5 13        	lda	$13                     ; 0x2013 <main+0x1b59>
    2f58: 65 14        	adc	$14                     ; 0x2014 <main+0x1b5a>
    2f5a: 85 13        	sta	$13                     ; 0x2013 <main+0x1b59>
    2f5c: e6 12        	inc	$12                     ; 0x2012 <main+0x1b58>
    2f5e: d0 02        	bne	$2f62 <printf+0x2f5>
    2f60: e6 13        	inc	$13                     ; 0x2013 <main+0x1b59>
    2f62: a6 18        	ldx	$18                     ; 0x2018 <main+0x1b5e>
    2f64: 86 c3        	stx	$c3                     ; 0x20c3 <main+0x1c09>
    2f66: a6 19        	ldx	$19                     ; 0x2019 <main+0x1b5f>
    2f68: 86 c4        	stx	$c4                     ; 0x20c4 <main+0x1c0a>
    2f6a: a0 01        	ldy	#$1
    2f6c: 80 0e        	bra	$2f7c <printf+0x30f>
    2f6e: e6 12        	inc	$12                     ; 0x2012 <main+0x1b58>
    2f70: d0 02        	bne	$2f74 <printf+0x307>
    2f72: e6 13        	inc	$13                     ; 0x2013 <main+0x1b59>
    2f74: 64 18        	stz	$18                     ; 0x2018 <main+0x1b5e>
    2f76: 64 c3        	stz	$c3                     ; 0x20c3 <main+0x1c09>
    2f78: 64 c4        	stz	$c4                     ; 0x20c4 <main+0x1c0a>
    2f7a: 64 19        	stz	$19                     ; 0x2019 <main+0x1b5f>
    2f7c: a5 87        	lda	$87                     ; 0x2087 <main+0x1bcd>
    2f7e: 29 ef        	and	#$ef
    2f80: 85 87        	sta	$87                     ; 0x2087 <main+0x1bcd>
    2f82: 85 b7        	sta	$b7                     ; 0x20b7 <main+0x1bfd>
    2f84: a2 00        	ldx	#$0
    2f86: 86 b8        	stx	$b8                     ; 0x20b8 <main+0x1bfe>
    2f88: b2 12        	lda	($12)                   ; 0x2012 <main+0x1b58>
    2f8a: a6 19        	ldx	$19                     ; 0x2019 <main+0x1b5f>
    2f8c: 86 15        	stx	$15                     ; 0x2015 <main+0x1b5b>
    2f8e: a6 12        	ldx	$12                     ; 0x2012 <main+0x1b58>
    2f90: 86 88        	stx	$88                     ; 0x2088 <main+0x1bce>
    2f92: a6 13        	ldx	$13                     ; 0x2013 <main+0x1b59>
    2f94: 86 89        	stx	$89                     ; 0x2089 <main+0x1bcf>
    2f96: e6 88        	inc	$88                     ; 0x2088 <main+0x1bce>
    2f98: d0 02        	bne	$2f9c <printf+0x32f>
    2f9a: e6 89        	inc	$89                     ; 0x2089 <main+0x1bcf>
    2f9c: 85 14        	sta	$14                     ; 0x2014 <main+0x1b5a>
    2f9e: 38           	sec
    2f9f: e9 6c        	sbc	#$6c
    2fa1: 50 02        	bvc	$2fa5 <printf+0x338>
    2fa3: 49 80        	eor	#$80
    2fa5: aa           	tax
    2fa6: 10 1d        	bpl	$2fc5 <printf+0x358>
    2fa8: a5 14        	lda	$14                     ; 0x2014 <main+0x1b5a>
    2faa: c9 4c        	cmp	#$4c
    2fac: f0 27        	beq	$2fd5 <printf+0x368>
    2fae: c9 68        	cmp	#$68
    2fb0: d0 03        	bne	$2fb5 <printf+0x348>
    2fb2: 4c 3c 30     	jmp	$303c <printf+0x3cf>
    2fb5: a2 08        	ldx	#$8
    2fb7: c9 6a        	cmp	#$6a
    2fb9: d0 2e        	bne	$2fe9 <printf+0x37c>
    2fbb: a5 88        	lda	$88                     ; 0x2088 <main+0x1bce>
    2fbd: 85 12        	sta	$12                     ; 0x2012 <main+0x1b58>
    2fbf: a5 89        	lda	$89                     ; 0x2089 <main+0x1bcf>
    2fc1: 85 13        	sta	$13                     ; 0x2013 <main+0x1b59>
    2fc3: 80 43        	bra	$3008 <printf+0x39b>
    2fc5: a6 14        	ldx	$14                     ; 0x2014 <main+0x1b5a>
    2fc7: e0 6c        	cpx	#$6c
    2fc9: f0 23        	beq	$2fee <printf+0x381>
    2fcb: e0 74        	cpx	#$74
    2fcd: f0 12        	beq	$2fe1 <printf+0x374>
    2fcf: e0 7a        	cpx	#$7a
    2fd1: f0 0e        	beq	$2fe1 <printf+0x374>
    2fd3: 80 14        	bra	$2fe9 <printf+0x37c>
    2fd5: a5 87        	lda	$87                     ; 0x2087 <main+0x1bcd>
    2fd7: 09 40        	ora	#$40
    2fd9: 85 87        	sta	$87                     ; 0x2087 <main+0x1bcd>
    2fdb: 85 b7        	sta	$b7                     ; 0x20b7 <main+0x1bfd>
    2fdd: a2 00        	ldx	#$0
    2fdf: 86 b8        	stx	$b8                     ; 0x20b8 <main+0x1bfe>
    2fe1: a6 88        	ldx	$88                     ; 0x2088 <main+0x1bce>
    2fe3: 86 12        	stx	$12                     ; 0x2012 <main+0x1b58>
    2fe5: a6 89        	ldx	$89                     ; 0x2089 <main+0x1bcf>
    2fe7: 86 13        	stx	$13                     ; 0x2013 <main+0x1b59>
    2fe9: a2 02        	ldx	#$2
    2feb: 8a           	txa
    2fec: 80 1c        	bra	$300a <printf+0x39d>
    2fee: b1 12        	lda	($12),y                 ; 0x2012 <main+0x1b58>
    2ff0: a2 04        	ldx	#$4
    2ff2: c9 6c        	cmp	#$6c
    2ff4: f0 03        	beq	$2ff9 <printf+0x38c>
    2ff6: 4c 4b 33     	jmp	$334b <printf+0x6de>
    2ff9: a5 12        	lda	$12                     ; 0x2012 <main+0x1b58>
    2ffb: 18           	clc
    2ffc: 69 02        	adc	#$2
    2ffe: 85 12        	sta	$12                     ; 0x2012 <main+0x1b58>
    3000: a5 13        	lda	$13                     ; 0x2013 <main+0x1b59>
    3002: 69 00        	adc	#$0
    3004: 85 13        	sta	$13                     ; 0x2013 <main+0x1b59>
    3006: a2 08        	ldx	#$8
    3008: a9 08        	lda	#$8
    300a: 85 cc        	sta	$cc                     ; 0x20cc <main+0x1c12>
    300c: b2 12        	lda	($12)                   ; 0x2012 <main+0x1b58>
    300e: 5a           	phy
    300f: a4 12        	ldy	$12                     ; 0x2012 <main+0x1b58>
    3011: 84 88        	sty	$88                     ; 0x2088 <main+0x1bce>
    3013: a4 13        	ldy	$13                     ; 0x2013 <main+0x1b59>
    3015: 84 89        	sty	$89                     ; 0x2089 <main+0x1bcf>
    3017: 7a           	ply
    3018: 86 8a        	stx	$8a                     ; 0x208a <main+0x1bd0>
    301a: aa           	tax
    301b: 18           	clc
    301c: 69 9d        	adc	#$9d
    301e: c9 16        	cmp	#$16
    3020: b0 39        	bcs	$305b <printf+0x3ee>
    3022: 0a           	asl
    3023: aa           	tax
    3024: 7c f9 3f     	jmp	($3ff9,x)               ; 0x3ff9 <__set_v+0xc3>
    3027: a6 15        	ldx	$15                     ; 0x2015 <main+0x1b5b>
    3029: 86 cf        	stx	$cf                     ; 0x20cf <main+0x1c15>
    302b: a6 18        	ldx	$18                     ; 0x2018 <main+0x1b5e>
    302d: 86 d0        	stx	$d0                     ; 0x20d0 <main+0x1c16>
    302f: a0 0a        	ldy	#$a
    3031: a2 0a        	ldx	#$a
    3033: 86 cb        	stx	$cb                     ; 0x20cb <main+0x1c11>
    3035: 84 b6        	sty	$b6                     ; 0x20b6 <main+0x1bfc>
    3037: 64 91        	stz	$91                     ; 0x2091 <main+0x1bd7>
    3039: 4c 5b 31     	jmp	$315b <printf+0x4ee>
    303c: b1 12        	lda	($12),y                 ; 0x2012 <main+0x1b58>
    303e: a2 02        	ldx	#$2
    3040: c9 68        	cmp	#$68
    3042: f0 03        	beq	$3047 <printf+0x3da>
    3044: 4c 51 33     	jmp	$3351 <printf+0x6e4>
    3047: a5 12        	lda	$12                     ; 0x2012 <main+0x1b58>
    3049: 18           	clc
    304a: 69 02        	adc	#$2
    304c: 85 12        	sta	$12                     ; 0x2012 <main+0x1b58>
    304e: a5 13        	lda	$13                     ; 0x2013 <main+0x1b59>
    3050: 69 00        	adc	#$0
    3052: 85 13        	sta	$13                     ; 0x2013 <main+0x1b59>
    3054: a2 01        	ldx	#$1
    3056: 86 cc        	stx	$cc                     ; 0x20cc <main+0x1c12>
    3058: e8           	inx
    3059: 80 b1        	bra	$300c <printf+0x39f>
    305b: e0 58        	cpx	#$58
    305d: f0 03        	beq	$3062 <printf+0x3f5>
    305f: 4c ff 37     	jmp	$37ff <printf+0xb92>
    3062: a6 15        	ldx	$15                     ; 0x2015 <main+0x1b5b>
    3064: 86 cf        	stx	$cf                     ; 0x20cf <main+0x1c15>
    3066: a6 18        	ldx	$18                     ; 0x2018 <main+0x1b5e>
    3068: 86 d0        	stx	$d0                     ; 0x20d0 <main+0x1c16>
    306a: a2 10        	ldx	#$10
    306c: 86 b6        	stx	$b6                     ; 0x20b6 <main+0x1bfc>
    306e: a9 00        	lda	#$0
    3070: 09 01        	ora	#$1
    3072: a6 87        	ldx	$87                     ; 0x2087 <main+0x1bcd>
    3074: 80 29        	bra	$309f <printf+0x432>
    3076: a6 15        	ldx	$15                     ; 0x2015 <main+0x1b5b>
    3078: 86 cf        	stx	$cf                     ; 0x20cf <main+0x1c15>
    307a: a6 18        	ldx	$18                     ; 0x2018 <main+0x1b5e>
    307c: 86 d0        	stx	$d0                     ; 0x20d0 <main+0x1c16>
    307e: a2 10        	ldx	#$10
    3080: 86 b6        	stx	$b6                     ; 0x20b6 <main+0x1bfc>
    3082: a5 87        	lda	$87                     ; 0x2087 <main+0x1bcd>
    3084: 09 84        	ora	#$84
    3086: 80 10        	bra	$3098 <printf+0x42b>
    3088: a6 15        	ldx	$15                     ; 0x2015 <main+0x1b5b>
    308a: 86 cf        	stx	$cf                     ; 0x20cf <main+0x1c15>
    308c: a6 18        	ldx	$18                     ; 0x2018 <main+0x1b5e>
    308e: 86 d0        	stx	$d0                     ; 0x20d0 <main+0x1c16>
    3090: a2 10        	ldx	#$10
    3092: 86 b6        	stx	$b6                     ; 0x20b6 <main+0x1bfc>
    3094: a5 87        	lda	$87                     ; 0x2087 <main+0x1bcd>
    3096: 09 80        	ora	#$80
    3098: aa           	tax
    3099: a9 00        	lda	#$0
    309b: 09 01        	ora	#$1
    309d: 86 87        	stx	$87                     ; 0x2087 <main+0x1bcd>
    309f: 86 b7        	stx	$b7                     ; 0x20b7 <main+0x1bfd>
    30a1: 85 91        	sta	$91                     ; 0x2091 <main+0x1bd7>
    30a3: 85 b8        	sta	$b8                     ; 0x20b8 <main+0x1bfe>
    30a5: a2 10        	ldx	#$10
    30a7: 86 cb        	stx	$cb                     ; 0x20cb <main+0x1c11>
    30a9: 4c 5b 31     	jmp	$315b <printf+0x4ee>
    30ac: a5 c7        	lda	$c7                     ; 0x20c7 <main+0x1c0d>
    30ae: a6 c8        	ldx	$c8                     ; 0x20c8 <main+0x1c0e>
    30b0: 85 12        	sta	$12                     ; 0x2012 <main+0x1b58>
    30b2: 86 13        	stx	$13                     ; 0x2013 <main+0x1b59>
    30b4: 18           	clc
    30b5: 69 02        	adc	#$2
    30b7: 85 14        	sta	$14                     ; 0x2014 <main+0x1b5a>
    30b9: 8a           	txa
    30ba: 69 00        	adc	#$0
    30bc: a6 14        	ldx	$14                     ; 0x2014 <main+0x1b5a>
    30be: 86 c7        	stx	$c7                     ; 0x20c7 <main+0x1c0d>
    30c0: 85 c8        	sta	$c8                     ; 0x20c8 <main+0x1c0e>
    30c2: b2 12        	lda	($12)                   ; 0x2012 <main+0x1b58>
    30c4: aa           	tax
    30c5: b1 12        	lda	($12),y                 ; 0x2012 <main+0x1b58>
    30c7: 86 12        	stx	$12                     ; 0x2012 <main+0x1b58>
    30c9: 85 13        	sta	$13                     ; 0x2013 <main+0x1b59>
    30cb: a5 bb        	lda	$bb                     ; 0x20bb <main+0x1c01>
    30cd: a6 bc        	ldx	$bc                     ; 0x20bc <main+0x1c02>
    30cf: 92 12        	sta	($12)                   ; 0x2012 <main+0x1b58>
    30d1: 8a           	txa
    30d2: 91 12        	sta	($12),y                 ; 0x2012 <main+0x1b58>
    30d4: 4c 34 31     	jmp	$3134 <printf+0x4c7>
    30d7: a5 c7        	lda	$c7                     ; 0x20c7 <main+0x1c0d>
    30d9: a6 c8        	ldx	$c8                     ; 0x20c8 <main+0x1c0e>
    30db: 85 12        	sta	$12                     ; 0x2012 <main+0x1b58>
    30dd: 86 13        	stx	$13                     ; 0x2013 <main+0x1b59>
    30df: 18           	clc
    30e0: 69 02        	adc	#$2
    30e2: 85 14        	sta	$14                     ; 0x2014 <main+0x1b5a>
    30e4: 8a           	txa
    30e5: 69 00        	adc	#$0
    30e7: a6 14        	ldx	$14                     ; 0x2014 <main+0x1b5a>
    30e9: 86 c7        	stx	$c7                     ; 0x20c7 <main+0x1c0d>
    30eb: 85 c8        	sta	$c8                     ; 0x20c8 <main+0x1c0e>
    30ed: b2 12        	lda	($12)                   ; 0x2012 <main+0x1b58>
    30ef: aa           	tax
    30f0: b1 12        	lda	($12),y                 ; 0x2012 <main+0x1b58>
    30f2: 86 12        	stx	$12                     ; 0x2012 <main+0x1b58>
    30f4: 85 13        	sta	$13                     ; 0x2013 <main+0x1b59>
    30f6: 80 2f        	bra	$3127 <printf+0x4ba>
    30f8: a6 15        	ldx	$15                     ; 0x2015 <main+0x1b5b>
    30fa: 86 cf        	stx	$cf                     ; 0x20cf <main+0x1c15>
    30fc: a6 18        	ldx	$18                     ; 0x2018 <main+0x1b5e>
    30fe: 86 d0        	stx	$d0                     ; 0x20d0 <main+0x1c16>
    3100: a0 08        	ldy	#$8
    3102: a2 08        	ldx	#$8
    3104: 80 45        	bra	$314b <printf+0x4de>
    3106: a5 c7        	lda	$c7                     ; 0x20c7 <main+0x1c0d>
    3108: a6 c8        	ldx	$c8                     ; 0x20c8 <main+0x1c0e>
    310a: 85 12        	sta	$12                     ; 0x2012 <main+0x1b58>
    310c: 86 13        	stx	$13                     ; 0x2013 <main+0x1b59>
    310e: 18           	clc
    310f: 69 02        	adc	#$2
    3111: a8           	tay
    3112: 8a           	txa
    3113: 69 00        	adc	#$0
    3115: 84 c7        	sty	$c7                     ; 0x20c7 <main+0x1c0d>
    3117: 85 c8        	sta	$c8                     ; 0x20c8 <main+0x1c0e>
    3119: b2 12        	lda	($12)                   ; 0x2012 <main+0x1b58>
    311b: 85 a9        	sta	$a9                     ; 0x20a9 <main+0x1bef>
    311d: 64 aa        	stz	$aa                     ; 0x20aa <main+0x1bf0>
    311f: a2 a9        	ldx	#$a9
    3121: 86 12        	stx	$12                     ; 0x2012 <main+0x1b58>
    3123: a2 00        	ldx	#$0
    3125: 86 13        	stx	$13                     ; 0x2013 <main+0x1b59>
    3127: a2 b6        	ldx	#$b6
    3129: 86 14        	stx	$14                     ; 0x2014 <main+0x1b5a>
    312b: a2 00        	ldx	#$0
    312d: 86 15        	stx	$15                     ; 0x2015 <main+0x1b5b>
    312f: 20 61 2b     	jsr	$2b61 <_ZN12_GLOBAL__N_112print_stringEPKcP6Status>
    3132: a0 01        	ldy	#$1
    3134: a2 00        	ldx	#$0
    3136: 86 8a        	stx	$8a                     ; 0x208a <main+0x1bd0>
    3138: a2 00        	ldx	#$0
    313a: 86 8b        	stx	$8b                     ; 0x208b <main+0x1bd1>
    313c: 4c e7 37     	jmp	$37e7 <printf+0xb7a>
    313f: a6 15        	ldx	$15                     ; 0x2015 <main+0x1b5b>
    3141: 86 cf        	stx	$cf                     ; 0x20cf <main+0x1c15>
    3143: a6 18        	ldx	$18                     ; 0x2018 <main+0x1b5e>
    3145: 86 d0        	stx	$d0                     ; 0x20d0 <main+0x1c16>
    3147: a0 0a        	ldy	#$a
    3149: a2 0a        	ldx	#$a
    314b: 86 cb        	stx	$cb                     ; 0x20cb <main+0x1c11>
    314d: 84 b6        	sty	$b6                     ; 0x20b6 <main+0x1bfc>
    314f: a9 00        	lda	#$0
    3151: 09 01        	ora	#$1
    3153: a6 87        	ldx	$87                     ; 0x2087 <main+0x1bcd>
    3155: 86 b7        	stx	$b7                     ; 0x20b7 <main+0x1bfd>
    3157: 85 91        	sta	$91                     ; 0x2091 <main+0x1bd7>
    3159: 85 b8        	sta	$b8                     ; 0x20b8 <main+0x1bfe>
    315b: a5 cc        	lda	$cc                     ; 0x20cc <main+0x1c12>
    315d: 85 ab        	sta	$ab                     ; 0x20ab <main+0x1bf1>
    315f: a4 c7        	ldy	$c7                     ; 0x20c7 <main+0x1c0d>
    3161: a6 c8        	ldx	$c8                     ; 0x20c8 <main+0x1c0e>
    3163: 86 8f        	stx	$8f                     ; 0x208f <main+0x1bd5>
    3165: 84 14        	sty	$14                     ; 0x2014 <main+0x1b5a>
    3167: 84 86        	sty	$86                     ; 0x2086 <main+0x1bcc>
    3169: 86 15        	stx	$15                     ; 0x2015 <main+0x1b5b>
    316b: a6 cd        	ldx	$cd                     ; 0x20cd <main+0x1c13>
    316d: 86 12        	stx	$12                     ; 0x2012 <main+0x1b58>
    316f: a6 ce        	ldx	$ce                     ; 0x20ce <main+0x1c14>
    3171: 86 13        	stx	$13                     ; 0x2013 <main+0x1b59>
    3173: a2 00        	ldx	#$0
    3175: 85 8b        	sta	$8b                     ; 0x208b <main+0x1bd1>
    3177: 20 d9 3c     	jsr	$3cd9 <memcpy>
    317a: 18           	clc
    317b: a5 86        	lda	$86                     ; 0x2086 <main+0x1bcc>
    317d: 65 8a        	adc	$8a                     ; 0x208a <main+0x1bd0>
    317f: aa           	tax
    3180: a5 8f        	lda	$8f                     ; 0x208f <main+0x1bd5>
    3182: 69 00        	adc	#$0
    3184: 86 c7        	stx	$c7                     ; 0x20c7 <main+0x1c0d>
    3186: 85 c8        	sta	$c8                     ; 0x20c8 <main+0x1c0e>
    3188: a5 91        	lda	$91                     ; 0x2091 <main+0x1bd7>
    318a: 29 01        	and	#$1
    318c: b8           	clv
    318d: f0 03        	beq	$3192 <printf+0x525>
    318f: 4c e6 31     	jmp	$31e6 <printf+0x579>
    3192: a6 8b        	ldx	$8b                     ; 0x208b <main+0x1bd1>
    3194: b5 ab        	lda	$ab,x                   ; 0x20ab <main+0x1bf1>
    3196: aa           	tax
    3197: a0 01        	ldy	#$1
    3199: a5 8e        	lda	$8e                     ; 0x208e <main+0x1bd4>
    319b: 85 1a        	sta	$1a                     ; 0x201a <main+0x1b60>
    319d: a5 d0        	lda	$d0                     ; 0x20d0 <main+0x1c16>
    319f: 85 8e        	sta	$8e                     ; 0x208e <main+0x1bd4>
    31a1: a9 00        	lda	#$0
    31a3: 85 8a        	sta	$8a                     ; 0x208a <main+0x1bd0>
    31a5: a9 00        	lda	#$0
    31a7: 85 8b        	sta	$8b                     ; 0x208b <main+0x1bd1>
    31a9: a5 cf        	lda	$cf                     ; 0x20cf <main+0x1c15>
    31ab: 85 8f        	sta	$8f                     ; 0x208f <main+0x1bd5>
    31ad: 8a           	txa
    31ae: 10 4c        	bpl	$31fc <printf+0x58f>
    31b0: a2 00        	ldx	#$0
    31b2: 64 12        	stz	$12                     ; 0x2012 <main+0x1b58>
    31b4: a9 00        	lda	#$0
    31b6: 38           	sec
    31b7: f5 ac        	sbc	$ac,x                   ; 0x20ac <main+0x1bf2>
    31b9: a0 00        	ldy	#$0
    31bb: b0 02        	bcs	$31bf <printf+0x552>
    31bd: a0 01        	ldy	#$1
    31bf: 38           	sec
    31c0: e5 12        	sbc	$12                     ; 0x2012 <main+0x1b58>
    31c2: 85 13        	sta	$13                     ; 0x2013 <main+0x1b59>
    31c4: 64 12        	stz	$12                     ; 0x2012 <main+0x1b58>
    31c6: b0 04        	bcs	$31cc <printf+0x55f>
    31c8: a9 01        	lda	#$1
    31ca: 85 12        	sta	$12                     ; 0x2012 <main+0x1b58>
    31cc: 98           	tya
    31cd: 05 12        	ora	$12                     ; 0x2012 <main+0x1b58>
    31cf: 85 12        	sta	$12                     ; 0x2012 <main+0x1b58>
    31d1: a5 13        	lda	$13                     ; 0x2013 <main+0x1b59>
    31d3: 9d ac 00     	sta	$ac,x                   ; 0xac <__zp_data_size+0x7c>
    31d6: e8           	inx
    31d7: 86 13        	stx	$13                     ; 0x2013 <main+0x1b59>
    31d9: a4 cc        	ldy	$cc                     ; 0x20cc <main+0x1c12>
    31db: c4 13        	cpy	$13                     ; 0x2013 <main+0x1b59>
    31dd: d0 d5        	bne	$31b4 <printf+0x547>
    31df: 2c 36 3f     	bit	$3f36                   ; 0x3f36 <__set_v>
    31e2: a0 01        	ldy	#$1
    31e4: 80 16        	bra	$31fc <printf+0x58f>
    31e6: a0 01        	ldy	#$1
    31e8: a6 8e        	ldx	$8e                     ; 0x208e <main+0x1bd4>
    31ea: 86 1a        	stx	$1a                     ; 0x201a <main+0x1b60>
    31ec: a6 d0        	ldx	$d0                     ; 0x20d0 <main+0x1c16>
    31ee: 86 8e        	stx	$8e                     ; 0x208e <main+0x1bd4>
    31f0: a2 00        	ldx	#$0
    31f2: 86 8a        	stx	$8a                     ; 0x208a <main+0x1bd0>
    31f4: a2 00        	ldx	#$0
    31f6: 86 8b        	stx	$8b                     ; 0x208b <main+0x1bd1>
    31f8: a6 cf        	ldx	$cf                     ; 0x20cf <main+0x1c15>
    31fa: 86 8f        	stx	$8f                     ; 0x208f <main+0x1bd5>
    31fc: a2 01        	ldx	#$1
    31fe: 70 02        	bvs	$3202 <printf+0x595>
    3200: a2 00        	ldx	#$0
    3202: 86 16        	stx	$16                     ; 0x2016 <main+0x1b5c>
    3204: a5 cc        	lda	$cc                     ; 0x20cc <main+0x1c12>
    3206: 0a           	asl
    3207: 0a           	asl
    3208: 0a           	asl
    3209: 85 12        	sta	$12                     ; 0x2012 <main+0x1b58>
    320b: a2 00        	ldx	#$0
    320d: 8a           	txa
    320e: e0 00        	cpx	#$0
    3210: d0 03        	bne	$3215 <printf+0x5a8>
    3212: 4c 9a 32     	jmp	$329a <printf+0x62d>
    3215: 85 17        	sta	$17                     ; 0x2017 <main+0x1b5d>
    3217: 86 86        	stx	$86                     ; 0x2086 <main+0x1bcc>
    3219: ca           	dex
    321a: 86 15        	stx	$15                     ; 0x2015 <main+0x1b5b>
    321c: a2 00        	ldx	#$0
    321e: 64 13        	stz	$13                     ; 0x2013 <main+0x1b59>
    3220: 80 0d        	bra	$322f <printf+0x5c2>
    3222: a4 13        	ldy	$13                     ; 0x2013 <main+0x1b59>
    3224: 99 94 00     	sta	$94,y                   ; 0x94 <__zp_data_size+0x64>
    3227: a4 15        	ldy	$15                     ; 0x2015 <main+0x1b5b>
    3229: c4 13        	cpy	$13                     ; 0x2013 <main+0x1b59>
    322b: f0 38        	beq	$3265 <printf+0x5f8>
    322d: e6 13        	inc	$13                     ; 0x2013 <main+0x1b59>
    322f: a4 13        	ldy	$13                     ; 0x2013 <main+0x1b59>
    3231: b9 94 00     	lda	$94,y                   ; 0x94 <__zp_data_size+0x64>
    3234: 0a           	asl
    3235: e0 00        	cpx	#$0
    3237: f0 02        	beq	$323b <printf+0x5ce>
    3239: 09 01        	ora	#$1
    323b: a4 cb        	ldy	$cb                     ; 0x20cb <main+0x1c11>
    323d: 84 14        	sty	$14                     ; 0x2014 <main+0x1b5a>
    323f: c5 14        	cmp	$14                     ; 0x2014 <main+0x1b5a>
    3241: a2 01        	ldx	#$1
    3243: b0 02        	bcs	$3247 <printf+0x5da>
    3245: a2 00        	ldx	#$0
    3247: 90 d9        	bcc	$3222 <printf+0x5b5>
    3249: 84 14        	sty	$14                     ; 0x2014 <main+0x1b5a>
    324b: 38           	sec
    324c: e5 14        	sbc	$14                     ; 0x2014 <main+0x1b5a>
    324e: a4 13        	ldy	$13                     ; 0x2013 <main+0x1b59>
    3250: 99 94 00     	sta	$94,y                   ; 0x94 <__zp_data_size+0x64>
    3253: a4 15        	ldy	$15                     ; 0x2015 <main+0x1b5b>
    3255: c4 13        	cpy	$13                     ; 0x2013 <main+0x1b59>
    3257: d0 d4        	bne	$322d <printf+0x5c0>
    3259: a4 86        	ldy	$86                     ; 0x2086 <main+0x1bcc>
    325b: a6 86        	ldx	$86                     ; 0x2086 <main+0x1bcc>
    325d: e8           	inx
    325e: a9 01        	lda	#$1
    3260: 99 94 00     	sta	$94,y                   ; 0x94 <__zp_data_size+0x64>
    3263: 86 86        	stx	$86                     ; 0x2086 <main+0x1bcc>
    3265: a6 cc        	ldx	$cc                     ; 0x20cc <main+0x1c12>
    3267: b5 ab        	lda	$ab,x                   ; 0x20ab <main+0x1bf1>
    3269: aa           	tax
    326a: a0 01        	ldy	#$1
    326c: 8a           	txa
    326d: 10 47        	bpl	$32b6 <printf+0x649>
    326f: a5 86        	lda	$86                     ; 0x2086 <main+0x1bcc>
    3271: f0 34        	beq	$32a7 <printf+0x63a>
    3273: a2 00        	ldx	#$0
    3275: a4 cb        	ldy	$cb                     ; 0x20cb <main+0x1c11>
    3277: 84 14        	sty	$14                     ; 0x2014 <main+0x1b5a>
    3279: b5 94        	lda	$94,x                   ; 0x2094 <main+0x1bda>
    327b: 1a           	inc
    327c: f6 94        	inc	$94,x                   ; 0x2094 <main+0x1bda>
    327e: c5 14        	cmp	$14                     ; 0x2014 <main+0x1b5a>
    3280: b0 03        	bcs	$3285 <printf+0x618>
    3282: 4c e1 32     	jmp	$32e1 <printf+0x674>
    3285: a4 14        	ldy	$14                     ; 0x2014 <main+0x1b5a>
    3287: 84 13        	sty	$13                     ; 0x2013 <main+0x1b59>
    3289: 38           	sec
    328a: e5 13        	sbc	$13                     ; 0x2013 <main+0x1b59>
    328c: 9d 94 00     	sta	$94,x                   ; 0x94 <__zp_data_size+0x64>
    328f: e8           	inx
    3290: 86 13        	stx	$13                     ; 0x2013 <main+0x1b59>
    3292: a4 86        	ldy	$86                     ; 0x2086 <main+0x1bcc>
    3294: c4 13        	cpy	$13                     ; 0x2013 <main+0x1b59>
    3296: d0 e1        	bne	$3279 <printf+0x60c>
    3298: 80 0f        	bra	$32a9 <printf+0x63c>
    329a: 85 17        	sta	$17                     ; 0x2017 <main+0x1b5d>
    329c: a6 cc        	ldx	$cc                     ; 0x20cc <main+0x1c12>
    329e: b5 ab        	lda	$ab,x                   ; 0x20ab <main+0x1bf1>
    32a0: aa           	tax
    32a1: 64 86        	stz	$86                     ; 0x2086 <main+0x1bcc>
    32a3: 30 04        	bmi	$32a9 <printf+0x63c>
    32a5: 80 0f        	bra	$32b6 <printf+0x649>
    32a7: 64 86        	stz	$86                     ; 0x2086 <main+0x1bcc>
    32a9: a4 86        	ldy	$86                     ; 0x2086 <main+0x1bcc>
    32ab: a6 86        	ldx	$86                     ; 0x2086 <main+0x1bcc>
    32ad: e8           	inx
    32ae: a9 01        	lda	#$1
    32b0: 99 94 00     	sta	$94,y                   ; 0x94 <__zp_data_size+0x64>
    32b3: a8           	tay
    32b4: 86 86        	stx	$86                     ; 0x2086 <main+0x1bcc>
    32b6: a2 01        	ldx	#$1
    32b8: 64 13        	stz	$13                     ; 0x2013 <main+0x1b59>
    32ba: a5 cc        	lda	$cc                     ; 0x20cc <main+0x1c12>
    32bc: 85 14        	sta	$14                     ; 0x2014 <main+0x1b5a>
    32be: b5 ab        	lda	$ab,x                   ; 0x20ab <main+0x1bf1>
    32c0: 0a           	asl
    32c1: 64 15        	stz	$15                     ; 0x2015 <main+0x1b5b>
    32c3: 26 15        	rol	$15                     ; 0x2015 <main+0x1b5b>
    32c5: 05 13        	ora	$13                     ; 0x2013 <main+0x1b59>
    32c7: 9d ab 00     	sta	$ab,x                   ; 0xab <__zp_data_size+0x7b>
    32ca: e8           	inx
    32cb: c6 14        	dec	$14                     ; 0x2014 <main+0x1b5a>
    32cd: a5 15        	lda	$15                     ; 0x2015 <main+0x1b5b>
    32cf: 85 13        	sta	$13                     ; 0x2013 <main+0x1b59>
    32d1: a5 14        	lda	$14                     ; 0x2014 <main+0x1b5a>
    32d3: d0 e9        	bne	$32be <printf+0x651>
    32d5: a5 17        	lda	$17                     ; 0x2017 <main+0x1b5d>
    32d7: 1a           	inc
    32d8: c5 12        	cmp	$12                     ; 0x2012 <main+0x1b58>
    32da: a6 86        	ldx	$86                     ; 0x2086 <main+0x1bcc>
    32dc: b0 07        	bcs	$32e5 <printf+0x678>
    32de: 4c 0e 32     	jmp	$320e <printf+0x5a1>
    32e1: a0 01        	ldy	#$1
    32e3: 80 d1        	bra	$32b6 <printf+0x649>
    32e5: a5 87        	lda	$87                     ; 0x2087 <main+0x1bcd>
    32e7: e6 8f        	inc	$8f                     ; 0x208f <main+0x1bd5>
    32e9: c6 8f        	dec	$8f                     ; 0x208f <main+0x1bd5>
    32eb: 10 08        	bpl	$32f5 <printf+0x688>
    32ed: a2 01        	ldx	#$1
    32ef: 64 8f        	stz	$8f                     ; 0x208f <main+0x1bd5>
    32f1: 86 8e        	stx	$8e                     ; 0x208e <main+0x1bd4>
    32f3: a6 86        	ldx	$86                     ; 0x2086 <main+0x1bcc>
    32f5: 29 04        	and	#$4
    32f7: f0 2b        	beq	$3324 <printf+0x6b7>
    32f9: a5 cb        	lda	$cb                     ; 0x20cb <main+0x1c11>
    32fb: c9 10        	cmp	#$10
    32fd: f0 14        	beq	$3313 <printf+0x6a6>
    32ff: c9 08        	cmp	#$8
    3301: d0 21        	bne	$3324 <printf+0x6b7>
    3303: a2 00        	ldx	#$0
    3305: e4 8f        	cpx	$8f                     ; 0x208f <main+0x1bd5>
    3307: f0 03        	beq	$330c <printf+0x69f>
    3309: 4c 0e 38     	jmp	$380e <printf+0xba1>
    330c: a6 86        	ldx	$86                     ; 0x2086 <main+0x1bcc>
    330e: e4 8e        	cpx	$8e                     ; 0x208e <main+0x1bd4>
    3310: 4c 10 38     	jmp	$3810 <printf+0xba3>
    3313: 8a           	txa
    3314: f0 0e        	beq	$3324 <printf+0x6b7>
    3316: a5 87        	lda	$87                     ; 0x2087 <main+0x1bcd>
    3318: 29 80        	and	#$80
    331a: d0 03        	bne	$331f <printf+0x6b2>
    331c: 4c 29 38     	jmp	$3829 <printf+0xbbc>
    331f: a2 78        	ldx	#$78
    3321: 4c 2b 38     	jmp	$382b <printf+0xbbe>
    3324: a6 87        	ldx	$87                     ; 0x2087 <main+0x1bcd>
    3326: a9 2d        	lda	#$2d
    3328: 85 cf        	sta	$cf                     ; 0x20cf <main+0x1c15>
    332a: a5 16        	lda	$16                     ; 0x2016 <main+0x1b5c>
    332c: d0 32        	bne	$3360 <printf+0x6f3>
    332e: 86 12        	stx	$12                     ; 0x2012 <main+0x1b58>
    3330: 8a           	txa
    3331: 29 02        	and	#$2
    3333: a2 2b        	ldx	#$2b
    3335: 86 cf        	stx	$cf                     ; 0x20cf <main+0x1c15>
    3337: aa           	tax
    3338: d0 26        	bne	$3360 <printf+0x6f3>
    333a: a5 12        	lda	$12                     ; 0x2012 <main+0x1b58>
    333c: 29 08        	and	#$8
    333e: d0 1c        	bne	$335c <printf+0x6ef>
    3340: a2 01        	ldx	#$1
    3342: 86 cc        	stx	$cc                     ; 0x20cc <main+0x1c12>
    3344: a9 00        	lda	#$0
    3346: aa           	tax
    3347: 86 cb        	stx	$cb                     ; 0x20cb <main+0x1c11>
    3349: 80 1c        	bra	$3367 <printf+0x6fa>
    334b: 85 12        	sta	$12                     ; 0x2012 <main+0x1b58>
    334d: a9 04        	lda	#$4
    334f: 80 04        	bra	$3355 <printf+0x6e8>
    3351: 85 12        	sta	$12                     ; 0x2012 <main+0x1b58>
    3353: a9 02        	lda	#$2
    3355: 85 cc        	sta	$cc                     ; 0x20cc <main+0x1c12>
    3357: a5 12        	lda	$12                     ; 0x2012 <main+0x1b58>
    3359: 4c 18 30     	jmp	$3018 <printf+0x3ab>
    335c: a2 20        	ldx	#$20
    335e: 86 cf        	stx	$cf                     ; 0x20cf <main+0x1c15>
    3360: a2 00        	ldx	#$0
    3362: 86 cc        	stx	$cc                     ; 0x20cc <main+0x1c12>
    3364: 86 cb        	stx	$cb                     ; 0x20cb <main+0x1c11>
    3366: 98           	tya
    3367: a6 8f        	ldx	$8f                     ; 0x208f <main+0x1bd5>
    3369: d0 35        	bne	$33a0 <printf+0x733>
    336b: a6 8e        	ldx	$8e                     ; 0x208e <main+0x1bd4>
    336d: a4 86        	ldy	$86                     ; 0x2086 <main+0x1bcc>
    336f: 84 12        	sty	$12                     ; 0x2012 <main+0x1b58>
    3371: e4 12        	cpx	$12                     ; 0x2012 <main+0x1b58>
    3373: a6 8e        	ldx	$8e                     ; 0x208e <main+0x1bd4>
    3375: 86 12        	stx	$12                     ; 0x2012 <main+0x1b58>
    3377: a6 8f        	ldx	$8f                     ; 0x208f <main+0x1bd5>
    3379: 86 13        	stx	$13                     ; 0x2013 <main+0x1b59>
    337b: b0 04        	bcs	$3381 <printf+0x714>
    337d: 84 12        	sty	$12                     ; 0x2012 <main+0x1b58>
    337f: 64 13        	stz	$13                     ; 0x2013 <main+0x1b59>
    3381: 85 18        	sta	$18                     ; 0x2018 <main+0x1b5e>
    3383: 18           	clc
    3384: 65 12        	adc	$12                     ; 0x2012 <main+0x1b58>
    3386: 85 16        	sta	$16                     ; 0x2016 <main+0x1b5c>
    3388: 85 14        	sta	$14                     ; 0x2014 <main+0x1b5a>
    338a: a5 13        	lda	$13                     ; 0x2013 <main+0x1b59>
    338c: 69 00        	adc	#$0
    338e: 85 15        	sta	$15                     ; 0x2015 <main+0x1b5b>
    3390: c5 1a        	cmp	$1a                     ; 0x201a <main+0x1b60>
    3392: d0 1e        	bne	$33b2 <printf+0x745>
    3394: a6 1a        	ldx	$1a                     ; 0x201a <main+0x1b60>
    3396: 86 17        	stx	$17                     ; 0x2017 <main+0x1b5d>
    3398: a6 90        	ldx	$90                     ; 0x2090 <main+0x1bd6>
    339a: a5 16        	lda	$16                     ; 0x2016 <main+0x1b5c>
    339c: c5 90        	cmp	$90                     ; 0x2090 <main+0x1bd6>
    339e: 80 1c        	bra	$33bc <printf+0x74f>
    33a0: a6 8f        	ldx	$8f                     ; 0x208f <main+0x1bd5>
    33a2: e0 00        	cpx	#$0
    33a4: a6 8e        	ldx	$8e                     ; 0x208e <main+0x1bd4>
    33a6: 86 12        	stx	$12                     ; 0x2012 <main+0x1b58>
    33a8: a6 8f        	ldx	$8f                     ; 0x208f <main+0x1bd5>
    33aa: 86 13        	stx	$13                     ; 0x2013 <main+0x1b59>
    33ac: a4 86        	ldy	$86                     ; 0x2086 <main+0x1bcc>
    33ae: 90 cd        	bcc	$337d <printf+0x710>
    33b0: 80 cf        	bra	$3381 <printf+0x714>
    33b2: a6 90        	ldx	$90                     ; 0x2090 <main+0x1bd6>
    33b4: 5a           	phy
    33b5: a4 1a        	ldy	$1a                     ; 0x201a <main+0x1b60>
    33b7: 84 17        	sty	$17                     ; 0x2017 <main+0x1b5d>
    33b9: 7a           	ply
    33ba: c5 1a        	cmp	$1a                     ; 0x201a <main+0x1b60>
    33bc: 64 91        	stz	$91                     ; 0x2091 <main+0x1bd7>
    33be: 64 90        	stz	$90                     ; 0x2090 <main+0x1bd6>
    33c0: 90 03        	bcc	$33c5 <printf+0x758>
    33c2: 4c 60 34     	jmp	$3460 <printf+0x7f3>
    33c5: a5 87        	lda	$87                     ; 0x2087 <main+0x1bcd>
    33c7: 29 11        	and	#$11
    33c9: 86 16        	stx	$16                     ; 0x2016 <main+0x1b5c>
    33cb: f0 0f        	beq	$33dc <printf+0x76f>
    33cd: 8a           	txa
    33ce: 38           	sec
    33cf: e5 14        	sbc	$14                     ; 0x2014 <main+0x1b5a>
    33d1: 85 91        	sta	$91                     ; 0x2091 <main+0x1bd7>
    33d3: a5 1a        	lda	$1a                     ; 0x201a <main+0x1b60>
    33d5: e5 15        	sbc	$15                     ; 0x2015 <main+0x1b5b>
    33d7: 85 90        	sta	$90                     ; 0x2090 <main+0x1bd6>
    33d9: 4c 60 34     	jmp	$3460 <printf+0x7f3>
    33dc: a6 bb        	ldx	$bb                     ; 0x20bb <main+0x1c01>
    33de: 86 14        	stx	$14                     ; 0x2014 <main+0x1b5a>
    33e0: 38           	sec
    33e1: a5 18        	lda	$18                     ; 0x2018 <main+0x1b5e>
    33e3: e5 16        	sbc	$16                     ; 0x2016 <main+0x1b5c>
    33e5: a8           	tay
    33e6: a9 00        	lda	#$0
    33e8: e5 17        	sbc	$17                     ; 0x2017 <main+0x1b5d>
    33ea: aa           	tax
    33eb: 18           	clc
    33ec: 98           	tya
    33ed: 65 12        	adc	$12                     ; 0x2012 <main+0x1b58>
    33ef: 85 87        	sta	$87                     ; 0x2087 <main+0x1bcd>
    33f1: 8a           	txa
    33f2: 65 13        	adc	$13                     ; 0x2013 <main+0x1b59>
    33f4: 85 90        	sta	$90                     ; 0x2090 <main+0x1bd6>
    33f6: a5 bc        	lda	$bc                     ; 0x20bc <main+0x1c02>
    33f8: 80 4e        	bra	$3448 <printf+0x7db>
    33fa: c5 ba        	cmp	$ba                     ; 0x20ba <main+0x1c00>
    33fc: a4 90        	ldy	$90                     ; 0x2090 <main+0x1bd6>
    33fe: b0 28        	bcs	$3428 <printf+0x7bb>
    3400: a6 c6        	ldx	$c6                     ; 0x20c6 <main+0x1c0c>
    3402: e4 8b        	cpx	$8b                     ; 0x208b <main+0x1bd1>
    3404: d0 19        	bne	$341f <printf+0x7b2>
    3406: a6 c5        	ldx	$c5                     ; 0x20c5 <main+0x1c0b>
    3408: e4 8a        	cpx	$8a                     ; 0x208a <main+0x1bd0>
    340a: d0 13        	bne	$341f <printf+0x7b2>
    340c: 18           	clc
    340d: aa           	tax
    340e: a5 14        	lda	$14                     ; 0x2014 <main+0x1b5a>
    3410: 65 bf        	adc	$bf                     ; 0x20bf <main+0x1c05>
    3412: 85 12        	sta	$12                     ; 0x2012 <main+0x1b58>
    3414: 8a           	txa
    3415: 65 c0        	adc	$c0                     ; 0x20c0 <main+0x1c06>
    3417: 85 13        	sta	$13                     ; 0x2013 <main+0x1b59>
    3419: a9 20        	lda	#$20
    341b: 92 12        	sta	($12)                   ; 0x2012 <main+0x1b58>
    341d: 80 07        	bra	$3426 <printf+0x7b9>
    341f: a2 00        	ldx	#$0
    3421: a9 20        	lda	#$20
    3423: 20 46 38     	jsr	$3846 <putchar>
    3426: a4 90        	ldy	$90                     ; 0x2090 <main+0x1bd6>
    3428: a6 bb        	ldx	$bb                     ; 0x20bb <main+0x1c01>
    342a: a5 bc        	lda	$bc                     ; 0x20bc <main+0x1c02>
    342c: e8           	inx
    342d: d0 01        	bne	$3430 <printf+0x7c3>
    342f: 1a           	inc
    3430: 86 14        	stx	$14                     ; 0x2014 <main+0x1b5a>
    3432: 86 bb        	stx	$bb                     ; 0x20bb <main+0x1c01>
    3434: 85 bc        	sta	$bc                     ; 0x20bc <main+0x1c02>
    3436: a6 87        	ldx	$87                     ; 0x2087 <main+0x1bcd>
    3438: e8           	inx
    3439: d0 01        	bne	$343c <printf+0x7cf>
    343b: c8           	iny
    343c: 86 87        	stx	$87                     ; 0x2087 <main+0x1bcd>
    343e: 84 90        	sty	$90                     ; 0x2090 <main+0x1bd6>
    3440: c0 00        	cpy	#$0
    3442: d0 04        	bne	$3448 <printf+0x7db>
    3444: e0 00        	cpx	#$0
    3446: f0 12        	beq	$345a <printf+0x7ed>
    3448: c5 ba        	cmp	$ba                     ; 0x20ba <main+0x1c00>
    344a: f0 03        	beq	$344f <printf+0x7e2>
    344c: 4c fa 33     	jmp	$33fa <printf+0x78d>
    344f: a6 b9        	ldx	$b9                     ; 0x20b9 <main+0x1bff>
    3451: 86 12        	stx	$12                     ; 0x2012 <main+0x1b58>
    3453: a6 14        	ldx	$14                     ; 0x2014 <main+0x1b5a>
    3455: e4 12        	cpx	$12                     ; 0x2012 <main+0x1b58>
    3457: 4c fc 33     	jmp	$33fc <printf+0x78f>
    345a: 64 91        	stz	$91                     ; 0x2091 <main+0x1bd7>
    345c: 64 90        	stz	$90                     ; 0x2090 <main+0x1bd6>
    345e: a4 86        	ldy	$86                     ; 0x2086 <main+0x1bcc>
    3460: a6 cc        	ldx	$cc                     ; 0x20cc <main+0x1c12>
    3462: d0 4f        	bne	$34b3 <printf+0x846>
    3464: a6 bb        	ldx	$bb                     ; 0x20bb <main+0x1c01>
    3466: a5 bc        	lda	$bc                     ; 0x20bc <main+0x1c02>
    3468: c5 ba        	cmp	$ba                     ; 0x20ba <main+0x1c00>
    346a: d0 10        	bne	$347c <printf+0x80f>
    346c: 86 13        	stx	$13                     ; 0x2013 <main+0x1b59>
    346e: a6 b9        	ldx	$b9                     ; 0x20b9 <main+0x1bff>
    3470: 86 12        	stx	$12                     ; 0x2012 <main+0x1b58>
    3472: a4 86        	ldy	$86                     ; 0x2086 <main+0x1bcc>
    3474: a6 13        	ldx	$13                     ; 0x2013 <main+0x1b59>
    3476: e4 12        	cpx	$12                     ; 0x2012 <main+0x1b58>
    3478: 90 08        	bcc	$3482 <printf+0x815>
    347a: 80 31        	bra	$34ad <printf+0x840>
    347c: 86 13        	stx	$13                     ; 0x2013 <main+0x1b59>
    347e: c5 ba        	cmp	$ba                     ; 0x20ba <main+0x1c00>
    3480: b0 2b        	bcs	$34ad <printf+0x840>
    3482: a6 c6        	ldx	$c6                     ; 0x20c6 <main+0x1c0c>
    3484: e4 8b        	cpx	$8b                     ; 0x208b <main+0x1bd1>
    3486: d0 1c        	bne	$34a4 <printf+0x837>
    3488: a6 c5        	ldx	$c5                     ; 0x20c5 <main+0x1c0b>
    348a: e4 8a        	cpx	$8a                     ; 0x208a <main+0x1bd0>
    348c: d0 16        	bne	$34a4 <printf+0x837>
    348e: 18           	clc
    348f: 85 12        	sta	$12                     ; 0x2012 <main+0x1b58>
    3491: a5 13        	lda	$13                     ; 0x2013 <main+0x1b59>
    3493: 65 bf        	adc	$bf                     ; 0x20bf <main+0x1c05>
    3495: aa           	tax
    3496: a5 12        	lda	$12                     ; 0x2012 <main+0x1b58>
    3498: 65 c0        	adc	$c0                     ; 0x20c0 <main+0x1c06>
    349a: 86 12        	stx	$12                     ; 0x2012 <main+0x1b58>
    349c: 85 13        	sta	$13                     ; 0x2013 <main+0x1b59>
    349e: a5 cf        	lda	$cf                     ; 0x20cf <main+0x1c15>
    34a0: 92 12        	sta	($12)                   ; 0x2012 <main+0x1b58>
    34a2: 80 07        	bra	$34ab <printf+0x83e>
    34a4: a2 00        	ldx	#$0
    34a6: a5 cf        	lda	$cf                     ; 0x20cf <main+0x1c15>
    34a8: 20 46 38     	jsr	$3846 <putchar>
    34ab: a4 86        	ldy	$86                     ; 0x2086 <main+0x1bcc>
    34ad: e6 bb        	inc	$bb                     ; 0x20bb <main+0x1c01>
    34af: d0 02        	bne	$34b3 <printf+0x846>
    34b1: e6 bc        	inc	$bc                     ; 0x20bc <main+0x1c02>
    34b3: a6 cb        	ldx	$cb                     ; 0x20cb <main+0x1c11>
    34b5: f0 4f        	beq	$3506 <printf+0x899>
    34b7: a6 bb        	ldx	$bb                     ; 0x20bb <main+0x1c01>
    34b9: a5 bc        	lda	$bc                     ; 0x20bc <main+0x1c02>
    34bb: c5 ba        	cmp	$ba                     ; 0x20ba <main+0x1c00>
    34bd: d0 10        	bne	$34cf <printf+0x862>
    34bf: 86 13        	stx	$13                     ; 0x2013 <main+0x1b59>
    34c1: a6 b9        	ldx	$b9                     ; 0x20b9 <main+0x1bff>
    34c3: 86 12        	stx	$12                     ; 0x2012 <main+0x1b58>
    34c5: a4 86        	ldy	$86                     ; 0x2086 <main+0x1bcc>
    34c7: a6 13        	ldx	$13                     ; 0x2013 <main+0x1b59>
    34c9: e4 12        	cpx	$12                     ; 0x2012 <main+0x1b58>
    34cb: 90 08        	bcc	$34d5 <printf+0x868>
    34cd: 80 31        	bra	$3500 <printf+0x893>
    34cf: 86 13        	stx	$13                     ; 0x2013 <main+0x1b59>
    34d1: c5 ba        	cmp	$ba                     ; 0x20ba <main+0x1c00>
    34d3: b0 2b        	bcs	$3500 <printf+0x893>
    34d5: a6 c6        	ldx	$c6                     ; 0x20c6 <main+0x1c0c>
    34d7: e4 8b        	cpx	$8b                     ; 0x208b <main+0x1bd1>
    34d9: d0 1c        	bne	$34f7 <printf+0x88a>
    34db: a6 c5        	ldx	$c5                     ; 0x20c5 <main+0x1c0b>
    34dd: e4 8a        	cpx	$8a                     ; 0x208a <main+0x1bd0>
    34df: d0 16        	bne	$34f7 <printf+0x88a>
    34e1: 18           	clc
    34e2: 85 12        	sta	$12                     ; 0x2012 <main+0x1b58>
    34e4: a5 13        	lda	$13                     ; 0x2013 <main+0x1b59>
    34e6: 65 bf        	adc	$bf                     ; 0x20bf <main+0x1c05>
    34e8: aa           	tax
    34e9: a5 12        	lda	$12                     ; 0x2012 <main+0x1b58>
    34eb: 65 c0        	adc	$c0                     ; 0x20c0 <main+0x1c06>
    34ed: 86 12        	stx	$12                     ; 0x2012 <main+0x1b58>
    34ef: 85 13        	sta	$13                     ; 0x2013 <main+0x1b59>
    34f1: a5 d0        	lda	$d0                     ; 0x20d0 <main+0x1c16>
    34f3: 92 12        	sta	($12)                   ; 0x2012 <main+0x1b58>
    34f5: 80 07        	bra	$34fe <printf+0x891>
    34f7: a2 00        	ldx	#$0
    34f9: a5 d0        	lda	$d0                     ; 0x20d0 <main+0x1c16>
    34fb: 20 46 38     	jsr	$3846 <putchar>
    34fe: a4 86        	ldy	$86                     ; 0x2086 <main+0x1bcc>
    3500: e6 bb        	inc	$bb                     ; 0x20bb <main+0x1c01>
    3502: d0 02        	bne	$3506 <printf+0x899>
    3504: e6 bc        	inc	$bc                     ; 0x20bc <main+0x1c02>
    3506: a9 10        	lda	#$10
    3508: 25 b7        	and	$b7                     ; 0x20b7 <main+0x1bfd>
    350a: d0 03        	bne	$350f <printf+0x8a2>
    350c: 4c 98 35     	jmp	$3598 <printf+0x92b>
    350f: a5 b7        	lda	$b7                     ; 0x20b7 <main+0x1bfd>
    3511: 29 01        	and	#$1
    3513: f0 03        	beq	$3518 <printf+0x8ab>
    3515: 4c 98 35     	jmp	$3598 <printf+0x92b>
    3518: a6 91        	ldx	$91                     ; 0x2091 <main+0x1bd7>
    351a: a5 90        	lda	$90                     ; 0x2090 <main+0x1bd6>
    351c: d0 06        	bne	$3524 <printf+0x8b7>
    351e: 8a           	txa
    351f: d0 03        	bne	$3524 <printf+0x8b7>
    3521: 4c 3e 38     	jmp	$383e <printf+0xbd1>
    3524: a6 bb        	ldx	$bb                     ; 0x20bb <main+0x1c01>
    3526: 86 13        	stx	$13                     ; 0x2013 <main+0x1b59>
    3528: a5 bc        	lda	$bc                     ; 0x20bc <main+0x1c02>
    352a: 4c 7e 35     	jmp	$357e <printf+0x911>
    352d: c5 ba        	cmp	$ba                     ; 0x20ba <main+0x1c00>
    352f: b0 26        	bcs	$3557 <printf+0x8ea>
    3531: a6 c6        	ldx	$c6                     ; 0x20c6 <main+0x1c0c>
    3533: e4 8b        	cpx	$8b                     ; 0x208b <main+0x1bd1>
    3535: d0 19        	bne	$3550 <printf+0x8e3>
    3537: a6 c5        	ldx	$c5                     ; 0x20c5 <main+0x1c0b>
    3539: e4 8a        	cpx	$8a                     ; 0x208a <main+0x1bd0>
    353b: d0 13        	bne	$3550 <printf+0x8e3>
    353d: 18           	clc
    353e: aa           	tax
    353f: a5 13        	lda	$13                     ; 0x2013 <main+0x1b59>
    3541: 65 bf        	adc	$bf                     ; 0x20bf <main+0x1c05>
    3543: 85 12        	sta	$12                     ; 0x2012 <main+0x1b58>
    3545: 8a           	txa
    3546: 65 c0        	adc	$c0                     ; 0x20c0 <main+0x1c06>
    3548: 85 13        	sta	$13                     ; 0x2013 <main+0x1b59>
    354a: a9 30        	lda	#$30
    354c: 92 12        	sta	($12)                   ; 0x2012 <main+0x1b58>
    354e: 80 07        	bra	$3557 <printf+0x8ea>
    3550: a2 00        	ldx	#$0
    3552: a9 30        	lda	#$30
    3554: 20 46 38     	jsr	$3846 <putchar>
    3557: a6 bb        	ldx	$bb                     ; 0x20bb <main+0x1c01>
    3559: a5 bc        	lda	$bc                     ; 0x20bc <main+0x1c02>
    355b: e8           	inx
    355c: d0 01        	bne	$355f <printf+0x8f2>
    355e: 1a           	inc
    355f: 86 13        	stx	$13                     ; 0x2013 <main+0x1b59>
    3561: 86 bb        	stx	$bb                     ; 0x20bb <main+0x1c01>
    3563: 85 bc        	sta	$bc                     ; 0x20bc <main+0x1c02>
    3565: a4 91        	ldy	$91                     ; 0x2091 <main+0x1bd7>
    3567: a6 90        	ldx	$90                     ; 0x2090 <main+0x1bd6>
    3569: 86 12        	stx	$12                     ; 0x2012 <main+0x1b58>
    356b: 88           	dey
    356c: c0 ff        	cpy	#$ff
    356e: d0 02        	bne	$3572 <printf+0x905>
    3570: c6 12        	dec	$12                     ; 0x2012 <main+0x1b58>
    3572: 84 91        	sty	$91                     ; 0x2091 <main+0x1bd7>
    3574: a6 12        	ldx	$12                     ; 0x2012 <main+0x1b58>
    3576: 86 90        	stx	$90                     ; 0x2090 <main+0x1bd6>
    3578: d0 04        	bne	$357e <printf+0x911>
    357a: c0 00        	cpy	#$0
    357c: f0 14        	beq	$3592 <printf+0x925>
    357e: c5 ba        	cmp	$ba                     ; 0x20ba <main+0x1c00>
    3580: f0 03        	beq	$3585 <printf+0x918>
    3582: 4c 2d 35     	jmp	$352d <printf+0x8c0>
    3585: a6 b9        	ldx	$b9                     ; 0x20b9 <main+0x1bff>
    3587: 86 12        	stx	$12                     ; 0x2012 <main+0x1b58>
    3589: a6 13        	ldx	$13                     ; 0x2013 <main+0x1b59>
    358b: e4 12        	cpx	$12                     ; 0x2012 <main+0x1b58>
    358d: b0 c8        	bcs	$3557 <printf+0x8ea>
    358f: 4c 31 35     	jmp	$3531 <printf+0x8c4>
    3592: 64 91        	stz	$91                     ; 0x2091 <main+0x1bd7>
    3594: 64 90        	stz	$90                     ; 0x2090 <main+0x1bd6>
    3596: a4 86        	ldy	$86                     ; 0x2086 <main+0x1bcc>
    3598: a2 00        	ldx	#$0
    359a: e4 8f        	cpx	$8f                     ; 0x208f <main+0x1bd5>
    359c: d0 07        	bne	$35a5 <printf+0x938>
    359e: c4 8e        	cpy	$8e                     ; 0x208e <main+0x1bd4>
    35a0: 90 0a        	bcc	$35ac <printf+0x93f>
    35a2: 4c 1c 36     	jmp	$361c <printf+0x9af>
    35a5: e4 8f        	cpx	$8f                     ; 0x208f <main+0x1bd5>
    35a7: 90 03        	bcc	$35ac <printf+0x93f>
    35a9: 4c 1c 36     	jmp	$361c <printf+0x9af>
    35ac: a6 bb        	ldx	$bb                     ; 0x20bb <main+0x1c01>
    35ae: 86 13        	stx	$13                     ; 0x2013 <main+0x1b59>
    35b0: a5 bc        	lda	$bc                     ; 0x20bc <main+0x1c02>
    35b2: a2 ff        	ldx	#$ff
    35b4: c6 8e        	dec	$8e                     ; 0x208e <main+0x1bd4>
    35b6: e4 8e        	cpx	$8e                     ; 0x208e <main+0x1bd4>
    35b8: d0 02        	bne	$35bc <printf+0x94f>
    35ba: c6 8f        	dec	$8f                     ; 0x208f <main+0x1bd5>
    35bc: c5 ba        	cmp	$ba                     ; 0x20ba <main+0x1c00>
    35be: d0 0c        	bne	$35cc <printf+0x95f>
    35c0: a6 b9        	ldx	$b9                     ; 0x20b9 <main+0x1bff>
    35c2: 86 12        	stx	$12                     ; 0x2012 <main+0x1b58>
    35c4: a6 13        	ldx	$13                     ; 0x2013 <main+0x1b59>
    35c6: e4 12        	cpx	$12                     ; 0x2012 <main+0x1b58>
    35c8: 90 06        	bcc	$35d0 <printf+0x963>
    35ca: 80 2a        	bra	$35f6 <printf+0x989>
    35cc: c5 ba        	cmp	$ba                     ; 0x20ba <main+0x1c00>
    35ce: b0 26        	bcs	$35f6 <printf+0x989>
    35d0: a6 c6        	ldx	$c6                     ; 0x20c6 <main+0x1c0c>
    35d2: e4 8b        	cpx	$8b                     ; 0x208b <main+0x1bd1>
    35d4: d0 19        	bne	$35ef <printf+0x982>
    35d6: a6 c5        	ldx	$c5                     ; 0x20c5 <main+0x1c0b>
    35d8: e4 8a        	cpx	$8a                     ; 0x208a <main+0x1bd0>
    35da: d0 13        	bne	$35ef <printf+0x982>
    35dc: 18           	clc
    35dd: aa           	tax
    35de: a5 13        	lda	$13                     ; 0x2013 <main+0x1b59>
    35e0: 65 bf        	adc	$bf                     ; 0x20bf <main+0x1c05>
    35e2: 85 12        	sta	$12                     ; 0x2012 <main+0x1b58>
    35e4: 8a           	txa
    35e5: 65 c0        	adc	$c0                     ; 0x20c0 <main+0x1c06>
    35e7: 85 13        	sta	$13                     ; 0x2013 <main+0x1b59>
    35e9: a9 30        	lda	#$30
    35eb: 92 12        	sta	($12)                   ; 0x2012 <main+0x1b58>
    35ed: 80 07        	bra	$35f6 <printf+0x989>
    35ef: a2 00        	ldx	#$0
    35f1: a9 30        	lda	#$30
    35f3: 20 46 38     	jsr	$3846 <putchar>
    35f6: a6 bb        	ldx	$bb                     ; 0x20bb <main+0x1c01>
    35f8: a5 bc        	lda	$bc                     ; 0x20bc <main+0x1c02>
    35fa: e8           	inx
    35fb: d0 01        	bne	$35fe <printf+0x991>
    35fd: 1a           	inc
    35fe: 86 13        	stx	$13                     ; 0x2013 <main+0x1b59>
    3600: 86 bb        	stx	$bb                     ; 0x20bb <main+0x1c01>
    3602: 85 bc        	sta	$bc                     ; 0x20bc <main+0x1c02>
    3604: a2 00        	ldx	#$0
    3606: e4 8f        	cpx	$8f                     ; 0x208f <main+0x1bd5>
    3608: d0 09        	bne	$3613 <printf+0x9a6>
    360a: a4 86        	ldy	$86                     ; 0x2086 <main+0x1bcc>
    360c: c4 8e        	cpy	$8e                     ; 0x208e <main+0x1bd4>
    360e: b0 0c        	bcs	$361c <printf+0x9af>
    3610: 4c b2 35     	jmp	$35b2 <printf+0x945>
    3613: e4 8f        	cpx	$8f                     ; 0x208f <main+0x1bd5>
    3615: a4 86        	ldy	$86                     ; 0x2086 <main+0x1bcc>
    3617: b0 03        	bcs	$361c <printf+0x9af>
    3619: 4c b2 35     	jmp	$35b2 <printf+0x945>
    361c: 98           	tya
    361d: d0 03        	bne	$3622 <printf+0x9b5>
    361f: 4c 15 37     	jmp	$3715 <printf+0xaa8>
    3622: 88           	dey
    3623: d0 03        	bne	$3628 <printf+0x9bb>
    3625: 4c b2 36     	jmp	$36b2 <printf+0xa45>
    3628: 84 8e        	sty	$8e                     ; 0x208e <main+0x1bd4>
    362a: a6 d1        	ldx	$d1                     ; 0x20d1 <main+0x1c17>
    362c: 8a           	txa
    362d: 18           	clc
    362e: 65 8e        	adc	$8e                     ; 0x208e <main+0x1bd4>
    3630: 85 86        	sta	$86                     ; 0x2086 <main+0x1bcc>
    3632: a5 d2        	lda	$d2                     ; 0x20d2 <main+0x1c18>
    3634: 69 00        	adc	#$0
    3636: 85 87        	sta	$87                     ; 0x2087 <main+0x1bcd>
    3638: 4c a4 36     	jmp	$36a4 <printf+0xa37>
    363b: a8           	tay
    363c: a9 80        	lda	#$80
    363e: 25 b7        	and	$b7                     ; 0x20b7 <main+0x1bfd>
    3640: f0 04        	beq	$3646 <printf+0x9d9>
    3642: a2 61        	ldx	#$61
    3644: 80 02        	bra	$3648 <printf+0x9db>
    3646: a2 41        	ldx	#$41
    3648: 86 12        	stx	$12                     ; 0x2012 <main+0x1b58>
    364a: 18           	clc
    364b: 98           	tya
    364c: 65 12        	adc	$12                     ; 0x2012 <main+0x1b58>
    364e: 18           	clc
    364f: 69 f6        	adc	#$f6
    3651: a4 bb        	ldy	$bb                     ; 0x20bb <main+0x1c01>
    3653: a6 bc        	ldx	$bc                     ; 0x20bc <main+0x1c02>
    3655: e4 ba        	cpx	$ba                     ; 0x20ba <main+0x1c00>
    3657: d0 0c        	bne	$3665 <printf+0x9f8>
    3659: 86 14        	stx	$14                     ; 0x2014 <main+0x1b5a>
    365b: a6 b9        	ldx	$b9                     ; 0x20b9 <main+0x1bff>
    365d: 86 12        	stx	$12                     ; 0x2012 <main+0x1b58>
    365f: c4 12        	cpy	$12                     ; 0x2012 <main+0x1b58>
    3661: 90 08        	bcc	$366b <printf+0x9fe>
    3663: 80 29        	bra	$368e <printf+0xa21>
    3665: 86 14        	stx	$14                     ; 0x2014 <main+0x1b5a>
    3667: e4 ba        	cpx	$ba                     ; 0x20ba <main+0x1c00>
    3669: b0 23        	bcs	$368e <printf+0xa21>
    366b: a6 c6        	ldx	$c6                     ; 0x20c6 <main+0x1c0c>
    366d: e4 8b        	cpx	$8b                     ; 0x208b <main+0x1bd1>
    366f: d0 18        	bne	$3689 <printf+0xa1c>
    3671: a6 c5        	ldx	$c5                     ; 0x20c5 <main+0x1c0b>
    3673: e4 8a        	cpx	$8a                     ; 0x208a <main+0x1bd0>
    3675: d0 12        	bne	$3689 <printf+0xa1c>
    3677: 18           	clc
    3678: aa           	tax
    3679: 98           	tya
    367a: 65 bf        	adc	$bf                     ; 0x20bf <main+0x1c05>
    367c: 85 12        	sta	$12                     ; 0x2012 <main+0x1b58>
    367e: a5 14        	lda	$14                     ; 0x2014 <main+0x1b5a>
    3680: 65 c0        	adc	$c0                     ; 0x20c0 <main+0x1c06>
    3682: 85 13        	sta	$13                     ; 0x2013 <main+0x1b59>
    3684: 8a           	txa
    3685: 92 12        	sta	($12)                   ; 0x2012 <main+0x1b58>
    3687: 80 05        	bra	$368e <printf+0xa21>
    3689: a2 00        	ldx	#$0
    368b: 20 46 38     	jsr	$3846 <putchar>
    368e: e6 bb        	inc	$bb                     ; 0x20bb <main+0x1c01>
    3690: d0 02        	bne	$3694 <printf+0xa27>
    3692: e6 bc        	inc	$bc                     ; 0x20bc <main+0x1c02>
    3694: c6 8e        	dec	$8e                     ; 0x208e <main+0x1bd4>
    3696: a2 ff        	ldx	#$ff
    3698: c6 86        	dec	$86                     ; 0x2086 <main+0x1bcc>
    369a: e4 86        	cpx	$86                     ; 0x2086 <main+0x1bcc>
    369c: d0 02        	bne	$36a0 <printf+0xa33>
    369e: c6 87        	dec	$87                     ; 0x2087 <main+0x1bcd>
    36a0: a5 8e        	lda	$8e                     ; 0x208e <main+0x1bd4>
    36a2: f0 0e        	beq	$36b2 <printf+0xa45>
    36a4: b2 86        	lda	($86)                   ; 0x2086 <main+0x1bcc>
    36a6: c9 0a        	cmp	#$a
    36a8: 90 03        	bcc	$36ad <printf+0xa40>
    36aa: 4c 3b 36     	jmp	$363b <printf+0x9ce>
    36ad: 09 30        	ora	#$30
    36af: 4c 51 36     	jmp	$3651 <printf+0x9e4>
    36b2: a5 94        	lda	$94                     ; 0x2094 <main+0x1bda>
    36b4: c9 0a        	cmp	#$a
    36b6: b0 04        	bcs	$36bc <printf+0xa4f>
    36b8: 09 30        	ora	#$30
    36ba: 80 16        	bra	$36d2 <printf+0xa65>
    36bc: a8           	tay
    36bd: a9 80        	lda	#$80
    36bf: 25 b7        	and	$b7                     ; 0x20b7 <main+0x1bfd>
    36c1: f0 04        	beq	$36c7 <printf+0xa5a>
    36c3: a2 61        	ldx	#$61
    36c5: 80 02        	bra	$36c9 <printf+0xa5c>
    36c7: a2 41        	ldx	#$41
    36c9: 86 12        	stx	$12                     ; 0x2012 <main+0x1b58>
    36cb: 18           	clc
    36cc: 98           	tya
    36cd: 65 12        	adc	$12                     ; 0x2012 <main+0x1b58>
    36cf: 18           	clc
    36d0: 69 f6        	adc	#$f6
    36d2: a4 bb        	ldy	$bb                     ; 0x20bb <main+0x1c01>
    36d4: a6 bc        	ldx	$bc                     ; 0x20bc <main+0x1c02>
    36d6: e4 ba        	cpx	$ba                     ; 0x20ba <main+0x1c00>
    36d8: d0 0c        	bne	$36e6 <printf+0xa79>
    36da: 86 14        	stx	$14                     ; 0x2014 <main+0x1b5a>
    36dc: a6 b9        	ldx	$b9                     ; 0x20b9 <main+0x1bff>
    36de: 86 12        	stx	$12                     ; 0x2012 <main+0x1b58>
    36e0: c4 12        	cpy	$12                     ; 0x2012 <main+0x1b58>
    36e2: 90 08        	bcc	$36ec <printf+0xa7f>
    36e4: 80 29        	bra	$370f <printf+0xaa2>
    36e6: 86 14        	stx	$14                     ; 0x2014 <main+0x1b5a>
    36e8: e4 ba        	cpx	$ba                     ; 0x20ba <main+0x1c00>
    36ea: b0 23        	bcs	$370f <printf+0xaa2>
    36ec: a6 c6        	ldx	$c6                     ; 0x20c6 <main+0x1c0c>
    36ee: e4 8b        	cpx	$8b                     ; 0x208b <main+0x1bd1>
    36f0: d0 18        	bne	$370a <printf+0xa9d>
    36f2: a6 c5        	ldx	$c5                     ; 0x20c5 <main+0x1c0b>
    36f4: e4 8a        	cpx	$8a                     ; 0x208a <main+0x1bd0>
    36f6: d0 12        	bne	$370a <printf+0xa9d>
    36f8: 18           	clc
    36f9: aa           	tax
    36fa: 98           	tya
    36fb: 65 bf        	adc	$bf                     ; 0x20bf <main+0x1c05>
    36fd: 85 12        	sta	$12                     ; 0x2012 <main+0x1b58>
    36ff: a5 14        	lda	$14                     ; 0x2014 <main+0x1b5a>
    3701: 65 c0        	adc	$c0                     ; 0x20c0 <main+0x1c06>
    3703: 85 13        	sta	$13                     ; 0x2013 <main+0x1b59>
    3705: 8a           	txa
    3706: 92 12        	sta	($12)                   ; 0x2012 <main+0x1b58>
    3708: 80 05        	bra	$370f <printf+0xaa2>
    370a: a2 00        	ldx	#$0
    370c: 20 46 38     	jsr	$3846 <putchar>
    370f: e6 bb        	inc	$bb                     ; 0x20bb <main+0x1c01>
    3711: d0 02        	bne	$3715 <printf+0xaa8>
    3713: e6 bc        	inc	$bc                     ; 0x20bc <main+0x1c02>
    3715: a5 b7        	lda	$b7                     ; 0x20b7 <main+0x1bfd>
    3717: 29 01        	and	#$1
    3719: d0 1e        	bne	$3739 <printf+0xacc>
    371b: a6 bb        	ldx	$bb                     ; 0x20bb <main+0x1c01>
    371d: 86 14        	stx	$14                     ; 0x2014 <main+0x1b5a>
    371f: a5 bc        	lda	$bc                     ; 0x20bc <main+0x1c02>
    3721: a4 b9        	ldy	$b9                     ; 0x20b9 <main+0x1bff>
    3723: a6 ba        	ldx	$ba                     ; 0x20ba <main+0x1c00>
    3725: 86 12        	stx	$12                     ; 0x2012 <main+0x1b58>
    3727: 86 13        	stx	$13                     ; 0x2013 <main+0x1b59>
    3729: c5 12        	cmp	$12                     ; 0x2012 <main+0x1b58>
    372b: f0 03        	beq	$3730 <printf+0xac3>
    372d: 4c be 37     	jmp	$37be <printf+0xb51>
    3730: 84 12        	sty	$12                     ; 0x2012 <main+0x1b58>
    3732: a6 14        	ldx	$14                     ; 0x2014 <main+0x1b5a>
    3734: e4 12        	cpx	$12                     ; 0x2012 <main+0x1b58>
    3736: 4c c2 37     	jmp	$37c2 <printf+0xb55>
    3739: a6 bb        	ldx	$bb                     ; 0x20bb <main+0x1c01>
    373b: 86 14        	stx	$14                     ; 0x2014 <main+0x1b5a>
    373d: a5 bc        	lda	$bc                     ; 0x20bc <main+0x1c02>
    373f: a6 91        	ldx	$91                     ; 0x2091 <main+0x1bd7>
    3741: a4 90        	ldy	$90                     ; 0x2090 <main+0x1bd6>
    3743: f0 03        	beq	$3748 <printf+0xadb>
    3745: 4c aa 37     	jmp	$37aa <printf+0xb3d>
    3748: e0 00        	cpx	#$0
    374a: f0 d5        	beq	$3721 <printf+0xab4>
    374c: 4c aa 37     	jmp	$37aa <printf+0xb3d>
    374f: c5 ba        	cmp	$ba                     ; 0x20ba <main+0x1c00>
    3751: b0 26        	bcs	$3779 <printf+0xb0c>
    3753: a6 c6        	ldx	$c6                     ; 0x20c6 <main+0x1c0c>
    3755: e4 8b        	cpx	$8b                     ; 0x208b <main+0x1bd1>
    3757: d0 19        	bne	$3772 <printf+0xb05>
    3759: a6 c5        	ldx	$c5                     ; 0x20c5 <main+0x1c0b>
    375b: e4 8a        	cpx	$8a                     ; 0x208a <main+0x1bd0>
    375d: d0 13        	bne	$3772 <printf+0xb05>
    375f: 18           	clc
    3760: aa           	tax
    3761: a5 14        	lda	$14                     ; 0x2014 <main+0x1b5a>
    3763: 65 bf        	adc	$bf                     ; 0x20bf <main+0x1c05>
    3765: 85 12        	sta	$12                     ; 0x2012 <main+0x1b58>
    3767: 8a           	txa
    3768: 65 c0        	adc	$c0                     ; 0x20c0 <main+0x1c06>
    376a: 85 13        	sta	$13                     ; 0x2013 <main+0x1b59>
    376c: a9 20        	lda	#$20
    376e: 92 12        	sta	($12)                   ; 0x2012 <main+0x1b58>
    3770: 80 07        	bra	$3779 <printf+0xb0c>
    3772: a2 00        	ldx	#$0
    3774: a9 20        	lda	#$20
    3776: 20 46 38     	jsr	$3846 <putchar>
    3779: a6 bb        	ldx	$bb                     ; 0x20bb <main+0x1c01>
    377b: a5 bc        	lda	$bc                     ; 0x20bc <main+0x1c02>
    377d: e8           	inx
    377e: d0 01        	bne	$3781 <printf+0xb14>
    3780: 1a           	inc
    3781: 86 14        	stx	$14                     ; 0x2014 <main+0x1b5a>
    3783: 86 bb        	stx	$bb                     ; 0x20bb <main+0x1c01>
    3785: 85 bc        	sta	$bc                     ; 0x20bc <main+0x1c02>
    3787: a6 91        	ldx	$91                     ; 0x2091 <main+0x1bd7>
    3789: 86 12        	stx	$12                     ; 0x2012 <main+0x1b58>
    378b: a6 90        	ldx	$90                     ; 0x2090 <main+0x1bd6>
    378d: 86 13        	stx	$13                     ; 0x2013 <main+0x1b59>
    378f: a2 ff        	ldx	#$ff
    3791: c6 12        	dec	$12                     ; 0x2012 <main+0x1b58>
    3793: e4 12        	cpx	$12                     ; 0x2012 <main+0x1b58>
    3795: d0 02        	bne	$3799 <printf+0xb2c>
    3797: c6 13        	dec	$13                     ; 0x2013 <main+0x1b59>
    3799: a6 12        	ldx	$12                     ; 0x2012 <main+0x1b58>
    379b: 86 91        	stx	$91                     ; 0x2091 <main+0x1bd7>
    379d: a6 13        	ldx	$13                     ; 0x2013 <main+0x1b59>
    379f: 86 90        	stx	$90                     ; 0x2090 <main+0x1bd6>
    37a1: d0 07        	bne	$37aa <printf+0xb3d>
    37a3: a6 12        	ldx	$12                     ; 0x2012 <main+0x1b58>
    37a5: d0 03        	bne	$37aa <printf+0xb3d>
    37a7: 4c 21 37     	jmp	$3721 <printf+0xab4>
    37aa: c5 ba        	cmp	$ba                     ; 0x20ba <main+0x1c00>
    37ac: f0 03        	beq	$37b1 <printf+0xb44>
    37ae: 4c 4f 37     	jmp	$374f <printf+0xae2>
    37b1: a6 b9        	ldx	$b9                     ; 0x20b9 <main+0x1bff>
    37b3: 86 12        	stx	$12                     ; 0x2012 <main+0x1b58>
    37b5: a6 14        	ldx	$14                     ; 0x2014 <main+0x1b5a>
    37b7: e4 12        	cpx	$12                     ; 0x2012 <main+0x1b58>
    37b9: b0 be        	bcs	$3779 <printf+0xb0c>
    37bb: 4c 53 37     	jmp	$3753 <printf+0xae6>
    37be: 86 12        	stx	$12                     ; 0x2012 <main+0x1b58>
    37c0: c5 12        	cmp	$12                     ; 0x2012 <main+0x1b58>
    37c2: 98           	tya
    37c3: a0 01        	ldy	#$1
    37c5: 90 20        	bcc	$37e7 <printf+0xb7a>
    37c7: a6 13        	ldx	$13                     ; 0x2013 <main+0x1b59>
    37c9: d0 03        	bne	$37ce <printf+0xb61>
    37cb: aa           	tax
    37cc: f0 19        	beq	$37e7 <printf+0xb7a>
    37ce: 18           	clc
    37cf: 65 bf        	adc	$bf                     ; 0x20bf <main+0x1c05>
    37d1: 85 12        	sta	$12                     ; 0x2012 <main+0x1b58>
    37d3: a5 13        	lda	$13                     ; 0x2013 <main+0x1b59>
    37d5: 65 c0        	adc	$c0                     ; 0x20c0 <main+0x1c06>
    37d7: 85 13        	sta	$13                     ; 0x2013 <main+0x1b59>
    37d9: a2 ff        	ldx	#$ff
    37db: c6 12        	dec	$12                     ; 0x2012 <main+0x1b58>
    37dd: e4 12        	cpx	$12                     ; 0x2012 <main+0x1b58>
    37df: d0 02        	bne	$37e3 <printf+0xb76>
    37e1: c6 13        	dec	$13                     ; 0x2013 <main+0x1b59>
    37e3: a9 00        	lda	#$0
    37e5: 92 12        	sta	($12)                   ; 0x2012 <main+0x1b58>
    37e7: e6 88        	inc	$88                     ; 0x2088 <main+0x1bce>
    37e9: d0 02        	bne	$37ed <printf+0xb80>
    37eb: e6 89        	inc	$89                     ; 0x2089 <main+0x1bcf>
    37ed: a6 89        	ldx	$89                     ; 0x2089 <main+0x1bcf>
    37ef: e4 8d        	cpx	$8d                     ; 0x208d <main+0x1bd3>
    37f1: f0 03        	beq	$37f6 <printf+0xb89>
    37f3: 4c d2 2c     	jmp	$2cd2 <printf+0x65>
    37f6: a6 88        	ldx	$88                     ; 0x2088 <main+0x1bce>
    37f8: e4 8c        	cpx	$8c                     ; 0x208c <main+0x1bd2>
    37fa: f0 03        	beq	$37ff <printf+0xb92>
    37fc: 4c d2 2c     	jmp	$2cd2 <printf+0x65>
    37ff: b2 8c        	lda	($8c)                   ; 0x208c <main+0x1bd2>
    3801: a2 00        	ldx	#$0
    3803: a0 00        	ldy	#$0
    3805: 84 8a        	sty	$8a                     ; 0x208a <main+0x1bd0>
    3807: a0 00        	ldy	#$0
    3809: 84 8b        	sty	$8b                     ; 0x208b <main+0x1bd1>
    380b: 4c e8 2c     	jmp	$2ce8 <printf+0x7b>
    380e: e4 8f        	cpx	$8f                     ; 0x208f <main+0x1bd5>
    3810: a6 87        	ldx	$87                     ; 0x2087 <main+0x1bcd>
    3812: b0 03        	bcs	$3817 <printf+0xbaa>
    3814: 4c 26 33     	jmp	$3326 <printf+0x6b9>
    3817: a5 86        	lda	$86                     ; 0x2086 <main+0x1bcc>
    3819: 85 8e        	sta	$8e                     ; 0x208e <main+0x1bd4>
    381b: 64 8f        	stz	$8f                     ; 0x208f <main+0x1bd5>
    381d: e6 8e        	inc	$8e                     ; 0x208e <main+0x1bd4>
    381f: f0 03        	beq	$3824 <printf+0xbb7>
    3821: 4c 26 33     	jmp	$3326 <printf+0x6b9>
    3824: e6 8f        	inc	$8f                     ; 0x208f <main+0x1bd5>
    3826: 4c 26 33     	jmp	$3326 <printf+0x6b9>
    3829: a2 58        	ldx	#$58
    382b: 86 d0        	stx	$d0                     ; 0x20d0 <main+0x1c16>
    382d: a2 01        	ldx	#$1
    382f: 86 cb        	stx	$cb                     ; 0x20cb <main+0x1c11>
    3831: a2 30        	ldx	#$30
    3833: 86 cf        	stx	$cf                     ; 0x20cf <main+0x1c15>
    3835: a9 02        	lda	#$2
    3837: a2 00        	ldx	#$0
    3839: 86 cc        	stx	$cc                     ; 0x20cc <main+0x1c12>
    383b: 4c 67 33     	jmp	$3367 <printf+0x6fa>
    383e: 64 91        	stz	$91                     ; 0x2091 <main+0x1bd7>
    3840: 64 90        	stz	$90                     ; 0x2090 <main+0x1bd6>
    3842: 4c 98 35     	jmp	$3598 <printf+0x92b>
    3845: 60           	rts

00003846 <putchar>:
    3846: 86 12        	stx	$12                     ; 0x2012 <main+0x1b58>
    3848: 85 dd        	sta	$dd                     ; 0x20dd <main+0x1c23>
    384a: 85 6e        	sta	$6e                     ; 0x206e <main+0x1bb4>
    384c: a6 01        	ldx	$1                      ; 0x2001 <main+0x1b47>
    384e: 86 de        	stx	$de                     ; 0x20de <main+0x1c24>
    3850: a6 61        	ldx	$61                     ; 0x2061 <main+0x1ba7>
    3852: a0 50        	ldy	#$50
    3854: 8c 00 de     	sty	$de00                   ; 0xde00 <__heap_start+0x9d70>
    3857: 9c 01 de     	stz	$de01                   ; 0xde01 <__heap_start+0x9d71>
    385a: 8e 02 de     	stx	$de02                   ; 0xde02 <__heap_start+0x9d72>
    385d: 9c 03 de     	stz	$de03                   ; 0xde03 <__heap_start+0x9d73>
    3860: ae 10 de     	ldx	$de10                   ; 0xde10 <__heap_start+0x9d80>
    3863: ad 11 de     	lda	$de11                   ; 0xde11 <__heap_start+0x9d81>
    3866: ac 12 de     	ldy	$de12                   ; 0xde12 <__heap_start+0x9d82>
    3869: 84 1a        	sty	$1a                     ; 0x201a <main+0x1b60>
    386b: ac 13 de     	ldy	$de13                   ; 0xde13 <__heap_start+0x9d83>
    386e: 84 1b        	sty	$1b                     ; 0x201b <main+0x1b61>
    3870: 9c 08 de     	stz	$de08                   ; 0xde08 <__heap_start+0x9d78>
    3873: a0 c0        	ldy	#$c0
    3875: 8c 09 de     	sty	$de09                   ; 0xde09 <__heap_start+0x9d79>
    3878: 9c 0a de     	stz	$de0a                   ; 0xde0a <__heap_start+0x9d7a>
    387b: 9c 0b de     	stz	$de0b                   ; 0xde0b <__heap_start+0x9d7b>
    387e: 8e 0c de     	stx	$de0c                   ; 0xde0c <__heap_start+0x9d7c>
    3881: 8d 0d de     	sta	$de0d                   ; 0xde0d <__heap_start+0x9d7d>
    3884: 64 13        	stz	$13                     ; 0x2013 <main+0x1b59>
    3886: a2 00        	ldx	#$0
    3888: 86 14        	stx	$14                     ; 0x2014 <main+0x1b5a>
    388a: a2 c0        	ldx	#$c0
    388c: 86 15        	stx	$15                     ; 0x2015 <main+0x1b5b>
    388e: a2 11        	ldx	#$11
    3890: 86 16        	stx	$16                     ; 0x2016 <main+0x1b5c>
    3892: a2 c9        	ldx	#$c9
    3894: 86 17        	stx	$17                     ; 0x2017 <main+0x1b5d>
    3896: a2 10        	ldx	#$10
    3898: 86 18        	stx	$18                     ; 0x2018 <main+0x1b5e>
    389a: a2 c9        	ldx	#$c9
    389c: 86 19        	stx	$19                     ; 0x2019 <main+0x1b5f>
    389e: a6 1a        	ldx	$1a                     ; 0x201a <main+0x1b60>
    38a0: 8e 0e de     	stx	$de0e                   ; 0xde0e <__heap_start+0x9d7e>
    38a3: a6 1b        	ldx	$1b                     ; 0x201b <main+0x1b61>
    38a5: 8e 0f de     	stx	$de0f                   ; 0xde0f <__heap_start+0x9d7f>
    38a8: ac 18 de     	ldy	$de18                   ; 0xde18 <__heap_start+0x9d88>
    38ab: ad 19 de     	lda	$de19                   ; 0xde19 <__heap_start+0x9d89>
    38ae: ae 1a de     	ldx	$de1a                   ; 0xde1a <__heap_start+0x9d8a>
    38b1: ae 1b de     	ldx	$de1b                   ; 0xde1b <__heap_start+0x9d8b>
    38b4: 84 1c        	sty	$1c                     ; 0x201c <main+0x1b62>
    38b6: 85 1d        	sta	$1d                     ; 0x201d <main+0x1b63>
    38b8: 64 1a        	stz	$1a                     ; 0x201a <main+0x1b60>
    38ba: 80 13        	bra	$38cf <putchar+0x89>
    38bc: a5 1c        	lda	$1c                     ; 0x201c <main+0x1b62>
    38be: 18           	clc
    38bf: 69 50        	adc	#$50
    38c1: 85 1c        	sta	$1c                     ; 0x201c <main+0x1b62>
    38c3: a5 1d        	lda	$1d                     ; 0x201d <main+0x1b63>
    38c5: 69 00        	adc	#$0
    38c7: 85 1d        	sta	$1d                     ; 0x201d <main+0x1b63>
    38c9: e6 13        	inc	$13                     ; 0x2013 <main+0x1b59>
    38cb: d0 02        	bne	$38cf <putchar+0x89>
    38cd: e6 1a        	inc	$1a                     ; 0x201a <main+0x1b60>
    38cf: a9 6e        	lda	#$6e
    38d1: 18           	clc
    38d2: 65 13        	adc	$13                     ; 0x2013 <main+0x1b59>
    38d4: 85 1e        	sta	$1e                     ; 0x201e <main+0x1b64>
    38d6: a9 00        	lda	#$0
    38d8: 65 1a        	adc	$1a                     ; 0x201a <main+0x1b60>
    38da: 85 1f        	sta	$1f                     ; 0x201f <main+0x1b65>
    38dc: b2 1e        	lda	($1e)                   ; 0x201e <main+0x1b64>
    38de: c9 0a        	cmp	#$a
    38e0: f0 26        	beq	$3908 <putchar+0xc2>
    38e2: c9 0d        	cmp	#$d
    38e4: f0 22        	beq	$3908 <putchar+0xc2>
    38e6: aa           	tax
    38e7: d0 03        	bne	$38ec <putchar+0xa6>
    38e9: 4c 12 3a     	jmp	$3a12 <putchar+0x1cc>
    38ec: a2 03        	ldx	#$3
    38ee: 86 01        	stx	$1                      ; 0x2001 <main+0x1b47>
    38f0: a4 60        	ldy	$60                     ; 0x2060 <main+0x1ba6>
    38f2: a9 f0        	lda	#$f0
    38f4: 91 1c        	sta	($1c),y                 ; 0x201c <main+0x1b62>
    38f6: ca           	dex
    38f7: 86 01        	stx	$1                      ; 0x2001 <main+0x1b47>
    38f9: b2 1e        	lda	($1e)                   ; 0x201e <main+0x1b64>
    38fb: a4 60        	ldy	$60                     ; 0x2060 <main+0x1ba6>
    38fd: 91 1c        	sta	($1c),y                 ; 0x201c <main+0x1b62>
    38ff: a6 60        	ldx	$60                     ; 0x2060 <main+0x1ba6>
    3901: e8           	inx
    3902: e6 60        	inc	$60                     ; 0x2060 <main+0x1ba6>
    3904: e0 50        	cpx	#$50
    3906: d0 c1        	bne	$38c9 <putchar+0x83>
    3908: 64 60        	stz	$60                     ; 0x2060 <main+0x1ba6>
    390a: a6 61        	ldx	$61                     ; 0x2061 <main+0x1ba7>
    390c: e8           	inx
    390d: e6 61        	inc	$61                     ; 0x2061 <main+0x1ba7>
    390f: e0 1e        	cpx	#$1e
    3911: f0 03        	beq	$3916 <putchar+0xd0>
    3913: 4c bc 38     	jmp	$38bc <putchar+0x76>
    3916: a2 03        	ldx	#$3
    3918: 86 01        	stx	$1                      ; 0x2001 <main+0x1b47>
    391a: a2 09        	ldx	#$9
    391c: a0 50        	ldy	#$50
    391e: a9 10        	lda	#$10
    3920: 5a           	phy
    3921: a0 00        	ldy	#$0
    3923: 84 1c        	sty	$1c                     ; 0x201c <main+0x1b62>
    3925: a0 c0        	ldy	#$c0
    3927: 84 1d        	sty	$1d                     ; 0x201d <main+0x1b63>
    3929: 7a           	ply
    392a: 85 1b        	sta	$1b                     ; 0x201b <main+0x1b61>
    392c: b1 1c        	lda	($1c),y                 ; 0x201c <main+0x1b62>
    392e: 92 1c        	sta	($1c)                   ; 0x201c <main+0x1b62>
    3930: a9 ff        	lda	#$ff
    3932: c6 1b        	dec	$1b                     ; 0x201b <main+0x1b61>
    3934: c5 1b        	cmp	$1b                     ; 0x201b <main+0x1b61>
    3936: d0 01        	bne	$3939 <putchar+0xf3>
    3938: ca           	dex
    3939: e6 1c        	inc	$1c                     ; 0x201c <main+0x1b62>
    393b: d0 02        	bne	$393f <putchar+0xf9>
    393d: e6 1d        	inc	$1d                     ; 0x201d <main+0x1b63>
    393f: 8a           	txa
    3940: d0 ea        	bne	$392c <putchar+0xe6>
    3942: a5 1b        	lda	$1b                     ; 0x201b <main+0x1b61>
    3944: d0 e6        	bne	$392c <putchar+0xe6>
    3946: a2 02        	ldx	#$2
    3948: 86 01        	stx	$1                      ; 0x2001 <main+0x1b47>
    394a: a2 09        	ldx	#$9
    394c: a9 10        	lda	#$10
    394e: 5a           	phy
    394f: a0 00        	ldy	#$0
    3951: 84 1c        	sty	$1c                     ; 0x201c <main+0x1b62>
    3953: a0 c0        	ldy	#$c0
    3955: 84 1d        	sty	$1d                     ; 0x201d <main+0x1b63>
    3957: 7a           	ply
    3958: 85 1b        	sta	$1b                     ; 0x201b <main+0x1b61>
    395a: b1 1c        	lda	($1c),y                 ; 0x201c <main+0x1b62>
    395c: 92 1c        	sta	($1c)                   ; 0x201c <main+0x1b62>
    395e: a9 ff        	lda	#$ff
    3960: c6 1b        	dec	$1b                     ; 0x201b <main+0x1b61>
    3962: c5 1b        	cmp	$1b                     ; 0x201b <main+0x1b61>
    3964: d0 01        	bne	$3967 <putchar+0x121>
    3966: ca           	dex
    3967: e6 1c        	inc	$1c                     ; 0x201c <main+0x1b62>
    3969: d0 02        	bne	$396d <putchar+0x127>
    396b: e6 1d        	inc	$1d                     ; 0x201d <main+0x1b63>
    396d: 8a           	txa
    396e: d0 ea        	bne	$395a <putchar+0x114>
    3970: a5 1b        	lda	$1b                     ; 0x201b <main+0x1b61>
    3972: d0 e6        	bne	$395a <putchar+0x114>
    3974: a2 02        	ldx	#$2
    3976: 86 01        	stx	$1                      ; 0x2001 <main+0x1b47>
    3978: e8           	inx
    3979: 86 01        	stx	$1                      ; 0x2001 <main+0x1b47>
    397b: a2 50        	ldx	#$50
    397d: a0 11        	ldy	#$11
    397f: 84 1c        	sty	$1c                     ; 0x201c <main+0x1b62>
    3981: a0 c9        	ldy	#$c9
    3983: 84 1d        	sty	$1d                     ; 0x201d <main+0x1b63>
    3985: a0 10        	ldy	#$10
    3987: 84 1e        	sty	$1e                     ; 0x201e <main+0x1b64>
    3989: a0 c9        	ldy	#$c9
    398b: 84 1f        	sty	$1f                     ; 0x201f <main+0x1b65>
    398d: a9 f0        	lda	#$f0
    398f: a4 1c        	ldy	$1c                     ; 0x201c <main+0x1b62>
    3991: 84 22        	sty	$22                     ; 0x2022 <main+0x1b68>
    3993: a4 1d        	ldy	$1d                     ; 0x201d <main+0x1b63>
    3995: 84 23        	sty	$23                     ; 0x2023 <main+0x1b69>
    3997: 92 1e        	sta	($1e)                   ; 0x201e <main+0x1b64>
    3999: e6 1c        	inc	$1c                     ; 0x201c <main+0x1b62>
    399b: d0 02        	bne	$399f <putchar+0x159>
    399d: e6 1d        	inc	$1d                     ; 0x201d <main+0x1b63>
    399f: ca           	dex
    39a0: a4 22        	ldy	$22                     ; 0x2022 <main+0x1b68>
    39a2: 84 1e        	sty	$1e                     ; 0x201e <main+0x1b64>
    39a4: a4 23        	ldy	$23                     ; 0x2023 <main+0x1b69>
    39a6: 84 1f        	sty	$1f                     ; 0x201f <main+0x1b65>
    39a8: e0 00        	cpx	#$0
    39aa: d0 e3        	bne	$398f <putchar+0x149>
    39ac: a2 02        	ldx	#$2
    39ae: 86 01        	stx	$1                      ; 0x2001 <main+0x1b47>
    39b0: a2 50        	ldx	#$50
    39b2: a0 11        	ldy	#$11
    39b4: 84 1c        	sty	$1c                     ; 0x201c <main+0x1b62>
    39b6: a0 c9        	ldy	#$c9
    39b8: 84 1d        	sty	$1d                     ; 0x201d <main+0x1b63>
    39ba: a0 10        	ldy	#$10
    39bc: 84 1e        	sty	$1e                     ; 0x201e <main+0x1b64>
    39be: a0 c9        	ldy	#$c9
    39c0: 84 1f        	sty	$1f                     ; 0x201f <main+0x1b65>
    39c2: a9 20        	lda	#$20
    39c4: a4 1c        	ldy	$1c                     ; 0x201c <main+0x1b62>
    39c6: 84 22        	sty	$22                     ; 0x2022 <main+0x1b68>
    39c8: a4 1d        	ldy	$1d                     ; 0x201d <main+0x1b63>
    39ca: 84 23        	sty	$23                     ; 0x2023 <main+0x1b69>
    39cc: 92 1e        	sta	($1e)                   ; 0x201e <main+0x1b64>
    39ce: e6 1c        	inc	$1c                     ; 0x201c <main+0x1b62>
    39d0: d0 02        	bne	$39d4 <putchar+0x18e>
    39d2: e6 1d        	inc	$1d                     ; 0x201d <main+0x1b63>
    39d4: ca           	dex
    39d5: a4 22        	ldy	$22                     ; 0x2022 <main+0x1b68>
    39d7: 84 1e        	sty	$1e                     ; 0x201e <main+0x1b64>
    39d9: a4 23        	ldy	$23                     ; 0x2023 <main+0x1b69>
    39db: 84 1f        	sty	$1f                     ; 0x201f <main+0x1b65>
    39dd: e0 00        	cpx	#$0
    39df: d0 e3        	bne	$39c4 <putchar+0x17e>
    39e1: c6 61        	dec	$61                     ; 0x2061 <main+0x1ba7>
    39e3: 9c 08 de     	stz	$de08                   ; 0xde08 <__heap_start+0x9d78>
    39e6: a2 c0        	ldx	#$c0
    39e8: 8e 09 de     	stx	$de09                   ; 0xde09 <__heap_start+0x9d79>
    39eb: 9c 0a de     	stz	$de0a                   ; 0xde0a <__heap_start+0x9d7a>
    39ee: 9c 0b de     	stz	$de0b                   ; 0xde0b <__heap_start+0x9d7b>
    39f1: a2 1d        	ldx	#$1d
    39f3: 8e 0c de     	stx	$de0c                   ; 0xde0c <__heap_start+0x9d7c>
    39f6: 9c 0d de     	stz	$de0d                   ; 0xde0d <__heap_start+0x9d7d>
    39f9: 9c 0e de     	stz	$de0e                   ; 0xde0e <__heap_start+0x9d7e>
    39fc: 9c 0f de     	stz	$de0f                   ; 0xde0f <__heap_start+0x9d7f>
    39ff: ae 18 de     	ldx	$de18                   ; 0xde18 <__heap_start+0x9d88>
    3a02: ac 19 de     	ldy	$de19                   ; 0xde19 <__heap_start+0x9d89>
    3a05: ad 1a de     	lda	$de1a                   ; 0xde1a <__heap_start+0x9d8a>
    3a08: ad 1b de     	lda	$de1b                   ; 0xde1b <__heap_start+0x9d8b>
    3a0b: 86 1c        	stx	$1c                     ; 0x201c <main+0x1b62>
    3a0d: 84 1d        	sty	$1d                     ; 0x201d <main+0x1b63>
    3a0f: 4c c9 38     	jmp	$38c9 <putchar+0x83>
    3a12: a6 de        	ldx	$de                     ; 0x20de <main+0x1c24>
    3a14: 86 01        	stx	$1                      ; 0x2001 <main+0x1b47>
    3a16: a6 60        	ldx	$60                     ; 0x2060 <main+0x1ba6>
    3a18: a4 61        	ldy	$61                     ; 0x2061 <main+0x1ba7>
    3a1a: 8e 14 d0     	stx	$d014                   ; 0xd014 <__heap_start+0x8f84>
    3a1d: 9c 15 d0     	stz	$d015                   ; 0xd015 <__heap_start+0x8f85>
    3a20: 84 61        	sty	$61                     ; 0x2061 <main+0x1ba7>
    3a22: 8c 16 d0     	sty	$d016                   ; 0xd016 <__heap_start+0x8f86>
    3a25: 9c 17 d0     	stz	$d017                   ; 0xd017 <__heap_start+0x8f87>
    3a28: a6 12        	ldx	$12                     ; 0x2012 <main+0x1b58>
    3a2a: a5 dd        	lda	$dd                     ; 0x20dd <main+0x1c23>
    3a2c: 60           	rts

00003a2d <malloc>:
    3a2d: a8           	tay
    3a2e: 8a           	txa
    3a2f: a2 00        	ldx	#$0
    3a31: 86 12        	stx	$12                     ; 0x2012 <main+0x1b58>
    3a33: a2 00        	ldx	#$0
    3a35: 86 13        	stx	$13                     ; 0x2013 <main+0x1b59>
    3a37: aa           	tax
    3a38: d0 07        	bne	$3a41 <malloc+0x14>
    3a3a: c0 00        	cpy	#$0
    3a3c: d0 03        	bne	$3a41 <malloc+0x14>
    3a3e: 4c 39 3b     	jmp	$3b39 <malloc+0x10c>
    3a41: 84 16        	sty	$16                     ; 0x2016 <main+0x1b5c>
    3a43: aa           	tax
    3a44: d0 0e        	bne	$3a54 <malloc+0x27>
    3a46: a6 16        	ldx	$16                     ; 0x2016 <main+0x1b5c>
    3a48: e0 07        	cpx	#$7
    3a4a: b0 0c        	bcs	$3a58 <malloc+0x2b>
    3a4c: a2 08        	ldx	#$8
    3a4e: 86 86        	stx	$86                     ; 0x2086 <main+0x1bcc>
    3a50: a9 00        	lda	#$0
    3a52: 80 2f        	bra	$3a83 <malloc+0x56>
    3a54: c9 00        	cmp	#$0
    3a56: 90 f4        	bcc	$3a4c <malloc+0x1f>
    3a58: a8           	tay
    3a59: a5 16        	lda	$16                     ; 0x2016 <main+0x1b5c>
    3a5b: 29 01        	and	#$1
    3a5d: a2 02        	ldx	#$2
    3a5f: 64 14        	stz	$14                     ; 0x2014 <main+0x1b5a>
    3a61: c9 00        	cmp	#$0
    3a63: f0 02        	beq	$3a67 <malloc+0x3a>
    3a65: a2 03        	ldx	#$3
    3a67: 86 15        	stx	$15                     ; 0x2015 <main+0x1b5b>
    3a69: 18           	clc
    3a6a: a5 16        	lda	$16                     ; 0x2016 <main+0x1b5c>
    3a6c: 65 15        	adc	$15                     ; 0x2015 <main+0x1b5b>
    3a6e: aa           	tax
    3a6f: 98           	tya
    3a70: 65 14        	adc	$14                     ; 0x2014 <main+0x1b5a>
    3a72: 90 03        	bcc	$3a77 <malloc+0x4a>
    3a74: 4c 39 3b     	jmp	$3b39 <malloc+0x10c>
    3a77: 86 86        	stx	$86                     ; 0x2086 <main+0x1bcc>
    3a79: a8           	tay
    3a7a: d0 07        	bne	$3a83 <malloc+0x56>
    3a7c: e0 00        	cpx	#$0
    3a7e: d0 03        	bne	$3a83 <malloc+0x56>
    3a80: 4c 39 3b     	jmp	$3b39 <malloc+0x10c>
    3a83: 85 87        	sta	$87                     ; 0x2087 <main+0x1bcd>
    3a85: a5 81        	lda	$81                     ; 0x2081 <main+0x1bc7>
    3a87: 29 01        	and	#$1
    3a89: d0 29        	bne	$3ab4 <malloc+0x87>
    3a8b: a9 00        	lda	#$0
    3a8d: a2 10        	ldx	#$10
    3a8f: a0 90        	ldy	#$90
    3a91: 84 12        	sty	$12                     ; 0x2012 <main+0x1b58>
    3a93: a0 40        	ldy	#$40
    3a95: 84 13        	sty	$13                     ; 0x2013 <main+0x1b59>
    3a97: 20 48 03     	jsr	$348 <_ZN12_GLOBAL__N_19FreeChunk6insertEPvj>
    3a9a: a2 00        	ldx	#$0
    3a9c: 86 12        	stx	$12                     ; 0x2012 <main+0x1b58>
    3a9e: a2 00        	ldx	#$0
    3aa0: 86 13        	stx	$13                     ; 0x2013 <main+0x1b59>
    3aa2: ae 91 40     	ldx	$4091                   ; 0x4091 <__heap_start+0x1>
    3aa5: a9 fe        	lda	#$fe
    3aa7: 2d 90 40     	and	$4090                   ; 0x4090 <__heap_start>
    3aaa: 8d 90 40     	sta	$4090                   ; 0x4090 <__heap_start>
    3aad: 8e 91 40     	stx	$4091                   ; 0x4091 <__heap_start+0x1>
    3ab0: a2 01        	ldx	#$1
    3ab2: 86 81        	stx	$81                     ; 0x2081 <main+0x1bc7>
    3ab4: a5 84        	lda	$84                     ; 0x2084 <main+0x1bca>
    3ab6: a6 85        	ldx	$85                     ; 0x2085 <main+0x1bcb>
    3ab8: a0 00        	ldy	#$0
    3aba: 84 14        	sty	$14                     ; 0x2014 <main+0x1b5a>
    3abc: a0 00        	ldy	#$0
    3abe: 84 15        	sty	$15                     ; 0x2015 <main+0x1b5b>
    3ac0: 86 1d        	stx	$1d                     ; 0x201d <main+0x1b63>
    3ac2: e4 15        	cpx	$15                     ; 0x2015 <main+0x1b5b>
    3ac4: d0 07        	bne	$3acd <malloc+0xa0>
    3ac6: c5 14        	cmp	$14                     ; 0x2014 <main+0x1b5a>
    3ac8: d0 03        	bne	$3acd <malloc+0xa0>
    3aca: 4c 39 3b     	jmp	$3b39 <malloc+0x10c>
    3acd: a0 00        	ldy	#$0
    3acf: a2 10        	ldx	#$10
    3ad1: 85 18        	sta	$18                     ; 0x2018 <main+0x1b5e>
    3ad3: 84 14        	sty	$14                     ; 0x2014 <main+0x1b5a>
    3ad5: 86 15        	stx	$15                     ; 0x2015 <main+0x1b5b>
    3ad7: 18           	clc
    3ad8: a9 90        	lda	#$90
    3ada: 65 14        	adc	$14                     ; 0x2014 <main+0x1b5a>
    3adc: 85 14        	sta	$14                     ; 0x2014 <main+0x1b5a>
    3ade: a9 40        	lda	#$40
    3ae0: 65 15        	adc	$15                     ; 0x2015 <main+0x1b5b>
    3ae2: a6 14        	ldx	$14                     ; 0x2014 <main+0x1b5a>
    3ae4: 86 88        	stx	$88                     ; 0x2088 <main+0x1bce>
    3ae6: 85 17        	sta	$17                     ; 0x2017 <main+0x1b5d>
    3ae8: a6 18        	ldx	$18                     ; 0x2018 <main+0x1b5e>
    3aea: 86 1c        	stx	$1c                     ; 0x201c <main+0x1b62>
    3aec: a6 18        	ldx	$18                     ; 0x2018 <main+0x1b5e>
    3aee: 86 14        	stx	$14                     ; 0x2014 <main+0x1b5a>
    3af0: a6 1d        	ldx	$1d                     ; 0x201d <main+0x1b63>
    3af2: 86 15        	stx	$15                     ; 0x2015 <main+0x1b5b>
    3af4: a0 01        	ldy	#$1
    3af6: a6 87        	ldx	$87                     ; 0x2087 <main+0x1bcd>
    3af8: 86 18        	stx	$18                     ; 0x2018 <main+0x1b5e>
    3afa: b1 14        	lda	($14),y                 ; 0x2014 <main+0x1b5a>
    3afc: 85 19        	sta	$19                     ; 0x2019 <main+0x1b5f>
    3afe: aa           	tax
    3aff: a9 fe        	lda	#$fe
    3b01: 32 14        	and	($14)                   ; 0x2014 <main+0x1b5a>
    3b03: 85 1a        	sta	$1a                     ; 0x201a <main+0x1b60>
    3b05: e4 18        	cpx	$18                     ; 0x2018 <main+0x1b5e>
    3b07: d0 0a        	bne	$3b13 <malloc+0xe6>
    3b09: a6 86        	ldx	$86                     ; 0x2086 <main+0x1bcc>
    3b0b: 86 1b        	stx	$1b                     ; 0x201b <main+0x1b61>
    3b0d: c5 1b        	cmp	$1b                     ; 0x201b <main+0x1b61>
    3b0f: b0 29        	bcs	$3b3a <malloc+0x10d>
    3b11: 80 04        	bra	$3b17 <malloc+0xea>
    3b13: e4 18        	cpx	$18                     ; 0x2018 <main+0x1b5e>
    3b15: b0 23        	bcs	$3b3a <malloc+0x10d>
    3b17: a5 14        	lda	$14                     ; 0x2014 <main+0x1b5a>
    3b19: 18           	clc
    3b1a: 69 02        	adc	#$2
    3b1c: 85 1a        	sta	$1a                     ; 0x201a <main+0x1b60>
    3b1e: a5 15        	lda	$15                     ; 0x2015 <main+0x1b5b>
    3b20: 69 00        	adc	#$0
    3b22: 85 1b        	sta	$1b                     ; 0x201b <main+0x1b61>
    3b24: a0 02        	ldy	#$2
    3b26: b1 14        	lda	($14),y                 ; 0x2014 <main+0x1b5a>
    3b28: 85 14        	sta	$14                     ; 0x2014 <main+0x1b5a>
    3b2a: 88           	dey
    3b2b: b1 1a        	lda	($1a),y                 ; 0x201a <main+0x1b60>
    3b2d: 85 15        	sta	$15                     ; 0x2015 <main+0x1b5b>
    3b2f: c5 1d        	cmp	$1d                     ; 0x201d <main+0x1b63>
    3b31: d0 c7        	bne	$3afa <malloc+0xcd>
    3b33: a5 14        	lda	$14                     ; 0x2014 <main+0x1b5a>
    3b35: c5 1c        	cmp	$1c                     ; 0x201c <main+0x1b62>
    3b37: d0 c1        	bne	$3afa <malloc+0xcd>
    3b39: 60           	rts
    3b3a: a5 82        	lda	$82                     ; 0x2082 <main+0x1bc8>
    3b3c: a6 83        	ldx	$83                     ; 0x2083 <main+0x1bc9>
    3b3e: 86 12        	stx	$12                     ; 0x2012 <main+0x1b58>
    3b40: 38           	sec
    3b41: e5 1a        	sbc	$1a                     ; 0x201a <main+0x1b60>
    3b43: aa           	tax
    3b44: a5 12        	lda	$12                     ; 0x2012 <main+0x1b58>
    3b46: e5 19        	sbc	$19                     ; 0x2019 <main+0x1b5f>
    3b48: 85 12        	sta	$12                     ; 0x2012 <main+0x1b58>
    3b4a: 18           	clc
    3b4b: 8a           	txa
    3b4c: 69 02        	adc	#$2
    3b4e: 85 13        	sta	$13                     ; 0x2013 <main+0x1b59>
    3b50: a5 12        	lda	$12                     ; 0x2012 <main+0x1b58>
    3b52: 69 00        	adc	#$0
    3b54: a6 13        	ldx	$13                     ; 0x2013 <main+0x1b59>
    3b56: 86 82        	stx	$82                     ; 0x2082 <main+0x1bc8>
    3b58: 85 83        	sta	$83                     ; 0x2083 <main+0x1bc9>
    3b5a: a0 02        	ldy	#$2
    3b5c: a5 14        	lda	$14                     ; 0x2014 <main+0x1b5a>
    3b5e: 18           	clc
    3b5f: 69 02        	adc	#$2
    3b61: 85 12        	sta	$12                     ; 0x2012 <main+0x1b58>
    3b63: a5 15        	lda	$15                     ; 0x2015 <main+0x1b5b>
    3b65: 69 00        	adc	#$0
    3b67: 85 13        	sta	$13                     ; 0x2013 <main+0x1b59>
    3b69: b1 14        	lda	($14),y                 ; 0x2014 <main+0x1b5a>
    3b6b: 85 1e        	sta	$1e                     ; 0x201e <main+0x1b64>
    3b6d: 88           	dey
    3b6e: b1 12        	lda	($12),y                 ; 0x2012 <main+0x1b58>
    3b70: 85 1f        	sta	$1f                     ; 0x201f <main+0x1b65>
    3b72: c5 15        	cmp	$15                     ; 0x2015 <main+0x1b5b>
    3b74: d0 15        	bne	$3b8b <malloc+0x15e>
    3b76: a5 87        	lda	$87                     ; 0x2087 <main+0x1bcd>
    3b78: a6 1e        	ldx	$1e                     ; 0x201e <main+0x1b64>
    3b7a: e4 14        	cpx	$14                     ; 0x2014 <main+0x1b5a>
    3b7c: d0 0d        	bne	$3b8b <malloc+0x15e>
    3b7e: 85 1a        	sta	$1a                     ; 0x201a <main+0x1b60>
    3b80: a2 00        	ldx	#$0
    3b82: 86 18        	stx	$18                     ; 0x2018 <main+0x1b5e>
    3b84: a2 00        	ldx	#$0
    3b86: 86 19        	stx	$19                     ; 0x2019 <main+0x1b5f>
    3b88: 4c 05 3c     	jmp	$3c05 <malloc+0x1d8>
    3b8b: 18           	clc
    3b8c: a5 14        	lda	$14                     ; 0x2014 <main+0x1b5a>
    3b8e: 69 04        	adc	#$4
    3b90: 85 18        	sta	$18                     ; 0x2018 <main+0x1b5e>
    3b92: a5 15        	lda	$15                     ; 0x2015 <main+0x1b5b>
    3b94: 69 00        	adc	#$0
    3b96: 85 19        	sta	$19                     ; 0x2019 <main+0x1b5f>
    3b98: a0 04        	ldy	#$4
    3b9a: b1 14        	lda	($14),y                 ; 0x2014 <main+0x1b5a>
    3b9c: 85 23        	sta	$23                     ; 0x2023 <main+0x1b69>
    3b9e: 18           	clc
    3b9f: 69 02        	adc	#$2
    3ba1: 85 1a        	sta	$1a                     ; 0x201a <main+0x1b60>
    3ba3: a0 01        	ldy	#$1
    3ba5: b1 18        	lda	($18),y                 ; 0x2018 <main+0x1b5e>
    3ba7: 85 22        	sta	$22                     ; 0x2022 <main+0x1b68>
    3ba9: 69 00        	adc	#$0
    3bab: a6 1a        	ldx	$1a                     ; 0x201a <main+0x1b60>
    3bad: 86 18        	stx	$18                     ; 0x2018 <main+0x1b5e>
    3baf: 85 19        	sta	$19                     ; 0x2019 <main+0x1b5f>
    3bb1: a6 23        	ldx	$23                     ; 0x2023 <main+0x1b69>
    3bb3: 86 1a        	stx	$1a                     ; 0x201a <main+0x1b60>
    3bb5: a6 22        	ldx	$22                     ; 0x2022 <main+0x1b68>
    3bb7: 86 1b        	stx	$1b                     ; 0x201b <main+0x1b61>
    3bb9: c8           	iny
    3bba: a5 1e        	lda	$1e                     ; 0x201e <main+0x1b64>
    3bbc: 91 1a        	sta	($1a),y                 ; 0x201a <main+0x1b60>
    3bbe: a5 1f        	lda	$1f                     ; 0x201f <main+0x1b65>
    3bc0: 88           	dey
    3bc1: 91 18        	sta	($18),y                 ; 0x2018 <main+0x1b5e>
    3bc3: 18           	clc
    3bc4: a5 14        	lda	$14                     ; 0x2014 <main+0x1b5a>
    3bc6: 69 02        	adc	#$2
    3bc8: 85 1a        	sta	$1a                     ; 0x201a <main+0x1b60>
    3bca: a5 15        	lda	$15                     ; 0x2015 <main+0x1b5b>
    3bcc: 69 00        	adc	#$0
    3bce: 85 1b        	sta	$1b                     ; 0x201b <main+0x1b61>
    3bd0: c8           	iny
    3bd1: b1 14        	lda	($14),y                 ; 0x2014 <main+0x1b5a>
    3bd3: 85 18        	sta	$18                     ; 0x2018 <main+0x1b5e>
    3bd5: aa           	tax
    3bd6: 88           	dey
    3bd7: b1 1a        	lda	($1a),y                 ; 0x201a <main+0x1b60>
    3bd9: 85 19        	sta	$19                     ; 0x2019 <main+0x1b5f>
    3bdb: 85 16        	sta	$16                     ; 0x2016 <main+0x1b5c>
    3bdd: a0 04        	ldy	#$4
    3bdf: a5 23        	lda	$23                     ; 0x2023 <main+0x1b69>
    3be1: 91 18        	sta	($18),y                 ; 0x2018 <main+0x1b5e>
    3be3: 18           	clc
    3be4: 8a           	txa
    3be5: 69 04        	adc	#$4
    3be7: 85 1a        	sta	$1a                     ; 0x201a <main+0x1b60>
    3be9: a5 16        	lda	$16                     ; 0x2016 <main+0x1b5c>
    3beb: 69 00        	adc	#$0
    3bed: 85 1b        	sta	$1b                     ; 0x201b <main+0x1b61>
    3bef: a5 22        	lda	$22                     ; 0x2022 <main+0x1b68>
    3bf1: a0 01        	ldy	#$1
    3bf3: 91 1a        	sta	($1a),y                 ; 0x201a <main+0x1b60>
    3bf5: a5 87        	lda	$87                     ; 0x2087 <main+0x1bcd>
    3bf7: 85 1a        	sta	$1a                     ; 0x201a <main+0x1b60>
    3bf9: a6 1d        	ldx	$1d                     ; 0x201d <main+0x1b63>
    3bfb: e4 15        	cpx	$15                     ; 0x2015 <main+0x1b5b>
    3bfd: d0 0e        	bne	$3c0d <malloc+0x1e0>
    3bff: a6 1c        	ldx	$1c                     ; 0x201c <main+0x1b62>
    3c01: e4 14        	cpx	$14                     ; 0x2014 <main+0x1b5a>
    3c03: d0 08        	bne	$3c0d <malloc+0x1e0>
    3c05: a6 18        	ldx	$18                     ; 0x2018 <main+0x1b5e>
    3c07: a4 19        	ldy	$19                     ; 0x2019 <main+0x1b5f>
    3c09: 86 84        	stx	$84                     ; 0x2084 <main+0x1bca>
    3c0b: 84 85        	sty	$85                     ; 0x2085 <main+0x1bcb>
    3c0d: a0 01        	ldy	#$1
    3c0f: b1 14        	lda	($14),y                 ; 0x2014 <main+0x1b5a>
    3c11: 85 16        	sta	$16                     ; 0x2016 <main+0x1b5c>
    3c13: a9 fe        	lda	#$fe
    3c15: 32 14        	and	($14)                   ; 0x2014 <main+0x1b5a>
    3c17: 38           	sec
    3c18: a6 86        	ldx	$86                     ; 0x2086 <main+0x1bcc>
    3c1a: 86 18        	stx	$18                     ; 0x2018 <main+0x1b5e>
    3c1c: a8           	tay
    3c1d: e5 18        	sbc	$18                     ; 0x2018 <main+0x1b5e>
    3c1f: 85 19        	sta	$19                     ; 0x2019 <main+0x1b5f>
    3c21: a5 16        	lda	$16                     ; 0x2016 <main+0x1b5c>
    3c23: a6 16        	ldx	$16                     ; 0x2016 <main+0x1b5c>
    3c25: e5 1a        	sbc	$1a                     ; 0x201a <main+0x1b60>
    3c27: f0 03        	beq	$3c2c <malloc+0x1ff>
    3c29: 4c b7 3c     	jmp	$3cb7 <malloc+0x28a>
    3c2c: 85 16        	sta	$16                     ; 0x2016 <main+0x1b5c>
    3c2e: a5 19        	lda	$19                     ; 0x2019 <main+0x1b5f>
    3c30: c9 08        	cmp	#$8
    3c32: 86 18        	stx	$18                     ; 0x2018 <main+0x1b5e>
    3c34: b0 03        	bcs	$3c39 <malloc+0x20c>
    3c36: 4c 9a 3c     	jmp	$3c9a <malloc+0x26d>
    3c39: a6 17        	ldx	$17                     ; 0x2017 <main+0x1b5d>
    3c3b: 86 8d        	stx	$8d                     ; 0x208d <main+0x1bd3>
    3c3d: a6 88        	ldx	$88                     ; 0x2088 <main+0x1bce>
    3c3f: 86 88        	stx	$88                     ; 0x2088 <main+0x1bce>
    3c41: a6 12        	ldx	$12                     ; 0x2012 <main+0x1b58>
    3c43: 86 89        	stx	$89                     ; 0x2089 <main+0x1bcf>
    3c45: a6 13        	ldx	$13                     ; 0x2013 <main+0x1b59>
    3c47: 86 8a        	stx	$8a                     ; 0x208a <main+0x1bd0>
    3c49: a8           	tay
    3c4a: 18           	clc
    3c4b: a5 86        	lda	$86                     ; 0x2086 <main+0x1bcc>
    3c4d: 85 86        	sta	$86                     ; 0x2086 <main+0x1bcc>
    3c4f: 65 14        	adc	$14                     ; 0x2014 <main+0x1b5a>
    3c51: 85 12        	sta	$12                     ; 0x2012 <main+0x1b58>
    3c53: a5 1a        	lda	$1a                     ; 0x201a <main+0x1b60>
    3c55: a6 1a        	ldx	$1a                     ; 0x201a <main+0x1b60>
    3c57: 86 87        	stx	$87                     ; 0x2087 <main+0x1bcd>
    3c59: 65 15        	adc	$15                     ; 0x2015 <main+0x1b5b>
    3c5b: 85 13        	sta	$13                     ; 0x2013 <main+0x1b59>
    3c5d: a6 16        	ldx	$16                     ; 0x2016 <main+0x1b5c>
    3c5f: 98           	tya
    3c60: a4 14        	ldy	$14                     ; 0x2014 <main+0x1b5a>
    3c62: 84 8b        	sty	$8b                     ; 0x208b <main+0x1bd1>
    3c64: a4 15        	ldy	$15                     ; 0x2015 <main+0x1b5b>
    3c66: 84 8c        	sty	$8c                     ; 0x208c <main+0x1bd2>
    3c68: 20 48 03     	jsr	$348 <_ZN12_GLOBAL__N_19FreeChunk6insertEPvj>
    3c6b: a6 8b        	ldx	$8b                     ; 0x208b <main+0x1bd1>
    3c6d: 86 14        	stx	$14                     ; 0x2014 <main+0x1b5a>
    3c6f: a6 8c        	ldx	$8c                     ; 0x208c <main+0x1bd2>
    3c71: 86 15        	stx	$15                     ; 0x2015 <main+0x1b5b>
    3c73: a5 86        	lda	$86                     ; 0x2086 <main+0x1bcc>
    3c75: 29 fe        	and	#$fe
    3c77: 85 12        	sta	$12                     ; 0x2012 <main+0x1b58>
    3c79: a0 01        	ldy	#$1
    3c7b: 98           	tya
    3c7c: 32 14        	and	($14)                   ; 0x2014 <main+0x1b5a>
    3c7e: 05 12        	ora	$12                     ; 0x2012 <main+0x1b58>
    3c80: 92 14        	sta	($14)                   ; 0x2014 <main+0x1b5a>
    3c82: a5 87        	lda	$87                     ; 0x2087 <main+0x1bcd>
    3c84: 91 14        	sta	($14),y                 ; 0x2014 <main+0x1b5a>
    3c86: a4 12        	ldy	$12                     ; 0x2012 <main+0x1b58>
    3c88: 85 18        	sta	$18                     ; 0x2018 <main+0x1b5e>
    3c8a: a6 89        	ldx	$89                     ; 0x2089 <main+0x1bcf>
    3c8c: 86 12        	stx	$12                     ; 0x2012 <main+0x1b58>
    3c8e: a6 8a        	ldx	$8a                     ; 0x208a <main+0x1bd0>
    3c90: 86 13        	stx	$13                     ; 0x2013 <main+0x1b59>
    3c92: a6 88        	ldx	$88                     ; 0x2088 <main+0x1bce>
    3c94: 86 88        	stx	$88                     ; 0x2088 <main+0x1bce>
    3c96: a6 8d        	ldx	$8d                     ; 0x208d <main+0x1bd3>
    3c98: 86 17        	stx	$17                     ; 0x2017 <main+0x1b5d>
    3c9a: 18           	clc
    3c9b: 98           	tya
    3c9c: 65 14        	adc	$14                     ; 0x2014 <main+0x1b5a>
    3c9e: 85 16        	sta	$16                     ; 0x2016 <main+0x1b5c>
    3ca0: a5 15        	lda	$15                     ; 0x2015 <main+0x1b5b>
    3ca2: 65 18        	adc	$18                     ; 0x2018 <main+0x1b5e>
    3ca4: 85 15        	sta	$15                     ; 0x2015 <main+0x1b5b>
    3ca6: c5 17        	cmp	$17                     ; 0x2017 <main+0x1b5d>
    3ca8: d0 1a        	bne	$3cc4 <malloc+0x297>
    3caa: a6 88        	ldx	$88                     ; 0x2088 <main+0x1bce>
    3cac: 86 14        	stx	$14                     ; 0x2014 <main+0x1b5a>
    3cae: a6 16        	ldx	$16                     ; 0x2016 <main+0x1b5c>
    3cb0: e4 14        	cpx	$14                     ; 0x2014 <main+0x1b5a>
    3cb2: d0 12        	bne	$3cc6 <malloc+0x299>
    3cb4: 4c 39 3b     	jmp	$3b39 <malloc+0x10c>
    3cb7: 85 16        	sta	$16                     ; 0x2016 <main+0x1b5c>
    3cb9: c9 00        	cmp	#$0
    3cbb: 86 18        	stx	$18                     ; 0x2018 <main+0x1b5e>
    3cbd: a5 19        	lda	$19                     ; 0x2019 <main+0x1b5f>
    3cbf: 90 d9        	bcc	$3c9a <malloc+0x26d>
    3cc1: 4c 39 3c     	jmp	$3c39 <malloc+0x20c>
    3cc4: a6 16        	ldx	$16                     ; 0x2016 <main+0x1b5c>
    3cc6: 86 14        	stx	$14                     ; 0x2014 <main+0x1b5a>
    3cc8: a0 01        	ldy	#$1
    3cca: b1 14        	lda	($14),y                 ; 0x2014 <main+0x1b5a>
    3ccc: 85 16        	sta	$16                     ; 0x2016 <main+0x1b5c>
    3cce: a9 fe        	lda	#$fe
    3cd0: 32 14        	and	($14)                   ; 0x2014 <main+0x1b5a>
    3cd2: 92 14        	sta	($14)                   ; 0x2014 <main+0x1b5a>
    3cd4: a5 16        	lda	$16                     ; 0x2016 <main+0x1b5c>
    3cd6: 91 14        	sta	($14),y                 ; 0x2014 <main+0x1b5a>
    3cd8: 60           	rts

00003cd9 <memcpy>:
    3cd9: a8           	tay
    3cda: 8a           	txa
    3cdb: d0 03        	bne	$3ce0 <memcpy+0x7>
    3cdd: 98           	tya
    3cde: f0 24        	beq	$3d04 <memcpy+0x2b>
    3ce0: a5 12        	lda	$12                     ; 0x2012 <main+0x1b58>
    3ce2: 85 16        	sta	$16                     ; 0x2016 <main+0x1b5c>
    3ce4: a5 13        	lda	$13                     ; 0x2013 <main+0x1b59>
    3ce6: 85 17        	sta	$17                     ; 0x2017 <main+0x1b5d>
    3ce8: b2 14        	lda	($14)                   ; 0x2014 <main+0x1b5a>
    3cea: 92 16        	sta	($16)                   ; 0x2016 <main+0x1b5c>
    3cec: e6 16        	inc	$16                     ; 0x2016 <main+0x1b5c>
    3cee: d0 02        	bne	$3cf2 <memcpy+0x19>
    3cf0: e6 17        	inc	$17                     ; 0x2017 <main+0x1b5d>
    3cf2: e6 14        	inc	$14                     ; 0x2014 <main+0x1b5a>
    3cf4: d0 02        	bne	$3cf8 <memcpy+0x1f>
    3cf6: e6 15        	inc	$15                     ; 0x2015 <main+0x1b5b>
    3cf8: 88           	dey
    3cf9: c0 ff        	cpy	#$ff
    3cfb: d0 01        	bne	$3cfe <memcpy+0x25>
    3cfd: ca           	dex
    3cfe: 8a           	txa
    3cff: d0 e7        	bne	$3ce8 <memcpy+0xf>
    3d01: 98           	tya
    3d02: d0 e4        	bne	$3ce8 <memcpy+0xf>
    3d04: 60           	rts

00003d05 <__memset>:
    3d05: a4 14        	ldy	$14                     ; 0x2014 <main+0x1b5a>
    3d07: d0 04        	bne	$3d0d <__memset+0x8>
    3d09: e0 00        	cpx	#$0
    3d0b: f0 17        	beq	$3d24 <__memset+0x1f>
    3d0d: 92 12        	sta	($12)                   ; 0x2012 <main+0x1b58>
    3d0f: e6 12        	inc	$12                     ; 0x2012 <main+0x1b58>
    3d11: d0 02        	bne	$3d15 <__memset+0x10>
    3d13: e6 13        	inc	$13                     ; 0x2013 <main+0x1b59>
    3d15: ca           	dex
    3d16: e0 ff        	cpx	#$ff
    3d18: d0 02        	bne	$3d1c <__memset+0x17>
    3d1a: c6 14        	dec	$14                     ; 0x2014 <main+0x1b5a>
    3d1c: a4 14        	ldy	$14                     ; 0x2014 <main+0x1b5a>
    3d1e: d0 ed        	bne	$3d0d <__memset+0x8>
    3d20: e0 00        	cpx	#$0
    3d22: d0 e9        	bne	$3d0d <__memset+0x8>
    3d24: 60           	rts

00003d25 <__mulhi3>:
    3d25: a4 13        	ldy	$13                     ; 0x2013 <main+0x1b59>
    3d27: d0 04        	bne	$3d2d <__mulhi3+0x8>
    3d29: a4 12        	ldy	$12                     ; 0x2012 <main+0x1b58>
    3d2b: f0 25        	beq	$3d52 <__mulhi3+0x2d>
    3d2d: 85 14        	sta	$14                     ; 0x2014 <main+0x1b5a>
    3d2f: 86 15        	stx	$15                     ; 0x2015 <main+0x1b5b>
    3d31: a0 00        	ldy	#$0
    3d33: 98           	tya
    3d34: 46 13        	lsr	$13                     ; 0x2013 <main+0x1b59>
    3d36: 66 12        	ror	$12                     ; 0x2012 <main+0x1b58>
    3d38: 90 09        	bcc	$3d43 <__mulhi3+0x1e>
    3d3a: aa           	tax
    3d3b: 98           	tya
    3d3c: 18           	clc
    3d3d: 65 14        	adc	$14                     ; 0x2014 <main+0x1b5a>
    3d3f: a8           	tay
    3d40: 8a           	txa
    3d41: 65 15        	adc	$15                     ; 0x2015 <main+0x1b5b>
    3d43: 06 14        	asl	$14                     ; 0x2014 <main+0x1b5a>
    3d45: 26 15        	rol	$15                     ; 0x2015 <main+0x1b5b>
    3d47: a6 13        	ldx	$13                     ; 0x2013 <main+0x1b59>
    3d49: d0 e9        	bne	$3d34 <__mulhi3+0xf>
    3d4b: a6 12        	ldx	$12                     ; 0x2012 <main+0x1b58>
    3d4d: d0 e5        	bne	$3d34 <__mulhi3+0xf>
    3d4f: aa           	tax
    3d50: 98           	tya
    3d51: 60           	rts
    3d52: a0 00        	ldy	#$0
    3d54: 98           	tya
    3d55: 80 f8        	bra	$3d4f <__mulhi3+0x2a>

00003d57 <__mulsi3>:
    3d57: a4 17        	ldy	$17                     ; 0x2017 <main+0x1b5d>
    3d59: d0 0f        	bne	$3d6a <__mulsi3+0x13>
    3d5b: a4 16        	ldy	$16                     ; 0x2016 <main+0x1b5c>
    3d5d: d0 0b        	bne	$3d6a <__mulsi3+0x13>
    3d5f: a4 15        	ldy	$15                     ; 0x2015 <main+0x1b5b>
    3d61: d0 07        	bne	$3d6a <__mulsi3+0x13>
    3d63: a4 14        	ldy	$14                     ; 0x2014 <main+0x1b5a>
    3d65: d0 03        	bne	$3d6a <__mulsi3+0x13>
    3d67: 4c be 3d     	jmp	$3dbe <__mulsi3+0x67>
    3d6a: 85 18        	sta	$18                     ; 0x2018 <main+0x1b5e>
    3d6c: 86 19        	stx	$19                     ; 0x2019 <main+0x1b5f>
    3d6e: a0 00        	ldy	#$0
    3d70: a2 00        	ldx	#$0
    3d72: 64 1a        	stz	$1a                     ; 0x201a <main+0x1b60>
    3d74: 98           	tya
    3d75: 46 17        	lsr	$17                     ; 0x2017 <main+0x1b5d>
    3d77: 66 16        	ror	$16                     ; 0x2016 <main+0x1b5c>
    3d79: 66 15        	ror	$15                     ; 0x2015 <main+0x1b5b>
    3d7b: 66 14        	ror	$14                     ; 0x2014 <main+0x1b5a>
    3d7d: 90 15        	bcc	$3d94 <__mulsi3+0x3d>
    3d7f: 85 1b        	sta	$1b                     ; 0x201b <main+0x1b61>
    3d81: 98           	tya
    3d82: 18           	clc
    3d83: 65 18        	adc	$18                     ; 0x2018 <main+0x1b5e>
    3d85: a8           	tay
    3d86: 8a           	txa
    3d87: 65 19        	adc	$19                     ; 0x2019 <main+0x1b5f>
    3d89: aa           	tax
    3d8a: a5 1a        	lda	$1a                     ; 0x201a <main+0x1b60>
    3d8c: 65 12        	adc	$12                     ; 0x2012 <main+0x1b58>
    3d8e: 85 1a        	sta	$1a                     ; 0x201a <main+0x1b60>
    3d90: a5 1b        	lda	$1b                     ; 0x201b <main+0x1b61>
    3d92: 65 13        	adc	$13                     ; 0x2013 <main+0x1b59>
    3d94: 06 18        	asl	$18                     ; 0x2018 <main+0x1b5e>
    3d96: 26 19        	rol	$19                     ; 0x2019 <main+0x1b5f>
    3d98: 26 12        	rol	$12                     ; 0x2012 <main+0x1b58>
    3d9a: 26 13        	rol	$13                     ; 0x2013 <main+0x1b59>
    3d9c: e6 17        	inc	$17                     ; 0x2017 <main+0x1b5d>
    3d9e: c6 17        	dec	$17                     ; 0x2017 <main+0x1b5d>
    3da0: d0 d3        	bne	$3d75 <__mulsi3+0x1e>
    3da2: e6 16        	inc	$16                     ; 0x2016 <main+0x1b5c>
    3da4: c6 16        	dec	$16                     ; 0x2016 <main+0x1b5c>
    3da6: d0 cd        	bne	$3d75 <__mulsi3+0x1e>
    3da8: e6 15        	inc	$15                     ; 0x2015 <main+0x1b5b>
    3daa: c6 15        	dec	$15                     ; 0x2015 <main+0x1b5b>
    3dac: d0 c7        	bne	$3d75 <__mulsi3+0x1e>
    3dae: e6 14        	inc	$14                     ; 0x2014 <main+0x1b5a>
    3db0: c6 14        	dec	$14                     ; 0x2014 <main+0x1b5a>
    3db2: d0 c1        	bne	$3d75 <__mulsi3+0x1e>
    3db4: 5a           	phy
    3db5: a4 1a        	ldy	$1a                     ; 0x201a <main+0x1b60>
    3db7: 84 12        	sty	$12                     ; 0x2012 <main+0x1b58>
    3db9: 7a           	ply
    3dba: 85 13        	sta	$13                     ; 0x2013 <main+0x1b59>
    3dbc: 98           	tya
    3dbd: 60           	rts
    3dbe: a0 00        	ldy	#$0
    3dc0: a2 00        	ldx	#$0
    3dc2: 64 1a        	stz	$1a                     ; 0x201a <main+0x1b60>
    3dc4: 98           	tya
    3dc5: 80 ed        	bra	$3db4 <__mulsi3+0x5d>

00003dc7 <__udivsi3>:
    3dc7: 64 18        	stz	$18                     ; 0x2018 <main+0x1b5e>
    3dc9: a4 17        	ldy	$17                     ; 0x2017 <main+0x1b5d>
    3dcb: d0 0c        	bne	$3dd9 <__udivsi3+0x12>
    3dcd: a4 16        	ldy	$16                     ; 0x2016 <main+0x1b5c>
    3dcf: d0 08        	bne	$3dd9 <__udivsi3+0x12>
    3dd1: a4 15        	ldy	$15                     ; 0x2015 <main+0x1b5b>
    3dd3: d0 04        	bne	$3dd9 <__udivsi3+0x12>
    3dd5: a4 14        	ldy	$14                     ; 0x2014 <main+0x1b5a>
    3dd7: f0 27        	beq	$3e00 <__udivsi3+0x39>
    3dd9: 86 1e        	stx	$1e                     ; 0x201e <main+0x1b64>
    3ddb: a6 12        	ldx	$12                     ; 0x2012 <main+0x1b58>
    3ddd: 86 1f        	stx	$1f                     ; 0x201f <main+0x1b65>
    3ddf: a6 13        	ldx	$13                     ; 0x2013 <main+0x1b59>
    3de1: 86 22        	stx	$22                     ; 0x2022 <main+0x1b68>
    3de3: e4 17        	cpx	$17                     ; 0x2017 <main+0x1b5d>
    3de5: d0 15        	bne	$3dfc <__udivsi3+0x35>
    3de7: a6 12        	ldx	$12                     ; 0x2012 <main+0x1b58>
    3de9: e4 16        	cpx	$16                     ; 0x2016 <main+0x1b5c>
    3deb: d0 1a        	bne	$3e07 <__udivsi3+0x40>
    3ded: a6 1e        	ldx	$1e                     ; 0x201e <main+0x1b64>
    3def: e4 15        	cpx	$15                     ; 0x2015 <main+0x1b5b>
    3df1: f0 03        	beq	$3df6 <__udivsi3+0x2f>
    3df3: 4c 2c 3f     	jmp	$3f2c <__udivsi3+0x165>
    3df6: c5 14        	cmp	$14                     ; 0x2014 <main+0x1b5a>
    3df8: 90 06        	bcc	$3e00 <__udivsi3+0x39>
    3dfa: 80 0f        	bra	$3e0b <__udivsi3+0x44>
    3dfc: e4 17        	cpx	$17                     ; 0x2017 <main+0x1b5d>
    3dfe: b0 0b        	bcs	$3e0b <__udivsi3+0x44>
    3e00: a2 00        	ldx	#$0
    3e02: 86 86        	stx	$86                     ; 0x2086 <main+0x1bcc>
    3e04: 4c 71 3e     	jmp	$3e71 <__udivsi3+0xaa>
    3e07: e4 16        	cpx	$16                     ; 0x2016 <main+0x1b5c>
    3e09: 90 f5        	bcc	$3e00 <__udivsi3+0x39>
    3e0b: a2 01        	ldx	#$1
    3e0d: 86 86        	stx	$86                     ; 0x2086 <main+0x1bcc>
    3e0f: a6 17        	ldx	$17                     ; 0x2017 <main+0x1b5d>
    3e11: 10 03        	bpl	$3e16 <__udivsi3+0x4f>
    3e13: 4c 71 3e     	jmp	$3e71 <__udivsi3+0xaa>
    3e16: 85 1d        	sta	$1d                     ; 0x201d <main+0x1b63>
    3e18: a5 1e        	lda	$1e                     ; 0x201e <main+0x1b64>
    3e1a: a2 00        	ldx	#$0
    3e1c: a4 14        	ldy	$14                     ; 0x2014 <main+0x1b5a>
    3e1e: 84 19        	sty	$19                     ; 0x2019 <main+0x1b5f>
    3e20: a4 15        	ldy	$15                     ; 0x2015 <main+0x1b5b>
    3e22: 84 1a        	sty	$1a                     ; 0x201a <main+0x1b60>
    3e24: a4 16        	ldy	$16                     ; 0x2016 <main+0x1b5c>
    3e26: 84 1b        	sty	$1b                     ; 0x201b <main+0x1b61>
    3e28: a4 17        	ldy	$17                     ; 0x2017 <main+0x1b5d>
    3e2a: 84 1c        	sty	$1c                     ; 0x201c <main+0x1b62>
    3e2c: 06 19        	asl	$19                     ; 0x2019 <main+0x1b5f>
    3e2e: 26 1a        	rol	$1a                     ; 0x201a <main+0x1b60>
    3e30: 26 1b        	rol	$1b                     ; 0x201b <main+0x1b61>
    3e32: 26 1c        	rol	$1c                     ; 0x201c <main+0x1b62>
    3e34: a4 22        	ldy	$22                     ; 0x2022 <main+0x1b68>
    3e36: c4 1c        	cpy	$1c                     ; 0x201c <main+0x1b62>
    3e38: d0 12        	bne	$3e4c <__udivsi3+0x85>
    3e3a: a4 12        	ldy	$12                     ; 0x2012 <main+0x1b58>
    3e3c: c4 1b        	cpy	$1b                     ; 0x201b <main+0x1b61>
    3e3e: d0 12        	bne	$3e52 <__udivsi3+0x8b>
    3e40: c5 1a        	cmp	$1a                     ; 0x201a <main+0x1b60>
    3e42: d0 14        	bne	$3e58 <__udivsi3+0x91>
    3e44: a4 1d        	ldy	$1d                     ; 0x201d <main+0x1b63>
    3e46: c4 19        	cpy	$19                     ; 0x2019 <main+0x1b5f>
    3e48: 90 30        	bcc	$3e7a <__udivsi3+0xb3>
    3e4a: 80 10        	bra	$3e5c <__udivsi3+0x95>
    3e4c: c4 1c        	cpy	$1c                     ; 0x201c <main+0x1b62>
    3e4e: 90 2a        	bcc	$3e7a <__udivsi3+0xb3>
    3e50: 80 0a        	bra	$3e5c <__udivsi3+0x95>
    3e52: c4 1b        	cpy	$1b                     ; 0x201b <main+0x1b61>
    3e54: 90 24        	bcc	$3e7a <__udivsi3+0xb3>
    3e56: 80 04        	bra	$3e5c <__udivsi3+0x95>
    3e58: c5 1a        	cmp	$1a                     ; 0x201a <main+0x1b60>
    3e5a: 90 1e        	bcc	$3e7a <__udivsi3+0xb3>
    3e5c: e8           	inx
    3e5d: a4 19        	ldy	$19                     ; 0x2019 <main+0x1b5f>
    3e5f: 84 14        	sty	$14                     ; 0x2014 <main+0x1b5a>
    3e61: a4 1a        	ldy	$1a                     ; 0x201a <main+0x1b60>
    3e63: 84 15        	sty	$15                     ; 0x2015 <main+0x1b5b>
    3e65: a4 1b        	ldy	$1b                     ; 0x201b <main+0x1b61>
    3e67: 84 16        	sty	$16                     ; 0x2016 <main+0x1b5c>
    3e69: a4 1c        	ldy	$1c                     ; 0x201c <main+0x1b62>
    3e6b: 84 17        	sty	$17                     ; 0x2017 <main+0x1b5d>
    3e6d: 10 bd        	bpl	$3e2c <__udivsi3+0x65>
    3e6f: 80 19        	bra	$3e8a <__udivsi3+0xc3>
    3e71: 64 12        	stz	$12                     ; 0x2012 <main+0x1b58>
    3e73: 64 13        	stz	$13                     ; 0x2013 <main+0x1b59>
    3e75: a6 18        	ldx	$18                     ; 0x2018 <main+0x1b5e>
    3e77: a5 86        	lda	$86                     ; 0x2086 <main+0x1bcc>
    3e79: 60           	rts
    3e7a: a4 14        	ldy	$14                     ; 0x2014 <main+0x1b5a>
    3e7c: 84 19        	sty	$19                     ; 0x2019 <main+0x1b5f>
    3e7e: a4 15        	ldy	$15                     ; 0x2015 <main+0x1b5b>
    3e80: 84 1a        	sty	$1a                     ; 0x201a <main+0x1b60>
    3e82: a4 16        	ldy	$16                     ; 0x2016 <main+0x1b5c>
    3e84: 84 1b        	sty	$1b                     ; 0x201b <main+0x1b61>
    3e86: a4 17        	ldy	$17                     ; 0x2017 <main+0x1b5d>
    3e88: 84 1c        	sty	$1c                     ; 0x201c <main+0x1b62>
    3e8a: 64 12        	stz	$12                     ; 0x2012 <main+0x1b58>
    3e8c: 64 13        	stz	$13                     ; 0x2013 <main+0x1b59>
    3e8e: 8a           	txa
    3e8f: f0 e4        	beq	$3e75 <__udivsi3+0xae>
    3e91: 38           	sec
    3e92: a5 1d        	lda	$1d                     ; 0x201d <main+0x1b63>
    3e94: e5 19        	sbc	$19                     ; 0x2019 <main+0x1b5f>
    3e96: 85 14        	sta	$14                     ; 0x2014 <main+0x1b5a>
    3e98: a5 1e        	lda	$1e                     ; 0x201e <main+0x1b64>
    3e9a: e5 1a        	sbc	$1a                     ; 0x201a <main+0x1b60>
    3e9c: 85 17        	sta	$17                     ; 0x2017 <main+0x1b5d>
    3e9e: a5 1f        	lda	$1f                     ; 0x201f <main+0x1b65>
    3ea0: e5 1b        	sbc	$1b                     ; 0x201b <main+0x1b61>
    3ea2: 85 15        	sta	$15                     ; 0x2015 <main+0x1b5b>
    3ea4: a5 22        	lda	$22                     ; 0x2022 <main+0x1b68>
    3ea6: e5 1c        	sbc	$1c                     ; 0x201c <main+0x1b62>
    3ea8: a0 01        	ldy	#$1
    3eaa: 84 86        	sty	$86                     ; 0x2086 <main+0x1bcc>
    3eac: 64 18        	stz	$18                     ; 0x2018 <main+0x1b5e>
    3eae: 46 1c        	lsr	$1c                     ; 0x201c <main+0x1b62>
    3eb0: 66 1b        	ror	$1b                     ; 0x201b <main+0x1b61>
    3eb2: 66 1a        	ror	$1a                     ; 0x201a <main+0x1b60>
    3eb4: 66 19        	ror	$19                     ; 0x2019 <main+0x1b5f>
    3eb6: a4 86        	ldy	$86                     ; 0x2086 <main+0x1bcc>
    3eb8: 84 16        	sty	$16                     ; 0x2016 <main+0x1b5c>
    3eba: 06 16        	asl	$16                     ; 0x2016 <main+0x1b5c>
    3ebc: a0 01        	ldy	#$1
    3ebe: b0 02        	bcs	$3ec2 <__udivsi3+0xfb>
    3ec0: a0 00        	ldy	#$0
    3ec2: 84 1d        	sty	$1d                     ; 0x201d <main+0x1b63>
    3ec4: a4 16        	ldy	$16                     ; 0x2016 <main+0x1b5c>
    3ec6: 84 86        	sty	$86                     ; 0x2086 <main+0x1bcc>
    3ec8: c5 1c        	cmp	$1c                     ; 0x201c <main+0x1b62>
    3eca: d0 16        	bne	$3ee2 <__udivsi3+0x11b>
    3ecc: 85 16        	sta	$16                     ; 0x2016 <main+0x1b5c>
    3ece: a4 15        	ldy	$15                     ; 0x2015 <main+0x1b5b>
    3ed0: a5 17        	lda	$17                     ; 0x2017 <main+0x1b5d>
    3ed2: c4 1b        	cpy	$1b                     ; 0x201b <main+0x1b61>
    3ed4: d0 4a        	bne	$3f20 <__udivsi3+0x159>
    3ed6: c5 1a        	cmp	$1a                     ; 0x201a <main+0x1b60>
    3ed8: d0 4c        	bne	$3f26 <__udivsi3+0x15f>
    3eda: a4 14        	ldy	$14                     ; 0x2014 <main+0x1b5a>
    3edc: c4 19        	cpy	$19                     ; 0x2019 <main+0x1b5f>
    3ede: b0 0a        	bcs	$3eea <__udivsi3+0x123>
    3ee0: 80 27        	bra	$3f09 <__udivsi3+0x142>
    3ee2: 85 16        	sta	$16                     ; 0x2016 <main+0x1b5c>
    3ee4: c5 1c        	cmp	$1c                     ; 0x201c <main+0x1b62>
    3ee6: a5 17        	lda	$17                     ; 0x2017 <main+0x1b5d>
    3ee8: 90 1f        	bcc	$3f09 <__udivsi3+0x142>
    3eea: a8           	tay
    3eeb: 38           	sec
    3eec: a5 14        	lda	$14                     ; 0x2014 <main+0x1b5a>
    3eee: e5 19        	sbc	$19                     ; 0x2019 <main+0x1b5f>
    3ef0: 85 14        	sta	$14                     ; 0x2014 <main+0x1b5a>
    3ef2: 98           	tya
    3ef3: e5 1a        	sbc	$1a                     ; 0x201a <main+0x1b60>
    3ef5: 85 17        	sta	$17                     ; 0x2017 <main+0x1b5d>
    3ef7: a5 15        	lda	$15                     ; 0x2015 <main+0x1b5b>
    3ef9: e5 1b        	sbc	$1b                     ; 0x201b <main+0x1b61>
    3efb: 85 15        	sta	$15                     ; 0x2015 <main+0x1b5b>
    3efd: a5 16        	lda	$16                     ; 0x2016 <main+0x1b5c>
    3eff: e5 1c        	sbc	$1c                     ; 0x201c <main+0x1b62>
    3f01: 85 16        	sta	$16                     ; 0x2016 <main+0x1b5c>
    3f03: a5 86        	lda	$86                     ; 0x2086 <main+0x1bcc>
    3f05: 09 01        	ora	#$1
    3f07: 85 86        	sta	$86                     ; 0x2086 <main+0x1bcc>
    3f09: a4 1d        	ldy	$1d                     ; 0x201d <main+0x1b63>
    3f0b: c0 01        	cpy	#$1
    3f0d: 26 18        	rol	$18                     ; 0x2018 <main+0x1b5e>
    3f0f: 26 12        	rol	$12                     ; 0x2012 <main+0x1b58>
    3f11: 26 13        	rol	$13                     ; 0x2013 <main+0x1b59>
    3f13: ca           	dex
    3f14: a5 16        	lda	$16                     ; 0x2016 <main+0x1b5c>
    3f16: e0 00        	cpx	#$0
    3f18: f0 03        	beq	$3f1d <__udivsi3+0x156>
    3f1a: 4c ae 3e     	jmp	$3eae <__udivsi3+0xe7>
    3f1d: 4c 75 3e     	jmp	$3e75 <__udivsi3+0xae>
    3f20: c4 1b        	cpy	$1b                     ; 0x201b <main+0x1b61>
    3f22: b0 c6        	bcs	$3eea <__udivsi3+0x123>
    3f24: 80 e3        	bra	$3f09 <__udivsi3+0x142>
    3f26: c5 1a        	cmp	$1a                     ; 0x201a <main+0x1b60>
    3f28: b0 c0        	bcs	$3eea <__udivsi3+0x123>
    3f2a: 80 dd        	bra	$3f09 <__udivsi3+0x142>
    3f2c: e4 15        	cpx	$15                     ; 0x2015 <main+0x1b5b>
    3f2e: b0 03        	bcs	$3f33 <__udivsi3+0x16c>
    3f30: 4c 00 3e     	jmp	$3e00 <__udivsi3+0x39>
    3f33: 4c 0b 3e     	jmp	$3e0b <__udivsi3+0x44>
