
multiRead.elf:	file format elf32-mos

SYMBOL TABLE:
00000000 l    df *ABS*	00000000 zero-bss.c
00000000 l    df *ABS*	00000000 zero-zp-bss.c
00000000 l    df *ABS*	00000000 copy-zp-data.c
00000000 l    df *ABS*	00000000 ld-temp.o
000004ba l     F .text	00000442 f256Init
000050aa l     O .bss	00000007 kernelEventData
00000030 l     O .zp.data	00000030 textColors
00000060 l     O .zp.bss	00000001 _col
00000061 l     O .zp.bss	00000001 _row
00000062 l     O .zp.bss	00000004 _BITMAP_BASE.0
00000066 l     O .zp.bss	00000004 _BITMAP_BASE.1
0000006a l     O .zp.bss	00000004 _BITMAP_BASE.2
000050a9 l     O .bss	00000001 kernelError
00000902 l     F .text	00000c9e f256main
00000070 l     O .zp.bss	00000002 theOne.0
00004d1c l     F .text	00000032 __mulhi3
000049e0 l     F .text	000002f0 malloc
0000007b l     O .zp.bss	00000002 theOne.5
00000074 l     O .zp.bss	00000001 theOne.2
00000075 l     O .zp.bss	00000004 theOne.3
00000079 l     O .zp.bss	00000002 theOne.4
00002ddc l     F .text	00001a11 printf
00000072 l     O .zp.bss	00000002 theOne.1
0000007d l     O .zp.bss	00000004 timer0PerTick
00004d4e l     F .text	00000070 __mulsi3
000015a0 l     F .text	000007f0 readMIDICmd
00001d90 l     F .text	0000010a irq_handler
00001e9a l     F .text	0000073d playMidi
000047ed l     F .text	000001f3 putchar
000025d7 l     F .text	000005b8 exhaustZeroes
00004dbe l     F .text	000001a1 __udivsi3
00002b94 l     F .text	000000d4 _ZN12_GLOBAL__N_13putEcP6Status
00002c68 l     F .text	00000174 _ZN12_GLOBAL__N_112print_stringEPKcP6Status
0000006e l     O .zp.bss	00000002 __putchar.s
00000081 l     O .zp.bss	00000001 _ZN12_GLOBAL__N_111initializedE
00000348 l     F .text	00000135 _ZN12_GLOBAL__N_19FreeChunk6insertEPvj
00000084 l     O .zp.bss	00000002 _ZN12_GLOBAL__N_19free_listE
00000082 l     O .zp.bss	00000002 _ZN12_GLOBAL__N_19free_sizeE
000008fc g     F .text	00000006 main
00010000 g       .music	00000000 music_start
0001cf7a g       .music	00000000 music_end
00000344 g       .text	00000000 __after_main
00000330 g       .text	00000000 __do_init_stack
0000033e g       .text	00000000 __do_copy_zp_data
000004a3 g     F .text	00000017 __copy_zp_data
00000338 g       .text	00000000 __do_zero_bss
0000047d g     F .text	00000013 __zero_bss
0000033b g       .text	00000000 __do_zero_zp_bss
00000490 g     F .text	00000013 __zero_zp_bss
00002b8f g     F .text	00000005 exit
00000347 g       .text	00000000 _fini
00004f5f g       .rodata	00000000 __set_v
00004cfc  w    F .text	00000020 __memset
00001000  w      *ABS*	00000000 __heap_default_limit
000050b2 g       .noinit	00000000 __heap_start
00004cd0  w    F .text	0000002c memcpy
00000010 g       *ABS*	00000000 __rc0
00000012 g       *ABS*	00000000 __rc2
00000014 g       *ABS*	00000000 __rc4
00000016 g       *ABS*	00000000 __rc6
00000018 g       *ABS*	00000000 __rc8
0000001a g       *ABS*	00000000 __rc10
0000001c g       *ABS*	00000000 __rc12
0000001e g       *ABS*	00000000 __rc14
00000020 g       *ABS*	00000000 __rc16
00000022 g       *ABS*	00000000 __rc18
00000024 g       *ABS*	00000000 __rc20
00000026 g       *ABS*	00000000 __rc22
00000028 g       *ABS*	00000000 __rc24
0000002a g       *ABS*	00000000 __rc26
0000002c g       *ABS*	00000000 __rc28
0000002e g       *ABS*	00000000 __rc30
0000002f g       *ABS*	00000000 __rc31
00000300 g       *ABS*	00000000 __f256_start
0000c000 g       *ABS*	00000000 __stack
0000c000 g       *ABS*	00000000 __SLOT_ADDR
0800c000 g       *ABS*	00000000 __block8_lma
00002000 g       *ABS*	00000000 __BLOCK_SIZE
0900c000 g       *ABS*	00000000 __block9_lma
0a00c000 g       *ABS*	00000000 __block10_lma
0b00c000 g       *ABS*	00000000 __block11_lma
0c00c000 g       *ABS*	00000000 __block12_lma
0d00c000 g       *ABS*	00000000 __block13_lma
0e00c000 g       *ABS*	00000000 __block14_lma
0f00c000 g       *ABS*	00000000 __block15_lma
1000c000 g       *ABS*	00000000 __block16_lma
1100c000 g       *ABS*	00000000 __block17_lma
1200c000 g       *ABS*	00000000 __block18_lma
1300c000 g       *ABS*	00000000 __block19_lma
1400c000 g       *ABS*	00000000 __block20_lma
1500c000 g       *ABS*	00000000 __block21_lma
1600c000 g       *ABS*	00000000 __block22_lma
1700c000 g       *ABS*	00000000 __block23_lma
00010000 g       *ABS*	00000000 __music_lma
0000cf7a g       *ABS*	00000000 __music_size
000050a9 g       .bss	00000000 __bss_start
0001cf7a g       .music	00000000 end_music
00000330 g       .text	00000000 _start
0000002d g       *ABS*	00000000 __rc29
0000002b g       *ABS*	00000000 __rc27
00000029 g       *ABS*	00000000 __rc25
00000027 g       *ABS*	00000000 __rc23
00000025 g       *ABS*	00000000 __rc21
00000023 g       *ABS*	00000000 __rc19
00000021 g       *ABS*	00000000 __rc17
0000001f g       *ABS*	00000000 __rc15
0000001d g       *ABS*	00000000 __rc13
0000001b g       *ABS*	00000000 __rc11
00000019 g       *ABS*	00000000 __rc9
00000017 g       *ABS*	00000000 __rc7
00000015 g       *ABS*	00000000 __rc5
00000013 g       *ABS*	00000000 __rc3
00000011 g       *ABS*	00000000 __rc1
00000030 g       .zp.data	00000000 __zp_data_start
00000300 g       *ABS*	00000000 __zp_data_load_start
00000030 g       *ABS*	00000000 __zp_data_size
00000060 g       .zp.bss	00000000 __zp_bss_start
00000026 g       *ABS*	00000000 __zp_bss_size
00000330 g       .text	00000000 _init
00004f5f g       .text	00000000 __init_array_start
00004f5f g       .text	00000000 __init_array_end
00004f5f g       .text	00000000 __fini_array_start
00004f5f g       .text	00000000 __fini_array_end
000050a9 g       .data	00000000 __data_start
000050a9 g       .data	00000000 __data_end
000050a9 g       *ABS*	00000000 __data_load_start
00000000 g       *ABS*	00000000 __data_size
000050b1 g       .bss	00000000 __bss_end
00000008 g       *ABS*	00000000 __bss_size
000050b1 g       .noinit	00000000 end_block8
000050b1 g       .noinit	00000000 end_block9
000050b1 g       .noinit	00000000 end_block10
000050b1 g       .noinit	00000000 end_block11
000050b1 g       .noinit	00000000 end_block12
000050b1 g       .noinit	00000000 end_block13
000050b1 g       .noinit	00000000 end_block14
000050b1 g       .noinit	00000000 end_block15
000050b1 g       .noinit	00000000 end_block16
000050b1 g       .noinit	00000000 end_block17
000050b1 g       .noinit	00000000 end_block18
000050b1 g       .noinit	00000000 end_block19
000050b1 g       .noinit	00000000 end_block20
000050b1 g       .noinit	00000000 end_block21
000050b1 g       .noinit	00000000 end_block22
000050b1 g       .noinit	00000000 end_block23

Disassembly of section .text:

00000330 <_start>:
     330: a9 00        	lda	#$0
     332: 85 10        	sta	$10                     ; 0x2010 <playMidi+0x176>
     334: a9 c0        	lda	#$c0
     336: 85 11        	sta	$11                     ; 0x2011 <playMidi+0x177>

00000338 <__do_zero_bss>:
     338: 20 7d 04     	jsr	$47d <__zero_bss>

0000033b <__do_zero_zp_bss>:
     33b: 20 90 04     	jsr	$490 <__zero_zp_bss>

0000033e <__do_copy_zp_data>:
     33e: 20 a3 04     	jsr	$4a3 <__copy_zp_data>
     341: 20 fc 08     	jsr	$8fc <main>

00000344 <__after_main>:
     344: 4c 8f 2b     	jmp	$2b8f <exit>

00000347 <_fini>:
     347: 60           	rts

00000348 <_ZN12_GLOBAL__N_19FreeChunk6insertEPvj>:
     348: 85 16        	sta	$16                     ; 0x2016 <playMidi+0x17c>
     34a: 29 fe        	and	#$fe
     34c: 85 14        	sta	$14                     ; 0x2014 <playMidi+0x17a>
     34e: a0 01        	ldy	#$1
     350: 98           	tya
     351: 32 12        	and	($12)                   ; 0x2012 <playMidi+0x178>
     353: 05 14        	ora	$14                     ; 0x2014 <playMidi+0x17a>
     355: 92 12        	sta	($12)                   ; 0x2012 <playMidi+0x178>
     357: a5 12        	lda	$12                     ; 0x2012 <playMidi+0x178>
     359: 18           	clc
     35a: 65 14        	adc	$14                     ; 0x2014 <playMidi+0x17a>
     35c: 85 15        	sta	$15                     ; 0x2015 <playMidi+0x17b>
     35e: 8a           	txa
     35f: 65 13        	adc	$13                     ; 0x2013 <playMidi+0x179>
     361: 85 14        	sta	$14                     ; 0x2014 <playMidi+0x17a>
     363: 18           	clc
     364: a5 15        	lda	$15                     ; 0x2015 <playMidi+0x17b>
     366: 69 fe        	adc	#$fe
     368: 85 17        	sta	$17                     ; 0x2017 <playMidi+0x17d>
     36a: a5 14        	lda	$14                     ; 0x2014 <playMidi+0x17a>
     36c: 69 ff        	adc	#$ff
     36e: 85 15        	sta	$15                     ; 0x2015 <playMidi+0x17b>
     370: a5 17        	lda	$17                     ; 0x2017 <playMidi+0x17d>
     372: 85 14        	sta	$14                     ; 0x2014 <playMidi+0x17a>
     374: 8a           	txa
     375: 91 12        	sta	($12),y                 ; 0x2012 <playMidi+0x178>
     377: a5 16        	lda	$16                     ; 0x2016 <playMidi+0x17c>
     379: 92 14        	sta	($14)                   ; 0x2014 <playMidi+0x17a>
     37b: 8a           	txa
     37c: 91 14        	sta	($14),y                 ; 0x2014 <playMidi+0x17a>
     37e: b1 12        	lda	($12),y                 ; 0x2012 <playMidi+0x178>
     380: 85 14        	sta	$14                     ; 0x2014 <playMidi+0x17a>
     382: a9 fe        	lda	#$fe
     384: 32 12        	and	($12)                   ; 0x2012 <playMidi+0x178>
     386: 18           	clc
     387: 65 82        	adc	$82                     ; 0x2082 <playMidi+0x1e8>
     389: aa           	tax
     38a: a5 14        	lda	$14                     ; 0x2014 <playMidi+0x17a>
     38c: 65 83        	adc	$83                     ; 0x2083 <playMidi+0x1e9>
     38e: a8           	tay
     38f: 18           	clc
     390: 8a           	txa
     391: 69 fe        	adc	#$fe
     393: aa           	tax
     394: 98           	tya
     395: 69 ff        	adc	#$ff
     397: 86 82        	stx	$82                     ; 0x2082 <playMidi+0x1e8>
     399: 85 83        	sta	$83                     ; 0x2083 <playMidi+0x1e9>
     39b: a6 84        	ldx	$84                     ; 0x2084 <playMidi+0x1ea>
     39d: 86 16        	stx	$16                     ; 0x2016 <playMidi+0x17c>
     39f: a4 85        	ldy	$85                     ; 0x2085 <playMidi+0x1eb>
     3a1: a2 00        	ldx	#$0
     3a3: 86 14        	stx	$14                     ; 0x2014 <playMidi+0x17a>
     3a5: a2 00        	ldx	#$0
     3a7: 86 15        	stx	$15                     ; 0x2015 <playMidi+0x17b>
     3a9: c4 15        	cpy	$15                     ; 0x2015 <playMidi+0x17b>
     3ab: d0 3c        	bne	$3e9 <_ZN12_GLOBAL__N_19FreeChunk6insertEPvj+0xa1>
     3ad: a6 16        	ldx	$16                     ; 0x2016 <playMidi+0x17c>
     3af: e4 14        	cpx	$14                     ; 0x2014 <playMidi+0x17a>
     3b1: d0 36        	bne	$3e9 <_ZN12_GLOBAL__N_19FreeChunk6insertEPvj+0xa1>
     3b3: a0 04        	ldy	#$4
     3b5: a5 12        	lda	$12                     ; 0x2012 <playMidi+0x178>
     3b7: 18           	clc
     3b8: 69 04        	adc	#$4
     3ba: 85 14        	sta	$14                     ; 0x2014 <playMidi+0x17a>
     3bc: a5 13        	lda	$13                     ; 0x2013 <playMidi+0x179>
     3be: 69 00        	adc	#$0
     3c0: 18           	clc
     3c1: 85 15        	sta	$15                     ; 0x2015 <playMidi+0x17b>
     3c3: a5 12        	lda	$12                     ; 0x2012 <playMidi+0x178>
     3c5: 91 12        	sta	($12),y                 ; 0x2012 <playMidi+0x178>
     3c7: a0 02        	ldy	#$2
     3c9: 85 17        	sta	$17                     ; 0x2017 <playMidi+0x17d>
     3cb: 69 02        	adc	#$2
     3cd: 85 16        	sta	$16                     ; 0x2016 <playMidi+0x17c>
     3cf: a5 17        	lda	$17                     ; 0x2017 <playMidi+0x17d>
     3d1: 91 12        	sta	($12),y                 ; 0x2012 <playMidi+0x178>
     3d3: a5 13        	lda	$13                     ; 0x2013 <playMidi+0x179>
     3d5: 69 00        	adc	#$0
     3d7: 85 17        	sta	$17                     ; 0x2017 <playMidi+0x17d>
     3d9: 88           	dey
     3da: a5 13        	lda	$13                     ; 0x2013 <playMidi+0x179>
     3dc: 91 14        	sta	($14),y                 ; 0x2014 <playMidi+0x17a>
     3de: 91 16        	sta	($16),y                 ; 0x2016 <playMidi+0x17c>
     3e0: a6 12        	ldx	$12                     ; 0x2012 <playMidi+0x178>
     3e2: 86 84        	stx	$84                     ; 0x2084 <playMidi+0x1ea>
     3e4: a6 13        	ldx	$13                     ; 0x2013 <playMidi+0x179>
     3e6: 86 85        	stx	$85                     ; 0x2085 <playMidi+0x1eb>
     3e8: 60           	rts
     3e9: a6 12        	ldx	$12                     ; 0x2012 <playMidi+0x178>
     3eb: a5 12        	lda	$12                     ; 0x2012 <playMidi+0x178>
     3ed: 18           	clc
     3ee: 69 02        	adc	#$2
     3f0: 85 14        	sta	$14                     ; 0x2014 <playMidi+0x17a>
     3f2: 84 18        	sty	$18                     ; 0x2018 <playMidi+0x17e>
     3f4: a5 13        	lda	$13                     ; 0x2013 <playMidi+0x179>
     3f6: 69 00        	adc	#$0
     3f8: 85 15        	sta	$15                     ; 0x2015 <playMidi+0x17b>
     3fa: a5 16        	lda	$16                     ; 0x2016 <playMidi+0x17c>
     3fc: 84 17        	sty	$17                     ; 0x2017 <playMidi+0x17d>
     3fe: a0 02        	ldy	#$2
     400: 91 12        	sta	($12),y                 ; 0x2012 <playMidi+0x178>
     402: 85 19        	sta	$19                     ; 0x2019 <playMidi+0x17f>
     404: 88           	dey
     405: a5 18        	lda	$18                     ; 0x2018 <playMidi+0x17e>
     407: 91 14        	sta	($14),y                 ; 0x2014 <playMidi+0x17a>
     409: 18           	clc
     40a: a5 19        	lda	$19                     ; 0x2019 <playMidi+0x17f>
     40c: 69 04        	adc	#$4
     40e: a8           	tay
     40f: a5 18        	lda	$18                     ; 0x2018 <playMidi+0x17e>
     411: 69 00        	adc	#$0
     413: 85 19        	sta	$19                     ; 0x2019 <playMidi+0x17f>
     415: 84 18        	sty	$18                     ; 0x2018 <playMidi+0x17e>
     417: 8a           	txa
     418: 18           	clc
     419: 69 04        	adc	#$4
     41b: 85 1a        	sta	$1a                     ; 0x201a <playMidi+0x180>
     41d: a5 13        	lda	$13                     ; 0x2013 <playMidi+0x179>
     41f: 69 00        	adc	#$0
     421: 85 1b        	sta	$1b                     ; 0x201b <playMidi+0x181>
     423: a0 04        	ldy	#$4
     425: b1 16        	lda	($16),y                 ; 0x2016 <playMidi+0x17c>
     427: 85 16        	sta	$16                     ; 0x2016 <playMidi+0x17c>
     429: 85 1d        	sta	$1d                     ; 0x201d <playMidi+0x183>
     42b: a0 01        	ldy	#$1
     42d: b1 18        	lda	($18),y                 ; 0x2018 <playMidi+0x17e>
     42f: 85 17        	sta	$17                     ; 0x2017 <playMidi+0x17d>
     431: 85 19        	sta	$19                     ; 0x2019 <playMidi+0x17f>
     433: a0 04        	ldy	#$4
     435: a5 1d        	lda	$1d                     ; 0x201d <playMidi+0x183>
     437: 91 12        	sta	($12),y                 ; 0x2012 <playMidi+0x178>
     439: a5 19        	lda	$19                     ; 0x2019 <playMidi+0x17f>
     43b: a0 01        	ldy	#$1
     43d: 91 1a        	sta	($1a),y                 ; 0x201a <playMidi+0x180>
     43f: 18           	clc
     440: a5 1d        	lda	$1d                     ; 0x201d <playMidi+0x183>
     442: 69 02        	adc	#$2
     444: 85 18        	sta	$18                     ; 0x2018 <playMidi+0x17e>
     446: a5 19        	lda	$19                     ; 0x2019 <playMidi+0x17f>
     448: 69 00        	adc	#$0
     44a: 85 19        	sta	$19                     ; 0x2019 <playMidi+0x17f>
     44c: 8a           	txa
     44d: c8           	iny
     44e: 91 16        	sta	($16),y                 ; 0x2016 <playMidi+0x17c>
     450: a5 13        	lda	$13                     ; 0x2013 <playMidi+0x179>
     452: 88           	dey
     453: 91 18        	sta	($18),y                 ; 0x2018 <playMidi+0x17e>
     455: c8           	iny
     456: b1 12        	lda	($12),y                 ; 0x2012 <playMidi+0x178>
     458: 85 16        	sta	$16                     ; 0x2016 <playMidi+0x17c>
     45a: 85 18        	sta	$18                     ; 0x2018 <playMidi+0x17e>
     45c: 88           	dey
     45d: b1 14        	lda	($14),y                 ; 0x2014 <playMidi+0x17a>
     45f: 85 17        	sta	$17                     ; 0x2017 <playMidi+0x17d>
     461: 85 14        	sta	$14                     ; 0x2014 <playMidi+0x17a>
     463: 8a           	txa
     464: a0 04        	ldy	#$4
     466: 91 16        	sta	($16),y                 ; 0x2016 <playMidi+0x17c>
     468: 18           	clc
     469: a5 18        	lda	$18                     ; 0x2018 <playMidi+0x17e>
     46b: 69 04        	adc	#$4
     46d: a8           	tay
     46e: a5 14        	lda	$14                     ; 0x2014 <playMidi+0x17a>
     470: 69 00        	adc	#$0
     472: 84 14        	sty	$14                     ; 0x2014 <playMidi+0x17a>
     474: 85 15        	sta	$15                     ; 0x2015 <playMidi+0x17b>
     476: a5 13        	lda	$13                     ; 0x2013 <playMidi+0x179>
     478: a0 01        	ldy	#$1
     47a: 91 14        	sta	($14),y                 ; 0x2014 <playMidi+0x17a>
     47c: 60           	rts

0000047d <__zero_bss>:
     47d: a2 08        	ldx	#$8
     47f: a0 00        	ldy	#$0
     481: a9 a9        	lda	#$a9
     483: 85 12        	sta	$12                     ; 0x2012 <playMidi+0x178>
     485: a9 50        	lda	#$50
     487: 85 13        	sta	$13                     ; 0x2013 <playMidi+0x179>
     489: a9 00        	lda	#$0
     48b: 84 14        	sty	$14                     ; 0x2014 <playMidi+0x17a>
     48d: 4c fc 4c     	jmp	$4cfc <__memset>

00000490 <__zero_zp_bss>:
     490: a2 26        	ldx	#$26
     492: a0 00        	ldy	#$0
     494: a9 60        	lda	#$60
     496: 85 12        	sta	$12                     ; 0x2012 <playMidi+0x178>
     498: a9 00        	lda	#$0
     49a: 85 13        	sta	$13                     ; 0x2013 <playMidi+0x179>
     49c: a9 00        	lda	#$0
     49e: 84 14        	sty	$14                     ; 0x2014 <playMidi+0x17a>
     4a0: 4c fc 4c     	jmp	$4cfc <__memset>

000004a3 <__copy_zp_data>:
     4a3: a9 30        	lda	#$30
     4a5: a2 00        	ldx	#$0
     4a7: a0 30        	ldy	#$30
     4a9: 84 12        	sty	$12                     ; 0x2012 <playMidi+0x178>
     4ab: a0 00        	ldy	#$0
     4ad: 84 13        	sty	$13                     ; 0x2013 <playMidi+0x179>
     4af: a0 00        	ldy	#$0
     4b1: 84 14        	sty	$14                     ; 0x2014 <playMidi+0x17a>
     4b3: a0 03        	ldy	#$3
     4b5: 84 15        	sty	$15                     ; 0x2015 <playMidi+0x17b>
     4b7: 4c d0 4c     	jmp	$4cd0 <memcpy>

000004ba <f256Init>:
     4ba: 18           	clc
     4bb: a5 10        	lda	$10                     ; 0x2010 <playMidi+0x176>
     4bd: 69 f7        	adc	#$f7
     4bf: 85 10        	sta	$10                     ; 0x2010 <playMidi+0x176>
     4c1: a5 11        	lda	$11                     ; 0x2011 <playMidi+0x177>
     4c3: 69 ff        	adc	#$ff
     4c5: 85 11        	sta	$11                     ; 0x2011 <playMidi+0x177>
     4c7: 64 1c        	stz	$1c                     ; 0x201c <playMidi+0x182>
     4c9: a2 00        	ldx	#$0
     4cb: 86 1a        	stx	$1a                     ; 0x201a <playMidi+0x180>
     4cd: a2 d0        	ldx	#$d0
     4cf: 86 1b        	stx	$1b                     ; 0x201b <playMidi+0x181>
     4d1: a2 00        	ldx	#$0
     4d3: 86 16        	stx	$16                     ; 0x2016 <playMidi+0x17c>
     4d5: a2 d8        	ldx	#$d8
     4d7: 86 17        	stx	$17                     ; 0x2017 <playMidi+0x17d>
     4d9: a2 00        	ldx	#$0
     4db: 86 18        	stx	$18                     ; 0x2018 <playMidi+0x17e>
     4dd: a2 d4        	ldx	#$d4
     4df: 86 19        	stx	$19                     ; 0x2019 <playMidi+0x17f>
     4e1: a2 00        	ldx	#$0
     4e3: 86 14        	stx	$14                     ; 0x2014 <playMidi+0x17a>
     4e5: a2 dc        	ldx	#$dc
     4e7: 86 15        	stx	$15                     ; 0x2015 <playMidi+0x17b>
     4e9: a2 00        	ldx	#$0
     4eb: 86 12        	stx	$12                     ; 0x2012 <playMidi+0x178>
     4ed: a2 c0        	ldx	#$c0
     4ef: 86 13        	stx	$13                     ; 0x2013 <playMidi+0x179>
     4f1: 64 01        	stz	$1                      ; 0x2001 <playMidi+0x167>
     4f3: a2 3f        	ldx	#$3f
     4f5: 8e 00 d0     	stx	$d000                   ; 0xd000 <__heap_start+0x7f4e>
     4f8: a2 b3        	ldx	#$b3
     4fa: 86 00        	stx	$0                      ; 0x2000 <playMidi+0x166>
     4fc: 64 08        	stz	$8                      ; 0x2008 <playMidi+0x16e>
     4fe: a2 01        	ldx	#$1
     500: 86 09        	stx	$9                      ; 0x2009 <playMidi+0x16f>
     502: e8           	inx
     503: 86 0a        	stx	$a                      ; 0x200a <playMidi+0x170>
     505: e8           	inx
     506: 86 0b        	stx	$b                      ; 0x200b <playMidi+0x171>
     508: e8           	inx
     509: 86 0c        	stx	$c                      ; 0x200c <playMidi+0x172>
     50b: e8           	inx
     50c: 86 0d        	stx	$d                      ; 0x200d <playMidi+0x173>
     50e: a2 aa        	ldx	#$aa
     510: a9 50        	lda	#$50
     512: 86 f0        	stx	$f0                     ; 0x20f0 <playMidi+0x256>
     514: 85 f1        	sta	$f1                     ; 0x20f1 <playMidi+0x257>
     516: a6 01        	ldx	$1                      ; 0x2001 <playMidi+0x167>
     518: a0 01        	ldy	#$1
     51a: 84 01        	sty	$1                      ; 0x2001 <playMidi+0x167>
     51c: a5 1c        	lda	$1c                     ; 0x201c <playMidi+0x182>
     51e: 92 1a        	sta	($1a)                   ; 0x201a <playMidi+0x180>
     520: 91 1a        	sta	($1a),y                 ; 0x201a <playMidi+0x180>
     522: c8           	iny
     523: 91 1a        	sta	($1a),y                 ; 0x201a <playMidi+0x180>
     525: c8           	iny
     526: a9 ff        	lda	#$ff
     528: 91 1a        	sta	($1a),y                 ; 0x201a <playMidi+0x180>
     52a: 86 01        	stx	$1                      ; 0x2001 <playMidi+0x167>
     52c: a5 1a        	lda	$1a                     ; 0x201a <playMidi+0x180>
     52e: 18           	clc
     52f: 69 04        	adc	#$4
     531: 85 1a        	sta	$1a                     ; 0x201a <playMidi+0x180>
     533: a5 1b        	lda	$1b                     ; 0x201b <playMidi+0x181>
     535: 69 00        	adc	#$0
     537: e6 1c        	inc	$1c                     ; 0x201c <playMidi+0x182>
     539: 85 1b        	sta	$1b                     ; 0x201b <playMidi+0x181>
     53b: d0 d9        	bne	$516 <f256Init+0x5c>
     53d: a9 00        	lda	#$0
     53f: a6 01        	ldx	$1                      ; 0x2001 <playMidi+0x167>
     541: a0 01        	ldy	#$1
     543: 84 01        	sty	$1                      ; 0x2001 <playMidi+0x167>
     545: 92 18        	sta	($18)                   ; 0x2018 <playMidi+0x17e>
     547: 91 18        	sta	($18),y                 ; 0x2018 <playMidi+0x17e>
     549: c8           	iny
     54a: 91 18        	sta	($18),y                 ; 0x2018 <playMidi+0x17e>
     54c: c8           	iny
     54d: 85 1a        	sta	$1a                     ; 0x201a <playMidi+0x180>
     54f: a9 ff        	lda	#$ff
     551: 91 18        	sta	($18),y                 ; 0x2018 <playMidi+0x17e>
     553: 86 01        	stx	$1                      ; 0x2001 <playMidi+0x167>
     555: a5 18        	lda	$18                     ; 0x2018 <playMidi+0x17e>
     557: 18           	clc
     558: 69 04        	adc	#$4
     55a: 85 18        	sta	$18                     ; 0x2018 <playMidi+0x17e>
     55c: a5 19        	lda	$19                     ; 0x2019 <playMidi+0x17f>
     55e: 69 00        	adc	#$0
     560: e6 1a        	inc	$1a                     ; 0x201a <playMidi+0x180>
     562: 85 19        	sta	$19                     ; 0x2019 <playMidi+0x17f>
     564: a5 1a        	lda	$1a                     ; 0x201a <playMidi+0x180>
     566: d0 d7        	bne	$53f <f256Init+0x85>
     568: a9 00        	lda	#$0
     56a: a6 01        	ldx	$1                      ; 0x2001 <playMidi+0x167>
     56c: a0 01        	ldy	#$1
     56e: 84 01        	sty	$1                      ; 0x2001 <playMidi+0x167>
     570: 92 16        	sta	($16)                   ; 0x2016 <playMidi+0x17c>
     572: 91 16        	sta	($16),y                 ; 0x2016 <playMidi+0x17c>
     574: c8           	iny
     575: 91 16        	sta	($16),y                 ; 0x2016 <playMidi+0x17c>
     577: c8           	iny
     578: 85 18        	sta	$18                     ; 0x2018 <playMidi+0x17e>
     57a: a9 ff        	lda	#$ff
     57c: 91 16        	sta	($16),y                 ; 0x2016 <playMidi+0x17c>
     57e: 86 01        	stx	$1                      ; 0x2001 <playMidi+0x167>
     580: a5 16        	lda	$16                     ; 0x2016 <playMidi+0x17c>
     582: 18           	clc
     583: 69 04        	adc	#$4
     585: 85 16        	sta	$16                     ; 0x2016 <playMidi+0x17c>
     587: a5 17        	lda	$17                     ; 0x2017 <playMidi+0x17d>
     589: 69 00        	adc	#$0
     58b: e6 18        	inc	$18                     ; 0x2018 <playMidi+0x17e>
     58d: 85 17        	sta	$17                     ; 0x2017 <playMidi+0x17d>
     58f: a5 18        	lda	$18                     ; 0x2018 <playMidi+0x17e>
     591: d0 d7        	bne	$56a <f256Init+0xb0>
     593: a9 00        	lda	#$0
     595: a6 01        	ldx	$1                      ; 0x2001 <playMidi+0x167>
     597: a0 01        	ldy	#$1
     599: 84 01        	sty	$1                      ; 0x2001 <playMidi+0x167>
     59b: 92 14        	sta	($14)                   ; 0x2014 <playMidi+0x17a>
     59d: 91 14        	sta	($14),y                 ; 0x2014 <playMidi+0x17a>
     59f: c8           	iny
     5a0: 91 14        	sta	($14),y                 ; 0x2014 <playMidi+0x17a>
     5a2: c8           	iny
     5a3: 85 16        	sta	$16                     ; 0x2016 <playMidi+0x17c>
     5a5: a9 ff        	lda	#$ff
     5a7: 91 14        	sta	($14),y                 ; 0x2014 <playMidi+0x17a>
     5a9: 86 01        	stx	$1                      ; 0x2001 <playMidi+0x167>
     5ab: a5 14        	lda	$14                     ; 0x2014 <playMidi+0x17a>
     5ad: 18           	clc
     5ae: 69 04        	adc	#$4
     5b0: 85 14        	sta	$14                     ; 0x2014 <playMidi+0x17a>
     5b2: a5 15        	lda	$15                     ; 0x2015 <playMidi+0x17b>
     5b4: 69 00        	adc	#$0
     5b6: e6 16        	inc	$16                     ; 0x2016 <playMidi+0x17c>
     5b8: 85 15        	sta	$15                     ; 0x2015 <playMidi+0x17b>
     5ba: a5 16        	lda	$16                     ; 0x2016 <playMidi+0x17c>
     5bc: d0 d7        	bne	$595 <f256Init+0xdb>
     5be: ad 02 d0     	lda	$d002                   ; 0xd002 <__heap_start+0x7f50>
     5c1: 29 f0        	and	#$f0
     5c3: 8d 02 d0     	sta	$d002                   ; 0xd002 <__heap_start+0x7f50>
     5c6: ad 02 d0     	lda	$d002                   ; 0xd002 <__heap_start+0x7f50>
     5c9: 29 0f        	and	#$f
     5cb: 09 10        	ora	#$10
     5cd: 8d 02 d0     	sta	$d002                   ; 0xd002 <__heap_start+0x7f50>
     5d0: a2 02        	ldx	#$2
     5d2: 8e 03 d0     	stx	$d003                   ; 0xd003 <__heap_start+0x7f51>
     5d5: ad 01 d0     	lda	$d001                   ; 0xd001 <__heap_start+0x7f4f>
     5d8: 29 f9        	and	#$f9
     5da: 09 04        	ora	#$4
     5dc: 8d 01 d0     	sta	$d001                   ; 0xd001 <__heap_start+0x7f4f>
     5df: 64 14        	stz	$14                     ; 0x2014 <playMidi+0x17a>
     5e1: 9c 10 d0     	stz	$d010                   ; 0xd010 <__heap_start+0x7f5e>
     5e4: a2 00        	ldx	#$0
     5e6: 64 15        	stz	$15                     ; 0x2015 <playMidi+0x17b>
     5e8: 86 18        	stx	$18                     ; 0x2018 <playMidi+0x17e>
     5ea: a4 18        	ldy	$18                     ; 0x2018 <playMidi+0x17e>
     5ec: b6 30        	ldx	$30,y                   ; 0x2030 <playMidi+0x196>
     5ee: 86 19        	stx	$19                     ; 0x2019 <playMidi+0x17f>
     5f0: b6 31        	ldx	$31,y                   ; 0x2031 <playMidi+0x197>
     5f2: 86 1a        	stx	$1a                     ; 0x201a <playMidi+0x180>
     5f4: b6 32        	ldx	$32,y                   ; 0x2032 <playMidi+0x198>
     5f6: 86 1b        	stx	$1b                     ; 0x201b <playMidi+0x181>
     5f8: a6 15        	ldx	$15                     ; 0x2015 <playMidi+0x17b>
     5fa: 8e 00 de     	stx	$de00                   ; 0xde00 <__heap_start+0x8d4e>
     5fd: 86 17        	stx	$17                     ; 0x2017 <playMidi+0x17d>
     5ff: 9c 01 de     	stz	$de01                   ; 0xde01 <__heap_start+0x8d4f>
     602: a2 04        	ldx	#$4
     604: 8e 02 de     	stx	$de02                   ; 0xde02 <__heap_start+0x8d50>
     607: 9c 03 de     	stz	$de03                   ; 0xde03 <__heap_start+0x8d51>
     60a: ad 10 de     	lda	$de10                   ; 0xde10 <__heap_start+0x8d5e>
     60d: ac 11 de     	ldy	$de11                   ; 0xde11 <__heap_start+0x8d5f>
     610: 84 15        	sty	$15                     ; 0x2015 <playMidi+0x17b>
     612: ac 12 de     	ldy	$de12                   ; 0xde12 <__heap_start+0x8d60>
     615: ac 13 de     	ldy	$de13                   ; 0xde13 <__heap_start+0x8d61>
     618: 18           	clc
     619: 65 14        	adc	$14                     ; 0x2014 <playMidi+0x17a>
     61b: 85 16        	sta	$16                     ; 0x2016 <playMidi+0x17c>
     61d: a6 17        	ldx	$17                     ; 0x2017 <playMidi+0x17d>
     61f: a9 d8        	lda	#$d8
     621: 65 15        	adc	$15                     ; 0x2015 <playMidi+0x17b>
     623: 85 17        	sta	$17                     ; 0x2017 <playMidi+0x17d>
     625: a5 1b        	lda	$1b                     ; 0x201b <playMidi+0x181>
     627: 92 16        	sta	($16)                   ; 0x2016 <playMidi+0x17c>
     629: a0 01        	ldy	#$1
     62b: a5 1a        	lda	$1a                     ; 0x201a <playMidi+0x180>
     62d: 91 16        	sta	($16),y                 ; 0x2016 <playMidi+0x17c>
     62f: c8           	iny
     630: a5 19        	lda	$19                     ; 0x2019 <playMidi+0x17f>
     632: 91 16        	sta	($16),y                 ; 0x2016 <playMidi+0x17c>
     634: c8           	iny
     635: a9 ff        	lda	#$ff
     637: 91 16        	sta	($16),y                 ; 0x2016 <playMidi+0x17c>
     639: 8e 00 de     	stx	$de00                   ; 0xde00 <__heap_start+0x8d4e>
     63c: 9c 01 de     	stz	$de01                   ; 0xde01 <__heap_start+0x8d4f>
     63f: c8           	iny
     640: 8c 02 de     	sty	$de02                   ; 0xde02 <__heap_start+0x8d50>
     643: 9c 03 de     	stz	$de03                   ; 0xde03 <__heap_start+0x8d51>
     646: ad 10 de     	lda	$de10                   ; 0xde10 <__heap_start+0x8d5e>
     649: 85 15        	sta	$15                     ; 0x2015 <playMidi+0x17b>
     64b: ad 11 de     	lda	$de11                   ; 0xde11 <__heap_start+0x8d5f>
     64e: 85 16        	sta	$16                     ; 0x2016 <playMidi+0x17c>
     650: a9 40        	lda	#$40
     652: 18           	clc
     653: 65 15        	adc	$15                     ; 0x2015 <playMidi+0x17b>
     655: a8           	tay
     656: a9 d8        	lda	#$d8
     658: 65 16        	adc	$16                     ; 0x2016 <playMidi+0x17c>
     65a: 85 17        	sta	$17                     ; 0x2017 <playMidi+0x17d>
     65c: 84 16        	sty	$16                     ; 0x2016 <playMidi+0x17c>
     65e: ad 12 de     	lda	$de12                   ; 0xde12 <__heap_start+0x8d60>
     661: ad 13 de     	lda	$de13                   ; 0xde13 <__heap_start+0x8d61>
     664: a5 1b        	lda	$1b                     ; 0x201b <playMidi+0x181>
     666: 92 16        	sta	($16)                   ; 0x2016 <playMidi+0x17c>
     668: a5 1a        	lda	$1a                     ; 0x201a <playMidi+0x180>
     66a: a0 01        	ldy	#$1
     66c: 91 16        	sta	($16),y                 ; 0x2016 <playMidi+0x17c>
     66e: a5 19        	lda	$19                     ; 0x2019 <playMidi+0x17f>
     670: c8           	iny
     671: 91 16        	sta	($16),y                 ; 0x2016 <playMidi+0x17c>
     673: c8           	iny
     674: a9 ff        	lda	#$ff
     676: 91 16        	sta	($16),y                 ; 0x2016 <playMidi+0x17c>
     678: e8           	inx
     679: 86 15        	stx	$15                     ; 0x2015 <playMidi+0x17b>
     67b: 18           	clc
     67c: a5 18        	lda	$18                     ; 0x2018 <playMidi+0x17e>
     67e: 69 03        	adc	#$3
     680: aa           	tax
     681: c9 30        	cmp	#$30
     683: f0 03        	beq	$688 <f256Init+0x1ce>
     685: 4c e8 05     	jmp	$5e8 <f256Init+0x12e>
     688: a6 01        	ldx	$1                      ; 0x2001 <playMidi+0x167>
     68a: 86 18        	stx	$18                     ; 0x2018 <playMidi+0x17e>
     68c: a2 50        	ldx	#$50
     68e: 8e 00 de     	stx	$de00                   ; 0xde00 <__heap_start+0x8d4e>
     691: 9c 01 de     	stz	$de01                   ; 0xde01 <__heap_start+0x8d4f>
     694: a2 1e        	ldx	#$1e
     696: 8e 02 de     	stx	$de02                   ; 0xde02 <__heap_start+0x8d50>
     699: 9c 03 de     	stz	$de03                   ; 0xde03 <__heap_start+0x8d51>
     69c: ae 10 de     	ldx	$de10                   ; 0xde10 <__heap_start+0x8d5e>
     69f: ac 11 de     	ldy	$de11                   ; 0xde11 <__heap_start+0x8d5f>
     6a2: ad 12 de     	lda	$de12                   ; 0xde12 <__heap_start+0x8d60>
     6a5: ad 13 de     	lda	$de13                   ; 0xde13 <__heap_start+0x8d61>
     6a8: a9 02        	lda	#$2
     6aa: 85 01        	sta	$1                      ; 0x2001 <playMidi+0x167>
     6ac: e0 01        	cpx	#$1
     6ae: 98           	tya
     6af: e9 00        	sbc	#$0
     6b1: 50 02        	bvc	$6b5 <f256Init+0x1fb>
     6b3: 49 80        	eor	#$80
     6b5: c9 00        	cmp	#$0
     6b7: 10 03        	bpl	$6bc <f256Init+0x202>
     6b9: 4c 13 07     	jmp	$713 <f256Init+0x259>
     6bc: a9 20        	lda	#$20
     6be: 86 19        	stx	$19                     ; 0x2019 <playMidi+0x17f>
     6c0: 86 14        	stx	$14                     ; 0x2014 <playMidi+0x17a>
     6c2: 84 15        	sty	$15                     ; 0x2015 <playMidi+0x17b>
     6c4: a2 00        	ldx	#$0
     6c6: 86 16        	stx	$16                     ; 0x2016 <playMidi+0x17c>
     6c8: a2 c0        	ldx	#$c0
     6ca: 86 17        	stx	$17                     ; 0x2017 <playMidi+0x17d>
     6cc: 80 04        	bra	$6d2 <f256Init+0x218>
     6ce: a6 15        	ldx	$15                     ; 0x2015 <playMidi+0x17b>
     6d0: f0 14        	beq	$6e6 <f256Init+0x22c>
     6d2: 92 16        	sta	($16)                   ; 0x2016 <playMidi+0x17c>
     6d4: e6 16        	inc	$16                     ; 0x2016 <playMidi+0x17c>
     6d6: d0 02        	bne	$6da <f256Init+0x220>
     6d8: e6 17        	inc	$17                     ; 0x2017 <playMidi+0x17d>
     6da: a2 ff        	ldx	#$ff
     6dc: c6 14        	dec	$14                     ; 0x2014 <playMidi+0x17a>
     6de: e4 14        	cpx	$14                     ; 0x2014 <playMidi+0x17a>
     6e0: d0 ec        	bne	$6ce <f256Init+0x214>
     6e2: c6 15        	dec	$15                     ; 0x2015 <playMidi+0x17b>
     6e4: 80 e8        	bra	$6ce <f256Init+0x214>
     6e6: a6 14        	ldx	$14                     ; 0x2014 <playMidi+0x17a>
     6e8: d0 e8        	bne	$6d2 <f256Init+0x218>
     6ea: a2 03        	ldx	#$3
     6ec: 86 01        	stx	$1                      ; 0x2001 <playMidi+0x167>
     6ee: a6 19        	ldx	$19                     ; 0x2019 <playMidi+0x17f>
     6f0: 80 03        	bra	$6f5 <f256Init+0x23b>
     6f2: 98           	tya
     6f3: f0 19        	beq	$70e <f256Init+0x254>
     6f5: a9 f0        	lda	#$f0
     6f7: 92 12        	sta	($12)                   ; 0x2012 <playMidi+0x178>
     6f9: e6 12        	inc	$12                     ; 0x2012 <playMidi+0x178>
     6fb: f0 07        	beq	$704 <f256Init+0x24a>
     6fd: ca           	dex
     6fe: e0 ff        	cpx	#$ff
     700: d0 f0        	bne	$6f2 <f256Init+0x238>
     702: 80 07        	bra	$70b <f256Init+0x251>
     704: e6 13        	inc	$13                     ; 0x2013 <playMidi+0x179>
     706: ca           	dex
     707: e0 ff        	cpx	#$ff
     709: d0 e7        	bne	$6f2 <f256Init+0x238>
     70b: 88           	dey
     70c: 80 e4        	bra	$6f2 <f256Init+0x238>
     70e: 8a           	txa
     70f: d0 e4        	bne	$6f5 <f256Init+0x23b>
     711: 80 04        	bra	$717 <f256Init+0x25d>
     713: a2 03        	ldx	#$3
     715: 86 01        	stx	$1                      ; 0x2001 <playMidi+0x167>
     717: a6 18        	ldx	$18                     ; 0x2018 <playMidi+0x17e>
     719: 86 01        	stx	$1                      ; 0x2001 <playMidi+0x167>
     71b: 64 60        	stz	$60                     ; 0x2060 <playMidi+0x1c6>
     71d: 9c 14 d0     	stz	$d014                   ; 0xd014 <__heap_start+0x7f62>
     720: 9c 15 d0     	stz	$d015                   ; 0xd015 <__heap_start+0x7f63>
     723: 64 61        	stz	$61                     ; 0x2061 <playMidi+0x1c7>
     725: 9c 16 d0     	stz	$d016                   ; 0xd016 <__heap_start+0x7f64>
     728: 9c 17 d0     	stz	$d017                   ; 0xd017 <__heap_start+0x7f65>
     72b: a2 40        	ldx	#$40
     72d: 8e 00 de     	stx	$de00                   ; 0xde00 <__heap_start+0x8d4e>
     730: a2 01        	ldx	#$1
     732: 8e 01 de     	stx	$de01                   ; 0xde01 <__heap_start+0x8d4f>
     735: a2 f0        	ldx	#$f0
     737: 8e 02 de     	stx	$de02                   ; 0xde02 <__heap_start+0x8d50>
     73a: 9c 03 de     	stz	$de03                   ; 0xde03 <__heap_start+0x8d51>
     73d: ae 10 de     	ldx	$de10                   ; 0xde10 <__heap_start+0x8d5e>
     740: 86 17        	stx	$17                     ; 0x2017 <playMidi+0x17d>
     742: ae 11 de     	ldx	$de11                   ; 0xde11 <__heap_start+0x8d5f>
     745: 86 12        	stx	$12                     ; 0x2012 <playMidi+0x178>
     747: ae 12 de     	ldx	$de12                   ; 0xde12 <__heap_start+0x8d60>
     74a: 86 13        	stx	$13                     ; 0x2013 <playMidi+0x179>
     74c: ae 13 de     	ldx	$de13                   ; 0xde13 <__heap_start+0x8d61>
     74f: 86 14        	stx	$14                     ; 0x2014 <playMidi+0x17a>
     751: a4 12        	ldy	$12                     ; 0x2012 <playMidi+0x178>
     753: 84 15        	sty	$15                     ; 0x2015 <playMidi+0x17b>
     755: 06 15        	asl	$15                     ; 0x2015 <playMidi+0x17b>
     757: a5 13        	lda	$13                     ; 0x2013 <playMidi+0x179>
     759: 2a           	rol
     75a: 86 16        	stx	$16                     ; 0x2016 <playMidi+0x17c>
     75c: 26 16        	rol	$16                     ; 0x2016 <playMidi+0x17c>
     75e: 06 15        	asl	$15                     ; 0x2015 <playMidi+0x17b>
     760: 2a           	rol
     761: 26 16        	rol	$16                     ; 0x2016 <playMidi+0x17c>
     763: 06 15        	asl	$15                     ; 0x2015 <playMidi+0x17b>
     765: 2a           	rol
     766: 26 16        	rol	$16                     ; 0x2016 <playMidi+0x17c>
     768: 85 15        	sta	$15                     ; 0x2015 <playMidi+0x17b>
     76a: 8d 00 de     	sta	$de00                   ; 0xde00 <__heap_start+0x8d4e>
     76d: a5 16        	lda	$16                     ; 0x2016 <playMidi+0x17c>
     76f: 8d 01 de     	sta	$de01                   ; 0xde01 <__heap_start+0x8d4f>
     772: 9c 02 de     	stz	$de02                   ; 0xde02 <__heap_start+0x8d50>
     775: a2 20        	ldx	#$20
     777: 8e 03 de     	stx	$de03                   ; 0xde03 <__heap_start+0x8d51>
     77a: ae 10 de     	ldx	$de10                   ; 0xde10 <__heap_start+0x8d5e>
     77d: 86 16        	stx	$16                     ; 0x2016 <playMidi+0x17c>
     77f: ae 11 de     	ldx	$de11                   ; 0xde11 <__heap_start+0x8d5f>
     782: 86 18        	stx	$18                     ; 0x2018 <playMidi+0x17e>
     784: ac 12 de     	ldy	$de12                   ; 0xde12 <__heap_start+0x8d60>
     787: ae 13 de     	ldx	$de13                   ; 0xde13 <__heap_start+0x8d61>
     78a: e4 14        	cpx	$14                     ; 0x2014 <playMidi+0x17a>
     78c: d0 14        	bne	$7a2 <f256Init+0x2e8>
     78e: c4 13        	cpy	$13                     ; 0x2013 <playMidi+0x179>
     790: d0 10        	bne	$7a2 <f256Init+0x2e8>
     792: a6 18        	ldx	$18                     ; 0x2018 <playMidi+0x17e>
     794: e4 12        	cpx	$12                     ; 0x2012 <playMidi+0x178>
     796: d0 0a        	bne	$7a2 <f256Init+0x2e8>
     798: a6 16        	ldx	$16                     ; 0x2016 <playMidi+0x17c>
     79a: e4 17        	cpx	$17                     ; 0x2017 <playMidi+0x17d>
     79c: d0 04        	bne	$7a2 <f256Init+0x2e8>
     79e: a6 15        	ldx	$15                     ; 0x2015 <playMidi+0x17b>
     7a0: 80 06        	bra	$7a8 <f256Init+0x2ee>
     7a2: a6 15        	ldx	$15                     ; 0x2015 <playMidi+0x17b>
     7a4: e8           	inx
     7a5: d0 01        	bne	$7a8 <f256Init+0x2ee>
     7a7: 1a           	inc
     7a8: 8e 00 de     	stx	$de00                   ; 0xde00 <__heap_start+0x8d4e>
     7ab: 8d 01 de     	sta	$de01                   ; 0xde01 <__heap_start+0x8d4f>
     7ae: 9c 02 de     	stz	$de02                   ; 0xde02 <__heap_start+0x8d50>
     7b1: a2 20        	ldx	#$20
     7b3: 8e 03 de     	stx	$de03                   ; 0xde03 <__heap_start+0x8d51>
     7b6: ae 10 de     	ldx	$de10                   ; 0xde10 <__heap_start+0x8d5e>
     7b9: 86 12        	stx	$12                     ; 0x2012 <playMidi+0x178>
     7bb: ae 11 de     	ldx	$de11                   ; 0xde11 <__heap_start+0x8d5f>
     7be: 86 13        	stx	$13                     ; 0x2013 <playMidi+0x179>
     7c0: ae 12 de     	ldx	$de12                   ; 0xde12 <__heap_start+0x8d60>
     7c3: 86 14        	stx	$14                     ; 0x2014 <playMidi+0x17a>
     7c5: ae 13 de     	ldx	$de13                   ; 0xde13 <__heap_start+0x8d61>
     7c8: 86 15        	stx	$15                     ; 0x2015 <playMidi+0x17b>
     7ca: a9 00        	lda	#$0
     7cc: 38           	sec
     7cd: e5 12        	sbc	$12                     ; 0x2012 <playMidi+0x178>
     7cf: 85 19        	sta	$19                     ; 0x2019 <playMidi+0x17f>
     7d1: a9 00        	lda	#$0
     7d3: e5 13        	sbc	$13                     ; 0x2013 <playMidi+0x179>
     7d5: aa           	tax
     7d6: a9 08        	lda	#$8
     7d8: e5 14        	sbc	$14                     ; 0x2014 <playMidi+0x17a>
     7da: 85 16        	sta	$16                     ; 0x2016 <playMidi+0x17c>
     7dc: a9 00        	lda	#$0
     7de: e5 15        	sbc	$15                     ; 0x2015 <playMidi+0x17b>
     7e0: 86 63        	stx	$63                     ; 0x2063 <playMidi+0x1c9>
     7e2: a4 16        	ldy	$16                     ; 0x2016 <playMidi+0x17c>
     7e4: 84 64        	sty	$64                     ; 0x2064 <playMidi+0x1ca>
     7e6: 85 65        	sta	$65                     ; 0x2065 <playMidi+0x1cb>
     7e8: a8           	tay
     7e9: a5 19        	lda	$19                     ; 0x2019 <playMidi+0x17f>
     7eb: 38           	sec
     7ec: e5 12        	sbc	$12                     ; 0x2012 <playMidi+0x178>
     7ee: 85 18        	sta	$18                     ; 0x2018 <playMidi+0x17e>
     7f0: 8a           	txa
     7f1: e5 13        	sbc	$13                     ; 0x2013 <playMidi+0x179>
     7f3: 85 1a        	sta	$1a                     ; 0x201a <playMidi+0x180>
     7f5: a5 16        	lda	$16                     ; 0x2016 <playMidi+0x17c>
     7f7: e5 14        	sbc	$14                     ; 0x2014 <playMidi+0x17a>
     7f9: 85 16        	sta	$16                     ; 0x2016 <playMidi+0x17c>
     7fb: 98           	tya
     7fc: e5 15        	sbc	$15                     ; 0x2015 <playMidi+0x17b>
     7fe: 85 17        	sta	$17                     ; 0x2017 <playMidi+0x17d>
     800: 38           	sec
     801: a4 18        	ldy	$18                     ; 0x2018 <playMidi+0x17e>
     803: 84 66        	sty	$66                     ; 0x2066 <playMidi+0x1cc>
     805: a6 1a        	ldx	$1a                     ; 0x201a <playMidi+0x180>
     807: 86 67        	stx	$67                     ; 0x2067 <playMidi+0x1cd>
     809: a4 16        	ldy	$16                     ; 0x2016 <playMidi+0x17c>
     80b: 84 68        	sty	$68                     ; 0x2068 <playMidi+0x1ce>
     80d: 85 69        	sta	$69                     ; 0x2069 <playMidi+0x1cf>
     80f: a5 18        	lda	$18                     ; 0x2018 <playMidi+0x17e>
     811: e5 12        	sbc	$12                     ; 0x2012 <playMidi+0x178>
     813: 85 18        	sta	$18                     ; 0x2018 <playMidi+0x17e>
     815: a5 1a        	lda	$1a                     ; 0x201a <playMidi+0x180>
     817: e5 13        	sbc	$13                     ; 0x2013 <playMidi+0x179>
     819: a8           	tay
     81a: a5 16        	lda	$16                     ; 0x2016 <playMidi+0x17c>
     81c: e5 14        	sbc	$14                     ; 0x2014 <playMidi+0x17a>
     81e: 85 12        	sta	$12                     ; 0x2012 <playMidi+0x178>
     820: a5 17        	lda	$17                     ; 0x2017 <playMidi+0x17d>
     822: e5 15        	sbc	$15                     ; 0x2015 <playMidi+0x17b>
     824: a6 18        	ldx	$18                     ; 0x2018 <playMidi+0x17e>
     826: 86 6a        	stx	$6a                     ; 0x206a <playMidi+0x1d0>
     828: 84 6b        	sty	$6b                     ; 0x206b <playMidi+0x1d1>
     82a: a6 19        	ldx	$19                     ; 0x2019 <playMidi+0x17f>
     82c: 86 62        	stx	$62                     ; 0x2062 <playMidi+0x1c8>
     82e: a4 12        	ldy	$12                     ; 0x2012 <playMidi+0x178>
     830: 84 6c        	sty	$6c                     ; 0x206c <playMidi+0x1d2>
     832: 85 6d        	sta	$6d                     ; 0x206d <playMidi+0x1d3>
     834: 8e 01 d1     	stx	$d101                   ; 0xd101 <__heap_start+0x804f>
     837: a6 63        	ldx	$63                     ; 0x2063 <playMidi+0x1c9>
     839: 8e 02 d1     	stx	$d102                   ; 0xd102 <__heap_start+0x8050>
     83c: a6 64        	ldx	$64                     ; 0x2064 <playMidi+0x1ca>
     83e: 8e 03 d1     	stx	$d103                   ; 0xd103 <__heap_start+0x8051>
     841: a6 66        	ldx	$66                     ; 0x2066 <playMidi+0x1cc>
     843: 8e 09 d1     	stx	$d109                   ; 0xd109 <__heap_start+0x8057>
     846: a6 67        	ldx	$67                     ; 0x2067 <playMidi+0x1cd>
     848: 8e 0a d1     	stx	$d10a                   ; 0xd10a <__heap_start+0x8058>
     84b: a6 68        	ldx	$68                     ; 0x2068 <playMidi+0x1ce>
     84d: 8e 0b d1     	stx	$d10b                   ; 0xd10b <__heap_start+0x8059>
     850: a6 6a        	ldx	$6a                     ; 0x206a <playMidi+0x1d0>
     852: 8e 11 d1     	stx	$d111                   ; 0xd111 <__heap_start+0x805f>
     855: a6 6b        	ldx	$6b                     ; 0x206b <playMidi+0x1d1>
     857: 8e 12 d1     	stx	$d112                   ; 0xd112 <__heap_start+0x8060>
     85a: a6 6c        	ldx	$6c                     ; 0x206c <playMidi+0x1d2>
     85c: 8e 13 d1     	stx	$d113                   ; 0xd113 <__heap_start+0x8061>
     85f: 9c 00 d1     	stz	$d100                   ; 0xd100 <__heap_start+0x804e>
     862: 9c 08 d1     	stz	$d108                   ; 0xd108 <__heap_start+0x8056>
     865: 9c 10 d1     	stz	$d110                   ; 0xd110 <__heap_start+0x805e>
     868: a2 10        	ldx	#$10
     86a: 8e 00 d2     	stx	$d200                   ; 0xd200 <__heap_start+0x814e>
     86d: 8e 0c d2     	stx	$d20c                   ; 0xd20c <__heap_start+0x815a>
     870: 8e 18 d2     	stx	$d218                   ; 0xd218 <__heap_start+0x8166>
     873: a0 d9        	ldy	#$d9
     875: a2 40        	ldx	#$40
     877: 64 12        	stz	$12                     ; 0x2012 <playMidi+0x178>
     879: 84 13        	sty	$13                     ; 0x2013 <playMidi+0x179>
     87b: a9 00        	lda	#$0
     87d: 92 12        	sta	($12)                   ; 0x2012 <playMidi+0x178>
     87f: ca           	dex
     880: 18           	clc
     881: a5 12        	lda	$12                     ; 0x2012 <playMidi+0x178>
     883: 69 08        	adc	#$8
     885: 85 12        	sta	$12                     ; 0x2012 <playMidi+0x178>
     887: 98           	tya
     888: 69 00        	adc	#$0
     88a: a8           	tay
     88b: 8a           	txa
     88c: d0 eb        	bne	$879 <f256Init+0x3bf>
     88e: 18           	clc
     88f: a5 10        	lda	$10                     ; 0x2010 <playMidi+0x176>
     891: 69 01        	adc	#$1
     893: 85 12        	sta	$12                     ; 0x2012 <playMidi+0x178>
     895: a5 11        	lda	$11                     ; 0x2011 <playMidi+0x177>
     897: 69 00        	adc	#$0
     899: 85 13        	sta	$13                     ; 0x2013 <playMidi+0x179>
     89b: a6 12        	ldx	$12                     ; 0x2012 <playMidi+0x178>
     89d: 86 fb        	stx	$fb                     ; 0x20fb <playMidi+0x261>
     89f: 85 fc        	sta	$fc                     ; 0x20fc <playMidi+0x262>
     8a1: a2 08        	ldx	#$8
     8a3: 86 fd        	stx	$fd                     ; 0x20fd <playMidi+0x263>
     8a5: 18           	clc
     8a6: a6 10        	ldx	$10                     ; 0x2010 <playMidi+0x176>
     8a8: 86 14        	stx	$14                     ; 0x2014 <playMidi+0x17a>
     8aa: a6 11        	ldx	$11                     ; 0x2011 <playMidi+0x177>
     8ac: 86 15        	stx	$15                     ; 0x2015 <playMidi+0x17b>
     8ae: a2 a9        	ldx	#$a9
     8b0: 86 16        	stx	$16                     ; 0x2016 <playMidi+0x17c>
     8b2: a2 50        	ldx	#$50
     8b4: 86 17        	stx	$17                     ; 0x2017 <playMidi+0x17d>
     8b6: a0 06        	ldy	#$6
     8b8: 20 dc ff     	jsr	$ffdc <__heap_start+0xaf2a>
     8bb: 92 14        	sta	($14)                   ; 0x2014 <playMidi+0x17a>
     8bd: a9 00        	lda	#$0
     8bf: 6a           	ror
     8c0: 85 16        	sta	$16                     ; 0x2016 <playMidi+0x17c>
     8c2: b1 12        	lda	($12),y                 ; 0x2012 <playMidi+0x178>
     8c4: 85 14        	sta	$14                     ; 0x2014 <playMidi+0x17a>
     8c6: c8           	iny
     8c7: b1 12        	lda	($12),y                 ; 0x2012 <playMidi+0x178>
     8c9: a6 14        	ldx	$14                     ; 0x2014 <playMidi+0x17a>
     8cb: 8e 00 de     	stx	$de00                   ; 0xde00 <__heap_start+0x8d4e>
     8ce: 9c 01 de     	stz	$de01                   ; 0xde01 <__heap_start+0x8d4f>
     8d1: 8d 02 de     	sta	$de02                   ; 0xde02 <__heap_start+0x8d50>
     8d4: 9c 03 de     	stz	$de03                   ; 0xde03 <__heap_start+0x8d51>
     8d7: ae 10 de     	ldx	$de10                   ; 0xde10 <__heap_start+0x8d5e>
     8da: ac 11 de     	ldy	$de11                   ; 0xde11 <__heap_start+0x8d5f>
     8dd: ad 12 de     	lda	$de12                   ; 0xde12 <__heap_start+0x8d60>
     8e0: ad 13 de     	lda	$de13                   ; 0xde13 <__heap_start+0x8d61>
     8e3: 8e a4 d6     	stx	$d6a4                   ; 0xd6a4 <__heap_start+0x85f2>
     8e6: 8c a5 d6     	sty	$d6a5                   ; 0xd6a5 <__heap_start+0x85f3>
     8e9: a2 03        	ldx	#$3
     8eb: 8e a6 d6     	stx	$d6a6                   ; 0xd6a6 <__heap_start+0x85f4>
     8ee: 18           	clc
     8ef: a5 10        	lda	$10                     ; 0x2010 <playMidi+0x176>
     8f1: 69 09        	adc	#$9
     8f3: 85 10        	sta	$10                     ; 0x2010 <playMidi+0x176>
     8f5: a5 11        	lda	$11                     ; 0x2011 <playMidi+0x177>
     8f7: 69 00        	adc	#$0
     8f9: 85 11        	sta	$11                     ; 0x2011 <playMidi+0x177>
     8fb: 60           	rts

000008fc <main>:
     8fc: 20 ba 04     	jsr	$4ba <f256Init>
     8ff: 20 02 09     	jsr	$902 <f256main>

00000902 <f256main>:
     902: 18           	clc
     903: a5 10        	lda	$10                     ; 0x2010 <playMidi+0x176>
     905: 69 f1        	adc	#$f1
     907: 85 10        	sta	$10                     ; 0x2010 <playMidi+0x176>
     909: a5 11        	lda	$11                     ; 0x2011 <playMidi+0x177>
     90b: 69 ff        	adc	#$ff
     90d: 85 11        	sta	$11                     ; 0x2011 <playMidi+0x177>
     90f: a4 0f        	ldy	$f                      ; 0x200f <playMidi+0x175>
     911: 78           	sei
     912: a9 08        	lda	#$8
     914: 85 0f        	sta	$f                      ; 0x200f <playMidi+0x175>
     916: ae 0a e0     	ldx	$e00a                   ; 0xe00a <__heap_start+0x8f58>
     919: 84 0f        	sty	$f                      ; 0x200f <playMidi+0x175>
     91b: 58           	cli
     91c: a4 0f        	ldy	$f                      ; 0x200f <playMidi+0x175>
     91e: 78           	sei
     91f: 85 0f        	sta	$f                      ; 0x200f <playMidi+0x175>
     921: ad 0b e0     	lda	$e00b                   ; 0xe00b <__heap_start+0x8f59>
     924: 84 0f        	sty	$f                      ; 0x200f <playMidi+0x175>
     926: 58           	cli
     927: 85 70        	sta	$70                     ; 0x2070 <playMidi+0x1d6>
     929: 86 71        	stx	$71                     ; 0x2071 <playMidi+0x1d7>
     92b: a0 16        	ldy	#$16
     92d: 64 13        	stz	$13                     ; 0x2013 <playMidi+0x179>
     92f: 84 12        	sty	$12                     ; 0x2012 <playMidi+0x178>
     931: 20 1c 4d     	jsr	$4d1c <__mulhi3>
     934: 20 e0 49     	jsr	$49e0 <malloc>
     937: a6 12        	ldx	$12                     ; 0x2012 <playMidi+0x178>
     939: a4 13        	ldy	$13                     ; 0x2013 <playMidi+0x179>
     93b: 86 7b        	stx	$7b                     ; 0x207b <playMidi+0x1e1>
     93d: 84 7c        	sty	$7c                     ; 0x207c <playMidi+0x1e2>
     93f: 64 74        	stz	$74                     ; 0x2074 <playMidi+0x1da>
     941: a2 ff        	ldx	#$ff
     943: 86 75        	stx	$75                     ; 0x2075 <playMidi+0x1db>
     945: 86 76        	stx	$76                     ; 0x2076 <playMidi+0x1dc>
     947: 86 77        	stx	$77                     ; 0x2077 <playMidi+0x1dd>
     949: 86 78        	stx	$78                     ; 0x2078 <playMidi+0x1de>
     94b: 64 79        	stz	$79                     ; 0x2079 <playMidi+0x1df>
     94d: 64 7a        	stz	$7a                     ; 0x207a <playMidi+0x1e0>
     94f: a5 70        	lda	$70                     ; 0x2070 <playMidi+0x1d6>
     951: a6 71        	ldx	$71                     ; 0x2071 <playMidi+0x1d7>
     953: 92 10        	sta	($10)                   ; 0x2010 <playMidi+0x176>
     955: a0 01        	ldy	#$1
     957: 8a           	txa
     958: 91 10        	sta	($10),y                 ; 0x2010 <playMidi+0x176>
     95a: a2 52        	ldx	#$52
     95c: 86 12        	stx	$12                     ; 0x2012 <playMidi+0x178>
     95e: a2 50        	ldx	#$50
     960: 86 13        	stx	$13                     ; 0x2013 <playMidi+0x179>
     962: 20 dc 2d     	jsr	$2ddc <printf>
     965: a6 70        	ldx	$70                     ; 0x2070 <playMidi+0x1d6>
     967: 86 26        	stx	$26                     ; 0x2026 <playMidi+0x18c>
     969: a6 71        	ldx	$71                     ; 0x2071 <playMidi+0x1d7>
     96b: 86 27        	stx	$27                     ; 0x2027 <playMidi+0x18d>
     96d: a5 27        	lda	$27                     ; 0x2027 <playMidi+0x18d>
     96f: d0 07        	bne	$978 <f256main+0x76>
     971: a5 26        	lda	$26                     ; 0x2026 <playMidi+0x18c>
     973: d0 03        	bne	$978 <f256main+0x76>
     975: 4c f6 09     	jmp	$9f6 <f256main+0xf4>
     978: a6 7b        	ldx	$7b                     ; 0x207b <playMidi+0x1e1>
     97a: a4 7c        	ldy	$7c                     ; 0x207c <playMidi+0x1e2>
     97c: 86 28        	stx	$28                     ; 0x2028 <playMidi+0x18e>
     97e: 84 29        	sty	$29                     ; 0x2029 <playMidi+0x18f>
     980: 64 14        	stz	$14                     ; 0x2014 <playMidi+0x17a>
     982: a2 00        	ldx	#$0
     984: 8a           	txa
     985: 85 2d        	sta	$2d                     ; 0x202d <playMidi+0x193>
     987: 86 2c        	stx	$2c                     ; 0x202c <playMidi+0x192>
     989: a6 28        	ldx	$28                     ; 0x2028 <playMidi+0x18e>
     98b: 86 24        	stx	$24                     ; 0x2024 <playMidi+0x18a>
     98d: a6 29        	ldx	$29                     ; 0x2029 <playMidi+0x18f>
     98f: 86 25        	stx	$25                     ; 0x2025 <playMidi+0x18b>
     991: a6 26        	ldx	$26                     ; 0x2026 <playMidi+0x18c>
     993: 86 2a        	stx	$2a                     ; 0x202a <playMidi+0x190>
     995: a6 27        	ldx	$27                     ; 0x2027 <playMidi+0x18d>
     997: 86 2b        	stx	$2b                     ; 0x202b <playMidi+0x191>
     999: 80 06        	bra	$9a1 <f256main+0x9f>
     99b: 85 25        	sta	$25                     ; 0x2025 <playMidi+0x18b>
     99d: a5 2b        	lda	$2b                     ; 0x202b <playMidi+0x191>
     99f: f0 32        	beq	$9d3 <f256main+0xd1>
     9a1: a6 24        	ldx	$24                     ; 0x2024 <playMidi+0x18a>
     9a3: 86 12        	stx	$12                     ; 0x2012 <playMidi+0x178>
     9a5: a6 25        	ldx	$25                     ; 0x2025 <playMidi+0x18b>
     9a7: 86 13        	stx	$13                     ; 0x2013 <playMidi+0x179>
     9a9: a2 14        	ldx	#$14
     9ab: a9 00        	lda	#$0
     9ad: 20 fc 4c     	jsr	$4cfc <__memset>
     9b0: a0 14        	ldy	#$14
     9b2: a9 01        	lda	#$1
     9b4: 91 24        	sta	($24),y                 ; 0x2024 <playMidi+0x18a>
     9b6: 3a           	dec
     9b7: c8           	iny
     9b8: 91 24        	sta	($24),y                 ; 0x2024 <playMidi+0x18a>
     9ba: a5 24        	lda	$24                     ; 0x2024 <playMidi+0x18a>
     9bc: 18           	clc
     9bd: 69 16        	adc	#$16
     9bf: 85 24        	sta	$24                     ; 0x2024 <playMidi+0x18a>
     9c1: a5 25        	lda	$25                     ; 0x2025 <playMidi+0x18b>
     9c3: 69 00        	adc	#$0
     9c5: 64 14        	stz	$14                     ; 0x2014 <playMidi+0x17a>
     9c7: a2 ff        	ldx	#$ff
     9c9: c6 2a        	dec	$2a                     ; 0x202a <playMidi+0x190>
     9cb: e4 2a        	cpx	$2a                     ; 0x202a <playMidi+0x190>
     9cd: d0 cc        	bne	$99b <f256main+0x99>
     9cf: c6 2b        	dec	$2b                     ; 0x202b <playMidi+0x191>
     9d1: 80 c8        	bra	$99b <f256main+0x99>
     9d3: a5 2a        	lda	$2a                     ; 0x202a <playMidi+0x190>
     9d5: d0 ca        	bne	$9a1 <f256main+0x9f>
     9d7: a6 2c        	ldx	$2c                     ; 0x202c <playMidi+0x192>
     9d9: a4 2d        	ldy	$2d                     ; 0x202d <playMidi+0x193>
     9db: e8           	inx
     9dc: f0 08        	beq	$9e6 <f256main+0xe4>
     9de: 98           	tya
     9df: c4 27        	cpy	$27                     ; 0x2027 <playMidi+0x18d>
     9e1: f0 0c        	beq	$9ef <f256main+0xed>
     9e3: 4c 85 09     	jmp	$985 <f256main+0x83>
     9e6: c8           	iny
     9e7: 98           	tya
     9e8: c4 27        	cpy	$27                     ; 0x2027 <playMidi+0x18d>
     9ea: f0 03        	beq	$9ef <f256main+0xed>
     9ec: 4c 85 09     	jmp	$985 <f256main+0x83>
     9ef: e4 26        	cpx	$26                     ; 0x2026 <playMidi+0x18c>
     9f1: f0 03        	beq	$9f6 <f256main+0xf4>
     9f3: 4c 85 09     	jmp	$985 <f256main+0x83>
     9f6: a4 0f        	ldy	$f                      ; 0x200f <playMidi+0x175>
     9f8: 78           	sei
     9f9: a9 08        	lda	#$8
     9fb: 85 0f        	sta	$f                      ; 0x200f <playMidi+0x175>
     9fd: ae 0c e0     	ldx	$e00c                   ; 0xe00c <__heap_start+0x8f5a>
     a00: 84 0f        	sty	$f                      ; 0x200f <playMidi+0x175>
     a02: 58           	cli
     a03: a4 0f        	ldy	$f                      ; 0x200f <playMidi+0x175>
     a05: 78           	sei
     a06: 85 0f        	sta	$f                      ; 0x200f <playMidi+0x175>
     a08: ad 0d e0     	lda	$e00d                   ; 0xe00d <__heap_start+0x8f5b>
     a0b: 84 0f        	sty	$f                      ; 0x200f <playMidi+0x175>
     a0d: 58           	cli
     a0e: 85 72        	sta	$72                     ; 0x2072 <playMidi+0x1d8>
     a10: 86 73        	stx	$73                     ; 0x2073 <playMidi+0x1d9>
     a12: a6 70        	ldx	$70                     ; 0x2070 <playMidi+0x1d6>
     a14: a4 71        	ldy	$71                     ; 0x2071 <playMidi+0x1d7>
     a16: d0 06        	bne	$a1e <f256main+0x11c>
     a18: 8a           	txa
     a19: d0 03        	bne	$a1e <f256main+0x11c>
     a1b: 4c 0d 13     	jmp	$130d <f256main+0xa0b>
     a1e: a0 0e        	ldy	#$e
     a20: 64 14        	stz	$14                     ; 0x2014 <playMidi+0x17a>
     a22: a2 08        	ldx	#$8
     a24: 86 17        	stx	$17                     ; 0x2017 <playMidi+0x17d>
     a26: 64 13        	stz	$13                     ; 0x2013 <playMidi+0x179>
     a28: 64 18        	stz	$18                     ; 0x2018 <playMidi+0x17e>
     a2a: 64 2d        	stz	$2d                     ; 0x202d <playMidi+0x193>
     a2c: 64 25        	stz	$25                     ; 0x2025 <playMidi+0x18b>
     a2e: 64 16        	stz	$16                     ; 0x2016 <playMidi+0x17c>
     a30: 98           	tya
     a31: 18           	clc
     a32: 69 00        	adc	#$0
     a34: a5 13        	lda	$13                     ; 0x2013 <playMidi+0x179>
     a36: a6 13        	ldx	$13                     ; 0x2013 <playMidi+0x179>
     a38: 86 1a        	stx	$1a                     ; 0x201a <playMidi+0x180>
     a3a: 69 00        	adc	#$0
     a3c: 85 12        	sta	$12                     ; 0x2012 <playMidi+0x178>
     a3e: a6 18        	ldx	$18                     ; 0x2018 <playMidi+0x17e>
     a40: 86 29        	stx	$29                     ; 0x2029 <playMidi+0x18f>
     a42: a5 18        	lda	$18                     ; 0x2018 <playMidi+0x17e>
     a44: 69 01        	adc	#$1
     a46: a6 0f        	ldx	$f                      ; 0x200f <playMidi+0x175>
     a48: 78           	sei
     a49: 06 12        	asl	$12                     ; 0x2012 <playMidi+0x178>
     a4b: 2a           	rol
     a4c: 06 12        	asl	$12                     ; 0x2012 <playMidi+0x178>
     a4e: 2a           	rol
     a4f: 06 12        	asl	$12                     ; 0x2012 <playMidi+0x178>
     a51: 2a           	rol
     a52: 85 0f        	sta	$f                      ; 0x200f <playMidi+0x175>
     a54: a5 13        	lda	$13                     ; 0x2013 <playMidi+0x179>
     a56: 09 e0        	ora	#$e0
     a58: 84 12        	sty	$12                     ; 0x2012 <playMidi+0x178>
     a5a: 85 13        	sta	$13                     ; 0x2013 <playMidi+0x179>
     a5c: b2 12        	lda	($12)                   ; 0x2012 <playMidi+0x178>
     a5e: 86 0f        	stx	$f                      ; 0x200f <playMidi+0x175>
     a60: 58           	cli
     a61: 98           	tya
     a62: 18           	clc
     a63: 69 01        	adc	#$1
     a65: 85 13        	sta	$13                     ; 0x2013 <playMidi+0x179>
     a67: a5 1a        	lda	$1a                     ; 0x201a <playMidi+0x180>
     a69: 69 00        	adc	#$0
     a6b: 85 18        	sta	$18                     ; 0x2018 <playMidi+0x17e>
     a6d: a5 29        	lda	$29                     ; 0x2029 <playMidi+0x18f>
     a6f: 69 01        	adc	#$1
     a71: a6 0f        	ldx	$f                      ; 0x200f <playMidi+0x175>
     a73: 78           	sei
     a74: 5a           	phy
     a75: a4 18        	ldy	$18                     ; 0x2018 <playMidi+0x17e>
     a77: 84 12        	sty	$12                     ; 0x2012 <playMidi+0x178>
     a79: 06 12        	asl	$12                     ; 0x2012 <playMidi+0x178>
     a7b: 2a           	rol
     a7c: 06 12        	asl	$12                     ; 0x2012 <playMidi+0x178>
     a7e: 2a           	rol
     a7f: 06 12        	asl	$12                     ; 0x2012 <playMidi+0x178>
     a81: 2a           	rol
     a82: 85 0f        	sta	$f                      ; 0x200f <playMidi+0x175>
     a84: a5 18        	lda	$18                     ; 0x2018 <playMidi+0x17e>
     a86: 09 e0        	ora	#$e0
     a88: a4 13        	ldy	$13                     ; 0x2013 <playMidi+0x179>
     a8a: 84 12        	sty	$12                     ; 0x2012 <playMidi+0x178>
     a8c: 7a           	ply
     a8d: 85 13        	sta	$13                     ; 0x2013 <playMidi+0x179>
     a8f: b2 12        	lda	($12)                   ; 0x2012 <playMidi+0x178>
     a91: 86 0f        	stx	$f                      ; 0x200f <playMidi+0x175>
     a93: 58           	cli
     a94: 98           	tya
     a95: 18           	clc
     a96: 69 02        	adc	#$2
     a98: 85 13        	sta	$13                     ; 0x2013 <playMidi+0x179>
     a9a: a5 1a        	lda	$1a                     ; 0x201a <playMidi+0x180>
     a9c: 69 00        	adc	#$0
     a9e: 85 18        	sta	$18                     ; 0x2018 <playMidi+0x17e>
     aa0: a5 29        	lda	$29                     ; 0x2029 <playMidi+0x18f>
     aa2: 69 01        	adc	#$1
     aa4: a6 0f        	ldx	$f                      ; 0x200f <playMidi+0x175>
     aa6: 78           	sei
     aa7: 5a           	phy
     aa8: a4 18        	ldy	$18                     ; 0x2018 <playMidi+0x17e>
     aaa: 84 12        	sty	$12                     ; 0x2012 <playMidi+0x178>
     aac: 06 12        	asl	$12                     ; 0x2012 <playMidi+0x178>
     aae: 2a           	rol
     aaf: 06 12        	asl	$12                     ; 0x2012 <playMidi+0x178>
     ab1: 2a           	rol
     ab2: 06 12        	asl	$12                     ; 0x2012 <playMidi+0x178>
     ab4: 2a           	rol
     ab5: 85 0f        	sta	$f                      ; 0x200f <playMidi+0x175>
     ab7: a5 18        	lda	$18                     ; 0x2018 <playMidi+0x17e>
     ab9: 09 e0        	ora	#$e0
     abb: a4 13        	ldy	$13                     ; 0x2013 <playMidi+0x179>
     abd: 84 12        	sty	$12                     ; 0x2012 <playMidi+0x178>
     abf: 7a           	ply
     ac0: 85 13        	sta	$13                     ; 0x2013 <playMidi+0x179>
     ac2: b2 12        	lda	($12)                   ; 0x2012 <playMidi+0x178>
     ac4: 86 0f        	stx	$f                      ; 0x200f <playMidi+0x175>
     ac6: 58           	cli
     ac7: 98           	tya
     ac8: 18           	clc
     ac9: 69 03        	adc	#$3
     acb: 85 13        	sta	$13                     ; 0x2013 <playMidi+0x179>
     acd: a5 1a        	lda	$1a                     ; 0x201a <playMidi+0x180>
     acf: 69 00        	adc	#$0
     ad1: 85 18        	sta	$18                     ; 0x2018 <playMidi+0x17e>
     ad3: a5 29        	lda	$29                     ; 0x2029 <playMidi+0x18f>
     ad5: 69 01        	adc	#$1
     ad7: a6 0f        	ldx	$f                      ; 0x200f <playMidi+0x175>
     ad9: 78           	sei
     ada: 5a           	phy
     adb: a4 18        	ldy	$18                     ; 0x2018 <playMidi+0x17e>
     add: 84 12        	sty	$12                     ; 0x2012 <playMidi+0x178>
     adf: 06 12        	asl	$12                     ; 0x2012 <playMidi+0x178>
     ae1: 2a           	rol
     ae2: 06 12        	asl	$12                     ; 0x2012 <playMidi+0x178>
     ae4: 2a           	rol
     ae5: 06 12        	asl	$12                     ; 0x2012 <playMidi+0x178>
     ae7: 2a           	rol
     ae8: 85 0f        	sta	$f                      ; 0x200f <playMidi+0x175>
     aea: a5 18        	lda	$18                     ; 0x2018 <playMidi+0x17e>
     aec: 09 e0        	ora	#$e0
     aee: a4 13        	ldy	$13                     ; 0x2013 <playMidi+0x179>
     af0: 84 12        	sty	$12                     ; 0x2012 <playMidi+0x178>
     af2: 7a           	ply
     af3: 85 13        	sta	$13                     ; 0x2013 <playMidi+0x179>
     af5: b2 12        	lda	($12)                   ; 0x2012 <playMidi+0x178>
     af7: 86 0f        	stx	$f                      ; 0x200f <playMidi+0x175>
     af9: 58           	cli
     afa: 98           	tya
     afb: 18           	clc
     afc: 69 04        	adc	#$4
     afe: 85 13        	sta	$13                     ; 0x2013 <playMidi+0x179>
     b00: a5 1a        	lda	$1a                     ; 0x201a <playMidi+0x180>
     b02: 69 00        	adc	#$0
     b04: 85 18        	sta	$18                     ; 0x2018 <playMidi+0x17e>
     b06: a5 29        	lda	$29                     ; 0x2029 <playMidi+0x18f>
     b08: 69 01        	adc	#$1
     b0a: a6 0f        	ldx	$f                      ; 0x200f <playMidi+0x175>
     b0c: 78           	sei
     b0d: 5a           	phy
     b0e: a4 18        	ldy	$18                     ; 0x2018 <playMidi+0x17e>
     b10: 84 12        	sty	$12                     ; 0x2012 <playMidi+0x178>
     b12: 06 12        	asl	$12                     ; 0x2012 <playMidi+0x178>
     b14: 2a           	rol
     b15: 06 12        	asl	$12                     ; 0x2012 <playMidi+0x178>
     b17: 2a           	rol
     b18: 06 12        	asl	$12                     ; 0x2012 <playMidi+0x178>
     b1a: 2a           	rol
     b1b: 85 0f        	sta	$f                      ; 0x200f <playMidi+0x175>
     b1d: a5 18        	lda	$18                     ; 0x2018 <playMidi+0x17e>
     b1f: 09 e0        	ora	#$e0
     b21: a4 13        	ldy	$13                     ; 0x2013 <playMidi+0x179>
     b23: 84 12        	sty	$12                     ; 0x2012 <playMidi+0x178>
     b25: 7a           	ply
     b26: 85 13        	sta	$13                     ; 0x2013 <playMidi+0x179>
     b28: b2 12        	lda	($12)                   ; 0x2012 <playMidi+0x178>
     b2a: 5a           	phy
     b2b: a0 0e        	ldy	#$e
     b2d: 91 10        	sta	($10),y                 ; 0x2010 <playMidi+0x176>
     b2f: 7a           	ply
     b30: 86 0f        	stx	$f                      ; 0x200f <playMidi+0x175>
     b32: 58           	cli
     b33: 98           	tya
     b34: 18           	clc
     b35: 69 05        	adc	#$5
     b37: 85 13        	sta	$13                     ; 0x2013 <playMidi+0x179>
     b39: a5 1a        	lda	$1a                     ; 0x201a <playMidi+0x180>
     b3b: 69 00        	adc	#$0
     b3d: 85 18        	sta	$18                     ; 0x2018 <playMidi+0x17e>
     b3f: a5 29        	lda	$29                     ; 0x2029 <playMidi+0x18f>
     b41: 69 01        	adc	#$1
     b43: a6 0f        	ldx	$f                      ; 0x200f <playMidi+0x175>
     b45: 78           	sei
     b46: 5a           	phy
     b47: a4 18        	ldy	$18                     ; 0x2018 <playMidi+0x17e>
     b49: 84 12        	sty	$12                     ; 0x2012 <playMidi+0x178>
     b4b: 06 12        	asl	$12                     ; 0x2012 <playMidi+0x178>
     b4d: 2a           	rol
     b4e: 06 12        	asl	$12                     ; 0x2012 <playMidi+0x178>
     b50: 2a           	rol
     b51: 06 12        	asl	$12                     ; 0x2012 <playMidi+0x178>
     b53: 2a           	rol
     b54: 85 0f        	sta	$f                      ; 0x200f <playMidi+0x175>
     b56: a5 18        	lda	$18                     ; 0x2018 <playMidi+0x17e>
     b58: 09 e0        	ora	#$e0
     b5a: a4 13        	ldy	$13                     ; 0x2013 <playMidi+0x179>
     b5c: 84 12        	sty	$12                     ; 0x2012 <playMidi+0x178>
     b5e: 7a           	ply
     b5f: 85 13        	sta	$13                     ; 0x2013 <playMidi+0x179>
     b61: b2 12        	lda	($12)                   ; 0x2012 <playMidi+0x178>
     b63: 5a           	phy
     b64: a0 0d        	ldy	#$d
     b66: 91 10        	sta	($10),y                 ; 0x2010 <playMidi+0x176>
     b68: 7a           	ply
     b69: 86 0f        	stx	$f                      ; 0x200f <playMidi+0x175>
     b6b: 58           	cli
     b6c: 98           	tya
     b6d: 18           	clc
     b6e: 69 06        	adc	#$6
     b70: 85 13        	sta	$13                     ; 0x2013 <playMidi+0x179>
     b72: a5 1a        	lda	$1a                     ; 0x201a <playMidi+0x180>
     b74: 69 00        	adc	#$0
     b76: 85 18        	sta	$18                     ; 0x2018 <playMidi+0x17e>
     b78: a5 29        	lda	$29                     ; 0x2029 <playMidi+0x18f>
     b7a: 69 01        	adc	#$1
     b7c: 5a           	phy
     b7d: a6 18        	ldx	$18                     ; 0x2018 <playMidi+0x17e>
     b7f: 86 12        	stx	$12                     ; 0x2012 <playMidi+0x178>
     b81: 06 12        	asl	$12                     ; 0x2012 <playMidi+0x178>
     b83: 2a           	rol
     b84: 06 12        	asl	$12                     ; 0x2012 <playMidi+0x178>
     b86: 2a           	rol
     b87: 06 12        	asl	$12                     ; 0x2012 <playMidi+0x178>
     b89: 2a           	rol
     b8a: a6 0f        	ldx	$f                      ; 0x200f <playMidi+0x175>
     b8c: 78           	sei
     b8d: 85 0f        	sta	$f                      ; 0x200f <playMidi+0x175>
     b8f: a5 18        	lda	$18                     ; 0x2018 <playMidi+0x17e>
     b91: 09 e0        	ora	#$e0
     b93: a4 13        	ldy	$13                     ; 0x2013 <playMidi+0x179>
     b95: 84 12        	sty	$12                     ; 0x2012 <playMidi+0x178>
     b97: 7a           	ply
     b98: 85 13        	sta	$13                     ; 0x2013 <playMidi+0x179>
     b9a: b2 12        	lda	($12)                   ; 0x2012 <playMidi+0x178>
     b9c: 5a           	phy
     b9d: a0 0c        	ldy	#$c
     b9f: 91 10        	sta	($10),y                 ; 0x2010 <playMidi+0x176>
     ba1: 7a           	ply
     ba2: 86 0f        	stx	$f                      ; 0x200f <playMidi+0x175>
     ba4: 98           	tya
     ba5: 18           	clc
     ba6: 69 07        	adc	#$7
     ba8: 85 13        	sta	$13                     ; 0x2013 <playMidi+0x179>
     baa: a5 1a        	lda	$1a                     ; 0x201a <playMidi+0x180>
     bac: 69 00        	adc	#$0
     bae: 85 18        	sta	$18                     ; 0x2018 <playMidi+0x17e>
     bb0: a5 29        	lda	$29                     ; 0x2029 <playMidi+0x18f>
     bb2: 69 01        	adc	#$1
     bb4: 5a           	phy
     bb5: a6 18        	ldx	$18                     ; 0x2018 <playMidi+0x17e>
     bb7: 86 12        	stx	$12                     ; 0x2012 <playMidi+0x178>
     bb9: 06 12        	asl	$12                     ; 0x2012 <playMidi+0x178>
     bbb: 2a           	rol
     bbc: 06 12        	asl	$12                     ; 0x2012 <playMidi+0x178>
     bbe: 2a           	rol
     bbf: 06 12        	asl	$12                     ; 0x2012 <playMidi+0x178>
     bc1: 2a           	rol
     bc2: 58           	cli
     bc3: a6 0f        	ldx	$f                      ; 0x200f <playMidi+0x175>
     bc5: 78           	sei
     bc6: 85 0f        	sta	$f                      ; 0x200f <playMidi+0x175>
     bc8: a5 18        	lda	$18                     ; 0x2018 <playMidi+0x17e>
     bca: 09 e0        	ora	#$e0
     bcc: a4 13        	ldy	$13                     ; 0x2013 <playMidi+0x179>
     bce: 84 12        	sty	$12                     ; 0x2012 <playMidi+0x178>
     bd0: 7a           	ply
     bd1: 85 13        	sta	$13                     ; 0x2013 <playMidi+0x179>
     bd3: b2 12        	lda	($12)                   ; 0x2012 <playMidi+0x178>
     bd5: 85 2b        	sta	$2b                     ; 0x202b <playMidi+0x191>
     bd7: 86 0f        	stx	$f                      ; 0x200f <playMidi+0x175>
     bd9: 58           	cli
     bda: a6 17        	ldx	$17                     ; 0x2017 <playMidi+0x17d>
     bdc: 86 2e        	stx	$2e                     ; 0x202e <playMidi+0x194>
     bde: a5 17        	lda	$17                     ; 0x2017 <playMidi+0x17d>
     be0: 18           	clc
     be1: 65 7b        	adc	$7b                     ; 0x207b <playMidi+0x1e1>
     be3: aa           	tax
     be4: a5 14        	lda	$14                     ; 0x2014 <playMidi+0x17a>
     be6: 85 2f        	sta	$2f                     ; 0x202f <playMidi+0x195>
     be8: a5 14        	lda	$14                     ; 0x2014 <playMidi+0x17a>
     bea: 65 7c        	adc	$7c                     ; 0x207c <playMidi+0x1e2>
     bec: 85 13        	sta	$13                     ; 0x2013 <playMidi+0x179>
     bee: 18           	clc
     bef: 8a           	txa
     bf0: 69 f8        	adc	#$f8
     bf2: 85 12        	sta	$12                     ; 0x2012 <playMidi+0x178>
     bf4: a5 13        	lda	$13                     ; 0x2013 <playMidi+0x179>
     bf6: 69 ff        	adc	#$ff
     bf8: 85 13        	sta	$13                     ; 0x2013 <playMidi+0x179>
     bfa: 18           	clc
     bfb: 98           	tya
     bfc: 69 08        	adc	#$8
     bfe: 85 28        	sta	$28                     ; 0x2028 <playMidi+0x18e>
     c00: a5 1a        	lda	$1a                     ; 0x201a <playMidi+0x180>
     c02: 69 00        	adc	#$0
     c04: a2 01        	ldx	#$1
     c06: b0 02        	bcs	$c0a <f256main+0x308>
     c08: a2 00        	ldx	#$0
     c0a: 86 27        	stx	$27                     ; 0x2027 <playMidi+0x18d>
     c0c: 85 2a        	sta	$2a                     ; 0x202a <playMidi+0x190>
     c0e: a5 29        	lda	$29                     ; 0x2029 <playMidi+0x18f>
     c10: 69 00        	adc	#$0
     c12: aa           	tax
     c13: a5 2d        	lda	$2d                     ; 0x202d <playMidi+0x193>
     c15: 69 00        	adc	#$0
     c17: 85 14        	sta	$14                     ; 0x2014 <playMidi+0x17a>
     c19: a5 2b        	lda	$2b                     ; 0x202b <playMidi+0x191>
     c1b: 92 12        	sta	($12)                   ; 0x2012 <playMidi+0x178>
     c1d: a0 01        	ldy	#$1
     c1f: 5a           	phy
     c20: a0 0c        	ldy	#$c
     c22: b1 10        	lda	($10),y                 ; 0x2010 <playMidi+0x176>
     c24: 7a           	ply
     c25: 91 12        	sta	($12),y                 ; 0x2012 <playMidi+0x178>
     c27: a0 02        	ldy	#$2
     c29: 5a           	phy
     c2a: a0 0d        	ldy	#$d
     c2c: b1 10        	lda	($10),y                 ; 0x2010 <playMidi+0x176>
     c2e: 7a           	ply
     c2f: 91 12        	sta	($12),y                 ; 0x2012 <playMidi+0x178>
     c31: a0 03        	ldy	#$3
     c33: 5a           	phy
     c34: a0 0e        	ldy	#$e
     c36: b1 10        	lda	($10),y                 ; 0x2010 <playMidi+0x176>
     c38: 7a           	ply
     c39: 91 12        	sta	($12),y                 ; 0x2012 <playMidi+0x178>
     c3b: a5 2a        	lda	$2a                     ; 0x202a <playMidi+0x190>
     c3d: a0 0a        	ldy	#$a
     c3f: 91 10        	sta	($10),y                 ; 0x2010 <playMidi+0x176>
     c41: 8a           	txa
     c42: 86 26        	stx	$26                     ; 0x2026 <playMidi+0x18c>
     c44: 48           	pha
     c45: a5 14        	lda	$14                     ; 0x2014 <playMidi+0x17a>
     c47: c8           	iny
     c48: 91 10        	sta	($10),y                 ; 0x2010 <playMidi+0x176>
     c4a: 68           	pla
     c4b: a0 04        	ldy	#$4
     c4d: 91 10        	sta	($10),y                 ; 0x2010 <playMidi+0x176>
     c4f: c8           	iny
     c50: a5 14        	lda	$14                     ; 0x2014 <playMidi+0x17a>
     c52: 91 10        	sta	($10),y                 ; 0x2010 <playMidi+0x176>
     c54: a5 25        	lda	$25                     ; 0x2025 <playMidi+0x18b>
     c56: 92 10        	sta	($10)                   ; 0x2010 <playMidi+0x176>
     c58: a5 16        	lda	$16                     ; 0x2016 <playMidi+0x17c>
     c5a: a0 01        	ldy	#$1
     c5c: 91 10        	sta	($10),y                 ; 0x2010 <playMidi+0x176>
     c5e: 85 24        	sta	$24                     ; 0x2024 <playMidi+0x18a>
     c60: a5 28        	lda	$28                     ; 0x2028 <playMidi+0x18e>
     c62: c8           	iny
     c63: 91 10        	sta	($10),y                 ; 0x2010 <playMidi+0x176>
     c65: a5 2a        	lda	$2a                     ; 0x202a <playMidi+0x190>
     c67: c8           	iny
     c68: 91 10        	sta	($10),y                 ; 0x2010 <playMidi+0x176>
     c6a: a0 06        	ldy	#$6
     c6c: a5 2b        	lda	$2b                     ; 0x202b <playMidi+0x191>
     c6e: 91 10        	sta	($10),y                 ; 0x2010 <playMidi+0x176>
     c70: c8           	iny
     c71: 5a           	phy
     c72: a0 0c        	ldy	#$c
     c74: b1 10        	lda	($10),y                 ; 0x2010 <playMidi+0x176>
     c76: 7a           	ply
     c77: 91 10        	sta	($10),y                 ; 0x2010 <playMidi+0x176>
     c79: a0 08        	ldy	#$8
     c7b: 5a           	phy
     c7c: a0 0d        	ldy	#$d
     c7e: b1 10        	lda	($10),y                 ; 0x2010 <playMidi+0x176>
     c80: 7a           	ply
     c81: 91 10        	sta	($10),y                 ; 0x2010 <playMidi+0x176>
     c83: a0 09        	ldy	#$9
     c85: 5a           	phy
     c86: a0 0e        	ldy	#$e
     c88: b1 10        	lda	($10),y                 ; 0x2010 <playMidi+0x176>
     c8a: 7a           	ply
     c8b: 91 10        	sta	($10),y                 ; 0x2010 <playMidi+0x176>
     c8d: a2 60        	ldx	#$60
     c8f: 86 12        	stx	$12                     ; 0x2012 <playMidi+0x178>
     c91: a2 50        	ldx	#$50
     c93: 86 13        	stx	$13                     ; 0x2013 <playMidi+0x179>
     c95: 20 dc 2d     	jsr	$2ddc <printf>
     c98: a5 29        	lda	$29                     ; 0x2029 <playMidi+0x18f>
     c9a: a6 27        	ldx	$27                     ; 0x2027 <playMidi+0x18d>
     c9c: e0 01        	cpx	#$1
     c9e: 69 01        	adc	#$1
     ca0: 85 14        	sta	$14                     ; 0x2014 <playMidi+0x17a>
     ca2: a5 2d        	lda	$2d                     ; 0x202d <playMidi+0x193>
     ca4: 69 00        	adc	#$0
     ca6: 85 15        	sta	$15                     ; 0x2015 <playMidi+0x17b>
     ca8: a5 2e        	lda	$2e                     ; 0x202e <playMidi+0x194>
     caa: 18           	clc
     cab: 65 7b        	adc	$7b                     ; 0x207b <playMidi+0x1e1>
     cad: 85 12        	sta	$12                     ; 0x2012 <playMidi+0x178>
     caf: a5 2f        	lda	$2f                     ; 0x202f <playMidi+0x195>
     cb1: 65 7c        	adc	$7c                     ; 0x207c <playMidi+0x1e2>
     cb3: 85 13        	sta	$13                     ; 0x2013 <playMidi+0x179>
     cb5: a5 28        	lda	$28                     ; 0x2028 <playMidi+0x18e>
     cb7: 92 12        	sta	($12)                   ; 0x2012 <playMidi+0x178>
     cb9: a5 2a        	lda	$2a                     ; 0x202a <playMidi+0x190>
     cbb: a0 01        	ldy	#$1
     cbd: 91 12        	sta	($12),y                 ; 0x2012 <playMidi+0x178>
     cbf: a5 14        	lda	$14                     ; 0x2014 <playMidi+0x17a>
     cc1: c8           	iny
     cc2: 91 12        	sta	($12),y                 ; 0x2012 <playMidi+0x178>
     cc4: a5 15        	lda	$15                     ; 0x2015 <playMidi+0x17b>
     cc6: c8           	iny
     cc7: 91 12        	sta	($12),y                 ; 0x2012 <playMidi+0x178>
     cc9: a5 2b        	lda	$2b                     ; 0x202b <playMidi+0x191>
     ccb: 18           	clc
     ccc: 65 28        	adc	$28                     ; 0x2028 <playMidi+0x18e>
     cce: a8           	tay
     ccf: 84 21        	sty	$21                     ; 0x2021 <playMidi+0x187>
     cd1: a0 0c        	ldy	#$c
     cd3: b1 10        	lda	($10),y                 ; 0x2010 <playMidi+0x176>
     cd5: 48           	pha
     cd6: a0 0a        	ldy	#$a
     cd8: b1 10        	lda	($10),y                 ; 0x2010 <playMidi+0x176>
     cda: 85 12        	sta	$12                     ; 0x2012 <playMidi+0x178>
     cdc: 68           	pla
     cdd: 65 12        	adc	$12                     ; 0x2012 <playMidi+0x178>
     cdf: 85 13        	sta	$13                     ; 0x2013 <playMidi+0x179>
     ce1: a0 0d        	ldy	#$d
     ce3: b1 10        	lda	($10),y                 ; 0x2010 <playMidi+0x176>
     ce5: 65 26        	adc	$26                     ; 0x2026 <playMidi+0x18c>
     ce7: 85 18        	sta	$18                     ; 0x2018 <playMidi+0x17e>
     ce9: c8           	iny
     cea: b1 10        	lda	($10),y                 ; 0x2010 <playMidi+0x176>
     cec: 48           	pha
     ced: a0 0b        	ldy	#$b
     cef: b1 10        	lda	($10),y                 ; 0x2010 <playMidi+0x176>
     cf1: a4 21        	ldy	$21                     ; 0x2021 <playMidi+0x187>
     cf3: 85 12        	sta	$12                     ; 0x2012 <playMidi+0x178>
     cf5: 68           	pla
     cf6: 65 12        	adc	$12                     ; 0x2012 <playMidi+0x178>
     cf8: 85 2d        	sta	$2d                     ; 0x202d <playMidi+0x193>
     cfa: e6 25        	inc	$25                     ; 0x2025 <playMidi+0x18b>
     cfc: d0 02        	bne	$d00 <f256main+0x3fe>
     cfe: e6 24        	inc	$24                     ; 0x2024 <playMidi+0x18a>
     d00: a6 70        	ldx	$70                     ; 0x2070 <playMidi+0x1d6>
     d02: 86 12        	stx	$12                     ; 0x2012 <playMidi+0x178>
     d04: 18           	clc
     d05: a5 2e        	lda	$2e                     ; 0x202e <playMidi+0x194>
     d07: 69 16        	adc	#$16
     d09: 85 17        	sta	$17                     ; 0x2017 <playMidi+0x17d>
     d0b: a5 2f        	lda	$2f                     ; 0x202f <playMidi+0x195>
     d0d: 69 00        	adc	#$0
     d0f: 85 14        	sta	$14                     ; 0x2014 <playMidi+0x17a>
     d11: a6 24        	ldx	$24                     ; 0x2024 <playMidi+0x18a>
     d13: 86 16        	stx	$16                     ; 0x2016 <playMidi+0x17c>
     d15: e4 71        	cpx	$71                     ; 0x2071 <playMidi+0x1d7>
     d17: d0 09        	bne	$d22 <f256main+0x420>
     d19: a6 25        	ldx	$25                     ; 0x2025 <playMidi+0x18b>
     d1b: e4 12        	cpx	$12                     ; 0x2012 <playMidi+0x178>
     d1d: b0 0a        	bcs	$d29 <f256main+0x427>
     d1f: 4c 30 0a     	jmp	$a30 <f256main+0x12e>
     d22: e4 71        	cpx	$71                     ; 0x2071 <playMidi+0x1d7>
     d24: b0 03        	bcs	$d29 <f256main+0x427>
     d26: 4c 30 0a     	jmp	$a30 <f256main+0x12e>
     d29: a6 71        	ldx	$71                     ; 0x2071 <playMidi+0x1d7>
     d2b: d0 07        	bne	$d34 <f256main+0x432>
     d2d: a5 12        	lda	$12                     ; 0x2012 <playMidi+0x178>
     d2f: d0 03        	bne	$d34 <f256main+0x432>
     d31: 4c 0d 13     	jmp	$130d <f256main+0xa0b>
     d34: 64 24        	stz	$24                     ; 0x2024 <playMidi+0x18a>
     d36: a2 16        	ldx	#$16
     d38: 64 27        	stz	$27                     ; 0x2027 <playMidi+0x18d>
     d3a: a9 00        	lda	#$0
     d3c: a4 7b        	ldy	$7b                     ; 0x207b <playMidi+0x1e1>
     d3e: 84 28        	sty	$28                     ; 0x2028 <playMidi+0x18e>
     d40: a4 7c        	ldy	$7c                     ; 0x207c <playMidi+0x1e2>
     d42: 84 26        	sty	$26                     ; 0x2026 <playMidi+0x18c>
     d44: 86 12        	stx	$12                     ; 0x2012 <playMidi+0x178>
     d46: 64 13        	stz	$13                     ; 0x2013 <playMidi+0x179>
     d48: aa           	tax
     d49: 85 25        	sta	$25                     ; 0x2025 <playMidi+0x18b>
     d4b: a5 27        	lda	$27                     ; 0x2027 <playMidi+0x18d>
     d4d: 20 1c 4d     	jsr	$4d1c <__mulhi3>
     d50: 85 12        	sta	$12                     ; 0x2012 <playMidi+0x178>
     d52: 86 13        	stx	$13                     ; 0x2013 <playMidi+0x179>
     d54: 18           	clc
     d55: a5 28        	lda	$28                     ; 0x2028 <playMidi+0x18e>
     d57: 65 12        	adc	$12                     ; 0x2012 <playMidi+0x178>
     d59: a8           	tay
     d5a: a5 26        	lda	$26                     ; 0x2026 <playMidi+0x18c>
     d5c: 65 13        	adc	$13                     ; 0x2013 <playMidi+0x179>
     d5e: 84 16        	sty	$16                     ; 0x2016 <playMidi+0x17c>
     d60: 84 12        	sty	$12                     ; 0x2012 <playMidi+0x178>
     d62: 85 17        	sta	$17                     ; 0x2017 <playMidi+0x17d>
     d64: 85 13        	sta	$13                     ; 0x2013 <playMidi+0x179>
     d66: a0 15        	ldy	#$15
     d68: b1 12        	lda	($12),y                 ; 0x2012 <playMidi+0x178>
     d6a: f0 03        	beq	$d6f <f256main+0x46d>
     d6c: 4c 5a 12     	jmp	$125a <f256main+0x958>
     d6f: a5 25        	lda	$25                     ; 0x2025 <playMidi+0x18b>
     d71: a0 0e        	ldy	#$e
     d73: 91 10        	sta	($10),y                 ; 0x2010 <playMidi+0x176>
     d75: a6 27        	ldx	$27                     ; 0x2027 <playMidi+0x18d>
     d77: 86 28        	stx	$28                     ; 0x2028 <playMidi+0x18e>
     d79: 18           	clc
     d7a: a5 16        	lda	$16                     ; 0x2016 <playMidi+0x17c>
     d7c: 69 04        	adc	#$4
     d7e: 85 14        	sta	$14                     ; 0x2014 <playMidi+0x17a>
     d80: a5 17        	lda	$17                     ; 0x2017 <playMidi+0x17d>
     d82: 69 00        	adc	#$0
     d84: 85 15        	sta	$15                     ; 0x2015 <playMidi+0x17b>
     d86: a0 03        	ldy	#$3
     d88: b1 14        	lda	($14),y                 ; 0x2014 <playMidi+0x17a>
     d8a: d1 12        	cmp	($12),y                 ; 0x2012 <playMidi+0x178>
     d8c: d0 24        	bne	$db2 <f256main+0x4b0>
     d8e: a0 02        	ldy	#$2
     d90: b1 14        	lda	($14),y                 ; 0x2014 <playMidi+0x17a>
     d92: aa           	tax
     d93: b1 12        	lda	($12),y                 ; 0x2012 <playMidi+0x178>
     d95: 85 16        	sta	$16                     ; 0x2016 <playMidi+0x17c>
     d97: e4 16        	cpx	$16                     ; 0x2016 <playMidi+0x17c>
     d99: d0 1e        	bne	$db9 <f256main+0x4b7>
     d9b: a0 01        	ldy	#$1
     d9d: b1 14        	lda	($14),y                 ; 0x2014 <playMidi+0x17a>
     d9f: aa           	tax
     da0: b1 12        	lda	($12),y                 ; 0x2012 <playMidi+0x178>
     da2: 85 14        	sta	$14                     ; 0x2014 <playMidi+0x17a>
     da4: e4 14        	cpx	$14                     ; 0x2014 <playMidi+0x17a>
     da6: d0 03        	bne	$dab <f256main+0x4a9>
     da8: 4c 66 15     	jmp	$1566 <f256main+0xc64>
     dab: e4 14        	cpx	$14                     ; 0x2014 <playMidi+0x17a>
     dad: 90 11        	bcc	$dc0 <f256main+0x4be>
     daf: 4c 4e 12     	jmp	$124e <f256main+0x94c>
     db2: d1 12        	cmp	($12),y                 ; 0x2012 <playMidi+0x178>
     db4: 90 0a        	bcc	$dc0 <f256main+0x4be>
     db6: 4c 4e 12     	jmp	$124e <f256main+0x94c>
     db9: e4 16        	cpx	$16                     ; 0x2016 <playMidi+0x17c>
     dbb: 90 03        	bcc	$dc0 <f256main+0x4be>
     dbd: 4c 4e 12     	jmp	$124e <f256main+0x94c>
     dc0: 18           	clc
     dc1: a5 27        	lda	$27                     ; 0x2027 <playMidi+0x18d>
     dc3: 69 0f        	adc	#$f
     dc5: 64 60        	stz	$60                     ; 0x2060 <playMidi+0x1c6>
     dc7: 9c 14 d0     	stz	$d014                   ; 0xd014 <__heap_start+0x7f62>
     dca: 9c 15 d0     	stz	$d015                   ; 0xd015 <__heap_start+0x7f63>
     dcd: 85 61        	sta	$61                     ; 0x2061 <playMidi+0x1c7>
     dcf: 8d 16 d0     	sta	$d016                   ; 0xd016 <__heap_start+0x7f64>
     dd2: 9c 17 d0     	stz	$d017                   ; 0xd017 <__heap_start+0x7f65>
     dd5: 4c d9 0e     	jmp	$ed9 <f256main+0x5d7>
     dd8: 85 1b        	sta	$1b                     ; 0x201b <playMidi+0x181>
     dda: a0 04        	ldy	#$4
     ddc: a5 1a        	lda	$1a                     ; 0x201a <playMidi+0x180>
     dde: 91 12        	sta	($12),y                 ; 0x2012 <playMidi+0x178>
     de0: a0 01        	ldy	#$1
     de2: a5 1c        	lda	$1c                     ; 0x201c <playMidi+0x182>
     de4: 91 16        	sta	($16),y                 ; 0x2016 <playMidi+0x17c>
     de6: c8           	iny
     de7: a5 1d        	lda	$1d                     ; 0x201d <playMidi+0x183>
     de9: 91 16        	sta	($16),y                 ; 0x2016 <playMidi+0x17c>
     deb: c8           	iny
     dec: a5 1b        	lda	$1b                     ; 0x201b <playMidi+0x181>
     dee: 91 16        	sta	($16),y                 ; 0x2016 <playMidi+0x17c>
     df0: 18           	clc
     df1: a0 08        	ldy	#$8
     df3: a5 18        	lda	$18                     ; 0x2018 <playMidi+0x17e>
     df5: 71 12        	adc	($12),y                 ; 0x2012 <playMidi+0x178>
     df7: 85 16        	sta	$16                     ; 0x2016 <playMidi+0x17c>
     df9: a5 19        	lda	$19                     ; 0x2019 <playMidi+0x17f>
     dfb: a0 01        	ldy	#$1
     dfd: 71 14        	adc	($14),y                 ; 0x2014 <playMidi+0x17a>
     dff: 85 12        	sta	$12                     ; 0x2012 <playMidi+0x178>
     e01: 8a           	txa
     e02: c8           	iny
     e03: 71 14        	adc	($14),y                 ; 0x2014 <playMidi+0x17a>
     e05: 85 13        	sta	$13                     ; 0x2013 <playMidi+0x179>
     e07: a5 12        	lda	$12                     ; 0x2012 <playMidi+0x178>
     e09: 06 12        	asl	$12                     ; 0x2012 <playMidi+0x178>
     e0b: 26 13        	rol	$13                     ; 0x2013 <playMidi+0x179>
     e0d: 06 12        	asl	$12                     ; 0x2012 <playMidi+0x178>
     e0f: 26 13        	rol	$13                     ; 0x2013 <playMidi+0x179>
     e11: 06 12        	asl	$12                     ; 0x2012 <playMidi+0x178>
     e13: 26 13        	rol	$13                     ; 0x2013 <playMidi+0x179>
     e15: a4 13        	ldy	$13                     ; 0x2013 <playMidi+0x179>
     e17: a6 0f        	ldx	$f                      ; 0x200f <playMidi+0x175>
     e19: 78           	sei
     e1a: 84 0f        	sty	$f                      ; 0x200f <playMidi+0x175>
     e1c: a4 16        	ldy	$16                     ; 0x2016 <playMidi+0x17c>
     e1e: 84 12        	sty	$12                     ; 0x2012 <playMidi+0x178>
     e20: 09 e0        	ora	#$e0
     e22: 85 13        	sta	$13                     ; 0x2013 <playMidi+0x179>
     e24: b2 12        	lda	($12)                   ; 0x2012 <playMidi+0x178>
     e26: 86 0f        	stx	$f                      ; 0x200f <playMidi+0x175>
     e28: 58           	cli
     e29: aa           	tax
     e2a: 10 03        	bpl	$e2f <f256main+0x52d>
     e2c: 4c 4d 0f     	jmp	$f4d <f256main+0x64b>
     e2f: 85 2b        	sta	$2b                     ; 0x202b <playMidi+0x191>
     e31: 64 2c        	stz	$2c                     ; 0x202c <playMidi+0x192>
     e33: 64 17        	stz	$17                     ; 0x2017 <playMidi+0x17d>
     e35: a9 00        	lda	#$0
     e37: 64 2e        	stz	$2e                     ; 0x202e <playMidi+0x194>
     e39: 64 25        	stz	$25                     ; 0x2025 <playMidi+0x18b>
     e3b: 64 12        	stz	$12                     ; 0x2012 <playMidi+0x178>
     e3d: 64 13        	stz	$13                     ; 0x2013 <playMidi+0x179>
     e3f: 64 14        	stz	$14                     ; 0x2014 <playMidi+0x17a>
     e41: aa           	tax
     e42: 85 16        	sta	$16                     ; 0x2016 <playMidi+0x17c>
     e44: a5 2b        	lda	$2b                     ; 0x202b <playMidi+0x191>
     e46: 05 16        	ora	$16                     ; 0x2016 <playMidi+0x17c>
     e48: a8           	tay
     e49: 8a           	txa
     e4a: 05 2e        	ora	$2e                     ; 0x202e <playMidi+0x194>
     e4c: aa           	tax
     e4d: a5 2c        	lda	$2c                     ; 0x202c <playMidi+0x192>
     e4f: 05 25        	ora	$25                     ; 0x2025 <playMidi+0x18b>
     e51: 85 16        	sta	$16                     ; 0x2016 <playMidi+0x17c>
     e53: 98           	tya
     e54: 05 12        	ora	$12                     ; 0x2012 <playMidi+0x178>
     e56: a8           	tay
     e57: 8a           	txa
     e58: 05 13        	ora	$13                     ; 0x2013 <playMidi+0x179>
     e5a: 85 15        	sta	$15                     ; 0x2015 <playMidi+0x17b>
     e5c: 98           	tya
     e5d: 05 14        	ora	$14                     ; 0x2014 <playMidi+0x17a>
     e5f: 85 14        	sta	$14                     ; 0x2014 <playMidi+0x17a>
     e61: a5 7d        	lda	$7d                     ; 0x207d <playMidi+0x1e3>
     e63: a6 7e        	ldx	$7e                     ; 0x207e <playMidi+0x1e4>
     e65: 86 18        	stx	$18                     ; 0x2018 <playMidi+0x17e>
     e67: a4 7f        	ldy	$7f                     ; 0x207f <playMidi+0x1e5>
     e69: a6 80        	ldx	$80                     ; 0x2080 <playMidi+0x1e6>
     e6b: 84 12        	sty	$12                     ; 0x2012 <playMidi+0x178>
     e6d: 86 13        	stx	$13                     ; 0x2013 <playMidi+0x179>
     e6f: a6 18        	ldx	$18                     ; 0x2018 <playMidi+0x17e>
     e71: 20 4e 4d     	jsr	$4d4e <__mulsi3>
     e74: 85 25        	sta	$25                     ; 0x2025 <playMidi+0x18b>
     e76: 86 26        	stx	$26                     ; 0x2026 <playMidi+0x18c>
     e78: a6 12        	ldx	$12                     ; 0x2012 <playMidi+0x178>
     e7a: 86 29        	stx	$29                     ; 0x2029 <playMidi+0x18f>
     e7c: a6 13        	ldx	$13                     ; 0x2013 <playMidi+0x179>
     e7e: 86 2a        	stx	$2a                     ; 0x202a <playMidi+0x190>
     e80: a6 7b        	ldx	$7b                     ; 0x207b <playMidi+0x1e1>
     e82: 86 2c        	stx	$2c                     ; 0x202c <playMidi+0x192>
     e84: a6 7c        	ldx	$7c                     ; 0x207c <playMidi+0x1e2>
     e86: 86 2b        	stx	$2b                     ; 0x202b <playMidi+0x191>
     e88: a2 16        	ldx	#$16
     e8a: 86 12        	stx	$12                     ; 0x2012 <playMidi+0x178>
     e8c: 64 13        	stz	$13                     ; 0x2013 <playMidi+0x179>
     e8e: a2 00        	ldx	#$0
     e90: a4 28        	ldy	$28                     ; 0x2028 <playMidi+0x18e>
     e92: 84 27        	sty	$27                     ; 0x2027 <playMidi+0x18d>
     e94: a5 28        	lda	$28                     ; 0x2028 <playMidi+0x18e>
     e96: 20 1c 4d     	jsr	$4d1c <__mulhi3>
     e99: 85 12        	sta	$12                     ; 0x2012 <playMidi+0x178>
     e9b: 86 13        	stx	$13                     ; 0x2013 <playMidi+0x179>
     e9d: 18           	clc
     e9e: a5 2c        	lda	$2c                     ; 0x202c <playMidi+0x192>
     ea0: 65 12        	adc	$12                     ; 0x2012 <playMidi+0x178>
     ea2: a8           	tay
     ea3: a5 2b        	lda	$2b                     ; 0x202b <playMidi+0x191>
     ea5: 65 13        	adc	$13                     ; 0x2013 <playMidi+0x179>
     ea7: aa           	tax
     ea8: 98           	tya
     ea9: 84 12        	sty	$12                     ; 0x2012 <playMidi+0x178>
     eab: 86 13        	stx	$13                     ; 0x2013 <playMidi+0x179>
     ead: 18           	clc
     eae: 69 0c        	adc	#$c
     eb0: 85 14        	sta	$14                     ; 0x2014 <playMidi+0x17a>
     eb2: 8a           	txa
     eb3: 69 00        	adc	#$0
     eb5: 85 15        	sta	$15                     ; 0x2015 <playMidi+0x17b>
     eb7: a0 0c        	ldy	#$c
     eb9: a5 25        	lda	$25                     ; 0x2025 <playMidi+0x18b>
     ebb: 91 12        	sta	($12),y                 ; 0x2012 <playMidi+0x178>
     ebd: a0 01        	ldy	#$1
     ebf: a5 26        	lda	$26                     ; 0x2026 <playMidi+0x18c>
     ec1: 91 14        	sta	($14),y                 ; 0x2014 <playMidi+0x17a>
     ec3: c8           	iny
     ec4: a5 29        	lda	$29                     ; 0x2029 <playMidi+0x18f>
     ec6: 91 14        	sta	($14),y                 ; 0x2014 <playMidi+0x17a>
     ec8: c8           	iny
     ec9: a5 2a        	lda	$2a                     ; 0x202a <playMidi+0x190>
     ecb: 91 14        	sta	($14),y                 ; 0x2014 <playMidi+0x17a>
     ecd: a5 28        	lda	$28                     ; 0x2028 <playMidi+0x18e>
     ecf: 20 a0 15     	jsr	$15a0 <readMIDICmd>
     ed2: c9 01        	cmp	#$1
     ed4: f0 03        	beq	$ed9 <f256main+0x5d7>
     ed6: 4c 1a 12     	jmp	$121a <f256main+0x918>
     ed9: a6 7b        	ldx	$7b                     ; 0x207b <playMidi+0x1e1>
     edb: 86 26        	stx	$26                     ; 0x2026 <playMidi+0x18c>
     edd: a6 7c        	ldx	$7c                     ; 0x207c <playMidi+0x1e2>
     edf: 86 25        	stx	$25                     ; 0x2025 <playMidi+0x18b>
     ee1: a2 16        	ldx	#$16
     ee3: 86 12        	stx	$12                     ; 0x2012 <playMidi+0x178>
     ee5: 64 13        	stz	$13                     ; 0x2013 <playMidi+0x179>
     ee7: a2 00        	ldx	#$0
     ee9: a5 27        	lda	$27                     ; 0x2027 <playMidi+0x18d>
     eeb: 20 1c 4d     	jsr	$4d1c <__mulhi3>
     eee: 85 12        	sta	$12                     ; 0x2012 <playMidi+0x178>
     ef0: 86 13        	stx	$13                     ; 0x2013 <playMidi+0x179>
     ef2: 18           	clc
     ef3: a5 26        	lda	$26                     ; 0x2026 <playMidi+0x18c>
     ef5: 65 12        	adc	$12                     ; 0x2012 <playMidi+0x178>
     ef7: a8           	tay
     ef8: a5 25        	lda	$25                     ; 0x2025 <playMidi+0x18b>
     efa: 65 13        	adc	$13                     ; 0x2013 <playMidi+0x179>
     efc: aa           	tax
     efd: 84 12        	sty	$12                     ; 0x2012 <playMidi+0x178>
     eff: 85 13        	sta	$13                     ; 0x2013 <playMidi+0x179>
     f01: 98           	tya
     f02: 18           	clc
     f03: 69 08        	adc	#$8
     f05: 85 14        	sta	$14                     ; 0x2014 <playMidi+0x17a>
     f07: 8a           	txa
     f08: 69 00        	adc	#$0
     f0a: 85 15        	sta	$15                     ; 0x2015 <playMidi+0x17b>
     f0c: 18           	clc
     f0d: 98           	tya
     f0e: 69 04        	adc	#$4
     f10: 85 16        	sta	$16                     ; 0x2016 <playMidi+0x17c>
     f12: 8a           	txa
     f13: 69 00        	adc	#$0
     f15: 85 17        	sta	$17                     ; 0x2017 <playMidi+0x17d>
     f17: a0 04        	ldy	#$4
     f19: b1 12        	lda	($12),y                 ; 0x2012 <playMidi+0x178>
     f1b: 85 18        	sta	$18                     ; 0x2018 <playMidi+0x17e>
     f1d: a0 01        	ldy	#$1
     f1f: b1 16        	lda	($16),y                 ; 0x2016 <playMidi+0x17c>
     f21: 85 19        	sta	$19                     ; 0x2019 <playMidi+0x17f>
     f23: c8           	iny
     f24: b1 16        	lda	($16),y                 ; 0x2016 <playMidi+0x17c>
     f26: aa           	tax
     f27: c8           	iny
     f28: b1 16        	lda	($16),y                 ; 0x2016 <playMidi+0x17c>
     f2a: a4 18        	ldy	$18                     ; 0x2018 <playMidi+0x17e>
     f2c: 84 1a        	sty	$1a                     ; 0x201a <playMidi+0x180>
     f2e: a4 19        	ldy	$19                     ; 0x2019 <playMidi+0x17f>
     f30: 84 1c        	sty	$1c                     ; 0x201c <playMidi+0x182>
     f32: 86 1d        	stx	$1d                     ; 0x201d <playMidi+0x183>
     f34: e6 1a        	inc	$1a                     ; 0x201a <playMidi+0x180>
     f36: f0 03        	beq	$f3b <f256main+0x639>
     f38: 4c d8 0d     	jmp	$dd8 <f256main+0x4d6>
     f3b: e6 1c        	inc	$1c                     ; 0x201c <playMidi+0x182>
     f3d: f0 03        	beq	$f42 <f256main+0x640>
     f3f: 4c d8 0d     	jmp	$dd8 <f256main+0x4d6>
     f42: e6 1d        	inc	$1d                     ; 0x201d <playMidi+0x183>
     f44: f0 03        	beq	$f49 <f256main+0x647>
     f46: 4c d8 0d     	jmp	$dd8 <f256main+0x4d6>
     f49: 1a           	inc
     f4a: 4c d8 0d     	jmp	$dd8 <f256main+0x4d6>
     f4d: 4a           	lsr
     f4e: aa           	tax
     f4f: a9 00        	lda	#$0
     f51: 6a           	ror
     f52: 29 80        	and	#$80
     f54: 85 2a        	sta	$2a                     ; 0x202a <playMidi+0x190>
     f56: 8a           	txa
     f57: 29 3f        	and	#$3f
     f59: 85 29        	sta	$29                     ; 0x2029 <playMidi+0x18f>
     f5b: a6 7b        	ldx	$7b                     ; 0x207b <playMidi+0x1e1>
     f5d: 86 26        	stx	$26                     ; 0x2026 <playMidi+0x18c>
     f5f: a6 7c        	ldx	$7c                     ; 0x207c <playMidi+0x1e2>
     f61: 86 25        	stx	$25                     ; 0x2025 <playMidi+0x18b>
     f63: a2 16        	ldx	#$16
     f65: 86 12        	stx	$12                     ; 0x2012 <playMidi+0x178>
     f67: 64 13        	stz	$13                     ; 0x2013 <playMidi+0x179>
     f69: a2 00        	ldx	#$0
     f6b: a5 27        	lda	$27                     ; 0x2027 <playMidi+0x18d>
     f6d: 20 1c 4d     	jsr	$4d1c <__mulhi3>
     f70: a0 04        	ldy	#$4
     f72: 85 12        	sta	$12                     ; 0x2012 <playMidi+0x178>
     f74: 86 13        	stx	$13                     ; 0x2013 <playMidi+0x179>
     f76: 18           	clc
     f77: a5 26        	lda	$26                     ; 0x2026 <playMidi+0x18c>
     f79: 65 12        	adc	$12                     ; 0x2012 <playMidi+0x178>
     f7b: 85 12        	sta	$12                     ; 0x2012 <playMidi+0x178>
     f7d: a5 25        	lda	$25                     ; 0x2025 <playMidi+0x18b>
     f7f: 65 13        	adc	$13                     ; 0x2013 <playMidi+0x179>
     f81: aa           	tax
     f82: a5 12        	lda	$12                     ; 0x2012 <playMidi+0x178>
     f84: 86 13        	stx	$13                     ; 0x2013 <playMidi+0x179>
     f86: 18           	clc
     f87: 85 16        	sta	$16                     ; 0x2016 <playMidi+0x17c>
     f89: 69 08        	adc	#$8
     f8b: 85 14        	sta	$14                     ; 0x2014 <playMidi+0x17a>
     f8d: 8a           	txa
     f8e: 69 00        	adc	#$0
     f90: 85 15        	sta	$15                     ; 0x2015 <playMidi+0x17b>
     f92: 18           	clc
     f93: a5 16        	lda	$16                     ; 0x2016 <playMidi+0x17c>
     f95: 69 04        	adc	#$4
     f97: 85 16        	sta	$16                     ; 0x2016 <playMidi+0x17c>
     f99: 8a           	txa
     f9a: 69 00        	adc	#$0
     f9c: 85 17        	sta	$17                     ; 0x2017 <playMidi+0x17d>
     f9e: b1 12        	lda	($12),y                 ; 0x2012 <playMidi+0x178>
     fa0: 85 18        	sta	$18                     ; 0x2018 <playMidi+0x17e>
     fa2: a0 01        	ldy	#$1
     fa4: b1 16        	lda	($16),y                 ; 0x2016 <playMidi+0x17c>
     fa6: 85 19        	sta	$19                     ; 0x2019 <playMidi+0x17f>
     fa8: c8           	iny
     fa9: b1 16        	lda	($16),y                 ; 0x2016 <playMidi+0x17c>
     fab: aa           	tax
     fac: c8           	iny
     fad: b1 16        	lda	($16),y                 ; 0x2016 <playMidi+0x17c>
     faf: 85 1b        	sta	$1b                     ; 0x201b <playMidi+0x181>
     fb1: 86 1a        	stx	$1a                     ; 0x201a <playMidi+0x180>
     fb3: a5 18        	lda	$18                     ; 0x2018 <playMidi+0x17e>
     fb5: a4 19        	ldy	$19                     ; 0x2019 <playMidi+0x17f>
     fb7: 84 1c        	sty	$1c                     ; 0x201c <playMidi+0x182>
     fb9: 1a           	inc
     fba: d0 0a        	bne	$fc6 <f256main+0x6c4>
     fbc: e6 1c        	inc	$1c                     ; 0x201c <playMidi+0x182>
     fbe: d0 06        	bne	$fc6 <f256main+0x6c4>
     fc0: e6 1a        	inc	$1a                     ; 0x201a <playMidi+0x180>
     fc2: d0 02        	bne	$fc6 <f256main+0x6c4>
     fc4: e6 1b        	inc	$1b                     ; 0x201b <playMidi+0x181>
     fc6: a0 04        	ldy	#$4
     fc8: 91 12        	sta	($12),y                 ; 0x2012 <playMidi+0x178>
     fca: a0 01        	ldy	#$1
     fcc: a5 1c        	lda	$1c                     ; 0x201c <playMidi+0x182>
     fce: 91 16        	sta	($16),y                 ; 0x2016 <playMidi+0x17c>
     fd0: c8           	iny
     fd1: a5 1a        	lda	$1a                     ; 0x201a <playMidi+0x180>
     fd3: 91 16        	sta	($16),y                 ; 0x2016 <playMidi+0x17c>
     fd5: c8           	iny
     fd6: a5 1b        	lda	$1b                     ; 0x201b <playMidi+0x181>
     fd8: 91 16        	sta	($16),y                 ; 0x2016 <playMidi+0x17c>
     fda: 18           	clc
     fdb: a5 18        	lda	$18                     ; 0x2018 <playMidi+0x17e>
     fdd: a0 08        	ldy	#$8
     fdf: 71 12        	adc	($12),y                 ; 0x2012 <playMidi+0x178>
     fe1: 85 13        	sta	$13                     ; 0x2013 <playMidi+0x179>
     fe3: a5 19        	lda	$19                     ; 0x2019 <playMidi+0x17f>
     fe5: a0 01        	ldy	#$1
     fe7: 71 14        	adc	($14),y                 ; 0x2014 <playMidi+0x17a>
     fe9: 85 12        	sta	$12                     ; 0x2012 <playMidi+0x178>
     feb: c8           	iny
     fec: 8a           	txa
     fed: 71 14        	adc	($14),y                 ; 0x2014 <playMidi+0x17a>
     fef: 85 14        	sta	$14                     ; 0x2014 <playMidi+0x17a>
     ff1: a5 12        	lda	$12                     ; 0x2012 <playMidi+0x178>
     ff3: 06 12        	asl	$12                     ; 0x2012 <playMidi+0x178>
     ff5: 26 14        	rol	$14                     ; 0x2014 <playMidi+0x17a>
     ff7: 06 12        	asl	$12                     ; 0x2012 <playMidi+0x178>
     ff9: 26 14        	rol	$14                     ; 0x2014 <playMidi+0x17a>
     ffb: 06 12        	asl	$12                     ; 0x2012 <playMidi+0x178>
     ffd: 26 14        	rol	$14                     ; 0x2014 <playMidi+0x17a>
     fff: a4 14        	ldy	$14                     ; 0x2014 <playMidi+0x17a>
    1001: a6 0f        	ldx	$f                      ; 0x200f <playMidi+0x175>
    1003: 78           	sei
    1004: 84 0f        	sty	$f                      ; 0x200f <playMidi+0x175>
    1006: a4 13        	ldy	$13                     ; 0x2013 <playMidi+0x179>
    1008: 84 12        	sty	$12                     ; 0x2012 <playMidi+0x178>
    100a: 09 e0        	ora	#$e0
    100c: 85 13        	sta	$13                     ; 0x2013 <playMidi+0x179>
    100e: b2 12        	lda	($12)                   ; 0x2012 <playMidi+0x178>
    1010: 86 0f        	stx	$f                      ; 0x200f <playMidi+0x175>
    1012: 58           	cli
    1013: aa           	tax
    1014: 30 17        	bmi	$102d <f256main+0x72b>
    1016: a6 2a        	ldx	$2a                     ; 0x202a <playMidi+0x190>
    1018: 86 2b        	stx	$2b                     ; 0x202b <playMidi+0x191>
    101a: 64 17        	stz	$17                     ; 0x2017 <playMidi+0x17d>
    101c: 64 2e        	stz	$2e                     ; 0x202e <playMidi+0x194>
    101e: 64 25        	stz	$25                     ; 0x2025 <playMidi+0x18b>
    1020: 64 12        	stz	$12                     ; 0x2012 <playMidi+0x178>
    1022: 64 2c        	stz	$2c                     ; 0x202c <playMidi+0x192>
    1024: 64 13        	stz	$13                     ; 0x2013 <playMidi+0x179>
    1026: 64 14        	stz	$14                     ; 0x2014 <playMidi+0x17a>
    1028: a6 29        	ldx	$29                     ; 0x2029 <playMidi+0x18f>
    102a: 4c 42 0e     	jmp	$e42 <f256main+0x540>
    102d: 64 13        	stz	$13                     ; 0x2013 <playMidi+0x179>
    102f: 4a           	lsr
    1030: aa           	tax
    1031: a9 00        	lda	#$0
    1033: 6a           	ror
    1034: 29 80        	and	#$80
    1036: 85 26        	sta	$26                     ; 0x2026 <playMidi+0x18c>
    1038: 8a           	txa
    1039: 29 3f        	and	#$3f
    103b: 85 2e        	sta	$2e                     ; 0x202e <playMidi+0x194>
    103d: a6 29        	ldx	$29                     ; 0x2029 <playMidi+0x18f>
    103f: 86 2c        	stx	$2c                     ; 0x202c <playMidi+0x192>
    1041: 46 2c        	lsr	$2c                     ; 0x202c <playMidi+0x192>
    1043: 66 2a        	ror	$2a                     ; 0x202a <playMidi+0x190>
    1045: 64 2b        	stz	$2b                     ; 0x202b <playMidi+0x191>
    1047: 66 2b        	ror	$2b                     ; 0x202b <playMidi+0x191>
    1049: a6 7b        	ldx	$7b                     ; 0x207b <playMidi+0x1e1>
    104b: 86 29        	stx	$29                     ; 0x2029 <playMidi+0x18f>
    104d: a6 7c        	ldx	$7c                     ; 0x207c <playMidi+0x1e2>
    104f: 86 25        	stx	$25                     ; 0x2025 <playMidi+0x18b>
    1051: a2 16        	ldx	#$16
    1053: 86 12        	stx	$12                     ; 0x2012 <playMidi+0x178>
    1055: a2 00        	ldx	#$0
    1057: a5 27        	lda	$27                     ; 0x2027 <playMidi+0x18d>
    1059: 20 1c 4d     	jsr	$4d1c <__mulhi3>
    105c: a0 04        	ldy	#$4
    105e: 85 12        	sta	$12                     ; 0x2012 <playMidi+0x178>
    1060: 86 13        	stx	$13                     ; 0x2013 <playMidi+0x179>
    1062: 18           	clc
    1063: a5 29        	lda	$29                     ; 0x2029 <playMidi+0x18f>
    1065: 65 12        	adc	$12                     ; 0x2012 <playMidi+0x178>
    1067: 85 12        	sta	$12                     ; 0x2012 <playMidi+0x178>
    1069: a5 25        	lda	$25                     ; 0x2025 <playMidi+0x18b>
    106b: 65 13        	adc	$13                     ; 0x2013 <playMidi+0x179>
    106d: aa           	tax
    106e: a5 12        	lda	$12                     ; 0x2012 <playMidi+0x178>
    1070: 86 13        	stx	$13                     ; 0x2013 <playMidi+0x179>
    1072: 18           	clc
    1073: 85 16        	sta	$16                     ; 0x2016 <playMidi+0x17c>
    1075: 69 08        	adc	#$8
    1077: 85 14        	sta	$14                     ; 0x2014 <playMidi+0x17a>
    1079: 8a           	txa
    107a: 69 00        	adc	#$0
    107c: 85 15        	sta	$15                     ; 0x2015 <playMidi+0x17b>
    107e: 18           	clc
    107f: a5 16        	lda	$16                     ; 0x2016 <playMidi+0x17c>
    1081: 69 04        	adc	#$4
    1083: 85 16        	sta	$16                     ; 0x2016 <playMidi+0x17c>
    1085: 8a           	txa
    1086: 69 00        	adc	#$0
    1088: 85 17        	sta	$17                     ; 0x2017 <playMidi+0x17d>
    108a: b1 12        	lda	($12),y                 ; 0x2012 <playMidi+0x178>
    108c: 85 18        	sta	$18                     ; 0x2018 <playMidi+0x17e>
    108e: a0 01        	ldy	#$1
    1090: b1 16        	lda	($16),y                 ; 0x2016 <playMidi+0x17c>
    1092: 85 19        	sta	$19                     ; 0x2019 <playMidi+0x17f>
    1094: c8           	iny
    1095: b1 16        	lda	($16),y                 ; 0x2016 <playMidi+0x17c>
    1097: aa           	tax
    1098: c8           	iny
    1099: b1 16        	lda	($16),y                 ; 0x2016 <playMidi+0x17c>
    109b: 85 1b        	sta	$1b                     ; 0x201b <playMidi+0x181>
    109d: a5 18        	lda	$18                     ; 0x2018 <playMidi+0x17e>
    109f: a4 19        	ldy	$19                     ; 0x2019 <playMidi+0x17f>
    10a1: 86 1c        	stx	$1c                     ; 0x201c <playMidi+0x182>
    10a3: 1a           	inc
    10a4: d0 09        	bne	$10af <f256main+0x7ad>
    10a6: c8           	iny
    10a7: d0 06        	bne	$10af <f256main+0x7ad>
    10a9: e6 1c        	inc	$1c                     ; 0x201c <playMidi+0x182>
    10ab: d0 02        	bne	$10af <f256main+0x7ad>
    10ad: e6 1b        	inc	$1b                     ; 0x201b <playMidi+0x181>
    10af: 84 1d        	sty	$1d                     ; 0x201d <playMidi+0x183>
    10b1: a0 04        	ldy	#$4
    10b3: 91 12        	sta	($12),y                 ; 0x2012 <playMidi+0x178>
    10b5: a0 01        	ldy	#$1
    10b7: a5 1d        	lda	$1d                     ; 0x201d <playMidi+0x183>
    10b9: 91 16        	sta	($16),y                 ; 0x2016 <playMidi+0x17c>
    10bb: c8           	iny
    10bc: a5 1c        	lda	$1c                     ; 0x201c <playMidi+0x182>
    10be: 91 16        	sta	($16),y                 ; 0x2016 <playMidi+0x17c>
    10c0: c8           	iny
    10c1: a5 1b        	lda	$1b                     ; 0x201b <playMidi+0x181>
    10c3: 91 16        	sta	($16),y                 ; 0x2016 <playMidi+0x17c>
    10c5: 18           	clc
    10c6: a0 08        	ldy	#$8
    10c8: a5 18        	lda	$18                     ; 0x2018 <playMidi+0x17e>
    10ca: 71 12        	adc	($12),y                 ; 0x2012 <playMidi+0x178>
    10cc: 85 13        	sta	$13                     ; 0x2013 <playMidi+0x179>
    10ce: a5 19        	lda	$19                     ; 0x2019 <playMidi+0x17f>
    10d0: a0 01        	ldy	#$1
    10d2: 71 14        	adc	($14),y                 ; 0x2014 <playMidi+0x17a>
    10d4: 85 12        	sta	$12                     ; 0x2012 <playMidi+0x178>
    10d6: c8           	iny
    10d7: 8a           	txa
    10d8: 71 14        	adc	($14),y                 ; 0x2014 <playMidi+0x17a>
    10da: 85 14        	sta	$14                     ; 0x2014 <playMidi+0x17a>
    10dc: a5 12        	lda	$12                     ; 0x2012 <playMidi+0x178>
    10de: 06 12        	asl	$12                     ; 0x2012 <playMidi+0x178>
    10e0: 26 14        	rol	$14                     ; 0x2014 <playMidi+0x17a>
    10e2: 06 12        	asl	$12                     ; 0x2012 <playMidi+0x178>
    10e4: 26 14        	rol	$14                     ; 0x2014 <playMidi+0x17a>
    10e6: 06 12        	asl	$12                     ; 0x2012 <playMidi+0x178>
    10e8: 26 14        	rol	$14                     ; 0x2014 <playMidi+0x17a>
    10ea: a4 14        	ldy	$14                     ; 0x2014 <playMidi+0x17a>
    10ec: a6 0f        	ldx	$f                      ; 0x200f <playMidi+0x175>
    10ee: 78           	sei
    10ef: 84 0f        	sty	$f                      ; 0x200f <playMidi+0x175>
    10f1: a4 13        	ldy	$13                     ; 0x2013 <playMidi+0x179>
    10f3: 84 12        	sty	$12                     ; 0x2012 <playMidi+0x178>
    10f5: 09 e0        	ora	#$e0
    10f7: 85 13        	sta	$13                     ; 0x2013 <playMidi+0x179>
    10f9: b2 12        	lda	($12)                   ; 0x2012 <playMidi+0x178>
    10fb: 86 0f        	stx	$f                      ; 0x200f <playMidi+0x175>
    10fd: 58           	cli
    10fe: aa           	tax
    10ff: 30 11        	bmi	$1112 <f256main+0x810>
    1101: 64 25        	stz	$25                     ; 0x2025 <playMidi+0x18b>
    1103: 85 12        	sta	$12                     ; 0x2012 <playMidi+0x178>
    1105: 64 13        	stz	$13                     ; 0x2013 <playMidi+0x179>
    1107: 64 14        	stz	$14                     ; 0x2014 <playMidi+0x17a>
    1109: 64 17        	stz	$17                     ; 0x2017 <playMidi+0x17d>
    110b: a6 2a        	ldx	$2a                     ; 0x202a <playMidi+0x190>
    110d: a5 26        	lda	$26                     ; 0x2026 <playMidi+0x18c>
    110f: 4c 42 0e     	jmp	$e42 <f256main+0x540>
    1112: 4a           	lsr
    1113: aa           	tax
    1114: a9 00        	lda	#$0
    1116: 6a           	ror
    1117: a4 2e        	ldy	$2e                     ; 0x202e <playMidi+0x194>
    1119: 84 25        	sty	$25                     ; 0x2025 <playMidi+0x18b>
    111b: 46 25        	lsr	$25                     ; 0x2025 <playMidi+0x18b>
    111d: a4 26        	ldy	$26                     ; 0x2026 <playMidi+0x18c>
    111f: 84 2e        	sty	$2e                     ; 0x202e <playMidi+0x194>
    1121: 66 2e        	ror	$2e                     ; 0x202e <playMidi+0x194>
    1123: 64 29        	stz	$29                     ; 0x2029 <playMidi+0x18f>
    1125: 66 29        	ror	$29                     ; 0x2029 <playMidi+0x18f>
    1127: a4 2c        	ldy	$2c                     ; 0x202c <playMidi+0x192>
    1129: 84 26        	sty	$26                     ; 0x2026 <playMidi+0x18c>
    112b: 46 26        	lsr	$26                     ; 0x2026 <playMidi+0x18c>
    112d: 66 2a        	ror	$2a                     ; 0x202a <playMidi+0x190>
    112f: a4 2a        	ldy	$2a                     ; 0x202a <playMidi+0x190>
    1131: 84 2c        	sty	$2c                     ; 0x202c <playMidi+0x192>
    1133: a4 2b        	ldy	$2b                     ; 0x202b <playMidi+0x191>
    1135: 84 2a        	sty	$2a                     ; 0x202a <playMidi+0x190>
    1137: 66 2a        	ror	$2a                     ; 0x202a <playMidi+0x190>
    1139: 64 2b        	stz	$2b                     ; 0x202b <playMidi+0x191>
    113b: 66 2b        	ror	$2b                     ; 0x202b <playMidi+0x191>
    113d: 29 80        	and	#$80
    113f: a0 0d        	ldy	#$d
    1141: 91 10        	sta	($10),y                 ; 0x2010 <playMidi+0x176>
    1143: 8a           	txa
    1144: 29 3f        	and	#$3f
    1146: 88           	dey
    1147: 91 10        	sta	($10),y                 ; 0x2010 <playMidi+0x176>
    1149: a6 7b        	ldx	$7b                     ; 0x207b <playMidi+0x1e1>
    114b: 86 2d        	stx	$2d                     ; 0x202d <playMidi+0x193>
    114d: a6 7c        	ldx	$7c                     ; 0x207c <playMidi+0x1e2>
    114f: 86 2f        	stx	$2f                     ; 0x202f <playMidi+0x195>
    1151: a2 16        	ldx	#$16
    1153: 86 12        	stx	$12                     ; 0x2012 <playMidi+0x178>
    1155: 64 13        	stz	$13                     ; 0x2013 <playMidi+0x179>
    1157: a2 00        	ldx	#$0
    1159: a5 27        	lda	$27                     ; 0x2027 <playMidi+0x18d>
    115b: 20 1c 4d     	jsr	$4d1c <__mulhi3>
    115e: a4 26        	ldy	$26                     ; 0x2026 <playMidi+0x18c>
    1160: 84 17        	sty	$17                     ; 0x2017 <playMidi+0x17d>
    1162: 85 12        	sta	$12                     ; 0x2012 <playMidi+0x178>
    1164: 86 13        	stx	$13                     ; 0x2013 <playMidi+0x179>
    1166: 18           	clc
    1167: a5 2d        	lda	$2d                     ; 0x202d <playMidi+0x193>
    1169: 65 12        	adc	$12                     ; 0x2012 <playMidi+0x178>
    116b: a8           	tay
    116c: a5 2f        	lda	$2f                     ; 0x202f <playMidi+0x195>
    116e: 65 13        	adc	$13                     ; 0x2013 <playMidi+0x179>
    1170: aa           	tax
    1171: 98           	tya
    1172: 18           	clc
    1173: 69 08        	adc	#$8
    1175: 85 12        	sta	$12                     ; 0x2012 <playMidi+0x178>
    1177: 8a           	txa
    1178: 69 00        	adc	#$0
    117a: 84 14        	sty	$14                     ; 0x2014 <playMidi+0x17a>
    117c: 86 15        	stx	$15                     ; 0x2015 <playMidi+0x17b>
    117e: 85 13        	sta	$13                     ; 0x2013 <playMidi+0x179>
    1180: 18           	clc
    1181: 98           	tya
    1182: 69 04        	adc	#$4
    1184: 85 18        	sta	$18                     ; 0x2018 <playMidi+0x17e>
    1186: 8a           	txa
    1187: 69 00        	adc	#$0
    1189: 85 19        	sta	$19                     ; 0x2019 <playMidi+0x17f>
    118b: a0 04        	ldy	#$4
    118d: b1 14        	lda	($14),y                 ; 0x2014 <playMidi+0x17a>
    118f: 85 16        	sta	$16                     ; 0x2016 <playMidi+0x17c>
    1191: a0 01        	ldy	#$1
    1193: b1 18        	lda	($18),y                 ; 0x2018 <playMidi+0x17e>
    1195: 85 1a        	sta	$1a                     ; 0x201a <playMidi+0x180>
    1197: c8           	iny
    1198: b1 18        	lda	($18),y                 ; 0x2018 <playMidi+0x17e>
    119a: aa           	tax
    119b: c8           	iny
    119c: b1 18        	lda	($18),y                 ; 0x2018 <playMidi+0x17e>
    119e: 85 1c        	sta	$1c                     ; 0x201c <playMidi+0x182>
    11a0: a5 16        	lda	$16                     ; 0x2016 <playMidi+0x17c>
    11a2: a4 1a        	ldy	$1a                     ; 0x201a <playMidi+0x180>
    11a4: 86 1d        	stx	$1d                     ; 0x201d <playMidi+0x183>
    11a6: 1a           	inc
    11a7: d0 0a        	bne	$11b3 <f256main+0x8b1>
    11a9: c8           	iny
    11aa: d0 07        	bne	$11b3 <f256main+0x8b1>
    11ac: e6 1d        	inc	$1d                     ; 0x201d <playMidi+0x183>
    11ae: d0 03        	bne	$11b3 <f256main+0x8b1>
    11b0: 4c 9b 15     	jmp	$159b <f256main+0xc99>
    11b3: 84 1e        	sty	$1e                     ; 0x201e <playMidi+0x184>
    11b5: a0 04        	ldy	#$4
    11b7: 91 14        	sta	($14),y                 ; 0x2014 <playMidi+0x17a>
    11b9: a0 01        	ldy	#$1
    11bb: a5 1e        	lda	$1e                     ; 0x201e <playMidi+0x184>
    11bd: 91 18        	sta	($18),y                 ; 0x2018 <playMidi+0x17e>
    11bf: c8           	iny
    11c0: a5 1d        	lda	$1d                     ; 0x201d <playMidi+0x183>
    11c2: 91 18        	sta	($18),y                 ; 0x2018 <playMidi+0x17e>
    11c4: c8           	iny
    11c5: a5 1c        	lda	$1c                     ; 0x201c <playMidi+0x182>
    11c7: 91 18        	sta	($18),y                 ; 0x2018 <playMidi+0x17e>
    11c9: 18           	clc
    11ca: a0 08        	ldy	#$8
    11cc: a5 16        	lda	$16                     ; 0x2016 <playMidi+0x17c>
    11ce: 71 14        	adc	($14),y                 ; 0x2014 <playMidi+0x17a>
    11d0: 85 14        	sta	$14                     ; 0x2014 <playMidi+0x17a>
    11d2: a5 1a        	lda	$1a                     ; 0x201a <playMidi+0x180>
    11d4: a0 01        	ldy	#$1
    11d6: 71 12        	adc	($12),y                 ; 0x2012 <playMidi+0x178>
    11d8: 85 15        	sta	$15                     ; 0x2015 <playMidi+0x17b>
    11da: 8a           	txa
    11db: c8           	iny
    11dc: 71 12        	adc	($12),y                 ; 0x2012 <playMidi+0x178>
    11de: 85 13        	sta	$13                     ; 0x2013 <playMidi+0x179>
    11e0: a5 15        	lda	$15                     ; 0x2015 <playMidi+0x17b>
    11e2: 85 12        	sta	$12                     ; 0x2012 <playMidi+0x178>
    11e4: 06 12        	asl	$12                     ; 0x2012 <playMidi+0x178>
    11e6: 26 13        	rol	$13                     ; 0x2013 <playMidi+0x179>
    11e8: 06 12        	asl	$12                     ; 0x2012 <playMidi+0x178>
    11ea: 26 13        	rol	$13                     ; 0x2013 <playMidi+0x179>
    11ec: 06 12        	asl	$12                     ; 0x2012 <playMidi+0x178>
    11ee: 26 13        	rol	$13                     ; 0x2013 <playMidi+0x179>
    11f0: a4 13        	ldy	$13                     ; 0x2013 <playMidi+0x179>
    11f2: a6 0f        	ldx	$f                      ; 0x200f <playMidi+0x175>
    11f4: 78           	sei
    11f5: 84 0f        	sty	$f                      ; 0x200f <playMidi+0x175>
    11f7: a4 14        	ldy	$14                     ; 0x2014 <playMidi+0x17a>
    11f9: 84 12        	sty	$12                     ; 0x2012 <playMidi+0x178>
    11fb: 09 e0        	ora	#$e0
    11fd: 85 13        	sta	$13                     ; 0x2013 <playMidi+0x179>
    11ff: b2 12        	lda	($12)                   ; 0x2012 <playMidi+0x178>
    1201: 86 0f        	stx	$f                      ; 0x200f <playMidi+0x175>
    1203: 48           	pha
    1204: a0 0d        	ldy	#$d
    1206: b1 10        	lda	($10),y                 ; 0x2010 <playMidi+0x176>
    1208: 85 12        	sta	$12                     ; 0x2012 <playMidi+0x178>
    120a: 88           	dey
    120b: b1 10        	lda	($10),y                 ; 0x2010 <playMidi+0x176>
    120d: 85 13        	sta	$13                     ; 0x2013 <playMidi+0x179>
    120f: 68           	pla
    1210: 85 14        	sta	$14                     ; 0x2014 <playMidi+0x17a>
    1212: a5 29        	lda	$29                     ; 0x2029 <playMidi+0x18f>
    1214: a6 2a        	ldx	$2a                     ; 0x202a <playMidi+0x190>
    1216: 58           	cli
    1217: 4c 42 0e     	jmp	$e42 <f256main+0x540>
    121a: 48           	pha
    121b: a0 0e        	ldy	#$e
    121d: b1 10        	lda	($10),y                 ; 0x2010 <playMidi+0x176>
    121f: 85 25        	sta	$25                     ; 0x2025 <playMidi+0x18b>
    1221: 68           	pla
    1222: f0 36        	beq	$125a <f256main+0x958>
    1224: a6 7b        	ldx	$7b                     ; 0x207b <playMidi+0x1e1>
    1226: 86 26        	stx	$26                     ; 0x2026 <playMidi+0x18c>
    1228: a6 7c        	ldx	$7c                     ; 0x207c <playMidi+0x1e2>
    122a: 86 25        	stx	$25                     ; 0x2025 <playMidi+0x18b>
    122c: a2 16        	ldx	#$16
    122e: 86 12        	stx	$12                     ; 0x2012 <playMidi+0x178>
    1230: 64 13        	stz	$13                     ; 0x2013 <playMidi+0x179>
    1232: a2 00        	ldx	#$0
    1234: a4 28        	ldy	$28                     ; 0x2028 <playMidi+0x18e>
    1236: 84 27        	sty	$27                     ; 0x2027 <playMidi+0x18d>
    1238: a5 28        	lda	$28                     ; 0x2028 <playMidi+0x18e>
    123a: 20 1c 4d     	jsr	$4d1c <__mulhi3>
    123d: 85 12        	sta	$12                     ; 0x2012 <playMidi+0x178>
    123f: 86 13        	stx	$13                     ; 0x2013 <playMidi+0x179>
    1241: 18           	clc
    1242: a5 26        	lda	$26                     ; 0x2026 <playMidi+0x18c>
    1244: 65 12        	adc	$12                     ; 0x2012 <playMidi+0x178>
    1246: 85 12        	sta	$12                     ; 0x2012 <playMidi+0x178>
    1248: a5 25        	lda	$25                     ; 0x2025 <playMidi+0x18b>
    124a: 65 13        	adc	$13                     ; 0x2013 <playMidi+0x179>
    124c: 85 13        	sta	$13                     ; 0x2013 <playMidi+0x179>
    124e: a0 15        	ldy	#$15
    1250: a9 01        	lda	#$1
    1252: 91 12        	sta	($12),y                 ; 0x2012 <playMidi+0x178>
    1254: a0 0e        	ldy	#$e
    1256: b1 10        	lda	($10),y                 ; 0x2010 <playMidi+0x176>
    1258: 85 25        	sta	$25                     ; 0x2025 <playMidi+0x18b>
    125a: a6 25        	ldx	$25                     ; 0x2025 <playMidi+0x18b>
    125c: e6 27        	inc	$27                     ; 0x2027 <playMidi+0x18d>
    125e: d0 01        	bne	$1261 <f256main+0x95f>
    1260: e8           	inx
    1261: 8a           	txa
    1262: a6 70        	ldx	$70                     ; 0x2070 <playMidi+0x1d6>
    1264: 86 12        	stx	$12                     ; 0x2012 <playMidi+0x178>
    1266: a6 71        	ldx	$71                     ; 0x2071 <playMidi+0x1d7>
    1268: 86 13        	stx	$13                     ; 0x2013 <playMidi+0x179>
    126a: c5 13        	cmp	$13                     ; 0x2013 <playMidi+0x179>
    126c: d0 0b        	bne	$1279 <f256main+0x977>
    126e: a6 27        	ldx	$27                     ; 0x2027 <playMidi+0x18d>
    1270: e4 12        	cpx	$12                     ; 0x2012 <playMidi+0x178>
    1272: a2 16        	ldx	#$16
    1274: b0 0c        	bcs	$1282 <f256main+0x980>
    1276: 4c 3c 0d     	jmp	$d3c <f256main+0x43a>
    1279: c5 13        	cmp	$13                     ; 0x2013 <playMidi+0x179>
    127b: a2 16        	ldx	#$16
    127d: b0 03        	bcs	$1282 <f256main+0x980>
    127f: 4c 3c 0d     	jmp	$d3c <f256main+0x43a>
    1282: a5 13        	lda	$13                     ; 0x2013 <playMidi+0x179>
    1284: d0 07        	bne	$128d <f256main+0x98b>
    1286: a5 12        	lda	$12                     ; 0x2012 <playMidi+0x178>
    1288: d0 03        	bne	$128d <f256main+0x98b>
    128a: 4c 0d 13     	jmp	$130d <f256main+0xa0b>
    128d: a6 7b        	ldx	$7b                     ; 0x207b <playMidi+0x1e1>
    128f: a4 7c        	ldy	$7c                     ; 0x207c <playMidi+0x1e2>
    1291: 86 14        	stx	$14                     ; 0x2014 <playMidi+0x17a>
    1293: 84 15        	sty	$15                     ; 0x2015 <playMidi+0x17b>
    1295: a2 0c        	ldx	#$c
    1297: 64 25        	stz	$25                     ; 0x2025 <playMidi+0x18b>
    1299: 64 26        	stz	$26                     ; 0x2026 <playMidi+0x18c>
    129b: a0 00        	ldy	#$0
    129d: 84 27        	sty	$27                     ; 0x2027 <playMidi+0x18d>
    129f: 8a           	txa
    12a0: 18           	clc
    12a1: 65 14        	adc	$14                     ; 0x2014 <playMidi+0x17a>
    12a3: 85 16        	sta	$16                     ; 0x2016 <playMidi+0x17c>
    12a5: a5 25        	lda	$25                     ; 0x2025 <playMidi+0x18b>
    12a7: 65 15        	adc	$15                     ; 0x2015 <playMidi+0x17b>
    12a9: 85 17        	sta	$17                     ; 0x2017 <playMidi+0x17d>
    12ab: a0 09        	ldy	#$9
    12ad: b1 16        	lda	($16),y                 ; 0x2016 <playMidi+0x17c>
    12af: f0 04        	beq	$12b5 <f256main+0x9b3>
    12b1: 86 24        	stx	$24                     ; 0x2024 <playMidi+0x18a>
    12b3: 80 29        	bra	$12de <f256main+0x9dc>
    12b5: 86 24        	stx	$24                     ; 0x2024 <playMidi+0x18a>
    12b7: 8a           	txa
    12b8: 18           	clc
    12b9: 65 14        	adc	$14                     ; 0x2014 <playMidi+0x17a>
    12bb: 85 16        	sta	$16                     ; 0x2016 <playMidi+0x17c>
    12bd: a5 25        	lda	$25                     ; 0x2025 <playMidi+0x18b>
    12bf: 65 15        	adc	$15                     ; 0x2015 <playMidi+0x17b>
    12c1: 85 17        	sta	$17                     ; 0x2017 <playMidi+0x17d>
    12c3: b2 16        	lda	($16)                   ; 0x2016 <playMidi+0x17c>
    12c5: 85 18        	sta	$18                     ; 0x2018 <playMidi+0x17e>
    12c7: a0 01        	ldy	#$1
    12c9: b1 16        	lda	($16),y                 ; 0x2016 <playMidi+0x17c>
    12cb: 85 19        	sta	$19                     ; 0x2019 <playMidi+0x17f>
    12cd: c8           	iny
    12ce: b1 16        	lda	($16),y                 ; 0x2016 <playMidi+0x17c>
    12d0: 85 1a        	sta	$1a                     ; 0x201a <playMidi+0x180>
    12d2: c8           	iny
    12d3: b1 16        	lda	($16),y                 ; 0x2016 <playMidi+0x17c>
    12d5: d0 07        	bne	$12de <f256main+0x9dc>
    12d7: a5 1a        	lda	$1a                     ; 0x201a <playMidi+0x180>
    12d9: d0 03        	bne	$12de <f256main+0x9dc>
    12db: 4c 75 15     	jmp	$1575 <f256main+0xc73>
    12de: a6 26        	ldx	$26                     ; 0x2026 <playMidi+0x18c>
    12e0: a4 27        	ldy	$27                     ; 0x2027 <playMidi+0x18d>
    12e2: e8           	inx
    12e3: d0 01        	bne	$12e6 <f256main+0x9e4>
    12e5: c8           	iny
    12e6: 18           	clc
    12e7: a5 24        	lda	$24                     ; 0x2024 <playMidi+0x18a>
    12e9: 69 16        	adc	#$16
    12eb: 85 16        	sta	$16                     ; 0x2016 <playMidi+0x17c>
    12ed: a5 25        	lda	$25                     ; 0x2025 <playMidi+0x18b>
    12ef: 69 00        	adc	#$0
    12f1: 85 25        	sta	$25                     ; 0x2025 <playMidi+0x18b>
    12f3: c4 13        	cpy	$13                     ; 0x2013 <playMidi+0x179>
    12f5: d0 0b        	bne	$1302 <f256main+0xa00>
    12f7: e4 12        	cpx	$12                     ; 0x2012 <playMidi+0x178>
    12f9: 86 26        	stx	$26                     ; 0x2026 <playMidi+0x18c>
    12fb: a6 16        	ldx	$16                     ; 0x2016 <playMidi+0x17c>
    12fd: b0 0e        	bcs	$130d <f256main+0xa0b>
    12ff: 4c 9d 12     	jmp	$129d <f256main+0x99b>
    1302: c4 13        	cpy	$13                     ; 0x2013 <playMidi+0x179>
    1304: 86 26        	stx	$26                     ; 0x2026 <playMidi+0x18c>
    1306: a6 16        	ldx	$16                     ; 0x2016 <playMidi+0x17c>
    1308: b0 03        	bcs	$130d <f256main+0xa0b>
    130a: 4c 9d 12     	jmp	$129d <f256main+0x99b>
    130d: 78           	sei
    130e: a4 00        	ldy	$0                      ; 0x2000 <playMidi+0x166>
    1310: 98           	tya
    1311: 09 80        	ora	#$80
    1313: 85 00        	sta	$0                      ; 0x2000 <playMidi+0x166>
    1315: a6 0d        	ldx	$d                      ; 0x200d <playMidi+0x173>
    1317: 86 18        	stx	$18                     ; 0x2018 <playMidi+0x17e>
    1319: a2 3f        	ldx	#$3f
    131b: 86 0d        	stx	$d                      ; 0x200d <playMidi+0x173>
    131d: 84 00        	sty	$0                      ; 0x2000 <playMidi+0x166>
    131f: a2 e0        	ldx	#$e0
    1321: a0 00        	ldy	#$0
    1323: 18           	clc
    1324: 98           	tya
    1325: 69 00        	adc	#$0
    1327: 85 14        	sta	$14                     ; 0x2014 <playMidi+0x17a>
    1329: 8a           	txa
    132a: 69 c0        	adc	#$c0
    132c: 85 15        	sta	$15                     ; 0x2015 <playMidi+0x17b>
    132e: 84 12        	sty	$12                     ; 0x2012 <playMidi+0x178>
    1330: 86 13        	stx	$13                     ; 0x2013 <playMidi+0x179>
    1332: b2 12        	lda	($12)                   ; 0x2012 <playMidi+0x178>
    1334: 92 14        	sta	($14)                   ; 0x2014 <playMidi+0x17a>
    1336: c8           	iny
    1337: f0 06        	beq	$133f <f256main+0xa3d>
    1339: e0 ff        	cpx	#$ff
    133b: d0 e6        	bne	$1323 <f256main+0xa21>
    133d: 80 05        	bra	$1344 <f256main+0xa42>
    133f: e8           	inx
    1340: e0 ff        	cpx	#$ff
    1342: d0 df        	bne	$1323 <f256main+0xa21>
    1344: c0 fe        	cpy	#$fe
    1346: d0 db        	bne	$1323 <f256main+0xa21>
    1348: a2 1d        	ldx	#$1d
    134a: a0 1e        	ldy	#$1e
    134c: 84 12        	sty	$12                     ; 0x2012 <playMidi+0x178>
    134e: e4 12        	cpx	$12                     ; 0x2012 <playMidi+0x178>
    1350: d0 06        	bne	$1358 <f256main+0xa56>
    1352: a2 90        	ldx	#$90
    1354: a0 9a        	ldy	#$9a
    1356: 84 12        	sty	$12                     ; 0x2012 <playMidi+0x178>
    1358: e4 12        	cpx	$12                     ; 0x2012 <playMidi+0x178>
    135a: b0 48        	bcs	$13a4 <f256main+0xaa2>
    135c: a2 b3        	ldx	#$b3
    135e: 64 14        	stz	$14                     ; 0x2014 <playMidi+0x17a>
    1360: a0 9a        	ldy	#$9a
    1362: 84 12        	sty	$12                     ; 0x2012 <playMidi+0x178>
    1364: a0 1e        	ldy	#$1e
    1366: 84 13        	sty	$13                     ; 0x2013 <playMidi+0x179>
    1368: 86 15        	stx	$15                     ; 0x2015 <playMidi+0x17b>
    136a: a9 90        	lda	#$90
    136c: 18           	clc
    136d: 65 14        	adc	$14                     ; 0x2014 <playMidi+0x17a>
    136f: 85 16        	sta	$16                     ; 0x2016 <playMidi+0x17c>
    1371: a9 6a        	lda	#$6a
    1373: 65 15        	adc	$15                     ; 0x2015 <playMidi+0x17b>
    1375: 85 17        	sta	$17                     ; 0x2017 <playMidi+0x17d>
    1377: b2 16        	lda	($16)                   ; 0x2016 <playMidi+0x17c>
    1379: a4 14        	ldy	$14                     ; 0x2014 <playMidi+0x17a>
    137b: c8           	iny
    137c: d0 01        	bne	$137f <f256main+0xa7d>
    137e: e8           	inx
    137f: 92 14        	sta	($14)                   ; 0x2014 <playMidi+0x17a>
    1381: a9 91        	lda	#$91
    1383: 18           	clc
    1384: 65 14        	adc	$14                     ; 0x2014 <playMidi+0x17a>
    1386: 85 14        	sta	$14                     ; 0x2014 <playMidi+0x17a>
    1388: a9 6a        	lda	#$6a
    138a: 65 15        	adc	$15                     ; 0x2015 <playMidi+0x17b>
    138c: c5 13        	cmp	$13                     ; 0x2013 <playMidi+0x179>
    138e: d0 0c        	bne	$139c <f256main+0xa9a>
    1390: a5 14        	lda	$14                     ; 0x2014 <playMidi+0x17a>
    1392: c5 12        	cmp	$12                     ; 0x2012 <playMidi+0x178>
    1394: 84 14        	sty	$14                     ; 0x2014 <playMidi+0x17a>
    1396: 86 15        	stx	$15                     ; 0x2015 <playMidi+0x17b>
    1398: 90 d0        	bcc	$136a <f256main+0xa68>
    139a: 80 08        	bra	$13a4 <f256main+0xaa2>
    139c: c5 13        	cmp	$13                     ; 0x2013 <playMidi+0x179>
    139e: 84 14        	sty	$14                     ; 0x2014 <playMidi+0x17a>
    13a0: 86 15        	stx	$15                     ; 0x2015 <playMidi+0x17b>
    13a2: 90 c6        	bcc	$136a <f256main+0xa68>
    13a4: 9c fe bf     	stz	$bffe                   ; 0xbffe <__heap_start+0x6f4c>
    13a7: a2 f3        	ldx	#$f3
    13a9: 8e ff bf     	stx	$bfff                   ; 0xbfff <__heap_start+0x6f4d>
    13ac: a2 60        	ldx	#$60
    13ae: 8e 31 a1     	stx	$a131                   ; 0xa131 <__heap_start+0x507f>
    13b1: a4 00        	ldy	$0                      ; 0x2000 <playMidi+0x166>
    13b3: 98           	tya
    13b4: 09 80        	ora	#$80
    13b6: 85 00        	sta	$0                      ; 0x2000 <playMidi+0x166>
    13b8: a6 0d        	ldx	$d                      ; 0x200d <playMidi+0x173>
    13ba: a6 18        	ldx	$18                     ; 0x2018 <playMidi+0x17e>
    13bc: 86 0d        	stx	$d                      ; 0x200d <playMidi+0x173>
    13be: 84 00        	sty	$0                      ; 0x2000 <playMidi+0x166>
    13c0: ad 6c d6     	lda	$d66c                   ; 0xd66c <__heap_start+0x85ba>
    13c3: 29 ef        	and	#$ef
    13c5: 8d 6c d6     	sta	$d66c                   ; 0xd66c <__heap_start+0x85ba>
    13c8: a4 00        	ldy	$0                      ; 0x2000 <playMidi+0x166>
    13ca: 98           	tya
    13cb: 29 0f        	and	#$f
    13cd: 85 12        	sta	$12                     ; 0x2012 <playMidi+0x178>
    13cf: 09 80        	ora	#$80
    13d1: 85 00        	sta	$0                      ; 0x2000 <playMidi+0x166>
    13d3: a2 3f        	ldx	#$3f
    13d5: 86 0f        	stx	$f                      ; 0x200f <playMidi+0x175>
    13d7: a5 12        	lda	$12                     ; 0x2012 <playMidi+0x178>
    13d9: 09 90        	ora	#$90
    13db: 85 00        	sta	$0                      ; 0x2000 <playMidi+0x166>
    13dd: 86 0f        	stx	$f                      ; 0x200f <playMidi+0x175>
    13df: a5 12        	lda	$12                     ; 0x2012 <playMidi+0x178>
    13e1: 09 a0        	ora	#$a0
    13e3: 85 00        	sta	$0                      ; 0x2000 <playMidi+0x166>
    13e5: 86 0f        	stx	$f                      ; 0x200f <playMidi+0x175>
    13e7: a5 12        	lda	$12                     ; 0x2012 <playMidi+0x178>
    13e9: 09 b0        	ora	#$b0
    13eb: 85 00        	sta	$0                      ; 0x2000 <playMidi+0x166>
    13ed: 86 0f        	stx	$f                      ; 0x200f <playMidi+0x175>
    13ef: 84 00        	sty	$0                      ; 0x2000 <playMidi+0x166>
    13f1: a2 01        	ldx	#$1
    13f3: 8e 54 d6     	stx	$d654                   ; 0xd654 <__heap_start+0x85a2>
    13f6: a0 02        	ldy	#$2
    13f8: 8c 50 d6     	sty	$d650                   ; 0xd650 <__heap_start+0x859e>
    13fb: a9 09        	lda	#$9
    13fd: 8d 50 d6     	sta	$d650                   ; 0xd650 <__heap_start+0x859e>
    1400: 8e 54 d6     	stx	$d654                   ; 0xd654 <__heap_start+0x85a2>
    1403: 8c 50 d6     	sty	$d650                   ; 0xd650 <__heap_start+0x859e>
    1406: 8d 50 d6     	sta	$d650                   ; 0xd650 <__heap_start+0x859e>
    1409: 58           	cli
    140a: 8e 54 d6     	stx	$d654                   ; 0xd654 <__heap_start+0x85a2>
    140d: 8c 50 d6     	sty	$d650                   ; 0xd650 <__heap_start+0x859e>
    1410: 8d 50 d6     	sta	$d650                   ; 0xd650 <__heap_start+0x859e>
    1413: a2 ad        	ldx	#$ad
    1415: 8e 55 d6     	stx	$d655                   ; 0xd655 <__heap_start+0x85a3>
    1418: a2 de        	ldx	#$de
    141a: 8e 56 d6     	stx	$d656                   ; 0xd656 <__heap_start+0x85a4>
    141d: 9c 57 d6     	stz	$d657                   ; 0xd657 <__heap_start+0x85a5>
    1420: a9 2e        	lda	#$2e
    1422: a2 00        	ldx	#$0
    1424: 20 ed 47     	jsr	$47ed <putchar>
    1427: a5 74        	lda	$74                     ; 0x2074 <playMidi+0x1da>
    1429: 29 01        	and	#$1
    142b: f0 02        	beq	$142f <f256main+0xb2d>
    142d: 80 fe        	bra	$142d <f256main+0xb2b>
    142f: a9 00        	lda	#$0
    1431: 80 04        	bra	$1437 <f256main+0xb35>
    1433: a9 01        	lda	#$1
    1435: 25 74        	and	$74                     ; 0x2074 <playMidi+0x1da>
    1437: 29 01        	and	#$1
    1439: aa           	tax
    143a: d0 fd        	bne	$1439 <f256main+0xb37>
    143c: a6 70        	ldx	$70                     ; 0x2070 <playMidi+0x1d6>
    143e: a4 71        	ldy	$71                     ; 0x2071 <playMidi+0x1d7>
    1440: a9 00        	lda	#$0
    1442: c0 00        	cpy	#$0
    1444: d0 04        	bne	$144a <f256main+0xb48>
    1446: e0 00        	cpx	#$0
    1448: f0 ed        	beq	$1437 <f256main+0xb35>
    144a: a2 0c        	ldx	#$c
    144c: 64 16        	stz	$16                     ; 0x2016 <playMidi+0x17c>
    144e: a0 00        	ldy	#$0
    1450: 64 18        	stz	$18                     ; 0x2018 <playMidi+0x17e>
    1452: 84 17        	sty	$17                     ; 0x2017 <playMidi+0x17d>
    1454: a4 7b        	ldy	$7b                     ; 0x207b <playMidi+0x1e1>
    1456: 84 19        	sty	$19                     ; 0x2019 <playMidi+0x17f>
    1458: a4 7c        	ldy	$7c                     ; 0x207c <playMidi+0x1e2>
    145a: 84 1a        	sty	$1a                     ; 0x201a <playMidi+0x180>
    145c: 8a           	txa
    145d: 18           	clc
    145e: 65 7b        	adc	$7b                     ; 0x207b <playMidi+0x1e1>
    1460: 85 12        	sta	$12                     ; 0x2012 <playMidi+0x178>
    1462: a5 16        	lda	$16                     ; 0x2016 <playMidi+0x17c>
    1464: 65 7c        	adc	$7c                     ; 0x207c <playMidi+0x1e2>
    1466: 85 13        	sta	$13                     ; 0x2013 <playMidi+0x179>
    1468: a0 09        	ldy	#$9
    146a: b1 12        	lda	($12),y                 ; 0x2012 <playMidi+0x178>
    146c: f0 16        	beq	$1484 <f256main+0xb82>
    146e: 86 14        	stx	$14                     ; 0x2014 <playMidi+0x17a>
    1470: a2 ff        	ldx	#$ff
    1472: 86 75        	stx	$75                     ; 0x2075 <playMidi+0x1db>
    1474: 86 76        	stx	$76                     ; 0x2076 <playMidi+0x1dc>
    1476: 86 77        	stx	$77                     ; 0x2077 <playMidi+0x1dd>
    1478: 86 78        	stx	$78                     ; 0x2078 <playMidi+0x1de>
    147a: 86 79        	stx	$79                     ; 0x2079 <playMidi+0x1df>
    147c: 86 7a        	stx	$7a                     ; 0x207a <playMidi+0x1e0>
    147e: a0 ff        	ldy	#$ff
    1480: 98           	tya
    1481: 4c 02 15     	jmp	$1502 <f256main+0xc00>
    1484: a4 16        	ldy	$16                     ; 0x2016 <playMidi+0x17c>
    1486: 84 15        	sty	$15                     ; 0x2015 <playMidi+0x17b>
    1488: 86 14        	stx	$14                     ; 0x2014 <playMidi+0x17a>
    148a: 86 12        	stx	$12                     ; 0x2012 <playMidi+0x178>
    148c: 18           	clc
    148d: a5 19        	lda	$19                     ; 0x2019 <playMidi+0x17f>
    148f: 65 12        	adc	$12                     ; 0x2012 <playMidi+0x178>
    1491: aa           	tax
    1492: a5 1a        	lda	$1a                     ; 0x201a <playMidi+0x180>
    1494: 65 15        	adc	$15                     ; 0x2015 <playMidi+0x17b>
    1496: 86 12        	stx	$12                     ; 0x2012 <playMidi+0x178>
    1498: 85 13        	sta	$13                     ; 0x2013 <playMidi+0x179>
    149a: b2 12        	lda	($12)                   ; 0x2012 <playMidi+0x178>
    149c: 85 15        	sta	$15                     ; 0x2015 <playMidi+0x17b>
    149e: a0 01        	ldy	#$1
    14a0: b1 12        	lda	($12),y                 ; 0x2012 <playMidi+0x178>
    14a2: 85 19        	sta	$19                     ; 0x2019 <playMidi+0x17f>
    14a4: c8           	iny
    14a5: b1 12        	lda	($12),y                 ; 0x2012 <playMidi+0x178>
    14a7: 85 1a        	sta	$1a                     ; 0x201a <playMidi+0x180>
    14a9: c8           	iny
    14aa: b1 12        	lda	($12),y                 ; 0x2012 <playMidi+0x178>
    14ac: c9 ff        	cmp	#$ff
    14ae: d0 0f        	bne	$14bf <f256main+0xbbd>
    14b0: a6 1a        	ldx	$1a                     ; 0x201a <playMidi+0x180>
    14b2: e0 ff        	cpx	#$ff
    14b4: d0 09        	bne	$14bf <f256main+0xbbd>
    14b6: a6 19        	ldx	$19                     ; 0x2019 <playMidi+0x17f>
    14b8: e0 ff        	cpx	#$ff
    14ba: d0 03        	bne	$14bf <f256main+0xbbd>
    14bc: 4c 50 15     	jmp	$1550 <f256main+0xc4e>
    14bf: a2 01        	ldx	#$1
    14c1: 86 74        	stx	$74                     ; 0x2074 <playMidi+0x1da>
    14c3: a6 15        	ldx	$15                     ; 0x2015 <playMidi+0x17b>
    14c5: 86 75        	stx	$75                     ; 0x2075 <playMidi+0x1db>
    14c7: a6 19        	ldx	$19                     ; 0x2019 <playMidi+0x17f>
    14c9: 86 76        	stx	$76                     ; 0x2076 <playMidi+0x1dc>
    14cb: a6 1a        	ldx	$1a                     ; 0x201a <playMidi+0x180>
    14cd: 86 77        	stx	$77                     ; 0x2077 <playMidi+0x1dd>
    14cf: 85 78        	sta	$78                     ; 0x2078 <playMidi+0x1de>
    14d1: a6 17        	ldx	$17                     ; 0x2017 <playMidi+0x17d>
    14d3: 86 79        	stx	$79                     ; 0x2079 <playMidi+0x1df>
    14d5: a6 18        	ldx	$18                     ; 0x2018 <playMidi+0x17e>
    14d7: 86 7a        	stx	$7a                     ; 0x207a <playMidi+0x1e0>
    14d9: c9 01        	cmp	#$1
    14db: d0 13        	bne	$14f0 <f256main+0xbee>
    14dd: a6 1a        	ldx	$1a                     ; 0x201a <playMidi+0x180>
    14df: f0 03        	beq	$14e4 <f256main+0xbe2>
    14e1: 4c 44 15     	jmp	$1544 <f256main+0xc42>
    14e4: 86 12        	stx	$12                     ; 0x2012 <playMidi+0x178>
    14e6: a5 19        	lda	$19                     ; 0x2019 <playMidi+0x17f>
    14e8: f0 03        	beq	$14ed <f256main+0xbeb>
    14ea: 4c 62 15     	jmp	$1562 <f256main+0xc60>
    14ed: 4c 5e 15     	jmp	$155e <f256main+0xc5c>
    14f0: a6 1a        	ldx	$1a                     ; 0x201a <playMidi+0x180>
    14f2: 86 12        	stx	$12                     ; 0x2012 <playMidi+0x178>
    14f4: c9 01        	cmp	#$1
    14f6: a0 ff        	ldy	#$ff
    14f8: 98           	tya
    14f9: aa           	tax
    14fa: b0 06        	bcs	$1502 <f256main+0xc00>
    14fc: a4 15        	ldy	$15                     ; 0x2015 <playMidi+0x17b>
    14fe: a5 19        	lda	$19                     ; 0x2019 <playMidi+0x17f>
    1500: a6 12        	ldx	$12                     ; 0x2012 <playMidi+0x178>
    1502: 8c 55 d6     	sty	$d655                   ; 0xd655 <__heap_start+0x85a3>
    1505: 8d 56 d6     	sta	$d656                   ; 0xd656 <__heap_start+0x85a4>
    1508: 8e 57 d6     	stx	$d657                   ; 0xd657 <__heap_start+0x85a5>
    150b: a6 18        	ldx	$18                     ; 0x2018 <playMidi+0x17e>
    150d: a4 17        	ldy	$17                     ; 0x2017 <playMidi+0x17d>
    150f: c8           	iny
    1510: d0 01        	bne	$1513 <f256main+0xc11>
    1512: e8           	inx
    1513: 18           	clc
    1514: a5 14        	lda	$14                     ; 0x2014 <playMidi+0x17a>
    1516: 69 16        	adc	#$16
    1518: 85 13        	sta	$13                     ; 0x2013 <playMidi+0x179>
    151a: a5 16        	lda	$16                     ; 0x2016 <playMidi+0x17c>
    151c: 69 00        	adc	#$0
    151e: 85 16        	sta	$16                     ; 0x2016 <playMidi+0x17c>
    1520: e4 71        	cpx	$71                     ; 0x2071 <playMidi+0x1d7>
    1522: d0 12        	bne	$1536 <f256main+0xc34>
    1524: 86 18        	stx	$18                     ; 0x2018 <playMidi+0x17e>
    1526: a6 70        	ldx	$70                     ; 0x2070 <playMidi+0x1d6>
    1528: 86 12        	stx	$12                     ; 0x2012 <playMidi+0x178>
    152a: c4 12        	cpy	$12                     ; 0x2012 <playMidi+0x178>
    152c: a6 13        	ldx	$13                     ; 0x2013 <playMidi+0x179>
    152e: b0 03        	bcs	$1533 <f256main+0xc31>
    1530: 4c 52 14     	jmp	$1452 <f256main+0xb50>
    1533: 4c 33 14     	jmp	$1433 <f256main+0xb31>
    1536: 86 18        	stx	$18                     ; 0x2018 <playMidi+0x17e>
    1538: e4 71        	cpx	$71                     ; 0x2071 <playMidi+0x1d7>
    153a: a6 13        	ldx	$13                     ; 0x2013 <playMidi+0x179>
    153c: b0 03        	bcs	$1541 <f256main+0xc3f>
    153e: 4c 52 14     	jmp	$1452 <f256main+0xb50>
    1541: 4c 33 14     	jmp	$1433 <f256main+0xb31>
    1544: 86 12        	stx	$12                     ; 0x2012 <playMidi+0x178>
    1546: e0 00        	cpx	#$0
    1548: a0 ff        	ldy	#$ff
    154a: 98           	tya
    154b: aa           	tax
    154c: 90 ae        	bcc	$14fc <f256main+0xbfa>
    154e: 80 b2        	bra	$1502 <f256main+0xc00>
    1550: a6 15        	ldx	$15                     ; 0x2015 <playMidi+0x17b>
    1552: e0 ff        	cpx	#$ff
    1554: f0 03        	beq	$1559 <f256main+0xc57>
    1556: 4c bf 14     	jmp	$14bf <f256main+0xbbd>
    1559: a6 14        	ldx	$14                     ; 0x2014 <playMidi+0x17a>
    155b: 4c 6e 14     	jmp	$146e <f256main+0xb6c>
    155e: a6 15        	ldx	$15                     ; 0x2015 <playMidi+0x17b>
    1560: 80 e4        	bra	$1546 <f256main+0xc44>
    1562: a6 19        	ldx	$19                     ; 0x2019 <playMidi+0x17f>
    1564: 80 e0        	bra	$1546 <f256main+0xc44>
    1566: a0 04        	ldy	#$4
    1568: b1 12        	lda	($12),y                 ; 0x2012 <playMidi+0x178>
    156a: 85 15        	sta	$15                     ; 0x2015 <playMidi+0x17b>
    156c: b2 12        	lda	($12)                   ; 0x2012 <playMidi+0x178>
    156e: 85 14        	sta	$14                     ; 0x2014 <playMidi+0x17a>
    1570: a6 15        	ldx	$15                     ; 0x2015 <playMidi+0x17b>
    1572: 4c ab 0d     	jmp	$dab <f256main+0x4a9>
    1575: a5 19        	lda	$19                     ; 0x2019 <playMidi+0x17f>
    1577: f0 03        	beq	$157c <f256main+0xc7a>
    1579: 4c de 12     	jmp	$12de <f256main+0x9dc>
    157c: a5 18        	lda	$18                     ; 0x2018 <playMidi+0x17e>
    157e: f0 03        	beq	$1583 <f256main+0xc81>
    1580: 4c de 12     	jmp	$12de <f256main+0x9dc>
    1583: a5 26        	lda	$26                     ; 0x2026 <playMidi+0x18c>
    1585: 20 d7 25     	jsr	$25d7 <exhaustZeroes>
    1588: a6 7b        	ldx	$7b                     ; 0x207b <playMidi+0x1e1>
    158a: a4 7c        	ldy	$7c                     ; 0x207c <playMidi+0x1e2>
    158c: 86 14        	stx	$14                     ; 0x2014 <playMidi+0x17a>
    158e: 84 15        	sty	$15                     ; 0x2015 <playMidi+0x17b>
    1590: a6 70        	ldx	$70                     ; 0x2070 <playMidi+0x1d6>
    1592: a4 71        	ldy	$71                     ; 0x2071 <playMidi+0x1d7>
    1594: 86 12        	stx	$12                     ; 0x2012 <playMidi+0x178>
    1596: 84 13        	sty	$13                     ; 0x2013 <playMidi+0x179>
    1598: 4c de 12     	jmp	$12de <f256main+0x9dc>
    159b: e6 1c        	inc	$1c                     ; 0x201c <playMidi+0x182>
    159d: 4c b3 11     	jmp	$11b3 <f256main+0x8b1>

000015a0 <readMIDICmd>:
    15a0: 48           	pha
    15a1: 18           	clc
    15a2: a5 10        	lda	$10                     ; 0x2010 <playMidi+0x176>
    15a4: 69 f0        	adc	#$f0
    15a6: 85 10        	sta	$10                     ; 0x2010 <playMidi+0x176>
    15a8: a5 11        	lda	$11                     ; 0x2011 <playMidi+0x177>
    15aa: 69 ff        	adc	#$ff
    15ac: 85 11        	sta	$11                     ; 0x2011 <playMidi+0x177>
    15ae: 68           	pla
    15af: a6 24        	ldx	$24                     ; 0x2024 <playMidi+0x18a>
    15b1: da           	phx
    15b2: a6 25        	ldx	$25                     ; 0x2025 <playMidi+0x18b>
    15b4: da           	phx
    15b5: a6 26        	ldx	$26                     ; 0x2026 <playMidi+0x18c>
    15b7: da           	phx
    15b8: a6 27        	ldx	$27                     ; 0x2027 <playMidi+0x18d>
    15ba: da           	phx
    15bb: 48           	pha
    15bc: a5 28        	lda	$28                     ; 0x2028 <playMidi+0x18e>
    15be: a0 0b        	ldy	#$b
    15c0: 91 10        	sta	($10),y                 ; 0x2010 <playMidi+0x176>
    15c2: a5 29        	lda	$29                     ; 0x2029 <playMidi+0x18f>
    15c4: 88           	dey
    15c5: 91 10        	sta	($10),y                 ; 0x2010 <playMidi+0x176>
    15c7: a5 2a        	lda	$2a                     ; 0x202a <playMidi+0x190>
    15c9: 88           	dey
    15ca: 91 10        	sta	($10),y                 ; 0x2010 <playMidi+0x176>
    15cc: a5 2b        	lda	$2b                     ; 0x202b <playMidi+0x191>
    15ce: 88           	dey
    15cf: 91 10        	sta	($10),y                 ; 0x2010 <playMidi+0x176>
    15d1: a5 2c        	lda	$2c                     ; 0x202c <playMidi+0x192>
    15d3: 88           	dey
    15d4: 91 10        	sta	($10),y                 ; 0x2010 <playMidi+0x176>
    15d6: a5 2d        	lda	$2d                     ; 0x202d <playMidi+0x193>
    15d8: 88           	dey
    15d9: 91 10        	sta	($10),y                 ; 0x2010 <playMidi+0x176>
    15db: a5 2e        	lda	$2e                     ; 0x202e <playMidi+0x194>
    15dd: 88           	dey
    15de: 91 10        	sta	($10),y                 ; 0x2010 <playMidi+0x176>
    15e0: a5 2f        	lda	$2f                     ; 0x202f <playMidi+0x195>
    15e2: 88           	dey
    15e3: 91 10        	sta	($10),y                 ; 0x2010 <playMidi+0x176>
    15e5: 68           	pla
    15e6: a6 7b        	ldx	$7b                     ; 0x207b <playMidi+0x1e1>
    15e8: 86 25        	stx	$25                     ; 0x2025 <playMidi+0x18b>
    15ea: a6 7c        	ldx	$7c                     ; 0x207c <playMidi+0x1e2>
    15ec: 86 24        	stx	$24                     ; 0x2024 <playMidi+0x18a>
    15ee: a2 16        	ldx	#$16
    15f0: 86 12        	stx	$12                     ; 0x2012 <playMidi+0x178>
    15f2: 64 13        	stz	$13                     ; 0x2013 <playMidi+0x179>
    15f4: a2 00        	ldx	#$0
    15f6: a0 0e        	ldy	#$e
    15f8: 91 10        	sta	($10),y                 ; 0x2010 <playMidi+0x176>
    15fa: 20 1c 4d     	jsr	$4d1c <__mulhi3>
    15fd: 85 13        	sta	$13                     ; 0x2013 <playMidi+0x179>
    15ff: 86 12        	stx	$12                     ; 0x2012 <playMidi+0x178>
    1601: 18           	clc
    1602: a5 25        	lda	$25                     ; 0x2025 <playMidi+0x18b>
    1604: 65 13        	adc	$13                     ; 0x2013 <playMidi+0x179>
    1606: aa           	tax
    1607: a5 24        	lda	$24                     ; 0x2024 <playMidi+0x18a>
    1609: 65 12        	adc	$12                     ; 0x2012 <playMidi+0x178>
    160b: 86 14        	stx	$14                     ; 0x2014 <playMidi+0x17a>
    160d: 85 15        	sta	$15                     ; 0x2015 <playMidi+0x17b>
    160f: 85 18        	sta	$18                     ; 0x2018 <playMidi+0x17e>
    1611: 18           	clc
    1612: 8a           	txa
    1613: 69 08        	adc	#$8
    1615: 85 16        	sta	$16                     ; 0x2016 <playMidi+0x17c>
    1617: a5 18        	lda	$18                     ; 0x2018 <playMidi+0x17e>
    1619: 69 00        	adc	#$0
    161b: a0 08        	ldy	#$8
    161d: 85 17        	sta	$17                     ; 0x2017 <playMidi+0x17d>
    161f: b1 14        	lda	($14),y                 ; 0x2014 <playMidi+0x17a>
    1621: 85 1a        	sta	$1a                     ; 0x201a <playMidi+0x180>
    1623: 18           	clc
    1624: 8a           	txa
    1625: 69 04        	adc	#$4
    1627: aa           	tax
    1628: a5 18        	lda	$18                     ; 0x2018 <playMidi+0x17e>
    162a: 69 00        	adc	#$0
    162c: 85 19        	sta	$19                     ; 0x2019 <playMidi+0x17f>
    162e: a0 01        	ldy	#$1
    1630: 86 18        	stx	$18                     ; 0x2018 <playMidi+0x17e>
    1632: b1 16        	lda	($16),y                 ; 0x2016 <playMidi+0x17c>
    1634: 85 1b        	sta	$1b                     ; 0x201b <playMidi+0x181>
    1636: c8           	iny
    1637: b1 16        	lda	($16),y                 ; 0x2016 <playMidi+0x17c>
    1639: 85 16        	sta	$16                     ; 0x2016 <playMidi+0x17c>
    163b: 18           	clc
    163c: a0 04        	ldy	#$4
    163e: a5 1a        	lda	$1a                     ; 0x201a <playMidi+0x180>
    1640: 71 14        	adc	($14),y                 ; 0x2014 <playMidi+0x17a>
    1642: 85 15        	sta	$15                     ; 0x2015 <playMidi+0x17b>
    1644: a5 1b        	lda	$1b                     ; 0x201b <playMidi+0x181>
    1646: a0 01        	ldy	#$1
    1648: 71 18        	adc	($18),y                 ; 0x2018 <playMidi+0x17e>
    164a: aa           	tax
    164b: c8           	iny
    164c: a5 16        	lda	$16                     ; 0x2016 <playMidi+0x17c>
    164e: 71 18        	adc	($18),y                 ; 0x2018 <playMidi+0x17e>
    1650: 85 16        	sta	$16                     ; 0x2016 <playMidi+0x17c>
    1652: 8a           	txa
    1653: 86 14        	stx	$14                     ; 0x2014 <playMidi+0x17a>
    1655: 06 14        	asl	$14                     ; 0x2014 <playMidi+0x17a>
    1657: 26 16        	rol	$16                     ; 0x2016 <playMidi+0x17c>
    1659: 06 14        	asl	$14                     ; 0x2014 <playMidi+0x17a>
    165b: 26 16        	rol	$16                     ; 0x2016 <playMidi+0x17c>
    165d: 06 14        	asl	$14                     ; 0x2014 <playMidi+0x17a>
    165f: 26 16        	rol	$16                     ; 0x2016 <playMidi+0x17c>
    1661: a4 16        	ldy	$16                     ; 0x2016 <playMidi+0x17c>
    1663: a6 0f        	ldx	$f                      ; 0x200f <playMidi+0x175>
    1665: 78           	sei
    1666: 84 0f        	sty	$f                      ; 0x200f <playMidi+0x175>
    1668: a4 15        	ldy	$15                     ; 0x2015 <playMidi+0x17b>
    166a: 84 14        	sty	$14                     ; 0x2014 <playMidi+0x17a>
    166c: 09 e0        	ora	#$e0
    166e: 85 15        	sta	$15                     ; 0x2015 <playMidi+0x17b>
    1670: b2 14        	lda	($14)                   ; 0x2014 <playMidi+0x17a>
    1672: 85 2e        	sta	$2e                     ; 0x202e <playMidi+0x194>
    1674: 86 0f        	stx	$f                      ; 0x200f <playMidi+0x175>
    1676: 58           	cli
    1677: 18           	clc
    1678: a5 13        	lda	$13                     ; 0x2013 <playMidi+0x179>
    167a: 65 7b        	adc	$7b                     ; 0x207b <playMidi+0x1e1>
    167c: aa           	tax
    167d: a5 12        	lda	$12                     ; 0x2012 <playMidi+0x178>
    167f: 65 7c        	adc	$7c                     ; 0x207c <playMidi+0x1e2>
    1681: a8           	tay
    1682: 8a           	txa
    1683: 18           	clc
    1684: 69 08        	adc	#$8
    1686: 85 14        	sta	$14                     ; 0x2014 <playMidi+0x17a>
    1688: 98           	tya
    1689: 69 00        	adc	#$0
    168b: 85 15        	sta	$15                     ; 0x2015 <playMidi+0x17b>
    168d: 86 16        	stx	$16                     ; 0x2016 <playMidi+0x17c>
    168f: 84 17        	sty	$17                     ; 0x2017 <playMidi+0x17d>
    1691: 18           	clc
    1692: 8a           	txa
    1693: 69 04        	adc	#$4
    1695: 85 18        	sta	$18                     ; 0x2018 <playMidi+0x17e>
    1697: 98           	tya
    1698: 69 00        	adc	#$0
    169a: 85 19        	sta	$19                     ; 0x2019 <playMidi+0x17f>
    169c: a0 04        	ldy	#$4
    169e: b1 16        	lda	($16),y                 ; 0x2016 <playMidi+0x17c>
    16a0: 85 1c        	sta	$1c                     ; 0x201c <playMidi+0x182>
    16a2: a0 01        	ldy	#$1
    16a4: b1 18        	lda	($18),y                 ; 0x2018 <playMidi+0x17e>
    16a6: aa           	tax
    16a7: c8           	iny
    16a8: b1 18        	lda	($18),y                 ; 0x2018 <playMidi+0x17e>
    16aa: 85 1d        	sta	$1d                     ; 0x201d <playMidi+0x183>
    16ac: c8           	iny
    16ad: b1 18        	lda	($18),y                 ; 0x2018 <playMidi+0x17e>
    16af: 85 18        	sta	$18                     ; 0x2018 <playMidi+0x17e>
    16b1: 18           	clc
    16b2: a0 08        	ldy	#$8
    16b4: a5 1c        	lda	$1c                     ; 0x201c <playMidi+0x182>
    16b6: 71 16        	adc	($16),y                 ; 0x2016 <playMidi+0x17c>
    16b8: 85 16        	sta	$16                     ; 0x2016 <playMidi+0x17c>
    16ba: a0 01        	ldy	#$1
    16bc: 8a           	txa
    16bd: 71 14        	adc	($14),y                 ; 0x2014 <playMidi+0x17a>
    16bf: 85 17        	sta	$17                     ; 0x2017 <playMidi+0x17d>
    16c1: c8           	iny
    16c2: a5 1d        	lda	$1d                     ; 0x201d <playMidi+0x183>
    16c4: 71 14        	adc	($14),y                 ; 0x2014 <playMidi+0x17a>
    16c6: aa           	tax
    16c7: a5 18        	lda	$18                     ; 0x2018 <playMidi+0x17e>
    16c9: c8           	iny
    16ca: 71 14        	adc	($14),y                 ; 0x2014 <playMidi+0x17a>
    16cc: a8           	tay
    16cd: a5 17        	lda	$17                     ; 0x2017 <playMidi+0x17d>
    16cf: e6 16        	inc	$16                     ; 0x2016 <playMidi+0x17c>
    16d1: d0 07        	bne	$16da <readMIDICmd+0x13a>
    16d3: 1a           	inc
    16d4: d0 04        	bne	$16da <readMIDICmd+0x13a>
    16d6: e8           	inx
    16d7: d0 01        	bne	$16da <readMIDICmd+0x13a>
    16d9: c8           	iny
    16da: 85 14        	sta	$14                     ; 0x2014 <playMidi+0x17a>
    16dc: 06 14        	asl	$14                     ; 0x2014 <playMidi+0x17a>
    16de: 86 15        	stx	$15                     ; 0x2015 <playMidi+0x17b>
    16e0: 26 15        	rol	$15                     ; 0x2015 <playMidi+0x17b>
    16e2: 06 14        	asl	$14                     ; 0x2014 <playMidi+0x17a>
    16e4: 26 15        	rol	$15                     ; 0x2015 <playMidi+0x17b>
    16e6: 06 14        	asl	$14                     ; 0x2014 <playMidi+0x17a>
    16e8: 26 15        	rol	$15                     ; 0x2015 <playMidi+0x17b>
    16ea: a4 15        	ldy	$15                     ; 0x2015 <playMidi+0x17b>
    16ec: a6 0f        	ldx	$f                      ; 0x200f <playMidi+0x175>
    16ee: 78           	sei
    16ef: 84 0f        	sty	$f                      ; 0x200f <playMidi+0x175>
    16f1: a4 16        	ldy	$16                     ; 0x2016 <playMidi+0x17c>
    16f3: 84 14        	sty	$14                     ; 0x2014 <playMidi+0x17a>
    16f5: 09 e0        	ora	#$e0
    16f7: 85 15        	sta	$15                     ; 0x2015 <playMidi+0x17b>
    16f9: b2 14        	lda	($14)                   ; 0x2014 <playMidi+0x17a>
    16fb: 85 18        	sta	$18                     ; 0x2018 <playMidi+0x17e>
    16fd: 86 0f        	stx	$f                      ; 0x200f <playMidi+0x175>
    16ff: 58           	cli
    1700: 18           	clc
    1701: a5 13        	lda	$13                     ; 0x2013 <playMidi+0x179>
    1703: 65 7b        	adc	$7b                     ; 0x207b <playMidi+0x1e1>
    1705: a8           	tay
    1706: a5 12        	lda	$12                     ; 0x2012 <playMidi+0x178>
    1708: 65 7c        	adc	$7c                     ; 0x207c <playMidi+0x1e2>
    170a: aa           	tax
    170b: 98           	tya
    170c: 84 14        	sty	$14                     ; 0x2014 <playMidi+0x17a>
    170e: 86 15        	stx	$15                     ; 0x2015 <playMidi+0x17b>
    1710: 84 1a        	sty	$1a                     ; 0x201a <playMidi+0x180>
    1712: 18           	clc
    1713: 69 04        	adc	#$4
    1715: 85 16        	sta	$16                     ; 0x2016 <playMidi+0x17c>
    1717: 8a           	txa
    1718: 69 00        	adc	#$0
    171a: 85 17        	sta	$17                     ; 0x2017 <playMidi+0x17d>
    171c: a0 04        	ldy	#$4
    171e: b1 14        	lda	($14),y                 ; 0x2014 <playMidi+0x17a>
    1720: 85 19        	sta	$19                     ; 0x2019 <playMidi+0x17f>
    1722: a0 01        	ldy	#$1
    1724: b1 16        	lda	($16),y                 ; 0x2016 <playMidi+0x17c>
    1726: 85 1b        	sta	$1b                     ; 0x201b <playMidi+0x181>
    1728: c8           	iny
    1729: b1 16        	lda	($16),y                 ; 0x2016 <playMidi+0x17c>
    172b: 85 17        	sta	$17                     ; 0x2017 <playMidi+0x17d>
    172d: 18           	clc
    172e: a0 08        	ldy	#$8
    1730: a5 19        	lda	$19                     ; 0x2019 <playMidi+0x17f>
    1732: 71 14        	adc	($14),y                 ; 0x2014 <playMidi+0x17a>
    1734: a0 01        	ldy	#$1
    1736: b0 02        	bcs	$173a <readMIDICmd+0x19a>
    1738: a0 00        	ldy	#$0
    173a: 84 19        	sty	$19                     ; 0x2019 <playMidi+0x17f>
    173c: 85 16        	sta	$16                     ; 0x2016 <playMidi+0x17c>
    173e: 18           	clc
    173f: a5 1a        	lda	$1a                     ; 0x201a <playMidi+0x180>
    1741: 69 08        	adc	#$8
    1743: 85 14        	sta	$14                     ; 0x2014 <playMidi+0x17a>
    1745: 8a           	txa
    1746: 69 00        	adc	#$0
    1748: 85 15        	sta	$15                     ; 0x2015 <playMidi+0x17b>
    174a: a0 01        	ldy	#$1
    174c: a5 1b        	lda	$1b                     ; 0x201b <playMidi+0x181>
    174e: a6 19        	ldx	$19                     ; 0x2019 <playMidi+0x17f>
    1750: e0 01        	cpx	#$1
    1752: 71 14        	adc	($14),y                 ; 0x2014 <playMidi+0x17a>
    1754: 85 19        	sta	$19                     ; 0x2019 <playMidi+0x17f>
    1756: c8           	iny
    1757: a5 17        	lda	$17                     ; 0x2017 <playMidi+0x17d>
    1759: 71 14        	adc	($14),y                 ; 0x2014 <playMidi+0x17a>
    175b: 85 14        	sta	$14                     ; 0x2014 <playMidi+0x17a>
    175d: 18           	clc
    175e: a5 16        	lda	$16                     ; 0x2016 <playMidi+0x17c>
    1760: 69 02        	adc	#$2
    1762: 85 16        	sta	$16                     ; 0x2016 <playMidi+0x17c>
    1764: a5 19        	lda	$19                     ; 0x2019 <playMidi+0x17f>
    1766: 69 00        	adc	#$0
    1768: aa           	tax
    1769: a5 14        	lda	$14                     ; 0x2014 <playMidi+0x17a>
    176b: 69 00        	adc	#$0
    176d: 85 15        	sta	$15                     ; 0x2015 <playMidi+0x17b>
    176f: 8a           	txa
    1770: 86 14        	stx	$14                     ; 0x2014 <playMidi+0x17a>
    1772: 06 14        	asl	$14                     ; 0x2014 <playMidi+0x17a>
    1774: 26 15        	rol	$15                     ; 0x2015 <playMidi+0x17b>
    1776: 06 14        	asl	$14                     ; 0x2014 <playMidi+0x17a>
    1778: 26 15        	rol	$15                     ; 0x2015 <playMidi+0x17b>
    177a: 06 14        	asl	$14                     ; 0x2014 <playMidi+0x17a>
    177c: 26 15        	rol	$15                     ; 0x2015 <playMidi+0x17b>
    177e: a4 15        	ldy	$15                     ; 0x2015 <playMidi+0x17b>
    1780: a6 0f        	ldx	$f                      ; 0x200f <playMidi+0x175>
    1782: 78           	sei
    1783: 84 0f        	sty	$f                      ; 0x200f <playMidi+0x175>
    1785: a4 16        	ldy	$16                     ; 0x2016 <playMidi+0x17c>
    1787: 84 14        	sty	$14                     ; 0x2014 <playMidi+0x17a>
    1789: 09 e0        	ora	#$e0
    178b: 85 15        	sta	$15                     ; 0x2015 <playMidi+0x17b>
    178d: b2 14        	lda	($14)                   ; 0x2014 <playMidi+0x17a>
    178f: 85 14        	sta	$14                     ; 0x2014 <playMidi+0x17a>
    1791: 86 0f        	stx	$f                      ; 0x200f <playMidi+0x175>
    1793: 58           	cli
    1794: a4 7b        	ldy	$7b                     ; 0x207b <playMidi+0x1e1>
    1796: a6 7c        	ldx	$7c                     ; 0x207c <playMidi+0x1e2>
    1798: 84 2d        	sty	$2d                     ; 0x202d <playMidi+0x193>
    179a: 98           	tya
    179b: 18           	clc
    179c: 65 13        	adc	$13                     ; 0x2013 <playMidi+0x179>
    179e: a8           	tay
    179f: 8a           	txa
    17a0: 65 12        	adc	$12                     ; 0x2012 <playMidi+0x178>
    17a2: 84 28        	sty	$28                     ; 0x2028 <playMidi+0x18e>
    17a4: 85 29        	sta	$29                     ; 0x2029 <playMidi+0x18f>
    17a6: 85 12        	sta	$12                     ; 0x2012 <playMidi+0x178>
    17a8: 18           	clc
    17a9: 98           	tya
    17aa: 69 04        	adc	#$4
    17ac: 85 26        	sta	$26                     ; 0x2026 <playMidi+0x18c>
    17ae: a5 12        	lda	$12                     ; 0x2012 <playMidi+0x178>
    17b0: 69 00        	adc	#$0
    17b2: 85 27        	sta	$27                     ; 0x2027 <playMidi+0x18d>
    17b4: a0 10        	ldy	#$10
    17b6: a5 2e        	lda	$2e                     ; 0x202e <playMidi+0x194>
    17b8: 91 28        	sta	($28),y                 ; 0x2028 <playMidi+0x18e>
    17ba: c8           	iny
    17bb: a5 18        	lda	$18                     ; 0x2018 <playMidi+0x17e>
    17bd: 85 2f        	sta	$2f                     ; 0x202f <playMidi+0x195>
    17bf: 91 28        	sta	($28),y                 ; 0x2028 <playMidi+0x18e>
    17c1: c8           	iny
    17c2: a5 14        	lda	$14                     ; 0x2014 <playMidi+0x17a>
    17c4: 85 16        	sta	$16                     ; 0x2016 <playMidi+0x17c>
    17c6: 91 28        	sta	($28),y                 ; 0x2028 <playMidi+0x18e>
    17c8: a0 04        	ldy	#$4
    17ca: b1 28        	lda	($28),y                 ; 0x2028 <playMidi+0x18e>
    17cc: 85 13        	sta	$13                     ; 0x2013 <playMidi+0x179>
    17ce: a0 01        	ldy	#$1
    17d0: b1 26        	lda	($26),y                 ; 0x2026 <playMidi+0x18c>
    17d2: 85 15        	sta	$15                     ; 0x2015 <playMidi+0x17b>
    17d4: c8           	iny
    17d5: b1 26        	lda	($26),y                 ; 0x2026 <playMidi+0x18c>
    17d7: 85 12        	sta	$12                     ; 0x2012 <playMidi+0x178>
    17d9: c8           	iny
    17da: b1 26        	lda	($26),y                 ; 0x2026 <playMidi+0x18c>
    17dc: a8           	tay
    17dd: a5 13        	lda	$13                     ; 0x2013 <playMidi+0x179>
    17df: 85 24        	sta	$24                     ; 0x2024 <playMidi+0x18a>
    17e1: 5a           	phy
    17e2: a4 15        	ldy	$15                     ; 0x2015 <playMidi+0x17b>
    17e4: 84 2a        	sty	$2a                     ; 0x202a <playMidi+0x190>
    17e6: a4 12        	ldy	$12                     ; 0x2012 <playMidi+0x178>
    17e8: 84 2c        	sty	$2c                     ; 0x202c <playMidi+0x192>
    17ea: 7a           	ply
    17eb: 84 2b        	sty	$2b                     ; 0x202b <playMidi+0x191>
    17ed: 84 13        	sty	$13                     ; 0x2013 <playMidi+0x179>
    17ef: 1a           	inc
    17f0: d0 0a        	bne	$17fc <readMIDICmd+0x25c>
    17f2: e6 15        	inc	$15                     ; 0x2015 <playMidi+0x17b>
    17f4: d0 06        	bne	$17fc <readMIDICmd+0x25c>
    17f6: e6 12        	inc	$12                     ; 0x2012 <playMidi+0x178>
    17f8: d0 02        	bne	$17fc <readMIDICmd+0x25c>
    17fa: e6 13        	inc	$13                     ; 0x2013 <playMidi+0x179>
    17fc: a0 04        	ldy	#$4
    17fe: 85 14        	sta	$14                     ; 0x2014 <playMidi+0x17a>
    1800: 91 28        	sta	($28),y                 ; 0x2028 <playMidi+0x18e>
    1802: a0 01        	ldy	#$1
    1804: a5 15        	lda	$15                     ; 0x2015 <playMidi+0x17b>
    1806: 85 25        	sta	$25                     ; 0x2025 <playMidi+0x18b>
    1808: 91 26        	sta	($26),y                 ; 0x2026 <playMidi+0x18c>
    180a: c8           	iny
    180b: a5 12        	lda	$12                     ; 0x2012 <playMidi+0x178>
    180d: 85 17        	sta	$17                     ; 0x2017 <playMidi+0x17d>
    180f: 91 26        	sta	($26),y                 ; 0x2026 <playMidi+0x18c>
    1811: c8           	iny
    1812: a5 13        	lda	$13                     ; 0x2013 <playMidi+0x179>
    1814: 91 26        	sta	($26),y                 ; 0x2026 <playMidi+0x18c>
    1816: a4 2e        	ldy	$2e                     ; 0x202e <playMidi+0x194>
    1818: 10 03        	bpl	$181d <readMIDICmd+0x27d>
    181a: 4c fc 18     	jmp	$18fc <readMIDICmd+0x35c>
    181d: 86 25        	stx	$25                     ; 0x2025 <playMidi+0x18b>
    181f: a2 16        	ldx	#$16
    1821: 86 12        	stx	$12                     ; 0x2012 <playMidi+0x178>
    1823: 64 13        	stz	$13                     ; 0x2013 <playMidi+0x179>
    1825: 64 14        	stz	$14                     ; 0x2014 <playMidi+0x17a>
    1827: a9 00        	lda	#$0
    1829: a0 0f        	ldy	#$f
    182b: 91 10        	sta	($10),y                 ; 0x2010 <playMidi+0x176>
    182d: aa           	tax
    182e: 88           	dey
    182f: b1 10        	lda	($10),y                 ; 0x2010 <playMidi+0x176>
    1831: 20 1c 4d     	jsr	$4d1c <__mulhi3>
    1834: 85 12        	sta	$12                     ; 0x2012 <playMidi+0x178>
    1836: 86 13        	stx	$13                     ; 0x2013 <playMidi+0x179>
    1838: a5 2e        	lda	$2e                     ; 0x202e <playMidi+0x194>
    183a: a6 2e        	ldx	$2e                     ; 0x202e <playMidi+0x194>
    183c: a0 11        	ldy	#$11
    183e: 91 28        	sta	($28),y                 ; 0x2028 <playMidi+0x18e>
    1840: a5 2f        	lda	$2f                     ; 0x202f <playMidi+0x195>
    1842: 85 16        	sta	$16                     ; 0x2016 <playMidi+0x17c>
    1844: c8           	iny
    1845: 91 28        	sta	($28),y                 ; 0x2028 <playMidi+0x18e>
    1847: a5 24        	lda	$24                     ; 0x2024 <playMidi+0x18a>
    1849: a0 0d        	ldy	#$d
    184b: 91 10        	sta	($10),y                 ; 0x2010 <playMidi+0x176>
    184d: a0 04        	ldy	#$4
    184f: 91 28        	sta	($28),y                 ; 0x2028 <playMidi+0x18e>
    1851: a5 2d        	lda	$2d                     ; 0x202d <playMidi+0x193>
    1853: 18           	clc
    1854: 65 12        	adc	$12                     ; 0x2012 <playMidi+0x178>
    1856: 85 12        	sta	$12                     ; 0x2012 <playMidi+0x178>
    1858: a5 25        	lda	$25                     ; 0x2025 <playMidi+0x18b>
    185a: a0 0c        	ldy	#$c
    185c: 91 10        	sta	($10),y                 ; 0x2010 <playMidi+0x176>
    185e: 65 13        	adc	$13                     ; 0x2013 <playMidi+0x179>
    1860: 85 13        	sta	$13                     ; 0x2013 <playMidi+0x179>
    1862: a0 13        	ldy	#$13
    1864: b1 12        	lda	($12),y                 ; 0x2012 <playMidi+0x178>
    1866: 85 2e        	sta	$2e                     ; 0x202e <playMidi+0x194>
    1868: b1 12        	lda	($12),y                 ; 0x2012 <playMidi+0x178>
    186a: a0 10        	ldy	#$10
    186c: 91 28        	sta	($28),y                 ; 0x2028 <playMidi+0x18e>
    186e: a0 01        	ldy	#$1
    1870: a5 2a        	lda	$2a                     ; 0x202a <playMidi+0x190>
    1872: 85 25        	sta	$25                     ; 0x2025 <playMidi+0x18b>
    1874: 91 26        	sta	($26),y                 ; 0x2026 <playMidi+0x18c>
    1876: c8           	iny
    1877: a5 2c        	lda	$2c                     ; 0x202c <playMidi+0x192>
    1879: 91 26        	sta	($26),y                 ; 0x2026 <playMidi+0x18c>
    187b: 85 12        	sta	$12                     ; 0x2012 <playMidi+0x178>
    187d: a5 2b        	lda	$2b                     ; 0x202b <playMidi+0x191>
    187f: 85 2c        	sta	$2c                     ; 0x202c <playMidi+0x192>
    1881: c8           	iny
    1882: 91 26        	sta	($26),y                 ; 0x2026 <playMidi+0x18c>
    1884: 64 17        	stz	$17                     ; 0x2017 <playMidi+0x17d>
    1886: 64 18        	stz	$18                     ; 0x2018 <playMidi+0x17e>
    1888: 64 19        	stz	$19                     ; 0x2019 <playMidi+0x17f>
    188a: a4 12        	ldy	$12                     ; 0x2012 <playMidi+0x178>
    188c: 84 24        	sty	$24                     ; 0x2024 <playMidi+0x18a>
    188e: a4 2e        	ldy	$2e                     ; 0x202e <playMidi+0x194>
    1890: c0 ff        	cpy	#$ff
    1892: d0 03        	bne	$1897 <readMIDICmd+0x2f7>
    1894: 4c 29 19     	jmp	$1929 <readMIDICmd+0x389>
    1897: a6 2e        	ldx	$2e                     ; 0x202e <playMidi+0x194>
    1899: e0 c0        	cpx	#$c0
    189b: b0 03        	bcs	$18a0 <readMIDICmd+0x300>
    189d: 4c 38 19     	jmp	$1938 <readMIDICmd+0x398>
    18a0: a6 2e        	ldx	$2e                     ; 0x202e <playMidi+0x194>
    18a2: e0 e0        	cpx	#$e0
    18a4: 90 03        	bcc	$18a9 <readMIDICmd+0x309>
    18a6: 4c a4 19     	jmp	$19a4 <readMIDICmd+0x404>
    18a9: a0 0d        	ldy	#$d
    18ab: b1 10        	lda	($10),y                 ; 0x2010 <playMidi+0x176>
    18ad: 1a           	inc
    18ae: d0 0a        	bne	$18ba <readMIDICmd+0x31a>
    18b0: e6 25        	inc	$25                     ; 0x2025 <playMidi+0x18b>
    18b2: d0 06        	bne	$18ba <readMIDICmd+0x31a>
    18b4: e6 24        	inc	$24                     ; 0x2024 <playMidi+0x18a>
    18b6: d0 02        	bne	$18ba <readMIDICmd+0x31a>
    18b8: e6 2c        	inc	$2c                     ; 0x202c <playMidi+0x192>
    18ba: a0 04        	ldy	#$4
    18bc: 91 28        	sta	($28),y                 ; 0x2028 <playMidi+0x18e>
    18be: a0 01        	ldy	#$1
    18c0: a5 25        	lda	$25                     ; 0x2025 <playMidi+0x18b>
    18c2: 91 26        	sta	($26),y                 ; 0x2026 <playMidi+0x18c>
    18c4: c8           	iny
    18c5: a5 24        	lda	$24                     ; 0x2024 <playMidi+0x18a>
    18c7: 91 26        	sta	($26),y                 ; 0x2026 <playMidi+0x18c>
    18c9: c8           	iny
    18ca: a5 2c        	lda	$2c                     ; 0x202c <playMidi+0x192>
    18cc: 91 26        	sta	($26),y                 ; 0x2026 <playMidi+0x18c>
    18ce: a0 16        	ldy	#$16
    18d0: 64 13        	stz	$13                     ; 0x2013 <playMidi+0x179>
    18d2: a2 00        	ldx	#$0
    18d4: 84 12        	sty	$12                     ; 0x2012 <playMidi+0x178>
    18d6: a0 0e        	ldy	#$e
    18d8: b1 10        	lda	($10),y                 ; 0x2010 <playMidi+0x176>
    18da: 20 1c 4d     	jsr	$4d1c <__mulhi3>
    18dd: 85 12        	sta	$12                     ; 0x2012 <playMidi+0x178>
    18df: 86 13        	stx	$13                     ; 0x2013 <playMidi+0x179>
    18e1: 18           	clc
    18e2: a5 2d        	lda	$2d                     ; 0x202d <playMidi+0x193>
    18e4: 65 12        	adc	$12                     ; 0x2012 <playMidi+0x178>
    18e6: 85 12        	sta	$12                     ; 0x2012 <playMidi+0x178>
    18e8: a0 0c        	ldy	#$c
    18ea: b1 10        	lda	($10),y                 ; 0x2010 <playMidi+0x176>
    18ec: 65 13        	adc	$13                     ; 0x2013 <playMidi+0x179>
    18ee: 85 13        	sta	$13                     ; 0x2013 <playMidi+0x179>
    18f0: a0 14        	ldy	#$14
    18f2: a9 01        	lda	#$1
    18f4: 91 12        	sta	($12),y                 ; 0x2012 <playMidi+0x178>
    18f6: 88           	dey
    18f7: a5 2e        	lda	$2e                     ; 0x202e <playMidi+0x194>
    18f9: 4c f7 19     	jmp	$19f7 <readMIDICmd+0x457>
    18fc: 85 15        	sta	$15                     ; 0x2015 <playMidi+0x17b>
    18fe: 8a           	txa
    18ff: a0 0c        	ldy	#$c
    1901: 91 10        	sta	($10),y                 ; 0x2010 <playMidi+0x176>
    1903: a5 14        	lda	$14                     ; 0x2014 <playMidi+0x17a>
    1905: c8           	iny
    1906: 91 10        	sta	($10),y                 ; 0x2010 <playMidi+0x176>
    1908: a6 17        	ldx	$17                     ; 0x2017 <playMidi+0x17d>
    190a: 86 24        	stx	$24                     ; 0x2024 <playMidi+0x18a>
    190c: a6 15        	ldx	$15                     ; 0x2015 <playMidi+0x17b>
    190e: 86 2c        	stx	$2c                     ; 0x202c <playMidi+0x192>
    1910: a6 2f        	ldx	$2f                     ; 0x202f <playMidi+0x195>
    1912: 64 12        	stz	$12                     ; 0x2012 <playMidi+0x178>
    1914: a9 00        	lda	#$0
    1916: a0 0f        	ldy	#$f
    1918: 91 10        	sta	($10),y                 ; 0x2010 <playMidi+0x176>
    191a: 64 17        	stz	$17                     ; 0x2017 <playMidi+0x17d>
    191c: 64 18        	stz	$18                     ; 0x2018 <playMidi+0x17e>
    191e: 64 19        	stz	$19                     ; 0x2019 <playMidi+0x17f>
    1920: a4 2e        	ldy	$2e                     ; 0x202e <playMidi+0x194>
    1922: c0 ff        	cpy	#$ff
    1924: f0 03        	beq	$1929 <readMIDICmd+0x389>
    1926: 4c 97 18     	jmp	$1897 <readMIDICmd+0x2f7>
    1929: a4 24        	ldy	$24                     ; 0x2024 <playMidi+0x18a>
    192b: 84 14        	sty	$14                     ; 0x2014 <playMidi+0x17a>
    192d: a0 0f        	ldy	#$f
    192f: b1 10        	lda	($10),y                 ; 0x2010 <playMidi+0x176>
    1931: a8           	tay
    1932: d0 0e        	bne	$1942 <readMIDICmd+0x3a2>
    1934: e0 5a        	cpx	#$5a
    1936: 80 0c        	bra	$1944 <readMIDICmd+0x3a4>
    1938: a5 2e        	lda	$2e                     ; 0x202e <playMidi+0x194>
    193a: 30 03        	bmi	$193f <readMIDICmd+0x39f>
    193c: 4c f9 19     	jmp	$19f9 <readMIDICmd+0x459>
    193f: 4c aa 19     	jmp	$19aa <readMIDICmd+0x40a>
    1942: c0 00        	cpy	#$0
    1944: a0 01        	ldy	#$1
    1946: 98           	tya
    1947: a0 0f        	ldy	#$f
    1949: 91 10        	sta	($10),y                 ; 0x2010 <playMidi+0x176>
    194b: 90 03        	bcc	$1950 <readMIDICmd+0x3b0>
    194d: 4c 45 1d     	jmp	$1d45 <readMIDICmd+0x7a5>
    1950: 86 12        	stx	$12                     ; 0x2012 <playMidi+0x178>
    1952: 06 12        	asl	$12                     ; 0x2012 <playMidi+0x178>
    1954: a6 12        	ldx	$12                     ; 0x2012 <playMidi+0x178>
    1956: 7c 60 4f     	jmp	($4f60,x)               ; 0x4f60 <__set_v+0x1>
    1959: a0 0d        	ldy	#$d
    195b: b1 10        	lda	($10),y                 ; 0x2010 <playMidi+0x176>
    195d: 85 12        	sta	$12                     ; 0x2012 <playMidi+0x178>
    195f: 18           	clc
    1960: a5 16        	lda	$16                     ; 0x2016 <playMidi+0x17c>
    1962: 65 12        	adc	$12                     ; 0x2012 <playMidi+0x178>
    1964: 85 16        	sta	$16                     ; 0x2016 <playMidi+0x17c>
    1966: a9 00        	lda	#$0
    1968: 65 25        	adc	$25                     ; 0x2025 <playMidi+0x18b>
    196a: a8           	tay
    196b: a9 00        	lda	#$0
    196d: 65 14        	adc	$14                     ; 0x2014 <playMidi+0x17a>
    196f: 85 12        	sta	$12                     ; 0x2012 <playMidi+0x178>
    1971: a9 00        	lda	#$0
    1973: 65 2c        	adc	$2c                     ; 0x202c <playMidi+0x192>
    1975: aa           	tax
    1976: 18           	clc
    1977: a5 16        	lda	$16                     ; 0x2016 <playMidi+0x17c>
    1979: 69 02        	adc	#$2
    197b: 85 15        	sta	$15                     ; 0x2015 <playMidi+0x17b>
    197d: 98           	tya
    197e: 69 00        	adc	#$0
    1980: 85 14        	sta	$14                     ; 0x2014 <playMidi+0x17a>
    1982: a5 12        	lda	$12                     ; 0x2012 <playMidi+0x178>
    1984: 69 00        	adc	#$0
    1986: 85 12        	sta	$12                     ; 0x2012 <playMidi+0x178>
    1988: 8a           	txa
    1989: 69 00        	adc	#$0
    198b: 85 13        	sta	$13                     ; 0x2013 <playMidi+0x179>
    198d: a0 04        	ldy	#$4
    198f: a5 15        	lda	$15                     ; 0x2015 <playMidi+0x17b>
    1991: 91 28        	sta	($28),y                 ; 0x2028 <playMidi+0x18e>
    1993: a0 01        	ldy	#$1
    1995: a5 14        	lda	$14                     ; 0x2014 <playMidi+0x17a>
    1997: 91 26        	sta	($26),y                 ; 0x2026 <playMidi+0x18c>
    1999: c8           	iny
    199a: a5 12        	lda	$12                     ; 0x2012 <playMidi+0x178>
    199c: 91 26        	sta	($26),y                 ; 0x2026 <playMidi+0x18c>
    199e: c8           	iny
    199f: a5 13        	lda	$13                     ; 0x2013 <playMidi+0x179>
    19a1: 4c 3c 1d     	jmp	$1d3c <readMIDICmd+0x79c>
    19a4: a6 2e        	ldx	$2e                     ; 0x202e <playMidi+0x194>
    19a6: e0 f0        	cpx	#$f0
    19a8: b0 4f        	bcs	$19f9 <readMIDICmd+0x459>
    19aa: a2 16        	ldx	#$16
    19ac: 86 12        	stx	$12                     ; 0x2012 <playMidi+0x178>
    19ae: 64 13        	stz	$13                     ; 0x2013 <playMidi+0x179>
    19b0: a2 00        	ldx	#$0
    19b2: a0 0e        	ldy	#$e
    19b4: b1 10        	lda	($10),y                 ; 0x2010 <playMidi+0x176>
    19b6: 20 1c 4d     	jsr	$4d1c <__mulhi3>
    19b9: 85 12        	sta	$12                     ; 0x2012 <playMidi+0x178>
    19bb: 86 13        	stx	$13                     ; 0x2013 <playMidi+0x179>
    19bd: 18           	clc
    19be: a5 2d        	lda	$2d                     ; 0x202d <playMidi+0x193>
    19c0: 65 12        	adc	$12                     ; 0x2012 <playMidi+0x178>
    19c2: 85 12        	sta	$12                     ; 0x2012 <playMidi+0x178>
    19c4: a0 0c        	ldy	#$c
    19c6: b1 10        	lda	($10),y                 ; 0x2010 <playMidi+0x176>
    19c8: 65 13        	adc	$13                     ; 0x2013 <playMidi+0x179>
    19ca: 85 13        	sta	$13                     ; 0x2013 <playMidi+0x179>
    19cc: a0 13        	ldy	#$13
    19ce: a5 2e        	lda	$2e                     ; 0x202e <playMidi+0x194>
    19d0: 91 12        	sta	($12),y                 ; 0x2012 <playMidi+0x178>
    19d2: a0 0d        	ldy	#$d
    19d4: b1 10        	lda	($10),y                 ; 0x2010 <playMidi+0x176>
    19d6: 18           	clc
    19d7: 69 02        	adc	#$2
    19d9: a0 04        	ldy	#$4
    19db: 91 28        	sta	($28),y                 ; 0x2028 <playMidi+0x18e>
    19dd: a5 25        	lda	$25                     ; 0x2025 <playMidi+0x18b>
    19df: 69 00        	adc	#$0
    19e1: a0 01        	ldy	#$1
    19e3: 91 26        	sta	($26),y                 ; 0x2026 <playMidi+0x18c>
    19e5: a5 24        	lda	$24                     ; 0x2024 <playMidi+0x18a>
    19e7: 69 00        	adc	#$0
    19e9: c8           	iny
    19ea: 91 26        	sta	($26),y                 ; 0x2026 <playMidi+0x18c>
    19ec: a5 2c        	lda	$2c                     ; 0x202c <playMidi+0x192>
    19ee: 69 00        	adc	#$0
    19f0: c8           	iny
    19f1: 91 26        	sta	($26),y                 ; 0x2026 <playMidi+0x18c>
    19f3: a0 14        	ldy	#$14
    19f5: a9 00        	lda	#$0
    19f7: 91 12        	sta	($12),y                 ; 0x2012 <playMidi+0x178>
    19f9: 64 12        	stz	$12                     ; 0x2012 <playMidi+0x178>
    19fb: a9 00        	lda	#$0
    19fd: 4c 41 1d     	jmp	$1d41 <readMIDICmd+0x7a1>
    1a00: 18           	clc
    1a01: a0 0d        	ldy	#$d
    1a03: b1 10        	lda	($10),y                 ; 0x2010 <playMidi+0x176>
    1a05: 69 03        	adc	#$3
    1a07: 4c 16 1d     	jmp	$1d16 <readMIDICmd+0x776>
    1a0a: 18           	clc
    1a0b: a0 0d        	ldy	#$d
    1a0d: b1 10        	lda	($10),y                 ; 0x2010 <playMidi+0x176>
    1a0f: 69 07        	adc	#$7
    1a11: 4c 16 1d     	jmp	$1d16 <readMIDICmd+0x776>
    1a14: a6 24        	ldx	$24                     ; 0x2024 <playMidi+0x18a>
    1a16: 86 2e        	stx	$2e                     ; 0x202e <playMidi+0x194>
    1a18: a0 0d        	ldy	#$d
    1a1a: b1 10        	lda	($10),y                 ; 0x2010 <playMidi+0x176>
    1a1c: 85 2a        	sta	$2a                     ; 0x202a <playMidi+0x190>
    1a1e: e6 2a        	inc	$2a                     ; 0x202a <playMidi+0x190>
    1a20: d0 0a        	bne	$1a2c <readMIDICmd+0x48c>
    1a22: e6 25        	inc	$25                     ; 0x2025 <playMidi+0x18b>
    1a24: d0 06        	bne	$1a2c <readMIDICmd+0x48c>
    1a26: e6 2e        	inc	$2e                     ; 0x202e <playMidi+0x194>
    1a28: d0 02        	bne	$1a2c <readMIDICmd+0x48c>
    1a2a: e6 2c        	inc	$2c                     ; 0x202c <playMidi+0x192>
    1a2c: a0 04        	ldy	#$4
    1a2e: a5 2a        	lda	$2a                     ; 0x202a <playMidi+0x190>
    1a30: 91 28        	sta	($28),y                 ; 0x2028 <playMidi+0x18e>
    1a32: a0 01        	ldy	#$1
    1a34: a5 25        	lda	$25                     ; 0x2025 <playMidi+0x18b>
    1a36: 91 26        	sta	($26),y                 ; 0x2026 <playMidi+0x18c>
    1a38: 85 28        	sta	$28                     ; 0x2028 <playMidi+0x18e>
    1a3a: c8           	iny
    1a3b: a5 2e        	lda	$2e                     ; 0x202e <playMidi+0x194>
    1a3d: 91 26        	sta	($26),y                 ; 0x2026 <playMidi+0x18c>
    1a3f: c8           	iny
    1a40: a5 2c        	lda	$2c                     ; 0x202c <playMidi+0x192>
    1a42: 91 26        	sta	($26),y                 ; 0x2026 <playMidi+0x18c>
    1a44: a2 16        	ldx	#$16
    1a46: 86 12        	stx	$12                     ; 0x2012 <playMidi+0x178>
    1a48: 64 13        	stz	$13                     ; 0x2013 <playMidi+0x179>
    1a4a: a2 00        	ldx	#$0
    1a4c: a0 0e        	ldy	#$e
    1a4e: b1 10        	lda	($10),y                 ; 0x2010 <playMidi+0x176>
    1a50: 20 1c 4d     	jsr	$4d1c <__mulhi3>
    1a53: 86 24        	stx	$24                     ; 0x2024 <playMidi+0x18a>
    1a55: 85 12        	sta	$12                     ; 0x2012 <playMidi+0x178>
    1a57: 85 25        	sta	$25                     ; 0x2025 <playMidi+0x18b>
    1a59: 86 13        	stx	$13                     ; 0x2013 <playMidi+0x179>
    1a5b: 18           	clc
    1a5c: a5 2d        	lda	$2d                     ; 0x202d <playMidi+0x193>
    1a5e: 65 12        	adc	$12                     ; 0x2012 <playMidi+0x178>
    1a60: aa           	tax
    1a61: a0 0c        	ldy	#$c
    1a63: b1 10        	lda	($10),y                 ; 0x2010 <playMidi+0x176>
    1a65: 65 13        	adc	$13                     ; 0x2013 <playMidi+0x179>
    1a67: 86 12        	stx	$12                     ; 0x2012 <playMidi+0x178>
    1a69: 85 13        	sta	$13                     ; 0x2013 <playMidi+0x179>
    1a6b: a8           	tay
    1a6c: 18           	clc
    1a6d: 8a           	txa
    1a6e: 69 08        	adc	#$8
    1a70: 85 14        	sta	$14                     ; 0x2014 <playMidi+0x17a>
    1a72: 98           	tya
    1a73: 69 00        	adc	#$0
    1a75: 85 15        	sta	$15                     ; 0x2015 <playMidi+0x17b>
    1a77: a0 08        	ldy	#$8
    1a79: 18           	clc
    1a7a: a5 2a        	lda	$2a                     ; 0x202a <playMidi+0x190>
    1a7c: 71 12        	adc	($12),y                 ; 0x2012 <playMidi+0x178>
    1a7e: 85 12        	sta	$12                     ; 0x2012 <playMidi+0x178>
    1a80: a0 01        	ldy	#$1
    1a82: a5 28        	lda	$28                     ; 0x2028 <playMidi+0x18e>
    1a84: 71 14        	adc	($14),y                 ; 0x2014 <playMidi+0x17a>
    1a86: 85 16        	sta	$16                     ; 0x2016 <playMidi+0x17c>
    1a88: c8           	iny
    1a89: a5 2e        	lda	$2e                     ; 0x202e <playMidi+0x194>
    1a8b: 71 14        	adc	($14),y                 ; 0x2014 <playMidi+0x17a>
    1a8d: aa           	tax
    1a8e: a5 2c        	lda	$2c                     ; 0x202c <playMidi+0x192>
    1a90: c8           	iny
    1a91: 71 14        	adc	($14),y                 ; 0x2014 <playMidi+0x17a>
    1a93: e6 12        	inc	$12                     ; 0x2012 <playMidi+0x178>
    1a95: d0 08        	bne	$1a9f <readMIDICmd+0x4ff>
    1a97: e6 16        	inc	$16                     ; 0x2016 <playMidi+0x17c>
    1a99: d0 04        	bne	$1a9f <readMIDICmd+0x4ff>
    1a9b: e8           	inx
    1a9c: d0 01        	bne	$1a9f <readMIDICmd+0x4ff>
    1a9e: 1a           	inc
    1a9f: a5 16        	lda	$16                     ; 0x2016 <playMidi+0x17c>
    1aa1: 0a           	asl
    1aa2: 86 13        	stx	$13                     ; 0x2013 <playMidi+0x179>
    1aa4: 26 13        	rol	$13                     ; 0x2013 <playMidi+0x179>
    1aa6: 0a           	asl
    1aa7: 26 13        	rol	$13                     ; 0x2013 <playMidi+0x179>
    1aa9: 0a           	asl
    1aaa: a5 13        	lda	$13                     ; 0x2013 <playMidi+0x179>
    1aac: 2a           	rol
    1aad: a6 0f        	ldx	$f                      ; 0x200f <playMidi+0x175>
    1aaf: 78           	sei
    1ab0: 85 0f        	sta	$f                      ; 0x200f <playMidi+0x175>
    1ab2: a5 16        	lda	$16                     ; 0x2016 <playMidi+0x17c>
    1ab4: 09 e0        	ora	#$e0
    1ab6: 85 13        	sta	$13                     ; 0x2013 <playMidi+0x179>
    1ab8: b2 12        	lda	($12)                   ; 0x2012 <playMidi+0x178>
    1aba: 85 12        	sta	$12                     ; 0x2012 <playMidi+0x178>
    1abc: 86 0f        	stx	$f                      ; 0x200f <playMidi+0x175>
    1abe: 58           	cli
    1abf: 18           	clc
    1ac0: a5 25        	lda	$25                     ; 0x2025 <playMidi+0x18b>
    1ac2: 65 7b        	adc	$7b                     ; 0x207b <playMidi+0x1e1>
    1ac4: aa           	tax
    1ac5: a5 24        	lda	$24                     ; 0x2024 <playMidi+0x18a>
    1ac7: 65 7c        	adc	$7c                     ; 0x207c <playMidi+0x1e2>
    1ac9: a8           	tay
    1aca: 18           	clc
    1acb: 8a           	txa
    1acc: 69 08        	adc	#$8
    1ace: 85 18        	sta	$18                     ; 0x2018 <playMidi+0x17e>
    1ad0: 98           	tya
    1ad1: 69 00        	adc	#$0
    1ad3: 85 19        	sta	$19                     ; 0x2019 <playMidi+0x17f>
    1ad5: 86 14        	stx	$14                     ; 0x2014 <playMidi+0x17a>
    1ad7: 84 15        	sty	$15                     ; 0x2015 <playMidi+0x17b>
    1ad9: 18           	clc
    1ada: 8a           	txa
    1adb: 69 04        	adc	#$4
    1add: 85 16        	sta	$16                     ; 0x2016 <playMidi+0x17c>
    1adf: 98           	tya
    1ae0: 69 00        	adc	#$0
    1ae2: 85 17        	sta	$17                     ; 0x2017 <playMidi+0x17d>
    1ae4: a0 04        	ldy	#$4
    1ae6: b1 14        	lda	($14),y                 ; 0x2014 <playMidi+0x17a>
    1ae8: 85 13        	sta	$13                     ; 0x2013 <playMidi+0x179>
    1aea: a0 01        	ldy	#$1
    1aec: b1 16        	lda	($16),y                 ; 0x2016 <playMidi+0x17c>
    1aee: 85 1a        	sta	$1a                     ; 0x201a <playMidi+0x180>
    1af0: c8           	iny
    1af1: b1 16        	lda	($16),y                 ; 0x2016 <playMidi+0x17c>
    1af3: 85 16        	sta	$16                     ; 0x2016 <playMidi+0x17c>
    1af5: 18           	clc
    1af6: a0 08        	ldy	#$8
    1af8: a5 13        	lda	$13                     ; 0x2013 <playMidi+0x179>
    1afa: 71 14        	adc	($14),y                 ; 0x2014 <playMidi+0x17a>
    1afc: 85 13        	sta	$13                     ; 0x2013 <playMidi+0x179>
    1afe: a0 01        	ldy	#$1
    1b00: a5 1a        	lda	$1a                     ; 0x201a <playMidi+0x180>
    1b02: 71 18        	adc	($18),y                 ; 0x2018 <playMidi+0x17e>
    1b04: 85 17        	sta	$17                     ; 0x2017 <playMidi+0x17d>
    1b06: c8           	iny
    1b07: a5 16        	lda	$16                     ; 0x2016 <playMidi+0x17c>
    1b09: 71 18        	adc	($18),y                 ; 0x2018 <playMidi+0x17e>
    1b0b: 85 15        	sta	$15                     ; 0x2015 <playMidi+0x17b>
    1b0d: 18           	clc
    1b0e: a5 13        	lda	$13                     ; 0x2013 <playMidi+0x179>
    1b10: 69 02        	adc	#$2
    1b12: 85 14        	sta	$14                     ; 0x2014 <playMidi+0x17a>
    1b14: a5 17        	lda	$17                     ; 0x2017 <playMidi+0x17d>
    1b16: 69 00        	adc	#$0
    1b18: aa           	tax
    1b19: a5 15        	lda	$15                     ; 0x2015 <playMidi+0x17b>
    1b1b: 69 00        	adc	#$0
    1b1d: 85 15        	sta	$15                     ; 0x2015 <playMidi+0x17b>
    1b1f: 8a           	txa
    1b20: 86 13        	stx	$13                     ; 0x2013 <playMidi+0x179>
    1b22: 06 13        	asl	$13                     ; 0x2013 <playMidi+0x179>
    1b24: 26 15        	rol	$15                     ; 0x2015 <playMidi+0x17b>
    1b26: 06 13        	asl	$13                     ; 0x2013 <playMidi+0x179>
    1b28: 26 15        	rol	$15                     ; 0x2015 <playMidi+0x17b>
    1b2a: 06 13        	asl	$13                     ; 0x2013 <playMidi+0x179>
    1b2c: 26 15        	rol	$15                     ; 0x2015 <playMidi+0x17b>
    1b2e: a4 15        	ldy	$15                     ; 0x2015 <playMidi+0x17b>
    1b30: a6 0f        	ldx	$f                      ; 0x200f <playMidi+0x175>
    1b32: 78           	sei
    1b33: 84 0f        	sty	$f                      ; 0x200f <playMidi+0x175>
    1b35: 09 e0        	ora	#$e0
    1b37: 85 15        	sta	$15                     ; 0x2015 <playMidi+0x17b>
    1b39: b2 14        	lda	($14)                   ; 0x2014 <playMidi+0x17a>
    1b3b: 85 18        	sta	$18                     ; 0x2018 <playMidi+0x17e>
    1b3d: 86 0f        	stx	$f                      ; 0x200f <playMidi+0x175>
    1b3f: 58           	cli
    1b40: 18           	clc
    1b41: a5 25        	lda	$25                     ; 0x2025 <playMidi+0x18b>
    1b43: 65 7b        	adc	$7b                     ; 0x207b <playMidi+0x1e1>
    1b45: a8           	tay
    1b46: a5 24        	lda	$24                     ; 0x2024 <playMidi+0x18a>
    1b48: 65 7c        	adc	$7c                     ; 0x207c <playMidi+0x1e2>
    1b4a: 84 16        	sty	$16                     ; 0x2016 <playMidi+0x17c>
    1b4c: 85 17        	sta	$17                     ; 0x2017 <playMidi+0x17d>
    1b4e: 85 13        	sta	$13                     ; 0x2013 <playMidi+0x179>
    1b50: 5a           	phy
    1b51: fa           	plx
    1b52: 18           	clc
    1b53: 98           	tya
    1b54: 69 04        	adc	#$4
    1b56: 85 14        	sta	$14                     ; 0x2014 <playMidi+0x17a>
    1b58: a5 13        	lda	$13                     ; 0x2013 <playMidi+0x179>
    1b5a: 85 1b        	sta	$1b                     ; 0x201b <playMidi+0x181>
    1b5c: 69 00        	adc	#$0
    1b5e: 85 15        	sta	$15                     ; 0x2015 <playMidi+0x17b>
    1b60: a0 04        	ldy	#$4
    1b62: b1 16        	lda	($16),y                 ; 0x2016 <playMidi+0x17c>
    1b64: 85 13        	sta	$13                     ; 0x2013 <playMidi+0x179>
    1b66: a0 01        	ldy	#$1
    1b68: b1 14        	lda	($14),y                 ; 0x2014 <playMidi+0x17a>
    1b6a: 85 1a        	sta	$1a                     ; 0x201a <playMidi+0x180>
    1b6c: c8           	iny
    1b6d: b1 14        	lda	($14),y                 ; 0x2014 <playMidi+0x17a>
    1b6f: 85 19        	sta	$19                     ; 0x2019 <playMidi+0x17f>
    1b71: 18           	clc
    1b72: a0 08        	ldy	#$8
    1b74: a5 13        	lda	$13                     ; 0x2013 <playMidi+0x179>
    1b76: 71 16        	adc	($16),y                 ; 0x2016 <playMidi+0x17c>
    1b78: a0 01        	ldy	#$1
    1b7a: b0 02        	bcs	$1b7e <readMIDICmd+0x5de>
    1b7c: a0 00        	ldy	#$0
    1b7e: 84 16        	sty	$16                     ; 0x2016 <playMidi+0x17c>
    1b80: 85 13        	sta	$13                     ; 0x2013 <playMidi+0x179>
    1b82: 18           	clc
    1b83: 8a           	txa
    1b84: 69 08        	adc	#$8
    1b86: 85 14        	sta	$14                     ; 0x2014 <playMidi+0x17a>
    1b88: a5 1b        	lda	$1b                     ; 0x201b <playMidi+0x181>
    1b8a: 69 00        	adc	#$0
    1b8c: 85 15        	sta	$15                     ; 0x2015 <playMidi+0x17b>
    1b8e: a5 1a        	lda	$1a                     ; 0x201a <playMidi+0x180>
    1b90: a0 01        	ldy	#$1
    1b92: a6 16        	ldx	$16                     ; 0x2016 <playMidi+0x17c>
    1b94: e0 01        	cpx	#$1
    1b96: 71 14        	adc	($14),y                 ; 0x2014 <playMidi+0x17a>
    1b98: 85 16        	sta	$16                     ; 0x2016 <playMidi+0x17c>
    1b9a: a5 19        	lda	$19                     ; 0x2019 <playMidi+0x17f>
    1b9c: c8           	iny
    1b9d: 71 14        	adc	($14),y                 ; 0x2014 <playMidi+0x17a>
    1b9f: 85 15        	sta	$15                     ; 0x2015 <playMidi+0x17b>
    1ba1: 18           	clc
    1ba2: a5 13        	lda	$13                     ; 0x2013 <playMidi+0x179>
    1ba4: 69 03        	adc	#$3
    1ba6: 85 14        	sta	$14                     ; 0x2014 <playMidi+0x17a>
    1ba8: a5 16        	lda	$16                     ; 0x2016 <playMidi+0x17c>
    1baa: 69 00        	adc	#$0
    1bac: aa           	tax
    1bad: a5 15        	lda	$15                     ; 0x2015 <playMidi+0x17b>
    1baf: 69 00        	adc	#$0
    1bb1: 85 15        	sta	$15                     ; 0x2015 <playMidi+0x17b>
    1bb3: 8a           	txa
    1bb4: 86 13        	stx	$13                     ; 0x2013 <playMidi+0x179>
    1bb6: 06 13        	asl	$13                     ; 0x2013 <playMidi+0x179>
    1bb8: 26 15        	rol	$15                     ; 0x2015 <playMidi+0x17b>
    1bba: 06 13        	asl	$13                     ; 0x2013 <playMidi+0x179>
    1bbc: 26 15        	rol	$15                     ; 0x2015 <playMidi+0x17b>
    1bbe: 06 13        	asl	$13                     ; 0x2013 <playMidi+0x179>
    1bc0: 26 15        	rol	$15                     ; 0x2015 <playMidi+0x17b>
    1bc2: a4 15        	ldy	$15                     ; 0x2015 <playMidi+0x17b>
    1bc4: a6 0f        	ldx	$f                      ; 0x200f <playMidi+0x175>
    1bc6: 78           	sei
    1bc7: 84 0f        	sty	$f                      ; 0x200f <playMidi+0x175>
    1bc9: 09 e0        	ora	#$e0
    1bcb: 85 15        	sta	$15                     ; 0x2015 <playMidi+0x17b>
    1bcd: b2 14        	lda	($14)                   ; 0x2014 <playMidi+0x17a>
    1bcf: 85 19        	sta	$19                     ; 0x2019 <playMidi+0x17f>
    1bd1: 86 0f        	stx	$f                      ; 0x200f <playMidi+0x175>
    1bd3: 58           	cli
    1bd4: 18           	clc
    1bd5: a5 25        	lda	$25                     ; 0x2025 <playMidi+0x18b>
    1bd7: 65 7b        	adc	$7b                     ; 0x207b <playMidi+0x1e1>
    1bd9: aa           	tax
    1bda: a5 24        	lda	$24                     ; 0x2024 <playMidi+0x18a>
    1bdc: 65 7c        	adc	$7c                     ; 0x207c <playMidi+0x1e2>
    1bde: 86 14        	stx	$14                     ; 0x2014 <playMidi+0x17a>
    1be0: 85 15        	sta	$15                     ; 0x2015 <playMidi+0x17b>
    1be2: 85 13        	sta	$13                     ; 0x2013 <playMidi+0x179>
    1be4: a0 04        	ldy	#$4
    1be6: b1 14        	lda	($14),y                 ; 0x2014 <playMidi+0x17a>
    1be8: 18           	clc
    1be9: 69 04        	adc	#$4
    1beb: 5a           	phy
    1bec: a0 01        	ldy	#$1
    1bee: b0 02        	bcs	$1bf2 <readMIDICmd+0x652>
    1bf0: a0 00        	ldy	#$0
    1bf2: 84 16        	sty	$16                     ; 0x2016 <playMidi+0x17c>
    1bf4: 7a           	ply
    1bf5: 91 14        	sta	($14),y                 ; 0x2014 <playMidi+0x17a>
    1bf7: 18           	clc
    1bf8: 8a           	txa
    1bf9: 69 04        	adc	#$4
    1bfb: 85 14        	sta	$14                     ; 0x2014 <playMidi+0x17a>
    1bfd: a5 13        	lda	$13                     ; 0x2013 <playMidi+0x179>
    1bff: 69 00        	adc	#$0
    1c01: 85 15        	sta	$15                     ; 0x2015 <playMidi+0x17b>
    1c03: a0 01        	ldy	#$1
    1c05: b1 14        	lda	($14),y                 ; 0x2014 <playMidi+0x17a>
    1c07: a6 16        	ldx	$16                     ; 0x2016 <playMidi+0x17c>
    1c09: e0 01        	cpx	#$1
    1c0b: 69 00        	adc	#$0
    1c0d: aa           	tax
    1c0e: c8           	iny
    1c0f: b1 14        	lda	($14),y                 ; 0x2014 <playMidi+0x17a>
    1c11: 69 00        	adc	#$0
    1c13: 85 13        	sta	$13                     ; 0x2013 <playMidi+0x179>
    1c15: c8           	iny
    1c16: b1 14        	lda	($14),y                 ; 0x2014 <playMidi+0x17a>
    1c18: 69 00        	adc	#$0
    1c1a: 85 16        	sta	$16                     ; 0x2016 <playMidi+0x17c>
    1c1c: a0 01        	ldy	#$1
    1c1e: 8a           	txa
    1c1f: 91 14        	sta	($14),y                 ; 0x2014 <playMidi+0x17a>
    1c21: c8           	iny
    1c22: a5 13        	lda	$13                     ; 0x2013 <playMidi+0x179>
    1c24: 91 14        	sta	($14),y                 ; 0x2014 <playMidi+0x17a>
    1c26: c8           	iny
    1c27: a5 16        	lda	$16                     ; 0x2016 <playMidi+0x17c>
    1c29: 91 14        	sta	($14),y                 ; 0x2014 <playMidi+0x17a>
    1c2b: a6 72        	ldx	$72                     ; 0x2072 <playMidi+0x1d8>
    1c2d: a4 73        	ldy	$73                     ; 0x2073 <playMidi+0x1d9>
    1c2f: 64 13        	stz	$13                     ; 0x2013 <playMidi+0x179>
    1c31: 86 14        	stx	$14                     ; 0x2014 <playMidi+0x17a>
    1c33: 84 15        	sty	$15                     ; 0x2015 <playMidi+0x17b>
    1c35: 64 16        	stz	$16                     ; 0x2016 <playMidi+0x17c>
    1c37: 64 17        	stz	$17                     ; 0x2017 <playMidi+0x17d>
    1c39: a6 18        	ldx	$18                     ; 0x2018 <playMidi+0x17e>
    1c3b: a5 19        	lda	$19                     ; 0x2019 <playMidi+0x17f>
    1c3d: 20 be 4d     	jsr	$4dbe <__udivsi3>
    1c40: a0 19        	ldy	#$19
    1c42: 84 14        	sty	$14                     ; 0x2014 <playMidi+0x17a>
    1c44: 64 15        	stz	$15                     ; 0x2015 <playMidi+0x17b>
    1c46: 64 16        	stz	$16                     ; 0x2016 <playMidi+0x17c>
    1c48: 64 17        	stz	$17                     ; 0x2017 <playMidi+0x17d>
    1c4a: 20 4e 4d     	jsr	$4d4e <__mulsi3>
    1c4d: a4 12        	ldy	$12                     ; 0x2012 <playMidi+0x178>
    1c4f: 85 7d        	sta	$7d                     ; 0x207d <playMidi+0x1e3>
    1c51: 86 7e        	stx	$7e                     ; 0x207e <playMidi+0x1e4>
    1c53: 84 7f        	sty	$7f                     ; 0x207f <playMidi+0x1e5>
    1c55: a6 13        	ldx	$13                     ; 0x2013 <playMidi+0x179>
    1c57: 86 80        	stx	$80                     ; 0x2080 <playMidi+0x1e6>
    1c59: a2 14        	ldx	#$14
    1c5b: 86 60        	stx	$60                     ; 0x2060 <playMidi+0x1c6>
    1c5d: 8e 14 d0     	stx	$d014                   ; 0xd014 <__heap_start+0x7f62>
    1c60: 9c 15 d0     	stz	$d015                   ; 0xd015 <__heap_start+0x7f63>
    1c63: a2 0b        	ldx	#$b
    1c65: 86 61        	stx	$61                     ; 0x2061 <playMidi+0x1c7>
    1c67: 8e 16 d0     	stx	$d016                   ; 0xd016 <__heap_start+0x7f64>
    1c6a: 9c 17 d0     	stz	$d017                   ; 0xd017 <__heap_start+0x7f65>
    1c6d: a5 7d        	lda	$7d                     ; 0x207d <playMidi+0x1e3>
    1c6f: a6 7e        	ldx	$7e                     ; 0x207e <playMidi+0x1e4>
    1c71: 86 12        	stx	$12                     ; 0x2012 <playMidi+0x178>
    1c73: a6 7f        	ldx	$7f                     ; 0x207f <playMidi+0x1e5>
    1c75: 86 13        	stx	$13                     ; 0x2013 <playMidi+0x179>
    1c77: a6 80        	ldx	$80                     ; 0x2080 <playMidi+0x1e6>
    1c79: 92 10        	sta	($10)                   ; 0x2010 <playMidi+0x176>
    1c7b: a0 01        	ldy	#$1
    1c7d: a5 12        	lda	$12                     ; 0x2012 <playMidi+0x178>
    1c7f: 91 10        	sta	($10),y                 ; 0x2010 <playMidi+0x176>
    1c81: c8           	iny
    1c82: a5 13        	lda	$13                     ; 0x2013 <playMidi+0x179>
    1c84: 91 10        	sta	($10),y                 ; 0x2010 <playMidi+0x176>
    1c86: c8           	iny
    1c87: 8a           	txa
    1c88: 91 10        	sta	($10),y                 ; 0x2010 <playMidi+0x176>
    1c8a: a2 95        	ldx	#$95
    1c8c: 86 12        	stx	$12                     ; 0x2012 <playMidi+0x178>
    1c8e: a2 50        	ldx	#$50
    1c90: 86 13        	stx	$13                     ; 0x2013 <playMidi+0x179>
    1c92: 20 dc 2d     	jsr	$2ddc <printf>
    1c95: a6 7d        	ldx	$7d                     ; 0x207d <playMidi+0x1e3>
    1c97: 86 16        	stx	$16                     ; 0x2016 <playMidi+0x17c>
    1c99: a6 7e        	ldx	$7e                     ; 0x207e <playMidi+0x1e4>
    1c9b: 86 14        	stx	$14                     ; 0x2014 <playMidi+0x17a>
    1c9d: a6 7f        	ldx	$7f                     ; 0x207f <playMidi+0x1e5>
    1c9f: 86 15        	stx	$15                     ; 0x2015 <playMidi+0x17b>
    1ca1: a6 80        	ldx	$80                     ; 0x2080 <playMidi+0x1e6>
    1ca3: 86 18        	stx	$18                     ; 0x2018 <playMidi+0x17e>
    1ca5: 18           	clc
    1ca6: a5 25        	lda	$25                     ; 0x2025 <playMidi+0x18b>
    1ca8: 65 7b        	adc	$7b                     ; 0x207b <playMidi+0x1e1>
    1caa: aa           	tax
    1cab: a5 24        	lda	$24                     ; 0x2024 <playMidi+0x18a>
    1cad: 65 7c        	adc	$7c                     ; 0x207c <playMidi+0x1e2>
    1caf: 86 12        	stx	$12                     ; 0x2012 <playMidi+0x178>
    1cb1: 85 13        	sta	$13                     ; 0x2013 <playMidi+0x179>
    1cb3: 85 19        	sta	$19                     ; 0x2019 <playMidi+0x17f>
    1cb5: a0 0c        	ldy	#$c
    1cb7: a5 16        	lda	$16                     ; 0x2016 <playMidi+0x17c>
    1cb9: 91 12        	sta	($12),y                 ; 0x2012 <playMidi+0x178>
    1cbb: 8a           	txa
    1cbc: 18           	clc
    1cbd: 69 0c        	adc	#$c
    1cbf: 85 12        	sta	$12                     ; 0x2012 <playMidi+0x178>
    1cc1: a2 01        	ldx	#$1
    1cc3: 8a           	txa
    1cc4: a0 0f        	ldy	#$f
    1cc6: 91 10        	sta	($10),y                 ; 0x2010 <playMidi+0x176>
    1cc8: a5 19        	lda	$19                     ; 0x2019 <playMidi+0x17f>
    1cca: 69 00        	adc	#$0
    1ccc: 85 13        	sta	$13                     ; 0x2013 <playMidi+0x179>
    1cce: a0 01        	ldy	#$1
    1cd0: a5 14        	lda	$14                     ; 0x2014 <playMidi+0x17a>
    1cd2: 91 12        	sta	($12),y                 ; 0x2012 <playMidi+0x178>
    1cd4: c8           	iny
    1cd5: a5 15        	lda	$15                     ; 0x2015 <playMidi+0x17b>
    1cd7: 91 12        	sta	($12),y                 ; 0x2012 <playMidi+0x178>
    1cd9: c8           	iny
    1cda: a5 18        	lda	$18                     ; 0x2018 <playMidi+0x17e>
    1cdc: 91 12        	sta	($12),y                 ; 0x2012 <playMidi+0x178>
    1cde: 4c 45 1d     	jmp	$1d45 <readMIDICmd+0x7a5>
    1ce1: 18           	clc
    1ce2: a0 0d        	ldy	#$d
    1ce4: b1 10        	lda	($10),y                 ; 0x2010 <playMidi+0x176>
    1ce6: 69 04        	adc	#$4
    1ce8: 80 2c        	bra	$1d16 <readMIDICmd+0x776>
    1cea: 18           	clc
    1ceb: a0 0d        	ldy	#$d
    1ced: b1 10        	lda	($10),y                 ; 0x2010 <playMidi+0x176>
    1cef: 69 02        	adc	#$2
    1cf1: a0 04        	ldy	#$4
    1cf3: 91 28        	sta	($28),y                 ; 0x2028 <playMidi+0x18e>
    1cf5: a5 25        	lda	$25                     ; 0x2025 <playMidi+0x18b>
    1cf7: 69 00        	adc	#$0
    1cf9: a0 01        	ldy	#$1
    1cfb: 91 26        	sta	($26),y                 ; 0x2026 <playMidi+0x18c>
    1cfd: a5 24        	lda	$24                     ; 0x2024 <playMidi+0x18a>
    1cff: 69 00        	adc	#$0
    1d01: c8           	iny
    1d02: 91 26        	sta	($26),y                 ; 0x2026 <playMidi+0x18c>
    1d04: a5 2c        	lda	$2c                     ; 0x202c <playMidi+0x192>
    1d06: 69 00        	adc	#$0
    1d08: c8           	iny
    1d09: 91 26        	sta	($26),y                 ; 0x2026 <playMidi+0x18c>
    1d0b: a2 02        	ldx	#$2
    1d0d: 80 31        	bra	$1d40 <readMIDICmd+0x7a0>
    1d0f: 18           	clc
    1d10: a0 0d        	ldy	#$d
    1d12: b1 10        	lda	($10),y                 ; 0x2010 <playMidi+0x176>
    1d14: 69 06        	adc	#$6
    1d16: aa           	tax
    1d17: a5 25        	lda	$25                     ; 0x2025 <playMidi+0x18b>
    1d19: 69 00        	adc	#$0
    1d1b: 85 12        	sta	$12                     ; 0x2012 <playMidi+0x178>
    1d1d: a5 24        	lda	$24                     ; 0x2024 <playMidi+0x18a>
    1d1f: 69 00        	adc	#$0
    1d21: 85 13        	sta	$13                     ; 0x2013 <playMidi+0x179>
    1d23: a5 2c        	lda	$2c                     ; 0x202c <playMidi+0x192>
    1d25: 69 00        	adc	#$0
    1d27: 85 14        	sta	$14                     ; 0x2014 <playMidi+0x17a>
    1d29: a0 04        	ldy	#$4
    1d2b: 8a           	txa
    1d2c: 91 28        	sta	($28),y                 ; 0x2028 <playMidi+0x18e>
    1d2e: a0 01        	ldy	#$1
    1d30: a5 12        	lda	$12                     ; 0x2012 <playMidi+0x178>
    1d32: 91 26        	sta	($26),y                 ; 0x2026 <playMidi+0x18c>
    1d34: c8           	iny
    1d35: a5 13        	lda	$13                     ; 0x2013 <playMidi+0x179>
    1d37: 91 26        	sta	($26),y                 ; 0x2026 <playMidi+0x18c>
    1d39: c8           	iny
    1d3a: a5 14        	lda	$14                     ; 0x2014 <playMidi+0x17a>
    1d3c: 91 26        	sta	($26),y                 ; 0x2026 <playMidi+0x18c>
    1d3e: a2 01        	ldx	#$1
    1d40: 8a           	txa
    1d41: a0 0f        	ldy	#$f
    1d43: 91 10        	sta	($10),y                 ; 0x2010 <playMidi+0x176>
    1d45: a0 0f        	ldy	#$f
    1d47: b1 10        	lda	($10),y                 ; 0x2010 <playMidi+0x176>
    1d49: 85 20        	sta	$20                     ; 0x2020 <playMidi+0x186>
    1d4b: a0 04        	ldy	#$4
    1d4d: b1 10        	lda	($10),y                 ; 0x2010 <playMidi+0x176>
    1d4f: 85 2f        	sta	$2f                     ; 0x202f <playMidi+0x195>
    1d51: c8           	iny
    1d52: b1 10        	lda	($10),y                 ; 0x2010 <playMidi+0x176>
    1d54: 85 2e        	sta	$2e                     ; 0x202e <playMidi+0x194>
    1d56: c8           	iny
    1d57: b1 10        	lda	($10),y                 ; 0x2010 <playMidi+0x176>
    1d59: 85 2d        	sta	$2d                     ; 0x202d <playMidi+0x193>
    1d5b: c8           	iny
    1d5c: b1 10        	lda	($10),y                 ; 0x2010 <playMidi+0x176>
    1d5e: 85 2c        	sta	$2c                     ; 0x202c <playMidi+0x192>
    1d60: c8           	iny
    1d61: b1 10        	lda	($10),y                 ; 0x2010 <playMidi+0x176>
    1d63: 85 2b        	sta	$2b                     ; 0x202b <playMidi+0x191>
    1d65: c8           	iny
    1d66: b1 10        	lda	($10),y                 ; 0x2010 <playMidi+0x176>
    1d68: 85 2a        	sta	$2a                     ; 0x202a <playMidi+0x190>
    1d6a: c8           	iny
    1d6b: b1 10        	lda	($10),y                 ; 0x2010 <playMidi+0x176>
    1d6d: 85 29        	sta	$29                     ; 0x2029 <playMidi+0x18f>
    1d6f: c8           	iny
    1d70: b1 10        	lda	($10),y                 ; 0x2010 <playMidi+0x176>
    1d72: 85 28        	sta	$28                     ; 0x2028 <playMidi+0x18e>
    1d74: fa           	plx
    1d75: 86 27        	stx	$27                     ; 0x2027 <playMidi+0x18d>
    1d77: fa           	plx
    1d78: 86 26        	stx	$26                     ; 0x2026 <playMidi+0x18c>
    1d7a: fa           	plx
    1d7b: 86 25        	stx	$25                     ; 0x2025 <playMidi+0x18b>
    1d7d: fa           	plx
    1d7e: 86 24        	stx	$24                     ; 0x2024 <playMidi+0x18a>
    1d80: 18           	clc
    1d81: a5 10        	lda	$10                     ; 0x2010 <playMidi+0x176>
    1d83: 69 10        	adc	#$10
    1d85: 85 10        	sta	$10                     ; 0x2010 <playMidi+0x176>
    1d87: a5 11        	lda	$11                     ; 0x2011 <playMidi+0x177>
    1d89: 69 00        	adc	#$0
    1d8b: 85 11        	sta	$11                     ; 0x2011 <playMidi+0x177>
    1d8d: a5 20        	lda	$20                     ; 0x2020 <playMidi+0x186>
    1d8f: 60           	rts

00001d90 <irq_handler>:
    1d90: d8           	cld
    1d91: 48           	pha
    1d92: 18           	clc
    1d93: a5 10        	lda	$10                     ; 0x2010 <playMidi+0x176>
    1d95: 69 ee        	adc	#$ee
    1d97: 85 10        	sta	$10                     ; 0x2010 <playMidi+0x176>
    1d99: a5 11        	lda	$11                     ; 0x2011 <playMidi+0x177>
    1d9b: 69 fe        	adc	#$fe
    1d9d: 85 11        	sta	$11                     ; 0x2011 <playMidi+0x177>
    1d9f: 68           	pla
    1da0: 48           	pha
    1da1: da           	phx
    1da2: 5a           	phy
    1da3: a6 12        	ldx	$12                     ; 0x2012 <playMidi+0x178>
    1da5: da           	phx
    1da6: a5 13        	lda	$13                     ; 0x2013 <playMidi+0x179>
    1da8: a0 11        	ldy	#$11
    1daa: 91 10        	sta	($10),y                 ; 0x2010 <playMidi+0x176>
    1dac: a5 14        	lda	$14                     ; 0x2014 <playMidi+0x17a>
    1dae: 88           	dey
    1daf: 91 10        	sta	($10),y                 ; 0x2010 <playMidi+0x176>
    1db1: a5 15        	lda	$15                     ; 0x2015 <playMidi+0x17b>
    1db3: 88           	dey
    1db4: 91 10        	sta	($10),y                 ; 0x2010 <playMidi+0x176>
    1db6: a5 16        	lda	$16                     ; 0x2016 <playMidi+0x17c>
    1db8: 88           	dey
    1db9: 91 10        	sta	($10),y                 ; 0x2010 <playMidi+0x176>
    1dbb: a5 17        	lda	$17                     ; 0x2017 <playMidi+0x17d>
    1dbd: 88           	dey
    1dbe: 91 10        	sta	($10),y                 ; 0x2010 <playMidi+0x176>
    1dc0: a5 18        	lda	$18                     ; 0x2018 <playMidi+0x17e>
    1dc2: 88           	dey
    1dc3: 91 10        	sta	($10),y                 ; 0x2010 <playMidi+0x176>
    1dc5: a5 19        	lda	$19                     ; 0x2019 <playMidi+0x17f>
    1dc7: 88           	dey
    1dc8: 91 10        	sta	($10),y                 ; 0x2010 <playMidi+0x176>
    1dca: a5 1a        	lda	$1a                     ; 0x201a <playMidi+0x180>
    1dcc: 88           	dey
    1dcd: 91 10        	sta	($10),y                 ; 0x2010 <playMidi+0x176>
    1dcf: a5 1b        	lda	$1b                     ; 0x201b <playMidi+0x181>
    1dd1: 88           	dey
    1dd2: 91 10        	sta	($10),y                 ; 0x2010 <playMidi+0x176>
    1dd4: a5 1c        	lda	$1c                     ; 0x201c <playMidi+0x182>
    1dd6: 88           	dey
    1dd7: 91 10        	sta	($10),y                 ; 0x2010 <playMidi+0x176>
    1dd9: a5 1d        	lda	$1d                     ; 0x201d <playMidi+0x183>
    1ddb: 88           	dey
    1ddc: 91 10        	sta	($10),y                 ; 0x2010 <playMidi+0x176>
    1dde: a5 1e        	lda	$1e                     ; 0x201e <playMidi+0x184>
    1de0: 88           	dey
    1de1: 91 10        	sta	($10),y                 ; 0x2010 <playMidi+0x176>
    1de3: a5 1f        	lda	$1f                     ; 0x201f <playMidi+0x185>
    1de5: 88           	dey
    1de6: 91 10        	sta	($10),y                 ; 0x2010 <playMidi+0x176>
    1de8: a5 20        	lda	$20                     ; 0x2020 <playMidi+0x186>
    1dea: 88           	dey
    1deb: 91 10        	sta	($10),y                 ; 0x2010 <playMidi+0x176>
    1ded: a5 21        	lda	$21                     ; 0x2021 <playMidi+0x187>
    1def: 88           	dey
    1df0: 91 10        	sta	($10),y                 ; 0x2010 <playMidi+0x176>
    1df2: a5 22        	lda	$22                     ; 0x2022 <playMidi+0x188>
    1df4: 88           	dey
    1df5: 91 10        	sta	($10),y                 ; 0x2010 <playMidi+0x176>
    1df7: a5 23        	lda	$23                     ; 0x2023 <playMidi+0x189>
    1df9: 88           	dey
    1dfa: 91 10        	sta	($10),y                 ; 0x2010 <playMidi+0x176>
    1dfc: a5 24        	lda	$24                     ; 0x2024 <playMidi+0x18a>
    1dfe: 88           	dey
    1dff: 91 10        	sta	($10),y                 ; 0x2010 <playMidi+0x176>
    1e01: ad 60 d6     	lda	$d660                   ; 0xd660 <__heap_start+0x85ae>
    1e04: a8           	tay
    1e05: 29 10        	and	#$10
    1e07: f0 20        	beq	$1e29 <irq_handler+0x99>
    1e09: a6 00        	ldx	$0                      ; 0x2000 <playMidi+0x166>
    1e0b: 86 24        	stx	$24                     ; 0x2024 <playMidi+0x18a>
    1e0d: 98           	tya
    1e0e: 29 fe        	and	#$fe
    1e10: 8d 60 d6     	sta	$d660                   ; 0xd660 <__heap_start+0x85ae>
    1e13: a2 b3        	ldx	#$b3
    1e15: 86 00        	stx	$0                      ; 0x2000 <playMidi+0x166>
    1e17: a2 4e        	ldx	#$4e
    1e19: 86 12        	stx	$12                     ; 0x2012 <playMidi+0x178>
    1e1b: a2 50        	ldx	#$50
    1e1d: 86 13        	stx	$13                     ; 0x2013 <playMidi+0x179>
    1e1f: 20 dc 2d     	jsr	$2ddc <printf>
    1e22: 20 9a 1e     	jsr	$1e9a <playMidi>
    1e25: a6 24        	ldx	$24                     ; 0x2024 <playMidi+0x18a>
    1e27: 86 00        	stx	$0                      ; 0x2000 <playMidi+0x166>
    1e29: a0 00        	ldy	#$0
    1e2b: b1 10        	lda	($10),y                 ; 0x2010 <playMidi+0x176>
    1e2d: 85 24        	sta	$24                     ; 0x2024 <playMidi+0x18a>
    1e2f: c8           	iny
    1e30: b1 10        	lda	($10),y                 ; 0x2010 <playMidi+0x176>
    1e32: 85 23        	sta	$23                     ; 0x2023 <playMidi+0x189>
    1e34: c8           	iny
    1e35: b1 10        	lda	($10),y                 ; 0x2010 <playMidi+0x176>
    1e37: 85 22        	sta	$22                     ; 0x2022 <playMidi+0x188>
    1e39: c8           	iny
    1e3a: b1 10        	lda	($10),y                 ; 0x2010 <playMidi+0x176>
    1e3c: 85 21        	sta	$21                     ; 0x2021 <playMidi+0x187>
    1e3e: c8           	iny
    1e3f: b1 10        	lda	($10),y                 ; 0x2010 <playMidi+0x176>
    1e41: 85 20        	sta	$20                     ; 0x2020 <playMidi+0x186>
    1e43: c8           	iny
    1e44: b1 10        	lda	($10),y                 ; 0x2010 <playMidi+0x176>
    1e46: 85 1f        	sta	$1f                     ; 0x201f <playMidi+0x185>
    1e48: c8           	iny
    1e49: b1 10        	lda	($10),y                 ; 0x2010 <playMidi+0x176>
    1e4b: 85 1e        	sta	$1e                     ; 0x201e <playMidi+0x184>
    1e4d: c8           	iny
    1e4e: b1 10        	lda	($10),y                 ; 0x2010 <playMidi+0x176>
    1e50: 85 1d        	sta	$1d                     ; 0x201d <playMidi+0x183>
    1e52: c8           	iny
    1e53: b1 10        	lda	($10),y                 ; 0x2010 <playMidi+0x176>
    1e55: 85 1c        	sta	$1c                     ; 0x201c <playMidi+0x182>
    1e57: c8           	iny
    1e58: b1 10        	lda	($10),y                 ; 0x2010 <playMidi+0x176>
    1e5a: 85 1b        	sta	$1b                     ; 0x201b <playMidi+0x181>
    1e5c: c8           	iny
    1e5d: b1 10        	lda	($10),y                 ; 0x2010 <playMidi+0x176>
    1e5f: 85 1a        	sta	$1a                     ; 0x201a <playMidi+0x180>
    1e61: c8           	iny
    1e62: b1 10        	lda	($10),y                 ; 0x2010 <playMidi+0x176>
    1e64: 85 19        	sta	$19                     ; 0x2019 <playMidi+0x17f>
    1e66: c8           	iny
    1e67: b1 10        	lda	($10),y                 ; 0x2010 <playMidi+0x176>
    1e69: 85 18        	sta	$18                     ; 0x2018 <playMidi+0x17e>
    1e6b: c8           	iny
    1e6c: b1 10        	lda	($10),y                 ; 0x2010 <playMidi+0x176>
    1e6e: 85 17        	sta	$17                     ; 0x2017 <playMidi+0x17d>
    1e70: c8           	iny
    1e71: b1 10        	lda	($10),y                 ; 0x2010 <playMidi+0x176>
    1e73: 85 16        	sta	$16                     ; 0x2016 <playMidi+0x17c>
    1e75: c8           	iny
    1e76: b1 10        	lda	($10),y                 ; 0x2010 <playMidi+0x176>
    1e78: 85 15        	sta	$15                     ; 0x2015 <playMidi+0x17b>
    1e7a: c8           	iny
    1e7b: b1 10        	lda	($10),y                 ; 0x2010 <playMidi+0x176>
    1e7d: 85 14        	sta	$14                     ; 0x2014 <playMidi+0x17a>
    1e7f: c8           	iny
    1e80: b1 10        	lda	($10),y                 ; 0x2010 <playMidi+0x176>
    1e82: 85 13        	sta	$13                     ; 0x2013 <playMidi+0x179>
    1e84: fa           	plx
    1e85: 86 12        	stx	$12                     ; 0x2012 <playMidi+0x178>
    1e87: 7a           	ply
    1e88: fa           	plx
    1e89: 68           	pla
    1e8a: 48           	pha
    1e8b: 18           	clc
    1e8c: a5 10        	lda	$10                     ; 0x2010 <playMidi+0x176>
    1e8e: 69 12        	adc	#$12
    1e90: 85 10        	sta	$10                     ; 0x2010 <playMidi+0x176>
    1e92: a5 11        	lda	$11                     ; 0x2011 <playMidi+0x177>
    1e94: 69 01        	adc	#$1
    1e96: 85 11        	sta	$11                     ; 0x2011 <playMidi+0x177>
    1e98: 68           	pla
    1e99: 40           	rti

00001e9a <playMidi>:
    1e9a: a5 75        	lda	$75                     ; 0x2075 <playMidi+0x1db>
    1e9c: a6 76        	ldx	$76                     ; 0x2076 <playMidi+0x1dc>
    1e9e: 86 15        	stx	$15                     ; 0x2015 <playMidi+0x17b>
    1ea0: a6 77        	ldx	$77                     ; 0x2077 <playMidi+0x1dd>
    1ea2: a4 78        	ldy	$78                     ; 0x2078 <playMidi+0x1de>
    1ea4: c0 01        	cpy	#$1
    1ea6: d0 12        	bne	$1eba <playMidi+0x20>
    1ea8: 84 14        	sty	$14                     ; 0x2014 <playMidi+0x17a>
    1eaa: e0 00        	cpx	#$0
    1eac: d0 36        	bne	$1ee4 <playMidi+0x4a>
    1eae: 86 12        	stx	$12                     ; 0x2012 <playMidi+0x178>
    1eb0: a6 15        	ldx	$15                     ; 0x2015 <playMidi+0x17b>
    1eb2: d0 38        	bne	$1eec <playMidi+0x52>
    1eb4: c9 00        	cmp	#$0
    1eb6: 90 0a        	bcc	$1ec2 <playMidi+0x28>
    1eb8: 80 38        	bra	$1ef2 <playMidi+0x58>
    1eba: 86 12        	stx	$12                     ; 0x2012 <playMidi+0x178>
    1ebc: 84 14        	sty	$14                     ; 0x2014 <playMidi+0x17a>
    1ebe: c0 01        	cpy	#$1
    1ec0: b0 30        	bcs	$1ef2 <playMidi+0x58>
    1ec2: a6 12        	ldx	$12                     ; 0x2012 <playMidi+0x178>
    1ec4: a8           	tay
    1ec5: a5 15        	lda	$15                     ; 0x2015 <playMidi+0x17b>
    1ec7: e6 14        	inc	$14                     ; 0x2014 <playMidi+0x17a>
    1ec9: c6 14        	dec	$14                     ; 0x2014 <playMidi+0x17a>
    1ecb: d0 0b        	bne	$1ed8 <playMidi+0x3e>
    1ecd: e0 00        	cpx	#$0
    1ecf: d0 07        	bne	$1ed8 <playMidi+0x3e>
    1ed1: c9 00        	cmp	#$0
    1ed3: d0 03        	bne	$1ed8 <playMidi+0x3e>
    1ed5: 98           	tya
    1ed6: f0 45        	beq	$1f1d <playMidi+0x83>
    1ed8: 8c 55 d6     	sty	$d655                   ; 0xd655 <__heap_start+0x85a3>
    1edb: a4 15        	ldy	$15                     ; 0x2015 <playMidi+0x17b>
    1edd: 8c 56 d6     	sty	$d656                   ; 0xd656 <__heap_start+0x85a4>
    1ee0: 8e 57 d6     	stx	$d657                   ; 0xd657 <__heap_start+0x85a5>
    1ee3: 60           	rts
    1ee4: 86 12        	stx	$12                     ; 0x2012 <playMidi+0x178>
    1ee6: e0 00        	cpx	#$0
    1ee8: 90 d8        	bcc	$1ec2 <playMidi+0x28>
    1eea: 80 06        	bra	$1ef2 <playMidi+0x58>
    1eec: a6 15        	ldx	$15                     ; 0x2015 <playMidi+0x17b>
    1eee: e0 00        	cpx	#$0
    1ef0: 90 d0        	bcc	$1ec2 <playMidi+0x28>
    1ef2: 18           	clc
    1ef3: 69 01        	adc	#$1
    1ef5: aa           	tax
    1ef6: a5 15        	lda	$15                     ; 0x2015 <playMidi+0x17b>
    1ef8: 69 00        	adc	#$0
    1efa: a8           	tay
    1efb: a5 12        	lda	$12                     ; 0x2012 <playMidi+0x178>
    1efd: 69 00        	adc	#$0
    1eff: 85 15        	sta	$15                     ; 0x2015 <playMidi+0x17b>
    1f01: a5 14        	lda	$14                     ; 0x2014 <playMidi+0x17a>
    1f03: 69 ff        	adc	#$ff
    1f05: 86 75        	stx	$75                     ; 0x2075 <playMidi+0x1db>
    1f07: 84 76        	sty	$76                     ; 0x2076 <playMidi+0x1dc>
    1f09: 84 13        	sty	$13                     ; 0x2013 <playMidi+0x179>
    1f0b: a4 15        	ldy	$15                     ; 0x2015 <playMidi+0x17b>
    1f0d: 84 77        	sty	$77                     ; 0x2077 <playMidi+0x1dd>
    1f0f: 85 78        	sta	$78                     ; 0x2078 <playMidi+0x1de>
    1f11: 8e 55 d6     	stx	$d655                   ; 0xd655 <__heap_start+0x85a3>
    1f14: a6 13        	ldx	$13                     ; 0x2013 <playMidi+0x179>
    1f16: 8e 56 d6     	stx	$d656                   ; 0xd656 <__heap_start+0x85a4>
    1f19: 8c 57 d6     	sty	$d657                   ; 0xd657 <__heap_start+0x85a5>
    1f1c: 60           	rts
    1f1d: 18           	clc
    1f1e: a5 10        	lda	$10                     ; 0x2010 <playMidi+0x176>
    1f20: 69 f6        	adc	#$f6
    1f22: 85 10        	sta	$10                     ; 0x2010 <playMidi+0x176>
    1f24: a5 11        	lda	$11                     ; 0x2011 <playMidi+0x177>
    1f26: 69 ff        	adc	#$ff
    1f28: 85 11        	sta	$11                     ; 0x2011 <playMidi+0x177>
    1f2a: a6 24        	ldx	$24                     ; 0x2024 <playMidi+0x18a>
    1f2c: da           	phx
    1f2d: a6 25        	ldx	$25                     ; 0x2025 <playMidi+0x18b>
    1f2f: da           	phx
    1f30: a6 26        	ldx	$26                     ; 0x2026 <playMidi+0x18c>
    1f32: da           	phx
    1f33: a6 27        	ldx	$27                     ; 0x2027 <playMidi+0x18d>
    1f35: da           	phx
    1f36: a5 28        	lda	$28                     ; 0x2028 <playMidi+0x18e>
    1f38: a0 05        	ldy	#$5
    1f3a: 91 10        	sta	($10),y                 ; 0x2010 <playMidi+0x176>
    1f3c: a5 29        	lda	$29                     ; 0x2029 <playMidi+0x18f>
    1f3e: 88           	dey
    1f3f: 91 10        	sta	($10),y                 ; 0x2010 <playMidi+0x176>
    1f41: a5 2a        	lda	$2a                     ; 0x202a <playMidi+0x190>
    1f43: 88           	dey
    1f44: 91 10        	sta	($10),y                 ; 0x2010 <playMidi+0x176>
    1f46: a5 2b        	lda	$2b                     ; 0x202b <playMidi+0x191>
    1f48: 88           	dey
    1f49: 91 10        	sta	($10),y                 ; 0x2010 <playMidi+0x176>
    1f4b: a5 2c        	lda	$2c                     ; 0x202c <playMidi+0x192>
    1f4d: 88           	dey
    1f4e: 91 10        	sta	($10),y                 ; 0x2010 <playMidi+0x176>
    1f50: a5 2d        	lda	$2d                     ; 0x202d <playMidi+0x193>
    1f52: 88           	dey
    1f53: 91 10        	sta	($10),y                 ; 0x2010 <playMidi+0x176>
    1f55: a5 79        	lda	$79                     ; 0x2079 <playMidi+0x1df>
    1f57: a6 7b        	ldx	$7b                     ; 0x207b <playMidi+0x1e1>
    1f59: 86 25        	stx	$25                     ; 0x2025 <playMidi+0x18b>
    1f5b: a6 7c        	ldx	$7c                     ; 0x207c <playMidi+0x1e2>
    1f5d: 86 24        	stx	$24                     ; 0x2024 <playMidi+0x18a>
    1f5f: a2 16        	ldx	#$16
    1f61: 86 12        	stx	$12                     ; 0x2012 <playMidi+0x178>
    1f63: 64 13        	stz	$13                     ; 0x2013 <playMidi+0x179>
    1f65: a2 00        	ldx	#$0
    1f67: 20 1c 4d     	jsr	$4d1c <__mulhi3>
    1f6a: 85 14        	sta	$14                     ; 0x2014 <playMidi+0x17a>
    1f6c: 18           	clc
    1f6d: 85 12        	sta	$12                     ; 0x2012 <playMidi+0x178>
    1f6f: a5 25        	lda	$25                     ; 0x2025 <playMidi+0x18b>
    1f71: 65 12        	adc	$12                     ; 0x2012 <playMidi+0x178>
    1f73: a8           	tay
    1f74: 86 12        	stx	$12                     ; 0x2012 <playMidi+0x178>
    1f76: a5 24        	lda	$24                     ; 0x2024 <playMidi+0x18a>
    1f78: 65 12        	adc	$12                     ; 0x2012 <playMidi+0x178>
    1f7a: 84 12        	sty	$12                     ; 0x2012 <playMidi+0x178>
    1f7c: 85 13        	sta	$13                     ; 0x2013 <playMidi+0x179>
    1f7e: a0 10        	ldy	#$10
    1f80: b1 12        	lda	($12),y                 ; 0x2012 <playMidi+0x178>
    1f82: 8d a1 dd     	sta	$dda1                   ; 0xdda1 <__heap_start+0x8cef>
    1f85: 18           	clc
    1f86: a5 14        	lda	$14                     ; 0x2014 <playMidi+0x17a>
    1f88: 65 7b        	adc	$7b                     ; 0x207b <playMidi+0x1e1>
    1f8a: 85 12        	sta	$12                     ; 0x2012 <playMidi+0x178>
    1f8c: 8a           	txa
    1f8d: 65 7c        	adc	$7c                     ; 0x207c <playMidi+0x1e2>
    1f8f: 85 13        	sta	$13                     ; 0x2013 <playMidi+0x179>
    1f91: c8           	iny
    1f92: b1 12        	lda	($12),y                 ; 0x2012 <playMidi+0x178>
    1f94: 8d a1 dd     	sta	$dda1                   ; 0xdda1 <__heap_start+0x8cef>
    1f97: a5 14        	lda	$14                     ; 0x2014 <playMidi+0x17a>
    1f99: 18           	clc
    1f9a: 65 7b        	adc	$7b                     ; 0x207b <playMidi+0x1e1>
    1f9c: 85 12        	sta	$12                     ; 0x2012 <playMidi+0x178>
    1f9e: 8a           	txa
    1f9f: 65 7c        	adc	$7c                     ; 0x207c <playMidi+0x1e2>
    1fa1: 85 13        	sta	$13                     ; 0x2013 <playMidi+0x179>
    1fa3: a0 14        	ldy	#$14
    1fa5: b1 12        	lda	($12),y                 ; 0x2012 <playMidi+0x178>
    1fa7: d0 07        	bne	$1fb0 <playMidi+0x116>
    1fa9: a0 12        	ldy	#$12
    1fab: b1 12        	lda	($12),y                 ; 0x2012 <playMidi+0x178>
    1fad: 8d a1 dd     	sta	$dda1                   ; 0xdda1 <__heap_start+0x8cef>
    1fb0: a4 70        	ldy	$70                     ; 0x2070 <playMidi+0x1d6>
    1fb2: a5 71        	lda	$71                     ; 0x2071 <playMidi+0x1d7>
    1fb4: a6 79        	ldx	$79                     ; 0x2079 <playMidi+0x1df>
    1fb6: 86 2d        	stx	$2d                     ; 0x202d <playMidi+0x193>
    1fb8: aa           	tax
    1fb9: d0 07        	bne	$1fc2 <playMidi+0x128>
    1fbb: c0 00        	cpy	#$0
    1fbd: d0 03        	bne	$1fc2 <playMidi+0x128>
    1fbf: 4c a7 20     	jmp	$20a7 <playMidi+0x20d>
    1fc2: a6 7a        	ldx	$7a                     ; 0x207a <playMidi+0x1e0>
    1fc4: 86 28        	stx	$28                     ; 0x2028 <playMidi+0x18e>
    1fc6: a6 7b        	ldx	$7b                     ; 0x207b <playMidi+0x1e1>
    1fc8: 86 26        	stx	$26                     ; 0x2026 <playMidi+0x18c>
    1fca: a6 7c        	ldx	$7c                     ; 0x207c <playMidi+0x1e2>
    1fcc: 86 29        	stx	$29                     ; 0x2029 <playMidi+0x18f>
    1fce: a2 16        	ldx	#$16
    1fd0: 64 13        	stz	$13                     ; 0x2013 <playMidi+0x179>
    1fd2: 86 12        	stx	$12                     ; 0x2012 <playMidi+0x178>
    1fd4: a6 28        	ldx	$28                     ; 0x2028 <playMidi+0x18e>
    1fd6: 5a           	phy
    1fd7: a4 2d        	ldy	$2d                     ; 0x202d <playMidi+0x193>
    1fd9: 84 24        	sty	$24                     ; 0x2024 <playMidi+0x18a>
    1fdb: 7a           	ply
    1fdc: 85 27        	sta	$27                     ; 0x2027 <playMidi+0x18d>
    1fde: a5 2d        	lda	$2d                     ; 0x202d <playMidi+0x193>
    1fe0: 84 25        	sty	$25                     ; 0x2025 <playMidi+0x18b>
    1fe2: 20 1c 4d     	jsr	$4d1c <__mulhi3>
    1fe5: 85 12        	sta	$12                     ; 0x2012 <playMidi+0x178>
    1fe7: 86 13        	stx	$13                     ; 0x2013 <playMidi+0x179>
    1fe9: 18           	clc
    1fea: a5 26        	lda	$26                     ; 0x2026 <playMidi+0x18c>
    1fec: 65 12        	adc	$12                     ; 0x2012 <playMidi+0x178>
    1fee: aa           	tax
    1fef: a5 29        	lda	$29                     ; 0x2029 <playMidi+0x18f>
    1ff1: 65 13        	adc	$13                     ; 0x2013 <playMidi+0x179>
    1ff3: 86 12        	stx	$12                     ; 0x2012 <playMidi+0x178>
    1ff5: 85 13        	sta	$13                     ; 0x2013 <playMidi+0x179>
    1ff7: a8           	tay
    1ff8: 18           	clc
    1ff9: 8a           	txa
    1ffa: 69 0c        	adc	#$c
    1ffc: 85 14        	sta	$14                     ; 0x2014 <playMidi+0x17a>
    1ffe: 98           	tya
    1fff: 69 00        	adc	#$0
    2001: 85 15        	sta	$15                     ; 0x2015 <playMidi+0x17b>
    2003: a5 26        	lda	$26                     ; 0x2026 <playMidi+0x18c>
    2005: 18           	clc
    2006: 69 0c        	adc	#$c
    2008: 85 16        	sta	$16                     ; 0x2016 <playMidi+0x17c>
    200a: a5 29        	lda	$29                     ; 0x2029 <playMidi+0x18f>
    200c: 69 00        	adc	#$0
    200e: 85 17        	sta	$17                     ; 0x2017 <playMidi+0x17d>
    2010: a6 28        	ldx	$28                     ; 0x2028 <playMidi+0x18e>
    2012: a4 25        	ldy	$25                     ; 0x2025 <playMidi+0x18b>
    2014: 84 18        	sty	$18                     ; 0x2018 <playMidi+0x17e>
    2016: a4 27        	ldy	$27                     ; 0x2027 <playMidi+0x18d>
    2018: 84 19        	sty	$19                     ; 0x2019 <playMidi+0x17f>
    201a: 80 14        	bra	$2030 <playMidi+0x196>
    201c: a5 16        	lda	$16                     ; 0x2016 <playMidi+0x17c>
    201e: 18           	clc
    201f: 69 16        	adc	#$16
    2021: 85 16        	sta	$16                     ; 0x2016 <playMidi+0x17c>
    2023: a5 17        	lda	$17                     ; 0x2017 <playMidi+0x17d>
    2025: 69 00        	adc	#$0
    2027: 85 17        	sta	$17                     ; 0x2017 <playMidi+0x17d>
    2029: a5 19        	lda	$19                     ; 0x2019 <playMidi+0x17f>
    202b: d0 03        	bne	$2030 <playMidi+0x196>
    202d: 4c a0 20     	jmp	$20a0 <playMidi+0x206>
    2030: a0 09        	ldy	#$9
    2032: b1 16        	lda	($16),y                 ; 0x2016 <playMidi+0x17c>
    2034: f0 03        	beq	$2039 <playMidi+0x19f>
    2036: 4c 87 20     	jmp	$2087 <playMidi+0x1ed>
    2039: 8a           	txa
    203a: d0 04        	bne	$2040 <playMidi+0x1a6>
    203c: a5 24        	lda	$24                     ; 0x2024 <playMidi+0x18a>
    203e: f0 47        	beq	$2087 <playMidi+0x1ed>
    2040: b2 16        	lda	($16)                   ; 0x2016 <playMidi+0x17c>
    2042: 85 1d        	sta	$1d                     ; 0x201d <playMidi+0x183>
    2044: a0 01        	ldy	#$1
    2046: b1 16        	lda	($16),y                 ; 0x2016 <playMidi+0x17c>
    2048: 85 1c        	sta	$1c                     ; 0x201c <playMidi+0x182>
    204a: c8           	iny
    204b: b1 16        	lda	($16),y                 ; 0x2016 <playMidi+0x17c>
    204d: 85 1b        	sta	$1b                     ; 0x201b <playMidi+0x181>
    204f: c8           	iny
    2050: b1 16        	lda	($16),y                 ; 0x2016 <playMidi+0x17c>
    2052: 85 1e        	sta	$1e                     ; 0x201e <playMidi+0x184>
    2054: 38           	sec
    2055: a0 0c        	ldy	#$c
    2057: a5 1d        	lda	$1d                     ; 0x201d <playMidi+0x183>
    2059: f1 12        	sbc	($12),y                 ; 0x2012 <playMidi+0x178>
    205b: 85 1d        	sta	$1d                     ; 0x201d <playMidi+0x183>
    205d: a5 1c        	lda	$1c                     ; 0x201c <playMidi+0x182>
    205f: a0 01        	ldy	#$1
    2061: f1 14        	sbc	($14),y                 ; 0x2014 <playMidi+0x17a>
    2063: 85 1c        	sta	$1c                     ; 0x201c <playMidi+0x182>
    2065: a5 1b        	lda	$1b                     ; 0x201b <playMidi+0x181>
    2067: c8           	iny
    2068: f1 14        	sbc	($14),y                 ; 0x2014 <playMidi+0x17a>
    206a: 85 1b        	sta	$1b                     ; 0x201b <playMidi+0x181>
    206c: c8           	iny
    206d: a5 1e        	lda	$1e                     ; 0x201e <playMidi+0x184>
    206f: f1 14        	sbc	($14),y                 ; 0x2014 <playMidi+0x17a>
    2071: 85 1e        	sta	$1e                     ; 0x201e <playMidi+0x184>
    2073: a5 1d        	lda	$1d                     ; 0x201d <playMidi+0x183>
    2075: 92 16        	sta	($16)                   ; 0x2016 <playMidi+0x17c>
    2077: a5 1c        	lda	$1c                     ; 0x201c <playMidi+0x182>
    2079: a0 01        	ldy	#$1
    207b: 91 16        	sta	($16),y                 ; 0x2016 <playMidi+0x17c>
    207d: a5 1b        	lda	$1b                     ; 0x201b <playMidi+0x181>
    207f: c8           	iny
    2080: 91 16        	sta	($16),y                 ; 0x2016 <playMidi+0x17c>
    2082: c8           	iny
    2083: a5 1e        	lda	$1e                     ; 0x201e <playMidi+0x184>
    2085: 91 16        	sta	($16),y                 ; 0x2016 <playMidi+0x17c>
    2087: a9 ff        	lda	#$ff
    2089: c6 18        	dec	$18                     ; 0x2018 <playMidi+0x17e>
    208b: c5 18        	cmp	$18                     ; 0x2018 <playMidi+0x17e>
    208d: d0 02        	bne	$2091 <playMidi+0x1f7>
    208f: c6 19        	dec	$19                     ; 0x2019 <playMidi+0x17f>
    2091: a9 ff        	lda	#$ff
    2093: c6 24        	dec	$24                     ; 0x2024 <playMidi+0x18a>
    2095: c5 24        	cmp	$24                     ; 0x2024 <playMidi+0x18a>
    2097: f0 03        	beq	$209c <playMidi+0x202>
    2099: 4c 1c 20     	jmp	$201c <playMidi+0x182>
    209c: ca           	dex
    209d: 4c 1c 20     	jmp	$201c <playMidi+0x182>
    20a0: a5 18        	lda	$18                     ; 0x2018 <playMidi+0x17e>
    20a2: f0 03        	beq	$20a7 <playMidi+0x20d>
    20a4: 4c 30 20     	jmp	$2030 <playMidi+0x196>
    20a7: a2 16        	ldx	#$16
    20a9: 64 24        	stz	$24                     ; 0x2024 <playMidi+0x18a>
    20ab: 4c b0 21     	jmp	$21b0 <playMidi+0x316>
    20ae: 85 1d        	sta	$1d                     ; 0x201d <playMidi+0x183>
    20b0: a0 04        	ldy	#$4
    20b2: a5 1a        	lda	$1a                     ; 0x201a <playMidi+0x180>
    20b4: 91 12        	sta	($12),y                 ; 0x2012 <playMidi+0x178>
    20b6: a0 01        	ldy	#$1
    20b8: a5 1b        	lda	$1b                     ; 0x201b <playMidi+0x181>
    20ba: 91 16        	sta	($16),y                 ; 0x2016 <playMidi+0x17c>
    20bc: c8           	iny
    20bd: a5 1c        	lda	$1c                     ; 0x201c <playMidi+0x182>
    20bf: 91 16        	sta	($16),y                 ; 0x2016 <playMidi+0x17c>
    20c1: c8           	iny
    20c2: a5 1d        	lda	$1d                     ; 0x201d <playMidi+0x183>
    20c4: 91 16        	sta	($16),y                 ; 0x2016 <playMidi+0x17c>
    20c6: 18           	clc
    20c7: a0 08        	ldy	#$8
    20c9: a5 18        	lda	$18                     ; 0x2018 <playMidi+0x17e>
    20cb: 71 12        	adc	($12),y                 ; 0x2012 <playMidi+0x178>
    20cd: 85 16        	sta	$16                     ; 0x2016 <playMidi+0x17c>
    20cf: a5 19        	lda	$19                     ; 0x2019 <playMidi+0x17f>
    20d1: a0 01        	ldy	#$1
    20d3: 71 14        	adc	($14),y                 ; 0x2014 <playMidi+0x17a>
    20d5: 85 12        	sta	$12                     ; 0x2012 <playMidi+0x178>
    20d7: 8a           	txa
    20d8: c8           	iny
    20d9: 71 14        	adc	($14),y                 ; 0x2014 <playMidi+0x17a>
    20db: 85 13        	sta	$13                     ; 0x2013 <playMidi+0x179>
    20dd: a5 12        	lda	$12                     ; 0x2012 <playMidi+0x178>
    20df: 06 12        	asl	$12                     ; 0x2012 <playMidi+0x178>
    20e1: 26 13        	rol	$13                     ; 0x2013 <playMidi+0x179>
    20e3: 06 12        	asl	$12                     ; 0x2012 <playMidi+0x178>
    20e5: 26 13        	rol	$13                     ; 0x2013 <playMidi+0x179>
    20e7: 06 12        	asl	$12                     ; 0x2012 <playMidi+0x178>
    20e9: 26 13        	rol	$13                     ; 0x2013 <playMidi+0x179>
    20eb: a4 13        	ldy	$13                     ; 0x2013 <playMidi+0x179>
    20ed: a6 0f        	ldx	$f                      ; 0x200f <playMidi+0x175>
    20ef: 78           	sei
    20f0: 84 0f        	sty	$f                      ; 0x200f <playMidi+0x175>
    20f2: a4 16        	ldy	$16                     ; 0x2016 <playMidi+0x17c>
    20f4: 84 12        	sty	$12                     ; 0x2012 <playMidi+0x178>
    20f6: 09 e0        	ora	#$e0
    20f8: 85 13        	sta	$13                     ; 0x2013 <playMidi+0x179>
    20fa: b2 12        	lda	($12)                   ; 0x2012 <playMidi+0x178>
    20fc: 86 0f        	stx	$f                      ; 0x200f <playMidi+0x175>
    20fe: 58           	cli
    20ff: aa           	tax
    2100: 10 03        	bpl	$2105 <playMidi+0x26b>
    2102: 4c 22 22     	jmp	$2222 <playMidi+0x388>
    2105: 64 28        	stz	$28                     ; 0x2028 <playMidi+0x18e>
    2107: 64 29        	stz	$29                     ; 0x2029 <playMidi+0x18f>
    2109: 64 17        	stz	$17                     ; 0x2017 <playMidi+0x17d>
    210b: 64 2b        	stz	$2b                     ; 0x202b <playMidi+0x191>
    210d: 64 2a        	stz	$2a                     ; 0x202a <playMidi+0x190>
    210f: 64 14        	stz	$14                     ; 0x2014 <playMidi+0x17a>
    2111: 64 12        	stz	$12                     ; 0x2012 <playMidi+0x178>
    2113: 64 13        	stz	$13                     ; 0x2013 <playMidi+0x179>
    2115: 64 1a        	stz	$1a                     ; 0x201a <playMidi+0x180>
    2117: 05 2b        	ora	$2b                     ; 0x202b <playMidi+0x191>
    2119: aa           	tax
    211a: a5 28        	lda	$28                     ; 0x2028 <playMidi+0x18e>
    211c: 05 2a        	ora	$2a                     ; 0x202a <playMidi+0x190>
    211e: 85 15        	sta	$15                     ; 0x2015 <playMidi+0x17b>
    2120: a5 29        	lda	$29                     ; 0x2029 <playMidi+0x18f>
    2122: 05 14        	ora	$14                     ; 0x2014 <playMidi+0x17a>
    2124: 85 16        	sta	$16                     ; 0x2016 <playMidi+0x17c>
    2126: 8a           	txa
    2127: 05 12        	ora	$12                     ; 0x2012 <playMidi+0x178>
    2129: aa           	tax
    212a: a5 15        	lda	$15                     ; 0x2015 <playMidi+0x17b>
    212c: 05 13        	ora	$13                     ; 0x2013 <playMidi+0x179>
    212e: 85 15        	sta	$15                     ; 0x2015 <playMidi+0x17b>
    2130: 8a           	txa
    2131: 05 1a        	ora	$1a                     ; 0x201a <playMidi+0x180>
    2133: a6 7d        	ldx	$7d                     ; 0x207d <playMidi+0x1e3>
    2135: 86 18        	stx	$18                     ; 0x2018 <playMidi+0x17e>
    2137: 85 14        	sta	$14                     ; 0x2014 <playMidi+0x17a>
    2139: a5 7e        	lda	$7e                     ; 0x207e <playMidi+0x1e4>
    213b: a4 7f        	ldy	$7f                     ; 0x207f <playMidi+0x1e5>
    213d: a6 80        	ldx	$80                     ; 0x2080 <playMidi+0x1e6>
    213f: 84 12        	sty	$12                     ; 0x2012 <playMidi+0x178>
    2141: 86 13        	stx	$13                     ; 0x2013 <playMidi+0x179>
    2143: aa           	tax
    2144: a5 18        	lda	$18                     ; 0x2018 <playMidi+0x17e>
    2146: 20 4e 4d     	jsr	$4d4e <__mulsi3>
    2149: 85 27        	sta	$27                     ; 0x2027 <playMidi+0x18d>
    214b: 86 28        	stx	$28                     ; 0x2028 <playMidi+0x18e>
    214d: a6 12        	ldx	$12                     ; 0x2012 <playMidi+0x178>
    214f: 86 29        	stx	$29                     ; 0x2029 <playMidi+0x18f>
    2151: a6 13        	ldx	$13                     ; 0x2013 <playMidi+0x179>
    2153: 86 2a        	stx	$2a                     ; 0x202a <playMidi+0x190>
    2155: a6 7b        	ldx	$7b                     ; 0x207b <playMidi+0x1e1>
    2157: 86 2b        	stx	$2b                     ; 0x202b <playMidi+0x191>
    2159: a6 7c        	ldx	$7c                     ; 0x207c <playMidi+0x1e2>
    215b: 86 26        	stx	$26                     ; 0x2026 <playMidi+0x18c>
    215d: a2 16        	ldx	#$16
    215f: 86 12        	stx	$12                     ; 0x2012 <playMidi+0x178>
    2161: 64 13        	stz	$13                     ; 0x2013 <playMidi+0x179>
    2163: a2 00        	ldx	#$0
    2165: a4 2d        	ldy	$2d                     ; 0x202d <playMidi+0x193>
    2167: 84 25        	sty	$25                     ; 0x2025 <playMidi+0x18b>
    2169: a5 2d        	lda	$2d                     ; 0x202d <playMidi+0x193>
    216b: 20 1c 4d     	jsr	$4d1c <__mulhi3>
    216e: 85 12        	sta	$12                     ; 0x2012 <playMidi+0x178>
    2170: 86 13        	stx	$13                     ; 0x2013 <playMidi+0x179>
    2172: 18           	clc
    2173: a5 2b        	lda	$2b                     ; 0x202b <playMidi+0x191>
    2175: 65 12        	adc	$12                     ; 0x2012 <playMidi+0x178>
    2177: a8           	tay
    2178: a5 26        	lda	$26                     ; 0x2026 <playMidi+0x18c>
    217a: 65 13        	adc	$13                     ; 0x2013 <playMidi+0x179>
    217c: aa           	tax
    217d: 98           	tya
    217e: 84 12        	sty	$12                     ; 0x2012 <playMidi+0x178>
    2180: 86 13        	stx	$13                     ; 0x2013 <playMidi+0x179>
    2182: 18           	clc
    2183: 69 0c        	adc	#$c
    2185: 85 14        	sta	$14                     ; 0x2014 <playMidi+0x17a>
    2187: 8a           	txa
    2188: 69 00        	adc	#$0
    218a: 85 15        	sta	$15                     ; 0x2015 <playMidi+0x17b>
    218c: a0 0c        	ldy	#$c
    218e: a5 27        	lda	$27                     ; 0x2027 <playMidi+0x18d>
    2190: 91 12        	sta	($12),y                 ; 0x2012 <playMidi+0x178>
    2192: a0 01        	ldy	#$1
    2194: a5 28        	lda	$28                     ; 0x2028 <playMidi+0x18e>
    2196: 91 14        	sta	($14),y                 ; 0x2014 <playMidi+0x17a>
    2198: c8           	iny
    2199: a5 29        	lda	$29                     ; 0x2029 <playMidi+0x18f>
    219b: 91 14        	sta	($14),y                 ; 0x2014 <playMidi+0x17a>
    219d: c8           	iny
    219e: a5 2a        	lda	$2a                     ; 0x202a <playMidi+0x190>
    21a0: 91 14        	sta	($14),y                 ; 0x2014 <playMidi+0x17a>
    21a2: a5 2d        	lda	$2d                     ; 0x202d <playMidi+0x193>
    21a4: 20 a0 15     	jsr	$15a0 <readMIDICmd>
    21a7: a2 16        	ldx	#$16
    21a9: c9 01        	cmp	#$1
    21ab: f0 03        	beq	$21b0 <playMidi+0x316>
    21ad: 4c 08 25     	jmp	$2508 <playMidi+0x66e>
    21b0: a4 7b        	ldy	$7b                     ; 0x207b <playMidi+0x1e1>
    21b2: 84 27        	sty	$27                     ; 0x2027 <playMidi+0x18d>
    21b4: a4 7c        	ldy	$7c                     ; 0x207c <playMidi+0x1e2>
    21b6: 84 26        	sty	$26                     ; 0x2026 <playMidi+0x18c>
    21b8: 86 12        	stx	$12                     ; 0x2012 <playMidi+0x178>
    21ba: 64 13        	stz	$13                     ; 0x2013 <playMidi+0x179>
    21bc: a2 00        	ldx	#$0
    21be: a5 2d        	lda	$2d                     ; 0x202d <playMidi+0x193>
    21c0: 20 1c 4d     	jsr	$4d1c <__mulhi3>
    21c3: 85 12        	sta	$12                     ; 0x2012 <playMidi+0x178>
    21c5: 86 13        	stx	$13                     ; 0x2013 <playMidi+0x179>
    21c7: 18           	clc
    21c8: a5 27        	lda	$27                     ; 0x2027 <playMidi+0x18d>
    21ca: 65 12        	adc	$12                     ; 0x2012 <playMidi+0x178>
    21cc: a8           	tay
    21cd: a5 26        	lda	$26                     ; 0x2026 <playMidi+0x18c>
    21cf: 65 13        	adc	$13                     ; 0x2013 <playMidi+0x179>
    21d1: aa           	tax
    21d2: 84 12        	sty	$12                     ; 0x2012 <playMidi+0x178>
    21d4: 85 13        	sta	$13                     ; 0x2013 <playMidi+0x179>
    21d6: 98           	tya
    21d7: 18           	clc
    21d8: 69 08        	adc	#$8
    21da: 85 14        	sta	$14                     ; 0x2014 <playMidi+0x17a>
    21dc: 8a           	txa
    21dd: 69 00        	adc	#$0
    21df: 85 15        	sta	$15                     ; 0x2015 <playMidi+0x17b>
    21e1: 18           	clc
    21e2: 98           	tya
    21e3: 69 04        	adc	#$4
    21e5: 85 16        	sta	$16                     ; 0x2016 <playMidi+0x17c>
    21e7: 8a           	txa
    21e8: 69 00        	adc	#$0
    21ea: 85 17        	sta	$17                     ; 0x2017 <playMidi+0x17d>
    21ec: a0 04        	ldy	#$4
    21ee: b1 12        	lda	($12),y                 ; 0x2012 <playMidi+0x178>
    21f0: 85 18        	sta	$18                     ; 0x2018 <playMidi+0x17e>
    21f2: a0 01        	ldy	#$1
    21f4: b1 16        	lda	($16),y                 ; 0x2016 <playMidi+0x17c>
    21f6: 85 19        	sta	$19                     ; 0x2019 <playMidi+0x17f>
    21f8: c8           	iny
    21f9: b1 16        	lda	($16),y                 ; 0x2016 <playMidi+0x17c>
    21fb: aa           	tax
    21fc: c8           	iny
    21fd: b1 16        	lda	($16),y                 ; 0x2016 <playMidi+0x17c>
    21ff: a4 18        	ldy	$18                     ; 0x2018 <playMidi+0x17e>
    2201: 84 1a        	sty	$1a                     ; 0x201a <playMidi+0x180>
    2203: a4 19        	ldy	$19                     ; 0x2019 <playMidi+0x17f>
    2205: 84 1b        	sty	$1b                     ; 0x201b <playMidi+0x181>
    2207: 86 1c        	stx	$1c                     ; 0x201c <playMidi+0x182>
    2209: e6 1a        	inc	$1a                     ; 0x201a <playMidi+0x180>
    220b: f0 03        	beq	$2210 <playMidi+0x376>
    220d: 4c ae 20     	jmp	$20ae <playMidi+0x214>
    2210: e6 1b        	inc	$1b                     ; 0x201b <playMidi+0x181>
    2212: f0 03        	beq	$2217 <playMidi+0x37d>
    2214: 4c ae 20     	jmp	$20ae <playMidi+0x214>
    2217: e6 1c        	inc	$1c                     ; 0x201c <playMidi+0x182>
    2219: f0 03        	beq	$221e <playMidi+0x384>
    221b: 4c ae 20     	jmp	$20ae <playMidi+0x214>
    221e: 1a           	inc
    221f: 4c ae 20     	jmp	$20ae <playMidi+0x214>
    2222: 4a           	lsr
    2223: aa           	tax
    2224: a9 00        	lda	#$0
    2226: 6a           	ror
    2227: 29 80        	and	#$80
    2229: 85 27        	sta	$27                     ; 0x2027 <playMidi+0x18d>
    222b: 8a           	txa
    222c: 29 3f        	and	#$3f
    222e: 85 28        	sta	$28                     ; 0x2028 <playMidi+0x18e>
    2230: a6 7b        	ldx	$7b                     ; 0x207b <playMidi+0x1e1>
    2232: 86 29        	stx	$29                     ; 0x2029 <playMidi+0x18f>
    2234: a6 7c        	ldx	$7c                     ; 0x207c <playMidi+0x1e2>
    2236: 86 26        	stx	$26                     ; 0x2026 <playMidi+0x18c>
    2238: a2 16        	ldx	#$16
    223a: 86 12        	stx	$12                     ; 0x2012 <playMidi+0x178>
    223c: 64 13        	stz	$13                     ; 0x2013 <playMidi+0x179>
    223e: a2 00        	ldx	#$0
    2240: a5 2d        	lda	$2d                     ; 0x202d <playMidi+0x193>
    2242: 20 1c 4d     	jsr	$4d1c <__mulhi3>
    2245: 85 12        	sta	$12                     ; 0x2012 <playMidi+0x178>
    2247: 86 13        	stx	$13                     ; 0x2013 <playMidi+0x179>
    2249: 18           	clc
    224a: a5 29        	lda	$29                     ; 0x2029 <playMidi+0x18f>
    224c: 65 12        	adc	$12                     ; 0x2012 <playMidi+0x178>
    224e: a8           	tay
    224f: a5 26        	lda	$26                     ; 0x2026 <playMidi+0x18c>
    2251: 65 13        	adc	$13                     ; 0x2013 <playMidi+0x179>
    2253: aa           	tax
    2254: 84 12        	sty	$12                     ; 0x2012 <playMidi+0x178>
    2256: 85 13        	sta	$13                     ; 0x2013 <playMidi+0x179>
    2258: 18           	clc
    2259: 98           	tya
    225a: 69 08        	adc	#$8
    225c: 85 14        	sta	$14                     ; 0x2014 <playMidi+0x17a>
    225e: 8a           	txa
    225f: 69 00        	adc	#$0
    2261: 85 15        	sta	$15                     ; 0x2015 <playMidi+0x17b>
    2263: 18           	clc
    2264: 98           	tya
    2265: 69 04        	adc	#$4
    2267: 85 16        	sta	$16                     ; 0x2016 <playMidi+0x17c>
    2269: 8a           	txa
    226a: 69 00        	adc	#$0
    226c: 85 17        	sta	$17                     ; 0x2017 <playMidi+0x17d>
    226e: a0 04        	ldy	#$4
    2270: b1 12        	lda	($12),y                 ; 0x2012 <playMidi+0x178>
    2272: 85 18        	sta	$18                     ; 0x2018 <playMidi+0x17e>
    2274: a0 01        	ldy	#$1
    2276: b1 16        	lda	($16),y                 ; 0x2016 <playMidi+0x17c>
    2278: 85 19        	sta	$19                     ; 0x2019 <playMidi+0x17f>
    227a: c8           	iny
    227b: b1 16        	lda	($16),y                 ; 0x2016 <playMidi+0x17c>
    227d: aa           	tax
    227e: c8           	iny
    227f: b1 16        	lda	($16),y                 ; 0x2016 <playMidi+0x17c>
    2281: a4 18        	ldy	$18                     ; 0x2018 <playMidi+0x17e>
    2283: 84 1a        	sty	$1a                     ; 0x201a <playMidi+0x180>
    2285: a4 19        	ldy	$19                     ; 0x2019 <playMidi+0x17f>
    2287: 84 1b        	sty	$1b                     ; 0x201b <playMidi+0x181>
    2289: 86 1c        	stx	$1c                     ; 0x201c <playMidi+0x182>
    228b: e6 1a        	inc	$1a                     ; 0x201a <playMidi+0x180>
    228d: d0 09        	bne	$2298 <playMidi+0x3fe>
    228f: e6 1b        	inc	$1b                     ; 0x201b <playMidi+0x181>
    2291: d0 05        	bne	$2298 <playMidi+0x3fe>
    2293: e6 1c        	inc	$1c                     ; 0x201c <playMidi+0x182>
    2295: d0 01        	bne	$2298 <playMidi+0x3fe>
    2297: 1a           	inc
    2298: 85 1d        	sta	$1d                     ; 0x201d <playMidi+0x183>
    229a: a0 04        	ldy	#$4
    229c: a5 1a        	lda	$1a                     ; 0x201a <playMidi+0x180>
    229e: 91 12        	sta	($12),y                 ; 0x2012 <playMidi+0x178>
    22a0: a0 01        	ldy	#$1
    22a2: a5 1b        	lda	$1b                     ; 0x201b <playMidi+0x181>
    22a4: 91 16        	sta	($16),y                 ; 0x2016 <playMidi+0x17c>
    22a6: c8           	iny
    22a7: a5 1c        	lda	$1c                     ; 0x201c <playMidi+0x182>
    22a9: 91 16        	sta	($16),y                 ; 0x2016 <playMidi+0x17c>
    22ab: c8           	iny
    22ac: a5 1d        	lda	$1d                     ; 0x201d <playMidi+0x183>
    22ae: 91 16        	sta	($16),y                 ; 0x2016 <playMidi+0x17c>
    22b0: 18           	clc
    22b1: a5 18        	lda	$18                     ; 0x2018 <playMidi+0x17e>
    22b3: a0 08        	ldy	#$8
    22b5: 71 12        	adc	($12),y                 ; 0x2012 <playMidi+0x178>
    22b7: 85 13        	sta	$13                     ; 0x2013 <playMidi+0x179>
    22b9: a0 01        	ldy	#$1
    22bb: a5 19        	lda	$19                     ; 0x2019 <playMidi+0x17f>
    22bd: 71 14        	adc	($14),y                 ; 0x2014 <playMidi+0x17a>
    22bf: 85 12        	sta	$12                     ; 0x2012 <playMidi+0x178>
    22c1: c8           	iny
    22c2: 8a           	txa
    22c3: 71 14        	adc	($14),y                 ; 0x2014 <playMidi+0x17a>
    22c5: 85 14        	sta	$14                     ; 0x2014 <playMidi+0x17a>
    22c7: a5 12        	lda	$12                     ; 0x2012 <playMidi+0x178>
    22c9: 06 12        	asl	$12                     ; 0x2012 <playMidi+0x178>
    22cb: 26 14        	rol	$14                     ; 0x2014 <playMidi+0x17a>
    22cd: 06 12        	asl	$12                     ; 0x2012 <playMidi+0x178>
    22cf: 26 14        	rol	$14                     ; 0x2014 <playMidi+0x17a>
    22d1: 06 12        	asl	$12                     ; 0x2012 <playMidi+0x178>
    22d3: 26 14        	rol	$14                     ; 0x2014 <playMidi+0x17a>
    22d5: a4 14        	ldy	$14                     ; 0x2014 <playMidi+0x17a>
    22d7: a6 0f        	ldx	$f                      ; 0x200f <playMidi+0x175>
    22d9: 78           	sei
    22da: 84 0f        	sty	$f                      ; 0x200f <playMidi+0x175>
    22dc: a4 13        	ldy	$13                     ; 0x2013 <playMidi+0x179>
    22de: 84 12        	sty	$12                     ; 0x2012 <playMidi+0x178>
    22e0: 09 e0        	ora	#$e0
    22e2: 85 13        	sta	$13                     ; 0x2013 <playMidi+0x179>
    22e4: b2 12        	lda	($12)                   ; 0x2012 <playMidi+0x178>
    22e6: 86 0f        	stx	$f                      ; 0x200f <playMidi+0x175>
    22e8: 58           	cli
    22e9: aa           	tax
    22ea: 30 15        	bmi	$2301 <playMidi+0x467>
    22ec: 64 17        	stz	$17                     ; 0x2017 <playMidi+0x17d>
    22ee: 64 2a        	stz	$2a                     ; 0x202a <playMidi+0x190>
    22f0: 64 14        	stz	$14                     ; 0x2014 <playMidi+0x17a>
    22f2: 64 12        	stz	$12                     ; 0x2012 <playMidi+0x178>
    22f4: 64 29        	stz	$29                     ; 0x2029 <playMidi+0x18f>
    22f6: 64 13        	stz	$13                     ; 0x2013 <playMidi+0x179>
    22f8: 64 1a        	stz	$1a                     ; 0x201a <playMidi+0x180>
    22fa: 85 2b        	sta	$2b                     ; 0x202b <playMidi+0x191>
    22fc: a5 27        	lda	$27                     ; 0x2027 <playMidi+0x18d>
    22fe: 4c 17 21     	jmp	$2117 <playMidi+0x27d>
    2301: 64 13        	stz	$13                     ; 0x2013 <playMidi+0x179>
    2303: 4a           	lsr
    2304: aa           	tax
    2305: a9 00        	lda	#$0
    2307: 6a           	ror
    2308: 29 80        	and	#$80
    230a: 85 2b        	sta	$2b                     ; 0x202b <playMidi+0x191>
    230c: 8a           	txa
    230d: 29 3f        	and	#$3f
    230f: 85 2a        	sta	$2a                     ; 0x202a <playMidi+0x190>
    2311: 46 28        	lsr	$28                     ; 0x2028 <playMidi+0x18e>
    2313: a6 28        	ldx	$28                     ; 0x2028 <playMidi+0x18e>
    2315: 86 29        	stx	$29                     ; 0x2029 <playMidi+0x18f>
    2317: a6 27        	ldx	$27                     ; 0x2027 <playMidi+0x18d>
    2319: 86 28        	stx	$28                     ; 0x2028 <playMidi+0x18e>
    231b: 66 28        	ror	$28                     ; 0x2028 <playMidi+0x18e>
    231d: 64 27        	stz	$27                     ; 0x2027 <playMidi+0x18d>
    231f: 66 27        	ror	$27                     ; 0x2027 <playMidi+0x18d>
    2321: a6 7b        	ldx	$7b                     ; 0x207b <playMidi+0x1e1>
    2323: 86 2c        	stx	$2c                     ; 0x202c <playMidi+0x192>
    2325: a6 7c        	ldx	$7c                     ; 0x207c <playMidi+0x1e2>
    2327: 86 26        	stx	$26                     ; 0x2026 <playMidi+0x18c>
    2329: a2 16        	ldx	#$16
    232b: 86 12        	stx	$12                     ; 0x2012 <playMidi+0x178>
    232d: a2 00        	ldx	#$0
    232f: a5 2d        	lda	$2d                     ; 0x202d <playMidi+0x193>
    2331: 20 1c 4d     	jsr	$4d1c <__mulhi3>
    2334: 85 12        	sta	$12                     ; 0x2012 <playMidi+0x178>
    2336: 86 13        	stx	$13                     ; 0x2013 <playMidi+0x179>
    2338: 18           	clc
    2339: a5 2c        	lda	$2c                     ; 0x202c <playMidi+0x192>
    233b: 65 12        	adc	$12                     ; 0x2012 <playMidi+0x178>
    233d: a8           	tay
    233e: a5 26        	lda	$26                     ; 0x2026 <playMidi+0x18c>
    2340: 65 13        	adc	$13                     ; 0x2013 <playMidi+0x179>
    2342: aa           	tax
    2343: 84 12        	sty	$12                     ; 0x2012 <playMidi+0x178>
    2345: 85 13        	sta	$13                     ; 0x2013 <playMidi+0x179>
    2347: 98           	tya
    2348: 18           	clc
    2349: 69 08        	adc	#$8
    234b: 85 14        	sta	$14                     ; 0x2014 <playMidi+0x17a>
    234d: 8a           	txa
    234e: 69 00        	adc	#$0
    2350: 85 15        	sta	$15                     ; 0x2015 <playMidi+0x17b>
    2352: 18           	clc
    2353: 98           	tya
    2354: 69 04        	adc	#$4
    2356: 85 16        	sta	$16                     ; 0x2016 <playMidi+0x17c>
    2358: 8a           	txa
    2359: 69 00        	adc	#$0
    235b: 85 17        	sta	$17                     ; 0x2017 <playMidi+0x17d>
    235d: a0 04        	ldy	#$4
    235f: b1 12        	lda	($12),y                 ; 0x2012 <playMidi+0x178>
    2361: 85 18        	sta	$18                     ; 0x2018 <playMidi+0x17e>
    2363: a0 01        	ldy	#$1
    2365: b1 16        	lda	($16),y                 ; 0x2016 <playMidi+0x17c>
    2367: 85 19        	sta	$19                     ; 0x2019 <playMidi+0x17f>
    2369: c8           	iny
    236a: b1 16        	lda	($16),y                 ; 0x2016 <playMidi+0x17c>
    236c: aa           	tax
    236d: c8           	iny
    236e: b1 16        	lda	($16),y                 ; 0x2016 <playMidi+0x17c>
    2370: a4 18        	ldy	$18                     ; 0x2018 <playMidi+0x17e>
    2372: 84 1a        	sty	$1a                     ; 0x201a <playMidi+0x180>
    2374: a4 19        	ldy	$19                     ; 0x2019 <playMidi+0x17f>
    2376: 84 1b        	sty	$1b                     ; 0x201b <playMidi+0x181>
    2378: 86 1c        	stx	$1c                     ; 0x201c <playMidi+0x182>
    237a: e6 1a        	inc	$1a                     ; 0x201a <playMidi+0x180>
    237c: d0 09        	bne	$2387 <playMidi+0x4ed>
    237e: e6 1b        	inc	$1b                     ; 0x201b <playMidi+0x181>
    2380: d0 05        	bne	$2387 <playMidi+0x4ed>
    2382: e6 1c        	inc	$1c                     ; 0x201c <playMidi+0x182>
    2384: d0 01        	bne	$2387 <playMidi+0x4ed>
    2386: 1a           	inc
    2387: 85 1d        	sta	$1d                     ; 0x201d <playMidi+0x183>
    2389: a0 04        	ldy	#$4
    238b: a5 1a        	lda	$1a                     ; 0x201a <playMidi+0x180>
    238d: 91 12        	sta	($12),y                 ; 0x2012 <playMidi+0x178>
    238f: a0 01        	ldy	#$1
    2391: a5 1b        	lda	$1b                     ; 0x201b <playMidi+0x181>
    2393: 91 16        	sta	($16),y                 ; 0x2016 <playMidi+0x17c>
    2395: c8           	iny
    2396: a5 1c        	lda	$1c                     ; 0x201c <playMidi+0x182>
    2398: 91 16        	sta	($16),y                 ; 0x2016 <playMidi+0x17c>
    239a: c8           	iny
    239b: a5 1d        	lda	$1d                     ; 0x201d <playMidi+0x183>
    239d: 91 16        	sta	($16),y                 ; 0x2016 <playMidi+0x17c>
    239f: 18           	clc
    23a0: a5 18        	lda	$18                     ; 0x2018 <playMidi+0x17e>
    23a2: a0 08        	ldy	#$8
    23a4: 71 12        	adc	($12),y                 ; 0x2012 <playMidi+0x178>
    23a6: 85 13        	sta	$13                     ; 0x2013 <playMidi+0x179>
    23a8: a0 01        	ldy	#$1
    23aa: a5 19        	lda	$19                     ; 0x2019 <playMidi+0x17f>
    23ac: 71 14        	adc	($14),y                 ; 0x2014 <playMidi+0x17a>
    23ae: 85 12        	sta	$12                     ; 0x2012 <playMidi+0x178>
    23b0: c8           	iny
    23b1: 8a           	txa
    23b2: 71 14        	adc	($14),y                 ; 0x2014 <playMidi+0x17a>
    23b4: 85 14        	sta	$14                     ; 0x2014 <playMidi+0x17a>
    23b6: a5 12        	lda	$12                     ; 0x2012 <playMidi+0x178>
    23b8: 06 12        	asl	$12                     ; 0x2012 <playMidi+0x178>
    23ba: 26 14        	rol	$14                     ; 0x2014 <playMidi+0x17a>
    23bc: 06 12        	asl	$12                     ; 0x2012 <playMidi+0x178>
    23be: 26 14        	rol	$14                     ; 0x2014 <playMidi+0x17a>
    23c0: 06 12        	asl	$12                     ; 0x2012 <playMidi+0x178>
    23c2: 26 14        	rol	$14                     ; 0x2014 <playMidi+0x17a>
    23c4: a4 14        	ldy	$14                     ; 0x2014 <playMidi+0x17a>
    23c6: a6 0f        	ldx	$f                      ; 0x200f <playMidi+0x175>
    23c8: 78           	sei
    23c9: 84 0f        	sty	$f                      ; 0x200f <playMidi+0x175>
    23cb: a4 13        	ldy	$13                     ; 0x2013 <playMidi+0x179>
    23cd: 84 12        	sty	$12                     ; 0x2012 <playMidi+0x178>
    23cf: 09 e0        	ora	#$e0
    23d1: 85 13        	sta	$13                     ; 0x2013 <playMidi+0x179>
    23d3: b2 12        	lda	($12)                   ; 0x2012 <playMidi+0x178>
    23d5: 86 0f        	stx	$f                      ; 0x200f <playMidi+0x175>
    23d7: 58           	cli
    23d8: aa           	tax
    23d9: 30 0f        	bmi	$23ea <playMidi+0x550>
    23db: 64 14        	stz	$14                     ; 0x2014 <playMidi+0x17a>
    23dd: 85 12        	sta	$12                     ; 0x2012 <playMidi+0x178>
    23df: 64 13        	stz	$13                     ; 0x2013 <playMidi+0x179>
    23e1: 64 1a        	stz	$1a                     ; 0x201a <playMidi+0x180>
    23e3: 64 17        	stz	$17                     ; 0x2017 <playMidi+0x17d>
    23e5: a5 27        	lda	$27                     ; 0x2027 <playMidi+0x18d>
    23e7: 4c 17 21     	jmp	$2117 <playMidi+0x27d>
    23ea: 4a           	lsr
    23eb: 64 12        	stz	$12                     ; 0x2012 <playMidi+0x178>
    23ed: 66 12        	ror	$12                     ; 0x2012 <playMidi+0x178>
    23ef: 46 2a        	lsr	$2a                     ; 0x202a <playMidi+0x190>
    23f1: 48           	pha
    23f2: a5 2a        	lda	$2a                     ; 0x202a <playMidi+0x190>
    23f4: a0 08        	ldy	#$8
    23f6: 91 10        	sta	($10),y                 ; 0x2010 <playMidi+0x176>
    23f8: 68           	pla
    23f9: a6 2b        	ldx	$2b                     ; 0x202b <playMidi+0x191>
    23fb: 86 2a        	stx	$2a                     ; 0x202a <playMidi+0x190>
    23fd: 66 2a        	ror	$2a                     ; 0x202a <playMidi+0x190>
    23ff: 64 2b        	stz	$2b                     ; 0x202b <playMidi+0x191>
    2401: 66 2b        	ror	$2b                     ; 0x202b <playMidi+0x191>
    2403: aa           	tax
    2404: a4 2d        	ldy	$2d                     ; 0x202d <playMidi+0x193>
    2406: a5 29        	lda	$29                     ; 0x2029 <playMidi+0x18f>
    2408: 85 25        	sta	$25                     ; 0x2025 <playMidi+0x18b>
    240a: 46 25        	lsr	$25                     ; 0x2025 <playMidi+0x18b>
    240c: 66 28        	ror	$28                     ; 0x2028 <playMidi+0x18e>
    240e: a5 28        	lda	$28                     ; 0x2028 <playMidi+0x18e>
    2410: 85 29        	sta	$29                     ; 0x2029 <playMidi+0x18f>
    2412: 66 27        	ror	$27                     ; 0x2027 <playMidi+0x18d>
    2414: a5 27        	lda	$27                     ; 0x2027 <playMidi+0x18d>
    2416: 85 28        	sta	$28                     ; 0x2028 <playMidi+0x18e>
    2418: a9 00        	lda	#$0
    241a: 6a           	ror
    241b: 5a           	phy
    241c: a0 06        	ldy	#$6
    241e: 91 10        	sta	($10),y                 ; 0x2010 <playMidi+0x176>
    2420: a5 12        	lda	$12                     ; 0x2012 <playMidi+0x178>
    2422: 29 80        	and	#$80
    2424: a0 09        	ldy	#$9
    2426: 91 10        	sta	($10),y                 ; 0x2010 <playMidi+0x176>
    2428: 8a           	txa
    2429: 29 3f        	and	#$3f
    242b: a0 07        	ldy	#$7
    242d: 91 10        	sta	($10),y                 ; 0x2010 <playMidi+0x176>
    242f: 7a           	ply
    2430: a6 7b        	ldx	$7b                     ; 0x207b <playMidi+0x1e1>
    2432: 86 26        	stx	$26                     ; 0x2026 <playMidi+0x18c>
    2434: a6 7c        	ldx	$7c                     ; 0x207c <playMidi+0x1e2>
    2436: 86 27        	stx	$27                     ; 0x2027 <playMidi+0x18d>
    2438: a2 16        	ldx	#$16
    243a: 86 12        	stx	$12                     ; 0x2012 <playMidi+0x178>
    243c: 64 13        	stz	$13                     ; 0x2013 <playMidi+0x179>
    243e: a2 00        	ldx	#$0
    2440: 98           	tya
    2441: 20 1c 4d     	jsr	$4d1c <__mulhi3>
    2444: a4 25        	ldy	$25                     ; 0x2025 <playMidi+0x18b>
    2446: 84 17        	sty	$17                     ; 0x2017 <playMidi+0x17d>
    2448: 85 12        	sta	$12                     ; 0x2012 <playMidi+0x178>
    244a: 86 13        	stx	$13                     ; 0x2013 <playMidi+0x179>
    244c: 18           	clc
    244d: a5 26        	lda	$26                     ; 0x2026 <playMidi+0x18c>
    244f: 65 12        	adc	$12                     ; 0x2012 <playMidi+0x178>
    2451: a8           	tay
    2452: a5 27        	lda	$27                     ; 0x2027 <playMidi+0x18d>
    2454: 65 13        	adc	$13                     ; 0x2013 <playMidi+0x179>
    2456: aa           	tax
    2457: 98           	tya
    2458: 18           	clc
    2459: 69 08        	adc	#$8
    245b: 85 12        	sta	$12                     ; 0x2012 <playMidi+0x178>
    245d: 8a           	txa
    245e: 69 00        	adc	#$0
    2460: 84 14        	sty	$14                     ; 0x2014 <playMidi+0x17a>
    2462: 86 15        	stx	$15                     ; 0x2015 <playMidi+0x17b>
    2464: 85 13        	sta	$13                     ; 0x2013 <playMidi+0x179>
    2466: 18           	clc
    2467: 98           	tya
    2468: 69 04        	adc	#$4
    246a: 85 18        	sta	$18                     ; 0x2018 <playMidi+0x17e>
    246c: 8a           	txa
    246d: 69 00        	adc	#$0
    246f: 85 19        	sta	$19                     ; 0x2019 <playMidi+0x17f>
    2471: a0 04        	ldy	#$4
    2473: b1 14        	lda	($14),y                 ; 0x2014 <playMidi+0x17a>
    2475: 85 16        	sta	$16                     ; 0x2016 <playMidi+0x17c>
    2477: a0 01        	ldy	#$1
    2479: b1 18        	lda	($18),y                 ; 0x2018 <playMidi+0x17e>
    247b: 85 1a        	sta	$1a                     ; 0x201a <playMidi+0x180>
    247d: c8           	iny
    247e: b1 18        	lda	($18),y                 ; 0x2018 <playMidi+0x17e>
    2480: aa           	tax
    2481: c8           	iny
    2482: b1 18        	lda	($18),y                 ; 0x2018 <playMidi+0x17e>
    2484: 85 1c        	sta	$1c                     ; 0x201c <playMidi+0x182>
    2486: a5 16        	lda	$16                     ; 0x2016 <playMidi+0x17c>
    2488: a4 1a        	ldy	$1a                     ; 0x201a <playMidi+0x180>
    248a: 86 1d        	stx	$1d                     ; 0x201d <playMidi+0x183>
    248c: 1a           	inc
    248d: d0 0a        	bne	$2499 <playMidi+0x5ff>
    248f: c8           	iny
    2490: d0 07        	bne	$2499 <playMidi+0x5ff>
    2492: e6 1d        	inc	$1d                     ; 0x201d <playMidi+0x183>
    2494: d0 03        	bne	$2499 <playMidi+0x5ff>
    2496: 4c d2 25     	jmp	$25d2 <playMidi+0x738>
    2499: 84 1e        	sty	$1e                     ; 0x201e <playMidi+0x184>
    249b: a0 04        	ldy	#$4
    249d: 91 14        	sta	($14),y                 ; 0x2014 <playMidi+0x17a>
    249f: a0 01        	ldy	#$1
    24a1: a5 1e        	lda	$1e                     ; 0x201e <playMidi+0x184>
    24a3: 91 18        	sta	($18),y                 ; 0x2018 <playMidi+0x17e>
    24a5: c8           	iny
    24a6: a5 1d        	lda	$1d                     ; 0x201d <playMidi+0x183>
    24a8: 91 18        	sta	($18),y                 ; 0x2018 <playMidi+0x17e>
    24aa: c8           	iny
    24ab: a5 1c        	lda	$1c                     ; 0x201c <playMidi+0x182>
    24ad: 91 18        	sta	($18),y                 ; 0x2018 <playMidi+0x17e>
    24af: 18           	clc
    24b0: a5 16        	lda	$16                     ; 0x2016 <playMidi+0x17c>
    24b2: a0 08        	ldy	#$8
    24b4: 71 14        	adc	($14),y                 ; 0x2014 <playMidi+0x17a>
    24b6: 85 14        	sta	$14                     ; 0x2014 <playMidi+0x17a>
    24b8: a5 1a        	lda	$1a                     ; 0x201a <playMidi+0x180>
    24ba: a0 01        	ldy	#$1
    24bc: 71 12        	adc	($12),y                 ; 0x2012 <playMidi+0x178>
    24be: 85 15        	sta	$15                     ; 0x2015 <playMidi+0x17b>
    24c0: 8a           	txa
    24c1: c8           	iny
    24c2: 71 12        	adc	($12),y                 ; 0x2012 <playMidi+0x178>
    24c4: 85 13        	sta	$13                     ; 0x2013 <playMidi+0x179>
    24c6: a5 15        	lda	$15                     ; 0x2015 <playMidi+0x17b>
    24c8: 85 12        	sta	$12                     ; 0x2012 <playMidi+0x178>
    24ca: 06 12        	asl	$12                     ; 0x2012 <playMidi+0x178>
    24cc: 26 13        	rol	$13                     ; 0x2013 <playMidi+0x179>
    24ce: 06 12        	asl	$12                     ; 0x2012 <playMidi+0x178>
    24d0: 26 13        	rol	$13                     ; 0x2013 <playMidi+0x179>
    24d2: 06 12        	asl	$12                     ; 0x2012 <playMidi+0x178>
    24d4: 26 13        	rol	$13                     ; 0x2013 <playMidi+0x179>
    24d6: a4 13        	ldy	$13                     ; 0x2013 <playMidi+0x179>
    24d8: a6 0f        	ldx	$f                      ; 0x200f <playMidi+0x175>
    24da: 78           	sei
    24db: 84 0f        	sty	$f                      ; 0x200f <playMidi+0x175>
    24dd: a4 14        	ldy	$14                     ; 0x2014 <playMidi+0x17a>
    24df: 84 12        	sty	$12                     ; 0x2012 <playMidi+0x178>
    24e1: 09 e0        	ora	#$e0
    24e3: 85 13        	sta	$13                     ; 0x2013 <playMidi+0x179>
    24e5: b2 12        	lda	($12)                   ; 0x2012 <playMidi+0x178>
    24e7: 86 0f        	stx	$f                      ; 0x200f <playMidi+0x175>
    24e9: 48           	pha
    24ea: a0 09        	ldy	#$9
    24ec: b1 10        	lda	($10),y                 ; 0x2010 <playMidi+0x176>
    24ee: 85 12        	sta	$12                     ; 0x2012 <playMidi+0x178>
    24f0: a0 07        	ldy	#$7
    24f2: b1 10        	lda	($10),y                 ; 0x2010 <playMidi+0x176>
    24f4: 85 13        	sta	$13                     ; 0x2013 <playMidi+0x179>
    24f6: 68           	pla
    24f7: 85 1a        	sta	$1a                     ; 0x201a <playMidi+0x180>
    24f9: 88           	dey
    24fa: b1 10        	lda	($10),y                 ; 0x2010 <playMidi+0x176>
    24fc: 58           	cli
    24fd: 48           	pha
    24fe: a0 08        	ldy	#$8
    2500: b1 10        	lda	($10),y                 ; 0x2010 <playMidi+0x176>
    2502: 85 14        	sta	$14                     ; 0x2014 <playMidi+0x17a>
    2504: 68           	pla
    2505: 4c 17 21     	jmp	$2117 <playMidi+0x27d>
    2508: aa           	tax
    2509: d0 0a        	bne	$2515 <playMidi+0x67b>
    250b: a6 7b        	ldx	$7b                     ; 0x207b <playMidi+0x1e1>
    250d: a4 7c        	ldy	$7c                     ; 0x207c <playMidi+0x1e2>
    250f: 86 24        	stx	$24                     ; 0x2024 <playMidi+0x18a>
    2511: 84 25        	sty	$25                     ; 0x2025 <playMidi+0x18b>
    2513: 80 30        	bra	$2545 <playMidi+0x6ab>
    2515: a6 7b        	ldx	$7b                     ; 0x207b <playMidi+0x1e1>
    2517: a4 7c        	ldy	$7c                     ; 0x207c <playMidi+0x1e2>
    2519: 86 24        	stx	$24                     ; 0x2024 <playMidi+0x18a>
    251b: 86 26        	stx	$26                     ; 0x2026 <playMidi+0x18c>
    251d: 84 25        	sty	$25                     ; 0x2025 <playMidi+0x18b>
    251f: 84 27        	sty	$27                     ; 0x2027 <playMidi+0x18d>
    2521: a0 16        	ldy	#$16
    2523: 64 13        	stz	$13                     ; 0x2013 <playMidi+0x179>
    2525: a2 00        	ldx	#$0
    2527: 84 12        	sty	$12                     ; 0x2012 <playMidi+0x178>
    2529: a5 2d        	lda	$2d                     ; 0x202d <playMidi+0x193>
    252b: 20 1c 4d     	jsr	$4d1c <__mulhi3>
    252e: 85 12        	sta	$12                     ; 0x2012 <playMidi+0x178>
    2530: 86 13        	stx	$13                     ; 0x2013 <playMidi+0x179>
    2532: 18           	clc
    2533: a5 26        	lda	$26                     ; 0x2026 <playMidi+0x18c>
    2535: 65 12        	adc	$12                     ; 0x2012 <playMidi+0x178>
    2537: 85 12        	sta	$12                     ; 0x2012 <playMidi+0x178>
    2539: a5 27        	lda	$27                     ; 0x2027 <playMidi+0x18d>
    253b: 65 13        	adc	$13                     ; 0x2013 <playMidi+0x179>
    253d: 85 13        	sta	$13                     ; 0x2013 <playMidi+0x179>
    253f: a0 15        	ldy	#$15
    2541: a9 01        	lda	#$1
    2543: 91 12        	sta	($12),y                 ; 0x2012 <playMidi+0x178>
    2545: a5 79        	lda	$79                     ; 0x2079 <playMidi+0x1df>
    2547: a6 7a        	ldx	$7a                     ; 0x207a <playMidi+0x1e0>
    2549: a0 16        	ldy	#$16
    254b: 64 13        	stz	$13                     ; 0x2013 <playMidi+0x179>
    254d: 84 12        	sty	$12                     ; 0x2012 <playMidi+0x178>
    254f: 85 26        	sta	$26                     ; 0x2026 <playMidi+0x18c>
    2551: 20 1c 4d     	jsr	$4d1c <__mulhi3>
    2554: 86 12        	stx	$12                     ; 0x2012 <playMidi+0x178>
    2556: 18           	clc
    2557: 65 24        	adc	$24                     ; 0x2024 <playMidi+0x18a>
    2559: aa           	tax
    255a: a5 25        	lda	$25                     ; 0x2025 <playMidi+0x18b>
    255c: 65 12        	adc	$12                     ; 0x2012 <playMidi+0x178>
    255e: 86 12        	stx	$12                     ; 0x2012 <playMidi+0x178>
    2560: 85 13        	sta	$13                     ; 0x2013 <playMidi+0x179>
    2562: 85 15        	sta	$15                     ; 0x2015 <playMidi+0x17b>
    2564: a0 0c        	ldy	#$c
    2566: 8a           	txa
    2567: 18           	clc
    2568: 69 0c        	adc	#$c
    256a: 85 14        	sta	$14                     ; 0x2014 <playMidi+0x17a>
    256c: a5 15        	lda	$15                     ; 0x2015 <playMidi+0x17b>
    256e: 69 00        	adc	#$0
    2570: 85 15        	sta	$15                     ; 0x2015 <playMidi+0x17b>
    2572: b1 12        	lda	($12),y                 ; 0x2012 <playMidi+0x178>
    2574: 85 12        	sta	$12                     ; 0x2012 <playMidi+0x178>
    2576: a0 01        	ldy	#$1
    2578: b1 14        	lda	($14),y                 ; 0x2014 <playMidi+0x17a>
    257a: 85 13        	sta	$13                     ; 0x2013 <playMidi+0x179>
    257c: c8           	iny
    257d: b1 14        	lda	($14),y                 ; 0x2014 <playMidi+0x17a>
    257f: 85 16        	sta	$16                     ; 0x2016 <playMidi+0x17c>
    2581: c8           	iny
    2582: b1 14        	lda	($14),y                 ; 0x2014 <playMidi+0x17a>
    2584: d0 11        	bne	$2597 <playMidi+0x6fd>
    2586: a5 16        	lda	$16                     ; 0x2016 <playMidi+0x17c>
    2588: d0 0d        	bne	$2597 <playMidi+0x6fd>
    258a: a5 13        	lda	$13                     ; 0x2013 <playMidi+0x179>
    258c: d0 09        	bne	$2597 <playMidi+0x6fd>
    258e: a5 12        	lda	$12                     ; 0x2012 <playMidi+0x178>
    2590: d0 05        	bne	$2597 <playMidi+0x6fd>
    2592: a5 26        	lda	$26                     ; 0x2026 <playMidi+0x18c>
    2594: 20 d7 25     	jsr	$25d7 <exhaustZeroes>
    2597: 64 74        	stz	$74                     ; 0x2074 <playMidi+0x1da>
    2599: a0 00        	ldy	#$0
    259b: b1 10        	lda	($10),y                 ; 0x2010 <playMidi+0x176>
    259d: 85 2d        	sta	$2d                     ; 0x202d <playMidi+0x193>
    259f: c8           	iny
    25a0: b1 10        	lda	($10),y                 ; 0x2010 <playMidi+0x176>
    25a2: 85 2c        	sta	$2c                     ; 0x202c <playMidi+0x192>
    25a4: c8           	iny
    25a5: b1 10        	lda	($10),y                 ; 0x2010 <playMidi+0x176>
    25a7: 85 2b        	sta	$2b                     ; 0x202b <playMidi+0x191>
    25a9: c8           	iny
    25aa: b1 10        	lda	($10),y                 ; 0x2010 <playMidi+0x176>
    25ac: 85 2a        	sta	$2a                     ; 0x202a <playMidi+0x190>
    25ae: c8           	iny
    25af: b1 10        	lda	($10),y                 ; 0x2010 <playMidi+0x176>
    25b1: 85 29        	sta	$29                     ; 0x2029 <playMidi+0x18f>
    25b3: c8           	iny
    25b4: b1 10        	lda	($10),y                 ; 0x2010 <playMidi+0x176>
    25b6: 85 28        	sta	$28                     ; 0x2028 <playMidi+0x18e>
    25b8: fa           	plx
    25b9: 86 27        	stx	$27                     ; 0x2027 <playMidi+0x18d>
    25bb: fa           	plx
    25bc: 86 26        	stx	$26                     ; 0x2026 <playMidi+0x18c>
    25be: fa           	plx
    25bf: 86 25        	stx	$25                     ; 0x2025 <playMidi+0x18b>
    25c1: fa           	plx
    25c2: 86 24        	stx	$24                     ; 0x2024 <playMidi+0x18a>
    25c4: 18           	clc
    25c5: a5 10        	lda	$10                     ; 0x2010 <playMidi+0x176>
    25c7: 69 0a        	adc	#$a
    25c9: 85 10        	sta	$10                     ; 0x2010 <playMidi+0x176>
    25cb: a5 11        	lda	$11                     ; 0x2011 <playMidi+0x177>
    25cd: 69 00        	adc	#$0
    25cf: 85 11        	sta	$11                     ; 0x2011 <playMidi+0x177>
    25d1: 60           	rts
    25d2: e6 1c        	inc	$1c                     ; 0x201c <playMidi+0x182>
    25d4: 4c 99 24     	jmp	$2499 <playMidi+0x5ff>

000025d7 <exhaustZeroes>:
    25d7: 48           	pha
    25d8: 18           	clc
    25d9: a5 10        	lda	$10                     ; 0x2010 <playMidi+0x176>
    25db: 69 f7        	adc	#$f7
    25dd: 85 10        	sta	$10                     ; 0x2010 <playMidi+0x176>
    25df: a5 11        	lda	$11                     ; 0x2011 <playMidi+0x177>
    25e1: 69 ff        	adc	#$ff
    25e3: 85 11        	sta	$11                     ; 0x2011 <playMidi+0x177>
    25e5: 68           	pla
    25e6: a6 24        	ldx	$24                     ; 0x2024 <playMidi+0x18a>
    25e8: da           	phx
    25e9: a6 25        	ldx	$25                     ; 0x2025 <playMidi+0x18b>
    25eb: da           	phx
    25ec: a6 26        	ldx	$26                     ; 0x2026 <playMidi+0x18c>
    25ee: da           	phx
    25ef: a6 27        	ldx	$27                     ; 0x2027 <playMidi+0x18d>
    25f1: da           	phx
    25f2: 48           	pha
    25f3: a5 28        	lda	$28                     ; 0x2028 <playMidi+0x18e>
    25f5: a0 07        	ldy	#$7
    25f7: 91 10        	sta	($10),y                 ; 0x2010 <playMidi+0x176>
    25f9: a5 29        	lda	$29                     ; 0x2029 <playMidi+0x18f>
    25fb: 88           	dey
    25fc: 91 10        	sta	($10),y                 ; 0x2010 <playMidi+0x176>
    25fe: a5 2a        	lda	$2a                     ; 0x202a <playMidi+0x190>
    2600: 88           	dey
    2601: 91 10        	sta	($10),y                 ; 0x2010 <playMidi+0x176>
    2603: a5 2b        	lda	$2b                     ; 0x202b <playMidi+0x191>
    2605: 88           	dey
    2606: 91 10        	sta	($10),y                 ; 0x2010 <playMidi+0x176>
    2608: a5 2c        	lda	$2c                     ; 0x202c <playMidi+0x192>
    260a: 88           	dey
    260b: 91 10        	sta	($10),y                 ; 0x2010 <playMidi+0x176>
    260d: a5 2d        	lda	$2d                     ; 0x202d <playMidi+0x193>
    260f: 88           	dey
    2610: 91 10        	sta	($10),y                 ; 0x2010 <playMidi+0x176>
    2612: a5 2e        	lda	$2e                     ; 0x202e <playMidi+0x194>
    2614: 88           	dey
    2615: 91 10        	sta	($10),y                 ; 0x2010 <playMidi+0x176>
    2617: a5 2f        	lda	$2f                     ; 0x202f <playMidi+0x195>
    2619: 88           	dey
    261a: 91 10        	sta	($10),y                 ; 0x2010 <playMidi+0x176>
    261c: 68           	pla
    261d: 85 24        	sta	$24                     ; 0x2024 <playMidi+0x18a>
    261f: 64 25        	stz	$25                     ; 0x2025 <playMidi+0x18b>
    2621: a6 7b        	ldx	$7b                     ; 0x207b <playMidi+0x1e1>
    2623: a4 7c        	ldy	$7c                     ; 0x207c <playMidi+0x1e2>
    2625: 86 26        	stx	$26                     ; 0x2026 <playMidi+0x18c>
    2627: 84 27        	sty	$27                     ; 0x2027 <playMidi+0x18d>
    2629: a2 16        	ldx	#$16
    262b: 86 12        	stx	$12                     ; 0x2012 <playMidi+0x178>
    262d: 64 13        	stz	$13                     ; 0x2013 <playMidi+0x179>
    262f: a2 00        	ldx	#$0
    2631: a5 24        	lda	$24                     ; 0x2024 <playMidi+0x18a>
    2633: 20 1c 4d     	jsr	$4d1c <__mulhi3>
    2636: 85 14        	sta	$14                     ; 0x2014 <playMidi+0x17a>
    2638: 18           	clc
    2639: 65 26        	adc	$26                     ; 0x2026 <playMidi+0x18c>
    263b: 85 12        	sta	$12                     ; 0x2012 <playMidi+0x178>
    263d: 8a           	txa
    263e: 65 27        	adc	$27                     ; 0x2027 <playMidi+0x18d>
    2640: 85 13        	sta	$13                     ; 0x2013 <playMidi+0x179>
    2642: a0 10        	ldy	#$10
    2644: b1 12        	lda	($12),y                 ; 0x2012 <playMidi+0x178>
    2646: 8d a1 dd     	sta	$dda1                   ; 0xdda1 <__heap_start+0x8cef>
    2649: a5 14        	lda	$14                     ; 0x2014 <playMidi+0x17a>
    264b: 18           	clc
    264c: 65 7b        	adc	$7b                     ; 0x207b <playMidi+0x1e1>
    264e: 85 12        	sta	$12                     ; 0x2012 <playMidi+0x178>
    2650: 8a           	txa
    2651: 65 7c        	adc	$7c                     ; 0x207c <playMidi+0x1e2>
    2653: 85 13        	sta	$13                     ; 0x2013 <playMidi+0x179>
    2655: c8           	iny
    2656: b1 12        	lda	($12),y                 ; 0x2012 <playMidi+0x178>
    2658: 8d a1 dd     	sta	$dda1                   ; 0xdda1 <__heap_start+0x8cef>
    265b: 18           	clc
    265c: a5 14        	lda	$14                     ; 0x2014 <playMidi+0x17a>
    265e: 65 7b        	adc	$7b                     ; 0x207b <playMidi+0x1e1>
    2660: 85 12        	sta	$12                     ; 0x2012 <playMidi+0x178>
    2662: 8a           	txa
    2663: 65 7c        	adc	$7c                     ; 0x207c <playMidi+0x1e2>
    2665: 85 13        	sta	$13                     ; 0x2013 <playMidi+0x179>
    2667: a0 14        	ldy	#$14
    2669: b1 12        	lda	($12),y                 ; 0x2012 <playMidi+0x178>
    266b: f0 03        	beq	$2670 <exhaustZeroes+0x99>
    266d: 4c 79 27     	jmp	$2779 <exhaustZeroes+0x1a2>
    2670: a0 12        	ldy	#$12
    2672: b1 12        	lda	($12),y                 ; 0x2012 <playMidi+0x178>
    2674: 8d a1 dd     	sta	$dda1                   ; 0xdda1 <__heap_start+0x8cef>
    2677: 4c 79 27     	jmp	$2779 <exhaustZeroes+0x1a2>
    267a: 85 1d        	sta	$1d                     ; 0x201d <playMidi+0x183>
    267c: a0 04        	ldy	#$4
    267e: a5 1a        	lda	$1a                     ; 0x201a <playMidi+0x180>
    2680: 91 12        	sta	($12),y                 ; 0x2012 <playMidi+0x178>
    2682: a0 01        	ldy	#$1
    2684: a5 1b        	lda	$1b                     ; 0x201b <playMidi+0x181>
    2686: 91 16        	sta	($16),y                 ; 0x2016 <playMidi+0x17c>
    2688: c8           	iny
    2689: a5 1c        	lda	$1c                     ; 0x201c <playMidi+0x182>
    268b: 91 16        	sta	($16),y                 ; 0x2016 <playMidi+0x17c>
    268d: c8           	iny
    268e: a5 1d        	lda	$1d                     ; 0x201d <playMidi+0x183>
    2690: 91 16        	sta	($16),y                 ; 0x2016 <playMidi+0x17c>
    2692: 18           	clc
    2693: a0 08        	ldy	#$8
    2695: a5 18        	lda	$18                     ; 0x2018 <playMidi+0x17e>
    2697: 71 12        	adc	($12),y                 ; 0x2012 <playMidi+0x178>
    2699: 85 16        	sta	$16                     ; 0x2016 <playMidi+0x17c>
    269b: a5 19        	lda	$19                     ; 0x2019 <playMidi+0x17f>
    269d: a0 01        	ldy	#$1
    269f: 71 14        	adc	($14),y                 ; 0x2014 <playMidi+0x17a>
    26a1: 85 12        	sta	$12                     ; 0x2012 <playMidi+0x178>
    26a3: 8a           	txa
    26a4: c8           	iny
    26a5: 71 14        	adc	($14),y                 ; 0x2014 <playMidi+0x17a>
    26a7: 85 13        	sta	$13                     ; 0x2013 <playMidi+0x179>
    26a9: a5 12        	lda	$12                     ; 0x2012 <playMidi+0x178>
    26ab: 06 12        	asl	$12                     ; 0x2012 <playMidi+0x178>
    26ad: 26 13        	rol	$13                     ; 0x2013 <playMidi+0x179>
    26af: 06 12        	asl	$12                     ; 0x2012 <playMidi+0x178>
    26b1: 26 13        	rol	$13                     ; 0x2013 <playMidi+0x179>
    26b3: 06 12        	asl	$12                     ; 0x2012 <playMidi+0x178>
    26b5: 26 13        	rol	$13                     ; 0x2013 <playMidi+0x179>
    26b7: a4 13        	ldy	$13                     ; 0x2013 <playMidi+0x179>
    26b9: a6 0f        	ldx	$f                      ; 0x200f <playMidi+0x175>
    26bb: 78           	sei
    26bc: 84 0f        	sty	$f                      ; 0x200f <playMidi+0x175>
    26be: a4 16        	ldy	$16                     ; 0x2016 <playMidi+0x17c>
    26c0: 84 12        	sty	$12                     ; 0x2012 <playMidi+0x178>
    26c2: 09 e0        	ora	#$e0
    26c4: 85 13        	sta	$13                     ; 0x2013 <playMidi+0x179>
    26c6: b2 12        	lda	($12)                   ; 0x2012 <playMidi+0x178>
    26c8: 86 0f        	stx	$f                      ; 0x200f <playMidi+0x175>
    26ca: 58           	cli
    26cb: aa           	tax
    26cc: 10 03        	bpl	$26d1 <exhaustZeroes+0xfa>
    26ce: 4c ed 27     	jmp	$27ed <exhaustZeroes+0x216>
    26d1: 85 29        	sta	$29                     ; 0x2029 <playMidi+0x18f>
    26d3: 64 2a        	stz	$2a                     ; 0x202a <playMidi+0x190>
    26d5: 64 17        	stz	$17                     ; 0x2017 <playMidi+0x17d>
    26d7: a9 00        	lda	#$0
    26d9: 64 2c        	stz	$2c                     ; 0x202c <playMidi+0x192>
    26db: 64 26        	stz	$26                     ; 0x2026 <playMidi+0x18c>
    26dd: 64 12        	stz	$12                     ; 0x2012 <playMidi+0x178>
    26df: 64 13        	stz	$13                     ; 0x2013 <playMidi+0x179>
    26e1: 64 14        	stz	$14                     ; 0x2014 <playMidi+0x17a>
    26e3: 64 28        	stz	$28                     ; 0x2028 <playMidi+0x18e>
    26e5: 85 16        	sta	$16                     ; 0x2016 <playMidi+0x17c>
    26e7: a5 29        	lda	$29                     ; 0x2029 <playMidi+0x18f>
    26e9: 05 16        	ora	$16                     ; 0x2016 <playMidi+0x17c>
    26eb: a8           	tay
    26ec: a5 28        	lda	$28                     ; 0x2028 <playMidi+0x18e>
    26ee: 05 2c        	ora	$2c                     ; 0x202c <playMidi+0x192>
    26f0: aa           	tax
    26f1: a5 2a        	lda	$2a                     ; 0x202a <playMidi+0x190>
    26f3: 05 26        	ora	$26                     ; 0x2026 <playMidi+0x18c>
    26f5: 85 16        	sta	$16                     ; 0x2016 <playMidi+0x17c>
    26f7: 98           	tya
    26f8: 05 12        	ora	$12                     ; 0x2012 <playMidi+0x178>
    26fa: a8           	tay
    26fb: 8a           	txa
    26fc: 05 13        	ora	$13                     ; 0x2013 <playMidi+0x179>
    26fe: 85 15        	sta	$15                     ; 0x2015 <playMidi+0x17b>
    2700: 98           	tya
    2701: 05 14        	ora	$14                     ; 0x2014 <playMidi+0x17a>
    2703: 85 14        	sta	$14                     ; 0x2014 <playMidi+0x17a>
    2705: a5 7d        	lda	$7d                     ; 0x207d <playMidi+0x1e3>
    2707: a6 7e        	ldx	$7e                     ; 0x207e <playMidi+0x1e4>
    2709: 86 18        	stx	$18                     ; 0x2018 <playMidi+0x17e>
    270b: a4 7f        	ldy	$7f                     ; 0x207f <playMidi+0x1e5>
    270d: a6 80        	ldx	$80                     ; 0x2080 <playMidi+0x1e6>
    270f: 84 12        	sty	$12                     ; 0x2012 <playMidi+0x178>
    2711: 86 13        	stx	$13                     ; 0x2013 <playMidi+0x179>
    2713: a6 18        	ldx	$18                     ; 0x2018 <playMidi+0x17e>
    2715: 20 4e 4d     	jsr	$4d4e <__mulsi3>
    2718: 85 26        	sta	$26                     ; 0x2026 <playMidi+0x18c>
    271a: 86 27        	stx	$27                     ; 0x2027 <playMidi+0x18d>
    271c: a6 12        	ldx	$12                     ; 0x2012 <playMidi+0x178>
    271e: 86 28        	stx	$28                     ; 0x2028 <playMidi+0x18e>
    2720: a6 13        	ldx	$13                     ; 0x2013 <playMidi+0x179>
    2722: 86 29        	stx	$29                     ; 0x2029 <playMidi+0x18f>
    2724: a6 7b        	ldx	$7b                     ; 0x207b <playMidi+0x1e1>
    2726: 86 2b        	stx	$2b                     ; 0x202b <playMidi+0x191>
    2728: a6 7c        	ldx	$7c                     ; 0x207c <playMidi+0x1e2>
    272a: 86 2a        	stx	$2a                     ; 0x202a <playMidi+0x190>
    272c: a2 16        	ldx	#$16
    272e: 86 12        	stx	$12                     ; 0x2012 <playMidi+0x178>
    2730: 64 13        	stz	$13                     ; 0x2013 <playMidi+0x179>
    2732: a2 00        	ldx	#$0
    2734: a5 24        	lda	$24                     ; 0x2024 <playMidi+0x18a>
    2736: 20 1c 4d     	jsr	$4d1c <__mulhi3>
    2739: 85 12        	sta	$12                     ; 0x2012 <playMidi+0x178>
    273b: 86 13        	stx	$13                     ; 0x2013 <playMidi+0x179>
    273d: 18           	clc
    273e: a5 2b        	lda	$2b                     ; 0x202b <playMidi+0x191>
    2740: 65 12        	adc	$12                     ; 0x2012 <playMidi+0x178>
    2742: a8           	tay
    2743: a5 2a        	lda	$2a                     ; 0x202a <playMidi+0x190>
    2745: 65 13        	adc	$13                     ; 0x2013 <playMidi+0x179>
    2747: aa           	tax
    2748: 98           	tya
    2749: 84 12        	sty	$12                     ; 0x2012 <playMidi+0x178>
    274b: 86 13        	stx	$13                     ; 0x2013 <playMidi+0x179>
    274d: 18           	clc
    274e: 69 0c        	adc	#$c
    2750: 85 14        	sta	$14                     ; 0x2014 <playMidi+0x17a>
    2752: 8a           	txa
    2753: 69 00        	adc	#$0
    2755: 85 15        	sta	$15                     ; 0x2015 <playMidi+0x17b>
    2757: a0 0c        	ldy	#$c
    2759: a5 26        	lda	$26                     ; 0x2026 <playMidi+0x18c>
    275b: 91 12        	sta	($12),y                 ; 0x2012 <playMidi+0x178>
    275d: a0 01        	ldy	#$1
    275f: a5 27        	lda	$27                     ; 0x2027 <playMidi+0x18d>
    2761: 91 14        	sta	($14),y                 ; 0x2014 <playMidi+0x17a>
    2763: c8           	iny
    2764: a5 28        	lda	$28                     ; 0x2028 <playMidi+0x18e>
    2766: 91 14        	sta	($14),y                 ; 0x2014 <playMidi+0x17a>
    2768: c8           	iny
    2769: a5 29        	lda	$29                     ; 0x2029 <playMidi+0x18f>
    276b: 91 14        	sta	($14),y                 ; 0x2014 <playMidi+0x17a>
    276d: a5 24        	lda	$24                     ; 0x2024 <playMidi+0x18a>
    276f: 20 a0 15     	jsr	$15a0 <readMIDICmd>
    2772: c9 01        	cmp	#$1
    2774: f0 03        	beq	$2779 <exhaustZeroes+0x1a2>
    2776: 4c b1 2a     	jmp	$2ab1 <exhaustZeroes+0x4da>
    2779: a6 7b        	ldx	$7b                     ; 0x207b <playMidi+0x1e1>
    277b: 86 27        	stx	$27                     ; 0x2027 <playMidi+0x18d>
    277d: a6 7c        	ldx	$7c                     ; 0x207c <playMidi+0x1e2>
    277f: 86 26        	stx	$26                     ; 0x2026 <playMidi+0x18c>
    2781: a2 16        	ldx	#$16
    2783: 86 12        	stx	$12                     ; 0x2012 <playMidi+0x178>
    2785: 64 13        	stz	$13                     ; 0x2013 <playMidi+0x179>
    2787: a2 00        	ldx	#$0
    2789: a5 24        	lda	$24                     ; 0x2024 <playMidi+0x18a>
    278b: 20 1c 4d     	jsr	$4d1c <__mulhi3>
    278e: 85 12        	sta	$12                     ; 0x2012 <playMidi+0x178>
    2790: 86 13        	stx	$13                     ; 0x2013 <playMidi+0x179>
    2792: 18           	clc
    2793: a5 27        	lda	$27                     ; 0x2027 <playMidi+0x18d>
    2795: 65 12        	adc	$12                     ; 0x2012 <playMidi+0x178>
    2797: a8           	tay
    2798: a5 26        	lda	$26                     ; 0x2026 <playMidi+0x18c>
    279a: 65 13        	adc	$13                     ; 0x2013 <playMidi+0x179>
    279c: aa           	tax
    279d: 84 12        	sty	$12                     ; 0x2012 <playMidi+0x178>
    279f: 85 13        	sta	$13                     ; 0x2013 <playMidi+0x179>
    27a1: 18           	clc
    27a2: 98           	tya
    27a3: 69 08        	adc	#$8
    27a5: 85 14        	sta	$14                     ; 0x2014 <playMidi+0x17a>
    27a7: 8a           	txa
    27a8: 69 00        	adc	#$0
    27aa: 85 15        	sta	$15                     ; 0x2015 <playMidi+0x17b>
    27ac: 18           	clc
    27ad: 98           	tya
    27ae: 69 04        	adc	#$4
    27b0: 85 16        	sta	$16                     ; 0x2016 <playMidi+0x17c>
    27b2: 8a           	txa
    27b3: 69 00        	adc	#$0
    27b5: 85 17        	sta	$17                     ; 0x2017 <playMidi+0x17d>
    27b7: a0 04        	ldy	#$4
    27b9: b1 12        	lda	($12),y                 ; 0x2012 <playMidi+0x178>
    27bb: 85 18        	sta	$18                     ; 0x2018 <playMidi+0x17e>
    27bd: a0 01        	ldy	#$1
    27bf: b1 16        	lda	($16),y                 ; 0x2016 <playMidi+0x17c>
    27c1: 85 19        	sta	$19                     ; 0x2019 <playMidi+0x17f>
    27c3: c8           	iny
    27c4: b1 16        	lda	($16),y                 ; 0x2016 <playMidi+0x17c>
    27c6: aa           	tax
    27c7: c8           	iny
    27c8: b1 16        	lda	($16),y                 ; 0x2016 <playMidi+0x17c>
    27ca: a4 18        	ldy	$18                     ; 0x2018 <playMidi+0x17e>
    27cc: 84 1a        	sty	$1a                     ; 0x201a <playMidi+0x180>
    27ce: a4 19        	ldy	$19                     ; 0x2019 <playMidi+0x17f>
    27d0: 84 1b        	sty	$1b                     ; 0x201b <playMidi+0x181>
    27d2: 86 1c        	stx	$1c                     ; 0x201c <playMidi+0x182>
    27d4: e6 1a        	inc	$1a                     ; 0x201a <playMidi+0x180>
    27d6: f0 03        	beq	$27db <exhaustZeroes+0x204>
    27d8: 4c 7a 26     	jmp	$267a <exhaustZeroes+0xa3>
    27db: e6 1b        	inc	$1b                     ; 0x201b <playMidi+0x181>
    27dd: f0 03        	beq	$27e2 <exhaustZeroes+0x20b>
    27df: 4c 7a 26     	jmp	$267a <exhaustZeroes+0xa3>
    27e2: e6 1c        	inc	$1c                     ; 0x201c <playMidi+0x182>
    27e4: f0 03        	beq	$27e9 <exhaustZeroes+0x212>
    27e6: 4c 7a 26     	jmp	$267a <exhaustZeroes+0xa3>
    27e9: 1a           	inc
    27ea: 4c 7a 26     	jmp	$267a <exhaustZeroes+0xa3>
    27ed: 4a           	lsr
    27ee: aa           	tax
    27ef: a9 00        	lda	#$0
    27f1: 6a           	ror
    27f2: 29 80        	and	#$80
    27f4: 85 29        	sta	$29                     ; 0x2029 <playMidi+0x18f>
    27f6: 8a           	txa
    27f7: 29 3f        	and	#$3f
    27f9: 85 28        	sta	$28                     ; 0x2028 <playMidi+0x18e>
    27fb: a6 7b        	ldx	$7b                     ; 0x207b <playMidi+0x1e1>
    27fd: 86 27        	stx	$27                     ; 0x2027 <playMidi+0x18d>
    27ff: a6 7c        	ldx	$7c                     ; 0x207c <playMidi+0x1e2>
    2801: 86 26        	stx	$26                     ; 0x2026 <playMidi+0x18c>
    2803: a2 16        	ldx	#$16
    2805: 86 12        	stx	$12                     ; 0x2012 <playMidi+0x178>
    2807: 64 13        	stz	$13                     ; 0x2013 <playMidi+0x179>
    2809: a2 00        	ldx	#$0
    280b: a5 24        	lda	$24                     ; 0x2024 <playMidi+0x18a>
    280d: 20 1c 4d     	jsr	$4d1c <__mulhi3>
    2810: 85 12        	sta	$12                     ; 0x2012 <playMidi+0x178>
    2812: 86 13        	stx	$13                     ; 0x2013 <playMidi+0x179>
    2814: 18           	clc
    2815: a5 27        	lda	$27                     ; 0x2027 <playMidi+0x18d>
    2817: 65 12        	adc	$12                     ; 0x2012 <playMidi+0x178>
    2819: a8           	tay
    281a: a5 26        	lda	$26                     ; 0x2026 <playMidi+0x18c>
    281c: 65 13        	adc	$13                     ; 0x2013 <playMidi+0x179>
    281e: aa           	tax
    281f: 84 12        	sty	$12                     ; 0x2012 <playMidi+0x178>
    2821: 85 13        	sta	$13                     ; 0x2013 <playMidi+0x179>
    2823: 98           	tya
    2824: 18           	clc
    2825: 69 08        	adc	#$8
    2827: 85 14        	sta	$14                     ; 0x2014 <playMidi+0x17a>
    2829: 8a           	txa
    282a: 69 00        	adc	#$0
    282c: 85 15        	sta	$15                     ; 0x2015 <playMidi+0x17b>
    282e: 18           	clc
    282f: 98           	tya
    2830: 69 04        	adc	#$4
    2832: 85 16        	sta	$16                     ; 0x2016 <playMidi+0x17c>
    2834: 8a           	txa
    2835: 69 00        	adc	#$0
    2837: 85 17        	sta	$17                     ; 0x2017 <playMidi+0x17d>
    2839: a0 04        	ldy	#$4
    283b: b1 12        	lda	($12),y                 ; 0x2012 <playMidi+0x178>
    283d: 85 18        	sta	$18                     ; 0x2018 <playMidi+0x17e>
    283f: a0 01        	ldy	#$1
    2841: b1 16        	lda	($16),y                 ; 0x2016 <playMidi+0x17c>
    2843: 85 19        	sta	$19                     ; 0x2019 <playMidi+0x17f>
    2845: c8           	iny
    2846: b1 16        	lda	($16),y                 ; 0x2016 <playMidi+0x17c>
    2848: aa           	tax
    2849: c8           	iny
    284a: b1 16        	lda	($16),y                 ; 0x2016 <playMidi+0x17c>
    284c: a4 18        	ldy	$18                     ; 0x2018 <playMidi+0x17e>
    284e: 84 1a        	sty	$1a                     ; 0x201a <playMidi+0x180>
    2850: a4 19        	ldy	$19                     ; 0x2019 <playMidi+0x17f>
    2852: 84 1b        	sty	$1b                     ; 0x201b <playMidi+0x181>
    2854: 86 1c        	stx	$1c                     ; 0x201c <playMidi+0x182>
    2856: e6 1a        	inc	$1a                     ; 0x201a <playMidi+0x180>
    2858: d0 09        	bne	$2863 <exhaustZeroes+0x28c>
    285a: e6 1b        	inc	$1b                     ; 0x201b <playMidi+0x181>
    285c: d0 05        	bne	$2863 <exhaustZeroes+0x28c>
    285e: e6 1c        	inc	$1c                     ; 0x201c <playMidi+0x182>
    2860: d0 01        	bne	$2863 <exhaustZeroes+0x28c>
    2862: 1a           	inc
    2863: 85 1d        	sta	$1d                     ; 0x201d <playMidi+0x183>
    2865: a0 04        	ldy	#$4
    2867: a5 1a        	lda	$1a                     ; 0x201a <playMidi+0x180>
    2869: 91 12        	sta	($12),y                 ; 0x2012 <playMidi+0x178>
    286b: a0 01        	ldy	#$1
    286d: a5 1b        	lda	$1b                     ; 0x201b <playMidi+0x181>
    286f: 91 16        	sta	($16),y                 ; 0x2016 <playMidi+0x17c>
    2871: c8           	iny
    2872: a5 1c        	lda	$1c                     ; 0x201c <playMidi+0x182>
    2874: 91 16        	sta	($16),y                 ; 0x2016 <playMidi+0x17c>
    2876: c8           	iny
    2877: a5 1d        	lda	$1d                     ; 0x201d <playMidi+0x183>
    2879: 91 16        	sta	($16),y                 ; 0x2016 <playMidi+0x17c>
    287b: 18           	clc
    287c: a5 18        	lda	$18                     ; 0x2018 <playMidi+0x17e>
    287e: a0 08        	ldy	#$8
    2880: 71 12        	adc	($12),y                 ; 0x2012 <playMidi+0x178>
    2882: 85 13        	sta	$13                     ; 0x2013 <playMidi+0x179>
    2884: a0 01        	ldy	#$1
    2886: a5 19        	lda	$19                     ; 0x2019 <playMidi+0x17f>
    2888: 71 14        	adc	($14),y                 ; 0x2014 <playMidi+0x17a>
    288a: 85 12        	sta	$12                     ; 0x2012 <playMidi+0x178>
    288c: c8           	iny
    288d: 8a           	txa
    288e: 71 14        	adc	($14),y                 ; 0x2014 <playMidi+0x17a>
    2890: 85 14        	sta	$14                     ; 0x2014 <playMidi+0x17a>
    2892: a5 12        	lda	$12                     ; 0x2012 <playMidi+0x178>
    2894: 06 12        	asl	$12                     ; 0x2012 <playMidi+0x178>
    2896: 26 14        	rol	$14                     ; 0x2014 <playMidi+0x17a>
    2898: 06 12        	asl	$12                     ; 0x2012 <playMidi+0x178>
    289a: 26 14        	rol	$14                     ; 0x2014 <playMidi+0x17a>
    289c: 06 12        	asl	$12                     ; 0x2012 <playMidi+0x178>
    289e: 26 14        	rol	$14                     ; 0x2014 <playMidi+0x17a>
    28a0: a4 14        	ldy	$14                     ; 0x2014 <playMidi+0x17a>
    28a2: a6 0f        	ldx	$f                      ; 0x200f <playMidi+0x175>
    28a4: 78           	sei
    28a5: 84 0f        	sty	$f                      ; 0x200f <playMidi+0x175>
    28a7: a4 13        	ldy	$13                     ; 0x2013 <playMidi+0x179>
    28a9: 84 12        	sty	$12                     ; 0x2012 <playMidi+0x178>
    28ab: 09 e0        	ora	#$e0
    28ad: 85 13        	sta	$13                     ; 0x2013 <playMidi+0x179>
    28af: b2 12        	lda	($12)                   ; 0x2012 <playMidi+0x178>
    28b1: 86 0f        	stx	$f                      ; 0x200f <playMidi+0x175>
    28b3: 58           	cli
    28b4: aa           	tax
    28b5: 30 11        	bmi	$28c8 <exhaustZeroes+0x2f1>
    28b7: 64 17        	stz	$17                     ; 0x2017 <playMidi+0x17d>
    28b9: 64 2c        	stz	$2c                     ; 0x202c <playMidi+0x192>
    28bb: 64 26        	stz	$26                     ; 0x2026 <playMidi+0x18c>
    28bd: 64 12        	stz	$12                     ; 0x2012 <playMidi+0x178>
    28bf: 64 2a        	stz	$2a                     ; 0x202a <playMidi+0x190>
    28c1: 64 13        	stz	$13                     ; 0x2013 <playMidi+0x179>
    28c3: 64 14        	stz	$14                     ; 0x2014 <playMidi+0x17a>
    28c5: 4c e5 26     	jmp	$26e5 <exhaustZeroes+0x10e>
    28c8: 64 13        	stz	$13                     ; 0x2013 <playMidi+0x179>
    28ca: 4a           	lsr
    28cb: aa           	tax
    28cc: a9 00        	lda	#$0
    28ce: 6a           	ror
    28cf: 29 80        	and	#$80
    28d1: 85 27        	sta	$27                     ; 0x2027 <playMidi+0x18d>
    28d3: 8a           	txa
    28d4: 29 3f        	and	#$3f
    28d6: 85 2c        	sta	$2c                     ; 0x202c <playMidi+0x192>
    28d8: a6 28        	ldx	$28                     ; 0x2028 <playMidi+0x18e>
    28da: 86 2a        	stx	$2a                     ; 0x202a <playMidi+0x190>
    28dc: 46 2a        	lsr	$2a                     ; 0x202a <playMidi+0x190>
    28de: a6 29        	ldx	$29                     ; 0x2029 <playMidi+0x18f>
    28e0: 86 28        	stx	$28                     ; 0x2028 <playMidi+0x18e>
    28e2: 66 28        	ror	$28                     ; 0x2028 <playMidi+0x18e>
    28e4: 64 29        	stz	$29                     ; 0x2029 <playMidi+0x18f>
    28e6: 66 29        	ror	$29                     ; 0x2029 <playMidi+0x18f>
    28e8: a6 7b        	ldx	$7b                     ; 0x207b <playMidi+0x1e1>
    28ea: 86 2b        	stx	$2b                     ; 0x202b <playMidi+0x191>
    28ec: a6 7c        	ldx	$7c                     ; 0x207c <playMidi+0x1e2>
    28ee: 86 26        	stx	$26                     ; 0x2026 <playMidi+0x18c>
    28f0: a2 16        	ldx	#$16
    28f2: 86 12        	stx	$12                     ; 0x2012 <playMidi+0x178>
    28f4: a2 00        	ldx	#$0
    28f6: a5 24        	lda	$24                     ; 0x2024 <playMidi+0x18a>
    28f8: 20 1c 4d     	jsr	$4d1c <__mulhi3>
    28fb: 85 12        	sta	$12                     ; 0x2012 <playMidi+0x178>
    28fd: 86 13        	stx	$13                     ; 0x2013 <playMidi+0x179>
    28ff: 18           	clc
    2900: a5 2b        	lda	$2b                     ; 0x202b <playMidi+0x191>
    2902: 65 12        	adc	$12                     ; 0x2012 <playMidi+0x178>
    2904: a8           	tay
    2905: a5 26        	lda	$26                     ; 0x2026 <playMidi+0x18c>
    2907: 65 13        	adc	$13                     ; 0x2013 <playMidi+0x179>
    2909: aa           	tax
    290a: 84 12        	sty	$12                     ; 0x2012 <playMidi+0x178>
    290c: 85 13        	sta	$13                     ; 0x2013 <playMidi+0x179>
    290e: 98           	tya
    290f: 18           	clc
    2910: 69 08        	adc	#$8
    2912: 85 14        	sta	$14                     ; 0x2014 <playMidi+0x17a>
    2914: 8a           	txa
    2915: 69 00        	adc	#$0
    2917: 85 15        	sta	$15                     ; 0x2015 <playMidi+0x17b>
    2919: 18           	clc
    291a: 98           	tya
    291b: 69 04        	adc	#$4
    291d: 85 16        	sta	$16                     ; 0x2016 <playMidi+0x17c>
    291f: 8a           	txa
    2920: 69 00        	adc	#$0
    2922: 85 17        	sta	$17                     ; 0x2017 <playMidi+0x17d>
    2924: a0 04        	ldy	#$4
    2926: b1 12        	lda	($12),y                 ; 0x2012 <playMidi+0x178>
    2928: 85 18        	sta	$18                     ; 0x2018 <playMidi+0x17e>
    292a: a0 01        	ldy	#$1
    292c: b1 16        	lda	($16),y                 ; 0x2016 <playMidi+0x17c>
    292e: 85 19        	sta	$19                     ; 0x2019 <playMidi+0x17f>
    2930: c8           	iny
    2931: b1 16        	lda	($16),y                 ; 0x2016 <playMidi+0x17c>
    2933: aa           	tax
    2934: c8           	iny
    2935: b1 16        	lda	($16),y                 ; 0x2016 <playMidi+0x17c>
    2937: 85 1b        	sta	$1b                     ; 0x201b <playMidi+0x181>
    2939: 86 1a        	stx	$1a                     ; 0x201a <playMidi+0x180>
    293b: a5 18        	lda	$18                     ; 0x2018 <playMidi+0x17e>
    293d: a4 19        	ldy	$19                     ; 0x2019 <playMidi+0x17f>
    293f: 84 1c        	sty	$1c                     ; 0x201c <playMidi+0x182>
    2941: 1a           	inc
    2942: d0 0a        	bne	$294e <exhaustZeroes+0x377>
    2944: e6 1c        	inc	$1c                     ; 0x201c <playMidi+0x182>
    2946: d0 06        	bne	$294e <exhaustZeroes+0x377>
    2948: e6 1a        	inc	$1a                     ; 0x201a <playMidi+0x180>
    294a: d0 02        	bne	$294e <exhaustZeroes+0x377>
    294c: e6 1b        	inc	$1b                     ; 0x201b <playMidi+0x181>
    294e: a0 04        	ldy	#$4
    2950: 91 12        	sta	($12),y                 ; 0x2012 <playMidi+0x178>
    2952: a0 01        	ldy	#$1
    2954: a5 1c        	lda	$1c                     ; 0x201c <playMidi+0x182>
    2956: 91 16        	sta	($16),y                 ; 0x2016 <playMidi+0x17c>
    2958: c8           	iny
    2959: a5 1a        	lda	$1a                     ; 0x201a <playMidi+0x180>
    295b: 91 16        	sta	($16),y                 ; 0x2016 <playMidi+0x17c>
    295d: c8           	iny
    295e: a5 1b        	lda	$1b                     ; 0x201b <playMidi+0x181>
    2960: 91 16        	sta	($16),y                 ; 0x2016 <playMidi+0x17c>
    2962: 18           	clc
    2963: a5 18        	lda	$18                     ; 0x2018 <playMidi+0x17e>
    2965: a0 08        	ldy	#$8
    2967: 71 12        	adc	($12),y                 ; 0x2012 <playMidi+0x178>
    2969: 85 13        	sta	$13                     ; 0x2013 <playMidi+0x179>
    296b: a0 01        	ldy	#$1
    296d: a5 19        	lda	$19                     ; 0x2019 <playMidi+0x17f>
    296f: 71 14        	adc	($14),y                 ; 0x2014 <playMidi+0x17a>
    2971: 85 12        	sta	$12                     ; 0x2012 <playMidi+0x178>
    2973: c8           	iny
    2974: 8a           	txa
    2975: 71 14        	adc	($14),y                 ; 0x2014 <playMidi+0x17a>
    2977: 85 14        	sta	$14                     ; 0x2014 <playMidi+0x17a>
    2979: a5 12        	lda	$12                     ; 0x2012 <playMidi+0x178>
    297b: 06 12        	asl	$12                     ; 0x2012 <playMidi+0x178>
    297d: 26 14        	rol	$14                     ; 0x2014 <playMidi+0x17a>
    297f: 06 12        	asl	$12                     ; 0x2012 <playMidi+0x178>
    2981: 26 14        	rol	$14                     ; 0x2014 <playMidi+0x17a>
    2983: 06 12        	asl	$12                     ; 0x2012 <playMidi+0x178>
    2985: 26 14        	rol	$14                     ; 0x2014 <playMidi+0x17a>
    2987: a4 14        	ldy	$14                     ; 0x2014 <playMidi+0x17a>
    2989: a6 0f        	ldx	$f                      ; 0x200f <playMidi+0x175>
    298b: 78           	sei
    298c: 84 0f        	sty	$f                      ; 0x200f <playMidi+0x175>
    298e: a4 13        	ldy	$13                     ; 0x2013 <playMidi+0x179>
    2990: 84 12        	sty	$12                     ; 0x2012 <playMidi+0x178>
    2992: 09 e0        	ora	#$e0
    2994: 85 13        	sta	$13                     ; 0x2013 <playMidi+0x179>
    2996: b2 12        	lda	($12)                   ; 0x2012 <playMidi+0x178>
    2998: 86 0f        	stx	$f                      ; 0x200f <playMidi+0x175>
    299a: 58           	cli
    299b: aa           	tax
    299c: 30 0f        	bmi	$29ad <exhaustZeroes+0x3d6>
    299e: 64 26        	stz	$26                     ; 0x2026 <playMidi+0x18c>
    29a0: 85 12        	sta	$12                     ; 0x2012 <playMidi+0x178>
    29a2: 64 13        	stz	$13                     ; 0x2013 <playMidi+0x179>
    29a4: 64 14        	stz	$14                     ; 0x2014 <playMidi+0x17a>
    29a6: 64 17        	stz	$17                     ; 0x2017 <playMidi+0x17d>
    29a8: a5 27        	lda	$27                     ; 0x2027 <playMidi+0x18d>
    29aa: 4c e5 26     	jmp	$26e5 <exhaustZeroes+0x10e>
    29ad: 4a           	lsr
    29ae: aa           	tax
    29af: a9 00        	lda	#$0
    29b1: 6a           	ror
    29b2: a4 2c        	ldy	$2c                     ; 0x202c <playMidi+0x192>
    29b4: 84 26        	sty	$26                     ; 0x2026 <playMidi+0x18c>
    29b6: 46 26        	lsr	$26                     ; 0x2026 <playMidi+0x18c>
    29b8: a4 27        	ldy	$27                     ; 0x2027 <playMidi+0x18d>
    29ba: 84 2c        	sty	$2c                     ; 0x202c <playMidi+0x192>
    29bc: 66 2c        	ror	$2c                     ; 0x202c <playMidi+0x192>
    29be: 64 2b        	stz	$2b                     ; 0x202b <playMidi+0x191>
    29c0: 66 2b        	ror	$2b                     ; 0x202b <playMidi+0x191>
    29c2: a4 2a        	ldy	$2a                     ; 0x202a <playMidi+0x190>
    29c4: 84 27        	sty	$27                     ; 0x2027 <playMidi+0x18d>
    29c6: 46 27        	lsr	$27                     ; 0x2027 <playMidi+0x18d>
    29c8: 66 28        	ror	$28                     ; 0x2028 <playMidi+0x18e>
    29ca: a4 28        	ldy	$28                     ; 0x2028 <playMidi+0x18e>
    29cc: 84 2a        	sty	$2a                     ; 0x202a <playMidi+0x190>
    29ce: a4 29        	ldy	$29                     ; 0x2029 <playMidi+0x18f>
    29d0: 84 28        	sty	$28                     ; 0x2028 <playMidi+0x18e>
    29d2: 66 28        	ror	$28                     ; 0x2028 <playMidi+0x18e>
    29d4: 64 29        	stz	$29                     ; 0x2029 <playMidi+0x18f>
    29d6: 66 29        	ror	$29                     ; 0x2029 <playMidi+0x18f>
    29d8: 29 80        	and	#$80
    29da: a0 08        	ldy	#$8
    29dc: 91 10        	sta	($10),y                 ; 0x2010 <playMidi+0x176>
    29de: 8a           	txa
    29df: 29 3f        	and	#$3f
    29e1: a6 7b        	ldx	$7b                     ; 0x207b <playMidi+0x1e1>
    29e3: 86 2e        	stx	$2e                     ; 0x202e <playMidi+0x194>
    29e5: a6 7c        	ldx	$7c                     ; 0x207c <playMidi+0x1e2>
    29e7: 86 2f        	stx	$2f                     ; 0x202f <playMidi+0x195>
    29e9: a2 16        	ldx	#$16
    29eb: 86 12        	stx	$12                     ; 0x2012 <playMidi+0x178>
    29ed: 64 13        	stz	$13                     ; 0x2013 <playMidi+0x179>
    29ef: a2 00        	ldx	#$0
    29f1: 85 2d        	sta	$2d                     ; 0x202d <playMidi+0x193>
    29f3: a5 24        	lda	$24                     ; 0x2024 <playMidi+0x18a>
    29f5: 20 1c 4d     	jsr	$4d1c <__mulhi3>
    29f8: a4 27        	ldy	$27                     ; 0x2027 <playMidi+0x18d>
    29fa: 84 17        	sty	$17                     ; 0x2017 <playMidi+0x17d>
    29fc: 85 12        	sta	$12                     ; 0x2012 <playMidi+0x178>
    29fe: 86 13        	stx	$13                     ; 0x2013 <playMidi+0x179>
    2a00: 18           	clc
    2a01: a5 2e        	lda	$2e                     ; 0x202e <playMidi+0x194>
    2a03: 65 12        	adc	$12                     ; 0x2012 <playMidi+0x178>
    2a05: a8           	tay
    2a06: a5 2f        	lda	$2f                     ; 0x202f <playMidi+0x195>
    2a08: 65 13        	adc	$13                     ; 0x2013 <playMidi+0x179>
    2a0a: aa           	tax
    2a0b: 18           	clc
    2a0c: 98           	tya
    2a0d: 69 08        	adc	#$8
    2a0f: 85 12        	sta	$12                     ; 0x2012 <playMidi+0x178>
    2a11: 8a           	txa
    2a12: 69 00        	adc	#$0
    2a14: 84 14        	sty	$14                     ; 0x2014 <playMidi+0x17a>
    2a16: 86 15        	stx	$15                     ; 0x2015 <playMidi+0x17b>
    2a18: 85 13        	sta	$13                     ; 0x2013 <playMidi+0x179>
    2a1a: 18           	clc
    2a1b: 98           	tya
    2a1c: 69 04        	adc	#$4
    2a1e: 85 18        	sta	$18                     ; 0x2018 <playMidi+0x17e>
    2a20: 8a           	txa
    2a21: 69 00        	adc	#$0
    2a23: 85 19        	sta	$19                     ; 0x2019 <playMidi+0x17f>
    2a25: a0 04        	ldy	#$4
    2a27: b1 14        	lda	($14),y                 ; 0x2014 <playMidi+0x17a>
    2a29: 85 16        	sta	$16                     ; 0x2016 <playMidi+0x17c>
    2a2b: a0 01        	ldy	#$1
    2a2d: b1 18        	lda	($18),y                 ; 0x2018 <playMidi+0x17e>
    2a2f: 85 1a        	sta	$1a                     ; 0x201a <playMidi+0x180>
    2a31: c8           	iny
    2a32: b1 18        	lda	($18),y                 ; 0x2018 <playMidi+0x17e>
    2a34: aa           	tax
    2a35: c8           	iny
    2a36: b1 18        	lda	($18),y                 ; 0x2018 <playMidi+0x17e>
    2a38: 85 1c        	sta	$1c                     ; 0x201c <playMidi+0x182>
    2a3a: a5 16        	lda	$16                     ; 0x2016 <playMidi+0x17c>
    2a3c: a4 1a        	ldy	$1a                     ; 0x201a <playMidi+0x180>
    2a3e: 86 1d        	stx	$1d                     ; 0x201d <playMidi+0x183>
    2a40: 1a           	inc
    2a41: d0 0a        	bne	$2a4d <exhaustZeroes+0x476>
    2a43: c8           	iny
    2a44: d0 07        	bne	$2a4d <exhaustZeroes+0x476>
    2a46: e6 1d        	inc	$1d                     ; 0x201d <playMidi+0x183>
    2a48: d0 03        	bne	$2a4d <exhaustZeroes+0x476>
    2a4a: 4c 47 2b     	jmp	$2b47 <exhaustZeroes+0x570>
    2a4d: 84 1e        	sty	$1e                     ; 0x201e <playMidi+0x184>
    2a4f: a0 04        	ldy	#$4
    2a51: 91 14        	sta	($14),y                 ; 0x2014 <playMidi+0x17a>
    2a53: a0 01        	ldy	#$1
    2a55: a5 1e        	lda	$1e                     ; 0x201e <playMidi+0x184>
    2a57: 91 18        	sta	($18),y                 ; 0x2018 <playMidi+0x17e>
    2a59: c8           	iny
    2a5a: a5 1d        	lda	$1d                     ; 0x201d <playMidi+0x183>
    2a5c: 91 18        	sta	($18),y                 ; 0x2018 <playMidi+0x17e>
    2a5e: c8           	iny
    2a5f: a5 1c        	lda	$1c                     ; 0x201c <playMidi+0x182>
    2a61: 91 18        	sta	($18),y                 ; 0x2018 <playMidi+0x17e>
    2a63: 18           	clc
    2a64: a5 16        	lda	$16                     ; 0x2016 <playMidi+0x17c>
    2a66: a0 08        	ldy	#$8
    2a68: 71 14        	adc	($14),y                 ; 0x2014 <playMidi+0x17a>
    2a6a: 85 14        	sta	$14                     ; 0x2014 <playMidi+0x17a>
    2a6c: a5 1a        	lda	$1a                     ; 0x201a <playMidi+0x180>
    2a6e: a0 01        	ldy	#$1
    2a70: 71 12        	adc	($12),y                 ; 0x2012 <playMidi+0x178>
    2a72: 85 15        	sta	$15                     ; 0x2015 <playMidi+0x17b>
    2a74: 8a           	txa
    2a75: c8           	iny
    2a76: 71 12        	adc	($12),y                 ; 0x2012 <playMidi+0x178>
    2a78: 85 13        	sta	$13                     ; 0x2013 <playMidi+0x179>
    2a7a: a5 15        	lda	$15                     ; 0x2015 <playMidi+0x17b>
    2a7c: 85 12        	sta	$12                     ; 0x2012 <playMidi+0x178>
    2a7e: 06 12        	asl	$12                     ; 0x2012 <playMidi+0x178>
    2a80: 26 13        	rol	$13                     ; 0x2013 <playMidi+0x179>
    2a82: 06 12        	asl	$12                     ; 0x2012 <playMidi+0x178>
    2a84: 26 13        	rol	$13                     ; 0x2013 <playMidi+0x179>
    2a86: 06 12        	asl	$12                     ; 0x2012 <playMidi+0x178>
    2a88: 26 13        	rol	$13                     ; 0x2013 <playMidi+0x179>
    2a8a: a4 13        	ldy	$13                     ; 0x2013 <playMidi+0x179>
    2a8c: a6 0f        	ldx	$f                      ; 0x200f <playMidi+0x175>
    2a8e: 78           	sei
    2a8f: 84 0f        	sty	$f                      ; 0x200f <playMidi+0x175>
    2a91: a4 14        	ldy	$14                     ; 0x2014 <playMidi+0x17a>
    2a93: 84 12        	sty	$12                     ; 0x2012 <playMidi+0x178>
    2a95: 09 e0        	ora	#$e0
    2a97: 85 13        	sta	$13                     ; 0x2013 <playMidi+0x179>
    2a99: b2 12        	lda	($12)                   ; 0x2012 <playMidi+0x178>
    2a9b: 86 0f        	stx	$f                      ; 0x200f <playMidi+0x175>
    2a9d: 48           	pha
    2a9e: a0 08        	ldy	#$8
    2aa0: b1 10        	lda	($10),y                 ; 0x2010 <playMidi+0x176>
    2aa2: 85 12        	sta	$12                     ; 0x2012 <playMidi+0x178>
    2aa4: 68           	pla
    2aa5: a6 2d        	ldx	$2d                     ; 0x202d <playMidi+0x193>
    2aa7: 86 13        	stx	$13                     ; 0x2013 <playMidi+0x179>
    2aa9: 85 14        	sta	$14                     ; 0x2014 <playMidi+0x17a>
    2aab: a5 2b        	lda	$2b                     ; 0x202b <playMidi+0x191>
    2aad: 58           	cli
    2aae: 4c e5 26     	jmp	$26e5 <exhaustZeroes+0x10e>
    2ab1: aa           	tax
    2ab2: d0 0c        	bne	$2ac0 <exhaustZeroes+0x4e9>
    2ab4: a6 7b        	ldx	$7b                     ; 0x207b <playMidi+0x1e1>
    2ab6: a4 7c        	ldy	$7c                     ; 0x207c <playMidi+0x1e2>
    2ab8: 86 26        	stx	$26                     ; 0x2026 <playMidi+0x18c>
    2aba: 84 27        	sty	$27                     ; 0x2027 <playMidi+0x18d>
    2abc: a2 16        	ldx	#$16
    2abe: 80 32        	bra	$2af2 <exhaustZeroes+0x51b>
    2ac0: a2 16        	ldx	#$16
    2ac2: a4 7b        	ldy	$7b                     ; 0x207b <playMidi+0x1e1>
    2ac4: a5 7c        	lda	$7c                     ; 0x207c <playMidi+0x1e2>
    2ac6: 84 26        	sty	$26                     ; 0x2026 <playMidi+0x18c>
    2ac8: 84 28        	sty	$28                     ; 0x2028 <playMidi+0x18e>
    2aca: 85 27        	sta	$27                     ; 0x2027 <playMidi+0x18d>
    2acc: 85 29        	sta	$29                     ; 0x2029 <playMidi+0x18f>
    2ace: 86 12        	stx	$12                     ; 0x2012 <playMidi+0x178>
    2ad0: 64 13        	stz	$13                     ; 0x2013 <playMidi+0x179>
    2ad2: a2 00        	ldx	#$0
    2ad4: a5 24        	lda	$24                     ; 0x2024 <playMidi+0x18a>
    2ad6: 20 1c 4d     	jsr	$4d1c <__mulhi3>
    2ad9: 85 12        	sta	$12                     ; 0x2012 <playMidi+0x178>
    2adb: 86 13        	stx	$13                     ; 0x2013 <playMidi+0x179>
    2add: a2 16        	ldx	#$16
    2adf: 18           	clc
    2ae0: a5 28        	lda	$28                     ; 0x2028 <playMidi+0x18e>
    2ae2: 65 12        	adc	$12                     ; 0x2012 <playMidi+0x178>
    2ae4: 85 12        	sta	$12                     ; 0x2012 <playMidi+0x178>
    2ae6: a5 29        	lda	$29                     ; 0x2029 <playMidi+0x18f>
    2ae8: 65 13        	adc	$13                     ; 0x2013 <playMidi+0x179>
    2aea: 85 13        	sta	$13                     ; 0x2013 <playMidi+0x179>
    2aec: a9 01        	lda	#$1
    2aee: a0 15        	ldy	#$15
    2af0: 91 12        	sta	($12),y                 ; 0x2012 <playMidi+0x178>
    2af2: 86 12        	stx	$12                     ; 0x2012 <playMidi+0x178>
    2af4: 64 13        	stz	$13                     ; 0x2013 <playMidi+0x179>
    2af6: a2 00        	ldx	#$0
    2af8: a5 24        	lda	$24                     ; 0x2024 <playMidi+0x18a>
    2afa: 20 1c 4d     	jsr	$4d1c <__mulhi3>
    2afd: 18           	clc
    2afe: 65 26        	adc	$26                     ; 0x2026 <playMidi+0x18c>
    2b00: a8           	tay
    2b01: 8a           	txa
    2b02: 65 27        	adc	$27                     ; 0x2027 <playMidi+0x18d>
    2b04: 84 14        	sty	$14                     ; 0x2014 <playMidi+0x17a>
    2b06: 84 12        	sty	$12                     ; 0x2012 <playMidi+0x178>
    2b08: 85 15        	sta	$15                     ; 0x2015 <playMidi+0x17b>
    2b0a: 85 13        	sta	$13                     ; 0x2013 <playMidi+0x179>
    2b0c: a0 15        	ldy	#$15
    2b0e: b1 12        	lda	($12),y                 ; 0x2012 <playMidi+0x178>
    2b10: a2 16        	ldx	#$16
    2b12: a8           	tay
    2b13: d0 37        	bne	$2b4c <exhaustZeroes+0x575>
    2b15: 18           	clc
    2b16: a5 14        	lda	$14                     ; 0x2014 <playMidi+0x17a>
    2b18: 69 0c        	adc	#$c
    2b1a: 85 14        	sta	$14                     ; 0x2014 <playMidi+0x17a>
    2b1c: a5 15        	lda	$15                     ; 0x2015 <playMidi+0x17b>
    2b1e: 69 00        	adc	#$0
    2b20: 85 15        	sta	$15                     ; 0x2015 <playMidi+0x17b>
    2b22: a0 0c        	ldy	#$c
    2b24: b1 12        	lda	($12),y                 ; 0x2012 <playMidi+0x178>
    2b26: 85 12        	sta	$12                     ; 0x2012 <playMidi+0x178>
    2b28: a0 01        	ldy	#$1
    2b2a: b1 14        	lda	($14),y                 ; 0x2014 <playMidi+0x17a>
    2b2c: 85 13        	sta	$13                     ; 0x2013 <playMidi+0x179>
    2b2e: c8           	iny
    2b2f: b1 14        	lda	($14),y                 ; 0x2014 <playMidi+0x17a>
    2b31: 85 16        	sta	$16                     ; 0x2016 <playMidi+0x17c>
    2b33: c8           	iny
    2b34: b1 14        	lda	($14),y                 ; 0x2014 <playMidi+0x17a>
    2b36: d0 14        	bne	$2b4c <exhaustZeroes+0x575>
    2b38: a5 16        	lda	$16                     ; 0x2016 <playMidi+0x17c>
    2b3a: d0 10        	bne	$2b4c <exhaustZeroes+0x575>
    2b3c: a5 13        	lda	$13                     ; 0x2013 <playMidi+0x179>
    2b3e: d0 0c        	bne	$2b4c <exhaustZeroes+0x575>
    2b40: a5 12        	lda	$12                     ; 0x2012 <playMidi+0x178>
    2b42: d0 08        	bne	$2b4c <exhaustZeroes+0x575>
    2b44: 4c 2b 26     	jmp	$262b <exhaustZeroes+0x54>
    2b47: e6 1c        	inc	$1c                     ; 0x201c <playMidi+0x182>
    2b49: 4c 4d 2a     	jmp	$2a4d <exhaustZeroes+0x476>
    2b4c: a0 00        	ldy	#$0
    2b4e: b1 10        	lda	($10),y                 ; 0x2010 <playMidi+0x176>
    2b50: 85 2f        	sta	$2f                     ; 0x202f <playMidi+0x195>
    2b52: c8           	iny
    2b53: b1 10        	lda	($10),y                 ; 0x2010 <playMidi+0x176>
    2b55: 85 2e        	sta	$2e                     ; 0x202e <playMidi+0x194>
    2b57: c8           	iny
    2b58: b1 10        	lda	($10),y                 ; 0x2010 <playMidi+0x176>
    2b5a: 85 2d        	sta	$2d                     ; 0x202d <playMidi+0x193>
    2b5c: c8           	iny
    2b5d: b1 10        	lda	($10),y                 ; 0x2010 <playMidi+0x176>
    2b5f: 85 2c        	sta	$2c                     ; 0x202c <playMidi+0x192>
    2b61: c8           	iny
    2b62: b1 10        	lda	($10),y                 ; 0x2010 <playMidi+0x176>
    2b64: 85 2b        	sta	$2b                     ; 0x202b <playMidi+0x191>
    2b66: c8           	iny
    2b67: b1 10        	lda	($10),y                 ; 0x2010 <playMidi+0x176>
    2b69: 85 2a        	sta	$2a                     ; 0x202a <playMidi+0x190>
    2b6b: c8           	iny
    2b6c: b1 10        	lda	($10),y                 ; 0x2010 <playMidi+0x176>
    2b6e: 85 29        	sta	$29                     ; 0x2029 <playMidi+0x18f>
    2b70: c8           	iny
    2b71: b1 10        	lda	($10),y                 ; 0x2010 <playMidi+0x176>
    2b73: 85 28        	sta	$28                     ; 0x2028 <playMidi+0x18e>
    2b75: fa           	plx
    2b76: 86 27        	stx	$27                     ; 0x2027 <playMidi+0x18d>
    2b78: fa           	plx
    2b79: 86 26        	stx	$26                     ; 0x2026 <playMidi+0x18c>
    2b7b: fa           	plx
    2b7c: 86 25        	stx	$25                     ; 0x2025 <playMidi+0x18b>
    2b7e: fa           	plx
    2b7f: 86 24        	stx	$24                     ; 0x2024 <playMidi+0x18a>
    2b81: 18           	clc
    2b82: a5 10        	lda	$10                     ; 0x2010 <playMidi+0x176>
    2b84: 69 09        	adc	#$9
    2b86: 85 10        	sta	$10                     ; 0x2010 <playMidi+0x176>
    2b88: a5 11        	lda	$11                     ; 0x2011 <playMidi+0x177>
    2b8a: 69 00        	adc	#$0
    2b8c: 85 11        	sta	$11                     ; 0x2011 <playMidi+0x177>
    2b8e: 60           	rts

00002b8f <exit>:
    2b8f: 20 47 03     	jsr	$347 <_fini>
    2b92: 80 fe        	bra	$2b92 <exit+0x3>

00002b94 <_ZN12_GLOBAL__N_13putEcP6Status>:
    2b94: a6 24        	ldx	$24                     ; 0x2024 <playMidi+0x18a>
    2b96: da           	phx
    2b97: a6 25        	ldx	$25                     ; 0x2025 <playMidi+0x18b>
    2b99: da           	phx
    2b9a: 85 16        	sta	$16                     ; 0x2016 <playMidi+0x17c>
    2b9c: a6 12        	ldx	$12                     ; 0x2012 <playMidi+0x178>
    2b9e: 86 24        	stx	$24                     ; 0x2024 <playMidi+0x18a>
    2ba0: a6 13        	ldx	$13                     ; 0x2013 <playMidi+0x179>
    2ba2: 86 25        	stx	$25                     ; 0x2025 <playMidi+0x18b>
    2ba4: a6 25        	ldx	$25                     ; 0x2025 <playMidi+0x18b>
    2ba6: 18           	clc
    2ba7: a5 12        	lda	$12                     ; 0x2012 <playMidi+0x178>
    2ba9: 69 05        	adc	#$5
    2bab: a8           	tay
    2bac: a5 25        	lda	$25                     ; 0x2025 <playMidi+0x18b>
    2bae: 86 13        	stx	$13                     ; 0x2013 <playMidi+0x179>
    2bb0: 69 00        	adc	#$0
    2bb2: 18           	clc
    2bb3: 84 14        	sty	$14                     ; 0x2014 <playMidi+0x17a>
    2bb5: a0 05        	ldy	#$5
    2bb7: 85 15        	sta	$15                     ; 0x2015 <playMidi+0x17b>
    2bb9: b1 24        	lda	($24),y                 ; 0x2024 <playMidi+0x18a>
    2bbb: aa           	tax
    2bbc: a5 12        	lda	$12                     ; 0x2012 <playMidi+0x178>
    2bbe: 69 03        	adc	#$3
    2bc0: 85 12        	sta	$12                     ; 0x2012 <playMidi+0x178>
    2bc2: a5 13        	lda	$13                     ; 0x2013 <playMidi+0x179>
    2bc4: 69 00        	adc	#$0
    2bc6: 85 13        	sta	$13                     ; 0x2013 <playMidi+0x179>
    2bc8: a0 01        	ldy	#$1
    2bca: b1 14        	lda	($14),y                 ; 0x2014 <playMidi+0x17a>
    2bcc: d1 12        	cmp	($12),y                 ; 0x2012 <playMidi+0x178>
    2bce: d0 11        	bne	$2be1 <_ZN12_GLOBAL__N_13putEcP6Status+0x4d>
    2bd0: a0 03        	ldy	#$3
    2bd2: 85 15        	sta	$15                     ; 0x2015 <playMidi+0x17b>
    2bd4: b1 24        	lda	($24),y                 ; 0x2024 <playMidi+0x18a>
    2bd6: 85 12        	sta	$12                     ; 0x2012 <playMidi+0x178>
    2bd8: 86 14        	stx	$14                     ; 0x2014 <playMidi+0x17a>
    2bda: e4 12        	cpx	$12                     ; 0x2012 <playMidi+0x178>
    2bdc: 90 0b        	bcc	$2be9 <_ZN12_GLOBAL__N_13putEcP6Status+0x55>
    2bde: 4c 3a 2c     	jmp	$2c3a <_ZN12_GLOBAL__N_13putEcP6Status+0xa6>
    2be1: 86 14        	stx	$14                     ; 0x2014 <playMidi+0x17a>
    2be3: d1 12        	cmp	($12),y                 ; 0x2012 <playMidi+0x178>
    2be5: 85 15        	sta	$15                     ; 0x2015 <playMidi+0x17b>
    2be7: b0 51        	bcs	$2c3a <_ZN12_GLOBAL__N_13putEcP6Status+0xa6>
    2be9: a5 24        	lda	$24                     ; 0x2024 <playMidi+0x18a>
    2beb: 18           	clc
    2bec: 69 0f        	adc	#$f
    2bee: 85 12        	sta	$12                     ; 0x2012 <playMidi+0x178>
    2bf0: a5 25        	lda	$25                     ; 0x2025 <playMidi+0x18b>
    2bf2: 69 00        	adc	#$0
    2bf4: 85 13        	sta	$13                     ; 0x2013 <playMidi+0x179>
    2bf6: a0 01        	ldy	#$1
    2bf8: b1 12        	lda	($12),y                 ; 0x2012 <playMidi+0x178>
    2bfa: a2 00        	ldx	#$0
    2bfc: 86 12        	stx	$12                     ; 0x2012 <playMidi+0x178>
    2bfe: a2 00        	ldx	#$0
    2c00: 86 13        	stx	$13                     ; 0x2013 <playMidi+0x179>
    2c02: c5 13        	cmp	$13                     ; 0x2013 <playMidi+0x179>
    2c04: d0 2d        	bne	$2c33 <_ZN12_GLOBAL__N_13putEcP6Status+0x9f>
    2c06: a0 0f        	ldy	#$f
    2c08: b1 24        	lda	($24),y                 ; 0x2024 <playMidi+0x18a>
    2c0a: c5 12        	cmp	$12                     ; 0x2012 <playMidi+0x178>
    2c0c: d0 25        	bne	$2c33 <_ZN12_GLOBAL__N_13putEcP6Status+0x9f>
    2c0e: a5 24        	lda	$24                     ; 0x2024 <playMidi+0x18a>
    2c10: 18           	clc
    2c11: 69 09        	adc	#$9
    2c13: 85 12        	sta	$12                     ; 0x2012 <playMidi+0x178>
    2c15: a5 25        	lda	$25                     ; 0x2025 <playMidi+0x18b>
    2c17: 69 00        	adc	#$0
    2c19: a0 09        	ldy	#$9
    2c1b: 85 13        	sta	$13                     ; 0x2013 <playMidi+0x179>
    2c1d: 18           	clc
    2c1e: a5 14        	lda	$14                     ; 0x2014 <playMidi+0x17a>
    2c20: 71 24        	adc	($24),y                 ; 0x2024 <playMidi+0x18a>
    2c22: aa           	tax
    2c23: a0 01        	ldy	#$1
    2c25: a5 15        	lda	$15                     ; 0x2015 <playMidi+0x17b>
    2c27: 71 12        	adc	($12),y                 ; 0x2012 <playMidi+0x178>
    2c29: 86 12        	stx	$12                     ; 0x2012 <playMidi+0x178>
    2c2b: 85 13        	sta	$13                     ; 0x2013 <playMidi+0x179>
    2c2d: a5 16        	lda	$16                     ; 0x2016 <playMidi+0x17c>
    2c2f: 92 12        	sta	($12)                   ; 0x2012 <playMidi+0x178>
    2c31: 80 07        	bra	$2c3a <_ZN12_GLOBAL__N_13putEcP6Status+0xa6>
    2c33: a2 00        	ldx	#$0
    2c35: a5 16        	lda	$16                     ; 0x2016 <playMidi+0x17c>
    2c37: 20 ed 47     	jsr	$47ed <putchar>
    2c3a: a0 05        	ldy	#$5
    2c3c: a5 24        	lda	$24                     ; 0x2024 <playMidi+0x18a>
    2c3e: 18           	clc
    2c3f: 69 05        	adc	#$5
    2c41: 85 12        	sta	$12                     ; 0x2012 <playMidi+0x178>
    2c43: a5 25        	lda	$25                     ; 0x2025 <playMidi+0x18b>
    2c45: 69 00        	adc	#$0
    2c47: 85 13        	sta	$13                     ; 0x2013 <playMidi+0x179>
    2c49: b1 24        	lda	($24),y                 ; 0x2024 <playMidi+0x18a>
    2c4b: aa           	tax
    2c4c: a0 01        	ldy	#$1
    2c4e: b1 12        	lda	($12),y                 ; 0x2012 <playMidi+0x178>
    2c50: e8           	inx
    2c51: d0 01        	bne	$2c54 <_ZN12_GLOBAL__N_13putEcP6Status+0xc0>
    2c53: 1a           	inc
    2c54: 85 14        	sta	$14                     ; 0x2014 <playMidi+0x17a>
    2c56: 8a           	txa
    2c57: a0 05        	ldy	#$5
    2c59: 91 24        	sta	($24),y                 ; 0x2024 <playMidi+0x18a>
    2c5b: a0 01        	ldy	#$1
    2c5d: a5 14        	lda	$14                     ; 0x2014 <playMidi+0x17a>
    2c5f: 91 12        	sta	($12),y                 ; 0x2012 <playMidi+0x178>
    2c61: fa           	plx
    2c62: 86 25        	stx	$25                     ; 0x2025 <playMidi+0x18b>
    2c64: fa           	plx
    2c65: 86 24        	stx	$24                     ; 0x2024 <playMidi+0x18a>
    2c67: 60           	rts

00002c68 <_ZN12_GLOBAL__N_112print_stringEPKcP6Status>:
    2c68: 18           	clc
    2c69: a5 10        	lda	$10                     ; 0x2010 <playMidi+0x176>
    2c6b: 69 fc        	adc	#$fc
    2c6d: 85 10        	sta	$10                     ; 0x2010 <playMidi+0x176>
    2c6f: a5 11        	lda	$11                     ; 0x2011 <playMidi+0x177>
    2c71: 69 ff        	adc	#$ff
    2c73: 85 11        	sta	$11                     ; 0x2011 <playMidi+0x177>
    2c75: a6 24        	ldx	$24                     ; 0x2024 <playMidi+0x18a>
    2c77: da           	phx
    2c78: a6 25        	ldx	$25                     ; 0x2025 <playMidi+0x18b>
    2c7a: da           	phx
    2c7b: a6 26        	ldx	$26                     ; 0x2026 <playMidi+0x18c>
    2c7d: da           	phx
    2c7e: a6 27        	ldx	$27                     ; 0x2027 <playMidi+0x18d>
    2c80: da           	phx
    2c81: a5 28        	lda	$28                     ; 0x2028 <playMidi+0x18e>
    2c83: a0 02        	ldy	#$2
    2c85: 91 10        	sta	($10),y                 ; 0x2010 <playMidi+0x176>
    2c87: a5 29        	lda	$29                     ; 0x2029 <playMidi+0x18f>
    2c89: 88           	dey
    2c8a: 91 10        	sta	($10),y                 ; 0x2010 <playMidi+0x176>
    2c8c: a5 2a        	lda	$2a                     ; 0x202a <playMidi+0x190>
    2c8e: 88           	dey
    2c8f: 91 10        	sta	($10),y                 ; 0x2010 <playMidi+0x176>
    2c91: a6 12        	ldx	$12                     ; 0x2012 <playMidi+0x178>
    2c93: 86 24        	stx	$24                     ; 0x2024 <playMidi+0x18a>
    2c95: a6 13        	ldx	$13                     ; 0x2013 <playMidi+0x179>
    2c97: 86 25        	stx	$25                     ; 0x2025 <playMidi+0x18b>
    2c99: a6 14        	ldx	$14                     ; 0x2014 <playMidi+0x17a>
    2c9b: 86 26        	stx	$26                     ; 0x2026 <playMidi+0x18c>
    2c9d: a6 15        	ldx	$15                     ; 0x2015 <playMidi+0x17b>
    2c9f: 86 27        	stx	$27                     ; 0x2027 <playMidi+0x18d>
    2ca1: a5 26        	lda	$26                     ; 0x2026 <playMidi+0x18c>
    2ca3: 18           	clc
    2ca4: 69 0d        	adc	#$d
    2ca6: 85 12        	sta	$12                     ; 0x2012 <playMidi+0x178>
    2ca8: a5 27        	lda	$27                     ; 0x2027 <playMidi+0x18d>
    2caa: 69 00        	adc	#$0
    2cac: 85 13        	sta	$13                     ; 0x2013 <playMidi+0x179>
    2cae: c8           	iny
    2caf: b1 12        	lda	($12),y                 ; 0x2012 <playMidi+0x178>
    2cb1: 30 1c        	bmi	$2ccf <_ZN12_GLOBAL__N_112print_stringEPKcP6Status+0x67>
    2cb3: a0 0d        	ldy	#$d
    2cb5: aa           	tax
    2cb6: b1 26        	lda	($26),y                 ; 0x2026 <playMidi+0x18c>
    2cb8: 48           	pha
    2cb9: 8a           	txa
    2cba: a0 03        	ldy	#$3
    2cbc: 91 10        	sta	($10),y                 ; 0x2010 <playMidi+0x176>
    2cbe: 68           	pla
    2cbf: e0 00        	cpx	#$0
    2cc1: d0 16        	bne	$2cd9 <_ZN12_GLOBAL__N_112print_stringEPKcP6Status+0x71>
    2cc3: aa           	tax
    2cc4: d0 13        	bne	$2cd9 <_ZN12_GLOBAL__N_112print_stringEPKcP6Status+0x71>
    2cc6: 64 28        	stz	$28                     ; 0x2028 <playMidi+0x18e>
    2cc8: 64 12        	stz	$12                     ; 0x2012 <playMidi+0x178>
    2cca: a9 00        	lda	#$0
    2ccc: 4c d7 2d     	jmp	$2dd7 <_ZN12_GLOBAL__N_112print_stringEPKcP6Status+0x16f>
    2ccf: a9 ff        	lda	#$ff
    2cd1: aa           	tax
    2cd2: 48           	pha
    2cd3: 8a           	txa
    2cd4: a0 03        	ldy	#$3
    2cd6: 91 10        	sta	($10),y                 ; 0x2010 <playMidi+0x176>
    2cd8: 68           	pla
    2cd9: 85 28        	sta	$28                     ; 0x2028 <playMidi+0x18e>
    2cdb: 64 12        	stz	$12                     ; 0x2012 <playMidi+0x178>
    2cdd: a4 24        	ldy	$24                     ; 0x2024 <playMidi+0x18a>
    2cdf: a6 25        	ldx	$25                     ; 0x2025 <playMidi+0x18b>
    2ce1: 86 16        	stx	$16                     ; 0x2016 <playMidi+0x17c>
    2ce3: 64 13        	stz	$13                     ; 0x2013 <playMidi+0x179>
    2ce5: 98           	tya
    2ce6: 18           	clc
    2ce7: 65 12        	adc	$12                     ; 0x2012 <playMidi+0x178>
    2ce9: 85 14        	sta	$14                     ; 0x2014 <playMidi+0x17a>
    2ceb: a5 25        	lda	$25                     ; 0x2025 <playMidi+0x18b>
    2ced: 65 13        	adc	$13                     ; 0x2013 <playMidi+0x179>
    2cef: 85 15        	sta	$15                     ; 0x2015 <playMidi+0x17b>
    2cf1: b2 14        	lda	($14)                   ; 0x2014 <playMidi+0x17a>
    2cf3: d0 03        	bne	$2cf8 <_ZN12_GLOBAL__N_112print_stringEPKcP6Status+0x90>
    2cf5: 4c cf 2d     	jmp	$2dcf <_ZN12_GLOBAL__N_112print_stringEPKcP6Status+0x167>
    2cf8: e6 12        	inc	$12                     ; 0x2012 <playMidi+0x178>
    2cfa: d0 02        	bne	$2cfe <_ZN12_GLOBAL__N_112print_stringEPKcP6Status+0x96>
    2cfc: e6 13        	inc	$13                     ; 0x2013 <playMidi+0x179>
    2cfe: 5a           	phy
    2cff: a0 03        	ldy	#$3
    2d01: b1 10        	lda	($10),y                 ; 0x2010 <playMidi+0x176>
    2d03: 7a           	ply
    2d04: c5 13        	cmp	$13                     ; 0x2013 <playMidi+0x179>
    2d06: d0 dd        	bne	$2ce5 <_ZN12_GLOBAL__N_112print_stringEPKcP6Status+0x7d>
    2d08: a6 28        	ldx	$28                     ; 0x2028 <playMidi+0x18e>
    2d0a: e4 12        	cpx	$12                     ; 0x2012 <playMidi+0x178>
    2d0c: d0 d7        	bne	$2ce5 <_ZN12_GLOBAL__N_112print_stringEPKcP6Status+0x7d>
    2d0e: a0 01        	ldy	#$1
    2d10: b1 26        	lda	($26),y                 ; 0x2026 <playMidi+0x18c>
    2d12: 29 01        	and	#$1
    2d14: f0 03        	beq	$2d19 <_ZN12_GLOBAL__N_112print_stringEPKcP6Status+0xb1>
    2d16: 4c 74 2d     	jmp	$2d74 <_ZN12_GLOBAL__N_112print_stringEPKcP6Status+0x10c>
    2d19: a5 26        	lda	$26                     ; 0x2026 <playMidi+0x18c>
    2d1b: 18           	clc
    2d1c: 69 0b        	adc	#$b
    2d1e: 85 14        	sta	$14                     ; 0x2014 <playMidi+0x17a>
    2d20: a5 27        	lda	$27                     ; 0x2027 <playMidi+0x18d>
    2d22: 69 00        	adc	#$0
    2d24: 85 15        	sta	$15                     ; 0x2015 <playMidi+0x17b>
    2d26: a0 0b        	ldy	#$b
    2d28: b1 26        	lda	($26),y                 ; 0x2026 <playMidi+0x18c>
    2d2a: 85 13        	sta	$13                     ; 0x2013 <playMidi+0x179>
    2d2c: a0 01        	ldy	#$1
    2d2e: b1 14        	lda	($14),y                 ; 0x2014 <playMidi+0x17a>
    2d30: 85 12        	sta	$12                     ; 0x2012 <playMidi+0x178>
    2d32: a0 03        	ldy	#$3
    2d34: b1 10        	lda	($10),y                 ; 0x2010 <playMidi+0x176>
    2d36: aa           	tax
    2d37: c5 12        	cmp	$12                     ; 0x2012 <playMidi+0x178>
    2d39: d0 08        	bne	$2d43 <_ZN12_GLOBAL__N_112print_stringEPKcP6Status+0xdb>
    2d3b: a6 28        	ldx	$28                     ; 0x2028 <playMidi+0x18e>
    2d3d: e4 13        	cpx	$13                     ; 0x2013 <playMidi+0x179>
    2d3f: 90 06        	bcc	$2d47 <_ZN12_GLOBAL__N_112print_stringEPKcP6Status+0xdf>
    2d41: 80 31        	bra	$2d74 <_ZN12_GLOBAL__N_112print_stringEPKcP6Status+0x10c>
    2d43: e4 12        	cpx	$12                     ; 0x2012 <playMidi+0x178>
    2d45: b0 2d        	bcs	$2d74 <_ZN12_GLOBAL__N_112print_stringEPKcP6Status+0x10c>
    2d47: 38           	sec
    2d48: a5 28        	lda	$28                     ; 0x2028 <playMidi+0x18e>
    2d4a: e5 13        	sbc	$13                     ; 0x2013 <playMidi+0x179>
    2d4c: aa           	tax
    2d4d: b1 10        	lda	($10),y                 ; 0x2010 <playMidi+0x176>
    2d4f: e5 12        	sbc	$12                     ; 0x2012 <playMidi+0x178>
    2d51: 85 2a        	sta	$2a                     ; 0x202a <playMidi+0x190>
    2d53: a4 26        	ldy	$26                     ; 0x2026 <playMidi+0x18c>
    2d55: 84 12        	sty	$12                     ; 0x2012 <playMidi+0x178>
    2d57: a4 27        	ldy	$27                     ; 0x2027 <playMidi+0x18d>
    2d59: 84 13        	sty	$13                     ; 0x2013 <playMidi+0x179>
    2d5b: 86 29        	stx	$29                     ; 0x2029 <playMidi+0x18f>
    2d5d: a9 20        	lda	#$20
    2d5f: 20 94 2b     	jsr	$2b94 <_ZN12_GLOBAL__N_13putEcP6Status>
    2d62: a4 2a        	ldy	$2a                     ; 0x202a <playMidi+0x190>
    2d64: e6 29        	inc	$29                     ; 0x2029 <playMidi+0x18f>
    2d66: d0 01        	bne	$2d69 <_ZN12_GLOBAL__N_112print_stringEPKcP6Status+0x101>
    2d68: c8           	iny
    2d69: 84 2a        	sty	$2a                     ; 0x202a <playMidi+0x190>
    2d6b: a6 29        	ldx	$29                     ; 0x2029 <playMidi+0x18f>
    2d6d: 98           	tya
    2d6e: d0 e3        	bne	$2d53 <_ZN12_GLOBAL__N_112print_stringEPKcP6Status+0xeb>
    2d70: a5 29        	lda	$29                     ; 0x2029 <playMidi+0x18f>
    2d72: d0 df        	bne	$2d53 <_ZN12_GLOBAL__N_112print_stringEPKcP6Status+0xeb>
    2d74: a0 03        	ldy	#$3
    2d76: b1 10        	lda	($10),y                 ; 0x2010 <playMidi+0x176>
    2d78: a8           	tay
    2d79: d0 04        	bne	$2d7f <_ZN12_GLOBAL__N_112print_stringEPKcP6Status+0x117>
    2d7b: a5 28        	lda	$28                     ; 0x2028 <playMidi+0x18e>
    2d7d: f0 26        	beq	$2da5 <_ZN12_GLOBAL__N_112print_stringEPKcP6Status+0x13d>
    2d7f: a2 ff        	ldx	#$ff
    2d81: c6 28        	dec	$28                     ; 0x2028 <playMidi+0x18e>
    2d83: e4 28        	cpx	$28                     ; 0x2028 <playMidi+0x18e>
    2d85: d0 01        	bne	$2d88 <_ZN12_GLOBAL__N_112print_stringEPKcP6Status+0x120>
    2d87: 88           	dey
    2d88: 84 29        	sty	$29                     ; 0x2029 <playMidi+0x18f>
    2d8a: b2 24        	lda	($24)                   ; 0x2024 <playMidi+0x18a>
    2d8c: e6 24        	inc	$24                     ; 0x2024 <playMidi+0x18a>
    2d8e: d0 02        	bne	$2d92 <_ZN12_GLOBAL__N_112print_stringEPKcP6Status+0x12a>
    2d90: e6 25        	inc	$25                     ; 0x2025 <playMidi+0x18b>
    2d92: a6 26        	ldx	$26                     ; 0x2026 <playMidi+0x18c>
    2d94: 86 12        	stx	$12                     ; 0x2012 <playMidi+0x178>
    2d96: a6 27        	ldx	$27                     ; 0x2027 <playMidi+0x18d>
    2d98: 86 13        	stx	$13                     ; 0x2013 <playMidi+0x179>
    2d9a: 20 94 2b     	jsr	$2b94 <_ZN12_GLOBAL__N_13putEcP6Status>
    2d9d: a4 29        	ldy	$29                     ; 0x2029 <playMidi+0x18f>
    2d9f: d0 de        	bne	$2d7f <_ZN12_GLOBAL__N_112print_stringEPKcP6Status+0x117>
    2da1: a5 28        	lda	$28                     ; 0x2028 <playMidi+0x18e>
    2da3: d0 da        	bne	$2d7f <_ZN12_GLOBAL__N_112print_stringEPKcP6Status+0x117>
    2da5: a0 00        	ldy	#$0
    2da7: b1 10        	lda	($10),y                 ; 0x2010 <playMidi+0x176>
    2da9: 85 2a        	sta	$2a                     ; 0x202a <playMidi+0x190>
    2dab: c8           	iny
    2dac: b1 10        	lda	($10),y                 ; 0x2010 <playMidi+0x176>
    2dae: 85 29        	sta	$29                     ; 0x2029 <playMidi+0x18f>
    2db0: c8           	iny
    2db1: b1 10        	lda	($10),y                 ; 0x2010 <playMidi+0x176>
    2db3: 85 28        	sta	$28                     ; 0x2028 <playMidi+0x18e>
    2db5: fa           	plx
    2db6: 86 27        	stx	$27                     ; 0x2027 <playMidi+0x18d>
    2db8: fa           	plx
    2db9: 86 26        	stx	$26                     ; 0x2026 <playMidi+0x18c>
    2dbb: fa           	plx
    2dbc: 86 25        	stx	$25                     ; 0x2025 <playMidi+0x18b>
    2dbe: fa           	plx
    2dbf: 86 24        	stx	$24                     ; 0x2024 <playMidi+0x18a>
    2dc1: 18           	clc
    2dc2: a5 10        	lda	$10                     ; 0x2010 <playMidi+0x176>
    2dc4: 69 04        	adc	#$4
    2dc6: 85 10        	sta	$10                     ; 0x2010 <playMidi+0x176>
    2dc8: a5 11        	lda	$11                     ; 0x2011 <playMidi+0x177>
    2dca: 69 00        	adc	#$0
    2dcc: 85 11        	sta	$11                     ; 0x2011 <playMidi+0x177>
    2dce: 60           	rts
    2dcf: a6 12        	ldx	$12                     ; 0x2012 <playMidi+0x178>
    2dd1: 86 28        	stx	$28                     ; 0x2028 <playMidi+0x18e>
    2dd3: a5 13        	lda	$13                     ; 0x2013 <playMidi+0x179>
    2dd5: a0 03        	ldy	#$3
    2dd7: 91 10        	sta	($10),y                 ; 0x2010 <playMidi+0x176>
    2dd9: 4c 0e 2d     	jmp	$2d0e <_ZN12_GLOBAL__N_112print_stringEPKcP6Status+0xa6>

00002ddc <printf>:
    2ddc: 18           	clc
    2ddd: a5 10        	lda	$10                     ; 0x2010 <playMidi+0x176>
    2ddf: 69 ab        	adc	#$ab
    2de1: 85 10        	sta	$10                     ; 0x2010 <playMidi+0x176>
    2de3: a5 11        	lda	$11                     ; 0x2011 <playMidi+0x177>
    2de5: 69 ff        	adc	#$ff
    2de7: 85 11        	sta	$11                     ; 0x2011 <playMidi+0x177>
    2de9: a6 24        	ldx	$24                     ; 0x2024 <playMidi+0x18a>
    2deb: da           	phx
    2dec: a6 25        	ldx	$25                     ; 0x2025 <playMidi+0x18b>
    2dee: da           	phx
    2def: a6 26        	ldx	$26                     ; 0x2026 <playMidi+0x18c>
    2df1: da           	phx
    2df2: a6 27        	ldx	$27                     ; 0x2027 <playMidi+0x18d>
    2df4: da           	phx
    2df5: a5 28        	lda	$28                     ; 0x2028 <playMidi+0x18e>
    2df7: a0 07        	ldy	#$7
    2df9: 91 10        	sta	($10),y                 ; 0x2010 <playMidi+0x176>
    2dfb: a5 29        	lda	$29                     ; 0x2029 <playMidi+0x18f>
    2dfd: 88           	dey
    2dfe: 91 10        	sta	($10),y                 ; 0x2010 <playMidi+0x176>
    2e00: a5 2a        	lda	$2a                     ; 0x202a <playMidi+0x190>
    2e02: 88           	dey
    2e03: 91 10        	sta	($10),y                 ; 0x2010 <playMidi+0x176>
    2e05: a5 2b        	lda	$2b                     ; 0x202b <playMidi+0x191>
    2e07: 88           	dey
    2e08: 91 10        	sta	($10),y                 ; 0x2010 <playMidi+0x176>
    2e0a: a5 2c        	lda	$2c                     ; 0x202c <playMidi+0x192>
    2e0c: 88           	dey
    2e0d: 91 10        	sta	($10),y                 ; 0x2010 <playMidi+0x176>
    2e0f: a5 2d        	lda	$2d                     ; 0x202d <playMidi+0x193>
    2e11: 88           	dey
    2e12: 91 10        	sta	($10),y                 ; 0x2010 <playMidi+0x176>
    2e14: a5 2e        	lda	$2e                     ; 0x202e <playMidi+0x194>
    2e16: 88           	dey
    2e17: 91 10        	sta	($10),y                 ; 0x2010 <playMidi+0x176>
    2e19: a5 2f        	lda	$2f                     ; 0x202f <playMidi+0x195>
    2e1b: 88           	dey
    2e1c: 91 10        	sta	($10),y                 ; 0x2010 <playMidi+0x176>
    2e1e: 18           	clc
    2e1f: a5 10        	lda	$10                     ; 0x2010 <playMidi+0x176>
    2e21: 69 55        	adc	#$55
    2e23: 48           	pha
    2e24: a5 11        	lda	$11                     ; 0x2011 <playMidi+0x177>
    2e26: 69 00        	adc	#$0
    2e28: 85 16        	sta	$16                     ; 0x2016 <playMidi+0x17c>
    2e2a: 18           	clc
    2e2b: a5 10        	lda	$10                     ; 0x2010 <playMidi+0x176>
    2e2d: 69 1c        	adc	#$1c
    2e2f: 85 14        	sta	$14                     ; 0x2014 <playMidi+0x17a>
    2e31: a5 11        	lda	$11                     ; 0x2011 <playMidi+0x177>
    2e33: 69 00        	adc	#$0
    2e35: 85 15        	sta	$15                     ; 0x2015 <playMidi+0x17b>
    2e37: 68           	pla
    2e38: 92 14        	sta	($14)                   ; 0x2014 <playMidi+0x17a>
    2e3a: c8           	iny
    2e3b: a5 16        	lda	$16                     ; 0x2016 <playMidi+0x17c>
    2e3d: 91 14        	sta	($14),y                 ; 0x2014 <playMidi+0x17a>
    2e3f: b2 14        	lda	($14)                   ; 0x2014 <playMidi+0x17a>
    2e41: 85 17        	sta	$17                     ; 0x2017 <playMidi+0x17d>
    2e43: b1 14        	lda	($14),y                 ; 0x2014 <playMidi+0x17a>
    2e45: 85 16        	sta	$16                     ; 0x2016 <playMidi+0x17c>
    2e47: 18           	clc
    2e48: a5 10        	lda	$10                     ; 0x2010 <playMidi+0x176>
    2e4a: 69 31        	adc	#$31
    2e4c: 85 14        	sta	$14                     ; 0x2014 <playMidi+0x17a>
    2e4e: a5 11        	lda	$11                     ; 0x2011 <playMidi+0x177>
    2e50: 69 00        	adc	#$0
    2e52: 85 15        	sta	$15                     ; 0x2015 <playMidi+0x17b>
    2e54: a5 17        	lda	$17                     ; 0x2017 <playMidi+0x17d>
    2e56: 92 14        	sta	($14)                   ; 0x2014 <playMidi+0x17a>
    2e58: a5 16        	lda	$16                     ; 0x2016 <playMidi+0x17c>
    2e5a: 91 14        	sta	($14),y                 ; 0x2014 <playMidi+0x17a>
    2e5c: 18           	clc
    2e5d: a5 10        	lda	$10                     ; 0x2010 <playMidi+0x176>
    2e5f: 69 1e        	adc	#$1e
    2e61: 85 1f        	sta	$1f                     ; 0x201f <playMidi+0x185>
    2e63: a5 11        	lda	$11                     ; 0x2011 <playMidi+0x177>
    2e65: 69 00        	adc	#$0
    2e67: 85 1e        	sta	$1e                     ; 0x201e <playMidi+0x184>
    2e69: 18           	clc
    2e6a: a5 10        	lda	$10                     ; 0x2010 <playMidi+0x176>
    2e6c: 69 1e        	adc	#$1e
    2e6e: 48           	pha
    2e6f: a5 11        	lda	$11                     ; 0x2011 <playMidi+0x177>
    2e71: 69 00        	adc	#$0
    2e73: aa           	tax
    2e74: 68           	pla
    2e75: 85 16        	sta	$16                     ; 0x2016 <playMidi+0x17c>
    2e77: 86 17        	stx	$17                     ; 0x2017 <playMidi+0x17d>
    2e79: 18           	clc
    2e7a: 69 03        	adc	#$3
    2e7c: 85 18        	sta	$18                     ; 0x2018 <playMidi+0x17e>
    2e7e: 8a           	txa
    2e7f: 69 00        	adc	#$0
    2e81: 18           	clc
    2e82: 48           	pha
    2e83: a5 10        	lda	$10                     ; 0x2010 <playMidi+0x176>
    2e85: 69 1e        	adc	#$1e
    2e87: 85 1a        	sta	$1a                     ; 0x201a <playMidi+0x180>
    2e89: a5 11        	lda	$11                     ; 0x2011 <playMidi+0x177>
    2e8b: 69 00        	adc	#$0
    2e8d: 85 1b        	sta	$1b                     ; 0x201b <playMidi+0x181>
    2e8f: 68           	pla
    2e90: 85 19        	sta	$19                     ; 0x2019 <playMidi+0x17f>
    2e92: 18           	clc
    2e93: a5 1a        	lda	$1a                     ; 0x201a <playMidi+0x180>
    2e95: 69 05        	adc	#$5
    2e97: 85 1a        	sta	$1a                     ; 0x201a <playMidi+0x180>
    2e99: a5 1b        	lda	$1b                     ; 0x201b <playMidi+0x181>
    2e9b: 69 00        	adc	#$0
    2e9d: 85 1b        	sta	$1b                     ; 0x201b <playMidi+0x181>
    2e9f: 18           	clc
    2ea0: a5 10        	lda	$10                     ; 0x2010 <playMidi+0x176>
    2ea2: 69 1e        	adc	#$1e
    2ea4: 48           	pha
    2ea5: a5 11        	lda	$11                     ; 0x2011 <playMidi+0x177>
    2ea7: 69 00        	adc	#$0
    2ea9: 85 1c        	sta	$1c                     ; 0x201c <playMidi+0x182>
    2eab: 68           	pla
    2eac: 18           	clc
    2ead: 69 09        	adc	#$9
    2eaf: aa           	tax
    2eb0: a5 1c        	lda	$1c                     ; 0x201c <playMidi+0x182>
    2eb2: 69 00        	adc	#$0
    2eb4: 86 1c        	stx	$1c                     ; 0x201c <playMidi+0x182>
    2eb6: 85 1d        	sta	$1d                     ; 0x201d <playMidi+0x183>
    2eb8: a2 00        	ldx	#$0
    2eba: 86 2e        	stx	$2e                     ; 0x202e <playMidi+0x194>
    2ebc: a2 00        	ldx	#$0
    2ebe: 86 2f        	stx	$2f                     ; 0x202f <playMidi+0x195>
    2ec0: a5 2e        	lda	$2e                     ; 0x202e <playMidi+0x194>
    2ec2: a0 09        	ldy	#$9
    2ec4: 91 16        	sta	($16),y                 ; 0x2016 <playMidi+0x17c>
    2ec6: a0 01        	ldy	#$1
    2ec8: a5 2f        	lda	$2f                     ; 0x202f <playMidi+0x195>
    2eca: 91 1c        	sta	($1c),y                 ; 0x201c <playMidi+0x182>
    2ecc: 18           	clc
    2ecd: a5 1f        	lda	$1f                     ; 0x201f <playMidi+0x185>
    2ecf: 69 0f        	adc	#$f
    2ed1: 85 1c        	sta	$1c                     ; 0x201c <playMidi+0x182>
    2ed3: a5 1e        	lda	$1e                     ; 0x201e <playMidi+0x184>
    2ed5: 69 00        	adc	#$0
    2ed7: 18           	clc
    2ed8: 48           	pha
    2ed9: a5 10        	lda	$10                     ; 0x2010 <playMidi+0x176>
    2edb: 69 1e        	adc	#$1e
    2edd: 85 1e        	sta	$1e                     ; 0x201e <playMidi+0x184>
    2edf: a5 11        	lda	$11                     ; 0x2011 <playMidi+0x177>
    2ee1: 69 00        	adc	#$0
    2ee3: aa           	tax
    2ee4: 68           	pla
    2ee5: a0 0f        	ldy	#$f
    2ee7: 85 1d        	sta	$1d                     ; 0x201d <playMidi+0x183>
    2ee9: a9 02        	lda	#$2
    2eeb: 91 16        	sta	($16),y                 ; 0x2016 <playMidi+0x17c>
    2eed: 18           	clc
    2eee: a5 1e        	lda	$1e                     ; 0x201e <playMidi+0x184>
    2ef0: 69 11        	adc	#$11
    2ef2: 85 1e        	sta	$1e                     ; 0x201e <playMidi+0x184>
    2ef4: 8a           	txa
    2ef5: 69 00        	adc	#$0
    2ef7: 85 1f        	sta	$1f                     ; 0x201f <playMidi+0x185>
    2ef9: a0 03        	ldy	#$3
    2efb: a9 ff        	lda	#$ff
    2efd: 91 16        	sta	($16),y                 ; 0x2016 <playMidi+0x17c>
    2eff: a0 01        	ldy	#$1
    2f01: 91 18        	sta	($18),y                 ; 0x2018 <playMidi+0x17e>
    2f03: a0 05        	ldy	#$5
    2f05: 1a           	inc
    2f06: 91 16        	sta	($16),y                 ; 0x2016 <playMidi+0x17c>
    2f08: a0 01        	ldy	#$1
    2f0a: 91 1a        	sta	($1a),y                 ; 0x201a <playMidi+0x180>
    2f0c: 91 1c        	sta	($1c),y                 ; 0x201c <playMidi+0x182>
    2f0e: b2 14        	lda	($14)                   ; 0x2014 <playMidi+0x17a>
    2f10: 85 18        	sta	$18                     ; 0x2018 <playMidi+0x17e>
    2f12: b1 14        	lda	($14),y                 ; 0x2014 <playMidi+0x17a>
    2f14: 85 14        	sta	$14                     ; 0x2014 <playMidi+0x17a>
    2f16: a0 11        	ldy	#$11
    2f18: a5 18        	lda	$18                     ; 0x2018 <playMidi+0x17e>
    2f1a: 91 16        	sta	($16),y                 ; 0x2016 <playMidi+0x17c>
    2f1c: a0 01        	ldy	#$1
    2f1e: a5 14        	lda	$14                     ; 0x2014 <playMidi+0x17a>
    2f20: 91 1e        	sta	($1e),y                 ; 0x201e <playMidi+0x184>
    2f22: 18           	clc
    2f23: 5a           	phy
    2f24: a5 10        	lda	$10                     ; 0x2010 <playMidi+0x176>
    2f26: 69 33        	adc	#$33
    2f28: 85 2a        	sta	$2a                     ; 0x202a <playMidi+0x190>
    2f2a: a5 11        	lda	$11                     ; 0x2011 <playMidi+0x177>
    2f2c: 69 00        	adc	#$0
    2f2e: 85 2b        	sta	$2b                     ; 0x202b <playMidi+0x191>
    2f30: 18           	clc
    2f31: a5 10        	lda	$10                     ; 0x2010 <playMidi+0x176>
    2f33: 69 3e        	adc	#$3e
    2f35: 85 16        	sta	$16                     ; 0x2016 <playMidi+0x17c>
    2f37: a5 11        	lda	$11                     ; 0x2011 <playMidi+0x177>
    2f39: 69 00        	adc	#$0
    2f3b: 85 17        	sta	$17                     ; 0x2017 <playMidi+0x17d>
    2f3d: a5 16        	lda	$16                     ; 0x2016 <playMidi+0x17c>
    2f3f: a0 0b        	ldy	#$b
    2f41: 91 10        	sta	($10),y                 ; 0x2010 <playMidi+0x176>
    2f43: 18           	clc
    2f44: 69 02        	adc	#$2
    2f46: 85 2c        	sta	$2c                     ; 0x202c <playMidi+0x192>
    2f48: a5 17        	lda	$17                     ; 0x2017 <playMidi+0x17d>
    2f4a: 88           	dey
    2f4b: 91 10        	sta	($10),y                 ; 0x2010 <playMidi+0x176>
    2f4d: 69 00        	adc	#$0
    2f4f: a6 12        	ldx	$12                     ; 0x2012 <playMidi+0x178>
    2f51: 86 26        	stx	$26                     ; 0x2026 <playMidi+0x18c>
    2f53: a6 13        	ldx	$13                     ; 0x2013 <playMidi+0x179>
    2f55: 86 27        	stx	$27                     ; 0x2027 <playMidi+0x18d>
    2f57: a6 2a        	ldx	$2a                     ; 0x202a <playMidi+0x190>
    2f59: 86 12        	stx	$12                     ; 0x2012 <playMidi+0x178>
    2f5b: a6 2b        	ldx	$2b                     ; 0x202b <playMidi+0x191>
    2f5d: 86 13        	stx	$13                     ; 0x2013 <playMidi+0x179>
    2f5f: e6 12        	inc	$12                     ; 0x2012 <playMidi+0x178>
    2f61: d0 02        	bne	$2f65 <printf+0x189>
    2f63: e6 13        	inc	$13                     ; 0x2013 <playMidi+0x179>
    2f65: 48           	pha
    2f66: a5 12        	lda	$12                     ; 0x2012 <playMidi+0x178>
    2f68: a0 0c        	ldy	#$c
    2f6a: 91 10        	sta	($10),y                 ; 0x2010 <playMidi+0x176>
    2f6c: a5 13        	lda	$13                     ; 0x2013 <playMidi+0x179>
    2f6e: c8           	iny
    2f6f: 91 10        	sta	($10),y                 ; 0x2010 <playMidi+0x176>
    2f71: a5 2c        	lda	$2c                     ; 0x202c <playMidi+0x192>
    2f73: a0 09        	ldy	#$9
    2f75: 91 10        	sta	($10),y                 ; 0x2010 <playMidi+0x176>
    2f77: 68           	pla
    2f78: 88           	dey
    2f79: 91 10        	sta	($10),y                 ; 0x2010 <playMidi+0x176>
    2f7b: 7a           	ply
    2f7c: 85 2d        	sta	$2d                     ; 0x202d <playMidi+0x193>
    2f7e: a6 26        	ldx	$26                     ; 0x2026 <playMidi+0x18c>
    2f80: 86 24        	stx	$24                     ; 0x2024 <playMidi+0x18a>
    2f82: a6 27        	ldx	$27                     ; 0x2027 <playMidi+0x18d>
    2f84: 86 25        	stx	$25                     ; 0x2025 <playMidi+0x18b>
    2f86: b2 26        	lda	($26)                   ; 0x2026 <playMidi+0x18c>
    2f88: c9 25        	cmp	#$25
    2f8a: d0 03        	bne	$2f8f <printf+0x1b3>
    2f8c: 4c df 2f     	jmp	$2fdf <printf+0x203>
    2f8f: a2 00        	ldx	#$0
    2f91: a8           	tay
    2f92: d0 03        	bne	$2f97 <printf+0x1bb>
    2f94: 4c aa 47     	jmp	$47aa <printf+0x19ce>
    2f97: 20 ed 47     	jsr	$47ed <putchar>
    2f9a: e6 24        	inc	$24                     ; 0x2024 <playMidi+0x18a>
    2f9c: d0 02        	bne	$2fa0 <printf+0x1c4>
    2f9e: e6 25        	inc	$25                     ; 0x2025 <playMidi+0x18b>
    2fa0: 18           	clc
    2fa1: a5 10        	lda	$10                     ; 0x2010 <playMidi+0x176>
    2fa3: 69 1e        	adc	#$1e
    2fa5: 48           	pha
    2fa6: a5 11        	lda	$11                     ; 0x2011 <playMidi+0x177>
    2fa8: 69 00        	adc	#$0
    2faa: aa           	tax
    2fab: 68           	pla
    2fac: 85 12        	sta	$12                     ; 0x2012 <playMidi+0x178>
    2fae: 86 13        	stx	$13                     ; 0x2013 <playMidi+0x179>
    2fb0: 18           	clc
    2fb1: 69 05        	adc	#$5
    2fb3: 85 14        	sta	$14                     ; 0x2014 <playMidi+0x17a>
    2fb5: 8a           	txa
    2fb6: 69 00        	adc	#$0
    2fb8: 85 15        	sta	$15                     ; 0x2015 <playMidi+0x17b>
    2fba: a0 05        	ldy	#$5
    2fbc: b1 12        	lda	($12),y                 ; 0x2012 <playMidi+0x178>
    2fbe: 85 16        	sta	$16                     ; 0x2016 <playMidi+0x17c>
    2fc0: a0 01        	ldy	#$1
    2fc2: b1 14        	lda	($14),y                 ; 0x2014 <playMidi+0x17a>
    2fc4: aa           	tax
    2fc5: a5 16        	lda	$16                     ; 0x2016 <playMidi+0x17c>
    2fc7: 1a           	inc
    2fc8: d0 01        	bne	$2fcb <printf+0x1ef>
    2fca: e8           	inx
    2fcb: a0 05        	ldy	#$5
    2fcd: 91 12        	sta	($12),y                 ; 0x2012 <playMidi+0x178>
    2fcf: a0 01        	ldy	#$1
    2fd1: 8a           	txa
    2fd2: 91 14        	sta	($14),y                 ; 0x2014 <playMidi+0x17a>
    2fd4: a6 24        	ldx	$24                     ; 0x2024 <playMidi+0x18a>
    2fd6: 86 26        	stx	$26                     ; 0x2026 <playMidi+0x18c>
    2fd8: a6 25        	ldx	$25                     ; 0x2025 <playMidi+0x18b>
    2fda: 86 27        	stx	$27                     ; 0x2027 <playMidi+0x18d>
    2fdc: 4c 7e 2f     	jmp	$2f7e <printf+0x1a2>
    2fdf: a6 26        	ldx	$26                     ; 0x2026 <playMidi+0x18c>
    2fe1: 86 12        	stx	$12                     ; 0x2012 <playMidi+0x178>
    2fe3: a6 27        	ldx	$27                     ; 0x2027 <playMidi+0x18d>
    2fe5: 86 13        	stx	$13                     ; 0x2013 <playMidi+0x179>
    2fe7: e6 12        	inc	$12                     ; 0x2012 <playMidi+0x178>
    2fe9: d0 02        	bne	$2fed <printf+0x211>
    2feb: e6 13        	inc	$13                     ; 0x2013 <playMidi+0x179>
    2fed: b1 24        	lda	($24),y                 ; 0x2024 <playMidi+0x18a>
    2fef: c9 25        	cmp	#$25
    2ff1: f0 03        	beq	$2ff6 <printf+0x21a>
    2ff3: 4c 5c 30     	jmp	$305c <printf+0x280>
    2ff6: 18           	clc
    2ff7: a5 10        	lda	$10                     ; 0x2010 <playMidi+0x176>
    2ff9: 69 1e        	adc	#$1e
    2ffb: aa           	tax
    2ffc: a0 01        	ldy	#$1
    2ffe: b0 02        	bcs	$3002 <printf+0x226>
    3000: a0 00        	ldy	#$0
    3002: 84 14        	sty	$14                     ; 0x2014 <playMidi+0x17a>
    3004: 18           	clc
    3005: a5 10        	lda	$10                     ; 0x2010 <playMidi+0x176>
    3007: 69 1e        	adc	#$1e
    3009: 48           	pha
    300a: a5 11        	lda	$11                     ; 0x2011 <playMidi+0x177>
    300c: 69 00        	adc	#$0
    300e: a8           	tay
    300f: 68           	pla
    3010: 85 12        	sta	$12                     ; 0x2012 <playMidi+0x178>
    3012: 84 13        	sty	$13                     ; 0x2013 <playMidi+0x179>
    3014: 18           	clc
    3015: 69 05        	adc	#$5
    3017: 85 16        	sta	$16                     ; 0x2016 <playMidi+0x17c>
    3019: 98           	tya
    301a: 69 00        	adc	#$0
    301c: a4 14        	ldy	$14                     ; 0x2014 <playMidi+0x17a>
    301e: c0 01        	cpy	#$1
    3020: 48           	pha
    3021: a5 11        	lda	$11                     ; 0x2011 <playMidi+0x177>
    3023: 69 00        	adc	#$0
    3025: 85 14        	sta	$14                     ; 0x2014 <playMidi+0x17a>
    3027: 68           	pla
    3028: 85 17        	sta	$17                     ; 0x2017 <playMidi+0x17d>
    302a: 18           	clc
    302b: 8a           	txa
    302c: 69 03        	adc	#$3
    302e: aa           	tax
    302f: a5 14        	lda	$14                     ; 0x2014 <playMidi+0x17a>
    3031: 69 00        	adc	#$0
    3033: 85 15        	sta	$15                     ; 0x2015 <playMidi+0x17b>
    3035: a0 05        	ldy	#$5
    3037: b1 12        	lda	($12),y                 ; 0x2012 <playMidi+0x178>
    3039: 85 18        	sta	$18                     ; 0x2018 <playMidi+0x17e>
    303b: a0 01        	ldy	#$1
    303d: 86 14        	stx	$14                     ; 0x2014 <playMidi+0x17a>
    303f: b1 16        	lda	($16),y                 ; 0x2016 <playMidi+0x17c>
    3041: d1 14        	cmp	($14),y                 ; 0x2014 <playMidi+0x17a>
    3043: f0 03        	beq	$3048 <printf+0x26c>
    3045: 4c da 31     	jmp	$31da <printf+0x3fe>
    3048: 85 17        	sta	$17                     ; 0x2017 <playMidi+0x17d>
    304a: a0 03        	ldy	#$3
    304c: a6 18        	ldx	$18                     ; 0x2018 <playMidi+0x17e>
    304e: b1 12        	lda	($12),y                 ; 0x2012 <playMidi+0x178>
    3050: 85 12        	sta	$12                     ; 0x2012 <playMidi+0x178>
    3052: e4 12        	cpx	$12                     ; 0x2012 <playMidi+0x178>
    3054: b0 03        	bcs	$3059 <printf+0x27d>
    3056: 4c e5 31     	jmp	$31e5 <printf+0x409>
    3059: 4c 58 32     	jmp	$3258 <printf+0x47c>
    305c: 18           	clc
    305d: a5 10        	lda	$10                     ; 0x2010 <playMidi+0x176>
    305f: 69 1e        	adc	#$1e
    3061: aa           	tax
    3062: a5 11        	lda	$11                     ; 0x2011 <playMidi+0x177>
    3064: 69 00        	adc	#$0
    3066: 85 15        	sta	$15                     ; 0x2015 <playMidi+0x17b>
    3068: 8a           	txa
    3069: 18           	clc
    306a: 69 0b        	adc	#$b
    306c: 85 18        	sta	$18                     ; 0x2018 <playMidi+0x17e>
    306e: a5 15        	lda	$15                     ; 0x2015 <playMidi+0x17b>
    3070: 69 00        	adc	#$0
    3072: 18           	clc
    3073: 48           	pha
    3074: a5 10        	lda	$10                     ; 0x2010 <playMidi+0x176>
    3076: 69 1e        	adc	#$1e
    3078: 85 1b        	sta	$1b                     ; 0x201b <playMidi+0x181>
    307a: a5 11        	lda	$11                     ; 0x2011 <playMidi+0x177>
    307c: 69 00        	adc	#$0
    307e: 85 1a        	sta	$1a                     ; 0x201a <playMidi+0x180>
    3080: 68           	pla
    3081: 86 1e        	stx	$1e                     ; 0x201e <playMidi+0x184>
    3083: 86 14        	stx	$14                     ; 0x2014 <playMidi+0x17a>
    3085: 5a           	phy
    3086: a4 15        	ldy	$15                     ; 0x2015 <playMidi+0x17b>
    3088: 84 1d        	sty	$1d                     ; 0x201d <playMidi+0x183>
    308a: 7a           	ply
    308b: 86 16        	stx	$16                     ; 0x2016 <playMidi+0x17c>
    308d: a6 15        	ldx	$15                     ; 0x2015 <playMidi+0x17b>
    308f: 86 17        	stx	$17                     ; 0x2017 <playMidi+0x17d>
    3091: 85 19        	sta	$19                     ; 0x2019 <playMidi+0x17f>
    3093: 18           	clc
    3094: a5 1b        	lda	$1b                     ; 0x201b <playMidi+0x181>
    3096: 69 0d        	adc	#$d
    3098: aa           	tax
    3099: a5 1a        	lda	$1a                     ; 0x201a <playMidi+0x180>
    309b: 69 00        	adc	#$0
    309d: 85 1b        	sta	$1b                     ; 0x201b <playMidi+0x181>
    309f: e6 16        	inc	$16                     ; 0x2016 <playMidi+0x17c>
    30a1: d0 02        	bne	$30a5 <printf+0x2c9>
    30a3: e6 17        	inc	$17                     ; 0x2017 <playMidi+0x17d>
    30a5: 86 1a        	stx	$1a                     ; 0x201a <playMidi+0x180>
    30a7: a9 00        	lda	#$0
    30a9: 91 16        	sta	($16),y                 ; 0x2016 <playMidi+0x17c>
    30ab: 91 14        	sta	($14),y                 ; 0x2014 <playMidi+0x17a>
    30ad: 92 14        	sta	($14)                   ; 0x2014 <playMidi+0x17a>
    30af: a0 0b        	ldy	#$b
    30b1: 91 14        	sta	($14),y                 ; 0x2014 <playMidi+0x17a>
    30b3: a0 01        	ldy	#$1
    30b5: 91 18        	sta	($18),y                 ; 0x2018 <playMidi+0x17e>
    30b7: 3a           	dec
    30b8: a0 0d        	ldy	#$d
    30ba: 91 14        	sta	($14),y                 ; 0x2014 <playMidi+0x17a>
    30bc: a0 01        	ldy	#$1
    30be: 91 1a        	sta	($1a),y                 ; 0x201a <playMidi+0x180>
    30c0: 64 2e        	stz	$2e                     ; 0x202e <playMidi+0x194>
    30c2: 80 41        	bra	$3105 <printf+0x329>
    30c4: a2 02        	ldx	#$2
    30c6: 80 15        	bra	$30dd <printf+0x301>
    30c8: e0 20        	cpx	#$20
    30ca: f0 15        	beq	$30e1 <printf+0x305>
    30cc: 86 15        	stx	$15                     ; 0x2015 <playMidi+0x17b>
    30ce: e0 23        	cpx	#$23
    30d0: f0 03        	beq	$30d5 <printf+0x2f9>
    30d2: 4c 6f 31     	jmp	$316f <printf+0x393>
    30d5: a5 2e        	lda	$2e                     ; 0x202e <playMidi+0x194>
    30d7: a2 04        	ldx	#$4
    30d9: 80 02        	bra	$30dd <printf+0x301>
    30db: a2 10        	ldx	#$10
    30dd: 86 14        	stx	$14                     ; 0x2014 <playMidi+0x17a>
    30df: 80 06        	bra	$30e7 <printf+0x30b>
    30e1: a2 08        	ldx	#$8
    30e3: 86 14        	stx	$14                     ; 0x2014 <playMidi+0x17a>
    30e5: a5 2e        	lda	$2e                     ; 0x202e <playMidi+0x194>
    30e7: 05 14        	ora	$14                     ; 0x2014 <playMidi+0x17a>
    30e9: a6 1e        	ldx	$1e                     ; 0x201e <playMidi+0x184>
    30eb: 86 14        	stx	$14                     ; 0x2014 <playMidi+0x17a>
    30ed: a6 1d        	ldx	$1d                     ; 0x201d <playMidi+0x183>
    30ef: 86 15        	stx	$15                     ; 0x2015 <playMidi+0x17b>
    30f1: 85 2e        	sta	$2e                     ; 0x202e <playMidi+0x194>
    30f3: 91 14        	sta	($14),y                 ; 0x2014 <playMidi+0x17a>
    30f5: e6 14        	inc	$14                     ; 0x2014 <playMidi+0x17a>
    30f7: d0 02        	bne	$30fb <printf+0x31f>
    30f9: e6 15        	inc	$15                     ; 0x2015 <playMidi+0x17b>
    30fb: a9 00        	lda	#$0
    30fd: 91 14        	sta	($14),y                 ; 0x2014 <playMidi+0x17a>
    30ff: e6 12        	inc	$12                     ; 0x2012 <playMidi+0x178>
    3101: d0 02        	bne	$3105 <printf+0x329>
    3103: e6 13        	inc	$13                     ; 0x2013 <playMidi+0x179>
    3105: b2 12        	lda	($12)                   ; 0x2012 <playMidi+0x178>
    3107: aa           	tax
    3108: 18           	clc
    3109: 69 d6        	adc	#$d6
    310b: c9 07        	cmp	#$7
    310d: b0 b9        	bcs	$30c8 <printf+0x2ec>
    310f: 86 15        	stx	$15                     ; 0x2015 <playMidi+0x17b>
    3111: 0a           	asl
    3112: aa           	tax
    3113: a0 01        	ldy	#$1
    3115: 84 14        	sty	$14                     ; 0x2014 <playMidi+0x17a>
    3117: a5 2e        	lda	$2e                     ; 0x202e <playMidi+0x194>
    3119: 7c 14 50     	jmp	($5014,x)               ; 0x5014 <__set_v+0xb5>
    311c: 18           	clc
    311d: a5 10        	lda	$10                     ; 0x2010 <playMidi+0x176>
    311f: 69 1e        	adc	#$1e
    3121: 48           	pha
    3122: a5 11        	lda	$11                     ; 0x2011 <playMidi+0x177>
    3124: 69 00        	adc	#$0
    3126: aa           	tax
    3127: 68           	pla
    3128: 85 14        	sta	$14                     ; 0x2014 <playMidi+0x17a>
    312a: 86 15        	stx	$15                     ; 0x2015 <playMidi+0x17b>
    312c: 18           	clc
    312d: 69 11        	adc	#$11
    312f: 85 16        	sta	$16                     ; 0x2016 <playMidi+0x17c>
    3131: 8a           	txa
    3132: 69 00        	adc	#$0
    3134: 85 17        	sta	$17                     ; 0x2017 <playMidi+0x17d>
    3136: a0 11        	ldy	#$11
    3138: b1 14        	lda	($14),y                 ; 0x2014 <playMidi+0x17a>
    313a: 85 18        	sta	$18                     ; 0x2018 <playMidi+0x17e>
    313c: a0 01        	ldy	#$1
    313e: b1 16        	lda	($16),y                 ; 0x2016 <playMidi+0x17c>
    3140: aa           	tax
    3141: a5 18        	lda	$18                     ; 0x2018 <playMidi+0x17e>
    3143: 86 19        	stx	$19                     ; 0x2019 <playMidi+0x17f>
    3145: 18           	clc
    3146: 69 02        	adc	#$2
    3148: 85 1b        	sta	$1b                     ; 0x201b <playMidi+0x181>
    314a: 8a           	txa
    314b: 69 00        	adc	#$0
    314d: 85 1a        	sta	$1a                     ; 0x201a <playMidi+0x180>
    314f: a0 11        	ldy	#$11
    3151: a5 1b        	lda	$1b                     ; 0x201b <playMidi+0x181>
    3153: 91 14        	sta	($14),y                 ; 0x2014 <playMidi+0x17a>
    3155: a0 01        	ldy	#$1
    3157: a5 1a        	lda	$1a                     ; 0x201a <playMidi+0x180>
    3159: 91 16        	sta	($16),y                 ; 0x2016 <playMidi+0x17c>
    315b: b2 18        	lda	($18)                   ; 0x2018 <playMidi+0x17e>
    315d: 85 17        	sta	$17                     ; 0x2017 <playMidi+0x17d>
    315f: b1 18        	lda	($18),y                 ; 0x2018 <playMidi+0x17e>
    3161: 85 16        	sta	$16                     ; 0x2016 <playMidi+0x17c>
    3163: 10 03        	bpl	$3168 <printf+0x38c>
    3165: 4c d0 32     	jmp	$32d0 <printf+0x4f4>
    3168: a6 17        	ldx	$17                     ; 0x2017 <playMidi+0x17d>
    316a: 85 18        	sta	$18                     ; 0x2018 <playMidi+0x17e>
    316c: 4c ee 32     	jmp	$32ee <printf+0x512>
    316f: a5 15        	lda	$15                     ; 0x2015 <playMidi+0x17b>
    3171: 18           	clc
    3172: 69 d0        	adc	#$d0
    3174: c9 0a        	cmp	#$a
    3176: 90 03        	bcc	$317b <printf+0x39f>
    3178: 4c 9c 32     	jmp	$329c <printf+0x4c0>
    317b: a6 15        	ldx	$15                     ; 0x2015 <playMidi+0x17b>
    317d: 86 14        	stx	$14                     ; 0x2014 <playMidi+0x17a>
    317f: a2 00        	ldx	#$0
    3181: 64 15        	stz	$15                     ; 0x2015 <playMidi+0x17b>
    3183: 64 18        	stz	$18                     ; 0x2018 <playMidi+0x17e>
    3185: 86 16        	stx	$16                     ; 0x2016 <playMidi+0x17c>
    3187: 06 16        	asl	$16                     ; 0x2016 <playMidi+0x17c>
    3189: a6 18        	ldx	$18                     ; 0x2018 <playMidi+0x17e>
    318b: 86 17        	stx	$17                     ; 0x2017 <playMidi+0x17d>
    318d: 26 17        	rol	$17                     ; 0x2017 <playMidi+0x17d>
    318f: a5 16        	lda	$16                     ; 0x2016 <playMidi+0x17c>
    3191: 0a           	asl
    3192: aa           	tax
    3193: a5 17        	lda	$17                     ; 0x2017 <playMidi+0x17d>
    3195: 2a           	rol
    3196: 86 18        	stx	$18                     ; 0x2018 <playMidi+0x17e>
    3198: 06 18        	asl	$18                     ; 0x2018 <playMidi+0x17e>
    319a: 2a           	rol
    319b: aa           	tax
    319c: a5 18        	lda	$18                     ; 0x2018 <playMidi+0x17e>
    319e: 18           	clc
    319f: 65 16        	adc	$16                     ; 0x2016 <playMidi+0x17c>
    31a1: 85 16        	sta	$16                     ; 0x2016 <playMidi+0x17c>
    31a3: 8a           	txa
    31a4: 65 17        	adc	$17                     ; 0x2017 <playMidi+0x17d>
    31a6: 85 17        	sta	$17                     ; 0x2017 <playMidi+0x17d>
    31a8: a5 16        	lda	$16                     ; 0x2016 <playMidi+0x17c>
    31aa: 18           	clc
    31ab: 65 14        	adc	$14                     ; 0x2014 <playMidi+0x17a>
    31ad: 85 14        	sta	$14                     ; 0x2014 <playMidi+0x17a>
    31af: a5 17        	lda	$17                     ; 0x2017 <playMidi+0x17d>
    31b1: 65 15        	adc	$15                     ; 0x2015 <playMidi+0x17b>
    31b3: 85 15        	sta	$15                     ; 0x2015 <playMidi+0x17b>
    31b5: 18           	clc
    31b6: a5 14        	lda	$14                     ; 0x2014 <playMidi+0x17a>
    31b8: 69 d0        	adc	#$d0
    31ba: aa           	tax
    31bb: a5 15        	lda	$15                     ; 0x2015 <playMidi+0x17b>
    31bd: 69 ff        	adc	#$ff
    31bf: 85 18        	sta	$18                     ; 0x2018 <playMidi+0x17e>
    31c1: b1 12        	lda	($12),y                 ; 0x2012 <playMidi+0x178>
    31c3: 85 14        	sta	$14                     ; 0x2014 <playMidi+0x17a>
    31c5: 18           	clc
    31c6: 69 d0        	adc	#$d0
    31c8: e6 12        	inc	$12                     ; 0x2012 <playMidi+0x178>
    31ca: d0 02        	bne	$31ce <printf+0x3f2>
    31cc: e6 13        	inc	$13                     ; 0x2013 <playMidi+0x179>
    31ce: c9 0a        	cmp	#$a
    31d0: 64 15        	stz	$15                     ; 0x2015 <playMidi+0x17b>
    31d2: b0 03        	bcs	$31d7 <printf+0x3fb>
    31d4: 4c 85 31     	jmp	$3185 <printf+0x3a9>
    31d7: 4c a0 32     	jmp	$32a0 <printf+0x4c4>
    31da: 85 17        	sta	$17                     ; 0x2017 <playMidi+0x17d>
    31dc: d1 14        	cmp	($14),y                 ; 0x2014 <playMidi+0x17a>
    31de: a6 18        	ldx	$18                     ; 0x2018 <playMidi+0x17e>
    31e0: 90 03        	bcc	$31e5 <printf+0x409>
    31e2: 4c 58 32     	jmp	$3258 <printf+0x47c>
    31e5: a0 01        	ldy	#$1
    31e7: 86 16        	stx	$16                     ; 0x2016 <playMidi+0x17c>
    31e9: 18           	clc
    31ea: a5 10        	lda	$10                     ; 0x2010 <playMidi+0x176>
    31ec: 69 1e        	adc	#$1e
    31ee: 48           	pha
    31ef: a5 11        	lda	$11                     ; 0x2011 <playMidi+0x177>
    31f1: 69 00        	adc	#$0
    31f3: 85 12        	sta	$12                     ; 0x2012 <playMidi+0x178>
    31f5: 68           	pla
    31f6: 18           	clc
    31f7: aa           	tax
    31f8: 69 0f        	adc	#$f
    31fa: 85 13        	sta	$13                     ; 0x2013 <playMidi+0x179>
    31fc: 5a           	phy
    31fd: a4 12        	ldy	$12                     ; 0x2012 <playMidi+0x178>
    31ff: 84 14        	sty	$14                     ; 0x2014 <playMidi+0x17a>
    3201: a5 12        	lda	$12                     ; 0x2012 <playMidi+0x178>
    3203: 69 00        	adc	#$0
    3205: a4 13        	ldy	$13                     ; 0x2013 <playMidi+0x179>
    3207: 84 12        	sty	$12                     ; 0x2012 <playMidi+0x178>
    3209: 7a           	ply
    320a: 85 13        	sta	$13                     ; 0x2013 <playMidi+0x179>
    320c: b1 12        	lda	($12),y                 ; 0x2012 <playMidi+0x178>
    320e: c5 2f        	cmp	$2f                     ; 0x202f <playMidi+0x195>
    3210: d0 3f        	bne	$3251 <printf+0x475>
    3212: 86 12        	stx	$12                     ; 0x2012 <playMidi+0x178>
    3214: a6 14        	ldx	$14                     ; 0x2014 <playMidi+0x17a>
    3216: 86 13        	stx	$13                     ; 0x2013 <playMidi+0x179>
    3218: a0 0f        	ldy	#$f
    321a: b1 12        	lda	($12),y                 ; 0x2012 <playMidi+0x178>
    321c: c5 2e        	cmp	$2e                     ; 0x202e <playMidi+0x194>
    321e: d0 31        	bne	$3251 <printf+0x475>
    3220: 18           	clc
    3221: a5 10        	lda	$10                     ; 0x2010 <playMidi+0x176>
    3223: 69 1e        	adc	#$1e
    3225: 48           	pha
    3226: a5 11        	lda	$11                     ; 0x2011 <playMidi+0x177>
    3228: 69 00        	adc	#$0
    322a: aa           	tax
    322b: 68           	pla
    322c: 85 12        	sta	$12                     ; 0x2012 <playMidi+0x178>
    322e: 86 13        	stx	$13                     ; 0x2013 <playMidi+0x179>
    3230: 18           	clc
    3231: 69 09        	adc	#$9
    3233: 85 14        	sta	$14                     ; 0x2014 <playMidi+0x17a>
    3235: 8a           	txa
    3236: 69 00        	adc	#$0
    3238: 85 15        	sta	$15                     ; 0x2015 <playMidi+0x17b>
    323a: 18           	clc
    323b: a0 09        	ldy	#$9
    323d: a5 16        	lda	$16                     ; 0x2016 <playMidi+0x17c>
    323f: 71 12        	adc	($12),y                 ; 0x2012 <playMidi+0x178>
    3241: 85 12        	sta	$12                     ; 0x2012 <playMidi+0x178>
    3243: a0 01        	ldy	#$1
    3245: a5 17        	lda	$17                     ; 0x2017 <playMidi+0x17d>
    3247: 71 14        	adc	($14),y                 ; 0x2014 <playMidi+0x17a>
    3249: 85 13        	sta	$13                     ; 0x2013 <playMidi+0x179>
    324b: a9 25        	lda	#$25
    324d: 92 12        	sta	($12)                   ; 0x2012 <playMidi+0x178>
    324f: 80 07        	bra	$3258 <printf+0x47c>
    3251: a2 00        	ldx	#$0
    3253: a9 25        	lda	#$25
    3255: 20 ed 47     	jsr	$47ed <putchar>
    3258: 18           	clc
    3259: a5 10        	lda	$10                     ; 0x2010 <playMidi+0x176>
    325b: 69 1e        	adc	#$1e
    325d: 48           	pha
    325e: a5 11        	lda	$11                     ; 0x2011 <playMidi+0x177>
    3260: 69 00        	adc	#$0
    3262: aa           	tax
    3263: 68           	pla
    3264: 85 12        	sta	$12                     ; 0x2012 <playMidi+0x178>
    3266: 86 13        	stx	$13                     ; 0x2013 <playMidi+0x179>
    3268: 18           	clc
    3269: 69 05        	adc	#$5
    326b: 85 14        	sta	$14                     ; 0x2014 <playMidi+0x17a>
    326d: 8a           	txa
    326e: 69 00        	adc	#$0
    3270: 85 15        	sta	$15                     ; 0x2015 <playMidi+0x17b>
    3272: a0 05        	ldy	#$5
    3274: b1 12        	lda	($12),y                 ; 0x2012 <playMidi+0x178>
    3276: 85 16        	sta	$16                     ; 0x2016 <playMidi+0x17c>
    3278: a0 01        	ldy	#$1
    327a: b1 14        	lda	($14),y                 ; 0x2014 <playMidi+0x17a>
    327c: aa           	tax
    327d: a5 16        	lda	$16                     ; 0x2016 <playMidi+0x17c>
    327f: 1a           	inc
    3280: d0 01        	bne	$3283 <printf+0x4a7>
    3282: e8           	inx
    3283: a0 05        	ldy	#$5
    3285: 91 12        	sta	($12),y                 ; 0x2012 <playMidi+0x178>
    3287: a0 01        	ldy	#$1
    3289: 8a           	txa
    328a: 91 14        	sta	($14),y                 ; 0x2014 <playMidi+0x17a>
    328c: a5 24        	lda	$24                     ; 0x2024 <playMidi+0x18a>
    328e: 18           	clc
    328f: 69 02        	adc	#$2
    3291: 85 26        	sta	$26                     ; 0x2026 <playMidi+0x18c>
    3293: a5 25        	lda	$25                     ; 0x2025 <playMidi+0x18b>
    3295: 69 00        	adc	#$0
    3297: 85 27        	sta	$27                     ; 0x2027 <playMidi+0x18d>
    3299: 4c 7e 2f     	jmp	$2f7e <printf+0x1a2>
    329c: a2 00        	ldx	#$0
    329e: 64 18        	stz	$18                     ; 0x2018 <playMidi+0x17e>
    32a0: 18           	clc
    32a1: a5 10        	lda	$10                     ; 0x2010 <playMidi+0x176>
    32a3: 69 1e        	adc	#$1e
    32a5: 48           	pha
    32a6: a5 11        	lda	$11                     ; 0x2011 <playMidi+0x177>
    32a8: 69 00        	adc	#$0
    32aa: 85 17        	sta	$17                     ; 0x2017 <playMidi+0x17d>
    32ac: 68           	pla
    32ad: 85 14        	sta	$14                     ; 0x2014 <playMidi+0x17a>
    32af: a4 17        	ldy	$17                     ; 0x2017 <playMidi+0x17d>
    32b1: 84 15        	sty	$15                     ; 0x2015 <playMidi+0x17b>
    32b3: 18           	clc
    32b4: 69 0b        	adc	#$b
    32b6: 85 16        	sta	$16                     ; 0x2016 <playMidi+0x17c>
    32b8: a5 17        	lda	$17                     ; 0x2017 <playMidi+0x17d>
    32ba: 69 00        	adc	#$0
    32bc: 85 17        	sta	$17                     ; 0x2017 <playMidi+0x17d>
    32be: a0 0b        	ldy	#$b
    32c0: 8a           	txa
    32c1: 91 14        	sta	($14),y                 ; 0x2014 <playMidi+0x17a>
    32c3: a0 01        	ldy	#$1
    32c5: 86 1b        	stx	$1b                     ; 0x201b <playMidi+0x181>
    32c7: a5 18        	lda	$18                     ; 0x2018 <playMidi+0x17e>
    32c9: 91 16        	sta	($16),y                 ; 0x2016 <playMidi+0x17c>
    32cb: 85 1c        	sta	$1c                     ; 0x201c <playMidi+0x182>
    32cd: 4c 1d 33     	jmp	$331d <printf+0x541>
    32d0: a5 2e        	lda	$2e                     ; 0x202e <playMidi+0x194>
    32d2: 09 01        	ora	#$1
    32d4: 85 2e        	sta	$2e                     ; 0x202e <playMidi+0x194>
    32d6: 91 14        	sta	($14),y                 ; 0x2014 <playMidi+0x17a>
    32d8: a9 00        	lda	#$0
    32da: 38           	sec
    32db: e5 17        	sbc	$17                     ; 0x2017 <playMidi+0x17d>
    32dd: aa           	tax
    32de: a9 00        	lda	#$0
    32e0: e5 16        	sbc	$16                     ; 0x2016 <playMidi+0x17c>
    32e2: 85 18        	sta	$18                     ; 0x2018 <playMidi+0x17e>
    32e4: e6 14        	inc	$14                     ; 0x2014 <playMidi+0x17a>
    32e6: d0 02        	bne	$32ea <printf+0x50e>
    32e8: e6 15        	inc	$15                     ; 0x2015 <playMidi+0x17b>
    32ea: a9 00        	lda	#$0
    32ec: 91 14        	sta	($14),y                 ; 0x2014 <playMidi+0x17a>
    32ee: 18           	clc
    32ef: a5 10        	lda	$10                     ; 0x2010 <playMidi+0x176>
    32f1: 69 1e        	adc	#$1e
    32f3: 48           	pha
    32f4: a5 11        	lda	$11                     ; 0x2011 <playMidi+0x177>
    32f6: 69 00        	adc	#$0
    32f8: a8           	tay
    32f9: 68           	pla
    32fa: 85 14        	sta	$14                     ; 0x2014 <playMidi+0x17a>
    32fc: 84 15        	sty	$15                     ; 0x2015 <playMidi+0x17b>
    32fe: 18           	clc
    32ff: 69 0b        	adc	#$b
    3301: 85 16        	sta	$16                     ; 0x2016 <playMidi+0x17c>
    3303: 98           	tya
    3304: 69 00        	adc	#$0
    3306: 85 17        	sta	$17                     ; 0x2017 <playMidi+0x17d>
    3308: a0 0b        	ldy	#$b
    330a: 8a           	txa
    330b: 91 14        	sta	($14),y                 ; 0x2014 <playMidi+0x17a>
    330d: 86 1b        	stx	$1b                     ; 0x201b <playMidi+0x181>
    330f: a5 18        	lda	$18                     ; 0x2018 <playMidi+0x17e>
    3311: a0 01        	ldy	#$1
    3313: 91 16        	sta	($16),y                 ; 0x2016 <playMidi+0x17c>
    3315: 85 1c        	sta	$1c                     ; 0x201c <playMidi+0x182>
    3317: e6 12        	inc	$12                     ; 0x2012 <playMidi+0x178>
    3319: d0 02        	bne	$331d <printf+0x541>
    331b: e6 13        	inc	$13                     ; 0x2013 <playMidi+0x179>
    331d: b2 12        	lda	($12)                   ; 0x2012 <playMidi+0x178>
    331f: a2 ff        	ldx	#$ff
    3321: c9 2e        	cmp	#$2e
    3323: f0 03        	beq	$3328 <printf+0x54c>
    3325: 4c be 33     	jmp	$33be <printf+0x5e2>
    3328: b1 12        	lda	($12),y                 ; 0x2012 <playMidi+0x178>
    332a: c9 2a        	cmp	#$2a
    332c: f0 03        	beq	$3331 <printf+0x555>
    332e: 4c cc 33     	jmp	$33cc <printf+0x5f0>
    3331: 18           	clc
    3332: a5 10        	lda	$10                     ; 0x2010 <playMidi+0x176>
    3334: 69 1e        	adc	#$1e
    3336: aa           	tax
    3337: a0 01        	ldy	#$1
    3339: b0 02        	bcs	$333d <printf+0x561>
    333b: a0 00        	ldy	#$0
    333d: 84 1a        	sty	$1a                     ; 0x201a <playMidi+0x180>
    333f: 18           	clc
    3340: a5 10        	lda	$10                     ; 0x2010 <playMidi+0x176>
    3342: 69 1e        	adc	#$1e
    3344: 48           	pha
    3345: a5 11        	lda	$11                     ; 0x2011 <playMidi+0x177>
    3347: 69 00        	adc	#$0
    3349: a8           	tay
    334a: 68           	pla
    334b: 85 14        	sta	$14                     ; 0x2014 <playMidi+0x17a>
    334d: 84 15        	sty	$15                     ; 0x2015 <playMidi+0x17b>
    334f: 18           	clc
    3350: 69 11        	adc	#$11
    3352: 85 18        	sta	$18                     ; 0x2018 <playMidi+0x17e>
    3354: 98           	tya
    3355: 69 00        	adc	#$0
    3357: 85 19        	sta	$19                     ; 0x2019 <playMidi+0x17f>
    3359: a0 11        	ldy	#$11
    335b: b1 14        	lda	($14),y                 ; 0x2014 <playMidi+0x17a>
    335d: 85 16        	sta	$16                     ; 0x2016 <playMidi+0x17c>
    335f: a0 01        	ldy	#$1
    3361: b1 18        	lda	($18),y                 ; 0x2018 <playMidi+0x17e>
    3363: 85 1f        	sta	$1f                     ; 0x201f <playMidi+0x185>
    3365: a5 16        	lda	$16                     ; 0x2016 <playMidi+0x17c>
    3367: a4 1f        	ldy	$1f                     ; 0x201f <playMidi+0x185>
    3369: 84 17        	sty	$17                     ; 0x2017 <playMidi+0x17d>
    336b: 18           	clc
    336c: 69 02        	adc	#$2
    336e: 85 22        	sta	$22                     ; 0x2022 <playMidi+0x188>
    3370: a5 1f        	lda	$1f                     ; 0x201f <playMidi+0x185>
    3372: 69 00        	adc	#$0
    3374: 85 1f        	sta	$1f                     ; 0x201f <playMidi+0x185>
    3376: a4 1a        	ldy	$1a                     ; 0x201a <playMidi+0x180>
    3378: c0 01        	cpy	#$1
    337a: a5 11        	lda	$11                     ; 0x2011 <playMidi+0x177>
    337c: 69 00        	adc	#$0
    337e: 85 1a        	sta	$1a                     ; 0x201a <playMidi+0x180>
    3380: a5 22        	lda	$22                     ; 0x2022 <playMidi+0x188>
    3382: a0 11        	ldy	#$11
    3384: 91 14        	sta	($14),y                 ; 0x2014 <playMidi+0x17a>
    3386: a0 01        	ldy	#$1
    3388: a5 1f        	lda	$1f                     ; 0x201f <playMidi+0x185>
    338a: 91 18        	sta	($18),y                 ; 0x2018 <playMidi+0x17e>
    338c: 18           	clc
    338d: 8a           	txa
    338e: 69 0d        	adc	#$d
    3390: 85 18        	sta	$18                     ; 0x2018 <playMidi+0x17e>
    3392: a5 1a        	lda	$1a                     ; 0x201a <playMidi+0x180>
    3394: 69 00        	adc	#$0
    3396: 85 19        	sta	$19                     ; 0x2019 <playMidi+0x17f>
    3398: a5 12        	lda	$12                     ; 0x2012 <playMidi+0x178>
    339a: 18           	clc
    339b: 69 02        	adc	#$2
    339d: 85 12        	sta	$12                     ; 0x2012 <playMidi+0x178>
    339f: a5 13        	lda	$13                     ; 0x2013 <playMidi+0x179>
    33a1: 69 00        	adc	#$0
    33a3: 85 13        	sta	$13                     ; 0x2013 <playMidi+0x179>
    33a5: b2 16        	lda	($16)                   ; 0x2016 <playMidi+0x17c>
    33a7: 85 1a        	sta	$1a                     ; 0x201a <playMidi+0x180>
    33a9: b1 16        	lda	($16),y                 ; 0x2016 <playMidi+0x17c>
    33ab: aa           	tax
    33ac: a0 0d        	ldy	#$d
    33ae: a5 1a        	lda	$1a                     ; 0x201a <playMidi+0x180>
    33b0: 85 29        	sta	$29                     ; 0x2029 <playMidi+0x18f>
    33b2: 91 14        	sta	($14),y                 ; 0x2014 <playMidi+0x17a>
    33b4: a0 01        	ldy	#$1
    33b6: 8a           	txa
    33b7: 86 1f        	stx	$1f                     ; 0x201f <playMidi+0x185>
    33b9: 91 18        	sta	($18),y                 ; 0x2018 <playMidi+0x17e>
    33bb: 4c ba 34     	jmp	$34ba <printf+0x6de>
    33be: 86 29        	stx	$29                     ; 0x2029 <playMidi+0x18f>
    33c0: 48           	pha
    33c1: 8a           	txa
    33c2: 5a           	phy
    33c3: a0 13        	ldy	#$13
    33c5: 91 10        	sta	($10),y                 ; 0x2010 <playMidi+0x176>
    33c7: 7a           	ply
    33c8: 68           	pla
    33c9: 4c de 34     	jmp	$34de <printf+0x702>
    33cc: 85 17        	sta	$17                     ; 0x2017 <playMidi+0x17d>
    33ce: 18           	clc
    33cf: 69 d0        	adc	#$d0
    33d1: c9 0a        	cmp	#$a
    33d3: 90 03        	bcc	$33d8 <printf+0x5fc>
    33d5: 4c 8c 34     	jmp	$348c <printf+0x6b0>
    33d8: 64 16        	stz	$16                     ; 0x2016 <playMidi+0x17c>
    33da: a2 01        	ldx	#$1
    33dc: 64 18        	stz	$18                     ; 0x2018 <playMidi+0x17e>
    33de: 64 1f        	stz	$1f                     ; 0x201f <playMidi+0x185>
    33e0: 64 1a        	stz	$1a                     ; 0x201a <playMidi+0x180>
    33e2: 5a           	phy
    33e3: a4 1a        	ldy	$1a                     ; 0x201a <playMidi+0x180>
    33e5: 84 14        	sty	$14                     ; 0x2014 <playMidi+0x17a>
    33e7: 86 15        	stx	$15                     ; 0x2015 <playMidi+0x17b>
    33e9: 06 18        	asl	$18                     ; 0x2018 <playMidi+0x17e>
    33eb: a4 1f        	ldy	$1f                     ; 0x201f <playMidi+0x185>
    33ed: 84 19        	sty	$19                     ; 0x2019 <playMidi+0x17f>
    33ef: 26 19        	rol	$19                     ; 0x2019 <playMidi+0x17f>
    33f1: a5 18        	lda	$18                     ; 0x2018 <playMidi+0x17e>
    33f3: 0a           	asl
    33f4: a4 19        	ldy	$19                     ; 0x2019 <playMidi+0x17f>
    33f6: 84 1f        	sty	$1f                     ; 0x201f <playMidi+0x185>
    33f8: 26 1f        	rol	$1f                     ; 0x201f <playMidi+0x185>
    33fa: 0a           	asl
    33fb: 26 1f        	rol	$1f                     ; 0x201f <playMidi+0x185>
    33fd: 18           	clc
    33fe: 65 18        	adc	$18                     ; 0x2018 <playMidi+0x17e>
    3400: 85 22        	sta	$22                     ; 0x2022 <playMidi+0x188>
    3402: a5 1f        	lda	$1f                     ; 0x201f <playMidi+0x185>
    3404: 65 19        	adc	$19                     ; 0x2019 <playMidi+0x17f>
    3406: 85 18        	sta	$18                     ; 0x2018 <playMidi+0x17e>
    3408: 18           	clc
    3409: a5 22        	lda	$22                     ; 0x2022 <playMidi+0x188>
    340b: 65 17        	adc	$17                     ; 0x2017 <playMidi+0x17d>
    340d: 85 17        	sta	$17                     ; 0x2017 <playMidi+0x17d>
    340f: a5 18        	lda	$18                     ; 0x2018 <playMidi+0x17e>
    3411: 65 16        	adc	$16                     ; 0x2016 <playMidi+0x17c>
    3413: 85 16        	sta	$16                     ; 0x2016 <playMidi+0x17c>
    3415: 18           	clc
    3416: a5 17        	lda	$17                     ; 0x2017 <playMidi+0x17d>
    3418: 69 d0        	adc	#$d0
    341a: 85 17        	sta	$17                     ; 0x2017 <playMidi+0x17d>
    341c: a5 16        	lda	$16                     ; 0x2016 <playMidi+0x17c>
    341e: 69 ff        	adc	#$ff
    3420: 85 1f        	sta	$1f                     ; 0x201f <playMidi+0x185>
    3422: a4 17        	ldy	$17                     ; 0x2017 <playMidi+0x17d>
    3424: 84 18        	sty	$18                     ; 0x2018 <playMidi+0x17e>
    3426: e8           	inx
    3427: d0 02        	bne	$342b <printf+0x64f>
    3429: e6 1a        	inc	$1a                     ; 0x201a <playMidi+0x180>
    342b: a5 12        	lda	$12                     ; 0x2012 <playMidi+0x178>
    342d: 18           	clc
    342e: 65 15        	adc	$15                     ; 0x2015 <playMidi+0x17b>
    3430: 85 19        	sta	$19                     ; 0x2019 <playMidi+0x17f>
    3432: a5 13        	lda	$13                     ; 0x2013 <playMidi+0x179>
    3434: 65 14        	adc	$14                     ; 0x2014 <playMidi+0x17a>
    3436: a4 19        	ldy	$19                     ; 0x2019 <playMidi+0x17f>
    3438: 84 16        	sty	$16                     ; 0x2016 <playMidi+0x17c>
    343a: 7a           	ply
    343b: 85 17        	sta	$17                     ; 0x2017 <playMidi+0x17d>
    343d: b1 16        	lda	($16),y                 ; 0x2016 <playMidi+0x17c>
    343f: 85 17        	sta	$17                     ; 0x2017 <playMidi+0x17d>
    3441: 18           	clc
    3442: 69 d0        	adc	#$d0
    3444: c9 0a        	cmp	#$a
    3446: 64 16        	stz	$16                     ; 0x2016 <playMidi+0x17c>
    3448: b0 03        	bcs	$344d <printf+0x671>
    344a: 4c e2 33     	jmp	$33e2 <printf+0x606>
    344d: a5 12        	lda	$12                     ; 0x2012 <playMidi+0x178>
    344f: 18           	clc
    3450: 65 15        	adc	$15                     ; 0x2015 <playMidi+0x17b>
    3452: 85 12        	sta	$12                     ; 0x2012 <playMidi+0x178>
    3454: a5 13        	lda	$13                     ; 0x2013 <playMidi+0x179>
    3456: 65 14        	adc	$14                     ; 0x2014 <playMidi+0x17a>
    3458: 85 13        	sta	$13                     ; 0x2013 <playMidi+0x179>
    345a: 18           	clc
    345b: a5 10        	lda	$10                     ; 0x2010 <playMidi+0x176>
    345d: 69 1e        	adc	#$1e
    345f: 48           	pha
    3460: a5 11        	lda	$11                     ; 0x2011 <playMidi+0x177>
    3462: 69 00        	adc	#$0
    3464: a8           	tay
    3465: 68           	pla
    3466: 85 14        	sta	$14                     ; 0x2014 <playMidi+0x17a>
    3468: 84 15        	sty	$15                     ; 0x2015 <playMidi+0x17b>
    346a: 18           	clc
    346b: 69 0d        	adc	#$d
    346d: 85 16        	sta	$16                     ; 0x2016 <playMidi+0x17c>
    346f: 98           	tya
    3470: 69 00        	adc	#$0
    3472: 85 17        	sta	$17                     ; 0x2017 <playMidi+0x17d>
    3474: e6 12        	inc	$12                     ; 0x2012 <playMidi+0x178>
    3476: d0 02        	bne	$347a <printf+0x69e>
    3478: e6 13        	inc	$13                     ; 0x2013 <playMidi+0x179>
    347a: a0 0d        	ldy	#$d
    347c: a5 18        	lda	$18                     ; 0x2018 <playMidi+0x17e>
    347e: 91 14        	sta	($14),y                 ; 0x2014 <playMidi+0x17a>
    3480: a6 18        	ldx	$18                     ; 0x2018 <playMidi+0x17e>
    3482: a5 1f        	lda	$1f                     ; 0x201f <playMidi+0x185>
    3484: a0 01        	ldy	#$1
    3486: 91 16        	sta	($16),y                 ; 0x2016 <playMidi+0x17c>
    3488: 86 29        	stx	$29                     ; 0x2029 <playMidi+0x18f>
    348a: 80 2e        	bra	$34ba <printf+0x6de>
    348c: e6 12        	inc	$12                     ; 0x2012 <playMidi+0x178>
    348e: d0 02        	bne	$3492 <printf+0x6b6>
    3490: e6 13        	inc	$13                     ; 0x2013 <playMidi+0x179>
    3492: 18           	clc
    3493: a5 10        	lda	$10                     ; 0x2010 <playMidi+0x176>
    3495: 69 1e        	adc	#$1e
    3497: 48           	pha
    3498: a5 11        	lda	$11                     ; 0x2011 <playMidi+0x177>
    349a: 69 00        	adc	#$0
    349c: aa           	tax
    349d: 68           	pla
    349e: 85 14        	sta	$14                     ; 0x2014 <playMidi+0x17a>
    34a0: 86 15        	stx	$15                     ; 0x2015 <playMidi+0x17b>
    34a2: 18           	clc
    34a3: 69 0d        	adc	#$d
    34a5: 85 16        	sta	$16                     ; 0x2016 <playMidi+0x17c>
    34a7: 8a           	txa
    34a8: 69 00        	adc	#$0
    34aa: 85 17        	sta	$17                     ; 0x2017 <playMidi+0x17d>
    34ac: a9 00        	lda	#$0
    34ae: a0 0d        	ldy	#$d
    34b0: 91 14        	sta	($14),y                 ; 0x2014 <playMidi+0x17a>
    34b2: a0 01        	ldy	#$1
    34b4: 64 29        	stz	$29                     ; 0x2029 <playMidi+0x18f>
    34b6: 91 16        	sta	($16),y                 ; 0x2016 <playMidi+0x17c>
    34b8: 64 1f        	stz	$1f                     ; 0x201f <playMidi+0x185>
    34ba: a5 2e        	lda	$2e                     ; 0x202e <playMidi+0x194>
    34bc: 29 ef        	and	#$ef
    34be: a6 1e        	ldx	$1e                     ; 0x201e <playMidi+0x184>
    34c0: 86 14        	stx	$14                     ; 0x2014 <playMidi+0x17a>
    34c2: a6 1d        	ldx	$1d                     ; 0x201d <playMidi+0x183>
    34c4: 86 15        	stx	$15                     ; 0x2015 <playMidi+0x17b>
    34c6: 85 2e        	sta	$2e                     ; 0x202e <playMidi+0x194>
    34c8: 91 14        	sta	($14),y                 ; 0x2014 <playMidi+0x17a>
    34ca: e6 14        	inc	$14                     ; 0x2014 <playMidi+0x17a>
    34cc: d0 02        	bne	$34d0 <printf+0x6f4>
    34ce: e6 15        	inc	$15                     ; 0x2015 <playMidi+0x17b>
    34d0: a9 00        	lda	#$0
    34d2: 91 14        	sta	($14),y                 ; 0x2014 <playMidi+0x17a>
    34d4: a5 1f        	lda	$1f                     ; 0x201f <playMidi+0x185>
    34d6: 5a           	phy
    34d7: a0 13        	ldy	#$13
    34d9: 91 10        	sta	($10),y                 ; 0x2010 <playMidi+0x176>
    34db: 7a           	ply
    34dc: b2 12        	lda	($12)                   ; 0x2012 <playMidi+0x178>
    34de: a6 12        	ldx	$12                     ; 0x2012 <playMidi+0x178>
    34e0: 86 26        	stx	$26                     ; 0x2026 <playMidi+0x18c>
    34e2: a6 13        	ldx	$13                     ; 0x2013 <playMidi+0x179>
    34e4: 86 27        	stx	$27                     ; 0x2027 <playMidi+0x18d>
    34e6: e6 26        	inc	$26                     ; 0x2026 <playMidi+0x18c>
    34e8: d0 02        	bne	$34ec <printf+0x710>
    34ea: e6 27        	inc	$27                     ; 0x2027 <playMidi+0x18d>
    34ec: aa           	tax
    34ed: 38           	sec
    34ee: e9 6c        	sbc	#$6c
    34f0: 50 02        	bvc	$34f4 <printf+0x718>
    34f2: 49 80        	eor	#$80
    34f4: c9 00        	cmp	#$0
    34f6: 10 27        	bpl	$351f <printf+0x743>
    34f8: e0 4c        	cpx	#$4c
    34fa: f0 3c        	beq	$3538 <printf+0x75c>
    34fc: 8a           	txa
    34fd: e0 68        	cpx	#$68
    34ff: d0 03        	bne	$3504 <printf+0x728>
    3501: 4c f2 35     	jmp	$35f2 <printf+0x816>
    3504: 48           	pha
    3505: a5 29        	lda	$29                     ; 0x2029 <playMidi+0x18f>
    3507: 5a           	phy
    3508: a0 12        	ldy	#$12
    350a: 91 10        	sta	($10),y                 ; 0x2010 <playMidi+0x176>
    350c: 7a           	ply
    350d: 68           	pla
    350e: a2 08        	ldx	#$8
    3510: c9 6a        	cmp	#$6a
    3512: d0 4e        	bne	$3562 <printf+0x786>
    3514: a5 26        	lda	$26                     ; 0x2026 <playMidi+0x18c>
    3516: 85 12        	sta	$12                     ; 0x2012 <playMidi+0x178>
    3518: a5 27        	lda	$27                     ; 0x2027 <playMidi+0x18d>
    351a: 85 13        	sta	$13                     ; 0x2013 <playMidi+0x179>
    351c: 4c 89 35     	jmp	$3589 <printf+0x7ad>
    351f: e0 6c        	cpx	#$6c
    3521: f0 44        	beq	$3567 <printf+0x78b>
    3523: e0 74        	cpx	#$74
    3525: d0 03        	bne	$352a <printf+0x74e>
    3527: 4c 1f 36     	jmp	$361f <printf+0x843>
    352a: a5 29        	lda	$29                     ; 0x2029 <playMidi+0x18f>
    352c: 5a           	phy
    352d: a0 12        	ldy	#$12
    352f: 91 10        	sta	($10),y                 ; 0x2010 <playMidi+0x176>
    3531: 7a           	ply
    3532: e0 7a        	cpx	#$7a
    3534: f0 24        	beq	$355a <printf+0x77e>
    3536: 80 2a        	bra	$3562 <printf+0x786>
    3538: a5 29        	lda	$29                     ; 0x2029 <playMidi+0x18f>
    353a: 5a           	phy
    353b: a0 12        	ldy	#$12
    353d: 91 10        	sta	($10),y                 ; 0x2010 <playMidi+0x176>
    353f: 7a           	ply
    3540: a5 2e        	lda	$2e                     ; 0x202e <playMidi+0x194>
    3542: 09 40        	ora	#$40
    3544: a6 1e        	ldx	$1e                     ; 0x201e <playMidi+0x184>
    3546: 86 12        	stx	$12                     ; 0x2012 <playMidi+0x178>
    3548: a6 1d        	ldx	$1d                     ; 0x201d <playMidi+0x183>
    354a: 86 13        	stx	$13                     ; 0x2013 <playMidi+0x179>
    354c: 85 2e        	sta	$2e                     ; 0x202e <playMidi+0x194>
    354e: 91 12        	sta	($12),y                 ; 0x2012 <playMidi+0x178>
    3550: e6 12        	inc	$12                     ; 0x2012 <playMidi+0x178>
    3552: d0 02        	bne	$3556 <printf+0x77a>
    3554: e6 13        	inc	$13                     ; 0x2013 <playMidi+0x179>
    3556: a9 00        	lda	#$0
    3558: 91 12        	sta	($12),y                 ; 0x2012 <playMidi+0x178>
    355a: a6 26        	ldx	$26                     ; 0x2026 <playMidi+0x18c>
    355c: 86 12        	stx	$12                     ; 0x2012 <playMidi+0x178>
    355e: a6 27        	ldx	$27                     ; 0x2027 <playMidi+0x18d>
    3560: 86 13        	stx	$13                     ; 0x2013 <playMidi+0x179>
    3562: a2 02        	ldx	#$2
    3564: 8a           	txa
    3565: 80 24        	bra	$358b <printf+0x7af>
    3567: a5 29        	lda	$29                     ; 0x2029 <playMidi+0x18f>
    3569: 5a           	phy
    356a: a0 12        	ldy	#$12
    356c: 91 10        	sta	($10),y                 ; 0x2010 <playMidi+0x176>
    356e: 7a           	ply
    356f: b1 12        	lda	($12),y                 ; 0x2012 <playMidi+0x178>
    3571: a2 04        	ldx	#$4
    3573: c9 6c        	cmp	#$6c
    3575: f0 03        	beq	$357a <printf+0x79e>
    3577: 4c 76 3b     	jmp	$3b76 <printf+0xd9a>
    357a: a5 12        	lda	$12                     ; 0x2012 <playMidi+0x178>
    357c: 18           	clc
    357d: 69 02        	adc	#$2
    357f: 85 12        	sta	$12                     ; 0x2012 <playMidi+0x178>
    3581: a5 13        	lda	$13                     ; 0x2013 <playMidi+0x179>
    3583: 69 00        	adc	#$0
    3585: 85 13        	sta	$13                     ; 0x2013 <playMidi+0x179>
    3587: a2 08        	ldx	#$8
    3589: a9 08        	lda	#$8
    358b: 5a           	phy
    358c: a0 1a        	ldy	#$1a
    358e: 91 10        	sta	($10),y                 ; 0x2010 <playMidi+0x176>
    3590: 7a           	ply
    3591: b2 12        	lda	($12)                   ; 0x2012 <playMidi+0x178>
    3593: 5a           	phy
    3594: a4 12        	ldy	$12                     ; 0x2012 <playMidi+0x178>
    3596: 84 26        	sty	$26                     ; 0x2026 <playMidi+0x18c>
    3598: a4 13        	ldy	$13                     ; 0x2013 <playMidi+0x179>
    359a: 84 27        	sty	$27                     ; 0x2027 <playMidi+0x18d>
    359c: 7a           	ply
    359d: 86 12        	stx	$12                     ; 0x2012 <playMidi+0x178>
    359f: aa           	tax
    35a0: 18           	clc
    35a1: 69 9d        	adc	#$9d
    35a3: c9 16        	cmp	#$16
    35a5: 90 03        	bcc	$35aa <printf+0x7ce>
    35a7: 4c 34 36     	jmp	$3634 <printf+0x858>
    35aa: 0a           	asl
    35ab: aa           	tax
    35ac: 7c 22 50     	jmp	($5022,x)               ; 0x5022 <__set_v+0xc3>
    35af: a5 12        	lda	$12                     ; 0x2012 <playMidi+0x178>
    35b1: a0 11        	ldy	#$11
    35b3: 91 10        	sta	($10),y                 ; 0x2010 <playMidi+0x176>
    35b5: a5 1c        	lda	$1c                     ; 0x201c <playMidi+0x182>
    35b7: a0 0f        	ldy	#$f
    35b9: 91 10        	sta	($10),y                 ; 0x2010 <playMidi+0x176>
    35bb: a5 1b        	lda	$1b                     ; 0x201b <playMidi+0x181>
    35bd: 88           	dey
    35be: 91 10        	sta	($10),y                 ; 0x2010 <playMidi+0x176>
    35c0: a5 24        	lda	$24                     ; 0x2024 <playMidi+0x18a>
    35c2: a0 14        	ldy	#$14
    35c4: 91 10        	sta	($10),y                 ; 0x2010 <playMidi+0x176>
    35c6: a5 25        	lda	$25                     ; 0x2025 <playMidi+0x18b>
    35c8: c8           	iny
    35c9: 91 10        	sta	($10),y                 ; 0x2010 <playMidi+0x176>
    35cb: a5 26        	lda	$26                     ; 0x2026 <playMidi+0x18c>
    35cd: c8           	iny
    35ce: 91 10        	sta	($10),y                 ; 0x2010 <playMidi+0x176>
    35d0: a5 27        	lda	$27                     ; 0x2027 <playMidi+0x18d>
    35d2: c8           	iny
    35d3: 91 10        	sta	($10),y                 ; 0x2010 <playMidi+0x176>
    35d5: a6 1e        	ldx	$1e                     ; 0x201e <playMidi+0x184>
    35d7: 86 12        	stx	$12                     ; 0x2012 <playMidi+0x178>
    35d9: a6 1d        	ldx	$1d                     ; 0x201d <playMidi+0x183>
    35db: 86 13        	stx	$13                     ; 0x2013 <playMidi+0x179>
    35dd: a9 0a        	lda	#$a
    35df: aa           	tax
    35e0: 48           	pha
    35e1: 8a           	txa
    35e2: a0 1b        	ldy	#$1b
    35e4: 91 10        	sta	($10),y                 ; 0x2010 <playMidi+0x176>
    35e6: 68           	pla
    35e7: 92 12        	sta	($12)                   ; 0x2012 <playMidi+0x178>
    35e9: 64 12        	stz	$12                     ; 0x2012 <playMidi+0x178>
    35eb: a9 00        	lda	#$0
    35ed: a0 10        	ldy	#$10
    35ef: 4c 0c 37     	jmp	$370c <printf+0x930>
    35f2: a5 29        	lda	$29                     ; 0x2029 <playMidi+0x18f>
    35f4: 5a           	phy
    35f5: a0 12        	ldy	#$12
    35f7: 91 10        	sta	($10),y                 ; 0x2010 <playMidi+0x176>
    35f9: 7a           	ply
    35fa: b1 12        	lda	($12),y                 ; 0x2012 <playMidi+0x178>
    35fc: a2 02        	ldx	#$2
    35fe: c9 68        	cmp	#$68
    3600: f0 03        	beq	$3605 <printf+0x829>
    3602: 4c 7c 3b     	jmp	$3b7c <printf+0xda0>
    3605: a5 12        	lda	$12                     ; 0x2012 <playMidi+0x178>
    3607: 18           	clc
    3608: 69 02        	adc	#$2
    360a: 85 12        	sta	$12                     ; 0x2012 <playMidi+0x178>
    360c: a5 13        	lda	$13                     ; 0x2013 <playMidi+0x179>
    360e: 69 00        	adc	#$0
    3610: 85 13        	sta	$13                     ; 0x2013 <playMidi+0x179>
    3612: a2 01        	ldx	#$1
    3614: 8a           	txa
    3615: 5a           	phy
    3616: a0 1a        	ldy	#$1a
    3618: 91 10        	sta	($10),y                 ; 0x2010 <playMidi+0x176>
    361a: 7a           	ply
    361b: e8           	inx
    361c: 4c 91 35     	jmp	$3591 <printf+0x7b5>
    361f: 5a           	phy
    3620: a5 29        	lda	$29                     ; 0x2029 <playMidi+0x18f>
    3622: a0 12        	ldy	#$12
    3624: 91 10        	sta	($10),y                 ; 0x2010 <playMidi+0x176>
    3626: a6 26        	ldx	$26                     ; 0x2026 <playMidi+0x18c>
    3628: 86 12        	stx	$12                     ; 0x2012 <playMidi+0x178>
    362a: a6 27        	ldx	$27                     ; 0x2027 <playMidi+0x18d>
    362c: 86 13        	stx	$13                     ; 0x2013 <playMidi+0x179>
    362e: a2 02        	ldx	#$2
    3630: 8a           	txa
    3631: 4c 8c 35     	jmp	$358c <printf+0x7b0>
    3634: e0 58        	cpx	#$58
    3636: f0 03        	beq	$363b <printf+0x85f>
    3638: 4c 94 47     	jmp	$4794 <printf+0x19b8>
    363b: 5a           	phy
    363c: a5 12        	lda	$12                     ; 0x2012 <playMidi+0x178>
    363e: a0 11        	ldy	#$11
    3640: 91 10        	sta	($10),y                 ; 0x2010 <playMidi+0x176>
    3642: a5 1c        	lda	$1c                     ; 0x201c <playMidi+0x182>
    3644: a0 0f        	ldy	#$f
    3646: 91 10        	sta	($10),y                 ; 0x2010 <playMidi+0x176>
    3648: a5 1b        	lda	$1b                     ; 0x201b <playMidi+0x181>
    364a: 88           	dey
    364b: 91 10        	sta	($10),y                 ; 0x2010 <playMidi+0x176>
    364d: a5 24        	lda	$24                     ; 0x2024 <playMidi+0x18a>
    364f: a0 14        	ldy	#$14
    3651: 91 10        	sta	($10),y                 ; 0x2010 <playMidi+0x176>
    3653: a5 25        	lda	$25                     ; 0x2025 <playMidi+0x18b>
    3655: c8           	iny
    3656: 91 10        	sta	($10),y                 ; 0x2010 <playMidi+0x176>
    3658: a5 26        	lda	$26                     ; 0x2026 <playMidi+0x18c>
    365a: c8           	iny
    365b: 91 10        	sta	($10),y                 ; 0x2010 <playMidi+0x176>
    365d: a5 27        	lda	$27                     ; 0x2027 <playMidi+0x18d>
    365f: c8           	iny
    3660: 91 10        	sta	($10),y                 ; 0x2010 <playMidi+0x176>
    3662: 7a           	ply
    3663: a6 1e        	ldx	$1e                     ; 0x201e <playMidi+0x184>
    3665: 86 12        	stx	$12                     ; 0x2012 <playMidi+0x178>
    3667: a6 1d        	ldx	$1d                     ; 0x201d <playMidi+0x183>
    3669: 86 13        	stx	$13                     ; 0x2013 <playMidi+0x179>
    366b: a9 10        	lda	#$10
    366d: 92 12        	sta	($12)                   ; 0x2012 <playMidi+0x178>
    366f: a9 00        	lda	#$0
    3671: 09 01        	ora	#$1
    3673: aa           	tax
    3674: a5 2e        	lda	$2e                     ; 0x202e <playMidi+0x194>
    3676: 4c f6 36     	jmp	$36f6 <printf+0x91a>
    3679: 5a           	phy
    367a: a5 12        	lda	$12                     ; 0x2012 <playMidi+0x178>
    367c: a0 11        	ldy	#$11
    367e: 91 10        	sta	($10),y                 ; 0x2010 <playMidi+0x176>
    3680: a5 1c        	lda	$1c                     ; 0x201c <playMidi+0x182>
    3682: a0 0f        	ldy	#$f
    3684: 91 10        	sta	($10),y                 ; 0x2010 <playMidi+0x176>
    3686: a5 1b        	lda	$1b                     ; 0x201b <playMidi+0x181>
    3688: 88           	dey
    3689: 91 10        	sta	($10),y                 ; 0x2010 <playMidi+0x176>
    368b: a5 24        	lda	$24                     ; 0x2024 <playMidi+0x18a>
    368d: a0 14        	ldy	#$14
    368f: 91 10        	sta	($10),y                 ; 0x2010 <playMidi+0x176>
    3691: a5 25        	lda	$25                     ; 0x2025 <playMidi+0x18b>
    3693: c8           	iny
    3694: 91 10        	sta	($10),y                 ; 0x2010 <playMidi+0x176>
    3696: a5 26        	lda	$26                     ; 0x2026 <playMidi+0x18c>
    3698: c8           	iny
    3699: 91 10        	sta	($10),y                 ; 0x2010 <playMidi+0x176>
    369b: a5 27        	lda	$27                     ; 0x2027 <playMidi+0x18d>
    369d: c8           	iny
    369e: 91 10        	sta	($10),y                 ; 0x2010 <playMidi+0x176>
    36a0: 7a           	ply
    36a1: a6 1e        	ldx	$1e                     ; 0x201e <playMidi+0x184>
    36a3: 86 12        	stx	$12                     ; 0x2012 <playMidi+0x178>
    36a5: a6 1d        	ldx	$1d                     ; 0x201d <playMidi+0x183>
    36a7: 86 13        	stx	$13                     ; 0x2013 <playMidi+0x179>
    36a9: a9 10        	lda	#$10
    36ab: 92 12        	sta	($12)                   ; 0x2012 <playMidi+0x178>
    36ad: a5 2e        	lda	$2e                     ; 0x202e <playMidi+0x194>
    36af: 09 84        	ora	#$84
    36b1: 80 38        	bra	$36eb <printf+0x90f>
    36b3: 5a           	phy
    36b4: a5 12        	lda	$12                     ; 0x2012 <playMidi+0x178>
    36b6: a0 11        	ldy	#$11
    36b8: 91 10        	sta	($10),y                 ; 0x2010 <playMidi+0x176>
    36ba: a5 1c        	lda	$1c                     ; 0x201c <playMidi+0x182>
    36bc: a0 0f        	ldy	#$f
    36be: 91 10        	sta	($10),y                 ; 0x2010 <playMidi+0x176>
    36c0: a5 1b        	lda	$1b                     ; 0x201b <playMidi+0x181>
    36c2: 88           	dey
    36c3: 91 10        	sta	($10),y                 ; 0x2010 <playMidi+0x176>
    36c5: a5 24        	lda	$24                     ; 0x2024 <playMidi+0x18a>
    36c7: a0 14        	ldy	#$14
    36c9: 91 10        	sta	($10),y                 ; 0x2010 <playMidi+0x176>
    36cb: a5 25        	lda	$25                     ; 0x2025 <playMidi+0x18b>
    36cd: c8           	iny
    36ce: 91 10        	sta	($10),y                 ; 0x2010 <playMidi+0x176>
    36d0: a5 26        	lda	$26                     ; 0x2026 <playMidi+0x18c>
    36d2: c8           	iny
    36d3: 91 10        	sta	($10),y                 ; 0x2010 <playMidi+0x176>
    36d5: a5 27        	lda	$27                     ; 0x2027 <playMidi+0x18d>
    36d7: c8           	iny
    36d8: 91 10        	sta	($10),y                 ; 0x2010 <playMidi+0x176>
    36da: 7a           	ply
    36db: a6 1e        	ldx	$1e                     ; 0x201e <playMidi+0x184>
    36dd: 86 12        	stx	$12                     ; 0x2012 <playMidi+0x178>
    36df: a6 1d        	ldx	$1d                     ; 0x201d <playMidi+0x183>
    36e1: 86 13        	stx	$13                     ; 0x2013 <playMidi+0x179>
    36e3: a9 10        	lda	#$10
    36e5: 92 12        	sta	($12)                   ; 0x2012 <playMidi+0x178>
    36e7: a5 2e        	lda	$2e                     ; 0x202e <playMidi+0x194>
    36e9: 09 80        	ora	#$80
    36eb: 85 14        	sta	$14                     ; 0x2014 <playMidi+0x17a>
    36ed: a9 00        	lda	#$0
    36ef: 09 01        	ora	#$1
    36f1: aa           	tax
    36f2: a5 14        	lda	$14                     ; 0x2014 <playMidi+0x17a>
    36f4: 85 2e        	sta	$2e                     ; 0x202e <playMidi+0x194>
    36f6: 91 12        	sta	($12),y                 ; 0x2012 <playMidi+0x178>
    36f8: e6 12        	inc	$12                     ; 0x2012 <playMidi+0x178>
    36fa: d0 02        	bne	$36fe <printf+0x922>
    36fc: e6 13        	inc	$13                     ; 0x2013 <playMidi+0x179>
    36fe: 8a           	txa
    36ff: 5a           	phy
    3700: a0 10        	ldy	#$10
    3702: 91 10        	sta	($10),y                 ; 0x2010 <playMidi+0x176>
    3704: 7a           	ply
    3705: 91 12        	sta	($12),y                 ; 0x2012 <playMidi+0x178>
    3707: a2 10        	ldx	#$10
    3709: 8a           	txa
    370a: a0 1b        	ldy	#$1b
    370c: 91 10        	sta	($10),y                 ; 0x2010 <playMidi+0x176>
    370e: 4c cc 38     	jmp	$38cc <printf+0xaf0>
    3711: 18           	clc
    3712: a5 10        	lda	$10                     ; 0x2010 <playMidi+0x176>
    3714: 69 1e        	adc	#$1e
    3716: aa           	tax
    3717: a0 01        	ldy	#$1
    3719: b0 02        	bcs	$371d <printf+0x941>
    371b: a0 00        	ldy	#$0
    371d: 84 18        	sty	$18                     ; 0x2018 <playMidi+0x17e>
    371f: 18           	clc
    3720: a5 10        	lda	$10                     ; 0x2010 <playMidi+0x176>
    3722: 69 1e        	adc	#$1e
    3724: 48           	pha
    3725: a5 11        	lda	$11                     ; 0x2011 <playMidi+0x177>
    3727: 69 00        	adc	#$0
    3729: a8           	tay
    372a: 68           	pla
    372b: 85 12        	sta	$12                     ; 0x2012 <playMidi+0x178>
    372d: 84 13        	sty	$13                     ; 0x2013 <playMidi+0x179>
    372f: 18           	clc
    3730: 69 11        	adc	#$11
    3732: 85 14        	sta	$14                     ; 0x2014 <playMidi+0x17a>
    3734: 98           	tya
    3735: 69 00        	adc	#$0
    3737: 85 15        	sta	$15                     ; 0x2015 <playMidi+0x17b>
    3739: a0 11        	ldy	#$11
    373b: b1 12        	lda	($12),y                 ; 0x2012 <playMidi+0x178>
    373d: 85 16        	sta	$16                     ; 0x2016 <playMidi+0x17c>
    373f: a0 01        	ldy	#$1
    3741: b1 14        	lda	($14),y                 ; 0x2014 <playMidi+0x17a>
    3743: a8           	tay
    3744: a5 16        	lda	$16                     ; 0x2016 <playMidi+0x17c>
    3746: 84 17        	sty	$17                     ; 0x2017 <playMidi+0x17d>
    3748: 18           	clc
    3749: 69 02        	adc	#$2
    374b: 85 1a        	sta	$1a                     ; 0x201a <playMidi+0x180>
    374d: 98           	tya
    374e: 69 00        	adc	#$0
    3750: 85 19        	sta	$19                     ; 0x2019 <playMidi+0x17f>
    3752: a4 18        	ldy	$18                     ; 0x2018 <playMidi+0x17e>
    3754: c0 01        	cpy	#$1
    3756: a5 11        	lda	$11                     ; 0x2011 <playMidi+0x177>
    3758: 69 00        	adc	#$0
    375a: 85 18        	sta	$18                     ; 0x2018 <playMidi+0x17e>
    375c: a0 11        	ldy	#$11
    375e: a5 1a        	lda	$1a                     ; 0x201a <playMidi+0x180>
    3760: 91 12        	sta	($12),y                 ; 0x2012 <playMidi+0x178>
    3762: a0 01        	ldy	#$1
    3764: a5 19        	lda	$19                     ; 0x2019 <playMidi+0x17f>
    3766: 91 14        	sta	($14),y                 ; 0x2014 <playMidi+0x17a>
    3768: b2 16        	lda	($16)                   ; 0x2016 <playMidi+0x17c>
    376a: 85 14        	sta	$14                     ; 0x2014 <playMidi+0x17a>
    376c: b1 16        	lda	($16),y                 ; 0x2016 <playMidi+0x17c>
    376e: 85 15        	sta	$15                     ; 0x2015 <playMidi+0x17b>
    3770: 18           	clc
    3771: 8a           	txa
    3772: 69 05        	adc	#$5
    3774: 85 16        	sta	$16                     ; 0x2016 <playMidi+0x17c>
    3776: a5 18        	lda	$18                     ; 0x2018 <playMidi+0x17e>
    3778: 69 00        	adc	#$0
    377a: 85 17        	sta	$17                     ; 0x2017 <playMidi+0x17d>
    377c: a0 05        	ldy	#$5
    377e: b1 12        	lda	($12),y                 ; 0x2012 <playMidi+0x178>
    3780: 85 13        	sta	$13                     ; 0x2013 <playMidi+0x179>
    3782: a0 01        	ldy	#$1
    3784: b1 16        	lda	($16),y                 ; 0x2016 <playMidi+0x17c>
    3786: 85 12        	sta	$12                     ; 0x2012 <playMidi+0x178>
    3788: a5 13        	lda	$13                     ; 0x2013 <playMidi+0x179>
    378a: 92 14        	sta	($14)                   ; 0x2014 <playMidi+0x17a>
    378c: a5 12        	lda	$12                     ; 0x2012 <playMidi+0x178>
    378e: 91 14        	sta	($14),y                 ; 0x2014 <playMidi+0x17a>
    3790: 4c 6b 38     	jmp	$386b <printf+0xa8f>
    3793: 18           	clc
    3794: a5 10        	lda	$10                     ; 0x2010 <playMidi+0x176>
    3796: 69 1e        	adc	#$1e
    3798: 48           	pha
    3799: a5 11        	lda	$11                     ; 0x2011 <playMidi+0x177>
    379b: 69 00        	adc	#$0
    379d: aa           	tax
    379e: 68           	pla
    379f: 85 14        	sta	$14                     ; 0x2014 <playMidi+0x17a>
    37a1: 86 15        	stx	$15                     ; 0x2015 <playMidi+0x17b>
    37a3: 18           	clc
    37a4: 69 11        	adc	#$11
    37a6: 85 12        	sta	$12                     ; 0x2012 <playMidi+0x178>
    37a8: 8a           	txa
    37a9: 69 00        	adc	#$0
    37ab: 85 13        	sta	$13                     ; 0x2013 <playMidi+0x179>
    37ad: a0 11        	ldy	#$11
    37af: b1 14        	lda	($14),y                 ; 0x2014 <playMidi+0x17a>
    37b1: 85 16        	sta	$16                     ; 0x2016 <playMidi+0x17c>
    37b3: a0 01        	ldy	#$1
    37b5: b1 12        	lda	($12),y                 ; 0x2012 <playMidi+0x178>
    37b7: aa           	tax
    37b8: a5 16        	lda	$16                     ; 0x2016 <playMidi+0x17c>
    37ba: 86 17        	stx	$17                     ; 0x2017 <playMidi+0x17d>
    37bc: 18           	clc
    37bd: 69 02        	adc	#$2
    37bf: 85 19        	sta	$19                     ; 0x2019 <playMidi+0x17f>
    37c1: 8a           	txa
    37c2: 69 00        	adc	#$0
    37c4: 85 18        	sta	$18                     ; 0x2018 <playMidi+0x17e>
    37c6: a0 11        	ldy	#$11
    37c8: a5 19        	lda	$19                     ; 0x2019 <playMidi+0x17f>
    37ca: 91 14        	sta	($14),y                 ; 0x2014 <playMidi+0x17a>
    37cc: a5 18        	lda	$18                     ; 0x2018 <playMidi+0x17e>
    37ce: a0 01        	ldy	#$1
    37d0: 91 12        	sta	($12),y                 ; 0x2012 <playMidi+0x178>
    37d2: b2 16        	lda	($16)                   ; 0x2016 <playMidi+0x17c>
    37d4: 85 12        	sta	$12                     ; 0x2012 <playMidi+0x178>
    37d6: b1 16        	lda	($16),y                 ; 0x2016 <playMidi+0x17c>
    37d8: 85 13        	sta	$13                     ; 0x2013 <playMidi+0x179>
    37da: 4c 66 38     	jmp	$3866 <printf+0xa8a>
    37dd: 84 21        	sty	$21                     ; 0x2021 <playMidi+0x187>
    37df: a5 12        	lda	$12                     ; 0x2012 <playMidi+0x178>
    37e1: a0 11        	ldy	#$11
    37e3: 91 10        	sta	($10),y                 ; 0x2010 <playMidi+0x176>
    37e5: a5 1c        	lda	$1c                     ; 0x201c <playMidi+0x182>
    37e7: a0 0f        	ldy	#$f
    37e9: 91 10        	sta	($10),y                 ; 0x2010 <playMidi+0x176>
    37eb: a5 1b        	lda	$1b                     ; 0x201b <playMidi+0x181>
    37ed: 88           	dey
    37ee: 91 10        	sta	($10),y                 ; 0x2010 <playMidi+0x176>
    37f0: a5 24        	lda	$24                     ; 0x2024 <playMidi+0x18a>
    37f2: a0 14        	ldy	#$14
    37f4: 91 10        	sta	($10),y                 ; 0x2010 <playMidi+0x176>
    37f6: a5 25        	lda	$25                     ; 0x2025 <playMidi+0x18b>
    37f8: c8           	iny
    37f9: 91 10        	sta	($10),y                 ; 0x2010 <playMidi+0x176>
    37fb: a5 26        	lda	$26                     ; 0x2026 <playMidi+0x18c>
    37fd: c8           	iny
    37fe: 91 10        	sta	($10),y                 ; 0x2010 <playMidi+0x176>
    3800: a5 27        	lda	$27                     ; 0x2027 <playMidi+0x18d>
    3802: c8           	iny
    3803: 91 10        	sta	($10),y                 ; 0x2010 <playMidi+0x176>
    3805: a6 1e        	ldx	$1e                     ; 0x201e <playMidi+0x184>
    3807: 86 12        	stx	$12                     ; 0x2012 <playMidi+0x178>
    3809: a6 1d        	ldx	$1d                     ; 0x201d <playMidi+0x183>
    380b: 86 13        	stx	$13                     ; 0x2013 <playMidi+0x179>
    380d: a9 08        	lda	#$8
    380f: 4c a8 38     	jmp	$38a8 <printf+0xacc>
    3812: 18           	clc
    3813: a5 10        	lda	$10                     ; 0x2010 <playMidi+0x176>
    3815: 69 1e        	adc	#$1e
    3817: 48           	pha
    3818: a5 11        	lda	$11                     ; 0x2011 <playMidi+0x177>
    381a: 69 00        	adc	#$0
    381c: aa           	tax
    381d: 68           	pla
    381e: 85 14        	sta	$14                     ; 0x2014 <playMidi+0x17a>
    3820: 86 15        	stx	$15                     ; 0x2015 <playMidi+0x17b>
    3822: 18           	clc
    3823: 69 11        	adc	#$11
    3825: 85 12        	sta	$12                     ; 0x2012 <playMidi+0x178>
    3827: 8a           	txa
    3828: 69 00        	adc	#$0
    382a: 85 13        	sta	$13                     ; 0x2013 <playMidi+0x179>
    382c: a0 11        	ldy	#$11
    382e: b1 14        	lda	($14),y                 ; 0x2014 <playMidi+0x17a>
    3830: 85 16        	sta	$16                     ; 0x2016 <playMidi+0x17c>
    3832: a0 01        	ldy	#$1
    3834: b1 12        	lda	($12),y                 ; 0x2012 <playMidi+0x178>
    3836: aa           	tax
    3837: a5 16        	lda	$16                     ; 0x2016 <playMidi+0x17c>
    3839: 86 17        	stx	$17                     ; 0x2017 <playMidi+0x17d>
    383b: 18           	clc
    383c: 69 02        	adc	#$2
    383e: 85 19        	sta	$19                     ; 0x2019 <playMidi+0x17f>
    3840: 8a           	txa
    3841: 69 00        	adc	#$0
    3843: 85 18        	sta	$18                     ; 0x2018 <playMidi+0x17e>
    3845: a0 11        	ldy	#$11
    3847: a5 19        	lda	$19                     ; 0x2019 <playMidi+0x17f>
    3849: 91 14        	sta	($14),y                 ; 0x2014 <playMidi+0x17a>
    384b: a5 18        	lda	$18                     ; 0x2018 <playMidi+0x17e>
    384d: a0 01        	ldy	#$1
    384f: 91 12        	sta	($12),y                 ; 0x2012 <playMidi+0x178>
    3851: 18           	clc
    3852: a5 10        	lda	$10                     ; 0x2010 <playMidi+0x176>
    3854: 69 3c        	adc	#$3c
    3856: 85 12        	sta	$12                     ; 0x2012 <playMidi+0x178>
    3858: a5 11        	lda	$11                     ; 0x2011 <playMidi+0x177>
    385a: 69 00        	adc	#$0
    385c: 85 13        	sta	$13                     ; 0x2013 <playMidi+0x179>
    385e: b2 16        	lda	($16)                   ; 0x2016 <playMidi+0x17c>
    3860: 92 12        	sta	($12)                   ; 0x2012 <playMidi+0x178>
    3862: a9 00        	lda	#$0
    3864: 91 12        	sta	($12),y                 ; 0x2012 <playMidi+0x178>
    3866: 20 68 2c     	jsr	$2c68 <_ZN12_GLOBAL__N_112print_stringEPKcP6Status>
    3869: a0 01        	ldy	#$1
    386b: a2 00        	ldx	#$0
    386d: 86 2e        	stx	$2e                     ; 0x202e <playMidi+0x194>
    386f: a2 00        	ldx	#$0
    3871: 86 2f        	stx	$2f                     ; 0x202f <playMidi+0x195>
    3873: 4c 7c 47     	jmp	$477c <printf+0x19a0>
    3876: 84 21        	sty	$21                     ; 0x2021 <playMidi+0x187>
    3878: a5 12        	lda	$12                     ; 0x2012 <playMidi+0x178>
    387a: a0 11        	ldy	#$11
    387c: 91 10        	sta	($10),y                 ; 0x2010 <playMidi+0x176>
    387e: a5 1c        	lda	$1c                     ; 0x201c <playMidi+0x182>
    3880: a0 0f        	ldy	#$f
    3882: 91 10        	sta	($10),y                 ; 0x2010 <playMidi+0x176>
    3884: a5 1b        	lda	$1b                     ; 0x201b <playMidi+0x181>
    3886: 88           	dey
    3887: 91 10        	sta	($10),y                 ; 0x2010 <playMidi+0x176>
    3889: a5 24        	lda	$24                     ; 0x2024 <playMidi+0x18a>
    388b: a0 14        	ldy	#$14
    388d: 91 10        	sta	($10),y                 ; 0x2010 <playMidi+0x176>
    388f: a5 25        	lda	$25                     ; 0x2025 <playMidi+0x18b>
    3891: c8           	iny
    3892: 91 10        	sta	($10),y                 ; 0x2010 <playMidi+0x176>
    3894: a5 26        	lda	$26                     ; 0x2026 <playMidi+0x18c>
    3896: c8           	iny
    3897: 91 10        	sta	($10),y                 ; 0x2010 <playMidi+0x176>
    3899: a5 27        	lda	$27                     ; 0x2027 <playMidi+0x18d>
    389b: c8           	iny
    389c: 91 10        	sta	($10),y                 ; 0x2010 <playMidi+0x176>
    389e: a6 1e        	ldx	$1e                     ; 0x201e <playMidi+0x184>
    38a0: 86 12        	stx	$12                     ; 0x2012 <playMidi+0x178>
    38a2: a6 1d        	ldx	$1d                     ; 0x201d <playMidi+0x183>
    38a4: 86 13        	stx	$13                     ; 0x2013 <playMidi+0x179>
    38a6: a9 0a        	lda	#$a
    38a8: aa           	tax
    38a9: 48           	pha
    38aa: 8a           	txa
    38ab: a0 1b        	ldy	#$1b
    38ad: 91 10        	sta	($10),y                 ; 0x2010 <playMidi+0x176>
    38af: a4 21        	ldy	$21                     ; 0x2021 <playMidi+0x187>
    38b1: 68           	pla
    38b2: 92 12        	sta	($12)                   ; 0x2012 <playMidi+0x178>
    38b4: a9 00        	lda	#$0
    38b6: 09 01        	ora	#$1
    38b8: aa           	tax
    38b9: a5 2e        	lda	$2e                     ; 0x202e <playMidi+0x194>
    38bb: 91 12        	sta	($12),y                 ; 0x2012 <playMidi+0x178>
    38bd: e6 12        	inc	$12                     ; 0x2012 <playMidi+0x178>
    38bf: d0 02        	bne	$38c3 <printf+0xae7>
    38c1: e6 13        	inc	$13                     ; 0x2013 <playMidi+0x179>
    38c3: 8a           	txa
    38c4: 5a           	phy
    38c5: a0 10        	ldy	#$10
    38c7: 91 10        	sta	($10),y                 ; 0x2010 <playMidi+0x176>
    38c9: 7a           	ply
    38ca: 91 12        	sta	($12),y                 ; 0x2012 <playMidi+0x178>
    38cc: a0 1a        	ldy	#$1a
    38ce: b1 10        	lda	($10),y                 ; 0x2010 <playMidi+0x176>
    38d0: 85 18        	sta	$18                     ; 0x2018 <playMidi+0x17e>
    38d2: 92 2a        	sta	($2a)                   ; 0x202a <playMidi+0x190>
    38d4: 18           	clc
    38d5: a5 10        	lda	$10                     ; 0x2010 <playMidi+0x176>
    38d7: 69 1e        	adc	#$1e
    38d9: 85 24        	sta	$24                     ; 0x2024 <playMidi+0x18a>
    38db: a5 11        	lda	$11                     ; 0x2011 <playMidi+0x177>
    38dd: 69 00        	adc	#$0
    38df: 85 25        	sta	$25                     ; 0x2025 <playMidi+0x18b>
    38e1: 18           	clc
    38e2: a5 24        	lda	$24                     ; 0x2024 <playMidi+0x18a>
    38e4: 69 11        	adc	#$11
    38e6: 85 26        	sta	$26                     ; 0x2026 <playMidi+0x18c>
    38e8: a5 25        	lda	$25                     ; 0x2025 <playMidi+0x18b>
    38ea: 69 00        	adc	#$0
    38ec: 48           	pha
    38ed: a5 24        	lda	$24                     ; 0x2024 <playMidi+0x18a>
    38ef: 88           	dey
    38f0: 91 10        	sta	($10),y                 ; 0x2010 <playMidi+0x176>
    38f2: a5 25        	lda	$25                     ; 0x2025 <playMidi+0x18b>
    38f4: 88           	dey
    38f5: 91 10        	sta	($10),y                 ; 0x2010 <playMidi+0x176>
    38f7: 68           	pla
    38f8: 85 27        	sta	$27                     ; 0x2027 <playMidi+0x18d>
    38fa: a0 11        	ldy	#$11
    38fc: b1 24        	lda	($24),y                 ; 0x2024 <playMidi+0x18a>
    38fe: 85 2f        	sta	$2f                     ; 0x202f <playMidi+0x195>
    3900: a0 01        	ldy	#$1
    3902: b1 26        	lda	($26),y                 ; 0x2026 <playMidi+0x18c>
    3904: 85 29        	sta	$29                     ; 0x2029 <playMidi+0x18f>
    3906: a6 2f        	ldx	$2f                     ; 0x202f <playMidi+0x195>
    3908: 86 14        	stx	$14                     ; 0x2014 <playMidi+0x17a>
    390a: 85 15        	sta	$15                     ; 0x2015 <playMidi+0x17b>
    390c: a0 0c        	ldy	#$c
    390e: b1 10        	lda	($10),y                 ; 0x2010 <playMidi+0x176>
    3910: 85 12        	sta	$12                     ; 0x2012 <playMidi+0x178>
    3912: c8           	iny
    3913: b1 10        	lda	($10),y                 ; 0x2010 <playMidi+0x176>
    3915: 85 13        	sta	$13                     ; 0x2013 <playMidi+0x179>
    3917: a2 00        	ldx	#$0
    3919: a4 18        	ldy	$18                     ; 0x2018 <playMidi+0x17e>
    391b: 84 28        	sty	$28                     ; 0x2028 <playMidi+0x18e>
    391d: a5 18        	lda	$18                     ; 0x2018 <playMidi+0x17e>
    391f: 20 d0 4c     	jsr	$4cd0 <memcpy>
    3922: 18           	clc
    3923: a5 2f        	lda	$2f                     ; 0x202f <playMidi+0x195>
    3925: 48           	pha
    3926: a0 11        	ldy	#$11
    3928: b1 10        	lda	($10),y                 ; 0x2010 <playMidi+0x176>
    392a: 85 12        	sta	$12                     ; 0x2012 <playMidi+0x178>
    392c: 68           	pla
    392d: 65 12        	adc	$12                     ; 0x2012 <playMidi+0x178>
    392f: 85 12        	sta	$12                     ; 0x2012 <playMidi+0x178>
    3931: a5 29        	lda	$29                     ; 0x2029 <playMidi+0x18f>
    3933: 69 00        	adc	#$0
    3935: aa           	tax
    3936: a5 12        	lda	$12                     ; 0x2012 <playMidi+0x178>
    3938: 91 24        	sta	($24),y                 ; 0x2024 <playMidi+0x18a>
    393a: a0 01        	ldy	#$1
    393c: 8a           	txa
    393d: 91 26        	sta	($26),y                 ; 0x2026 <playMidi+0x18c>
    393f: a0 10        	ldy	#$10
    3941: b1 10        	lda	($10),y                 ; 0x2010 <playMidi+0x176>
    3943: 29 01        	and	#$1
    3945: b8           	clv
    3946: f0 03        	beq	$394b <printf+0xb6f>
    3948: 4c cb 39     	jmp	$39cb <printf+0xbef>
    394b: a4 28        	ldy	$28                     ; 0x2028 <playMidi+0x18e>
    394d: b1 2a        	lda	($2a),y                 ; 0x202a <playMidi+0x190>
    394f: 48           	pha
    3950: 5a           	phy
    3951: a0 0c        	ldy	#$c
    3953: b1 10        	lda	($10),y                 ; 0x2010 <playMidi+0x176>
    3955: 85 14        	sta	$14                     ; 0x2014 <playMidi+0x17a>
    3957: c8           	iny
    3958: b1 10        	lda	($10),y                 ; 0x2010 <playMidi+0x176>
    395a: 85 15        	sta	$15                     ; 0x2015 <playMidi+0x17b>
    395c: a0 16        	ldy	#$16
    395e: b1 10        	lda	($10),y                 ; 0x2010 <playMidi+0x176>
    3960: 85 18        	sta	$18                     ; 0x2018 <playMidi+0x17e>
    3962: c8           	iny
    3963: b1 10        	lda	($10),y                 ; 0x2010 <playMidi+0x176>
    3965: 85 19        	sta	$19                     ; 0x2019 <playMidi+0x17f>
    3967: a0 14        	ldy	#$14
    3969: b1 10        	lda	($10),y                 ; 0x2010 <playMidi+0x176>
    396b: 85 16        	sta	$16                     ; 0x2016 <playMidi+0x17c>
    396d: c8           	iny
    396e: b1 10        	lda	($10),y                 ; 0x2010 <playMidi+0x176>
    3970: 85 17        	sta	$17                     ; 0x2017 <playMidi+0x17d>
    3972: a0 12        	ldy	#$12
    3974: b1 10        	lda	($10),y                 ; 0x2010 <playMidi+0x176>
    3976: 85 27        	sta	$27                     ; 0x2027 <playMidi+0x18d>
    3978: c8           	iny
    3979: b1 10        	lda	($10),y                 ; 0x2010 <playMidi+0x176>
    397b: 85 25        	sta	$25                     ; 0x2025 <playMidi+0x18b>
    397d: a0 0e        	ldy	#$e
    397f: b1 10        	lda	($10),y                 ; 0x2010 <playMidi+0x176>
    3981: 85 1a        	sta	$1a                     ; 0x201a <playMidi+0x180>
    3983: c8           	iny
    3984: b1 10        	lda	($10),y                 ; 0x2010 <playMidi+0x176>
    3986: 7a           	ply
    3987: 85 1b        	sta	$1b                     ; 0x201b <playMidi+0x181>
    3989: 68           	pla
    398a: 30 03        	bmi	$398f <printf+0xbb3>
    398c: 4c f9 39     	jmp	$39f9 <printf+0xc1d>
    398f: a0 00        	ldy	#$0
    3991: 64 12        	stz	$12                     ; 0x2012 <playMidi+0x178>
    3993: a9 00        	lda	#$0
    3995: 38           	sec
    3996: f1 14        	sbc	($14),y                 ; 0x2014 <playMidi+0x17a>
    3998: a2 00        	ldx	#$0
    399a: b0 02        	bcs	$399e <printf+0xbc2>
    399c: a2 01        	ldx	#$1
    399e: 38           	sec
    399f: e5 12        	sbc	$12                     ; 0x2012 <playMidi+0x178>
    39a1: 85 13        	sta	$13                     ; 0x2013 <playMidi+0x179>
    39a3: 64 12        	stz	$12                     ; 0x2012 <playMidi+0x178>
    39a5: b0 04        	bcs	$39ab <printf+0xbcf>
    39a7: a9 01        	lda	#$1
    39a9: 85 12        	sta	$12                     ; 0x2012 <playMidi+0x178>
    39ab: 8a           	txa
    39ac: 05 12        	ora	$12                     ; 0x2012 <playMidi+0x178>
    39ae: 85 12        	sta	$12                     ; 0x2012 <playMidi+0x178>
    39b0: a5 13        	lda	$13                     ; 0x2013 <playMidi+0x179>
    39b2: 91 14        	sta	($14),y                 ; 0x2014 <playMidi+0x17a>
    39b4: c8           	iny
    39b5: 84 13        	sty	$13                     ; 0x2013 <playMidi+0x179>
    39b7: 5a           	phy
    39b8: a0 1a        	ldy	#$1a
    39ba: b1 10        	lda	($10),y                 ; 0x2010 <playMidi+0x176>
    39bc: 7a           	ply
    39bd: c5 13        	cmp	$13                     ; 0x2013 <playMidi+0x179>
    39bf: d0 d2        	bne	$3993 <printf+0xbb7>
    39c1: 2c 5f 4f     	bit	$4f5f                   ; 0x4f5f <__set_v>
    39c4: a0 1a        	ldy	#$1a
    39c6: b1 10        	lda	($10),y                 ; 0x2010 <playMidi+0x176>
    39c8: a8           	tay
    39c9: 80 2e        	bra	$39f9 <printf+0xc1d>
    39cb: a0 16        	ldy	#$16
    39cd: b1 10        	lda	($10),y                 ; 0x2010 <playMidi+0x176>
    39cf: 85 18        	sta	$18                     ; 0x2018 <playMidi+0x17e>
    39d1: c8           	iny
    39d2: b1 10        	lda	($10),y                 ; 0x2010 <playMidi+0x176>
    39d4: 85 19        	sta	$19                     ; 0x2019 <playMidi+0x17f>
    39d6: a0 14        	ldy	#$14
    39d8: b1 10        	lda	($10),y                 ; 0x2010 <playMidi+0x176>
    39da: 85 16        	sta	$16                     ; 0x2016 <playMidi+0x17c>
    39dc: c8           	iny
    39dd: b1 10        	lda	($10),y                 ; 0x2010 <playMidi+0x176>
    39df: 85 17        	sta	$17                     ; 0x2017 <playMidi+0x17d>
    39e1: a0 12        	ldy	#$12
    39e3: b1 10        	lda	($10),y                 ; 0x2010 <playMidi+0x176>
    39e5: 85 27        	sta	$27                     ; 0x2027 <playMidi+0x18d>
    39e7: c8           	iny
    39e8: b1 10        	lda	($10),y                 ; 0x2010 <playMidi+0x176>
    39ea: 85 25        	sta	$25                     ; 0x2025 <playMidi+0x18b>
    39ec: a0 0e        	ldy	#$e
    39ee: b1 10        	lda	($10),y                 ; 0x2010 <playMidi+0x176>
    39f0: 85 1a        	sta	$1a                     ; 0x201a <playMidi+0x180>
    39f2: c8           	iny
    39f3: b1 10        	lda	($10),y                 ; 0x2010 <playMidi+0x176>
    39f5: 85 1b        	sta	$1b                     ; 0x201b <playMidi+0x181>
    39f7: a4 28        	ldy	$28                     ; 0x2028 <playMidi+0x18e>
    39f9: a2 01        	ldx	#$1
    39fb: 70 02        	bvs	$39ff <printf+0xc23>
    39fd: a2 00        	ldx	#$0
    39ff: 86 1c        	stx	$1c                     ; 0x201c <playMidi+0x182>
    3a01: 5a           	phy
    3a02: a5 16        	lda	$16                     ; 0x2016 <playMidi+0x17c>
    3a04: a0 14        	ldy	#$14
    3a06: 91 10        	sta	($10),y                 ; 0x2010 <playMidi+0x176>
    3a08: a5 17        	lda	$17                     ; 0x2017 <playMidi+0x17d>
    3a0a: c8           	iny
    3a0b: 91 10        	sta	($10),y                 ; 0x2010 <playMidi+0x176>
    3a0d: 7a           	ply
    3a0e: 98           	tya
    3a0f: 0a           	asl
    3a10: 0a           	asl
    3a11: 0a           	asl
    3a12: 85 12        	sta	$12                     ; 0x2012 <playMidi+0x178>
    3a14: 64 24        	stz	$24                     ; 0x2024 <playMidi+0x18a>
    3a16: a9 00        	lda	#$0
    3a18: 4c d6 3a     	jmp	$3ad6 <printf+0xcfa>
    3a1b: a4 13        	ldy	$13                     ; 0x2013 <playMidi+0x179>
    3a1d: 91 2c        	sta	($2c),y                 ; 0x202c <playMidi+0x192>
    3a1f: a4 16        	ldy	$16                     ; 0x2016 <playMidi+0x17c>
    3a21: c4 13        	cpy	$13                     ; 0x2013 <playMidi+0x179>
    3a23: f0 37        	beq	$3a5c <printf+0xc80>
    3a25: e6 13        	inc	$13                     ; 0x2013 <playMidi+0x179>
    3a27: a4 13        	ldy	$13                     ; 0x2013 <playMidi+0x179>
    3a29: b1 2c        	lda	($2c),y                 ; 0x202c <playMidi+0x192>
    3a2b: 0a           	asl
    3a2c: e0 00        	cpx	#$0
    3a2e: f0 02        	beq	$3a32 <printf+0xc56>
    3a30: 09 01        	ora	#$1
    3a32: 48           	pha
    3a33: a0 1b        	ldy	#$1b
    3a35: b1 10        	lda	($10),y                 ; 0x2010 <playMidi+0x176>
    3a37: a8           	tay
    3a38: 68           	pla
    3a39: 84 14        	sty	$14                     ; 0x2014 <playMidi+0x17a>
    3a3b: c5 14        	cmp	$14                     ; 0x2014 <playMidi+0x17a>
    3a3d: a2 01        	ldx	#$1
    3a3f: b0 02        	bcs	$3a43 <printf+0xc67>
    3a41: a2 00        	ldx	#$0
    3a43: 90 d6        	bcc	$3a1b <printf+0xc3f>
    3a45: 84 14        	sty	$14                     ; 0x2014 <playMidi+0x17a>
    3a47: 38           	sec
    3a48: e5 14        	sbc	$14                     ; 0x2014 <playMidi+0x17a>
    3a4a: a4 13        	ldy	$13                     ; 0x2013 <playMidi+0x179>
    3a4c: 91 2c        	sta	($2c),y                 ; 0x202c <playMidi+0x192>
    3a4e: a4 16        	ldy	$16                     ; 0x2016 <playMidi+0x17c>
    3a50: c4 13        	cpy	$13                     ; 0x2013 <playMidi+0x179>
    3a52: d0 d1        	bne	$3a25 <printf+0xc49>
    3a54: a4 24        	ldy	$24                     ; 0x2024 <playMidi+0x18a>
    3a56: e6 24        	inc	$24                     ; 0x2024 <playMidi+0x18a>
    3a58: a9 01        	lda	#$1
    3a5a: 91 2c        	sta	($2c),y                 ; 0x202c <playMidi+0x192>
    3a5c: a0 1a        	ldy	#$1a
    3a5e: b1 10        	lda	($10),y                 ; 0x2010 <playMidi+0x176>
    3a60: a8           	tay
    3a61: b1 2a        	lda	($2a),y                 ; 0x202a <playMidi+0x190>
    3a63: 30 14        	bmi	$3a79 <printf+0xc9d>
    3a65: a4 24        	ldy	$24                     ; 0x2024 <playMidi+0x18a>
    3a67: 80 40        	bra	$3aa9 <printf+0xccd>
    3a69: 85 1d        	sta	$1d                     ; 0x201d <playMidi+0x183>
    3a6b: a0 1a        	ldy	#$1a
    3a6d: b1 10        	lda	($10),y                 ; 0x2010 <playMidi+0x176>
    3a6f: a8           	tay
    3a70: b1 2a        	lda	($2a),y                 ; 0x202a <playMidi+0x190>
    3a72: a0 00        	ldy	#$0
    3a74: aa           	tax
    3a75: 30 29        	bmi	$3aa0 <printf+0xcc4>
    3a77: 80 30        	bra	$3aa9 <printf+0xccd>
    3a79: a0 00        	ldy	#$0
    3a7b: a5 24        	lda	$24                     ; 0x2024 <playMidi+0x18a>
    3a7d: f0 21        	beq	$3aa0 <printf+0xcc4>
    3a7f: 5a           	phy
    3a80: a0 1b        	ldy	#$1b
    3a82: b1 10        	lda	($10),y                 ; 0x2010 <playMidi+0x176>
    3a84: 7a           	ply
    3a85: 85 15        	sta	$15                     ; 0x2015 <playMidi+0x17b>
    3a87: b1 2c        	lda	($2c),y                 ; 0x202c <playMidi+0x192>
    3a89: 1a           	inc
    3a8a: 91 2c        	sta	($2c),y                 ; 0x202c <playMidi+0x192>
    3a8c: c5 15        	cmp	$15                     ; 0x2015 <playMidi+0x17b>
    3a8e: 90 d5        	bcc	$3a65 <printf+0xc89>
    3a90: 38           	sec
    3a91: e5 15        	sbc	$15                     ; 0x2015 <playMidi+0x17b>
    3a93: 91 2c        	sta	($2c),y                 ; 0x202c <playMidi+0x192>
    3a95: c8           	iny
    3a96: 84 13        	sty	$13                     ; 0x2013 <playMidi+0x179>
    3a98: a6 24        	ldx	$24                     ; 0x2024 <playMidi+0x18a>
    3a9a: e4 13        	cpx	$13                     ; 0x2013 <playMidi+0x179>
    3a9c: d0 e9        	bne	$3a87 <printf+0xcab>
    3a9e: a4 24        	ldy	$24                     ; 0x2024 <playMidi+0x18a>
    3aa0: 5a           	phy
    3aa1: fa           	plx
    3aa2: e8           	inx
    3aa3: a9 01        	lda	#$1
    3aa5: 91 2c        	sta	($2c),y                 ; 0x202c <playMidi+0x192>
    3aa7: da           	phx
    3aa8: 7a           	ply
    3aa9: 84 24        	sty	$24                     ; 0x2024 <playMidi+0x18a>
    3aab: a0 01        	ldy	#$1
    3aad: 64 13        	stz	$13                     ; 0x2013 <playMidi+0x179>
    3aaf: 5a           	phy
    3ab0: a0 1a        	ldy	#$1a
    3ab2: b1 10        	lda	($10),y                 ; 0x2010 <playMidi+0x176>
    3ab4: 7a           	ply
    3ab5: 85 14        	sta	$14                     ; 0x2014 <playMidi+0x17a>
    3ab7: b1 2a        	lda	($2a),y                 ; 0x202a <playMidi+0x190>
    3ab9: 0a           	asl
    3aba: 64 15        	stz	$15                     ; 0x2015 <playMidi+0x17b>
    3abc: 26 15        	rol	$15                     ; 0x2015 <playMidi+0x17b>
    3abe: 05 13        	ora	$13                     ; 0x2013 <playMidi+0x179>
    3ac0: 91 2a        	sta	($2a),y                 ; 0x202a <playMidi+0x190>
    3ac2: c8           	iny
    3ac3: c6 14        	dec	$14                     ; 0x2014 <playMidi+0x17a>
    3ac5: a6 15        	ldx	$15                     ; 0x2015 <playMidi+0x17b>
    3ac7: 86 13        	stx	$13                     ; 0x2013 <playMidi+0x179>
    3ac9: a5 14        	lda	$14                     ; 0x2014 <playMidi+0x17a>
    3acb: d0 ea        	bne	$3ab7 <printf+0xcdb>
    3acd: a5 1d        	lda	$1d                     ; 0x201d <playMidi+0x183>
    3acf: 1a           	inc
    3ad0: c5 12        	cmp	$12                     ; 0x2012 <playMidi+0x178>
    3ad2: a0 01        	ldy	#$1
    3ad4: b0 15        	bcs	$3aeb <printf+0xd0f>
    3ad6: a6 24        	ldx	$24                     ; 0x2024 <playMidi+0x18a>
    3ad8: d0 03        	bne	$3add <printf+0xd01>
    3ada: 4c 69 3a     	jmp	$3a69 <printf+0xc8d>
    3add: a6 24        	ldx	$24                     ; 0x2024 <playMidi+0x18a>
    3adf: 85 1d        	sta	$1d                     ; 0x201d <playMidi+0x183>
    3ae1: ca           	dex
    3ae2: 86 16        	stx	$16                     ; 0x2016 <playMidi+0x17c>
    3ae4: a2 00        	ldx	#$0
    3ae6: 64 13        	stz	$13                     ; 0x2013 <playMidi+0x179>
    3ae8: 4c 27 3a     	jmp	$3a27 <printf+0xc4b>
    3aeb: a5 2e        	lda	$2e                     ; 0x202e <playMidi+0x194>
    3aed: a6 25        	ldx	$25                     ; 0x2025 <playMidi+0x18b>
    3aef: 10 06        	bpl	$3af7 <printf+0xd1b>
    3af1: a2 01        	ldx	#$1
    3af3: 64 25        	stz	$25                     ; 0x2025 <playMidi+0x18b>
    3af5: 86 27        	stx	$27                     ; 0x2027 <playMidi+0x18d>
    3af7: 29 04        	and	#$4
    3af9: f0 31        	beq	$3b2c <printf+0xd50>
    3afb: 5a           	phy
    3afc: a0 1b        	ldy	#$1b
    3afe: b1 10        	lda	($10),y                 ; 0x2010 <playMidi+0x176>
    3b00: 7a           	ply
    3b01: aa           	tax
    3b02: c9 10        	cmp	#$10
    3b04: f0 14        	beq	$3b1a <printf+0xd3e>
    3b06: e0 08        	cpx	#$8
    3b08: d0 22        	bne	$3b2c <printf+0xd50>
    3b0a: a2 00        	ldx	#$0
    3b0c: e4 25        	cpx	$25                     ; 0x2025 <playMidi+0x18b>
    3b0e: f0 03        	beq	$3b13 <printf+0xd37>
    3b10: 4c 96 3b     	jmp	$3b96 <printf+0xdba>
    3b13: a6 24        	ldx	$24                     ; 0x2024 <playMidi+0x18a>
    3b15: e4 27        	cpx	$27                     ; 0x2027 <playMidi+0x18d>
    3b17: 4c 98 3b     	jmp	$3b98 <printf+0xdbc>
    3b1a: a5 24        	lda	$24                     ; 0x2024 <playMidi+0x18a>
    3b1c: f0 0e        	beq	$3b2c <printf+0xd50>
    3b1e: a5 2e        	lda	$2e                     ; 0x202e <playMidi+0x194>
    3b20: 29 80        	and	#$80
    3b22: d0 03        	bne	$3b27 <printf+0xd4b>
    3b24: 4c b1 3b     	jmp	$3bb1 <printf+0xdd5>
    3b27: a2 78        	ldx	#$78
    3b29: 4c b3 3b     	jmp	$3bb3 <printf+0xdd7>
    3b2c: a5 2e        	lda	$2e                     ; 0x202e <playMidi+0x194>
    3b2e: a2 2d        	ldx	#$2d
    3b30: 48           	pha
    3b31: 8a           	txa
    3b32: 5a           	phy
    3b33: a0 13        	ldy	#$13
    3b35: 91 10        	sta	($10),y                 ; 0x2010 <playMidi+0x176>
    3b37: 7a           	ply
    3b38: 68           	pla
    3b39: a6 1c        	ldx	$1c                     ; 0x201c <playMidi+0x182>
    3b3b: d0 29        	bne	$3b66 <printf+0xd8a>
    3b3d: 85 12        	sta	$12                     ; 0x2012 <playMidi+0x178>
    3b3f: 29 02        	and	#$2
    3b41: a2 2b        	ldx	#$2b
    3b43: 48           	pha
    3b44: 8a           	txa
    3b45: 5a           	phy
    3b46: a0 13        	ldy	#$13
    3b48: 91 10        	sta	($10),y                 ; 0x2010 <playMidi+0x176>
    3b4a: 7a           	ply
    3b4b: 68           	pla
    3b4c: d0 18        	bne	$3b66 <printf+0xd8a>
    3b4e: a5 12        	lda	$12                     ; 0x2012 <playMidi+0x178>
    3b50: 29 08        	and	#$8
    3b52: d0 37        	bne	$3b8b <printf+0xdaf>
    3b54: 38           	sec
    3b55: 84 21        	sty	$21                     ; 0x2021 <playMidi+0x187>
    3b57: a9 01        	lda	#$1
    3b59: a0 1a        	ldy	#$1a
    3b5b: 91 10        	sta	($10),y                 ; 0x2010 <playMidi+0x176>
    3b5d: 3a           	dec
    3b5e: 18           	clc
    3b5f: 48           	pha
    3b60: a9 00        	lda	#$0
    3b62: c8           	iny
    3b63: 4c d2 3b     	jmp	$3bd2 <printf+0xdf6>
    3b66: 18           	clc
    3b67: 5a           	phy
    3b68: a9 00        	lda	#$0
    3b6a: a0 1a        	ldy	#$1a
    3b6c: 91 10        	sta	($10),y                 ; 0x2010 <playMidi+0x176>
    3b6e: c8           	iny
    3b6f: 91 10        	sta	($10),y                 ; 0x2010 <playMidi+0x176>
    3b71: 7a           	ply
    3b72: 98           	tya
    3b73: 4c d7 3b     	jmp	$3bd7 <printf+0xdfb>
    3b76: 85 14        	sta	$14                     ; 0x2014 <playMidi+0x17a>
    3b78: a9 04        	lda	#$4
    3b7a: 80 04        	bra	$3b80 <printf+0xda4>
    3b7c: 85 14        	sta	$14                     ; 0x2014 <playMidi+0x17a>
    3b7e: a9 02        	lda	#$2
    3b80: 5a           	phy
    3b81: a0 1a        	ldy	#$1a
    3b83: 91 10        	sta	($10),y                 ; 0x2010 <playMidi+0x176>
    3b85: 7a           	ply
    3b86: a5 14        	lda	$14                     ; 0x2014 <playMidi+0x17a>
    3b88: 4c 9d 35     	jmp	$359d <printf+0x7c1>
    3b8b: a2 20        	ldx	#$20
    3b8d: 5a           	phy
    3b8e: 8a           	txa
    3b8f: a0 13        	ldy	#$13
    3b91: 91 10        	sta	($10),y                 ; 0x2010 <playMidi+0x176>
    3b93: 18           	clc
    3b94: 80 d2        	bra	$3b68 <printf+0xd8c>
    3b96: e4 25        	cpx	$25                     ; 0x2025 <playMidi+0x18b>
    3b98: a5 2e        	lda	$2e                     ; 0x202e <playMidi+0x194>
    3b9a: b0 03        	bcs	$3b9f <printf+0xdc3>
    3b9c: 4c 2e 3b     	jmp	$3b2e <printf+0xd52>
    3b9f: a6 24        	ldx	$24                     ; 0x2024 <playMidi+0x18a>
    3ba1: 64 29        	stz	$29                     ; 0x2029 <playMidi+0x18f>
    3ba3: e8           	inx
    3ba4: d0 02        	bne	$3ba8 <printf+0xdcc>
    3ba6: e6 29        	inc	$29                     ; 0x2029 <playMidi+0x18f>
    3ba8: 86 27        	stx	$27                     ; 0x2027 <playMidi+0x18d>
    3baa: a6 29        	ldx	$29                     ; 0x2029 <playMidi+0x18f>
    3bac: 86 25        	stx	$25                     ; 0x2025 <playMidi+0x18b>
    3bae: 4c 2e 3b     	jmp	$3b2e <printf+0xd52>
    3bb1: a2 58        	ldx	#$58
    3bb3: 8a           	txa
    3bb4: 5a           	phy
    3bb5: a0 12        	ldy	#$12
    3bb7: 91 10        	sta	($10),y                 ; 0x2010 <playMidi+0x176>
    3bb9: 7a           	ply
    3bba: 38           	sec
    3bbb: 84 21        	sty	$21                     ; 0x2021 <playMidi+0x187>
    3bbd: a9 01        	lda	#$1
    3bbf: a0 1b        	ldy	#$1b
    3bc1: 91 10        	sta	($10),y                 ; 0x2010 <playMidi+0x176>
    3bc3: a2 30        	ldx	#$30
    3bc5: 8a           	txa
    3bc6: a0 13        	ldy	#$13
    3bc8: 91 10        	sta	($10),y                 ; 0x2010 <playMidi+0x176>
    3bca: a9 02        	lda	#$2
    3bcc: 18           	clc
    3bcd: 48           	pha
    3bce: a9 00        	lda	#$0
    3bd0: a0 1a        	ldy	#$1a
    3bd2: 91 10        	sta	($10),y                 ; 0x2010 <playMidi+0x176>
    3bd4: a4 21        	ldy	$21                     ; 0x2021 <playMidi+0x187>
    3bd6: 68           	pla
    3bd7: a6 25        	ldx	$25                     ; 0x2025 <playMidi+0x18b>
    3bd9: d0 06        	bne	$3be1 <printf+0xe05>
    3bdb: a6 27        	ldx	$27                     ; 0x2027 <playMidi+0x18d>
    3bdd: e4 24        	cpx	$24                     ; 0x2024 <playMidi+0x18a>
    3bdf: 80 04        	bra	$3be5 <printf+0xe09>
    3be1: a6 25        	ldx	$25                     ; 0x2025 <playMidi+0x18b>
    3be3: e0 00        	cpx	#$0
    3be5: a6 27        	ldx	$27                     ; 0x2027 <playMidi+0x18d>
    3be7: 86 12        	stx	$12                     ; 0x2012 <playMidi+0x178>
    3be9: a6 25        	ldx	$25                     ; 0x2025 <playMidi+0x18b>
    3beb: 86 13        	stx	$13                     ; 0x2013 <playMidi+0x179>
    3bed: b0 06        	bcs	$3bf5 <printf+0xe19>
    3bef: a6 24        	ldx	$24                     ; 0x2024 <playMidi+0x18a>
    3bf1: 86 12        	stx	$12                     ; 0x2012 <playMidi+0x178>
    3bf3: 64 13        	stz	$13                     ; 0x2013 <playMidi+0x179>
    3bf5: 48           	pha
    3bf6: 5a           	phy
    3bf7: a5 18        	lda	$18                     ; 0x2018 <playMidi+0x17e>
    3bf9: a0 16        	ldy	#$16
    3bfb: 91 10        	sta	($10),y                 ; 0x2010 <playMidi+0x176>
    3bfd: a5 19        	lda	$19                     ; 0x2019 <playMidi+0x17f>
    3bff: c8           	iny
    3c00: 91 10        	sta	($10),y                 ; 0x2010 <playMidi+0x176>
    3c02: 7a           	ply
    3c03: 68           	pla
    3c04: aa           	tax
    3c05: 18           	clc
    3c06: 65 12        	adc	$12                     ; 0x2012 <playMidi+0x178>
    3c08: 85 16        	sta	$16                     ; 0x2016 <playMidi+0x17c>
    3c0a: 85 14        	sta	$14                     ; 0x2014 <playMidi+0x17a>
    3c0c: a5 13        	lda	$13                     ; 0x2013 <playMidi+0x179>
    3c0e: 69 00        	adc	#$0
    3c10: 85 15        	sta	$15                     ; 0x2015 <playMidi+0x17b>
    3c12: c5 1b        	cmp	$1b                     ; 0x201b <playMidi+0x181>
    3c14: d0 06        	bne	$3c1c <printf+0xe40>
    3c16: a5 16        	lda	$16                     ; 0x2016 <playMidi+0x17c>
    3c18: c5 1a        	cmp	$1a                     ; 0x201a <playMidi+0x180>
    3c1a: 80 02        	bra	$3c1e <printf+0xe42>
    3c1c: c5 1b        	cmp	$1b                     ; 0x201b <playMidi+0x181>
    3c1e: 64 29        	stz	$29                     ; 0x2029 <playMidi+0x18f>
    3c20: 64 26        	stz	$26                     ; 0x2026 <playMidi+0x18c>
    3c22: 90 03        	bcc	$3c27 <printf+0xe4b>
    3c24: 4c 94 3d     	jmp	$3d94 <printf+0xfb8>
    3c27: a5 2e        	lda	$2e                     ; 0x202e <playMidi+0x194>
    3c29: 29 11        	and	#$11
    3c2b: f0 10        	beq	$3c3d <printf+0xe61>
    3c2d: a5 1a        	lda	$1a                     ; 0x201a <playMidi+0x180>
    3c2f: 38           	sec
    3c30: e5 14        	sbc	$14                     ; 0x2014 <playMidi+0x17a>
    3c32: 85 29        	sta	$29                     ; 0x2029 <playMidi+0x18f>
    3c34: a5 1b        	lda	$1b                     ; 0x201b <playMidi+0x181>
    3c36: e5 15        	sbc	$15                     ; 0x2015 <playMidi+0x17b>
    3c38: 85 26        	sta	$26                     ; 0x2026 <playMidi+0x18c>
    3c3a: 4c 94 3d     	jmp	$3d94 <printf+0xfb8>
    3c3d: a4 27        	ldy	$27                     ; 0x2027 <playMidi+0x18d>
    3c3f: 84 28        	sty	$28                     ; 0x2028 <playMidi+0x18e>
    3c41: 18           	clc
    3c42: a5 10        	lda	$10                     ; 0x2010 <playMidi+0x176>
    3c44: 69 1e        	adc	#$1e
    3c46: 48           	pha
    3c47: a5 11        	lda	$11                     ; 0x2011 <playMidi+0x177>
    3c49: 69 00        	adc	#$0
    3c4b: a8           	tay
    3c4c: 68           	pla
    3c4d: 85 14        	sta	$14                     ; 0x2014 <playMidi+0x17a>
    3c4f: 84 15        	sty	$15                     ; 0x2015 <playMidi+0x17b>
    3c51: 18           	clc
    3c52: 69 05        	adc	#$5
    3c54: 85 16        	sta	$16                     ; 0x2016 <playMidi+0x17c>
    3c56: 98           	tya
    3c57: 69 00        	adc	#$0
    3c59: 85 17        	sta	$17                     ; 0x2017 <playMidi+0x17d>
    3c5b: a0 05        	ldy	#$5
    3c5d: b1 14        	lda	($14),y                 ; 0x2014 <playMidi+0x17a>
    3c5f: 85 18        	sta	$18                     ; 0x2018 <playMidi+0x17e>
    3c61: a0 01        	ldy	#$1
    3c63: 38           	sec
    3c64: 8a           	txa
    3c65: e5 1a        	sbc	$1a                     ; 0x201a <playMidi+0x180>
    3c67: 85 14        	sta	$14                     ; 0x2014 <playMidi+0x17a>
    3c69: a9 00        	lda	#$0
    3c6b: e5 1b        	sbc	$1b                     ; 0x201b <playMidi+0x181>
    3c6d: aa           	tax
    3c6e: 18           	clc
    3c6f: a5 14        	lda	$14                     ; 0x2014 <playMidi+0x17a>
    3c71: 65 12        	adc	$12                     ; 0x2012 <playMidi+0x178>
    3c73: 85 26        	sta	$26                     ; 0x2026 <playMidi+0x18c>
    3c75: 8a           	txa
    3c76: 65 13        	adc	$13                     ; 0x2013 <playMidi+0x179>
    3c78: 85 27        	sta	$27                     ; 0x2027 <playMidi+0x18d>
    3c7a: b1 16        	lda	($16),y                 ; 0x2016 <playMidi+0x17c>
    3c7c: 85 16        	sta	$16                     ; 0x2016 <playMidi+0x17c>
    3c7e: a2 00        	ldx	#$0
    3c80: 86 2e        	stx	$2e                     ; 0x202e <playMidi+0x194>
    3c82: a2 00        	ldx	#$0
    3c84: 86 2f        	stx	$2f                     ; 0x202f <playMidi+0x195>
    3c86: 4c 4d 3d     	jmp	$3d4d <printf+0xf71>
    3c89: d1 12        	cmp	($12),y                 ; 0x2012 <playMidi+0x178>
    3c8b: a6 27        	ldx	$27                     ; 0x2027 <playMidi+0x18d>
    3c8d: 90 03        	bcc	$3c92 <printf+0xeb6>
    3c8f: 4c 05 3d     	jmp	$3d05 <printf+0xf29>
    3c92: a0 01        	ldy	#$1
    3c94: 18           	clc
    3c95: a5 10        	lda	$10                     ; 0x2010 <playMidi+0x176>
    3c97: 69 1e        	adc	#$1e
    3c99: 48           	pha
    3c9a: a5 11        	lda	$11                     ; 0x2011 <playMidi+0x177>
    3c9c: 69 00        	adc	#$0
    3c9e: 85 12        	sta	$12                     ; 0x2012 <playMidi+0x178>
    3ca0: 68           	pla
    3ca1: 18           	clc
    3ca2: aa           	tax
    3ca3: 69 0f        	adc	#$f
    3ca5: 85 13        	sta	$13                     ; 0x2013 <playMidi+0x179>
    3ca7: 5a           	phy
    3ca8: a4 12        	ldy	$12                     ; 0x2012 <playMidi+0x178>
    3caa: 84 14        	sty	$14                     ; 0x2014 <playMidi+0x17a>
    3cac: a5 12        	lda	$12                     ; 0x2012 <playMidi+0x178>
    3cae: 69 00        	adc	#$0
    3cb0: a4 13        	ldy	$13                     ; 0x2013 <playMidi+0x179>
    3cb2: 84 12        	sty	$12                     ; 0x2012 <playMidi+0x178>
    3cb4: 7a           	ply
    3cb5: 85 13        	sta	$13                     ; 0x2013 <playMidi+0x179>
    3cb7: b1 12        	lda	($12),y                 ; 0x2012 <playMidi+0x178>
    3cb9: c5 2f        	cmp	$2f                     ; 0x202f <playMidi+0x195>
    3cbb: d0 3f        	bne	$3cfc <printf+0xf20>
    3cbd: 86 12        	stx	$12                     ; 0x2012 <playMidi+0x178>
    3cbf: a6 14        	ldx	$14                     ; 0x2014 <playMidi+0x17a>
    3cc1: 86 13        	stx	$13                     ; 0x2013 <playMidi+0x179>
    3cc3: a0 0f        	ldy	#$f
    3cc5: b1 12        	lda	($12),y                 ; 0x2012 <playMidi+0x178>
    3cc7: c5 2e        	cmp	$2e                     ; 0x202e <playMidi+0x194>
    3cc9: d0 31        	bne	$3cfc <printf+0xf20>
    3ccb: 18           	clc
    3ccc: a5 10        	lda	$10                     ; 0x2010 <playMidi+0x176>
    3cce: 69 1e        	adc	#$1e
    3cd0: 48           	pha
    3cd1: a5 11        	lda	$11                     ; 0x2011 <playMidi+0x177>
    3cd3: 69 00        	adc	#$0
    3cd5: aa           	tax
    3cd6: 68           	pla
    3cd7: 85 12        	sta	$12                     ; 0x2012 <playMidi+0x178>
    3cd9: 86 13        	stx	$13                     ; 0x2013 <playMidi+0x179>
    3cdb: 18           	clc
    3cdc: 69 09        	adc	#$9
    3cde: 85 14        	sta	$14                     ; 0x2014 <playMidi+0x17a>
    3ce0: 8a           	txa
    3ce1: 69 00        	adc	#$0
    3ce3: 85 15        	sta	$15                     ; 0x2015 <playMidi+0x17b>
    3ce5: 18           	clc
    3ce6: a0 09        	ldy	#$9
    3ce8: a5 18        	lda	$18                     ; 0x2018 <playMidi+0x17e>
    3cea: 71 12        	adc	($12),y                 ; 0x2012 <playMidi+0x178>
    3cec: 85 12        	sta	$12                     ; 0x2012 <playMidi+0x178>
    3cee: a0 01        	ldy	#$1
    3cf0: a5 16        	lda	$16                     ; 0x2016 <playMidi+0x17c>
    3cf2: 71 14        	adc	($14),y                 ; 0x2014 <playMidi+0x17a>
    3cf4: 85 13        	sta	$13                     ; 0x2013 <playMidi+0x179>
    3cf6: a9 20        	lda	#$20
    3cf8: 92 12        	sta	($12)                   ; 0x2012 <playMidi+0x178>
    3cfa: 80 07        	bra	$3d03 <printf+0xf27>
    3cfc: a2 00        	ldx	#$0
    3cfe: a9 20        	lda	#$20
    3d00: 20 ed 47     	jsr	$47ed <putchar>
    3d03: a6 27        	ldx	$27                     ; 0x2027 <playMidi+0x18d>
    3d05: 18           	clc
    3d06: a5 10        	lda	$10                     ; 0x2010 <playMidi+0x176>
    3d08: 69 1e        	adc	#$1e
    3d0a: 48           	pha
    3d0b: a5 11        	lda	$11                     ; 0x2011 <playMidi+0x177>
    3d0d: 69 00        	adc	#$0
    3d0f: a8           	tay
    3d10: 68           	pla
    3d11: 85 12        	sta	$12                     ; 0x2012 <playMidi+0x178>
    3d13: 84 13        	sty	$13                     ; 0x2013 <playMidi+0x179>
    3d15: 18           	clc
    3d16: 69 05        	adc	#$5
    3d18: 85 14        	sta	$14                     ; 0x2014 <playMidi+0x17a>
    3d1a: 98           	tya
    3d1b: 69 00        	adc	#$0
    3d1d: 85 15        	sta	$15                     ; 0x2015 <playMidi+0x17b>
    3d1f: a0 05        	ldy	#$5
    3d21: b1 12        	lda	($12),y                 ; 0x2012 <playMidi+0x178>
    3d23: 85 17        	sta	$17                     ; 0x2017 <playMidi+0x17d>
    3d25: a0 01        	ldy	#$1
    3d27: b1 14        	lda	($14),y                 ; 0x2014 <playMidi+0x17a>
    3d29: 85 16        	sta	$16                     ; 0x2016 <playMidi+0x17c>
    3d2b: a4 17        	ldy	$17                     ; 0x2017 <playMidi+0x17d>
    3d2d: c8           	iny
    3d2e: d0 02        	bne	$3d32 <printf+0xf56>
    3d30: e6 16        	inc	$16                     ; 0x2016 <playMidi+0x17c>
    3d32: 84 18        	sty	$18                     ; 0x2018 <playMidi+0x17e>
    3d34: 98           	tya
    3d35: a0 05        	ldy	#$5
    3d37: 91 12        	sta	($12),y                 ; 0x2012 <playMidi+0x178>
    3d39: a0 01        	ldy	#$1
    3d3b: a5 16        	lda	$16                     ; 0x2016 <playMidi+0x17c>
    3d3d: 91 14        	sta	($14),y                 ; 0x2014 <playMidi+0x17a>
    3d3f: e6 26        	inc	$26                     ; 0x2026 <playMidi+0x18c>
    3d41: d0 01        	bne	$3d44 <printf+0xf68>
    3d43: e8           	inx
    3d44: 86 27        	stx	$27                     ; 0x2027 <playMidi+0x18d>
    3d46: 8a           	txa
    3d47: d0 04        	bne	$3d4d <printf+0xf71>
    3d49: a5 26        	lda	$26                     ; 0x2026 <playMidi+0x18c>
    3d4b: f0 3f        	beq	$3d8c <printf+0xfb0>
    3d4d: 18           	clc
    3d4e: a5 10        	lda	$10                     ; 0x2010 <playMidi+0x176>
    3d50: 69 1e        	adc	#$1e
    3d52: 48           	pha
    3d53: a5 11        	lda	$11                     ; 0x2011 <playMidi+0x177>
    3d55: 69 00        	adc	#$0
    3d57: 85 12        	sta	$12                     ; 0x2012 <playMidi+0x178>
    3d59: 68           	pla
    3d5a: aa           	tax
    3d5b: 18           	clc
    3d5c: 69 03        	adc	#$3
    3d5e: 85 13        	sta	$13                     ; 0x2013 <playMidi+0x179>
    3d60: 5a           	phy
    3d61: a4 12        	ldy	$12                     ; 0x2012 <playMidi+0x178>
    3d63: 84 14        	sty	$14                     ; 0x2014 <playMidi+0x17a>
    3d65: a5 12        	lda	$12                     ; 0x2012 <playMidi+0x178>
    3d67: 69 00        	adc	#$0
    3d69: a4 13        	ldy	$13                     ; 0x2013 <playMidi+0x179>
    3d6b: 84 12        	sty	$12                     ; 0x2012 <playMidi+0x178>
    3d6d: 7a           	ply
    3d6e: 85 13        	sta	$13                     ; 0x2013 <playMidi+0x179>
    3d70: a5 16        	lda	$16                     ; 0x2016 <playMidi+0x17c>
    3d72: d1 12        	cmp	($12),y                 ; 0x2012 <playMidi+0x178>
    3d74: f0 03        	beq	$3d79 <printf+0xf9d>
    3d76: 4c 89 3c     	jmp	$3c89 <printf+0xead>
    3d79: 86 12        	stx	$12                     ; 0x2012 <playMidi+0x178>
    3d7b: a6 14        	ldx	$14                     ; 0x2014 <playMidi+0x17a>
    3d7d: 86 13        	stx	$13                     ; 0x2013 <playMidi+0x179>
    3d7f: a0 03        	ldy	#$3
    3d81: b1 12        	lda	($12),y                 ; 0x2012 <playMidi+0x178>
    3d83: 85 12        	sta	$12                     ; 0x2012 <playMidi+0x178>
    3d85: a6 18        	ldx	$18                     ; 0x2018 <playMidi+0x17e>
    3d87: e4 12        	cpx	$12                     ; 0x2012 <playMidi+0x178>
    3d89: 4c 8b 3c     	jmp	$3c8b <printf+0xeaf>
    3d8c: 64 29        	stz	$29                     ; 0x2029 <playMidi+0x18f>
    3d8e: 64 26        	stz	$26                     ; 0x2026 <playMidi+0x18c>
    3d90: a6 28        	ldx	$28                     ; 0x2028 <playMidi+0x18e>
    3d92: 86 27        	stx	$27                     ; 0x2027 <playMidi+0x18d>
    3d94: a2 00        	ldx	#$0
    3d96: 86 2e        	stx	$2e                     ; 0x202e <playMidi+0x194>
    3d98: a2 00        	ldx	#$0
    3d9a: 86 2f        	stx	$2f                     ; 0x202f <playMidi+0x195>
    3d9c: 5a           	phy
    3d9d: a0 1a        	ldy	#$1a
    3d9f: b1 10        	lda	($10),y                 ; 0x2010 <playMidi+0x176>
    3da1: 7a           	ply
    3da2: 85 12        	sta	$12                     ; 0x2012 <playMidi+0x178>
    3da4: a5 12        	lda	$12                     ; 0x2012 <playMidi+0x178>
    3da6: f0 03        	beq	$3dab <printf+0xfcf>
    3da8: 4c c1 3e     	jmp	$3ec1 <printf+0x10e5>
    3dab: 18           	clc
    3dac: a5 10        	lda	$10                     ; 0x2010 <playMidi+0x176>
    3dae: 69 1e        	adc	#$1e
    3db0: aa           	tax
    3db1: a0 01        	ldy	#$1
    3db3: b0 02        	bcs	$3db7 <printf+0xfdb>
    3db5: a0 00        	ldy	#$0
    3db7: 84 14        	sty	$14                     ; 0x2014 <playMidi+0x17a>
    3db9: 18           	clc
    3dba: a5 10        	lda	$10                     ; 0x2010 <playMidi+0x176>
    3dbc: 69 1e        	adc	#$1e
    3dbe: 48           	pha
    3dbf: a5 11        	lda	$11                     ; 0x2011 <playMidi+0x177>
    3dc1: 69 00        	adc	#$0
    3dc3: a8           	tay
    3dc4: 68           	pla
    3dc5: 85 12        	sta	$12                     ; 0x2012 <playMidi+0x178>
    3dc7: 84 13        	sty	$13                     ; 0x2013 <playMidi+0x179>
    3dc9: 18           	clc
    3dca: 69 05        	adc	#$5
    3dcc: 85 16        	sta	$16                     ; 0x2016 <playMidi+0x17c>
    3dce: 98           	tya
    3dcf: 69 00        	adc	#$0
    3dd1: a4 14        	ldy	$14                     ; 0x2014 <playMidi+0x17a>
    3dd3: c0 01        	cpy	#$1
    3dd5: 48           	pha
    3dd6: a5 11        	lda	$11                     ; 0x2011 <playMidi+0x177>
    3dd8: 69 00        	adc	#$0
    3dda: 85 14        	sta	$14                     ; 0x2014 <playMidi+0x17a>
    3ddc: 68           	pla
    3ddd: 85 17        	sta	$17                     ; 0x2017 <playMidi+0x17d>
    3ddf: 18           	clc
    3de0: 8a           	txa
    3de1: 69 03        	adc	#$3
    3de3: aa           	tax
    3de4: a5 14        	lda	$14                     ; 0x2014 <playMidi+0x17a>
    3de6: 69 00        	adc	#$0
    3de8: 85 15        	sta	$15                     ; 0x2015 <playMidi+0x17b>
    3dea: a0 05        	ldy	#$5
    3dec: b1 12        	lda	($12),y                 ; 0x2012 <playMidi+0x178>
    3dee: 85 18        	sta	$18                     ; 0x2018 <playMidi+0x17e>
    3df0: a0 01        	ldy	#$1
    3df2: 86 14        	stx	$14                     ; 0x2014 <playMidi+0x17a>
    3df4: b1 16        	lda	($16),y                 ; 0x2016 <playMidi+0x17c>
    3df6: d1 14        	cmp	($14),y                 ; 0x2014 <playMidi+0x17a>
    3df8: d0 11        	bne	$3e0b <printf+0x102f>
    3dfa: 85 17        	sta	$17                     ; 0x2017 <playMidi+0x17d>
    3dfc: a0 03        	ldy	#$3
    3dfe: a6 18        	ldx	$18                     ; 0x2018 <playMidi+0x17e>
    3e00: b1 12        	lda	($12),y                 ; 0x2012 <playMidi+0x178>
    3e02: 85 12        	sta	$12                     ; 0x2012 <playMidi+0x178>
    3e04: e4 12        	cpx	$12                     ; 0x2012 <playMidi+0x178>
    3e06: 90 0e        	bcc	$3e16 <printf+0x103a>
    3e08: 4c 8d 3e     	jmp	$3e8d <printf+0x10b1>
    3e0b: 85 17        	sta	$17                     ; 0x2017 <playMidi+0x17d>
    3e0d: d1 14        	cmp	($14),y                 ; 0x2014 <playMidi+0x17a>
    3e0f: a6 18        	ldx	$18                     ; 0x2018 <playMidi+0x17e>
    3e11: 90 03        	bcc	$3e16 <printf+0x103a>
    3e13: 4c 8d 3e     	jmp	$3e8d <printf+0x10b1>
    3e16: a0 01        	ldy	#$1
    3e18: 86 16        	stx	$16                     ; 0x2016 <playMidi+0x17c>
    3e1a: 18           	clc
    3e1b: a5 10        	lda	$10                     ; 0x2010 <playMidi+0x176>
    3e1d: 69 1e        	adc	#$1e
    3e1f: 48           	pha
    3e20: a5 11        	lda	$11                     ; 0x2011 <playMidi+0x177>
    3e22: 69 00        	adc	#$0
    3e24: 85 12        	sta	$12                     ; 0x2012 <playMidi+0x178>
    3e26: 68           	pla
    3e27: 18           	clc
    3e28: aa           	tax
    3e29: 69 0f        	adc	#$f
    3e2b: 85 13        	sta	$13                     ; 0x2013 <playMidi+0x179>
    3e2d: 5a           	phy
    3e2e: a4 12        	ldy	$12                     ; 0x2012 <playMidi+0x178>
    3e30: 84 14        	sty	$14                     ; 0x2014 <playMidi+0x17a>
    3e32: a5 12        	lda	$12                     ; 0x2012 <playMidi+0x178>
    3e34: 69 00        	adc	#$0
    3e36: a4 13        	ldy	$13                     ; 0x2013 <playMidi+0x179>
    3e38: 84 12        	sty	$12                     ; 0x2012 <playMidi+0x178>
    3e3a: 7a           	ply
    3e3b: 85 13        	sta	$13                     ; 0x2013 <playMidi+0x179>
    3e3d: b1 12        	lda	($12),y                 ; 0x2012 <playMidi+0x178>
    3e3f: c5 2f        	cmp	$2f                     ; 0x202f <playMidi+0x195>
    3e41: d0 41        	bne	$3e84 <printf+0x10a8>
    3e43: 86 12        	stx	$12                     ; 0x2012 <playMidi+0x178>
    3e45: a6 14        	ldx	$14                     ; 0x2014 <playMidi+0x17a>
    3e47: 86 13        	stx	$13                     ; 0x2013 <playMidi+0x179>
    3e49: a0 0f        	ldy	#$f
    3e4b: b1 12        	lda	($12),y                 ; 0x2012 <playMidi+0x178>
    3e4d: c5 2e        	cmp	$2e                     ; 0x202e <playMidi+0x194>
    3e4f: d0 33        	bne	$3e84 <printf+0x10a8>
    3e51: 18           	clc
    3e52: a5 10        	lda	$10                     ; 0x2010 <playMidi+0x176>
    3e54: 69 1e        	adc	#$1e
    3e56: 48           	pha
    3e57: a5 11        	lda	$11                     ; 0x2011 <playMidi+0x177>
    3e59: 69 00        	adc	#$0
    3e5b: aa           	tax
    3e5c: 68           	pla
    3e5d: 85 12        	sta	$12                     ; 0x2012 <playMidi+0x178>
    3e5f: 86 13        	stx	$13                     ; 0x2013 <playMidi+0x179>
    3e61: 18           	clc
    3e62: 69 09        	adc	#$9
    3e64: 85 14        	sta	$14                     ; 0x2014 <playMidi+0x17a>
    3e66: 8a           	txa
    3e67: 69 00        	adc	#$0
    3e69: 85 15        	sta	$15                     ; 0x2015 <playMidi+0x17b>
    3e6b: 18           	clc
    3e6c: a0 09        	ldy	#$9
    3e6e: a5 16        	lda	$16                     ; 0x2016 <playMidi+0x17c>
    3e70: 71 12        	adc	($12),y                 ; 0x2012 <playMidi+0x178>
    3e72: 85 12        	sta	$12                     ; 0x2012 <playMidi+0x178>
    3e74: a0 01        	ldy	#$1
    3e76: a5 17        	lda	$17                     ; 0x2017 <playMidi+0x17d>
    3e78: 71 14        	adc	($14),y                 ; 0x2014 <playMidi+0x17a>
    3e7a: 85 13        	sta	$13                     ; 0x2013 <playMidi+0x179>
    3e7c: a0 13        	ldy	#$13
    3e7e: b1 10        	lda	($10),y                 ; 0x2010 <playMidi+0x176>
    3e80: 92 12        	sta	($12)                   ; 0x2012 <playMidi+0x178>
    3e82: 80 09        	bra	$3e8d <printf+0x10b1>
    3e84: a2 00        	ldx	#$0
    3e86: a0 13        	ldy	#$13
    3e88: b1 10        	lda	($10),y                 ; 0x2010 <playMidi+0x176>
    3e8a: 20 ed 47     	jsr	$47ed <putchar>
    3e8d: 18           	clc
    3e8e: a5 10        	lda	$10                     ; 0x2010 <playMidi+0x176>
    3e90: 69 1e        	adc	#$1e
    3e92: 48           	pha
    3e93: a5 11        	lda	$11                     ; 0x2011 <playMidi+0x177>
    3e95: 69 00        	adc	#$0
    3e97: aa           	tax
    3e98: 68           	pla
    3e99: 85 12        	sta	$12                     ; 0x2012 <playMidi+0x178>
    3e9b: 86 13        	stx	$13                     ; 0x2013 <playMidi+0x179>
    3e9d: 18           	clc
    3e9e: 69 05        	adc	#$5
    3ea0: 85 14        	sta	$14                     ; 0x2014 <playMidi+0x17a>
    3ea2: 8a           	txa
    3ea3: 69 00        	adc	#$0
    3ea5: 85 15        	sta	$15                     ; 0x2015 <playMidi+0x17b>
    3ea7: a0 05        	ldy	#$5
    3ea9: b1 12        	lda	($12),y                 ; 0x2012 <playMidi+0x178>
    3eab: 85 16        	sta	$16                     ; 0x2016 <playMidi+0x17c>
    3ead: a0 01        	ldy	#$1
    3eaf: b1 14        	lda	($14),y                 ; 0x2014 <playMidi+0x17a>
    3eb1: aa           	tax
    3eb2: a5 16        	lda	$16                     ; 0x2016 <playMidi+0x17c>
    3eb4: 1a           	inc
    3eb5: d0 01        	bne	$3eb8 <printf+0x10dc>
    3eb7: e8           	inx
    3eb8: a0 05        	ldy	#$5
    3eba: 91 12        	sta	($12),y                 ; 0x2012 <playMidi+0x178>
    3ebc: a0 01        	ldy	#$1
    3ebe: 8a           	txa
    3ebf: 91 14        	sta	($14),y                 ; 0x2014 <playMidi+0x17a>
    3ec1: 5a           	phy
    3ec2: a0 1b        	ldy	#$1b
    3ec4: b1 10        	lda	($10),y                 ; 0x2010 <playMidi+0x176>
    3ec6: 7a           	ply
    3ec7: 85 12        	sta	$12                     ; 0x2012 <playMidi+0x178>
    3ec9: a5 12        	lda	$12                     ; 0x2012 <playMidi+0x178>
    3ecb: d0 03        	bne	$3ed0 <printf+0x10f4>
    3ecd: 4c e6 3f     	jmp	$3fe6 <printf+0x120a>
    3ed0: 18           	clc
    3ed1: a5 10        	lda	$10                     ; 0x2010 <playMidi+0x176>
    3ed3: 69 1e        	adc	#$1e
    3ed5: aa           	tax
    3ed6: a0 01        	ldy	#$1
    3ed8: b0 02        	bcs	$3edc <printf+0x1100>
    3eda: a0 00        	ldy	#$0
    3edc: 84 14        	sty	$14                     ; 0x2014 <playMidi+0x17a>
    3ede: 18           	clc
    3edf: a5 10        	lda	$10                     ; 0x2010 <playMidi+0x176>
    3ee1: 69 1e        	adc	#$1e
    3ee3: 48           	pha
    3ee4: a5 11        	lda	$11                     ; 0x2011 <playMidi+0x177>
    3ee6: 69 00        	adc	#$0
    3ee8: a8           	tay
    3ee9: 68           	pla
    3eea: 85 12        	sta	$12                     ; 0x2012 <playMidi+0x178>
    3eec: 84 13        	sty	$13                     ; 0x2013 <playMidi+0x179>
    3eee: 18           	clc
    3eef: 69 05        	adc	#$5
    3ef1: 85 16        	sta	$16                     ; 0x2016 <playMidi+0x17c>
    3ef3: 98           	tya
    3ef4: 69 00        	adc	#$0
    3ef6: a4 14        	ldy	$14                     ; 0x2014 <playMidi+0x17a>
    3ef8: c0 01        	cpy	#$1
    3efa: 48           	pha
    3efb: a5 11        	lda	$11                     ; 0x2011 <playMidi+0x177>
    3efd: 69 00        	adc	#$0
    3eff: 85 14        	sta	$14                     ; 0x2014 <playMidi+0x17a>
    3f01: 68           	pla
    3f02: 85 17        	sta	$17                     ; 0x2017 <playMidi+0x17d>
    3f04: 18           	clc
    3f05: 8a           	txa
    3f06: 69 03        	adc	#$3
    3f08: aa           	tax
    3f09: a5 14        	lda	$14                     ; 0x2014 <playMidi+0x17a>
    3f0b: 69 00        	adc	#$0
    3f0d: 85 15        	sta	$15                     ; 0x2015 <playMidi+0x17b>
    3f0f: a0 05        	ldy	#$5
    3f11: b1 12        	lda	($12),y                 ; 0x2012 <playMidi+0x178>
    3f13: 85 18        	sta	$18                     ; 0x2018 <playMidi+0x17e>
    3f15: a0 01        	ldy	#$1
    3f17: 86 14        	stx	$14                     ; 0x2014 <playMidi+0x17a>
    3f19: b1 16        	lda	($16),y                 ; 0x2016 <playMidi+0x17c>
    3f1b: d1 14        	cmp	($14),y                 ; 0x2014 <playMidi+0x17a>
    3f1d: d0 11        	bne	$3f30 <printf+0x1154>
    3f1f: 85 17        	sta	$17                     ; 0x2017 <playMidi+0x17d>
    3f21: a0 03        	ldy	#$3
    3f23: a6 18        	ldx	$18                     ; 0x2018 <playMidi+0x17e>
    3f25: b1 12        	lda	($12),y                 ; 0x2012 <playMidi+0x178>
    3f27: 85 12        	sta	$12                     ; 0x2012 <playMidi+0x178>
    3f29: e4 12        	cpx	$12                     ; 0x2012 <playMidi+0x178>
    3f2b: 90 0e        	bcc	$3f3b <printf+0x115f>
    3f2d: 4c b2 3f     	jmp	$3fb2 <printf+0x11d6>
    3f30: 85 17        	sta	$17                     ; 0x2017 <playMidi+0x17d>
    3f32: d1 14        	cmp	($14),y                 ; 0x2014 <playMidi+0x17a>
    3f34: a6 18        	ldx	$18                     ; 0x2018 <playMidi+0x17e>
    3f36: 90 03        	bcc	$3f3b <printf+0x115f>
    3f38: 4c b2 3f     	jmp	$3fb2 <printf+0x11d6>
    3f3b: a0 01        	ldy	#$1
    3f3d: 86 16        	stx	$16                     ; 0x2016 <playMidi+0x17c>
    3f3f: 18           	clc
    3f40: a5 10        	lda	$10                     ; 0x2010 <playMidi+0x176>
    3f42: 69 1e        	adc	#$1e
    3f44: 48           	pha
    3f45: a5 11        	lda	$11                     ; 0x2011 <playMidi+0x177>
    3f47: 69 00        	adc	#$0
    3f49: 85 12        	sta	$12                     ; 0x2012 <playMidi+0x178>
    3f4b: 68           	pla
    3f4c: 18           	clc
    3f4d: aa           	tax
    3f4e: 69 0f        	adc	#$f
    3f50: 85 13        	sta	$13                     ; 0x2013 <playMidi+0x179>
    3f52: 5a           	phy
    3f53: a4 12        	ldy	$12                     ; 0x2012 <playMidi+0x178>
    3f55: 84 14        	sty	$14                     ; 0x2014 <playMidi+0x17a>
    3f57: a5 12        	lda	$12                     ; 0x2012 <playMidi+0x178>
    3f59: 69 00        	adc	#$0
    3f5b: a4 13        	ldy	$13                     ; 0x2013 <playMidi+0x179>
    3f5d: 84 12        	sty	$12                     ; 0x2012 <playMidi+0x178>
    3f5f: 7a           	ply
    3f60: 85 13        	sta	$13                     ; 0x2013 <playMidi+0x179>
    3f62: b1 12        	lda	($12),y                 ; 0x2012 <playMidi+0x178>
    3f64: c5 2f        	cmp	$2f                     ; 0x202f <playMidi+0x195>
    3f66: d0 41        	bne	$3fa9 <printf+0x11cd>
    3f68: 86 12        	stx	$12                     ; 0x2012 <playMidi+0x178>
    3f6a: a6 14        	ldx	$14                     ; 0x2014 <playMidi+0x17a>
    3f6c: 86 13        	stx	$13                     ; 0x2013 <playMidi+0x179>
    3f6e: a0 0f        	ldy	#$f
    3f70: b1 12        	lda	($12),y                 ; 0x2012 <playMidi+0x178>
    3f72: c5 2e        	cmp	$2e                     ; 0x202e <playMidi+0x194>
    3f74: d0 33        	bne	$3fa9 <printf+0x11cd>
    3f76: 18           	clc
    3f77: a5 10        	lda	$10                     ; 0x2010 <playMidi+0x176>
    3f79: 69 1e        	adc	#$1e
    3f7b: 48           	pha
    3f7c: a5 11        	lda	$11                     ; 0x2011 <playMidi+0x177>
    3f7e: 69 00        	adc	#$0
    3f80: aa           	tax
    3f81: 68           	pla
    3f82: 85 12        	sta	$12                     ; 0x2012 <playMidi+0x178>
    3f84: 86 13        	stx	$13                     ; 0x2013 <playMidi+0x179>
    3f86: 18           	clc
    3f87: 69 09        	adc	#$9
    3f89: 85 14        	sta	$14                     ; 0x2014 <playMidi+0x17a>
    3f8b: 8a           	txa
    3f8c: 69 00        	adc	#$0
    3f8e: 85 15        	sta	$15                     ; 0x2015 <playMidi+0x17b>
    3f90: 18           	clc
    3f91: a0 09        	ldy	#$9
    3f93: a5 16        	lda	$16                     ; 0x2016 <playMidi+0x17c>
    3f95: 71 12        	adc	($12),y                 ; 0x2012 <playMidi+0x178>
    3f97: 85 12        	sta	$12                     ; 0x2012 <playMidi+0x178>
    3f99: a0 01        	ldy	#$1
    3f9b: a5 17        	lda	$17                     ; 0x2017 <playMidi+0x17d>
    3f9d: 71 14        	adc	($14),y                 ; 0x2014 <playMidi+0x17a>
    3f9f: 85 13        	sta	$13                     ; 0x2013 <playMidi+0x179>
    3fa1: a0 12        	ldy	#$12
    3fa3: b1 10        	lda	($10),y                 ; 0x2010 <playMidi+0x176>
    3fa5: 92 12        	sta	($12)                   ; 0x2012 <playMidi+0x178>
    3fa7: 80 09        	bra	$3fb2 <printf+0x11d6>
    3fa9: a2 00        	ldx	#$0
    3fab: a0 12        	ldy	#$12
    3fad: b1 10        	lda	($10),y                 ; 0x2010 <playMidi+0x176>
    3faf: 20 ed 47     	jsr	$47ed <putchar>
    3fb2: 18           	clc
    3fb3: a5 10        	lda	$10                     ; 0x2010 <playMidi+0x176>
    3fb5: 69 1e        	adc	#$1e
    3fb7: 48           	pha
    3fb8: a5 11        	lda	$11                     ; 0x2011 <playMidi+0x177>
    3fba: 69 00        	adc	#$0
    3fbc: aa           	tax
    3fbd: 68           	pla
    3fbe: 85 12        	sta	$12                     ; 0x2012 <playMidi+0x178>
    3fc0: 86 13        	stx	$13                     ; 0x2013 <playMidi+0x179>
    3fc2: 18           	clc
    3fc3: 69 05        	adc	#$5
    3fc5: 85 14        	sta	$14                     ; 0x2014 <playMidi+0x17a>
    3fc7: 8a           	txa
    3fc8: 69 00        	adc	#$0
    3fca: 85 15        	sta	$15                     ; 0x2015 <playMidi+0x17b>
    3fcc: a0 05        	ldy	#$5
    3fce: b1 12        	lda	($12),y                 ; 0x2012 <playMidi+0x178>
    3fd0: 85 16        	sta	$16                     ; 0x2016 <playMidi+0x17c>
    3fd2: a0 01        	ldy	#$1
    3fd4: b1 14        	lda	($14),y                 ; 0x2014 <playMidi+0x17a>
    3fd6: aa           	tax
    3fd7: a5 16        	lda	$16                     ; 0x2016 <playMidi+0x17c>
    3fd9: 1a           	inc
    3fda: d0 01        	bne	$3fdd <printf+0x1201>
    3fdc: e8           	inx
    3fdd: a0 05        	ldy	#$5
    3fdf: 91 12        	sta	($12),y                 ; 0x2012 <playMidi+0x178>
    3fe1: a0 01        	ldy	#$1
    3fe3: 8a           	txa
    3fe4: 91 14        	sta	($14),y                 ; 0x2014 <playMidi+0x17a>
    3fe6: 5a           	phy
    3fe7: a0 19        	ldy	#$19
    3fe9: b1 10        	lda	($10),y                 ; 0x2010 <playMidi+0x176>
    3feb: 85 12        	sta	$12                     ; 0x2012 <playMidi+0x178>
    3fed: 88           	dey
    3fee: b1 10        	lda	($10),y                 ; 0x2010 <playMidi+0x176>
    3ff0: 7a           	ply
    3ff1: 85 13        	sta	$13                     ; 0x2013 <playMidi+0x179>
    3ff3: b1 12        	lda	($12),y                 ; 0x2012 <playMidi+0x178>
    3ff5: aa           	tax
    3ff6: 29 10        	and	#$10
    3ff8: d0 03        	bne	$3ffd <printf+0x1221>
    3ffa: 4c 4a 41     	jmp	$414a <printf+0x136e>
    3ffd: 8a           	txa
    3ffe: 29 01        	and	#$1
    4000: f0 03        	beq	$4005 <printf+0x1229>
    4002: 4c 4a 41     	jmp	$414a <printf+0x136e>
    4005: a6 29        	ldx	$29                     ; 0x2029 <playMidi+0x18f>
    4007: a5 26        	lda	$26                     ; 0x2026 <playMidi+0x18c>
    4009: d0 06        	bne	$4011 <printf+0x1235>
    400b: 8a           	txa
    400c: d0 03        	bne	$4011 <printf+0x1235>
    400e: 4c 46 41     	jmp	$4146 <printf+0x136a>
    4011: 18           	clc
    4012: a5 10        	lda	$10                     ; 0x2010 <playMidi+0x176>
    4014: 69 1e        	adc	#$1e
    4016: 48           	pha
    4017: a5 11        	lda	$11                     ; 0x2011 <playMidi+0x177>
    4019: 69 00        	adc	#$0
    401b: aa           	tax
    401c: 68           	pla
    401d: 85 12        	sta	$12                     ; 0x2012 <playMidi+0x178>
    401f: 86 13        	stx	$13                     ; 0x2013 <playMidi+0x179>
    4021: 18           	clc
    4022: 69 05        	adc	#$5
    4024: 85 14        	sta	$14                     ; 0x2014 <playMidi+0x17a>
    4026: 8a           	txa
    4027: 69 00        	adc	#$0
    4029: 85 15        	sta	$15                     ; 0x2015 <playMidi+0x17b>
    402b: a0 05        	ldy	#$5
    402d: b1 12        	lda	($12),y                 ; 0x2012 <playMidi+0x178>
    402f: 85 16        	sta	$16                     ; 0x2016 <playMidi+0x17c>
    4031: a0 01        	ldy	#$1
    4033: b1 14        	lda	($14),y                 ; 0x2014 <playMidi+0x17a>
    4035: 85 17        	sta	$17                     ; 0x2017 <playMidi+0x17d>
    4037: 4c 08 41     	jmp	$4108 <printf+0x132c>
    403a: d1 12        	cmp	($12),y                 ; 0x2012 <playMidi+0x178>
    403c: 90 03        	bcc	$4041 <printf+0x1265>
    403e: 4c b2 40     	jmp	$40b2 <printf+0x12d6>
    4041: a0 01        	ldy	#$1
    4043: 18           	clc
    4044: a5 10        	lda	$10                     ; 0x2010 <playMidi+0x176>
    4046: 69 1e        	adc	#$1e
    4048: 48           	pha
    4049: a5 11        	lda	$11                     ; 0x2011 <playMidi+0x177>
    404b: 69 00        	adc	#$0
    404d: 85 12        	sta	$12                     ; 0x2012 <playMidi+0x178>
    404f: 68           	pla
    4050: aa           	tax
    4051: 18           	clc
    4052: 69 0f        	adc	#$f
    4054: 85 13        	sta	$13                     ; 0x2013 <playMidi+0x179>
    4056: 5a           	phy
    4057: a4 12        	ldy	$12                     ; 0x2012 <playMidi+0x178>
    4059: 84 14        	sty	$14                     ; 0x2014 <playMidi+0x17a>
    405b: a5 12        	lda	$12                     ; 0x2012 <playMidi+0x178>
    405d: 69 00        	adc	#$0
    405f: a4 13        	ldy	$13                     ; 0x2013 <playMidi+0x179>
    4061: 84 12        	sty	$12                     ; 0x2012 <playMidi+0x178>
    4063: 7a           	ply
    4064: 85 13        	sta	$13                     ; 0x2013 <playMidi+0x179>
    4066: b1 12        	lda	($12),y                 ; 0x2012 <playMidi+0x178>
    4068: c5 2f        	cmp	$2f                     ; 0x202f <playMidi+0x195>
    406a: d0 3f        	bne	$40ab <printf+0x12cf>
    406c: 86 12        	stx	$12                     ; 0x2012 <playMidi+0x178>
    406e: a6 14        	ldx	$14                     ; 0x2014 <playMidi+0x17a>
    4070: 86 13        	stx	$13                     ; 0x2013 <playMidi+0x179>
    4072: a0 0f        	ldy	#$f
    4074: b1 12        	lda	($12),y                 ; 0x2012 <playMidi+0x178>
    4076: c5 2e        	cmp	$2e                     ; 0x202e <playMidi+0x194>
    4078: d0 31        	bne	$40ab <printf+0x12cf>
    407a: 18           	clc
    407b: a5 10        	lda	$10                     ; 0x2010 <playMidi+0x176>
    407d: 69 1e        	adc	#$1e
    407f: 48           	pha
    4080: a5 11        	lda	$11                     ; 0x2011 <playMidi+0x177>
    4082: 69 00        	adc	#$0
    4084: aa           	tax
    4085: 68           	pla
    4086: 85 12        	sta	$12                     ; 0x2012 <playMidi+0x178>
    4088: 86 13        	stx	$13                     ; 0x2013 <playMidi+0x179>
    408a: 18           	clc
    408b: 69 09        	adc	#$9
    408d: 85 14        	sta	$14                     ; 0x2014 <playMidi+0x17a>
    408f: 8a           	txa
    4090: 69 00        	adc	#$0
    4092: 85 15        	sta	$15                     ; 0x2015 <playMidi+0x17b>
    4094: 18           	clc
    4095: a0 09        	ldy	#$9
    4097: a5 16        	lda	$16                     ; 0x2016 <playMidi+0x17c>
    4099: 71 12        	adc	($12),y                 ; 0x2012 <playMidi+0x178>
    409b: 85 12        	sta	$12                     ; 0x2012 <playMidi+0x178>
    409d: a0 01        	ldy	#$1
    409f: a5 17        	lda	$17                     ; 0x2017 <playMidi+0x17d>
    40a1: 71 14        	adc	($14),y                 ; 0x2014 <playMidi+0x17a>
    40a3: 85 13        	sta	$13                     ; 0x2013 <playMidi+0x179>
    40a5: a9 30        	lda	#$30
    40a7: 92 12        	sta	($12)                   ; 0x2012 <playMidi+0x178>
    40a9: 80 07        	bra	$40b2 <printf+0x12d6>
    40ab: a2 00        	ldx	#$0
    40ad: a9 30        	lda	#$30
    40af: 20 ed 47     	jsr	$47ed <putchar>
    40b2: 18           	clc
    40b3: a5 10        	lda	$10                     ; 0x2010 <playMidi+0x176>
    40b5: 69 1e        	adc	#$1e
    40b7: 48           	pha
    40b8: a5 11        	lda	$11                     ; 0x2011 <playMidi+0x177>
    40ba: 69 00        	adc	#$0
    40bc: aa           	tax
    40bd: 68           	pla
    40be: 85 12        	sta	$12                     ; 0x2012 <playMidi+0x178>
    40c0: 86 13        	stx	$13                     ; 0x2013 <playMidi+0x179>
    40c2: 18           	clc
    40c3: 69 05        	adc	#$5
    40c5: 85 14        	sta	$14                     ; 0x2014 <playMidi+0x17a>
    40c7: 8a           	txa
    40c8: 69 00        	adc	#$0
    40ca: 85 15        	sta	$15                     ; 0x2015 <playMidi+0x17b>
    40cc: a0 05        	ldy	#$5
    40ce: b1 12        	lda	($12),y                 ; 0x2012 <playMidi+0x178>
    40d0: aa           	tax
    40d1: a0 01        	ldy	#$1
    40d3: b1 14        	lda	($14),y                 ; 0x2014 <playMidi+0x17a>
    40d5: e8           	inx
    40d6: d0 01        	bne	$40d9 <printf+0x12fd>
    40d8: 1a           	inc
    40d9: 85 17        	sta	$17                     ; 0x2017 <playMidi+0x17d>
    40db: 86 16        	stx	$16                     ; 0x2016 <playMidi+0x17c>
    40dd: 8a           	txa
    40de: a0 05        	ldy	#$5
    40e0: 91 12        	sta	($12),y                 ; 0x2012 <playMidi+0x178>
    40e2: a5 17        	lda	$17                     ; 0x2017 <playMidi+0x17d>
    40e4: a0 01        	ldy	#$1
    40e6: 91 14        	sta	($14),y                 ; 0x2014 <playMidi+0x17a>
    40e8: a6 29        	ldx	$29                     ; 0x2029 <playMidi+0x18f>
    40ea: 86 13        	stx	$13                     ; 0x2013 <playMidi+0x179>
    40ec: a6 26        	ldx	$26                     ; 0x2026 <playMidi+0x18c>
    40ee: 86 12        	stx	$12                     ; 0x2012 <playMidi+0x178>
    40f0: a2 ff        	ldx	#$ff
    40f2: c6 13        	dec	$13                     ; 0x2013 <playMidi+0x179>
    40f4: e4 13        	cpx	$13                     ; 0x2013 <playMidi+0x179>
    40f6: d0 02        	bne	$40fa <printf+0x131e>
    40f8: c6 12        	dec	$12                     ; 0x2012 <playMidi+0x178>
    40fa: a6 13        	ldx	$13                     ; 0x2013 <playMidi+0x179>
    40fc: 86 29        	stx	$29                     ; 0x2029 <playMidi+0x18f>
    40fe: a6 12        	ldx	$12                     ; 0x2012 <playMidi+0x178>
    4100: 86 26        	stx	$26                     ; 0x2026 <playMidi+0x18c>
    4102: d0 04        	bne	$4108 <printf+0x132c>
    4104: a5 13        	lda	$13                     ; 0x2013 <playMidi+0x179>
    4106: f0 3e        	beq	$4146 <printf+0x136a>
    4108: 18           	clc
    4109: a5 10        	lda	$10                     ; 0x2010 <playMidi+0x176>
    410b: 69 1e        	adc	#$1e
    410d: 48           	pha
    410e: a5 11        	lda	$11                     ; 0x2011 <playMidi+0x177>
    4110: 69 00        	adc	#$0
    4112: 85 13        	sta	$13                     ; 0x2013 <playMidi+0x179>
    4114: 68           	pla
    4115: aa           	tax
    4116: 18           	clc
    4117: 69 03        	adc	#$3
    4119: 85 12        	sta	$12                     ; 0x2012 <playMidi+0x178>
    411b: a5 13        	lda	$13                     ; 0x2013 <playMidi+0x179>
    411d: 85 14        	sta	$14                     ; 0x2014 <playMidi+0x17a>
    411f: a5 13        	lda	$13                     ; 0x2013 <playMidi+0x179>
    4121: 69 00        	adc	#$0
    4123: 85 13        	sta	$13                     ; 0x2013 <playMidi+0x179>
    4125: a5 17        	lda	$17                     ; 0x2017 <playMidi+0x17d>
    4127: d1 12        	cmp	($12),y                 ; 0x2012 <playMidi+0x178>
    4129: f0 03        	beq	$412e <printf+0x1352>
    412b: 4c 3a 40     	jmp	$403a <printf+0x125e>
    412e: 86 12        	stx	$12                     ; 0x2012 <playMidi+0x178>
    4130: a6 14        	ldx	$14                     ; 0x2014 <playMidi+0x17a>
    4132: 86 13        	stx	$13                     ; 0x2013 <playMidi+0x179>
    4134: a0 03        	ldy	#$3
    4136: b1 12        	lda	($12),y                 ; 0x2012 <playMidi+0x178>
    4138: 85 12        	sta	$12                     ; 0x2012 <playMidi+0x178>
    413a: a6 16        	ldx	$16                     ; 0x2016 <playMidi+0x17c>
    413c: e4 12        	cpx	$12                     ; 0x2012 <playMidi+0x178>
    413e: b0 03        	bcs	$4143 <printf+0x1367>
    4140: 4c 41 40     	jmp	$4041 <printf+0x1265>
    4143: 4c b2 40     	jmp	$40b2 <printf+0x12d6>
    4146: 64 29        	stz	$29                     ; 0x2029 <playMidi+0x18f>
    4148: 64 26        	stz	$26                     ; 0x2026 <playMidi+0x18c>
    414a: a2 00        	ldx	#$0
    414c: e4 25        	cpx	$25                     ; 0x2025 <playMidi+0x18b>
    414e: d0 09        	bne	$4159 <printf+0x137d>
    4150: a6 24        	ldx	$24                     ; 0x2024 <playMidi+0x18a>
    4152: e4 27        	cpx	$27                     ; 0x2027 <playMidi+0x18d>
    4154: 90 0a        	bcc	$4160 <printf+0x1384>
    4156: 4c 93 42     	jmp	$4293 <printf+0x14b7>
    4159: e4 25        	cpx	$25                     ; 0x2025 <playMidi+0x18b>
    415b: 90 03        	bcc	$4160 <printf+0x1384>
    415d: 4c 93 42     	jmp	$4293 <printf+0x14b7>
    4160: 18           	clc
    4161: a5 10        	lda	$10                     ; 0x2010 <playMidi+0x176>
    4163: 69 1e        	adc	#$1e
    4165: 48           	pha
    4166: a5 11        	lda	$11                     ; 0x2011 <playMidi+0x177>
    4168: 69 00        	adc	#$0
    416a: aa           	tax
    416b: 68           	pla
    416c: 85 12        	sta	$12                     ; 0x2012 <playMidi+0x178>
    416e: 86 13        	stx	$13                     ; 0x2013 <playMidi+0x179>
    4170: 18           	clc
    4171: 69 05        	adc	#$5
    4173: 85 14        	sta	$14                     ; 0x2014 <playMidi+0x17a>
    4175: 8a           	txa
    4176: 69 00        	adc	#$0
    4178: 85 15        	sta	$15                     ; 0x2015 <playMidi+0x17b>
    417a: a0 05        	ldy	#$5
    417c: b1 12        	lda	($12),y                 ; 0x2012 <playMidi+0x178>
    417e: 85 16        	sta	$16                     ; 0x2016 <playMidi+0x17c>
    4180: a0 01        	ldy	#$1
    4182: b1 14        	lda	($14),y                 ; 0x2014 <playMidi+0x17a>
    4184: 85 17        	sta	$17                     ; 0x2017 <playMidi+0x17d>
    4186: 18           	clc
    4187: a5 10        	lda	$10                     ; 0x2010 <playMidi+0x176>
    4189: 69 1e        	adc	#$1e
    418b: 48           	pha
    418c: a5 11        	lda	$11                     ; 0x2011 <playMidi+0x177>
    418e: 69 00        	adc	#$0
    4190: 85 12        	sta	$12                     ; 0x2012 <playMidi+0x178>
    4192: 68           	pla
    4193: 85 14        	sta	$14                     ; 0x2014 <playMidi+0x17a>
    4195: 18           	clc
    4196: 69 03        	adc	#$3
    4198: aa           	tax
    4199: a5 12        	lda	$12                     ; 0x2012 <playMidi+0x178>
    419b: 85 15        	sta	$15                     ; 0x2015 <playMidi+0x17b>
    419d: a5 12        	lda	$12                     ; 0x2012 <playMidi+0x178>
    419f: 69 00        	adc	#$0
    41a1: 86 12        	stx	$12                     ; 0x2012 <playMidi+0x178>
    41a3: a2 ff        	ldx	#$ff
    41a5: c6 27        	dec	$27                     ; 0x2027 <playMidi+0x18d>
    41a7: e4 27        	cpx	$27                     ; 0x2027 <playMidi+0x18d>
    41a9: d0 02        	bne	$41ad <printf+0x13d1>
    41ab: c6 25        	dec	$25                     ; 0x2025 <playMidi+0x18b>
    41ad: 85 13        	sta	$13                     ; 0x2013 <playMidi+0x179>
    41af: a5 17        	lda	$17                     ; 0x2017 <playMidi+0x17d>
    41b1: d1 12        	cmp	($12),y                 ; 0x2012 <playMidi+0x178>
    41b3: d0 17        	bne	$41cc <printf+0x13f0>
    41b5: a6 14        	ldx	$14                     ; 0x2014 <playMidi+0x17a>
    41b7: 86 12        	stx	$12                     ; 0x2012 <playMidi+0x178>
    41b9: a6 15        	ldx	$15                     ; 0x2015 <playMidi+0x17b>
    41bb: 86 13        	stx	$13                     ; 0x2013 <playMidi+0x179>
    41bd: a0 03        	ldy	#$3
    41bf: b1 12        	lda	($12),y                 ; 0x2012 <playMidi+0x178>
    41c1: 85 12        	sta	$12                     ; 0x2012 <playMidi+0x178>
    41c3: a6 16        	ldx	$16                     ; 0x2016 <playMidi+0x17c>
    41c5: e4 12        	cpx	$12                     ; 0x2012 <playMidi+0x178>
    41c7: 90 0a        	bcc	$41d3 <printf+0x13f7>
    41c9: 4c 44 42     	jmp	$4244 <printf+0x1468>
    41cc: d1 12        	cmp	($12),y                 ; 0x2012 <playMidi+0x178>
    41ce: 90 03        	bcc	$41d3 <printf+0x13f7>
    41d0: 4c 44 42     	jmp	$4244 <printf+0x1468>
    41d3: a0 01        	ldy	#$1
    41d5: 18           	clc
    41d6: a5 10        	lda	$10                     ; 0x2010 <playMidi+0x176>
    41d8: 69 1e        	adc	#$1e
    41da: 48           	pha
    41db: a5 11        	lda	$11                     ; 0x2011 <playMidi+0x177>
    41dd: 69 00        	adc	#$0
    41df: 85 12        	sta	$12                     ; 0x2012 <playMidi+0x178>
    41e1: 68           	pla
    41e2: aa           	tax
    41e3: 18           	clc
    41e4: 69 0f        	adc	#$f
    41e6: 85 13        	sta	$13                     ; 0x2013 <playMidi+0x179>
    41e8: 5a           	phy
    41e9: a4 12        	ldy	$12                     ; 0x2012 <playMidi+0x178>
    41eb: 84 14        	sty	$14                     ; 0x2014 <playMidi+0x17a>
    41ed: a5 12        	lda	$12                     ; 0x2012 <playMidi+0x178>
    41ef: 69 00        	adc	#$0
    41f1: a4 13        	ldy	$13                     ; 0x2013 <playMidi+0x179>
    41f3: 84 12        	sty	$12                     ; 0x2012 <playMidi+0x178>
    41f5: 7a           	ply
    41f6: 85 13        	sta	$13                     ; 0x2013 <playMidi+0x179>
    41f8: b1 12        	lda	($12),y                 ; 0x2012 <playMidi+0x178>
    41fa: c5 2f        	cmp	$2f                     ; 0x202f <playMidi+0x195>
    41fc: d0 3f        	bne	$423d <printf+0x1461>
    41fe: 86 12        	stx	$12                     ; 0x2012 <playMidi+0x178>
    4200: a6 14        	ldx	$14                     ; 0x2014 <playMidi+0x17a>
    4202: 86 13        	stx	$13                     ; 0x2013 <playMidi+0x179>
    4204: a0 0f        	ldy	#$f
    4206: b1 12        	lda	($12),y                 ; 0x2012 <playMidi+0x178>
    4208: c5 2e        	cmp	$2e                     ; 0x202e <playMidi+0x194>
    420a: d0 31        	bne	$423d <printf+0x1461>
    420c: 18           	clc
    420d: a5 10        	lda	$10                     ; 0x2010 <playMidi+0x176>
    420f: 69 1e        	adc	#$1e
    4211: 48           	pha
    4212: a5 11        	lda	$11                     ; 0x2011 <playMidi+0x177>
    4214: 69 00        	adc	#$0
    4216: aa           	tax
    4217: 68           	pla
    4218: 85 12        	sta	$12                     ; 0x2012 <playMidi+0x178>
    421a: 86 13        	stx	$13                     ; 0x2013 <playMidi+0x179>
    421c: 18           	clc
    421d: 69 09        	adc	#$9
    421f: 85 14        	sta	$14                     ; 0x2014 <playMidi+0x17a>
    4221: 8a           	txa
    4222: 69 00        	adc	#$0
    4224: 85 15        	sta	$15                     ; 0x2015 <playMidi+0x17b>
    4226: 18           	clc
    4227: a0 09        	ldy	#$9
    4229: a5 16        	lda	$16                     ; 0x2016 <playMidi+0x17c>
    422b: 71 12        	adc	($12),y                 ; 0x2012 <playMidi+0x178>
    422d: 85 12        	sta	$12                     ; 0x2012 <playMidi+0x178>
    422f: a0 01        	ldy	#$1
    4231: a5 17        	lda	$17                     ; 0x2017 <playMidi+0x17d>
    4233: 71 14        	adc	($14),y                 ; 0x2014 <playMidi+0x17a>
    4235: 85 13        	sta	$13                     ; 0x2013 <playMidi+0x179>
    4237: a9 30        	lda	#$30
    4239: 92 12        	sta	($12)                   ; 0x2012 <playMidi+0x178>
    423b: 80 07        	bra	$4244 <printf+0x1468>
    423d: a2 00        	ldx	#$0
    423f: a9 30        	lda	#$30
    4241: 20 ed 47     	jsr	$47ed <putchar>
    4244: 18           	clc
    4245: a5 10        	lda	$10                     ; 0x2010 <playMidi+0x176>
    4247: 69 1e        	adc	#$1e
    4249: 48           	pha
    424a: a5 11        	lda	$11                     ; 0x2011 <playMidi+0x177>
    424c: 69 00        	adc	#$0
    424e: aa           	tax
    424f: 68           	pla
    4250: 85 12        	sta	$12                     ; 0x2012 <playMidi+0x178>
    4252: 86 13        	stx	$13                     ; 0x2013 <playMidi+0x179>
    4254: 18           	clc
    4255: 69 05        	adc	#$5
    4257: 85 14        	sta	$14                     ; 0x2014 <playMidi+0x17a>
    4259: 8a           	txa
    425a: 69 00        	adc	#$0
    425c: 85 15        	sta	$15                     ; 0x2015 <playMidi+0x17b>
    425e: a0 05        	ldy	#$5
    4260: b1 12        	lda	($12),y                 ; 0x2012 <playMidi+0x178>
    4262: 85 16        	sta	$16                     ; 0x2016 <playMidi+0x17c>
    4264: a0 01        	ldy	#$1
    4266: b1 14        	lda	($14),y                 ; 0x2014 <playMidi+0x17a>
    4268: aa           	tax
    4269: a4 16        	ldy	$16                     ; 0x2016 <playMidi+0x17c>
    426b: c8           	iny
    426c: d0 01        	bne	$426f <printf+0x1493>
    426e: e8           	inx
    426f: 84 16        	sty	$16                     ; 0x2016 <playMidi+0x17c>
    4271: 98           	tya
    4272: a0 05        	ldy	#$5
    4274: 91 12        	sta	($12),y                 ; 0x2012 <playMidi+0x178>
    4276: a0 01        	ldy	#$1
    4278: 8a           	txa
    4279: 86 17        	stx	$17                     ; 0x2017 <playMidi+0x17d>
    427b: 91 14        	sta	($14),y                 ; 0x2014 <playMidi+0x17a>
    427d: a2 00        	ldx	#$0
    427f: e4 25        	cpx	$25                     ; 0x2025 <playMidi+0x18b>
    4281: d0 09        	bne	$428c <printf+0x14b0>
    4283: a6 24        	ldx	$24                     ; 0x2024 <playMidi+0x18a>
    4285: e4 27        	cpx	$27                     ; 0x2027 <playMidi+0x18d>
    4287: b0 0a        	bcs	$4293 <printf+0x14b7>
    4289: 4c 86 41     	jmp	$4186 <printf+0x13aa>
    428c: e4 25        	cpx	$25                     ; 0x2025 <playMidi+0x18b>
    428e: b0 03        	bcs	$4293 <printf+0x14b7>
    4290: 4c 86 41     	jmp	$4186 <printf+0x13aa>
    4293: a5 24        	lda	$24                     ; 0x2024 <playMidi+0x18a>
    4295: d0 03        	bne	$429a <printf+0x14be>
    4297: 4c 5b 45     	jmp	$455b <printf+0x177f>
    429a: c6 24        	dec	$24                     ; 0x2024 <playMidi+0x18a>
    429c: d0 03        	bne	$42a1 <printf+0x14c5>
    429e: 4c 0e 44     	jmp	$440e <printf+0x1632>
    42a1: a6 24        	ldx	$24                     ; 0x2024 <playMidi+0x18a>
    42a3: 86 28        	stx	$28                     ; 0x2028 <playMidi+0x18e>
    42a5: 5a           	phy
    42a6: a0 09        	ldy	#$9
    42a8: b1 10        	lda	($10),y                 ; 0x2010 <playMidi+0x176>
    42aa: 18           	clc
    42ab: 65 24        	adc	$24                     ; 0x2024 <playMidi+0x18a>
    42ad: 85 24        	sta	$24                     ; 0x2024 <playMidi+0x18a>
    42af: 88           	dey
    42b0: b1 10        	lda	($10),y                 ; 0x2010 <playMidi+0x176>
    42b2: 7a           	ply
    42b3: 69 00        	adc	#$0
    42b5: 85 25        	sta	$25                     ; 0x2025 <playMidi+0x18b>
    42b7: 4c 00 44     	jmp	$4400 <printf+0x1624>
    42ba: 85 16        	sta	$16                     ; 0x2016 <playMidi+0x17c>
    42bc: 5a           	phy
    42bd: a0 19        	ldy	#$19
    42bf: b1 10        	lda	($10),y                 ; 0x2010 <playMidi+0x176>
    42c1: 85 12        	sta	$12                     ; 0x2012 <playMidi+0x178>
    42c3: 88           	dey
    42c4: b1 10        	lda	($10),y                 ; 0x2010 <playMidi+0x176>
    42c6: 7a           	ply
    42c7: 85 13        	sta	$13                     ; 0x2013 <playMidi+0x179>
    42c9: a9 80        	lda	#$80
    42cb: 31 12        	and	($12),y                 ; 0x2012 <playMidi+0x178>
    42cd: f0 04        	beq	$42d3 <printf+0x14f7>
    42cf: a2 61        	ldx	#$61
    42d1: 80 02        	bra	$42d5 <printf+0x14f9>
    42d3: a2 41        	ldx	#$41
    42d5: 86 12        	stx	$12                     ; 0x2012 <playMidi+0x178>
    42d7: 18           	clc
    42d8: a5 16        	lda	$16                     ; 0x2016 <playMidi+0x17c>
    42da: 65 12        	adc	$12                     ; 0x2012 <playMidi+0x178>
    42dc: 18           	clc
    42dd: 69 f6        	adc	#$f6
    42df: 85 18        	sta	$18                     ; 0x2018 <playMidi+0x17e>
    42e1: 18           	clc
    42e2: a5 10        	lda	$10                     ; 0x2010 <playMidi+0x176>
    42e4: 69 1e        	adc	#$1e
    42e6: 85 14        	sta	$14                     ; 0x2014 <playMidi+0x17a>
    42e8: a2 01        	ldx	#$1
    42ea: b0 02        	bcs	$42ee <printf+0x1512>
    42ec: a2 00        	ldx	#$0
    42ee: 86 15        	stx	$15                     ; 0x2015 <playMidi+0x17b>
    42f0: 18           	clc
    42f1: a5 10        	lda	$10                     ; 0x2010 <playMidi+0x176>
    42f3: 69 1e        	adc	#$1e
    42f5: 48           	pha
    42f6: a5 11        	lda	$11                     ; 0x2011 <playMidi+0x177>
    42f8: 69 00        	adc	#$0
    42fa: aa           	tax
    42fb: 68           	pla
    42fc: 85 12        	sta	$12                     ; 0x2012 <playMidi+0x178>
    42fe: 86 13        	stx	$13                     ; 0x2013 <playMidi+0x179>
    4300: 18           	clc
    4301: 69 05        	adc	#$5
    4303: 85 16        	sta	$16                     ; 0x2016 <playMidi+0x17c>
    4305: 8a           	txa
    4306: 69 00        	adc	#$0
    4308: a6 15        	ldx	$15                     ; 0x2015 <playMidi+0x17b>
    430a: e0 01        	cpx	#$1
    430c: 48           	pha
    430d: a5 11        	lda	$11                     ; 0x2011 <playMidi+0x177>
    430f: 69 00        	adc	#$0
    4311: 85 15        	sta	$15                     ; 0x2015 <playMidi+0x17b>
    4313: 68           	pla
    4314: 85 17        	sta	$17                     ; 0x2017 <playMidi+0x17d>
    4316: 18           	clc
    4317: a5 14        	lda	$14                     ; 0x2014 <playMidi+0x17a>
    4319: 69 03        	adc	#$3
    431b: 85 14        	sta	$14                     ; 0x2014 <playMidi+0x17a>
    431d: a5 15        	lda	$15                     ; 0x2015 <playMidi+0x17b>
    431f: 69 00        	adc	#$0
    4321: 85 15        	sta	$15                     ; 0x2015 <playMidi+0x17b>
    4323: a0 05        	ldy	#$5
    4325: b1 12        	lda	($12),y                 ; 0x2012 <playMidi+0x178>
    4327: aa           	tax
    4328: a0 01        	ldy	#$1
    432a: b1 16        	lda	($16),y                 ; 0x2016 <playMidi+0x17c>
    432c: d1 14        	cmp	($14),y                 ; 0x2014 <playMidi+0x17a>
    432e: d0 11        	bne	$4341 <printf+0x1565>
    4330: a0 03        	ldy	#$3
    4332: 85 17        	sta	$17                     ; 0x2017 <playMidi+0x17d>
    4334: b1 12        	lda	($12),y                 ; 0x2012 <playMidi+0x178>
    4336: 85 12        	sta	$12                     ; 0x2012 <playMidi+0x178>
    4338: 86 16        	stx	$16                     ; 0x2016 <playMidi+0x17c>
    433a: e4 12        	cpx	$12                     ; 0x2012 <playMidi+0x178>
    433c: 90 0e        	bcc	$434c <printf+0x1570>
    433e: 4c bc 43     	jmp	$43bc <printf+0x15e0>
    4341: 86 16        	stx	$16                     ; 0x2016 <playMidi+0x17c>
    4343: d1 14        	cmp	($14),y                 ; 0x2014 <playMidi+0x17a>
    4345: 85 17        	sta	$17                     ; 0x2017 <playMidi+0x17d>
    4347: 90 03        	bcc	$434c <printf+0x1570>
    4349: 4c bc 43     	jmp	$43bc <printf+0x15e0>
    434c: a0 01        	ldy	#$1
    434e: 18           	clc
    434f: a5 10        	lda	$10                     ; 0x2010 <playMidi+0x176>
    4351: 69 1e        	adc	#$1e
    4353: 48           	pha
    4354: a5 11        	lda	$11                     ; 0x2011 <playMidi+0x177>
    4356: 69 00        	adc	#$0
    4358: 85 12        	sta	$12                     ; 0x2012 <playMidi+0x178>
    435a: 68           	pla
    435b: 85 14        	sta	$14                     ; 0x2014 <playMidi+0x17a>
    435d: 18           	clc
    435e: 69 0f        	adc	#$f
    4360: 85 13        	sta	$13                     ; 0x2013 <playMidi+0x179>
    4362: a6 12        	ldx	$12                     ; 0x2012 <playMidi+0x178>
    4364: a5 12        	lda	$12                     ; 0x2012 <playMidi+0x178>
    4366: 69 00        	adc	#$0
    4368: 5a           	phy
    4369: a4 13        	ldy	$13                     ; 0x2013 <playMidi+0x179>
    436b: 84 12        	sty	$12                     ; 0x2012 <playMidi+0x178>
    436d: 7a           	ply
    436e: 85 13        	sta	$13                     ; 0x2013 <playMidi+0x179>
    4370: b1 12        	lda	($12),y                 ; 0x2012 <playMidi+0x178>
    4372: c5 2f        	cmp	$2f                     ; 0x202f <playMidi+0x195>
    4374: d0 3f        	bne	$43b5 <printf+0x15d9>
    4376: a4 14        	ldy	$14                     ; 0x2014 <playMidi+0x17a>
    4378: 84 12        	sty	$12                     ; 0x2012 <playMidi+0x178>
    437a: 86 13        	stx	$13                     ; 0x2013 <playMidi+0x179>
    437c: a0 0f        	ldy	#$f
    437e: b1 12        	lda	($12),y                 ; 0x2012 <playMidi+0x178>
    4380: c5 2e        	cmp	$2e                     ; 0x202e <playMidi+0x194>
    4382: d0 31        	bne	$43b5 <printf+0x15d9>
    4384: 18           	clc
    4385: a5 10        	lda	$10                     ; 0x2010 <playMidi+0x176>
    4387: 69 1e        	adc	#$1e
    4389: 48           	pha
    438a: a5 11        	lda	$11                     ; 0x2011 <playMidi+0x177>
    438c: 69 00        	adc	#$0
    438e: aa           	tax
    438f: 68           	pla
    4390: 85 12        	sta	$12                     ; 0x2012 <playMidi+0x178>
    4392: 86 13        	stx	$13                     ; 0x2013 <playMidi+0x179>
    4394: 18           	clc
    4395: 69 09        	adc	#$9
    4397: 85 14        	sta	$14                     ; 0x2014 <playMidi+0x17a>
    4399: 8a           	txa
    439a: 69 00        	adc	#$0
    439c: 85 15        	sta	$15                     ; 0x2015 <playMidi+0x17b>
    439e: 18           	clc
    439f: a0 09        	ldy	#$9
    43a1: a5 16        	lda	$16                     ; 0x2016 <playMidi+0x17c>
    43a3: 71 12        	adc	($12),y                 ; 0x2012 <playMidi+0x178>
    43a5: 85 12        	sta	$12                     ; 0x2012 <playMidi+0x178>
    43a7: a0 01        	ldy	#$1
    43a9: a5 17        	lda	$17                     ; 0x2017 <playMidi+0x17d>
    43ab: 71 14        	adc	($14),y                 ; 0x2014 <playMidi+0x17a>
    43ad: 85 13        	sta	$13                     ; 0x2013 <playMidi+0x179>
    43af: a5 18        	lda	$18                     ; 0x2018 <playMidi+0x17e>
    43b1: 92 12        	sta	($12)                   ; 0x2012 <playMidi+0x178>
    43b3: 80 07        	bra	$43bc <printf+0x15e0>
    43b5: a2 00        	ldx	#$0
    43b7: a5 18        	lda	$18                     ; 0x2018 <playMidi+0x17e>
    43b9: 20 ed 47     	jsr	$47ed <putchar>
    43bc: 18           	clc
    43bd: a5 10        	lda	$10                     ; 0x2010 <playMidi+0x176>
    43bf: 69 1e        	adc	#$1e
    43c1: 48           	pha
    43c2: a5 11        	lda	$11                     ; 0x2011 <playMidi+0x177>
    43c4: 69 00        	adc	#$0
    43c6: aa           	tax
    43c7: 68           	pla
    43c8: 85 12        	sta	$12                     ; 0x2012 <playMidi+0x178>
    43ca: 86 13        	stx	$13                     ; 0x2013 <playMidi+0x179>
    43cc: 18           	clc
    43cd: 69 05        	adc	#$5
    43cf: 85 14        	sta	$14                     ; 0x2014 <playMidi+0x17a>
    43d1: 8a           	txa
    43d2: 69 00        	adc	#$0
    43d4: 85 15        	sta	$15                     ; 0x2015 <playMidi+0x17b>
    43d6: a0 05        	ldy	#$5
    43d8: b1 12        	lda	($12),y                 ; 0x2012 <playMidi+0x178>
    43da: 85 16        	sta	$16                     ; 0x2016 <playMidi+0x17c>
    43dc: a0 01        	ldy	#$1
    43de: b1 14        	lda	($14),y                 ; 0x2014 <playMidi+0x17a>
    43e0: aa           	tax
    43e1: a5 16        	lda	$16                     ; 0x2016 <playMidi+0x17c>
    43e3: 1a           	inc
    43e4: d0 01        	bne	$43e7 <printf+0x160b>
    43e6: e8           	inx
    43e7: a0 05        	ldy	#$5
    43e9: 91 12        	sta	($12),y                 ; 0x2012 <playMidi+0x178>
    43eb: a0 01        	ldy	#$1
    43ed: 8a           	txa
    43ee: 91 14        	sta	($14),y                 ; 0x2014 <playMidi+0x17a>
    43f0: c6 28        	dec	$28                     ; 0x2028 <playMidi+0x18e>
    43f2: a2 ff        	ldx	#$ff
    43f4: c6 24        	dec	$24                     ; 0x2024 <playMidi+0x18a>
    43f6: e4 24        	cpx	$24                     ; 0x2024 <playMidi+0x18a>
    43f8: d0 02        	bne	$43fc <printf+0x1620>
    43fa: c6 25        	dec	$25                     ; 0x2025 <playMidi+0x18b>
    43fc: a5 28        	lda	$28                     ; 0x2028 <playMidi+0x18e>
    43fe: f0 0e        	beq	$440e <printf+0x1632>
    4400: b2 24        	lda	($24)                   ; 0x2024 <playMidi+0x18a>
    4402: c9 0a        	cmp	#$a
    4404: 90 03        	bcc	$4409 <printf+0x162d>
    4406: 4c ba 42     	jmp	$42ba <printf+0x14de>
    4409: 09 30        	ora	#$30
    440b: 4c df 42     	jmp	$42df <printf+0x1503>
    440e: a0 0b        	ldy	#$b
    4410: b1 10        	lda	($10),y                 ; 0x2010 <playMidi+0x176>
    4412: 85 12        	sta	$12                     ; 0x2012 <playMidi+0x178>
    4414: 88           	dey
    4415: b1 10        	lda	($10),y                 ; 0x2010 <playMidi+0x176>
    4417: 85 13        	sta	$13                     ; 0x2013 <playMidi+0x179>
    4419: a0 02        	ldy	#$2
    441b: b1 12        	lda	($12),y                 ; 0x2012 <playMidi+0x178>
    441d: c9 0a        	cmp	#$a
    441f: b0 04        	bcs	$4425 <printf+0x1649>
    4421: 09 30        	ora	#$30
    4423: 80 25        	bra	$444a <printf+0x166e>
    4425: 85 16        	sta	$16                     ; 0x2016 <playMidi+0x17c>
    4427: a0 19        	ldy	#$19
    4429: b1 10        	lda	($10),y                 ; 0x2010 <playMidi+0x176>
    442b: 85 12        	sta	$12                     ; 0x2012 <playMidi+0x178>
    442d: 88           	dey
    442e: b1 10        	lda	($10),y                 ; 0x2010 <playMidi+0x176>
    4430: 85 13        	sta	$13                     ; 0x2013 <playMidi+0x179>
    4432: a9 80        	lda	#$80
    4434: a0 01        	ldy	#$1
    4436: 31 12        	and	($12),y                 ; 0x2012 <playMidi+0x178>
    4438: f0 04        	beq	$443e <printf+0x1662>
    443a: a2 61        	ldx	#$61
    443c: 80 02        	bra	$4440 <printf+0x1664>
    443e: a2 41        	ldx	#$41
    4440: 86 12        	stx	$12                     ; 0x2012 <playMidi+0x178>
    4442: 18           	clc
    4443: a5 16        	lda	$16                     ; 0x2016 <playMidi+0x17c>
    4445: 65 12        	adc	$12                     ; 0x2012 <playMidi+0x178>
    4447: 18           	clc
    4448: 69 f6        	adc	#$f6
    444a: 85 18        	sta	$18                     ; 0x2018 <playMidi+0x17e>
    444c: 18           	clc
    444d: a5 10        	lda	$10                     ; 0x2010 <playMidi+0x176>
    444f: 69 1e        	adc	#$1e
    4451: 85 14        	sta	$14                     ; 0x2014 <playMidi+0x17a>
    4453: a2 01        	ldx	#$1
    4455: b0 02        	bcs	$4459 <printf+0x167d>
    4457: a2 00        	ldx	#$0
    4459: 86 15        	stx	$15                     ; 0x2015 <playMidi+0x17b>
    445b: 18           	clc
    445c: a5 10        	lda	$10                     ; 0x2010 <playMidi+0x176>
    445e: 69 1e        	adc	#$1e
    4460: 48           	pha
    4461: a5 11        	lda	$11                     ; 0x2011 <playMidi+0x177>
    4463: 69 00        	adc	#$0
    4465: aa           	tax
    4466: 68           	pla
    4467: 85 12        	sta	$12                     ; 0x2012 <playMidi+0x178>
    4469: 86 13        	stx	$13                     ; 0x2013 <playMidi+0x179>
    446b: 18           	clc
    446c: 69 05        	adc	#$5
    446e: 85 16        	sta	$16                     ; 0x2016 <playMidi+0x17c>
    4470: 8a           	txa
    4471: 69 00        	adc	#$0
    4473: a6 15        	ldx	$15                     ; 0x2015 <playMidi+0x17b>
    4475: e0 01        	cpx	#$1
    4477: 48           	pha
    4478: a5 11        	lda	$11                     ; 0x2011 <playMidi+0x177>
    447a: 69 00        	adc	#$0
    447c: 85 15        	sta	$15                     ; 0x2015 <playMidi+0x17b>
    447e: 68           	pla
    447f: 85 17        	sta	$17                     ; 0x2017 <playMidi+0x17d>
    4481: 18           	clc
    4482: a5 14        	lda	$14                     ; 0x2014 <playMidi+0x17a>
    4484: 69 03        	adc	#$3
    4486: 85 14        	sta	$14                     ; 0x2014 <playMidi+0x17a>
    4488: a5 15        	lda	$15                     ; 0x2015 <playMidi+0x17b>
    448a: 69 00        	adc	#$0
    448c: 85 15        	sta	$15                     ; 0x2015 <playMidi+0x17b>
    448e: a0 05        	ldy	#$5
    4490: b1 12        	lda	($12),y                 ; 0x2012 <playMidi+0x178>
    4492: aa           	tax
    4493: a0 01        	ldy	#$1
    4495: b1 16        	lda	($16),y                 ; 0x2016 <playMidi+0x17c>
    4497: d1 14        	cmp	($14),y                 ; 0x2014 <playMidi+0x17a>
    4499: d0 11        	bne	$44ac <printf+0x16d0>
    449b: a0 03        	ldy	#$3
    449d: 85 17        	sta	$17                     ; 0x2017 <playMidi+0x17d>
    449f: b1 12        	lda	($12),y                 ; 0x2012 <playMidi+0x178>
    44a1: 85 12        	sta	$12                     ; 0x2012 <playMidi+0x178>
    44a3: 86 16        	stx	$16                     ; 0x2016 <playMidi+0x17c>
    44a5: e4 12        	cpx	$12                     ; 0x2012 <playMidi+0x178>
    44a7: 90 0e        	bcc	$44b7 <printf+0x16db>
    44a9: 4c 27 45     	jmp	$4527 <printf+0x174b>
    44ac: 86 16        	stx	$16                     ; 0x2016 <playMidi+0x17c>
    44ae: d1 14        	cmp	($14),y                 ; 0x2014 <playMidi+0x17a>
    44b0: 85 17        	sta	$17                     ; 0x2017 <playMidi+0x17d>
    44b2: 90 03        	bcc	$44b7 <printf+0x16db>
    44b4: 4c 27 45     	jmp	$4527 <printf+0x174b>
    44b7: a0 01        	ldy	#$1
    44b9: 18           	clc
    44ba: a5 10        	lda	$10                     ; 0x2010 <playMidi+0x176>
    44bc: 69 1e        	adc	#$1e
    44be: 48           	pha
    44bf: a5 11        	lda	$11                     ; 0x2011 <playMidi+0x177>
    44c1: 69 00        	adc	#$0
    44c3: 85 12        	sta	$12                     ; 0x2012 <playMidi+0x178>
    44c5: 68           	pla
    44c6: 85 14        	sta	$14                     ; 0x2014 <playMidi+0x17a>
    44c8: 18           	clc
    44c9: 69 0f        	adc	#$f
    44cb: 85 13        	sta	$13                     ; 0x2013 <playMidi+0x179>
    44cd: a6 12        	ldx	$12                     ; 0x2012 <playMidi+0x178>
    44cf: a5 12        	lda	$12                     ; 0x2012 <playMidi+0x178>
    44d1: 69 00        	adc	#$0
    44d3: 5a           	phy
    44d4: a4 13        	ldy	$13                     ; 0x2013 <playMidi+0x179>
    44d6: 84 12        	sty	$12                     ; 0x2012 <playMidi+0x178>
    44d8: 7a           	ply
    44d9: 85 13        	sta	$13                     ; 0x2013 <playMidi+0x179>
    44db: b1 12        	lda	($12),y                 ; 0x2012 <playMidi+0x178>
    44dd: c5 2f        	cmp	$2f                     ; 0x202f <playMidi+0x195>
    44df: d0 3f        	bne	$4520 <printf+0x1744>
    44e1: a4 14        	ldy	$14                     ; 0x2014 <playMidi+0x17a>
    44e3: 84 12        	sty	$12                     ; 0x2012 <playMidi+0x178>
    44e5: 86 13        	stx	$13                     ; 0x2013 <playMidi+0x179>
    44e7: a0 0f        	ldy	#$f
    44e9: b1 12        	lda	($12),y                 ; 0x2012 <playMidi+0x178>
    44eb: c5 2e        	cmp	$2e                     ; 0x202e <playMidi+0x194>
    44ed: d0 31        	bne	$4520 <printf+0x1744>
    44ef: 18           	clc
    44f0: a5 10        	lda	$10                     ; 0x2010 <playMidi+0x176>
    44f2: 69 1e        	adc	#$1e
    44f4: 48           	pha
    44f5: a5 11        	lda	$11                     ; 0x2011 <playMidi+0x177>
    44f7: 69 00        	adc	#$0
    44f9: aa           	tax
    44fa: 68           	pla
    44fb: 85 12        	sta	$12                     ; 0x2012 <playMidi+0x178>
    44fd: 86 13        	stx	$13                     ; 0x2013 <playMidi+0x179>
    44ff: 18           	clc
    4500: 69 09        	adc	#$9
    4502: 85 14        	sta	$14                     ; 0x2014 <playMidi+0x17a>
    4504: 8a           	txa
    4505: 69 00        	adc	#$0
    4507: 85 15        	sta	$15                     ; 0x2015 <playMidi+0x17b>
    4509: 18           	clc
    450a: a0 09        	ldy	#$9
    450c: a5 16        	lda	$16                     ; 0x2016 <playMidi+0x17c>
    450e: 71 12        	adc	($12),y                 ; 0x2012 <playMidi+0x178>
    4510: 85 12        	sta	$12                     ; 0x2012 <playMidi+0x178>
    4512: a0 01        	ldy	#$1
    4514: a5 17        	lda	$17                     ; 0x2017 <playMidi+0x17d>
    4516: 71 14        	adc	($14),y                 ; 0x2014 <playMidi+0x17a>
    4518: 85 13        	sta	$13                     ; 0x2013 <playMidi+0x179>
    451a: a5 18        	lda	$18                     ; 0x2018 <playMidi+0x17e>
    451c: 92 12        	sta	($12)                   ; 0x2012 <playMidi+0x178>
    451e: 80 07        	bra	$4527 <printf+0x174b>
    4520: a2 00        	ldx	#$0
    4522: a5 18        	lda	$18                     ; 0x2018 <playMidi+0x17e>
    4524: 20 ed 47     	jsr	$47ed <putchar>
    4527: 18           	clc
    4528: a5 10        	lda	$10                     ; 0x2010 <playMidi+0x176>
    452a: 69 1e        	adc	#$1e
    452c: 48           	pha
    452d: a5 11        	lda	$11                     ; 0x2011 <playMidi+0x177>
    452f: 69 00        	adc	#$0
    4531: aa           	tax
    4532: 68           	pla
    4533: 85 12        	sta	$12                     ; 0x2012 <playMidi+0x178>
    4535: 86 13        	stx	$13                     ; 0x2013 <playMidi+0x179>
    4537: 18           	clc
    4538: 69 05        	adc	#$5
    453a: 85 14        	sta	$14                     ; 0x2014 <playMidi+0x17a>
    453c: 8a           	txa
    453d: 69 00        	adc	#$0
    453f: 85 15        	sta	$15                     ; 0x2015 <playMidi+0x17b>
    4541: a0 05        	ldy	#$5
    4543: b1 12        	lda	($12),y                 ; 0x2012 <playMidi+0x178>
    4545: 85 16        	sta	$16                     ; 0x2016 <playMidi+0x17c>
    4547: a0 01        	ldy	#$1
    4549: b1 14        	lda	($14),y                 ; 0x2014 <playMidi+0x17a>
    454b: aa           	tax
    454c: a5 16        	lda	$16                     ; 0x2016 <playMidi+0x17c>
    454e: 1a           	inc
    454f: d0 01        	bne	$4552 <printf+0x1776>
    4551: e8           	inx
    4552: a0 05        	ldy	#$5
    4554: 91 12        	sta	($12),y                 ; 0x2012 <playMidi+0x178>
    4556: a0 01        	ldy	#$1
    4558: 8a           	txa
    4559: 91 14        	sta	($14),y                 ; 0x2014 <playMidi+0x17a>
    455b: 5a           	phy
    455c: a0 19        	ldy	#$19
    455e: b1 10        	lda	($10),y                 ; 0x2010 <playMidi+0x176>
    4560: 85 12        	sta	$12                     ; 0x2012 <playMidi+0x178>
    4562: 88           	dey
    4563: b1 10        	lda	($10),y                 ; 0x2010 <playMidi+0x176>
    4565: 7a           	ply
    4566: 85 13        	sta	$13                     ; 0x2013 <playMidi+0x179>
    4568: b1 12        	lda	($12),y                 ; 0x2012 <playMidi+0x178>
    456a: 29 01        	and	#$1
    456c: 48           	pha
    456d: a0 14        	ldy	#$14
    456f: b1 10        	lda	($10),y                 ; 0x2010 <playMidi+0x176>
    4571: 85 24        	sta	$24                     ; 0x2024 <playMidi+0x18a>
    4573: c8           	iny
    4574: b1 10        	lda	($10),y                 ; 0x2010 <playMidi+0x176>
    4576: 85 25        	sta	$25                     ; 0x2025 <playMidi+0x18b>
    4578: 68           	pla
    4579: f0 03        	beq	$457e <printf+0x17a2>
    457b: 4c dc 45     	jmp	$45dc <printf+0x1800>
    457e: 18           	clc
    457f: a5 10        	lda	$10                     ; 0x2010 <playMidi+0x176>
    4581: 69 1e        	adc	#$1e
    4583: 48           	pha
    4584: a5 11        	lda	$11                     ; 0x2011 <playMidi+0x177>
    4586: 69 00        	adc	#$0
    4588: aa           	tax
    4589: 68           	pla
    458a: 85 12        	sta	$12                     ; 0x2012 <playMidi+0x178>
    458c: 86 13        	stx	$13                     ; 0x2013 <playMidi+0x179>
    458e: 18           	clc
    458f: 69 05        	adc	#$5
    4591: 85 14        	sta	$14                     ; 0x2014 <playMidi+0x17a>
    4593: 8a           	txa
    4594: 69 00        	adc	#$0
    4596: 85 15        	sta	$15                     ; 0x2015 <playMidi+0x17b>
    4598: a0 05        	ldy	#$5
    459a: b1 12        	lda	($12),y                 ; 0x2012 <playMidi+0x178>
    459c: 85 16        	sta	$16                     ; 0x2016 <playMidi+0x17c>
    459e: a0 01        	ldy	#$1
    45a0: b1 14        	lda	($14),y                 ; 0x2014 <playMidi+0x17a>
    45a2: 85 17        	sta	$17                     ; 0x2017 <playMidi+0x17d>
    45a4: 18           	clc
    45a5: a5 10        	lda	$10                     ; 0x2010 <playMidi+0x176>
    45a7: 69 1e        	adc	#$1e
    45a9: 48           	pha
    45aa: a5 11        	lda	$11                     ; 0x2011 <playMidi+0x177>
    45ac: 69 00        	adc	#$0
    45ae: aa           	tax
    45af: 68           	pla
    45b0: 85 12        	sta	$12                     ; 0x2012 <playMidi+0x178>
    45b2: 86 13        	stx	$13                     ; 0x2013 <playMidi+0x179>
    45b4: 18           	clc
    45b5: 69 03        	adc	#$3
    45b7: 85 14        	sta	$14                     ; 0x2014 <playMidi+0x17a>
    45b9: 8a           	txa
    45ba: 69 00        	adc	#$0
    45bc: 85 15        	sta	$15                     ; 0x2015 <playMidi+0x17b>
    45be: a0 03        	ldy	#$3
    45c0: b1 12        	lda	($12),y                 ; 0x2012 <playMidi+0x178>
    45c2: 85 18        	sta	$18                     ; 0x2018 <playMidi+0x17e>
    45c4: a0 01        	ldy	#$1
    45c6: b1 14        	lda	($14),y                 ; 0x2014 <playMidi+0x17a>
    45c8: 85 12        	sta	$12                     ; 0x2012 <playMidi+0x178>
    45ca: a6 17        	ldx	$17                     ; 0x2017 <playMidi+0x17d>
    45cc: 85 17        	sta	$17                     ; 0x2017 <playMidi+0x17d>
    45ce: e4 12        	cpx	$12                     ; 0x2012 <playMidi+0x178>
    45d0: f0 03        	beq	$45d5 <printf+0x17f9>
    45d2: 4c 25 47     	jmp	$4725 <printf+0x1949>
    45d5: a6 16        	ldx	$16                     ; 0x2016 <playMidi+0x17c>
    45d7: e4 18        	cpx	$18                     ; 0x2018 <playMidi+0x17e>
    45d9: 4c 29 47     	jmp	$4729 <printf+0x194d>
    45dc: 18           	clc
    45dd: a5 10        	lda	$10                     ; 0x2010 <playMidi+0x176>
    45df: 69 1e        	adc	#$1e
    45e1: 48           	pha
    45e2: a5 11        	lda	$11                     ; 0x2011 <playMidi+0x177>
    45e4: 69 00        	adc	#$0
    45e6: aa           	tax
    45e7: 68           	pla
    45e8: 85 12        	sta	$12                     ; 0x2012 <playMidi+0x178>
    45ea: 86 13        	stx	$13                     ; 0x2013 <playMidi+0x179>
    45ec: 18           	clc
    45ed: 69 05        	adc	#$5
    45ef: 85 14        	sta	$14                     ; 0x2014 <playMidi+0x17a>
    45f1: 8a           	txa
    45f2: 69 00        	adc	#$0
    45f4: 85 15        	sta	$15                     ; 0x2015 <playMidi+0x17b>
    45f6: a0 05        	ldy	#$5
    45f8: b1 12        	lda	($12),y                 ; 0x2012 <playMidi+0x178>
    45fa: 85 16        	sta	$16                     ; 0x2016 <playMidi+0x17c>
    45fc: a0 01        	ldy	#$1
    45fe: b1 14        	lda	($14),y                 ; 0x2014 <playMidi+0x17a>
    4600: 85 12        	sta	$12                     ; 0x2012 <playMidi+0x178>
    4602: a6 29        	ldx	$29                     ; 0x2029 <playMidi+0x18f>
    4604: a5 26        	lda	$26                     ; 0x2026 <playMidi+0x18c>
    4606: d0 06        	bne	$460e <printf+0x1832>
    4608: 8a           	txa
    4609: d0 03        	bne	$460e <printf+0x1832>
    460b: 4c a3 47     	jmp	$47a3 <printf+0x19c7>
    460e: a6 12        	ldx	$12                     ; 0x2012 <playMidi+0x178>
    4610: 86 17        	stx	$17                     ; 0x2017 <playMidi+0x17d>
    4612: 4c e1 46     	jmp	$46e1 <printf+0x1905>
    4615: d1 12        	cmp	($12),y                 ; 0x2012 <playMidi+0x178>
    4617: 90 03        	bcc	$461c <printf+0x1840>
    4619: 4c 8d 46     	jmp	$468d <printf+0x18b1>
    461c: a0 01        	ldy	#$1
    461e: 18           	clc
    461f: a5 10        	lda	$10                     ; 0x2010 <playMidi+0x176>
    4621: 69 1e        	adc	#$1e
    4623: 48           	pha
    4624: a5 11        	lda	$11                     ; 0x2011 <playMidi+0x177>
    4626: 69 00        	adc	#$0
    4628: 85 12        	sta	$12                     ; 0x2012 <playMidi+0x178>
    462a: 68           	pla
    462b: aa           	tax
    462c: 18           	clc
    462d: 69 0f        	adc	#$f
    462f: 85 13        	sta	$13                     ; 0x2013 <playMidi+0x179>
    4631: 5a           	phy
    4632: a4 12        	ldy	$12                     ; 0x2012 <playMidi+0x178>
    4634: 84 14        	sty	$14                     ; 0x2014 <playMidi+0x17a>
    4636: a5 12        	lda	$12                     ; 0x2012 <playMidi+0x178>
    4638: 69 00        	adc	#$0
    463a: a4 13        	ldy	$13                     ; 0x2013 <playMidi+0x179>
    463c: 84 12        	sty	$12                     ; 0x2012 <playMidi+0x178>
    463e: 7a           	ply
    463f: 85 13        	sta	$13                     ; 0x2013 <playMidi+0x179>
    4641: b1 12        	lda	($12),y                 ; 0x2012 <playMidi+0x178>
    4643: c5 2f        	cmp	$2f                     ; 0x202f <playMidi+0x195>
    4645: d0 3f        	bne	$4686 <printf+0x18aa>
    4647: 86 12        	stx	$12                     ; 0x2012 <playMidi+0x178>
    4649: a6 14        	ldx	$14                     ; 0x2014 <playMidi+0x17a>
    464b: 86 13        	stx	$13                     ; 0x2013 <playMidi+0x179>
    464d: a0 0f        	ldy	#$f
    464f: b1 12        	lda	($12),y                 ; 0x2012 <playMidi+0x178>
    4651: c5 2e        	cmp	$2e                     ; 0x202e <playMidi+0x194>
    4653: d0 31        	bne	$4686 <printf+0x18aa>
    4655: 18           	clc
    4656: a5 10        	lda	$10                     ; 0x2010 <playMidi+0x176>
    4658: 69 1e        	adc	#$1e
    465a: 48           	pha
    465b: a5 11        	lda	$11                     ; 0x2011 <playMidi+0x177>
    465d: 69 00        	adc	#$0
    465f: aa           	tax
    4660: 68           	pla
    4661: 85 12        	sta	$12                     ; 0x2012 <playMidi+0x178>
    4663: 86 13        	stx	$13                     ; 0x2013 <playMidi+0x179>
    4665: 18           	clc
    4666: 69 09        	adc	#$9
    4668: 85 14        	sta	$14                     ; 0x2014 <playMidi+0x17a>
    466a: 8a           	txa
    466b: 69 00        	adc	#$0
    466d: 85 15        	sta	$15                     ; 0x2015 <playMidi+0x17b>
    466f: 18           	clc
    4670: a0 09        	ldy	#$9
    4672: a5 16        	lda	$16                     ; 0x2016 <playMidi+0x17c>
    4674: 71 12        	adc	($12),y                 ; 0x2012 <playMidi+0x178>
    4676: 85 12        	sta	$12                     ; 0x2012 <playMidi+0x178>
    4678: a0 01        	ldy	#$1
    467a: a5 17        	lda	$17                     ; 0x2017 <playMidi+0x17d>
    467c: 71 14        	adc	($14),y                 ; 0x2014 <playMidi+0x17a>
    467e: 85 13        	sta	$13                     ; 0x2013 <playMidi+0x179>
    4680: a9 20        	lda	#$20
    4682: 92 12        	sta	($12)                   ; 0x2012 <playMidi+0x178>
    4684: 80 07        	bra	$468d <printf+0x18b1>
    4686: a2 00        	ldx	#$0
    4688: a9 20        	lda	#$20
    468a: 20 ed 47     	jsr	$47ed <putchar>
    468d: 18           	clc
    468e: a5 10        	lda	$10                     ; 0x2010 <playMidi+0x176>
    4690: 69 1e        	adc	#$1e
    4692: 48           	pha
    4693: a5 11        	lda	$11                     ; 0x2011 <playMidi+0x177>
    4695: 69 00        	adc	#$0
    4697: aa           	tax
    4698: 68           	pla
    4699: 85 12        	sta	$12                     ; 0x2012 <playMidi+0x178>
    469b: 86 13        	stx	$13                     ; 0x2013 <playMidi+0x179>
    469d: 18           	clc
    469e: 69 05        	adc	#$5
    46a0: 85 14        	sta	$14                     ; 0x2014 <playMidi+0x17a>
    46a2: 8a           	txa
    46a3: 69 00        	adc	#$0
    46a5: 85 15        	sta	$15                     ; 0x2015 <playMidi+0x17b>
    46a7: a0 05        	ldy	#$5
    46a9: b1 12        	lda	($12),y                 ; 0x2012 <playMidi+0x178>
    46ab: 85 16        	sta	$16                     ; 0x2016 <playMidi+0x17c>
    46ad: a0 01        	ldy	#$1
    46af: b1 14        	lda	($14),y                 ; 0x2014 <playMidi+0x17a>
    46b1: aa           	tax
    46b2: a4 16        	ldy	$16                     ; 0x2016 <playMidi+0x17c>
    46b4: c8           	iny
    46b5: d0 01        	bne	$46b8 <printf+0x18dc>
    46b7: e8           	inx
    46b8: 84 16        	sty	$16                     ; 0x2016 <playMidi+0x17c>
    46ba: 98           	tya
    46bb: a0 05        	ldy	#$5
    46bd: 91 12        	sta	($12),y                 ; 0x2012 <playMidi+0x178>
    46bf: a0 01        	ldy	#$1
    46c1: 8a           	txa
    46c2: 86 17        	stx	$17                     ; 0x2017 <playMidi+0x17d>
    46c4: 91 14        	sta	($14),y                 ; 0x2014 <playMidi+0x17a>
    46c6: a5 29        	lda	$29                     ; 0x2029 <playMidi+0x18f>
    46c8: a6 26        	ldx	$26                     ; 0x2026 <playMidi+0x18c>
    46ca: 86 12        	stx	$12                     ; 0x2012 <playMidi+0x178>
    46cc: 3a           	dec
    46cd: c9 ff        	cmp	#$ff
    46cf: d0 02        	bne	$46d3 <printf+0x18f7>
    46d1: c6 12        	dec	$12                     ; 0x2012 <playMidi+0x178>
    46d3: 85 29        	sta	$29                     ; 0x2029 <playMidi+0x18f>
    46d5: a6 12        	ldx	$12                     ; 0x2012 <playMidi+0x178>
    46d7: 86 26        	stx	$26                     ; 0x2026 <playMidi+0x18c>
    46d9: d0 06        	bne	$46e1 <printf+0x1905>
    46db: aa           	tax
    46dc: d0 03        	bne	$46e1 <printf+0x1905>
    46de: 4c a4 45     	jmp	$45a4 <printf+0x17c8>
    46e1: 18           	clc
    46e2: a5 10        	lda	$10                     ; 0x2010 <playMidi+0x176>
    46e4: 69 1e        	adc	#$1e
    46e6: 48           	pha
    46e7: a5 11        	lda	$11                     ; 0x2011 <playMidi+0x177>
    46e9: 69 00        	adc	#$0
    46eb: 85 12        	sta	$12                     ; 0x2012 <playMidi+0x178>
    46ed: 68           	pla
    46ee: 18           	clc
    46ef: aa           	tax
    46f0: 69 03        	adc	#$3
    46f2: 85 13        	sta	$13                     ; 0x2013 <playMidi+0x179>
    46f4: 5a           	phy
    46f5: a4 12        	ldy	$12                     ; 0x2012 <playMidi+0x178>
    46f7: 84 14        	sty	$14                     ; 0x2014 <playMidi+0x17a>
    46f9: a5 12        	lda	$12                     ; 0x2012 <playMidi+0x178>
    46fb: 69 00        	adc	#$0
    46fd: a4 13        	ldy	$13                     ; 0x2013 <playMidi+0x179>
    46ff: 84 12        	sty	$12                     ; 0x2012 <playMidi+0x178>
    4701: 7a           	ply
    4702: 85 13        	sta	$13                     ; 0x2013 <playMidi+0x179>
    4704: a5 17        	lda	$17                     ; 0x2017 <playMidi+0x17d>
    4706: d1 12        	cmp	($12),y                 ; 0x2012 <playMidi+0x178>
    4708: f0 03        	beq	$470d <printf+0x1931>
    470a: 4c 15 46     	jmp	$4615 <printf+0x1839>
    470d: 86 12        	stx	$12                     ; 0x2012 <playMidi+0x178>
    470f: a6 14        	ldx	$14                     ; 0x2014 <playMidi+0x17a>
    4711: 86 13        	stx	$13                     ; 0x2013 <playMidi+0x179>
    4713: a0 03        	ldy	#$3
    4715: b1 12        	lda	($12),y                 ; 0x2012 <playMidi+0x178>
    4717: 85 12        	sta	$12                     ; 0x2012 <playMidi+0x178>
    4719: a6 16        	ldx	$16                     ; 0x2016 <playMidi+0x17c>
    471b: e4 12        	cpx	$12                     ; 0x2012 <playMidi+0x178>
    471d: b0 03        	bcs	$4722 <printf+0x1946>
    471f: 4c 1c 46     	jmp	$461c <printf+0x1840>
    4722: 4c 8d 46     	jmp	$468d <printf+0x18b1>
    4725: 85 12        	sta	$12                     ; 0x2012 <playMidi+0x178>
    4727: e4 12        	cpx	$12                     ; 0x2012 <playMidi+0x178>
    4729: 5a           	phy
    472a: a0 16        	ldy	#$16
    472c: b1 10        	lda	($10),y                 ; 0x2010 <playMidi+0x176>
    472e: 85 26        	sta	$26                     ; 0x2026 <playMidi+0x18c>
    4730: c8           	iny
    4731: b1 10        	lda	($10),y                 ; 0x2010 <playMidi+0x176>
    4733: 7a           	ply
    4734: 85 27        	sta	$27                     ; 0x2027 <playMidi+0x18d>
    4736: 90 44        	bcc	$477c <printf+0x19a0>
    4738: a6 17        	ldx	$17                     ; 0x2017 <playMidi+0x17d>
    473a: a5 18        	lda	$18                     ; 0x2018 <playMidi+0x17e>
    473c: e0 00        	cpx	#$0
    473e: d0 03        	bne	$4743 <printf+0x1967>
    4740: aa           	tax
    4741: f0 39        	beq	$477c <printf+0x19a0>
    4743: 18           	clc
    4744: a5 10        	lda	$10                     ; 0x2010 <playMidi+0x176>
    4746: 69 1e        	adc	#$1e
    4748: 48           	pha
    4749: a5 11        	lda	$11                     ; 0x2011 <playMidi+0x177>
    474b: 69 00        	adc	#$0
    474d: aa           	tax
    474e: 68           	pla
    474f: 85 12        	sta	$12                     ; 0x2012 <playMidi+0x178>
    4751: 86 13        	stx	$13                     ; 0x2013 <playMidi+0x179>
    4753: 18           	clc
    4754: 69 09        	adc	#$9
    4756: 85 14        	sta	$14                     ; 0x2014 <playMidi+0x17a>
    4758: 8a           	txa
    4759: 69 00        	adc	#$0
    475b: 85 15        	sta	$15                     ; 0x2015 <playMidi+0x17b>
    475d: 18           	clc
    475e: a0 09        	ldy	#$9
    4760: a5 18        	lda	$18                     ; 0x2018 <playMidi+0x17e>
    4762: 71 12        	adc	($12),y                 ; 0x2012 <playMidi+0x178>
    4764: 85 12        	sta	$12                     ; 0x2012 <playMidi+0x178>
    4766: a0 01        	ldy	#$1
    4768: a5 17        	lda	$17                     ; 0x2017 <playMidi+0x17d>
    476a: 71 14        	adc	($14),y                 ; 0x2014 <playMidi+0x17a>
    476c: 85 13        	sta	$13                     ; 0x2013 <playMidi+0x179>
    476e: a2 ff        	ldx	#$ff
    4770: c6 12        	dec	$12                     ; 0x2012 <playMidi+0x178>
    4772: e4 12        	cpx	$12                     ; 0x2012 <playMidi+0x178>
    4774: d0 02        	bne	$4778 <printf+0x199c>
    4776: c6 13        	dec	$13                     ; 0x2013 <playMidi+0x179>
    4778: a9 00        	lda	#$0
    477a: 92 12        	sta	($12)                   ; 0x2012 <playMidi+0x178>
    477c: e6 26        	inc	$26                     ; 0x2026 <playMidi+0x18c>
    477e: d0 02        	bne	$4782 <printf+0x19a6>
    4780: e6 27        	inc	$27                     ; 0x2027 <playMidi+0x18d>
    4782: a6 27        	ldx	$27                     ; 0x2027 <playMidi+0x18d>
    4784: e4 25        	cpx	$25                     ; 0x2025 <playMidi+0x18b>
    4786: f0 03        	beq	$478b <printf+0x19af>
    4788: 4c 7e 2f     	jmp	$2f7e <printf+0x1a2>
    478b: a6 26        	ldx	$26                     ; 0x2026 <playMidi+0x18c>
    478d: e4 24        	cpx	$24                     ; 0x2024 <playMidi+0x18a>
    478f: f0 03        	beq	$4794 <printf+0x19b8>
    4791: 4c 7e 2f     	jmp	$2f7e <printf+0x1a2>
    4794: b2 24        	lda	($24)                   ; 0x2024 <playMidi+0x18a>
    4796: a2 00        	ldx	#$0
    4798: a0 00        	ldy	#$0
    479a: 84 2e        	sty	$2e                     ; 0x202e <playMidi+0x194>
    479c: a0 00        	ldy	#$0
    479e: 84 2f        	sty	$2f                     ; 0x202f <playMidi+0x195>
    47a0: 4c 97 2f     	jmp	$2f97 <printf+0x1bb>
    47a3: a6 12        	ldx	$12                     ; 0x2012 <playMidi+0x178>
    47a5: 86 17        	stx	$17                     ; 0x2017 <playMidi+0x17d>
    47a7: 4c a4 45     	jmp	$45a4 <printf+0x17c8>
    47aa: a0 00        	ldy	#$0
    47ac: b1 10        	lda	($10),y                 ; 0x2010 <playMidi+0x176>
    47ae: 85 2f        	sta	$2f                     ; 0x202f <playMidi+0x195>
    47b0: c8           	iny
    47b1: b1 10        	lda	($10),y                 ; 0x2010 <playMidi+0x176>
    47b3: 85 2e        	sta	$2e                     ; 0x202e <playMidi+0x194>
    47b5: c8           	iny
    47b6: b1 10        	lda	($10),y                 ; 0x2010 <playMidi+0x176>
    47b8: 85 2d        	sta	$2d                     ; 0x202d <playMidi+0x193>
    47ba: c8           	iny
    47bb: b1 10        	lda	($10),y                 ; 0x2010 <playMidi+0x176>
    47bd: 85 2c        	sta	$2c                     ; 0x202c <playMidi+0x192>
    47bf: c8           	iny
    47c0: b1 10        	lda	($10),y                 ; 0x2010 <playMidi+0x176>
    47c2: 85 2b        	sta	$2b                     ; 0x202b <playMidi+0x191>
    47c4: c8           	iny
    47c5: b1 10        	lda	($10),y                 ; 0x2010 <playMidi+0x176>
    47c7: 85 2a        	sta	$2a                     ; 0x202a <playMidi+0x190>
    47c9: c8           	iny
    47ca: b1 10        	lda	($10),y                 ; 0x2010 <playMidi+0x176>
    47cc: 85 29        	sta	$29                     ; 0x2029 <playMidi+0x18f>
    47ce: c8           	iny
    47cf: b1 10        	lda	($10),y                 ; 0x2010 <playMidi+0x176>
    47d1: 85 28        	sta	$28                     ; 0x2028 <playMidi+0x18e>
    47d3: fa           	plx
    47d4: 86 27        	stx	$27                     ; 0x2027 <playMidi+0x18d>
    47d6: fa           	plx
    47d7: 86 26        	stx	$26                     ; 0x2026 <playMidi+0x18c>
    47d9: fa           	plx
    47da: 86 25        	stx	$25                     ; 0x2025 <playMidi+0x18b>
    47dc: fa           	plx
    47dd: 86 24        	stx	$24                     ; 0x2024 <playMidi+0x18a>
    47df: 18           	clc
    47e0: a5 10        	lda	$10                     ; 0x2010 <playMidi+0x176>
    47e2: 69 55        	adc	#$55
    47e4: 85 10        	sta	$10                     ; 0x2010 <playMidi+0x176>
    47e6: a5 11        	lda	$11                     ; 0x2011 <playMidi+0x177>
    47e8: 69 00        	adc	#$0
    47ea: 85 11        	sta	$11                     ; 0x2011 <playMidi+0x177>
    47ec: 60           	rts

000047ed <putchar>:
    47ed: a4 24        	ldy	$24                     ; 0x2024 <playMidi+0x18a>
    47ef: 5a           	phy
    47f0: a4 25        	ldy	$25                     ; 0x2025 <playMidi+0x18b>
    47f2: 5a           	phy
    47f3: 86 12        	stx	$12                     ; 0x2012 <playMidi+0x178>
    47f5: 85 24        	sta	$24                     ; 0x2024 <playMidi+0x18a>
    47f7: 85 6e        	sta	$6e                     ; 0x206e <playMidi+0x1d4>
    47f9: a6 01        	ldx	$1                      ; 0x2001 <playMidi+0x167>
    47fb: 86 25        	stx	$25                     ; 0x2025 <playMidi+0x18b>
    47fd: a6 61        	ldx	$61                     ; 0x2061 <playMidi+0x1c7>
    47ff: a0 50        	ldy	#$50
    4801: 8c 00 de     	sty	$de00                   ; 0xde00 <__heap_start+0x8d4e>
    4804: 9c 01 de     	stz	$de01                   ; 0xde01 <__heap_start+0x8d4f>
    4807: 8e 02 de     	stx	$de02                   ; 0xde02 <__heap_start+0x8d50>
    480a: 9c 03 de     	stz	$de03                   ; 0xde03 <__heap_start+0x8d51>
    480d: ae 10 de     	ldx	$de10                   ; 0xde10 <__heap_start+0x8d5e>
    4810: ad 11 de     	lda	$de11                   ; 0xde11 <__heap_start+0x8d5f>
    4813: ac 12 de     	ldy	$de12                   ; 0xde12 <__heap_start+0x8d60>
    4816: 84 1a        	sty	$1a                     ; 0x201a <playMidi+0x180>
    4818: ac 13 de     	ldy	$de13                   ; 0xde13 <__heap_start+0x8d61>
    481b: 84 1b        	sty	$1b                     ; 0x201b <playMidi+0x181>
    481d: 9c 08 de     	stz	$de08                   ; 0xde08 <__heap_start+0x8d56>
    4820: a0 c0        	ldy	#$c0
    4822: 8c 09 de     	sty	$de09                   ; 0xde09 <__heap_start+0x8d57>
    4825: 9c 0a de     	stz	$de0a                   ; 0xde0a <__heap_start+0x8d58>
    4828: 9c 0b de     	stz	$de0b                   ; 0xde0b <__heap_start+0x8d59>
    482b: 8e 0c de     	stx	$de0c                   ; 0xde0c <__heap_start+0x8d5a>
    482e: 8d 0d de     	sta	$de0d                   ; 0xde0d <__heap_start+0x8d5b>
    4831: 64 13        	stz	$13                     ; 0x2013 <playMidi+0x179>
    4833: a2 00        	ldx	#$0
    4835: 86 14        	stx	$14                     ; 0x2014 <playMidi+0x17a>
    4837: a2 c0        	ldx	#$c0
    4839: 86 15        	stx	$15                     ; 0x2015 <playMidi+0x17b>
    483b: a2 11        	ldx	#$11
    483d: 86 16        	stx	$16                     ; 0x2016 <playMidi+0x17c>
    483f: a2 c9        	ldx	#$c9
    4841: 86 17        	stx	$17                     ; 0x2017 <playMidi+0x17d>
    4843: a2 10        	ldx	#$10
    4845: 86 18        	stx	$18                     ; 0x2018 <playMidi+0x17e>
    4847: a2 c9        	ldx	#$c9
    4849: 86 19        	stx	$19                     ; 0x2019 <playMidi+0x17f>
    484b: a6 1a        	ldx	$1a                     ; 0x201a <playMidi+0x180>
    484d: 8e 0e de     	stx	$de0e                   ; 0xde0e <__heap_start+0x8d5c>
    4850: a6 1b        	ldx	$1b                     ; 0x201b <playMidi+0x181>
    4852: 8e 0f de     	stx	$de0f                   ; 0xde0f <__heap_start+0x8d5d>
    4855: ac 18 de     	ldy	$de18                   ; 0xde18 <__heap_start+0x8d66>
    4858: ad 19 de     	lda	$de19                   ; 0xde19 <__heap_start+0x8d67>
    485b: ae 1a de     	ldx	$de1a                   ; 0xde1a <__heap_start+0x8d68>
    485e: ae 1b de     	ldx	$de1b                   ; 0xde1b <__heap_start+0x8d69>
    4861: 84 1c        	sty	$1c                     ; 0x201c <playMidi+0x182>
    4863: 85 1d        	sta	$1d                     ; 0x201d <playMidi+0x183>
    4865: 64 1a        	stz	$1a                     ; 0x201a <playMidi+0x180>
    4867: 80 13        	bra	$487c <putchar+0x8f>
    4869: a5 1c        	lda	$1c                     ; 0x201c <playMidi+0x182>
    486b: 18           	clc
    486c: 69 50        	adc	#$50
    486e: 85 1c        	sta	$1c                     ; 0x201c <playMidi+0x182>
    4870: a5 1d        	lda	$1d                     ; 0x201d <playMidi+0x183>
    4872: 69 00        	adc	#$0
    4874: 85 1d        	sta	$1d                     ; 0x201d <playMidi+0x183>
    4876: e6 13        	inc	$13                     ; 0x2013 <playMidi+0x179>
    4878: d0 02        	bne	$487c <putchar+0x8f>
    487a: e6 1a        	inc	$1a                     ; 0x201a <playMidi+0x180>
    487c: a9 6e        	lda	#$6e
    487e: 18           	clc
    487f: 65 13        	adc	$13                     ; 0x2013 <playMidi+0x179>
    4881: 85 1e        	sta	$1e                     ; 0x201e <playMidi+0x184>
    4883: a9 00        	lda	#$0
    4885: 65 1a        	adc	$1a                     ; 0x201a <playMidi+0x180>
    4887: 85 1f        	sta	$1f                     ; 0x201f <playMidi+0x185>
    4889: b2 1e        	lda	($1e)                   ; 0x201e <playMidi+0x184>
    488b: c9 0a        	cmp	#$a
    488d: f0 26        	beq	$48b5 <putchar+0xc8>
    488f: c9 0d        	cmp	#$d
    4891: f0 22        	beq	$48b5 <putchar+0xc8>
    4893: aa           	tax
    4894: d0 03        	bne	$4899 <putchar+0xac>
    4896: 4c bf 49     	jmp	$49bf <putchar+0x1d2>
    4899: a2 03        	ldx	#$3
    489b: 86 01        	stx	$1                      ; 0x2001 <playMidi+0x167>
    489d: a4 60        	ldy	$60                     ; 0x2060 <playMidi+0x1c6>
    489f: a9 f0        	lda	#$f0
    48a1: 91 1c        	sta	($1c),y                 ; 0x201c <playMidi+0x182>
    48a3: ca           	dex
    48a4: 86 01        	stx	$1                      ; 0x2001 <playMidi+0x167>
    48a6: b2 1e        	lda	($1e)                   ; 0x201e <playMidi+0x184>
    48a8: a4 60        	ldy	$60                     ; 0x2060 <playMidi+0x1c6>
    48aa: 91 1c        	sta	($1c),y                 ; 0x201c <playMidi+0x182>
    48ac: a6 60        	ldx	$60                     ; 0x2060 <playMidi+0x1c6>
    48ae: e8           	inx
    48af: e6 60        	inc	$60                     ; 0x2060 <playMidi+0x1c6>
    48b1: e0 50        	cpx	#$50
    48b3: d0 c1        	bne	$4876 <putchar+0x89>
    48b5: 64 60        	stz	$60                     ; 0x2060 <playMidi+0x1c6>
    48b7: a6 61        	ldx	$61                     ; 0x2061 <playMidi+0x1c7>
    48b9: e8           	inx
    48ba: e6 61        	inc	$61                     ; 0x2061 <playMidi+0x1c7>
    48bc: e0 1e        	cpx	#$1e
    48be: f0 03        	beq	$48c3 <putchar+0xd6>
    48c0: 4c 69 48     	jmp	$4869 <putchar+0x7c>
    48c3: a2 03        	ldx	#$3
    48c5: 86 01        	stx	$1                      ; 0x2001 <playMidi+0x167>
    48c7: a2 09        	ldx	#$9
    48c9: a0 50        	ldy	#$50
    48cb: a9 10        	lda	#$10
    48cd: 5a           	phy
    48ce: a0 00        	ldy	#$0
    48d0: 84 1c        	sty	$1c                     ; 0x201c <playMidi+0x182>
    48d2: a0 c0        	ldy	#$c0
    48d4: 84 1d        	sty	$1d                     ; 0x201d <playMidi+0x183>
    48d6: 7a           	ply
    48d7: 85 1b        	sta	$1b                     ; 0x201b <playMidi+0x181>
    48d9: b1 1c        	lda	($1c),y                 ; 0x201c <playMidi+0x182>
    48db: 92 1c        	sta	($1c)                   ; 0x201c <playMidi+0x182>
    48dd: a9 ff        	lda	#$ff
    48df: c6 1b        	dec	$1b                     ; 0x201b <playMidi+0x181>
    48e1: c5 1b        	cmp	$1b                     ; 0x201b <playMidi+0x181>
    48e3: d0 01        	bne	$48e6 <putchar+0xf9>
    48e5: ca           	dex
    48e6: e6 1c        	inc	$1c                     ; 0x201c <playMidi+0x182>
    48e8: d0 02        	bne	$48ec <putchar+0xff>
    48ea: e6 1d        	inc	$1d                     ; 0x201d <playMidi+0x183>
    48ec: 8a           	txa
    48ed: d0 ea        	bne	$48d9 <putchar+0xec>
    48ef: a5 1b        	lda	$1b                     ; 0x201b <playMidi+0x181>
    48f1: d0 e6        	bne	$48d9 <putchar+0xec>
    48f3: a2 02        	ldx	#$2
    48f5: 86 01        	stx	$1                      ; 0x2001 <playMidi+0x167>
    48f7: a2 09        	ldx	#$9
    48f9: a9 10        	lda	#$10
    48fb: 5a           	phy
    48fc: a0 00        	ldy	#$0
    48fe: 84 1c        	sty	$1c                     ; 0x201c <playMidi+0x182>
    4900: a0 c0        	ldy	#$c0
    4902: 84 1d        	sty	$1d                     ; 0x201d <playMidi+0x183>
    4904: 7a           	ply
    4905: 85 1b        	sta	$1b                     ; 0x201b <playMidi+0x181>
    4907: b1 1c        	lda	($1c),y                 ; 0x201c <playMidi+0x182>
    4909: 92 1c        	sta	($1c)                   ; 0x201c <playMidi+0x182>
    490b: a9 ff        	lda	#$ff
    490d: c6 1b        	dec	$1b                     ; 0x201b <playMidi+0x181>
    490f: c5 1b        	cmp	$1b                     ; 0x201b <playMidi+0x181>
    4911: d0 01        	bne	$4914 <putchar+0x127>
    4913: ca           	dex
    4914: e6 1c        	inc	$1c                     ; 0x201c <playMidi+0x182>
    4916: d0 02        	bne	$491a <putchar+0x12d>
    4918: e6 1d        	inc	$1d                     ; 0x201d <playMidi+0x183>
    491a: 8a           	txa
    491b: d0 ea        	bne	$4907 <putchar+0x11a>
    491d: a5 1b        	lda	$1b                     ; 0x201b <playMidi+0x181>
    491f: d0 e6        	bne	$4907 <putchar+0x11a>
    4921: a2 02        	ldx	#$2
    4923: 86 01        	stx	$1                      ; 0x2001 <playMidi+0x167>
    4925: e8           	inx
    4926: 86 01        	stx	$1                      ; 0x2001 <playMidi+0x167>
    4928: a2 50        	ldx	#$50
    492a: a0 11        	ldy	#$11
    492c: 84 1c        	sty	$1c                     ; 0x201c <playMidi+0x182>
    492e: a0 c9        	ldy	#$c9
    4930: 84 1d        	sty	$1d                     ; 0x201d <playMidi+0x183>
    4932: a0 10        	ldy	#$10
    4934: 84 1e        	sty	$1e                     ; 0x201e <playMidi+0x184>
    4936: a0 c9        	ldy	#$c9
    4938: 84 1f        	sty	$1f                     ; 0x201f <playMidi+0x185>
    493a: a9 f0        	lda	#$f0
    493c: a4 1c        	ldy	$1c                     ; 0x201c <playMidi+0x182>
    493e: 84 22        	sty	$22                     ; 0x2022 <playMidi+0x188>
    4940: a4 1d        	ldy	$1d                     ; 0x201d <playMidi+0x183>
    4942: 84 23        	sty	$23                     ; 0x2023 <playMidi+0x189>
    4944: 92 1e        	sta	($1e)                   ; 0x201e <playMidi+0x184>
    4946: e6 1c        	inc	$1c                     ; 0x201c <playMidi+0x182>
    4948: d0 02        	bne	$494c <putchar+0x15f>
    494a: e6 1d        	inc	$1d                     ; 0x201d <playMidi+0x183>
    494c: ca           	dex
    494d: a4 22        	ldy	$22                     ; 0x2022 <playMidi+0x188>
    494f: 84 1e        	sty	$1e                     ; 0x201e <playMidi+0x184>
    4951: a4 23        	ldy	$23                     ; 0x2023 <playMidi+0x189>
    4953: 84 1f        	sty	$1f                     ; 0x201f <playMidi+0x185>
    4955: e0 00        	cpx	#$0
    4957: d0 e3        	bne	$493c <putchar+0x14f>
    4959: a2 02        	ldx	#$2
    495b: 86 01        	stx	$1                      ; 0x2001 <playMidi+0x167>
    495d: a2 50        	ldx	#$50
    495f: a0 11        	ldy	#$11
    4961: 84 1c        	sty	$1c                     ; 0x201c <playMidi+0x182>
    4963: a0 c9        	ldy	#$c9
    4965: 84 1d        	sty	$1d                     ; 0x201d <playMidi+0x183>
    4967: a0 10        	ldy	#$10
    4969: 84 1e        	sty	$1e                     ; 0x201e <playMidi+0x184>
    496b: a0 c9        	ldy	#$c9
    496d: 84 1f        	sty	$1f                     ; 0x201f <playMidi+0x185>
    496f: a9 20        	lda	#$20
    4971: a4 1c        	ldy	$1c                     ; 0x201c <playMidi+0x182>
    4973: 84 22        	sty	$22                     ; 0x2022 <playMidi+0x188>
    4975: a4 1d        	ldy	$1d                     ; 0x201d <playMidi+0x183>
    4977: 84 23        	sty	$23                     ; 0x2023 <playMidi+0x189>
    4979: 92 1e        	sta	($1e)                   ; 0x201e <playMidi+0x184>
    497b: e6 1c        	inc	$1c                     ; 0x201c <playMidi+0x182>
    497d: d0 02        	bne	$4981 <putchar+0x194>
    497f: e6 1d        	inc	$1d                     ; 0x201d <playMidi+0x183>
    4981: ca           	dex
    4982: a4 22        	ldy	$22                     ; 0x2022 <playMidi+0x188>
    4984: 84 1e        	sty	$1e                     ; 0x201e <playMidi+0x184>
    4986: a4 23        	ldy	$23                     ; 0x2023 <playMidi+0x189>
    4988: 84 1f        	sty	$1f                     ; 0x201f <playMidi+0x185>
    498a: e0 00        	cpx	#$0
    498c: d0 e3        	bne	$4971 <putchar+0x184>
    498e: c6 61        	dec	$61                     ; 0x2061 <playMidi+0x1c7>
    4990: 9c 08 de     	stz	$de08                   ; 0xde08 <__heap_start+0x8d56>
    4993: a2 c0        	ldx	#$c0
    4995: 8e 09 de     	stx	$de09                   ; 0xde09 <__heap_start+0x8d57>
    4998: 9c 0a de     	stz	$de0a                   ; 0xde0a <__heap_start+0x8d58>
    499b: 9c 0b de     	stz	$de0b                   ; 0xde0b <__heap_start+0x8d59>
    499e: a2 1d        	ldx	#$1d
    49a0: 8e 0c de     	stx	$de0c                   ; 0xde0c <__heap_start+0x8d5a>
    49a3: 9c 0d de     	stz	$de0d                   ; 0xde0d <__heap_start+0x8d5b>
    49a6: 9c 0e de     	stz	$de0e                   ; 0xde0e <__heap_start+0x8d5c>
    49a9: 9c 0f de     	stz	$de0f                   ; 0xde0f <__heap_start+0x8d5d>
    49ac: ae 18 de     	ldx	$de18                   ; 0xde18 <__heap_start+0x8d66>
    49af: ac 19 de     	ldy	$de19                   ; 0xde19 <__heap_start+0x8d67>
    49b2: ad 1a de     	lda	$de1a                   ; 0xde1a <__heap_start+0x8d68>
    49b5: ad 1b de     	lda	$de1b                   ; 0xde1b <__heap_start+0x8d69>
    49b8: 86 1c        	stx	$1c                     ; 0x201c <playMidi+0x182>
    49ba: 84 1d        	sty	$1d                     ; 0x201d <playMidi+0x183>
    49bc: 4c 76 48     	jmp	$4876 <putchar+0x89>
    49bf: a6 25        	ldx	$25                     ; 0x2025 <playMidi+0x18b>
    49c1: 86 01        	stx	$1                      ; 0x2001 <playMidi+0x167>
    49c3: a6 60        	ldx	$60                     ; 0x2060 <playMidi+0x1c6>
    49c5: a4 61        	ldy	$61                     ; 0x2061 <playMidi+0x1c7>
    49c7: 8e 14 d0     	stx	$d014                   ; 0xd014 <__heap_start+0x7f62>
    49ca: 9c 15 d0     	stz	$d015                   ; 0xd015 <__heap_start+0x7f63>
    49cd: 84 61        	sty	$61                     ; 0x2061 <playMidi+0x1c7>
    49cf: 8c 16 d0     	sty	$d016                   ; 0xd016 <__heap_start+0x7f64>
    49d2: 9c 17 d0     	stz	$d017                   ; 0xd017 <__heap_start+0x7f65>
    49d5: a6 12        	ldx	$12                     ; 0x2012 <playMidi+0x178>
    49d7: a5 24        	lda	$24                     ; 0x2024 <playMidi+0x18a>
    49d9: 7a           	ply
    49da: 84 25        	sty	$25                     ; 0x2025 <playMidi+0x18b>
    49dc: 7a           	ply
    49dd: 84 24        	sty	$24                     ; 0x2024 <playMidi+0x18a>
    49df: 60           	rts

000049e0 <malloc>:
    49e0: 48           	pha
    49e1: 18           	clc
    49e2: a5 10        	lda	$10                     ; 0x2010 <playMidi+0x176>
    49e4: 69 f9        	adc	#$f9
    49e6: 85 10        	sta	$10                     ; 0x2010 <playMidi+0x176>
    49e8: a5 11        	lda	$11                     ; 0x2011 <playMidi+0x177>
    49ea: 69 ff        	adc	#$ff
    49ec: 85 11        	sta	$11                     ; 0x2011 <playMidi+0x177>
    49ee: 68           	pla
    49ef: a4 24        	ldy	$24                     ; 0x2024 <playMidi+0x18a>
    49f1: 5a           	phy
    49f2: a4 25        	ldy	$25                     ; 0x2025 <playMidi+0x18b>
    49f4: 5a           	phy
    49f5: a4 26        	ldy	$26                     ; 0x2026 <playMidi+0x18c>
    49f7: 5a           	phy
    49f8: a8           	tay
    49f9: 8a           	txa
    49fa: a2 00        	ldx	#$0
    49fc: 86 24        	stx	$24                     ; 0x2024 <playMidi+0x18a>
    49fe: a2 00        	ldx	#$0
    4a00: 86 25        	stx	$25                     ; 0x2025 <playMidi+0x18b>
    4a02: aa           	tax
    4a03: d0 07        	bne	$4a0c <malloc+0x2c>
    4a05: c0 00        	cpy	#$0
    4a07: d0 03        	bne	$4a0c <malloc+0x2c>
    4a09: 4c b1 4c     	jmp	$4cb1 <malloc+0x2d1>
    4a0c: 84 14        	sty	$14                     ; 0x2014 <playMidi+0x17a>
    4a0e: aa           	tax
    4a0f: d0 11        	bne	$4a22 <malloc+0x42>
    4a11: a6 14        	ldx	$14                     ; 0x2014 <playMidi+0x17a>
    4a13: e0 07        	cpx	#$7
    4a15: b0 0f        	bcs	$4a26 <malloc+0x46>
    4a17: a2 08        	ldx	#$8
    4a19: 8a           	txa
    4a1a: a0 06        	ldy	#$6
    4a1c: 91 10        	sta	($10),y                 ; 0x2010 <playMidi+0x176>
    4a1e: a9 00        	lda	#$0
    4a20: 80 33        	bra	$4a55 <malloc+0x75>
    4a22: c9 00        	cmp	#$0
    4a24: 90 f1        	bcc	$4a17 <malloc+0x37>
    4a26: a8           	tay
    4a27: a5 14        	lda	$14                     ; 0x2014 <playMidi+0x17a>
    4a29: 29 01        	and	#$1
    4a2b: a2 02        	ldx	#$2
    4a2d: 64 12        	stz	$12                     ; 0x2012 <playMidi+0x178>
    4a2f: c9 00        	cmp	#$0
    4a31: f0 02        	beq	$4a35 <malloc+0x55>
    4a33: a2 03        	ldx	#$3
    4a35: 86 13        	stx	$13                     ; 0x2013 <playMidi+0x179>
    4a37: 18           	clc
    4a38: a5 14        	lda	$14                     ; 0x2014 <playMidi+0x17a>
    4a3a: 65 13        	adc	$13                     ; 0x2013 <playMidi+0x179>
    4a3c: aa           	tax
    4a3d: 98           	tya
    4a3e: 65 12        	adc	$12                     ; 0x2012 <playMidi+0x178>
    4a40: 90 03        	bcc	$4a45 <malloc+0x65>
    4a42: 4c b1 4c     	jmp	$4cb1 <malloc+0x2d1>
    4a45: 48           	pha
    4a46: 8a           	txa
    4a47: a0 06        	ldy	#$6
    4a49: 91 10        	sta	($10),y                 ; 0x2010 <playMidi+0x176>
    4a4b: 68           	pla
    4a4c: d0 07        	bne	$4a55 <malloc+0x75>
    4a4e: e0 00        	cpx	#$0
    4a50: d0 03        	bne	$4a55 <malloc+0x75>
    4a52: 4c b1 4c     	jmp	$4cb1 <malloc+0x2d1>
    4a55: 85 26        	sta	$26                     ; 0x2026 <playMidi+0x18c>
    4a57: a5 81        	lda	$81                     ; 0x2081 <playMidi+0x1e7>
    4a59: 29 01        	and	#$1
    4a5b: d0 21        	bne	$4a7e <malloc+0x9e>
    4a5d: a9 00        	lda	#$0
    4a5f: a2 10        	ldx	#$10
    4a61: a0 b2        	ldy	#$b2
    4a63: 84 12        	sty	$12                     ; 0x2012 <playMidi+0x178>
    4a65: a0 50        	ldy	#$50
    4a67: 84 13        	sty	$13                     ; 0x2013 <playMidi+0x179>
    4a69: 20 48 03     	jsr	$348 <_ZN12_GLOBAL__N_19FreeChunk6insertEPvj>
    4a6c: ae b3 50     	ldx	$50b3                   ; 0x50b3 <__heap_start+0x1>
    4a6f: a9 fe        	lda	#$fe
    4a71: 2d b2 50     	and	$50b2                   ; 0x50b2 <__heap_start>
    4a74: 8d b2 50     	sta	$50b2                   ; 0x50b2 <__heap_start>
    4a77: 8e b3 50     	stx	$50b3                   ; 0x50b3 <__heap_start+0x1>
    4a7a: a2 01        	ldx	#$1
    4a7c: 86 81        	stx	$81                     ; 0x2081 <playMidi+0x1e7>
    4a7e: a6 84        	ldx	$84                     ; 0x2084 <playMidi+0x1ea>
    4a80: a5 85        	lda	$85                     ; 0x2085 <playMidi+0x1eb>
    4a82: a0 00        	ldy	#$0
    4a84: 84 12        	sty	$12                     ; 0x2012 <playMidi+0x178>
    4a86: a0 00        	ldy	#$0
    4a88: 84 13        	sty	$13                     ; 0x2013 <playMidi+0x179>
    4a8a: 85 1c        	sta	$1c                     ; 0x201c <playMidi+0x182>
    4a8c: c5 13        	cmp	$13                     ; 0x2013 <playMidi+0x179>
    4a8e: d0 07        	bne	$4a97 <malloc+0xb7>
    4a90: e4 12        	cpx	$12                     ; 0x2012 <playMidi+0x178>
    4a92: d0 03        	bne	$4a97 <malloc+0xb7>
    4a94: 4c b1 4c     	jmp	$4cb1 <malloc+0x2d1>
    4a97: a0 00        	ldy	#$0
    4a99: 86 14        	stx	$14                     ; 0x2014 <playMidi+0x17a>
    4a9b: a2 10        	ldx	#$10
    4a9d: 84 12        	sty	$12                     ; 0x2012 <playMidi+0x178>
    4a9f: 86 13        	stx	$13                     ; 0x2013 <playMidi+0x179>
    4aa1: a6 14        	ldx	$14                     ; 0x2014 <playMidi+0x17a>
    4aa3: 18           	clc
    4aa4: a9 b2        	lda	#$b2
    4aa6: 65 12        	adc	$12                     ; 0x2012 <playMidi+0x178>
    4aa8: 85 14        	sta	$14                     ; 0x2014 <playMidi+0x17a>
    4aaa: a9 50        	lda	#$50
    4aac: 65 13        	adc	$13                     ; 0x2013 <playMidi+0x179>
    4aae: 85 15        	sta	$15                     ; 0x2015 <playMidi+0x17b>
    4ab0: 86 12        	stx	$12                     ; 0x2012 <playMidi+0x178>
    4ab2: a4 1c        	ldy	$1c                     ; 0x201c <playMidi+0x182>
    4ab4: 84 13        	sty	$13                     ; 0x2013 <playMidi+0x179>
    4ab6: a0 01        	ldy	#$1
    4ab8: a5 26        	lda	$26                     ; 0x2026 <playMidi+0x18c>
    4aba: 85 16        	sta	$16                     ; 0x2016 <playMidi+0x17c>
    4abc: b1 12        	lda	($12),y                 ; 0x2012 <playMidi+0x178>
    4abe: 85 17        	sta	$17                     ; 0x2017 <playMidi+0x17d>
    4ac0: a8           	tay
    4ac1: a9 fe        	lda	#$fe
    4ac3: 32 12        	and	($12)                   ; 0x2012 <playMidi+0x178>
    4ac5: 85 18        	sta	$18                     ; 0x2018 <playMidi+0x17e>
    4ac7: c4 16        	cpy	$16                     ; 0x2016 <playMidi+0x17c>
    4ac9: d0 0e        	bne	$4ad9 <malloc+0xf9>
    4acb: 48           	pha
    4acc: a0 06        	ldy	#$6
    4ace: b1 10        	lda	($10),y                 ; 0x2010 <playMidi+0x176>
    4ad0: 85 19        	sta	$19                     ; 0x2019 <playMidi+0x17f>
    4ad2: 68           	pla
    4ad3: c5 19        	cmp	$19                     ; 0x2019 <playMidi+0x17f>
    4ad5: b0 33        	bcs	$4b0a <malloc+0x12a>
    4ad7: 80 04        	bra	$4add <malloc+0xfd>
    4ad9: c4 16        	cpy	$16                     ; 0x2016 <playMidi+0x17c>
    4adb: b0 2d        	bcs	$4b0a <malloc+0x12a>
    4add: a5 12        	lda	$12                     ; 0x2012 <playMidi+0x178>
    4adf: 18           	clc
    4ae0: 69 02        	adc	#$2
    4ae2: 85 18        	sta	$18                     ; 0x2018 <playMidi+0x17e>
    4ae4: a5 13        	lda	$13                     ; 0x2013 <playMidi+0x179>
    4ae6: 69 00        	adc	#$0
    4ae8: 85 19        	sta	$19                     ; 0x2019 <playMidi+0x17f>
    4aea: a0 02        	ldy	#$2
    4aec: b1 12        	lda	($12),y                 ; 0x2012 <playMidi+0x178>
    4aee: 85 12        	sta	$12                     ; 0x2012 <playMidi+0x178>
    4af0: 88           	dey
    4af1: b1 18        	lda	($18),y                 ; 0x2018 <playMidi+0x17e>
    4af3: 85 13        	sta	$13                     ; 0x2013 <playMidi+0x179>
    4af5: a5 12        	lda	$12                     ; 0x2012 <playMidi+0x178>
    4af7: 85 18        	sta	$18                     ; 0x2018 <playMidi+0x17e>
    4af9: a5 13        	lda	$13                     ; 0x2013 <playMidi+0x179>
    4afb: c5 1c        	cmp	$1c                     ; 0x201c <playMidi+0x182>
    4afd: d0 bd        	bne	$4abc <malloc+0xdc>
    4aff: 86 17        	stx	$17                     ; 0x2017 <playMidi+0x17d>
    4b01: a5 18        	lda	$18                     ; 0x2018 <playMidi+0x17e>
    4b03: c5 17        	cmp	$17                     ; 0x2017 <playMidi+0x17d>
    4b05: d0 b5        	bne	$4abc <malloc+0xdc>
    4b07: 4c b1 4c     	jmp	$4cb1 <malloc+0x2d1>
    4b0a: a5 82        	lda	$82                     ; 0x2082 <playMidi+0x1e8>
    4b0c: a4 83        	ldy	$83                     ; 0x2083 <playMidi+0x1e9>
    4b0e: 84 16        	sty	$16                     ; 0x2016 <playMidi+0x17c>
    4b10: 38           	sec
    4b11: e5 18        	sbc	$18                     ; 0x2018 <playMidi+0x17e>
    4b13: a8           	tay
    4b14: a5 16        	lda	$16                     ; 0x2016 <playMidi+0x17c>
    4b16: e5 17        	sbc	$17                     ; 0x2017 <playMidi+0x17d>
    4b18: 85 16        	sta	$16                     ; 0x2016 <playMidi+0x17c>
    4b1a: 18           	clc
    4b1b: 98           	tya
    4b1c: 69 02        	adc	#$2
    4b1e: 85 17        	sta	$17                     ; 0x2017 <playMidi+0x17d>
    4b20: a5 16        	lda	$16                     ; 0x2016 <playMidi+0x17c>
    4b22: 69 00        	adc	#$0
    4b24: a4 17        	ldy	$17                     ; 0x2017 <playMidi+0x17d>
    4b26: 84 82        	sty	$82                     ; 0x2082 <playMidi+0x1e8>
    4b28: 85 83        	sta	$83                     ; 0x2083 <playMidi+0x1e9>
    4b2a: a0 02        	ldy	#$2
    4b2c: a5 12        	lda	$12                     ; 0x2012 <playMidi+0x178>
    4b2e: 18           	clc
    4b2f: 69 02        	adc	#$2
    4b31: 85 24        	sta	$24                     ; 0x2024 <playMidi+0x18a>
    4b33: a5 13        	lda	$13                     ; 0x2013 <playMidi+0x179>
    4b35: 69 00        	adc	#$0
    4b37: 85 25        	sta	$25                     ; 0x2025 <playMidi+0x18b>
    4b39: b1 12        	lda	($12),y                 ; 0x2012 <playMidi+0x178>
    4b3b: 85 1a        	sta	$1a                     ; 0x201a <playMidi+0x180>
    4b3d: 88           	dey
    4b3e: b1 24        	lda	($24),y                 ; 0x2024 <playMidi+0x18a>
    4b40: 85 1d        	sta	$1d                     ; 0x201d <playMidi+0x183>
    4b42: c5 13        	cmp	$13                     ; 0x2013 <playMidi+0x179>
    4b44: d0 15        	bne	$4b5b <malloc+0x17b>
    4b46: a4 1a        	ldy	$1a                     ; 0x201a <playMidi+0x180>
    4b48: c4 12        	cpy	$12                     ; 0x2012 <playMidi+0x178>
    4b4a: d0 0f        	bne	$4b5b <malloc+0x17b>
    4b4c: a6 26        	ldx	$26                     ; 0x2026 <playMidi+0x18c>
    4b4e: 86 1b        	stx	$1b                     ; 0x201b <playMidi+0x181>
    4b50: a2 00        	ldx	#$0
    4b52: 86 16        	stx	$16                     ; 0x2016 <playMidi+0x17c>
    4b54: a2 00        	ldx	#$0
    4b56: 86 17        	stx	$17                     ; 0x2017 <playMidi+0x17d>
    4b58: 4c d7 4b     	jmp	$4bd7 <malloc+0x1f7>
    4b5b: 18           	clc
    4b5c: a5 12        	lda	$12                     ; 0x2012 <playMidi+0x178>
    4b5e: 69 04        	adc	#$4
    4b60: 85 16        	sta	$16                     ; 0x2016 <playMidi+0x17c>
    4b62: a5 13        	lda	$13                     ; 0x2013 <playMidi+0x179>
    4b64: 69 00        	adc	#$0
    4b66: 85 17        	sta	$17                     ; 0x2017 <playMidi+0x17d>
    4b68: a0 04        	ldy	#$4
    4b6a: b1 12        	lda	($12),y                 ; 0x2012 <playMidi+0x178>
    4b6c: 85 1f        	sta	$1f                     ; 0x201f <playMidi+0x185>
    4b6e: 18           	clc
    4b6f: 69 02        	adc	#$2
    4b71: 85 18        	sta	$18                     ; 0x2018 <playMidi+0x17e>
    4b73: a0 01        	ldy	#$1
    4b75: b1 16        	lda	($16),y                 ; 0x2016 <playMidi+0x17c>
    4b77: 85 1e        	sta	$1e                     ; 0x201e <playMidi+0x184>
    4b79: 69 00        	adc	#$0
    4b7b: a4 18        	ldy	$18                     ; 0x2018 <playMidi+0x17e>
    4b7d: 84 16        	sty	$16                     ; 0x2016 <playMidi+0x17c>
    4b7f: 85 17        	sta	$17                     ; 0x2017 <playMidi+0x17d>
    4b81: a4 1f        	ldy	$1f                     ; 0x201f <playMidi+0x185>
    4b83: 84 18        	sty	$18                     ; 0x2018 <playMidi+0x17e>
    4b85: a4 1e        	ldy	$1e                     ; 0x201e <playMidi+0x184>
    4b87: 84 19        	sty	$19                     ; 0x2019 <playMidi+0x17f>
    4b89: a0 02        	ldy	#$2
    4b8b: a5 1a        	lda	$1a                     ; 0x201a <playMidi+0x180>
    4b8d: 91 18        	sta	($18),y                 ; 0x2018 <playMidi+0x17e>
    4b8f: a5 1d        	lda	$1d                     ; 0x201d <playMidi+0x183>
    4b91: 88           	dey
    4b92: 91 16        	sta	($16),y                 ; 0x2016 <playMidi+0x17c>
    4b94: 18           	clc
    4b95: a5 12        	lda	$12                     ; 0x2012 <playMidi+0x178>
    4b97: 69 02        	adc	#$2
    4b99: 85 18        	sta	$18                     ; 0x2018 <playMidi+0x17e>
    4b9b: a5 13        	lda	$13                     ; 0x2013 <playMidi+0x179>
    4b9d: 69 00        	adc	#$0
    4b9f: 85 19        	sta	$19                     ; 0x2019 <playMidi+0x17f>
    4ba1: c8           	iny
    4ba2: b1 12        	lda	($12),y                 ; 0x2012 <playMidi+0x178>
    4ba4: 85 16        	sta	$16                     ; 0x2016 <playMidi+0x17c>
    4ba6: 85 1a        	sta	$1a                     ; 0x201a <playMidi+0x180>
    4ba8: 88           	dey
    4ba9: b1 18        	lda	($18),y                 ; 0x2018 <playMidi+0x17e>
    4bab: 85 17        	sta	$17                     ; 0x2017 <playMidi+0x17d>
    4bad: 85 18        	sta	$18                     ; 0x2018 <playMidi+0x17e>
    4baf: a0 04        	ldy	#$4
    4bb1: a5 1f        	lda	$1f                     ; 0x201f <playMidi+0x185>
    4bb3: 91 16        	sta	($16),y                 ; 0x2016 <playMidi+0x17c>
    4bb5: 18           	clc
    4bb6: a5 1a        	lda	$1a                     ; 0x201a <playMidi+0x180>
    4bb8: 69 04        	adc	#$4
    4bba: a8           	tay
    4bbb: a5 18        	lda	$18                     ; 0x2018 <playMidi+0x17e>
    4bbd: 69 00        	adc	#$0
    4bbf: 84 18        	sty	$18                     ; 0x2018 <playMidi+0x17e>
    4bc1: 85 19        	sta	$19                     ; 0x2019 <playMidi+0x17f>
    4bc3: a5 1e        	lda	$1e                     ; 0x201e <playMidi+0x184>
    4bc5: a0 01        	ldy	#$1
    4bc7: 91 18        	sta	($18),y                 ; 0x2018 <playMidi+0x17e>
    4bc9: a4 26        	ldy	$26                     ; 0x2026 <playMidi+0x18c>
    4bcb: 84 1b        	sty	$1b                     ; 0x201b <playMidi+0x181>
    4bcd: a4 1c        	ldy	$1c                     ; 0x201c <playMidi+0x182>
    4bcf: c4 13        	cpy	$13                     ; 0x2013 <playMidi+0x179>
    4bd1: d0 0c        	bne	$4bdf <malloc+0x1ff>
    4bd3: e4 12        	cpx	$12                     ; 0x2012 <playMidi+0x178>
    4bd5: d0 08        	bne	$4bdf <malloc+0x1ff>
    4bd7: a6 16        	ldx	$16                     ; 0x2016 <playMidi+0x17c>
    4bd9: a4 17        	ldy	$17                     ; 0x2017 <playMidi+0x17d>
    4bdb: 86 84        	stx	$84                     ; 0x2084 <playMidi+0x1ea>
    4bdd: 84 85        	sty	$85                     ; 0x2085 <playMidi+0x1eb>
    4bdf: a0 01        	ldy	#$1
    4be1: b1 12        	lda	($12),y                 ; 0x2012 <playMidi+0x178>
    4be3: aa           	tax
    4be4: a9 fe        	lda	#$fe
    4be6: 32 12        	and	($12)                   ; 0x2012 <playMidi+0x178>
    4be8: 38           	sec
    4be9: 48           	pha
    4bea: a0 06        	ldy	#$6
    4bec: b1 10        	lda	($10),y                 ; 0x2010 <playMidi+0x176>
    4bee: 85 16        	sta	$16                     ; 0x2016 <playMidi+0x17c>
    4bf0: 68           	pla
    4bf1: 85 17        	sta	$17                     ; 0x2017 <playMidi+0x17d>
    4bf3: e5 16        	sbc	$16                     ; 0x2016 <playMidi+0x17c>
    4bf5: a8           	tay
    4bf6: 8a           	txa
    4bf7: 86 18        	stx	$18                     ; 0x2018 <playMidi+0x17e>
    4bf9: e5 1b        	sbc	$1b                     ; 0x201b <playMidi+0x181>
    4bfb: d0 05        	bne	$4c02 <malloc+0x222>
    4bfd: aa           	tax
    4bfe: c0 08        	cpy	#$8
    4c00: 80 03        	bra	$4c05 <malloc+0x225>
    4c02: aa           	tax
    4c03: c9 00        	cmp	#$0
    4c05: a5 18        	lda	$18                     ; 0x2018 <playMidi+0x17e>
    4c07: 85 16        	sta	$16                     ; 0x2016 <playMidi+0x17c>
    4c09: b0 03        	bcs	$4c0e <malloc+0x22e>
    4c0b: 4c 8a 4c     	jmp	$4c8a <malloc+0x2aa>
    4c0e: 5a           	phy
    4c0f: a5 24        	lda	$24                     ; 0x2024 <playMidi+0x18a>
    4c11: a0 02        	ldy	#$2
    4c13: 91 10        	sta	($10),y                 ; 0x2010 <playMidi+0x176>
    4c15: a5 25        	lda	$25                     ; 0x2025 <playMidi+0x18b>
    4c17: c8           	iny
    4c18: 91 10        	sta	($10),y                 ; 0x2010 <playMidi+0x176>
    4c1a: a5 15        	lda	$15                     ; 0x2015 <playMidi+0x17b>
    4c1c: a0 05        	ldy	#$5
    4c1e: 91 10        	sta	($10),y                 ; 0x2010 <playMidi+0x176>
    4c20: a5 14        	lda	$14                     ; 0x2014 <playMidi+0x17a>
    4c22: 88           	dey
    4c23: 91 10        	sta	($10),y                 ; 0x2010 <playMidi+0x176>
    4c25: 7a           	ply
    4c26: 18           	clc
    4c27: 84 21        	sty	$21                     ; 0x2021 <playMidi+0x187>
    4c29: a0 06        	ldy	#$6
    4c2b: b1 10        	lda	($10),y                 ; 0x2010 <playMidi+0x176>
    4c2d: 85 24        	sta	$24                     ; 0x2024 <playMidi+0x18a>
    4c2f: 65 12        	adc	$12                     ; 0x2012 <playMidi+0x178>
    4c31: 85 16        	sta	$16                     ; 0x2016 <playMidi+0x17c>
    4c33: a5 26        	lda	$26                     ; 0x2026 <playMidi+0x18c>
    4c35: 65 13        	adc	$13                     ; 0x2013 <playMidi+0x179>
    4c37: 48           	pha
    4c38: a5 12        	lda	$12                     ; 0x2012 <playMidi+0x178>
    4c3a: a0 00        	ldy	#$0
    4c3c: 91 10        	sta	($10),y                 ; 0x2010 <playMidi+0x176>
    4c3e: a5 13        	lda	$13                     ; 0x2013 <playMidi+0x179>
    4c40: c8           	iny
    4c41: 91 10        	sta	($10),y                 ; 0x2010 <playMidi+0x176>
    4c43: a4 21        	ldy	$21                     ; 0x2021 <playMidi+0x187>
    4c45: 68           	pla
    4c46: 5a           	phy
    4c47: a4 16        	ldy	$16                     ; 0x2016 <playMidi+0x17c>
    4c49: 84 12        	sty	$12                     ; 0x2012 <playMidi+0x178>
    4c4b: 7a           	ply
    4c4c: 85 13        	sta	$13                     ; 0x2013 <playMidi+0x179>
    4c4e: 98           	tya
    4c4f: 20 48 03     	jsr	$348 <_ZN12_GLOBAL__N_19FreeChunk6insertEPvj>
    4c52: a0 00        	ldy	#$0
    4c54: b1 10        	lda	($10),y                 ; 0x2010 <playMidi+0x176>
    4c56: 85 12        	sta	$12                     ; 0x2012 <playMidi+0x178>
    4c58: c8           	iny
    4c59: b1 10        	lda	($10),y                 ; 0x2010 <playMidi+0x176>
    4c5b: 85 13        	sta	$13                     ; 0x2013 <playMidi+0x179>
    4c5d: a5 24        	lda	$24                     ; 0x2024 <playMidi+0x18a>
    4c5f: 29 fe        	and	#$fe
    4c61: 85 14        	sta	$14                     ; 0x2014 <playMidi+0x17a>
    4c63: 98           	tya
    4c64: 32 12        	and	($12)                   ; 0x2012 <playMidi+0x178>
    4c66: 05 14        	ora	$14                     ; 0x2014 <playMidi+0x17a>
    4c68: 92 12        	sta	($12)                   ; 0x2012 <playMidi+0x178>
    4c6a: a5 26        	lda	$26                     ; 0x2026 <playMidi+0x18c>
    4c6c: 91 12        	sta	($12),y                 ; 0x2012 <playMidi+0x178>
    4c6e: a6 14        	ldx	$14                     ; 0x2014 <playMidi+0x17a>
    4c70: 86 17        	stx	$17                     ; 0x2017 <playMidi+0x17d>
    4c72: 85 16        	sta	$16                     ; 0x2016 <playMidi+0x17c>
    4c74: a0 04        	ldy	#$4
    4c76: b1 10        	lda	($10),y                 ; 0x2010 <playMidi+0x176>
    4c78: 85 14        	sta	$14                     ; 0x2014 <playMidi+0x17a>
    4c7a: c8           	iny
    4c7b: b1 10        	lda	($10),y                 ; 0x2010 <playMidi+0x176>
    4c7d: 85 15        	sta	$15                     ; 0x2015 <playMidi+0x17b>
    4c7f: a0 02        	ldy	#$2
    4c81: b1 10        	lda	($10),y                 ; 0x2010 <playMidi+0x176>
    4c83: 85 24        	sta	$24                     ; 0x2024 <playMidi+0x18a>
    4c85: c8           	iny
    4c86: b1 10        	lda	($10),y                 ; 0x2010 <playMidi+0x176>
    4c88: 85 25        	sta	$25                     ; 0x2025 <playMidi+0x18b>
    4c8a: a5 17        	lda	$17                     ; 0x2017 <playMidi+0x17d>
    4c8c: 18           	clc
    4c8d: 65 12        	adc	$12                     ; 0x2012 <playMidi+0x178>
    4c8f: 85 12        	sta	$12                     ; 0x2012 <playMidi+0x178>
    4c91: a5 13        	lda	$13                     ; 0x2013 <playMidi+0x179>
    4c93: 65 16        	adc	$16                     ; 0x2016 <playMidi+0x17c>
    4c95: c5 15        	cmp	$15                     ; 0x2015 <playMidi+0x17b>
    4c97: d0 06        	bne	$4c9f <malloc+0x2bf>
    4c99: a6 12        	ldx	$12                     ; 0x2012 <playMidi+0x178>
    4c9b: e4 14        	cpx	$14                     ; 0x2014 <playMidi+0x17a>
    4c9d: f0 12        	beq	$4cb1 <malloc+0x2d1>
    4c9f: 85 13        	sta	$13                     ; 0x2013 <playMidi+0x179>
    4ca1: a0 01        	ldy	#$1
    4ca3: b1 12        	lda	($12),y                 ; 0x2012 <playMidi+0x178>
    4ca5: 85 14        	sta	$14                     ; 0x2014 <playMidi+0x17a>
    4ca7: a9 fe        	lda	#$fe
    4ca9: 32 12        	and	($12)                   ; 0x2012 <playMidi+0x178>
    4cab: 92 12        	sta	($12)                   ; 0x2012 <playMidi+0x178>
    4cad: a5 14        	lda	$14                     ; 0x2014 <playMidi+0x17a>
    4caf: 91 12        	sta	($12),y                 ; 0x2012 <playMidi+0x178>
    4cb1: a6 24        	ldx	$24                     ; 0x2024 <playMidi+0x18a>
    4cb3: 86 12        	stx	$12                     ; 0x2012 <playMidi+0x178>
    4cb5: a6 25        	ldx	$25                     ; 0x2025 <playMidi+0x18b>
    4cb7: 86 13        	stx	$13                     ; 0x2013 <playMidi+0x179>
    4cb9: fa           	plx
    4cba: 86 26        	stx	$26                     ; 0x2026 <playMidi+0x18c>
    4cbc: fa           	plx
    4cbd: 86 25        	stx	$25                     ; 0x2025 <playMidi+0x18b>
    4cbf: fa           	plx
    4cc0: 86 24        	stx	$24                     ; 0x2024 <playMidi+0x18a>
    4cc2: 18           	clc
    4cc3: a5 10        	lda	$10                     ; 0x2010 <playMidi+0x176>
    4cc5: 69 07        	adc	#$7
    4cc7: 85 10        	sta	$10                     ; 0x2010 <playMidi+0x176>
    4cc9: a5 11        	lda	$11                     ; 0x2011 <playMidi+0x177>
    4ccb: 69 00        	adc	#$0
    4ccd: 85 11        	sta	$11                     ; 0x2011 <playMidi+0x177>
    4ccf: 60           	rts

00004cd0 <memcpy>:
    4cd0: a8           	tay
    4cd1: 8a           	txa
    4cd2: d0 03        	bne	$4cd7 <memcpy+0x7>
    4cd4: 98           	tya
    4cd5: f0 24        	beq	$4cfb <memcpy+0x2b>
    4cd7: a5 12        	lda	$12                     ; 0x2012 <playMidi+0x178>
    4cd9: 85 16        	sta	$16                     ; 0x2016 <playMidi+0x17c>
    4cdb: a5 13        	lda	$13                     ; 0x2013 <playMidi+0x179>
    4cdd: 85 17        	sta	$17                     ; 0x2017 <playMidi+0x17d>
    4cdf: b2 14        	lda	($14)                   ; 0x2014 <playMidi+0x17a>
    4ce1: 92 16        	sta	($16)                   ; 0x2016 <playMidi+0x17c>
    4ce3: e6 16        	inc	$16                     ; 0x2016 <playMidi+0x17c>
    4ce5: d0 02        	bne	$4ce9 <memcpy+0x19>
    4ce7: e6 17        	inc	$17                     ; 0x2017 <playMidi+0x17d>
    4ce9: e6 14        	inc	$14                     ; 0x2014 <playMidi+0x17a>
    4ceb: d0 02        	bne	$4cef <memcpy+0x1f>
    4ced: e6 15        	inc	$15                     ; 0x2015 <playMidi+0x17b>
    4cef: 88           	dey
    4cf0: c0 ff        	cpy	#$ff
    4cf2: d0 01        	bne	$4cf5 <memcpy+0x25>
    4cf4: ca           	dex
    4cf5: 8a           	txa
    4cf6: d0 e7        	bne	$4cdf <memcpy+0xf>
    4cf8: 98           	tya
    4cf9: d0 e4        	bne	$4cdf <memcpy+0xf>
    4cfb: 60           	rts

00004cfc <__memset>:
    4cfc: a4 14        	ldy	$14                     ; 0x2014 <playMidi+0x17a>
    4cfe: d0 04        	bne	$4d04 <__memset+0x8>
    4d00: e0 00        	cpx	#$0
    4d02: f0 17        	beq	$4d1b <__memset+0x1f>
    4d04: 92 12        	sta	($12)                   ; 0x2012 <playMidi+0x178>
    4d06: e6 12        	inc	$12                     ; 0x2012 <playMidi+0x178>
    4d08: d0 02        	bne	$4d0c <__memset+0x10>
    4d0a: e6 13        	inc	$13                     ; 0x2013 <playMidi+0x179>
    4d0c: ca           	dex
    4d0d: e0 ff        	cpx	#$ff
    4d0f: d0 02        	bne	$4d13 <__memset+0x17>
    4d11: c6 14        	dec	$14                     ; 0x2014 <playMidi+0x17a>
    4d13: a4 14        	ldy	$14                     ; 0x2014 <playMidi+0x17a>
    4d15: d0 ed        	bne	$4d04 <__memset+0x8>
    4d17: e0 00        	cpx	#$0
    4d19: d0 e9        	bne	$4d04 <__memset+0x8>
    4d1b: 60           	rts

00004d1c <__mulhi3>:
    4d1c: a4 13        	ldy	$13                     ; 0x2013 <playMidi+0x179>
    4d1e: d0 04        	bne	$4d24 <__mulhi3+0x8>
    4d20: a4 12        	ldy	$12                     ; 0x2012 <playMidi+0x178>
    4d22: f0 25        	beq	$4d49 <__mulhi3+0x2d>
    4d24: 85 14        	sta	$14                     ; 0x2014 <playMidi+0x17a>
    4d26: 86 15        	stx	$15                     ; 0x2015 <playMidi+0x17b>
    4d28: a0 00        	ldy	#$0
    4d2a: 98           	tya
    4d2b: 46 13        	lsr	$13                     ; 0x2013 <playMidi+0x179>
    4d2d: 66 12        	ror	$12                     ; 0x2012 <playMidi+0x178>
    4d2f: 90 09        	bcc	$4d3a <__mulhi3+0x1e>
    4d31: aa           	tax
    4d32: 98           	tya
    4d33: 18           	clc
    4d34: 65 14        	adc	$14                     ; 0x2014 <playMidi+0x17a>
    4d36: a8           	tay
    4d37: 8a           	txa
    4d38: 65 15        	adc	$15                     ; 0x2015 <playMidi+0x17b>
    4d3a: 06 14        	asl	$14                     ; 0x2014 <playMidi+0x17a>
    4d3c: 26 15        	rol	$15                     ; 0x2015 <playMidi+0x17b>
    4d3e: a6 13        	ldx	$13                     ; 0x2013 <playMidi+0x179>
    4d40: d0 e9        	bne	$4d2b <__mulhi3+0xf>
    4d42: a6 12        	ldx	$12                     ; 0x2012 <playMidi+0x178>
    4d44: d0 e5        	bne	$4d2b <__mulhi3+0xf>
    4d46: aa           	tax
    4d47: 98           	tya
    4d48: 60           	rts
    4d49: a0 00        	ldy	#$0
    4d4b: 98           	tya
    4d4c: 80 f8        	bra	$4d46 <__mulhi3+0x2a>

00004d4e <__mulsi3>:
    4d4e: a4 17        	ldy	$17                     ; 0x2017 <playMidi+0x17d>
    4d50: d0 0f        	bne	$4d61 <__mulsi3+0x13>
    4d52: a4 16        	ldy	$16                     ; 0x2016 <playMidi+0x17c>
    4d54: d0 0b        	bne	$4d61 <__mulsi3+0x13>
    4d56: a4 15        	ldy	$15                     ; 0x2015 <playMidi+0x17b>
    4d58: d0 07        	bne	$4d61 <__mulsi3+0x13>
    4d5a: a4 14        	ldy	$14                     ; 0x2014 <playMidi+0x17a>
    4d5c: d0 03        	bne	$4d61 <__mulsi3+0x13>
    4d5e: 4c b5 4d     	jmp	$4db5 <__mulsi3+0x67>
    4d61: 85 18        	sta	$18                     ; 0x2018 <playMidi+0x17e>
    4d63: 86 19        	stx	$19                     ; 0x2019 <playMidi+0x17f>
    4d65: a0 00        	ldy	#$0
    4d67: a2 00        	ldx	#$0
    4d69: 64 1a        	stz	$1a                     ; 0x201a <playMidi+0x180>
    4d6b: 98           	tya
    4d6c: 46 17        	lsr	$17                     ; 0x2017 <playMidi+0x17d>
    4d6e: 66 16        	ror	$16                     ; 0x2016 <playMidi+0x17c>
    4d70: 66 15        	ror	$15                     ; 0x2015 <playMidi+0x17b>
    4d72: 66 14        	ror	$14                     ; 0x2014 <playMidi+0x17a>
    4d74: 90 15        	bcc	$4d8b <__mulsi3+0x3d>
    4d76: 85 1b        	sta	$1b                     ; 0x201b <playMidi+0x181>
    4d78: 98           	tya
    4d79: 18           	clc
    4d7a: 65 18        	adc	$18                     ; 0x2018 <playMidi+0x17e>
    4d7c: a8           	tay
    4d7d: 8a           	txa
    4d7e: 65 19        	adc	$19                     ; 0x2019 <playMidi+0x17f>
    4d80: aa           	tax
    4d81: a5 1a        	lda	$1a                     ; 0x201a <playMidi+0x180>
    4d83: 65 12        	adc	$12                     ; 0x2012 <playMidi+0x178>
    4d85: 85 1a        	sta	$1a                     ; 0x201a <playMidi+0x180>
    4d87: a5 1b        	lda	$1b                     ; 0x201b <playMidi+0x181>
    4d89: 65 13        	adc	$13                     ; 0x2013 <playMidi+0x179>
    4d8b: 06 18        	asl	$18                     ; 0x2018 <playMidi+0x17e>
    4d8d: 26 19        	rol	$19                     ; 0x2019 <playMidi+0x17f>
    4d8f: 26 12        	rol	$12                     ; 0x2012 <playMidi+0x178>
    4d91: 26 13        	rol	$13                     ; 0x2013 <playMidi+0x179>
    4d93: e6 17        	inc	$17                     ; 0x2017 <playMidi+0x17d>
    4d95: c6 17        	dec	$17                     ; 0x2017 <playMidi+0x17d>
    4d97: d0 d3        	bne	$4d6c <__mulsi3+0x1e>
    4d99: e6 16        	inc	$16                     ; 0x2016 <playMidi+0x17c>
    4d9b: c6 16        	dec	$16                     ; 0x2016 <playMidi+0x17c>
    4d9d: d0 cd        	bne	$4d6c <__mulsi3+0x1e>
    4d9f: e6 15        	inc	$15                     ; 0x2015 <playMidi+0x17b>
    4da1: c6 15        	dec	$15                     ; 0x2015 <playMidi+0x17b>
    4da3: d0 c7        	bne	$4d6c <__mulsi3+0x1e>
    4da5: e6 14        	inc	$14                     ; 0x2014 <playMidi+0x17a>
    4da7: c6 14        	dec	$14                     ; 0x2014 <playMidi+0x17a>
    4da9: d0 c1        	bne	$4d6c <__mulsi3+0x1e>
    4dab: 5a           	phy
    4dac: a4 1a        	ldy	$1a                     ; 0x201a <playMidi+0x180>
    4dae: 84 12        	sty	$12                     ; 0x2012 <playMidi+0x178>
    4db0: 7a           	ply
    4db1: 85 13        	sta	$13                     ; 0x2013 <playMidi+0x179>
    4db3: 98           	tya
    4db4: 60           	rts
    4db5: a0 00        	ldy	#$0
    4db7: a2 00        	ldx	#$0
    4db9: 64 1a        	stz	$1a                     ; 0x201a <playMidi+0x180>
    4dbb: 98           	tya
    4dbc: 80 ed        	bra	$4dab <__mulsi3+0x5d>

00004dbe <__udivsi3>:
    4dbe: 48           	pha
    4dbf: 18           	clc
    4dc0: a5 10        	lda	$10                     ; 0x2010 <playMidi+0x176>
    4dc2: 69 ff        	adc	#$ff
    4dc4: 85 10        	sta	$10                     ; 0x2010 <playMidi+0x176>
    4dc6: a5 11        	lda	$11                     ; 0x2011 <playMidi+0x177>
    4dc8: 69 ff        	adc	#$ff
    4dca: 85 11        	sta	$11                     ; 0x2011 <playMidi+0x177>
    4dcc: 68           	pla
    4dcd: 64 18        	stz	$18                     ; 0x2018 <playMidi+0x17e>
    4dcf: a4 17        	ldy	$17                     ; 0x2017 <playMidi+0x17d>
    4dd1: d0 0c        	bne	$4ddf <__udivsi3+0x21>
    4dd3: a4 16        	ldy	$16                     ; 0x2016 <playMidi+0x17c>
    4dd5: d0 08        	bne	$4ddf <__udivsi3+0x21>
    4dd7: a4 15        	ldy	$15                     ; 0x2015 <playMidi+0x17b>
    4dd9: d0 04        	bne	$4ddf <__udivsi3+0x21>
    4ddb: a4 14        	ldy	$14                     ; 0x2014 <playMidi+0x17a>
    4ddd: f0 27        	beq	$4e06 <__udivsi3+0x48>
    4ddf: 86 1e        	stx	$1e                     ; 0x201e <playMidi+0x184>
    4de1: a6 12        	ldx	$12                     ; 0x2012 <playMidi+0x178>
    4de3: 86 1f        	stx	$1f                     ; 0x201f <playMidi+0x185>
    4de5: a6 13        	ldx	$13                     ; 0x2013 <playMidi+0x179>
    4de7: 86 22        	stx	$22                     ; 0x2022 <playMidi+0x188>
    4de9: e4 17        	cpx	$17                     ; 0x2017 <playMidi+0x17d>
    4deb: d0 15        	bne	$4e02 <__udivsi3+0x44>
    4ded: a6 12        	ldx	$12                     ; 0x2012 <playMidi+0x178>
    4def: e4 16        	cpx	$16                     ; 0x2016 <playMidi+0x17c>
    4df1: d0 1d        	bne	$4e10 <__udivsi3+0x52>
    4df3: a6 1e        	ldx	$1e                     ; 0x201e <playMidi+0x184>
    4df5: e4 15        	cpx	$15                     ; 0x2015 <playMidi+0x17b>
    4df7: f0 03        	beq	$4dfc <__udivsi3+0x3e>
    4df9: 4c 55 4f     	jmp	$4f55 <__udivsi3+0x197>
    4dfc: c5 14        	cmp	$14                     ; 0x2014 <playMidi+0x17a>
    4dfe: 90 06        	bcc	$4e06 <__udivsi3+0x48>
    4e00: 80 12        	bra	$4e14 <__udivsi3+0x56>
    4e02: e4 17        	cpx	$17                     ; 0x2017 <playMidi+0x17d>
    4e04: b0 0e        	bcs	$4e14 <__udivsi3+0x56>
    4e06: 64 12        	stz	$12                     ; 0x2012 <playMidi+0x178>
    4e08: a9 00        	lda	#$0
    4e0a: a8           	tay
    4e0b: 91 10        	sta	($10),y                 ; 0x2010 <playMidi+0x176>
    4e0d: 4c 3d 4f     	jmp	$4f3d <__udivsi3+0x17f>
    4e10: e4 16        	cpx	$16                     ; 0x2016 <playMidi+0x17c>
    4e12: 90 f2        	bcc	$4e06 <__udivsi3+0x48>
    4e14: a2 01        	ldx	#$1
    4e16: 48           	pha
    4e17: 8a           	txa
    4e18: a0 00        	ldy	#$0
    4e1a: 91 10        	sta	($10),y                 ; 0x2010 <playMidi+0x176>
    4e1c: 68           	pla
    4e1d: a6 17        	ldx	$17                     ; 0x2017 <playMidi+0x17d>
    4e1f: 10 03        	bpl	$4e24 <__udivsi3+0x66>
    4e21: 4c 3b 4f     	jmp	$4f3b <__udivsi3+0x17d>
    4e24: 85 1d        	sta	$1d                     ; 0x201d <playMidi+0x183>
    4e26: a5 1e        	lda	$1e                     ; 0x201e <playMidi+0x184>
    4e28: a2 00        	ldx	#$0
    4e2a: a4 14        	ldy	$14                     ; 0x2014 <playMidi+0x17a>
    4e2c: 84 19        	sty	$19                     ; 0x2019 <playMidi+0x17f>
    4e2e: a4 15        	ldy	$15                     ; 0x2015 <playMidi+0x17b>
    4e30: 84 1a        	sty	$1a                     ; 0x201a <playMidi+0x180>
    4e32: a4 16        	ldy	$16                     ; 0x2016 <playMidi+0x17c>
    4e34: 84 1b        	sty	$1b                     ; 0x201b <playMidi+0x181>
    4e36: a4 17        	ldy	$17                     ; 0x2017 <playMidi+0x17d>
    4e38: 84 1c        	sty	$1c                     ; 0x201c <playMidi+0x182>
    4e3a: 06 19        	asl	$19                     ; 0x2019 <playMidi+0x17f>
    4e3c: 26 1a        	rol	$1a                     ; 0x201a <playMidi+0x180>
    4e3e: 26 1b        	rol	$1b                     ; 0x201b <playMidi+0x181>
    4e40: 26 1c        	rol	$1c                     ; 0x201c <playMidi+0x182>
    4e42: a4 22        	ldy	$22                     ; 0x2022 <playMidi+0x188>
    4e44: c4 1c        	cpy	$1c                     ; 0x201c <playMidi+0x182>
    4e46: d0 12        	bne	$4e5a <__udivsi3+0x9c>
    4e48: a4 12        	ldy	$12                     ; 0x2012 <playMidi+0x178>
    4e4a: c4 1b        	cpy	$1b                     ; 0x201b <playMidi+0x181>
    4e4c: d0 12        	bne	$4e60 <__udivsi3+0xa2>
    4e4e: c5 1a        	cmp	$1a                     ; 0x201a <playMidi+0x180>
    4e50: d0 14        	bne	$4e66 <__udivsi3+0xa8>
    4e52: a4 1d        	ldy	$1d                     ; 0x201d <playMidi+0x183>
    4e54: c4 19        	cpy	$19                     ; 0x2019 <playMidi+0x17f>
    4e56: 90 27        	bcc	$4e7f <__udivsi3+0xc1>
    4e58: 80 10        	bra	$4e6a <__udivsi3+0xac>
    4e5a: c4 1c        	cpy	$1c                     ; 0x201c <playMidi+0x182>
    4e5c: b0 0c        	bcs	$4e6a <__udivsi3+0xac>
    4e5e: 80 1f        	bra	$4e7f <__udivsi3+0xc1>
    4e60: c4 1b        	cpy	$1b                     ; 0x201b <playMidi+0x181>
    4e62: 90 1b        	bcc	$4e7f <__udivsi3+0xc1>
    4e64: 80 04        	bra	$4e6a <__udivsi3+0xac>
    4e66: c5 1a        	cmp	$1a                     ; 0x201a <playMidi+0x180>
    4e68: 90 15        	bcc	$4e7f <__udivsi3+0xc1>
    4e6a: e8           	inx
    4e6b: a4 19        	ldy	$19                     ; 0x2019 <playMidi+0x17f>
    4e6d: 84 14        	sty	$14                     ; 0x2014 <playMidi+0x17a>
    4e6f: a4 1a        	ldy	$1a                     ; 0x201a <playMidi+0x180>
    4e71: 84 15        	sty	$15                     ; 0x2015 <playMidi+0x17b>
    4e73: a4 1b        	ldy	$1b                     ; 0x201b <playMidi+0x181>
    4e75: 84 16        	sty	$16                     ; 0x2016 <playMidi+0x17c>
    4e77: a4 1c        	ldy	$1c                     ; 0x201c <playMidi+0x182>
    4e79: 84 17        	sty	$17                     ; 0x2017 <playMidi+0x17d>
    4e7b: 10 bd        	bpl	$4e3a <__udivsi3+0x7c>
    4e7d: 80 10        	bra	$4e8f <__udivsi3+0xd1>
    4e7f: a4 14        	ldy	$14                     ; 0x2014 <playMidi+0x17a>
    4e81: 84 19        	sty	$19                     ; 0x2019 <playMidi+0x17f>
    4e83: a4 15        	ldy	$15                     ; 0x2015 <playMidi+0x17b>
    4e85: 84 1a        	sty	$1a                     ; 0x201a <playMidi+0x180>
    4e87: a4 16        	ldy	$16                     ; 0x2016 <playMidi+0x17c>
    4e89: 84 1b        	sty	$1b                     ; 0x201b <playMidi+0x181>
    4e8b: a4 17        	ldy	$17                     ; 0x2017 <playMidi+0x17d>
    4e8d: 84 1c        	sty	$1c                     ; 0x201c <playMidi+0x182>
    4e8f: 64 12        	stz	$12                     ; 0x2012 <playMidi+0x178>
    4e91: 64 13        	stz	$13                     ; 0x2013 <playMidi+0x179>
    4e93: 8a           	txa
    4e94: d0 03        	bne	$4e99 <__udivsi3+0xdb>
    4e96: 4c 3f 4f     	jmp	$4f3f <__udivsi3+0x181>
    4e99: 38           	sec
    4e9a: a5 1d        	lda	$1d                     ; 0x201d <playMidi+0x183>
    4e9c: e5 19        	sbc	$19                     ; 0x2019 <playMidi+0x17f>
    4e9e: 85 14        	sta	$14                     ; 0x2014 <playMidi+0x17a>
    4ea0: a5 1e        	lda	$1e                     ; 0x201e <playMidi+0x184>
    4ea2: e5 1a        	sbc	$1a                     ; 0x201a <playMidi+0x180>
    4ea4: 85 1d        	sta	$1d                     ; 0x201d <playMidi+0x183>
    4ea6: a5 1f        	lda	$1f                     ; 0x201f <playMidi+0x185>
    4ea8: e5 1b        	sbc	$1b                     ; 0x201b <playMidi+0x181>
    4eaa: 85 15        	sta	$15                     ; 0x2015 <playMidi+0x17b>
    4eac: a5 22        	lda	$22                     ; 0x2022 <playMidi+0x188>
    4eae: e5 1c        	sbc	$1c                     ; 0x201c <playMidi+0x182>
    4eb0: a0 01        	ldy	#$1
    4eb2: 48           	pha
    4eb3: 98           	tya
    4eb4: 88           	dey
    4eb5: 91 10        	sta	($10),y                 ; 0x2010 <playMidi+0x176>
    4eb7: 68           	pla
    4eb8: 64 18        	stz	$18                     ; 0x2018 <playMidi+0x17e>
    4eba: 46 1c        	lsr	$1c                     ; 0x201c <playMidi+0x182>
    4ebc: 66 1b        	ror	$1b                     ; 0x201b <playMidi+0x181>
    4ebe: 66 1a        	ror	$1a                     ; 0x201a <playMidi+0x180>
    4ec0: 66 19        	ror	$19                     ; 0x2019 <playMidi+0x17f>
    4ec2: 48           	pha
    4ec3: a0 00        	ldy	#$0
    4ec5: b1 10        	lda	($10),y                 ; 0x2010 <playMidi+0x176>
    4ec7: 85 16        	sta	$16                     ; 0x2016 <playMidi+0x17c>
    4ec9: 06 16        	asl	$16                     ; 0x2016 <playMidi+0x17c>
    4ecb: a9 01        	lda	#$1
    4ecd: b0 02        	bcs	$4ed1 <__udivsi3+0x113>
    4ecf: a9 00        	lda	#$0
    4ed1: 85 22        	sta	$22                     ; 0x2022 <playMidi+0x188>
    4ed3: a5 16        	lda	$16                     ; 0x2016 <playMidi+0x17c>
    4ed5: 91 10        	sta	($10),y                 ; 0x2010 <playMidi+0x176>
    4ed7: 68           	pla
    4ed8: c5 1c        	cmp	$1c                     ; 0x201c <playMidi+0x182>
    4eda: d0 16        	bne	$4ef2 <__udivsi3+0x134>
    4edc: 85 1e        	sta	$1e                     ; 0x201e <playMidi+0x184>
    4ede: a4 15        	ldy	$15                     ; 0x2015 <playMidi+0x17b>
    4ee0: a5 1d        	lda	$1d                     ; 0x201d <playMidi+0x183>
    4ee2: c4 1b        	cpy	$1b                     ; 0x201b <playMidi+0x181>
    4ee4: d0 49        	bne	$4f2f <__udivsi3+0x171>
    4ee6: c5 1a        	cmp	$1a                     ; 0x201a <playMidi+0x180>
    4ee8: d0 4b        	bne	$4f35 <__udivsi3+0x177>
    4eea: a4 14        	ldy	$14                     ; 0x2014 <playMidi+0x17a>
    4eec: c4 19        	cpy	$19                     ; 0x2019 <playMidi+0x17f>
    4eee: b0 0a        	bcs	$4efa <__udivsi3+0x13c>
    4ef0: 80 29        	bra	$4f1b <__udivsi3+0x15d>
    4ef2: 85 1e        	sta	$1e                     ; 0x201e <playMidi+0x184>
    4ef4: c5 1c        	cmp	$1c                     ; 0x201c <playMidi+0x182>
    4ef6: a5 1d        	lda	$1d                     ; 0x201d <playMidi+0x183>
    4ef8: 90 21        	bcc	$4f1b <__udivsi3+0x15d>
    4efa: a8           	tay
    4efb: 38           	sec
    4efc: a5 14        	lda	$14                     ; 0x2014 <playMidi+0x17a>
    4efe: e5 19        	sbc	$19                     ; 0x2019 <playMidi+0x17f>
    4f00: 85 14        	sta	$14                     ; 0x2014 <playMidi+0x17a>
    4f02: 98           	tya
    4f03: e5 1a        	sbc	$1a                     ; 0x201a <playMidi+0x180>
    4f05: 85 1d        	sta	$1d                     ; 0x201d <playMidi+0x183>
    4f07: a5 15        	lda	$15                     ; 0x2015 <playMidi+0x17b>
    4f09: e5 1b        	sbc	$1b                     ; 0x201b <playMidi+0x181>
    4f0b: 85 15        	sta	$15                     ; 0x2015 <playMidi+0x17b>
    4f0d: a5 1e        	lda	$1e                     ; 0x201e <playMidi+0x184>
    4f0f: e5 1c        	sbc	$1c                     ; 0x201c <playMidi+0x182>
    4f11: 85 1e        	sta	$1e                     ; 0x201e <playMidi+0x184>
    4f13: a0 00        	ldy	#$0
    4f15: b1 10        	lda	($10),y                 ; 0x2010 <playMidi+0x176>
    4f17: 09 01        	ora	#$1
    4f19: 91 10        	sta	($10),y                 ; 0x2010 <playMidi+0x176>
    4f1b: a4 22        	ldy	$22                     ; 0x2022 <playMidi+0x188>
    4f1d: c0 01        	cpy	#$1
    4f1f: 26 18        	rol	$18                     ; 0x2018 <playMidi+0x17e>
    4f21: 26 12        	rol	$12                     ; 0x2012 <playMidi+0x178>
    4f23: 26 13        	rol	$13                     ; 0x2013 <playMidi+0x179>
    4f25: ca           	dex
    4f26: a5 1e        	lda	$1e                     ; 0x201e <playMidi+0x184>
    4f28: e0 00        	cpx	#$0
    4f2a: f0 13        	beq	$4f3f <__udivsi3+0x181>
    4f2c: 4c ba 4e     	jmp	$4eba <__udivsi3+0xfc>
    4f2f: c4 1b        	cpy	$1b                     ; 0x201b <playMidi+0x181>
    4f31: b0 c7        	bcs	$4efa <__udivsi3+0x13c>
    4f33: 80 e6        	bra	$4f1b <__udivsi3+0x15d>
    4f35: c5 1a        	cmp	$1a                     ; 0x201a <playMidi+0x180>
    4f37: b0 c1        	bcs	$4efa <__udivsi3+0x13c>
    4f39: 80 e0        	bra	$4f1b <__udivsi3+0x15d>
    4f3b: 64 12        	stz	$12                     ; 0x2012 <playMidi+0x178>
    4f3d: 64 13        	stz	$13                     ; 0x2013 <playMidi+0x179>
    4f3f: a6 18        	ldx	$18                     ; 0x2018 <playMidi+0x17e>
    4f41: a0 00        	ldy	#$0
    4f43: b1 10        	lda	($10),y                 ; 0x2010 <playMidi+0x176>
    4f45: 48           	pha
    4f46: 18           	clc
    4f47: a5 10        	lda	$10                     ; 0x2010 <playMidi+0x176>
    4f49: 69 01        	adc	#$1
    4f4b: 85 10        	sta	$10                     ; 0x2010 <playMidi+0x176>
    4f4d: a5 11        	lda	$11                     ; 0x2011 <playMidi+0x177>
    4f4f: 69 00        	adc	#$0
    4f51: 85 11        	sta	$11                     ; 0x2011 <playMidi+0x177>
    4f53: 68           	pla
    4f54: 60           	rts
    4f55: e4 15        	cpx	$15                     ; 0x2015 <playMidi+0x17b>
    4f57: b0 03        	bcs	$4f5c <__udivsi3+0x19e>
    4f59: 4c 06 4e     	jmp	$4e06 <__udivsi3+0x48>
    4f5c: 4c 14 4e     	jmp	$4e14 <__udivsi3+0x56>
