
multiRead.elf:	file format elf32-mos

SYMBOL TABLE:
00000000 l    df *ABS*	00000000 zero-bss.c
00000000 l    df *ABS*	00000000 zero-zp-bss.c
00000000 l    df *ABS*	00000000 ld-temp.o
00000479 l     F .text	0000042c f256Init
00000035 l     O .zp.bss	00000007 kernelEventData
00002778 l     O .rodata	00000030 textColors
00000030 l     O .zp.bss	00000001 _col
00000031 l     O .zp.bss	00000001 _row
000027f2 l     O .bss	00000004 _BITMAP_BASE.0
000027f6 l     O .bss	00000004 _BITMAP_BASE.1
000027fa l     O .bss	00000004 _BITMAP_BASE.2
00000034 l     O .zp.bss	00000001 kernelError
000008ab l     F .text	00000a6a f256main
00001315 l     F .text	00000150 fileRead
0000270b l     F .text	00000032 __mulhi3
00002409 l     F .text	000002b6 malloc
00002222 l     F .text	000001e7 putchar
00001649 l     F .text	00000bd9 printf
0000146a l     F .text	000000d3 _ZN12_GLOBAL__N_13putEcP6Status
0000153d l     F .text	0000010c _ZN12_GLOBAL__N_112print_stringEPKcP6Status
00000032 l     O .zp.bss	00000002 __putchar.s
000027fe l     O .bss	00000001 _ZN12_GLOBAL__N_111initializedE
00000316 l     F .text	0000013d _ZN12_GLOBAL__N_19FreeChunk6insertEPvj
00002801 l     O .bss	00000002 _ZN12_GLOBAL__N_19free_listE
000027ff l     O .bss	00000002 _ZN12_GLOBAL__N_19free_sizeE
000008a5 g     F .text	00000006 main
00000311 g       .text	00000000 __after_main
00000300 g       .text	00000000 __do_init_stack
00000308 g       .text	00000000 __do_zero_bss
00000453 g     F .text	00000013 __zero_bss
0000030b g       .text	00000000 __do_zero_zp_bss
00000466 g     F .text	00000013 __zero_zp_bss
00001465 g     F .text	00000005 exit
00000314 g       .text	00000000 _fini
0000273d g       .rodata	00000000 __set_v
000026eb  w    F .text	00000020 __memset
00001000  w      *ABS*	00000000 __heap_default_limit
00002804 g       .noinit	00000000 __heap_start
000026bf  w    F .text	0000002c memcpy
00000010 g       *ABS*	00000000 __rc0
00000012 g       *ABS*	00000000 __rc2
00000014 g       *ABS*	00000000 __rc4
00000016 g       *ABS*	00000000 __rc6
00000018 g       *ABS*	00000000 __rc8
0000001a g       *ABS*	00000000 __rc10
0000001c g       *ABS*	00000000 __rc12
0000001e g       *ABS*	00000000 __rc14
00000020 g       *ABS*	00000000 __rc16
00000022 g       *ABS*	00000000 __rc18
00000024 g       *ABS*	00000000 __rc20
00000026 g       *ABS*	00000000 __rc22
00000028 g       *ABS*	00000000 __rc24
0000002a g       *ABS*	00000000 __rc26
0000002c g       *ABS*	00000000 __rc28
0000002e g       *ABS*	00000000 __rc30
0000002f g       *ABS*	00000000 __rc31
00000300 g       *ABS*	00000000 __f256_start
0000c000 g       *ABS*	00000000 __stack
0000c000 g       *ABS*	00000000 __SLOT_ADDR
0800c000 g       *ABS*	00000000 __block8_lma
00002000 g       *ABS*	00000000 __BLOCK_SIZE
0900c000 g       *ABS*	00000000 __block9_lma
0a00c000 g       *ABS*	00000000 __block10_lma
0b00c000 g       *ABS*	00000000 __block11_lma
0c00c000 g       *ABS*	00000000 __block12_lma
0d00c000 g       *ABS*	00000000 __block13_lma
0e00c000 g       *ABS*	00000000 __block14_lma
0f00c000 g       *ABS*	00000000 __block15_lma
1000c000 g       *ABS*	00000000 __block16_lma
1100c000 g       *ABS*	00000000 __block17_lma
1200c000 g       *ABS*	00000000 __block18_lma
1300c000 g       *ABS*	00000000 __block19_lma
1400c000 g       *ABS*	00000000 __block20_lma
1500c000 g       *ABS*	00000000 __block21_lma
1600c000 g       *ABS*	00000000 __block22_lma
1700c000 g       *ABS*	00000000 __block23_lma
000027f2 g       .bss	00000000 __bss_start
00000300 g       .text	00000000 _start
0000002d g       *ABS*	00000000 __rc29
0000002b g       *ABS*	00000000 __rc27
00000029 g       *ABS*	00000000 __rc25
00000027 g       *ABS*	00000000 __rc23
00000025 g       *ABS*	00000000 __rc21
00000023 g       *ABS*	00000000 __rc19
00000021 g       *ABS*	00000000 __rc17
0000001f g       *ABS*	00000000 __rc15
0000001d g       *ABS*	00000000 __rc13
0000001b g       *ABS*	00000000 __rc11
00000019 g       *ABS*	00000000 __rc9
00000017 g       *ABS*	00000000 __rc7
00000015 g       *ABS*	00000000 __rc5
00000013 g       *ABS*	00000000 __rc3
00000011 g       *ABS*	00000000 __rc1
00000030 g       .zp.data	00000000 __zp_data_start
00000300 g       *ABS*	00000000 __zp_data_load_start
00000000 g       *ABS*	00000000 __zp_data_size
00000030 g       .zp.bss	00000000 __zp_bss_start
0000000c g       *ABS*	00000000 __zp_bss_size
00000300 g       .text	00000000 _init
0000273d g       .text	00000000 __init_array_start
0000273d g       .text	00000000 __init_array_end
0000273d g       .text	00000000 __fini_array_start
0000273d g       .text	00000000 __fini_array_end
000027f2 g       .data	00000000 __data_start
000027f2 g       .data	00000000 __data_end
000027f2 g       *ABS*	00000000 __data_load_start
00000000 g       *ABS*	00000000 __data_size
00002803 g       .bss	00000000 __bss_end
00000011 g       *ABS*	00000000 __bss_size
00002803 g       .noinit	00000000 end_block8
00002803 g       .noinit	00000000 end_block9
00002803 g       .noinit	00000000 end_block10
00002803 g       .noinit	00000000 end_block11
00002803 g       .noinit	00000000 end_block12
00002803 g       .noinit	00000000 end_block13
00002803 g       .noinit	00000000 end_block14
00002803 g       .noinit	00000000 end_block15
00002803 g       .noinit	00000000 end_block16
00002803 g       .noinit	00000000 end_block17
00002803 g       .noinit	00000000 end_block18
00002803 g       .noinit	00000000 end_block19
00002803 g       .noinit	00000000 end_block20
00002803 g       .noinit	00000000 end_block21
00002803 g       .noinit	00000000 end_block22
00002803 g       .noinit	00000000 end_block23

Disassembly of section .text:

00000300 <_start>:
     300: a9 00        	lda	#$0
     302: 85 10        	sta	$10                     ; 0x2010 <printf+0x9c7>
     304: a9 c0        	lda	#$c0
     306: 85 11        	sta	$11                     ; 0x2011 <printf+0x9c8>

00000308 <__do_zero_bss>:
     308: 20 53 04     	jsr	$453 <__zero_bss>

0000030b <__do_zero_zp_bss>:
     30b: 20 66 04     	jsr	$466 <__zero_zp_bss>
     30e: 20 a5 08     	jsr	$8a5 <main>

00000311 <__after_main>:
     311: 4c 65 14     	jmp	$1465 <exit>

00000314 <_fini>:
     314: 60           	rts
     315: 00           	brk

00000316 <_ZN12_GLOBAL__N_19FreeChunk6insertEPvj>:
     316: 85 16        	sta	$16                     ; 0x2016 <printf+0x9cd>
     318: 29 fe        	and	#$fe
     31a: 85 14        	sta	$14                     ; 0x2014 <printf+0x9cb>
     31c: a0 01        	ldy	#$1
     31e: 98           	tya
     31f: 32 12        	and	($12)                   ; 0x2012 <printf+0x9c9>
     321: 05 14        	ora	$14                     ; 0x2014 <printf+0x9cb>
     323: 92 12        	sta	($12)                   ; 0x2012 <printf+0x9c9>
     325: a5 12        	lda	$12                     ; 0x2012 <printf+0x9c9>
     327: 18           	clc
     328: 65 14        	adc	$14                     ; 0x2014 <printf+0x9cb>
     32a: 85 15        	sta	$15                     ; 0x2015 <printf+0x9cc>
     32c: 8a           	txa
     32d: 65 13        	adc	$13                     ; 0x2013 <printf+0x9ca>
     32f: 85 14        	sta	$14                     ; 0x2014 <printf+0x9cb>
     331: 18           	clc
     332: a5 15        	lda	$15                     ; 0x2015 <printf+0x9cc>
     334: 69 fe        	adc	#$fe
     336: 85 17        	sta	$17                     ; 0x2017 <printf+0x9ce>
     338: a5 14        	lda	$14                     ; 0x2014 <printf+0x9cb>
     33a: 69 ff        	adc	#$ff
     33c: 85 15        	sta	$15                     ; 0x2015 <printf+0x9cc>
     33e: a5 17        	lda	$17                     ; 0x2017 <printf+0x9ce>
     340: 85 14        	sta	$14                     ; 0x2014 <printf+0x9cb>
     342: 8a           	txa
     343: 91 12        	sta	($12),y                 ; 0x2012 <printf+0x9c9>
     345: a5 16        	lda	$16                     ; 0x2016 <printf+0x9cd>
     347: 92 14        	sta	($14)                   ; 0x2014 <printf+0x9cb>
     349: 8a           	txa
     34a: 91 14        	sta	($14),y                 ; 0x2014 <printf+0x9cb>
     34c: b1 12        	lda	($12),y                 ; 0x2012 <printf+0x9c9>
     34e: 85 14        	sta	$14                     ; 0x2014 <printf+0x9cb>
     350: a9 fe        	lda	#$fe
     352: 32 12        	and	($12)                   ; 0x2012 <printf+0x9c9>
     354: 18           	clc
     355: 6d ff 27     	adc	$27ff                   ; 0x27ff <_ZN12_GLOBAL__N_19free_sizeE>
     358: aa           	tax
     359: a5 14        	lda	$14                     ; 0x2014 <printf+0x9cb>
     35b: 6d 00 28     	adc	$2800                   ; 0x2800 <_ZN12_GLOBAL__N_19free_sizeE+0x1>
     35e: a8           	tay
     35f: 18           	clc
     360: 8a           	txa
     361: 69 fe        	adc	#$fe
     363: aa           	tax
     364: 98           	tya
     365: 69 ff        	adc	#$ff
     367: 8e ff 27     	stx	$27ff                   ; 0x27ff <_ZN12_GLOBAL__N_19free_sizeE>
     36a: 8d 00 28     	sta	$2800                   ; 0x2800 <_ZN12_GLOBAL__N_19free_sizeE+0x1>
     36d: ae 01 28     	ldx	$2801                   ; 0x2801 <_ZN12_GLOBAL__N_19free_listE>
     370: 86 16        	stx	$16                     ; 0x2016 <printf+0x9cd>
     372: ac 02 28     	ldy	$2802                   ; 0x2802 <_ZN12_GLOBAL__N_19free_listE+0x1>
     375: a2 00        	ldx	#$0
     377: 86 14        	stx	$14                     ; 0x2014 <printf+0x9cb>
     379: a2 00        	ldx	#$0
     37b: 86 15        	stx	$15                     ; 0x2015 <printf+0x9cc>
     37d: c4 15        	cpy	$15                     ; 0x2015 <printf+0x9cc>
     37f: d0 3e        	bne	$3bf <_ZN12_GLOBAL__N_19FreeChunk6insertEPvj+0xa9>
     381: a6 16        	ldx	$16                     ; 0x2016 <printf+0x9cd>
     383: e4 14        	cpx	$14                     ; 0x2014 <printf+0x9cb>
     385: d0 38        	bne	$3bf <_ZN12_GLOBAL__N_19FreeChunk6insertEPvj+0xa9>
     387: a0 04        	ldy	#$4
     389: a5 12        	lda	$12                     ; 0x2012 <printf+0x9c9>
     38b: 18           	clc
     38c: 69 04        	adc	#$4
     38e: 85 14        	sta	$14                     ; 0x2014 <printf+0x9cb>
     390: a5 13        	lda	$13                     ; 0x2013 <printf+0x9ca>
     392: 69 00        	adc	#$0
     394: 18           	clc
     395: 85 15        	sta	$15                     ; 0x2015 <printf+0x9cc>
     397: a5 12        	lda	$12                     ; 0x2012 <printf+0x9c9>
     399: 91 12        	sta	($12),y                 ; 0x2012 <printf+0x9c9>
     39b: a0 02        	ldy	#$2
     39d: 85 17        	sta	$17                     ; 0x2017 <printf+0x9ce>
     39f: 69 02        	adc	#$2
     3a1: 85 16        	sta	$16                     ; 0x2016 <printf+0x9cd>
     3a3: a5 17        	lda	$17                     ; 0x2017 <printf+0x9ce>
     3a5: 91 12        	sta	($12),y                 ; 0x2012 <printf+0x9c9>
     3a7: a5 13        	lda	$13                     ; 0x2013 <printf+0x9ca>
     3a9: 69 00        	adc	#$0
     3ab: 85 17        	sta	$17                     ; 0x2017 <printf+0x9ce>
     3ad: 88           	dey
     3ae: a5 13        	lda	$13                     ; 0x2013 <printf+0x9ca>
     3b0: 91 14        	sta	($14),y                 ; 0x2014 <printf+0x9cb>
     3b2: 91 16        	sta	($16),y                 ; 0x2016 <printf+0x9cd>
     3b4: a6 12        	ldx	$12                     ; 0x2012 <printf+0x9c9>
     3b6: 8e 01 28     	stx	$2801                   ; 0x2801 <_ZN12_GLOBAL__N_19free_listE>
     3b9: a6 13        	ldx	$13                     ; 0x2013 <printf+0x9ca>
     3bb: 8e 02 28     	stx	$2802                   ; 0x2802 <_ZN12_GLOBAL__N_19free_listE+0x1>
     3be: 60           	rts
     3bf: a6 12        	ldx	$12                     ; 0x2012 <printf+0x9c9>
     3c1: a5 12        	lda	$12                     ; 0x2012 <printf+0x9c9>
     3c3: 18           	clc
     3c4: 69 02        	adc	#$2
     3c6: 85 14        	sta	$14                     ; 0x2014 <printf+0x9cb>
     3c8: 84 18        	sty	$18                     ; 0x2018 <printf+0x9cf>
     3ca: a5 13        	lda	$13                     ; 0x2013 <printf+0x9ca>
     3cc: 69 00        	adc	#$0
     3ce: 85 15        	sta	$15                     ; 0x2015 <printf+0x9cc>
     3d0: a5 16        	lda	$16                     ; 0x2016 <printf+0x9cd>
     3d2: 84 17        	sty	$17                     ; 0x2017 <printf+0x9ce>
     3d4: a0 02        	ldy	#$2
     3d6: 91 12        	sta	($12),y                 ; 0x2012 <printf+0x9c9>
     3d8: 85 19        	sta	$19                     ; 0x2019 <printf+0x9d0>
     3da: 88           	dey
     3db: a5 18        	lda	$18                     ; 0x2018 <printf+0x9cf>
     3dd: 91 14        	sta	($14),y                 ; 0x2014 <printf+0x9cb>
     3df: 18           	clc
     3e0: a5 19        	lda	$19                     ; 0x2019 <printf+0x9d0>
     3e2: 69 04        	adc	#$4
     3e4: a8           	tay
     3e5: a5 18        	lda	$18                     ; 0x2018 <printf+0x9cf>
     3e7: 69 00        	adc	#$0
     3e9: 85 19        	sta	$19                     ; 0x2019 <printf+0x9d0>
     3eb: 84 18        	sty	$18                     ; 0x2018 <printf+0x9cf>
     3ed: 8a           	txa
     3ee: 18           	clc
     3ef: 69 04        	adc	#$4
     3f1: 85 1a        	sta	$1a                     ; 0x201a <printf+0x9d1>
     3f3: a5 13        	lda	$13                     ; 0x2013 <printf+0x9ca>
     3f5: 69 00        	adc	#$0
     3f7: 85 1b        	sta	$1b                     ; 0x201b <printf+0x9d2>
     3f9: a0 04        	ldy	#$4
     3fb: b1 16        	lda	($16),y                 ; 0x2016 <printf+0x9cd>
     3fd: 85 16        	sta	$16                     ; 0x2016 <printf+0x9cd>
     3ff: 85 1d        	sta	$1d                     ; 0x201d <printf+0x9d4>
     401: a0 01        	ldy	#$1
     403: b1 18        	lda	($18),y                 ; 0x2018 <printf+0x9cf>
     405: 85 17        	sta	$17                     ; 0x2017 <printf+0x9ce>
     407: 85 19        	sta	$19                     ; 0x2019 <printf+0x9d0>
     409: a0 04        	ldy	#$4
     40b: a5 1d        	lda	$1d                     ; 0x201d <printf+0x9d4>
     40d: 91 12        	sta	($12),y                 ; 0x2012 <printf+0x9c9>
     40f: a5 19        	lda	$19                     ; 0x2019 <printf+0x9d0>
     411: a0 01        	ldy	#$1
     413: 91 1a        	sta	($1a),y                 ; 0x201a <printf+0x9d1>
     415: 18           	clc
     416: a5 1d        	lda	$1d                     ; 0x201d <printf+0x9d4>
     418: 69 02        	adc	#$2
     41a: 85 18        	sta	$18                     ; 0x2018 <printf+0x9cf>
     41c: a5 19        	lda	$19                     ; 0x2019 <printf+0x9d0>
     41e: 69 00        	adc	#$0
     420: 85 19        	sta	$19                     ; 0x2019 <printf+0x9d0>
     422: 8a           	txa
     423: c8           	iny
     424: 91 16        	sta	($16),y                 ; 0x2016 <printf+0x9cd>
     426: a5 13        	lda	$13                     ; 0x2013 <printf+0x9ca>
     428: 88           	dey
     429: 91 18        	sta	($18),y                 ; 0x2018 <printf+0x9cf>
     42b: c8           	iny
     42c: b1 12        	lda	($12),y                 ; 0x2012 <printf+0x9c9>
     42e: 85 16        	sta	$16                     ; 0x2016 <printf+0x9cd>
     430: 85 18        	sta	$18                     ; 0x2018 <printf+0x9cf>
     432: 88           	dey
     433: b1 14        	lda	($14),y                 ; 0x2014 <printf+0x9cb>
     435: 85 17        	sta	$17                     ; 0x2017 <printf+0x9ce>
     437: 85 14        	sta	$14                     ; 0x2014 <printf+0x9cb>
     439: 8a           	txa
     43a: a0 04        	ldy	#$4
     43c: 91 16        	sta	($16),y                 ; 0x2016 <printf+0x9cd>
     43e: 18           	clc
     43f: a5 18        	lda	$18                     ; 0x2018 <printf+0x9cf>
     441: 69 04        	adc	#$4
     443: a8           	tay
     444: a5 14        	lda	$14                     ; 0x2014 <printf+0x9cb>
     446: 69 00        	adc	#$0
     448: 84 14        	sty	$14                     ; 0x2014 <printf+0x9cb>
     44a: 85 15        	sta	$15                     ; 0x2015 <printf+0x9cc>
     44c: a5 13        	lda	$13                     ; 0x2013 <printf+0x9ca>
     44e: a0 01        	ldy	#$1
     450: 91 14        	sta	($14),y                 ; 0x2014 <printf+0x9cb>
     452: 60           	rts

00000453 <__zero_bss>:
     453: a2 11        	ldx	#$11
     455: a0 00        	ldy	#$0
     457: a9 f2        	lda	#$f2
     459: 85 12        	sta	$12                     ; 0x2012 <printf+0x9c9>
     45b: a9 27        	lda	#$27
     45d: 85 13        	sta	$13                     ; 0x2013 <printf+0x9ca>
     45f: a9 00        	lda	#$0
     461: 84 14        	sty	$14                     ; 0x2014 <printf+0x9cb>
     463: 4c eb 26     	jmp	$26eb <__memset>

00000466 <__zero_zp_bss>:
     466: a2 0c        	ldx	#$c
     468: a0 00        	ldy	#$0
     46a: a9 30        	lda	#$30
     46c: 85 12        	sta	$12                     ; 0x2012 <printf+0x9c9>
     46e: a9 00        	lda	#$0
     470: 85 13        	sta	$13                     ; 0x2013 <printf+0x9ca>
     472: a9 00        	lda	#$0
     474: 84 14        	sty	$14                     ; 0x2014 <printf+0x9cb>
     476: 4c eb 26     	jmp	$26eb <__memset>

00000479 <f256Init>:
     479: 64 1c        	stz	$1c                     ; 0x201c <printf+0x9d3>
     47b: a2 00        	ldx	#$0
     47d: 86 1a        	stx	$1a                     ; 0x201a <printf+0x9d1>
     47f: a2 d0        	ldx	#$d0
     481: 86 1b        	stx	$1b                     ; 0x201b <printf+0x9d2>
     483: a2 00        	ldx	#$0
     485: 86 16        	stx	$16                     ; 0x2016 <printf+0x9cd>
     487: a2 d8        	ldx	#$d8
     489: 86 17        	stx	$17                     ; 0x2017 <printf+0x9ce>
     48b: a2 00        	ldx	#$0
     48d: 86 18        	stx	$18                     ; 0x2018 <printf+0x9cf>
     48f: a2 d4        	ldx	#$d4
     491: 86 19        	stx	$19                     ; 0x2019 <printf+0x9d0>
     493: a2 00        	ldx	#$0
     495: 86 14        	stx	$14                     ; 0x2014 <printf+0x9cb>
     497: a2 dc        	ldx	#$dc
     499: 86 15        	stx	$15                     ; 0x2015 <printf+0x9cc>
     49b: a2 00        	ldx	#$0
     49d: 86 12        	stx	$12                     ; 0x2012 <printf+0x9c9>
     49f: a2 c0        	ldx	#$c0
     4a1: 86 13        	stx	$13                     ; 0x2013 <printf+0x9ca>
     4a3: 64 01        	stz	$1                      ; 0x2001 <printf+0x9b8>
     4a5: a2 3f        	ldx	#$3f
     4a7: 8e 00 d0     	stx	$d000                   ; 0xd000 <__heap_start+0xa7fc>
     4aa: a2 b3        	ldx	#$b3
     4ac: 86 00        	stx	$0                      ; 0x2000 <printf+0x9b7>
     4ae: 64 08        	stz	$8                      ; 0x2008 <printf+0x9bf>
     4b0: a2 01        	ldx	#$1
     4b2: 86 09        	stx	$9                      ; 0x2009 <printf+0x9c0>
     4b4: e8           	inx
     4b5: 86 0a        	stx	$a                      ; 0x200a <printf+0x9c1>
     4b7: e8           	inx
     4b8: 86 0b        	stx	$b                      ; 0x200b <printf+0x9c2>
     4ba: e8           	inx
     4bb: 86 0c        	stx	$c                      ; 0x200c <printf+0x9c3>
     4bd: e8           	inx
     4be: 86 0d        	stx	$d                      ; 0x200d <printf+0x9c4>
     4c0: a2 35        	ldx	#$35
     4c2: a9 00        	lda	#$0
     4c4: 86 f0        	stx	$f0                     ; 0x20f0 <printf+0xaa7>
     4c6: 85 f1        	sta	$f1                     ; 0x20f1 <printf+0xaa8>
     4c8: a6 01        	ldx	$1                      ; 0x2001 <printf+0x9b8>
     4ca: a0 01        	ldy	#$1
     4cc: 84 01        	sty	$1                      ; 0x2001 <printf+0x9b8>
     4ce: a5 1c        	lda	$1c                     ; 0x201c <printf+0x9d3>
     4d0: 92 1a        	sta	($1a)                   ; 0x201a <printf+0x9d1>
     4d2: 91 1a        	sta	($1a),y                 ; 0x201a <printf+0x9d1>
     4d4: c8           	iny
     4d5: 91 1a        	sta	($1a),y                 ; 0x201a <printf+0x9d1>
     4d7: c8           	iny
     4d8: a9 ff        	lda	#$ff
     4da: 91 1a        	sta	($1a),y                 ; 0x201a <printf+0x9d1>
     4dc: 86 01        	stx	$1                      ; 0x2001 <printf+0x9b8>
     4de: a5 1a        	lda	$1a                     ; 0x201a <printf+0x9d1>
     4e0: 18           	clc
     4e1: 69 04        	adc	#$4
     4e3: 85 1a        	sta	$1a                     ; 0x201a <printf+0x9d1>
     4e5: a5 1b        	lda	$1b                     ; 0x201b <printf+0x9d2>
     4e7: 69 00        	adc	#$0
     4e9: e6 1c        	inc	$1c                     ; 0x201c <printf+0x9d3>
     4eb: 85 1b        	sta	$1b                     ; 0x201b <printf+0x9d2>
     4ed: d0 d9        	bne	$4c8 <f256Init+0x4f>
     4ef: a9 00        	lda	#$0
     4f1: a6 01        	ldx	$1                      ; 0x2001 <printf+0x9b8>
     4f3: a0 01        	ldy	#$1
     4f5: 84 01        	sty	$1                      ; 0x2001 <printf+0x9b8>
     4f7: 92 18        	sta	($18)                   ; 0x2018 <printf+0x9cf>
     4f9: 91 18        	sta	($18),y                 ; 0x2018 <printf+0x9cf>
     4fb: c8           	iny
     4fc: 91 18        	sta	($18),y                 ; 0x2018 <printf+0x9cf>
     4fe: c8           	iny
     4ff: 85 1a        	sta	$1a                     ; 0x201a <printf+0x9d1>
     501: a9 ff        	lda	#$ff
     503: 91 18        	sta	($18),y                 ; 0x2018 <printf+0x9cf>
     505: 86 01        	stx	$1                      ; 0x2001 <printf+0x9b8>
     507: a5 18        	lda	$18                     ; 0x2018 <printf+0x9cf>
     509: 18           	clc
     50a: 69 04        	adc	#$4
     50c: 85 18        	sta	$18                     ; 0x2018 <printf+0x9cf>
     50e: a5 19        	lda	$19                     ; 0x2019 <printf+0x9d0>
     510: 69 00        	adc	#$0
     512: e6 1a        	inc	$1a                     ; 0x201a <printf+0x9d1>
     514: 85 19        	sta	$19                     ; 0x2019 <printf+0x9d0>
     516: a5 1a        	lda	$1a                     ; 0x201a <printf+0x9d1>
     518: d0 d7        	bne	$4f1 <f256Init+0x78>
     51a: a9 00        	lda	#$0
     51c: a6 01        	ldx	$1                      ; 0x2001 <printf+0x9b8>
     51e: a0 01        	ldy	#$1
     520: 84 01        	sty	$1                      ; 0x2001 <printf+0x9b8>
     522: 92 16        	sta	($16)                   ; 0x2016 <printf+0x9cd>
     524: 91 16        	sta	($16),y                 ; 0x2016 <printf+0x9cd>
     526: c8           	iny
     527: 91 16        	sta	($16),y                 ; 0x2016 <printf+0x9cd>
     529: c8           	iny
     52a: 85 18        	sta	$18                     ; 0x2018 <printf+0x9cf>
     52c: a9 ff        	lda	#$ff
     52e: 91 16        	sta	($16),y                 ; 0x2016 <printf+0x9cd>
     530: 86 01        	stx	$1                      ; 0x2001 <printf+0x9b8>
     532: a5 16        	lda	$16                     ; 0x2016 <printf+0x9cd>
     534: 18           	clc
     535: 69 04        	adc	#$4
     537: 85 16        	sta	$16                     ; 0x2016 <printf+0x9cd>
     539: a5 17        	lda	$17                     ; 0x2017 <printf+0x9ce>
     53b: 69 00        	adc	#$0
     53d: e6 18        	inc	$18                     ; 0x2018 <printf+0x9cf>
     53f: 85 17        	sta	$17                     ; 0x2017 <printf+0x9ce>
     541: a5 18        	lda	$18                     ; 0x2018 <printf+0x9cf>
     543: d0 d7        	bne	$51c <f256Init+0xa3>
     545: a9 00        	lda	#$0
     547: a6 01        	ldx	$1                      ; 0x2001 <printf+0x9b8>
     549: a0 01        	ldy	#$1
     54b: 84 01        	sty	$1                      ; 0x2001 <printf+0x9b8>
     54d: 92 14        	sta	($14)                   ; 0x2014 <printf+0x9cb>
     54f: 91 14        	sta	($14),y                 ; 0x2014 <printf+0x9cb>
     551: c8           	iny
     552: 91 14        	sta	($14),y                 ; 0x2014 <printf+0x9cb>
     554: c8           	iny
     555: 85 16        	sta	$16                     ; 0x2016 <printf+0x9cd>
     557: a9 ff        	lda	#$ff
     559: 91 14        	sta	($14),y                 ; 0x2014 <printf+0x9cb>
     55b: 86 01        	stx	$1                      ; 0x2001 <printf+0x9b8>
     55d: a5 14        	lda	$14                     ; 0x2014 <printf+0x9cb>
     55f: 18           	clc
     560: 69 04        	adc	#$4
     562: 85 14        	sta	$14                     ; 0x2014 <printf+0x9cb>
     564: a5 15        	lda	$15                     ; 0x2015 <printf+0x9cc>
     566: 69 00        	adc	#$0
     568: e6 16        	inc	$16                     ; 0x2016 <printf+0x9cd>
     56a: 85 15        	sta	$15                     ; 0x2015 <printf+0x9cc>
     56c: a5 16        	lda	$16                     ; 0x2016 <printf+0x9cd>
     56e: d0 d7        	bne	$547 <f256Init+0xce>
     570: ad 02 d0     	lda	$d002                   ; 0xd002 <__heap_start+0xa7fe>
     573: 29 f0        	and	#$f0
     575: 8d 02 d0     	sta	$d002                   ; 0xd002 <__heap_start+0xa7fe>
     578: ad 02 d0     	lda	$d002                   ; 0xd002 <__heap_start+0xa7fe>
     57b: 29 0f        	and	#$f
     57d: 09 10        	ora	#$10
     57f: 8d 02 d0     	sta	$d002                   ; 0xd002 <__heap_start+0xa7fe>
     582: a2 02        	ldx	#$2
     584: 8e 03 d0     	stx	$d003                   ; 0xd003 <__heap_start+0xa7ff>
     587: ad 01 d0     	lda	$d001                   ; 0xd001 <__heap_start+0xa7fd>
     58a: 29 f9        	and	#$f9
     58c: 09 04        	ora	#$4
     58e: 8d 01 d0     	sta	$d001                   ; 0xd001 <__heap_start+0xa7fd>
     591: 64 14        	stz	$14                     ; 0x2014 <printf+0x9cb>
     593: 9c 10 d0     	stz	$d010                   ; 0xd010 <__heap_start+0xa80c>
     596: a2 00        	ldx	#$0
     598: 64 15        	stz	$15                     ; 0x2015 <printf+0x9cc>
     59a: 86 18        	stx	$18                     ; 0x2018 <printf+0x9cf>
     59c: a4 18        	ldy	$18                     ; 0x2018 <printf+0x9cf>
     59e: be 78 27     	ldx	$2778,y                 ; 0x2778 <textColors>
     5a1: 86 19        	stx	$19                     ; 0x2019 <printf+0x9d0>
     5a3: be 79 27     	ldx	$2779,y                 ; 0x2779 <textColors+0x1>
     5a6: 86 1a        	stx	$1a                     ; 0x201a <printf+0x9d1>
     5a8: be 7a 27     	ldx	$277a,y                 ; 0x277a <textColors+0x2>
     5ab: 86 1b        	stx	$1b                     ; 0x201b <printf+0x9d2>
     5ad: a6 15        	ldx	$15                     ; 0x2015 <printf+0x9cc>
     5af: 8e 00 de     	stx	$de00                   ; 0xde00 <__heap_start+0xb5fc>
     5b2: 86 17        	stx	$17                     ; 0x2017 <printf+0x9ce>
     5b4: 9c 01 de     	stz	$de01                   ; 0xde01 <__heap_start+0xb5fd>
     5b7: a2 04        	ldx	#$4
     5b9: 8e 02 de     	stx	$de02                   ; 0xde02 <__heap_start+0xb5fe>
     5bc: 9c 03 de     	stz	$de03                   ; 0xde03 <__heap_start+0xb5ff>
     5bf: ad 10 de     	lda	$de10                   ; 0xde10 <__heap_start+0xb60c>
     5c2: ac 11 de     	ldy	$de11                   ; 0xde11 <__heap_start+0xb60d>
     5c5: 84 15        	sty	$15                     ; 0x2015 <printf+0x9cc>
     5c7: ac 12 de     	ldy	$de12                   ; 0xde12 <__heap_start+0xb60e>
     5ca: ac 13 de     	ldy	$de13                   ; 0xde13 <__heap_start+0xb60f>
     5cd: 18           	clc
     5ce: 65 14        	adc	$14                     ; 0x2014 <printf+0x9cb>
     5d0: 85 16        	sta	$16                     ; 0x2016 <printf+0x9cd>
     5d2: a6 17        	ldx	$17                     ; 0x2017 <printf+0x9ce>
     5d4: a9 d8        	lda	#$d8
     5d6: 65 15        	adc	$15                     ; 0x2015 <printf+0x9cc>
     5d8: 85 17        	sta	$17                     ; 0x2017 <printf+0x9ce>
     5da: a5 1b        	lda	$1b                     ; 0x201b <printf+0x9d2>
     5dc: 92 16        	sta	($16)                   ; 0x2016 <printf+0x9cd>
     5de: a0 01        	ldy	#$1
     5e0: a5 1a        	lda	$1a                     ; 0x201a <printf+0x9d1>
     5e2: 91 16        	sta	($16),y                 ; 0x2016 <printf+0x9cd>
     5e4: c8           	iny
     5e5: a5 19        	lda	$19                     ; 0x2019 <printf+0x9d0>
     5e7: 91 16        	sta	($16),y                 ; 0x2016 <printf+0x9cd>
     5e9: c8           	iny
     5ea: a9 ff        	lda	#$ff
     5ec: 91 16        	sta	($16),y                 ; 0x2016 <printf+0x9cd>
     5ee: 8e 00 de     	stx	$de00                   ; 0xde00 <__heap_start+0xb5fc>
     5f1: 9c 01 de     	stz	$de01                   ; 0xde01 <__heap_start+0xb5fd>
     5f4: c8           	iny
     5f5: 8c 02 de     	sty	$de02                   ; 0xde02 <__heap_start+0xb5fe>
     5f8: 9c 03 de     	stz	$de03                   ; 0xde03 <__heap_start+0xb5ff>
     5fb: ad 10 de     	lda	$de10                   ; 0xde10 <__heap_start+0xb60c>
     5fe: 85 15        	sta	$15                     ; 0x2015 <printf+0x9cc>
     600: ad 11 de     	lda	$de11                   ; 0xde11 <__heap_start+0xb60d>
     603: 85 16        	sta	$16                     ; 0x2016 <printf+0x9cd>
     605: a9 40        	lda	#$40
     607: 18           	clc
     608: 65 15        	adc	$15                     ; 0x2015 <printf+0x9cc>
     60a: a8           	tay
     60b: a9 d8        	lda	#$d8
     60d: 65 16        	adc	$16                     ; 0x2016 <printf+0x9cd>
     60f: 85 17        	sta	$17                     ; 0x2017 <printf+0x9ce>
     611: 84 16        	sty	$16                     ; 0x2016 <printf+0x9cd>
     613: ad 12 de     	lda	$de12                   ; 0xde12 <__heap_start+0xb60e>
     616: ad 13 de     	lda	$de13                   ; 0xde13 <__heap_start+0xb60f>
     619: a5 1b        	lda	$1b                     ; 0x201b <printf+0x9d2>
     61b: 92 16        	sta	($16)                   ; 0x2016 <printf+0x9cd>
     61d: a5 1a        	lda	$1a                     ; 0x201a <printf+0x9d1>
     61f: a0 01        	ldy	#$1
     621: 91 16        	sta	($16),y                 ; 0x2016 <printf+0x9cd>
     623: a5 19        	lda	$19                     ; 0x2019 <printf+0x9d0>
     625: c8           	iny
     626: 91 16        	sta	($16),y                 ; 0x2016 <printf+0x9cd>
     628: c8           	iny
     629: a9 ff        	lda	#$ff
     62b: 91 16        	sta	($16),y                 ; 0x2016 <printf+0x9cd>
     62d: e8           	inx
     62e: 86 15        	stx	$15                     ; 0x2015 <printf+0x9cc>
     630: 18           	clc
     631: a5 18        	lda	$18                     ; 0x2018 <printf+0x9cf>
     633: 69 03        	adc	#$3
     635: aa           	tax
     636: c9 30        	cmp	#$30
     638: f0 03        	beq	$63d <f256Init+0x1c4>
     63a: 4c 9a 05     	jmp	$59a <f256Init+0x121>
     63d: a6 01        	ldx	$1                      ; 0x2001 <printf+0x9b8>
     63f: 86 18        	stx	$18                     ; 0x2018 <printf+0x9cf>
     641: a2 50        	ldx	#$50
     643: 8e 00 de     	stx	$de00                   ; 0xde00 <__heap_start+0xb5fc>
     646: 9c 01 de     	stz	$de01                   ; 0xde01 <__heap_start+0xb5fd>
     649: a2 1e        	ldx	#$1e
     64b: 8e 02 de     	stx	$de02                   ; 0xde02 <__heap_start+0xb5fe>
     64e: 9c 03 de     	stz	$de03                   ; 0xde03 <__heap_start+0xb5ff>
     651: ae 10 de     	ldx	$de10                   ; 0xde10 <__heap_start+0xb60c>
     654: ac 11 de     	ldy	$de11                   ; 0xde11 <__heap_start+0xb60d>
     657: ad 12 de     	lda	$de12                   ; 0xde12 <__heap_start+0xb60e>
     65a: ad 13 de     	lda	$de13                   ; 0xde13 <__heap_start+0xb60f>
     65d: a9 02        	lda	#$2
     65f: 85 01        	sta	$1                      ; 0x2001 <printf+0x9b8>
     661: e0 01        	cpx	#$1
     663: 98           	tya
     664: e9 00        	sbc	#$0
     666: 50 02        	bvc	$66a <f256Init+0x1f1>
     668: 49 80        	eor	#$80
     66a: c9 00        	cmp	#$0
     66c: 10 03        	bpl	$671 <f256Init+0x1f8>
     66e: 4c c8 06     	jmp	$6c8 <f256Init+0x24f>
     671: a9 20        	lda	#$20
     673: 86 19        	stx	$19                     ; 0x2019 <printf+0x9d0>
     675: 86 14        	stx	$14                     ; 0x2014 <printf+0x9cb>
     677: 84 15        	sty	$15                     ; 0x2015 <printf+0x9cc>
     679: a2 00        	ldx	#$0
     67b: 86 16        	stx	$16                     ; 0x2016 <printf+0x9cd>
     67d: a2 c0        	ldx	#$c0
     67f: 86 17        	stx	$17                     ; 0x2017 <printf+0x9ce>
     681: 80 04        	bra	$687 <f256Init+0x20e>
     683: a6 15        	ldx	$15                     ; 0x2015 <printf+0x9cc>
     685: f0 14        	beq	$69b <f256Init+0x222>
     687: 92 16        	sta	($16)                   ; 0x2016 <printf+0x9cd>
     689: e6 16        	inc	$16                     ; 0x2016 <printf+0x9cd>
     68b: d0 02        	bne	$68f <f256Init+0x216>
     68d: e6 17        	inc	$17                     ; 0x2017 <printf+0x9ce>
     68f: a2 ff        	ldx	#$ff
     691: c6 14        	dec	$14                     ; 0x2014 <printf+0x9cb>
     693: e4 14        	cpx	$14                     ; 0x2014 <printf+0x9cb>
     695: d0 ec        	bne	$683 <f256Init+0x20a>
     697: c6 15        	dec	$15                     ; 0x2015 <printf+0x9cc>
     699: 80 e8        	bra	$683 <f256Init+0x20a>
     69b: a6 14        	ldx	$14                     ; 0x2014 <printf+0x9cb>
     69d: d0 e8        	bne	$687 <f256Init+0x20e>
     69f: a2 03        	ldx	#$3
     6a1: 86 01        	stx	$1                      ; 0x2001 <printf+0x9b8>
     6a3: a6 19        	ldx	$19                     ; 0x2019 <printf+0x9d0>
     6a5: 80 03        	bra	$6aa <f256Init+0x231>
     6a7: 98           	tya
     6a8: f0 19        	beq	$6c3 <f256Init+0x24a>
     6aa: a9 f0        	lda	#$f0
     6ac: 92 12        	sta	($12)                   ; 0x2012 <printf+0x9c9>
     6ae: e6 12        	inc	$12                     ; 0x2012 <printf+0x9c9>
     6b0: f0 07        	beq	$6b9 <f256Init+0x240>
     6b2: ca           	dex
     6b3: e0 ff        	cpx	#$ff
     6b5: d0 f0        	bne	$6a7 <f256Init+0x22e>
     6b7: 80 07        	bra	$6c0 <f256Init+0x247>
     6b9: e6 13        	inc	$13                     ; 0x2013 <printf+0x9ca>
     6bb: ca           	dex
     6bc: e0 ff        	cpx	#$ff
     6be: d0 e7        	bne	$6a7 <f256Init+0x22e>
     6c0: 88           	dey
     6c1: 80 e4        	bra	$6a7 <f256Init+0x22e>
     6c3: 8a           	txa
     6c4: d0 e4        	bne	$6aa <f256Init+0x231>
     6c6: 80 04        	bra	$6cc <f256Init+0x253>
     6c8: a2 03        	ldx	#$3
     6ca: 86 01        	stx	$1                      ; 0x2001 <printf+0x9b8>
     6cc: a6 18        	ldx	$18                     ; 0x2018 <printf+0x9cf>
     6ce: 86 01        	stx	$1                      ; 0x2001 <printf+0x9b8>
     6d0: 64 30        	stz	$30                     ; 0x2030 <printf+0x9e7>
     6d2: 9c 14 d0     	stz	$d014                   ; 0xd014 <__heap_start+0xa810>
     6d5: 9c 15 d0     	stz	$d015                   ; 0xd015 <__heap_start+0xa811>
     6d8: 64 31        	stz	$31                     ; 0x2031 <printf+0x9e8>
     6da: 9c 16 d0     	stz	$d016                   ; 0xd016 <__heap_start+0xa812>
     6dd: 9c 17 d0     	stz	$d017                   ; 0xd017 <__heap_start+0xa813>
     6e0: a2 40        	ldx	#$40
     6e2: 8e 00 de     	stx	$de00                   ; 0xde00 <__heap_start+0xb5fc>
     6e5: a2 01        	ldx	#$1
     6e7: 8e 01 de     	stx	$de01                   ; 0xde01 <__heap_start+0xb5fd>
     6ea: a2 f0        	ldx	#$f0
     6ec: 8e 02 de     	stx	$de02                   ; 0xde02 <__heap_start+0xb5fe>
     6ef: 9c 03 de     	stz	$de03                   ; 0xde03 <__heap_start+0xb5ff>
     6f2: ae 10 de     	ldx	$de10                   ; 0xde10 <__heap_start+0xb60c>
     6f5: 86 17        	stx	$17                     ; 0x2017 <printf+0x9ce>
     6f7: ae 11 de     	ldx	$de11                   ; 0xde11 <__heap_start+0xb60d>
     6fa: 86 12        	stx	$12                     ; 0x2012 <printf+0x9c9>
     6fc: ae 12 de     	ldx	$de12                   ; 0xde12 <__heap_start+0xb60e>
     6ff: 86 13        	stx	$13                     ; 0x2013 <printf+0x9ca>
     701: ae 13 de     	ldx	$de13                   ; 0xde13 <__heap_start+0xb60f>
     704: 86 14        	stx	$14                     ; 0x2014 <printf+0x9cb>
     706: a4 12        	ldy	$12                     ; 0x2012 <printf+0x9c9>
     708: 84 15        	sty	$15                     ; 0x2015 <printf+0x9cc>
     70a: 06 15        	asl	$15                     ; 0x2015 <printf+0x9cc>
     70c: a5 13        	lda	$13                     ; 0x2013 <printf+0x9ca>
     70e: 2a           	rol
     70f: 86 16        	stx	$16                     ; 0x2016 <printf+0x9cd>
     711: 26 16        	rol	$16                     ; 0x2016 <printf+0x9cd>
     713: 06 15        	asl	$15                     ; 0x2015 <printf+0x9cc>
     715: 2a           	rol
     716: 26 16        	rol	$16                     ; 0x2016 <printf+0x9cd>
     718: 06 15        	asl	$15                     ; 0x2015 <printf+0x9cc>
     71a: 2a           	rol
     71b: 26 16        	rol	$16                     ; 0x2016 <printf+0x9cd>
     71d: 85 15        	sta	$15                     ; 0x2015 <printf+0x9cc>
     71f: 8d 00 de     	sta	$de00                   ; 0xde00 <__heap_start+0xb5fc>
     722: a5 16        	lda	$16                     ; 0x2016 <printf+0x9cd>
     724: 8d 01 de     	sta	$de01                   ; 0xde01 <__heap_start+0xb5fd>
     727: 9c 02 de     	stz	$de02                   ; 0xde02 <__heap_start+0xb5fe>
     72a: a2 20        	ldx	#$20
     72c: 8e 03 de     	stx	$de03                   ; 0xde03 <__heap_start+0xb5ff>
     72f: ae 10 de     	ldx	$de10                   ; 0xde10 <__heap_start+0xb60c>
     732: 86 16        	stx	$16                     ; 0x2016 <printf+0x9cd>
     734: ae 11 de     	ldx	$de11                   ; 0xde11 <__heap_start+0xb60d>
     737: 86 18        	stx	$18                     ; 0x2018 <printf+0x9cf>
     739: ac 12 de     	ldy	$de12                   ; 0xde12 <__heap_start+0xb60e>
     73c: ae 13 de     	ldx	$de13                   ; 0xde13 <__heap_start+0xb60f>
     73f: e4 14        	cpx	$14                     ; 0x2014 <printf+0x9cb>
     741: d0 14        	bne	$757 <f256Init+0x2de>
     743: c4 13        	cpy	$13                     ; 0x2013 <printf+0x9ca>
     745: d0 10        	bne	$757 <f256Init+0x2de>
     747: a6 18        	ldx	$18                     ; 0x2018 <printf+0x9cf>
     749: e4 12        	cpx	$12                     ; 0x2012 <printf+0x9c9>
     74b: d0 0a        	bne	$757 <f256Init+0x2de>
     74d: a6 16        	ldx	$16                     ; 0x2016 <printf+0x9cd>
     74f: e4 17        	cpx	$17                     ; 0x2017 <printf+0x9ce>
     751: d0 04        	bne	$757 <f256Init+0x2de>
     753: a6 15        	ldx	$15                     ; 0x2015 <printf+0x9cc>
     755: 80 06        	bra	$75d <f256Init+0x2e4>
     757: a6 15        	ldx	$15                     ; 0x2015 <printf+0x9cc>
     759: e8           	inx
     75a: d0 01        	bne	$75d <f256Init+0x2e4>
     75c: 1a           	inc
     75d: 8e 00 de     	stx	$de00                   ; 0xde00 <__heap_start+0xb5fc>
     760: 8d 01 de     	sta	$de01                   ; 0xde01 <__heap_start+0xb5fd>
     763: 9c 02 de     	stz	$de02                   ; 0xde02 <__heap_start+0xb5fe>
     766: a2 20        	ldx	#$20
     768: 8e 03 de     	stx	$de03                   ; 0xde03 <__heap_start+0xb5ff>
     76b: ae 10 de     	ldx	$de10                   ; 0xde10 <__heap_start+0xb60c>
     76e: 86 12        	stx	$12                     ; 0x2012 <printf+0x9c9>
     770: ae 11 de     	ldx	$de11                   ; 0xde11 <__heap_start+0xb60d>
     773: 86 13        	stx	$13                     ; 0x2013 <printf+0x9ca>
     775: ae 12 de     	ldx	$de12                   ; 0xde12 <__heap_start+0xb60e>
     778: 86 14        	stx	$14                     ; 0x2014 <printf+0x9cb>
     77a: ae 13 de     	ldx	$de13                   ; 0xde13 <__heap_start+0xb60f>
     77d: 86 15        	stx	$15                     ; 0x2015 <printf+0x9cc>
     77f: 38           	sec
     780: a9 00        	lda	#$0
     782: e5 12        	sbc	$12                     ; 0x2012 <printf+0x9c9>
     784: 85 19        	sta	$19                     ; 0x2019 <printf+0x9d0>
     786: a9 00        	lda	#$0
     788: e5 13        	sbc	$13                     ; 0x2013 <printf+0x9ca>
     78a: aa           	tax
     78b: a9 08        	lda	#$8
     78d: e5 14        	sbc	$14                     ; 0x2014 <printf+0x9cb>
     78f: 85 16        	sta	$16                     ; 0x2016 <printf+0x9cd>
     791: a9 00        	lda	#$0
     793: e5 15        	sbc	$15                     ; 0x2015 <printf+0x9cc>
     795: 8e f3 27     	stx	$27f3                   ; 0x27f3 <__bss_start+0x1>
     798: a4 16        	ldy	$16                     ; 0x2016 <printf+0x9cd>
     79a: 8c f4 27     	sty	$27f4                   ; 0x27f4 <__bss_start+0x2>
     79d: 8d f5 27     	sta	$27f5                   ; 0x27f5 <__bss_start+0x3>
     7a0: a8           	tay
     7a1: 38           	sec
     7a2: a5 19        	lda	$19                     ; 0x2019 <printf+0x9d0>
     7a4: e5 12        	sbc	$12                     ; 0x2012 <printf+0x9c9>
     7a6: 85 18        	sta	$18                     ; 0x2018 <printf+0x9cf>
     7a8: 8a           	txa
     7a9: e5 13        	sbc	$13                     ; 0x2013 <printf+0x9ca>
     7ab: 85 1a        	sta	$1a                     ; 0x201a <printf+0x9d1>
     7ad: a5 16        	lda	$16                     ; 0x2016 <printf+0x9cd>
     7af: e5 14        	sbc	$14                     ; 0x2014 <printf+0x9cb>
     7b1: 85 16        	sta	$16                     ; 0x2016 <printf+0x9cd>
     7b3: 98           	tya
     7b4: e5 15        	sbc	$15                     ; 0x2015 <printf+0x9cc>
     7b6: 85 17        	sta	$17                     ; 0x2017 <printf+0x9ce>
     7b8: 38           	sec
     7b9: a4 18        	ldy	$18                     ; 0x2018 <printf+0x9cf>
     7bb: 8c f6 27     	sty	$27f6                   ; 0x27f6 <_BITMAP_BASE.1>
     7be: a6 1a        	ldx	$1a                     ; 0x201a <printf+0x9d1>
     7c0: 8e f7 27     	stx	$27f7                   ; 0x27f7 <_BITMAP_BASE.1+0x1>
     7c3: a4 16        	ldy	$16                     ; 0x2016 <printf+0x9cd>
     7c5: 8c f8 27     	sty	$27f8                   ; 0x27f8 <_BITMAP_BASE.1+0x2>
     7c8: 8d f9 27     	sta	$27f9                   ; 0x27f9 <_BITMAP_BASE.1+0x3>
     7cb: a5 18        	lda	$18                     ; 0x2018 <printf+0x9cf>
     7cd: e5 12        	sbc	$12                     ; 0x2012 <printf+0x9c9>
     7cf: 85 18        	sta	$18                     ; 0x2018 <printf+0x9cf>
     7d1: a5 1a        	lda	$1a                     ; 0x201a <printf+0x9d1>
     7d3: e5 13        	sbc	$13                     ; 0x2013 <printf+0x9ca>
     7d5: a8           	tay
     7d6: a5 16        	lda	$16                     ; 0x2016 <printf+0x9cd>
     7d8: e5 14        	sbc	$14                     ; 0x2014 <printf+0x9cb>
     7da: 85 12        	sta	$12                     ; 0x2012 <printf+0x9c9>
     7dc: a5 17        	lda	$17                     ; 0x2017 <printf+0x9ce>
     7de: e5 15        	sbc	$15                     ; 0x2015 <printf+0x9cc>
     7e0: a6 18        	ldx	$18                     ; 0x2018 <printf+0x9cf>
     7e2: 8e fa 27     	stx	$27fa                   ; 0x27fa <_BITMAP_BASE.2>
     7e5: 8c fb 27     	sty	$27fb                   ; 0x27fb <_BITMAP_BASE.2+0x1>
     7e8: a6 19        	ldx	$19                     ; 0x2019 <printf+0x9d0>
     7ea: 8e f2 27     	stx	$27f2                   ; 0x27f2 <__bss_start>
     7ed: a4 12        	ldy	$12                     ; 0x2012 <printf+0x9c9>
     7ef: 8c fc 27     	sty	$27fc                   ; 0x27fc <_BITMAP_BASE.2+0x2>
     7f2: 8d fd 27     	sta	$27fd                   ; 0x27fd <_BITMAP_BASE.2+0x3>
     7f5: 8e 01 d1     	stx	$d101                   ; 0xd101 <__heap_start+0xa8fd>
     7f8: ae f3 27     	ldx	$27f3                   ; 0x27f3 <__bss_start+0x1>
     7fb: 8e 02 d1     	stx	$d102                   ; 0xd102 <__heap_start+0xa8fe>
     7fe: ae f4 27     	ldx	$27f4                   ; 0x27f4 <__bss_start+0x2>
     801: 8e 03 d1     	stx	$d103                   ; 0xd103 <__heap_start+0xa8ff>
     804: ae f6 27     	ldx	$27f6                   ; 0x27f6 <_BITMAP_BASE.1>
     807: 8e 09 d1     	stx	$d109                   ; 0xd109 <__heap_start+0xa905>
     80a: ae f7 27     	ldx	$27f7                   ; 0x27f7 <_BITMAP_BASE.1+0x1>
     80d: 8e 0a d1     	stx	$d10a                   ; 0xd10a <__heap_start+0xa906>
     810: ae f8 27     	ldx	$27f8                   ; 0x27f8 <_BITMAP_BASE.1+0x2>
     813: 8e 0b d1     	stx	$d10b                   ; 0xd10b <__heap_start+0xa907>
     816: ae fa 27     	ldx	$27fa                   ; 0x27fa <_BITMAP_BASE.2>
     819: 8e 11 d1     	stx	$d111                   ; 0xd111 <__heap_start+0xa90d>
     81c: ae fb 27     	ldx	$27fb                   ; 0x27fb <_BITMAP_BASE.2+0x1>
     81f: 8e 12 d1     	stx	$d112                   ; 0xd112 <__heap_start+0xa90e>
     822: ae fc 27     	ldx	$27fc                   ; 0x27fc <_BITMAP_BASE.2+0x2>
     825: 8e 13 d1     	stx	$d113                   ; 0xd113 <__heap_start+0xa90f>
     828: 9c 00 d1     	stz	$d100                   ; 0xd100 <__heap_start+0xa8fc>
     82b: 9c 08 d1     	stz	$d108                   ; 0xd108 <__heap_start+0xa904>
     82e: 9c 10 d1     	stz	$d110                   ; 0xd110 <__heap_start+0xa90c>
     831: a2 10        	ldx	#$10
     833: 8e 00 d2     	stx	$d200                   ; 0xd200 <__heap_start+0xa9fc>
     836: 8e 0c d2     	stx	$d20c                   ; 0xd20c <__heap_start+0xaa08>
     839: 8e 18 d2     	stx	$d218                   ; 0xd218 <__heap_start+0xaa14>
     83c: a0 d9        	ldy	#$d9
     83e: a2 40        	ldx	#$40
     840: 64 12        	stz	$12                     ; 0x2012 <printf+0x9c9>
     842: 84 13        	sty	$13                     ; 0x2013 <printf+0x9ca>
     844: a9 00        	lda	#$0
     846: 92 12        	sta	($12)                   ; 0x2012 <printf+0x9c9>
     848: ca           	dex
     849: 18           	clc
     84a: a5 12        	lda	$12                     ; 0x2012 <printf+0x9c9>
     84c: 69 08        	adc	#$8
     84e: 85 12        	sta	$12                     ; 0x2012 <printf+0x9c9>
     850: 98           	tya
     851: 69 00        	adc	#$0
     853: a8           	tay
     854: 8a           	txa
     855: d0 eb        	bne	$842 <f256Init+0x3c9>
     857: a2 3c        	ldx	#$3c
     859: a0 00        	ldy	#$0
     85b: 86 fb        	stx	$fb                     ; 0x20fb <printf+0xab2>
     85d: 84 fc        	sty	$fc                     ; 0x20fc <printf+0xab3>
     85f: a2 08        	ldx	#$8
     861: 86 fd        	stx	$fd                     ; 0x20fd <printf+0xab4>
     863: a2 44        	ldx	#$44
     865: a0 00        	ldy	#$0
     867: 86 12        	stx	$12                     ; 0x2012 <printf+0x9c9>
     869: 84 13        	sty	$13                     ; 0x2013 <printf+0x9ca>
     86b: a2 34        	ldx	#$34
     86d: 86 14        	stx	$14                     ; 0x2014 <printf+0x9cb>
     86f: a2 00        	ldx	#$0
     871: 86 15        	stx	$15                     ; 0x2015 <printf+0x9cc>
     873: 20 dc ff     	jsr	$ffdc <__heap_start+0xd7d8>
     876: 92 12        	sta	($12)                   ; 0x2012 <printf+0x9c9>
     878: a9 00        	lda	#$0
     87a: 6a           	ror
     87b: 85 14        	sta	$14                     ; 0x2014 <printf+0x9cb>
     87d: a6 42        	ldx	$42                     ; 0x2042 <printf+0x9f9>
     87f: a4 43        	ldy	$43                     ; 0x2043 <printf+0x9fa>
     881: 8e 00 de     	stx	$de00                   ; 0xde00 <__heap_start+0xb5fc>
     884: 9c 01 de     	stz	$de01                   ; 0xde01 <__heap_start+0xb5fd>
     887: 8c 02 de     	sty	$de02                   ; 0xde02 <__heap_start+0xb5fe>
     88a: 9c 03 de     	stz	$de03                   ; 0xde03 <__heap_start+0xb5ff>
     88d: ae 10 de     	ldx	$de10                   ; 0xde10 <__heap_start+0xb60c>
     890: ac 11 de     	ldy	$de11                   ; 0xde11 <__heap_start+0xb60d>
     893: ad 12 de     	lda	$de12                   ; 0xde12 <__heap_start+0xb60e>
     896: ad 13 de     	lda	$de13                   ; 0xde13 <__heap_start+0xb60f>
     899: 8e a4 d6     	stx	$d6a4                   ; 0xd6a4 <__heap_start+0xaea0>
     89c: 8c a5 d6     	sty	$d6a5                   ; 0xd6a5 <__heap_start+0xaea1>
     89f: a2 03        	ldx	#$3
     8a1: 8e a6 d6     	stx	$d6a6                   ; 0xd6a6 <__heap_start+0xaea2>
     8a4: 60           	rts

000008a5 <main>:
     8a5: 20 79 04     	jsr	$479 <f256Init>
     8a8: 20 ab 08     	jsr	$8ab <f256main>

000008ab <f256main>:
     8ab: 18           	clc
     8ac: a5 10        	lda	$10                     ; 0x2010 <printf+0x9c7>
     8ae: 69 f8        	adc	#$f8
     8b0: 85 10        	sta	$10                     ; 0x2010 <printf+0x9c7>
     8b2: a5 11        	lda	$11                     ; 0x2011 <printf+0x9c8>
     8b4: 69 ff        	adc	#$ff
     8b6: 85 11        	sta	$11                     ; 0x2011 <printf+0x9c8>
     8b8: a2 00        	ldx	#$0
     8ba: 64 01        	stz	$1                      ; 0x2001 <printf+0x9b8>
     8bc: a0 0f        	ldy	#$f
     8be: 8c 00 d0     	sty	$d000                   ; 0xd000 <__heap_start+0xa7fc>
     8c1: c8           	iny
     8c2: 8c 01 d0     	sty	$d001                   ; 0xd001 <__heap_start+0xa7fd>
     8c5: 64 41        	stz	$41                     ; 0x2041 <printf+0x9f8>
     8c7: 64 42        	stz	$42                     ; 0x2042 <printf+0x9f9>
     8c9: 64 43        	stz	$43                     ; 0x2043 <printf+0x9fa>
     8cb: 64 44        	stz	$44                     ; 0x2044 <printf+0x9fb>
     8cd: 64 45        	stz	$45                     ; 0x2045 <printf+0x9fc>
     8cf: 64 46        	stz	$46                     ; 0x2046 <printf+0x9fd>
     8d1: 64 47        	stz	$47                     ; 0x2047 <printf+0x9fe>
     8d3: 64 48        	stz	$48                     ; 0x2048 <printf+0x9ff>
     8d5: a0 f0        	ldy	#$f0
     8d7: 84 12        	sty	$12                     ; 0x2012 <printf+0x9c9>
     8d9: a0 27        	ldy	#$27
     8db: 84 13        	sty	$13                     ; 0x2013 <printf+0x9ca>
     8dd: 80 0a        	bra	$8e9 <f256main+0x3e>
     8df: a0 02        	ldy	#$2
     8e1: e6 12        	inc	$12                     ; 0x2012 <printf+0x9c9>
     8e3: d0 02        	bne	$8e7 <f256main+0x3c>
     8e5: e6 13        	inc	$13                     ; 0x2013 <printf+0x9ca>
     8e7: 5a           	phy
     8e8: fa           	plx
     8e9: b2 12        	lda	($12)                   ; 0x2012 <printf+0x9c9>
     8eb: c9 61        	cmp	#$61
     8ed: f0 f0        	beq	$8df <f256main+0x34>
     8ef: a0 01        	ldy	#$1
     8f1: c9 77        	cmp	#$77
     8f3: f0 05        	beq	$8fa <f256main+0x4f>
     8f5: a8           	tay
     8f6: f0 08        	beq	$900 <f256main+0x55>
     8f8: da           	phx
     8f9: 7a           	ply
     8fa: e6 12        	inc	$12                     ; 0x2012 <printf+0x9c9>
     8fc: f0 e7        	beq	$8e5 <f256main+0x3a>
     8fe: 80 e7        	bra	$8e7 <f256main+0x3c>
     900: a0 e4        	ldy	#$e4
     902: a9 27        	lda	#$27
     904: 84 fb        	sty	$fb                     ; 0x20fb <printf+0xab2>
     906: 85 fc        	sta	$fc                     ; 0x20fc <printf+0xab3>
     908: a0 0b        	ldy	#$b
     90a: 84 fd        	sty	$fd                     ; 0x20fd <printf+0xab4>
     90c: 64 f3        	stz	$f3                     ; 0x20f3 <printf+0xaaa>
     90e: 86 f5        	stx	$f5                     ; 0x20f5 <printf+0xaac>
     910: a2 3d        	ldx	#$3d
     912: a0 00        	ldy	#$0
     914: 86 12        	stx	$12                     ; 0x2012 <printf+0x9c9>
     916: 84 13        	sty	$13                     ; 0x2013 <printf+0x9ca>
     918: a2 34        	ldx	#$34
     91a: 86 24        	stx	$24                     ; 0x2024 <printf+0x9db>
     91c: a2 00        	ldx	#$0
     91e: 86 25        	stx	$25                     ; 0x2025 <printf+0x9dc>
     920: 20 5c ff     	jsr	$ff5c <__heap_start+0xd758>
     923: 92 12        	sta	($12)                   ; 0x2012 <printf+0x9c9>
     925: a9 00        	lda	#$0
     927: 6a           	ror
     928: 85 24        	sta	$24                     ; 0x2024 <printf+0x9db>
     92a: a6 34        	ldx	$34                     ; 0x2034 <printf+0x9eb>
     92c: a0 00        	ldy	#$0
     92e: 84 14        	sty	$14                     ; 0x2014 <printf+0x9cb>
     930: a0 00        	ldy	#$0
     932: 84 15        	sty	$15                     ; 0x2015 <printf+0x9cc>
     934: a4 14        	ldy	$14                     ; 0x2014 <printf+0x9cb>
     936: 84 4b        	sty	$4b                     ; 0x204b <printf+0xa02>
     938: a4 15        	ldy	$15                     ; 0x2015 <printf+0x9cc>
     93a: 84 4c        	sty	$4c                     ; 0x204c <printf+0xa03>
     93c: 8a           	txa
     93d: d0 03        	bne	$942 <f256main+0x97>
     93f: 4c b4 12     	jmp	$12b4 <f256main+0xa09>
     942: a6 4b        	ldx	$4b                     ; 0x204b <printf+0xa02>
     944: 86 14        	stx	$14                     ; 0x2014 <printf+0x9cb>
     946: a6 4c        	ldx	$4c                     ; 0x204c <printf+0xa03>
     948: 86 15        	stx	$15                     ; 0x2015 <printf+0x9cc>
     94a: b2 14        	lda	($14)                   ; 0x2014 <printf+0x9cb>
     94c: 85 f3        	sta	$f3                     ; 0x20f3 <printf+0xaaa>
     94e: a2 0a        	ldx	#$a
     950: 86 f4        	stx	$f4                     ; 0x20f4 <printf+0xaab>
     952: 64 f5        	stz	$f5                     ; 0x20f5 <printf+0xaac>
     954: 64 f6        	stz	$f6                     ; 0x20f6 <printf+0xaad>
     956: 64 f7        	stz	$f7                     ; 0x20f7 <printf+0xaae>
     958: 20 74 ff     	jsr	$ff74 <__heap_start+0xd770>
     95b: 92 12        	sta	($12)                   ; 0x2012 <printf+0x9c9>
     95d: a9 00        	lda	#$0
     95f: 6a           	ror
     960: 85 24        	sta	$24                     ; 0x2024 <printf+0x9db>
     962: a9 02        	lda	#$2
     964: a2 00        	ldx	#$0
     966: 20 15 13     	jsr	$1315 <fileRead>
     969: e0 00        	cpx	#$0
     96b: f0 03        	beq	$970 <f256main+0xc5>
     96d: 4c fc 09     	jmp	$9fc <f256main+0x151>
     970: c9 02        	cmp	#$2
     972: f0 03        	beq	$977 <f256main+0xcc>
     974: 4c fc 09     	jmp	$9fc <f256main+0x151>
     977: a6 3d        	ldx	$3d                     ; 0x203d <printf+0x9f4>
     979: a5 3e        	lda	$3e                     ; 0x203e <printf+0x9f5>
     97b: a0 15        	ldy	#$15
     97d: 64 24        	stz	$24                     ; 0x2024 <printf+0x9db>
     97f: 84 12        	sty	$12                     ; 0x2012 <printf+0x9c9>
     981: 64 13        	stz	$13                     ; 0x2013 <printf+0x9ca>
     983: 86 25        	stx	$25                     ; 0x2025 <printf+0x9dc>
     985: 85 26        	sta	$26                     ; 0x2026 <printf+0x9dd>
     987: 20 0b 27     	jsr	$270b <__mulhi3>
     98a: 20 09 24     	jsr	$2409 <malloc>
     98d: a4 26        	ldy	$26                     ; 0x2026 <printf+0x9dd>
     98f: a6 25        	ldx	$25                     ; 0x2025 <printf+0x9dc>
     991: a5 12        	lda	$12                     ; 0x2012 <printf+0x9c9>
     993: 85 28        	sta	$28                     ; 0x2028 <printf+0x9df>
     995: a5 13        	lda	$13                     ; 0x2013 <printf+0x9ca>
     997: 85 29        	sta	$29                     ; 0x2029 <printf+0x9e0>
     999: 8a           	txa
     99a: d0 06        	bne	$9a2 <f256main+0xf7>
     99c: 98           	tya
     99d: d0 03        	bne	$9a2 <f256main+0xf7>
     99f: 4c 0e 13     	jmp	$130e <f256main+0xa63>
     9a2: a5 12        	lda	$12                     ; 0x2012 <printf+0x9c9>
     9a4: 85 26        	sta	$26                     ; 0x2026 <printf+0x9dd>
     9a6: a5 13        	lda	$13                     ; 0x2013 <printf+0x9ca>
     9a8: 85 27        	sta	$27                     ; 0x2027 <printf+0x9de>
     9aa: 84 2b        	sty	$2b                     ; 0x202b <printf+0x9e2>
     9ac: 84 24        	sty	$24                     ; 0x2024 <printf+0x9db>
     9ae: 86 2a        	stx	$2a                     ; 0x202a <printf+0x9e1>
     9b0: 80 06        	bra	$9b8 <f256main+0x10d>
     9b2: 85 27        	sta	$27                     ; 0x2027 <printf+0x9de>
     9b4: a5 25        	lda	$25                     ; 0x2025 <printf+0x9dc>
     9b6: f0 32        	beq	$9ea <f256main+0x13f>
     9b8: a6 26        	ldx	$26                     ; 0x2026 <printf+0x9dd>
     9ba: 86 12        	stx	$12                     ; 0x2012 <printf+0x9c9>
     9bc: a6 27        	ldx	$27                     ; 0x2027 <printf+0x9de>
     9be: 86 13        	stx	$13                     ; 0x2013 <printf+0x9ca>
     9c0: 64 14        	stz	$14                     ; 0x2014 <printf+0x9cb>
     9c2: a9 00        	lda	#$0
     9c4: a2 10        	ldx	#$10
     9c6: 20 eb 26     	jsr	$26eb <__memset>
     9c9: a0 13        	ldy	#$13
     9cb: a9 01        	lda	#$1
     9cd: 91 26        	sta	($26),y                 ; 0x2026 <printf+0x9dd>
     9cf: c8           	iny
     9d0: 3a           	dec
     9d1: 91 26        	sta	($26),y                 ; 0x2026 <printf+0x9dd>
     9d3: a5 26        	lda	$26                     ; 0x2026 <printf+0x9dd>
     9d5: 18           	clc
     9d6: 69 15        	adc	#$15
     9d8: 85 26        	sta	$26                     ; 0x2026 <printf+0x9dd>
     9da: a5 27        	lda	$27                     ; 0x2027 <printf+0x9de>
     9dc: 69 00        	adc	#$0
     9de: a2 ff        	ldx	#$ff
     9e0: c6 24        	dec	$24                     ; 0x2024 <printf+0x9db>
     9e2: e4 24        	cpx	$24                     ; 0x2024 <printf+0x9db>
     9e4: d0 cc        	bne	$9b2 <f256main+0x107>
     9e6: c6 25        	dec	$25                     ; 0x2025 <printf+0x9dc>
     9e8: 80 c8        	bra	$9b2 <f256main+0x107>
     9ea: a5 24        	lda	$24                     ; 0x2024 <printf+0x9db>
     9ec: d0 ca        	bne	$9b8 <f256main+0x10d>
     9ee: a6 2b        	ldx	$2b                     ; 0x202b <printf+0x9e2>
     9f0: 86 24        	stx	$24                     ; 0x2024 <printf+0x9db>
     9f2: a6 2a        	ldx	$2a                     ; 0x202a <printf+0x9e1>
     9f4: 86 27        	stx	$27                     ; 0x2027 <printf+0x9de>
     9f6: a2 00        	ldx	#$0
     9f8: 86 49        	stx	$49                     ; 0x2049 <printf+0xa00>
     9fa: 80 39        	bra	$a35 <f256main+0x18a>
     9fc: a9 65        	lda	#$65
     9fe: 64 24        	stz	$24                     ; 0x2024 <printf+0x9db>
     a00: a2 00        	ldx	#$0
     a02: 20 22 22     	jsr	$2222 <putchar>
     a05: a2 00        	ldx	#$0
     a07: a9 72        	lda	#$72
     a09: 20 22 22     	jsr	$2222 <putchar>
     a0c: a2 00        	ldx	#$0
     a0e: a9 72        	lda	#$72
     a10: 20 22 22     	jsr	$2222 <putchar>
     a13: a9 6f        	lda	#$6f
     a15: a2 00        	ldx	#$0
     a17: 20 22 22     	jsr	$2222 <putchar>
     a1a: a2 00        	ldx	#$0
     a1c: a9 72        	lda	#$72
     a1e: 20 22 22     	jsr	$2222 <putchar>
     a21: a9 0a        	lda	#$a
     a23: a2 00        	ldx	#$0
     a25: 20 22 22     	jsr	$2222 <putchar>
     a28: a2 01        	ldx	#$1
     a2a: 86 49        	stx	$49                     ; 0x2049 <printf+0xa00>
     a2c: ca           	dex
     a2d: 86 28        	stx	$28                     ; 0x2028 <printf+0x9df>
     a2f: a2 00        	ldx	#$0
     a31: 86 29        	stx	$29                     ; 0x2029 <printf+0x9e0>
     a33: 64 27        	stz	$27                     ; 0x2027 <printf+0x9de>
     a35: a6 4b        	ldx	$4b                     ; 0x204b <printf+0xa02>
     a37: 86 12        	stx	$12                     ; 0x2012 <printf+0x9c9>
     a39: a6 4c        	ldx	$4c                     ; 0x204c <printf+0xa03>
     a3b: 86 13        	stx	$13                     ; 0x2013 <printf+0x9ca>
     a3d: b2 12        	lda	($12)                   ; 0x2012 <printf+0x9c9>
     a3f: 85 f3        	sta	$f3                     ; 0x20f3 <printf+0xaaa>
     a41: a0 0e        	ldy	#$e
     a43: a2 0e        	ldx	#$e
     a45: 86 52        	stx	$52                     ; 0x2052 <printf+0xa09>
     a47: 84 f4        	sty	$f4                     ; 0x20f4 <printf+0xaab>
     a49: 64 f5        	stz	$f5                     ; 0x20f5 <printf+0xaac>
     a4b: 64 f6        	stz	$f6                     ; 0x20f6 <printf+0xaad>
     a4d: 64 f7        	stz	$f7                     ; 0x20f7 <printf+0xaae>
     a4f: a2 3d        	ldx	#$3d
     a51: a0 00        	ldy	#$0
     a53: 86 2a        	stx	$2a                     ; 0x202a <printf+0x9e1>
     a55: 84 2b        	sty	$2b                     ; 0x202b <printf+0x9e2>
     a57: a2 34        	ldx	#$34
     a59: 86 2e        	stx	$2e                     ; 0x202e <printf+0x9e5>
     a5b: a2 00        	ldx	#$0
     a5d: 86 2f        	stx	$2f                     ; 0x202f <printf+0x9e6>
     a5f: 20 74 ff     	jsr	$ff74 <__heap_start+0xd770>
     a62: 92 2a        	sta	($2a)                   ; 0x202a <printf+0x9e1>
     a64: a9 00        	lda	#$0
     a66: 6a           	ror
     a67: 85 2e        	sta	$2e                     ; 0x202e <printf+0x9e5>
     a69: a6 49        	ldx	$49                     ; 0x2049 <printf+0xa00>
     a6b: f0 0e        	beq	$a7b <f256main+0x1d0>
     a6d: 64 35        	stz	$35                     ; 0x2035 <printf+0x9ec>
     a6f: 20 00 ff     	jsr	$ff00 <__heap_start+0xd6fc>
     a72: 92 2a        	sta	($2a)                   ; 0x202a <printf+0x9e1>
     a74: a9 00        	lda	#$0
     a76: 6a           	ror
     a77: 85 2e        	sta	$2e                     ; 0x202e <printf+0x9e5>
     a79: 80 f2        	bra	$a6d <f256main+0x1c2>
     a7b: a6 24        	ldx	$24                     ; 0x2024 <printf+0x9db>
     a7d: 86 4d        	stx	$4d                     ; 0x204d <printf+0xa04>
     a7f: a2 41        	ldx	#$41
     a81: a0 00        	ldy	#$0
     a83: 84 13        	sty	$13                     ; 0x2013 <printf+0x9ca>
     a85: 86 50        	stx	$50                     ; 0x2050 <printf+0xa07>
     a87: a6 13        	ldx	$13                     ; 0x2013 <printf+0x9ca>
     a89: 86 51        	stx	$51                     ; 0x2051 <printf+0xa08>
     a8b: a6 28        	ldx	$28                     ; 0x2028 <printf+0x9df>
     a8d: 86 2c        	stx	$2c                     ; 0x202c <printf+0x9e3>
     a8f: a6 29        	ldx	$29                     ; 0x2029 <printf+0x9e0>
     a91: 86 2d        	stx	$2d                     ; 0x202d <printf+0x9e4>
     a93: a2 00        	ldx	#$0
     a95: 86 4e        	stx	$4e                     ; 0x204e <printf+0xa05>
     a97: 86 4f        	stx	$4f                     ; 0x204f <printf+0xa06>
     a99: 86 49        	stx	$49                     ; 0x2049 <printf+0xa00>
     a9b: 86 53        	stx	$53                     ; 0x2053 <printf+0xa0a>
     a9d: 86 54        	stx	$54                     ; 0x2054 <printf+0xa0b>
     a9f: a6 50        	ldx	$50                     ; 0x2050 <printf+0xa07>
     aa1: 86 12        	stx	$12                     ; 0x2012 <printf+0x9c9>
     aa3: a6 51        	ldx	$51                     ; 0x2051 <printf+0xa08>
     aa5: 86 13        	stx	$13                     ; 0x2013 <printf+0x9ca>
     aa7: a6 4b        	ldx	$4b                     ; 0x204b <printf+0xa02>
     aa9: 86 24        	stx	$24                     ; 0x2024 <printf+0x9db>
     aab: a6 4c        	ldx	$4c                     ; 0x204c <printf+0xa03>
     aad: 86 25        	stx	$25                     ; 0x2025 <printf+0x9dc>
     aaf: a4 24        	ldy	$24                     ; 0x2024 <printf+0x9db>
     ab1: 84 14        	sty	$14                     ; 0x2014 <printf+0x9cb>
     ab3: 86 15        	stx	$15                     ; 0x2015 <printf+0x9cc>
     ab5: a2 00        	ldx	#$0
     ab7: a9 04        	lda	#$4
     ab9: 20 15 13     	jsr	$1315 <fileRead>
     abc: a6 2a        	ldx	$2a                     ; 0x202a <printf+0x9e1>
     abe: 86 12        	stx	$12                     ; 0x2012 <printf+0x9c9>
     ac0: a6 2b        	ldx	$2b                     ; 0x202b <printf+0x9e2>
     ac2: 86 13        	stx	$13                     ; 0x2013 <printf+0x9ca>
     ac4: a6 24        	ldx	$24                     ; 0x2024 <printf+0x9db>
     ac6: 86 14        	stx	$14                     ; 0x2014 <printf+0x9cb>
     ac8: a6 25        	ldx	$25                     ; 0x2025 <printf+0x9dc>
     aca: 86 15        	stx	$15                     ; 0x2015 <printf+0x9cc>
     acc: a2 00        	ldx	#$0
     ace: a9 04        	lda	#$4
     ad0: 20 15 13     	jsr	$1315 <fileRead>
     ad3: e0 00        	cpx	#$0
     ad5: d0 52        	bne	$b29 <f256main+0x27e>
     ad7: c9 04        	cmp	#$4
     ad9: d0 4e        	bne	$b29 <f256main+0x27e>
     adb: a5 3d        	lda	$3d                     ; 0x203d <printf+0x9f4>
     add: a6 3e        	ldx	$3e                     ; 0x203e <printf+0x9f5>
     adf: 86 14        	stx	$14                     ; 0x2014 <printf+0x9cb>
     ae1: a6 3f        	ldx	$3f                     ; 0x203f <printf+0x9f6>
     ae3: 86 13        	stx	$13                     ; 0x2013 <printf+0x9ca>
     ae5: a6 40        	ldx	$40                     ; 0x2040 <printf+0x9f7>
     ae7: 92 10        	sta	($10)                   ; 0x2010 <printf+0x9c7>
     ae9: a0 02        	ldy	#$2
     aeb: a5 14        	lda	$14                     ; 0x2014 <printf+0x9cb>
     aed: 91 10        	sta	($10),y                 ; 0x2010 <printf+0x9c7>
     aef: a0 04        	ldy	#$4
     af1: a5 13        	lda	$13                     ; 0x2013 <printf+0x9ca>
     af3: 91 10        	sta	($10),y                 ; 0x2010 <printf+0x9c7>
     af5: a0 06        	ldy	#$6
     af7: 8a           	txa
     af8: 91 10        	sta	($10),y                 ; 0x2010 <printf+0x9c7>
     afa: a9 00        	lda	#$0
     afc: a0 01        	ldy	#$1
     afe: 91 10        	sta	($10),y                 ; 0x2010 <printf+0x9c7>
     b00: a0 03        	ldy	#$3
     b02: 91 10        	sta	($10),y                 ; 0x2010 <printf+0x9c7>
     b04: a0 05        	ldy	#$5
     b06: 91 10        	sta	($10),y                 ; 0x2010 <printf+0x9c7>
     b08: a0 07        	ldy	#$7
     b0a: 91 10        	sta	($10),y                 ; 0x2010 <printf+0x9c7>
     b0c: a2 a8        	ldx	#$a8
     b0e: 86 12        	stx	$12                     ; 0x2012 <printf+0x9c9>
     b10: a2 27        	ldx	#$27
     b12: 86 13        	stx	$13                     ; 0x2013 <printf+0x9ca>
     b14: 20 49 16     	jsr	$1649 <printf>
     b17: a6 3d        	ldx	$3d                     ; 0x203d <printf+0x9f4>
     b19: 86 16        	stx	$16                     ; 0x2016 <printf+0x9cd>
     b1b: a6 3e        	ldx	$3e                     ; 0x203e <printf+0x9f5>
     b1d: 86 13        	stx	$13                     ; 0x2013 <printf+0x9ca>
     b1f: a6 3f        	ldx	$3f                     ; 0x203f <printf+0x9f6>
     b21: 86 15        	stx	$15                     ; 0x2015 <printf+0x9cc>
     b23: a6 40        	ldx	$40                     ; 0x2040 <printf+0x9f7>
     b25: 86 14        	stx	$14                     ; 0x2014 <printf+0x9cb>
     b27: 80 08        	bra	$b31 <f256main+0x286>
     b29: 64 14        	stz	$14                     ; 0x2014 <printf+0x9cb>
     b2b: 64 15        	stz	$15                     ; 0x2015 <printf+0x9cc>
     b2d: 64 13        	stz	$13                     ; 0x2013 <printf+0x9ca>
     b2f: 64 16        	stz	$16                     ; 0x2016 <printf+0x9cd>
     b31: 18           	clc
     b32: a5 52        	lda	$52                     ; 0x2052 <printf+0xa09>
     b34: 69 08        	adc	#$8
     b36: 85 24        	sta	$24                     ; 0x2024 <printf+0x9db>
     b38: a6 49        	ldx	$49                     ; 0x2049 <printf+0xa00>
     b3a: 8a           	txa
     b3b: 69 00        	adc	#$0
     b3d: 85 17        	sta	$17                     ; 0x2017 <printf+0x9ce>
     b3f: 85 49        	sta	$49                     ; 0x2049 <printf+0xa00>
     b41: a6 53        	ldx	$53                     ; 0x2053 <printf+0xa0a>
     b43: 8a           	txa
     b44: 69 00        	adc	#$0
     b46: 85 26        	sta	$26                     ; 0x2026 <printf+0x9dd>
     b48: a6 54        	ldx	$54                     ; 0x2054 <printf+0xa0b>
     b4a: 8a           	txa
     b4b: 69 00        	adc	#$0
     b4d: 85 25        	sta	$25                     ; 0x2025 <printf+0x9dc>
     b4f: a5 14        	lda	$14                     ; 0x2014 <printf+0x9cb>
     b51: 85 57        	sta	$57                     ; 0x2057 <printf+0xa0e>
     b53: 92 2c        	sta	($2c)                   ; 0x202c <printf+0x9e3>
     b55: a0 01        	ldy	#$1
     b57: a5 15        	lda	$15                     ; 0x2015 <printf+0x9cc>
     b59: 85 56        	sta	$56                     ; 0x2056 <printf+0xa0d>
     b5b: 91 2c        	sta	($2c),y                 ; 0x202c <printf+0x9e3>
     b5d: c8           	iny
     b5e: a5 13        	lda	$13                     ; 0x2013 <printf+0x9ca>
     b60: 85 55        	sta	$55                     ; 0x2055 <printf+0xa0c>
     b62: 91 2c        	sta	($2c),y                 ; 0x202c <printf+0x9e3>
     b64: c8           	iny
     b65: a5 16        	lda	$16                     ; 0x2016 <printf+0x9cd>
     b67: 85 59        	sta	$59                     ; 0x2059 <printf+0xa10>
     b69: 91 2c        	sta	($2c),y                 ; 0x202c <printf+0x9e3>
     b6b: a6 24        	ldx	$24                     ; 0x2024 <printf+0x9db>
     b6d: 86 54        	stx	$54                     ; 0x2054 <printf+0xa0b>
     b6f: a6 17        	ldx	$17                     ; 0x2017 <printf+0x9ce>
     b71: 86 58        	stx	$58                     ; 0x2058 <printf+0xa0f>
     b73: a6 26        	ldx	$26                     ; 0x2026 <printf+0x9dd>
     b75: 86 53        	stx	$53                     ; 0x2053 <printf+0xa0a>
     b77: a6 25        	ldx	$25                     ; 0x2025 <printf+0x9dc>
     b79: 86 52        	stx	$52                     ; 0x2052 <printf+0xa09>
     b7b: a5 4e        	lda	$4e                     ; 0x204e <printf+0xa05>
     b7d: 85 4e        	sta	$4e                     ; 0x204e <printf+0xa05>
     b7f: 92 10        	sta	($10)                   ; 0x2010 <printf+0x9c7>
     b81: a5 4f        	lda	$4f                     ; 0x204f <printf+0xa06>
     b83: 85 4f        	sta	$4f                     ; 0x204f <printf+0xa06>
     b85: a0 01        	ldy	#$1
     b87: 91 10        	sta	($10),y                 ; 0x2010 <printf+0x9c7>
     b89: a5 24        	lda	$24                     ; 0x2024 <printf+0x9db>
     b8b: c8           	iny
     b8c: 91 10        	sta	($10),y                 ; 0x2010 <printf+0x9c7>
     b8e: c8           	iny
     b8f: a5 49        	lda	$49                     ; 0x2049 <printf+0xa00>
     b91: 91 10        	sta	($10),y                 ; 0x2010 <printf+0x9c7>
     b93: a5 26        	lda	$26                     ; 0x2026 <printf+0x9dd>
     b95: c8           	iny
     b96: 91 10        	sta	($10),y                 ; 0x2010 <printf+0x9c7>
     b98: c8           	iny
     b99: a5 25        	lda	$25                     ; 0x2025 <printf+0x9dc>
     b9b: 91 10        	sta	($10),y                 ; 0x2010 <printf+0x9c7>
     b9d: a2 bd        	ldx	#$bd
     b9f: 86 12        	stx	$12                     ; 0x2012 <printf+0x9c9>
     ba1: a2 27        	ldx	#$27
     ba3: 86 13        	stx	$13                     ; 0x2013 <printf+0x9ca>
     ba5: 20 49 16     	jsr	$1649 <printf>
     ba8: a0 08        	ldy	#$8
     baa: a5 24        	lda	$24                     ; 0x2024 <printf+0x9db>
     bac: 91 2c        	sta	($2c),y                 ; 0x202c <printf+0x9e3>
     bae: a5 2c        	lda	$2c                     ; 0x202c <printf+0x9e3>
     bb0: 18           	clc
     bb1: 69 08        	adc	#$8
     bb3: 85 12        	sta	$12                     ; 0x2012 <printf+0x9c9>
     bb5: a5 2d        	lda	$2d                     ; 0x202d <printf+0x9e4>
     bb7: 69 00        	adc	#$0
     bb9: 85 13        	sta	$13                     ; 0x2013 <printf+0x9ca>
     bbb: a5 49        	lda	$49                     ; 0x2049 <printf+0xa00>
     bbd: a0 01        	ldy	#$1
     bbf: 91 12        	sta	($12),y                 ; 0x2012 <printf+0x9c9>
     bc1: a5 26        	lda	$26                     ; 0x2026 <printf+0x9dd>
     bc3: c8           	iny
     bc4: 91 12        	sta	($12),y                 ; 0x2012 <printf+0x9c9>
     bc6: a5 25        	lda	$25                     ; 0x2025 <printf+0x9dc>
     bc8: c8           	iny
     bc9: 91 12        	sta	($12),y                 ; 0x2012 <printf+0x9c9>
     bcb: a6 57        	ldx	$57                     ; 0x2057 <printf+0xa0e>
     bcd: 8a           	txa
     bce: a6 56        	ldx	$56                     ; 0x2056 <printf+0xa0d>
     bd0: 86 12        	stx	$12                     ; 0x2012 <printf+0x9c9>
     bd2: a4 12        	ldy	$12                     ; 0x2012 <printf+0x9c9>
     bd4: 18           	clc
     bd5: a6 54        	ldx	$54                     ; 0x2054 <printf+0xa0b>
     bd7: 86 12        	stx	$12                     ; 0x2012 <printf+0x9c9>
     bd9: 65 12        	adc	$12                     ; 0x2012 <printf+0x9c9>
     bdb: 85 14        	sta	$14                     ; 0x2014 <printf+0x9cb>
     bdd: a6 58        	ldx	$58                     ; 0x2058 <printf+0xa0f>
     bdf: 86 12        	stx	$12                     ; 0x2012 <printf+0x9c9>
     be1: 98           	tya
     be2: 65 12        	adc	$12                     ; 0x2012 <printf+0x9c9>
     be4: a8           	tay
     be5: a6 55        	ldx	$55                     ; 0x2055 <printf+0xa0c>
     be7: 8a           	txa
     be8: a6 53        	ldx	$53                     ; 0x2053 <printf+0xa0a>
     bea: 86 12        	stx	$12                     ; 0x2012 <printf+0x9c9>
     bec: 65 12        	adc	$12                     ; 0x2012 <printf+0x9c9>
     bee: 85 15        	sta	$15                     ; 0x2015 <printf+0x9cc>
     bf0: a6 59        	ldx	$59                     ; 0x2059 <printf+0xa10>
     bf2: 8a           	txa
     bf3: a6 52        	ldx	$52                     ; 0x2052 <printf+0xa09>
     bf5: 86 12        	stx	$12                     ; 0x2012 <printf+0x9c9>
     bf7: 65 12        	adc	$12                     ; 0x2012 <printf+0x9c9>
     bf9: 85 16        	sta	$16                     ; 0x2016 <printf+0x9cd>
     bfb: a6 4b        	ldx	$4b                     ; 0x204b <printf+0xa02>
     bfd: 86 12        	stx	$12                     ; 0x2012 <printf+0x9c9>
     bff: a6 4c        	ldx	$4c                     ; 0x204c <printf+0xa03>
     c01: 86 13        	stx	$13                     ; 0x2013 <printf+0x9ca>
     c03: b2 12        	lda	($12)                   ; 0x2012 <printf+0x9c9>
     c05: 85 f3        	sta	$f3                     ; 0x20f3 <printf+0xaaa>
     c07: a6 14        	ldx	$14                     ; 0x2014 <printf+0x9cb>
     c09: 86 52        	stx	$52                     ; 0x2052 <printf+0xa09>
     c0b: 86 f4        	stx	$f4                     ; 0x20f4 <printf+0xaab>
     c0d: 84 12        	sty	$12                     ; 0x2012 <printf+0x9c9>
     c0f: a6 12        	ldx	$12                     ; 0x2012 <printf+0x9c9>
     c11: 86 49        	stx	$49                     ; 0x2049 <printf+0xa00>
     c13: 84 f5        	sty	$f5                     ; 0x20f5 <printf+0xaac>
     c15: a5 15        	lda	$15                     ; 0x2015 <printf+0x9cc>
     c17: a6 15        	ldx	$15                     ; 0x2015 <printf+0x9cc>
     c19: 86 53        	stx	$53                     ; 0x2053 <printf+0xa0a>
     c1b: 85 f6        	sta	$f6                     ; 0x20f6 <printf+0xaad>
     c1d: a5 16        	lda	$16                     ; 0x2016 <printf+0x9cd>
     c1f: a6 16        	ldx	$16                     ; 0x2016 <printf+0x9cd>
     c21: 86 54        	stx	$54                     ; 0x2054 <printf+0xa0b>
     c23: 85 f7        	sta	$f7                     ; 0x20f7 <printf+0xaae>
     c25: 20 74 ff     	jsr	$ff74 <__heap_start+0xd770>
     c28: 92 2a        	sta	($2a)                   ; 0x202a <printf+0x9e1>
     c2a: a9 00        	lda	#$0
     c2c: 6a           	ror
     c2d: 85 2e        	sta	$2e                     ; 0x202e <printf+0x9e5>
     c2f: a6 4e        	ldx	$4e                     ; 0x204e <printf+0xa05>
     c31: 86 12        	stx	$12                     ; 0x2012 <printf+0x9c9>
     c33: a6 4f        	ldx	$4f                     ; 0x204f <printf+0xa06>
     c35: 86 13        	stx	$13                     ; 0x2013 <printf+0x9ca>
     c37: e6 12        	inc	$12                     ; 0x2012 <printf+0x9c9>
     c39: d0 02        	bne	$c3d <f256main+0x392>
     c3b: e6 13        	inc	$13                     ; 0x2013 <printf+0x9ca>
     c3d: 18           	clc
     c3e: a5 2c        	lda	$2c                     ; 0x202c <printf+0x9e3>
     c40: 69 15        	adc	#$15
     c42: 85 2c        	sta	$2c                     ; 0x202c <printf+0x9e3>
     c44: a5 2d        	lda	$2d                     ; 0x202d <printf+0x9e4>
     c46: 69 00        	adc	#$0
     c48: 85 2d        	sta	$2d                     ; 0x202d <printf+0x9e4>
     c4a: a6 27        	ldx	$27                     ; 0x2027 <printf+0x9de>
     c4c: a4 12        	ldy	$12                     ; 0x2012 <printf+0x9c9>
     c4e: 84 4e        	sty	$4e                     ; 0x204e <printf+0xa05>
     c50: a4 13        	ldy	$13                     ; 0x2013 <printf+0x9ca>
     c52: 84 4f        	sty	$4f                     ; 0x204f <printf+0xa06>
     c54: e4 13        	cpx	$13                     ; 0x2013 <printf+0x9ca>
     c56: f0 03        	beq	$c5b <f256main+0x3b0>
     c58: 4c 9f 0a     	jmp	$a9f <f256main+0x1f4>
     c5b: a6 4d        	ldx	$4d                     ; 0x204d <printf+0xa04>
     c5d: a4 12        	ldy	$12                     ; 0x2012 <printf+0x9c9>
     c5f: 84 4e        	sty	$4e                     ; 0x204e <printf+0xa05>
     c61: a4 13        	ldy	$13                     ; 0x2013 <printf+0x9ca>
     c63: 84 4f        	sty	$4f                     ; 0x204f <printf+0xa06>
     c65: e4 12        	cpx	$12                     ; 0x2012 <printf+0x9c9>
     c67: f0 03        	beq	$c6c <f256main+0x3c1>
     c69: 4c 9f 0a     	jmp	$a9f <f256main+0x1f4>
     c6c: a2 3d        	ldx	#$3d
     c6e: 86 2a        	stx	$2a                     ; 0x202a <printf+0x9e1>
     c70: a2 00        	ldx	#$0
     c72: 86 2b        	stx	$2b                     ; 0x202b <printf+0x9e2>
     c74: a2 34        	ldx	#$34
     c76: 86 2c        	stx	$2c                     ; 0x202c <printf+0x9e3>
     c78: a2 00        	ldx	#$0
     c7a: 86 2d        	stx	$2d                     ; 0x202d <printf+0x9e4>
     c7c: a0 00        	ldy	#$0
     c7e: 98           	tya
     c7f: a6 4d        	ldx	$4d                     ; 0x204d <printf+0xa04>
     c81: 86 24        	stx	$24                     ; 0x2024 <printf+0x9db>
     c83: a6 27        	ldx	$27                     ; 0x2027 <printf+0x9de>
     c85: 86 4e        	stx	$4e                     ; 0x204e <printf+0xa05>
     c87: 80 03        	bra	$c8c <f256main+0x3e1>
     c89: a0 00        	ldy	#$0
     c8b: 98           	tya
     c8c: a2 15        	ldx	#$15
     c8e: 86 12        	stx	$12                     ; 0x2012 <printf+0x9c9>
     c90: 64 13        	stz	$13                     ; 0x2013 <printf+0x9ca>
     c92: aa           	tax
     c93: 84 26        	sty	$26                     ; 0x2026 <printf+0x9dd>
     c95: 85 25        	sta	$25                     ; 0x2025 <printf+0x9dc>
     c97: 98           	tya
     c98: 20 0b 27     	jsr	$270b <__mulhi3>
     c9b: 18           	clc
     c9c: 65 28        	adc	$28                     ; 0x2028 <printf+0x9df>
     c9e: 85 12        	sta	$12                     ; 0x2012 <printf+0x9c9>
     ca0: 8a           	txa
     ca1: 65 29        	adc	$29                     ; 0x2029 <printf+0x9e0>
     ca3: 85 14        	sta	$14                     ; 0x2014 <printf+0x9cb>
     ca5: 85 13        	sta	$13                     ; 0x2013 <printf+0x9ca>
     ca7: a0 14        	ldy	#$14
     ca9: b1 12        	lda	($12),y                 ; 0x2012 <printf+0x9c9>
     cab: a0 03        	ldy	#$3
     cad: aa           	tax
     cae: f0 03        	beq	$cb3 <f256main+0x408>
     cb0: 4c 7d 0f     	jmp	$f7d <f256main+0x6d2>
     cb3: 18           	clc
     cb4: a5 12        	lda	$12                     ; 0x2012 <printf+0x9c9>
     cb6: 69 04        	adc	#$4
     cb8: aa           	tax
     cb9: a5 14        	lda	$14                     ; 0x2014 <printf+0x9cb>
     cbb: 69 00        	adc	#$0
     cbd: 86 14        	stx	$14                     ; 0x2014 <printf+0x9cb>
     cbf: 85 15        	sta	$15                     ; 0x2015 <printf+0x9cc>
     cc1: b1 14        	lda	($14),y                 ; 0x2014 <printf+0x9cb>
     cc3: d1 12        	cmp	($12),y                 ; 0x2012 <printf+0x9c9>
     cc5: d0 30        	bne	$cf7 <f256main+0x44c>
     cc7: a0 02        	ldy	#$2
     cc9: b1 14        	lda	($14),y                 ; 0x2014 <printf+0x9cb>
     ccb: aa           	tax
     ccc: b1 12        	lda	($12),y                 ; 0x2012 <printf+0x9c9>
     cce: 85 16        	sta	$16                     ; 0x2016 <printf+0x9cd>
     cd0: e4 16        	cpx	$16                     ; 0x2016 <printf+0x9cd>
     cd2: f0 03        	beq	$cd7 <f256main+0x42c>
     cd4: 4c 70 0f     	jmp	$f70 <f256main+0x6c5>
     cd7: a0 01        	ldy	#$1
     cd9: b1 14        	lda	($14),y                 ; 0x2014 <printf+0x9cb>
     cdb: aa           	tax
     cdc: b1 12        	lda	($12),y                 ; 0x2012 <printf+0x9c9>
     cde: 85 14        	sta	$14                     ; 0x2014 <printf+0x9cb>
     ce0: e4 14        	cpx	$14                     ; 0x2014 <printf+0x9cb>
     ce2: d0 0c        	bne	$cf0 <f256main+0x445>
     ce4: a0 04        	ldy	#$4
     ce6: b1 12        	lda	($12),y                 ; 0x2012 <printf+0x9c9>
     ce8: 85 15        	sta	$15                     ; 0x2015 <printf+0x9cc>
     cea: b2 12        	lda	($12)                   ; 0x2012 <printf+0x9c9>
     cec: 85 14        	sta	$14                     ; 0x2014 <printf+0x9cb>
     cee: a6 15        	ldx	$15                     ; 0x2015 <printf+0x9cc>
     cf0: e4 14        	cpx	$14                     ; 0x2014 <printf+0x9cb>
     cf2: 90 0a        	bcc	$cfe <f256main+0x453>
     cf4: 4c 77 0f     	jmp	$f77 <f256main+0x6cc>
     cf7: d1 12        	cmp	($12),y                 ; 0x2012 <printf+0x9c9>
     cf9: 90 03        	bcc	$cfe <f256main+0x453>
     cfb: 4c 77 0f     	jmp	$f77 <f256main+0x6cc>
     cfe: a2 15        	ldx	#$15
     d00: 86 12        	stx	$12                     ; 0x2012 <printf+0x9c9>
     d02: 64 13        	stz	$13                     ; 0x2013 <printf+0x9ca>
     d04: a2 00        	ldx	#$0
     d06: a5 26        	lda	$26                     ; 0x2026 <printf+0x9dd>
     d08: 20 0b 27     	jsr	$270b <__mulhi3>
     d0b: 18           	clc
     d0c: 65 28        	adc	$28                     ; 0x2028 <printf+0x9df>
     d0e: a8           	tay
     d0f: 8a           	txa
     d10: 65 29        	adc	$29                     ; 0x2029 <printf+0x9e0>
     d12: aa           	tax
     d13: 84 14        	sty	$14                     ; 0x2014 <printf+0x9cb>
     d15: 85 15        	sta	$15                     ; 0x2015 <printf+0x9cc>
     d17: 18           	clc
     d18: 98           	tya
     d19: 69 08        	adc	#$8
     d1b: 85 12        	sta	$12                     ; 0x2012 <printf+0x9c9>
     d1d: 8a           	txa
     d1e: 69 00        	adc	#$0
     d20: 85 13        	sta	$13                     ; 0x2013 <printf+0x9ca>
     d22: 18           	clc
     d23: 98           	tya
     d24: 69 04        	adc	#$4
     d26: 85 16        	sta	$16                     ; 0x2016 <printf+0x9cd>
     d28: 8a           	txa
     d29: 69 00        	adc	#$0
     d2b: 85 17        	sta	$17                     ; 0x2017 <printf+0x9ce>
     d2d: a0 04        	ldy	#$4
     d2f: b1 14        	lda	($14),y                 ; 0x2014 <printf+0x9cb>
     d31: aa           	tax
     d32: a0 01        	ldy	#$1
     d34: b1 16        	lda	($16),y                 ; 0x2016 <printf+0x9cd>
     d36: 85 18        	sta	$18                     ; 0x2018 <printf+0x9cf>
     d38: c8           	iny
     d39: b1 16        	lda	($16),y                 ; 0x2016 <printf+0x9cd>
     d3b: 85 19        	sta	$19                     ; 0x2019 <printf+0x9d0>
     d3d: c8           	iny
     d3e: b1 16        	lda	($16),y                 ; 0x2016 <printf+0x9cd>
     d40: 85 1a        	sta	$1a                     ; 0x201a <printf+0x9d1>
     d42: 8a           	txa
     d43: a4 18        	ldy	$18                     ; 0x2018 <printf+0x9cf>
     d45: 84 1b        	sty	$1b                     ; 0x201b <printf+0x9d2>
     d47: a4 19        	ldy	$19                     ; 0x2019 <printf+0x9d0>
     d49: 84 1c        	sty	$1c                     ; 0x201c <printf+0x9d3>
     d4b: a4 1a        	ldy	$1a                     ; 0x201a <printf+0x9d1>
     d4d: 84 1d        	sty	$1d                     ; 0x201d <printf+0x9d4>
     d4f: 1a           	inc
     d50: d0 0a        	bne	$d5c <f256main+0x4b1>
     d52: e6 1b        	inc	$1b                     ; 0x201b <printf+0x9d2>
     d54: d0 06        	bne	$d5c <f256main+0x4b1>
     d56: e6 1c        	inc	$1c                     ; 0x201c <printf+0x9d3>
     d58: d0 02        	bne	$d5c <f256main+0x4b1>
     d5a: e6 1d        	inc	$1d                     ; 0x201d <printf+0x9d4>
     d5c: a0 04        	ldy	#$4
     d5e: 91 14        	sta	($14),y                 ; 0x2014 <printf+0x9cb>
     d60: a0 01        	ldy	#$1
     d62: a5 1b        	lda	$1b                     ; 0x201b <printf+0x9d2>
     d64: 91 16        	sta	($16),y                 ; 0x2016 <printf+0x9cd>
     d66: c8           	iny
     d67: a5 1c        	lda	$1c                     ; 0x201c <printf+0x9d3>
     d69: 91 16        	sta	($16),y                 ; 0x2016 <printf+0x9cd>
     d6b: c8           	iny
     d6c: a5 1d        	lda	$1d                     ; 0x201d <printf+0x9d4>
     d6e: 91 16        	sta	($16),y                 ; 0x2016 <printf+0x9cd>
     d70: 18           	clc
     d71: a0 08        	ldy	#$8
     d73: 8a           	txa
     d74: 71 14        	adc	($14),y                 ; 0x2014 <printf+0x9cb>
     d76: 85 14        	sta	$14                     ; 0x2014 <printf+0x9cb>
     d78: a5 18        	lda	$18                     ; 0x2018 <printf+0x9cf>
     d7a: a0 01        	ldy	#$1
     d7c: 71 12        	adc	($12),y                 ; 0x2012 <printf+0x9c9>
     d7e: 85 15        	sta	$15                     ; 0x2015 <printf+0x9cc>
     d80: a5 19        	lda	$19                     ; 0x2019 <printf+0x9d0>
     d82: c8           	iny
     d83: 71 12        	adc	($12),y                 ; 0x2012 <printf+0x9c9>
     d85: 85 16        	sta	$16                     ; 0x2016 <printf+0x9cd>
     d87: a5 1a        	lda	$1a                     ; 0x201a <printf+0x9d1>
     d89: c8           	iny
     d8a: 71 12        	adc	($12),y                 ; 0x2012 <printf+0x9c9>
     d8c: 85 17        	sta	$17                     ; 0x2017 <printf+0x9ce>
     d8e: a6 4b        	ldx	$4b                     ; 0x204b <printf+0xa02>
     d90: 86 12        	stx	$12                     ; 0x2012 <printf+0x9c9>
     d92: a6 4c        	ldx	$4c                     ; 0x204c <printf+0xa03>
     d94: 86 13        	stx	$13                     ; 0x2013 <printf+0x9ca>
     d96: b2 12        	lda	($12)                   ; 0x2012 <printf+0x9c9>
     d98: 85 f3        	sta	$f3                     ; 0x20f3 <printf+0xaaa>
     d9a: a6 14        	ldx	$14                     ; 0x2014 <printf+0x9cb>
     d9c: 86 f4        	stx	$f4                     ; 0x20f4 <printf+0xaab>
     d9e: a6 15        	ldx	$15                     ; 0x2015 <printf+0x9cc>
     da0: 86 f5        	stx	$f5                     ; 0x20f5 <printf+0xaac>
     da2: a6 16        	ldx	$16                     ; 0x2016 <printf+0x9cd>
     da4: 86 f6        	stx	$f6                     ; 0x20f6 <printf+0xaad>
     da6: a6 17        	ldx	$17                     ; 0x2017 <printf+0x9ce>
     da8: 86 f7        	stx	$f7                     ; 0x20f7 <printf+0xaae>
     daa: 20 74 ff     	jsr	$ff74 <__heap_start+0xd770>
     dad: 92 2a        	sta	($2a)                   ; 0x202a <printf+0x9e1>
     daf: a9 00        	lda	#$0
     db1: 6a           	ror
     db2: 85 2c        	sta	$2c                     ; 0x202c <printf+0x9e3>
     db4: b2 12        	lda	($12)                   ; 0x2012 <printf+0x9c9>
     db6: f0 3d        	beq	$df5 <f256main+0x54a>
     db8: 85 f3        	sta	$f3                     ; 0x20f3 <printf+0xaaa>
     dba: a2 01        	ldx	#$1
     dbc: 86 f4        	stx	$f4                     ; 0x20f4 <printf+0xaab>
     dbe: 20 60 ff     	jsr	$ff60 <__heap_start+0xd75c>
     dc1: 92 2a        	sta	($2a)                   ; 0x202a <printf+0x9e1>
     dc3: a9 00        	lda	#$0
     dc5: 6a           	ror
     dc6: 85 2c        	sta	$2c                     ; 0x202c <printf+0x9e3>
     dc8: a6 34        	ldx	$34                     ; 0x2034 <printf+0x9eb>
     dca: d0 03        	bne	$dcf <f256main+0x524>
     dcc: 4c f6 0e     	jmp	$ef6 <f256main+0x64b>
     dcf: a5 3c        	lda	$3c                     ; 0x203c <printf+0x9f3>
     dd1: aa           	tax
     dd2: 30 44        	bmi	$e18 <f256main+0x56d>
     dd4: 85 24        	sta	$24                     ; 0x2024 <printf+0x9db>
     dd6: 64 1a        	stz	$1a                     ; 0x201a <printf+0x9d1>
     dd8: 64 19        	stz	$19                     ; 0x2019 <printf+0x9d0>
     dda: 64 18        	stz	$18                     ; 0x2018 <printf+0x9cf>
     ddc: 64 2e        	stz	$2e                     ; 0x202e <printf+0x9e5>
     dde: 64 2f        	stz	$2f                     ; 0x202f <printf+0x9e6>
     de0: 64 1b        	stz	$1b                     ; 0x201b <printf+0x9d2>
     de2: 64 16        	stz	$16                     ; 0x2016 <printf+0x9cd>
     de4: 64 17        	stz	$17                     ; 0x2017 <printf+0x9ce>
     de6: 64 12        	stz	$12                     ; 0x2012 <printf+0x9c9>
     de8: 4c 9b 11     	jmp	$119b <f256main+0x8f0>
     deb: 20 0c ff     	jsr	$ff0c <__heap_start+0xd708>
     dee: 92 2a        	sta	($2a)                   ; 0x202a <printf+0x9e1>
     df0: a9 00        	lda	#$0
     df2: 6a           	ror
     df3: 85 2c        	sta	$2c                     ; 0x202c <printf+0x9e3>
     df5: 64 35        	stz	$35                     ; 0x2035 <printf+0x9ec>
     df7: 20 00 ff     	jsr	$ff00 <__heap_start+0xd6fc>
     dfa: 92 2a        	sta	($2a)                   ; 0x202a <printf+0x9e1>
     dfc: a9 00        	lda	#$0
     dfe: 6a           	ror
     dff: 85 2c        	sta	$2c                     ; 0x202c <printf+0x9e3>
     e01: a6 34        	ldx	$34                     ; 0x2034 <printf+0x9eb>
     e03: d0 e6        	bne	$deb <f256main+0x540>
     e05: a6 35        	ldx	$35                     ; 0x2035 <printf+0x9ec>
     e07: e0 08        	cpx	#$8
     e09: d0 ea        	bne	$df5 <f256main+0x54a>
     e0b: a6 3b        	ldx	$3b                     ; 0x203b <printf+0x9f2>
     e0d: d0 e6        	bne	$df5 <f256main+0x54a>
     e0f: a5 3a        	lda	$3a                     ; 0x203a <printf+0x9f1>
     e11: a6 3a        	ldx	$3a                     ; 0x203a <printf+0x9f1>
     e13: 86 3c        	stx	$3c                     ; 0x203c <printf+0x9f3>
     e15: aa           	tax
     e16: 10 bc        	bpl	$dd4 <f256main+0x529>
     e18: 4a           	lsr
     e19: a8           	tay
     e1a: 64 14        	stz	$14                     ; 0x2014 <printf+0x9cb>
     e1c: 66 14        	ror	$14                     ; 0x2014 <printf+0x9cb>
     e1e: a6 4b        	ldx	$4b                     ; 0x204b <printf+0xa02>
     e20: 86 12        	stx	$12                     ; 0x2012 <printf+0x9c9>
     e22: a6 4c        	ldx	$4c                     ; 0x204c <printf+0xa03>
     e24: 86 13        	stx	$13                     ; 0x2013 <printf+0x9ca>
     e26: b2 12        	lda	($12)                   ; 0x2012 <printf+0x9c9>
     e28: f0 27        	beq	$e51 <f256main+0x5a6>
     e2a: 85 f3        	sta	$f3                     ; 0x20f3 <printf+0xaaa>
     e2c: a2 01        	ldx	#$1
     e2e: 86 f4        	stx	$f4                     ; 0x20f4 <printf+0xaab>
     e30: 20 60 ff     	jsr	$ff60 <__heap_start+0xd75c>
     e33: 92 2a        	sta	($2a)                   ; 0x202a <printf+0x9e1>
     e35: a9 00        	lda	#$0
     e37: 6a           	ror
     e38: 85 2c        	sta	$2c                     ; 0x202c <printf+0x9e3>
     e3a: a6 34        	ldx	$34                     ; 0x2034 <printf+0x9eb>
     e3c: d0 03        	bne	$e41 <f256main+0x596>
     e3e: 4c 37 0f     	jmp	$f37 <f256main+0x68c>
     e41: a6 3c        	ldx	$3c                     ; 0x203c <printf+0x9f3>
     e43: 86 2e        	stx	$2e                     ; 0x202e <printf+0x9e5>
     e45: 80 2c        	bra	$e73 <f256main+0x5c8>
     e47: 20 0c ff     	jsr	$ff0c <__heap_start+0xd708>
     e4a: 92 2a        	sta	($2a)                   ; 0x202a <printf+0x9e1>
     e4c: a9 00        	lda	#$0
     e4e: 6a           	ror
     e4f: 85 2c        	sta	$2c                     ; 0x202c <printf+0x9e3>
     e51: 64 35        	stz	$35                     ; 0x2035 <printf+0x9ec>
     e53: 20 00 ff     	jsr	$ff00 <__heap_start+0xd6fc>
     e56: 92 2a        	sta	($2a)                   ; 0x202a <printf+0x9e1>
     e58: a9 00        	lda	#$0
     e5a: 6a           	ror
     e5b: 85 2c        	sta	$2c                     ; 0x202c <printf+0x9e3>
     e5d: a6 34        	ldx	$34                     ; 0x2034 <printf+0x9eb>
     e5f: d0 e6        	bne	$e47 <f256main+0x59c>
     e61: a6 35        	ldx	$35                     ; 0x2035 <printf+0x9ec>
     e63: e0 08        	cpx	#$8
     e65: d0 ea        	bne	$e51 <f256main+0x5a6>
     e67: a6 3b        	ldx	$3b                     ; 0x203b <printf+0x9f2>
     e69: d0 e6        	bne	$e51 <f256main+0x5a6>
     e6b: a6 3a        	ldx	$3a                     ; 0x203a <printf+0x9f1>
     e6d: 86 2e        	stx	$2e                     ; 0x202e <printf+0x9e5>
     e6f: a6 3a        	ldx	$3a                     ; 0x203a <printf+0x9f1>
     e71: 86 3c        	stx	$3c                     ; 0x203c <printf+0x9f3>
     e73: a5 14        	lda	$14                     ; 0x2014 <printf+0x9cb>
     e75: 29 80        	and	#$80
     e77: 85 24        	sta	$24                     ; 0x2024 <printf+0x9db>
     e79: 98           	tya
     e7a: 29 3f        	and	#$3f
     e7c: 85 49        	sta	$49                     ; 0x2049 <printf+0xa00>
     e7e: 64 2f        	stz	$2f                     ; 0x202f <printf+0x9e6>
     e80: a2 15        	ldx	#$15
     e82: 86 12        	stx	$12                     ; 0x2012 <printf+0x9c9>
     e84: 64 13        	stz	$13                     ; 0x2013 <printf+0x9ca>
     e86: a2 00        	ldx	#$0
     e88: a5 26        	lda	$26                     ; 0x2026 <printf+0x9dd>
     e8a: 20 0b 27     	jsr	$270b <__mulhi3>
     e8d: 18           	clc
     e8e: 65 28        	adc	$28                     ; 0x2028 <printf+0x9df>
     e90: a8           	tay
     e91: 8a           	txa
     e92: 65 29        	adc	$29                     ; 0x2029 <printf+0x9e0>
     e94: aa           	tax
     e95: 98           	tya
     e96: 84 12        	sty	$12                     ; 0x2012 <printf+0x9c9>
     e98: 86 13        	stx	$13                     ; 0x2013 <printf+0x9ca>
     e9a: 18           	clc
     e9b: 69 04        	adc	#$4
     e9d: 85 14        	sta	$14                     ; 0x2014 <printf+0x9cb>
     e9f: 8a           	txa
     ea0: 69 00        	adc	#$0
     ea2: 85 15        	sta	$15                     ; 0x2015 <printf+0x9cc>
     ea4: a0 04        	ldy	#$4
     ea6: b1 12        	lda	($12),y                 ; 0x2012 <printf+0x9c9>
     ea8: 85 18        	sta	$18                     ; 0x2018 <printf+0x9cf>
     eaa: a0 01        	ldy	#$1
     eac: b1 14        	lda	($14),y                 ; 0x2014 <printf+0x9cb>
     eae: aa           	tax
     eaf: c8           	iny
     eb0: b1 14        	lda	($14),y                 ; 0x2014 <printf+0x9cb>
     eb2: 85 16        	sta	$16                     ; 0x2016 <printf+0x9cd>
     eb4: c8           	iny
     eb5: b1 14        	lda	($14),y                 ; 0x2014 <printf+0x9cb>
     eb7: 85 17        	sta	$17                     ; 0x2017 <printf+0x9ce>
     eb9: a5 18        	lda	$18                     ; 0x2018 <printf+0x9cf>
     ebb: 1a           	inc
     ebc: d0 09        	bne	$ec7 <f256main+0x61c>
     ebe: e8           	inx
     ebf: d0 06        	bne	$ec7 <f256main+0x61c>
     ec1: e6 16        	inc	$16                     ; 0x2016 <printf+0x9cd>
     ec3: d0 02        	bne	$ec7 <f256main+0x61c>
     ec5: e6 17        	inc	$17                     ; 0x2017 <printf+0x9ce>
     ec7: a0 04        	ldy	#$4
     ec9: 91 12        	sta	($12),y                 ; 0x2012 <printf+0x9c9>
     ecb: 8a           	txa
     ecc: a0 01        	ldy	#$1
     ece: 91 14        	sta	($14),y                 ; 0x2014 <printf+0x9cb>
     ed0: a5 16        	lda	$16                     ; 0x2016 <printf+0x9cd>
     ed2: c8           	iny
     ed3: 91 14        	sta	($14),y                 ; 0x2014 <printf+0x9cb>
     ed5: a5 17        	lda	$17                     ; 0x2017 <printf+0x9ce>
     ed7: c8           	iny
     ed8: 91 14        	sta	($14),y                 ; 0x2014 <printf+0x9cb>
     eda: a5 2e        	lda	$2e                     ; 0x202e <printf+0x9e5>
     edc: 10 03        	bpl	$ee1 <f256main+0x636>
     ede: 4c b7 0f     	jmp	$fb7 <f256main+0x70c>
     ee1: 64 2e        	stz	$2e                     ; 0x202e <printf+0x9e5>
     ee3: 85 19        	sta	$19                     ; 0x2019 <printf+0x9d0>
     ee5: 64 1b        	stz	$1b                     ; 0x201b <printf+0x9d2>
     ee7: 64 16        	stz	$16                     ; 0x2016 <printf+0x9cd>
     ee9: 64 17        	stz	$17                     ; 0x2017 <printf+0x9ce>
     eeb: 64 12        	stz	$12                     ; 0x2012 <printf+0x9c9>
     eed: a6 49        	ldx	$49                     ; 0x2049 <printf+0xa00>
     eef: 86 1a        	stx	$1a                     ; 0x201a <printf+0x9d1>
     ef1: 64 18        	stz	$18                     ; 0x2018 <printf+0x9cf>
     ef3: 4c 9b 11     	jmp	$119b <f256main+0x8f0>
     ef6: 64 35        	stz	$35                     ; 0x2035 <printf+0x9ec>
     ef8: 20 00 ff     	jsr	$ff00 <__heap_start+0xd6fc>
     efb: 92 2a        	sta	($2a)                   ; 0x202a <printf+0x9e1>
     efd: a9 00        	lda	#$0
     eff: 6a           	ror
     f00: 85 2c        	sta	$2c                     ; 0x202c <printf+0x9e3>
     f02: a6 35        	ldx	$35                     ; 0x2035 <printf+0x9ec>
     f04: e0 38        	cpx	#$38
     f06: d0 03        	bne	$f0b <f256main+0x660>
     f08: 4c cf 0d     	jmp	$dcf <f256main+0x524>
     f0b: e0 30        	cpx	#$30
     f0d: d0 03        	bne	$f12 <f256main+0x667>
     f0f: 4c cf 0d     	jmp	$dcf <f256main+0x524>
     f12: e0 2c        	cpx	#$2c
     f14: d0 e0        	bne	$ef6 <f256main+0x64b>
     f16: a2 3c        	ldx	#$3c
     f18: 86 fb        	stx	$fb                     ; 0x20fb <printf+0xab2>
     f1a: a2 00        	ldx	#$0
     f1c: 86 fc        	stx	$fc                     ; 0x20fc <printf+0xab3>
     f1e: a6 3b        	ldx	$3b                     ; 0x203b <printf+0x9f2>
     f20: 86 fd        	stx	$fd                     ; 0x20fd <printf+0xab4>
     f22: 20 04 ff     	jsr	$ff04 <__heap_start+0xd700>
     f25: 92 2a        	sta	($2a)                   ; 0x202a <printf+0x9e1>
     f27: a9 00        	lda	#$0
     f29: 6a           	ror
     f2a: 85 2c        	sta	$2c                     ; 0x202c <printf+0x9e3>
     f2c: a5 3c        	lda	$3c                     ; 0x203c <printf+0x9f3>
     f2e: aa           	tax
     f2f: 30 03        	bmi	$f34 <f256main+0x689>
     f31: 4c d4 0d     	jmp	$dd4 <f256main+0x529>
     f34: 4c 18 0e     	jmp	$e18 <f256main+0x56d>
     f37: 64 35        	stz	$35                     ; 0x2035 <printf+0x9ec>
     f39: 20 00 ff     	jsr	$ff00 <__heap_start+0xd6fc>
     f3c: 92 2a        	sta	($2a)                   ; 0x202a <printf+0x9e1>
     f3e: a9 00        	lda	#$0
     f40: 6a           	ror
     f41: 85 2c        	sta	$2c                     ; 0x202c <printf+0x9e3>
     f43: a6 35        	ldx	$35                     ; 0x2035 <printf+0x9ec>
     f45: e0 38        	cpx	#$38
     f47: d0 03        	bne	$f4c <f256main+0x6a1>
     f49: 4c 41 0e     	jmp	$e41 <f256main+0x596>
     f4c: e0 30        	cpx	#$30
     f4e: d0 03        	bne	$f53 <f256main+0x6a8>
     f50: 4c 41 0e     	jmp	$e41 <f256main+0x596>
     f53: e0 2c        	cpx	#$2c
     f55: d0 e0        	bne	$f37 <f256main+0x68c>
     f57: a2 3c        	ldx	#$3c
     f59: 86 fb        	stx	$fb                     ; 0x20fb <printf+0xab2>
     f5b: a2 00        	ldx	#$0
     f5d: 86 fc        	stx	$fc                     ; 0x20fc <printf+0xab3>
     f5f: a6 3b        	ldx	$3b                     ; 0x203b <printf+0x9f2>
     f61: 86 fd        	stx	$fd                     ; 0x20fd <printf+0xab4>
     f63: 20 04 ff     	jsr	$ff04 <__heap_start+0xd700>
     f66: 92 2a        	sta	($2a)                   ; 0x202a <printf+0x9e1>
     f68: a9 00        	lda	#$0
     f6a: 6a           	ror
     f6b: 85 2c        	sta	$2c                     ; 0x202c <printf+0x9e3>
     f6d: 4c 41 0e     	jmp	$e41 <f256main+0x596>
     f70: e4 16        	cpx	$16                     ; 0x2016 <printf+0x9cd>
     f72: b0 03        	bcs	$f77 <f256main+0x6cc>
     f74: 4c fe 0c     	jmp	$cfe <f256main+0x453>
     f77: a0 14        	ldy	#$14
     f79: a9 01        	lda	#$1
     f7b: 91 12        	sta	($12),y                 ; 0x2012 <printf+0x9c9>
     f7d: e6 26        	inc	$26                     ; 0x2026 <printf+0x9dd>
     f7f: d0 02        	bne	$f83 <f256main+0x6d8>
     f81: e6 25        	inc	$25                     ; 0x2025 <printf+0x9dc>
     f83: a5 25        	lda	$25                     ; 0x2025 <printf+0x9dc>
     f85: a4 26        	ldy	$26                     ; 0x2026 <printf+0x9dd>
     f87: c5 27        	cmp	$27                     ; 0x2027 <printf+0x9de>
     f89: f0 03        	beq	$f8e <f256main+0x6e3>
     f8b: 4c 8c 0c     	jmp	$c8c <f256main+0x3e1>
     f8e: c4 24        	cpy	$24                     ; 0x2024 <printf+0x9db>
     f90: f0 03        	beq	$f95 <f256main+0x6ea>
     f92: 4c 8c 0c     	jmp	$c8c <f256main+0x3e1>
     f95: 64 35        	stz	$35                     ; 0x2035 <printf+0x9ec>
     f97: 20 00 ff     	jsr	$ff00 <__heap_start+0xd6fc>
     f9a: 92 2a        	sta	($2a)                   ; 0x202a <printf+0x9e1>
     f9c: a9 00        	lda	#$0
     f9e: 6a           	ror
     f9f: 85 2c        	sta	$2c                     ; 0x202c <printf+0x9e3>
     fa1: a6 35        	ldx	$35                     ; 0x2035 <printf+0x9ec>
     fa3: e0 08        	cpx	#$8
     fa5: d0 ee        	bne	$f95 <f256main+0x6ea>
     fa7: a6 39        	ldx	$39                     ; 0x2039 <printf+0x9f0>
     fa9: e0 94        	cpx	#$94
     fab: d0 03        	bne	$fb0 <f256main+0x705>
     fad: 4c 89 0c     	jmp	$c89 <f256main+0x3de>
     fb0: e0 20        	cpx	#$20
     fb2: d0 e1        	bne	$f95 <f256main+0x6ea>
     fb4: 4c 89 0c     	jmp	$c89 <f256main+0x3de>
     fb7: 4a           	lsr
     fb8: 85 1a        	sta	$1a                     ; 0x201a <printf+0x9d1>
     fba: 64 19        	stz	$19                     ; 0x2019 <printf+0x9d0>
     fbc: 66 19        	ror	$19                     ; 0x2019 <printf+0x9d0>
     fbe: a6 4b        	ldx	$4b                     ; 0x204b <printf+0xa02>
     fc0: 86 16        	stx	$16                     ; 0x2016 <printf+0x9cd>
     fc2: a6 4c        	ldx	$4c                     ; 0x204c <printf+0xa03>
     fc4: 86 17        	stx	$17                     ; 0x2017 <printf+0x9ce>
     fc6: b2 16        	lda	($16)                   ; 0x2016 <printf+0x9cd>
     fc8: f0 25        	beq	$fef <f256main+0x744>
     fca: 85 f3        	sta	$f3                     ; 0x20f3 <printf+0xaaa>
     fcc: a2 01        	ldx	#$1
     fce: 86 f4        	stx	$f4                     ; 0x20f4 <printf+0xaab>
     fd0: 20 60 ff     	jsr	$ff60 <__heap_start+0xd75c>
     fd3: 92 2a        	sta	($2a)                   ; 0x202a <printf+0x9e1>
     fd5: a9 00        	lda	#$0
     fd7: 6a           	ror
     fd8: 85 2c        	sta	$2c                     ; 0x202c <printf+0x9e3>
     fda: a6 34        	ldx	$34                     ; 0x2034 <printf+0x9eb>
     fdc: d0 03        	bne	$fe1 <f256main+0x736>
     fde: 4c 7a 10     	jmp	$107a <f256main+0x7cf>
     fe1: a6 3c        	ldx	$3c                     ; 0x203c <printf+0x9f3>
     fe3: 80 2a        	bra	$100f <f256main+0x764>
     fe5: 20 0c ff     	jsr	$ff0c <__heap_start+0xd708>
     fe8: 92 2a        	sta	($2a)                   ; 0x202a <printf+0x9e1>
     fea: a9 00        	lda	#$0
     fec: 6a           	ror
     fed: 85 2c        	sta	$2c                     ; 0x202c <printf+0x9e3>
     fef: 64 35        	stz	$35                     ; 0x2035 <printf+0x9ec>
     ff1: 20 00 ff     	jsr	$ff00 <__heap_start+0xd6fc>
     ff4: 92 2a        	sta	($2a)                   ; 0x202a <printf+0x9e1>
     ff6: a9 00        	lda	#$0
     ff8: 6a           	ror
     ff9: 85 2c        	sta	$2c                     ; 0x202c <printf+0x9e3>
     ffb: a6 34        	ldx	$34                     ; 0x2034 <printf+0x9eb>
     ffd: d0 e6        	bne	$fe5 <f256main+0x73a>
     fff: a6 35        	ldx	$35                     ; 0x2035 <printf+0x9ec>
    1001: e0 08        	cpx	#$8
    1003: d0 ea        	bne	$fef <f256main+0x744>
    1005: a6 3b        	ldx	$3b                     ; 0x203b <printf+0x9f2>
    1007: d0 e6        	bne	$fef <f256main+0x744>
    1009: a6 3a        	ldx	$3a                     ; 0x203a <printf+0x9f1>
    100b: a4 3a        	ldy	$3a                     ; 0x203a <printf+0x9f1>
    100d: 84 3c        	sty	$3c                     ; 0x203c <printf+0x9f3>
    100f: 86 16        	stx	$16                     ; 0x2016 <printf+0x9cd>
    1011: a6 49        	ldx	$49                     ; 0x2049 <printf+0xa00>
    1013: 86 2e        	stx	$2e                     ; 0x202e <printf+0x9e5>
    1015: 46 2e        	lsr	$2e                     ; 0x202e <printf+0x9e5>
    1017: 66 24        	ror	$24                     ; 0x2024 <printf+0x9db>
    1019: a6 24        	ldx	$24                     ; 0x2024 <printf+0x9db>
    101b: 86 18        	stx	$18                     ; 0x2018 <printf+0x9cf>
    101d: 64 24        	stz	$24                     ; 0x2024 <printf+0x9db>
    101f: 66 24        	ror	$24                     ; 0x2024 <printf+0x9db>
    1021: a0 04        	ldy	#$4
    1023: b1 12        	lda	($12),y                 ; 0x2012 <printf+0x9c9>
    1025: 85 1c        	sta	$1c                     ; 0x201c <printf+0x9d3>
    1027: a0 01        	ldy	#$1
    1029: b1 14        	lda	($14),y                 ; 0x2014 <printf+0x9cb>
    102b: 85 17        	sta	$17                     ; 0x2017 <printf+0x9ce>
    102d: c8           	iny
    102e: b1 14        	lda	($14),y                 ; 0x2014 <printf+0x9cb>
    1030: 85 1b        	sta	$1b                     ; 0x201b <printf+0x9d2>
    1032: c8           	iny
    1033: b1 14        	lda	($14),y                 ; 0x2014 <printf+0x9cb>
    1035: aa           	tax
    1036: a5 1c        	lda	$1c                     ; 0x201c <printf+0x9d3>
    1038: 1a           	inc
    1039: d0 09        	bne	$1044 <f256main+0x799>
    103b: e6 17        	inc	$17                     ; 0x2017 <printf+0x9ce>
    103d: d0 05        	bne	$1044 <f256main+0x799>
    103f: e6 1b        	inc	$1b                     ; 0x201b <printf+0x9d2>
    1041: d0 01        	bne	$1044 <f256main+0x799>
    1043: e8           	inx
    1044: a0 04        	ldy	#$4
    1046: 91 12        	sta	($12),y                 ; 0x2012 <printf+0x9c9>
    1048: a5 17        	lda	$17                     ; 0x2017 <printf+0x9ce>
    104a: a0 01        	ldy	#$1
    104c: 91 14        	sta	($14),y                 ; 0x2014 <printf+0x9cb>
    104e: a5 1b        	lda	$1b                     ; 0x201b <printf+0x9d2>
    1050: c8           	iny
    1051: 91 14        	sta	($14),y                 ; 0x2014 <printf+0x9cb>
    1053: a5 19        	lda	$19                     ; 0x2019 <printf+0x9d0>
    1055: 29 80        	and	#$80
    1057: 85 19        	sta	$19                     ; 0x2019 <printf+0x9d0>
    1059: a5 1a        	lda	$1a                     ; 0x201a <printf+0x9d1>
    105b: 29 3f        	and	#$3f
    105d: 85 2f        	sta	$2f                     ; 0x202f <printf+0x9e6>
    105f: 8a           	txa
    1060: c8           	iny
    1061: 91 14        	sta	($14),y                 ; 0x2014 <printf+0x9cb>
    1063: 64 17        	stz	$17                     ; 0x2017 <printf+0x9ce>
    1065: a5 16        	lda	$16                     ; 0x2016 <printf+0x9cd>
    1067: 30 4a        	bmi	$10b3 <f256main+0x808>
    1069: 64 1b        	stz	$1b                     ; 0x201b <printf+0x9d2>
    106b: 64 12        	stz	$12                     ; 0x2012 <printf+0x9c9>
    106d: a6 18        	ldx	$18                     ; 0x2018 <printf+0x9cf>
    106f: 86 1a        	stx	$1a                     ; 0x201a <printf+0x9d1>
    1071: a6 2e        	ldx	$2e                     ; 0x202e <printf+0x9e5>
    1073: 86 18        	stx	$18                     ; 0x2018 <printf+0x9cf>
    1075: 64 2e        	stz	$2e                     ; 0x202e <printf+0x9e5>
    1077: 4c 9b 11     	jmp	$119b <f256main+0x8f0>
    107a: 64 35        	stz	$35                     ; 0x2035 <printf+0x9ec>
    107c: 20 00 ff     	jsr	$ff00 <__heap_start+0xd6fc>
    107f: 92 2a        	sta	($2a)                   ; 0x202a <printf+0x9e1>
    1081: a9 00        	lda	#$0
    1083: 6a           	ror
    1084: 85 2c        	sta	$2c                     ; 0x202c <printf+0x9e3>
    1086: a6 35        	ldx	$35                     ; 0x2035 <printf+0x9ec>
    1088: e0 38        	cpx	#$38
    108a: d0 03        	bne	$108f <f256main+0x7e4>
    108c: 4c e1 0f     	jmp	$fe1 <f256main+0x736>
    108f: e0 30        	cpx	#$30
    1091: d0 03        	bne	$1096 <f256main+0x7eb>
    1093: 4c e1 0f     	jmp	$fe1 <f256main+0x736>
    1096: e0 2c        	cpx	#$2c
    1098: d0 e0        	bne	$107a <f256main+0x7cf>
    109a: a2 3c        	ldx	#$3c
    109c: 86 fb        	stx	$fb                     ; 0x20fb <printf+0xab2>
    109e: a2 00        	ldx	#$0
    10a0: 86 fc        	stx	$fc                     ; 0x20fc <printf+0xab3>
    10a2: a6 3b        	ldx	$3b                     ; 0x203b <printf+0x9f2>
    10a4: 86 fd        	stx	$fd                     ; 0x20fd <printf+0xab4>
    10a6: 20 04 ff     	jsr	$ff04 <__heap_start+0xd700>
    10a9: 92 2a        	sta	($2a)                   ; 0x202a <printf+0x9e1>
    10ab: a9 00        	lda	#$0
    10ad: 6a           	ror
    10ae: 85 2c        	sta	$2c                     ; 0x202c <printf+0x9e3>
    10b0: 4c e1 0f     	jmp	$fe1 <f256main+0x736>
    10b3: 46 16        	lsr	$16                     ; 0x2016 <printf+0x9cd>
    10b5: a4 16        	ldy	$16                     ; 0x2016 <printf+0x9cd>
    10b7: 64 1a        	stz	$1a                     ; 0x201a <printf+0x9d1>
    10b9: 66 1a        	ror	$1a                     ; 0x201a <printf+0x9d1>
    10bb: a6 4b        	ldx	$4b                     ; 0x204b <printf+0xa02>
    10bd: 86 16        	stx	$16                     ; 0x2016 <printf+0x9cd>
    10bf: a6 4c        	ldx	$4c                     ; 0x204c <printf+0xa03>
    10c1: 86 17        	stx	$17                     ; 0x2017 <printf+0x9ce>
    10c3: b2 16        	lda	($16)                   ; 0x2016 <printf+0x9cd>
    10c5: f0 53        	beq	$111a <f256main+0x86f>
    10c7: 85 f3        	sta	$f3                     ; 0x20f3 <printf+0xaaa>
    10c9: a2 01        	ldx	#$1
    10cb: 86 f4        	stx	$f4                     ; 0x20f4 <printf+0xaab>
    10cd: 20 60 ff     	jsr	$ff60 <__heap_start+0xd75c>
    10d0: 92 2a        	sta	($2a)                   ; 0x202a <printf+0x9e1>
    10d2: a9 00        	lda	#$0
    10d4: 6a           	ror
    10d5: 85 2c        	sta	$2c                     ; 0x202c <printf+0x9e3>
    10d7: a6 34        	ldx	$34                     ; 0x2034 <printf+0x9eb>
    10d9: f0 03        	beq	$10de <f256main+0x833>
    10db: 4c 38 11     	jmp	$1138 <f256main+0x88d>
    10de: 64 35        	stz	$35                     ; 0x2035 <printf+0x9ec>
    10e0: 20 00 ff     	jsr	$ff00 <__heap_start+0xd6fc>
    10e3: 92 2a        	sta	($2a)                   ; 0x202a <printf+0x9e1>
    10e5: a9 00        	lda	#$0
    10e7: 6a           	ror
    10e8: 85 2c        	sta	$2c                     ; 0x202c <printf+0x9e3>
    10ea: a6 35        	ldx	$35                     ; 0x2035 <printf+0x9ec>
    10ec: e0 38        	cpx	#$38
    10ee: f0 48        	beq	$1138 <f256main+0x88d>
    10f0: e0 30        	cpx	#$30
    10f2: f0 44        	beq	$1138 <f256main+0x88d>
    10f4: e0 2c        	cpx	#$2c
    10f6: d0 e6        	bne	$10de <f256main+0x833>
    10f8: a2 3c        	ldx	#$3c
    10fa: 86 fb        	stx	$fb                     ; 0x20fb <printf+0xab2>
    10fc: a2 00        	ldx	#$0
    10fe: 86 fc        	stx	$fc                     ; 0x20fc <printf+0xab3>
    1100: a6 3b        	ldx	$3b                     ; 0x203b <printf+0x9f2>
    1102: 86 fd        	stx	$fd                     ; 0x20fd <printf+0xab4>
    1104: 20 04 ff     	jsr	$ff04 <__heap_start+0xd700>
    1107: 92 2a        	sta	($2a)                   ; 0x202a <printf+0x9e1>
    1109: a9 00        	lda	#$0
    110b: 6a           	ror
    110c: 85 2c        	sta	$2c                     ; 0x202c <printf+0x9e3>
    110e: 80 28        	bra	$1138 <f256main+0x88d>
    1110: 20 0c ff     	jsr	$ff0c <__heap_start+0xd708>
    1113: 92 2a        	sta	($2a)                   ; 0x202a <printf+0x9e1>
    1115: a9 00        	lda	#$0
    1117: 6a           	ror
    1118: 85 2c        	sta	$2c                     ; 0x202c <printf+0x9e3>
    111a: 64 35        	stz	$35                     ; 0x2035 <printf+0x9ec>
    111c: 20 00 ff     	jsr	$ff00 <__heap_start+0xd6fc>
    111f: 92 2a        	sta	($2a)                   ; 0x202a <printf+0x9e1>
    1121: a9 00        	lda	#$0
    1123: 6a           	ror
    1124: 85 2c        	sta	$2c                     ; 0x202c <printf+0x9e3>
    1126: a6 34        	ldx	$34                     ; 0x2034 <printf+0x9eb>
    1128: d0 e6        	bne	$1110 <f256main+0x865>
    112a: a6 35        	ldx	$35                     ; 0x2035 <printf+0x9ec>
    112c: e0 08        	cpx	#$8
    112e: d0 ea        	bne	$111a <f256main+0x86f>
    1130: a6 3b        	ldx	$3b                     ; 0x203b <printf+0x9f2>
    1132: d0 e6        	bne	$111a <f256main+0x86f>
    1134: a6 3a        	ldx	$3a                     ; 0x203a <printf+0x9f1>
    1136: 86 3c        	stx	$3c                     ; 0x203c <printf+0x9f3>
    1138: a5 1a        	lda	$1a                     ; 0x201a <printf+0x9d1>
    113a: 29 80        	and	#$80
    113c: 85 16        	sta	$16                     ; 0x2016 <printf+0x9cd>
    113e: 98           	tya
    113f: 29 3f        	and	#$3f
    1141: 85 17        	sta	$17                     ; 0x2017 <printf+0x9ce>
    1143: a6 2f        	ldx	$2f                     ; 0x202f <printf+0x9e6>
    1145: 86 1b        	stx	$1b                     ; 0x201b <printf+0x9d2>
    1147: a6 19        	ldx	$19                     ; 0x2019 <printf+0x9d0>
    1149: 86 2f        	stx	$2f                     ; 0x202f <printf+0x9e6>
    114b: 46 1b        	lsr	$1b                     ; 0x201b <printf+0x9d2>
    114d: 66 2f        	ror	$2f                     ; 0x202f <printf+0x9e6>
    114f: 64 19        	stz	$19                     ; 0x2019 <printf+0x9d0>
    1151: 66 19        	ror	$19                     ; 0x2019 <printf+0x9d0>
    1153: 46 2e        	lsr	$2e                     ; 0x202e <printf+0x9e5>
    1155: 66 18        	ror	$18                     ; 0x2018 <printf+0x9cf>
    1157: 66 24        	ror	$24                     ; 0x2024 <printf+0x9db>
    1159: a6 24        	ldx	$24                     ; 0x2024 <printf+0x9db>
    115b: 86 1a        	stx	$1a                     ; 0x201a <printf+0x9d1>
    115d: 64 24        	stz	$24                     ; 0x2024 <printf+0x9db>
    115f: 66 24        	ror	$24                     ; 0x2024 <printf+0x9db>
    1161: a0 04        	ldy	#$4
    1163: b1 12        	lda	($12),y                 ; 0x2012 <printf+0x9c9>
    1165: aa           	tax
    1166: a0 01        	ldy	#$1
    1168: b1 14        	lda	($14),y                 ; 0x2014 <printf+0x9cb>
    116a: 85 1d        	sta	$1d                     ; 0x201d <printf+0x9d4>
    116c: c8           	iny
    116d: b1 14        	lda	($14),y                 ; 0x2014 <printf+0x9cb>
    116f: 85 1c        	sta	$1c                     ; 0x201c <printf+0x9d3>
    1171: c8           	iny
    1172: b1 14        	lda	($14),y                 ; 0x2014 <printf+0x9cb>
    1174: e8           	inx
    1175: d0 09        	bne	$1180 <f256main+0x8d5>
    1177: e6 1d        	inc	$1d                     ; 0x201d <printf+0x9d4>
    1179: d0 05        	bne	$1180 <f256main+0x8d5>
    117b: e6 1c        	inc	$1c                     ; 0x201c <printf+0x9d3>
    117d: d0 01        	bne	$1180 <f256main+0x8d5>
    117f: 1a           	inc
    1180: 85 1e        	sta	$1e                     ; 0x201e <printf+0x9d5>
    1182: 8a           	txa
    1183: a0 04        	ldy	#$4
    1185: 91 12        	sta	($12),y                 ; 0x2012 <printf+0x9c9>
    1187: a0 01        	ldy	#$1
    1189: a5 1d        	lda	$1d                     ; 0x201d <printf+0x9d4>
    118b: 91 14        	sta	($14),y                 ; 0x2014 <printf+0x9cb>
    118d: a5 1c        	lda	$1c                     ; 0x201c <printf+0x9d3>
    118f: c8           	iny
    1190: 91 14        	sta	($14),y                 ; 0x2014 <printf+0x9cb>
    1192: c8           	iny
    1193: a5 1e        	lda	$1e                     ; 0x201e <printf+0x9d5>
    1195: 91 14        	sta	($14),y                 ; 0x2014 <printf+0x9cb>
    1197: a6 3c        	ldx	$3c                     ; 0x203c <printf+0x9f3>
    1199: 86 12        	stx	$12                     ; 0x2012 <printf+0x9c9>
    119b: a5 24        	lda	$24                     ; 0x2024 <printf+0x9db>
    119d: 05 19        	ora	$19                     ; 0x2019 <printf+0x9d0>
    119f: aa           	tax
    11a0: a5 1a        	lda	$1a                     ; 0x201a <printf+0x9d1>
    11a2: 05 2f        	ora	$2f                     ; 0x202f <printf+0x9e6>
    11a4: 85 14        	sta	$14                     ; 0x2014 <printf+0x9cb>
    11a6: a5 18        	lda	$18                     ; 0x2018 <printf+0x9cf>
    11a8: 05 1b        	ora	$1b                     ; 0x201b <printf+0x9d2>
    11aa: 85 2f        	sta	$2f                     ; 0x202f <printf+0x9e6>
    11ac: 8a           	txa
    11ad: 05 16        	ora	$16                     ; 0x2016 <printf+0x9cd>
    11af: aa           	tax
    11b0: a5 14        	lda	$14                     ; 0x2014 <printf+0x9cb>
    11b2: 05 17        	ora	$17                     ; 0x2017 <printf+0x9ce>
    11b4: 85 24        	sta	$24                     ; 0x2024 <printf+0x9db>
    11b6: 8a           	txa
    11b7: 05 12        	ora	$12                     ; 0x2012 <printf+0x9c9>
    11b9: 85 27        	sta	$27                     ; 0x2027 <printf+0x9de>
    11bb: a2 15        	ldx	#$15
    11bd: 86 12        	stx	$12                     ; 0x2012 <printf+0x9c9>
    11bf: 64 13        	stz	$13                     ; 0x2013 <printf+0x9ca>
    11c1: a2 00        	ldx	#$0
    11c3: a5 26        	lda	$26                     ; 0x2026 <printf+0x9dd>
    11c5: 20 0b 27     	jsr	$270b <__mulhi3>
    11c8: 85 12        	sta	$12                     ; 0x2012 <printf+0x9c9>
    11ca: 86 13        	stx	$13                     ; 0x2013 <printf+0x9ca>
    11cc: a5 28        	lda	$28                     ; 0x2028 <printf+0x9df>
    11ce: 18           	clc
    11cf: 65 12        	adc	$12                     ; 0x2012 <printf+0x9c9>
    11d1: aa           	tax
    11d2: a5 29        	lda	$29                     ; 0x2029 <printf+0x9e0>
    11d4: 65 13        	adc	$13                     ; 0x2013 <printf+0x9ca>
    11d6: 86 12        	stx	$12                     ; 0x2012 <printf+0x9c9>
    11d8: 85 13        	sta	$13                     ; 0x2013 <printf+0x9ca>
    11da: a8           	tay
    11db: 18           	clc
    11dc: 8a           	txa
    11dd: 69 0c        	adc	#$c
    11df: 85 14        	sta	$14                     ; 0x2014 <printf+0x9cb>
    11e1: 98           	tya
    11e2: 69 00        	adc	#$0
    11e4: 85 15        	sta	$15                     ; 0x2015 <printf+0x9cc>
    11e6: a0 0c        	ldy	#$c
    11e8: a5 27        	lda	$27                     ; 0x2027 <printf+0x9de>
    11ea: 91 12        	sta	($12),y                 ; 0x2012 <printf+0x9c9>
    11ec: a0 01        	ldy	#$1
    11ee: a5 24        	lda	$24                     ; 0x2024 <printf+0x9db>
    11f0: 91 14        	sta	($14),y                 ; 0x2014 <printf+0x9cb>
    11f2: c8           	iny
    11f3: a5 2f        	lda	$2f                     ; 0x202f <printf+0x9e6>
    11f5: 91 14        	sta	($14),y                 ; 0x2014 <printf+0x9cb>
    11f7: c8           	iny
    11f8: a5 2e        	lda	$2e                     ; 0x202e <printf+0x9e5>
    11fa: 91 14        	sta	($14),y                 ; 0x2014 <printf+0x9cb>
    11fc: a2 15        	ldx	#$15
    11fe: 86 12        	stx	$12                     ; 0x2012 <printf+0x9c9>
    1200: 64 13        	stz	$13                     ; 0x2013 <printf+0x9ca>
    1202: a6 25        	ldx	$25                     ; 0x2025 <printf+0x9dc>
    1204: a5 26        	lda	$26                     ; 0x2026 <printf+0x9dd>
    1206: 20 0b 27     	jsr	$270b <__mulhi3>
    1209: 18           	clc
    120a: 65 28        	adc	$28                     ; 0x2028 <printf+0x9df>
    120c: a8           	tay
    120d: 8a           	txa
    120e: 65 29        	adc	$29                     ; 0x2029 <printf+0x9e0>
    1210: aa           	tax
    1211: 98           	tya
    1212: 84 2e        	sty	$2e                     ; 0x202e <printf+0x9e5>
    1214: 86 2f        	stx	$2f                     ; 0x202f <printf+0x9e6>
    1216: 18           	clc
    1217: 69 04        	adc	#$4
    1219: 85 12        	sta	$12                     ; 0x2012 <printf+0x9c9>
    121b: 8a           	txa
    121c: 69 00        	adc	#$0
    121e: a6 28        	ldx	$28                     ; 0x2028 <printf+0x9df>
    1220: 86 49        	stx	$49                     ; 0x2049 <printf+0xa00>
    1222: a6 29        	ldx	$29                     ; 0x2029 <printf+0x9e0>
    1224: 86 4a        	stx	$4a                     ; 0x204a <printf+0xa01>
    1226: a6 12        	ldx	$12                     ; 0x2012 <printf+0x9c9>
    1228: 86 28        	stx	$28                     ; 0x2028 <printf+0x9df>
    122a: 85 29        	sta	$29                     ; 0x2029 <printf+0x9e0>
    122c: a0 04        	ldy	#$4
    122e: b1 2e        	lda	($2e),y                 ; 0x202e <printf+0x9e5>
    1230: 85 12        	sta	$12                     ; 0x2012 <printf+0x9c9>
    1232: 0a           	asl
    1233: aa           	tax
    1234: a5 26        	lda	$26                     ; 0x2026 <printf+0x9dd>
    1236: 0a           	asl
    1237: 18           	clc
    1238: 69 0f        	adc	#$f
    123a: a8           	tay
    123b: 18           	clc
    123c: 8a           	txa
    123d: 65 12        	adc	$12                     ; 0x2012 <printf+0x9c9>
    123f: 85 30        	sta	$30                     ; 0x2030 <printf+0x9e7>
    1241: 8d 14 d0     	sta	$d014                   ; 0xd014 <__heap_start+0xa810>
    1244: 9c 15 d0     	stz	$d015                   ; 0xd015 <__heap_start+0xa811>
    1247: 84 31        	sty	$31                     ; 0x2031 <printf+0x9e8>
    1249: 8c 16 d0     	sty	$d016                   ; 0xd016 <__heap_start+0xa812>
    124c: 9c 17 d0     	stz	$d017                   ; 0xd017 <__heap_start+0xa813>
    124f: a5 41        	lda	$41                     ; 0x2041 <printf+0x9f8>
    1251: 92 10        	sta	($10)                   ; 0x2010 <printf+0x9c7>
    1253: a9 00        	lda	#$0
    1255: a0 01        	ldy	#$1
    1257: 91 10        	sta	($10),y                 ; 0x2010 <printf+0x9c7>
    1259: a2 de        	ldx	#$de
    125b: 86 12        	stx	$12                     ; 0x2012 <printf+0x9c9>
    125d: a2 27        	ldx	#$27
    125f: 86 13        	stx	$13                     ; 0x2013 <printf+0x9ca>
    1261: 20 49 16     	jsr	$1649 <printf>
    1264: a0 04        	ldy	#$4
    1266: b1 2e        	lda	($2e),y                 ; 0x202e <printf+0x9e5>
    1268: 85 14        	sta	$14                     ; 0x2014 <printf+0x9cb>
    126a: a0 01        	ldy	#$1
    126c: b1 28        	lda	($28),y                 ; 0x2028 <printf+0x9df>
    126e: aa           	tax
    126f: c8           	iny
    1270: b1 28        	lda	($28),y                 ; 0x2028 <printf+0x9df>
    1272: 85 12        	sta	$12                     ; 0x2012 <printf+0x9c9>
    1274: c8           	iny
    1275: b1 28        	lda	($28),y                 ; 0x2028 <printf+0x9df>
    1277: 85 13        	sta	$13                     ; 0x2013 <printf+0x9ca>
    1279: a5 14        	lda	$14                     ; 0x2014 <printf+0x9cb>
    127b: 1a           	inc
    127c: d0 09        	bne	$1287 <f256main+0x9dc>
    127e: e8           	inx
    127f: d0 06        	bne	$1287 <f256main+0x9dc>
    1281: e6 12        	inc	$12                     ; 0x2012 <printf+0x9c9>
    1283: d0 02        	bne	$1287 <f256main+0x9dc>
    1285: e6 13        	inc	$13                     ; 0x2013 <printf+0x9ca>
    1287: a0 04        	ldy	#$4
    1289: 91 2e        	sta	($2e),y                 ; 0x202e <printf+0x9e5>
    128b: 8a           	txa
    128c: a0 01        	ldy	#$1
    128e: 91 28        	sta	($28),y                 ; 0x2028 <printf+0x9df>
    1290: c8           	iny
    1291: a5 12        	lda	$12                     ; 0x2012 <printf+0x9c9>
    1293: 91 28        	sta	($28),y                 ; 0x2028 <printf+0x9df>
    1295: c8           	iny
    1296: a5 13        	lda	$13                     ; 0x2013 <printf+0x9ca>
    1298: 91 28        	sta	($28),y                 ; 0x2028 <printf+0x9df>
    129a: a6 49        	ldx	$49                     ; 0x2049 <printf+0xa00>
    129c: 86 28        	stx	$28                     ; 0x2028 <printf+0x9df>
    129e: a6 4a        	ldx	$4a                     ; 0x204a <printf+0xa01>
    12a0: 86 29        	stx	$29                     ; 0x2029 <printf+0x9e0>
    12a2: a6 4d        	ldx	$4d                     ; 0x204d <printf+0xa04>
    12a4: 86 24        	stx	$24                     ; 0x2024 <printf+0x9db>
    12a6: a6 4e        	ldx	$4e                     ; 0x204e <printf+0xa05>
    12a8: 86 27        	stx	$27                     ; 0x2027 <printf+0x9de>
    12aa: e6 26        	inc	$26                     ; 0x2026 <printf+0x9dd>
    12ac: d0 03        	bne	$12b1 <f256main+0xa06>
    12ae: 4c 81 0f     	jmp	$f81 <f256main+0x6d6>
    12b1: 4c 83 0f     	jmp	$f83 <f256main+0x6d8>
    12b4: a6 3d        	ldx	$3d                     ; 0x203d <printf+0x9f4>
    12b6: 86 28        	stx	$28                     ; 0x2028 <printf+0x9df>
    12b8: 64 35        	stz	$35                     ; 0x2035 <printf+0x9ec>
    12ba: 20 00 ff     	jsr	$ff00 <__heap_start+0xd6fc>
    12bd: 92 12        	sta	($12)                   ; 0x2012 <printf+0x9c9>
    12bf: a9 00        	lda	#$0
    12c1: 6a           	ror
    12c2: 85 24        	sta	$24                     ; 0x2024 <printf+0x9db>
    12c4: a6 35        	ldx	$35                     ; 0x2035 <printf+0x9ec>
    12c6: e0 28        	cpx	#$28
    12c8: d0 03        	bne	$12cd <f256main+0xa22>
    12ca: 4c 42 09     	jmp	$942 <f256main+0x97>
    12cd: e0 38        	cpx	#$38
    12cf: d0 03        	bne	$12d4 <f256main+0xa29>
    12d1: 4c 42 09     	jmp	$942 <f256main+0x97>
    12d4: e0 2a        	cpx	#$2a
    12d6: d0 e0        	bne	$12b8 <f256main+0xa0d>
    12d8: a9 01        	lda	#$1
    12da: a2 00        	ldx	#$0
    12dc: a4 12        	ldy	$12                     ; 0x2012 <printf+0x9c9>
    12de: 84 26        	sty	$26                     ; 0x2026 <printf+0x9dd>
    12e0: a4 13        	ldy	$13                     ; 0x2013 <printf+0x9ca>
    12e2: 84 27        	sty	$27                     ; 0x2027 <printf+0x9de>
    12e4: 20 09 24     	jsr	$2409 <malloc>
    12e7: a6 12        	ldx	$12                     ; 0x2012 <printf+0x9c9>
    12e9: 86 14        	stx	$14                     ; 0x2014 <printf+0x9cb>
    12eb: a6 13        	ldx	$13                     ; 0x2013 <printf+0x9ca>
    12ed: 86 15        	stx	$15                     ; 0x2015 <printf+0x9cc>
    12ef: a6 26        	ldx	$26                     ; 0x2026 <printf+0x9dd>
    12f1: 86 12        	stx	$12                     ; 0x2012 <printf+0x9c9>
    12f3: a6 27        	ldx	$27                     ; 0x2027 <printf+0x9de>
    12f5: 86 13        	stx	$13                     ; 0x2013 <printf+0x9ca>
    12f7: a6 14        	ldx	$14                     ; 0x2014 <printf+0x9cb>
    12f9: 86 16        	stx	$16                     ; 0x2016 <printf+0x9cd>
    12fb: a6 15        	ldx	$15                     ; 0x2015 <printf+0x9cc>
    12fd: 86 17        	stx	$17                     ; 0x2017 <printf+0x9ce>
    12ff: a6 16        	ldx	$16                     ; 0x2016 <printf+0x9cd>
    1301: 86 4b        	stx	$4b                     ; 0x204b <printf+0xa02>
    1303: a6 17        	ldx	$17                     ; 0x2017 <printf+0x9ce>
    1305: 86 4c        	stx	$4c                     ; 0x204c <printf+0xa03>
    1307: a5 28        	lda	$28                     ; 0x2028 <printf+0x9df>
    1309: 92 14        	sta	($14)                   ; 0x2014 <printf+0x9cb>
    130b: 4c 42 09     	jmp	$942 <f256main+0x97>
    130e: a2 01        	ldx	#$1
    1310: 86 49        	stx	$49                     ; 0x2049 <printf+0xa00>
    1312: 4c 33 0a     	jmp	$a33 <f256main+0x188>

00001315 <fileRead>:
    1315: 85 16        	sta	$16                     ; 0x2016 <printf+0x9cd>
    1317: 86 17        	stx	$17                     ; 0x2017 <printf+0x9ce>
    1319: 64 18        	stz	$18                     ; 0x2018 <printf+0x9cf>
    131b: a6 12        	ldx	$12                     ; 0x2012 <printf+0x9c9>
    131d: 86 1a        	stx	$1a                     ; 0x201a <printf+0x9d1>
    131f: a6 13        	ldx	$13                     ; 0x2013 <printf+0x9ca>
    1321: 86 1b        	stx	$1b                     ; 0x201b <printf+0x9d2>
    1323: a2 5a        	ldx	#$5a
    1325: a0 00        	ldy	#$0
    1327: a9 34        	lda	#$34
    1329: 85 12        	sta	$12                     ; 0x2012 <printf+0x9c9>
    132b: a9 00        	lda	#$0
    132d: 85 13        	sta	$13                     ; 0x2013 <printf+0x9ca>
    132f: 64 19        	stz	$19                     ; 0x2019 <printf+0x9d0>
    1331: b2 14        	lda	($14)                   ; 0x2014 <printf+0x9cb>
    1333: 85 1d        	sta	$1d                     ; 0x201d <printf+0x9d4>
    1335: a5 1a        	lda	$1a                     ; 0x201a <printf+0x9d1>
    1337: 85 1e        	sta	$1e                     ; 0x201e <printf+0x9d5>
    1339: a5 1a        	lda	$1a                     ; 0x201a <printf+0x9d1>
    133b: 18           	clc
    133c: 65 18        	adc	$18                     ; 0x2018 <printf+0x9cf>
    133e: 85 1c        	sta	$1c                     ; 0x201c <printf+0x9d3>
    1340: a5 1b        	lda	$1b                     ; 0x201b <printf+0x9d2>
    1342: 85 1f        	sta	$1f                     ; 0x201f <printf+0x9d6>
    1344: a5 1b        	lda	$1b                     ; 0x201b <printf+0x9d2>
    1346: 65 19        	adc	$19                     ; 0x2019 <printf+0x9d0>
    1348: e6 1d        	inc	$1d                     ; 0x201d <printf+0x9d4>
    134a: c6 1d        	dec	$1d                     ; 0x201d <printf+0x9d4>
    134c: d0 03        	bne	$1351 <fileRead+0x3c>
    134e: 4c ce 13     	jmp	$13ce <fileRead+0xb9>
    1351: 5a           	phy
    1352: a4 1d        	ldy	$1d                     ; 0x201d <printf+0x9d4>
    1354: 84 1a        	sty	$1a                     ; 0x201a <printf+0x9d1>
    1356: 7a           	ply
    1357: 85 1d        	sta	$1d                     ; 0x201d <printf+0x9d4>
    1359: a5 16        	lda	$16                     ; 0x2016 <printf+0x9cd>
    135b: 38           	sec
    135c: e5 18        	sbc	$18                     ; 0x2018 <printf+0x9cf>
    135e: 85 1b        	sta	$1b                     ; 0x201b <printf+0x9d2>
    1360: a5 1a        	lda	$1a                     ; 0x201a <printf+0x9d1>
    1362: 85 f3        	sta	$f3                     ; 0x20f3 <printf+0xaaa>
    1364: a5 1b        	lda	$1b                     ; 0x201b <printf+0x9d2>
    1366: 85 f4        	sta	$f4                     ; 0x20f4 <printf+0xaab>
    1368: a9 5c        	lda	#$5c
    136a: 85 1a        	sta	$1a                     ; 0x201a <printf+0x9d1>
    136c: a9 00        	lda	#$0
    136e: 85 1b        	sta	$1b                     ; 0x201b <printf+0x9d2>
    1370: 20 60 ff     	jsr	$ff60 <__heap_start+0xd75c>
    1373: 92 1a        	sta	($1a)                   ; 0x201a <printf+0x9d1>
    1375: a9 00        	lda	#$0
    1377: 6a           	ror
    1378: 85 12        	sta	$12                     ; 0x2012 <printf+0x9c9>
    137a: a5 34        	lda	$34                     ; 0x2034 <printf+0x9eb>
    137c: f0 03        	beq	$1381 <fileRead+0x6c>
    137e: 4c 4a 14     	jmp	$144a <fileRead+0x135>
    1381: 64 35        	stz	$35                     ; 0x2035 <printf+0x9ec>
    1383: a9 5d        	lda	#$5d
    1385: 85 1a        	sta	$1a                     ; 0x201a <printf+0x9d1>
    1387: a9 00        	lda	#$0
    1389: 85 1b        	sta	$1b                     ; 0x201b <printf+0x9d2>
    138b: 20 00 ff     	jsr	$ff00 <__heap_start+0xd6fc>
    138e: 92 1a        	sta	($1a)                   ; 0x201a <printf+0x9d1>
    1390: a9 00        	lda	#$0
    1392: 6a           	ror
    1393: 85 12        	sta	$12                     ; 0x2012 <printf+0x9c9>
    1395: a5 35        	lda	$35                     ; 0x2035 <printf+0x9ec>
    1397: c9 38        	cmp	#$38
    1399: d0 03        	bne	$139e <fileRead+0x89>
    139b: 4c 4a 14     	jmp	$144a <fileRead+0x135>
    139e: c9 30        	cmp	#$30
    13a0: d0 03        	bne	$13a5 <fileRead+0x90>
    13a2: 4c 53 14     	jmp	$1453 <fileRead+0x13e>
    13a5: c9 2c        	cmp	#$2c
    13a7: d0 d8        	bne	$1381 <fileRead+0x6c>
    13a9: a5 1c        	lda	$1c                     ; 0x201c <printf+0x9d3>
    13ab: 85 fb        	sta	$fb                     ; 0x20fb <printf+0xab2>
    13ad: a5 1d        	lda	$1d                     ; 0x201d <printf+0x9d4>
    13af: 85 fc        	sta	$fc                     ; 0x20fc <printf+0xab3>
    13b1: a5 3b        	lda	$3b                     ; 0x203b <printf+0x9f2>
    13b3: 85 fd        	sta	$fd                     ; 0x20fd <printf+0xab4>
    13b5: a9 5e        	lda	#$5e
    13b7: 85 1a        	sta	$1a                     ; 0x201a <printf+0x9d1>
    13b9: a9 00        	lda	#$0
    13bb: 85 1b        	sta	$1b                     ; 0x201b <printf+0x9d2>
    13bd: 20 04 ff     	jsr	$ff04 <__heap_start+0xd700>
    13c0: 92 1a        	sta	($1a)                   ; 0x201a <printf+0x9d1>
    13c2: a9 00        	lda	#$0
    13c4: 6a           	ror
    13c5: 85 12        	sta	$12                     ; 0x2012 <printf+0x9c9>
    13c7: a5 3b        	lda	$3b                     ; 0x203b <printf+0x9f2>
    13c9: d0 43        	bne	$140e <fileRead+0xf9>
    13cb: 4c 5d 14     	jmp	$145d <fileRead+0x148>
    13ce: 5a           	phy
    13cf: a4 1c        	ldy	$1c                     ; 0x201c <printf+0x9d3>
    13d1: 84 1a        	sty	$1a                     ; 0x201a <printf+0x9d1>
    13d3: 7a           	ply
    13d4: 85 1b        	sta	$1b                     ; 0x201b <printf+0x9d2>
    13d6: 80 12        	bra	$13ea <fileRead+0xd5>
    13d8: a9 5b        	lda	#$5b
    13da: 85 1c        	sta	$1c                     ; 0x201c <printf+0x9d3>
    13dc: a9 00        	lda	#$0
    13de: 85 1d        	sta	$1d                     ; 0x201d <printf+0x9d4>
    13e0: 20 0c ff     	jsr	$ff0c <__heap_start+0xd708>
    13e3: 92 1c        	sta	($1c)                   ; 0x201c <printf+0x9d3>
    13e5: a9 00        	lda	#$0
    13e7: 6a           	ror
    13e8: 85 12        	sta	$12                     ; 0x2012 <printf+0x9c9>
    13ea: 64 35        	stz	$35                     ; 0x2035 <printf+0x9ec>
    13ec: 86 1c        	stx	$1c                     ; 0x201c <printf+0x9d3>
    13ee: 84 1d        	sty	$1d                     ; 0x201d <printf+0x9d4>
    13f0: 20 00 ff     	jsr	$ff00 <__heap_start+0xd6fc>
    13f3: 92 1c        	sta	($1c)                   ; 0x201c <printf+0x9d3>
    13f5: a9 00        	lda	#$0
    13f7: 6a           	ror
    13f8: 85 12        	sta	$12                     ; 0x2012 <printf+0x9c9>
    13fa: a5 34        	lda	$34                     ; 0x2034 <printf+0x9eb>
    13fc: d0 da        	bne	$13d8 <fileRead+0xc3>
    13fe: a5 35        	lda	$35                     ; 0x2035 <printf+0x9ec>
    1400: c9 08        	cmp	#$8
    1402: d0 e6        	bne	$13ea <fileRead+0xd5>
    1404: a5 3b        	lda	$3b                     ; 0x203b <printf+0x9f2>
    1406: d0 e2        	bne	$13ea <fileRead+0xd5>
    1408: a5 3a        	lda	$3a                     ; 0x203a <printf+0x9f1>
    140a: 92 1a        	sta	($1a)                   ; 0x201a <printf+0x9d1>
    140c: a9 01        	lda	#$1
    140e: 85 5f        	sta	$5f                     ; 0x205f <printf+0xa16>
    1410: a9 00        	lda	#$0
    1412: 85 60        	sta	$60                     ; 0x2060 <printf+0xa17>
    1414: 18           	clc
    1415: a5 5f        	lda	$5f                     ; 0x205f <printf+0xa16>
    1417: 65 18        	adc	$18                     ; 0x2018 <printf+0x9cf>
    1419: 85 5f        	sta	$5f                     ; 0x205f <printf+0xa16>
    141b: a5 60        	lda	$60                     ; 0x2060 <printf+0xa17>
    141d: 65 19        	adc	$19                     ; 0x2019 <printf+0x9d0>
    141f: c5 17        	cmp	$17                     ; 0x2017 <printf+0x9ce>
    1421: d0 0a        	bne	$142d <fileRead+0x118>
    1423: 85 19        	sta	$19                     ; 0x2019 <printf+0x9d0>
    1425: a5 5f        	lda	$5f                     ; 0x205f <printf+0xa16>
    1427: 85 18        	sta	$18                     ; 0x2018 <printf+0x9cf>
    1429: c5 16        	cmp	$16                     ; 0x2016 <printf+0x9cd>
    142b: 80 08        	bra	$1435 <fileRead+0x120>
    142d: c5 17        	cmp	$17                     ; 0x2017 <printf+0x9ce>
    142f: 85 19        	sta	$19                     ; 0x2019 <printf+0x9d0>
    1431: a5 5f        	lda	$5f                     ; 0x205f <printf+0xa16>
    1433: 85 18        	sta	$18                     ; 0x2018 <printf+0x9cf>
    1435: a5 19        	lda	$19                     ; 0x2019 <printf+0x9d0>
    1437: 5a           	phy
    1438: a4 1e        	ldy	$1e                     ; 0x201e <printf+0x9d5>
    143a: 84 1a        	sty	$1a                     ; 0x201a <printf+0x9d1>
    143c: a4 1f        	ldy	$1f                     ; 0x201f <printf+0x9d6>
    143e: 84 1b        	sty	$1b                     ; 0x201b <printf+0x9d2>
    1440: 7a           	ply
    1441: b0 03        	bcs	$1446 <fileRead+0x131>
    1443: 4c 31 13     	jmp	$1331 <fileRead+0x1c>
    1446: aa           	tax
    1447: a5 5f        	lda	$5f                     ; 0x205f <printf+0xa16>
    1449: 60           	rts
    144a: a9 ff        	lda	#$ff
    144c: aa           	tax
    144d: 86 5f        	stx	$5f                     ; 0x205f <printf+0xa16>
    144f: aa           	tax
    1450: a5 5f        	lda	$5f                     ; 0x205f <printf+0xa16>
    1452: 60           	rts
    1453: a6 18        	ldx	$18                     ; 0x2018 <printf+0x9cf>
    1455: 86 5f        	stx	$5f                     ; 0x205f <printf+0xa16>
    1457: a5 19        	lda	$19                     ; 0x2019 <printf+0x9d0>
    1459: aa           	tax
    145a: a5 5f        	lda	$5f                     ; 0x205f <printf+0xa16>
    145c: 60           	rts
    145d: a9 00        	lda	#$0
    145f: 85 5f        	sta	$5f                     ; 0x205f <printf+0xa16>
    1461: 1a           	inc
    1462: 4c 12 14     	jmp	$1412 <fileRead+0xfd>

00001465 <exit>:
    1465: 20 14 03     	jsr	$314 <_fini>
    1468: 80 fe        	bra	$1468 <exit+0x3>

0000146a <_ZN12_GLOBAL__N_13putEcP6Status>:
    146a: 85 18        	sta	$18                     ; 0x2018 <printf+0x9cf>
    146c: a6 13        	ldx	$13                     ; 0x2013 <printf+0x9ca>
    146e: 18           	clc
    146f: a5 12        	lda	$12                     ; 0x2012 <printf+0x9c9>
    1471: 69 05        	adc	#$5
    1473: a8           	tay
    1474: a5 13        	lda	$13                     ; 0x2013 <printf+0x9ca>
    1476: 86 15        	stx	$15                     ; 0x2015 <printf+0x9cc>
    1478: 69 00        	adc	#$0
    147a: 18           	clc
    147b: 84 16        	sty	$16                     ; 0x2016 <printf+0x9cd>
    147d: a0 05        	ldy	#$5
    147f: 85 17        	sta	$17                     ; 0x2017 <printf+0x9ce>
    1481: b1 12        	lda	($12),y                 ; 0x2012 <printf+0x9c9>
    1483: aa           	tax
    1484: a5 12        	lda	$12                     ; 0x2012 <printf+0x9c9>
    1486: 69 03        	adc	#$3
    1488: 85 14        	sta	$14                     ; 0x2014 <printf+0x9cb>
    148a: a5 15        	lda	$15                     ; 0x2015 <printf+0x9cc>
    148c: 69 00        	adc	#$0
    148e: 85 15        	sta	$15                     ; 0x2015 <printf+0x9cc>
    1490: a0 01        	ldy	#$1
    1492: b1 16        	lda	($16),y                 ; 0x2016 <printf+0x9cd>
    1494: d1 14        	cmp	($14),y                 ; 0x2014 <printf+0x9cb>
    1496: d0 11        	bne	$14a9 <_ZN12_GLOBAL__N_13putEcP6Status+0x3f>
    1498: a0 03        	ldy	#$3
    149a: 85 17        	sta	$17                     ; 0x2017 <printf+0x9ce>
    149c: b1 12        	lda	($12),y                 ; 0x2012 <printf+0x9c9>
    149e: 85 14        	sta	$14                     ; 0x2014 <printf+0x9cb>
    14a0: 86 16        	stx	$16                     ; 0x2016 <printf+0x9cd>
    14a2: e4 14        	cpx	$14                     ; 0x2014 <printf+0x9cb>
    14a4: 90 0e        	bcc	$14b4 <_ZN12_GLOBAL__N_13putEcP6Status+0x4a>
    14a6: 4c 15 15     	jmp	$1515 <_ZN12_GLOBAL__N_13putEcP6Status+0xab>
    14a9: 86 16        	stx	$16                     ; 0x2016 <printf+0x9cd>
    14ab: d1 14        	cmp	($14),y                 ; 0x2014 <printf+0x9cb>
    14ad: 85 17        	sta	$17                     ; 0x2017 <printf+0x9ce>
    14af: 90 03        	bcc	$14b4 <_ZN12_GLOBAL__N_13putEcP6Status+0x4a>
    14b1: 4c 15 15     	jmp	$1515 <_ZN12_GLOBAL__N_13putEcP6Status+0xab>
    14b4: a5 12        	lda	$12                     ; 0x2012 <printf+0x9c9>
    14b6: 18           	clc
    14b7: 69 0f        	adc	#$f
    14b9: 85 14        	sta	$14                     ; 0x2014 <printf+0x9cb>
    14bb: a5 13        	lda	$13                     ; 0x2013 <printf+0x9ca>
    14bd: 69 00        	adc	#$0
    14bf: 85 15        	sta	$15                     ; 0x2015 <printf+0x9cc>
    14c1: a0 01        	ldy	#$1
    14c3: b1 14        	lda	($14),y                 ; 0x2014 <printf+0x9cb>
    14c5: a2 00        	ldx	#$0
    14c7: 86 14        	stx	$14                     ; 0x2014 <printf+0x9cb>
    14c9: a2 00        	ldx	#$0
    14cb: 86 15        	stx	$15                     ; 0x2015 <printf+0x9cc>
    14cd: c5 15        	cmp	$15                     ; 0x2015 <printf+0x9cc>
    14cf: d0 2d        	bne	$14fe <_ZN12_GLOBAL__N_13putEcP6Status+0x94>
    14d1: a0 0f        	ldy	#$f
    14d3: b1 12        	lda	($12),y                 ; 0x2012 <printf+0x9c9>
    14d5: c5 14        	cmp	$14                     ; 0x2014 <printf+0x9cb>
    14d7: d0 25        	bne	$14fe <_ZN12_GLOBAL__N_13putEcP6Status+0x94>
    14d9: a5 12        	lda	$12                     ; 0x2012 <printf+0x9c9>
    14db: 18           	clc
    14dc: 69 09        	adc	#$9
    14de: 85 14        	sta	$14                     ; 0x2014 <printf+0x9cb>
    14e0: a5 13        	lda	$13                     ; 0x2013 <printf+0x9ca>
    14e2: 69 00        	adc	#$0
    14e4: a0 09        	ldy	#$9
    14e6: 85 15        	sta	$15                     ; 0x2015 <printf+0x9cc>
    14e8: 18           	clc
    14e9: a5 16        	lda	$16                     ; 0x2016 <printf+0x9cd>
    14eb: 71 12        	adc	($12),y                 ; 0x2012 <printf+0x9c9>
    14ed: aa           	tax
    14ee: a0 01        	ldy	#$1
    14f0: a5 17        	lda	$17                     ; 0x2017 <printf+0x9ce>
    14f2: 71 14        	adc	($14),y                 ; 0x2014 <printf+0x9cb>
    14f4: 86 14        	stx	$14                     ; 0x2014 <printf+0x9cb>
    14f6: 85 15        	sta	$15                     ; 0x2015 <printf+0x9cc>
    14f8: a5 18        	lda	$18                     ; 0x2018 <printf+0x9cf>
    14fa: 92 14        	sta	($14)                   ; 0x2014 <printf+0x9cb>
    14fc: 80 17        	bra	$1515 <_ZN12_GLOBAL__N_13putEcP6Status+0xab>
    14fe: a6 12        	ldx	$12                     ; 0x2012 <printf+0x9c9>
    1500: 86 af        	stx	$af                     ; 0x20af <printf+0xa66>
    1502: a6 13        	ldx	$13                     ; 0x2013 <printf+0x9ca>
    1504: 86 b0        	stx	$b0                     ; 0x20b0 <printf+0xa67>
    1506: a2 00        	ldx	#$0
    1508: a5 18        	lda	$18                     ; 0x2018 <printf+0x9cf>
    150a: 20 22 22     	jsr	$2222 <putchar>
    150d: a6 af        	ldx	$af                     ; 0x20af <printf+0xa66>
    150f: 86 12        	stx	$12                     ; 0x2012 <printf+0x9c9>
    1511: a6 b0        	ldx	$b0                     ; 0x20b0 <printf+0xa67>
    1513: 86 13        	stx	$13                     ; 0x2013 <printf+0x9ca>
    1515: a0 05        	ldy	#$5
    1517: a5 12        	lda	$12                     ; 0x2012 <printf+0x9c9>
    1519: 18           	clc
    151a: 69 05        	adc	#$5
    151c: 85 14        	sta	$14                     ; 0x2014 <printf+0x9cb>
    151e: a5 13        	lda	$13                     ; 0x2013 <printf+0x9ca>
    1520: 69 00        	adc	#$0
    1522: 85 15        	sta	$15                     ; 0x2015 <printf+0x9cc>
    1524: b1 12        	lda	($12),y                 ; 0x2012 <printf+0x9c9>
    1526: aa           	tax
    1527: a0 01        	ldy	#$1
    1529: b1 14        	lda	($14),y                 ; 0x2014 <printf+0x9cb>
    152b: e8           	inx
    152c: d0 01        	bne	$152f <_ZN12_GLOBAL__N_13putEcP6Status+0xc5>
    152e: 1a           	inc
    152f: 85 16        	sta	$16                     ; 0x2016 <printf+0x9cd>
    1531: 8a           	txa
    1532: a0 05        	ldy	#$5
    1534: 91 12        	sta	($12),y                 ; 0x2012 <printf+0x9c9>
    1536: a0 01        	ldy	#$1
    1538: a5 16        	lda	$16                     ; 0x2016 <printf+0x9cd>
    153a: 91 14        	sta	($14),y                 ; 0x2014 <printf+0x9cb>
    153c: 60           	rts

0000153d <_ZN12_GLOBAL__N_112print_stringEPKcP6Status>:
    153d: a6 12        	ldx	$12                     ; 0x2012 <printf+0x9c9>
    153f: 86 a7        	stx	$a7                     ; 0x20a7 <printf+0xa5e>
    1541: a6 13        	ldx	$13                     ; 0x2013 <printf+0x9ca>
    1543: 86 a8        	stx	$a8                     ; 0x20a8 <printf+0xa5f>
    1545: a6 14        	ldx	$14                     ; 0x2014 <printf+0x9cb>
    1547: 86 a9        	stx	$a9                     ; 0x20a9 <printf+0xa60>
    1549: a6 15        	ldx	$15                     ; 0x2015 <printf+0x9cc>
    154b: 86 aa        	stx	$aa                     ; 0x20aa <printf+0xa61>
    154d: a5 a9        	lda	$a9                     ; 0x20a9 <printf+0xa60>
    154f: 18           	clc
    1550: 69 0d        	adc	#$d
    1552: 85 12        	sta	$12                     ; 0x2012 <printf+0x9c9>
    1554: a5 aa        	lda	$aa                     ; 0x20aa <printf+0xa61>
    1556: 69 00        	adc	#$0
    1558: 85 13        	sta	$13                     ; 0x2013 <printf+0x9ca>
    155a: a0 01        	ldy	#$1
    155c: b1 12        	lda	($12),y                 ; 0x2012 <printf+0x9c9>
    155e: 30 16        	bmi	$1576 <_ZN12_GLOBAL__N_112print_stringEPKcP6Status+0x39>
    1560: a0 0d        	ldy	#$d
    1562: 85 12        	sta	$12                     ; 0x2012 <printf+0x9c9>
    1564: b1 a9        	lda	($a9),y                 ; 0x20a9 <printf+0xa60>
    1566: a6 12        	ldx	$12                     ; 0x2012 <printf+0x9c9>
    1568: 86 ae        	stx	$ae                     ; 0x20ae <printf+0xa65>
    156a: d0 0f        	bne	$157b <_ZN12_GLOBAL__N_112print_stringEPKcP6Status+0x3e>
    156c: aa           	tax
    156d: d0 0c        	bne	$157b <_ZN12_GLOBAL__N_112print_stringEPKcP6Status+0x3e>
    156f: 64 ab        	stz	$ab                     ; 0x20ab <printf+0xa62>
    1571: a2 00        	ldx	#$0
    1573: 4c 44 16     	jmp	$1644 <_ZN12_GLOBAL__N_112print_stringEPKcP6Status+0x107>
    1576: a9 ff        	lda	#$ff
    1578: aa           	tax
    1579: 86 ae        	stx	$ae                     ; 0x20ae <printf+0xa65>
    157b: 85 ab        	sta	$ab                     ; 0x20ab <printf+0xa62>
    157d: 64 12        	stz	$12                     ; 0x2012 <printf+0x9c9>
    157f: a4 a7        	ldy	$a7                     ; 0x20a7 <printf+0xa5e>
    1581: a6 a8        	ldx	$a8                     ; 0x20a8 <printf+0xa5f>
    1583: 86 16        	stx	$16                     ; 0x2016 <printf+0x9cd>
    1585: 64 13        	stz	$13                     ; 0x2013 <printf+0x9ca>
    1587: 98           	tya
    1588: 18           	clc
    1589: 65 12        	adc	$12                     ; 0x2012 <printf+0x9c9>
    158b: 85 14        	sta	$14                     ; 0x2014 <printf+0x9cb>
    158d: a5 a8        	lda	$a8                     ; 0x20a8 <printf+0xa5f>
    158f: 65 13        	adc	$13                     ; 0x2013 <printf+0x9ca>
    1591: 85 15        	sta	$15                     ; 0x2015 <printf+0x9cc>
    1593: b2 14        	lda	($14)                   ; 0x2014 <printf+0x9cb>
    1595: d0 03        	bne	$159a <_ZN12_GLOBAL__N_112print_stringEPKcP6Status+0x5d>
    1597: 4c 3e 16     	jmp	$163e <_ZN12_GLOBAL__N_112print_stringEPKcP6Status+0x101>
    159a: e6 12        	inc	$12                     ; 0x2012 <printf+0x9c9>
    159c: d0 02        	bne	$15a0 <_ZN12_GLOBAL__N_112print_stringEPKcP6Status+0x63>
    159e: e6 13        	inc	$13                     ; 0x2013 <printf+0x9ca>
    15a0: a6 ae        	ldx	$ae                     ; 0x20ae <printf+0xa65>
    15a2: e4 13        	cpx	$13                     ; 0x2013 <printf+0x9ca>
    15a4: d0 e1        	bne	$1587 <_ZN12_GLOBAL__N_112print_stringEPKcP6Status+0x4a>
    15a6: a6 ab        	ldx	$ab                     ; 0x20ab <printf+0xa62>
    15a8: e4 12        	cpx	$12                     ; 0x2012 <printf+0x9c9>
    15aa: d0 db        	bne	$1587 <_ZN12_GLOBAL__N_112print_stringEPKcP6Status+0x4a>
    15ac: a0 01        	ldy	#$1
    15ae: b1 a9        	lda	($a9),y                 ; 0x20a9 <printf+0xa60>
    15b0: 29 01        	and	#$1
    15b2: f0 03        	beq	$15b7 <_ZN12_GLOBAL__N_112print_stringEPKcP6Status+0x7a>
    15b4: 4c 0f 16     	jmp	$160f <_ZN12_GLOBAL__N_112print_stringEPKcP6Status+0xd2>
    15b7: a5 a9        	lda	$a9                     ; 0x20a9 <printf+0xa60>
    15b9: 18           	clc
    15ba: 69 0b        	adc	#$b
    15bc: 85 14        	sta	$14                     ; 0x2014 <printf+0x9cb>
    15be: a5 aa        	lda	$aa                     ; 0x20aa <printf+0xa61>
    15c0: 69 00        	adc	#$0
    15c2: 85 15        	sta	$15                     ; 0x2015 <printf+0x9cc>
    15c4: a0 0b        	ldy	#$b
    15c6: b1 a9        	lda	($a9),y                 ; 0x20a9 <printf+0xa60>
    15c8: 85 13        	sta	$13                     ; 0x2013 <printf+0x9ca>
    15ca: a0 01        	ldy	#$1
    15cc: b1 14        	lda	($14),y                 ; 0x2014 <printf+0x9cb>
    15ce: 85 12        	sta	$12                     ; 0x2012 <printf+0x9c9>
    15d0: a6 ae        	ldx	$ae                     ; 0x20ae <printf+0xa65>
    15d2: e4 12        	cpx	$12                     ; 0x2012 <printf+0x9c9>
    15d4: d0 08        	bne	$15de <_ZN12_GLOBAL__N_112print_stringEPKcP6Status+0xa1>
    15d6: a6 ab        	ldx	$ab                     ; 0x20ab <printf+0xa62>
    15d8: e4 13        	cpx	$13                     ; 0x2013 <printf+0x9ca>
    15da: 90 06        	bcc	$15e2 <_ZN12_GLOBAL__N_112print_stringEPKcP6Status+0xa5>
    15dc: 80 31        	bra	$160f <_ZN12_GLOBAL__N_112print_stringEPKcP6Status+0xd2>
    15de: e4 12        	cpx	$12                     ; 0x2012 <printf+0x9c9>
    15e0: b0 2d        	bcs	$160f <_ZN12_GLOBAL__N_112print_stringEPKcP6Status+0xd2>
    15e2: 38           	sec
    15e3: a5 ab        	lda	$ab                     ; 0x20ab <printf+0xa62>
    15e5: e5 13        	sbc	$13                     ; 0x2013 <printf+0x9ca>
    15e7: a8           	tay
    15e8: a5 ae        	lda	$ae                     ; 0x20ae <printf+0xa65>
    15ea: e5 12        	sbc	$12                     ; 0x2012 <printf+0x9c9>
    15ec: 85 ad        	sta	$ad                     ; 0x20ad <printf+0xa64>
    15ee: a6 a9        	ldx	$a9                     ; 0x20a9 <printf+0xa60>
    15f0: 86 12        	stx	$12                     ; 0x2012 <printf+0x9c9>
    15f2: a6 aa        	ldx	$aa                     ; 0x20aa <printf+0xa61>
    15f4: 86 13        	stx	$13                     ; 0x2013 <printf+0x9ca>
    15f6: 84 ac        	sty	$ac                     ; 0x20ac <printf+0xa63>
    15f8: a9 20        	lda	#$20
    15fa: 20 6a 14     	jsr	$146a <_ZN12_GLOBAL__N_13putEcP6Status>
    15fd: a6 ad        	ldx	$ad                     ; 0x20ad <printf+0xa64>
    15ff: e6 ac        	inc	$ac                     ; 0x20ac <printf+0xa63>
    1601: d0 01        	bne	$1604 <_ZN12_GLOBAL__N_112print_stringEPKcP6Status+0xc7>
    1603: e8           	inx
    1604: 86 ad        	stx	$ad                     ; 0x20ad <printf+0xa64>
    1606: a4 ac        	ldy	$ac                     ; 0x20ac <printf+0xa63>
    1608: 8a           	txa
    1609: d0 e3        	bne	$15ee <_ZN12_GLOBAL__N_112print_stringEPKcP6Status+0xb1>
    160b: a5 ac        	lda	$ac                     ; 0x20ac <printf+0xa63>
    160d: d0 df        	bne	$15ee <_ZN12_GLOBAL__N_112print_stringEPKcP6Status+0xb1>
    160f: a4 ae        	ldy	$ae                     ; 0x20ae <printf+0xa65>
    1611: d0 04        	bne	$1617 <_ZN12_GLOBAL__N_112print_stringEPKcP6Status+0xda>
    1613: a5 ab        	lda	$ab                     ; 0x20ab <printf+0xa62>
    1615: f0 26        	beq	$163d <_ZN12_GLOBAL__N_112print_stringEPKcP6Status+0x100>
    1617: a2 ff        	ldx	#$ff
    1619: c6 ab        	dec	$ab                     ; 0x20ab <printf+0xa62>
    161b: e4 ab        	cpx	$ab                     ; 0x20ab <printf+0xa62>
    161d: d0 01        	bne	$1620 <_ZN12_GLOBAL__N_112print_stringEPKcP6Status+0xe3>
    161f: 88           	dey
    1620: 84 ac        	sty	$ac                     ; 0x20ac <printf+0xa63>
    1622: b2 a7        	lda	($a7)                   ; 0x20a7 <printf+0xa5e>
    1624: e6 a7        	inc	$a7                     ; 0x20a7 <printf+0xa5e>
    1626: d0 02        	bne	$162a <_ZN12_GLOBAL__N_112print_stringEPKcP6Status+0xed>
    1628: e6 a8        	inc	$a8                     ; 0x20a8 <printf+0xa5f>
    162a: a6 a9        	ldx	$a9                     ; 0x20a9 <printf+0xa60>
    162c: 86 12        	stx	$12                     ; 0x2012 <printf+0x9c9>
    162e: a6 aa        	ldx	$aa                     ; 0x20aa <printf+0xa61>
    1630: 86 13        	stx	$13                     ; 0x2013 <printf+0x9ca>
    1632: 20 6a 14     	jsr	$146a <_ZN12_GLOBAL__N_13putEcP6Status>
    1635: a4 ac        	ldy	$ac                     ; 0x20ac <printf+0xa63>
    1637: d0 de        	bne	$1617 <_ZN12_GLOBAL__N_112print_stringEPKcP6Status+0xda>
    1639: a5 ab        	lda	$ab                     ; 0x20ab <printf+0xa62>
    163b: d0 da        	bne	$1617 <_ZN12_GLOBAL__N_112print_stringEPKcP6Status+0xda>
    163d: 60           	rts
    163e: a6 12        	ldx	$12                     ; 0x2012 <printf+0x9c9>
    1640: 86 ab        	stx	$ab                     ; 0x20ab <printf+0xa62>
    1642: a6 13        	ldx	$13                     ; 0x2013 <printf+0x9ca>
    1644: 86 ae        	stx	$ae                     ; 0x20ae <printf+0xa65>
    1646: 4c ac 15     	jmp	$15ac <_ZN12_GLOBAL__N_112print_stringEPKcP6Status+0x6f>

00001649 <printf>:
    1649: a6 12        	ldx	$12                     ; 0x2012 <printf+0x9c9>
    164b: 86 5c        	stx	$5c                     ; 0x205c <printf+0xa13>
    164d: a6 13        	ldx	$13                     ; 0x2013 <printf+0x9ca>
    164f: 86 5d        	stx	$5d                     ; 0x205d <printf+0xa14>
    1651: 18           	clc
    1652: a6 10        	ldx	$10                     ; 0x2010 <printf+0x9c7>
    1654: a4 11        	ldy	$11                     ; 0x2011 <printf+0x9c8>
    1656: 86 9d        	stx	$9d                     ; 0x209d <printf+0xa54>
    1658: 84 9e        	sty	$9e                     ; 0x209e <printf+0xa55>
    165a: a6 9d        	ldx	$9d                     ; 0x209d <printf+0xa54>
    165c: a4 9e        	ldy	$9e                     ; 0x209e <printf+0xa55>
    165e: 86 88        	stx	$88                     ; 0x2088 <printf+0xa3f>
    1660: 84 89        	sty	$89                     ; 0x2089 <printf+0xa40>
    1662: a2 ff        	ldx	#$ff
    1664: 86 8d        	stx	$8d                     ; 0x208d <printf+0xa44>
    1666: 86 8e        	stx	$8e                     ; 0x208e <printf+0xa45>
    1668: 64 8f        	stz	$8f                     ; 0x208f <printf+0xa46>
    166a: 64 90        	stz	$90                     ; 0x2090 <printf+0xa47>
    166c: e8           	inx
    166d: 86 5e        	stx	$5e                     ; 0x205e <printf+0xa15>
    166f: a2 00        	ldx	#$0
    1671: 86 5f        	stx	$5f                     ; 0x205f <printf+0xa16>
    1673: a6 5e        	ldx	$5e                     ; 0x205e <printf+0xa15>
    1675: a4 5f        	ldy	$5f                     ; 0x205f <printf+0xa16>
    1677: 86 93        	stx	$93                     ; 0x2093 <printf+0xa4a>
    1679: 84 94        	sty	$94                     ; 0x2094 <printf+0xa4b>
    167b: a2 02        	ldx	#$2
    167d: 86 99        	stx	$99                     ; 0x2099 <printf+0xa50>
    167f: 64 9a        	stz	$9a                     ; 0x209a <printf+0xa51>
    1681: a6 88        	ldx	$88                     ; 0x2088 <printf+0xa3f>
    1683: a4 89        	ldy	$89                     ; 0x2089 <printf+0xa40>
    1685: 86 9b        	stx	$9b                     ; 0x209b <printf+0xa52>
    1687: 84 9c        	sty	$9c                     ; 0x209c <printf+0xa53>
    1689: a2 7f        	ldx	#$7f
    168b: a0 00        	ldy	#$0
    168d: 86 12        	stx	$12                     ; 0x2012 <printf+0x9c9>
    168f: 84 13        	sty	$13                     ; 0x2013 <printf+0x9ca>
    1691: a0 01        	ldy	#$1
    1693: a9 66        	lda	#$66
    1695: 18           	clc
    1696: 69 02        	adc	#$2
    1698: 85 a5        	sta	$a5                     ; 0x20a5 <printf+0xa5c>
    169a: a9 00        	lda	#$0
    169c: 69 00        	adc	#$0
    169e: 85 a6        	sta	$a6                     ; 0x20a6 <printf+0xa5d>
    16a0: e6 12        	inc	$12                     ; 0x2012 <printf+0x9c9>
    16a2: d0 02        	bne	$16a6 <printf+0x5d>
    16a4: e6 13        	inc	$13                     ; 0x2013 <printf+0x9ca>
    16a6: a6 12        	ldx	$12                     ; 0x2012 <printf+0x9c9>
    16a8: 86 a1        	stx	$a1                     ; 0x20a1 <printf+0xa58>
    16aa: a6 13        	ldx	$13                     ; 0x2013 <printf+0x9ca>
    16ac: 86 a2        	stx	$a2                     ; 0x20a2 <printf+0xa59>
    16ae: a6 5c        	ldx	$5c                     ; 0x205c <printf+0xa13>
    16b0: 86 60        	stx	$60                     ; 0x2060 <printf+0xa17>
    16b2: a6 5d        	ldx	$5d                     ; 0x205d <printf+0xa14>
    16b4: 86 61        	stx	$61                     ; 0x2061 <printf+0xa18>
    16b6: b2 5c        	lda	($5c)                   ; 0x205c <printf+0xa13>
    16b8: c9 25        	cmp	#$25
    16ba: f0 23        	beq	$16df <printf+0x96>
    16bc: a2 00        	ldx	#$0
    16be: a8           	tay
    16bf: d0 03        	bne	$16c4 <printf+0x7b>
    16c1: 4c 21 22     	jmp	$2221 <printf+0xbd8>
    16c4: 20 22 22     	jsr	$2222 <putchar>
    16c7: a0 01        	ldy	#$1
    16c9: e6 60        	inc	$60                     ; 0x2060 <printf+0xa17>
    16cb: d0 02        	bne	$16cf <printf+0x86>
    16cd: e6 61        	inc	$61                     ; 0x2061 <printf+0xa18>
    16cf: e6 8f        	inc	$8f                     ; 0x208f <printf+0xa46>
    16d1: d0 02        	bne	$16d5 <printf+0x8c>
    16d3: e6 90        	inc	$90                     ; 0x2090 <printf+0xa47>
    16d5: a6 60        	ldx	$60                     ; 0x2060 <printf+0xa17>
    16d7: 86 5c        	stx	$5c                     ; 0x205c <printf+0xa13>
    16d9: a6 61        	ldx	$61                     ; 0x2061 <printf+0xa18>
    16db: 86 5d        	stx	$5d                     ; 0x205d <printf+0xa14>
    16dd: 80 cf        	bra	$16ae <printf+0x65>
    16df: a6 5c        	ldx	$5c                     ; 0x205c <printf+0xa13>
    16e1: 86 12        	stx	$12                     ; 0x2012 <printf+0x9c9>
    16e3: a6 5d        	ldx	$5d                     ; 0x205d <printf+0xa14>
    16e5: 86 13        	stx	$13                     ; 0x2013 <printf+0x9ca>
    16e7: e6 12        	inc	$12                     ; 0x2012 <printf+0x9c9>
    16e9: d0 02        	bne	$16ed <printf+0xa4>
    16eb: e6 13        	inc	$13                     ; 0x2013 <printf+0x9ca>
    16ed: b1 60        	lda	($60),y                 ; 0x2060 <printf+0xa17>
    16ef: c9 25        	cmp	#$25
    16f1: d0 16        	bne	$1709 <printf+0xc0>
    16f3: a4 8f        	ldy	$8f                     ; 0x208f <printf+0xa46>
    16f5: a5 90        	lda	$90                     ; 0x2090 <printf+0xa47>
    16f7: c5 8e        	cmp	$8e                     ; 0x208e <printf+0xa45>
    16f9: f0 03        	beq	$16fe <printf+0xb5>
    16fb: 4c 0f 18     	jmp	$180f <printf+0x1c6>
    16fe: a6 8d        	ldx	$8d                     ; 0x208d <printf+0xa44>
    1700: 86 12        	stx	$12                     ; 0x2012 <printf+0x9c9>
    1702: 84 13        	sty	$13                     ; 0x2013 <printf+0x9ca>
    1704: c4 12        	cpy	$12                     ; 0x2012 <printf+0x9c9>
    1706: 4c 13 18     	jmp	$1813 <printf+0x1ca>
    1709: 64 8b        	stz	$8b                     ; 0x208b <printf+0xa42>
    170b: 64 8c        	stz	$8c                     ; 0x208c <printf+0xa43>
    170d: 64 8a        	stz	$8a                     ; 0x208a <printf+0xa41>
    170f: 64 95        	stz	$95                     ; 0x2095 <printf+0xa4c>
    1711: 64 96        	stz	$96                     ; 0x2096 <printf+0xa4d>
    1713: a2 ff        	ldx	#$ff
    1715: 86 97        	stx	$97                     ; 0x2097 <printf+0xa4e>
    1717: 86 98        	stx	$98                     ; 0x2098 <printf+0xa4f>
    1719: 64 5b        	stz	$5b                     ; 0x205b <printf+0xa12>
    171b: 80 33        	bra	$1750 <printf+0x107>
    171d: a2 02        	ldx	#$2
    171f: 80 15        	bra	$1736 <printf+0xed>
    1721: e0 20        	cpx	#$20
    1723: f0 15        	beq	$173a <printf+0xf1>
    1725: 86 15        	stx	$15                     ; 0x2015 <printf+0x9cc>
    1727: e0 23        	cpx	#$23
    1729: f0 03        	beq	$172e <printf+0xe5>
    172b: 4c ad 17     	jmp	$17ad <printf+0x164>
    172e: a5 5b        	lda	$5b                     ; 0x205b <printf+0xa12>
    1730: a2 04        	ldx	#$4
    1732: 80 02        	bra	$1736 <printf+0xed>
    1734: a2 10        	ldx	#$10
    1736: 86 14        	stx	$14                     ; 0x2014 <printf+0x9cb>
    1738: 80 06        	bra	$1740 <printf+0xf7>
    173a: a2 08        	ldx	#$8
    173c: 86 14        	stx	$14                     ; 0x2014 <printf+0x9cb>
    173e: a5 5b        	lda	$5b                     ; 0x205b <printf+0xa12>
    1740: 05 14        	ora	$14                     ; 0x2014 <printf+0x9cb>
    1742: 85 5b        	sta	$5b                     ; 0x205b <printf+0xa12>
    1744: 85 8b        	sta	$8b                     ; 0x208b <printf+0xa42>
    1746: a2 00        	ldx	#$0
    1748: 86 8c        	stx	$8c                     ; 0x208c <printf+0xa43>
    174a: e6 12        	inc	$12                     ; 0x2012 <printf+0x9c9>
    174c: d0 02        	bne	$1750 <printf+0x107>
    174e: e6 13        	inc	$13                     ; 0x2013 <printf+0x9ca>
    1750: b2 12        	lda	($12)                   ; 0x2012 <printf+0x9c9>
    1752: aa           	tax
    1753: 18           	clc
    1754: 69 d6        	adc	#$d6
    1756: c9 07        	cmp	#$7
    1758: b0 c7        	bcs	$1721 <printf+0xd8>
    175a: 86 15        	stx	$15                     ; 0x2015 <printf+0x9cc>
    175c: 0a           	asl
    175d: aa           	tax
    175e: a0 01        	ldy	#$1
    1760: 84 14        	sty	$14                     ; 0x2014 <printf+0x9cb>
    1762: a5 5b        	lda	$5b                     ; 0x205b <printf+0xa12>
    1764: 7c 3e 27     	jmp	($273e,x)               ; 0x273e <__set_v+0x1>
    1767: a5 9b        	lda	$9b                     ; 0x209b <printf+0xa52>
    1769: a6 9c        	ldx	$9c                     ; 0x209c <printf+0xa53>
    176b: 85 16        	sta	$16                     ; 0x2016 <printf+0x9cd>
    176d: 86 17        	stx	$17                     ; 0x2017 <printf+0x9ce>
    176f: 18           	clc
    1770: 69 02        	adc	#$2
    1772: a8           	tay
    1773: 8a           	txa
    1774: 69 00        	adc	#$0
    1776: 84 9b        	sty	$9b                     ; 0x209b <printf+0xa52>
    1778: 85 9c        	sta	$9c                     ; 0x209c <printf+0xa53>
    177a: b2 16        	lda	($16)                   ; 0x2016 <printf+0x9cd>
    177c: 85 15        	sta	$15                     ; 0x2015 <printf+0x9cc>
    177e: a0 01        	ldy	#$1
    1780: b1 16        	lda	($16),y                 ; 0x2016 <printf+0x9cd>
    1782: 85 14        	sta	$14                     ; 0x2014 <printf+0x9cb>
    1784: 10 15        	bpl	$179b <printf+0x152>
    1786: a5 5b        	lda	$5b                     ; 0x205b <printf+0xa12>
    1788: 09 01        	ora	#$1
    178a: 85 5b        	sta	$5b                     ; 0x205b <printf+0xa12>
    178c: 85 8b        	sta	$8b                     ; 0x208b <printf+0xa42>
    178e: a2 00        	ldx	#$0
    1790: 86 8c        	stx	$8c                     ; 0x208c <printf+0xa43>
    1792: 8a           	txa
    1793: 38           	sec
    1794: e5 15        	sbc	$15                     ; 0x2015 <printf+0x9cc>
    1796: 85 15        	sta	$15                     ; 0x2015 <printf+0x9cc>
    1798: 8a           	txa
    1799: e5 14        	sbc	$14                     ; 0x2014 <printf+0x9cb>
    179b: a6 15        	ldx	$15                     ; 0x2015 <printf+0x9cc>
    179d: 86 95        	stx	$95                     ; 0x2095 <printf+0xa4c>
    179f: 85 96        	sta	$96                     ; 0x2096 <printf+0xa4d>
    17a1: e6 12        	inc	$12                     ; 0x2012 <printf+0x9c9>
    17a3: f0 03        	beq	$17a8 <printf+0x15f>
    17a5: 4c 63 18     	jmp	$1863 <printf+0x21a>
    17a8: e6 13        	inc	$13                     ; 0x2013 <printf+0x9ca>
    17aa: 4c 63 18     	jmp	$1863 <printf+0x21a>
    17ad: a5 15        	lda	$15                     ; 0x2015 <printf+0x9cc>
    17af: 18           	clc
    17b0: 69 d0        	adc	#$d0
    17b2: c9 0a        	cmp	#$a
    17b4: 90 03        	bcc	$17b9 <printf+0x170>
    17b6: 4c 55 18     	jmp	$1855 <printf+0x20c>
    17b9: a6 15        	ldx	$15                     ; 0x2015 <printf+0x9cc>
    17bb: 86 14        	stx	$14                     ; 0x2014 <printf+0x9cb>
    17bd: 64 16        	stz	$16                     ; 0x2016 <printf+0x9cd>
    17bf: 64 15        	stz	$15                     ; 0x2015 <printf+0x9cc>
    17c1: 64 17        	stz	$17                     ; 0x2017 <printf+0x9ce>
    17c3: a0 01        	ldy	#$1
    17c5: 06 16        	asl	$16                     ; 0x2016 <printf+0x9cd>
    17c7: 26 17        	rol	$17                     ; 0x2017 <printf+0x9ce>
    17c9: a5 16        	lda	$16                     ; 0x2016 <printf+0x9cd>
    17cb: 0a           	asl
    17cc: aa           	tax
    17cd: a5 17        	lda	$17                     ; 0x2017 <printf+0x9ce>
    17cf: 2a           	rol
    17d0: 86 18        	stx	$18                     ; 0x2018 <printf+0x9cf>
    17d2: 06 18        	asl	$18                     ; 0x2018 <printf+0x9cf>
    17d4: 2a           	rol
    17d5: aa           	tax
    17d6: a5 18        	lda	$18                     ; 0x2018 <printf+0x9cf>
    17d8: 18           	clc
    17d9: 65 16        	adc	$16                     ; 0x2016 <printf+0x9cd>
    17db: 85 16        	sta	$16                     ; 0x2016 <printf+0x9cd>
    17dd: 8a           	txa
    17de: 65 17        	adc	$17                     ; 0x2017 <printf+0x9ce>
    17e0: 85 17        	sta	$17                     ; 0x2017 <printf+0x9ce>
    17e2: a5 16        	lda	$16                     ; 0x2016 <printf+0x9cd>
    17e4: 18           	clc
    17e5: 65 14        	adc	$14                     ; 0x2014 <printf+0x9cb>
    17e7: 85 14        	sta	$14                     ; 0x2014 <printf+0x9cb>
    17e9: a5 17        	lda	$17                     ; 0x2017 <printf+0x9ce>
    17eb: 65 15        	adc	$15                     ; 0x2015 <printf+0x9cc>
    17ed: aa           	tax
    17ee: 18           	clc
    17ef: a5 14        	lda	$14                     ; 0x2014 <printf+0x9cb>
    17f1: 69 d0        	adc	#$d0
    17f3: 85 16        	sta	$16                     ; 0x2016 <printf+0x9cd>
    17f5: 8a           	txa
    17f6: 69 ff        	adc	#$ff
    17f8: 85 17        	sta	$17                     ; 0x2017 <printf+0x9ce>
    17fa: b1 12        	lda	($12),y                 ; 0x2012 <printf+0x9c9>
    17fc: 85 14        	sta	$14                     ; 0x2014 <printf+0x9cb>
    17fe: 18           	clc
    17ff: 69 d0        	adc	#$d0
    1801: e6 12        	inc	$12                     ; 0x2012 <printf+0x9c9>
    1803: d0 02        	bne	$1807 <printf+0x1be>
    1805: e6 13        	inc	$13                     ; 0x2013 <printf+0x9ca>
    1807: c9 0a        	cmp	#$a
    1809: 64 15        	stz	$15                     ; 0x2015 <printf+0x9cc>
    180b: 90 b8        	bcc	$17c5 <printf+0x17c>
    180d: 80 4c        	bra	$185b <printf+0x212>
    180f: 84 13        	sty	$13                     ; 0x2013 <printf+0x9ca>
    1811: c5 8e        	cmp	$8e                     ; 0x208e <printf+0xa45>
    1813: a0 01        	ldy	#$1
    1815: b0 28        	bcs	$183f <printf+0x1f6>
    1817: a6 9a        	ldx	$9a                     ; 0x209a <printf+0xa51>
    1819: e4 5f        	cpx	$5f                     ; 0x205f <printf+0xa16>
    181b: d0 19        	bne	$1836 <printf+0x1ed>
    181d: a6 99        	ldx	$99                     ; 0x2099 <printf+0xa50>
    181f: e4 5e        	cpx	$5e                     ; 0x205e <printf+0xa15>
    1821: d0 13        	bne	$1836 <printf+0x1ed>
    1823: 18           	clc
    1824: aa           	tax
    1825: a5 13        	lda	$13                     ; 0x2013 <printf+0x9ca>
    1827: 65 93        	adc	$93                     ; 0x2093 <printf+0xa4a>
    1829: 85 12        	sta	$12                     ; 0x2012 <printf+0x9c9>
    182b: 8a           	txa
    182c: 65 94        	adc	$94                     ; 0x2094 <printf+0xa4b>
    182e: 85 13        	sta	$13                     ; 0x2013 <printf+0x9ca>
    1830: a9 25        	lda	#$25
    1832: 92 12        	sta	($12)                   ; 0x2012 <printf+0x9c9>
    1834: 80 09        	bra	$183f <printf+0x1f6>
    1836: a2 00        	ldx	#$0
    1838: a9 25        	lda	#$25
    183a: 20 22 22     	jsr	$2222 <putchar>
    183d: a0 01        	ldy	#$1
    183f: e6 8f        	inc	$8f                     ; 0x208f <printf+0xa46>
    1841: d0 02        	bne	$1845 <printf+0x1fc>
    1843: e6 90        	inc	$90                     ; 0x2090 <printf+0xa47>
    1845: a5 60        	lda	$60                     ; 0x2060 <printf+0xa17>
    1847: 18           	clc
    1848: 69 02        	adc	#$2
    184a: 85 5c        	sta	$5c                     ; 0x205c <printf+0xa13>
    184c: a5 61        	lda	$61                     ; 0x2061 <printf+0xa18>
    184e: 69 00        	adc	#$0
    1850: 85 5d        	sta	$5d                     ; 0x205d <printf+0xa14>
    1852: 4c ae 16     	jmp	$16ae <printf+0x65>
    1855: 64 16        	stz	$16                     ; 0x2016 <printf+0x9cd>
    1857: 64 17        	stz	$17                     ; 0x2017 <printf+0x9ce>
    1859: a0 01        	ldy	#$1
    185b: a6 16        	ldx	$16                     ; 0x2016 <printf+0x9cd>
    185d: 86 95        	stx	$95                     ; 0x2095 <printf+0xa4c>
    185f: a5 17        	lda	$17                     ; 0x2017 <printf+0x9ce>
    1861: 85 96        	sta	$96                     ; 0x2096 <printf+0xa4d>
    1863: 86 64        	stx	$64                     ; 0x2064 <printf+0xa1b>
    1865: 85 62        	sta	$62                     ; 0x2062 <printf+0xa19>
    1867: b2 12        	lda	($12)                   ; 0x2012 <printf+0x9c9>
    1869: a2 ff        	ldx	#$ff
    186b: c9 2e        	cmp	#$2e
    186d: d0 39        	bne	$18a8 <printf+0x25f>
    186f: b1 12        	lda	($12),y                 ; 0x2012 <printf+0x9c9>
    1871: c9 2a        	cmp	#$2a
    1873: d0 38        	bne	$18ad <printf+0x264>
    1875: a5 9b        	lda	$9b                     ; 0x209b <printf+0xa52>
    1877: a6 9c        	ldx	$9c                     ; 0x209c <printf+0xa53>
    1879: 85 14        	sta	$14                     ; 0x2014 <printf+0x9cb>
    187b: 86 15        	stx	$15                     ; 0x2015 <printf+0x9cc>
    187d: 18           	clc
    187e: 69 02        	adc	#$2
    1880: 85 16        	sta	$16                     ; 0x2016 <printf+0x9cd>
    1882: 8a           	txa
    1883: 69 00        	adc	#$0
    1885: a6 16        	ldx	$16                     ; 0x2016 <printf+0x9cd>
    1887: 86 9b        	stx	$9b                     ; 0x209b <printf+0xa52>
    1889: 85 9c        	sta	$9c                     ; 0x209c <printf+0xa53>
    188b: a5 12        	lda	$12                     ; 0x2012 <printf+0x9c9>
    188d: 18           	clc
    188e: 69 02        	adc	#$2
    1890: 85 12        	sta	$12                     ; 0x2012 <printf+0x9c9>
    1892: a5 13        	lda	$13                     ; 0x2013 <printf+0x9ca>
    1894: 69 00        	adc	#$0
    1896: 85 13        	sta	$13                     ; 0x2013 <printf+0x9ca>
    1898: b2 14        	lda	($14)                   ; 0x2014 <printf+0x9cb>
    189a: aa           	tax
    189b: b1 14        	lda	($14),y                 ; 0x2014 <printf+0x9cb>
    189d: 86 18        	stx	$18                     ; 0x2018 <printf+0x9cf>
    189f: 86 97        	stx	$97                     ; 0x2097 <printf+0xa4e>
    18a1: 85 19        	sta	$19                     ; 0x2019 <printf+0x9d0>
    18a3: 85 98        	sta	$98                     ; 0x2098 <printf+0xa4f>
    18a5: 4c 58 19     	jmp	$1958 <printf+0x30f>
    18a8: 86 18        	stx	$18                     ; 0x2018 <printf+0x9cf>
    18aa: 4c 68 19     	jmp	$1968 <printf+0x31f>
    18ad: 85 17        	sta	$17                     ; 0x2017 <printf+0x9ce>
    18af: 18           	clc
    18b0: 69 d0        	adc	#$d0
    18b2: c9 0a        	cmp	#$a
    18b4: 90 03        	bcc	$18b9 <printf+0x270>
    18b6: 4c 4a 19     	jmp	$194a <printf+0x301>
    18b9: 64 16        	stz	$16                     ; 0x2016 <printf+0x9cd>
    18bb: a2 01        	ldx	#$1
    18bd: 64 18        	stz	$18                     ; 0x2018 <printf+0x9cf>
    18bf: 64 19        	stz	$19                     ; 0x2019 <printf+0x9d0>
    18c1: a0 01        	ldy	#$1
    18c3: 64 1a        	stz	$1a                     ; 0x201a <printf+0x9d1>
    18c5: 5a           	phy
    18c6: a4 1a        	ldy	$1a                     ; 0x201a <printf+0x9d1>
    18c8: 84 14        	sty	$14                     ; 0x2014 <printf+0x9cb>
    18ca: 86 15        	stx	$15                     ; 0x2015 <printf+0x9cc>
    18cc: 06 18        	asl	$18                     ; 0x2018 <printf+0x9cf>
    18ce: 26 19        	rol	$19                     ; 0x2019 <printf+0x9d0>
    18d0: a5 18        	lda	$18                     ; 0x2018 <printf+0x9cf>
    18d2: 0a           	asl
    18d3: 85 1d        	sta	$1d                     ; 0x201d <printf+0x9d4>
    18d5: a5 19        	lda	$19                     ; 0x2019 <printf+0x9d0>
    18d7: 2a           	rol
    18d8: 06 1d        	asl	$1d                     ; 0x201d <printf+0x9d4>
    18da: 2a           	rol
    18db: 85 1e        	sta	$1e                     ; 0x201e <printf+0x9d5>
    18dd: a5 1d        	lda	$1d                     ; 0x201d <printf+0x9d4>
    18df: 18           	clc
    18e0: 65 18        	adc	$18                     ; 0x2018 <printf+0x9cf>
    18e2: 85 18        	sta	$18                     ; 0x2018 <printf+0x9cf>
    18e4: a5 1e        	lda	$1e                     ; 0x201e <printf+0x9d5>
    18e6: 65 19        	adc	$19                     ; 0x2019 <printf+0x9d0>
    18e8: 85 19        	sta	$19                     ; 0x2019 <printf+0x9d0>
    18ea: a5 18        	lda	$18                     ; 0x2018 <printf+0x9cf>
    18ec: 18           	clc
    18ed: 65 17        	adc	$17                     ; 0x2017 <printf+0x9ce>
    18ef: 85 17        	sta	$17                     ; 0x2017 <printf+0x9ce>
    18f1: a5 19        	lda	$19                     ; 0x2019 <printf+0x9d0>
    18f3: 65 16        	adc	$16                     ; 0x2016 <printf+0x9cd>
    18f5: 85 16        	sta	$16                     ; 0x2016 <printf+0x9cd>
    18f7: 18           	clc
    18f8: a5 17        	lda	$17                     ; 0x2017 <printf+0x9ce>
    18fa: 69 d0        	adc	#$d0
    18fc: 85 18        	sta	$18                     ; 0x2018 <printf+0x9cf>
    18fe: a5 16        	lda	$16                     ; 0x2016 <printf+0x9cd>
    1900: 69 ff        	adc	#$ff
    1902: 85 19        	sta	$19                     ; 0x2019 <printf+0x9d0>
    1904: e8           	inx
    1905: d0 02        	bne	$1909 <printf+0x2c0>
    1907: e6 1a        	inc	$1a                     ; 0x201a <printf+0x9d1>
    1909: a5 12        	lda	$12                     ; 0x2012 <printf+0x9c9>
    190b: 18           	clc
    190c: 65 15        	adc	$15                     ; 0x2015 <printf+0x9cc>
    190e: 85 1d        	sta	$1d                     ; 0x201d <printf+0x9d4>
    1910: a5 13        	lda	$13                     ; 0x2013 <printf+0x9ca>
    1912: 65 14        	adc	$14                     ; 0x2014 <printf+0x9cb>
    1914: a4 1d        	ldy	$1d                     ; 0x201d <printf+0x9d4>
    1916: 84 16        	sty	$16                     ; 0x2016 <printf+0x9cd>
    1918: 7a           	ply
    1919: 85 17        	sta	$17                     ; 0x2017 <printf+0x9ce>
    191b: b1 16        	lda	($16),y                 ; 0x2016 <printf+0x9cd>
    191d: 85 17        	sta	$17                     ; 0x2017 <printf+0x9ce>
    191f: 18           	clc
    1920: 69 d0        	adc	#$d0
    1922: c9 0a        	cmp	#$a
    1924: 64 16        	stz	$16                     ; 0x2016 <printf+0x9cd>
    1926: b0 03        	bcs	$192b <printf+0x2e2>
    1928: 4c c5 18     	jmp	$18c5 <printf+0x27c>
    192b: a5 12        	lda	$12                     ; 0x2012 <printf+0x9c9>
    192d: 18           	clc
    192e: 65 15        	adc	$15                     ; 0x2015 <printf+0x9cc>
    1930: 85 12        	sta	$12                     ; 0x2012 <printf+0x9c9>
    1932: a5 13        	lda	$13                     ; 0x2013 <printf+0x9ca>
    1934: 65 14        	adc	$14                     ; 0x2014 <printf+0x9cb>
    1936: 85 13        	sta	$13                     ; 0x2013 <printf+0x9ca>
    1938: e6 12        	inc	$12                     ; 0x2012 <printf+0x9c9>
    193a: d0 02        	bne	$193e <printf+0x2f5>
    193c: e6 13        	inc	$13                     ; 0x2013 <printf+0x9ca>
    193e: a6 18        	ldx	$18                     ; 0x2018 <printf+0x9cf>
    1940: 86 97        	stx	$97                     ; 0x2097 <printf+0xa4e>
    1942: a6 19        	ldx	$19                     ; 0x2019 <printf+0x9d0>
    1944: 86 98        	stx	$98                     ; 0x2098 <printf+0xa4f>
    1946: a0 01        	ldy	#$1
    1948: 80 0e        	bra	$1958 <printf+0x30f>
    194a: e6 12        	inc	$12                     ; 0x2012 <printf+0x9c9>
    194c: d0 02        	bne	$1950 <printf+0x307>
    194e: e6 13        	inc	$13                     ; 0x2013 <printf+0x9ca>
    1950: 64 18        	stz	$18                     ; 0x2018 <printf+0x9cf>
    1952: 64 97        	stz	$97                     ; 0x2097 <printf+0xa4e>
    1954: 64 98        	stz	$98                     ; 0x2098 <printf+0xa4f>
    1956: 64 19        	stz	$19                     ; 0x2019 <printf+0x9d0>
    1958: a5 5b        	lda	$5b                     ; 0x205b <printf+0xa12>
    195a: 29 ef        	and	#$ef
    195c: 85 5b        	sta	$5b                     ; 0x205b <printf+0xa12>
    195e: 85 8b        	sta	$8b                     ; 0x208b <printf+0xa42>
    1960: a2 00        	ldx	#$0
    1962: 86 8c        	stx	$8c                     ; 0x208c <printf+0xa43>
    1964: b2 12        	lda	($12)                   ; 0x2012 <printf+0x9c9>
    1966: a6 19        	ldx	$19                     ; 0x2019 <printf+0x9d0>
    1968: 86 15        	stx	$15                     ; 0x2015 <printf+0x9cc>
    196a: a6 12        	ldx	$12                     ; 0x2012 <printf+0x9c9>
    196c: 86 5c        	stx	$5c                     ; 0x205c <printf+0xa13>
    196e: a6 13        	ldx	$13                     ; 0x2013 <printf+0x9ca>
    1970: 86 5d        	stx	$5d                     ; 0x205d <printf+0xa14>
    1972: e6 5c        	inc	$5c                     ; 0x205c <printf+0xa13>
    1974: d0 02        	bne	$1978 <printf+0x32f>
    1976: e6 5d        	inc	$5d                     ; 0x205d <printf+0xa14>
    1978: 85 14        	sta	$14                     ; 0x2014 <printf+0x9cb>
    197a: 38           	sec
    197b: e9 6c        	sbc	#$6c
    197d: 50 02        	bvc	$1981 <printf+0x338>
    197f: 49 80        	eor	#$80
    1981: aa           	tax
    1982: 10 1d        	bpl	$19a1 <printf+0x358>
    1984: a5 14        	lda	$14                     ; 0x2014 <printf+0x9cb>
    1986: c9 4c        	cmp	#$4c
    1988: f0 27        	beq	$19b1 <printf+0x368>
    198a: c9 68        	cmp	#$68
    198c: d0 03        	bne	$1991 <printf+0x348>
    198e: 4c 18 1a     	jmp	$1a18 <printf+0x3cf>
    1991: a2 08        	ldx	#$8
    1993: c9 6a        	cmp	#$6a
    1995: d0 2e        	bne	$19c5 <printf+0x37c>
    1997: a5 5c        	lda	$5c                     ; 0x205c <printf+0xa13>
    1999: 85 12        	sta	$12                     ; 0x2012 <printf+0x9c9>
    199b: a5 5d        	lda	$5d                     ; 0x205d <printf+0xa14>
    199d: 85 13        	sta	$13                     ; 0x2013 <printf+0x9ca>
    199f: 80 43        	bra	$19e4 <printf+0x39b>
    19a1: a6 14        	ldx	$14                     ; 0x2014 <printf+0x9cb>
    19a3: e0 6c        	cpx	#$6c
    19a5: f0 23        	beq	$19ca <printf+0x381>
    19a7: e0 74        	cpx	#$74
    19a9: f0 12        	beq	$19bd <printf+0x374>
    19ab: e0 7a        	cpx	#$7a
    19ad: f0 0e        	beq	$19bd <printf+0x374>
    19af: 80 14        	bra	$19c5 <printf+0x37c>
    19b1: a5 5b        	lda	$5b                     ; 0x205b <printf+0xa12>
    19b3: 09 40        	ora	#$40
    19b5: 85 5b        	sta	$5b                     ; 0x205b <printf+0xa12>
    19b7: 85 8b        	sta	$8b                     ; 0x208b <printf+0xa42>
    19b9: a2 00        	ldx	#$0
    19bb: 86 8c        	stx	$8c                     ; 0x208c <printf+0xa43>
    19bd: a6 5c        	ldx	$5c                     ; 0x205c <printf+0xa13>
    19bf: 86 12        	stx	$12                     ; 0x2012 <printf+0x9c9>
    19c1: a6 5d        	ldx	$5d                     ; 0x205d <printf+0xa14>
    19c3: 86 13        	stx	$13                     ; 0x2013 <printf+0x9ca>
    19c5: a2 02        	ldx	#$2
    19c7: 8a           	txa
    19c8: 80 1c        	bra	$19e6 <printf+0x39d>
    19ca: b1 12        	lda	($12),y                 ; 0x2012 <printf+0x9c9>
    19cc: a2 04        	ldx	#$4
    19ce: c9 6c        	cmp	#$6c
    19d0: f0 03        	beq	$19d5 <printf+0x38c>
    19d2: 4c 27 1d     	jmp	$1d27 <printf+0x6de>
    19d5: a5 12        	lda	$12                     ; 0x2012 <printf+0x9c9>
    19d7: 18           	clc
    19d8: 69 02        	adc	#$2
    19da: 85 12        	sta	$12                     ; 0x2012 <printf+0x9c9>
    19dc: a5 13        	lda	$13                     ; 0x2013 <printf+0x9ca>
    19de: 69 00        	adc	#$0
    19e0: 85 13        	sta	$13                     ; 0x2013 <printf+0x9ca>
    19e2: a2 08        	ldx	#$8
    19e4: a9 08        	lda	#$8
    19e6: 85 a0        	sta	$a0                     ; 0x20a0 <printf+0xa57>
    19e8: b2 12        	lda	($12)                   ; 0x2012 <printf+0x9c9>
    19ea: 5a           	phy
    19eb: a4 12        	ldy	$12                     ; 0x2012 <printf+0x9c9>
    19ed: 84 5c        	sty	$5c                     ; 0x205c <printf+0xa13>
    19ef: a4 13        	ldy	$13                     ; 0x2013 <printf+0x9ca>
    19f1: 84 5d        	sty	$5d                     ; 0x205d <printf+0xa14>
    19f3: 7a           	ply
    19f4: 86 5e        	stx	$5e                     ; 0x205e <printf+0xa15>
    19f6: aa           	tax
    19f7: 18           	clc
    19f8: 69 9d        	adc	#$9d
    19fa: c9 16        	cmp	#$16
    19fc: b0 39        	bcs	$1a37 <printf+0x3ee>
    19fe: 0a           	asl
    19ff: aa           	tax
    1a00: 7c 4c 27     	jmp	($274c,x)               ; 0x274c <__set_v+0xf>
    1a03: a6 15        	ldx	$15                     ; 0x2015 <printf+0x9cc>
    1a05: 86 a3        	stx	$a3                     ; 0x20a3 <printf+0xa5a>
    1a07: a6 18        	ldx	$18                     ; 0x2018 <printf+0x9cf>
    1a09: 86 a4        	stx	$a4                     ; 0x20a4 <printf+0xa5b>
    1a0b: a0 0a        	ldy	#$a
    1a0d: a2 0a        	ldx	#$a
    1a0f: 86 9f        	stx	$9f                     ; 0x209f <printf+0xa56>
    1a11: 84 8a        	sty	$8a                     ; 0x208a <printf+0xa41>
    1a13: 64 65        	stz	$65                     ; 0x2065 <printf+0xa1c>
    1a15: 4c 37 1b     	jmp	$1b37 <printf+0x4ee>
    1a18: b1 12        	lda	($12),y                 ; 0x2012 <printf+0x9c9>
    1a1a: a2 02        	ldx	#$2
    1a1c: c9 68        	cmp	#$68
    1a1e: f0 03        	beq	$1a23 <printf+0x3da>
    1a20: 4c 2d 1d     	jmp	$1d2d <printf+0x6e4>
    1a23: a5 12        	lda	$12                     ; 0x2012 <printf+0x9c9>
    1a25: 18           	clc
    1a26: 69 02        	adc	#$2
    1a28: 85 12        	sta	$12                     ; 0x2012 <printf+0x9c9>
    1a2a: a5 13        	lda	$13                     ; 0x2013 <printf+0x9ca>
    1a2c: 69 00        	adc	#$0
    1a2e: 85 13        	sta	$13                     ; 0x2013 <printf+0x9ca>
    1a30: a2 01        	ldx	#$1
    1a32: 86 a0        	stx	$a0                     ; 0x20a0 <printf+0xa57>
    1a34: e8           	inx
    1a35: 80 b1        	bra	$19e8 <printf+0x39f>
    1a37: e0 58        	cpx	#$58
    1a39: f0 03        	beq	$1a3e <printf+0x3f5>
    1a3b: 4c db 21     	jmp	$21db <printf+0xb92>
    1a3e: a6 15        	ldx	$15                     ; 0x2015 <printf+0x9cc>
    1a40: 86 a3        	stx	$a3                     ; 0x20a3 <printf+0xa5a>
    1a42: a6 18        	ldx	$18                     ; 0x2018 <printf+0x9cf>
    1a44: 86 a4        	stx	$a4                     ; 0x20a4 <printf+0xa5b>
    1a46: a2 10        	ldx	#$10
    1a48: 86 8a        	stx	$8a                     ; 0x208a <printf+0xa41>
    1a4a: a9 00        	lda	#$0
    1a4c: 09 01        	ora	#$1
    1a4e: a6 5b        	ldx	$5b                     ; 0x205b <printf+0xa12>
    1a50: 80 29        	bra	$1a7b <printf+0x432>
    1a52: a6 15        	ldx	$15                     ; 0x2015 <printf+0x9cc>
    1a54: 86 a3        	stx	$a3                     ; 0x20a3 <printf+0xa5a>
    1a56: a6 18        	ldx	$18                     ; 0x2018 <printf+0x9cf>
    1a58: 86 a4        	stx	$a4                     ; 0x20a4 <printf+0xa5b>
    1a5a: a2 10        	ldx	#$10
    1a5c: 86 8a        	stx	$8a                     ; 0x208a <printf+0xa41>
    1a5e: a5 5b        	lda	$5b                     ; 0x205b <printf+0xa12>
    1a60: 09 84        	ora	#$84
    1a62: 80 10        	bra	$1a74 <printf+0x42b>
    1a64: a6 15        	ldx	$15                     ; 0x2015 <printf+0x9cc>
    1a66: 86 a3        	stx	$a3                     ; 0x20a3 <printf+0xa5a>
    1a68: a6 18        	ldx	$18                     ; 0x2018 <printf+0x9cf>
    1a6a: 86 a4        	stx	$a4                     ; 0x20a4 <printf+0xa5b>
    1a6c: a2 10        	ldx	#$10
    1a6e: 86 8a        	stx	$8a                     ; 0x208a <printf+0xa41>
    1a70: a5 5b        	lda	$5b                     ; 0x205b <printf+0xa12>
    1a72: 09 80        	ora	#$80
    1a74: aa           	tax
    1a75: a9 00        	lda	#$0
    1a77: 09 01        	ora	#$1
    1a79: 86 5b        	stx	$5b                     ; 0x205b <printf+0xa12>
    1a7b: 86 8b        	stx	$8b                     ; 0x208b <printf+0xa42>
    1a7d: 85 65        	sta	$65                     ; 0x2065 <printf+0xa1c>
    1a7f: 85 8c        	sta	$8c                     ; 0x208c <printf+0xa43>
    1a81: a2 10        	ldx	#$10
    1a83: 86 9f        	stx	$9f                     ; 0x209f <printf+0xa56>
    1a85: 4c 37 1b     	jmp	$1b37 <printf+0x4ee>
    1a88: a5 9b        	lda	$9b                     ; 0x209b <printf+0xa52>
    1a8a: a6 9c        	ldx	$9c                     ; 0x209c <printf+0xa53>
    1a8c: 85 12        	sta	$12                     ; 0x2012 <printf+0x9c9>
    1a8e: 86 13        	stx	$13                     ; 0x2013 <printf+0x9ca>
    1a90: 18           	clc
    1a91: 69 02        	adc	#$2
    1a93: 85 14        	sta	$14                     ; 0x2014 <printf+0x9cb>
    1a95: 8a           	txa
    1a96: 69 00        	adc	#$0
    1a98: a6 14        	ldx	$14                     ; 0x2014 <printf+0x9cb>
    1a9a: 86 9b        	stx	$9b                     ; 0x209b <printf+0xa52>
    1a9c: 85 9c        	sta	$9c                     ; 0x209c <printf+0xa53>
    1a9e: b2 12        	lda	($12)                   ; 0x2012 <printf+0x9c9>
    1aa0: aa           	tax
    1aa1: b1 12        	lda	($12),y                 ; 0x2012 <printf+0x9c9>
    1aa3: 86 12        	stx	$12                     ; 0x2012 <printf+0x9c9>
    1aa5: 85 13        	sta	$13                     ; 0x2013 <printf+0x9ca>
    1aa7: a5 8f        	lda	$8f                     ; 0x208f <printf+0xa46>
    1aa9: a6 90        	ldx	$90                     ; 0x2090 <printf+0xa47>
    1aab: 92 12        	sta	($12)                   ; 0x2012 <printf+0x9c9>
    1aad: 8a           	txa
    1aae: 91 12        	sta	($12),y                 ; 0x2012 <printf+0x9c9>
    1ab0: 4c 10 1b     	jmp	$1b10 <printf+0x4c7>
    1ab3: a5 9b        	lda	$9b                     ; 0x209b <printf+0xa52>
    1ab5: a6 9c        	ldx	$9c                     ; 0x209c <printf+0xa53>
    1ab7: 85 12        	sta	$12                     ; 0x2012 <printf+0x9c9>
    1ab9: 86 13        	stx	$13                     ; 0x2013 <printf+0x9ca>
    1abb: 18           	clc
    1abc: 69 02        	adc	#$2
    1abe: 85 14        	sta	$14                     ; 0x2014 <printf+0x9cb>
    1ac0: 8a           	txa
    1ac1: 69 00        	adc	#$0
    1ac3: a6 14        	ldx	$14                     ; 0x2014 <printf+0x9cb>
    1ac5: 86 9b        	stx	$9b                     ; 0x209b <printf+0xa52>
    1ac7: 85 9c        	sta	$9c                     ; 0x209c <printf+0xa53>
    1ac9: b2 12        	lda	($12)                   ; 0x2012 <printf+0x9c9>
    1acb: aa           	tax
    1acc: b1 12        	lda	($12),y                 ; 0x2012 <printf+0x9c9>
    1ace: 86 12        	stx	$12                     ; 0x2012 <printf+0x9c9>
    1ad0: 85 13        	sta	$13                     ; 0x2013 <printf+0x9ca>
    1ad2: 80 2f        	bra	$1b03 <printf+0x4ba>
    1ad4: a6 15        	ldx	$15                     ; 0x2015 <printf+0x9cc>
    1ad6: 86 a3        	stx	$a3                     ; 0x20a3 <printf+0xa5a>
    1ad8: a6 18        	ldx	$18                     ; 0x2018 <printf+0x9cf>
    1ada: 86 a4        	stx	$a4                     ; 0x20a4 <printf+0xa5b>
    1adc: a0 08        	ldy	#$8
    1ade: a2 08        	ldx	#$8
    1ae0: 80 45        	bra	$1b27 <printf+0x4de>
    1ae2: a5 9b        	lda	$9b                     ; 0x209b <printf+0xa52>
    1ae4: a6 9c        	ldx	$9c                     ; 0x209c <printf+0xa53>
    1ae6: 85 12        	sta	$12                     ; 0x2012 <printf+0x9c9>
    1ae8: 86 13        	stx	$13                     ; 0x2013 <printf+0x9ca>
    1aea: 18           	clc
    1aeb: 69 02        	adc	#$2
    1aed: a8           	tay
    1aee: 8a           	txa
    1aef: 69 00        	adc	#$0
    1af1: 84 9b        	sty	$9b                     ; 0x209b <printf+0xa52>
    1af3: 85 9c        	sta	$9c                     ; 0x209c <printf+0xa53>
    1af5: b2 12        	lda	($12)                   ; 0x2012 <printf+0x9c9>
    1af7: 85 7d        	sta	$7d                     ; 0x207d <printf+0xa34>
    1af9: 64 7e        	stz	$7e                     ; 0x207e <printf+0xa35>
    1afb: a2 7d        	ldx	#$7d
    1afd: 86 12        	stx	$12                     ; 0x2012 <printf+0x9c9>
    1aff: a2 00        	ldx	#$0
    1b01: 86 13        	stx	$13                     ; 0x2013 <printf+0x9ca>
    1b03: a2 8a        	ldx	#$8a
    1b05: 86 14        	stx	$14                     ; 0x2014 <printf+0x9cb>
    1b07: a2 00        	ldx	#$0
    1b09: 86 15        	stx	$15                     ; 0x2015 <printf+0x9cc>
    1b0b: 20 3d 15     	jsr	$153d <_ZN12_GLOBAL__N_112print_stringEPKcP6Status>
    1b0e: a0 01        	ldy	#$1
    1b10: a2 00        	ldx	#$0
    1b12: 86 5e        	stx	$5e                     ; 0x205e <printf+0xa15>
    1b14: a2 00        	ldx	#$0
    1b16: 86 5f        	stx	$5f                     ; 0x205f <printf+0xa16>
    1b18: 4c c3 21     	jmp	$21c3 <printf+0xb7a>
    1b1b: a6 15        	ldx	$15                     ; 0x2015 <printf+0x9cc>
    1b1d: 86 a3        	stx	$a3                     ; 0x20a3 <printf+0xa5a>
    1b1f: a6 18        	ldx	$18                     ; 0x2018 <printf+0x9cf>
    1b21: 86 a4        	stx	$a4                     ; 0x20a4 <printf+0xa5b>
    1b23: a0 0a        	ldy	#$a
    1b25: a2 0a        	ldx	#$a
    1b27: 86 9f        	stx	$9f                     ; 0x209f <printf+0xa56>
    1b29: 84 8a        	sty	$8a                     ; 0x208a <printf+0xa41>
    1b2b: a9 00        	lda	#$0
    1b2d: 09 01        	ora	#$1
    1b2f: a6 5b        	ldx	$5b                     ; 0x205b <printf+0xa12>
    1b31: 86 8b        	stx	$8b                     ; 0x208b <printf+0xa42>
    1b33: 85 65        	sta	$65                     ; 0x2065 <printf+0xa1c>
    1b35: 85 8c        	sta	$8c                     ; 0x208c <printf+0xa43>
    1b37: a5 a0        	lda	$a0                     ; 0x20a0 <printf+0xa57>
    1b39: 85 7f        	sta	$7f                     ; 0x207f <printf+0xa36>
    1b3b: a4 9b        	ldy	$9b                     ; 0x209b <printf+0xa52>
    1b3d: a6 9c        	ldx	$9c                     ; 0x209c <printf+0xa53>
    1b3f: 86 63        	stx	$63                     ; 0x2063 <printf+0xa1a>
    1b41: 84 14        	sty	$14                     ; 0x2014 <printf+0x9cb>
    1b43: 84 5a        	sty	$5a                     ; 0x205a <printf+0xa11>
    1b45: 86 15        	stx	$15                     ; 0x2015 <printf+0x9cc>
    1b47: a6 a1        	ldx	$a1                     ; 0x20a1 <printf+0xa58>
    1b49: 86 12        	stx	$12                     ; 0x2012 <printf+0x9c9>
    1b4b: a6 a2        	ldx	$a2                     ; 0x20a2 <printf+0xa59>
    1b4d: 86 13        	stx	$13                     ; 0x2013 <printf+0x9ca>
    1b4f: a2 00        	ldx	#$0
    1b51: 85 5f        	sta	$5f                     ; 0x205f <printf+0xa16>
    1b53: 20 bf 26     	jsr	$26bf <memcpy>
    1b56: 18           	clc
    1b57: a5 5a        	lda	$5a                     ; 0x205a <printf+0xa11>
    1b59: 65 5e        	adc	$5e                     ; 0x205e <printf+0xa15>
    1b5b: aa           	tax
    1b5c: a5 63        	lda	$63                     ; 0x2063 <printf+0xa1a>
    1b5e: 69 00        	adc	#$0
    1b60: 86 9b        	stx	$9b                     ; 0x209b <printf+0xa52>
    1b62: 85 9c        	sta	$9c                     ; 0x209c <printf+0xa53>
    1b64: a5 65        	lda	$65                     ; 0x2065 <printf+0xa1c>
    1b66: 29 01        	and	#$1
    1b68: b8           	clv
    1b69: f0 03        	beq	$1b6e <printf+0x525>
    1b6b: 4c c2 1b     	jmp	$1bc2 <printf+0x579>
    1b6e: a6 5f        	ldx	$5f                     ; 0x205f <printf+0xa16>
    1b70: b5 7f        	lda	$7f,x                   ; 0x207f <printf+0xa36>
    1b72: aa           	tax
    1b73: a0 01        	ldy	#$1
    1b75: a5 62        	lda	$62                     ; 0x2062 <printf+0xa19>
    1b77: 85 1a        	sta	$1a                     ; 0x201a <printf+0x9d1>
    1b79: a5 a4        	lda	$a4                     ; 0x20a4 <printf+0xa5b>
    1b7b: 85 62        	sta	$62                     ; 0x2062 <printf+0xa19>
    1b7d: a9 00        	lda	#$0
    1b7f: 85 5e        	sta	$5e                     ; 0x205e <printf+0xa15>
    1b81: a9 00        	lda	#$0
    1b83: 85 5f        	sta	$5f                     ; 0x205f <printf+0xa16>
    1b85: a5 a3        	lda	$a3                     ; 0x20a3 <printf+0xa5a>
    1b87: 85 63        	sta	$63                     ; 0x2063 <printf+0xa1a>
    1b89: 8a           	txa
    1b8a: 10 4c        	bpl	$1bd8 <printf+0x58f>
    1b8c: a2 00        	ldx	#$0
    1b8e: 64 12        	stz	$12                     ; 0x2012 <printf+0x9c9>
    1b90: a9 00        	lda	#$0
    1b92: 38           	sec
    1b93: f5 80        	sbc	$80,x                   ; 0x2080 <printf+0xa37>
    1b95: a0 00        	ldy	#$0
    1b97: b0 02        	bcs	$1b9b <printf+0x552>
    1b99: a0 01        	ldy	#$1
    1b9b: 38           	sec
    1b9c: e5 12        	sbc	$12                     ; 0x2012 <printf+0x9c9>
    1b9e: 85 13        	sta	$13                     ; 0x2013 <printf+0x9ca>
    1ba0: 64 12        	stz	$12                     ; 0x2012 <printf+0x9c9>
    1ba2: b0 04        	bcs	$1ba8 <printf+0x55f>
    1ba4: a9 01        	lda	#$1
    1ba6: 85 12        	sta	$12                     ; 0x2012 <printf+0x9c9>
    1ba8: 98           	tya
    1ba9: 05 12        	ora	$12                     ; 0x2012 <printf+0x9c9>
    1bab: 85 12        	sta	$12                     ; 0x2012 <printf+0x9c9>
    1bad: a5 13        	lda	$13                     ; 0x2013 <printf+0x9ca>
    1baf: 9d 80 00     	sta	$80,x                   ; 0x80 <__rc31+0x51>
    1bb2: e8           	inx
    1bb3: 86 13        	stx	$13                     ; 0x2013 <printf+0x9ca>
    1bb5: a4 a0        	ldy	$a0                     ; 0x20a0 <printf+0xa57>
    1bb7: c4 13        	cpy	$13                     ; 0x2013 <printf+0x9ca>
    1bb9: d0 d5        	bne	$1b90 <printf+0x547>
    1bbb: 2c 3d 27     	bit	$273d                   ; 0x273d <__set_v>
    1bbe: a0 01        	ldy	#$1
    1bc0: 80 16        	bra	$1bd8 <printf+0x58f>
    1bc2: a0 01        	ldy	#$1
    1bc4: a6 62        	ldx	$62                     ; 0x2062 <printf+0xa19>
    1bc6: 86 1a        	stx	$1a                     ; 0x201a <printf+0x9d1>
    1bc8: a6 a4        	ldx	$a4                     ; 0x20a4 <printf+0xa5b>
    1bca: 86 62        	stx	$62                     ; 0x2062 <printf+0xa19>
    1bcc: a2 00        	ldx	#$0
    1bce: 86 5e        	stx	$5e                     ; 0x205e <printf+0xa15>
    1bd0: a2 00        	ldx	#$0
    1bd2: 86 5f        	stx	$5f                     ; 0x205f <printf+0xa16>
    1bd4: a6 a3        	ldx	$a3                     ; 0x20a3 <printf+0xa5a>
    1bd6: 86 63        	stx	$63                     ; 0x2063 <printf+0xa1a>
    1bd8: a2 01        	ldx	#$1
    1bda: 70 02        	bvs	$1bde <printf+0x595>
    1bdc: a2 00        	ldx	#$0
    1bde: 86 16        	stx	$16                     ; 0x2016 <printf+0x9cd>
    1be0: a5 a0        	lda	$a0                     ; 0x20a0 <printf+0xa57>
    1be2: 0a           	asl
    1be3: 0a           	asl
    1be4: 0a           	asl
    1be5: 85 12        	sta	$12                     ; 0x2012 <printf+0x9c9>
    1be7: a2 00        	ldx	#$0
    1be9: 8a           	txa
    1bea: e0 00        	cpx	#$0
    1bec: d0 03        	bne	$1bf1 <printf+0x5a8>
    1bee: 4c 76 1c     	jmp	$1c76 <printf+0x62d>
    1bf1: 85 17        	sta	$17                     ; 0x2017 <printf+0x9ce>
    1bf3: 86 5a        	stx	$5a                     ; 0x205a <printf+0xa11>
    1bf5: ca           	dex
    1bf6: 86 15        	stx	$15                     ; 0x2015 <printf+0x9cc>
    1bf8: a2 00        	ldx	#$0
    1bfa: 64 13        	stz	$13                     ; 0x2013 <printf+0x9ca>
    1bfc: 80 0d        	bra	$1c0b <printf+0x5c2>
    1bfe: a4 13        	ldy	$13                     ; 0x2013 <printf+0x9ca>
    1c00: 99 68 00     	sta	$68,y                   ; 0x68 <__rc31+0x39>
    1c03: a4 15        	ldy	$15                     ; 0x2015 <printf+0x9cc>
    1c05: c4 13        	cpy	$13                     ; 0x2013 <printf+0x9ca>
    1c07: f0 38        	beq	$1c41 <printf+0x5f8>
    1c09: e6 13        	inc	$13                     ; 0x2013 <printf+0x9ca>
    1c0b: a4 13        	ldy	$13                     ; 0x2013 <printf+0x9ca>
    1c0d: b9 68 00     	lda	$68,y                   ; 0x68 <__rc31+0x39>
    1c10: 0a           	asl
    1c11: e0 00        	cpx	#$0
    1c13: f0 02        	beq	$1c17 <printf+0x5ce>
    1c15: 09 01        	ora	#$1
    1c17: a4 9f        	ldy	$9f                     ; 0x209f <printf+0xa56>
    1c19: 84 14        	sty	$14                     ; 0x2014 <printf+0x9cb>
    1c1b: c5 14        	cmp	$14                     ; 0x2014 <printf+0x9cb>
    1c1d: a2 01        	ldx	#$1
    1c1f: b0 02        	bcs	$1c23 <printf+0x5da>
    1c21: a2 00        	ldx	#$0
    1c23: 90 d9        	bcc	$1bfe <printf+0x5b5>
    1c25: 84 14        	sty	$14                     ; 0x2014 <printf+0x9cb>
    1c27: 38           	sec
    1c28: e5 14        	sbc	$14                     ; 0x2014 <printf+0x9cb>
    1c2a: a4 13        	ldy	$13                     ; 0x2013 <printf+0x9ca>
    1c2c: 99 68 00     	sta	$68,y                   ; 0x68 <__rc31+0x39>
    1c2f: a4 15        	ldy	$15                     ; 0x2015 <printf+0x9cc>
    1c31: c4 13        	cpy	$13                     ; 0x2013 <printf+0x9ca>
    1c33: d0 d4        	bne	$1c09 <printf+0x5c0>
    1c35: a4 5a        	ldy	$5a                     ; 0x205a <printf+0xa11>
    1c37: a6 5a        	ldx	$5a                     ; 0x205a <printf+0xa11>
    1c39: e8           	inx
    1c3a: a9 01        	lda	#$1
    1c3c: 99 68 00     	sta	$68,y                   ; 0x68 <__rc31+0x39>
    1c3f: 86 5a        	stx	$5a                     ; 0x205a <printf+0xa11>
    1c41: a6 a0        	ldx	$a0                     ; 0x20a0 <printf+0xa57>
    1c43: b5 7f        	lda	$7f,x                   ; 0x207f <printf+0xa36>
    1c45: aa           	tax
    1c46: a0 01        	ldy	#$1
    1c48: 8a           	txa
    1c49: 10 47        	bpl	$1c92 <printf+0x649>
    1c4b: a5 5a        	lda	$5a                     ; 0x205a <printf+0xa11>
    1c4d: f0 34        	beq	$1c83 <printf+0x63a>
    1c4f: a2 00        	ldx	#$0
    1c51: a4 9f        	ldy	$9f                     ; 0x209f <printf+0xa56>
    1c53: 84 14        	sty	$14                     ; 0x2014 <printf+0x9cb>
    1c55: b5 68        	lda	$68,x                   ; 0x2068 <printf+0xa1f>
    1c57: 1a           	inc
    1c58: f6 68        	inc	$68,x                   ; 0x2068 <printf+0xa1f>
    1c5a: c5 14        	cmp	$14                     ; 0x2014 <printf+0x9cb>
    1c5c: b0 03        	bcs	$1c61 <printf+0x618>
    1c5e: 4c bd 1c     	jmp	$1cbd <printf+0x674>
    1c61: a4 14        	ldy	$14                     ; 0x2014 <printf+0x9cb>
    1c63: 84 13        	sty	$13                     ; 0x2013 <printf+0x9ca>
    1c65: 38           	sec
    1c66: e5 13        	sbc	$13                     ; 0x2013 <printf+0x9ca>
    1c68: 9d 68 00     	sta	$68,x                   ; 0x68 <__rc31+0x39>
    1c6b: e8           	inx
    1c6c: 86 13        	stx	$13                     ; 0x2013 <printf+0x9ca>
    1c6e: a4 5a        	ldy	$5a                     ; 0x205a <printf+0xa11>
    1c70: c4 13        	cpy	$13                     ; 0x2013 <printf+0x9ca>
    1c72: d0 e1        	bne	$1c55 <printf+0x60c>
    1c74: 80 0f        	bra	$1c85 <printf+0x63c>
    1c76: 85 17        	sta	$17                     ; 0x2017 <printf+0x9ce>
    1c78: a6 a0        	ldx	$a0                     ; 0x20a0 <printf+0xa57>
    1c7a: b5 7f        	lda	$7f,x                   ; 0x207f <printf+0xa36>
    1c7c: aa           	tax
    1c7d: 64 5a        	stz	$5a                     ; 0x205a <printf+0xa11>
    1c7f: 30 04        	bmi	$1c85 <printf+0x63c>
    1c81: 80 0f        	bra	$1c92 <printf+0x649>
    1c83: 64 5a        	stz	$5a                     ; 0x205a <printf+0xa11>
    1c85: a4 5a        	ldy	$5a                     ; 0x205a <printf+0xa11>
    1c87: a6 5a        	ldx	$5a                     ; 0x205a <printf+0xa11>
    1c89: e8           	inx
    1c8a: a9 01        	lda	#$1
    1c8c: 99 68 00     	sta	$68,y                   ; 0x68 <__rc31+0x39>
    1c8f: a8           	tay
    1c90: 86 5a        	stx	$5a                     ; 0x205a <printf+0xa11>
    1c92: a2 01        	ldx	#$1
    1c94: 64 13        	stz	$13                     ; 0x2013 <printf+0x9ca>
    1c96: a5 a0        	lda	$a0                     ; 0x20a0 <printf+0xa57>
    1c98: 85 14        	sta	$14                     ; 0x2014 <printf+0x9cb>
    1c9a: b5 7f        	lda	$7f,x                   ; 0x207f <printf+0xa36>
    1c9c: 0a           	asl
    1c9d: 64 15        	stz	$15                     ; 0x2015 <printf+0x9cc>
    1c9f: 26 15        	rol	$15                     ; 0x2015 <printf+0x9cc>
    1ca1: 05 13        	ora	$13                     ; 0x2013 <printf+0x9ca>
    1ca3: 9d 7f 00     	sta	$7f,x                   ; 0x7f <__rc31+0x50>
    1ca6: e8           	inx
    1ca7: c6 14        	dec	$14                     ; 0x2014 <printf+0x9cb>
    1ca9: a5 15        	lda	$15                     ; 0x2015 <printf+0x9cc>
    1cab: 85 13        	sta	$13                     ; 0x2013 <printf+0x9ca>
    1cad: a5 14        	lda	$14                     ; 0x2014 <printf+0x9cb>
    1caf: d0 e9        	bne	$1c9a <printf+0x651>
    1cb1: a5 17        	lda	$17                     ; 0x2017 <printf+0x9ce>
    1cb3: 1a           	inc
    1cb4: c5 12        	cmp	$12                     ; 0x2012 <printf+0x9c9>
    1cb6: a6 5a        	ldx	$5a                     ; 0x205a <printf+0xa11>
    1cb8: b0 07        	bcs	$1cc1 <printf+0x678>
    1cba: 4c ea 1b     	jmp	$1bea <printf+0x5a1>
    1cbd: a0 01        	ldy	#$1
    1cbf: 80 d1        	bra	$1c92 <printf+0x649>
    1cc1: a5 5b        	lda	$5b                     ; 0x205b <printf+0xa12>
    1cc3: e6 63        	inc	$63                     ; 0x2063 <printf+0xa1a>
    1cc5: c6 63        	dec	$63                     ; 0x2063 <printf+0xa1a>
    1cc7: 10 08        	bpl	$1cd1 <printf+0x688>
    1cc9: a2 01        	ldx	#$1
    1ccb: 64 63        	stz	$63                     ; 0x2063 <printf+0xa1a>
    1ccd: 86 62        	stx	$62                     ; 0x2062 <printf+0xa19>
    1ccf: a6 5a        	ldx	$5a                     ; 0x205a <printf+0xa11>
    1cd1: 29 04        	and	#$4
    1cd3: f0 2b        	beq	$1d00 <printf+0x6b7>
    1cd5: a5 9f        	lda	$9f                     ; 0x209f <printf+0xa56>
    1cd7: c9 10        	cmp	#$10
    1cd9: f0 14        	beq	$1cef <printf+0x6a6>
    1cdb: c9 08        	cmp	#$8
    1cdd: d0 21        	bne	$1d00 <printf+0x6b7>
    1cdf: a2 00        	ldx	#$0
    1ce1: e4 63        	cpx	$63                     ; 0x2063 <printf+0xa1a>
    1ce3: f0 03        	beq	$1ce8 <printf+0x69f>
    1ce5: 4c ea 21     	jmp	$21ea <printf+0xba1>
    1ce8: a6 5a        	ldx	$5a                     ; 0x205a <printf+0xa11>
    1cea: e4 62        	cpx	$62                     ; 0x2062 <printf+0xa19>
    1cec: 4c ec 21     	jmp	$21ec <printf+0xba3>
    1cef: 8a           	txa
    1cf0: f0 0e        	beq	$1d00 <printf+0x6b7>
    1cf2: a5 5b        	lda	$5b                     ; 0x205b <printf+0xa12>
    1cf4: 29 80        	and	#$80
    1cf6: d0 03        	bne	$1cfb <printf+0x6b2>
    1cf8: 4c 05 22     	jmp	$2205 <printf+0xbbc>
    1cfb: a2 78        	ldx	#$78
    1cfd: 4c 07 22     	jmp	$2207 <printf+0xbbe>
    1d00: a6 5b        	ldx	$5b                     ; 0x205b <printf+0xa12>
    1d02: a9 2d        	lda	#$2d
    1d04: 85 a3        	sta	$a3                     ; 0x20a3 <printf+0xa5a>
    1d06: a5 16        	lda	$16                     ; 0x2016 <printf+0x9cd>
    1d08: d0 32        	bne	$1d3c <printf+0x6f3>
    1d0a: 86 12        	stx	$12                     ; 0x2012 <printf+0x9c9>
    1d0c: 8a           	txa
    1d0d: 29 02        	and	#$2
    1d0f: a2 2b        	ldx	#$2b
    1d11: 86 a3        	stx	$a3                     ; 0x20a3 <printf+0xa5a>
    1d13: aa           	tax
    1d14: d0 26        	bne	$1d3c <printf+0x6f3>
    1d16: a5 12        	lda	$12                     ; 0x2012 <printf+0x9c9>
    1d18: 29 08        	and	#$8
    1d1a: d0 1c        	bne	$1d38 <printf+0x6ef>
    1d1c: a2 01        	ldx	#$1
    1d1e: 86 a0        	stx	$a0                     ; 0x20a0 <printf+0xa57>
    1d20: a9 00        	lda	#$0
    1d22: aa           	tax
    1d23: 86 9f        	stx	$9f                     ; 0x209f <printf+0xa56>
    1d25: 80 1c        	bra	$1d43 <printf+0x6fa>
    1d27: 85 12        	sta	$12                     ; 0x2012 <printf+0x9c9>
    1d29: a9 04        	lda	#$4
    1d2b: 80 04        	bra	$1d31 <printf+0x6e8>
    1d2d: 85 12        	sta	$12                     ; 0x2012 <printf+0x9c9>
    1d2f: a9 02        	lda	#$2
    1d31: 85 a0        	sta	$a0                     ; 0x20a0 <printf+0xa57>
    1d33: a5 12        	lda	$12                     ; 0x2012 <printf+0x9c9>
    1d35: 4c f4 19     	jmp	$19f4 <printf+0x3ab>
    1d38: a2 20        	ldx	#$20
    1d3a: 86 a3        	stx	$a3                     ; 0x20a3 <printf+0xa5a>
    1d3c: a2 00        	ldx	#$0
    1d3e: 86 a0        	stx	$a0                     ; 0x20a0 <printf+0xa57>
    1d40: 86 9f        	stx	$9f                     ; 0x209f <printf+0xa56>
    1d42: 98           	tya
    1d43: a6 63        	ldx	$63                     ; 0x2063 <printf+0xa1a>
    1d45: d0 35        	bne	$1d7c <printf+0x733>
    1d47: a6 62        	ldx	$62                     ; 0x2062 <printf+0xa19>
    1d49: a4 5a        	ldy	$5a                     ; 0x205a <printf+0xa11>
    1d4b: 84 12        	sty	$12                     ; 0x2012 <printf+0x9c9>
    1d4d: e4 12        	cpx	$12                     ; 0x2012 <printf+0x9c9>
    1d4f: a6 62        	ldx	$62                     ; 0x2062 <printf+0xa19>
    1d51: 86 12        	stx	$12                     ; 0x2012 <printf+0x9c9>
    1d53: a6 63        	ldx	$63                     ; 0x2063 <printf+0xa1a>
    1d55: 86 13        	stx	$13                     ; 0x2013 <printf+0x9ca>
    1d57: b0 04        	bcs	$1d5d <printf+0x714>
    1d59: 84 12        	sty	$12                     ; 0x2012 <printf+0x9c9>
    1d5b: 64 13        	stz	$13                     ; 0x2013 <printf+0x9ca>
    1d5d: 85 18        	sta	$18                     ; 0x2018 <printf+0x9cf>
    1d5f: 18           	clc
    1d60: 65 12        	adc	$12                     ; 0x2012 <printf+0x9c9>
    1d62: 85 16        	sta	$16                     ; 0x2016 <printf+0x9cd>
    1d64: 85 14        	sta	$14                     ; 0x2014 <printf+0x9cb>
    1d66: a5 13        	lda	$13                     ; 0x2013 <printf+0x9ca>
    1d68: 69 00        	adc	#$0
    1d6a: 85 15        	sta	$15                     ; 0x2015 <printf+0x9cc>
    1d6c: c5 1a        	cmp	$1a                     ; 0x201a <printf+0x9d1>
    1d6e: d0 1e        	bne	$1d8e <printf+0x745>
    1d70: a6 1a        	ldx	$1a                     ; 0x201a <printf+0x9d1>
    1d72: 86 17        	stx	$17                     ; 0x2017 <printf+0x9ce>
    1d74: a6 64        	ldx	$64                     ; 0x2064 <printf+0xa1b>
    1d76: a5 16        	lda	$16                     ; 0x2016 <printf+0x9cd>
    1d78: c5 64        	cmp	$64                     ; 0x2064 <printf+0xa1b>
    1d7a: 80 1c        	bra	$1d98 <printf+0x74f>
    1d7c: a6 63        	ldx	$63                     ; 0x2063 <printf+0xa1a>
    1d7e: e0 00        	cpx	#$0
    1d80: a6 62        	ldx	$62                     ; 0x2062 <printf+0xa19>
    1d82: 86 12        	stx	$12                     ; 0x2012 <printf+0x9c9>
    1d84: a6 63        	ldx	$63                     ; 0x2063 <printf+0xa1a>
    1d86: 86 13        	stx	$13                     ; 0x2013 <printf+0x9ca>
    1d88: a4 5a        	ldy	$5a                     ; 0x205a <printf+0xa11>
    1d8a: 90 cd        	bcc	$1d59 <printf+0x710>
    1d8c: 80 cf        	bra	$1d5d <printf+0x714>
    1d8e: a6 64        	ldx	$64                     ; 0x2064 <printf+0xa1b>
    1d90: 5a           	phy
    1d91: a4 1a        	ldy	$1a                     ; 0x201a <printf+0x9d1>
    1d93: 84 17        	sty	$17                     ; 0x2017 <printf+0x9ce>
    1d95: 7a           	ply
    1d96: c5 1a        	cmp	$1a                     ; 0x201a <printf+0x9d1>
    1d98: 64 65        	stz	$65                     ; 0x2065 <printf+0xa1c>
    1d9a: 64 64        	stz	$64                     ; 0x2064 <printf+0xa1b>
    1d9c: 90 03        	bcc	$1da1 <printf+0x758>
    1d9e: 4c 3c 1e     	jmp	$1e3c <printf+0x7f3>
    1da1: a5 5b        	lda	$5b                     ; 0x205b <printf+0xa12>
    1da3: 29 11        	and	#$11
    1da5: 86 16        	stx	$16                     ; 0x2016 <printf+0x9cd>
    1da7: f0 0f        	beq	$1db8 <printf+0x76f>
    1da9: 8a           	txa
    1daa: 38           	sec
    1dab: e5 14        	sbc	$14                     ; 0x2014 <printf+0x9cb>
    1dad: 85 65        	sta	$65                     ; 0x2065 <printf+0xa1c>
    1daf: a5 1a        	lda	$1a                     ; 0x201a <printf+0x9d1>
    1db1: e5 15        	sbc	$15                     ; 0x2015 <printf+0x9cc>
    1db3: 85 64        	sta	$64                     ; 0x2064 <printf+0xa1b>
    1db5: 4c 3c 1e     	jmp	$1e3c <printf+0x7f3>
    1db8: a6 8f        	ldx	$8f                     ; 0x208f <printf+0xa46>
    1dba: 86 14        	stx	$14                     ; 0x2014 <printf+0x9cb>
    1dbc: 38           	sec
    1dbd: a5 18        	lda	$18                     ; 0x2018 <printf+0x9cf>
    1dbf: e5 16        	sbc	$16                     ; 0x2016 <printf+0x9cd>
    1dc1: a8           	tay
    1dc2: a9 00        	lda	#$0
    1dc4: e5 17        	sbc	$17                     ; 0x2017 <printf+0x9ce>
    1dc6: aa           	tax
    1dc7: 18           	clc
    1dc8: 98           	tya
    1dc9: 65 12        	adc	$12                     ; 0x2012 <printf+0x9c9>
    1dcb: 85 5b        	sta	$5b                     ; 0x205b <printf+0xa12>
    1dcd: 8a           	txa
    1dce: 65 13        	adc	$13                     ; 0x2013 <printf+0x9ca>
    1dd0: 85 64        	sta	$64                     ; 0x2064 <printf+0xa1b>
    1dd2: a5 90        	lda	$90                     ; 0x2090 <printf+0xa47>
    1dd4: 80 4e        	bra	$1e24 <printf+0x7db>
    1dd6: c5 8e        	cmp	$8e                     ; 0x208e <printf+0xa45>
    1dd8: a4 64        	ldy	$64                     ; 0x2064 <printf+0xa1b>
    1dda: b0 28        	bcs	$1e04 <printf+0x7bb>
    1ddc: a6 9a        	ldx	$9a                     ; 0x209a <printf+0xa51>
    1dde: e4 5f        	cpx	$5f                     ; 0x205f <printf+0xa16>
    1de0: d0 19        	bne	$1dfb <printf+0x7b2>
    1de2: a6 99        	ldx	$99                     ; 0x2099 <printf+0xa50>
    1de4: e4 5e        	cpx	$5e                     ; 0x205e <printf+0xa15>
    1de6: d0 13        	bne	$1dfb <printf+0x7b2>
    1de8: 18           	clc
    1de9: aa           	tax
    1dea: a5 14        	lda	$14                     ; 0x2014 <printf+0x9cb>
    1dec: 65 93        	adc	$93                     ; 0x2093 <printf+0xa4a>
    1dee: 85 12        	sta	$12                     ; 0x2012 <printf+0x9c9>
    1df0: 8a           	txa
    1df1: 65 94        	adc	$94                     ; 0x2094 <printf+0xa4b>
    1df3: 85 13        	sta	$13                     ; 0x2013 <printf+0x9ca>
    1df5: a9 20        	lda	#$20
    1df7: 92 12        	sta	($12)                   ; 0x2012 <printf+0x9c9>
    1df9: 80 07        	bra	$1e02 <printf+0x7b9>
    1dfb: a2 00        	ldx	#$0
    1dfd: a9 20        	lda	#$20
    1dff: 20 22 22     	jsr	$2222 <putchar>
    1e02: a4 64        	ldy	$64                     ; 0x2064 <printf+0xa1b>
    1e04: a6 8f        	ldx	$8f                     ; 0x208f <printf+0xa46>
    1e06: a5 90        	lda	$90                     ; 0x2090 <printf+0xa47>
    1e08: e8           	inx
    1e09: d0 01        	bne	$1e0c <printf+0x7c3>
    1e0b: 1a           	inc
    1e0c: 86 14        	stx	$14                     ; 0x2014 <printf+0x9cb>
    1e0e: 86 8f        	stx	$8f                     ; 0x208f <printf+0xa46>
    1e10: 85 90        	sta	$90                     ; 0x2090 <printf+0xa47>
    1e12: a6 5b        	ldx	$5b                     ; 0x205b <printf+0xa12>
    1e14: e8           	inx
    1e15: d0 01        	bne	$1e18 <printf+0x7cf>
    1e17: c8           	iny
    1e18: 86 5b        	stx	$5b                     ; 0x205b <printf+0xa12>
    1e1a: 84 64        	sty	$64                     ; 0x2064 <printf+0xa1b>
    1e1c: c0 00        	cpy	#$0
    1e1e: d0 04        	bne	$1e24 <printf+0x7db>
    1e20: e0 00        	cpx	#$0
    1e22: f0 12        	beq	$1e36 <printf+0x7ed>
    1e24: c5 8e        	cmp	$8e                     ; 0x208e <printf+0xa45>
    1e26: f0 03        	beq	$1e2b <printf+0x7e2>
    1e28: 4c d6 1d     	jmp	$1dd6 <printf+0x78d>
    1e2b: a6 8d        	ldx	$8d                     ; 0x208d <printf+0xa44>
    1e2d: 86 12        	stx	$12                     ; 0x2012 <printf+0x9c9>
    1e2f: a6 14        	ldx	$14                     ; 0x2014 <printf+0x9cb>
    1e31: e4 12        	cpx	$12                     ; 0x2012 <printf+0x9c9>
    1e33: 4c d8 1d     	jmp	$1dd8 <printf+0x78f>
    1e36: 64 65        	stz	$65                     ; 0x2065 <printf+0xa1c>
    1e38: 64 64        	stz	$64                     ; 0x2064 <printf+0xa1b>
    1e3a: a4 5a        	ldy	$5a                     ; 0x205a <printf+0xa11>
    1e3c: a6 a0        	ldx	$a0                     ; 0x20a0 <printf+0xa57>
    1e3e: d0 4f        	bne	$1e8f <printf+0x846>
    1e40: a6 8f        	ldx	$8f                     ; 0x208f <printf+0xa46>
    1e42: a5 90        	lda	$90                     ; 0x2090 <printf+0xa47>
    1e44: c5 8e        	cmp	$8e                     ; 0x208e <printf+0xa45>
    1e46: d0 10        	bne	$1e58 <printf+0x80f>
    1e48: 86 13        	stx	$13                     ; 0x2013 <printf+0x9ca>
    1e4a: a6 8d        	ldx	$8d                     ; 0x208d <printf+0xa44>
    1e4c: 86 12        	stx	$12                     ; 0x2012 <printf+0x9c9>
    1e4e: a4 5a        	ldy	$5a                     ; 0x205a <printf+0xa11>
    1e50: a6 13        	ldx	$13                     ; 0x2013 <printf+0x9ca>
    1e52: e4 12        	cpx	$12                     ; 0x2012 <printf+0x9c9>
    1e54: 90 08        	bcc	$1e5e <printf+0x815>
    1e56: 80 31        	bra	$1e89 <printf+0x840>
    1e58: 86 13        	stx	$13                     ; 0x2013 <printf+0x9ca>
    1e5a: c5 8e        	cmp	$8e                     ; 0x208e <printf+0xa45>
    1e5c: b0 2b        	bcs	$1e89 <printf+0x840>
    1e5e: a6 9a        	ldx	$9a                     ; 0x209a <printf+0xa51>
    1e60: e4 5f        	cpx	$5f                     ; 0x205f <printf+0xa16>
    1e62: d0 1c        	bne	$1e80 <printf+0x837>
    1e64: a6 99        	ldx	$99                     ; 0x2099 <printf+0xa50>
    1e66: e4 5e        	cpx	$5e                     ; 0x205e <printf+0xa15>
    1e68: d0 16        	bne	$1e80 <printf+0x837>
    1e6a: 18           	clc
    1e6b: 85 12        	sta	$12                     ; 0x2012 <printf+0x9c9>
    1e6d: a5 13        	lda	$13                     ; 0x2013 <printf+0x9ca>
    1e6f: 65 93        	adc	$93                     ; 0x2093 <printf+0xa4a>
    1e71: aa           	tax
    1e72: a5 12        	lda	$12                     ; 0x2012 <printf+0x9c9>
    1e74: 65 94        	adc	$94                     ; 0x2094 <printf+0xa4b>
    1e76: 86 12        	stx	$12                     ; 0x2012 <printf+0x9c9>
    1e78: 85 13        	sta	$13                     ; 0x2013 <printf+0x9ca>
    1e7a: a5 a3        	lda	$a3                     ; 0x20a3 <printf+0xa5a>
    1e7c: 92 12        	sta	($12)                   ; 0x2012 <printf+0x9c9>
    1e7e: 80 07        	bra	$1e87 <printf+0x83e>
    1e80: a2 00        	ldx	#$0
    1e82: a5 a3        	lda	$a3                     ; 0x20a3 <printf+0xa5a>
    1e84: 20 22 22     	jsr	$2222 <putchar>
    1e87: a4 5a        	ldy	$5a                     ; 0x205a <printf+0xa11>
    1e89: e6 8f        	inc	$8f                     ; 0x208f <printf+0xa46>
    1e8b: d0 02        	bne	$1e8f <printf+0x846>
    1e8d: e6 90        	inc	$90                     ; 0x2090 <printf+0xa47>
    1e8f: a6 9f        	ldx	$9f                     ; 0x209f <printf+0xa56>
    1e91: f0 4f        	beq	$1ee2 <printf+0x899>
    1e93: a6 8f        	ldx	$8f                     ; 0x208f <printf+0xa46>
    1e95: a5 90        	lda	$90                     ; 0x2090 <printf+0xa47>
    1e97: c5 8e        	cmp	$8e                     ; 0x208e <printf+0xa45>
    1e99: d0 10        	bne	$1eab <printf+0x862>
    1e9b: 86 13        	stx	$13                     ; 0x2013 <printf+0x9ca>
    1e9d: a6 8d        	ldx	$8d                     ; 0x208d <printf+0xa44>
    1e9f: 86 12        	stx	$12                     ; 0x2012 <printf+0x9c9>
    1ea1: a4 5a        	ldy	$5a                     ; 0x205a <printf+0xa11>
    1ea3: a6 13        	ldx	$13                     ; 0x2013 <printf+0x9ca>
    1ea5: e4 12        	cpx	$12                     ; 0x2012 <printf+0x9c9>
    1ea7: 90 08        	bcc	$1eb1 <printf+0x868>
    1ea9: 80 31        	bra	$1edc <printf+0x893>
    1eab: 86 13        	stx	$13                     ; 0x2013 <printf+0x9ca>
    1ead: c5 8e        	cmp	$8e                     ; 0x208e <printf+0xa45>
    1eaf: b0 2b        	bcs	$1edc <printf+0x893>
    1eb1: a6 9a        	ldx	$9a                     ; 0x209a <printf+0xa51>
    1eb3: e4 5f        	cpx	$5f                     ; 0x205f <printf+0xa16>
    1eb5: d0 1c        	bne	$1ed3 <printf+0x88a>
    1eb7: a6 99        	ldx	$99                     ; 0x2099 <printf+0xa50>
    1eb9: e4 5e        	cpx	$5e                     ; 0x205e <printf+0xa15>
    1ebb: d0 16        	bne	$1ed3 <printf+0x88a>
    1ebd: 18           	clc
    1ebe: 85 12        	sta	$12                     ; 0x2012 <printf+0x9c9>
    1ec0: a5 13        	lda	$13                     ; 0x2013 <printf+0x9ca>
    1ec2: 65 93        	adc	$93                     ; 0x2093 <printf+0xa4a>
    1ec4: aa           	tax
    1ec5: a5 12        	lda	$12                     ; 0x2012 <printf+0x9c9>
    1ec7: 65 94        	adc	$94                     ; 0x2094 <printf+0xa4b>
    1ec9: 86 12        	stx	$12                     ; 0x2012 <printf+0x9c9>
    1ecb: 85 13        	sta	$13                     ; 0x2013 <printf+0x9ca>
    1ecd: a5 a4        	lda	$a4                     ; 0x20a4 <printf+0xa5b>
    1ecf: 92 12        	sta	($12)                   ; 0x2012 <printf+0x9c9>
    1ed1: 80 07        	bra	$1eda <printf+0x891>
    1ed3: a2 00        	ldx	#$0
    1ed5: a5 a4        	lda	$a4                     ; 0x20a4 <printf+0xa5b>
    1ed7: 20 22 22     	jsr	$2222 <putchar>
    1eda: a4 5a        	ldy	$5a                     ; 0x205a <printf+0xa11>
    1edc: e6 8f        	inc	$8f                     ; 0x208f <printf+0xa46>
    1ede: d0 02        	bne	$1ee2 <printf+0x899>
    1ee0: e6 90        	inc	$90                     ; 0x2090 <printf+0xa47>
    1ee2: a9 10        	lda	#$10
    1ee4: 25 8b        	and	$8b                     ; 0x208b <printf+0xa42>
    1ee6: d0 03        	bne	$1eeb <printf+0x8a2>
    1ee8: 4c 74 1f     	jmp	$1f74 <printf+0x92b>
    1eeb: a5 8b        	lda	$8b                     ; 0x208b <printf+0xa42>
    1eed: 29 01        	and	#$1
    1eef: f0 03        	beq	$1ef4 <printf+0x8ab>
    1ef1: 4c 74 1f     	jmp	$1f74 <printf+0x92b>
    1ef4: a6 65        	ldx	$65                     ; 0x2065 <printf+0xa1c>
    1ef6: a5 64        	lda	$64                     ; 0x2064 <printf+0xa1b>
    1ef8: d0 06        	bne	$1f00 <printf+0x8b7>
    1efa: 8a           	txa
    1efb: d0 03        	bne	$1f00 <printf+0x8b7>
    1efd: 4c 1a 22     	jmp	$221a <printf+0xbd1>
    1f00: a6 8f        	ldx	$8f                     ; 0x208f <printf+0xa46>
    1f02: 86 13        	stx	$13                     ; 0x2013 <printf+0x9ca>
    1f04: a5 90        	lda	$90                     ; 0x2090 <printf+0xa47>
    1f06: 4c 5a 1f     	jmp	$1f5a <printf+0x911>
    1f09: c5 8e        	cmp	$8e                     ; 0x208e <printf+0xa45>
    1f0b: b0 26        	bcs	$1f33 <printf+0x8ea>
    1f0d: a6 9a        	ldx	$9a                     ; 0x209a <printf+0xa51>
    1f0f: e4 5f        	cpx	$5f                     ; 0x205f <printf+0xa16>
    1f11: d0 19        	bne	$1f2c <printf+0x8e3>
    1f13: a6 99        	ldx	$99                     ; 0x2099 <printf+0xa50>
    1f15: e4 5e        	cpx	$5e                     ; 0x205e <printf+0xa15>
    1f17: d0 13        	bne	$1f2c <printf+0x8e3>
    1f19: 18           	clc
    1f1a: aa           	tax
    1f1b: a5 13        	lda	$13                     ; 0x2013 <printf+0x9ca>
    1f1d: 65 93        	adc	$93                     ; 0x2093 <printf+0xa4a>
    1f1f: 85 12        	sta	$12                     ; 0x2012 <printf+0x9c9>
    1f21: 8a           	txa
    1f22: 65 94        	adc	$94                     ; 0x2094 <printf+0xa4b>
    1f24: 85 13        	sta	$13                     ; 0x2013 <printf+0x9ca>
    1f26: a9 30        	lda	#$30
    1f28: 92 12        	sta	($12)                   ; 0x2012 <printf+0x9c9>
    1f2a: 80 07        	bra	$1f33 <printf+0x8ea>
    1f2c: a2 00        	ldx	#$0
    1f2e: a9 30        	lda	#$30
    1f30: 20 22 22     	jsr	$2222 <putchar>
    1f33: a6 8f        	ldx	$8f                     ; 0x208f <printf+0xa46>
    1f35: a5 90        	lda	$90                     ; 0x2090 <printf+0xa47>
    1f37: e8           	inx
    1f38: d0 01        	bne	$1f3b <printf+0x8f2>
    1f3a: 1a           	inc
    1f3b: 86 13        	stx	$13                     ; 0x2013 <printf+0x9ca>
    1f3d: 86 8f        	stx	$8f                     ; 0x208f <printf+0xa46>
    1f3f: 85 90        	sta	$90                     ; 0x2090 <printf+0xa47>
    1f41: a4 65        	ldy	$65                     ; 0x2065 <printf+0xa1c>
    1f43: a6 64        	ldx	$64                     ; 0x2064 <printf+0xa1b>
    1f45: 86 12        	stx	$12                     ; 0x2012 <printf+0x9c9>
    1f47: 88           	dey
    1f48: c0 ff        	cpy	#$ff
    1f4a: d0 02        	bne	$1f4e <printf+0x905>
    1f4c: c6 12        	dec	$12                     ; 0x2012 <printf+0x9c9>
    1f4e: 84 65        	sty	$65                     ; 0x2065 <printf+0xa1c>
    1f50: a6 12        	ldx	$12                     ; 0x2012 <printf+0x9c9>
    1f52: 86 64        	stx	$64                     ; 0x2064 <printf+0xa1b>
    1f54: d0 04        	bne	$1f5a <printf+0x911>
    1f56: c0 00        	cpy	#$0
    1f58: f0 14        	beq	$1f6e <printf+0x925>
    1f5a: c5 8e        	cmp	$8e                     ; 0x208e <printf+0xa45>
    1f5c: f0 03        	beq	$1f61 <printf+0x918>
    1f5e: 4c 09 1f     	jmp	$1f09 <printf+0x8c0>
    1f61: a6 8d        	ldx	$8d                     ; 0x208d <printf+0xa44>
    1f63: 86 12        	stx	$12                     ; 0x2012 <printf+0x9c9>
    1f65: a6 13        	ldx	$13                     ; 0x2013 <printf+0x9ca>
    1f67: e4 12        	cpx	$12                     ; 0x2012 <printf+0x9c9>
    1f69: b0 c8        	bcs	$1f33 <printf+0x8ea>
    1f6b: 4c 0d 1f     	jmp	$1f0d <printf+0x8c4>
    1f6e: 64 65        	stz	$65                     ; 0x2065 <printf+0xa1c>
    1f70: 64 64        	stz	$64                     ; 0x2064 <printf+0xa1b>
    1f72: a4 5a        	ldy	$5a                     ; 0x205a <printf+0xa11>
    1f74: a2 00        	ldx	#$0
    1f76: e4 63        	cpx	$63                     ; 0x2063 <printf+0xa1a>
    1f78: d0 07        	bne	$1f81 <printf+0x938>
    1f7a: c4 62        	cpy	$62                     ; 0x2062 <printf+0xa19>
    1f7c: 90 0a        	bcc	$1f88 <printf+0x93f>
    1f7e: 4c f8 1f     	jmp	$1ff8 <printf+0x9af>
    1f81: e4 63        	cpx	$63                     ; 0x2063 <printf+0xa1a>
    1f83: 90 03        	bcc	$1f88 <printf+0x93f>
    1f85: 4c f8 1f     	jmp	$1ff8 <printf+0x9af>
    1f88: a6 8f        	ldx	$8f                     ; 0x208f <printf+0xa46>
    1f8a: 86 13        	stx	$13                     ; 0x2013 <printf+0x9ca>
    1f8c: a5 90        	lda	$90                     ; 0x2090 <printf+0xa47>
    1f8e: a2 ff        	ldx	#$ff
    1f90: c6 62        	dec	$62                     ; 0x2062 <printf+0xa19>
    1f92: e4 62        	cpx	$62                     ; 0x2062 <printf+0xa19>
    1f94: d0 02        	bne	$1f98 <printf+0x94f>
    1f96: c6 63        	dec	$63                     ; 0x2063 <printf+0xa1a>
    1f98: c5 8e        	cmp	$8e                     ; 0x208e <printf+0xa45>
    1f9a: d0 0c        	bne	$1fa8 <printf+0x95f>
    1f9c: a6 8d        	ldx	$8d                     ; 0x208d <printf+0xa44>
    1f9e: 86 12        	stx	$12                     ; 0x2012 <printf+0x9c9>
    1fa0: a6 13        	ldx	$13                     ; 0x2013 <printf+0x9ca>
    1fa2: e4 12        	cpx	$12                     ; 0x2012 <printf+0x9c9>
    1fa4: 90 06        	bcc	$1fac <printf+0x963>
    1fa6: 80 2a        	bra	$1fd2 <printf+0x989>
    1fa8: c5 8e        	cmp	$8e                     ; 0x208e <printf+0xa45>
    1faa: b0 26        	bcs	$1fd2 <printf+0x989>
    1fac: a6 9a        	ldx	$9a                     ; 0x209a <printf+0xa51>
    1fae: e4 5f        	cpx	$5f                     ; 0x205f <printf+0xa16>
    1fb0: d0 19        	bne	$1fcb <printf+0x982>
    1fb2: a6 99        	ldx	$99                     ; 0x2099 <printf+0xa50>
    1fb4: e4 5e        	cpx	$5e                     ; 0x205e <printf+0xa15>
    1fb6: d0 13        	bne	$1fcb <printf+0x982>
    1fb8: 18           	clc
    1fb9: aa           	tax
    1fba: a5 13        	lda	$13                     ; 0x2013 <printf+0x9ca>
    1fbc: 65 93        	adc	$93                     ; 0x2093 <printf+0xa4a>
    1fbe: 85 12        	sta	$12                     ; 0x2012 <printf+0x9c9>
    1fc0: 8a           	txa
    1fc1: 65 94        	adc	$94                     ; 0x2094 <printf+0xa4b>
    1fc3: 85 13        	sta	$13                     ; 0x2013 <printf+0x9ca>
    1fc5: a9 30        	lda	#$30
    1fc7: 92 12        	sta	($12)                   ; 0x2012 <printf+0x9c9>
    1fc9: 80 07        	bra	$1fd2 <printf+0x989>
    1fcb: a2 00        	ldx	#$0
    1fcd: a9 30        	lda	#$30
    1fcf: 20 22 22     	jsr	$2222 <putchar>
    1fd2: a6 8f        	ldx	$8f                     ; 0x208f <printf+0xa46>
    1fd4: a5 90        	lda	$90                     ; 0x2090 <printf+0xa47>
    1fd6: e8           	inx
    1fd7: d0 01        	bne	$1fda <printf+0x991>
    1fd9: 1a           	inc
    1fda: 86 13        	stx	$13                     ; 0x2013 <printf+0x9ca>
    1fdc: 86 8f        	stx	$8f                     ; 0x208f <printf+0xa46>
    1fde: 85 90        	sta	$90                     ; 0x2090 <printf+0xa47>
    1fe0: a2 00        	ldx	#$0
    1fe2: e4 63        	cpx	$63                     ; 0x2063 <printf+0xa1a>
    1fe4: d0 09        	bne	$1fef <printf+0x9a6>
    1fe6: a4 5a        	ldy	$5a                     ; 0x205a <printf+0xa11>
    1fe8: c4 62        	cpy	$62                     ; 0x2062 <printf+0xa19>
    1fea: b0 0c        	bcs	$1ff8 <printf+0x9af>
    1fec: 4c 8e 1f     	jmp	$1f8e <printf+0x945>
    1fef: e4 63        	cpx	$63                     ; 0x2063 <printf+0xa1a>
    1ff1: a4 5a        	ldy	$5a                     ; 0x205a <printf+0xa11>
    1ff3: b0 03        	bcs	$1ff8 <printf+0x9af>
    1ff5: 4c 8e 1f     	jmp	$1f8e <printf+0x945>
    1ff8: 98           	tya
    1ff9: d0 03        	bne	$1ffe <printf+0x9b5>
    1ffb: 4c f1 20     	jmp	$20f1 <printf+0xaa8>
    1ffe: 88           	dey
    1fff: d0 03        	bne	$2004 <printf+0x9bb>
    2001: 4c 8e 20     	jmp	$208e <printf+0xa45>
    2004: 84 62        	sty	$62                     ; 0x2062 <printf+0xa19>
    2006: a6 a5        	ldx	$a5                     ; 0x20a5 <printf+0xa5c>
    2008: 8a           	txa
    2009: 18           	clc
    200a: 65 62        	adc	$62                     ; 0x2062 <printf+0xa19>
    200c: 85 5a        	sta	$5a                     ; 0x205a <printf+0xa11>
    200e: a5 a6        	lda	$a6                     ; 0x20a6 <printf+0xa5d>
    2010: 69 00        	adc	#$0
    2012: 85 5b        	sta	$5b                     ; 0x205b <printf+0xa12>
    2014: 4c 80 20     	jmp	$2080 <printf+0xa37>
    2017: a8           	tay
    2018: a9 80        	lda	#$80
    201a: 25 8b        	and	$8b                     ; 0x208b <printf+0xa42>
    201c: f0 04        	beq	$2022 <printf+0x9d9>
    201e: a2 61        	ldx	#$61
    2020: 80 02        	bra	$2024 <printf+0x9db>
    2022: a2 41        	ldx	#$41
    2024: 86 12        	stx	$12                     ; 0x2012 <printf+0x9c9>
    2026: 18           	clc
    2027: 98           	tya
    2028: 65 12        	adc	$12                     ; 0x2012 <printf+0x9c9>
    202a: 18           	clc
    202b: 69 f6        	adc	#$f6
    202d: a4 8f        	ldy	$8f                     ; 0x208f <printf+0xa46>
    202f: a6 90        	ldx	$90                     ; 0x2090 <printf+0xa47>
    2031: e4 8e        	cpx	$8e                     ; 0x208e <printf+0xa45>
    2033: d0 0c        	bne	$2041 <printf+0x9f8>
    2035: 86 14        	stx	$14                     ; 0x2014 <printf+0x9cb>
    2037: a6 8d        	ldx	$8d                     ; 0x208d <printf+0xa44>
    2039: 86 12        	stx	$12                     ; 0x2012 <printf+0x9c9>
    203b: c4 12        	cpy	$12                     ; 0x2012 <printf+0x9c9>
    203d: 90 08        	bcc	$2047 <printf+0x9fe>
    203f: 80 29        	bra	$206a <printf+0xa21>
    2041: 86 14        	stx	$14                     ; 0x2014 <printf+0x9cb>
    2043: e4 8e        	cpx	$8e                     ; 0x208e <printf+0xa45>
    2045: b0 23        	bcs	$206a <printf+0xa21>
    2047: a6 9a        	ldx	$9a                     ; 0x209a <printf+0xa51>
    2049: e4 5f        	cpx	$5f                     ; 0x205f <printf+0xa16>
    204b: d0 18        	bne	$2065 <printf+0xa1c>
    204d: a6 99        	ldx	$99                     ; 0x2099 <printf+0xa50>
    204f: e4 5e        	cpx	$5e                     ; 0x205e <printf+0xa15>
    2051: d0 12        	bne	$2065 <printf+0xa1c>
    2053: 18           	clc
    2054: aa           	tax
    2055: 98           	tya
    2056: 65 93        	adc	$93                     ; 0x2093 <printf+0xa4a>
    2058: 85 12        	sta	$12                     ; 0x2012 <printf+0x9c9>
    205a: a5 14        	lda	$14                     ; 0x2014 <printf+0x9cb>
    205c: 65 94        	adc	$94                     ; 0x2094 <printf+0xa4b>
    205e: 85 13        	sta	$13                     ; 0x2013 <printf+0x9ca>
    2060: 8a           	txa
    2061: 92 12        	sta	($12)                   ; 0x2012 <printf+0x9c9>
    2063: 80 05        	bra	$206a <printf+0xa21>
    2065: a2 00        	ldx	#$0
    2067: 20 22 22     	jsr	$2222 <putchar>
    206a: e6 8f        	inc	$8f                     ; 0x208f <printf+0xa46>
    206c: d0 02        	bne	$2070 <printf+0xa27>
    206e: e6 90        	inc	$90                     ; 0x2090 <printf+0xa47>
    2070: c6 62        	dec	$62                     ; 0x2062 <printf+0xa19>
    2072: a2 ff        	ldx	#$ff
    2074: c6 5a        	dec	$5a                     ; 0x205a <printf+0xa11>
    2076: e4 5a        	cpx	$5a                     ; 0x205a <printf+0xa11>
    2078: d0 02        	bne	$207c <printf+0xa33>
    207a: c6 5b        	dec	$5b                     ; 0x205b <printf+0xa12>
    207c: a5 62        	lda	$62                     ; 0x2062 <printf+0xa19>
    207e: f0 0e        	beq	$208e <printf+0xa45>
    2080: b2 5a        	lda	($5a)                   ; 0x205a <printf+0xa11>
    2082: c9 0a        	cmp	#$a
    2084: 90 03        	bcc	$2089 <printf+0xa40>
    2086: 4c 17 20     	jmp	$2017 <printf+0x9ce>
    2089: 09 30        	ora	#$30
    208b: 4c 2d 20     	jmp	$202d <printf+0x9e4>
    208e: a5 68        	lda	$68                     ; 0x2068 <printf+0xa1f>
    2090: c9 0a        	cmp	#$a
    2092: b0 04        	bcs	$2098 <printf+0xa4f>
    2094: 09 30        	ora	#$30
    2096: 80 16        	bra	$20ae <printf+0xa65>
    2098: a8           	tay
    2099: a9 80        	lda	#$80
    209b: 25 8b        	and	$8b                     ; 0x208b <printf+0xa42>
    209d: f0 04        	beq	$20a3 <printf+0xa5a>
    209f: a2 61        	ldx	#$61
    20a1: 80 02        	bra	$20a5 <printf+0xa5c>
    20a3: a2 41        	ldx	#$41
    20a5: 86 12        	stx	$12                     ; 0x2012 <printf+0x9c9>
    20a7: 18           	clc
    20a8: 98           	tya
    20a9: 65 12        	adc	$12                     ; 0x2012 <printf+0x9c9>
    20ab: 18           	clc
    20ac: 69 f6        	adc	#$f6
    20ae: a4 8f        	ldy	$8f                     ; 0x208f <printf+0xa46>
    20b0: a6 90        	ldx	$90                     ; 0x2090 <printf+0xa47>
    20b2: e4 8e        	cpx	$8e                     ; 0x208e <printf+0xa45>
    20b4: d0 0c        	bne	$20c2 <printf+0xa79>
    20b6: 86 14        	stx	$14                     ; 0x2014 <printf+0x9cb>
    20b8: a6 8d        	ldx	$8d                     ; 0x208d <printf+0xa44>
    20ba: 86 12        	stx	$12                     ; 0x2012 <printf+0x9c9>
    20bc: c4 12        	cpy	$12                     ; 0x2012 <printf+0x9c9>
    20be: 90 08        	bcc	$20c8 <printf+0xa7f>
    20c0: 80 29        	bra	$20eb <printf+0xaa2>
    20c2: 86 14        	stx	$14                     ; 0x2014 <printf+0x9cb>
    20c4: e4 8e        	cpx	$8e                     ; 0x208e <printf+0xa45>
    20c6: b0 23        	bcs	$20eb <printf+0xaa2>
    20c8: a6 9a        	ldx	$9a                     ; 0x209a <printf+0xa51>
    20ca: e4 5f        	cpx	$5f                     ; 0x205f <printf+0xa16>
    20cc: d0 18        	bne	$20e6 <printf+0xa9d>
    20ce: a6 99        	ldx	$99                     ; 0x2099 <printf+0xa50>
    20d0: e4 5e        	cpx	$5e                     ; 0x205e <printf+0xa15>
    20d2: d0 12        	bne	$20e6 <printf+0xa9d>
    20d4: 18           	clc
    20d5: aa           	tax
    20d6: 98           	tya
    20d7: 65 93        	adc	$93                     ; 0x2093 <printf+0xa4a>
    20d9: 85 12        	sta	$12                     ; 0x2012 <printf+0x9c9>
    20db: a5 14        	lda	$14                     ; 0x2014 <printf+0x9cb>
    20dd: 65 94        	adc	$94                     ; 0x2094 <printf+0xa4b>
    20df: 85 13        	sta	$13                     ; 0x2013 <printf+0x9ca>
    20e1: 8a           	txa
    20e2: 92 12        	sta	($12)                   ; 0x2012 <printf+0x9c9>
    20e4: 80 05        	bra	$20eb <printf+0xaa2>
    20e6: a2 00        	ldx	#$0
    20e8: 20 22 22     	jsr	$2222 <putchar>
    20eb: e6 8f        	inc	$8f                     ; 0x208f <printf+0xa46>
    20ed: d0 02        	bne	$20f1 <printf+0xaa8>
    20ef: e6 90        	inc	$90                     ; 0x2090 <printf+0xa47>
    20f1: a5 8b        	lda	$8b                     ; 0x208b <printf+0xa42>
    20f3: 29 01        	and	#$1
    20f5: d0 1e        	bne	$2115 <printf+0xacc>
    20f7: a6 8f        	ldx	$8f                     ; 0x208f <printf+0xa46>
    20f9: 86 14        	stx	$14                     ; 0x2014 <printf+0x9cb>
    20fb: a5 90        	lda	$90                     ; 0x2090 <printf+0xa47>
    20fd: a4 8d        	ldy	$8d                     ; 0x208d <printf+0xa44>
    20ff: a6 8e        	ldx	$8e                     ; 0x208e <printf+0xa45>
    2101: 86 12        	stx	$12                     ; 0x2012 <printf+0x9c9>
    2103: 86 13        	stx	$13                     ; 0x2013 <printf+0x9ca>
    2105: c5 12        	cmp	$12                     ; 0x2012 <printf+0x9c9>
    2107: f0 03        	beq	$210c <printf+0xac3>
    2109: 4c 9a 21     	jmp	$219a <printf+0xb51>
    210c: 84 12        	sty	$12                     ; 0x2012 <printf+0x9c9>
    210e: a6 14        	ldx	$14                     ; 0x2014 <printf+0x9cb>
    2110: e4 12        	cpx	$12                     ; 0x2012 <printf+0x9c9>
    2112: 4c 9e 21     	jmp	$219e <printf+0xb55>
    2115: a6 8f        	ldx	$8f                     ; 0x208f <printf+0xa46>
    2117: 86 14        	stx	$14                     ; 0x2014 <printf+0x9cb>
    2119: a5 90        	lda	$90                     ; 0x2090 <printf+0xa47>
    211b: a6 65        	ldx	$65                     ; 0x2065 <printf+0xa1c>
    211d: a4 64        	ldy	$64                     ; 0x2064 <printf+0xa1b>
    211f: f0 03        	beq	$2124 <printf+0xadb>
    2121: 4c 86 21     	jmp	$2186 <printf+0xb3d>
    2124: e0 00        	cpx	#$0
    2126: f0 d5        	beq	$20fd <printf+0xab4>
    2128: 4c 86 21     	jmp	$2186 <printf+0xb3d>
    212b: c5 8e        	cmp	$8e                     ; 0x208e <printf+0xa45>
    212d: b0 26        	bcs	$2155 <printf+0xb0c>
    212f: a6 9a        	ldx	$9a                     ; 0x209a <printf+0xa51>
    2131: e4 5f        	cpx	$5f                     ; 0x205f <printf+0xa16>
    2133: d0 19        	bne	$214e <printf+0xb05>
    2135: a6 99        	ldx	$99                     ; 0x2099 <printf+0xa50>
    2137: e4 5e        	cpx	$5e                     ; 0x205e <printf+0xa15>
    2139: d0 13        	bne	$214e <printf+0xb05>
    213b: 18           	clc
    213c: aa           	tax
    213d: a5 14        	lda	$14                     ; 0x2014 <printf+0x9cb>
    213f: 65 93        	adc	$93                     ; 0x2093 <printf+0xa4a>
    2141: 85 12        	sta	$12                     ; 0x2012 <printf+0x9c9>
    2143: 8a           	txa
    2144: 65 94        	adc	$94                     ; 0x2094 <printf+0xa4b>
    2146: 85 13        	sta	$13                     ; 0x2013 <printf+0x9ca>
    2148: a9 20        	lda	#$20
    214a: 92 12        	sta	($12)                   ; 0x2012 <printf+0x9c9>
    214c: 80 07        	bra	$2155 <printf+0xb0c>
    214e: a2 00        	ldx	#$0
    2150: a9 20        	lda	#$20
    2152: 20 22 22     	jsr	$2222 <putchar>
    2155: a6 8f        	ldx	$8f                     ; 0x208f <printf+0xa46>
    2157: a5 90        	lda	$90                     ; 0x2090 <printf+0xa47>
    2159: e8           	inx
    215a: d0 01        	bne	$215d <printf+0xb14>
    215c: 1a           	inc
    215d: 86 14        	stx	$14                     ; 0x2014 <printf+0x9cb>
    215f: 86 8f        	stx	$8f                     ; 0x208f <printf+0xa46>
    2161: 85 90        	sta	$90                     ; 0x2090 <printf+0xa47>
    2163: a6 65        	ldx	$65                     ; 0x2065 <printf+0xa1c>
    2165: 86 12        	stx	$12                     ; 0x2012 <printf+0x9c9>
    2167: a6 64        	ldx	$64                     ; 0x2064 <printf+0xa1b>
    2169: 86 13        	stx	$13                     ; 0x2013 <printf+0x9ca>
    216b: a2 ff        	ldx	#$ff
    216d: c6 12        	dec	$12                     ; 0x2012 <printf+0x9c9>
    216f: e4 12        	cpx	$12                     ; 0x2012 <printf+0x9c9>
    2171: d0 02        	bne	$2175 <printf+0xb2c>
    2173: c6 13        	dec	$13                     ; 0x2013 <printf+0x9ca>
    2175: a6 12        	ldx	$12                     ; 0x2012 <printf+0x9c9>
    2177: 86 65        	stx	$65                     ; 0x2065 <printf+0xa1c>
    2179: a6 13        	ldx	$13                     ; 0x2013 <printf+0x9ca>
    217b: 86 64        	stx	$64                     ; 0x2064 <printf+0xa1b>
    217d: d0 07        	bne	$2186 <printf+0xb3d>
    217f: a6 12        	ldx	$12                     ; 0x2012 <printf+0x9c9>
    2181: d0 03        	bne	$2186 <printf+0xb3d>
    2183: 4c fd 20     	jmp	$20fd <printf+0xab4>
    2186: c5 8e        	cmp	$8e                     ; 0x208e <printf+0xa45>
    2188: f0 03        	beq	$218d <printf+0xb44>
    218a: 4c 2b 21     	jmp	$212b <printf+0xae2>
    218d: a6 8d        	ldx	$8d                     ; 0x208d <printf+0xa44>
    218f: 86 12        	stx	$12                     ; 0x2012 <printf+0x9c9>
    2191: a6 14        	ldx	$14                     ; 0x2014 <printf+0x9cb>
    2193: e4 12        	cpx	$12                     ; 0x2012 <printf+0x9c9>
    2195: b0 be        	bcs	$2155 <printf+0xb0c>
    2197: 4c 2f 21     	jmp	$212f <printf+0xae6>
    219a: 86 12        	stx	$12                     ; 0x2012 <printf+0x9c9>
    219c: c5 12        	cmp	$12                     ; 0x2012 <printf+0x9c9>
    219e: 98           	tya
    219f: a0 01        	ldy	#$1
    21a1: 90 20        	bcc	$21c3 <printf+0xb7a>
    21a3: a6 13        	ldx	$13                     ; 0x2013 <printf+0x9ca>
    21a5: d0 03        	bne	$21aa <printf+0xb61>
    21a7: aa           	tax
    21a8: f0 19        	beq	$21c3 <printf+0xb7a>
    21aa: 18           	clc
    21ab: 65 93        	adc	$93                     ; 0x2093 <printf+0xa4a>
    21ad: 85 12        	sta	$12                     ; 0x2012 <printf+0x9c9>
    21af: a5 13        	lda	$13                     ; 0x2013 <printf+0x9ca>
    21b1: 65 94        	adc	$94                     ; 0x2094 <printf+0xa4b>
    21b3: 85 13        	sta	$13                     ; 0x2013 <printf+0x9ca>
    21b5: a2 ff        	ldx	#$ff
    21b7: c6 12        	dec	$12                     ; 0x2012 <printf+0x9c9>
    21b9: e4 12        	cpx	$12                     ; 0x2012 <printf+0x9c9>
    21bb: d0 02        	bne	$21bf <printf+0xb76>
    21bd: c6 13        	dec	$13                     ; 0x2013 <printf+0x9ca>
    21bf: a9 00        	lda	#$0
    21c1: 92 12        	sta	($12)                   ; 0x2012 <printf+0x9c9>
    21c3: e6 5c        	inc	$5c                     ; 0x205c <printf+0xa13>
    21c5: d0 02        	bne	$21c9 <printf+0xb80>
    21c7: e6 5d        	inc	$5d                     ; 0x205d <printf+0xa14>
    21c9: a6 5d        	ldx	$5d                     ; 0x205d <printf+0xa14>
    21cb: e4 61        	cpx	$61                     ; 0x2061 <printf+0xa18>
    21cd: f0 03        	beq	$21d2 <printf+0xb89>
    21cf: 4c ae 16     	jmp	$16ae <printf+0x65>
    21d2: a6 5c        	ldx	$5c                     ; 0x205c <printf+0xa13>
    21d4: e4 60        	cpx	$60                     ; 0x2060 <printf+0xa17>
    21d6: f0 03        	beq	$21db <printf+0xb92>
    21d8: 4c ae 16     	jmp	$16ae <printf+0x65>
    21db: b2 60        	lda	($60)                   ; 0x2060 <printf+0xa17>
    21dd: a2 00        	ldx	#$0
    21df: a0 00        	ldy	#$0
    21e1: 84 5e        	sty	$5e                     ; 0x205e <printf+0xa15>
    21e3: a0 00        	ldy	#$0
    21e5: 84 5f        	sty	$5f                     ; 0x205f <printf+0xa16>
    21e7: 4c c4 16     	jmp	$16c4 <printf+0x7b>
    21ea: e4 63        	cpx	$63                     ; 0x2063 <printf+0xa1a>
    21ec: a6 5b        	ldx	$5b                     ; 0x205b <printf+0xa12>
    21ee: b0 03        	bcs	$21f3 <printf+0xbaa>
    21f0: 4c 02 1d     	jmp	$1d02 <printf+0x6b9>
    21f3: a5 5a        	lda	$5a                     ; 0x205a <printf+0xa11>
    21f5: 85 62        	sta	$62                     ; 0x2062 <printf+0xa19>
    21f7: 64 63        	stz	$63                     ; 0x2063 <printf+0xa1a>
    21f9: e6 62        	inc	$62                     ; 0x2062 <printf+0xa19>
    21fb: f0 03        	beq	$2200 <printf+0xbb7>
    21fd: 4c 02 1d     	jmp	$1d02 <printf+0x6b9>
    2200: e6 63        	inc	$63                     ; 0x2063 <printf+0xa1a>
    2202: 4c 02 1d     	jmp	$1d02 <printf+0x6b9>
    2205: a2 58        	ldx	#$58
    2207: 86 a4        	stx	$a4                     ; 0x20a4 <printf+0xa5b>
    2209: a2 01        	ldx	#$1
    220b: 86 9f        	stx	$9f                     ; 0x209f <printf+0xa56>
    220d: a2 30        	ldx	#$30
    220f: 86 a3        	stx	$a3                     ; 0x20a3 <printf+0xa5a>
    2211: a9 02        	lda	#$2
    2213: a2 00        	ldx	#$0
    2215: 86 a0        	stx	$a0                     ; 0x20a0 <printf+0xa57>
    2217: 4c 43 1d     	jmp	$1d43 <printf+0x6fa>
    221a: 64 65        	stz	$65                     ; 0x2065 <printf+0xa1c>
    221c: 64 64        	stz	$64                     ; 0x2064 <printf+0xa1b>
    221e: 4c 74 1f     	jmp	$1f74 <printf+0x92b>
    2221: 60           	rts

00002222 <putchar>:
    2222: 86 12        	stx	$12                     ; 0x2012 <printf+0x9c9>
    2224: 85 b1        	sta	$b1                     ; 0x20b1 <printf+0xa68>
    2226: 85 32        	sta	$32                     ; 0x2032 <printf+0x9e9>
    2228: a6 01        	ldx	$1                      ; 0x2001 <printf+0x9b8>
    222a: 86 b2        	stx	$b2                     ; 0x20b2 <printf+0xa69>
    222c: a6 31        	ldx	$31                     ; 0x2031 <printf+0x9e8>
    222e: a0 50        	ldy	#$50
    2230: 8c 00 de     	sty	$de00                   ; 0xde00 <__heap_start+0xb5fc>
    2233: 9c 01 de     	stz	$de01                   ; 0xde01 <__heap_start+0xb5fd>
    2236: 8e 02 de     	stx	$de02                   ; 0xde02 <__heap_start+0xb5fe>
    2239: 9c 03 de     	stz	$de03                   ; 0xde03 <__heap_start+0xb5ff>
    223c: ae 10 de     	ldx	$de10                   ; 0xde10 <__heap_start+0xb60c>
    223f: ad 11 de     	lda	$de11                   ; 0xde11 <__heap_start+0xb60d>
    2242: ac 12 de     	ldy	$de12                   ; 0xde12 <__heap_start+0xb60e>
    2245: 84 1a        	sty	$1a                     ; 0x201a <printf+0x9d1>
    2247: ac 13 de     	ldy	$de13                   ; 0xde13 <__heap_start+0xb60f>
    224a: 84 1b        	sty	$1b                     ; 0x201b <printf+0x9d2>
    224c: 9c 08 de     	stz	$de08                   ; 0xde08 <__heap_start+0xb604>
    224f: a0 c0        	ldy	#$c0
    2251: 8c 09 de     	sty	$de09                   ; 0xde09 <__heap_start+0xb605>
    2254: 9c 0a de     	stz	$de0a                   ; 0xde0a <__heap_start+0xb606>
    2257: 9c 0b de     	stz	$de0b                   ; 0xde0b <__heap_start+0xb607>
    225a: 8e 0c de     	stx	$de0c                   ; 0xde0c <__heap_start+0xb608>
    225d: 8d 0d de     	sta	$de0d                   ; 0xde0d <__heap_start+0xb609>
    2260: 64 13        	stz	$13                     ; 0x2013 <printf+0x9ca>
    2262: a2 00        	ldx	#$0
    2264: 86 14        	stx	$14                     ; 0x2014 <printf+0x9cb>
    2266: a2 c0        	ldx	#$c0
    2268: 86 15        	stx	$15                     ; 0x2015 <printf+0x9cc>
    226a: a2 11        	ldx	#$11
    226c: 86 16        	stx	$16                     ; 0x2016 <printf+0x9cd>
    226e: a2 c9        	ldx	#$c9
    2270: 86 17        	stx	$17                     ; 0x2017 <printf+0x9ce>
    2272: a2 10        	ldx	#$10
    2274: 86 18        	stx	$18                     ; 0x2018 <printf+0x9cf>
    2276: a2 c9        	ldx	#$c9
    2278: 86 19        	stx	$19                     ; 0x2019 <printf+0x9d0>
    227a: a6 1a        	ldx	$1a                     ; 0x201a <printf+0x9d1>
    227c: 8e 0e de     	stx	$de0e                   ; 0xde0e <__heap_start+0xb60a>
    227f: a6 1b        	ldx	$1b                     ; 0x201b <printf+0x9d2>
    2281: 8e 0f de     	stx	$de0f                   ; 0xde0f <__heap_start+0xb60b>
    2284: ac 18 de     	ldy	$de18                   ; 0xde18 <__heap_start+0xb614>
    2287: ad 19 de     	lda	$de19                   ; 0xde19 <__heap_start+0xb615>
    228a: ae 1a de     	ldx	$de1a                   ; 0xde1a <__heap_start+0xb616>
    228d: ae 1b de     	ldx	$de1b                   ; 0xde1b <__heap_start+0xb617>
    2290: 84 1c        	sty	$1c                     ; 0x201c <printf+0x9d3>
    2292: 85 1d        	sta	$1d                     ; 0x201d <printf+0x9d4>
    2294: 64 1a        	stz	$1a                     ; 0x201a <printf+0x9d1>
    2296: 80 13        	bra	$22ab <putchar+0x89>
    2298: a5 1c        	lda	$1c                     ; 0x201c <printf+0x9d3>
    229a: 18           	clc
    229b: 69 50        	adc	#$50
    229d: 85 1c        	sta	$1c                     ; 0x201c <printf+0x9d3>
    229f: a5 1d        	lda	$1d                     ; 0x201d <printf+0x9d4>
    22a1: 69 00        	adc	#$0
    22a3: 85 1d        	sta	$1d                     ; 0x201d <printf+0x9d4>
    22a5: e6 13        	inc	$13                     ; 0x2013 <printf+0x9ca>
    22a7: d0 02        	bne	$22ab <putchar+0x89>
    22a9: e6 1a        	inc	$1a                     ; 0x201a <printf+0x9d1>
    22ab: a9 32        	lda	#$32
    22ad: 18           	clc
    22ae: 65 13        	adc	$13                     ; 0x2013 <printf+0x9ca>
    22b0: 85 1e        	sta	$1e                     ; 0x201e <printf+0x9d5>
    22b2: a9 00        	lda	#$0
    22b4: 65 1a        	adc	$1a                     ; 0x201a <printf+0x9d1>
    22b6: 85 1f        	sta	$1f                     ; 0x201f <printf+0x9d6>
    22b8: b2 1e        	lda	($1e)                   ; 0x201e <printf+0x9d5>
    22ba: c9 0a        	cmp	#$a
    22bc: f0 26        	beq	$22e4 <putchar+0xc2>
    22be: c9 0d        	cmp	#$d
    22c0: f0 22        	beq	$22e4 <putchar+0xc2>
    22c2: aa           	tax
    22c3: d0 03        	bne	$22c8 <putchar+0xa6>
    22c5: 4c ee 23     	jmp	$23ee <putchar+0x1cc>
    22c8: a2 03        	ldx	#$3
    22ca: 86 01        	stx	$1                      ; 0x2001 <printf+0x9b8>
    22cc: a4 30        	ldy	$30                     ; 0x2030 <printf+0x9e7>
    22ce: a9 f0        	lda	#$f0
    22d0: 91 1c        	sta	($1c),y                 ; 0x201c <printf+0x9d3>
    22d2: ca           	dex
    22d3: 86 01        	stx	$1                      ; 0x2001 <printf+0x9b8>
    22d5: b2 1e        	lda	($1e)                   ; 0x201e <printf+0x9d5>
    22d7: a4 30        	ldy	$30                     ; 0x2030 <printf+0x9e7>
    22d9: 91 1c        	sta	($1c),y                 ; 0x201c <printf+0x9d3>
    22db: a6 30        	ldx	$30                     ; 0x2030 <printf+0x9e7>
    22dd: e8           	inx
    22de: e6 30        	inc	$30                     ; 0x2030 <printf+0x9e7>
    22e0: e0 50        	cpx	#$50
    22e2: d0 c1        	bne	$22a5 <putchar+0x83>
    22e4: 64 30        	stz	$30                     ; 0x2030 <printf+0x9e7>
    22e6: a6 31        	ldx	$31                     ; 0x2031 <printf+0x9e8>
    22e8: e8           	inx
    22e9: e6 31        	inc	$31                     ; 0x2031 <printf+0x9e8>
    22eb: e0 1e        	cpx	#$1e
    22ed: f0 03        	beq	$22f2 <putchar+0xd0>
    22ef: 4c 98 22     	jmp	$2298 <putchar+0x76>
    22f2: a2 03        	ldx	#$3
    22f4: 86 01        	stx	$1                      ; 0x2001 <printf+0x9b8>
    22f6: a2 09        	ldx	#$9
    22f8: a0 50        	ldy	#$50
    22fa: a9 10        	lda	#$10
    22fc: 5a           	phy
    22fd: a0 00        	ldy	#$0
    22ff: 84 1c        	sty	$1c                     ; 0x201c <printf+0x9d3>
    2301: a0 c0        	ldy	#$c0
    2303: 84 1d        	sty	$1d                     ; 0x201d <printf+0x9d4>
    2305: 7a           	ply
    2306: 85 1b        	sta	$1b                     ; 0x201b <printf+0x9d2>
    2308: b1 1c        	lda	($1c),y                 ; 0x201c <printf+0x9d3>
    230a: 92 1c        	sta	($1c)                   ; 0x201c <printf+0x9d3>
    230c: a9 ff        	lda	#$ff
    230e: c6 1b        	dec	$1b                     ; 0x201b <printf+0x9d2>
    2310: c5 1b        	cmp	$1b                     ; 0x201b <printf+0x9d2>
    2312: d0 01        	bne	$2315 <putchar+0xf3>
    2314: ca           	dex
    2315: e6 1c        	inc	$1c                     ; 0x201c <printf+0x9d3>
    2317: d0 02        	bne	$231b <putchar+0xf9>
    2319: e6 1d        	inc	$1d                     ; 0x201d <printf+0x9d4>
    231b: 8a           	txa
    231c: d0 ea        	bne	$2308 <putchar+0xe6>
    231e: a5 1b        	lda	$1b                     ; 0x201b <printf+0x9d2>
    2320: d0 e6        	bne	$2308 <putchar+0xe6>
    2322: a2 02        	ldx	#$2
    2324: 86 01        	stx	$1                      ; 0x2001 <printf+0x9b8>
    2326: a2 09        	ldx	#$9
    2328: a9 10        	lda	#$10
    232a: 5a           	phy
    232b: a0 00        	ldy	#$0
    232d: 84 1c        	sty	$1c                     ; 0x201c <printf+0x9d3>
    232f: a0 c0        	ldy	#$c0
    2331: 84 1d        	sty	$1d                     ; 0x201d <printf+0x9d4>
    2333: 7a           	ply
    2334: 85 1b        	sta	$1b                     ; 0x201b <printf+0x9d2>
    2336: b1 1c        	lda	($1c),y                 ; 0x201c <printf+0x9d3>
    2338: 92 1c        	sta	($1c)                   ; 0x201c <printf+0x9d3>
    233a: a9 ff        	lda	#$ff
    233c: c6 1b        	dec	$1b                     ; 0x201b <printf+0x9d2>
    233e: c5 1b        	cmp	$1b                     ; 0x201b <printf+0x9d2>
    2340: d0 01        	bne	$2343 <putchar+0x121>
    2342: ca           	dex
    2343: e6 1c        	inc	$1c                     ; 0x201c <printf+0x9d3>
    2345: d0 02        	bne	$2349 <putchar+0x127>
    2347: e6 1d        	inc	$1d                     ; 0x201d <printf+0x9d4>
    2349: 8a           	txa
    234a: d0 ea        	bne	$2336 <putchar+0x114>
    234c: a5 1b        	lda	$1b                     ; 0x201b <printf+0x9d2>
    234e: d0 e6        	bne	$2336 <putchar+0x114>
    2350: a2 02        	ldx	#$2
    2352: 86 01        	stx	$1                      ; 0x2001 <printf+0x9b8>
    2354: e8           	inx
    2355: 86 01        	stx	$1                      ; 0x2001 <printf+0x9b8>
    2357: a2 50        	ldx	#$50
    2359: a0 11        	ldy	#$11
    235b: 84 1c        	sty	$1c                     ; 0x201c <printf+0x9d3>
    235d: a0 c9        	ldy	#$c9
    235f: 84 1d        	sty	$1d                     ; 0x201d <printf+0x9d4>
    2361: a0 10        	ldy	#$10
    2363: 84 1e        	sty	$1e                     ; 0x201e <printf+0x9d5>
    2365: a0 c9        	ldy	#$c9
    2367: 84 1f        	sty	$1f                     ; 0x201f <printf+0x9d6>
    2369: a9 f0        	lda	#$f0
    236b: a4 1c        	ldy	$1c                     ; 0x201c <printf+0x9d3>
    236d: 84 22        	sty	$22                     ; 0x2022 <printf+0x9d9>
    236f: a4 1d        	ldy	$1d                     ; 0x201d <printf+0x9d4>
    2371: 84 23        	sty	$23                     ; 0x2023 <printf+0x9da>
    2373: 92 1e        	sta	($1e)                   ; 0x201e <printf+0x9d5>
    2375: e6 1c        	inc	$1c                     ; 0x201c <printf+0x9d3>
    2377: d0 02        	bne	$237b <putchar+0x159>
    2379: e6 1d        	inc	$1d                     ; 0x201d <printf+0x9d4>
    237b: ca           	dex
    237c: a4 22        	ldy	$22                     ; 0x2022 <printf+0x9d9>
    237e: 84 1e        	sty	$1e                     ; 0x201e <printf+0x9d5>
    2380: a4 23        	ldy	$23                     ; 0x2023 <printf+0x9da>
    2382: 84 1f        	sty	$1f                     ; 0x201f <printf+0x9d6>
    2384: e0 00        	cpx	#$0
    2386: d0 e3        	bne	$236b <putchar+0x149>
    2388: a2 02        	ldx	#$2
    238a: 86 01        	stx	$1                      ; 0x2001 <printf+0x9b8>
    238c: a2 50        	ldx	#$50
    238e: a0 11        	ldy	#$11
    2390: 84 1c        	sty	$1c                     ; 0x201c <printf+0x9d3>
    2392: a0 c9        	ldy	#$c9
    2394: 84 1d        	sty	$1d                     ; 0x201d <printf+0x9d4>
    2396: a0 10        	ldy	#$10
    2398: 84 1e        	sty	$1e                     ; 0x201e <printf+0x9d5>
    239a: a0 c9        	ldy	#$c9
    239c: 84 1f        	sty	$1f                     ; 0x201f <printf+0x9d6>
    239e: a9 20        	lda	#$20
    23a0: a4 1c        	ldy	$1c                     ; 0x201c <printf+0x9d3>
    23a2: 84 22        	sty	$22                     ; 0x2022 <printf+0x9d9>
    23a4: a4 1d        	ldy	$1d                     ; 0x201d <printf+0x9d4>
    23a6: 84 23        	sty	$23                     ; 0x2023 <printf+0x9da>
    23a8: 92 1e        	sta	($1e)                   ; 0x201e <printf+0x9d5>
    23aa: e6 1c        	inc	$1c                     ; 0x201c <printf+0x9d3>
    23ac: d0 02        	bne	$23b0 <putchar+0x18e>
    23ae: e6 1d        	inc	$1d                     ; 0x201d <printf+0x9d4>
    23b0: ca           	dex
    23b1: a4 22        	ldy	$22                     ; 0x2022 <printf+0x9d9>
    23b3: 84 1e        	sty	$1e                     ; 0x201e <printf+0x9d5>
    23b5: a4 23        	ldy	$23                     ; 0x2023 <printf+0x9da>
    23b7: 84 1f        	sty	$1f                     ; 0x201f <printf+0x9d6>
    23b9: e0 00        	cpx	#$0
    23bb: d0 e3        	bne	$23a0 <putchar+0x17e>
    23bd: c6 31        	dec	$31                     ; 0x2031 <printf+0x9e8>
    23bf: 9c 08 de     	stz	$de08                   ; 0xde08 <__heap_start+0xb604>
    23c2: a2 c0        	ldx	#$c0
    23c4: 8e 09 de     	stx	$de09                   ; 0xde09 <__heap_start+0xb605>
    23c7: 9c 0a de     	stz	$de0a                   ; 0xde0a <__heap_start+0xb606>
    23ca: 9c 0b de     	stz	$de0b                   ; 0xde0b <__heap_start+0xb607>
    23cd: a2 1d        	ldx	#$1d
    23cf: 8e 0c de     	stx	$de0c                   ; 0xde0c <__heap_start+0xb608>
    23d2: 9c 0d de     	stz	$de0d                   ; 0xde0d <__heap_start+0xb609>
    23d5: 9c 0e de     	stz	$de0e                   ; 0xde0e <__heap_start+0xb60a>
    23d8: 9c 0f de     	stz	$de0f                   ; 0xde0f <__heap_start+0xb60b>
    23db: ae 18 de     	ldx	$de18                   ; 0xde18 <__heap_start+0xb614>
    23de: ac 19 de     	ldy	$de19                   ; 0xde19 <__heap_start+0xb615>
    23e1: ad 1a de     	lda	$de1a                   ; 0xde1a <__heap_start+0xb616>
    23e4: ad 1b de     	lda	$de1b                   ; 0xde1b <__heap_start+0xb617>
    23e7: 86 1c        	stx	$1c                     ; 0x201c <printf+0x9d3>
    23e9: 84 1d        	sty	$1d                     ; 0x201d <printf+0x9d4>
    23eb: 4c a5 22     	jmp	$22a5 <putchar+0x83>
    23ee: a6 b2        	ldx	$b2                     ; 0x20b2 <printf+0xa69>
    23f0: 86 01        	stx	$1                      ; 0x2001 <printf+0x9b8>
    23f2: a6 30        	ldx	$30                     ; 0x2030 <printf+0x9e7>
    23f4: a4 31        	ldy	$31                     ; 0x2031 <printf+0x9e8>
    23f6: 8e 14 d0     	stx	$d014                   ; 0xd014 <__heap_start+0xa810>
    23f9: 9c 15 d0     	stz	$d015                   ; 0xd015 <__heap_start+0xa811>
    23fc: 84 31        	sty	$31                     ; 0x2031 <printf+0x9e8>
    23fe: 8c 16 d0     	sty	$d016                   ; 0xd016 <__heap_start+0xa812>
    2401: 9c 17 d0     	stz	$d017                   ; 0xd017 <__heap_start+0xa813>
    2404: a6 12        	ldx	$12                     ; 0x2012 <printf+0x9c9>
    2406: a5 b1        	lda	$b1                     ; 0x20b1 <printf+0xa68>
    2408: 60           	rts

00002409 <malloc>:
    2409: a8           	tay
    240a: 8a           	txa
    240b: a2 00        	ldx	#$0
    240d: 86 12        	stx	$12                     ; 0x2012 <printf+0x9c9>
    240f: a2 00        	ldx	#$0
    2411: 86 13        	stx	$13                     ; 0x2013 <printf+0x9ca>
    2413: aa           	tax
    2414: d0 07        	bne	$241d <malloc+0x14>
    2416: c0 00        	cpy	#$0
    2418: d0 03        	bne	$241d <malloc+0x14>
    241a: 4c 19 25     	jmp	$2519 <malloc+0x110>
    241d: 84 16        	sty	$16                     ; 0x2016 <printf+0x9cd>
    241f: aa           	tax
    2420: d0 0e        	bne	$2430 <malloc+0x27>
    2422: a6 16        	ldx	$16                     ; 0x2016 <printf+0x9cd>
    2424: e0 07        	cpx	#$7
    2426: b0 0c        	bcs	$2434 <malloc+0x2b>
    2428: a2 08        	ldx	#$8
    242a: 86 5a        	stx	$5a                     ; 0x205a <printf+0xa11>
    242c: a9 00        	lda	#$0
    242e: 80 2f        	bra	$245f <malloc+0x56>
    2430: c9 00        	cmp	#$0
    2432: 90 f4        	bcc	$2428 <malloc+0x1f>
    2434: a8           	tay
    2435: a5 16        	lda	$16                     ; 0x2016 <printf+0x9cd>
    2437: 29 01        	and	#$1
    2439: a2 02        	ldx	#$2
    243b: 64 14        	stz	$14                     ; 0x2014 <printf+0x9cb>
    243d: c9 00        	cmp	#$0
    243f: f0 02        	beq	$2443 <malloc+0x3a>
    2441: a2 03        	ldx	#$3
    2443: 86 15        	stx	$15                     ; 0x2015 <printf+0x9cc>
    2445: 18           	clc
    2446: a5 16        	lda	$16                     ; 0x2016 <printf+0x9cd>
    2448: 65 15        	adc	$15                     ; 0x2015 <printf+0x9cc>
    244a: aa           	tax
    244b: 98           	tya
    244c: 65 14        	adc	$14                     ; 0x2014 <printf+0x9cb>
    244e: 90 03        	bcc	$2453 <malloc+0x4a>
    2450: 4c 19 25     	jmp	$2519 <malloc+0x110>
    2453: 86 5a        	stx	$5a                     ; 0x205a <printf+0xa11>
    2455: a8           	tay
    2456: d0 07        	bne	$245f <malloc+0x56>
    2458: e0 00        	cpx	#$0
    245a: d0 03        	bne	$245f <malloc+0x56>
    245c: 4c 19 25     	jmp	$2519 <malloc+0x110>
    245f: 85 5b        	sta	$5b                     ; 0x205b <printf+0xa12>
    2461: ad fe 27     	lda	$27fe                   ; 0x27fe <_ZN12_GLOBAL__N_111initializedE>
    2464: 29 01        	and	#$1
    2466: d0 2a        	bne	$2492 <malloc+0x89>
    2468: a9 00        	lda	#$0
    246a: a2 10        	ldx	#$10
    246c: a0 04        	ldy	#$4
    246e: 84 12        	sty	$12                     ; 0x2012 <printf+0x9c9>
    2470: a0 28        	ldy	#$28
    2472: 84 13        	sty	$13                     ; 0x2013 <printf+0x9ca>
    2474: 20 16 03     	jsr	$316 <_ZN12_GLOBAL__N_19FreeChunk6insertEPvj>
    2477: a2 00        	ldx	#$0
    2479: 86 12        	stx	$12                     ; 0x2012 <printf+0x9c9>
    247b: a2 00        	ldx	#$0
    247d: 86 13        	stx	$13                     ; 0x2013 <printf+0x9ca>
    247f: ae 05 28     	ldx	$2805                   ; 0x2805 <__heap_start+0x1>
    2482: a9 fe        	lda	#$fe
    2484: 2d 04 28     	and	$2804                   ; 0x2804 <__heap_start>
    2487: 8d 04 28     	sta	$2804                   ; 0x2804 <__heap_start>
    248a: 8e 05 28     	stx	$2805                   ; 0x2805 <__heap_start+0x1>
    248d: a2 01        	ldx	#$1
    248f: 8e fe 27     	stx	$27fe                   ; 0x27fe <_ZN12_GLOBAL__N_111initializedE>
    2492: ad 01 28     	lda	$2801                   ; 0x2801 <_ZN12_GLOBAL__N_19free_listE>
    2495: ae 02 28     	ldx	$2802                   ; 0x2802 <_ZN12_GLOBAL__N_19free_listE+0x1>
    2498: a0 00        	ldy	#$0
    249a: 84 14        	sty	$14                     ; 0x2014 <printf+0x9cb>
    249c: a0 00        	ldy	#$0
    249e: 84 15        	sty	$15                     ; 0x2015 <printf+0x9cc>
    24a0: 86 1d        	stx	$1d                     ; 0x201d <printf+0x9d4>
    24a2: e4 15        	cpx	$15                     ; 0x2015 <printf+0x9cc>
    24a4: d0 07        	bne	$24ad <malloc+0xa4>
    24a6: c5 14        	cmp	$14                     ; 0x2014 <printf+0x9cb>
    24a8: d0 03        	bne	$24ad <malloc+0xa4>
    24aa: 4c 19 25     	jmp	$2519 <malloc+0x110>
    24ad: a0 00        	ldy	#$0
    24af: a2 10        	ldx	#$10
    24b1: 85 18        	sta	$18                     ; 0x2018 <printf+0x9cf>
    24b3: 84 14        	sty	$14                     ; 0x2014 <printf+0x9cb>
    24b5: 86 15        	stx	$15                     ; 0x2015 <printf+0x9cc>
    24b7: 18           	clc
    24b8: a9 04        	lda	#$4
    24ba: 65 14        	adc	$14                     ; 0x2014 <printf+0x9cb>
    24bc: 85 14        	sta	$14                     ; 0x2014 <printf+0x9cb>
    24be: a9 28        	lda	#$28
    24c0: 65 15        	adc	$15                     ; 0x2015 <printf+0x9cc>
    24c2: a6 14        	ldx	$14                     ; 0x2014 <printf+0x9cb>
    24c4: 86 5c        	stx	$5c                     ; 0x205c <printf+0xa13>
    24c6: 85 17        	sta	$17                     ; 0x2017 <printf+0x9ce>
    24c8: a6 18        	ldx	$18                     ; 0x2018 <printf+0x9cf>
    24ca: 86 1c        	stx	$1c                     ; 0x201c <printf+0x9d3>
    24cc: a6 18        	ldx	$18                     ; 0x2018 <printf+0x9cf>
    24ce: 86 14        	stx	$14                     ; 0x2014 <printf+0x9cb>
    24d0: a6 1d        	ldx	$1d                     ; 0x201d <printf+0x9d4>
    24d2: 86 15        	stx	$15                     ; 0x2015 <printf+0x9cc>
    24d4: a0 01        	ldy	#$1
    24d6: a6 5b        	ldx	$5b                     ; 0x205b <printf+0xa12>
    24d8: 86 18        	stx	$18                     ; 0x2018 <printf+0x9cf>
    24da: b1 14        	lda	($14),y                 ; 0x2014 <printf+0x9cb>
    24dc: 85 19        	sta	$19                     ; 0x2019 <printf+0x9d0>
    24de: aa           	tax
    24df: a9 fe        	lda	#$fe
    24e1: 32 14        	and	($14)                   ; 0x2014 <printf+0x9cb>
    24e3: 85 1a        	sta	$1a                     ; 0x201a <printf+0x9d1>
    24e5: e4 18        	cpx	$18                     ; 0x2018 <printf+0x9cf>
    24e7: d0 0a        	bne	$24f3 <malloc+0xea>
    24e9: a6 5a        	ldx	$5a                     ; 0x205a <printf+0xa11>
    24eb: 86 1b        	stx	$1b                     ; 0x201b <printf+0x9d2>
    24ed: c5 1b        	cmp	$1b                     ; 0x201b <printf+0x9d2>
    24ef: b0 29        	bcs	$251a <malloc+0x111>
    24f1: 80 04        	bra	$24f7 <malloc+0xee>
    24f3: e4 18        	cpx	$18                     ; 0x2018 <printf+0x9cf>
    24f5: b0 23        	bcs	$251a <malloc+0x111>
    24f7: a5 14        	lda	$14                     ; 0x2014 <printf+0x9cb>
    24f9: 18           	clc
    24fa: 69 02        	adc	#$2
    24fc: 85 1a        	sta	$1a                     ; 0x201a <printf+0x9d1>
    24fe: a5 15        	lda	$15                     ; 0x2015 <printf+0x9cc>
    2500: 69 00        	adc	#$0
    2502: 85 1b        	sta	$1b                     ; 0x201b <printf+0x9d2>
    2504: a0 02        	ldy	#$2
    2506: b1 14        	lda	($14),y                 ; 0x2014 <printf+0x9cb>
    2508: 85 14        	sta	$14                     ; 0x2014 <printf+0x9cb>
    250a: 88           	dey
    250b: b1 1a        	lda	($1a),y                 ; 0x201a <printf+0x9d1>
    250d: 85 15        	sta	$15                     ; 0x2015 <printf+0x9cc>
    250f: c5 1d        	cmp	$1d                     ; 0x201d <printf+0x9d4>
    2511: d0 c7        	bne	$24da <malloc+0xd1>
    2513: a5 14        	lda	$14                     ; 0x2014 <printf+0x9cb>
    2515: c5 1c        	cmp	$1c                     ; 0x201c <printf+0x9d3>
    2517: d0 c1        	bne	$24da <malloc+0xd1>
    2519: 60           	rts
    251a: ad ff 27     	lda	$27ff                   ; 0x27ff <_ZN12_GLOBAL__N_19free_sizeE>
    251d: ae 00 28     	ldx	$2800                   ; 0x2800 <_ZN12_GLOBAL__N_19free_sizeE+0x1>
    2520: 86 12        	stx	$12                     ; 0x2012 <printf+0x9c9>
    2522: 38           	sec
    2523: e5 1a        	sbc	$1a                     ; 0x201a <printf+0x9d1>
    2525: aa           	tax
    2526: a5 12        	lda	$12                     ; 0x2012 <printf+0x9c9>
    2528: e5 19        	sbc	$19                     ; 0x2019 <printf+0x9d0>
    252a: 85 12        	sta	$12                     ; 0x2012 <printf+0x9c9>
    252c: 18           	clc
    252d: 8a           	txa
    252e: 69 02        	adc	#$2
    2530: 85 13        	sta	$13                     ; 0x2013 <printf+0x9ca>
    2532: a5 12        	lda	$12                     ; 0x2012 <printf+0x9c9>
    2534: 69 00        	adc	#$0
    2536: a6 13        	ldx	$13                     ; 0x2013 <printf+0x9ca>
    2538: 8e ff 27     	stx	$27ff                   ; 0x27ff <_ZN12_GLOBAL__N_19free_sizeE>
    253b: 8d 00 28     	sta	$2800                   ; 0x2800 <_ZN12_GLOBAL__N_19free_sizeE+0x1>
    253e: a0 02        	ldy	#$2
    2540: a5 14        	lda	$14                     ; 0x2014 <printf+0x9cb>
    2542: 18           	clc
    2543: 69 02        	adc	#$2
    2545: 85 12        	sta	$12                     ; 0x2012 <printf+0x9c9>
    2547: a5 15        	lda	$15                     ; 0x2015 <printf+0x9cc>
    2549: 69 00        	adc	#$0
    254b: 85 13        	sta	$13                     ; 0x2013 <printf+0x9ca>
    254d: b1 14        	lda	($14),y                 ; 0x2014 <printf+0x9cb>
    254f: 85 1e        	sta	$1e                     ; 0x201e <printf+0x9d5>
    2551: 88           	dey
    2552: b1 12        	lda	($12),y                 ; 0x2012 <printf+0x9c9>
    2554: 85 1f        	sta	$1f                     ; 0x201f <printf+0x9d6>
    2556: c5 15        	cmp	$15                     ; 0x2015 <printf+0x9cc>
    2558: d0 15        	bne	$256f <malloc+0x166>
    255a: a5 5b        	lda	$5b                     ; 0x205b <printf+0xa12>
    255c: a6 1e        	ldx	$1e                     ; 0x201e <printf+0x9d5>
    255e: e4 14        	cpx	$14                     ; 0x2014 <printf+0x9cb>
    2560: d0 0d        	bne	$256f <malloc+0x166>
    2562: 85 1a        	sta	$1a                     ; 0x201a <printf+0x9d1>
    2564: a2 00        	ldx	#$0
    2566: 86 18        	stx	$18                     ; 0x2018 <printf+0x9cf>
    2568: a2 00        	ldx	#$0
    256a: 86 19        	stx	$19                     ; 0x2019 <printf+0x9d0>
    256c: 4c e9 25     	jmp	$25e9 <malloc+0x1e0>
    256f: 18           	clc
    2570: a5 14        	lda	$14                     ; 0x2014 <printf+0x9cb>
    2572: 69 04        	adc	#$4
    2574: 85 18        	sta	$18                     ; 0x2018 <printf+0x9cf>
    2576: a5 15        	lda	$15                     ; 0x2015 <printf+0x9cc>
    2578: 69 00        	adc	#$0
    257a: 85 19        	sta	$19                     ; 0x2019 <printf+0x9d0>
    257c: a0 04        	ldy	#$4
    257e: b1 14        	lda	($14),y                 ; 0x2014 <printf+0x9cb>
    2580: 85 23        	sta	$23                     ; 0x2023 <printf+0x9da>
    2582: 18           	clc
    2583: 69 02        	adc	#$2
    2585: 85 1a        	sta	$1a                     ; 0x201a <printf+0x9d1>
    2587: a0 01        	ldy	#$1
    2589: b1 18        	lda	($18),y                 ; 0x2018 <printf+0x9cf>
    258b: 85 22        	sta	$22                     ; 0x2022 <printf+0x9d9>
    258d: 69 00        	adc	#$0
    258f: a6 1a        	ldx	$1a                     ; 0x201a <printf+0x9d1>
    2591: 86 18        	stx	$18                     ; 0x2018 <printf+0x9cf>
    2593: 85 19        	sta	$19                     ; 0x2019 <printf+0x9d0>
    2595: a6 23        	ldx	$23                     ; 0x2023 <printf+0x9da>
    2597: 86 1a        	stx	$1a                     ; 0x201a <printf+0x9d1>
    2599: a6 22        	ldx	$22                     ; 0x2022 <printf+0x9d9>
    259b: 86 1b        	stx	$1b                     ; 0x201b <printf+0x9d2>
    259d: c8           	iny
    259e: a5 1e        	lda	$1e                     ; 0x201e <printf+0x9d5>
    25a0: 91 1a        	sta	($1a),y                 ; 0x201a <printf+0x9d1>
    25a2: a5 1f        	lda	$1f                     ; 0x201f <printf+0x9d6>
    25a4: 88           	dey
    25a5: 91 18        	sta	($18),y                 ; 0x2018 <printf+0x9cf>
    25a7: 18           	clc
    25a8: a5 14        	lda	$14                     ; 0x2014 <printf+0x9cb>
    25aa: 69 02        	adc	#$2
    25ac: 85 1a        	sta	$1a                     ; 0x201a <printf+0x9d1>
    25ae: a5 15        	lda	$15                     ; 0x2015 <printf+0x9cc>
    25b0: 69 00        	adc	#$0
    25b2: 85 1b        	sta	$1b                     ; 0x201b <printf+0x9d2>
    25b4: c8           	iny
    25b5: b1 14        	lda	($14),y                 ; 0x2014 <printf+0x9cb>
    25b7: 85 18        	sta	$18                     ; 0x2018 <printf+0x9cf>
    25b9: aa           	tax
    25ba: 88           	dey
    25bb: b1 1a        	lda	($1a),y                 ; 0x201a <printf+0x9d1>
    25bd: 85 19        	sta	$19                     ; 0x2019 <printf+0x9d0>
    25bf: 85 16        	sta	$16                     ; 0x2016 <printf+0x9cd>
    25c1: a0 04        	ldy	#$4
    25c3: a5 23        	lda	$23                     ; 0x2023 <printf+0x9da>
    25c5: 91 18        	sta	($18),y                 ; 0x2018 <printf+0x9cf>
    25c7: 18           	clc
    25c8: 8a           	txa
    25c9: 69 04        	adc	#$4
    25cb: 85 1a        	sta	$1a                     ; 0x201a <printf+0x9d1>
    25cd: a5 16        	lda	$16                     ; 0x2016 <printf+0x9cd>
    25cf: 69 00        	adc	#$0
    25d1: 85 1b        	sta	$1b                     ; 0x201b <printf+0x9d2>
    25d3: a5 22        	lda	$22                     ; 0x2022 <printf+0x9d9>
    25d5: a0 01        	ldy	#$1
    25d7: 91 1a        	sta	($1a),y                 ; 0x201a <printf+0x9d1>
    25d9: a5 5b        	lda	$5b                     ; 0x205b <printf+0xa12>
    25db: 85 1a        	sta	$1a                     ; 0x201a <printf+0x9d1>
    25dd: a6 1d        	ldx	$1d                     ; 0x201d <printf+0x9d4>
    25df: e4 15        	cpx	$15                     ; 0x2015 <printf+0x9cc>
    25e1: d0 10        	bne	$25f3 <malloc+0x1ea>
    25e3: a6 1c        	ldx	$1c                     ; 0x201c <printf+0x9d3>
    25e5: e4 14        	cpx	$14                     ; 0x2014 <printf+0x9cb>
    25e7: d0 0a        	bne	$25f3 <malloc+0x1ea>
    25e9: a6 18        	ldx	$18                     ; 0x2018 <printf+0x9cf>
    25eb: a4 19        	ldy	$19                     ; 0x2019 <printf+0x9d0>
    25ed: 8e 01 28     	stx	$2801                   ; 0x2801 <_ZN12_GLOBAL__N_19free_listE>
    25f0: 8c 02 28     	sty	$2802                   ; 0x2802 <_ZN12_GLOBAL__N_19free_listE+0x1>
    25f3: a0 01        	ldy	#$1
    25f5: b1 14        	lda	($14),y                 ; 0x2014 <printf+0x9cb>
    25f7: 85 16        	sta	$16                     ; 0x2016 <printf+0x9cd>
    25f9: a9 fe        	lda	#$fe
    25fb: 32 14        	and	($14)                   ; 0x2014 <printf+0x9cb>
    25fd: 38           	sec
    25fe: a6 5a        	ldx	$5a                     ; 0x205a <printf+0xa11>
    2600: 86 18        	stx	$18                     ; 0x2018 <printf+0x9cf>
    2602: a8           	tay
    2603: e5 18        	sbc	$18                     ; 0x2018 <printf+0x9cf>
    2605: 85 19        	sta	$19                     ; 0x2019 <printf+0x9d0>
    2607: a5 16        	lda	$16                     ; 0x2016 <printf+0x9cd>
    2609: a6 16        	ldx	$16                     ; 0x2016 <printf+0x9cd>
    260b: e5 1a        	sbc	$1a                     ; 0x201a <printf+0x9d1>
    260d: f0 03        	beq	$2612 <malloc+0x209>
    260f: 4c 9d 26     	jmp	$269d <malloc+0x294>
    2612: 85 16        	sta	$16                     ; 0x2016 <printf+0x9cd>
    2614: a5 19        	lda	$19                     ; 0x2019 <printf+0x9d0>
    2616: c9 08        	cmp	#$8
    2618: 86 18        	stx	$18                     ; 0x2018 <printf+0x9cf>
    261a: b0 03        	bcs	$261f <malloc+0x216>
    261c: 4c 80 26     	jmp	$2680 <malloc+0x277>
    261f: a6 17        	ldx	$17                     ; 0x2017 <printf+0x9ce>
    2621: 86 61        	stx	$61                     ; 0x2061 <printf+0xa18>
    2623: a6 5c        	ldx	$5c                     ; 0x205c <printf+0xa13>
    2625: 86 5c        	stx	$5c                     ; 0x205c <printf+0xa13>
    2627: a6 12        	ldx	$12                     ; 0x2012 <printf+0x9c9>
    2629: 86 5d        	stx	$5d                     ; 0x205d <printf+0xa14>
    262b: a6 13        	ldx	$13                     ; 0x2013 <printf+0x9ca>
    262d: 86 5e        	stx	$5e                     ; 0x205e <printf+0xa15>
    262f: a8           	tay
    2630: 18           	clc
    2631: a5 5a        	lda	$5a                     ; 0x205a <printf+0xa11>
    2633: 85 5a        	sta	$5a                     ; 0x205a <printf+0xa11>
    2635: 65 14        	adc	$14                     ; 0x2014 <printf+0x9cb>
    2637: 85 12        	sta	$12                     ; 0x2012 <printf+0x9c9>
    2639: a5 1a        	lda	$1a                     ; 0x201a <printf+0x9d1>
    263b: a6 1a        	ldx	$1a                     ; 0x201a <printf+0x9d1>
    263d: 86 5b        	stx	$5b                     ; 0x205b <printf+0xa12>
    263f: 65 15        	adc	$15                     ; 0x2015 <printf+0x9cc>
    2641: 85 13        	sta	$13                     ; 0x2013 <printf+0x9ca>
    2643: a6 16        	ldx	$16                     ; 0x2016 <printf+0x9cd>
    2645: 98           	tya
    2646: a4 14        	ldy	$14                     ; 0x2014 <printf+0x9cb>
    2648: 84 5f        	sty	$5f                     ; 0x205f <printf+0xa16>
    264a: a4 15        	ldy	$15                     ; 0x2015 <printf+0x9cc>
    264c: 84 60        	sty	$60                     ; 0x2060 <printf+0xa17>
    264e: 20 16 03     	jsr	$316 <_ZN12_GLOBAL__N_19FreeChunk6insertEPvj>
    2651: a6 5f        	ldx	$5f                     ; 0x205f <printf+0xa16>
    2653: 86 14        	stx	$14                     ; 0x2014 <printf+0x9cb>
    2655: a6 60        	ldx	$60                     ; 0x2060 <printf+0xa17>
    2657: 86 15        	stx	$15                     ; 0x2015 <printf+0x9cc>
    2659: a5 5a        	lda	$5a                     ; 0x205a <printf+0xa11>
    265b: 29 fe        	and	#$fe
    265d: 85 12        	sta	$12                     ; 0x2012 <printf+0x9c9>
    265f: a0 01        	ldy	#$1
    2661: 98           	tya
    2662: 32 14        	and	($14)                   ; 0x2014 <printf+0x9cb>
    2664: 05 12        	ora	$12                     ; 0x2012 <printf+0x9c9>
    2666: 92 14        	sta	($14)                   ; 0x2014 <printf+0x9cb>
    2668: a5 5b        	lda	$5b                     ; 0x205b <printf+0xa12>
    266a: 91 14        	sta	($14),y                 ; 0x2014 <printf+0x9cb>
    266c: a4 12        	ldy	$12                     ; 0x2012 <printf+0x9c9>
    266e: 85 18        	sta	$18                     ; 0x2018 <printf+0x9cf>
    2670: a6 5d        	ldx	$5d                     ; 0x205d <printf+0xa14>
    2672: 86 12        	stx	$12                     ; 0x2012 <printf+0x9c9>
    2674: a6 5e        	ldx	$5e                     ; 0x205e <printf+0xa15>
    2676: 86 13        	stx	$13                     ; 0x2013 <printf+0x9ca>
    2678: a6 5c        	ldx	$5c                     ; 0x205c <printf+0xa13>
    267a: 86 5c        	stx	$5c                     ; 0x205c <printf+0xa13>
    267c: a6 61        	ldx	$61                     ; 0x2061 <printf+0xa18>
    267e: 86 17        	stx	$17                     ; 0x2017 <printf+0x9ce>
    2680: 18           	clc
    2681: 98           	tya
    2682: 65 14        	adc	$14                     ; 0x2014 <printf+0x9cb>
    2684: 85 16        	sta	$16                     ; 0x2016 <printf+0x9cd>
    2686: a5 15        	lda	$15                     ; 0x2015 <printf+0x9cc>
    2688: 65 18        	adc	$18                     ; 0x2018 <printf+0x9cf>
    268a: 85 15        	sta	$15                     ; 0x2015 <printf+0x9cc>
    268c: c5 17        	cmp	$17                     ; 0x2017 <printf+0x9ce>
    268e: d0 1a        	bne	$26aa <malloc+0x2a1>
    2690: a6 5c        	ldx	$5c                     ; 0x205c <printf+0xa13>
    2692: 86 14        	stx	$14                     ; 0x2014 <printf+0x9cb>
    2694: a6 16        	ldx	$16                     ; 0x2016 <printf+0x9cd>
    2696: e4 14        	cpx	$14                     ; 0x2014 <printf+0x9cb>
    2698: d0 12        	bne	$26ac <malloc+0x2a3>
    269a: 4c 19 25     	jmp	$2519 <malloc+0x110>
    269d: 85 16        	sta	$16                     ; 0x2016 <printf+0x9cd>
    269f: c9 00        	cmp	#$0
    26a1: 86 18        	stx	$18                     ; 0x2018 <printf+0x9cf>
    26a3: a5 19        	lda	$19                     ; 0x2019 <printf+0x9d0>
    26a5: 90 d9        	bcc	$2680 <malloc+0x277>
    26a7: 4c 1f 26     	jmp	$261f <malloc+0x216>
    26aa: a6 16        	ldx	$16                     ; 0x2016 <printf+0x9cd>
    26ac: 86 14        	stx	$14                     ; 0x2014 <printf+0x9cb>
    26ae: a0 01        	ldy	#$1
    26b0: b1 14        	lda	($14),y                 ; 0x2014 <printf+0x9cb>
    26b2: 85 16        	sta	$16                     ; 0x2016 <printf+0x9cd>
    26b4: a9 fe        	lda	#$fe
    26b6: 32 14        	and	($14)                   ; 0x2014 <printf+0x9cb>
    26b8: 92 14        	sta	($14)                   ; 0x2014 <printf+0x9cb>
    26ba: a5 16        	lda	$16                     ; 0x2016 <printf+0x9cd>
    26bc: 91 14        	sta	($14),y                 ; 0x2014 <printf+0x9cb>
    26be: 60           	rts

000026bf <memcpy>:
    26bf: a8           	tay
    26c0: 8a           	txa
    26c1: d0 03        	bne	$26c6 <memcpy+0x7>
    26c3: 98           	tya
    26c4: f0 24        	beq	$26ea <memcpy+0x2b>
    26c6: a5 12        	lda	$12                     ; 0x2012 <printf+0x9c9>
    26c8: 85 16        	sta	$16                     ; 0x2016 <printf+0x9cd>
    26ca: a5 13        	lda	$13                     ; 0x2013 <printf+0x9ca>
    26cc: 85 17        	sta	$17                     ; 0x2017 <printf+0x9ce>
    26ce: b2 14        	lda	($14)                   ; 0x2014 <printf+0x9cb>
    26d0: 92 16        	sta	($16)                   ; 0x2016 <printf+0x9cd>
    26d2: e6 16        	inc	$16                     ; 0x2016 <printf+0x9cd>
    26d4: d0 02        	bne	$26d8 <memcpy+0x19>
    26d6: e6 17        	inc	$17                     ; 0x2017 <printf+0x9ce>
    26d8: e6 14        	inc	$14                     ; 0x2014 <printf+0x9cb>
    26da: d0 02        	bne	$26de <memcpy+0x1f>
    26dc: e6 15        	inc	$15                     ; 0x2015 <printf+0x9cc>
    26de: 88           	dey
    26df: c0 ff        	cpy	#$ff
    26e1: d0 01        	bne	$26e4 <memcpy+0x25>
    26e3: ca           	dex
    26e4: 8a           	txa
    26e5: d0 e7        	bne	$26ce <memcpy+0xf>
    26e7: 98           	tya
    26e8: d0 e4        	bne	$26ce <memcpy+0xf>
    26ea: 60           	rts

000026eb <__memset>:
    26eb: a4 14        	ldy	$14                     ; 0x2014 <printf+0x9cb>
    26ed: d0 04        	bne	$26f3 <__memset+0x8>
    26ef: e0 00        	cpx	#$0
    26f1: f0 17        	beq	$270a <__memset+0x1f>
    26f3: 92 12        	sta	($12)                   ; 0x2012 <printf+0x9c9>
    26f5: e6 12        	inc	$12                     ; 0x2012 <printf+0x9c9>
    26f7: d0 02        	bne	$26fb <__memset+0x10>
    26f9: e6 13        	inc	$13                     ; 0x2013 <printf+0x9ca>
    26fb: ca           	dex
    26fc: e0 ff        	cpx	#$ff
    26fe: d0 02        	bne	$2702 <__memset+0x17>
    2700: c6 14        	dec	$14                     ; 0x2014 <printf+0x9cb>
    2702: a4 14        	ldy	$14                     ; 0x2014 <printf+0x9cb>
    2704: d0 ed        	bne	$26f3 <__memset+0x8>
    2706: e0 00        	cpx	#$0
    2708: d0 e9        	bne	$26f3 <__memset+0x8>
    270a: 60           	rts

0000270b <__mulhi3>:
    270b: a4 13        	ldy	$13                     ; 0x2013 <printf+0x9ca>
    270d: d0 04        	bne	$2713 <__mulhi3+0x8>
    270f: a4 12        	ldy	$12                     ; 0x2012 <printf+0x9c9>
    2711: f0 25        	beq	$2738 <__mulhi3+0x2d>
    2713: 85 14        	sta	$14                     ; 0x2014 <printf+0x9cb>
    2715: 86 15        	stx	$15                     ; 0x2015 <printf+0x9cc>
    2717: a0 00        	ldy	#$0
    2719: 98           	tya
    271a: 46 13        	lsr	$13                     ; 0x2013 <printf+0x9ca>
    271c: 66 12        	ror	$12                     ; 0x2012 <printf+0x9c9>
    271e: 90 09        	bcc	$2729 <__mulhi3+0x1e>
    2720: aa           	tax
    2721: 98           	tya
    2722: 18           	clc
    2723: 65 14        	adc	$14                     ; 0x2014 <printf+0x9cb>
    2725: a8           	tay
    2726: 8a           	txa
    2727: 65 15        	adc	$15                     ; 0x2015 <printf+0x9cc>
    2729: 06 14        	asl	$14                     ; 0x2014 <printf+0x9cb>
    272b: 26 15        	rol	$15                     ; 0x2015 <printf+0x9cc>
    272d: a6 13        	ldx	$13                     ; 0x2013 <printf+0x9ca>
    272f: d0 e9        	bne	$271a <__mulhi3+0xf>
    2731: a6 12        	ldx	$12                     ; 0x2012 <printf+0x9c9>
    2733: d0 e5        	bne	$271a <__mulhi3+0xf>
    2735: aa           	tax
    2736: 98           	tya
    2737: 60           	rts
    2738: a0 00        	ldy	#$0
    273a: 98           	tya
    273b: 80 f8        	bra	$2735 <__mulhi3+0x2a>
