
multiRead.elf:	file format elf32-mos

SYMBOL TABLE:
00000000 l    df *ABS*	00000000 zero-bss.c
00000000 l    df *ABS*	00000000 zero-zp-bss.c
00000000 l    df *ABS*	00000000 copy-zp-data.c
00000000 l    df *ABS*	00000000 ld-temp.o
000004ba l     F .text	000003aa f256Init
000044f9 l     O .bss	00000007 kernelEventData
00000030 l     O .zp.data	00000030 textColors
00000060 l     O .zp.bss	00000001 _col
00000061 l     O .zp.bss	00000001 _row
000044f8 l     O .bss	00000001 kernelError
0000086a l     F .text	000007ec f256main
00000064 l     O .zp.bss	00000002 theOne.0
0000420d l     F .text	00000032 __mulhi3
00003ed1 l     F .text	000002f0 malloc
0000006f l     O .zp.bss	00000002 theOne.5
00000068 l     O .zp.bss	00000001 theOne.2
00000069 l     O .zp.bss	00000004 theOne.3
0000006d l     O .zp.bss	00000002 theOne.4
000022f2 l     F .text	00001a11 printf
00000066 l     O .zp.bss	00000002 theOne.1
00001056 l     F .text	00000be1 chainEvent
00001c37 l     F .text	0000010a irq_handler
00001d41 l     F .text	00000291 playMidi
00003d03 l     F .text	000001ce putchar
00001fd2 l     F .text	000000d3 exhaustZeroes
00000071 l     O .zp.bss	00000004 timer0PerTick
0000423f l     F .text	00000070 __mulsi3
000042af l     F .text	000001a1 __udivsi3
000020aa l     F .text	000000d4 _ZN12_GLOBAL__N_13putEcP6Status
0000217e l     F .text	00000174 _ZN12_GLOBAL__N_112print_stringEPKcP6Status
00000062 l     O .zp.bss	00000002 __putchar.s
00000075 l     O .zp.bss	00000001 _ZN12_GLOBAL__N_111initializedE
00000348 l     F .text	00000135 _ZN12_GLOBAL__N_19FreeChunk6insertEPvj
00000078 l     O .zp.bss	00000002 _ZN12_GLOBAL__N_19free_listE
00000076 l     O .zp.bss	00000002 _ZN12_GLOBAL__N_19free_sizeE
00000864 g     F .text	00000006 main
00010000 g       .music	00000000 music_start
0001cf7a g       .music	00000000 music_end
00000344 g       .text	00000000 __after_main
00000330 g       .text	00000000 __do_init_stack
0000033e g       .text	00000000 __do_copy_zp_data
000004a3 g     F .text	00000017 __copy_zp_data
00000338 g       .text	00000000 __do_zero_bss
0000047d g     F .text	00000013 __zero_bss
0000033b g       .text	00000000 __do_zero_zp_bss
00000490 g     F .text	00000013 __zero_zp_bss
000020a5 g     F .text	00000005 exit
00000347 g       .text	00000000 _fini
00004450 g       .rodata	00000000 __set_v
000041ed  w    F .text	00000020 __memset
00001000  w      *ABS*	00000000 __heap_default_limit
00004500 g       .noinit	00000000 __heap_start
000041c1  w    F .text	0000002c memcpy
00000010 g       *ABS*	00000000 __rc0
00000012 g       *ABS*	00000000 __rc2
00000014 g       *ABS*	00000000 __rc4
00000016 g       *ABS*	00000000 __rc6
00000018 g       *ABS*	00000000 __rc8
0000001a g       *ABS*	00000000 __rc10
0000001c g       *ABS*	00000000 __rc12
0000001e g       *ABS*	00000000 __rc14
00000020 g       *ABS*	00000000 __rc16
00000022 g       *ABS*	00000000 __rc18
00000024 g       *ABS*	00000000 __rc20
00000026 g       *ABS*	00000000 __rc22
00000028 g       *ABS*	00000000 __rc24
0000002a g       *ABS*	00000000 __rc26
0000002c g       *ABS*	00000000 __rc28
0000002e g       *ABS*	00000000 __rc30
0000002f g       *ABS*	00000000 __rc31
00000300 g       *ABS*	00000000 __f256_start
0000a000 g       *ABS*	00000000 __stack
0000a000 g       *ABS*	00000000 __SLOT_ADDR
0800a000 g       *ABS*	00000000 __block8_lma
00002000 g       *ABS*	00000000 __BLOCK_SIZE
0900a000 g       *ABS*	00000000 __block9_lma
0a00a000 g       *ABS*	00000000 __block10_lma
0b00a000 g       *ABS*	00000000 __block11_lma
0c00a000 g       *ABS*	00000000 __block12_lma
0d00a000 g       *ABS*	00000000 __block13_lma
0e00a000 g       *ABS*	00000000 __block14_lma
0f00a000 g       *ABS*	00000000 __block15_lma
1000a000 g       *ABS*	00000000 __block16_lma
1100a000 g       *ABS*	00000000 __block17_lma
1200a000 g       *ABS*	00000000 __block18_lma
1300a000 g       *ABS*	00000000 __block19_lma
1400a000 g       *ABS*	00000000 __block20_lma
1500a000 g       *ABS*	00000000 __block21_lma
1600a000 g       *ABS*	00000000 __block22_lma
1700a000 g       *ABS*	00000000 __block23_lma
00010000 g       *ABS*	00000000 __music_lma
0000cf7a g       *ABS*	00000000 __music_size
000044f8 g       .bss	00000000 __bss_start
0001cf7a g       .music	00000000 end_music
00000330 g       .text	00000000 _start
0000002d g       *ABS*	00000000 __rc29
0000002b g       *ABS*	00000000 __rc27
00000029 g       *ABS*	00000000 __rc25
00000027 g       *ABS*	00000000 __rc23
00000025 g       *ABS*	00000000 __rc21
00000023 g       *ABS*	00000000 __rc19
00000021 g       *ABS*	00000000 __rc17
0000001f g       *ABS*	00000000 __rc15
0000001d g       *ABS*	00000000 __rc13
0000001b g       *ABS*	00000000 __rc11
00000019 g       *ABS*	00000000 __rc9
00000017 g       *ABS*	00000000 __rc7
00000015 g       *ABS*	00000000 __rc5
00000013 g       *ABS*	00000000 __rc3
00000011 g       *ABS*	00000000 __rc1
00000030 g       .zp.data	00000000 __zp_data_start
00000300 g       *ABS*	00000000 __zp_data_load_start
00000030 g       *ABS*	00000000 __zp_data_size
00000060 g       .zp.bss	00000000 __zp_bss_start
0000001a g       *ABS*	00000000 __zp_bss_size
00000330 g       .text	00000000 _init
00004450 g       .text	00000000 __init_array_start
00004450 g       .text	00000000 __init_array_end
00004450 g       .text	00000000 __fini_array_start
00004450 g       .text	00000000 __fini_array_end
000044f8 g       .data	00000000 __data_start
000044f8 g       .data	00000000 __data_end
000044f8 g       *ABS*	00000000 __data_load_start
00000000 g       *ABS*	00000000 __data_size
00004500 g       .bss	00000000 __bss_end
00000008 g       *ABS*	00000000 __bss_size
00004500 g       .noinit	00000000 end_block8
00004500 g       .noinit	00000000 end_block9
00004500 g       .noinit	00000000 end_block10
00004500 g       .noinit	00000000 end_block11
00004500 g       .noinit	00000000 end_block12
00004500 g       .noinit	00000000 end_block13
00004500 g       .noinit	00000000 end_block14
00004500 g       .noinit	00000000 end_block15
00004500 g       .noinit	00000000 end_block16
00004500 g       .noinit	00000000 end_block17
00004500 g       .noinit	00000000 end_block18
00004500 g       .noinit	00000000 end_block19
00004500 g       .noinit	00000000 end_block20
00004500 g       .noinit	00000000 end_block21
00004500 g       .noinit	00000000 end_block22
00004500 g       .noinit	00000000 end_block23

Disassembly of section .text:

00000330 <_start>:
     330: a9 00        	lda	#$0
     332: 85 10        	sta	$10                     ; 0x2010 <exhaustZeroes+0x3e>
     334: a9 a0        	lda	#$a0
     336: 85 11        	sta	$11                     ; 0x2011 <exhaustZeroes+0x3f>

00000338 <__do_zero_bss>:
     338: 20 7d 04     	jsr	$47d <__zero_bss>

0000033b <__do_zero_zp_bss>:
     33b: 20 90 04     	jsr	$490 <__zero_zp_bss>

0000033e <__do_copy_zp_data>:
     33e: 20 a3 04     	jsr	$4a3 <__copy_zp_data>
     341: 20 64 08     	jsr	$864 <main>

00000344 <__after_main>:
     344: 4c a5 20     	jmp	$20a5 <exit>

00000347 <_fini>:
     347: 60           	rts

00000348 <_ZN12_GLOBAL__N_19FreeChunk6insertEPvj>:
     348: 85 16        	sta	$16                     ; 0x2016 <exhaustZeroes+0x44>
     34a: 29 fe        	and	#$fe
     34c: 85 14        	sta	$14                     ; 0x2014 <exhaustZeroes+0x42>
     34e: a0 01        	ldy	#$1
     350: 98           	tya
     351: 32 12        	and	($12)                   ; 0x2012 <exhaustZeroes+0x40>
     353: 05 14        	ora	$14                     ; 0x2014 <exhaustZeroes+0x42>
     355: 92 12        	sta	($12)                   ; 0x2012 <exhaustZeroes+0x40>
     357: a5 12        	lda	$12                     ; 0x2012 <exhaustZeroes+0x40>
     359: 18           	clc
     35a: 65 14        	adc	$14                     ; 0x2014 <exhaustZeroes+0x42>
     35c: 85 15        	sta	$15                     ; 0x2015 <exhaustZeroes+0x43>
     35e: 8a           	txa
     35f: 65 13        	adc	$13                     ; 0x2013 <exhaustZeroes+0x41>
     361: 85 14        	sta	$14                     ; 0x2014 <exhaustZeroes+0x42>
     363: 18           	clc
     364: a5 15        	lda	$15                     ; 0x2015 <exhaustZeroes+0x43>
     366: 69 fe        	adc	#$fe
     368: 85 17        	sta	$17                     ; 0x2017 <exhaustZeroes+0x45>
     36a: a5 14        	lda	$14                     ; 0x2014 <exhaustZeroes+0x42>
     36c: 69 ff        	adc	#$ff
     36e: 85 15        	sta	$15                     ; 0x2015 <exhaustZeroes+0x43>
     370: a5 17        	lda	$17                     ; 0x2017 <exhaustZeroes+0x45>
     372: 85 14        	sta	$14                     ; 0x2014 <exhaustZeroes+0x42>
     374: 8a           	txa
     375: 91 12        	sta	($12),y                 ; 0x2012 <exhaustZeroes+0x40>
     377: a5 16        	lda	$16                     ; 0x2016 <exhaustZeroes+0x44>
     379: 92 14        	sta	($14)                   ; 0x2014 <exhaustZeroes+0x42>
     37b: 8a           	txa
     37c: 91 14        	sta	($14),y                 ; 0x2014 <exhaustZeroes+0x42>
     37e: b1 12        	lda	($12),y                 ; 0x2012 <exhaustZeroes+0x40>
     380: 85 14        	sta	$14                     ; 0x2014 <exhaustZeroes+0x42>
     382: a9 fe        	lda	#$fe
     384: 32 12        	and	($12)                   ; 0x2012 <exhaustZeroes+0x40>
     386: 18           	clc
     387: 65 76        	adc	$76                     ; 0x2076 <exhaustZeroes+0xa4>
     389: aa           	tax
     38a: a5 14        	lda	$14                     ; 0x2014 <exhaustZeroes+0x42>
     38c: 65 77        	adc	$77                     ; 0x2077 <exhaustZeroes+0xa5>
     38e: a8           	tay
     38f: 18           	clc
     390: 8a           	txa
     391: 69 fe        	adc	#$fe
     393: aa           	tax
     394: 98           	tya
     395: 69 ff        	adc	#$ff
     397: 86 76        	stx	$76                     ; 0x2076 <exhaustZeroes+0xa4>
     399: 85 77        	sta	$77                     ; 0x2077 <exhaustZeroes+0xa5>
     39b: a6 78        	ldx	$78                     ; 0x2078 <exhaustZeroes+0xa6>
     39d: 86 16        	stx	$16                     ; 0x2016 <exhaustZeroes+0x44>
     39f: a4 79        	ldy	$79                     ; 0x2079 <exhaustZeroes+0xa7>
     3a1: a2 00        	ldx	#$0
     3a3: 86 14        	stx	$14                     ; 0x2014 <exhaustZeroes+0x42>
     3a5: a2 00        	ldx	#$0
     3a7: 86 15        	stx	$15                     ; 0x2015 <exhaustZeroes+0x43>
     3a9: c4 15        	cpy	$15                     ; 0x2015 <exhaustZeroes+0x43>
     3ab: d0 3c        	bne	$3e9 <_ZN12_GLOBAL__N_19FreeChunk6insertEPvj+0xa1>
     3ad: a6 16        	ldx	$16                     ; 0x2016 <exhaustZeroes+0x44>
     3af: e4 14        	cpx	$14                     ; 0x2014 <exhaustZeroes+0x42>
     3b1: d0 36        	bne	$3e9 <_ZN12_GLOBAL__N_19FreeChunk6insertEPvj+0xa1>
     3b3: a0 04        	ldy	#$4
     3b5: a5 12        	lda	$12                     ; 0x2012 <exhaustZeroes+0x40>
     3b7: 18           	clc
     3b8: 69 04        	adc	#$4
     3ba: 85 14        	sta	$14                     ; 0x2014 <exhaustZeroes+0x42>
     3bc: a5 13        	lda	$13                     ; 0x2013 <exhaustZeroes+0x41>
     3be: 69 00        	adc	#$0
     3c0: 18           	clc
     3c1: 85 15        	sta	$15                     ; 0x2015 <exhaustZeroes+0x43>
     3c3: a5 12        	lda	$12                     ; 0x2012 <exhaustZeroes+0x40>
     3c5: 91 12        	sta	($12),y                 ; 0x2012 <exhaustZeroes+0x40>
     3c7: a0 02        	ldy	#$2
     3c9: 85 17        	sta	$17                     ; 0x2017 <exhaustZeroes+0x45>
     3cb: 69 02        	adc	#$2
     3cd: 85 16        	sta	$16                     ; 0x2016 <exhaustZeroes+0x44>
     3cf: a5 17        	lda	$17                     ; 0x2017 <exhaustZeroes+0x45>
     3d1: 91 12        	sta	($12),y                 ; 0x2012 <exhaustZeroes+0x40>
     3d3: a5 13        	lda	$13                     ; 0x2013 <exhaustZeroes+0x41>
     3d5: 69 00        	adc	#$0
     3d7: 85 17        	sta	$17                     ; 0x2017 <exhaustZeroes+0x45>
     3d9: 88           	dey
     3da: a5 13        	lda	$13                     ; 0x2013 <exhaustZeroes+0x41>
     3dc: 91 14        	sta	($14),y                 ; 0x2014 <exhaustZeroes+0x42>
     3de: 91 16        	sta	($16),y                 ; 0x2016 <exhaustZeroes+0x44>
     3e0: a6 12        	ldx	$12                     ; 0x2012 <exhaustZeroes+0x40>
     3e2: 86 78        	stx	$78                     ; 0x2078 <exhaustZeroes+0xa6>
     3e4: a6 13        	ldx	$13                     ; 0x2013 <exhaustZeroes+0x41>
     3e6: 86 79        	stx	$79                     ; 0x2079 <exhaustZeroes+0xa7>
     3e8: 60           	rts
     3e9: a6 12        	ldx	$12                     ; 0x2012 <exhaustZeroes+0x40>
     3eb: a5 12        	lda	$12                     ; 0x2012 <exhaustZeroes+0x40>
     3ed: 18           	clc
     3ee: 69 02        	adc	#$2
     3f0: 85 14        	sta	$14                     ; 0x2014 <exhaustZeroes+0x42>
     3f2: 84 18        	sty	$18                     ; 0x2018 <exhaustZeroes+0x46>
     3f4: a5 13        	lda	$13                     ; 0x2013 <exhaustZeroes+0x41>
     3f6: 69 00        	adc	#$0
     3f8: 85 15        	sta	$15                     ; 0x2015 <exhaustZeroes+0x43>
     3fa: a5 16        	lda	$16                     ; 0x2016 <exhaustZeroes+0x44>
     3fc: 84 17        	sty	$17                     ; 0x2017 <exhaustZeroes+0x45>
     3fe: a0 02        	ldy	#$2
     400: 91 12        	sta	($12),y                 ; 0x2012 <exhaustZeroes+0x40>
     402: 85 19        	sta	$19                     ; 0x2019 <exhaustZeroes+0x47>
     404: 88           	dey
     405: a5 18        	lda	$18                     ; 0x2018 <exhaustZeroes+0x46>
     407: 91 14        	sta	($14),y                 ; 0x2014 <exhaustZeroes+0x42>
     409: 18           	clc
     40a: a5 19        	lda	$19                     ; 0x2019 <exhaustZeroes+0x47>
     40c: 69 04        	adc	#$4
     40e: a8           	tay
     40f: a5 18        	lda	$18                     ; 0x2018 <exhaustZeroes+0x46>
     411: 69 00        	adc	#$0
     413: 85 19        	sta	$19                     ; 0x2019 <exhaustZeroes+0x47>
     415: 84 18        	sty	$18                     ; 0x2018 <exhaustZeroes+0x46>
     417: 8a           	txa
     418: 18           	clc
     419: 69 04        	adc	#$4
     41b: 85 1a        	sta	$1a                     ; 0x201a <exhaustZeroes+0x48>
     41d: a5 13        	lda	$13                     ; 0x2013 <exhaustZeroes+0x41>
     41f: 69 00        	adc	#$0
     421: 85 1b        	sta	$1b                     ; 0x201b <exhaustZeroes+0x49>
     423: a0 04        	ldy	#$4
     425: b1 16        	lda	($16),y                 ; 0x2016 <exhaustZeroes+0x44>
     427: 85 16        	sta	$16                     ; 0x2016 <exhaustZeroes+0x44>
     429: 85 1d        	sta	$1d                     ; 0x201d <exhaustZeroes+0x4b>
     42b: a0 01        	ldy	#$1
     42d: b1 18        	lda	($18),y                 ; 0x2018 <exhaustZeroes+0x46>
     42f: 85 17        	sta	$17                     ; 0x2017 <exhaustZeroes+0x45>
     431: 85 19        	sta	$19                     ; 0x2019 <exhaustZeroes+0x47>
     433: a0 04        	ldy	#$4
     435: a5 1d        	lda	$1d                     ; 0x201d <exhaustZeroes+0x4b>
     437: 91 12        	sta	($12),y                 ; 0x2012 <exhaustZeroes+0x40>
     439: a5 19        	lda	$19                     ; 0x2019 <exhaustZeroes+0x47>
     43b: a0 01        	ldy	#$1
     43d: 91 1a        	sta	($1a),y                 ; 0x201a <exhaustZeroes+0x48>
     43f: 18           	clc
     440: a5 1d        	lda	$1d                     ; 0x201d <exhaustZeroes+0x4b>
     442: 69 02        	adc	#$2
     444: 85 18        	sta	$18                     ; 0x2018 <exhaustZeroes+0x46>
     446: a5 19        	lda	$19                     ; 0x2019 <exhaustZeroes+0x47>
     448: 69 00        	adc	#$0
     44a: 85 19        	sta	$19                     ; 0x2019 <exhaustZeroes+0x47>
     44c: 8a           	txa
     44d: c8           	iny
     44e: 91 16        	sta	($16),y                 ; 0x2016 <exhaustZeroes+0x44>
     450: a5 13        	lda	$13                     ; 0x2013 <exhaustZeroes+0x41>
     452: 88           	dey
     453: 91 18        	sta	($18),y                 ; 0x2018 <exhaustZeroes+0x46>
     455: c8           	iny
     456: b1 12        	lda	($12),y                 ; 0x2012 <exhaustZeroes+0x40>
     458: 85 16        	sta	$16                     ; 0x2016 <exhaustZeroes+0x44>
     45a: 85 18        	sta	$18                     ; 0x2018 <exhaustZeroes+0x46>
     45c: 88           	dey
     45d: b1 14        	lda	($14),y                 ; 0x2014 <exhaustZeroes+0x42>
     45f: 85 17        	sta	$17                     ; 0x2017 <exhaustZeroes+0x45>
     461: 85 14        	sta	$14                     ; 0x2014 <exhaustZeroes+0x42>
     463: 8a           	txa
     464: a0 04        	ldy	#$4
     466: 91 16        	sta	($16),y                 ; 0x2016 <exhaustZeroes+0x44>
     468: 18           	clc
     469: a5 18        	lda	$18                     ; 0x2018 <exhaustZeroes+0x46>
     46b: 69 04        	adc	#$4
     46d: a8           	tay
     46e: a5 14        	lda	$14                     ; 0x2014 <exhaustZeroes+0x42>
     470: 69 00        	adc	#$0
     472: 84 14        	sty	$14                     ; 0x2014 <exhaustZeroes+0x42>
     474: 85 15        	sta	$15                     ; 0x2015 <exhaustZeroes+0x43>
     476: a5 13        	lda	$13                     ; 0x2013 <exhaustZeroes+0x41>
     478: a0 01        	ldy	#$1
     47a: 91 14        	sta	($14),y                 ; 0x2014 <exhaustZeroes+0x42>
     47c: 60           	rts

0000047d <__zero_bss>:
     47d: a2 08        	ldx	#$8
     47f: a0 00        	ldy	#$0
     481: a9 f8        	lda	#$f8
     483: 85 12        	sta	$12                     ; 0x2012 <exhaustZeroes+0x40>
     485: a9 44        	lda	#$44
     487: 85 13        	sta	$13                     ; 0x2013 <exhaustZeroes+0x41>
     489: a9 00        	lda	#$0
     48b: 84 14        	sty	$14                     ; 0x2014 <exhaustZeroes+0x42>
     48d: 4c ed 41     	jmp	$41ed <__memset>

00000490 <__zero_zp_bss>:
     490: a2 1a        	ldx	#$1a
     492: a0 00        	ldy	#$0
     494: a9 60        	lda	#$60
     496: 85 12        	sta	$12                     ; 0x2012 <exhaustZeroes+0x40>
     498: a9 00        	lda	#$0
     49a: 85 13        	sta	$13                     ; 0x2013 <exhaustZeroes+0x41>
     49c: a9 00        	lda	#$0
     49e: 84 14        	sty	$14                     ; 0x2014 <exhaustZeroes+0x42>
     4a0: 4c ed 41     	jmp	$41ed <__memset>

000004a3 <__copy_zp_data>:
     4a3: a9 30        	lda	#$30
     4a5: a2 00        	ldx	#$0
     4a7: a0 30        	ldy	#$30
     4a9: 84 12        	sty	$12                     ; 0x2012 <exhaustZeroes+0x40>
     4ab: a0 00        	ldy	#$0
     4ad: 84 13        	sty	$13                     ; 0x2013 <exhaustZeroes+0x41>
     4af: a0 00        	ldy	#$0
     4b1: 84 14        	sty	$14                     ; 0x2014 <exhaustZeroes+0x42>
     4b3: a0 03        	ldy	#$3
     4b5: 84 15        	sty	$15                     ; 0x2015 <exhaustZeroes+0x43>
     4b7: 4c c1 41     	jmp	$41c1 <memcpy>

000004ba <f256Init>:
     4ba: 18           	clc
     4bb: a5 10        	lda	$10                     ; 0x2010 <exhaustZeroes+0x3e>
     4bd: 69 f7        	adc	#$f7
     4bf: 85 10        	sta	$10                     ; 0x2010 <exhaustZeroes+0x3e>
     4c1: a5 11        	lda	$11                     ; 0x2011 <exhaustZeroes+0x3f>
     4c3: 69 ff        	adc	#$ff
     4c5: 85 11        	sta	$11                     ; 0x2011 <exhaustZeroes+0x3f>
     4c7: 64 14        	stz	$14                     ; 0x2014 <exhaustZeroes+0x42>
     4c9: a2 00        	ldx	#$0
     4cb: 86 12        	stx	$12                     ; 0x2012 <exhaustZeroes+0x40>
     4cd: a2 c0        	ldx	#$c0
     4cf: 86 13        	stx	$13                     ; 0x2013 <exhaustZeroes+0x41>
     4d1: 64 01        	stz	$1                      ; 0x2001 <exhaustZeroes+0x2f>
     4d3: a2 3f        	ldx	#$3f
     4d5: 8e 00 d0     	stx	$d000                   ; 0xd000 <end_block9+0x8b00>
     4d8: a2 b3        	ldx	#$b3
     4da: 86 00        	stx	$0                      ; 0x2000 <exhaustZeroes+0x2e>
     4dc: 64 08        	stz	$8                      ; 0x2008 <exhaustZeroes+0x36>
     4de: a2 01        	ldx	#$1
     4e0: 86 09        	stx	$9                      ; 0x2009 <exhaustZeroes+0x37>
     4e2: e8           	inx
     4e3: 86 0a        	stx	$a                      ; 0x200a <exhaustZeroes+0x38>
     4e5: e8           	inx
     4e6: 86 0b        	stx	$b                      ; 0x200b <exhaustZeroes+0x39>
     4e8: e8           	inx
     4e9: 86 0c        	stx	$c                      ; 0x200c <exhaustZeroes+0x3a>
     4eb: e8           	inx
     4ec: 86 0d        	stx	$d                      ; 0x200d <exhaustZeroes+0x3b>
     4ee: a2 f9        	ldx	#$f9
     4f0: a0 44        	ldy	#$44
     4f2: 86 f0        	stx	$f0                     ; 0x20f0 <_ZN12_GLOBAL__N_13putEcP6Status+0x46>
     4f4: 84 f1        	sty	$f1                     ; 0x20f1 <_ZN12_GLOBAL__N_13putEcP6Status+0x47>
     4f6: a2 00        	ldx	#$0
     4f8: 86 18        	stx	$18                     ; 0x2018 <exhaustZeroes+0x46>
     4fa: ca           	dex
     4fb: 86 19        	stx	$19                     ; 0x2019 <exhaustZeroes+0x47>
     4fd: 8a           	txa
     4fe: 0a           	asl
     4ff: 0a           	asl
     500: 18           	clc
     501: 69 d4        	adc	#$d4
     503: 85 1a        	sta	$1a                     ; 0x201a <exhaustZeroes+0x48>
     505: a0 00        	ldy	#$0
     507: 64 17        	stz	$17                     ; 0x2017 <exhaustZeroes+0x45>
     509: 64 16        	stz	$16                     ; 0x2016 <exhaustZeroes+0x44>
     50b: a6 19        	ldx	$19                     ; 0x2019 <exhaustZeroes+0x47>
     50d: e0 03        	cpx	#$3
     50f: a6 01        	ldx	$1                      ; 0x2001 <exhaustZeroes+0x2f>
     511: 86 1c        	stx	$1c                     ; 0x201c <exhaustZeroes+0x4a>
     513: a2 d0        	ldx	#$d0
     515: 84 1b        	sty	$1b                     ; 0x201b <exhaustZeroes+0x49>
     517: b0 02        	bcs	$51b <f256Init+0x61>
     519: a6 1a        	ldx	$1a                     ; 0x201a <exhaustZeroes+0x48>
     51b: 86 15        	stx	$15                     ; 0x2015 <exhaustZeroes+0x43>
     51d: a5 17        	lda	$17                     ; 0x2017 <exhaustZeroes+0x45>
     51f: 18           	clc
     520: 65 14        	adc	$14                     ; 0x2014 <exhaustZeroes+0x42>
     522: a8           	tay
     523: a6 17        	ldx	$17                     ; 0x2017 <exhaustZeroes+0x45>
     525: a5 16        	lda	$16                     ; 0x2016 <exhaustZeroes+0x44>
     527: 85 1d        	sta	$1d                     ; 0x201d <exhaustZeroes+0x4b>
     529: a5 16        	lda	$16                     ; 0x2016 <exhaustZeroes+0x44>
     52b: 65 15        	adc	$15                     ; 0x2015 <exhaustZeroes+0x43>
     52d: 84 16        	sty	$16                     ; 0x2016 <exhaustZeroes+0x44>
     52f: a0 01        	ldy	#$1
     531: 84 01        	sty	$1                      ; 0x2001 <exhaustZeroes+0x2f>
     533: 85 17        	sta	$17                     ; 0x2017 <exhaustZeroes+0x45>
     535: a5 1b        	lda	$1b                     ; 0x201b <exhaustZeroes+0x49>
     537: 92 16        	sta	($16)                   ; 0x2016 <exhaustZeroes+0x44>
     539: 91 16        	sta	($16),y                 ; 0x2016 <exhaustZeroes+0x44>
     53b: c8           	iny
     53c: 91 16        	sta	($16),y                 ; 0x2016 <exhaustZeroes+0x44>
     53e: 85 15        	sta	$15                     ; 0x2015 <exhaustZeroes+0x43>
     540: c8           	iny
     541: a9 ff        	lda	#$ff
     543: 91 16        	sta	($16),y                 ; 0x2016 <exhaustZeroes+0x44>
     545: 8a           	txa
     546: a6 1c        	ldx	$1c                     ; 0x201c <exhaustZeroes+0x4a>
     548: 86 01        	stx	$1                      ; 0x2001 <exhaustZeroes+0x2f>
     54a: 18           	clc
     54b: 69 04        	adc	#$4
     54d: 85 17        	sta	$17                     ; 0x2017 <exhaustZeroes+0x45>
     54f: a5 1d        	lda	$1d                     ; 0x201d <exhaustZeroes+0x4b>
     551: 69 00        	adc	#$0
     553: e6 15        	inc	$15                     ; 0x2015 <exhaustZeroes+0x43>
     555: a4 15        	ldy	$15                     ; 0x2015 <exhaustZeroes+0x43>
     557: 85 16        	sta	$16                     ; 0x2016 <exhaustZeroes+0x44>
     559: c9 04        	cmp	#$4
     55b: f0 03        	beq	$560 <f256Init+0xa6>
     55d: 4c 0b 05     	jmp	$50b <f256Init+0x51>
     560: a5 17        	lda	$17                     ; 0x2017 <exhaustZeroes+0x45>
     562: f0 03        	beq	$567 <f256Init+0xad>
     564: 4c 0b 05     	jmp	$50b <f256Init+0x51>
     567: a6 18        	ldx	$18                     ; 0x2018 <exhaustZeroes+0x46>
     569: e8           	inx
     56a: e0 04        	cpx	#$4
     56c: f0 03        	beq	$571 <f256Init+0xb7>
     56e: 4c f8 04     	jmp	$4f8 <f256Init+0x3e>
     571: ad 02 d0     	lda	$d002                   ; 0xd002 <end_block9+0x8b02>
     574: 29 f0        	and	#$f0
     576: 8d 02 d0     	sta	$d002                   ; 0xd002 <end_block9+0x8b02>
     579: ad 02 d0     	lda	$d002                   ; 0xd002 <end_block9+0x8b02>
     57c: 29 0f        	and	#$f
     57e: 09 10        	ora	#$10
     580: 8d 02 d0     	sta	$d002                   ; 0xd002 <end_block9+0x8b02>
     583: a2 02        	ldx	#$2
     585: 8e 03 d0     	stx	$d003                   ; 0xd003 <end_block9+0x8b03>
     588: ad 01 d0     	lda	$d001                   ; 0xd001 <end_block9+0x8b01>
     58b: 29 f9        	and	#$f9
     58d: 09 04        	ora	#$4
     58f: 8d 01 d0     	sta	$d001                   ; 0xd001 <end_block9+0x8b01>
     592: 64 14        	stz	$14                     ; 0x2014 <exhaustZeroes+0x42>
     594: 9c 10 d0     	stz	$d010                   ; 0xd010 <end_block9+0x8b10>
     597: a2 00        	ldx	#$0
     599: 64 15        	stz	$15                     ; 0x2015 <exhaustZeroes+0x43>
     59b: 86 18        	stx	$18                     ; 0x2018 <exhaustZeroes+0x46>
     59d: a4 18        	ldy	$18                     ; 0x2018 <exhaustZeroes+0x46>
     59f: b6 30        	ldx	$30,y                   ; 0x2030 <exhaustZeroes+0x5e>
     5a1: 86 19        	stx	$19                     ; 0x2019 <exhaustZeroes+0x47>
     5a3: b6 31        	ldx	$31,y                   ; 0x2031 <exhaustZeroes+0x5f>
     5a5: 86 1a        	stx	$1a                     ; 0x201a <exhaustZeroes+0x48>
     5a7: b6 32        	ldx	$32,y                   ; 0x2032 <exhaustZeroes+0x60>
     5a9: 86 1b        	stx	$1b                     ; 0x201b <exhaustZeroes+0x49>
     5ab: a6 15        	ldx	$15                     ; 0x2015 <exhaustZeroes+0x43>
     5ad: 8e 00 de     	stx	$de00                   ; 0xde00 <end_block9+0x9900>
     5b0: 86 17        	stx	$17                     ; 0x2017 <exhaustZeroes+0x45>
     5b2: 9c 01 de     	stz	$de01                   ; 0xde01 <end_block9+0x9901>
     5b5: a2 04        	ldx	#$4
     5b7: 8e 02 de     	stx	$de02                   ; 0xde02 <end_block9+0x9902>
     5ba: 9c 03 de     	stz	$de03                   ; 0xde03 <end_block9+0x9903>
     5bd: ad 10 de     	lda	$de10                   ; 0xde10 <end_block9+0x9910>
     5c0: ac 11 de     	ldy	$de11                   ; 0xde11 <end_block9+0x9911>
     5c3: 84 15        	sty	$15                     ; 0x2015 <exhaustZeroes+0x43>
     5c5: ac 12 de     	ldy	$de12                   ; 0xde12 <end_block9+0x9912>
     5c8: ac 13 de     	ldy	$de13                   ; 0xde13 <end_block9+0x9913>
     5cb: 18           	clc
     5cc: 65 14        	adc	$14                     ; 0x2014 <exhaustZeroes+0x42>
     5ce: 85 16        	sta	$16                     ; 0x2016 <exhaustZeroes+0x44>
     5d0: a6 17        	ldx	$17                     ; 0x2017 <exhaustZeroes+0x45>
     5d2: a9 d8        	lda	#$d8
     5d4: 65 15        	adc	$15                     ; 0x2015 <exhaustZeroes+0x43>
     5d6: 85 17        	sta	$17                     ; 0x2017 <exhaustZeroes+0x45>
     5d8: a5 1b        	lda	$1b                     ; 0x201b <exhaustZeroes+0x49>
     5da: 92 16        	sta	($16)                   ; 0x2016 <exhaustZeroes+0x44>
     5dc: a0 01        	ldy	#$1
     5de: a5 1a        	lda	$1a                     ; 0x201a <exhaustZeroes+0x48>
     5e0: 91 16        	sta	($16),y                 ; 0x2016 <exhaustZeroes+0x44>
     5e2: c8           	iny
     5e3: a5 19        	lda	$19                     ; 0x2019 <exhaustZeroes+0x47>
     5e5: 91 16        	sta	($16),y                 ; 0x2016 <exhaustZeroes+0x44>
     5e7: c8           	iny
     5e8: a9 ff        	lda	#$ff
     5ea: 91 16        	sta	($16),y                 ; 0x2016 <exhaustZeroes+0x44>
     5ec: 8e 00 de     	stx	$de00                   ; 0xde00 <end_block9+0x9900>
     5ef: 9c 01 de     	stz	$de01                   ; 0xde01 <end_block9+0x9901>
     5f2: c8           	iny
     5f3: 8c 02 de     	sty	$de02                   ; 0xde02 <end_block9+0x9902>
     5f6: 9c 03 de     	stz	$de03                   ; 0xde03 <end_block9+0x9903>
     5f9: ad 10 de     	lda	$de10                   ; 0xde10 <end_block9+0x9910>
     5fc: 85 15        	sta	$15                     ; 0x2015 <exhaustZeroes+0x43>
     5fe: ad 11 de     	lda	$de11                   ; 0xde11 <end_block9+0x9911>
     601: 85 16        	sta	$16                     ; 0x2016 <exhaustZeroes+0x44>
     603: a9 40        	lda	#$40
     605: 18           	clc
     606: 65 15        	adc	$15                     ; 0x2015 <exhaustZeroes+0x43>
     608: a8           	tay
     609: a9 d8        	lda	#$d8
     60b: 65 16        	adc	$16                     ; 0x2016 <exhaustZeroes+0x44>
     60d: 85 17        	sta	$17                     ; 0x2017 <exhaustZeroes+0x45>
     60f: 84 16        	sty	$16                     ; 0x2016 <exhaustZeroes+0x44>
     611: ad 12 de     	lda	$de12                   ; 0xde12 <end_block9+0x9912>
     614: ad 13 de     	lda	$de13                   ; 0xde13 <end_block9+0x9913>
     617: a5 1b        	lda	$1b                     ; 0x201b <exhaustZeroes+0x49>
     619: 92 16        	sta	($16)                   ; 0x2016 <exhaustZeroes+0x44>
     61b: a5 1a        	lda	$1a                     ; 0x201a <exhaustZeroes+0x48>
     61d: a0 01        	ldy	#$1
     61f: 91 16        	sta	($16),y                 ; 0x2016 <exhaustZeroes+0x44>
     621: a5 19        	lda	$19                     ; 0x2019 <exhaustZeroes+0x47>
     623: c8           	iny
     624: 91 16        	sta	($16),y                 ; 0x2016 <exhaustZeroes+0x44>
     626: c8           	iny
     627: a9 ff        	lda	#$ff
     629: 91 16        	sta	($16),y                 ; 0x2016 <exhaustZeroes+0x44>
     62b: e8           	inx
     62c: 86 15        	stx	$15                     ; 0x2015 <exhaustZeroes+0x43>
     62e: 18           	clc
     62f: a5 18        	lda	$18                     ; 0x2018 <exhaustZeroes+0x46>
     631: 69 03        	adc	#$3
     633: aa           	tax
     634: c9 30        	cmp	#$30
     636: f0 03        	beq	$63b <f256Init+0x181>
     638: 4c 9b 05     	jmp	$59b <f256Init+0xe1>
     63b: a6 01        	ldx	$1                      ; 0x2001 <exhaustZeroes+0x2f>
     63d: 86 18        	stx	$18                     ; 0x2018 <exhaustZeroes+0x46>
     63f: a2 50        	ldx	#$50
     641: 8e 00 de     	stx	$de00                   ; 0xde00 <end_block9+0x9900>
     644: 9c 01 de     	stz	$de01                   ; 0xde01 <end_block9+0x9901>
     647: a2 1e        	ldx	#$1e
     649: 8e 02 de     	stx	$de02                   ; 0xde02 <end_block9+0x9902>
     64c: 9c 03 de     	stz	$de03                   ; 0xde03 <end_block9+0x9903>
     64f: ae 10 de     	ldx	$de10                   ; 0xde10 <end_block9+0x9910>
     652: ac 11 de     	ldy	$de11                   ; 0xde11 <end_block9+0x9911>
     655: ad 12 de     	lda	$de12                   ; 0xde12 <end_block9+0x9912>
     658: ad 13 de     	lda	$de13                   ; 0xde13 <end_block9+0x9913>
     65b: a9 02        	lda	#$2
     65d: 85 01        	sta	$1                      ; 0x2001 <exhaustZeroes+0x2f>
     65f: e0 01        	cpx	#$1
     661: 98           	tya
     662: e9 00        	sbc	#$0
     664: 50 02        	bvc	$668 <f256Init+0x1ae>
     666: 49 80        	eor	#$80
     668: c9 00        	cmp	#$0
     66a: 30 48        	bmi	$6b4 <f256Init+0x1fa>
     66c: a9 20        	lda	#$20
     66e: 86 19        	stx	$19                     ; 0x2019 <exhaustZeroes+0x47>
     670: 86 14        	stx	$14                     ; 0x2014 <exhaustZeroes+0x42>
     672: 84 15        	sty	$15                     ; 0x2015 <exhaustZeroes+0x43>
     674: a2 00        	ldx	#$0
     676: 86 16        	stx	$16                     ; 0x2016 <exhaustZeroes+0x44>
     678: a2 c0        	ldx	#$c0
     67a: 86 17        	stx	$17                     ; 0x2017 <exhaustZeroes+0x45>
     67c: 92 16        	sta	($16)                   ; 0x2016 <exhaustZeroes+0x44>
     67e: e6 16        	inc	$16                     ; 0x2016 <exhaustZeroes+0x44>
     680: d0 02        	bne	$684 <f256Init+0x1ca>
     682: e6 17        	inc	$17                     ; 0x2017 <exhaustZeroes+0x45>
     684: a2 ff        	ldx	#$ff
     686: c6 14        	dec	$14                     ; 0x2014 <exhaustZeroes+0x42>
     688: e4 14        	cpx	$14                     ; 0x2014 <exhaustZeroes+0x42>
     68a: d0 02        	bne	$68e <f256Init+0x1d4>
     68c: c6 15        	dec	$15                     ; 0x2015 <exhaustZeroes+0x43>
     68e: a6 15        	ldx	$15                     ; 0x2015 <exhaustZeroes+0x43>
     690: d0 ea        	bne	$67c <f256Init+0x1c2>
     692: a6 14        	ldx	$14                     ; 0x2014 <exhaustZeroes+0x42>
     694: d0 e6        	bne	$67c <f256Init+0x1c2>
     696: a2 03        	ldx	#$3
     698: 86 01        	stx	$1                      ; 0x2001 <exhaustZeroes+0x2f>
     69a: a6 19        	ldx	$19                     ; 0x2019 <exhaustZeroes+0x47>
     69c: a9 f0        	lda	#$f0
     69e: 92 12        	sta	($12)                   ; 0x2012 <exhaustZeroes+0x40>
     6a0: e6 12        	inc	$12                     ; 0x2012 <exhaustZeroes+0x40>
     6a2: d0 02        	bne	$6a6 <f256Init+0x1ec>
     6a4: e6 13        	inc	$13                     ; 0x2013 <exhaustZeroes+0x41>
     6a6: ca           	dex
     6a7: e0 ff        	cpx	#$ff
     6a9: d0 01        	bne	$6ac <f256Init+0x1f2>
     6ab: 88           	dey
     6ac: 98           	tya
     6ad: d0 ed        	bne	$69c <f256Init+0x1e2>
     6af: 8a           	txa
     6b0: d0 ea        	bne	$69c <f256Init+0x1e2>
     6b2: 80 04        	bra	$6b8 <f256Init+0x1fe>
     6b4: a2 03        	ldx	#$3
     6b6: 86 01        	stx	$1                      ; 0x2001 <exhaustZeroes+0x2f>
     6b8: a6 18        	ldx	$18                     ; 0x2018 <exhaustZeroes+0x46>
     6ba: 86 01        	stx	$1                      ; 0x2001 <exhaustZeroes+0x2f>
     6bc: 64 60        	stz	$60                     ; 0x2060 <exhaustZeroes+0x8e>
     6be: 9c 14 d0     	stz	$d014                   ; 0xd014 <end_block9+0x8b14>
     6c1: 9c 15 d0     	stz	$d015                   ; 0xd015 <end_block9+0x8b15>
     6c4: 64 61        	stz	$61                     ; 0x2061 <exhaustZeroes+0x8f>
     6c6: 9c 16 d0     	stz	$d016                   ; 0xd016 <end_block9+0x8b16>
     6c9: 9c 17 d0     	stz	$d017                   ; 0xd017 <end_block9+0x8b17>
     6cc: a2 40        	ldx	#$40
     6ce: 8e 00 de     	stx	$de00                   ; 0xde00 <end_block9+0x9900>
     6d1: a2 01        	ldx	#$1
     6d3: 8e 01 de     	stx	$de01                   ; 0xde01 <end_block9+0x9901>
     6d6: a2 f0        	ldx	#$f0
     6d8: 8e 02 de     	stx	$de02                   ; 0xde02 <end_block9+0x9902>
     6db: 9c 03 de     	stz	$de03                   ; 0xde03 <end_block9+0x9903>
     6de: ae 10 de     	ldx	$de10                   ; 0xde10 <end_block9+0x9910>
     6e1: 86 17        	stx	$17                     ; 0x2017 <exhaustZeroes+0x45>
     6e3: ae 11 de     	ldx	$de11                   ; 0xde11 <end_block9+0x9911>
     6e6: 86 12        	stx	$12                     ; 0x2012 <exhaustZeroes+0x40>
     6e8: ae 12 de     	ldx	$de12                   ; 0xde12 <end_block9+0x9912>
     6eb: 86 13        	stx	$13                     ; 0x2013 <exhaustZeroes+0x41>
     6ed: ae 13 de     	ldx	$de13                   ; 0xde13 <end_block9+0x9913>
     6f0: 86 14        	stx	$14                     ; 0x2014 <exhaustZeroes+0x42>
     6f2: a4 12        	ldy	$12                     ; 0x2012 <exhaustZeroes+0x40>
     6f4: 84 15        	sty	$15                     ; 0x2015 <exhaustZeroes+0x43>
     6f6: 06 15        	asl	$15                     ; 0x2015 <exhaustZeroes+0x43>
     6f8: a5 13        	lda	$13                     ; 0x2013 <exhaustZeroes+0x41>
     6fa: 2a           	rol
     6fb: 86 16        	stx	$16                     ; 0x2016 <exhaustZeroes+0x44>
     6fd: 26 16        	rol	$16                     ; 0x2016 <exhaustZeroes+0x44>
     6ff: 06 15        	asl	$15                     ; 0x2015 <exhaustZeroes+0x43>
     701: 2a           	rol
     702: 26 16        	rol	$16                     ; 0x2016 <exhaustZeroes+0x44>
     704: 06 15        	asl	$15                     ; 0x2015 <exhaustZeroes+0x43>
     706: 2a           	rol
     707: 26 16        	rol	$16                     ; 0x2016 <exhaustZeroes+0x44>
     709: 85 15        	sta	$15                     ; 0x2015 <exhaustZeroes+0x43>
     70b: 8d 00 de     	sta	$de00                   ; 0xde00 <end_block9+0x9900>
     70e: a5 16        	lda	$16                     ; 0x2016 <exhaustZeroes+0x44>
     710: 8d 01 de     	sta	$de01                   ; 0xde01 <end_block9+0x9901>
     713: 9c 02 de     	stz	$de02                   ; 0xde02 <end_block9+0x9902>
     716: a2 20        	ldx	#$20
     718: 8e 03 de     	stx	$de03                   ; 0xde03 <end_block9+0x9903>
     71b: ae 10 de     	ldx	$de10                   ; 0xde10 <end_block9+0x9910>
     71e: 86 16        	stx	$16                     ; 0x2016 <exhaustZeroes+0x44>
     720: ae 11 de     	ldx	$de11                   ; 0xde11 <end_block9+0x9911>
     723: 86 18        	stx	$18                     ; 0x2018 <exhaustZeroes+0x46>
     725: ac 12 de     	ldy	$de12                   ; 0xde12 <end_block9+0x9912>
     728: ae 13 de     	ldx	$de13                   ; 0xde13 <end_block9+0x9913>
     72b: e4 14        	cpx	$14                     ; 0x2014 <exhaustZeroes+0x42>
     72d: d0 14        	bne	$743 <f256Init+0x289>
     72f: c4 13        	cpy	$13                     ; 0x2013 <exhaustZeroes+0x41>
     731: d0 10        	bne	$743 <f256Init+0x289>
     733: a6 18        	ldx	$18                     ; 0x2018 <exhaustZeroes+0x46>
     735: e4 12        	cpx	$12                     ; 0x2012 <exhaustZeroes+0x40>
     737: d0 0a        	bne	$743 <f256Init+0x289>
     739: a6 16        	ldx	$16                     ; 0x2016 <exhaustZeroes+0x44>
     73b: e4 17        	cpx	$17                     ; 0x2017 <exhaustZeroes+0x45>
     73d: d0 04        	bne	$743 <f256Init+0x289>
     73f: a6 15        	ldx	$15                     ; 0x2015 <exhaustZeroes+0x43>
     741: 80 06        	bra	$749 <f256Init+0x28f>
     743: a6 15        	ldx	$15                     ; 0x2015 <exhaustZeroes+0x43>
     745: e8           	inx
     746: d0 01        	bne	$749 <f256Init+0x28f>
     748: 1a           	inc
     749: 8e 00 de     	stx	$de00                   ; 0xde00 <end_block9+0x9900>
     74c: 8d 01 de     	sta	$de01                   ; 0xde01 <end_block9+0x9901>
     74f: 9c 02 de     	stz	$de02                   ; 0xde02 <end_block9+0x9902>
     752: a2 20        	ldx	#$20
     754: 8e 03 de     	stx	$de03                   ; 0xde03 <end_block9+0x9903>
     757: ae 10 de     	ldx	$de10                   ; 0xde10 <end_block9+0x9910>
     75a: 86 12        	stx	$12                     ; 0x2012 <exhaustZeroes+0x40>
     75c: ae 11 de     	ldx	$de11                   ; 0xde11 <end_block9+0x9911>
     75f: 86 13        	stx	$13                     ; 0x2013 <exhaustZeroes+0x41>
     761: ae 12 de     	ldx	$de12                   ; 0xde12 <end_block9+0x9912>
     764: 86 14        	stx	$14                     ; 0x2014 <exhaustZeroes+0x42>
     766: 38           	sec
     767: a9 00        	lda	#$0
     769: e5 12        	sbc	$12                     ; 0x2012 <exhaustZeroes+0x40>
     76b: a8           	tay
     76c: a9 00        	lda	#$0
     76e: e5 13        	sbc	$13                     ; 0x2013 <exhaustZeroes+0x41>
     770: 85 15        	sta	$15                     ; 0x2015 <exhaustZeroes+0x43>
     772: a9 08        	lda	#$8
     774: e5 14        	sbc	$14                     ; 0x2014 <exhaustZeroes+0x42>
     776: aa           	tax
     777: 38           	sec
     778: 98           	tya
     779: 84 17        	sty	$17                     ; 0x2017 <exhaustZeroes+0x45>
     77b: e5 12        	sbc	$12                     ; 0x2012 <exhaustZeroes+0x40>
     77d: 85 16        	sta	$16                     ; 0x2016 <exhaustZeroes+0x44>
     77f: a5 15        	lda	$15                     ; 0x2015 <exhaustZeroes+0x43>
     781: e5 13        	sbc	$13                     ; 0x2013 <exhaustZeroes+0x41>
     783: 85 18        	sta	$18                     ; 0x2018 <exhaustZeroes+0x46>
     785: 8a           	txa
     786: 86 19        	stx	$19                     ; 0x2019 <exhaustZeroes+0x47>
     788: e5 14        	sbc	$14                     ; 0x2014 <exhaustZeroes+0x42>
     78a: a8           	tay
     78b: 38           	sec
     78c: a5 16        	lda	$16                     ; 0x2016 <exhaustZeroes+0x44>
     78e: e5 12        	sbc	$12                     ; 0x2012 <exhaustZeroes+0x40>
     790: 85 12        	sta	$12                     ; 0x2012 <exhaustZeroes+0x40>
     792: a5 18        	lda	$18                     ; 0x2018 <exhaustZeroes+0x46>
     794: e5 13        	sbc	$13                     ; 0x2013 <exhaustZeroes+0x41>
     796: 85 13        	sta	$13                     ; 0x2013 <exhaustZeroes+0x41>
     798: 98           	tya
     799: e5 14        	sbc	$14                     ; 0x2014 <exhaustZeroes+0x42>
     79b: ae 13 de     	ldx	$de13                   ; 0xde13 <end_block9+0x9913>
     79e: a6 17        	ldx	$17                     ; 0x2017 <exhaustZeroes+0x45>
     7a0: 8e 01 d1     	stx	$d101                   ; 0xd101 <end_block9+0x8c01>
     7a3: a6 15        	ldx	$15                     ; 0x2015 <exhaustZeroes+0x43>
     7a5: 8e 02 d1     	stx	$d102                   ; 0xd102 <end_block9+0x8c02>
     7a8: a6 19        	ldx	$19                     ; 0x2019 <exhaustZeroes+0x47>
     7aa: 8e 03 d1     	stx	$d103                   ; 0xd103 <end_block9+0x8c03>
     7ad: a6 16        	ldx	$16                     ; 0x2016 <exhaustZeroes+0x44>
     7af: 8e 09 d1     	stx	$d109                   ; 0xd109 <end_block9+0x8c09>
     7b2: a6 18        	ldx	$18                     ; 0x2018 <exhaustZeroes+0x46>
     7b4: 8e 0a d1     	stx	$d10a                   ; 0xd10a <end_block9+0x8c0a>
     7b7: 8c 0b d1     	sty	$d10b                   ; 0xd10b <end_block9+0x8c0b>
     7ba: a6 12        	ldx	$12                     ; 0x2012 <exhaustZeroes+0x40>
     7bc: 8e 11 d1     	stx	$d111                   ; 0xd111 <end_block9+0x8c11>
     7bf: a6 13        	ldx	$13                     ; 0x2013 <exhaustZeroes+0x41>
     7c1: 8e 12 d1     	stx	$d112                   ; 0xd112 <end_block9+0x8c12>
     7c4: 8d 13 d1     	sta	$d113                   ; 0xd113 <end_block9+0x8c13>
     7c7: 9c 00 d1     	stz	$d100                   ; 0xd100 <end_block9+0x8c00>
     7ca: 9c 08 d1     	stz	$d108                   ; 0xd108 <end_block9+0x8c08>
     7cd: 9c 10 d1     	stz	$d110                   ; 0xd110 <end_block9+0x8c10>
     7d0: a2 10        	ldx	#$10
     7d2: 8e 00 d2     	stx	$d200                   ; 0xd200 <end_block9+0x8d00>
     7d5: 8e 0c d2     	stx	$d20c                   ; 0xd20c <end_block9+0x8d0c>
     7d8: 8e 18 d2     	stx	$d218                   ; 0xd218 <end_block9+0x8d18>
     7db: a0 d9        	ldy	#$d9
     7dd: a2 40        	ldx	#$40
     7df: 64 12        	stz	$12                     ; 0x2012 <exhaustZeroes+0x40>
     7e1: 84 13        	sty	$13                     ; 0x2013 <exhaustZeroes+0x41>
     7e3: a9 00        	lda	#$0
     7e5: 92 12        	sta	($12)                   ; 0x2012 <exhaustZeroes+0x40>
     7e7: ca           	dex
     7e8: 18           	clc
     7e9: a5 12        	lda	$12                     ; 0x2012 <exhaustZeroes+0x40>
     7eb: 69 08        	adc	#$8
     7ed: 85 12        	sta	$12                     ; 0x2012 <exhaustZeroes+0x40>
     7ef: 98           	tya
     7f0: 69 00        	adc	#$0
     7f2: a8           	tay
     7f3: 8a           	txa
     7f4: d0 eb        	bne	$7e1 <f256Init+0x327>
     7f6: 18           	clc
     7f7: a5 10        	lda	$10                     ; 0x2010 <exhaustZeroes+0x3e>
     7f9: 69 01        	adc	#$1
     7fb: 85 12        	sta	$12                     ; 0x2012 <exhaustZeroes+0x40>
     7fd: a5 11        	lda	$11                     ; 0x2011 <exhaustZeroes+0x3f>
     7ff: 69 00        	adc	#$0
     801: 85 13        	sta	$13                     ; 0x2013 <exhaustZeroes+0x41>
     803: a6 12        	ldx	$12                     ; 0x2012 <exhaustZeroes+0x40>
     805: 86 fb        	stx	$fb                     ; 0x20fb <_ZN12_GLOBAL__N_13putEcP6Status+0x51>
     807: 85 fc        	sta	$fc                     ; 0x20fc <_ZN12_GLOBAL__N_13putEcP6Status+0x52>
     809: a2 08        	ldx	#$8
     80b: 86 fd        	stx	$fd                     ; 0x20fd <_ZN12_GLOBAL__N_13putEcP6Status+0x53>
     80d: 18           	clc
     80e: a6 10        	ldx	$10                     ; 0x2010 <exhaustZeroes+0x3e>
     810: 86 14        	stx	$14                     ; 0x2014 <exhaustZeroes+0x42>
     812: a6 11        	ldx	$11                     ; 0x2011 <exhaustZeroes+0x3f>
     814: 86 15        	stx	$15                     ; 0x2015 <exhaustZeroes+0x43>
     816: a2 f8        	ldx	#$f8
     818: 86 16        	stx	$16                     ; 0x2016 <exhaustZeroes+0x44>
     81a: a2 44        	ldx	#$44
     81c: 86 17        	stx	$17                     ; 0x2017 <exhaustZeroes+0x45>
     81e: a0 06        	ldy	#$6
     820: 20 dc ff     	jsr	$ffdc <end_block9+0xbadc>
     823: 92 14        	sta	($14)                   ; 0x2014 <exhaustZeroes+0x42>
     825: a9 00        	lda	#$0
     827: 6a           	ror
     828: 85 16        	sta	$16                     ; 0x2016 <exhaustZeroes+0x44>
     82a: b1 12        	lda	($12),y                 ; 0x2012 <exhaustZeroes+0x40>
     82c: 85 14        	sta	$14                     ; 0x2014 <exhaustZeroes+0x42>
     82e: c8           	iny
     82f: b1 12        	lda	($12),y                 ; 0x2012 <exhaustZeroes+0x40>
     831: a6 14        	ldx	$14                     ; 0x2014 <exhaustZeroes+0x42>
     833: 8e 00 de     	stx	$de00                   ; 0xde00 <end_block9+0x9900>
     836: 9c 01 de     	stz	$de01                   ; 0xde01 <end_block9+0x9901>
     839: 8d 02 de     	sta	$de02                   ; 0xde02 <end_block9+0x9902>
     83c: 9c 03 de     	stz	$de03                   ; 0xde03 <end_block9+0x9903>
     83f: ae 10 de     	ldx	$de10                   ; 0xde10 <end_block9+0x9910>
     842: ac 11 de     	ldy	$de11                   ; 0xde11 <end_block9+0x9911>
     845: ad 12 de     	lda	$de12                   ; 0xde12 <end_block9+0x9912>
     848: ad 13 de     	lda	$de13                   ; 0xde13 <end_block9+0x9913>
     84b: 8e a4 d6     	stx	$d6a4                   ; 0xd6a4 <end_block9+0x91a4>
     84e: 8c a5 d6     	sty	$d6a5                   ; 0xd6a5 <end_block9+0x91a5>
     851: a2 03        	ldx	#$3
     853: 8e a6 d6     	stx	$d6a6                   ; 0xd6a6 <end_block9+0x91a6>
     856: 18           	clc
     857: a5 10        	lda	$10                     ; 0x2010 <exhaustZeroes+0x3e>
     859: 69 09        	adc	#$9
     85b: 85 10        	sta	$10                     ; 0x2010 <exhaustZeroes+0x3e>
     85d: a5 11        	lda	$11                     ; 0x2011 <exhaustZeroes+0x3f>
     85f: 69 00        	adc	#$0
     861: 85 11        	sta	$11                     ; 0x2011 <exhaustZeroes+0x3f>
     863: 60           	rts

00000864 <main>:
     864: 20 ba 04     	jsr	$4ba <f256Init>
     867: 20 6a 08     	jsr	$86a <f256main>

0000086a <f256main>:
     86a: 18           	clc
     86b: a5 10        	lda	$10                     ; 0x2010 <exhaustZeroes+0x3e>
     86d: 69 f1        	adc	#$f1
     86f: 85 10        	sta	$10                     ; 0x2010 <exhaustZeroes+0x3e>
     871: a5 11        	lda	$11                     ; 0x2011 <exhaustZeroes+0x3f>
     873: 69 ff        	adc	#$ff
     875: 85 11        	sta	$11                     ; 0x2011 <exhaustZeroes+0x3f>
     877: a4 0f        	ldy	$f                      ; 0x200f <exhaustZeroes+0x3d>
     879: 78           	sei
     87a: a9 08        	lda	#$8
     87c: 85 0f        	sta	$f                      ; 0x200f <exhaustZeroes+0x3d>
     87e: ae 0a e0     	ldx	$e00a                   ; 0xe00a <end_block9+0x9b0a>
     881: 84 0f        	sty	$f                      ; 0x200f <exhaustZeroes+0x3d>
     883: 58           	cli
     884: a4 0f        	ldy	$f                      ; 0x200f <exhaustZeroes+0x3d>
     886: 78           	sei
     887: 85 0f        	sta	$f                      ; 0x200f <exhaustZeroes+0x3d>
     889: ad 0b e0     	lda	$e00b                   ; 0xe00b <end_block9+0x9b0b>
     88c: 84 0f        	sty	$f                      ; 0x200f <exhaustZeroes+0x3d>
     88e: 58           	cli
     88f: 85 64        	sta	$64                     ; 0x2064 <exhaustZeroes+0x92>
     891: 86 65        	stx	$65                     ; 0x2065 <exhaustZeroes+0x93>
     893: a0 16        	ldy	#$16
     895: 64 13        	stz	$13                     ; 0x2013 <exhaustZeroes+0x41>
     897: 84 12        	sty	$12                     ; 0x2012 <exhaustZeroes+0x40>
     899: 20 0d 42     	jsr	$420d <__mulhi3>
     89c: 20 d1 3e     	jsr	$3ed1 <malloc>
     89f: a6 12        	ldx	$12                     ; 0x2012 <exhaustZeroes+0x40>
     8a1: a4 13        	ldy	$13                     ; 0x2013 <exhaustZeroes+0x41>
     8a3: 86 6f        	stx	$6f                     ; 0x206f <exhaustZeroes+0x9d>
     8a5: 84 70        	sty	$70                     ; 0x2070 <exhaustZeroes+0x9e>
     8a7: 64 68        	stz	$68                     ; 0x2068 <exhaustZeroes+0x96>
     8a9: a2 ff        	ldx	#$ff
     8ab: 86 69        	stx	$69                     ; 0x2069 <exhaustZeroes+0x97>
     8ad: 86 6a        	stx	$6a                     ; 0x206a <exhaustZeroes+0x98>
     8af: 86 6b        	stx	$6b                     ; 0x206b <exhaustZeroes+0x99>
     8b1: 86 6c        	stx	$6c                     ; 0x206c <exhaustZeroes+0x9a>
     8b3: 64 6d        	stz	$6d                     ; 0x206d <exhaustZeroes+0x9b>
     8b5: 64 6e        	stz	$6e                     ; 0x206e <exhaustZeroes+0x9c>
     8b7: a5 64        	lda	$64                     ; 0x2064 <exhaustZeroes+0x92>
     8b9: a6 65        	ldx	$65                     ; 0x2065 <exhaustZeroes+0x93>
     8bb: 92 10        	sta	($10)                   ; 0x2010 <exhaustZeroes+0x3e>
     8bd: a0 01        	ldy	#$1
     8bf: 8a           	txa
     8c0: 91 10        	sta	($10),y                 ; 0x2010 <exhaustZeroes+0x3e>
     8c2: a2 a1        	ldx	#$a1
     8c4: 86 12        	stx	$12                     ; 0x2012 <exhaustZeroes+0x40>
     8c6: a2 44        	ldx	#$44
     8c8: 86 13        	stx	$13                     ; 0x2013 <exhaustZeroes+0x41>
     8ca: 20 f2 22     	jsr	$22f2 <printf>
     8cd: a6 64        	ldx	$64                     ; 0x2064 <exhaustZeroes+0x92>
     8cf: 86 26        	stx	$26                     ; 0x2026 <exhaustZeroes+0x54>
     8d1: a6 65        	ldx	$65                     ; 0x2065 <exhaustZeroes+0x93>
     8d3: 86 27        	stx	$27                     ; 0x2027 <exhaustZeroes+0x55>
     8d5: a5 27        	lda	$27                     ; 0x2027 <exhaustZeroes+0x55>
     8d7: d0 07        	bne	$8e0 <f256main+0x76>
     8d9: a5 26        	lda	$26                     ; 0x2026 <exhaustZeroes+0x54>
     8db: d0 03        	bne	$8e0 <f256main+0x76>
     8dd: 4c 50 09     	jmp	$950 <f256main+0xe6>
     8e0: a6 6f        	ldx	$6f                     ; 0x206f <exhaustZeroes+0x9d>
     8e2: a4 70        	ldy	$70                     ; 0x2070 <exhaustZeroes+0x9e>
     8e4: 86 28        	stx	$28                     ; 0x2028 <exhaustZeroes+0x56>
     8e6: 84 29        	sty	$29                     ; 0x2029 <exhaustZeroes+0x57>
     8e8: a9 00        	lda	#$0
     8ea: aa           	tax
     8eb: 86 2d        	stx	$2d                     ; 0x202d <exhaustZeroes+0x5b>
     8ed: 85 2c        	sta	$2c                     ; 0x202c <exhaustZeroes+0x5a>
     8ef: a6 28        	ldx	$28                     ; 0x2028 <exhaustZeroes+0x56>
     8f1: 86 24        	stx	$24                     ; 0x2024 <exhaustZeroes+0x52>
     8f3: a6 29        	ldx	$29                     ; 0x2029 <exhaustZeroes+0x57>
     8f5: 86 25        	stx	$25                     ; 0x2025 <exhaustZeroes+0x53>
     8f7: a6 26        	ldx	$26                     ; 0x2026 <exhaustZeroes+0x54>
     8f9: 86 2a        	stx	$2a                     ; 0x202a <exhaustZeroes+0x58>
     8fb: a6 27        	ldx	$27                     ; 0x2027 <exhaustZeroes+0x55>
     8fd: 86 2b        	stx	$2b                     ; 0x202b <exhaustZeroes+0x59>
     8ff: a6 24        	ldx	$24                     ; 0x2024 <exhaustZeroes+0x52>
     901: 86 12        	stx	$12                     ; 0x2012 <exhaustZeroes+0x40>
     903: a6 25        	ldx	$25                     ; 0x2025 <exhaustZeroes+0x53>
     905: 86 13        	stx	$13                     ; 0x2013 <exhaustZeroes+0x41>
     907: 64 14        	stz	$14                     ; 0x2014 <exhaustZeroes+0x42>
     909: a9 00        	lda	#$0
     90b: a2 14        	ldx	#$14
     90d: 20 ed 41     	jsr	$41ed <__memset>
     910: a0 14        	ldy	#$14
     912: a9 01        	lda	#$1
     914: 91 24        	sta	($24),y                 ; 0x2024 <exhaustZeroes+0x52>
     916: c8           	iny
     917: 3a           	dec
     918: 91 24        	sta	($24),y                 ; 0x2024 <exhaustZeroes+0x52>
     91a: a5 24        	lda	$24                     ; 0x2024 <exhaustZeroes+0x52>
     91c: 18           	clc
     91d: 69 16        	adc	#$16
     91f: 85 24        	sta	$24                     ; 0x2024 <exhaustZeroes+0x52>
     921: a5 25        	lda	$25                     ; 0x2025 <exhaustZeroes+0x53>
     923: 69 00        	adc	#$0
     925: a2 ff        	ldx	#$ff
     927: c6 2a        	dec	$2a                     ; 0x202a <exhaustZeroes+0x58>
     929: e4 2a        	cpx	$2a                     ; 0x202a <exhaustZeroes+0x58>
     92b: d0 02        	bne	$92f <f256main+0xc5>
     92d: c6 2b        	dec	$2b                     ; 0x202b <exhaustZeroes+0x59>
     92f: 85 25        	sta	$25                     ; 0x2025 <exhaustZeroes+0x53>
     931: a5 2b        	lda	$2b                     ; 0x202b <exhaustZeroes+0x59>
     933: d0 ca        	bne	$8ff <f256main+0x95>
     935: a5 2a        	lda	$2a                     ; 0x202a <exhaustZeroes+0x58>
     937: d0 c6        	bne	$8ff <f256main+0x95>
     939: a6 2d        	ldx	$2d                     ; 0x202d <exhaustZeroes+0x5b>
     93b: a4 2c        	ldy	$2c                     ; 0x202c <exhaustZeroes+0x5a>
     93d: c8           	iny
     93e: d0 01        	bne	$941 <f256main+0xd7>
     940: e8           	inx
     941: 98           	tya
     942: e4 27        	cpx	$27                     ; 0x2027 <exhaustZeroes+0x55>
     944: f0 03        	beq	$949 <f256main+0xdf>
     946: 4c eb 08     	jmp	$8eb <f256main+0x81>
     949: c5 26        	cmp	$26                     ; 0x2026 <exhaustZeroes+0x54>
     94b: f0 03        	beq	$950 <f256main+0xe6>
     94d: 4c eb 08     	jmp	$8eb <f256main+0x81>
     950: a4 0f        	ldy	$f                      ; 0x200f <exhaustZeroes+0x3d>
     952: 78           	sei
     953: a9 08        	lda	#$8
     955: 85 0f        	sta	$f                      ; 0x200f <exhaustZeroes+0x3d>
     957: ae 0c e0     	ldx	$e00c                   ; 0xe00c <end_block9+0x9b0c>
     95a: 84 0f        	sty	$f                      ; 0x200f <exhaustZeroes+0x3d>
     95c: 58           	cli
     95d: a4 0f        	ldy	$f                      ; 0x200f <exhaustZeroes+0x3d>
     95f: 78           	sei
     960: 85 0f        	sta	$f                      ; 0x200f <exhaustZeroes+0x3d>
     962: ad 0d e0     	lda	$e00d                   ; 0xe00d <end_block9+0x9b0d>
     965: 84 0f        	sty	$f                      ; 0x200f <exhaustZeroes+0x3d>
     967: 58           	cli
     968: 85 66        	sta	$66                     ; 0x2066 <exhaustZeroes+0x94>
     96a: 86 67        	stx	$67                     ; 0x2067 <exhaustZeroes+0x95>
     96c: a6 64        	ldx	$64                     ; 0x2064 <exhaustZeroes+0x92>
     96e: a4 65        	ldy	$65                     ; 0x2065 <exhaustZeroes+0x93>
     970: d0 06        	bne	$978 <f256main+0x10e>
     972: 8a           	txa
     973: d0 03        	bne	$978 <f256main+0x10e>
     975: 4c ea 0d     	jmp	$dea <f256main+0x580>
     978: a0 0e        	ldy	#$e
     97a: 64 14        	stz	$14                     ; 0x2014 <exhaustZeroes+0x42>
     97c: a9 08        	lda	#$8
     97e: 85 15        	sta	$15                     ; 0x2015 <exhaustZeroes+0x43>
     980: 64 18        	stz	$18                     ; 0x2018 <exhaustZeroes+0x46>
     982: 64 19        	stz	$19                     ; 0x2019 <exhaustZeroes+0x47>
     984: 64 27        	stz	$27                     ; 0x2027 <exhaustZeroes+0x55>
     986: 64 24        	stz	$24                     ; 0x2024 <exhaustZeroes+0x52>
     988: 64 17        	stz	$17                     ; 0x2017 <exhaustZeroes+0x45>
     98a: 98           	tya
     98b: 18           	clc
     98c: 69 00        	adc	#$0
     98e: a5 18        	lda	$18                     ; 0x2018 <exhaustZeroes+0x46>
     990: 69 00        	adc	#$0
     992: 85 12        	sta	$12                     ; 0x2012 <exhaustZeroes+0x40>
     994: a6 19        	ldx	$19                     ; 0x2019 <exhaustZeroes+0x47>
     996: 86 2a        	stx	$2a                     ; 0x202a <exhaustZeroes+0x58>
     998: a5 19        	lda	$19                     ; 0x2019 <exhaustZeroes+0x47>
     99a: 69 01        	adc	#$1
     99c: a6 0f        	ldx	$f                      ; 0x200f <exhaustZeroes+0x3d>
     99e: 78           	sei
     99f: 06 12        	asl	$12                     ; 0x2012 <exhaustZeroes+0x40>
     9a1: 2a           	rol
     9a2: 06 12        	asl	$12                     ; 0x2012 <exhaustZeroes+0x40>
     9a4: 2a           	rol
     9a5: 06 12        	asl	$12                     ; 0x2012 <exhaustZeroes+0x40>
     9a7: 2a           	rol
     9a8: 85 0f        	sta	$f                      ; 0x200f <exhaustZeroes+0x3d>
     9aa: a5 18        	lda	$18                     ; 0x2018 <exhaustZeroes+0x46>
     9ac: 09 e0        	ora	#$e0
     9ae: 84 12        	sty	$12                     ; 0x2012 <exhaustZeroes+0x40>
     9b0: 85 13        	sta	$13                     ; 0x2013 <exhaustZeroes+0x41>
     9b2: b2 12        	lda	($12)                   ; 0x2012 <exhaustZeroes+0x40>
     9b4: 86 0f        	stx	$f                      ; 0x200f <exhaustZeroes+0x3d>
     9b6: 58           	cli
     9b7: 98           	tya
     9b8: 18           	clc
     9b9: 69 01        	adc	#$1
     9bb: 85 13        	sta	$13                     ; 0x2013 <exhaustZeroes+0x41>
     9bd: a5 18        	lda	$18                     ; 0x2018 <exhaustZeroes+0x46>
     9bf: 69 00        	adc	#$0
     9c1: 85 19        	sta	$19                     ; 0x2019 <exhaustZeroes+0x47>
     9c3: a5 2a        	lda	$2a                     ; 0x202a <exhaustZeroes+0x58>
     9c5: 69 01        	adc	#$1
     9c7: a6 0f        	ldx	$f                      ; 0x200f <exhaustZeroes+0x3d>
     9c9: 78           	sei
     9ca: 5a           	phy
     9cb: a4 19        	ldy	$19                     ; 0x2019 <exhaustZeroes+0x47>
     9cd: 84 12        	sty	$12                     ; 0x2012 <exhaustZeroes+0x40>
     9cf: 06 12        	asl	$12                     ; 0x2012 <exhaustZeroes+0x40>
     9d1: 2a           	rol
     9d2: 06 12        	asl	$12                     ; 0x2012 <exhaustZeroes+0x40>
     9d4: 2a           	rol
     9d5: 06 12        	asl	$12                     ; 0x2012 <exhaustZeroes+0x40>
     9d7: 2a           	rol
     9d8: 85 0f        	sta	$f                      ; 0x200f <exhaustZeroes+0x3d>
     9da: a5 19        	lda	$19                     ; 0x2019 <exhaustZeroes+0x47>
     9dc: 09 e0        	ora	#$e0
     9de: a4 13        	ldy	$13                     ; 0x2013 <exhaustZeroes+0x41>
     9e0: 84 12        	sty	$12                     ; 0x2012 <exhaustZeroes+0x40>
     9e2: 7a           	ply
     9e3: 85 13        	sta	$13                     ; 0x2013 <exhaustZeroes+0x41>
     9e5: b2 12        	lda	($12)                   ; 0x2012 <exhaustZeroes+0x40>
     9e7: 86 0f        	stx	$f                      ; 0x200f <exhaustZeroes+0x3d>
     9e9: 58           	cli
     9ea: 98           	tya
     9eb: 18           	clc
     9ec: 69 02        	adc	#$2
     9ee: 85 13        	sta	$13                     ; 0x2013 <exhaustZeroes+0x41>
     9f0: a5 18        	lda	$18                     ; 0x2018 <exhaustZeroes+0x46>
     9f2: 69 00        	adc	#$0
     9f4: 85 19        	sta	$19                     ; 0x2019 <exhaustZeroes+0x47>
     9f6: a5 2a        	lda	$2a                     ; 0x202a <exhaustZeroes+0x58>
     9f8: 69 01        	adc	#$1
     9fa: a6 0f        	ldx	$f                      ; 0x200f <exhaustZeroes+0x3d>
     9fc: 78           	sei
     9fd: 5a           	phy
     9fe: a4 19        	ldy	$19                     ; 0x2019 <exhaustZeroes+0x47>
     a00: 84 12        	sty	$12                     ; 0x2012 <exhaustZeroes+0x40>
     a02: 06 12        	asl	$12                     ; 0x2012 <exhaustZeroes+0x40>
     a04: 2a           	rol
     a05: 06 12        	asl	$12                     ; 0x2012 <exhaustZeroes+0x40>
     a07: 2a           	rol
     a08: 06 12        	asl	$12                     ; 0x2012 <exhaustZeroes+0x40>
     a0a: 2a           	rol
     a0b: 85 0f        	sta	$f                      ; 0x200f <exhaustZeroes+0x3d>
     a0d: a5 19        	lda	$19                     ; 0x2019 <exhaustZeroes+0x47>
     a0f: 09 e0        	ora	#$e0
     a11: a4 13        	ldy	$13                     ; 0x2013 <exhaustZeroes+0x41>
     a13: 84 12        	sty	$12                     ; 0x2012 <exhaustZeroes+0x40>
     a15: 7a           	ply
     a16: 85 13        	sta	$13                     ; 0x2013 <exhaustZeroes+0x41>
     a18: b2 12        	lda	($12)                   ; 0x2012 <exhaustZeroes+0x40>
     a1a: 86 0f        	stx	$f                      ; 0x200f <exhaustZeroes+0x3d>
     a1c: 58           	cli
     a1d: 98           	tya
     a1e: 18           	clc
     a1f: 69 03        	adc	#$3
     a21: 85 13        	sta	$13                     ; 0x2013 <exhaustZeroes+0x41>
     a23: a5 18        	lda	$18                     ; 0x2018 <exhaustZeroes+0x46>
     a25: 69 00        	adc	#$0
     a27: 85 19        	sta	$19                     ; 0x2019 <exhaustZeroes+0x47>
     a29: a5 2a        	lda	$2a                     ; 0x202a <exhaustZeroes+0x58>
     a2b: 69 01        	adc	#$1
     a2d: a6 0f        	ldx	$f                      ; 0x200f <exhaustZeroes+0x3d>
     a2f: 78           	sei
     a30: 5a           	phy
     a31: a4 19        	ldy	$19                     ; 0x2019 <exhaustZeroes+0x47>
     a33: 84 12        	sty	$12                     ; 0x2012 <exhaustZeroes+0x40>
     a35: 06 12        	asl	$12                     ; 0x2012 <exhaustZeroes+0x40>
     a37: 2a           	rol
     a38: 06 12        	asl	$12                     ; 0x2012 <exhaustZeroes+0x40>
     a3a: 2a           	rol
     a3b: 06 12        	asl	$12                     ; 0x2012 <exhaustZeroes+0x40>
     a3d: 2a           	rol
     a3e: 85 0f        	sta	$f                      ; 0x200f <exhaustZeroes+0x3d>
     a40: a5 19        	lda	$19                     ; 0x2019 <exhaustZeroes+0x47>
     a42: 09 e0        	ora	#$e0
     a44: a4 13        	ldy	$13                     ; 0x2013 <exhaustZeroes+0x41>
     a46: 84 12        	sty	$12                     ; 0x2012 <exhaustZeroes+0x40>
     a48: 7a           	ply
     a49: 85 13        	sta	$13                     ; 0x2013 <exhaustZeroes+0x41>
     a4b: b2 12        	lda	($12)                   ; 0x2012 <exhaustZeroes+0x40>
     a4d: 86 0f        	stx	$f                      ; 0x200f <exhaustZeroes+0x3d>
     a4f: 58           	cli
     a50: 98           	tya
     a51: 18           	clc
     a52: 69 04        	adc	#$4
     a54: 85 13        	sta	$13                     ; 0x2013 <exhaustZeroes+0x41>
     a56: a5 18        	lda	$18                     ; 0x2018 <exhaustZeroes+0x46>
     a58: 69 00        	adc	#$0
     a5a: 85 19        	sta	$19                     ; 0x2019 <exhaustZeroes+0x47>
     a5c: a5 2a        	lda	$2a                     ; 0x202a <exhaustZeroes+0x58>
     a5e: 69 01        	adc	#$1
     a60: a6 0f        	ldx	$f                      ; 0x200f <exhaustZeroes+0x3d>
     a62: 78           	sei
     a63: 5a           	phy
     a64: a4 19        	ldy	$19                     ; 0x2019 <exhaustZeroes+0x47>
     a66: 84 12        	sty	$12                     ; 0x2012 <exhaustZeroes+0x40>
     a68: 06 12        	asl	$12                     ; 0x2012 <exhaustZeroes+0x40>
     a6a: 2a           	rol
     a6b: 06 12        	asl	$12                     ; 0x2012 <exhaustZeroes+0x40>
     a6d: 2a           	rol
     a6e: 06 12        	asl	$12                     ; 0x2012 <exhaustZeroes+0x40>
     a70: 2a           	rol
     a71: 85 0f        	sta	$f                      ; 0x200f <exhaustZeroes+0x3d>
     a73: a5 19        	lda	$19                     ; 0x2019 <exhaustZeroes+0x47>
     a75: 09 e0        	ora	#$e0
     a77: a4 13        	ldy	$13                     ; 0x2013 <exhaustZeroes+0x41>
     a79: 84 12        	sty	$12                     ; 0x2012 <exhaustZeroes+0x40>
     a7b: 7a           	ply
     a7c: 85 13        	sta	$13                     ; 0x2013 <exhaustZeroes+0x41>
     a7e: b2 12        	lda	($12)                   ; 0x2012 <exhaustZeroes+0x40>
     a80: 5a           	phy
     a81: a0 0e        	ldy	#$e
     a83: 91 10        	sta	($10),y                 ; 0x2010 <exhaustZeroes+0x3e>
     a85: 7a           	ply
     a86: 86 0f        	stx	$f                      ; 0x200f <exhaustZeroes+0x3d>
     a88: 58           	cli
     a89: 98           	tya
     a8a: 18           	clc
     a8b: 69 05        	adc	#$5
     a8d: 85 13        	sta	$13                     ; 0x2013 <exhaustZeroes+0x41>
     a8f: a5 18        	lda	$18                     ; 0x2018 <exhaustZeroes+0x46>
     a91: 69 00        	adc	#$0
     a93: 85 19        	sta	$19                     ; 0x2019 <exhaustZeroes+0x47>
     a95: a5 2a        	lda	$2a                     ; 0x202a <exhaustZeroes+0x58>
     a97: 69 01        	adc	#$1
     a99: a6 0f        	ldx	$f                      ; 0x200f <exhaustZeroes+0x3d>
     a9b: 78           	sei
     a9c: 5a           	phy
     a9d: a4 19        	ldy	$19                     ; 0x2019 <exhaustZeroes+0x47>
     a9f: 84 12        	sty	$12                     ; 0x2012 <exhaustZeroes+0x40>
     aa1: 06 12        	asl	$12                     ; 0x2012 <exhaustZeroes+0x40>
     aa3: 2a           	rol
     aa4: 06 12        	asl	$12                     ; 0x2012 <exhaustZeroes+0x40>
     aa6: 2a           	rol
     aa7: 06 12        	asl	$12                     ; 0x2012 <exhaustZeroes+0x40>
     aa9: 2a           	rol
     aaa: 85 0f        	sta	$f                      ; 0x200f <exhaustZeroes+0x3d>
     aac: a5 19        	lda	$19                     ; 0x2019 <exhaustZeroes+0x47>
     aae: 09 e0        	ora	#$e0
     ab0: a4 13        	ldy	$13                     ; 0x2013 <exhaustZeroes+0x41>
     ab2: 84 12        	sty	$12                     ; 0x2012 <exhaustZeroes+0x40>
     ab4: 7a           	ply
     ab5: 85 13        	sta	$13                     ; 0x2013 <exhaustZeroes+0x41>
     ab7: b2 12        	lda	($12)                   ; 0x2012 <exhaustZeroes+0x40>
     ab9: 5a           	phy
     aba: a0 0d        	ldy	#$d
     abc: 91 10        	sta	($10),y                 ; 0x2010 <exhaustZeroes+0x3e>
     abe: 7a           	ply
     abf: 86 0f        	stx	$f                      ; 0x200f <exhaustZeroes+0x3d>
     ac1: 58           	cli
     ac2: 98           	tya
     ac3: 18           	clc
     ac4: 69 06        	adc	#$6
     ac6: 85 13        	sta	$13                     ; 0x2013 <exhaustZeroes+0x41>
     ac8: a5 18        	lda	$18                     ; 0x2018 <exhaustZeroes+0x46>
     aca: 69 00        	adc	#$0
     acc: 85 19        	sta	$19                     ; 0x2019 <exhaustZeroes+0x47>
     ace: a5 2a        	lda	$2a                     ; 0x202a <exhaustZeroes+0x58>
     ad0: 69 01        	adc	#$1
     ad2: 5a           	phy
     ad3: a6 19        	ldx	$19                     ; 0x2019 <exhaustZeroes+0x47>
     ad5: 86 12        	stx	$12                     ; 0x2012 <exhaustZeroes+0x40>
     ad7: 06 12        	asl	$12                     ; 0x2012 <exhaustZeroes+0x40>
     ad9: 2a           	rol
     ada: 06 12        	asl	$12                     ; 0x2012 <exhaustZeroes+0x40>
     adc: 2a           	rol
     add: 06 12        	asl	$12                     ; 0x2012 <exhaustZeroes+0x40>
     adf: 2a           	rol
     ae0: a6 0f        	ldx	$f                      ; 0x200f <exhaustZeroes+0x3d>
     ae2: 78           	sei
     ae3: 85 0f        	sta	$f                      ; 0x200f <exhaustZeroes+0x3d>
     ae5: a5 19        	lda	$19                     ; 0x2019 <exhaustZeroes+0x47>
     ae7: 09 e0        	ora	#$e0
     ae9: a4 13        	ldy	$13                     ; 0x2013 <exhaustZeroes+0x41>
     aeb: 84 12        	sty	$12                     ; 0x2012 <exhaustZeroes+0x40>
     aed: 7a           	ply
     aee: 85 13        	sta	$13                     ; 0x2013 <exhaustZeroes+0x41>
     af0: b2 12        	lda	($12)                   ; 0x2012 <exhaustZeroes+0x40>
     af2: 5a           	phy
     af3: a0 0c        	ldy	#$c
     af5: 91 10        	sta	($10),y                 ; 0x2010 <exhaustZeroes+0x3e>
     af7: 7a           	ply
     af8: 86 0f        	stx	$f                      ; 0x200f <exhaustZeroes+0x3d>
     afa: 98           	tya
     afb: 18           	clc
     afc: 69 07        	adc	#$7
     afe: 85 13        	sta	$13                     ; 0x2013 <exhaustZeroes+0x41>
     b00: a5 18        	lda	$18                     ; 0x2018 <exhaustZeroes+0x46>
     b02: 69 00        	adc	#$0
     b04: 85 19        	sta	$19                     ; 0x2019 <exhaustZeroes+0x47>
     b06: a5 2a        	lda	$2a                     ; 0x202a <exhaustZeroes+0x58>
     b08: 69 01        	adc	#$1
     b0a: 5a           	phy
     b0b: a6 19        	ldx	$19                     ; 0x2019 <exhaustZeroes+0x47>
     b0d: 86 12        	stx	$12                     ; 0x2012 <exhaustZeroes+0x40>
     b0f: 06 12        	asl	$12                     ; 0x2012 <exhaustZeroes+0x40>
     b11: 2a           	rol
     b12: 06 12        	asl	$12                     ; 0x2012 <exhaustZeroes+0x40>
     b14: 2a           	rol
     b15: 06 12        	asl	$12                     ; 0x2012 <exhaustZeroes+0x40>
     b17: 2a           	rol
     b18: 58           	cli
     b19: a6 0f        	ldx	$f                      ; 0x200f <exhaustZeroes+0x3d>
     b1b: 78           	sei
     b1c: 85 0f        	sta	$f                      ; 0x200f <exhaustZeroes+0x3d>
     b1e: a5 19        	lda	$19                     ; 0x2019 <exhaustZeroes+0x47>
     b20: 09 e0        	ora	#$e0
     b22: a4 13        	ldy	$13                     ; 0x2013 <exhaustZeroes+0x41>
     b24: 84 12        	sty	$12                     ; 0x2012 <exhaustZeroes+0x40>
     b26: 7a           	ply
     b27: 85 13        	sta	$13                     ; 0x2013 <exhaustZeroes+0x41>
     b29: b2 12        	lda	($12)                   ; 0x2012 <exhaustZeroes+0x40>
     b2b: 85 2b        	sta	$2b                     ; 0x202b <exhaustZeroes+0x59>
     b2d: 86 0f        	stx	$f                      ; 0x200f <exhaustZeroes+0x3d>
     b2f: 58           	cli
     b30: a6 15        	ldx	$15                     ; 0x2015 <exhaustZeroes+0x43>
     b32: 86 2f        	stx	$2f                     ; 0x202f <exhaustZeroes+0x5d>
     b34: a5 15        	lda	$15                     ; 0x2015 <exhaustZeroes+0x43>
     b36: 18           	clc
     b37: 65 6f        	adc	$6f                     ; 0x206f <exhaustZeroes+0x9d>
     b39: aa           	tax
     b3a: a5 14        	lda	$14                     ; 0x2014 <exhaustZeroes+0x42>
     b3c: 85 2e        	sta	$2e                     ; 0x202e <exhaustZeroes+0x5c>
     b3e: a5 14        	lda	$14                     ; 0x2014 <exhaustZeroes+0x42>
     b40: 65 70        	adc	$70                     ; 0x2070 <exhaustZeroes+0x9e>
     b42: 85 13        	sta	$13                     ; 0x2013 <exhaustZeroes+0x41>
     b44: 18           	clc
     b45: 8a           	txa
     b46: 69 f8        	adc	#$f8
     b48: 85 12        	sta	$12                     ; 0x2012 <exhaustZeroes+0x40>
     b4a: a5 13        	lda	$13                     ; 0x2013 <exhaustZeroes+0x41>
     b4c: 69 ff        	adc	#$ff
     b4e: 85 13        	sta	$13                     ; 0x2013 <exhaustZeroes+0x41>
     b50: 18           	clc
     b51: 98           	tya
     b52: 69 08        	adc	#$8
     b54: 85 28        	sta	$28                     ; 0x2028 <exhaustZeroes+0x56>
     b56: a5 18        	lda	$18                     ; 0x2018 <exhaustZeroes+0x46>
     b58: 69 00        	adc	#$0
     b5a: a2 01        	ldx	#$1
     b5c: b0 02        	bcs	$b60 <f256main+0x2f6>
     b5e: a2 00        	ldx	#$0
     b60: 86 26        	stx	$26                     ; 0x2026 <exhaustZeroes+0x54>
     b62: 85 29        	sta	$29                     ; 0x2029 <exhaustZeroes+0x57>
     b64: a5 2a        	lda	$2a                     ; 0x202a <exhaustZeroes+0x58>
     b66: 69 00        	adc	#$0
     b68: aa           	tax
     b69: a5 27        	lda	$27                     ; 0x2027 <exhaustZeroes+0x55>
     b6b: 69 00        	adc	#$0
     b6d: 85 18        	sta	$18                     ; 0x2018 <exhaustZeroes+0x46>
     b6f: a5 2b        	lda	$2b                     ; 0x202b <exhaustZeroes+0x59>
     b71: 92 12        	sta	($12)                   ; 0x2012 <exhaustZeroes+0x40>
     b73: a0 01        	ldy	#$1
     b75: 5a           	phy
     b76: a0 0c        	ldy	#$c
     b78: b1 10        	lda	($10),y                 ; 0x2010 <exhaustZeroes+0x3e>
     b7a: 7a           	ply
     b7b: 91 12        	sta	($12),y                 ; 0x2012 <exhaustZeroes+0x40>
     b7d: a0 02        	ldy	#$2
     b7f: 5a           	phy
     b80: a0 0d        	ldy	#$d
     b82: b1 10        	lda	($10),y                 ; 0x2010 <exhaustZeroes+0x3e>
     b84: 7a           	ply
     b85: 91 12        	sta	($12),y                 ; 0x2012 <exhaustZeroes+0x40>
     b87: a0 03        	ldy	#$3
     b89: 5a           	phy
     b8a: a0 0e        	ldy	#$e
     b8c: b1 10        	lda	($10),y                 ; 0x2010 <exhaustZeroes+0x3e>
     b8e: 7a           	ply
     b8f: 91 12        	sta	($12),y                 ; 0x2012 <exhaustZeroes+0x40>
     b91: a5 29        	lda	$29                     ; 0x2029 <exhaustZeroes+0x57>
     b93: a0 0a        	ldy	#$a
     b95: 91 10        	sta	($10),y                 ; 0x2010 <exhaustZeroes+0x3e>
     b97: 8a           	txa
     b98: 86 2d        	stx	$2d                     ; 0x202d <exhaustZeroes+0x5b>
     b9a: 48           	pha
     b9b: a5 18        	lda	$18                     ; 0x2018 <exhaustZeroes+0x46>
     b9d: c8           	iny
     b9e: 91 10        	sta	($10),y                 ; 0x2010 <exhaustZeroes+0x3e>
     ba0: 68           	pla
     ba1: a0 04        	ldy	#$4
     ba3: 91 10        	sta	($10),y                 ; 0x2010 <exhaustZeroes+0x3e>
     ba5: c8           	iny
     ba6: a5 18        	lda	$18                     ; 0x2018 <exhaustZeroes+0x46>
     ba8: 91 10        	sta	($10),y                 ; 0x2010 <exhaustZeroes+0x3e>
     baa: a5 24        	lda	$24                     ; 0x2024 <exhaustZeroes+0x52>
     bac: 92 10        	sta	($10)                   ; 0x2010 <exhaustZeroes+0x3e>
     bae: a5 17        	lda	$17                     ; 0x2017 <exhaustZeroes+0x45>
     bb0: a0 01        	ldy	#$1
     bb2: 91 10        	sta	($10),y                 ; 0x2010 <exhaustZeroes+0x3e>
     bb4: 85 2c        	sta	$2c                     ; 0x202c <exhaustZeroes+0x5a>
     bb6: a5 28        	lda	$28                     ; 0x2028 <exhaustZeroes+0x56>
     bb8: c8           	iny
     bb9: 91 10        	sta	($10),y                 ; 0x2010 <exhaustZeroes+0x3e>
     bbb: a5 29        	lda	$29                     ; 0x2029 <exhaustZeroes+0x57>
     bbd: c8           	iny
     bbe: 91 10        	sta	($10),y                 ; 0x2010 <exhaustZeroes+0x3e>
     bc0: a0 06        	ldy	#$6
     bc2: a5 2b        	lda	$2b                     ; 0x202b <exhaustZeroes+0x59>
     bc4: 91 10        	sta	($10),y                 ; 0x2010 <exhaustZeroes+0x3e>
     bc6: c8           	iny
     bc7: 5a           	phy
     bc8: a0 0c        	ldy	#$c
     bca: b1 10        	lda	($10),y                 ; 0x2010 <exhaustZeroes+0x3e>
     bcc: 7a           	ply
     bcd: 91 10        	sta	($10),y                 ; 0x2010 <exhaustZeroes+0x3e>
     bcf: a0 08        	ldy	#$8
     bd1: 5a           	phy
     bd2: a0 0d        	ldy	#$d
     bd4: b1 10        	lda	($10),y                 ; 0x2010 <exhaustZeroes+0x3e>
     bd6: 7a           	ply
     bd7: 91 10        	sta	($10),y                 ; 0x2010 <exhaustZeroes+0x3e>
     bd9: a0 09        	ldy	#$9
     bdb: 5a           	phy
     bdc: a0 0e        	ldy	#$e
     bde: b1 10        	lda	($10),y                 ; 0x2010 <exhaustZeroes+0x3e>
     be0: 7a           	ply
     be1: 91 10        	sta	($10),y                 ; 0x2010 <exhaustZeroes+0x3e>
     be3: a2 af        	ldx	#$af
     be5: 86 12        	stx	$12                     ; 0x2012 <exhaustZeroes+0x40>
     be7: a2 44        	ldx	#$44
     be9: 86 13        	stx	$13                     ; 0x2013 <exhaustZeroes+0x41>
     beb: 20 f2 22     	jsr	$22f2 <printf>
     bee: a5 2a        	lda	$2a                     ; 0x202a <exhaustZeroes+0x58>
     bf0: a6 26        	ldx	$26                     ; 0x2026 <exhaustZeroes+0x54>
     bf2: e0 01        	cpx	#$1
     bf4: 69 01        	adc	#$1
     bf6: 85 14        	sta	$14                     ; 0x2014 <exhaustZeroes+0x42>
     bf8: a5 27        	lda	$27                     ; 0x2027 <exhaustZeroes+0x55>
     bfa: 69 00        	adc	#$0
     bfc: 85 15        	sta	$15                     ; 0x2015 <exhaustZeroes+0x43>
     bfe: a6 6f        	ldx	$6f                     ; 0x206f <exhaustZeroes+0x9d>
     c00: a4 70        	ldy	$70                     ; 0x2070 <exhaustZeroes+0x9e>
     c02: 84 1b        	sty	$1b                     ; 0x201b <exhaustZeroes+0x49>
     c04: a5 2f        	lda	$2f                     ; 0x202f <exhaustZeroes+0x5d>
     c06: 18           	clc
     c07: 65 6f        	adc	$6f                     ; 0x206f <exhaustZeroes+0x9d>
     c09: 85 12        	sta	$12                     ; 0x2012 <exhaustZeroes+0x40>
     c0b: a5 2e        	lda	$2e                     ; 0x202e <exhaustZeroes+0x5c>
     c0d: 65 70        	adc	$70                     ; 0x2070 <exhaustZeroes+0x9e>
     c0f: 85 13        	sta	$13                     ; 0x2013 <exhaustZeroes+0x41>
     c11: a5 28        	lda	$28                     ; 0x2028 <exhaustZeroes+0x56>
     c13: 92 12        	sta	($12)                   ; 0x2012 <exhaustZeroes+0x40>
     c15: a5 29        	lda	$29                     ; 0x2029 <exhaustZeroes+0x57>
     c17: a0 01        	ldy	#$1
     c19: 91 12        	sta	($12),y                 ; 0x2012 <exhaustZeroes+0x40>
     c1b: a5 14        	lda	$14                     ; 0x2014 <exhaustZeroes+0x42>
     c1d: c8           	iny
     c1e: 91 12        	sta	($12),y                 ; 0x2012 <exhaustZeroes+0x40>
     c20: a5 15        	lda	$15                     ; 0x2015 <exhaustZeroes+0x43>
     c22: c8           	iny
     c23: 91 12        	sta	($12),y                 ; 0x2012 <exhaustZeroes+0x40>
     c25: a5 2b        	lda	$2b                     ; 0x202b <exhaustZeroes+0x59>
     c27: 48           	pha
     c28: a0 0c        	ldy	#$c
     c2a: b1 10        	lda	($10),y                 ; 0x2010 <exhaustZeroes+0x3e>
     c2c: 85 16        	sta	$16                     ; 0x2016 <exhaustZeroes+0x44>
     c2e: 68           	pla
     c2f: 18           	clc
     c30: 65 28        	adc	$28                     ; 0x2028 <exhaustZeroes+0x56>
     c32: a8           	tay
     c33: 84 21        	sty	$21                     ; 0x2021 <exhaustZeroes+0x4f>
     c35: a0 0a        	ldy	#$a
     c37: b1 10        	lda	($10),y                 ; 0x2010 <exhaustZeroes+0x3e>
     c39: 85 12        	sta	$12                     ; 0x2012 <exhaustZeroes+0x40>
     c3b: a5 16        	lda	$16                     ; 0x2016 <exhaustZeroes+0x44>
     c3d: 65 12        	adc	$12                     ; 0x2012 <exhaustZeroes+0x40>
     c3f: 85 18        	sta	$18                     ; 0x2018 <exhaustZeroes+0x46>
     c41: a0 0d        	ldy	#$d
     c43: b1 10        	lda	($10),y                 ; 0x2010 <exhaustZeroes+0x3e>
     c45: 65 2d        	adc	$2d                     ; 0x202d <exhaustZeroes+0x5b>
     c47: 85 19        	sta	$19                     ; 0x2019 <exhaustZeroes+0x47>
     c49: c8           	iny
     c4a: b1 10        	lda	($10),y                 ; 0x2010 <exhaustZeroes+0x3e>
     c4c: 48           	pha
     c4d: a0 0b        	ldy	#$b
     c4f: b1 10        	lda	($10),y                 ; 0x2010 <exhaustZeroes+0x3e>
     c51: a4 21        	ldy	$21                     ; 0x2021 <exhaustZeroes+0x4f>
     c53: 85 12        	sta	$12                     ; 0x2012 <exhaustZeroes+0x40>
     c55: 68           	pla
     c56: 65 12        	adc	$12                     ; 0x2012 <exhaustZeroes+0x40>
     c58: 85 27        	sta	$27                     ; 0x2027 <exhaustZeroes+0x55>
     c5a: e6 24        	inc	$24                     ; 0x2024 <exhaustZeroes+0x52>
     c5c: d0 02        	bne	$c60 <f256main+0x3f6>
     c5e: e6 2c        	inc	$2c                     ; 0x202c <exhaustZeroes+0x5a>
     c60: a5 64        	lda	$64                     ; 0x2064 <exhaustZeroes+0x92>
     c62: 85 12        	sta	$12                     ; 0x2012 <exhaustZeroes+0x40>
     c64: a5 65        	lda	$65                     ; 0x2065 <exhaustZeroes+0x93>
     c66: 85 13        	sta	$13                     ; 0x2013 <exhaustZeroes+0x41>
     c68: 18           	clc
     c69: a5 2f        	lda	$2f                     ; 0x202f <exhaustZeroes+0x5d>
     c6b: 69 16        	adc	#$16
     c6d: 85 15        	sta	$15                     ; 0x2015 <exhaustZeroes+0x43>
     c6f: a5 2e        	lda	$2e                     ; 0x202e <exhaustZeroes+0x5c>
     c71: 69 00        	adc	#$0
     c73: 85 14        	sta	$14                     ; 0x2014 <exhaustZeroes+0x42>
     c75: a5 2c        	lda	$2c                     ; 0x202c <exhaustZeroes+0x5a>
     c77: c5 13        	cmp	$13                     ; 0x2013 <exhaustZeroes+0x41>
     c79: d0 0b        	bne	$c86 <f256main+0x41c>
     c7b: 85 17        	sta	$17                     ; 0x2017 <exhaustZeroes+0x45>
     c7d: a5 24        	lda	$24                     ; 0x2024 <exhaustZeroes+0x52>
     c7f: c5 12        	cmp	$12                     ; 0x2012 <exhaustZeroes+0x40>
     c81: b0 0c        	bcs	$c8f <f256main+0x425>
     c83: 4c 8a 09     	jmp	$98a <f256main+0x120>
     c86: c5 13        	cmp	$13                     ; 0x2013 <exhaustZeroes+0x41>
     c88: 85 17        	sta	$17                     ; 0x2017 <exhaustZeroes+0x45>
     c8a: b0 03        	bcs	$c8f <f256main+0x425>
     c8c: 4c 8a 09     	jmp	$98a <f256main+0x120>
     c8f: a5 13        	lda	$13                     ; 0x2013 <exhaustZeroes+0x41>
     c91: d0 07        	bne	$c9a <f256main+0x430>
     c93: a5 12        	lda	$12                     ; 0x2012 <exhaustZeroes+0x40>
     c95: d0 03        	bne	$c9a <f256main+0x430>
     c97: 4c ea 0d     	jmp	$dea <f256main+0x580>
     c9a: 86 14        	stx	$14                     ; 0x2014 <exhaustZeroes+0x42>
     c9c: a6 1b        	ldx	$1b                     ; 0x201b <exhaustZeroes+0x49>
     c9e: 86 15        	stx	$15                     ; 0x2015 <exhaustZeroes+0x43>
     ca0: 64 16        	stz	$16                     ; 0x2016 <exhaustZeroes+0x44>
     ca2: 64 25        	stz	$25                     ; 0x2025 <exhaustZeroes+0x53>
     ca4: a0 00        	ldy	#$0
     ca6: a2 00        	ldx	#$0
     ca8: 86 27        	stx	$27                     ; 0x2027 <exhaustZeroes+0x55>
     caa: 84 26        	sty	$26                     ; 0x2026 <exhaustZeroes+0x54>
     cac: a5 16        	lda	$16                     ; 0x2016 <exhaustZeroes+0x44>
     cae: 18           	clc
     caf: 65 14        	adc	$14                     ; 0x2014 <exhaustZeroes+0x42>
     cb1: a8           	tay
     cb2: a6 16        	ldx	$16                     ; 0x2016 <exhaustZeroes+0x44>
     cb4: a5 25        	lda	$25                     ; 0x2025 <exhaustZeroes+0x53>
     cb6: 65 15        	adc	$15                     ; 0x2015 <exhaustZeroes+0x43>
     cb8: 84 16        	sty	$16                     ; 0x2016 <exhaustZeroes+0x44>
     cba: 85 17        	sta	$17                     ; 0x2017 <exhaustZeroes+0x45>
     cbc: a0 15        	ldy	#$15
     cbe: b1 16        	lda	($16),y                 ; 0x2016 <exhaustZeroes+0x44>
     cc0: f0 04        	beq	$cc6 <f256main+0x45c>
     cc2: 8a           	txa
     cc3: 4c 49 0d     	jmp	$d49 <f256main+0x4df>
     cc6: 86 24        	stx	$24                     ; 0x2024 <exhaustZeroes+0x52>
     cc8: 8a           	txa
     cc9: 18           	clc
     cca: 65 14        	adc	$14                     ; 0x2014 <exhaustZeroes+0x42>
     ccc: aa           	tax
     ccd: a5 25        	lda	$25                     ; 0x2025 <exhaustZeroes+0x53>
     ccf: 65 15        	adc	$15                     ; 0x2015 <exhaustZeroes+0x43>
     cd1: a8           	tay
     cd2: 18           	clc
     cd3: 8a           	txa
     cd4: 69 04        	adc	#$4
     cd6: 85 18        	sta	$18                     ; 0x2018 <exhaustZeroes+0x46>
     cd8: 98           	tya
     cd9: 84 1b        	sty	$1b                     ; 0x201b <exhaustZeroes+0x49>
     cdb: 69 00        	adc	#$0
     cdd: 85 19        	sta	$19                     ; 0x2019 <exhaustZeroes+0x47>
     cdf: a0 03        	ldy	#$3
     ce1: b1 18        	lda	($18),y                 ; 0x2018 <exhaustZeroes+0x46>
     ce3: d1 16        	cmp	($16),y                 ; 0x2016 <exhaustZeroes+0x44>
     ce5: d0 26        	bne	$d0d <f256main+0x4a3>
     ce7: a0 02        	ldy	#$2
     ce9: b1 18        	lda	($18),y                 ; 0x2018 <exhaustZeroes+0x46>
     ceb: 85 1c        	sta	$1c                     ; 0x201c <exhaustZeroes+0x4a>
     ced: b1 16        	lda	($16),y                 ; 0x2016 <exhaustZeroes+0x44>
     cef: 85 1a        	sta	$1a                     ; 0x201a <exhaustZeroes+0x48>
     cf1: a4 1c        	ldy	$1c                     ; 0x201c <exhaustZeroes+0x4a>
     cf3: c4 1a        	cpy	$1a                     ; 0x201a <exhaustZeroes+0x48>
     cf5: d0 1a        	bne	$d11 <f256main+0x4a7>
     cf7: a0 01        	ldy	#$1
     cf9: b1 18        	lda	($18),y                 ; 0x2018 <exhaustZeroes+0x46>
     cfb: 85 19        	sta	$19                     ; 0x2019 <exhaustZeroes+0x47>
     cfd: b1 16        	lda	($16),y                 ; 0x2016 <exhaustZeroes+0x44>
     cff: 85 18        	sta	$18                     ; 0x2018 <exhaustZeroes+0x46>
     d01: a4 19        	ldy	$19                     ; 0x2019 <exhaustZeroes+0x47>
     d03: c4 18        	cpy	$18                     ; 0x2018 <exhaustZeroes+0x46>
     d05: f0 03        	beq	$d0a <f256main+0x4a0>
     d07: 4c 2b 10     	jmp	$102b <f256main+0x7c1>
     d0a: 4c 14 10     	jmp	$1014 <f256main+0x7aa>
     d0d: d1 16        	cmp	($16),y                 ; 0x2016 <exhaustZeroes+0x44>
     d0f: 80 02        	bra	$d13 <f256main+0x4a9>
     d11: c4 1a        	cpy	$1a                     ; 0x201a <exhaustZeroes+0x48>
     d13: a6 26        	ldx	$26                     ; 0x2026 <exhaustZeroes+0x54>
     d15: b0 2a        	bcs	$d41 <f256main+0x4d7>
     d17: 64 60        	stz	$60                     ; 0x2060 <exhaustZeroes+0x8e>
     d19: 9c 14 d0     	stz	$d014                   ; 0xd014 <end_block9+0x8b14>
     d1c: 9c 15 d0     	stz	$d015                   ; 0xd015 <end_block9+0x8b15>
     d1f: 8a           	txa
     d20: 18           	clc
     d21: 69 0f        	adc	#$f
     d23: 85 61        	sta	$61                     ; 0x2061 <exhaustZeroes+0x8f>
     d25: 8d 16 d0     	sta	$d016                   ; 0xd016 <end_block9+0x8b16>
     d28: 9c 17 d0     	stz	$d017                   ; 0xd017 <end_block9+0x8b17>
     d2b: 8a           	txa
     d2c: 20 56 10     	jsr	$1056 <chainEvent>
     d2f: a6 6f        	ldx	$6f                     ; 0x206f <exhaustZeroes+0x9d>
     d31: a4 70        	ldy	$70                     ; 0x2070 <exhaustZeroes+0x9e>
     d33: 86 14        	stx	$14                     ; 0x2014 <exhaustZeroes+0x42>
     d35: 84 15        	sty	$15                     ; 0x2015 <exhaustZeroes+0x43>
     d37: a6 64        	ldx	$64                     ; 0x2064 <exhaustZeroes+0x92>
     d39: a4 65        	ldy	$65                     ; 0x2065 <exhaustZeroes+0x93>
     d3b: 86 12        	stx	$12                     ; 0x2012 <exhaustZeroes+0x40>
     d3d: 84 13        	sty	$13                     ; 0x2013 <exhaustZeroes+0x41>
     d3f: 80 06        	bra	$d47 <f256main+0x4dd>
     d41: a0 15        	ldy	#$15
     d43: a9 01        	lda	#$1
     d45: 91 16        	sta	($16),y                 ; 0x2016 <exhaustZeroes+0x44>
     d47: a5 24        	lda	$24                     ; 0x2024 <exhaustZeroes+0x52>
     d49: a6 27        	ldx	$27                     ; 0x2027 <exhaustZeroes+0x55>
     d4b: a4 26        	ldy	$26                     ; 0x2026 <exhaustZeroes+0x54>
     d4d: c8           	iny
     d4e: d0 01        	bne	$d51 <f256main+0x4e7>
     d50: e8           	inx
     d51: 18           	clc
     d52: 69 16        	adc	#$16
     d54: 85 16        	sta	$16                     ; 0x2016 <exhaustZeroes+0x44>
     d56: a5 25        	lda	$25                     ; 0x2025 <exhaustZeroes+0x53>
     d58: 69 00        	adc	#$0
     d5a: 85 25        	sta	$25                     ; 0x2025 <exhaustZeroes+0x53>
     d5c: e4 13        	cpx	$13                     ; 0x2013 <exhaustZeroes+0x41>
     d5e: d0 07        	bne	$d67 <f256main+0x4fd>
     d60: c4 12        	cpy	$12                     ; 0x2012 <exhaustZeroes+0x40>
     d62: b0 0a        	bcs	$d6e <f256main+0x504>
     d64: 4c a8 0c     	jmp	$ca8 <f256main+0x43e>
     d67: e4 13        	cpx	$13                     ; 0x2013 <exhaustZeroes+0x41>
     d69: b0 03        	bcs	$d6e <f256main+0x504>
     d6b: 4c a8 0c     	jmp	$ca8 <f256main+0x43e>
     d6e: a5 13        	lda	$13                     ; 0x2013 <exhaustZeroes+0x41>
     d70: d0 07        	bne	$d79 <f256main+0x50f>
     d72: a5 12        	lda	$12                     ; 0x2012 <exhaustZeroes+0x40>
     d74: d0 03        	bne	$d79 <f256main+0x50f>
     d76: 4c ea 0d     	jmp	$dea <f256main+0x580>
     d79: a2 0c        	ldx	#$c
     d7b: 64 25        	stz	$25                     ; 0x2025 <exhaustZeroes+0x53>
     d7d: 64 26        	stz	$26                     ; 0x2026 <exhaustZeroes+0x54>
     d7f: a0 00        	ldy	#$0
     d81: 84 27        	sty	$27                     ; 0x2027 <exhaustZeroes+0x55>
     d83: 8a           	txa
     d84: 18           	clc
     d85: 65 14        	adc	$14                     ; 0x2014 <exhaustZeroes+0x42>
     d87: 85 16        	sta	$16                     ; 0x2016 <exhaustZeroes+0x44>
     d89: a5 25        	lda	$25                     ; 0x2025 <exhaustZeroes+0x53>
     d8b: 65 15        	adc	$15                     ; 0x2015 <exhaustZeroes+0x43>
     d8d: 85 17        	sta	$17                     ; 0x2017 <exhaustZeroes+0x45>
     d8f: a0 09        	ldy	#$9
     d91: b1 16        	lda	($16),y                 ; 0x2016 <exhaustZeroes+0x44>
     d93: f0 04        	beq	$d99 <f256main+0x52f>
     d95: 86 24        	stx	$24                     ; 0x2024 <exhaustZeroes+0x52>
     d97: 80 29        	bra	$dc2 <f256main+0x558>
     d99: 86 24        	stx	$24                     ; 0x2024 <exhaustZeroes+0x52>
     d9b: 8a           	txa
     d9c: 18           	clc
     d9d: 65 14        	adc	$14                     ; 0x2014 <exhaustZeroes+0x42>
     d9f: 85 16        	sta	$16                     ; 0x2016 <exhaustZeroes+0x44>
     da1: a5 25        	lda	$25                     ; 0x2025 <exhaustZeroes+0x53>
     da3: 65 15        	adc	$15                     ; 0x2015 <exhaustZeroes+0x43>
     da5: 85 17        	sta	$17                     ; 0x2017 <exhaustZeroes+0x45>
     da7: b2 16        	lda	($16)                   ; 0x2016 <exhaustZeroes+0x44>
     da9: 85 18        	sta	$18                     ; 0x2018 <exhaustZeroes+0x46>
     dab: a0 01        	ldy	#$1
     dad: b1 16        	lda	($16),y                 ; 0x2016 <exhaustZeroes+0x44>
     daf: 85 19        	sta	$19                     ; 0x2019 <exhaustZeroes+0x47>
     db1: c8           	iny
     db2: b1 16        	lda	($16),y                 ; 0x2016 <exhaustZeroes+0x44>
     db4: 85 1a        	sta	$1a                     ; 0x201a <exhaustZeroes+0x48>
     db6: c8           	iny
     db7: b1 16        	lda	($16),y                 ; 0x2016 <exhaustZeroes+0x44>
     db9: d0 07        	bne	$dc2 <f256main+0x558>
     dbb: a5 1a        	lda	$1a                     ; 0x201a <exhaustZeroes+0x48>
     dbd: d0 03        	bne	$dc2 <f256main+0x558>
     dbf: 4c 30 10     	jmp	$1030 <f256main+0x7c6>
     dc2: a6 26        	ldx	$26                     ; 0x2026 <exhaustZeroes+0x54>
     dc4: a4 27        	ldy	$27                     ; 0x2027 <exhaustZeroes+0x55>
     dc6: e8           	inx
     dc7: d0 01        	bne	$dca <f256main+0x560>
     dc9: c8           	iny
     dca: 18           	clc
     dcb: a5 24        	lda	$24                     ; 0x2024 <exhaustZeroes+0x52>
     dcd: 69 16        	adc	#$16
     dcf: 85 16        	sta	$16                     ; 0x2016 <exhaustZeroes+0x44>
     dd1: a5 25        	lda	$25                     ; 0x2025 <exhaustZeroes+0x53>
     dd3: 69 00        	adc	#$0
     dd5: 85 25        	sta	$25                     ; 0x2025 <exhaustZeroes+0x53>
     dd7: c4 13        	cpy	$13                     ; 0x2013 <exhaustZeroes+0x41>
     dd9: d0 04        	bne	$ddf <f256main+0x575>
     ddb: e4 12        	cpx	$12                     ; 0x2012 <exhaustZeroes+0x40>
     ddd: 80 02        	bra	$de1 <f256main+0x577>
     ddf: c4 13        	cpy	$13                     ; 0x2013 <exhaustZeroes+0x41>
     de1: 86 26        	stx	$26                     ; 0x2026 <exhaustZeroes+0x54>
     de3: a6 16        	ldx	$16                     ; 0x2016 <exhaustZeroes+0x44>
     de5: b0 03        	bcs	$dea <f256main+0x580>
     de7: 4c 81 0d     	jmp	$d81 <f256main+0x517>
     dea: 78           	sei
     deb: a4 00        	ldy	$0                      ; 0x2000 <exhaustZeroes+0x2e>
     ded: 98           	tya
     dee: 09 80        	ora	#$80
     df0: 85 00        	sta	$0                      ; 0x2000 <exhaustZeroes+0x2e>
     df2: a6 0d        	ldx	$d                      ; 0x200d <exhaustZeroes+0x3b>
     df4: 86 18        	stx	$18                     ; 0x2018 <exhaustZeroes+0x46>
     df6: a2 3f        	ldx	#$3f
     df8: 86 0d        	stx	$d                      ; 0x200d <exhaustZeroes+0x3b>
     dfa: 84 00        	sty	$0                      ; 0x2000 <exhaustZeroes+0x2e>
     dfc: a2 e0        	ldx	#$e0
     dfe: a0 00        	ldy	#$0
     e00: 98           	tya
     e01: 18           	clc
     e02: 69 00        	adc	#$0
     e04: 85 14        	sta	$14                     ; 0x2014 <exhaustZeroes+0x42>
     e06: 8a           	txa
     e07: 69 c0        	adc	#$c0
     e09: 85 15        	sta	$15                     ; 0x2015 <exhaustZeroes+0x43>
     e0b: 84 12        	sty	$12                     ; 0x2012 <exhaustZeroes+0x40>
     e0d: 86 13        	stx	$13                     ; 0x2013 <exhaustZeroes+0x41>
     e0f: b2 12        	lda	($12)                   ; 0x2012 <exhaustZeroes+0x40>
     e11: 92 14        	sta	($14)                   ; 0x2014 <exhaustZeroes+0x42>
     e13: c8           	iny
     e14: d0 01        	bne	$e17 <f256main+0x5ad>
     e16: e8           	inx
     e17: e0 ff        	cpx	#$ff
     e19: d0 e5        	bne	$e00 <f256main+0x596>
     e1b: c0 fe        	cpy	#$fe
     e1d: d0 e1        	bne	$e00 <f256main+0x596>
     e1f: a2 1c        	ldx	#$1c
     e21: a0 1d        	ldy	#$1d
     e23: 84 12        	sty	$12                     ; 0x2012 <exhaustZeroes+0x40>
     e25: e4 12        	cpx	$12                     ; 0x2012 <exhaustZeroes+0x40>
     e27: d0 06        	bne	$e2f <f256main+0x5c5>
     e29: a2 37        	ldx	#$37
     e2b: a0 41        	ldy	#$41
     e2d: 84 12        	sty	$12                     ; 0x2012 <exhaustZeroes+0x40>
     e2f: e4 12        	cpx	$12                     ; 0x2012 <exhaustZeroes+0x40>
     e31: b0 42        	bcs	$e75 <f256main+0x60b>
     e33: a2 b3        	ldx	#$b3
     e35: 64 14        	stz	$14                     ; 0x2014 <exhaustZeroes+0x42>
     e37: a0 41        	ldy	#$41
     e39: 84 12        	sty	$12                     ; 0x2012 <exhaustZeroes+0x40>
     e3b: a0 1d        	ldy	#$1d
     e3d: 84 13        	sty	$13                     ; 0x2013 <exhaustZeroes+0x41>
     e3f: 86 15        	stx	$15                     ; 0x2015 <exhaustZeroes+0x43>
     e41: a9 37        	lda	#$37
     e43: 18           	clc
     e44: 65 14        	adc	$14                     ; 0x2014 <exhaustZeroes+0x42>
     e46: 85 16        	sta	$16                     ; 0x2016 <exhaustZeroes+0x44>
     e48: a9 69        	lda	#$69
     e4a: 65 15        	adc	$15                     ; 0x2015 <exhaustZeroes+0x43>
     e4c: 85 17        	sta	$17                     ; 0x2017 <exhaustZeroes+0x45>
     e4e: b2 16        	lda	($16)                   ; 0x2016 <exhaustZeroes+0x44>
     e50: a4 14        	ldy	$14                     ; 0x2014 <exhaustZeroes+0x42>
     e52: c8           	iny
     e53: d0 01        	bne	$e56 <f256main+0x5ec>
     e55: e8           	inx
     e56: 92 14        	sta	($14)                   ; 0x2014 <exhaustZeroes+0x42>
     e58: a9 38        	lda	#$38
     e5a: 18           	clc
     e5b: 65 14        	adc	$14                     ; 0x2014 <exhaustZeroes+0x42>
     e5d: 85 14        	sta	$14                     ; 0x2014 <exhaustZeroes+0x42>
     e5f: a9 69        	lda	#$69
     e61: 65 15        	adc	$15                     ; 0x2015 <exhaustZeroes+0x43>
     e63: c5 13        	cmp	$13                     ; 0x2013 <exhaustZeroes+0x41>
     e65: d0 06        	bne	$e6d <f256main+0x603>
     e67: a5 14        	lda	$14                     ; 0x2014 <exhaustZeroes+0x42>
     e69: c5 12        	cmp	$12                     ; 0x2012 <exhaustZeroes+0x40>
     e6b: 80 02        	bra	$e6f <f256main+0x605>
     e6d: c5 13        	cmp	$13                     ; 0x2013 <exhaustZeroes+0x41>
     e6f: 84 14        	sty	$14                     ; 0x2014 <exhaustZeroes+0x42>
     e71: 86 15        	stx	$15                     ; 0x2015 <exhaustZeroes+0x43>
     e73: 90 cc        	bcc	$e41 <f256main+0x5d7>
     e75: 9c fe bf     	stz	$bffe                   ; 0xbffe <end_block9+0x7afe>
     e78: a2 f3        	ldx	#$f3
     e7a: 8e ff bf     	stx	$bfff                   ; 0xbfff <end_block9+0x7aff>
     e7d: a2 60        	ldx	#$60
     e7f: 8e 31 a1     	stx	$a131                   ; 0xa131 <end_block9+0x5c31>
     e82: a4 00        	ldy	$0                      ; 0x2000 <exhaustZeroes+0x2e>
     e84: 98           	tya
     e85: 09 80        	ora	#$80
     e87: 85 00        	sta	$0                      ; 0x2000 <exhaustZeroes+0x2e>
     e89: a6 0d        	ldx	$d                      ; 0x200d <exhaustZeroes+0x3b>
     e8b: a6 18        	ldx	$18                     ; 0x2018 <exhaustZeroes+0x46>
     e8d: 86 0d        	stx	$d                      ; 0x200d <exhaustZeroes+0x3b>
     e8f: 84 00        	sty	$0                      ; 0x2000 <exhaustZeroes+0x2e>
     e91: ad 6c d6     	lda	$d66c                   ; 0xd66c <end_block9+0x916c>
     e94: 29 ef        	and	#$ef
     e96: 8d 6c d6     	sta	$d66c                   ; 0xd66c <end_block9+0x916c>
     e99: a4 00        	ldy	$0                      ; 0x2000 <exhaustZeroes+0x2e>
     e9b: 98           	tya
     e9c: 29 0f        	and	#$f
     e9e: 85 12        	sta	$12                     ; 0x2012 <exhaustZeroes+0x40>
     ea0: 09 80        	ora	#$80
     ea2: 85 00        	sta	$0                      ; 0x2000 <exhaustZeroes+0x2e>
     ea4: a2 3f        	ldx	#$3f
     ea6: 86 0f        	stx	$f                      ; 0x200f <exhaustZeroes+0x3d>
     ea8: a5 12        	lda	$12                     ; 0x2012 <exhaustZeroes+0x40>
     eaa: 09 90        	ora	#$90
     eac: 85 00        	sta	$0                      ; 0x2000 <exhaustZeroes+0x2e>
     eae: 86 0f        	stx	$f                      ; 0x200f <exhaustZeroes+0x3d>
     eb0: a5 12        	lda	$12                     ; 0x2012 <exhaustZeroes+0x40>
     eb2: 09 a0        	ora	#$a0
     eb4: 85 00        	sta	$0                      ; 0x2000 <exhaustZeroes+0x2e>
     eb6: 86 0f        	stx	$f                      ; 0x200f <exhaustZeroes+0x3d>
     eb8: a5 12        	lda	$12                     ; 0x2012 <exhaustZeroes+0x40>
     eba: 09 b0        	ora	#$b0
     ebc: 85 00        	sta	$0                      ; 0x2000 <exhaustZeroes+0x2e>
     ebe: 86 0f        	stx	$f                      ; 0x200f <exhaustZeroes+0x3d>
     ec0: 84 00        	sty	$0                      ; 0x2000 <exhaustZeroes+0x2e>
     ec2: a2 01        	ldx	#$1
     ec4: 8e 54 d6     	stx	$d654                   ; 0xd654 <end_block9+0x9154>
     ec7: a0 02        	ldy	#$2
     ec9: 8c 50 d6     	sty	$d650                   ; 0xd650 <end_block9+0x9150>
     ecc: a9 09        	lda	#$9
     ece: 8d 50 d6     	sta	$d650                   ; 0xd650 <end_block9+0x9150>
     ed1: 8e 54 d6     	stx	$d654                   ; 0xd654 <end_block9+0x9154>
     ed4: 8c 50 d6     	sty	$d650                   ; 0xd650 <end_block9+0x9150>
     ed7: 8d 50 d6     	sta	$d650                   ; 0xd650 <end_block9+0x9150>
     eda: 58           	cli
     edb: 8e 54 d6     	stx	$d654                   ; 0xd654 <end_block9+0x9154>
     ede: 8c 50 d6     	sty	$d650                   ; 0xd650 <end_block9+0x9150>
     ee1: 8d 50 d6     	sta	$d650                   ; 0xd650 <end_block9+0x9150>
     ee4: a2 ad        	ldx	#$ad
     ee6: 8e 55 d6     	stx	$d655                   ; 0xd655 <end_block9+0x9155>
     ee9: a2 de        	ldx	#$de
     eeb: 8e 56 d6     	stx	$d656                   ; 0xd656 <end_block9+0x9156>
     eee: 9c 57 d6     	stz	$d657                   ; 0xd657 <end_block9+0x9157>
     ef1: a9 2e        	lda	#$2e
     ef3: a2 00        	ldx	#$0
     ef5: 20 03 3d     	jsr	$3d03 <putchar>
     ef8: a5 68        	lda	$68                     ; 0x2068 <exhaustZeroes+0x96>
     efa: 29 01        	and	#$1
     efc: d0 fa        	bne	$ef8 <f256main+0x68e>
     efe: a6 64        	ldx	$64                     ; 0x2064 <exhaustZeroes+0x92>
     f00: a4 65        	ldy	$65                     ; 0x2065 <exhaustZeroes+0x93>
     f02: d0 03        	bne	$f07 <f256main+0x69d>
     f04: 8a           	txa
     f05: f0 f1        	beq	$ef8 <f256main+0x68e>
     f07: a2 0c        	ldx	#$c
     f09: 64 16        	stz	$16                     ; 0x2016 <exhaustZeroes+0x44>
     f0b: a0 00        	ldy	#$0
     f0d: 64 18        	stz	$18                     ; 0x2018 <exhaustZeroes+0x46>
     f0f: 84 17        	sty	$17                     ; 0x2017 <exhaustZeroes+0x45>
     f11: a4 6f        	ldy	$6f                     ; 0x206f <exhaustZeroes+0x9d>
     f13: 84 19        	sty	$19                     ; 0x2019 <exhaustZeroes+0x47>
     f15: a4 70        	ldy	$70                     ; 0x2070 <exhaustZeroes+0x9e>
     f17: 84 1a        	sty	$1a                     ; 0x201a <exhaustZeroes+0x48>
     f19: 8a           	txa
     f1a: 18           	clc
     f1b: 65 6f        	adc	$6f                     ; 0x206f <exhaustZeroes+0x9d>
     f1d: 85 12        	sta	$12                     ; 0x2012 <exhaustZeroes+0x40>
     f1f: a5 16        	lda	$16                     ; 0x2016 <exhaustZeroes+0x44>
     f21: 65 70        	adc	$70                     ; 0x2070 <exhaustZeroes+0x9e>
     f23: 85 13        	sta	$13                     ; 0x2013 <exhaustZeroes+0x41>
     f25: a0 09        	ldy	#$9
     f27: b1 12        	lda	($12),y                 ; 0x2012 <exhaustZeroes+0x40>
     f29: f0 16        	beq	$f41 <f256main+0x6d7>
     f2b: 86 14        	stx	$14                     ; 0x2014 <exhaustZeroes+0x42>
     f2d: a2 ff        	ldx	#$ff
     f2f: 86 69        	stx	$69                     ; 0x2069 <exhaustZeroes+0x97>
     f31: 86 6a        	stx	$6a                     ; 0x206a <exhaustZeroes+0x98>
     f33: 86 6b        	stx	$6b                     ; 0x206b <exhaustZeroes+0x99>
     f35: 86 6c        	stx	$6c                     ; 0x206c <exhaustZeroes+0x9a>
     f37: 86 6d        	stx	$6d                     ; 0x206d <exhaustZeroes+0x9b>
     f39: 86 6e        	stx	$6e                     ; 0x206e <exhaustZeroes+0x9c>
     f3b: a0 ff        	ldy	#$ff
     f3d: 98           	tya
     f3e: 4c c2 0f     	jmp	$fc2 <f256main+0x758>
     f41: a4 16        	ldy	$16                     ; 0x2016 <exhaustZeroes+0x44>
     f43: 84 15        	sty	$15                     ; 0x2015 <exhaustZeroes+0x43>
     f45: 86 14        	stx	$14                     ; 0x2014 <exhaustZeroes+0x42>
     f47: 86 12        	stx	$12                     ; 0x2012 <exhaustZeroes+0x40>
     f49: 18           	clc
     f4a: a5 19        	lda	$19                     ; 0x2019 <exhaustZeroes+0x47>
     f4c: 65 12        	adc	$12                     ; 0x2012 <exhaustZeroes+0x40>
     f4e: aa           	tax
     f4f: a5 1a        	lda	$1a                     ; 0x201a <exhaustZeroes+0x48>
     f51: 65 15        	adc	$15                     ; 0x2015 <exhaustZeroes+0x43>
     f53: 86 12        	stx	$12                     ; 0x2012 <exhaustZeroes+0x40>
     f55: 85 13        	sta	$13                     ; 0x2013 <exhaustZeroes+0x41>
     f57: b2 12        	lda	($12)                   ; 0x2012 <exhaustZeroes+0x40>
     f59: 85 15        	sta	$15                     ; 0x2015 <exhaustZeroes+0x43>
     f5b: a0 01        	ldy	#$1
     f5d: b1 12        	lda	($12),y                 ; 0x2012 <exhaustZeroes+0x40>
     f5f: 85 19        	sta	$19                     ; 0x2019 <exhaustZeroes+0x47>
     f61: c8           	iny
     f62: b1 12        	lda	($12),y                 ; 0x2012 <exhaustZeroes+0x40>
     f64: 85 1a        	sta	$1a                     ; 0x201a <exhaustZeroes+0x48>
     f66: c8           	iny
     f67: b1 12        	lda	($12),y                 ; 0x2012 <exhaustZeroes+0x40>
     f69: c9 ff        	cmp	#$ff
     f6b: d0 0f        	bne	$f7c <f256main+0x712>
     f6d: a6 1a        	ldx	$1a                     ; 0x201a <exhaustZeroes+0x48>
     f6f: e0 ff        	cpx	#$ff
     f71: d0 09        	bne	$f7c <f256main+0x712>
     f73: a6 19        	ldx	$19                     ; 0x2019 <exhaustZeroes+0x47>
     f75: e0 ff        	cpx	#$ff
     f77: d0 03        	bne	$f7c <f256main+0x712>
     f79: 4c fc 0f     	jmp	$ffc <f256main+0x792>
     f7c: a2 01        	ldx	#$1
     f7e: 86 68        	stx	$68                     ; 0x2068 <exhaustZeroes+0x96>
     f80: a6 15        	ldx	$15                     ; 0x2015 <exhaustZeroes+0x43>
     f82: 86 69        	stx	$69                     ; 0x2069 <exhaustZeroes+0x97>
     f84: a6 19        	ldx	$19                     ; 0x2019 <exhaustZeroes+0x47>
     f86: 86 6a        	stx	$6a                     ; 0x206a <exhaustZeroes+0x98>
     f88: a6 1a        	ldx	$1a                     ; 0x201a <exhaustZeroes+0x48>
     f8a: 86 6b        	stx	$6b                     ; 0x206b <exhaustZeroes+0x99>
     f8c: 85 6c        	sta	$6c                     ; 0x206c <exhaustZeroes+0x9a>
     f8e: a6 17        	ldx	$17                     ; 0x2017 <exhaustZeroes+0x45>
     f90: 86 6d        	stx	$6d                     ; 0x206d <exhaustZeroes+0x9b>
     f92: a6 18        	ldx	$18                     ; 0x2018 <exhaustZeroes+0x46>
     f94: 86 6e        	stx	$6e                     ; 0x206e <exhaustZeroes+0x9c>
     f96: c9 01        	cmp	#$1
     f98: d0 10        	bne	$faa <f256main+0x740>
     f9a: a6 1a        	ldx	$1a                     ; 0x201a <exhaustZeroes+0x48>
     f9c: d0 14        	bne	$fb2 <f256main+0x748>
     f9e: 86 12        	stx	$12                     ; 0x2012 <exhaustZeroes+0x40>
     fa0: a5 19        	lda	$19                     ; 0x2019 <exhaustZeroes+0x47>
     fa2: f0 03        	beq	$fa7 <f256main+0x73d>
     fa4: 4c 0f 10     	jmp	$100f <f256main+0x7a5>
     fa7: 4c 0a 10     	jmp	$100a <f256main+0x7a0>
     faa: a6 1a        	ldx	$1a                     ; 0x201a <exhaustZeroes+0x48>
     fac: 86 12        	stx	$12                     ; 0x2012 <exhaustZeroes+0x40>
     fae: c9 01        	cmp	#$1
     fb0: 80 04        	bra	$fb6 <f256main+0x74c>
     fb2: 86 12        	stx	$12                     ; 0x2012 <exhaustZeroes+0x40>
     fb4: e0 00        	cpx	#$0
     fb6: a0 ff        	ldy	#$ff
     fb8: 98           	tya
     fb9: aa           	tax
     fba: b0 06        	bcs	$fc2 <f256main+0x758>
     fbc: a4 15        	ldy	$15                     ; 0x2015 <exhaustZeroes+0x43>
     fbe: a5 19        	lda	$19                     ; 0x2019 <exhaustZeroes+0x47>
     fc0: a6 12        	ldx	$12                     ; 0x2012 <exhaustZeroes+0x40>
     fc2: 8c 55 d6     	sty	$d655                   ; 0xd655 <end_block9+0x9155>
     fc5: 8d 56 d6     	sta	$d656                   ; 0xd656 <end_block9+0x9156>
     fc8: 8e 57 d6     	stx	$d657                   ; 0xd657 <end_block9+0x9157>
     fcb: a6 18        	ldx	$18                     ; 0x2018 <exhaustZeroes+0x46>
     fcd: a4 17        	ldy	$17                     ; 0x2017 <exhaustZeroes+0x45>
     fcf: c8           	iny
     fd0: d0 01        	bne	$fd3 <f256main+0x769>
     fd2: e8           	inx
     fd3: 18           	clc
     fd4: a5 14        	lda	$14                     ; 0x2014 <exhaustZeroes+0x42>
     fd6: 69 16        	adc	#$16
     fd8: 85 13        	sta	$13                     ; 0x2013 <exhaustZeroes+0x41>
     fda: a5 16        	lda	$16                     ; 0x2016 <exhaustZeroes+0x44>
     fdc: 69 00        	adc	#$0
     fde: 85 16        	sta	$16                     ; 0x2016 <exhaustZeroes+0x44>
     fe0: e4 65        	cpx	$65                     ; 0x2065 <exhaustZeroes+0x93>
     fe2: d0 0a        	bne	$fee <f256main+0x784>
     fe4: 86 18        	stx	$18                     ; 0x2018 <exhaustZeroes+0x46>
     fe6: a6 64        	ldx	$64                     ; 0x2064 <exhaustZeroes+0x92>
     fe8: 86 12        	stx	$12                     ; 0x2012 <exhaustZeroes+0x40>
     fea: c4 12        	cpy	$12                     ; 0x2012 <exhaustZeroes+0x40>
     fec: 80 04        	bra	$ff2 <f256main+0x788>
     fee: 86 18        	stx	$18                     ; 0x2018 <exhaustZeroes+0x46>
     ff0: e4 65        	cpx	$65                     ; 0x2065 <exhaustZeroes+0x93>
     ff2: a6 13        	ldx	$13                     ; 0x2013 <exhaustZeroes+0x41>
     ff4: 90 03        	bcc	$ff9 <f256main+0x78f>
     ff6: 4c f8 0e     	jmp	$ef8 <f256main+0x68e>
     ff9: 4c 0f 0f     	jmp	$f0f <f256main+0x6a5>
     ffc: a6 15        	ldx	$15                     ; 0x2015 <exhaustZeroes+0x43>
     ffe: e0 ff        	cpx	#$ff
    1000: f0 03        	beq	$1005 <f256main+0x79b>
    1002: 4c 7c 0f     	jmp	$f7c <f256main+0x712>
    1005: a6 14        	ldx	$14                     ; 0x2014 <exhaustZeroes+0x42>
    1007: 4c 2b 0f     	jmp	$f2b <f256main+0x6c1>
    100a: a6 15        	ldx	$15                     ; 0x2015 <exhaustZeroes+0x43>
    100c: 4c b4 0f     	jmp	$fb4 <f256main+0x74a>
    100f: a6 19        	ldx	$19                     ; 0x2019 <exhaustZeroes+0x47>
    1011: 4c b4 0f     	jmp	$fb4 <f256main+0x74a>
    1014: 86 18        	stx	$18                     ; 0x2018 <exhaustZeroes+0x46>
    1016: a6 1b        	ldx	$1b                     ; 0x201b <exhaustZeroes+0x49>
    1018: 86 19        	stx	$19                     ; 0x2019 <exhaustZeroes+0x47>
    101a: a0 04        	ldy	#$4
    101c: b1 18        	lda	($18),y                 ; 0x2018 <exhaustZeroes+0x46>
    101e: 85 19        	sta	$19                     ; 0x2019 <exhaustZeroes+0x47>
    1020: b2 16        	lda	($16)                   ; 0x2016 <exhaustZeroes+0x44>
    1022: 85 18        	sta	$18                     ; 0x2018 <exhaustZeroes+0x46>
    1024: a6 19        	ldx	$19                     ; 0x2019 <exhaustZeroes+0x47>
    1026: e4 18        	cpx	$18                     ; 0x2018 <exhaustZeroes+0x46>
    1028: 4c 13 0d     	jmp	$d13 <f256main+0x4a9>
    102b: c4 18        	cpy	$18                     ; 0x2018 <exhaustZeroes+0x46>
    102d: 4c 13 0d     	jmp	$d13 <f256main+0x4a9>
    1030: a5 19        	lda	$19                     ; 0x2019 <exhaustZeroes+0x47>
    1032: f0 03        	beq	$1037 <f256main+0x7cd>
    1034: 4c c2 0d     	jmp	$dc2 <f256main+0x558>
    1037: a5 18        	lda	$18                     ; 0x2018 <exhaustZeroes+0x46>
    1039: f0 03        	beq	$103e <f256main+0x7d4>
    103b: 4c c2 0d     	jmp	$dc2 <f256main+0x558>
    103e: a5 26        	lda	$26                     ; 0x2026 <exhaustZeroes+0x54>
    1040: 20 d2 1f     	jsr	$1fd2 <exhaustZeroes>
    1043: a6 6f        	ldx	$6f                     ; 0x206f <exhaustZeroes+0x9d>
    1045: a4 70        	ldy	$70                     ; 0x2070 <exhaustZeroes+0x9e>
    1047: 86 14        	stx	$14                     ; 0x2014 <exhaustZeroes+0x42>
    1049: 84 15        	sty	$15                     ; 0x2015 <exhaustZeroes+0x43>
    104b: a6 64        	ldx	$64                     ; 0x2064 <exhaustZeroes+0x92>
    104d: a4 65        	ldy	$65                     ; 0x2065 <exhaustZeroes+0x93>
    104f: 86 12        	stx	$12                     ; 0x2012 <exhaustZeroes+0x40>
    1051: 84 13        	sty	$13                     ; 0x2013 <exhaustZeroes+0x41>
    1053: 4c c2 0d     	jmp	$dc2 <f256main+0x558>

00001056 <chainEvent>:
    1056: 48           	pha
    1057: 18           	clc
    1058: a5 10        	lda	$10                     ; 0x2010 <exhaustZeroes+0x3e>
    105a: 69 f2        	adc	#$f2
    105c: 85 10        	sta	$10                     ; 0x2010 <exhaustZeroes+0x3e>
    105e: a5 11        	lda	$11                     ; 0x2011 <exhaustZeroes+0x3f>
    1060: 69 ff        	adc	#$ff
    1062: 85 11        	sta	$11                     ; 0x2011 <exhaustZeroes+0x3f>
    1064: 68           	pla
    1065: a6 24        	ldx	$24                     ; 0x2024 <exhaustZeroes+0x52>
    1067: da           	phx
    1068: a6 25        	ldx	$25                     ; 0x2025 <exhaustZeroes+0x53>
    106a: da           	phx
    106b: a6 26        	ldx	$26                     ; 0x2026 <exhaustZeroes+0x54>
    106d: da           	phx
    106e: a6 27        	ldx	$27                     ; 0x2027 <exhaustZeroes+0x55>
    1070: da           	phx
    1071: 48           	pha
    1072: a5 28        	lda	$28                     ; 0x2028 <exhaustZeroes+0x56>
    1074: a0 0b        	ldy	#$b
    1076: 91 10        	sta	($10),y                 ; 0x2010 <exhaustZeroes+0x3e>
    1078: a5 29        	lda	$29                     ; 0x2029 <exhaustZeroes+0x57>
    107a: 88           	dey
    107b: 91 10        	sta	($10),y                 ; 0x2010 <exhaustZeroes+0x3e>
    107d: a5 2a        	lda	$2a                     ; 0x202a <exhaustZeroes+0x58>
    107f: 88           	dey
    1080: 91 10        	sta	($10),y                 ; 0x2010 <exhaustZeroes+0x3e>
    1082: a5 2b        	lda	$2b                     ; 0x202b <exhaustZeroes+0x59>
    1084: 88           	dey
    1085: 91 10        	sta	($10),y                 ; 0x2010 <exhaustZeroes+0x3e>
    1087: a5 2c        	lda	$2c                     ; 0x202c <exhaustZeroes+0x5a>
    1089: 88           	dey
    108a: 91 10        	sta	($10),y                 ; 0x2010 <exhaustZeroes+0x3e>
    108c: a5 2d        	lda	$2d                     ; 0x202d <exhaustZeroes+0x5b>
    108e: 88           	dey
    108f: 91 10        	sta	($10),y                 ; 0x2010 <exhaustZeroes+0x3e>
    1091: a5 2e        	lda	$2e                     ; 0x202e <exhaustZeroes+0x5c>
    1093: 88           	dey
    1094: 91 10        	sta	($10),y                 ; 0x2010 <exhaustZeroes+0x3e>
    1096: a5 2f        	lda	$2f                     ; 0x202f <exhaustZeroes+0x5d>
    1098: 88           	dey
    1099: 91 10        	sta	($10),y                 ; 0x2010 <exhaustZeroes+0x3e>
    109b: 68           	pla
    109c: a0 0c        	ldy	#$c
    109e: 91 10        	sta	($10),y                 ; 0x2010 <exhaustZeroes+0x3e>
    10a0: a6 6f        	ldx	$6f                     ; 0x206f <exhaustZeroes+0x9d>
    10a2: a4 70        	ldy	$70                     ; 0x2070 <exhaustZeroes+0x9e>
    10a4: 86 2a        	stx	$2a                     ; 0x202a <exhaustZeroes+0x58>
    10a6: 84 2b        	sty	$2b                     ; 0x202b <exhaustZeroes+0x59>
    10a8: 80 46        	bra	$10f0 <chainEvent+0x9a>
    10aa: a5 13        	lda	$13                     ; 0x2013 <exhaustZeroes+0x41>
    10ac: d0 42        	bne	$10f0 <chainEvent+0x9a>
    10ae: a5 17        	lda	$17                     ; 0x2017 <exhaustZeroes+0x45>
    10b0: 18           	clc
    10b1: 69 03        	adc	#$3
    10b3: 80 13        	bra	$10c8 <chainEvent+0x72>
    10b5: a5 17        	lda	$17                     ; 0x2017 <exhaustZeroes+0x45>
    10b7: 18           	clc
    10b8: 69 06        	adc	#$6
    10ba: 80 0c        	bra	$10c8 <chainEvent+0x72>
    10bc: a5 17        	lda	$17                     ; 0x2017 <exhaustZeroes+0x45>
    10be: 18           	clc
    10bf: 69 04        	adc	#$4
    10c1: 80 05        	bra	$10c8 <chainEvent+0x72>
    10c3: a5 17        	lda	$17                     ; 0x2017 <exhaustZeroes+0x45>
    10c5: 18           	clc
    10c6: 69 07        	adc	#$7
    10c8: aa           	tax
    10c9: a5 16        	lda	$16                     ; 0x2016 <exhaustZeroes+0x44>
    10cb: 69 00        	adc	#$0
    10cd: 85 13        	sta	$13                     ; 0x2013 <exhaustZeroes+0x41>
    10cf: a5 15        	lda	$15                     ; 0x2015 <exhaustZeroes+0x43>
    10d1: 69 00        	adc	#$0
    10d3: 85 14        	sta	$14                     ; 0x2014 <exhaustZeroes+0x42>
    10d5: a5 12        	lda	$12                     ; 0x2012 <exhaustZeroes+0x40>
    10d7: 69 00        	adc	#$0
    10d9: 85 12        	sta	$12                     ; 0x2012 <exhaustZeroes+0x40>
    10db: a0 04        	ldy	#$4
    10dd: 8a           	txa
    10de: 91 28        	sta	($28),y                 ; 0x2028 <exhaustZeroes+0x56>
    10e0: a0 01        	ldy	#$1
    10e2: a5 13        	lda	$13                     ; 0x2013 <exhaustZeroes+0x41>
    10e4: 91 26        	sta	($26),y                 ; 0x2026 <exhaustZeroes+0x54>
    10e6: c8           	iny
    10e7: a5 14        	lda	$14                     ; 0x2014 <exhaustZeroes+0x42>
    10e9: 91 26        	sta	($26),y                 ; 0x2026 <exhaustZeroes+0x54>
    10eb: a5 12        	lda	$12                     ; 0x2012 <exhaustZeroes+0x40>
    10ed: c8           	iny
    10ee: 91 26        	sta	($26),y                 ; 0x2026 <exhaustZeroes+0x54>
    10f0: a2 16        	ldx	#$16
    10f2: 86 12        	stx	$12                     ; 0x2012 <exhaustZeroes+0x40>
    10f4: 64 13        	stz	$13                     ; 0x2013 <exhaustZeroes+0x41>
    10f6: a2 00        	ldx	#$0
    10f8: a0 0c        	ldy	#$c
    10fa: b1 10        	lda	($10),y                 ; 0x2010 <exhaustZeroes+0x3e>
    10fc: 85 2d        	sta	$2d                     ; 0x202d <exhaustZeroes+0x5b>
    10fe: 20 0d 42     	jsr	$420d <__mulhi3>
    1101: 86 12        	stx	$12                     ; 0x2012 <exhaustZeroes+0x40>
    1103: 18           	clc
    1104: 65 2a        	adc	$2a                     ; 0x202a <exhaustZeroes+0x58>
    1106: aa           	tax
    1107: a5 2b        	lda	$2b                     ; 0x202b <exhaustZeroes+0x59>
    1109: 65 12        	adc	$12                     ; 0x2012 <exhaustZeroes+0x40>
    110b: 86 12        	stx	$12                     ; 0x2012 <exhaustZeroes+0x40>
    110d: 85 13        	sta	$13                     ; 0x2013 <exhaustZeroes+0x41>
    110f: a8           	tay
    1110: 8a           	txa
    1111: 18           	clc
    1112: 69 08        	adc	#$8
    1114: 85 14        	sta	$14                     ; 0x2014 <exhaustZeroes+0x42>
    1116: 98           	tya
    1117: 69 00        	adc	#$0
    1119: 85 15        	sta	$15                     ; 0x2015 <exhaustZeroes+0x43>
    111b: 18           	clc
    111c: 8a           	txa
    111d: 69 04        	adc	#$4
    111f: 85 16        	sta	$16                     ; 0x2016 <exhaustZeroes+0x44>
    1121: 98           	tya
    1122: 69 00        	adc	#$0
    1124: 85 17        	sta	$17                     ; 0x2017 <exhaustZeroes+0x45>
    1126: a0 04        	ldy	#$4
    1128: b1 12        	lda	($12),y                 ; 0x2012 <exhaustZeroes+0x40>
    112a: 85 18        	sta	$18                     ; 0x2018 <exhaustZeroes+0x46>
    112c: a0 01        	ldy	#$1
    112e: b1 16        	lda	($16),y                 ; 0x2016 <exhaustZeroes+0x44>
    1130: 85 19        	sta	$19                     ; 0x2019 <exhaustZeroes+0x47>
    1132: c8           	iny
    1133: b1 16        	lda	($16),y                 ; 0x2016 <exhaustZeroes+0x44>
    1135: aa           	tax
    1136: c8           	iny
    1137: b1 16        	lda	($16),y                 ; 0x2016 <exhaustZeroes+0x44>
    1139: a4 18        	ldy	$18                     ; 0x2018 <exhaustZeroes+0x46>
    113b: 84 1a        	sty	$1a                     ; 0x201a <exhaustZeroes+0x48>
    113d: a4 19        	ldy	$19                     ; 0x2019 <exhaustZeroes+0x47>
    113f: 84 1b        	sty	$1b                     ; 0x201b <exhaustZeroes+0x49>
    1141: 86 1c        	stx	$1c                     ; 0x201c <exhaustZeroes+0x4a>
    1143: e6 1a        	inc	$1a                     ; 0x201a <exhaustZeroes+0x48>
    1145: d0 09        	bne	$1150 <chainEvent+0xfa>
    1147: e6 1b        	inc	$1b                     ; 0x201b <exhaustZeroes+0x49>
    1149: d0 05        	bne	$1150 <chainEvent+0xfa>
    114b: e6 1c        	inc	$1c                     ; 0x201c <exhaustZeroes+0x4a>
    114d: d0 01        	bne	$1150 <chainEvent+0xfa>
    114f: 1a           	inc
    1150: 85 1d        	sta	$1d                     ; 0x201d <exhaustZeroes+0x4b>
    1152: a0 04        	ldy	#$4
    1154: a5 1a        	lda	$1a                     ; 0x201a <exhaustZeroes+0x48>
    1156: 91 12        	sta	($12),y                 ; 0x2012 <exhaustZeroes+0x40>
    1158: a0 01        	ldy	#$1
    115a: a5 1b        	lda	$1b                     ; 0x201b <exhaustZeroes+0x49>
    115c: 91 16        	sta	($16),y                 ; 0x2016 <exhaustZeroes+0x44>
    115e: c8           	iny
    115f: a5 1c        	lda	$1c                     ; 0x201c <exhaustZeroes+0x4a>
    1161: 91 16        	sta	($16),y                 ; 0x2016 <exhaustZeroes+0x44>
    1163: c8           	iny
    1164: a5 1d        	lda	$1d                     ; 0x201d <exhaustZeroes+0x4b>
    1166: 91 16        	sta	($16),y                 ; 0x2016 <exhaustZeroes+0x44>
    1168: 18           	clc
    1169: a0 08        	ldy	#$8
    116b: a5 18        	lda	$18                     ; 0x2018 <exhaustZeroes+0x46>
    116d: 71 12        	adc	($12),y                 ; 0x2012 <exhaustZeroes+0x40>
    116f: 85 16        	sta	$16                     ; 0x2016 <exhaustZeroes+0x44>
    1171: a5 19        	lda	$19                     ; 0x2019 <exhaustZeroes+0x47>
    1173: a0 01        	ldy	#$1
    1175: 71 14        	adc	($14),y                 ; 0x2014 <exhaustZeroes+0x42>
    1177: 85 12        	sta	$12                     ; 0x2012 <exhaustZeroes+0x40>
    1179: 8a           	txa
    117a: c8           	iny
    117b: 71 14        	adc	($14),y                 ; 0x2014 <exhaustZeroes+0x42>
    117d: 85 13        	sta	$13                     ; 0x2013 <exhaustZeroes+0x41>
    117f: a5 12        	lda	$12                     ; 0x2012 <exhaustZeroes+0x40>
    1181: 06 12        	asl	$12                     ; 0x2012 <exhaustZeroes+0x40>
    1183: 26 13        	rol	$13                     ; 0x2013 <exhaustZeroes+0x41>
    1185: 06 12        	asl	$12                     ; 0x2012 <exhaustZeroes+0x40>
    1187: 26 13        	rol	$13                     ; 0x2013 <exhaustZeroes+0x41>
    1189: 06 12        	asl	$12                     ; 0x2012 <exhaustZeroes+0x40>
    118b: 26 13        	rol	$13                     ; 0x2013 <exhaustZeroes+0x41>
    118d: a4 13        	ldy	$13                     ; 0x2013 <exhaustZeroes+0x41>
    118f: a6 0f        	ldx	$f                      ; 0x200f <exhaustZeroes+0x3d>
    1191: 78           	sei
    1192: 84 0f        	sty	$f                      ; 0x200f <exhaustZeroes+0x3d>
    1194: a4 16        	ldy	$16                     ; 0x2016 <exhaustZeroes+0x44>
    1196: 84 12        	sty	$12                     ; 0x2012 <exhaustZeroes+0x40>
    1198: 09 e0        	ora	#$e0
    119a: 85 13        	sta	$13                     ; 0x2013 <exhaustZeroes+0x41>
    119c: b2 12        	lda	($12)                   ; 0x2012 <exhaustZeroes+0x40>
    119e: 86 0f        	stx	$f                      ; 0x200f <exhaustZeroes+0x3d>
    11a0: 58           	cli
    11a1: aa           	tax
    11a2: 30 19        	bmi	$11bd <chainEvent+0x167>
    11a4: 85 29        	sta	$29                     ; 0x2029 <exhaustZeroes+0x57>
    11a6: 64 2a        	stz	$2a                     ; 0x202a <exhaustZeroes+0x58>
    11a8: 64 26        	stz	$26                     ; 0x2026 <exhaustZeroes+0x54>
    11aa: a9 00        	lda	#$0
    11ac: 64 2c        	stz	$2c                     ; 0x202c <exhaustZeroes+0x5a>
    11ae: 64 27        	stz	$27                     ; 0x2027 <exhaustZeroes+0x55>
    11b0: 64 12        	stz	$12                     ; 0x2012 <exhaustZeroes+0x40>
    11b2: 64 13        	stz	$13                     ; 0x2013 <exhaustZeroes+0x41>
    11b4: 64 14        	stz	$14                     ; 0x2014 <exhaustZeroes+0x42>
    11b6: 64 28        	stz	$28                     ; 0x2028 <exhaustZeroes+0x56>
    11b8: 64 25        	stz	$25                     ; 0x2025 <exhaustZeroes+0x53>
    11ba: 4c 7e 14     	jmp	$147e <chainEvent+0x428>
    11bd: 4a           	lsr
    11be: aa           	tax
    11bf: a9 00        	lda	#$0
    11c1: 6a           	ror
    11c2: 29 80        	and	#$80
    11c4: 85 29        	sta	$29                     ; 0x2029 <exhaustZeroes+0x57>
    11c6: 8a           	txa
    11c7: 29 3f        	and	#$3f
    11c9: 85 28        	sta	$28                     ; 0x2028 <exhaustZeroes+0x56>
    11cb: a6 6f        	ldx	$6f                     ; 0x206f <exhaustZeroes+0x9d>
    11cd: 86 25        	stx	$25                     ; 0x2025 <exhaustZeroes+0x53>
    11cf: a6 70        	ldx	$70                     ; 0x2070 <exhaustZeroes+0x9e>
    11d1: 86 24        	stx	$24                     ; 0x2024 <exhaustZeroes+0x52>
    11d3: a2 16        	ldx	#$16
    11d5: 86 12        	stx	$12                     ; 0x2012 <exhaustZeroes+0x40>
    11d7: 64 13        	stz	$13                     ; 0x2013 <exhaustZeroes+0x41>
    11d9: a2 00        	ldx	#$0
    11db: a5 2d        	lda	$2d                     ; 0x202d <exhaustZeroes+0x5b>
    11dd: 20 0d 42     	jsr	$420d <__mulhi3>
    11e0: 85 12        	sta	$12                     ; 0x2012 <exhaustZeroes+0x40>
    11e2: 86 13        	stx	$13                     ; 0x2013 <exhaustZeroes+0x41>
    11e4: 18           	clc
    11e5: a5 25        	lda	$25                     ; 0x2025 <exhaustZeroes+0x53>
    11e7: 65 12        	adc	$12                     ; 0x2012 <exhaustZeroes+0x40>
    11e9: a8           	tay
    11ea: a5 24        	lda	$24                     ; 0x2024 <exhaustZeroes+0x52>
    11ec: 65 13        	adc	$13                     ; 0x2013 <exhaustZeroes+0x41>
    11ee: aa           	tax
    11ef: 84 12        	sty	$12                     ; 0x2012 <exhaustZeroes+0x40>
    11f1: 85 13        	sta	$13                     ; 0x2013 <exhaustZeroes+0x41>
    11f3: 18           	clc
    11f4: 98           	tya
    11f5: 69 08        	adc	#$8
    11f7: 85 14        	sta	$14                     ; 0x2014 <exhaustZeroes+0x42>
    11f9: 8a           	txa
    11fa: 69 00        	adc	#$0
    11fc: 85 15        	sta	$15                     ; 0x2015 <exhaustZeroes+0x43>
    11fe: 18           	clc
    11ff: 98           	tya
    1200: 69 04        	adc	#$4
    1202: 85 16        	sta	$16                     ; 0x2016 <exhaustZeroes+0x44>
    1204: 8a           	txa
    1205: 69 00        	adc	#$0
    1207: 85 17        	sta	$17                     ; 0x2017 <exhaustZeroes+0x45>
    1209: a0 04        	ldy	#$4
    120b: b1 12        	lda	($12),y                 ; 0x2012 <exhaustZeroes+0x40>
    120d: 85 18        	sta	$18                     ; 0x2018 <exhaustZeroes+0x46>
    120f: a0 01        	ldy	#$1
    1211: b1 16        	lda	($16),y                 ; 0x2016 <exhaustZeroes+0x44>
    1213: 85 19        	sta	$19                     ; 0x2019 <exhaustZeroes+0x47>
    1215: c8           	iny
    1216: b1 16        	lda	($16),y                 ; 0x2016 <exhaustZeroes+0x44>
    1218: aa           	tax
    1219: c8           	iny
    121a: b1 16        	lda	($16),y                 ; 0x2016 <exhaustZeroes+0x44>
    121c: a4 18        	ldy	$18                     ; 0x2018 <exhaustZeroes+0x46>
    121e: 84 1a        	sty	$1a                     ; 0x201a <exhaustZeroes+0x48>
    1220: a4 19        	ldy	$19                     ; 0x2019 <exhaustZeroes+0x47>
    1222: 84 1b        	sty	$1b                     ; 0x201b <exhaustZeroes+0x49>
    1224: 86 1c        	stx	$1c                     ; 0x201c <exhaustZeroes+0x4a>
    1226: e6 1a        	inc	$1a                     ; 0x201a <exhaustZeroes+0x48>
    1228: d0 09        	bne	$1233 <chainEvent+0x1dd>
    122a: e6 1b        	inc	$1b                     ; 0x201b <exhaustZeroes+0x49>
    122c: d0 05        	bne	$1233 <chainEvent+0x1dd>
    122e: e6 1c        	inc	$1c                     ; 0x201c <exhaustZeroes+0x4a>
    1230: d0 01        	bne	$1233 <chainEvent+0x1dd>
    1232: 1a           	inc
    1233: 85 1d        	sta	$1d                     ; 0x201d <exhaustZeroes+0x4b>
    1235: a0 04        	ldy	#$4
    1237: a5 1a        	lda	$1a                     ; 0x201a <exhaustZeroes+0x48>
    1239: 91 12        	sta	($12),y                 ; 0x2012 <exhaustZeroes+0x40>
    123b: a0 01        	ldy	#$1
    123d: a5 1b        	lda	$1b                     ; 0x201b <exhaustZeroes+0x49>
    123f: 91 16        	sta	($16),y                 ; 0x2016 <exhaustZeroes+0x44>
    1241: c8           	iny
    1242: a5 1c        	lda	$1c                     ; 0x201c <exhaustZeroes+0x4a>
    1244: 91 16        	sta	($16),y                 ; 0x2016 <exhaustZeroes+0x44>
    1246: c8           	iny
    1247: a5 1d        	lda	$1d                     ; 0x201d <exhaustZeroes+0x4b>
    1249: 91 16        	sta	($16),y                 ; 0x2016 <exhaustZeroes+0x44>
    124b: 18           	clc
    124c: a5 18        	lda	$18                     ; 0x2018 <exhaustZeroes+0x46>
    124e: a0 08        	ldy	#$8
    1250: 71 12        	adc	($12),y                 ; 0x2012 <exhaustZeroes+0x40>
    1252: 85 13        	sta	$13                     ; 0x2013 <exhaustZeroes+0x41>
    1254: a0 01        	ldy	#$1
    1256: a5 19        	lda	$19                     ; 0x2019 <exhaustZeroes+0x47>
    1258: 71 14        	adc	($14),y                 ; 0x2014 <exhaustZeroes+0x42>
    125a: 85 12        	sta	$12                     ; 0x2012 <exhaustZeroes+0x40>
    125c: c8           	iny
    125d: 8a           	txa
    125e: 71 14        	adc	($14),y                 ; 0x2014 <exhaustZeroes+0x42>
    1260: 85 14        	sta	$14                     ; 0x2014 <exhaustZeroes+0x42>
    1262: a5 12        	lda	$12                     ; 0x2012 <exhaustZeroes+0x40>
    1264: 06 12        	asl	$12                     ; 0x2012 <exhaustZeroes+0x40>
    1266: 26 14        	rol	$14                     ; 0x2014 <exhaustZeroes+0x42>
    1268: 06 12        	asl	$12                     ; 0x2012 <exhaustZeroes+0x40>
    126a: 26 14        	rol	$14                     ; 0x2014 <exhaustZeroes+0x42>
    126c: 06 12        	asl	$12                     ; 0x2012 <exhaustZeroes+0x40>
    126e: 26 14        	rol	$14                     ; 0x2014 <exhaustZeroes+0x42>
    1270: a4 14        	ldy	$14                     ; 0x2014 <exhaustZeroes+0x42>
    1272: a6 0f        	ldx	$f                      ; 0x200f <exhaustZeroes+0x3d>
    1274: 78           	sei
    1275: 84 0f        	sty	$f                      ; 0x200f <exhaustZeroes+0x3d>
    1277: a4 13        	ldy	$13                     ; 0x2013 <exhaustZeroes+0x41>
    1279: 84 12        	sty	$12                     ; 0x2012 <exhaustZeroes+0x40>
    127b: 09 e0        	ora	#$e0
    127d: 85 13        	sta	$13                     ; 0x2013 <exhaustZeroes+0x41>
    127f: b2 12        	lda	($12)                   ; 0x2012 <exhaustZeroes+0x40>
    1281: 86 0f        	stx	$f                      ; 0x200f <exhaustZeroes+0x3d>
    1283: 58           	cli
    1284: 64 25        	stz	$25                     ; 0x2025 <exhaustZeroes+0x53>
    1286: aa           	tax
    1287: 30 11        	bmi	$129a <chainEvent+0x244>
    1289: 64 26        	stz	$26                     ; 0x2026 <exhaustZeroes+0x54>
    128b: 64 2c        	stz	$2c                     ; 0x202c <exhaustZeroes+0x5a>
    128d: 64 27        	stz	$27                     ; 0x2027 <exhaustZeroes+0x55>
    128f: 64 12        	stz	$12                     ; 0x2012 <exhaustZeroes+0x40>
    1291: 64 2a        	stz	$2a                     ; 0x202a <exhaustZeroes+0x58>
    1293: 64 13        	stz	$13                     ; 0x2013 <exhaustZeroes+0x41>
    1295: 64 14        	stz	$14                     ; 0x2014 <exhaustZeroes+0x42>
    1297: 4c 7e 14     	jmp	$147e <chainEvent+0x428>
    129a: 64 26        	stz	$26                     ; 0x2026 <exhaustZeroes+0x54>
    129c: 4a           	lsr
    129d: aa           	tax
    129e: a9 00        	lda	#$0
    12a0: 6a           	ror
    12a1: 29 80        	and	#$80
    12a3: 85 24        	sta	$24                     ; 0x2024 <exhaustZeroes+0x52>
    12a5: 8a           	txa
    12a6: 29 3f        	and	#$3f
    12a8: 85 2c        	sta	$2c                     ; 0x202c <exhaustZeroes+0x5a>
    12aa: a6 28        	ldx	$28                     ; 0x2028 <exhaustZeroes+0x56>
    12ac: 86 2a        	stx	$2a                     ; 0x202a <exhaustZeroes+0x58>
    12ae: 46 2a        	lsr	$2a                     ; 0x202a <exhaustZeroes+0x58>
    12b0: a6 29        	ldx	$29                     ; 0x2029 <exhaustZeroes+0x57>
    12b2: 86 28        	stx	$28                     ; 0x2028 <exhaustZeroes+0x56>
    12b4: 66 28        	ror	$28                     ; 0x2028 <exhaustZeroes+0x56>
    12b6: 64 29        	stz	$29                     ; 0x2029 <exhaustZeroes+0x57>
    12b8: 66 29        	ror	$29                     ; 0x2029 <exhaustZeroes+0x57>
    12ba: a6 6f        	ldx	$6f                     ; 0x206f <exhaustZeroes+0x9d>
    12bc: 86 2b        	stx	$2b                     ; 0x202b <exhaustZeroes+0x59>
    12be: a6 70        	ldx	$70                     ; 0x2070 <exhaustZeroes+0x9e>
    12c0: 86 27        	stx	$27                     ; 0x2027 <exhaustZeroes+0x55>
    12c2: a2 16        	ldx	#$16
    12c4: 86 12        	stx	$12                     ; 0x2012 <exhaustZeroes+0x40>
    12c6: 64 13        	stz	$13                     ; 0x2013 <exhaustZeroes+0x41>
    12c8: a2 00        	ldx	#$0
    12ca: a5 2d        	lda	$2d                     ; 0x202d <exhaustZeroes+0x5b>
    12cc: 20 0d 42     	jsr	$420d <__mulhi3>
    12cf: 85 12        	sta	$12                     ; 0x2012 <exhaustZeroes+0x40>
    12d1: 86 13        	stx	$13                     ; 0x2013 <exhaustZeroes+0x41>
    12d3: 18           	clc
    12d4: a5 2b        	lda	$2b                     ; 0x202b <exhaustZeroes+0x59>
    12d6: 65 12        	adc	$12                     ; 0x2012 <exhaustZeroes+0x40>
    12d8: a8           	tay
    12d9: a5 27        	lda	$27                     ; 0x2027 <exhaustZeroes+0x55>
    12db: 65 13        	adc	$13                     ; 0x2013 <exhaustZeroes+0x41>
    12dd: aa           	tax
    12de: 84 12        	sty	$12                     ; 0x2012 <exhaustZeroes+0x40>
    12e0: 85 13        	sta	$13                     ; 0x2013 <exhaustZeroes+0x41>
    12e2: 18           	clc
    12e3: 98           	tya
    12e4: 69 08        	adc	#$8
    12e6: 85 14        	sta	$14                     ; 0x2014 <exhaustZeroes+0x42>
    12e8: 8a           	txa
    12e9: 69 00        	adc	#$0
    12eb: 85 15        	sta	$15                     ; 0x2015 <exhaustZeroes+0x43>
    12ed: 18           	clc
    12ee: 98           	tya
    12ef: 69 04        	adc	#$4
    12f1: 85 16        	sta	$16                     ; 0x2016 <exhaustZeroes+0x44>
    12f3: 8a           	txa
    12f4: 69 00        	adc	#$0
    12f6: 85 17        	sta	$17                     ; 0x2017 <exhaustZeroes+0x45>
    12f8: a0 04        	ldy	#$4
    12fa: b1 12        	lda	($12),y                 ; 0x2012 <exhaustZeroes+0x40>
    12fc: 85 18        	sta	$18                     ; 0x2018 <exhaustZeroes+0x46>
    12fe: a0 01        	ldy	#$1
    1300: b1 16        	lda	($16),y                 ; 0x2016 <exhaustZeroes+0x44>
    1302: 85 19        	sta	$19                     ; 0x2019 <exhaustZeroes+0x47>
    1304: c8           	iny
    1305: b1 16        	lda	($16),y                 ; 0x2016 <exhaustZeroes+0x44>
    1307: aa           	tax
    1308: c8           	iny
    1309: b1 16        	lda	($16),y                 ; 0x2016 <exhaustZeroes+0x44>
    130b: 85 1b        	sta	$1b                     ; 0x201b <exhaustZeroes+0x49>
    130d: 86 1a        	stx	$1a                     ; 0x201a <exhaustZeroes+0x48>
    130f: a5 18        	lda	$18                     ; 0x2018 <exhaustZeroes+0x46>
    1311: a4 19        	ldy	$19                     ; 0x2019 <exhaustZeroes+0x47>
    1313: 84 1c        	sty	$1c                     ; 0x201c <exhaustZeroes+0x4a>
    1315: 1a           	inc
    1316: d0 0a        	bne	$1322 <chainEvent+0x2cc>
    1318: e6 1c        	inc	$1c                     ; 0x201c <exhaustZeroes+0x4a>
    131a: d0 06        	bne	$1322 <chainEvent+0x2cc>
    131c: e6 1a        	inc	$1a                     ; 0x201a <exhaustZeroes+0x48>
    131e: d0 02        	bne	$1322 <chainEvent+0x2cc>
    1320: e6 1b        	inc	$1b                     ; 0x201b <exhaustZeroes+0x49>
    1322: a0 04        	ldy	#$4
    1324: 91 12        	sta	($12),y                 ; 0x2012 <exhaustZeroes+0x40>
    1326: a0 01        	ldy	#$1
    1328: a5 1c        	lda	$1c                     ; 0x201c <exhaustZeroes+0x4a>
    132a: 91 16        	sta	($16),y                 ; 0x2016 <exhaustZeroes+0x44>
    132c: c8           	iny
    132d: a5 1a        	lda	$1a                     ; 0x201a <exhaustZeroes+0x48>
    132f: 91 16        	sta	($16),y                 ; 0x2016 <exhaustZeroes+0x44>
    1331: c8           	iny
    1332: a5 1b        	lda	$1b                     ; 0x201b <exhaustZeroes+0x49>
    1334: 91 16        	sta	($16),y                 ; 0x2016 <exhaustZeroes+0x44>
    1336: 18           	clc
    1337: a5 18        	lda	$18                     ; 0x2018 <exhaustZeroes+0x46>
    1339: a0 08        	ldy	#$8
    133b: 71 12        	adc	($12),y                 ; 0x2012 <exhaustZeroes+0x40>
    133d: 85 13        	sta	$13                     ; 0x2013 <exhaustZeroes+0x41>
    133f: a0 01        	ldy	#$1
    1341: a5 19        	lda	$19                     ; 0x2019 <exhaustZeroes+0x47>
    1343: 71 14        	adc	($14),y                 ; 0x2014 <exhaustZeroes+0x42>
    1345: 85 12        	sta	$12                     ; 0x2012 <exhaustZeroes+0x40>
    1347: c8           	iny
    1348: 8a           	txa
    1349: 71 14        	adc	($14),y                 ; 0x2014 <exhaustZeroes+0x42>
    134b: 85 14        	sta	$14                     ; 0x2014 <exhaustZeroes+0x42>
    134d: a5 12        	lda	$12                     ; 0x2012 <exhaustZeroes+0x40>
    134f: 06 12        	asl	$12                     ; 0x2012 <exhaustZeroes+0x40>
    1351: 26 14        	rol	$14                     ; 0x2014 <exhaustZeroes+0x42>
    1353: 06 12        	asl	$12                     ; 0x2012 <exhaustZeroes+0x40>
    1355: 26 14        	rol	$14                     ; 0x2014 <exhaustZeroes+0x42>
    1357: 06 12        	asl	$12                     ; 0x2012 <exhaustZeroes+0x40>
    1359: 26 14        	rol	$14                     ; 0x2014 <exhaustZeroes+0x42>
    135b: a4 14        	ldy	$14                     ; 0x2014 <exhaustZeroes+0x42>
    135d: a6 0f        	ldx	$f                      ; 0x200f <exhaustZeroes+0x3d>
    135f: 78           	sei
    1360: 84 0f        	sty	$f                      ; 0x200f <exhaustZeroes+0x3d>
    1362: a4 13        	ldy	$13                     ; 0x2013 <exhaustZeroes+0x41>
    1364: 84 12        	sty	$12                     ; 0x2012 <exhaustZeroes+0x40>
    1366: 09 e0        	ora	#$e0
    1368: 85 13        	sta	$13                     ; 0x2013 <exhaustZeroes+0x41>
    136a: b2 12        	lda	($12)                   ; 0x2012 <exhaustZeroes+0x40>
    136c: 86 0f        	stx	$f                      ; 0x200f <exhaustZeroes+0x3d>
    136e: 58           	cli
    136f: aa           	tax
    1370: 30 0d        	bmi	$137f <chainEvent+0x329>
    1372: 64 27        	stz	$27                     ; 0x2027 <exhaustZeroes+0x55>
    1374: 85 12        	sta	$12                     ; 0x2012 <exhaustZeroes+0x40>
    1376: 64 13        	stz	$13                     ; 0x2013 <exhaustZeroes+0x41>
    1378: 64 14        	stz	$14                     ; 0x2014 <exhaustZeroes+0x42>
    137a: a5 24        	lda	$24                     ; 0x2024 <exhaustZeroes+0x52>
    137c: 4c 7e 14     	jmp	$147e <chainEvent+0x428>
    137f: 4a           	lsr
    1380: a2 00        	ldx	#$0
    1382: 64 12        	stz	$12                     ; 0x2012 <exhaustZeroes+0x40>
    1384: 66 12        	ror	$12                     ; 0x2012 <exhaustZeroes+0x40>
    1386: a6 2c        	ldx	$2c                     ; 0x202c <exhaustZeroes+0x5a>
    1388: 86 27        	stx	$27                     ; 0x2027 <exhaustZeroes+0x55>
    138a: 46 27        	lsr	$27                     ; 0x2027 <exhaustZeroes+0x55>
    138c: a6 24        	ldx	$24                     ; 0x2024 <exhaustZeroes+0x52>
    138e: 86 2c        	stx	$2c                     ; 0x202c <exhaustZeroes+0x5a>
    1390: 66 2c        	ror	$2c                     ; 0x202c <exhaustZeroes+0x5a>
    1392: 64 2b        	stz	$2b                     ; 0x202b <exhaustZeroes+0x59>
    1394: 66 2b        	ror	$2b                     ; 0x202b <exhaustZeroes+0x59>
    1396: a6 2a        	ldx	$2a                     ; 0x202a <exhaustZeroes+0x58>
    1398: 86 26        	stx	$26                     ; 0x2026 <exhaustZeroes+0x54>
    139a: 46 26        	lsr	$26                     ; 0x2026 <exhaustZeroes+0x54>
    139c: 66 28        	ror	$28                     ; 0x2028 <exhaustZeroes+0x56>
    139e: a6 28        	ldx	$28                     ; 0x2028 <exhaustZeroes+0x56>
    13a0: 86 2a        	stx	$2a                     ; 0x202a <exhaustZeroes+0x58>
    13a2: a6 29        	ldx	$29                     ; 0x2029 <exhaustZeroes+0x57>
    13a4: 86 28        	stx	$28                     ; 0x2028 <exhaustZeroes+0x56>
    13a6: 66 28        	ror	$28                     ; 0x2028 <exhaustZeroes+0x56>
    13a8: aa           	tax
    13a9: a9 00        	lda	#$0
    13ab: 6a           	ror
    13ac: 85 29        	sta	$29                     ; 0x2029 <exhaustZeroes+0x57>
    13ae: a5 12        	lda	$12                     ; 0x2012 <exhaustZeroes+0x40>
    13b0: 29 80        	and	#$80
    13b2: 85 24        	sta	$24                     ; 0x2024 <exhaustZeroes+0x52>
    13b4: 8a           	txa
    13b5: 29 3f        	and	#$3f
    13b7: 85 25        	sta	$25                     ; 0x2025 <exhaustZeroes+0x53>
    13b9: a6 6f        	ldx	$6f                     ; 0x206f <exhaustZeroes+0x9d>
    13bb: 86 2f        	stx	$2f                     ; 0x202f <exhaustZeroes+0x5d>
    13bd: a6 70        	ldx	$70                     ; 0x2070 <exhaustZeroes+0x9e>
    13bf: 86 2e        	stx	$2e                     ; 0x202e <exhaustZeroes+0x5c>
    13c1: a2 16        	ldx	#$16
    13c3: 86 12        	stx	$12                     ; 0x2012 <exhaustZeroes+0x40>
    13c5: 64 13        	stz	$13                     ; 0x2013 <exhaustZeroes+0x41>
    13c7: a2 00        	ldx	#$0
    13c9: a5 2d        	lda	$2d                     ; 0x202d <exhaustZeroes+0x5b>
    13cb: 20 0d 42     	jsr	$420d <__mulhi3>
    13ce: 85 12        	sta	$12                     ; 0x2012 <exhaustZeroes+0x40>
    13d0: 86 13        	stx	$13                     ; 0x2013 <exhaustZeroes+0x41>
    13d2: 18           	clc
    13d3: a5 2f        	lda	$2f                     ; 0x202f <exhaustZeroes+0x5d>
    13d5: 65 12        	adc	$12                     ; 0x2012 <exhaustZeroes+0x40>
    13d7: a8           	tay
    13d8: a5 2e        	lda	$2e                     ; 0x202e <exhaustZeroes+0x5c>
    13da: 65 13        	adc	$13                     ; 0x2013 <exhaustZeroes+0x41>
    13dc: aa           	tax
    13dd: 18           	clc
    13de: 98           	tya
    13df: 69 08        	adc	#$8
    13e1: 85 12        	sta	$12                     ; 0x2012 <exhaustZeroes+0x40>
    13e3: 8a           	txa
    13e4: 69 00        	adc	#$0
    13e6: 84 14        	sty	$14                     ; 0x2014 <exhaustZeroes+0x42>
    13e8: 86 15        	stx	$15                     ; 0x2015 <exhaustZeroes+0x43>
    13ea: 85 13        	sta	$13                     ; 0x2013 <exhaustZeroes+0x41>
    13ec: 18           	clc
    13ed: 98           	tya
    13ee: 69 04        	adc	#$4
    13f0: 85 16        	sta	$16                     ; 0x2016 <exhaustZeroes+0x44>
    13f2: 8a           	txa
    13f3: 69 00        	adc	#$0
    13f5: 85 17        	sta	$17                     ; 0x2017 <exhaustZeroes+0x45>
    13f7: a0 04        	ldy	#$4
    13f9: b1 14        	lda	($14),y                 ; 0x2014 <exhaustZeroes+0x42>
    13fb: 85 18        	sta	$18                     ; 0x2018 <exhaustZeroes+0x46>
    13fd: a0 01        	ldy	#$1
    13ff: b1 16        	lda	($16),y                 ; 0x2016 <exhaustZeroes+0x44>
    1401: 85 19        	sta	$19                     ; 0x2019 <exhaustZeroes+0x47>
    1403: c8           	iny
    1404: b1 16        	lda	($16),y                 ; 0x2016 <exhaustZeroes+0x44>
    1406: aa           	tax
    1407: c8           	iny
    1408: b1 16        	lda	($16),y                 ; 0x2016 <exhaustZeroes+0x44>
    140a: 85 1b        	sta	$1b                     ; 0x201b <exhaustZeroes+0x49>
    140c: 86 1a        	stx	$1a                     ; 0x201a <exhaustZeroes+0x48>
    140e: a5 18        	lda	$18                     ; 0x2018 <exhaustZeroes+0x46>
    1410: a4 19        	ldy	$19                     ; 0x2019 <exhaustZeroes+0x47>
    1412: 84 1c        	sty	$1c                     ; 0x201c <exhaustZeroes+0x4a>
    1414: 1a           	inc
    1415: d0 0a        	bne	$1421 <chainEvent+0x3cb>
    1417: e6 1c        	inc	$1c                     ; 0x201c <exhaustZeroes+0x4a>
    1419: d0 06        	bne	$1421 <chainEvent+0x3cb>
    141b: e6 1a        	inc	$1a                     ; 0x201a <exhaustZeroes+0x48>
    141d: d0 02        	bne	$1421 <chainEvent+0x3cb>
    141f: e6 1b        	inc	$1b                     ; 0x201b <exhaustZeroes+0x49>
    1421: a0 04        	ldy	#$4
    1423: 91 14        	sta	($14),y                 ; 0x2014 <exhaustZeroes+0x42>
    1425: a0 01        	ldy	#$1
    1427: a5 1c        	lda	$1c                     ; 0x201c <exhaustZeroes+0x4a>
    1429: 91 16        	sta	($16),y                 ; 0x2016 <exhaustZeroes+0x44>
    142b: c8           	iny
    142c: a5 1a        	lda	$1a                     ; 0x201a <exhaustZeroes+0x48>
    142e: 91 16        	sta	($16),y                 ; 0x2016 <exhaustZeroes+0x44>
    1430: c8           	iny
    1431: a5 1b        	lda	$1b                     ; 0x201b <exhaustZeroes+0x49>
    1433: 91 16        	sta	($16),y                 ; 0x2016 <exhaustZeroes+0x44>
    1435: 18           	clc
    1436: a5 18        	lda	$18                     ; 0x2018 <exhaustZeroes+0x46>
    1438: a0 08        	ldy	#$8
    143a: 71 14        	adc	($14),y                 ; 0x2014 <exhaustZeroes+0x42>
    143c: 85 14        	sta	$14                     ; 0x2014 <exhaustZeroes+0x42>
    143e: a5 19        	lda	$19                     ; 0x2019 <exhaustZeroes+0x47>
    1440: a0 01        	ldy	#$1
    1442: 71 12        	adc	($12),y                 ; 0x2012 <exhaustZeroes+0x40>
    1444: 85 15        	sta	$15                     ; 0x2015 <exhaustZeroes+0x43>
    1446: 8a           	txa
    1447: c8           	iny
    1448: 71 12        	adc	($12),y                 ; 0x2012 <exhaustZeroes+0x40>
    144a: 85 13        	sta	$13                     ; 0x2013 <exhaustZeroes+0x41>
    144c: a5 15        	lda	$15                     ; 0x2015 <exhaustZeroes+0x43>
    144e: 85 12        	sta	$12                     ; 0x2012 <exhaustZeroes+0x40>
    1450: 06 12        	asl	$12                     ; 0x2012 <exhaustZeroes+0x40>
    1452: 26 13        	rol	$13                     ; 0x2013 <exhaustZeroes+0x41>
    1454: 06 12        	asl	$12                     ; 0x2012 <exhaustZeroes+0x40>
    1456: 26 13        	rol	$13                     ; 0x2013 <exhaustZeroes+0x41>
    1458: 06 12        	asl	$12                     ; 0x2012 <exhaustZeroes+0x40>
    145a: 26 13        	rol	$13                     ; 0x2013 <exhaustZeroes+0x41>
    145c: a4 13        	ldy	$13                     ; 0x2013 <exhaustZeroes+0x41>
    145e: a6 0f        	ldx	$f                      ; 0x200f <exhaustZeroes+0x3d>
    1460: 78           	sei
    1461: 84 0f        	sty	$f                      ; 0x200f <exhaustZeroes+0x3d>
    1463: a4 14        	ldy	$14                     ; 0x2014 <exhaustZeroes+0x42>
    1465: 84 12        	sty	$12                     ; 0x2012 <exhaustZeroes+0x40>
    1467: 09 e0        	ora	#$e0
    1469: 85 13        	sta	$13                     ; 0x2013 <exhaustZeroes+0x41>
    146b: b2 12        	lda	($12)                   ; 0x2012 <exhaustZeroes+0x40>
    146d: 86 0f        	stx	$f                      ; 0x200f <exhaustZeroes+0x3d>
    146f: a6 24        	ldx	$24                     ; 0x2024 <exhaustZeroes+0x52>
    1471: 86 12        	stx	$12                     ; 0x2012 <exhaustZeroes+0x40>
    1473: a6 25        	ldx	$25                     ; 0x2025 <exhaustZeroes+0x53>
    1475: 86 13        	stx	$13                     ; 0x2013 <exhaustZeroes+0x41>
    1477: 85 14        	sta	$14                     ; 0x2014 <exhaustZeroes+0x42>
    1479: a5 2b        	lda	$2b                     ; 0x202b <exhaustZeroes+0x59>
    147b: 64 25        	stz	$25                     ; 0x2025 <exhaustZeroes+0x53>
    147d: 58           	cli
    147e: 85 16        	sta	$16                     ; 0x2016 <exhaustZeroes+0x44>
    1480: a5 29        	lda	$29                     ; 0x2029 <exhaustZeroes+0x57>
    1482: 05 16        	ora	$16                     ; 0x2016 <exhaustZeroes+0x44>
    1484: a8           	tay
    1485: a5 28        	lda	$28                     ; 0x2028 <exhaustZeroes+0x56>
    1487: 05 2c        	ora	$2c                     ; 0x202c <exhaustZeroes+0x5a>
    1489: aa           	tax
    148a: a5 2a        	lda	$2a                     ; 0x202a <exhaustZeroes+0x58>
    148c: 05 27        	ora	$27                     ; 0x2027 <exhaustZeroes+0x55>
    148e: 85 16        	sta	$16                     ; 0x2016 <exhaustZeroes+0x44>
    1490: 98           	tya
    1491: 05 12        	ora	$12                     ; 0x2012 <exhaustZeroes+0x40>
    1493: a8           	tay
    1494: 8a           	txa
    1495: 05 13        	ora	$13                     ; 0x2013 <exhaustZeroes+0x41>
    1497: 85 15        	sta	$15                     ; 0x2015 <exhaustZeroes+0x43>
    1499: 98           	tya
    149a: 05 14        	ora	$14                     ; 0x2014 <exhaustZeroes+0x42>
    149c: 85 14        	sta	$14                     ; 0x2014 <exhaustZeroes+0x42>
    149e: a5 71        	lda	$71                     ; 0x2071 <exhaustZeroes+0x9f>
    14a0: a6 72        	ldx	$72                     ; 0x2072 <exhaustZeroes+0xa0>
    14a2: 86 18        	stx	$18                     ; 0x2018 <exhaustZeroes+0x46>
    14a4: a4 73        	ldy	$73                     ; 0x2073 <exhaustZeroes+0xa1>
    14a6: a6 74        	ldx	$74                     ; 0x2074 <exhaustZeroes+0xa2>
    14a8: 84 12        	sty	$12                     ; 0x2012 <exhaustZeroes+0x40>
    14aa: 86 13        	stx	$13                     ; 0x2013 <exhaustZeroes+0x41>
    14ac: a6 26        	ldx	$26                     ; 0x2026 <exhaustZeroes+0x54>
    14ae: 86 17        	stx	$17                     ; 0x2017 <exhaustZeroes+0x45>
    14b0: a6 18        	ldx	$18                     ; 0x2018 <exhaustZeroes+0x46>
    14b2: 20 3f 42     	jsr	$423f <__mulsi3>
    14b5: 85 26        	sta	$26                     ; 0x2026 <exhaustZeroes+0x54>
    14b7: 86 27        	stx	$27                     ; 0x2027 <exhaustZeroes+0x55>
    14b9: a6 12        	ldx	$12                     ; 0x2012 <exhaustZeroes+0x40>
    14bb: 86 28        	stx	$28                     ; 0x2028 <exhaustZeroes+0x56>
    14bd: a6 13        	ldx	$13                     ; 0x2013 <exhaustZeroes+0x41>
    14bf: 86 29        	stx	$29                     ; 0x2029 <exhaustZeroes+0x57>
    14c1: a6 6f        	ldx	$6f                     ; 0x206f <exhaustZeroes+0x9d>
    14c3: 86 2a        	stx	$2a                     ; 0x202a <exhaustZeroes+0x58>
    14c5: a6 70        	ldx	$70                     ; 0x2070 <exhaustZeroes+0x9e>
    14c7: 86 24        	stx	$24                     ; 0x2024 <exhaustZeroes+0x52>
    14c9: a2 16        	ldx	#$16
    14cb: 86 12        	stx	$12                     ; 0x2012 <exhaustZeroes+0x40>
    14cd: 64 13        	stz	$13                     ; 0x2013 <exhaustZeroes+0x41>
    14cf: a2 00        	ldx	#$0
    14d1: a5 2d        	lda	$2d                     ; 0x202d <exhaustZeroes+0x5b>
    14d3: 20 0d 42     	jsr	$420d <__mulhi3>
    14d6: 85 13        	sta	$13                     ; 0x2013 <exhaustZeroes+0x41>
    14d8: 86 12        	stx	$12                     ; 0x2012 <exhaustZeroes+0x40>
    14da: 18           	clc
    14db: a5 2a        	lda	$2a                     ; 0x202a <exhaustZeroes+0x58>
    14dd: 65 13        	adc	$13                     ; 0x2013 <exhaustZeroes+0x41>
    14df: 85 19        	sta	$19                     ; 0x2019 <exhaustZeroes+0x47>
    14e1: a5 24        	lda	$24                     ; 0x2024 <exhaustZeroes+0x52>
    14e3: 65 12        	adc	$12                     ; 0x2012 <exhaustZeroes+0x40>
    14e5: aa           	tax
    14e6: 18           	clc
    14e7: a5 19        	lda	$19                     ; 0x2019 <exhaustZeroes+0x47>
    14e9: 69 0c        	adc	#$c
    14eb: 85 14        	sta	$14                     ; 0x2014 <exhaustZeroes+0x42>
    14ed: 8a           	txa
    14ee: 69 00        	adc	#$0
    14f0: 85 15        	sta	$15                     ; 0x2015 <exhaustZeroes+0x43>
    14f2: a4 19        	ldy	$19                     ; 0x2019 <exhaustZeroes+0x47>
    14f4: 84 16        	sty	$16                     ; 0x2016 <exhaustZeroes+0x44>
    14f6: 86 17        	stx	$17                     ; 0x2017 <exhaustZeroes+0x45>
    14f8: a0 0c        	ldy	#$c
    14fa: a5 26        	lda	$26                     ; 0x2026 <exhaustZeroes+0x54>
    14fc: 91 16        	sta	($16),y                 ; 0x2016 <exhaustZeroes+0x44>
    14fe: a0 01        	ldy	#$1
    1500: a5 27        	lda	$27                     ; 0x2027 <exhaustZeroes+0x55>
    1502: 91 14        	sta	($14),y                 ; 0x2014 <exhaustZeroes+0x42>
    1504: c8           	iny
    1505: a5 28        	lda	$28                     ; 0x2028 <exhaustZeroes+0x56>
    1507: 91 14        	sta	($14),y                 ; 0x2014 <exhaustZeroes+0x42>
    1509: c8           	iny
    150a: a5 29        	lda	$29                     ; 0x2029 <exhaustZeroes+0x57>
    150c: 91 14        	sta	($14),y                 ; 0x2014 <exhaustZeroes+0x42>
    150e: 18           	clc
    150f: a5 19        	lda	$19                     ; 0x2019 <exhaustZeroes+0x47>
    1511: 69 08        	adc	#$8
    1513: 85 14        	sta	$14                     ; 0x2014 <exhaustZeroes+0x42>
    1515: 8a           	txa
    1516: 69 00        	adc	#$0
    1518: 85 15        	sta	$15                     ; 0x2015 <exhaustZeroes+0x43>
    151a: a0 08        	ldy	#$8
    151c: b1 16        	lda	($16),y                 ; 0x2016 <exhaustZeroes+0x44>
    151e: 85 18        	sta	$18                     ; 0x2018 <exhaustZeroes+0x46>
    1520: a0 01        	ldy	#$1
    1522: b1 14        	lda	($14),y                 ; 0x2014 <exhaustZeroes+0x42>
    1524: 85 1b        	sta	$1b                     ; 0x201b <exhaustZeroes+0x49>
    1526: c8           	iny
    1527: b1 14        	lda	($14),y                 ; 0x2014 <exhaustZeroes+0x42>
    1529: 85 1a        	sta	$1a                     ; 0x201a <exhaustZeroes+0x48>
    152b: 18           	clc
    152c: a5 19        	lda	$19                     ; 0x2019 <exhaustZeroes+0x47>
    152e: 69 04        	adc	#$4
    1530: 85 14        	sta	$14                     ; 0x2014 <exhaustZeroes+0x42>
    1532: 8a           	txa
    1533: 69 00        	adc	#$0
    1535: 85 15        	sta	$15                     ; 0x2015 <exhaustZeroes+0x43>
    1537: 18           	clc
    1538: a0 04        	ldy	#$4
    153a: a5 18        	lda	$18                     ; 0x2018 <exhaustZeroes+0x46>
    153c: 71 16        	adc	($16),y                 ; 0x2016 <exhaustZeroes+0x44>
    153e: 85 16        	sta	$16                     ; 0x2016 <exhaustZeroes+0x44>
    1540: a0 01        	ldy	#$1
    1542: a5 1b        	lda	$1b                     ; 0x201b <exhaustZeroes+0x49>
    1544: 71 14        	adc	($14),y                 ; 0x2014 <exhaustZeroes+0x42>
    1546: 85 17        	sta	$17                     ; 0x2017 <exhaustZeroes+0x45>
    1548: a5 1a        	lda	$1a                     ; 0x201a <exhaustZeroes+0x48>
    154a: c8           	iny
    154b: 71 14        	adc	($14),y                 ; 0x2014 <exhaustZeroes+0x42>
    154d: 85 15        	sta	$15                     ; 0x2015 <exhaustZeroes+0x43>
    154f: a6 0f        	ldx	$f                      ; 0x200f <exhaustZeroes+0x3d>
    1551: 78           	sei
    1552: a5 17        	lda	$17                     ; 0x2017 <exhaustZeroes+0x45>
    1554: 85 14        	sta	$14                     ; 0x2014 <exhaustZeroes+0x42>
    1556: 06 14        	asl	$14                     ; 0x2014 <exhaustZeroes+0x42>
    1558: 26 15        	rol	$15                     ; 0x2015 <exhaustZeroes+0x43>
    155a: 06 14        	asl	$14                     ; 0x2014 <exhaustZeroes+0x42>
    155c: 26 15        	rol	$15                     ; 0x2015 <exhaustZeroes+0x43>
    155e: 06 14        	asl	$14                     ; 0x2014 <exhaustZeroes+0x42>
    1560: 26 15        	rol	$15                     ; 0x2015 <exhaustZeroes+0x43>
    1562: a4 15        	ldy	$15                     ; 0x2015 <exhaustZeroes+0x43>
    1564: 84 0f        	sty	$f                      ; 0x200f <exhaustZeroes+0x3d>
    1566: 09 e0        	ora	#$e0
    1568: a4 16        	ldy	$16                     ; 0x2016 <exhaustZeroes+0x44>
    156a: 84 14        	sty	$14                     ; 0x2014 <exhaustZeroes+0x42>
    156c: 85 15        	sta	$15                     ; 0x2015 <exhaustZeroes+0x43>
    156e: b2 14        	lda	($14)                   ; 0x2014 <exhaustZeroes+0x42>
    1570: 85 2f        	sta	$2f                     ; 0x202f <exhaustZeroes+0x5d>
    1572: 86 0f        	stx	$f                      ; 0x200f <exhaustZeroes+0x3d>
    1574: 58           	cli
    1575: 18           	clc
    1576: a5 13        	lda	$13                     ; 0x2013 <exhaustZeroes+0x41>
    1578: 65 6f        	adc	$6f                     ; 0x206f <exhaustZeroes+0x9d>
    157a: aa           	tax
    157b: a5 12        	lda	$12                     ; 0x2012 <exhaustZeroes+0x40>
    157d: 65 70        	adc	$70                     ; 0x2070 <exhaustZeroes+0x9e>
    157f: 85 18        	sta	$18                     ; 0x2018 <exhaustZeroes+0x46>
    1581: 18           	clc
    1582: 8a           	txa
    1583: 69 08        	adc	#$8
    1585: 85 14        	sta	$14                     ; 0x2014 <exhaustZeroes+0x42>
    1587: a5 18        	lda	$18                     ; 0x2018 <exhaustZeroes+0x46>
    1589: 69 00        	adc	#$0
    158b: 86 16        	stx	$16                     ; 0x2016 <exhaustZeroes+0x44>
    158d: a4 18        	ldy	$18                     ; 0x2018 <exhaustZeroes+0x46>
    158f: 84 17        	sty	$17                     ; 0x2017 <exhaustZeroes+0x45>
    1591: a4 18        	ldy	$18                     ; 0x2018 <exhaustZeroes+0x46>
    1593: 85 15        	sta	$15                     ; 0x2015 <exhaustZeroes+0x43>
    1595: 18           	clc
    1596: 8a           	txa
    1597: 69 04        	adc	#$4
    1599: 85 18        	sta	$18                     ; 0x2018 <exhaustZeroes+0x46>
    159b: 98           	tya
    159c: 69 00        	adc	#$0
    159e: 85 19        	sta	$19                     ; 0x2019 <exhaustZeroes+0x47>
    15a0: a0 04        	ldy	#$4
    15a2: b1 16        	lda	($16),y                 ; 0x2016 <exhaustZeroes+0x44>
    15a4: 85 1c        	sta	$1c                     ; 0x201c <exhaustZeroes+0x4a>
    15a6: a0 01        	ldy	#$1
    15a8: b1 18        	lda	($18),y                 ; 0x2018 <exhaustZeroes+0x46>
    15aa: aa           	tax
    15ab: c8           	iny
    15ac: b1 18        	lda	($18),y                 ; 0x2018 <exhaustZeroes+0x46>
    15ae: 85 1d        	sta	$1d                     ; 0x201d <exhaustZeroes+0x4b>
    15b0: c8           	iny
    15b1: b1 18        	lda	($18),y                 ; 0x2018 <exhaustZeroes+0x46>
    15b3: 85 18        	sta	$18                     ; 0x2018 <exhaustZeroes+0x46>
    15b5: 18           	clc
    15b6: a0 08        	ldy	#$8
    15b8: a5 1c        	lda	$1c                     ; 0x201c <exhaustZeroes+0x4a>
    15ba: 71 16        	adc	($16),y                 ; 0x2016 <exhaustZeroes+0x44>
    15bc: 85 16        	sta	$16                     ; 0x2016 <exhaustZeroes+0x44>
    15be: a0 01        	ldy	#$1
    15c0: 8a           	txa
    15c1: 71 14        	adc	($14),y                 ; 0x2014 <exhaustZeroes+0x42>
    15c3: 85 17        	sta	$17                     ; 0x2017 <exhaustZeroes+0x45>
    15c5: c8           	iny
    15c6: a5 1d        	lda	$1d                     ; 0x201d <exhaustZeroes+0x4b>
    15c8: 71 14        	adc	($14),y                 ; 0x2014 <exhaustZeroes+0x42>
    15ca: aa           	tax
    15cb: c8           	iny
    15cc: a5 18        	lda	$18                     ; 0x2018 <exhaustZeroes+0x46>
    15ce: 71 14        	adc	($14),y                 ; 0x2014 <exhaustZeroes+0x42>
    15d0: e6 16        	inc	$16                     ; 0x2016 <exhaustZeroes+0x44>
    15d2: d0 08        	bne	$15dc <chainEvent+0x586>
    15d4: e6 17        	inc	$17                     ; 0x2017 <exhaustZeroes+0x45>
    15d6: d0 04        	bne	$15dc <chainEvent+0x586>
    15d8: e8           	inx
    15d9: d0 01        	bne	$15dc <chainEvent+0x586>
    15db: 1a           	inc
    15dc: a5 17        	lda	$17                     ; 0x2017 <exhaustZeroes+0x45>
    15de: 85 14        	sta	$14                     ; 0x2014 <exhaustZeroes+0x42>
    15e0: 06 14        	asl	$14                     ; 0x2014 <exhaustZeroes+0x42>
    15e2: 86 15        	stx	$15                     ; 0x2015 <exhaustZeroes+0x43>
    15e4: 26 15        	rol	$15                     ; 0x2015 <exhaustZeroes+0x43>
    15e6: 06 14        	asl	$14                     ; 0x2014 <exhaustZeroes+0x42>
    15e8: 26 15        	rol	$15                     ; 0x2015 <exhaustZeroes+0x43>
    15ea: 06 14        	asl	$14                     ; 0x2014 <exhaustZeroes+0x42>
    15ec: 26 15        	rol	$15                     ; 0x2015 <exhaustZeroes+0x43>
    15ee: a4 15        	ldy	$15                     ; 0x2015 <exhaustZeroes+0x43>
    15f0: a6 0f        	ldx	$f                      ; 0x200f <exhaustZeroes+0x3d>
    15f2: 78           	sei
    15f3: 84 0f        	sty	$f                      ; 0x200f <exhaustZeroes+0x3d>
    15f5: 09 e0        	ora	#$e0
    15f7: a4 16        	ldy	$16                     ; 0x2016 <exhaustZeroes+0x44>
    15f9: 84 14        	sty	$14                     ; 0x2014 <exhaustZeroes+0x42>
    15fb: 85 15        	sta	$15                     ; 0x2015 <exhaustZeroes+0x43>
    15fd: b2 14        	lda	($14)                   ; 0x2014 <exhaustZeroes+0x42>
    15ff: 85 1c        	sta	$1c                     ; 0x201c <exhaustZeroes+0x4a>
    1601: 86 0f        	stx	$f                      ; 0x200f <exhaustZeroes+0x3d>
    1603: 58           	cli
    1604: 18           	clc
    1605: a5 13        	lda	$13                     ; 0x2013 <exhaustZeroes+0x41>
    1607: 65 6f        	adc	$6f                     ; 0x206f <exhaustZeroes+0x9d>
    1609: a8           	tay
    160a: a5 12        	lda	$12                     ; 0x2012 <exhaustZeroes+0x40>
    160c: 65 70        	adc	$70                     ; 0x2070 <exhaustZeroes+0x9e>
    160e: aa           	tax
    160f: 18           	clc
    1610: 98           	tya
    1611: 69 08        	adc	#$8
    1613: 85 16        	sta	$16                     ; 0x2016 <exhaustZeroes+0x44>
    1615: 8a           	txa
    1616: 69 00        	adc	#$0
    1618: 84 14        	sty	$14                     ; 0x2014 <exhaustZeroes+0x42>
    161a: 86 15        	stx	$15                     ; 0x2015 <exhaustZeroes+0x43>
    161c: 85 17        	sta	$17                     ; 0x2017 <exhaustZeroes+0x45>
    161e: 18           	clc
    161f: 98           	tya
    1620: 69 04        	adc	#$4
    1622: 85 18        	sta	$18                     ; 0x2018 <exhaustZeroes+0x46>
    1624: 8a           	txa
    1625: 69 00        	adc	#$0
    1627: 85 19        	sta	$19                     ; 0x2019 <exhaustZeroes+0x47>
    1629: a0 04        	ldy	#$4
    162b: b1 14        	lda	($14),y                 ; 0x2014 <exhaustZeroes+0x42>
    162d: 85 1a        	sta	$1a                     ; 0x201a <exhaustZeroes+0x48>
    162f: a0 01        	ldy	#$1
    1631: b1 18        	lda	($18),y                 ; 0x2018 <exhaustZeroes+0x46>
    1633: 85 1b        	sta	$1b                     ; 0x201b <exhaustZeroes+0x49>
    1635: c8           	iny
    1636: b1 18        	lda	($18),y                 ; 0x2018 <exhaustZeroes+0x46>
    1638: 85 18        	sta	$18                     ; 0x2018 <exhaustZeroes+0x46>
    163a: 18           	clc
    163b: a0 08        	ldy	#$8
    163d: a5 1a        	lda	$1a                     ; 0x201a <exhaustZeroes+0x48>
    163f: 71 14        	adc	($14),y                 ; 0x2014 <exhaustZeroes+0x42>
    1641: 85 14        	sta	$14                     ; 0x2014 <exhaustZeroes+0x42>
    1643: a0 01        	ldy	#$1
    1645: a5 1b        	lda	$1b                     ; 0x201b <exhaustZeroes+0x49>
    1647: 71 16        	adc	($16),y                 ; 0x2016 <exhaustZeroes+0x44>
    1649: 85 19        	sta	$19                     ; 0x2019 <exhaustZeroes+0x47>
    164b: c8           	iny
    164c: a5 18        	lda	$18                     ; 0x2018 <exhaustZeroes+0x46>
    164e: 71 16        	adc	($16),y                 ; 0x2016 <exhaustZeroes+0x44>
    1650: 85 15        	sta	$15                     ; 0x2015 <exhaustZeroes+0x43>
    1652: 18           	clc
    1653: a5 14        	lda	$14                     ; 0x2014 <exhaustZeroes+0x42>
    1655: 69 02        	adc	#$2
    1657: 85 16        	sta	$16                     ; 0x2016 <exhaustZeroes+0x44>
    1659: a5 19        	lda	$19                     ; 0x2019 <exhaustZeroes+0x47>
    165b: 69 00        	adc	#$0
    165d: aa           	tax
    165e: a5 15        	lda	$15                     ; 0x2015 <exhaustZeroes+0x43>
    1660: 69 00        	adc	#$0
    1662: 85 15        	sta	$15                     ; 0x2015 <exhaustZeroes+0x43>
    1664: 8a           	txa
    1665: 86 14        	stx	$14                     ; 0x2014 <exhaustZeroes+0x42>
    1667: 06 14        	asl	$14                     ; 0x2014 <exhaustZeroes+0x42>
    1669: 26 15        	rol	$15                     ; 0x2015 <exhaustZeroes+0x43>
    166b: 06 14        	asl	$14                     ; 0x2014 <exhaustZeroes+0x42>
    166d: 26 15        	rol	$15                     ; 0x2015 <exhaustZeroes+0x43>
    166f: 06 14        	asl	$14                     ; 0x2014 <exhaustZeroes+0x42>
    1671: 26 15        	rol	$15                     ; 0x2015 <exhaustZeroes+0x43>
    1673: a4 15        	ldy	$15                     ; 0x2015 <exhaustZeroes+0x43>
    1675: a6 0f        	ldx	$f                      ; 0x200f <exhaustZeroes+0x3d>
    1677: 78           	sei
    1678: 84 0f        	sty	$f                      ; 0x200f <exhaustZeroes+0x3d>
    167a: 09 e0        	ora	#$e0
    167c: a4 16        	ldy	$16                     ; 0x2016 <exhaustZeroes+0x44>
    167e: 84 14        	sty	$14                     ; 0x2014 <exhaustZeroes+0x42>
    1680: 85 15        	sta	$15                     ; 0x2015 <exhaustZeroes+0x43>
    1682: b2 14        	lda	($14)                   ; 0x2014 <exhaustZeroes+0x42>
    1684: 85 14        	sta	$14                     ; 0x2014 <exhaustZeroes+0x42>
    1686: 86 0f        	stx	$f                      ; 0x200f <exhaustZeroes+0x3d>
    1688: 58           	cli
    1689: a5 6f        	lda	$6f                     ; 0x206f <exhaustZeroes+0x9d>
    168b: a6 70        	ldx	$70                     ; 0x2070 <exhaustZeroes+0x9e>
    168d: 85 2a        	sta	$2a                     ; 0x202a <exhaustZeroes+0x58>
    168f: 18           	clc
    1690: 65 13        	adc	$13                     ; 0x2013 <exhaustZeroes+0x41>
    1692: 85 15        	sta	$15                     ; 0x2015 <exhaustZeroes+0x43>
    1694: 8a           	txa
    1695: 65 12        	adc	$12                     ; 0x2012 <exhaustZeroes+0x40>
    1697: a8           	tay
    1698: a5 15        	lda	$15                     ; 0x2015 <exhaustZeroes+0x43>
    169a: 85 28        	sta	$28                     ; 0x2028 <exhaustZeroes+0x56>
    169c: 84 29        	sty	$29                     ; 0x2029 <exhaustZeroes+0x57>
    169e: 18           	clc
    169f: 69 04        	adc	#$4
    16a1: 85 26        	sta	$26                     ; 0x2026 <exhaustZeroes+0x54>
    16a3: 98           	tya
    16a4: 69 00        	adc	#$0
    16a6: 85 27        	sta	$27                     ; 0x2027 <exhaustZeroes+0x55>
    16a8: a0 10        	ldy	#$10
    16aa: a5 2f        	lda	$2f                     ; 0x202f <exhaustZeroes+0x5d>
    16ac: 91 28        	sta	($28),y                 ; 0x2028 <exhaustZeroes+0x56>
    16ae: c8           	iny
    16af: a5 1c        	lda	$1c                     ; 0x201c <exhaustZeroes+0x4a>
    16b1: 85 24        	sta	$24                     ; 0x2024 <exhaustZeroes+0x52>
    16b3: 91 28        	sta	($28),y                 ; 0x2028 <exhaustZeroes+0x56>
    16b5: c8           	iny
    16b6: a5 14        	lda	$14                     ; 0x2014 <exhaustZeroes+0x42>
    16b8: 91 28        	sta	($28),y                 ; 0x2028 <exhaustZeroes+0x56>
    16ba: a0 04        	ldy	#$4
    16bc: b1 28        	lda	($28),y                 ; 0x2028 <exhaustZeroes+0x56>
    16be: 85 15        	sta	$15                     ; 0x2015 <exhaustZeroes+0x43>
    16c0: a0 01        	ldy	#$1
    16c2: b1 26        	lda	($26),y                 ; 0x2026 <exhaustZeroes+0x54>
    16c4: 85 12        	sta	$12                     ; 0x2012 <exhaustZeroes+0x40>
    16c6: c8           	iny
    16c7: b1 26        	lda	($26),y                 ; 0x2026 <exhaustZeroes+0x54>
    16c9: 85 17        	sta	$17                     ; 0x2017 <exhaustZeroes+0x45>
    16cb: c8           	iny
    16cc: b1 26        	lda	($26),y                 ; 0x2026 <exhaustZeroes+0x54>
    16ce: 85 13        	sta	$13                     ; 0x2013 <exhaustZeroes+0x41>
    16d0: a5 15        	lda	$15                     ; 0x2015 <exhaustZeroes+0x43>
    16d2: 85 2b        	sta	$2b                     ; 0x202b <exhaustZeroes+0x59>
    16d4: a4 12        	ldy	$12                     ; 0x2012 <exhaustZeroes+0x40>
    16d6: 84 2e        	sty	$2e                     ; 0x202e <exhaustZeroes+0x5c>
    16d8: a4 2d        	ldy	$2d                     ; 0x202d <exhaustZeroes+0x5b>
    16da: 84 15        	sty	$15                     ; 0x2015 <exhaustZeroes+0x43>
    16dc: a4 17        	ldy	$17                     ; 0x2017 <exhaustZeroes+0x45>
    16de: 84 2d        	sty	$2d                     ; 0x202d <exhaustZeroes+0x5b>
    16e0: 84 18        	sty	$18                     ; 0x2018 <exhaustZeroes+0x46>
    16e2: a4 13        	ldy	$13                     ; 0x2013 <exhaustZeroes+0x41>
    16e4: 84 25        	sty	$25                     ; 0x2025 <exhaustZeroes+0x53>
    16e6: 1a           	inc
    16e7: d0 0a        	bne	$16f3 <chainEvent+0x69d>
    16e9: e6 12        	inc	$12                     ; 0x2012 <exhaustZeroes+0x40>
    16eb: d0 06        	bne	$16f3 <chainEvent+0x69d>
    16ed: e6 18        	inc	$18                     ; 0x2018 <exhaustZeroes+0x46>
    16ef: d0 02        	bne	$16f3 <chainEvent+0x69d>
    16f1: e6 13        	inc	$13                     ; 0x2013 <exhaustZeroes+0x41>
    16f3: 85 17        	sta	$17                     ; 0x2017 <exhaustZeroes+0x45>
    16f5: a0 04        	ldy	#$4
    16f7: 91 28        	sta	($28),y                 ; 0x2028 <exhaustZeroes+0x56>
    16f9: a5 12        	lda	$12                     ; 0x2012 <exhaustZeroes+0x40>
    16fb: a0 01        	ldy	#$1
    16fd: 85 16        	sta	$16                     ; 0x2016 <exhaustZeroes+0x44>
    16ff: 91 26        	sta	($26),y                 ; 0x2026 <exhaustZeroes+0x54>
    1701: c8           	iny
    1702: a5 18        	lda	$18                     ; 0x2018 <exhaustZeroes+0x46>
    1704: 91 26        	sta	($26),y                 ; 0x2026 <exhaustZeroes+0x54>
    1706: a5 13        	lda	$13                     ; 0x2013 <exhaustZeroes+0x41>
    1708: c8           	iny
    1709: 91 26        	sta	($26),y                 ; 0x2026 <exhaustZeroes+0x54>
    170b: a4 2f        	ldy	$2f                     ; 0x202f <exhaustZeroes+0x5d>
    170d: 10 03        	bpl	$1712 <chainEvent+0x6bc>
    170f: 4c 74 17     	jmp	$1774 <chainEvent+0x71e>
    1712: 86 2c        	stx	$2c                     ; 0x202c <exhaustZeroes+0x5a>
    1714: a2 16        	ldx	#$16
    1716: 86 12        	stx	$12                     ; 0x2012 <exhaustZeroes+0x40>
    1718: 64 13        	stz	$13                     ; 0x2013 <exhaustZeroes+0x41>
    171a: a2 00        	ldx	#$0
    171c: a5 15        	lda	$15                     ; 0x2015 <exhaustZeroes+0x43>
    171e: 20 0d 42     	jsr	$420d <__mulhi3>
    1721: 85 12        	sta	$12                     ; 0x2012 <exhaustZeroes+0x40>
    1723: 86 13        	stx	$13                     ; 0x2013 <exhaustZeroes+0x41>
    1725: a5 2a        	lda	$2a                     ; 0x202a <exhaustZeroes+0x58>
    1727: 18           	clc
    1728: 65 12        	adc	$12                     ; 0x2012 <exhaustZeroes+0x40>
    172a: 85 12        	sta	$12                     ; 0x2012 <exhaustZeroes+0x40>
    172c: a5 2c        	lda	$2c                     ; 0x202c <exhaustZeroes+0x5a>
    172e: a0 0d        	ldy	#$d
    1730: 91 10        	sta	($10),y                 ; 0x2010 <exhaustZeroes+0x3e>
    1732: 65 13        	adc	$13                     ; 0x2013 <exhaustZeroes+0x41>
    1734: 85 13        	sta	$13                     ; 0x2013 <exhaustZeroes+0x41>
    1736: a0 13        	ldy	#$13
    1738: b1 12        	lda	($12),y                 ; 0x2012 <exhaustZeroes+0x40>
    173a: a0 10        	ldy	#$10
    173c: 91 28        	sta	($28),y                 ; 0x2028 <exhaustZeroes+0x56>
    173e: a0 04        	ldy	#$4
    1740: a5 2b        	lda	$2b                     ; 0x202b <exhaustZeroes+0x59>
    1742: 91 28        	sta	($28),y                 ; 0x2028 <exhaustZeroes+0x56>
    1744: 85 17        	sta	$17                     ; 0x2017 <exhaustZeroes+0x45>
    1746: a5 2e        	lda	$2e                     ; 0x202e <exhaustZeroes+0x5c>
    1748: a0 01        	ldy	#$1
    174a: 91 26        	sta	($26),y                 ; 0x2026 <exhaustZeroes+0x54>
    174c: c8           	iny
    174d: 85 16        	sta	$16                     ; 0x2016 <exhaustZeroes+0x44>
    174f: a5 2d        	lda	$2d                     ; 0x202d <exhaustZeroes+0x5b>
    1751: 91 26        	sta	($26),y                 ; 0x2026 <exhaustZeroes+0x54>
    1753: 85 15        	sta	$15                     ; 0x2015 <exhaustZeroes+0x43>
    1755: a0 13        	ldy	#$13
    1757: b1 12        	lda	($12),y                 ; 0x2012 <exhaustZeroes+0x40>
    1759: 85 2c        	sta	$2c                     ; 0x202c <exhaustZeroes+0x5a>
    175b: a5 2f        	lda	$2f                     ; 0x202f <exhaustZeroes+0x5d>
    175d: a0 11        	ldy	#$11
    175f: 91 28        	sta	($28),y                 ; 0x2028 <exhaustZeroes+0x56>
    1761: a5 24        	lda	$24                     ; 0x2024 <exhaustZeroes+0x52>
    1763: 85 14        	sta	$14                     ; 0x2014 <exhaustZeroes+0x42>
    1765: c8           	iny
    1766: 91 28        	sta	($28),y                 ; 0x2028 <exhaustZeroes+0x56>
    1768: a5 25        	lda	$25                     ; 0x2025 <exhaustZeroes+0x53>
    176a: a0 03        	ldy	#$3
    176c: 91 26        	sta	($26),y                 ; 0x2026 <exhaustZeroes+0x54>
    176e: a4 25        	ldy	$25                     ; 0x2025 <exhaustZeroes+0x53>
    1770: a5 2f        	lda	$2f                     ; 0x202f <exhaustZeroes+0x5d>
    1772: 80 12        	bra	$1786 <chainEvent+0x730>
    1774: 48           	pha
    1775: 8a           	txa
    1776: a0 0d        	ldy	#$d
    1778: 91 10        	sta	($10),y                 ; 0x2010 <exhaustZeroes+0x3e>
    177a: 68           	pla
    177b: a6 18        	ldx	$18                     ; 0x2018 <exhaustZeroes+0x46>
    177d: 86 15        	stx	$15                     ; 0x2015 <exhaustZeroes+0x43>
    177f: a8           	tay
    1780: a6 2f        	ldx	$2f                     ; 0x202f <exhaustZeroes+0x5d>
    1782: 86 2c        	stx	$2c                     ; 0x202c <exhaustZeroes+0x5a>
    1784: a5 24        	lda	$24                     ; 0x2024 <exhaustZeroes+0x52>
    1786: a6 2c        	ldx	$2c                     ; 0x202c <exhaustZeroes+0x5a>
    1788: e0 ff        	cpx	#$ff
    178a: f0 03        	beq	$178f <chainEvent+0x739>
    178c: 4c 24 1b     	jmp	$1b24 <chainEvent+0xace>
    178f: 84 12        	sty	$12                     ; 0x2012 <exhaustZeroes+0x40>
    1791: 85 13        	sta	$13                     ; 0x2013 <exhaustZeroes+0x41>
    1793: 38           	sec
    1794: e9 20        	sbc	#$20
    1796: 50 02        	bvc	$179a <chainEvent+0x744>
    1798: 49 80        	eor	#$80
    179a: 48           	pha
    179b: a0 0d        	ldy	#$d
    179d: b1 10        	lda	($10),y                 ; 0x2010 <exhaustZeroes+0x3e>
    179f: aa           	tax
    17a0: 68           	pla
    17a1: 86 2b        	stx	$2b                     ; 0x202b <exhaustZeroes+0x59>
    17a3: 30 03        	bmi	$17a8 <chainEvent+0x752>
    17a5: 4c fb 17     	jmp	$17fb <chainEvent+0x7a5>
    17a8: a6 13        	ldx	$13                     ; 0x2013 <exhaustZeroes+0x41>
    17aa: ca           	dex
    17ab: e0 07        	cpx	#$7
    17ad: 90 03        	bcc	$17b2 <chainEvent+0x75c>
    17af: 4c aa 10     	jmp	$10aa <chainEvent+0x54>
    17b2: 18           	clc
    17b3: a5 14        	lda	$14                     ; 0x2014 <exhaustZeroes+0x42>
    17b5: 65 17        	adc	$17                     ; 0x2017 <exhaustZeroes+0x45>
    17b7: aa           	tax
    17b8: 64 13        	stz	$13                     ; 0x2013 <exhaustZeroes+0x41>
    17ba: a9 00        	lda	#$0
    17bc: 65 16        	adc	$16                     ; 0x2016 <exhaustZeroes+0x44>
    17be: a8           	tay
    17bf: a9 00        	lda	#$0
    17c1: 65 15        	adc	$15                     ; 0x2015 <exhaustZeroes+0x43>
    17c3: 85 15        	sta	$15                     ; 0x2015 <exhaustZeroes+0x43>
    17c5: a5 12        	lda	$12                     ; 0x2012 <exhaustZeroes+0x40>
    17c7: 65 13        	adc	$13                     ; 0x2013 <exhaustZeroes+0x41>
    17c9: 85 14        	sta	$14                     ; 0x2014 <exhaustZeroes+0x42>
    17cb: 18           	clc
    17cc: 8a           	txa
    17cd: 69 02        	adc	#$2
    17cf: 85 12        	sta	$12                     ; 0x2012 <exhaustZeroes+0x40>
    17d1: 98           	tya
    17d2: 69 00        	adc	#$0
    17d4: 85 13        	sta	$13                     ; 0x2013 <exhaustZeroes+0x41>
    17d6: a5 15        	lda	$15                     ; 0x2015 <exhaustZeroes+0x43>
    17d8: 69 00        	adc	#$0
    17da: 85 15        	sta	$15                     ; 0x2015 <exhaustZeroes+0x43>
    17dc: a5 14        	lda	$14                     ; 0x2014 <exhaustZeroes+0x42>
    17de: 69 00        	adc	#$0
    17e0: 85 14        	sta	$14                     ; 0x2014 <exhaustZeroes+0x42>
    17e2: a0 04        	ldy	#$4
    17e4: a5 12        	lda	$12                     ; 0x2012 <exhaustZeroes+0x40>
    17e6: 91 28        	sta	($28),y                 ; 0x2028 <exhaustZeroes+0x56>
    17e8: a0 01        	ldy	#$1
    17ea: a5 13        	lda	$13                     ; 0x2013 <exhaustZeroes+0x41>
    17ec: 91 26        	sta	($26),y                 ; 0x2026 <exhaustZeroes+0x54>
    17ee: c8           	iny
    17ef: a5 15        	lda	$15                     ; 0x2015 <exhaustZeroes+0x43>
    17f1: 91 26        	sta	($26),y                 ; 0x2026 <exhaustZeroes+0x54>
    17f3: c8           	iny
    17f4: a5 14        	lda	$14                     ; 0x2014 <exhaustZeroes+0x42>
    17f6: 91 26        	sta	($26),y                 ; 0x2026 <exhaustZeroes+0x54>
    17f8: 4c f0 10     	jmp	$10f0 <chainEvent+0x9a>
    17fb: a4 2a        	ldy	$2a                     ; 0x202a <exhaustZeroes+0x58>
    17fd: 84 25        	sty	$25                     ; 0x2025 <exhaustZeroes+0x53>
    17ff: 86 2f        	stx	$2f                     ; 0x202f <exhaustZeroes+0x5d>
    1801: 18           	clc
    1802: a5 13        	lda	$13                     ; 0x2013 <exhaustZeroes+0x41>
    1804: 69 af        	adc	#$af
    1806: c9 09        	cmp	#$9
    1808: 90 03        	bcc	$180d <chainEvent+0x7b7>
    180a: 4c c9 1a     	jmp	$1ac9 <chainEvent+0xa73>
    180d: 0a           	asl
    180e: aa           	tax
    180f: 7c 51 44     	jmp	($4451,x)               ; 0x4451 <__set_v+0x1>
    1812: a5 17        	lda	$17                     ; 0x2017 <exhaustZeroes+0x45>
    1814: a6 16        	ldx	$16                     ; 0x2016 <exhaustZeroes+0x44>
    1816: 86 2b        	stx	$2b                     ; 0x202b <exhaustZeroes+0x59>
    1818: a6 15        	ldx	$15                     ; 0x2015 <exhaustZeroes+0x43>
    181a: 86 24        	stx	$24                     ; 0x2024 <exhaustZeroes+0x52>
    181c: a6 12        	ldx	$12                     ; 0x2012 <exhaustZeroes+0x40>
    181e: 86 2a        	stx	$2a                     ; 0x202a <exhaustZeroes+0x58>
    1820: 1a           	inc
    1821: d0 0a        	bne	$182d <chainEvent+0x7d7>
    1823: e6 2b        	inc	$2b                     ; 0x202b <exhaustZeroes+0x59>
    1825: d0 06        	bne	$182d <chainEvent+0x7d7>
    1827: e6 24        	inc	$24                     ; 0x2024 <exhaustZeroes+0x52>
    1829: d0 02        	bne	$182d <chainEvent+0x7d7>
    182b: e6 2a        	inc	$2a                     ; 0x202a <exhaustZeroes+0x58>
    182d: a0 04        	ldy	#$4
    182f: 91 28        	sta	($28),y                 ; 0x2028 <exhaustZeroes+0x56>
    1831: 85 28        	sta	$28                     ; 0x2028 <exhaustZeroes+0x56>
    1833: a0 01        	ldy	#$1
    1835: a5 2b        	lda	$2b                     ; 0x202b <exhaustZeroes+0x59>
    1837: 91 26        	sta	($26),y                 ; 0x2026 <exhaustZeroes+0x54>
    1839: c8           	iny
    183a: a5 24        	lda	$24                     ; 0x2024 <exhaustZeroes+0x52>
    183c: 91 26        	sta	($26),y                 ; 0x2026 <exhaustZeroes+0x54>
    183e: a5 2a        	lda	$2a                     ; 0x202a <exhaustZeroes+0x58>
    1840: c8           	iny
    1841: 91 26        	sta	($26),y                 ; 0x2026 <exhaustZeroes+0x54>
    1843: a2 16        	ldx	#$16
    1845: 86 12        	stx	$12                     ; 0x2012 <exhaustZeroes+0x40>
    1847: 64 13        	stz	$13                     ; 0x2013 <exhaustZeroes+0x41>
    1849: a2 00        	ldx	#$0
    184b: a0 0c        	ldy	#$c
    184d: b1 10        	lda	($10),y                 ; 0x2010 <exhaustZeroes+0x3e>
    184f: 20 0d 42     	jsr	$420d <__mulhi3>
    1852: 86 26        	stx	$26                     ; 0x2026 <exhaustZeroes+0x54>
    1854: 85 12        	sta	$12                     ; 0x2012 <exhaustZeroes+0x40>
    1856: 85 27        	sta	$27                     ; 0x2027 <exhaustZeroes+0x55>
    1858: 86 13        	stx	$13                     ; 0x2013 <exhaustZeroes+0x41>
    185a: 18           	clc
    185b: a5 25        	lda	$25                     ; 0x2025 <exhaustZeroes+0x53>
    185d: 65 12        	adc	$12                     ; 0x2012 <exhaustZeroes+0x40>
    185f: aa           	tax
    1860: a5 2f        	lda	$2f                     ; 0x202f <exhaustZeroes+0x5d>
    1862: 65 13        	adc	$13                     ; 0x2013 <exhaustZeroes+0x41>
    1864: 86 12        	stx	$12                     ; 0x2012 <exhaustZeroes+0x40>
    1866: 85 13        	sta	$13                     ; 0x2013 <exhaustZeroes+0x41>
    1868: a8           	tay
    1869: 18           	clc
    186a: 8a           	txa
    186b: 69 08        	adc	#$8
    186d: 85 14        	sta	$14                     ; 0x2014 <exhaustZeroes+0x42>
    186f: 98           	tya
    1870: 69 00        	adc	#$0
    1872: 85 15        	sta	$15                     ; 0x2015 <exhaustZeroes+0x43>
    1874: 18           	clc
    1875: a0 08        	ldy	#$8
    1877: a5 28        	lda	$28                     ; 0x2028 <exhaustZeroes+0x56>
    1879: 71 12        	adc	($12),y                 ; 0x2012 <exhaustZeroes+0x40>
    187b: 85 13        	sta	$13                     ; 0x2013 <exhaustZeroes+0x41>
    187d: a0 01        	ldy	#$1
    187f: a5 2b        	lda	$2b                     ; 0x202b <exhaustZeroes+0x59>
    1881: 71 14        	adc	($14),y                 ; 0x2014 <exhaustZeroes+0x42>
    1883: aa           	tax
    1884: c8           	iny
    1885: a5 24        	lda	$24                     ; 0x2024 <exhaustZeroes+0x52>
    1887: 71 14        	adc	($14),y                 ; 0x2014 <exhaustZeroes+0x42>
    1889: 85 12        	sta	$12                     ; 0x2012 <exhaustZeroes+0x40>
    188b: a5 2a        	lda	$2a                     ; 0x202a <exhaustZeroes+0x58>
    188d: c8           	iny
    188e: 71 14        	adc	($14),y                 ; 0x2014 <exhaustZeroes+0x42>
    1890: e6 13        	inc	$13                     ; 0x2013 <exhaustZeroes+0x41>
    1892: d0 08        	bne	$189c <chainEvent+0x846>
    1894: e8           	inx
    1895: d0 05        	bne	$189c <chainEvent+0x846>
    1897: e6 12        	inc	$12                     ; 0x2012 <exhaustZeroes+0x40>
    1899: d0 01        	bne	$189c <chainEvent+0x846>
    189b: 1a           	inc
    189c: da           	phx
    189d: 7a           	ply
    189e: a6 0f        	ldx	$f                      ; 0x200f <exhaustZeroes+0x3d>
    18a0: 78           	sei
    18a1: 98           	tya
    18a2: 0a           	asl
    18a3: 26 12        	rol	$12                     ; 0x2012 <exhaustZeroes+0x40>
    18a5: 0a           	asl
    18a6: 26 12        	rol	$12                     ; 0x2012 <exhaustZeroes+0x40>
    18a8: 0a           	asl
    18a9: a5 12        	lda	$12                     ; 0x2012 <exhaustZeroes+0x40>
    18ab: 2a           	rol
    18ac: 85 0f        	sta	$f                      ; 0x200f <exhaustZeroes+0x3d>
    18ae: 98           	tya
    18af: 09 e0        	ora	#$e0
    18b1: a4 13        	ldy	$13                     ; 0x2013 <exhaustZeroes+0x41>
    18b3: 84 12        	sty	$12                     ; 0x2012 <exhaustZeroes+0x40>
    18b5: 85 13        	sta	$13                     ; 0x2013 <exhaustZeroes+0x41>
    18b7: b2 12        	lda	($12)                   ; 0x2012 <exhaustZeroes+0x40>
    18b9: 85 12        	sta	$12                     ; 0x2012 <exhaustZeroes+0x40>
    18bb: 86 0f        	stx	$f                      ; 0x200f <exhaustZeroes+0x3d>
    18bd: 58           	cli
    18be: 18           	clc
    18bf: a5 27        	lda	$27                     ; 0x2027 <exhaustZeroes+0x55>
    18c1: 65 6f        	adc	$6f                     ; 0x206f <exhaustZeroes+0x9d>
    18c3: aa           	tax
    18c4: a5 26        	lda	$26                     ; 0x2026 <exhaustZeroes+0x54>
    18c6: 65 70        	adc	$70                     ; 0x2070 <exhaustZeroes+0x9e>
    18c8: 86 18        	stx	$18                     ; 0x2018 <exhaustZeroes+0x46>
    18ca: 85 19        	sta	$19                     ; 0x2019 <exhaustZeroes+0x47>
    18cc: a8           	tay
    18cd: 8a           	txa
    18ce: 18           	clc
    18cf: 69 08        	adc	#$8
    18d1: 85 14        	sta	$14                     ; 0x2014 <exhaustZeroes+0x42>
    18d3: 98           	tya
    18d4: 69 00        	adc	#$0
    18d6: 85 15        	sta	$15                     ; 0x2015 <exhaustZeroes+0x43>
    18d8: 18           	clc
    18d9: 8a           	txa
    18da: 69 04        	adc	#$4
    18dc: 85 16        	sta	$16                     ; 0x2016 <exhaustZeroes+0x44>
    18de: 98           	tya
    18df: 69 00        	adc	#$0
    18e1: 85 17        	sta	$17                     ; 0x2017 <exhaustZeroes+0x45>
    18e3: a0 04        	ldy	#$4
    18e5: b1 18        	lda	($18),y                 ; 0x2018 <exhaustZeroes+0x46>
    18e7: 85 13        	sta	$13                     ; 0x2013 <exhaustZeroes+0x41>
    18e9: a0 01        	ldy	#$1
    18eb: b1 16        	lda	($16),y                 ; 0x2016 <exhaustZeroes+0x44>
    18ed: 85 1a        	sta	$1a                     ; 0x201a <exhaustZeroes+0x48>
    18ef: c8           	iny
    18f0: b1 16        	lda	($16),y                 ; 0x2016 <exhaustZeroes+0x44>
    18f2: 85 16        	sta	$16                     ; 0x2016 <exhaustZeroes+0x44>
    18f4: 18           	clc
    18f5: a0 08        	ldy	#$8
    18f7: a5 13        	lda	$13                     ; 0x2013 <exhaustZeroes+0x41>
    18f9: 71 18        	adc	($18),y                 ; 0x2018 <exhaustZeroes+0x46>
    18fb: 85 13        	sta	$13                     ; 0x2013 <exhaustZeroes+0x41>
    18fd: a0 01        	ldy	#$1
    18ff: a5 1a        	lda	$1a                     ; 0x201a <exhaustZeroes+0x48>
    1901: 71 14        	adc	($14),y                 ; 0x2014 <exhaustZeroes+0x42>
    1903: 85 17        	sta	$17                     ; 0x2017 <exhaustZeroes+0x45>
    1905: c8           	iny
    1906: a5 16        	lda	$16                     ; 0x2016 <exhaustZeroes+0x44>
    1908: 71 14        	adc	($14),y                 ; 0x2014 <exhaustZeroes+0x42>
    190a: 85 15        	sta	$15                     ; 0x2015 <exhaustZeroes+0x43>
    190c: 18           	clc
    190d: a5 13        	lda	$13                     ; 0x2013 <exhaustZeroes+0x41>
    190f: 69 02        	adc	#$2
    1911: 85 14        	sta	$14                     ; 0x2014 <exhaustZeroes+0x42>
    1913: a5 17        	lda	$17                     ; 0x2017 <exhaustZeroes+0x45>
    1915: 69 00        	adc	#$0
    1917: a8           	tay
    1918: a5 15        	lda	$15                     ; 0x2015 <exhaustZeroes+0x43>
    191a: 69 00        	adc	#$0
    191c: 85 15        	sta	$15                     ; 0x2015 <exhaustZeroes+0x43>
    191e: a6 0f        	ldx	$f                      ; 0x200f <exhaustZeroes+0x3d>
    1920: 78           	sei
    1921: 98           	tya
    1922: 84 13        	sty	$13                     ; 0x2013 <exhaustZeroes+0x41>
    1924: 06 13        	asl	$13                     ; 0x2013 <exhaustZeroes+0x41>
    1926: 26 15        	rol	$15                     ; 0x2015 <exhaustZeroes+0x43>
    1928: 06 13        	asl	$13                     ; 0x2013 <exhaustZeroes+0x41>
    192a: 26 15        	rol	$15                     ; 0x2015 <exhaustZeroes+0x43>
    192c: 06 13        	asl	$13                     ; 0x2013 <exhaustZeroes+0x41>
    192e: 26 15        	rol	$15                     ; 0x2015 <exhaustZeroes+0x43>
    1930: a4 15        	ldy	$15                     ; 0x2015 <exhaustZeroes+0x43>
    1932: 84 0f        	sty	$f                      ; 0x200f <exhaustZeroes+0x3d>
    1934: 09 e0        	ora	#$e0
    1936: 85 15        	sta	$15                     ; 0x2015 <exhaustZeroes+0x43>
    1938: b2 14        	lda	($14)                   ; 0x2014 <exhaustZeroes+0x42>
    193a: 85 1a        	sta	$1a                     ; 0x201a <exhaustZeroes+0x48>
    193c: 86 0f        	stx	$f                      ; 0x200f <exhaustZeroes+0x3d>
    193e: 58           	cli
    193f: 18           	clc
    1940: a5 27        	lda	$27                     ; 0x2027 <exhaustZeroes+0x55>
    1942: 65 6f        	adc	$6f                     ; 0x206f <exhaustZeroes+0x9d>
    1944: aa           	tax
    1945: a5 26        	lda	$26                     ; 0x2026 <exhaustZeroes+0x54>
    1947: 65 70        	adc	$70                     ; 0x2070 <exhaustZeroes+0x9e>
    1949: a8           	tay
    194a: 18           	clc
    194b: 8a           	txa
    194c: 69 08        	adc	#$8
    194e: 85 14        	sta	$14                     ; 0x2014 <exhaustZeroes+0x42>
    1950: 98           	tya
    1951: 69 00        	adc	#$0
    1953: 86 18        	stx	$18                     ; 0x2018 <exhaustZeroes+0x46>
    1955: 84 19        	sty	$19                     ; 0x2019 <exhaustZeroes+0x47>
    1957: 85 15        	sta	$15                     ; 0x2015 <exhaustZeroes+0x43>
    1959: 18           	clc
    195a: 8a           	txa
    195b: 69 04        	adc	#$4
    195d: 85 16        	sta	$16                     ; 0x2016 <exhaustZeroes+0x44>
    195f: 98           	tya
    1960: 69 00        	adc	#$0
    1962: 85 17        	sta	$17                     ; 0x2017 <exhaustZeroes+0x45>
    1964: a0 04        	ldy	#$4
    1966: b1 18        	lda	($18),y                 ; 0x2018 <exhaustZeroes+0x46>
    1968: 85 13        	sta	$13                     ; 0x2013 <exhaustZeroes+0x41>
    196a: a0 01        	ldy	#$1
    196c: b1 16        	lda	($16),y                 ; 0x2016 <exhaustZeroes+0x44>
    196e: 85 1b        	sta	$1b                     ; 0x201b <exhaustZeroes+0x49>
    1970: c8           	iny
    1971: b1 16        	lda	($16),y                 ; 0x2016 <exhaustZeroes+0x44>
    1973: 85 16        	sta	$16                     ; 0x2016 <exhaustZeroes+0x44>
    1975: 18           	clc
    1976: a0 08        	ldy	#$8
    1978: a5 13        	lda	$13                     ; 0x2013 <exhaustZeroes+0x41>
    197a: 71 18        	adc	($18),y                 ; 0x2018 <exhaustZeroes+0x46>
    197c: 85 13        	sta	$13                     ; 0x2013 <exhaustZeroes+0x41>
    197e: a0 01        	ldy	#$1
    1980: a5 1b        	lda	$1b                     ; 0x201b <exhaustZeroes+0x49>
    1982: 71 14        	adc	($14),y                 ; 0x2014 <exhaustZeroes+0x42>
    1984: 85 17        	sta	$17                     ; 0x2017 <exhaustZeroes+0x45>
    1986: c8           	iny
    1987: a5 16        	lda	$16                     ; 0x2016 <exhaustZeroes+0x44>
    1989: 71 14        	adc	($14),y                 ; 0x2014 <exhaustZeroes+0x42>
    198b: 85 15        	sta	$15                     ; 0x2015 <exhaustZeroes+0x43>
    198d: 18           	clc
    198e: a5 13        	lda	$13                     ; 0x2013 <exhaustZeroes+0x41>
    1990: 69 03        	adc	#$3
    1992: 85 14        	sta	$14                     ; 0x2014 <exhaustZeroes+0x42>
    1994: a5 17        	lda	$17                     ; 0x2017 <exhaustZeroes+0x45>
    1996: 69 00        	adc	#$0
    1998: aa           	tax
    1999: a5 15        	lda	$15                     ; 0x2015 <exhaustZeroes+0x43>
    199b: 69 00        	adc	#$0
    199d: 85 15        	sta	$15                     ; 0x2015 <exhaustZeroes+0x43>
    199f: 8a           	txa
    19a0: 86 13        	stx	$13                     ; 0x2013 <exhaustZeroes+0x41>
    19a2: 06 13        	asl	$13                     ; 0x2013 <exhaustZeroes+0x41>
    19a4: 26 15        	rol	$15                     ; 0x2015 <exhaustZeroes+0x43>
    19a6: 06 13        	asl	$13                     ; 0x2013 <exhaustZeroes+0x41>
    19a8: 26 15        	rol	$15                     ; 0x2015 <exhaustZeroes+0x43>
    19aa: 06 13        	asl	$13                     ; 0x2013 <exhaustZeroes+0x41>
    19ac: 26 15        	rol	$15                     ; 0x2015 <exhaustZeroes+0x43>
    19ae: a4 15        	ldy	$15                     ; 0x2015 <exhaustZeroes+0x43>
    19b0: a6 0f        	ldx	$f                      ; 0x200f <exhaustZeroes+0x3d>
    19b2: 78           	sei
    19b3: 84 0f        	sty	$f                      ; 0x200f <exhaustZeroes+0x3d>
    19b5: 09 e0        	ora	#$e0
    19b7: 85 15        	sta	$15                     ; 0x2015 <exhaustZeroes+0x43>
    19b9: b2 14        	lda	($14)                   ; 0x2014 <exhaustZeroes+0x42>
    19bb: 85 18        	sta	$18                     ; 0x2018 <exhaustZeroes+0x46>
    19bd: 86 0f        	stx	$f                      ; 0x200f <exhaustZeroes+0x3d>
    19bf: 58           	cli
    19c0: 18           	clc
    19c1: a5 27        	lda	$27                     ; 0x2027 <exhaustZeroes+0x55>
    19c3: 65 6f        	adc	$6f                     ; 0x206f <exhaustZeroes+0x9d>
    19c5: aa           	tax
    19c6: a5 26        	lda	$26                     ; 0x2026 <exhaustZeroes+0x54>
    19c8: 65 70        	adc	$70                     ; 0x2070 <exhaustZeroes+0x9e>
    19ca: 86 16        	stx	$16                     ; 0x2016 <exhaustZeroes+0x44>
    19cc: 85 17        	sta	$17                     ; 0x2017 <exhaustZeroes+0x45>
    19ce: a8           	tay
    19cf: 18           	clc
    19d0: 8a           	txa
    19d1: 69 04        	adc	#$4
    19d3: 85 14        	sta	$14                     ; 0x2014 <exhaustZeroes+0x42>
    19d5: 98           	tya
    19d6: 69 00        	adc	#$0
    19d8: 85 15        	sta	$15                     ; 0x2015 <exhaustZeroes+0x43>
    19da: a0 04        	ldy	#$4
    19dc: b1 16        	lda	($16),y                 ; 0x2016 <exhaustZeroes+0x44>
    19de: 85 19        	sta	$19                     ; 0x2019 <exhaustZeroes+0x47>
    19e0: a0 01        	ldy	#$1
    19e2: b1 14        	lda	($14),y                 ; 0x2014 <exhaustZeroes+0x42>
    19e4: 85 13        	sta	$13                     ; 0x2013 <exhaustZeroes+0x41>
    19e6: 18           	clc
    19e7: a5 19        	lda	$19                     ; 0x2019 <exhaustZeroes+0x47>
    19e9: 69 04        	adc	#$4
    19eb: aa           	tax
    19ec: a5 13        	lda	$13                     ; 0x2013 <exhaustZeroes+0x41>
    19ee: 69 00        	adc	#$0
    19f0: 85 13        	sta	$13                     ; 0x2013 <exhaustZeroes+0x41>
    19f2: c8           	iny
    19f3: b1 14        	lda	($14),y                 ; 0x2014 <exhaustZeroes+0x42>
    19f5: 69 00        	adc	#$0
    19f7: 85 19        	sta	$19                     ; 0x2019 <exhaustZeroes+0x47>
    19f9: c8           	iny
    19fa: b1 14        	lda	($14),y                 ; 0x2014 <exhaustZeroes+0x42>
    19fc: 69 00        	adc	#$0
    19fe: 85 1b        	sta	$1b                     ; 0x201b <exhaustZeroes+0x49>
    1a00: c8           	iny
    1a01: 8a           	txa
    1a02: 91 16        	sta	($16),y                 ; 0x2016 <exhaustZeroes+0x44>
    1a04: a5 13        	lda	$13                     ; 0x2013 <exhaustZeroes+0x41>
    1a06: a0 01        	ldy	#$1
    1a08: 91 14        	sta	($14),y                 ; 0x2014 <exhaustZeroes+0x42>
    1a0a: c8           	iny
    1a0b: a5 19        	lda	$19                     ; 0x2019 <exhaustZeroes+0x47>
    1a0d: 91 14        	sta	($14),y                 ; 0x2014 <exhaustZeroes+0x42>
    1a0f: c8           	iny
    1a10: a5 1b        	lda	$1b                     ; 0x201b <exhaustZeroes+0x49>
    1a12: 91 14        	sta	($14),y                 ; 0x2014 <exhaustZeroes+0x42>
    1a14: a6 66        	ldx	$66                     ; 0x2066 <exhaustZeroes+0x94>
    1a16: a4 67        	ldy	$67                     ; 0x2067 <exhaustZeroes+0x95>
    1a18: 64 13        	stz	$13                     ; 0x2013 <exhaustZeroes+0x41>
    1a1a: 86 14        	stx	$14                     ; 0x2014 <exhaustZeroes+0x42>
    1a1c: 84 15        	sty	$15                     ; 0x2015 <exhaustZeroes+0x43>
    1a1e: 64 16        	stz	$16                     ; 0x2016 <exhaustZeroes+0x44>
    1a20: 64 17        	stz	$17                     ; 0x2017 <exhaustZeroes+0x45>
    1a22: a6 1a        	ldx	$1a                     ; 0x201a <exhaustZeroes+0x48>
    1a24: a5 18        	lda	$18                     ; 0x2018 <exhaustZeroes+0x46>
    1a26: 20 af 42     	jsr	$42af <__udivsi3>
    1a29: a0 19        	ldy	#$19
    1a2b: 84 14        	sty	$14                     ; 0x2014 <exhaustZeroes+0x42>
    1a2d: 64 15        	stz	$15                     ; 0x2015 <exhaustZeroes+0x43>
    1a2f: 64 16        	stz	$16                     ; 0x2016 <exhaustZeroes+0x44>
    1a31: 64 17        	stz	$17                     ; 0x2017 <exhaustZeroes+0x45>
    1a33: 20 3f 42     	jsr	$423f <__mulsi3>
    1a36: a4 12        	ldy	$12                     ; 0x2012 <exhaustZeroes+0x40>
    1a38: 85 71        	sta	$71                     ; 0x2071 <exhaustZeroes+0x9f>
    1a3a: 86 72        	stx	$72                     ; 0x2072 <exhaustZeroes+0xa0>
    1a3c: 84 73        	sty	$73                     ; 0x2073 <exhaustZeroes+0xa1>
    1a3e: a6 13        	ldx	$13                     ; 0x2013 <exhaustZeroes+0x41>
    1a40: 86 74        	stx	$74                     ; 0x2074 <exhaustZeroes+0xa2>
    1a42: a2 14        	ldx	#$14
    1a44: 86 60        	stx	$60                     ; 0x2060 <exhaustZeroes+0x8e>
    1a46: 8e 14 d0     	stx	$d014                   ; 0xd014 <end_block9+0x8b14>
    1a49: 9c 15 d0     	stz	$d015                   ; 0xd015 <end_block9+0x8b15>
    1a4c: a2 0b        	ldx	#$b
    1a4e: 86 61        	stx	$61                     ; 0x2061 <exhaustZeroes+0x8f>
    1a50: 8e 16 d0     	stx	$d016                   ; 0xd016 <end_block9+0x8b16>
    1a53: 9c 17 d0     	stz	$d017                   ; 0xd017 <end_block9+0x8b17>
    1a56: a5 71        	lda	$71                     ; 0x2071 <exhaustZeroes+0x9f>
    1a58: a6 72        	ldx	$72                     ; 0x2072 <exhaustZeroes+0xa0>
    1a5a: 86 12        	stx	$12                     ; 0x2012 <exhaustZeroes+0x40>
    1a5c: a6 73        	ldx	$73                     ; 0x2073 <exhaustZeroes+0xa1>
    1a5e: 86 13        	stx	$13                     ; 0x2013 <exhaustZeroes+0x41>
    1a60: a6 74        	ldx	$74                     ; 0x2074 <exhaustZeroes+0xa2>
    1a62: 92 10        	sta	($10)                   ; 0x2010 <exhaustZeroes+0x3e>
    1a64: a0 01        	ldy	#$1
    1a66: a5 12        	lda	$12                     ; 0x2012 <exhaustZeroes+0x40>
    1a68: 91 10        	sta	($10),y                 ; 0x2010 <exhaustZeroes+0x3e>
    1a6a: c8           	iny
    1a6b: a5 13        	lda	$13                     ; 0x2013 <exhaustZeroes+0x41>
    1a6d: 91 10        	sta	($10),y                 ; 0x2010 <exhaustZeroes+0x3e>
    1a6f: c8           	iny
    1a70: 8a           	txa
    1a71: 91 10        	sta	($10),y                 ; 0x2010 <exhaustZeroes+0x3e>
    1a73: a2 e4        	ldx	#$e4
    1a75: 86 12        	stx	$12                     ; 0x2012 <exhaustZeroes+0x40>
    1a77: a2 44        	ldx	#$44
    1a79: 86 13        	stx	$13                     ; 0x2013 <exhaustZeroes+0x41>
    1a7b: 20 f2 22     	jsr	$22f2 <printf>
    1a7e: a6 71        	ldx	$71                     ; 0x2071 <exhaustZeroes+0x9f>
    1a80: 86 16        	stx	$16                     ; 0x2016 <exhaustZeroes+0x44>
    1a82: a6 72        	ldx	$72                     ; 0x2072 <exhaustZeroes+0xa0>
    1a84: 86 17        	stx	$17                     ; 0x2017 <exhaustZeroes+0x45>
    1a86: a6 73        	ldx	$73                     ; 0x2073 <exhaustZeroes+0xa1>
    1a88: 86 18        	stx	$18                     ; 0x2018 <exhaustZeroes+0x46>
    1a8a: a6 6f        	ldx	$6f                     ; 0x206f <exhaustZeroes+0x9d>
    1a8c: 86 2a        	stx	$2a                     ; 0x202a <exhaustZeroes+0x58>
    1a8e: a6 70        	ldx	$70                     ; 0x2070 <exhaustZeroes+0x9e>
    1a90: 86 2b        	stx	$2b                     ; 0x202b <exhaustZeroes+0x59>
    1a92: a6 74        	ldx	$74                     ; 0x2074 <exhaustZeroes+0xa2>
    1a94: 86 19        	stx	$19                     ; 0x2019 <exhaustZeroes+0x47>
    1a96: 18           	clc
    1a97: a5 27        	lda	$27                     ; 0x2027 <exhaustZeroes+0x55>
    1a99: 65 6f        	adc	$6f                     ; 0x206f <exhaustZeroes+0x9d>
    1a9b: aa           	tax
    1a9c: a5 26        	lda	$26                     ; 0x2026 <exhaustZeroes+0x54>
    1a9e: 65 70        	adc	$70                     ; 0x2070 <exhaustZeroes+0x9e>
    1aa0: 86 12        	stx	$12                     ; 0x2012 <exhaustZeroes+0x40>
    1aa2: 85 13        	sta	$13                     ; 0x2013 <exhaustZeroes+0x41>
    1aa4: a8           	tay
    1aa5: 18           	clc
    1aa6: 8a           	txa
    1aa7: 69 0c        	adc	#$c
    1aa9: 85 14        	sta	$14                     ; 0x2014 <exhaustZeroes+0x42>
    1aab: 98           	tya
    1aac: 69 00        	adc	#$0
    1aae: 85 15        	sta	$15                     ; 0x2015 <exhaustZeroes+0x43>
    1ab0: a0 0c        	ldy	#$c
    1ab2: a5 16        	lda	$16                     ; 0x2016 <exhaustZeroes+0x44>
    1ab4: 91 12        	sta	($12),y                 ; 0x2012 <exhaustZeroes+0x40>
    1ab6: a0 01        	ldy	#$1
    1ab8: a5 17        	lda	$17                     ; 0x2017 <exhaustZeroes+0x45>
    1aba: 91 14        	sta	($14),y                 ; 0x2014 <exhaustZeroes+0x42>
    1abc: c8           	iny
    1abd: a5 18        	lda	$18                     ; 0x2018 <exhaustZeroes+0x46>
    1abf: 91 14        	sta	($14),y                 ; 0x2014 <exhaustZeroes+0x42>
    1ac1: a5 19        	lda	$19                     ; 0x2019 <exhaustZeroes+0x47>
    1ac3: c8           	iny
    1ac4: 91 14        	sta	($14),y                 ; 0x2014 <exhaustZeroes+0x42>
    1ac6: 4c f0 10     	jmp	$10f0 <chainEvent+0x9a>
    1ac9: a6 13        	ldx	$13                     ; 0x2013 <exhaustZeroes+0x41>
    1acb: 18           	clc
    1acc: a5 13        	lda	$13                     ; 0x2013 <exhaustZeroes+0x41>
    1ace: 69 e0        	adc	#$e0
    1ad0: c9 02        	cmp	#$2
    1ad2: b0 03        	bcs	$1ad7 <chainEvent+0xa81>
    1ad4: 4c ae 10     	jmp	$10ae <chainEvent+0x58>
    1ad7: e0 2f        	cpx	#$2f
    1ad9: f0 03        	beq	$1ade <chainEvent+0xa88>
    1adb: 4c f0 10     	jmp	$10f0 <chainEvent+0x9a>
    1ade: a5 17        	lda	$17                     ; 0x2017 <exhaustZeroes+0x45>
    1ae0: 18           	clc
    1ae1: 69 02        	adc	#$2
    1ae3: a0 04        	ldy	#$4
    1ae5: 91 28        	sta	($28),y                 ; 0x2028 <exhaustZeroes+0x56>
    1ae7: a5 16        	lda	$16                     ; 0x2016 <exhaustZeroes+0x44>
    1ae9: 69 00        	adc	#$0
    1aeb: a0 01        	ldy	#$1
    1aed: 91 26        	sta	($26),y                 ; 0x2026 <exhaustZeroes+0x54>
    1aef: a5 15        	lda	$15                     ; 0x2015 <exhaustZeroes+0x43>
    1af1: 69 00        	adc	#$0
    1af3: c8           	iny
    1af4: 91 26        	sta	($26),y                 ; 0x2026 <exhaustZeroes+0x54>
    1af6: a5 12        	lda	$12                     ; 0x2012 <exhaustZeroes+0x40>
    1af8: 69 00        	adc	#$0
    1afa: c8           	iny
    1afb: 91 26        	sta	($26),y                 ; 0x2026 <exhaustZeroes+0x54>
    1afd: a2 00        	ldx	#$0
    1aff: a0 16        	ldy	#$16
    1b01: 64 13        	stz	$13                     ; 0x2013 <exhaustZeroes+0x41>
    1b03: 84 12        	sty	$12                     ; 0x2012 <exhaustZeroes+0x40>
    1b05: a0 0c        	ldy	#$c
    1b07: b1 10        	lda	($10),y                 ; 0x2010 <exhaustZeroes+0x3e>
    1b09: 20 0d 42     	jsr	$420d <__mulhi3>
    1b0c: 85 12        	sta	$12                     ; 0x2012 <exhaustZeroes+0x40>
    1b0e: 86 13        	stx	$13                     ; 0x2013 <exhaustZeroes+0x41>
    1b10: a5 2a        	lda	$2a                     ; 0x202a <exhaustZeroes+0x58>
    1b12: 18           	clc
    1b13: 65 12        	adc	$12                     ; 0x2012 <exhaustZeroes+0x40>
    1b15: 85 12        	sta	$12                     ; 0x2012 <exhaustZeroes+0x40>
    1b17: a5 2f        	lda	$2f                     ; 0x202f <exhaustZeroes+0x5d>
    1b19: 65 13        	adc	$13                     ; 0x2013 <exhaustZeroes+0x41>
    1b1b: 85 13        	sta	$13                     ; 0x2013 <exhaustZeroes+0x41>
    1b1d: a0 15        	ldy	#$15
    1b1f: a9 01        	lda	#$1
    1b21: 4c f2 1b     	jmp	$1bf2 <chainEvent+0xb9c>
    1b24: a6 2c        	ldx	$2c                     ; 0x202c <exhaustZeroes+0x5a>
    1b26: e0 c0        	cpx	#$c0
    1b28: b0 03        	bcs	$1b2d <chainEvent+0xad7>
    1b2a: 4c 89 1b     	jmp	$1b89 <chainEvent+0xb33>
    1b2d: a6 2c        	ldx	$2c                     ; 0x202c <exhaustZeroes+0x5a>
    1b2f: e0 e0        	cpx	#$e0
    1b31: 90 03        	bcc	$1b36 <chainEvent+0xae0>
    1b33: 4c 90 1b     	jmp	$1b90 <chainEvent+0xb3a>
    1b36: 84 12        	sty	$12                     ; 0x2012 <exhaustZeroes+0x40>
    1b38: a5 17        	lda	$17                     ; 0x2017 <exhaustZeroes+0x45>
    1b3a: 1a           	inc
    1b3b: d0 0a        	bne	$1b47 <chainEvent+0xaf1>
    1b3d: e6 16        	inc	$16                     ; 0x2016 <exhaustZeroes+0x44>
    1b3f: d0 06        	bne	$1b47 <chainEvent+0xaf1>
    1b41: e6 15        	inc	$15                     ; 0x2015 <exhaustZeroes+0x43>
    1b43: d0 02        	bne	$1b47 <chainEvent+0xaf1>
    1b45: e6 12        	inc	$12                     ; 0x2012 <exhaustZeroes+0x40>
    1b47: a0 04        	ldy	#$4
    1b49: 91 28        	sta	($28),y                 ; 0x2028 <exhaustZeroes+0x56>
    1b4b: a0 01        	ldy	#$1
    1b4d: a5 16        	lda	$16                     ; 0x2016 <exhaustZeroes+0x44>
    1b4f: 91 26        	sta	($26),y                 ; 0x2026 <exhaustZeroes+0x54>
    1b51: c8           	iny
    1b52: a5 15        	lda	$15                     ; 0x2015 <exhaustZeroes+0x43>
    1b54: 91 26        	sta	($26),y                 ; 0x2026 <exhaustZeroes+0x54>
    1b56: c8           	iny
    1b57: a5 12        	lda	$12                     ; 0x2012 <exhaustZeroes+0x40>
    1b59: 91 26        	sta	($26),y                 ; 0x2026 <exhaustZeroes+0x54>
    1b5b: a0 16        	ldy	#$16
    1b5d: 64 13        	stz	$13                     ; 0x2013 <exhaustZeroes+0x41>
    1b5f: a2 00        	ldx	#$0
    1b61: 84 12        	sty	$12                     ; 0x2012 <exhaustZeroes+0x40>
    1b63: a0 0c        	ldy	#$c
    1b65: b1 10        	lda	($10),y                 ; 0x2010 <exhaustZeroes+0x3e>
    1b67: 20 0d 42     	jsr	$420d <__mulhi3>
    1b6a: 85 12        	sta	$12                     ; 0x2012 <exhaustZeroes+0x40>
    1b6c: 86 13        	stx	$13                     ; 0x2013 <exhaustZeroes+0x41>
    1b6e: 18           	clc
    1b6f: a5 2a        	lda	$2a                     ; 0x202a <exhaustZeroes+0x58>
    1b71: 65 12        	adc	$12                     ; 0x2012 <exhaustZeroes+0x40>
    1b73: 85 12        	sta	$12                     ; 0x2012 <exhaustZeroes+0x40>
    1b75: a0 0d        	ldy	#$d
    1b77: b1 10        	lda	($10),y                 ; 0x2010 <exhaustZeroes+0x3e>
    1b79: 65 13        	adc	$13                     ; 0x2013 <exhaustZeroes+0x41>
    1b7b: 85 13        	sta	$13                     ; 0x2013 <exhaustZeroes+0x41>
    1b7d: a0 14        	ldy	#$14
    1b7f: a9 01        	lda	#$1
    1b81: 91 12        	sta	($12),y                 ; 0x2012 <exhaustZeroes+0x40>
    1b83: 88           	dey
    1b84: a5 2c        	lda	$2c                     ; 0x202c <exhaustZeroes+0x5a>
    1b86: 4c f2 1b     	jmp	$1bf2 <chainEvent+0xb9c>
    1b89: a5 2c        	lda	$2c                     ; 0x202c <exhaustZeroes+0x5a>
    1b8b: 30 0c        	bmi	$1b99 <chainEvent+0xb43>
    1b8d: 4c f4 1b     	jmp	$1bf4 <chainEvent+0xb9e>
    1b90: a6 2c        	ldx	$2c                     ; 0x202c <exhaustZeroes+0x5a>
    1b92: e0 f0        	cpx	#$f0
    1b94: 90 03        	bcc	$1b99 <chainEvent+0xb43>
    1b96: 4c f4 1b     	jmp	$1bf4 <chainEvent+0xb9e>
    1b99: a2 16        	ldx	#$16
    1b9b: 86 12        	stx	$12                     ; 0x2012 <exhaustZeroes+0x40>
    1b9d: 64 13        	stz	$13                     ; 0x2013 <exhaustZeroes+0x41>
    1b9f: a2 00        	ldx	#$0
    1ba1: 84 2b        	sty	$2b                     ; 0x202b <exhaustZeroes+0x59>
    1ba3: a4 15        	ldy	$15                     ; 0x2015 <exhaustZeroes+0x43>
    1ba5: 84 24        	sty	$24                     ; 0x2024 <exhaustZeroes+0x52>
    1ba7: a0 0c        	ldy	#$c
    1ba9: b1 10        	lda	($10),y                 ; 0x2010 <exhaustZeroes+0x3e>
    1bab: a4 16        	ldy	$16                     ; 0x2016 <exhaustZeroes+0x44>
    1bad: 84 25        	sty	$25                     ; 0x2025 <exhaustZeroes+0x53>
    1baf: a4 17        	ldy	$17                     ; 0x2017 <exhaustZeroes+0x45>
    1bb1: 84 2d        	sty	$2d                     ; 0x202d <exhaustZeroes+0x5b>
    1bb3: 20 0d 42     	jsr	$420d <__mulhi3>
    1bb6: 85 12        	sta	$12                     ; 0x2012 <exhaustZeroes+0x40>
    1bb8: 86 13        	stx	$13                     ; 0x2013 <exhaustZeroes+0x41>
    1bba: 18           	clc
    1bbb: a5 2a        	lda	$2a                     ; 0x202a <exhaustZeroes+0x58>
    1bbd: 65 12        	adc	$12                     ; 0x2012 <exhaustZeroes+0x40>
    1bbf: 85 12        	sta	$12                     ; 0x2012 <exhaustZeroes+0x40>
    1bc1: a0 0d        	ldy	#$d
    1bc3: b1 10        	lda	($10),y                 ; 0x2010 <exhaustZeroes+0x3e>
    1bc5: 65 13        	adc	$13                     ; 0x2013 <exhaustZeroes+0x41>
    1bc7: 85 13        	sta	$13                     ; 0x2013 <exhaustZeroes+0x41>
    1bc9: a0 13        	ldy	#$13
    1bcb: a5 2c        	lda	$2c                     ; 0x202c <exhaustZeroes+0x5a>
    1bcd: 91 12        	sta	($12),y                 ; 0x2012 <exhaustZeroes+0x40>
    1bcf: a5 2d        	lda	$2d                     ; 0x202d <exhaustZeroes+0x5b>
    1bd1: 18           	clc
    1bd2: 69 02        	adc	#$2
    1bd4: a0 04        	ldy	#$4
    1bd6: 91 28        	sta	($28),y                 ; 0x2028 <exhaustZeroes+0x56>
    1bd8: a5 25        	lda	$25                     ; 0x2025 <exhaustZeroes+0x53>
    1bda: 69 00        	adc	#$0
    1bdc: a0 01        	ldy	#$1
    1bde: 91 26        	sta	($26),y                 ; 0x2026 <exhaustZeroes+0x54>
    1be0: a5 24        	lda	$24                     ; 0x2024 <exhaustZeroes+0x52>
    1be2: 69 00        	adc	#$0
    1be4: c8           	iny
    1be5: 91 26        	sta	($26),y                 ; 0x2026 <exhaustZeroes+0x54>
    1be7: a5 2b        	lda	$2b                     ; 0x202b <exhaustZeroes+0x59>
    1be9: 69 00        	adc	#$0
    1beb: c8           	iny
    1bec: 91 26        	sta	($26),y                 ; 0x2026 <exhaustZeroes+0x54>
    1bee: a0 14        	ldy	#$14
    1bf0: a9 00        	lda	#$0
    1bf2: 91 12        	sta	($12),y                 ; 0x2012 <exhaustZeroes+0x40>
    1bf4: a0 04        	ldy	#$4
    1bf6: b1 10        	lda	($10),y                 ; 0x2010 <exhaustZeroes+0x3e>
    1bf8: 85 2f        	sta	$2f                     ; 0x202f <exhaustZeroes+0x5d>
    1bfa: c8           	iny
    1bfb: b1 10        	lda	($10),y                 ; 0x2010 <exhaustZeroes+0x3e>
    1bfd: 85 2e        	sta	$2e                     ; 0x202e <exhaustZeroes+0x5c>
    1bff: c8           	iny
    1c00: b1 10        	lda	($10),y                 ; 0x2010 <exhaustZeroes+0x3e>
    1c02: 85 2d        	sta	$2d                     ; 0x202d <exhaustZeroes+0x5b>
    1c04: c8           	iny
    1c05: b1 10        	lda	($10),y                 ; 0x2010 <exhaustZeroes+0x3e>
    1c07: 85 2c        	sta	$2c                     ; 0x202c <exhaustZeroes+0x5a>
    1c09: c8           	iny
    1c0a: b1 10        	lda	($10),y                 ; 0x2010 <exhaustZeroes+0x3e>
    1c0c: 85 2b        	sta	$2b                     ; 0x202b <exhaustZeroes+0x59>
    1c0e: c8           	iny
    1c0f: b1 10        	lda	($10),y                 ; 0x2010 <exhaustZeroes+0x3e>
    1c11: 85 2a        	sta	$2a                     ; 0x202a <exhaustZeroes+0x58>
    1c13: c8           	iny
    1c14: b1 10        	lda	($10),y                 ; 0x2010 <exhaustZeroes+0x3e>
    1c16: 85 29        	sta	$29                     ; 0x2029 <exhaustZeroes+0x57>
    1c18: c8           	iny
    1c19: b1 10        	lda	($10),y                 ; 0x2010 <exhaustZeroes+0x3e>
    1c1b: 85 28        	sta	$28                     ; 0x2028 <exhaustZeroes+0x56>
    1c1d: fa           	plx
    1c1e: 86 27        	stx	$27                     ; 0x2027 <exhaustZeroes+0x55>
    1c20: fa           	plx
    1c21: 86 26        	stx	$26                     ; 0x2026 <exhaustZeroes+0x54>
    1c23: fa           	plx
    1c24: 86 25        	stx	$25                     ; 0x2025 <exhaustZeroes+0x53>
    1c26: fa           	plx
    1c27: 86 24        	stx	$24                     ; 0x2024 <exhaustZeroes+0x52>
    1c29: 18           	clc
    1c2a: a5 10        	lda	$10                     ; 0x2010 <exhaustZeroes+0x3e>
    1c2c: 69 0e        	adc	#$e
    1c2e: 85 10        	sta	$10                     ; 0x2010 <exhaustZeroes+0x3e>
    1c30: a5 11        	lda	$11                     ; 0x2011 <exhaustZeroes+0x3f>
    1c32: 69 00        	adc	#$0
    1c34: 85 11        	sta	$11                     ; 0x2011 <exhaustZeroes+0x3f>
    1c36: 60           	rts

00001c37 <irq_handler>:
    1c37: d8           	cld
    1c38: 48           	pha
    1c39: 18           	clc
    1c3a: a5 10        	lda	$10                     ; 0x2010 <exhaustZeroes+0x3e>
    1c3c: 69 ee        	adc	#$ee
    1c3e: 85 10        	sta	$10                     ; 0x2010 <exhaustZeroes+0x3e>
    1c40: a5 11        	lda	$11                     ; 0x2011 <exhaustZeroes+0x3f>
    1c42: 69 fe        	adc	#$fe
    1c44: 85 11        	sta	$11                     ; 0x2011 <exhaustZeroes+0x3f>
    1c46: 68           	pla
    1c47: 48           	pha
    1c48: da           	phx
    1c49: 5a           	phy
    1c4a: a6 12        	ldx	$12                     ; 0x2012 <exhaustZeroes+0x40>
    1c4c: da           	phx
    1c4d: a5 13        	lda	$13                     ; 0x2013 <exhaustZeroes+0x41>
    1c4f: a0 11        	ldy	#$11
    1c51: 91 10        	sta	($10),y                 ; 0x2010 <exhaustZeroes+0x3e>
    1c53: a5 14        	lda	$14                     ; 0x2014 <exhaustZeroes+0x42>
    1c55: 88           	dey
    1c56: 91 10        	sta	($10),y                 ; 0x2010 <exhaustZeroes+0x3e>
    1c58: a5 15        	lda	$15                     ; 0x2015 <exhaustZeroes+0x43>
    1c5a: 88           	dey
    1c5b: 91 10        	sta	($10),y                 ; 0x2010 <exhaustZeroes+0x3e>
    1c5d: a5 16        	lda	$16                     ; 0x2016 <exhaustZeroes+0x44>
    1c5f: 88           	dey
    1c60: 91 10        	sta	($10),y                 ; 0x2010 <exhaustZeroes+0x3e>
    1c62: a5 17        	lda	$17                     ; 0x2017 <exhaustZeroes+0x45>
    1c64: 88           	dey
    1c65: 91 10        	sta	($10),y                 ; 0x2010 <exhaustZeroes+0x3e>
    1c67: a5 18        	lda	$18                     ; 0x2018 <exhaustZeroes+0x46>
    1c69: 88           	dey
    1c6a: 91 10        	sta	($10),y                 ; 0x2010 <exhaustZeroes+0x3e>
    1c6c: a5 19        	lda	$19                     ; 0x2019 <exhaustZeroes+0x47>
    1c6e: 88           	dey
    1c6f: 91 10        	sta	($10),y                 ; 0x2010 <exhaustZeroes+0x3e>
    1c71: a5 1a        	lda	$1a                     ; 0x201a <exhaustZeroes+0x48>
    1c73: 88           	dey
    1c74: 91 10        	sta	($10),y                 ; 0x2010 <exhaustZeroes+0x3e>
    1c76: a5 1b        	lda	$1b                     ; 0x201b <exhaustZeroes+0x49>
    1c78: 88           	dey
    1c79: 91 10        	sta	($10),y                 ; 0x2010 <exhaustZeroes+0x3e>
    1c7b: a5 1c        	lda	$1c                     ; 0x201c <exhaustZeroes+0x4a>
    1c7d: 88           	dey
    1c7e: 91 10        	sta	($10),y                 ; 0x2010 <exhaustZeroes+0x3e>
    1c80: a5 1d        	lda	$1d                     ; 0x201d <exhaustZeroes+0x4b>
    1c82: 88           	dey
    1c83: 91 10        	sta	($10),y                 ; 0x2010 <exhaustZeroes+0x3e>
    1c85: a5 1e        	lda	$1e                     ; 0x201e <exhaustZeroes+0x4c>
    1c87: 88           	dey
    1c88: 91 10        	sta	($10),y                 ; 0x2010 <exhaustZeroes+0x3e>
    1c8a: a5 1f        	lda	$1f                     ; 0x201f <exhaustZeroes+0x4d>
    1c8c: 88           	dey
    1c8d: 91 10        	sta	($10),y                 ; 0x2010 <exhaustZeroes+0x3e>
    1c8f: a5 20        	lda	$20                     ; 0x2020 <exhaustZeroes+0x4e>
    1c91: 88           	dey
    1c92: 91 10        	sta	($10),y                 ; 0x2010 <exhaustZeroes+0x3e>
    1c94: a5 21        	lda	$21                     ; 0x2021 <exhaustZeroes+0x4f>
    1c96: 88           	dey
    1c97: 91 10        	sta	($10),y                 ; 0x2010 <exhaustZeroes+0x3e>
    1c99: a5 22        	lda	$22                     ; 0x2022 <exhaustZeroes+0x50>
    1c9b: 88           	dey
    1c9c: 91 10        	sta	($10),y                 ; 0x2010 <exhaustZeroes+0x3e>
    1c9e: a5 23        	lda	$23                     ; 0x2023 <exhaustZeroes+0x51>
    1ca0: 88           	dey
    1ca1: 91 10        	sta	($10),y                 ; 0x2010 <exhaustZeroes+0x3e>
    1ca3: a5 24        	lda	$24                     ; 0x2024 <exhaustZeroes+0x52>
    1ca5: 88           	dey
    1ca6: 91 10        	sta	($10),y                 ; 0x2010 <exhaustZeroes+0x3e>
    1ca8: ad 60 d6     	lda	$d660                   ; 0xd660 <end_block9+0x9160>
    1cab: a8           	tay
    1cac: 29 10        	and	#$10
    1cae: f0 20        	beq	$1cd0 <irq_handler+0x99>
    1cb0: a6 00        	ldx	$0                      ; 0x2000 <exhaustZeroes+0x2e>
    1cb2: 86 24        	stx	$24                     ; 0x2024 <exhaustZeroes+0x52>
    1cb4: 98           	tya
    1cb5: 29 fe        	and	#$fe
    1cb7: 8d 60 d6     	sta	$d660                   ; 0xd660 <end_block9+0x9160>
    1cba: a2 b3        	ldx	#$b3
    1cbc: 86 00        	stx	$0                      ; 0x2000 <exhaustZeroes+0x2e>
    1cbe: a2 9d        	ldx	#$9d
    1cc0: 86 12        	stx	$12                     ; 0x2012 <exhaustZeroes+0x40>
    1cc2: a2 44        	ldx	#$44
    1cc4: 86 13        	stx	$13                     ; 0x2013 <exhaustZeroes+0x41>
    1cc6: 20 f2 22     	jsr	$22f2 <printf>
    1cc9: 20 41 1d     	jsr	$1d41 <playMidi>
    1ccc: a6 24        	ldx	$24                     ; 0x2024 <exhaustZeroes+0x52>
    1cce: 86 00        	stx	$0                      ; 0x2000 <exhaustZeroes+0x2e>
    1cd0: a0 00        	ldy	#$0
    1cd2: b1 10        	lda	($10),y                 ; 0x2010 <exhaustZeroes+0x3e>
    1cd4: 85 24        	sta	$24                     ; 0x2024 <exhaustZeroes+0x52>
    1cd6: c8           	iny
    1cd7: b1 10        	lda	($10),y                 ; 0x2010 <exhaustZeroes+0x3e>
    1cd9: 85 23        	sta	$23                     ; 0x2023 <exhaustZeroes+0x51>
    1cdb: c8           	iny
    1cdc: b1 10        	lda	($10),y                 ; 0x2010 <exhaustZeroes+0x3e>
    1cde: 85 22        	sta	$22                     ; 0x2022 <exhaustZeroes+0x50>
    1ce0: c8           	iny
    1ce1: b1 10        	lda	($10),y                 ; 0x2010 <exhaustZeroes+0x3e>
    1ce3: 85 21        	sta	$21                     ; 0x2021 <exhaustZeroes+0x4f>
    1ce5: c8           	iny
    1ce6: b1 10        	lda	($10),y                 ; 0x2010 <exhaustZeroes+0x3e>
    1ce8: 85 20        	sta	$20                     ; 0x2020 <exhaustZeroes+0x4e>
    1cea: c8           	iny
    1ceb: b1 10        	lda	($10),y                 ; 0x2010 <exhaustZeroes+0x3e>
    1ced: 85 1f        	sta	$1f                     ; 0x201f <exhaustZeroes+0x4d>
    1cef: c8           	iny
    1cf0: b1 10        	lda	($10),y                 ; 0x2010 <exhaustZeroes+0x3e>
    1cf2: 85 1e        	sta	$1e                     ; 0x201e <exhaustZeroes+0x4c>
    1cf4: c8           	iny
    1cf5: b1 10        	lda	($10),y                 ; 0x2010 <exhaustZeroes+0x3e>
    1cf7: 85 1d        	sta	$1d                     ; 0x201d <exhaustZeroes+0x4b>
    1cf9: c8           	iny
    1cfa: b1 10        	lda	($10),y                 ; 0x2010 <exhaustZeroes+0x3e>
    1cfc: 85 1c        	sta	$1c                     ; 0x201c <exhaustZeroes+0x4a>
    1cfe: c8           	iny
    1cff: b1 10        	lda	($10),y                 ; 0x2010 <exhaustZeroes+0x3e>
    1d01: 85 1b        	sta	$1b                     ; 0x201b <exhaustZeroes+0x49>
    1d03: c8           	iny
    1d04: b1 10        	lda	($10),y                 ; 0x2010 <exhaustZeroes+0x3e>
    1d06: 85 1a        	sta	$1a                     ; 0x201a <exhaustZeroes+0x48>
    1d08: c8           	iny
    1d09: b1 10        	lda	($10),y                 ; 0x2010 <exhaustZeroes+0x3e>
    1d0b: 85 19        	sta	$19                     ; 0x2019 <exhaustZeroes+0x47>
    1d0d: c8           	iny
    1d0e: b1 10        	lda	($10),y                 ; 0x2010 <exhaustZeroes+0x3e>
    1d10: 85 18        	sta	$18                     ; 0x2018 <exhaustZeroes+0x46>
    1d12: c8           	iny
    1d13: b1 10        	lda	($10),y                 ; 0x2010 <exhaustZeroes+0x3e>
    1d15: 85 17        	sta	$17                     ; 0x2017 <exhaustZeroes+0x45>
    1d17: c8           	iny
    1d18: b1 10        	lda	($10),y                 ; 0x2010 <exhaustZeroes+0x3e>
    1d1a: 85 16        	sta	$16                     ; 0x2016 <exhaustZeroes+0x44>
    1d1c: c8           	iny
    1d1d: b1 10        	lda	($10),y                 ; 0x2010 <exhaustZeroes+0x3e>
    1d1f: 85 15        	sta	$15                     ; 0x2015 <exhaustZeroes+0x43>
    1d21: c8           	iny
    1d22: b1 10        	lda	($10),y                 ; 0x2010 <exhaustZeroes+0x3e>
    1d24: 85 14        	sta	$14                     ; 0x2014 <exhaustZeroes+0x42>
    1d26: c8           	iny
    1d27: b1 10        	lda	($10),y                 ; 0x2010 <exhaustZeroes+0x3e>
    1d29: 85 13        	sta	$13                     ; 0x2013 <exhaustZeroes+0x41>
    1d2b: fa           	plx
    1d2c: 86 12        	stx	$12                     ; 0x2012 <exhaustZeroes+0x40>
    1d2e: 7a           	ply
    1d2f: fa           	plx
    1d30: 68           	pla
    1d31: 48           	pha
    1d32: 18           	clc
    1d33: a5 10        	lda	$10                     ; 0x2010 <exhaustZeroes+0x3e>
    1d35: 69 12        	adc	#$12
    1d37: 85 10        	sta	$10                     ; 0x2010 <exhaustZeroes+0x3e>
    1d39: a5 11        	lda	$11                     ; 0x2011 <exhaustZeroes+0x3f>
    1d3b: 69 01        	adc	#$1
    1d3d: 85 11        	sta	$11                     ; 0x2011 <exhaustZeroes+0x3f>
    1d3f: 68           	pla
    1d40: 40           	rti

00001d41 <playMidi>:
    1d41: a5 69        	lda	$69                     ; 0x2069 <exhaustZeroes+0x97>
    1d43: a6 6a        	ldx	$6a                     ; 0x206a <exhaustZeroes+0x98>
    1d45: 86 15        	stx	$15                     ; 0x2015 <exhaustZeroes+0x43>
    1d47: a6 6b        	ldx	$6b                     ; 0x206b <exhaustZeroes+0x99>
    1d49: a4 6c        	ldy	$6c                     ; 0x206c <exhaustZeroes+0x9a>
    1d4b: c0 01        	cpy	#$1
    1d4d: d0 12        	bne	$1d61 <playMidi+0x20>
    1d4f: 84 14        	sty	$14                     ; 0x2014 <exhaustZeroes+0x42>
    1d51: e0 00        	cpx	#$0
    1d53: d0 36        	bne	$1d8b <playMidi+0x4a>
    1d55: 86 12        	stx	$12                     ; 0x2012 <exhaustZeroes+0x40>
    1d57: a6 15        	ldx	$15                     ; 0x2015 <exhaustZeroes+0x43>
    1d59: d0 34        	bne	$1d8f <playMidi+0x4e>
    1d5b: c9 00        	cmp	#$0
    1d5d: 90 0a        	bcc	$1d69 <playMidi+0x28>
    1d5f: 80 34        	bra	$1d95 <playMidi+0x54>
    1d61: 86 12        	stx	$12                     ; 0x2012 <exhaustZeroes+0x40>
    1d63: 84 14        	sty	$14                     ; 0x2014 <exhaustZeroes+0x42>
    1d65: c0 01        	cpy	#$1
    1d67: b0 2c        	bcs	$1d95 <playMidi+0x54>
    1d69: a6 12        	ldx	$12                     ; 0x2012 <exhaustZeroes+0x40>
    1d6b: a8           	tay
    1d6c: a5 15        	lda	$15                     ; 0x2015 <exhaustZeroes+0x43>
    1d6e: e6 14        	inc	$14                     ; 0x2014 <exhaustZeroes+0x42>
    1d70: c6 14        	dec	$14                     ; 0x2014 <exhaustZeroes+0x42>
    1d72: d0 0b        	bne	$1d7f <playMidi+0x3e>
    1d74: e0 00        	cpx	#$0
    1d76: d0 07        	bne	$1d7f <playMidi+0x3e>
    1d78: c9 00        	cmp	#$0
    1d7a: d0 03        	bne	$1d7f <playMidi+0x3e>
    1d7c: 98           	tya
    1d7d: f0 41        	beq	$1dc0 <playMidi+0x7f>
    1d7f: 8c 55 d6     	sty	$d655                   ; 0xd655 <end_block9+0x9155>
    1d82: a4 15        	ldy	$15                     ; 0x2015 <exhaustZeroes+0x43>
    1d84: 8c 56 d6     	sty	$d656                   ; 0xd656 <end_block9+0x9156>
    1d87: 8e 57 d6     	stx	$d657                   ; 0xd657 <end_block9+0x9157>
    1d8a: 60           	rts
    1d8b: 86 12        	stx	$12                     ; 0x2012 <exhaustZeroes+0x40>
    1d8d: 80 02        	bra	$1d91 <playMidi+0x50>
    1d8f: a6 15        	ldx	$15                     ; 0x2015 <exhaustZeroes+0x43>
    1d91: e0 00        	cpx	#$0
    1d93: 90 d4        	bcc	$1d69 <playMidi+0x28>
    1d95: 18           	clc
    1d96: 69 01        	adc	#$1
    1d98: aa           	tax
    1d99: a5 15        	lda	$15                     ; 0x2015 <exhaustZeroes+0x43>
    1d9b: 69 00        	adc	#$0
    1d9d: a8           	tay
    1d9e: a5 12        	lda	$12                     ; 0x2012 <exhaustZeroes+0x40>
    1da0: 69 00        	adc	#$0
    1da2: 85 15        	sta	$15                     ; 0x2015 <exhaustZeroes+0x43>
    1da4: a5 14        	lda	$14                     ; 0x2014 <exhaustZeroes+0x42>
    1da6: 69 ff        	adc	#$ff
    1da8: 86 69        	stx	$69                     ; 0x2069 <exhaustZeroes+0x97>
    1daa: 84 6a        	sty	$6a                     ; 0x206a <exhaustZeroes+0x98>
    1dac: 84 13        	sty	$13                     ; 0x2013 <exhaustZeroes+0x41>
    1dae: a4 15        	ldy	$15                     ; 0x2015 <exhaustZeroes+0x43>
    1db0: 84 6b        	sty	$6b                     ; 0x206b <exhaustZeroes+0x99>
    1db2: 85 6c        	sta	$6c                     ; 0x206c <exhaustZeroes+0x9a>
    1db4: 8e 55 d6     	stx	$d655                   ; 0xd655 <end_block9+0x9155>
    1db7: a6 13        	ldx	$13                     ; 0x2013 <exhaustZeroes+0x41>
    1db9: 8e 56 d6     	stx	$d656                   ; 0xd656 <end_block9+0x9156>
    1dbc: 8c 57 d6     	sty	$d657                   ; 0xd657 <end_block9+0x9157>
    1dbf: 60           	rts
    1dc0: 18           	clc
    1dc1: a5 10        	lda	$10                     ; 0x2010 <exhaustZeroes+0x3e>
    1dc3: 69 fa        	adc	#$fa
    1dc5: 85 10        	sta	$10                     ; 0x2010 <exhaustZeroes+0x3e>
    1dc7: a5 11        	lda	$11                     ; 0x2011 <exhaustZeroes+0x3f>
    1dc9: 69 ff        	adc	#$ff
    1dcb: 85 11        	sta	$11                     ; 0x2011 <exhaustZeroes+0x3f>
    1dcd: a5 6d        	lda	$6d                     ; 0x206d <exhaustZeroes+0x9b>
    1dcf: a6 6f        	ldx	$6f                     ; 0x206f <exhaustZeroes+0x9d>
    1dd1: 48           	pha
    1dd2: 8a           	txa
    1dd3: a0 04        	ldy	#$4
    1dd5: 91 10        	sta	($10),y                 ; 0x2010 <exhaustZeroes+0x3e>
    1dd7: a6 70        	ldx	$70                     ; 0x2070 <exhaustZeroes+0x9e>
    1dd9: 8a           	txa
    1dda: c8           	iny
    1ddb: 91 10        	sta	($10),y                 ; 0x2010 <exhaustZeroes+0x3e>
    1ddd: 68           	pla
    1dde: a2 16        	ldx	#$16
    1de0: 86 12        	stx	$12                     ; 0x2012 <exhaustZeroes+0x40>
    1de2: 64 13        	stz	$13                     ; 0x2013 <exhaustZeroes+0x41>
    1de4: a2 00        	ldx	#$0
    1de6: 20 0d 42     	jsr	$420d <__mulhi3>
    1de9: 85 14        	sta	$14                     ; 0x2014 <exhaustZeroes+0x42>
    1deb: 18           	clc
    1dec: 85 12        	sta	$12                     ; 0x2012 <exhaustZeroes+0x40>
    1dee: a0 04        	ldy	#$4
    1df0: b1 10        	lda	($10),y                 ; 0x2010 <exhaustZeroes+0x3e>
    1df2: 65 12        	adc	$12                     ; 0x2012 <exhaustZeroes+0x40>
    1df4: a8           	tay
    1df5: 86 12        	stx	$12                     ; 0x2012 <exhaustZeroes+0x40>
    1df7: 5a           	phy
    1df8: a0 05        	ldy	#$5
    1dfa: b1 10        	lda	($10),y                 ; 0x2010 <exhaustZeroes+0x3e>
    1dfc: 7a           	ply
    1dfd: 65 12        	adc	$12                     ; 0x2012 <exhaustZeroes+0x40>
    1dff: 84 12        	sty	$12                     ; 0x2012 <exhaustZeroes+0x40>
    1e01: 85 13        	sta	$13                     ; 0x2013 <exhaustZeroes+0x41>
    1e03: a0 10        	ldy	#$10
    1e05: b1 12        	lda	($12),y                 ; 0x2012 <exhaustZeroes+0x40>
    1e07: 8d a1 dd     	sta	$dda1                   ; 0xdda1 <end_block9+0x98a1>
    1e0a: 18           	clc
    1e0b: a5 14        	lda	$14                     ; 0x2014 <exhaustZeroes+0x42>
    1e0d: 65 6f        	adc	$6f                     ; 0x206f <exhaustZeroes+0x9d>
    1e0f: 85 12        	sta	$12                     ; 0x2012 <exhaustZeroes+0x40>
    1e11: 8a           	txa
    1e12: 65 70        	adc	$70                     ; 0x2070 <exhaustZeroes+0x9e>
    1e14: 85 13        	sta	$13                     ; 0x2013 <exhaustZeroes+0x41>
    1e16: c8           	iny
    1e17: b1 12        	lda	($12),y                 ; 0x2012 <exhaustZeroes+0x40>
    1e19: 8d a1 dd     	sta	$dda1                   ; 0xdda1 <end_block9+0x98a1>
    1e1c: a5 14        	lda	$14                     ; 0x2014 <exhaustZeroes+0x42>
    1e1e: 18           	clc
    1e1f: 65 6f        	adc	$6f                     ; 0x206f <exhaustZeroes+0x9d>
    1e21: 85 12        	sta	$12                     ; 0x2012 <exhaustZeroes+0x40>
    1e23: 8a           	txa
    1e24: 65 70        	adc	$70                     ; 0x2070 <exhaustZeroes+0x9e>
    1e26: 85 13        	sta	$13                     ; 0x2013 <exhaustZeroes+0x41>
    1e28: a0 14        	ldy	#$14
    1e2a: b1 12        	lda	($12),y                 ; 0x2012 <exhaustZeroes+0x40>
    1e2c: d0 07        	bne	$1e35 <playMidi+0xf4>
    1e2e: a0 12        	ldy	#$12
    1e30: b1 12        	lda	($12),y                 ; 0x2012 <exhaustZeroes+0x40>
    1e32: 8d a1 dd     	sta	$dda1                   ; 0xdda1 <end_block9+0x98a1>
    1e35: a5 64        	lda	$64                     ; 0x2064 <exhaustZeroes+0x92>
    1e37: a4 65        	ldy	$65                     ; 0x2065 <exhaustZeroes+0x93>
    1e39: a6 6d        	ldx	$6d                     ; 0x206d <exhaustZeroes+0x9b>
    1e3b: 48           	pha
    1e3c: 8a           	txa
    1e3d: 5a           	phy
    1e3e: a0 05        	ldy	#$5
    1e40: 91 10        	sta	($10),y                 ; 0x2010 <exhaustZeroes+0x3e>
    1e42: 7a           	ply
    1e43: 68           	pla
    1e44: c0 00        	cpy	#$0
    1e46: d0 06        	bne	$1e4e <playMidi+0x10d>
    1e48: aa           	tax
    1e49: d0 03        	bne	$1e4e <playMidi+0x10d>
    1e4b: 4c 52 1f     	jmp	$1f52 <playMidi+0x211>
    1e4e: 85 16        	sta	$16                     ; 0x2016 <exhaustZeroes+0x44>
    1e50: a6 6e        	ldx	$6e                     ; 0x206e <exhaustZeroes+0x9c>
    1e52: 5a           	phy
    1e53: 8a           	txa
    1e54: a0 04        	ldy	#$4
    1e56: 91 10        	sta	($10),y                 ; 0x2010 <exhaustZeroes+0x3e>
    1e58: a6 6f        	ldx	$6f                     ; 0x206f <exhaustZeroes+0x9d>
    1e5a: 8a           	txa
    1e5b: a0 00        	ldy	#$0
    1e5d: 91 10        	sta	($10),y                 ; 0x2010 <exhaustZeroes+0x3e>
    1e5f: a6 70        	ldx	$70                     ; 0x2070 <exhaustZeroes+0x9e>
    1e61: 8a           	txa
    1e62: a0 03        	ldy	#$3
    1e64: 91 10        	sta	($10),y                 ; 0x2010 <exhaustZeroes+0x3e>
    1e66: a2 16        	ldx	#$16
    1e68: 64 13        	stz	$13                     ; 0x2013 <exhaustZeroes+0x41>
    1e6a: 86 12        	stx	$12                     ; 0x2012 <exhaustZeroes+0x40>
    1e6c: c8           	iny
    1e6d: b1 10        	lda	($10),y                 ; 0x2010 <exhaustZeroes+0x3e>
    1e6f: 7a           	ply
    1e70: aa           	tax
    1e71: 98           	tya
    1e72: a0 02        	ldy	#$2
    1e74: 91 10        	sta	($10),y                 ; 0x2010 <exhaustZeroes+0x3e>
    1e76: a0 05        	ldy	#$5
    1e78: b1 10        	lda	($10),y                 ; 0x2010 <exhaustZeroes+0x3e>
    1e7a: 48           	pha
    1e7b: a5 16        	lda	$16                     ; 0x2016 <exhaustZeroes+0x44>
    1e7d: a0 01        	ldy	#$1
    1e7f: 91 10        	sta	($10),y                 ; 0x2010 <exhaustZeroes+0x3e>
    1e81: 68           	pla
    1e82: 20 0d 42     	jsr	$420d <__mulhi3>
    1e85: 85 12        	sta	$12                     ; 0x2012 <exhaustZeroes+0x40>
    1e87: 86 13        	stx	$13                     ; 0x2013 <exhaustZeroes+0x41>
    1e89: 18           	clc
    1e8a: a0 00        	ldy	#$0
    1e8c: b1 10        	lda	($10),y                 ; 0x2010 <exhaustZeroes+0x3e>
    1e8e: 85 16        	sta	$16                     ; 0x2016 <exhaustZeroes+0x44>
    1e90: 65 12        	adc	$12                     ; 0x2012 <exhaustZeroes+0x40>
    1e92: aa           	tax
    1e93: a0 03        	ldy	#$3
    1e95: b1 10        	lda	($10),y                 ; 0x2010 <exhaustZeroes+0x3e>
    1e97: 65 13        	adc	$13                     ; 0x2013 <exhaustZeroes+0x41>
    1e99: 86 12        	stx	$12                     ; 0x2012 <exhaustZeroes+0x40>
    1e9b: 85 13        	sta	$13                     ; 0x2013 <exhaustZeroes+0x41>
    1e9d: a8           	tay
    1e9e: 18           	clc
    1e9f: 8a           	txa
    1ea0: 69 0c        	adc	#$c
    1ea2: 85 14        	sta	$14                     ; 0x2014 <exhaustZeroes+0x42>
    1ea4: 98           	tya
    1ea5: 69 00        	adc	#$0
    1ea7: 85 15        	sta	$15                     ; 0x2015 <exhaustZeroes+0x43>
    1ea9: a5 16        	lda	$16                     ; 0x2016 <exhaustZeroes+0x44>
    1eab: 18           	clc
    1eac: 69 0c        	adc	#$c
    1eae: aa           	tax
    1eaf: a0 03        	ldy	#$3
    1eb1: b1 10        	lda	($10),y                 ; 0x2010 <exhaustZeroes+0x3e>
    1eb3: 69 00        	adc	#$0
    1eb5: 86 16        	stx	$16                     ; 0x2016 <exhaustZeroes+0x44>
    1eb7: 85 17        	sta	$17                     ; 0x2017 <exhaustZeroes+0x45>
    1eb9: c8           	iny
    1eba: b1 10        	lda	($10),y                 ; 0x2010 <exhaustZeroes+0x3e>
    1ebc: aa           	tax
    1ebd: c8           	iny
    1ebe: b1 10        	lda	($10),y                 ; 0x2010 <exhaustZeroes+0x3e>
    1ec0: 85 1a        	sta	$1a                     ; 0x201a <exhaustZeroes+0x48>
    1ec2: a0 01        	ldy	#$1
    1ec4: b1 10        	lda	($10),y                 ; 0x2010 <exhaustZeroes+0x3e>
    1ec6: 85 18        	sta	$18                     ; 0x2018 <exhaustZeroes+0x46>
    1ec8: c8           	iny
    1ec9: b1 10        	lda	($10),y                 ; 0x2010 <exhaustZeroes+0x3e>
    1ecb: 85 19        	sta	$19                     ; 0x2019 <exhaustZeroes+0x47>
    1ecd: a0 09        	ldy	#$9
    1ecf: b1 16        	lda	($16),y                 ; 0x2016 <exhaustZeroes+0x44>
    1ed1: f0 03        	beq	$1ed6 <playMidi+0x195>
    1ed3: 4c 24 1f     	jmp	$1f24 <playMidi+0x1e3>
    1ed6: 8a           	txa
    1ed7: d0 04        	bne	$1edd <playMidi+0x19c>
    1ed9: a5 1a        	lda	$1a                     ; 0x201a <exhaustZeroes+0x48>
    1edb: f0 47        	beq	$1f24 <playMidi+0x1e3>
    1edd: b2 16        	lda	($16)                   ; 0x2016 <exhaustZeroes+0x44>
    1edf: 85 1d        	sta	$1d                     ; 0x201d <exhaustZeroes+0x4b>
    1ee1: a0 01        	ldy	#$1
    1ee3: b1 16        	lda	($16),y                 ; 0x2016 <exhaustZeroes+0x44>
    1ee5: 85 1c        	sta	$1c                     ; 0x201c <exhaustZeroes+0x4a>
    1ee7: c8           	iny
    1ee8: b1 16        	lda	($16),y                 ; 0x2016 <exhaustZeroes+0x44>
    1eea: 85 1b        	sta	$1b                     ; 0x201b <exhaustZeroes+0x49>
    1eec: c8           	iny
    1eed: b1 16        	lda	($16),y                 ; 0x2016 <exhaustZeroes+0x44>
    1eef: 85 1e        	sta	$1e                     ; 0x201e <exhaustZeroes+0x4c>
    1ef1: 38           	sec
    1ef2: a0 0c        	ldy	#$c
    1ef4: a5 1d        	lda	$1d                     ; 0x201d <exhaustZeroes+0x4b>
    1ef6: f1 12        	sbc	($12),y                 ; 0x2012 <exhaustZeroes+0x40>
    1ef8: 85 1d        	sta	$1d                     ; 0x201d <exhaustZeroes+0x4b>
    1efa: a5 1c        	lda	$1c                     ; 0x201c <exhaustZeroes+0x4a>
    1efc: a0 01        	ldy	#$1
    1efe: f1 14        	sbc	($14),y                 ; 0x2014 <exhaustZeroes+0x42>
    1f00: 85 1c        	sta	$1c                     ; 0x201c <exhaustZeroes+0x4a>
    1f02: a5 1b        	lda	$1b                     ; 0x201b <exhaustZeroes+0x49>
    1f04: c8           	iny
    1f05: f1 14        	sbc	($14),y                 ; 0x2014 <exhaustZeroes+0x42>
    1f07: 85 1b        	sta	$1b                     ; 0x201b <exhaustZeroes+0x49>
    1f09: c8           	iny
    1f0a: a5 1e        	lda	$1e                     ; 0x201e <exhaustZeroes+0x4c>
    1f0c: f1 14        	sbc	($14),y                 ; 0x2014 <exhaustZeroes+0x42>
    1f0e: 85 1e        	sta	$1e                     ; 0x201e <exhaustZeroes+0x4c>
    1f10: a5 1d        	lda	$1d                     ; 0x201d <exhaustZeroes+0x4b>
    1f12: 92 16        	sta	($16)                   ; 0x2016 <exhaustZeroes+0x44>
    1f14: a5 1c        	lda	$1c                     ; 0x201c <exhaustZeroes+0x4a>
    1f16: a0 01        	ldy	#$1
    1f18: 91 16        	sta	($16),y                 ; 0x2016 <exhaustZeroes+0x44>
    1f1a: a5 1b        	lda	$1b                     ; 0x201b <exhaustZeroes+0x49>
    1f1c: c8           	iny
    1f1d: 91 16        	sta	($16),y                 ; 0x2016 <exhaustZeroes+0x44>
    1f1f: c8           	iny
    1f20: a5 1e        	lda	$1e                     ; 0x201e <exhaustZeroes+0x4c>
    1f22: 91 16        	sta	($16),y                 ; 0x2016 <exhaustZeroes+0x44>
    1f24: a9 ff        	lda	#$ff
    1f26: c6 18        	dec	$18                     ; 0x2018 <exhaustZeroes+0x46>
    1f28: c5 18        	cmp	$18                     ; 0x2018 <exhaustZeroes+0x46>
    1f2a: d0 02        	bne	$1f2e <playMidi+0x1ed>
    1f2c: c6 19        	dec	$19                     ; 0x2019 <exhaustZeroes+0x47>
    1f2e: a9 ff        	lda	#$ff
    1f30: c6 1a        	dec	$1a                     ; 0x201a <exhaustZeroes+0x48>
    1f32: c5 1a        	cmp	$1a                     ; 0x201a <exhaustZeroes+0x48>
    1f34: d0 01        	bne	$1f37 <playMidi+0x1f6>
    1f36: ca           	dex
    1f37: a5 16        	lda	$16                     ; 0x2016 <exhaustZeroes+0x44>
    1f39: 18           	clc
    1f3a: 69 16        	adc	#$16
    1f3c: 85 16        	sta	$16                     ; 0x2016 <exhaustZeroes+0x44>
    1f3e: a5 17        	lda	$17                     ; 0x2017 <exhaustZeroes+0x45>
    1f40: 69 00        	adc	#$0
    1f42: 85 17        	sta	$17                     ; 0x2017 <exhaustZeroes+0x45>
    1f44: a5 19        	lda	$19                     ; 0x2019 <exhaustZeroes+0x47>
    1f46: f0 03        	beq	$1f4b <playMidi+0x20a>
    1f48: 4c cd 1e     	jmp	$1ecd <playMidi+0x18c>
    1f4b: a5 18        	lda	$18                     ; 0x2018 <exhaustZeroes+0x46>
    1f4d: f0 03        	beq	$1f52 <playMidi+0x211>
    1f4f: 4c cd 1e     	jmp	$1ecd <playMidi+0x18c>
    1f52: a0 05        	ldy	#$5
    1f54: b1 10        	lda	($10),y                 ; 0x2010 <exhaustZeroes+0x3e>
    1f56: 20 56 10     	jsr	$1056 <chainEvent>
    1f59: a6 6f        	ldx	$6f                     ; 0x206f <exhaustZeroes+0x9d>
    1f5b: 8a           	txa
    1f5c: a0 04        	ldy	#$4
    1f5e: 91 10        	sta	($10),y                 ; 0x2010 <exhaustZeroes+0x3e>
    1f60: a6 70        	ldx	$70                     ; 0x2070 <exhaustZeroes+0x9e>
    1f62: 8a           	txa
    1f63: c8           	iny
    1f64: 91 10        	sta	($10),y                 ; 0x2010 <exhaustZeroes+0x3e>
    1f66: a5 6d        	lda	$6d                     ; 0x206d <exhaustZeroes+0x9b>
    1f68: a6 6e        	ldx	$6e                     ; 0x206e <exhaustZeroes+0x9c>
    1f6a: a0 16        	ldy	#$16
    1f6c: 64 13        	stz	$13                     ; 0x2013 <exhaustZeroes+0x41>
    1f6e: 84 12        	sty	$12                     ; 0x2012 <exhaustZeroes+0x40>
    1f70: a0 03        	ldy	#$3
    1f72: 91 10        	sta	($10),y                 ; 0x2010 <exhaustZeroes+0x3e>
    1f74: 20 0d 42     	jsr	$420d <__mulhi3>
    1f77: 85 12        	sta	$12                     ; 0x2012 <exhaustZeroes+0x40>
    1f79: 86 13        	stx	$13                     ; 0x2013 <exhaustZeroes+0x41>
    1f7b: 18           	clc
    1f7c: a0 04        	ldy	#$4
    1f7e: b1 10        	lda	($10),y                 ; 0x2010 <exhaustZeroes+0x3e>
    1f80: 65 12        	adc	$12                     ; 0x2012 <exhaustZeroes+0x40>
    1f82: a8           	tay
    1f83: 5a           	phy
    1f84: a0 05        	ldy	#$5
    1f86: b1 10        	lda	($10),y                 ; 0x2010 <exhaustZeroes+0x3e>
    1f88: 7a           	ply
    1f89: 65 13        	adc	$13                     ; 0x2013 <exhaustZeroes+0x41>
    1f8b: aa           	tax
    1f8c: 98           	tya
    1f8d: 84 12        	sty	$12                     ; 0x2012 <exhaustZeroes+0x40>
    1f8f: 86 13        	stx	$13                     ; 0x2013 <exhaustZeroes+0x41>
    1f91: a0 0c        	ldy	#$c
    1f93: 18           	clc
    1f94: 69 0c        	adc	#$c
    1f96: 85 14        	sta	$14                     ; 0x2014 <exhaustZeroes+0x42>
    1f98: 8a           	txa
    1f99: 69 00        	adc	#$0
    1f9b: 85 15        	sta	$15                     ; 0x2015 <exhaustZeroes+0x43>
    1f9d: b1 12        	lda	($12),y                 ; 0x2012 <exhaustZeroes+0x40>
    1f9f: 85 12        	sta	$12                     ; 0x2012 <exhaustZeroes+0x40>
    1fa1: a0 01        	ldy	#$1
    1fa3: b1 14        	lda	($14),y                 ; 0x2014 <exhaustZeroes+0x42>
    1fa5: 85 13        	sta	$13                     ; 0x2013 <exhaustZeroes+0x41>
    1fa7: c8           	iny
    1fa8: b1 14        	lda	($14),y                 ; 0x2014 <exhaustZeroes+0x42>
    1faa: 85 16        	sta	$16                     ; 0x2016 <exhaustZeroes+0x44>
    1fac: c8           	iny
    1fad: b1 14        	lda	($14),y                 ; 0x2014 <exhaustZeroes+0x42>
    1faf: d0 11        	bne	$1fc2 <playMidi+0x281>
    1fb1: a5 16        	lda	$16                     ; 0x2016 <exhaustZeroes+0x44>
    1fb3: d0 0d        	bne	$1fc2 <playMidi+0x281>
    1fb5: a5 13        	lda	$13                     ; 0x2013 <exhaustZeroes+0x41>
    1fb7: d0 09        	bne	$1fc2 <playMidi+0x281>
    1fb9: a5 12        	lda	$12                     ; 0x2012 <exhaustZeroes+0x40>
    1fbb: d0 05        	bne	$1fc2 <playMidi+0x281>
    1fbd: b1 10        	lda	($10),y                 ; 0x2010 <exhaustZeroes+0x3e>
    1fbf: 20 d2 1f     	jsr	$1fd2 <exhaustZeroes>
    1fc2: 64 68        	stz	$68                     ; 0x2068 <exhaustZeroes+0x96>
    1fc4: 18           	clc
    1fc5: a5 10        	lda	$10                     ; 0x2010 <exhaustZeroes+0x3e>
    1fc7: 69 06        	adc	#$6
    1fc9: 85 10        	sta	$10                     ; 0x2010 <exhaustZeroes+0x3e>
    1fcb: a5 11        	lda	$11                     ; 0x2011 <exhaustZeroes+0x3f>
    1fcd: 69 00        	adc	#$0
    1fcf: 85 11        	sta	$11                     ; 0x2011 <exhaustZeroes+0x3f>
    1fd1: 60           	rts

00001fd2 <exhaustZeroes>:
    1fd2: a6 24        	ldx	$24                     ; 0x2024 <exhaustZeroes+0x52>
    1fd4: da           	phx
    1fd5: a6 25        	ldx	$25                     ; 0x2025 <exhaustZeroes+0x53>
    1fd7: da           	phx
    1fd8: a6 26        	ldx	$26                     ; 0x2026 <exhaustZeroes+0x54>
    1fda: da           	phx
    1fdb: 85 24        	sta	$24                     ; 0x2024 <exhaustZeroes+0x52>
    1fdd: a6 6f        	ldx	$6f                     ; 0x206f <exhaustZeroes+0x9d>
    1fdf: a4 70        	ldy	$70                     ; 0x2070 <exhaustZeroes+0x9e>
    1fe1: 86 26        	stx	$26                     ; 0x2026 <exhaustZeroes+0x54>
    1fe3: 84 25        	sty	$25                     ; 0x2025 <exhaustZeroes+0x53>
    1fe5: a2 16        	ldx	#$16
    1fe7: 86 12        	stx	$12                     ; 0x2012 <exhaustZeroes+0x40>
    1fe9: 64 13        	stz	$13                     ; 0x2013 <exhaustZeroes+0x41>
    1feb: a2 00        	ldx	#$0
    1fed: a5 24        	lda	$24                     ; 0x2024 <exhaustZeroes+0x52>
    1fef: 20 0d 42     	jsr	$420d <__mulhi3>
    1ff2: 85 14        	sta	$14                     ; 0x2014 <exhaustZeroes+0x42>
    1ff4: 18           	clc
    1ff5: 65 26        	adc	$26                     ; 0x2026 <exhaustZeroes+0x54>
    1ff7: 85 12        	sta	$12                     ; 0x2012 <exhaustZeroes+0x40>
    1ff9: 8a           	txa
    1ffa: 65 25        	adc	$25                     ; 0x2025 <exhaustZeroes+0x53>
    1ffc: 85 13        	sta	$13                     ; 0x2013 <exhaustZeroes+0x41>
    1ffe: a0 10        	ldy	#$10
    2000: b1 12        	lda	($12),y                 ; 0x2012 <exhaustZeroes+0x40>
    2002: 8d a1 dd     	sta	$dda1                   ; 0xdda1 <end_block9+0x98a1>
    2005: 18           	clc
    2006: a5 14        	lda	$14                     ; 0x2014 <exhaustZeroes+0x42>
    2008: 65 6f        	adc	$6f                     ; 0x206f <exhaustZeroes+0x9d>
    200a: 85 12        	sta	$12                     ; 0x2012 <exhaustZeroes+0x40>
    200c: 8a           	txa
    200d: 65 70        	adc	$70                     ; 0x2070 <exhaustZeroes+0x9e>
    200f: 85 13        	sta	$13                     ; 0x2013 <exhaustZeroes+0x41>
    2011: c8           	iny
    2012: b1 12        	lda	($12),y                 ; 0x2012 <exhaustZeroes+0x40>
    2014: 8d a1 dd     	sta	$dda1                   ; 0xdda1 <end_block9+0x98a1>
    2017: 18           	clc
    2018: a5 14        	lda	$14                     ; 0x2014 <exhaustZeroes+0x42>
    201a: 65 6f        	adc	$6f                     ; 0x206f <exhaustZeroes+0x9d>
    201c: 85 12        	sta	$12                     ; 0x2012 <exhaustZeroes+0x40>
    201e: 8a           	txa
    201f: 65 70        	adc	$70                     ; 0x2070 <exhaustZeroes+0x9e>
    2021: 85 13        	sta	$13                     ; 0x2013 <exhaustZeroes+0x41>
    2023: a0 14        	ldy	#$14
    2025: b1 12        	lda	($12),y                 ; 0x2012 <exhaustZeroes+0x40>
    2027: d0 07        	bne	$2030 <exhaustZeroes+0x5e>
    2029: a0 12        	ldy	#$12
    202b: b1 12        	lda	($12),y                 ; 0x2012 <exhaustZeroes+0x40>
    202d: 8d a1 dd     	sta	$dda1                   ; 0xdda1 <end_block9+0x98a1>
    2030: a5 24        	lda	$24                     ; 0x2024 <exhaustZeroes+0x52>
    2032: 20 56 10     	jsr	$1056 <chainEvent>
    2035: a6 6f        	ldx	$6f                     ; 0x206f <exhaustZeroes+0x9d>
    2037: 86 26        	stx	$26                     ; 0x2026 <exhaustZeroes+0x54>
    2039: a6 70        	ldx	$70                     ; 0x2070 <exhaustZeroes+0x9e>
    203b: 86 25        	stx	$25                     ; 0x2025 <exhaustZeroes+0x53>
    203d: a2 16        	ldx	#$16
    203f: 86 12        	stx	$12                     ; 0x2012 <exhaustZeroes+0x40>
    2041: 64 13        	stz	$13                     ; 0x2013 <exhaustZeroes+0x41>
    2043: a2 00        	ldx	#$0
    2045: a5 24        	lda	$24                     ; 0x2024 <exhaustZeroes+0x52>
    2047: 20 0d 42     	jsr	$420d <__mulhi3>
    204a: 85 12        	sta	$12                     ; 0x2012 <exhaustZeroes+0x40>
    204c: 86 13        	stx	$13                     ; 0x2013 <exhaustZeroes+0x41>
    204e: a5 26        	lda	$26                     ; 0x2026 <exhaustZeroes+0x54>
    2050: 18           	clc
    2051: 65 12        	adc	$12                     ; 0x2012 <exhaustZeroes+0x40>
    2053: aa           	tax
    2054: a5 25        	lda	$25                     ; 0x2025 <exhaustZeroes+0x53>
    2056: 65 13        	adc	$13                     ; 0x2013 <exhaustZeroes+0x41>
    2058: 86 14        	stx	$14                     ; 0x2014 <exhaustZeroes+0x42>
    205a: 86 12        	stx	$12                     ; 0x2012 <exhaustZeroes+0x40>
    205c: 85 15        	sta	$15                     ; 0x2015 <exhaustZeroes+0x43>
    205e: 85 13        	sta	$13                     ; 0x2013 <exhaustZeroes+0x41>
    2060: a0 15        	ldy	#$15
    2062: b1 12        	lda	($12),y                 ; 0x2012 <exhaustZeroes+0x40>
    2064: a2 16        	ldx	#$16
    2066: a8           	tay
    2067: d0 32        	bne	$209b <exhaustZeroes+0xc9>
    2069: 18           	clc
    206a: a5 14        	lda	$14                     ; 0x2014 <exhaustZeroes+0x42>
    206c: 69 0c        	adc	#$c
    206e: 85 14        	sta	$14                     ; 0x2014 <exhaustZeroes+0x42>
    2070: a5 15        	lda	$15                     ; 0x2015 <exhaustZeroes+0x43>
    2072: 69 00        	adc	#$0
    2074: 85 15        	sta	$15                     ; 0x2015 <exhaustZeroes+0x43>
    2076: a0 0c        	ldy	#$c
    2078: b1 12        	lda	($12),y                 ; 0x2012 <exhaustZeroes+0x40>
    207a: 85 12        	sta	$12                     ; 0x2012 <exhaustZeroes+0x40>
    207c: a0 01        	ldy	#$1
    207e: b1 14        	lda	($14),y                 ; 0x2014 <exhaustZeroes+0x42>
    2080: 85 13        	sta	$13                     ; 0x2013 <exhaustZeroes+0x41>
    2082: c8           	iny
    2083: b1 14        	lda	($14),y                 ; 0x2014 <exhaustZeroes+0x42>
    2085: 85 16        	sta	$16                     ; 0x2016 <exhaustZeroes+0x44>
    2087: c8           	iny
    2088: b1 14        	lda	($14),y                 ; 0x2014 <exhaustZeroes+0x42>
    208a: d0 0f        	bne	$209b <exhaustZeroes+0xc9>
    208c: a5 16        	lda	$16                     ; 0x2016 <exhaustZeroes+0x44>
    208e: d0 0b        	bne	$209b <exhaustZeroes+0xc9>
    2090: a5 13        	lda	$13                     ; 0x2013 <exhaustZeroes+0x41>
    2092: d0 07        	bne	$209b <exhaustZeroes+0xc9>
    2094: a5 12        	lda	$12                     ; 0x2012 <exhaustZeroes+0x40>
    2096: d0 03        	bne	$209b <exhaustZeroes+0xc9>
    2098: 4c e7 1f     	jmp	$1fe7 <exhaustZeroes+0x15>
    209b: fa           	plx
    209c: 86 26        	stx	$26                     ; 0x2026 <exhaustZeroes+0x54>
    209e: fa           	plx
    209f: 86 25        	stx	$25                     ; 0x2025 <exhaustZeroes+0x53>
    20a1: fa           	plx
    20a2: 86 24        	stx	$24                     ; 0x2024 <exhaustZeroes+0x52>
    20a4: 60           	rts

000020a5 <exit>:
    20a5: 20 47 03     	jsr	$347 <_fini>
    20a8: 80 fe        	bra	$20a8 <exit+0x3>

000020aa <_ZN12_GLOBAL__N_13putEcP6Status>:
    20aa: a6 24        	ldx	$24                     ; 0x2024 <exhaustZeroes+0x52>
    20ac: da           	phx
    20ad: a6 25        	ldx	$25                     ; 0x2025 <exhaustZeroes+0x53>
    20af: da           	phx
    20b0: 85 16        	sta	$16                     ; 0x2016 <exhaustZeroes+0x44>
    20b2: a6 12        	ldx	$12                     ; 0x2012 <exhaustZeroes+0x40>
    20b4: 86 24        	stx	$24                     ; 0x2024 <exhaustZeroes+0x52>
    20b6: a6 13        	ldx	$13                     ; 0x2013 <exhaustZeroes+0x41>
    20b8: 86 25        	stx	$25                     ; 0x2025 <exhaustZeroes+0x53>
    20ba: a6 25        	ldx	$25                     ; 0x2025 <exhaustZeroes+0x53>
    20bc: 18           	clc
    20bd: a5 12        	lda	$12                     ; 0x2012 <exhaustZeroes+0x40>
    20bf: 69 05        	adc	#$5
    20c1: a8           	tay
    20c2: a5 25        	lda	$25                     ; 0x2025 <exhaustZeroes+0x53>
    20c4: 86 13        	stx	$13                     ; 0x2013 <exhaustZeroes+0x41>
    20c6: 69 00        	adc	#$0
    20c8: 18           	clc
    20c9: 84 14        	sty	$14                     ; 0x2014 <exhaustZeroes+0x42>
    20cb: a0 05        	ldy	#$5
    20cd: 85 15        	sta	$15                     ; 0x2015 <exhaustZeroes+0x43>
    20cf: b1 24        	lda	($24),y                 ; 0x2024 <exhaustZeroes+0x52>
    20d1: aa           	tax
    20d2: a5 12        	lda	$12                     ; 0x2012 <exhaustZeroes+0x40>
    20d4: 69 03        	adc	#$3
    20d6: 85 12        	sta	$12                     ; 0x2012 <exhaustZeroes+0x40>
    20d8: a5 13        	lda	$13                     ; 0x2013 <exhaustZeroes+0x41>
    20da: 69 00        	adc	#$0
    20dc: 85 13        	sta	$13                     ; 0x2013 <exhaustZeroes+0x41>
    20de: a0 01        	ldy	#$1
    20e0: b1 14        	lda	($14),y                 ; 0x2014 <exhaustZeroes+0x42>
    20e2: d1 12        	cmp	($12),y                 ; 0x2012 <exhaustZeroes+0x40>
    20e4: d0 11        	bne	$20f7 <_ZN12_GLOBAL__N_13putEcP6Status+0x4d>
    20e6: a0 03        	ldy	#$3
    20e8: 85 15        	sta	$15                     ; 0x2015 <exhaustZeroes+0x43>
    20ea: b1 24        	lda	($24),y                 ; 0x2024 <exhaustZeroes+0x52>
    20ec: 85 12        	sta	$12                     ; 0x2012 <exhaustZeroes+0x40>
    20ee: 86 14        	stx	$14                     ; 0x2014 <exhaustZeroes+0x42>
    20f0: e4 12        	cpx	$12                     ; 0x2012 <exhaustZeroes+0x40>
    20f2: 90 0b        	bcc	$20ff <_ZN12_GLOBAL__N_13putEcP6Status+0x55>
    20f4: 4c 50 21     	jmp	$2150 <_ZN12_GLOBAL__N_13putEcP6Status+0xa6>
    20f7: 86 14        	stx	$14                     ; 0x2014 <exhaustZeroes+0x42>
    20f9: d1 12        	cmp	($12),y                 ; 0x2012 <exhaustZeroes+0x40>
    20fb: 85 15        	sta	$15                     ; 0x2015 <exhaustZeroes+0x43>
    20fd: b0 51        	bcs	$2150 <_ZN12_GLOBAL__N_13putEcP6Status+0xa6>
    20ff: a5 24        	lda	$24                     ; 0x2024 <exhaustZeroes+0x52>
    2101: 18           	clc
    2102: 69 0f        	adc	#$f
    2104: 85 12        	sta	$12                     ; 0x2012 <exhaustZeroes+0x40>
    2106: a5 25        	lda	$25                     ; 0x2025 <exhaustZeroes+0x53>
    2108: 69 00        	adc	#$0
    210a: 85 13        	sta	$13                     ; 0x2013 <exhaustZeroes+0x41>
    210c: a0 01        	ldy	#$1
    210e: b1 12        	lda	($12),y                 ; 0x2012 <exhaustZeroes+0x40>
    2110: a2 00        	ldx	#$0
    2112: 86 12        	stx	$12                     ; 0x2012 <exhaustZeroes+0x40>
    2114: a2 00        	ldx	#$0
    2116: 86 13        	stx	$13                     ; 0x2013 <exhaustZeroes+0x41>
    2118: c5 13        	cmp	$13                     ; 0x2013 <exhaustZeroes+0x41>
    211a: d0 2d        	bne	$2149 <_ZN12_GLOBAL__N_13putEcP6Status+0x9f>
    211c: a0 0f        	ldy	#$f
    211e: b1 24        	lda	($24),y                 ; 0x2024 <exhaustZeroes+0x52>
    2120: c5 12        	cmp	$12                     ; 0x2012 <exhaustZeroes+0x40>
    2122: d0 25        	bne	$2149 <_ZN12_GLOBAL__N_13putEcP6Status+0x9f>
    2124: a5 24        	lda	$24                     ; 0x2024 <exhaustZeroes+0x52>
    2126: 18           	clc
    2127: 69 09        	adc	#$9
    2129: 85 12        	sta	$12                     ; 0x2012 <exhaustZeroes+0x40>
    212b: a5 25        	lda	$25                     ; 0x2025 <exhaustZeroes+0x53>
    212d: 69 00        	adc	#$0
    212f: a0 09        	ldy	#$9
    2131: 85 13        	sta	$13                     ; 0x2013 <exhaustZeroes+0x41>
    2133: 18           	clc
    2134: a5 14        	lda	$14                     ; 0x2014 <exhaustZeroes+0x42>
    2136: 71 24        	adc	($24),y                 ; 0x2024 <exhaustZeroes+0x52>
    2138: aa           	tax
    2139: a0 01        	ldy	#$1
    213b: a5 15        	lda	$15                     ; 0x2015 <exhaustZeroes+0x43>
    213d: 71 12        	adc	($12),y                 ; 0x2012 <exhaustZeroes+0x40>
    213f: 86 12        	stx	$12                     ; 0x2012 <exhaustZeroes+0x40>
    2141: 85 13        	sta	$13                     ; 0x2013 <exhaustZeroes+0x41>
    2143: a5 16        	lda	$16                     ; 0x2016 <exhaustZeroes+0x44>
    2145: 92 12        	sta	($12)                   ; 0x2012 <exhaustZeroes+0x40>
    2147: 80 07        	bra	$2150 <_ZN12_GLOBAL__N_13putEcP6Status+0xa6>
    2149: a2 00        	ldx	#$0
    214b: a5 16        	lda	$16                     ; 0x2016 <exhaustZeroes+0x44>
    214d: 20 03 3d     	jsr	$3d03 <putchar>
    2150: a0 05        	ldy	#$5
    2152: a5 24        	lda	$24                     ; 0x2024 <exhaustZeroes+0x52>
    2154: 18           	clc
    2155: 69 05        	adc	#$5
    2157: 85 12        	sta	$12                     ; 0x2012 <exhaustZeroes+0x40>
    2159: a5 25        	lda	$25                     ; 0x2025 <exhaustZeroes+0x53>
    215b: 69 00        	adc	#$0
    215d: 85 13        	sta	$13                     ; 0x2013 <exhaustZeroes+0x41>
    215f: b1 24        	lda	($24),y                 ; 0x2024 <exhaustZeroes+0x52>
    2161: aa           	tax
    2162: a0 01        	ldy	#$1
    2164: b1 12        	lda	($12),y                 ; 0x2012 <exhaustZeroes+0x40>
    2166: e8           	inx
    2167: d0 01        	bne	$216a <_ZN12_GLOBAL__N_13putEcP6Status+0xc0>
    2169: 1a           	inc
    216a: 85 14        	sta	$14                     ; 0x2014 <exhaustZeroes+0x42>
    216c: 8a           	txa
    216d: a0 05        	ldy	#$5
    216f: 91 24        	sta	($24),y                 ; 0x2024 <exhaustZeroes+0x52>
    2171: a0 01        	ldy	#$1
    2173: a5 14        	lda	$14                     ; 0x2014 <exhaustZeroes+0x42>
    2175: 91 12        	sta	($12),y                 ; 0x2012 <exhaustZeroes+0x40>
    2177: fa           	plx
    2178: 86 25        	stx	$25                     ; 0x2025 <exhaustZeroes+0x53>
    217a: fa           	plx
    217b: 86 24        	stx	$24                     ; 0x2024 <exhaustZeroes+0x52>
    217d: 60           	rts

0000217e <_ZN12_GLOBAL__N_112print_stringEPKcP6Status>:
    217e: 18           	clc
    217f: a5 10        	lda	$10                     ; 0x2010 <exhaustZeroes+0x3e>
    2181: 69 fc        	adc	#$fc
    2183: 85 10        	sta	$10                     ; 0x2010 <exhaustZeroes+0x3e>
    2185: a5 11        	lda	$11                     ; 0x2011 <exhaustZeroes+0x3f>
    2187: 69 ff        	adc	#$ff
    2189: 85 11        	sta	$11                     ; 0x2011 <exhaustZeroes+0x3f>
    218b: a6 24        	ldx	$24                     ; 0x2024 <exhaustZeroes+0x52>
    218d: da           	phx
    218e: a6 25        	ldx	$25                     ; 0x2025 <exhaustZeroes+0x53>
    2190: da           	phx
    2191: a6 26        	ldx	$26                     ; 0x2026 <exhaustZeroes+0x54>
    2193: da           	phx
    2194: a6 27        	ldx	$27                     ; 0x2027 <exhaustZeroes+0x55>
    2196: da           	phx
    2197: a5 28        	lda	$28                     ; 0x2028 <exhaustZeroes+0x56>
    2199: a0 02        	ldy	#$2
    219b: 91 10        	sta	($10),y                 ; 0x2010 <exhaustZeroes+0x3e>
    219d: a5 29        	lda	$29                     ; 0x2029 <exhaustZeroes+0x57>
    219f: 88           	dey
    21a0: 91 10        	sta	($10),y                 ; 0x2010 <exhaustZeroes+0x3e>
    21a2: a5 2a        	lda	$2a                     ; 0x202a <exhaustZeroes+0x58>
    21a4: 88           	dey
    21a5: 91 10        	sta	($10),y                 ; 0x2010 <exhaustZeroes+0x3e>
    21a7: a6 12        	ldx	$12                     ; 0x2012 <exhaustZeroes+0x40>
    21a9: 86 24        	stx	$24                     ; 0x2024 <exhaustZeroes+0x52>
    21ab: a6 13        	ldx	$13                     ; 0x2013 <exhaustZeroes+0x41>
    21ad: 86 25        	stx	$25                     ; 0x2025 <exhaustZeroes+0x53>
    21af: a6 14        	ldx	$14                     ; 0x2014 <exhaustZeroes+0x42>
    21b1: 86 26        	stx	$26                     ; 0x2026 <exhaustZeroes+0x54>
    21b3: a6 15        	ldx	$15                     ; 0x2015 <exhaustZeroes+0x43>
    21b5: 86 27        	stx	$27                     ; 0x2027 <exhaustZeroes+0x55>
    21b7: a5 26        	lda	$26                     ; 0x2026 <exhaustZeroes+0x54>
    21b9: 18           	clc
    21ba: 69 0d        	adc	#$d
    21bc: 85 12        	sta	$12                     ; 0x2012 <exhaustZeroes+0x40>
    21be: a5 27        	lda	$27                     ; 0x2027 <exhaustZeroes+0x55>
    21c0: 69 00        	adc	#$0
    21c2: 85 13        	sta	$13                     ; 0x2013 <exhaustZeroes+0x41>
    21c4: c8           	iny
    21c5: b1 12        	lda	($12),y                 ; 0x2012 <exhaustZeroes+0x40>
    21c7: 30 1c        	bmi	$21e5 <_ZN12_GLOBAL__N_112print_stringEPKcP6Status+0x67>
    21c9: a0 0d        	ldy	#$d
    21cb: aa           	tax
    21cc: b1 26        	lda	($26),y                 ; 0x2026 <exhaustZeroes+0x54>
    21ce: 48           	pha
    21cf: 8a           	txa
    21d0: a0 03        	ldy	#$3
    21d2: 91 10        	sta	($10),y                 ; 0x2010 <exhaustZeroes+0x3e>
    21d4: 68           	pla
    21d5: e0 00        	cpx	#$0
    21d7: d0 16        	bne	$21ef <_ZN12_GLOBAL__N_112print_stringEPKcP6Status+0x71>
    21d9: aa           	tax
    21da: d0 13        	bne	$21ef <_ZN12_GLOBAL__N_112print_stringEPKcP6Status+0x71>
    21dc: 64 28        	stz	$28                     ; 0x2028 <exhaustZeroes+0x56>
    21de: 64 12        	stz	$12                     ; 0x2012 <exhaustZeroes+0x40>
    21e0: a9 00        	lda	#$0
    21e2: 4c ed 22     	jmp	$22ed <_ZN12_GLOBAL__N_112print_stringEPKcP6Status+0x16f>
    21e5: a9 ff        	lda	#$ff
    21e7: aa           	tax
    21e8: 48           	pha
    21e9: 8a           	txa
    21ea: a0 03        	ldy	#$3
    21ec: 91 10        	sta	($10),y                 ; 0x2010 <exhaustZeroes+0x3e>
    21ee: 68           	pla
    21ef: 85 28        	sta	$28                     ; 0x2028 <exhaustZeroes+0x56>
    21f1: 64 12        	stz	$12                     ; 0x2012 <exhaustZeroes+0x40>
    21f3: a4 24        	ldy	$24                     ; 0x2024 <exhaustZeroes+0x52>
    21f5: a6 25        	ldx	$25                     ; 0x2025 <exhaustZeroes+0x53>
    21f7: 86 16        	stx	$16                     ; 0x2016 <exhaustZeroes+0x44>
    21f9: 64 13        	stz	$13                     ; 0x2013 <exhaustZeroes+0x41>
    21fb: 98           	tya
    21fc: 18           	clc
    21fd: 65 12        	adc	$12                     ; 0x2012 <exhaustZeroes+0x40>
    21ff: 85 14        	sta	$14                     ; 0x2014 <exhaustZeroes+0x42>
    2201: a5 25        	lda	$25                     ; 0x2025 <exhaustZeroes+0x53>
    2203: 65 13        	adc	$13                     ; 0x2013 <exhaustZeroes+0x41>
    2205: 85 15        	sta	$15                     ; 0x2015 <exhaustZeroes+0x43>
    2207: b2 14        	lda	($14)                   ; 0x2014 <exhaustZeroes+0x42>
    2209: d0 03        	bne	$220e <_ZN12_GLOBAL__N_112print_stringEPKcP6Status+0x90>
    220b: 4c e5 22     	jmp	$22e5 <_ZN12_GLOBAL__N_112print_stringEPKcP6Status+0x167>
    220e: e6 12        	inc	$12                     ; 0x2012 <exhaustZeroes+0x40>
    2210: d0 02        	bne	$2214 <_ZN12_GLOBAL__N_112print_stringEPKcP6Status+0x96>
    2212: e6 13        	inc	$13                     ; 0x2013 <exhaustZeroes+0x41>
    2214: 5a           	phy
    2215: a0 03        	ldy	#$3
    2217: b1 10        	lda	($10),y                 ; 0x2010 <exhaustZeroes+0x3e>
    2219: 7a           	ply
    221a: c5 13        	cmp	$13                     ; 0x2013 <exhaustZeroes+0x41>
    221c: d0 dd        	bne	$21fb <_ZN12_GLOBAL__N_112print_stringEPKcP6Status+0x7d>
    221e: a6 28        	ldx	$28                     ; 0x2028 <exhaustZeroes+0x56>
    2220: e4 12        	cpx	$12                     ; 0x2012 <exhaustZeroes+0x40>
    2222: d0 d7        	bne	$21fb <_ZN12_GLOBAL__N_112print_stringEPKcP6Status+0x7d>
    2224: a0 01        	ldy	#$1
    2226: b1 26        	lda	($26),y                 ; 0x2026 <exhaustZeroes+0x54>
    2228: 29 01        	and	#$1
    222a: f0 03        	beq	$222f <_ZN12_GLOBAL__N_112print_stringEPKcP6Status+0xb1>
    222c: 4c 8a 22     	jmp	$228a <_ZN12_GLOBAL__N_112print_stringEPKcP6Status+0x10c>
    222f: a5 26        	lda	$26                     ; 0x2026 <exhaustZeroes+0x54>
    2231: 18           	clc
    2232: 69 0b        	adc	#$b
    2234: 85 14        	sta	$14                     ; 0x2014 <exhaustZeroes+0x42>
    2236: a5 27        	lda	$27                     ; 0x2027 <exhaustZeroes+0x55>
    2238: 69 00        	adc	#$0
    223a: 85 15        	sta	$15                     ; 0x2015 <exhaustZeroes+0x43>
    223c: a0 0b        	ldy	#$b
    223e: b1 26        	lda	($26),y                 ; 0x2026 <exhaustZeroes+0x54>
    2240: 85 13        	sta	$13                     ; 0x2013 <exhaustZeroes+0x41>
    2242: a0 01        	ldy	#$1
    2244: b1 14        	lda	($14),y                 ; 0x2014 <exhaustZeroes+0x42>
    2246: 85 12        	sta	$12                     ; 0x2012 <exhaustZeroes+0x40>
    2248: a0 03        	ldy	#$3
    224a: b1 10        	lda	($10),y                 ; 0x2010 <exhaustZeroes+0x3e>
    224c: aa           	tax
    224d: c5 12        	cmp	$12                     ; 0x2012 <exhaustZeroes+0x40>
    224f: d0 08        	bne	$2259 <_ZN12_GLOBAL__N_112print_stringEPKcP6Status+0xdb>
    2251: a6 28        	ldx	$28                     ; 0x2028 <exhaustZeroes+0x56>
    2253: e4 13        	cpx	$13                     ; 0x2013 <exhaustZeroes+0x41>
    2255: 90 06        	bcc	$225d <_ZN12_GLOBAL__N_112print_stringEPKcP6Status+0xdf>
    2257: 80 31        	bra	$228a <_ZN12_GLOBAL__N_112print_stringEPKcP6Status+0x10c>
    2259: e4 12        	cpx	$12                     ; 0x2012 <exhaustZeroes+0x40>
    225b: b0 2d        	bcs	$228a <_ZN12_GLOBAL__N_112print_stringEPKcP6Status+0x10c>
    225d: 38           	sec
    225e: a5 28        	lda	$28                     ; 0x2028 <exhaustZeroes+0x56>
    2260: e5 13        	sbc	$13                     ; 0x2013 <exhaustZeroes+0x41>
    2262: aa           	tax
    2263: b1 10        	lda	($10),y                 ; 0x2010 <exhaustZeroes+0x3e>
    2265: e5 12        	sbc	$12                     ; 0x2012 <exhaustZeroes+0x40>
    2267: 85 2a        	sta	$2a                     ; 0x202a <exhaustZeroes+0x58>
    2269: a4 26        	ldy	$26                     ; 0x2026 <exhaustZeroes+0x54>
    226b: 84 12        	sty	$12                     ; 0x2012 <exhaustZeroes+0x40>
    226d: a4 27        	ldy	$27                     ; 0x2027 <exhaustZeroes+0x55>
    226f: 84 13        	sty	$13                     ; 0x2013 <exhaustZeroes+0x41>
    2271: 86 29        	stx	$29                     ; 0x2029 <exhaustZeroes+0x57>
    2273: a9 20        	lda	#$20
    2275: 20 aa 20     	jsr	$20aa <_ZN12_GLOBAL__N_13putEcP6Status>
    2278: a4 2a        	ldy	$2a                     ; 0x202a <exhaustZeroes+0x58>
    227a: e6 29        	inc	$29                     ; 0x2029 <exhaustZeroes+0x57>
    227c: d0 01        	bne	$227f <_ZN12_GLOBAL__N_112print_stringEPKcP6Status+0x101>
    227e: c8           	iny
    227f: 84 2a        	sty	$2a                     ; 0x202a <exhaustZeroes+0x58>
    2281: a6 29        	ldx	$29                     ; 0x2029 <exhaustZeroes+0x57>
    2283: 98           	tya
    2284: d0 e3        	bne	$2269 <_ZN12_GLOBAL__N_112print_stringEPKcP6Status+0xeb>
    2286: a5 29        	lda	$29                     ; 0x2029 <exhaustZeroes+0x57>
    2288: d0 df        	bne	$2269 <_ZN12_GLOBAL__N_112print_stringEPKcP6Status+0xeb>
    228a: a0 03        	ldy	#$3
    228c: b1 10        	lda	($10),y                 ; 0x2010 <exhaustZeroes+0x3e>
    228e: a8           	tay
    228f: d0 04        	bne	$2295 <_ZN12_GLOBAL__N_112print_stringEPKcP6Status+0x117>
    2291: a5 28        	lda	$28                     ; 0x2028 <exhaustZeroes+0x56>
    2293: f0 26        	beq	$22bb <_ZN12_GLOBAL__N_112print_stringEPKcP6Status+0x13d>
    2295: a2 ff        	ldx	#$ff
    2297: c6 28        	dec	$28                     ; 0x2028 <exhaustZeroes+0x56>
    2299: e4 28        	cpx	$28                     ; 0x2028 <exhaustZeroes+0x56>
    229b: d0 01        	bne	$229e <_ZN12_GLOBAL__N_112print_stringEPKcP6Status+0x120>
    229d: 88           	dey
    229e: 84 29        	sty	$29                     ; 0x2029 <exhaustZeroes+0x57>
    22a0: b2 24        	lda	($24)                   ; 0x2024 <exhaustZeroes+0x52>
    22a2: e6 24        	inc	$24                     ; 0x2024 <exhaustZeroes+0x52>
    22a4: d0 02        	bne	$22a8 <_ZN12_GLOBAL__N_112print_stringEPKcP6Status+0x12a>
    22a6: e6 25        	inc	$25                     ; 0x2025 <exhaustZeroes+0x53>
    22a8: a6 26        	ldx	$26                     ; 0x2026 <exhaustZeroes+0x54>
    22aa: 86 12        	stx	$12                     ; 0x2012 <exhaustZeroes+0x40>
    22ac: a6 27        	ldx	$27                     ; 0x2027 <exhaustZeroes+0x55>
    22ae: 86 13        	stx	$13                     ; 0x2013 <exhaustZeroes+0x41>
    22b0: 20 aa 20     	jsr	$20aa <_ZN12_GLOBAL__N_13putEcP6Status>
    22b3: a4 29        	ldy	$29                     ; 0x2029 <exhaustZeroes+0x57>
    22b5: d0 de        	bne	$2295 <_ZN12_GLOBAL__N_112print_stringEPKcP6Status+0x117>
    22b7: a5 28        	lda	$28                     ; 0x2028 <exhaustZeroes+0x56>
    22b9: d0 da        	bne	$2295 <_ZN12_GLOBAL__N_112print_stringEPKcP6Status+0x117>
    22bb: a0 00        	ldy	#$0
    22bd: b1 10        	lda	($10),y                 ; 0x2010 <exhaustZeroes+0x3e>
    22bf: 85 2a        	sta	$2a                     ; 0x202a <exhaustZeroes+0x58>
    22c1: c8           	iny
    22c2: b1 10        	lda	($10),y                 ; 0x2010 <exhaustZeroes+0x3e>
    22c4: 85 29        	sta	$29                     ; 0x2029 <exhaustZeroes+0x57>
    22c6: c8           	iny
    22c7: b1 10        	lda	($10),y                 ; 0x2010 <exhaustZeroes+0x3e>
    22c9: 85 28        	sta	$28                     ; 0x2028 <exhaustZeroes+0x56>
    22cb: fa           	plx
    22cc: 86 27        	stx	$27                     ; 0x2027 <exhaustZeroes+0x55>
    22ce: fa           	plx
    22cf: 86 26        	stx	$26                     ; 0x2026 <exhaustZeroes+0x54>
    22d1: fa           	plx
    22d2: 86 25        	stx	$25                     ; 0x2025 <exhaustZeroes+0x53>
    22d4: fa           	plx
    22d5: 86 24        	stx	$24                     ; 0x2024 <exhaustZeroes+0x52>
    22d7: 18           	clc
    22d8: a5 10        	lda	$10                     ; 0x2010 <exhaustZeroes+0x3e>
    22da: 69 04        	adc	#$4
    22dc: 85 10        	sta	$10                     ; 0x2010 <exhaustZeroes+0x3e>
    22de: a5 11        	lda	$11                     ; 0x2011 <exhaustZeroes+0x3f>
    22e0: 69 00        	adc	#$0
    22e2: 85 11        	sta	$11                     ; 0x2011 <exhaustZeroes+0x3f>
    22e4: 60           	rts
    22e5: a6 12        	ldx	$12                     ; 0x2012 <exhaustZeroes+0x40>
    22e7: 86 28        	stx	$28                     ; 0x2028 <exhaustZeroes+0x56>
    22e9: a5 13        	lda	$13                     ; 0x2013 <exhaustZeroes+0x41>
    22eb: a0 03        	ldy	#$3
    22ed: 91 10        	sta	($10),y                 ; 0x2010 <exhaustZeroes+0x3e>
    22ef: 4c 24 22     	jmp	$2224 <_ZN12_GLOBAL__N_112print_stringEPKcP6Status+0xa6>

000022f2 <printf>:
    22f2: 18           	clc
    22f3: a5 10        	lda	$10                     ; 0x2010 <exhaustZeroes+0x3e>
    22f5: 69 ab        	adc	#$ab
    22f7: 85 10        	sta	$10                     ; 0x2010 <exhaustZeroes+0x3e>
    22f9: a5 11        	lda	$11                     ; 0x2011 <exhaustZeroes+0x3f>
    22fb: 69 ff        	adc	#$ff
    22fd: 85 11        	sta	$11                     ; 0x2011 <exhaustZeroes+0x3f>
    22ff: a6 24        	ldx	$24                     ; 0x2024 <exhaustZeroes+0x52>
    2301: da           	phx
    2302: a6 25        	ldx	$25                     ; 0x2025 <exhaustZeroes+0x53>
    2304: da           	phx
    2305: a6 26        	ldx	$26                     ; 0x2026 <exhaustZeroes+0x54>
    2307: da           	phx
    2308: a6 27        	ldx	$27                     ; 0x2027 <exhaustZeroes+0x55>
    230a: da           	phx
    230b: a5 28        	lda	$28                     ; 0x2028 <exhaustZeroes+0x56>
    230d: a0 07        	ldy	#$7
    230f: 91 10        	sta	($10),y                 ; 0x2010 <exhaustZeroes+0x3e>
    2311: a5 29        	lda	$29                     ; 0x2029 <exhaustZeroes+0x57>
    2313: 88           	dey
    2314: 91 10        	sta	($10),y                 ; 0x2010 <exhaustZeroes+0x3e>
    2316: a5 2a        	lda	$2a                     ; 0x202a <exhaustZeroes+0x58>
    2318: 88           	dey
    2319: 91 10        	sta	($10),y                 ; 0x2010 <exhaustZeroes+0x3e>
    231b: a5 2b        	lda	$2b                     ; 0x202b <exhaustZeroes+0x59>
    231d: 88           	dey
    231e: 91 10        	sta	($10),y                 ; 0x2010 <exhaustZeroes+0x3e>
    2320: a5 2c        	lda	$2c                     ; 0x202c <exhaustZeroes+0x5a>
    2322: 88           	dey
    2323: 91 10        	sta	($10),y                 ; 0x2010 <exhaustZeroes+0x3e>
    2325: a5 2d        	lda	$2d                     ; 0x202d <exhaustZeroes+0x5b>
    2327: 88           	dey
    2328: 91 10        	sta	($10),y                 ; 0x2010 <exhaustZeroes+0x3e>
    232a: a5 2e        	lda	$2e                     ; 0x202e <exhaustZeroes+0x5c>
    232c: 88           	dey
    232d: 91 10        	sta	($10),y                 ; 0x2010 <exhaustZeroes+0x3e>
    232f: a5 2f        	lda	$2f                     ; 0x202f <exhaustZeroes+0x5d>
    2331: 88           	dey
    2332: 91 10        	sta	($10),y                 ; 0x2010 <exhaustZeroes+0x3e>
    2334: 18           	clc
    2335: a5 10        	lda	$10                     ; 0x2010 <exhaustZeroes+0x3e>
    2337: 69 55        	adc	#$55
    2339: 48           	pha
    233a: a5 11        	lda	$11                     ; 0x2011 <exhaustZeroes+0x3f>
    233c: 69 00        	adc	#$0
    233e: 85 16        	sta	$16                     ; 0x2016 <exhaustZeroes+0x44>
    2340: 18           	clc
    2341: a5 10        	lda	$10                     ; 0x2010 <exhaustZeroes+0x3e>
    2343: 69 1c        	adc	#$1c
    2345: 85 14        	sta	$14                     ; 0x2014 <exhaustZeroes+0x42>
    2347: a5 11        	lda	$11                     ; 0x2011 <exhaustZeroes+0x3f>
    2349: 69 00        	adc	#$0
    234b: 85 15        	sta	$15                     ; 0x2015 <exhaustZeroes+0x43>
    234d: 68           	pla
    234e: 92 14        	sta	($14)                   ; 0x2014 <exhaustZeroes+0x42>
    2350: c8           	iny
    2351: a5 16        	lda	$16                     ; 0x2016 <exhaustZeroes+0x44>
    2353: 91 14        	sta	($14),y                 ; 0x2014 <exhaustZeroes+0x42>
    2355: b2 14        	lda	($14)                   ; 0x2014 <exhaustZeroes+0x42>
    2357: 85 17        	sta	$17                     ; 0x2017 <exhaustZeroes+0x45>
    2359: b1 14        	lda	($14),y                 ; 0x2014 <exhaustZeroes+0x42>
    235b: 85 16        	sta	$16                     ; 0x2016 <exhaustZeroes+0x44>
    235d: 18           	clc
    235e: a5 10        	lda	$10                     ; 0x2010 <exhaustZeroes+0x3e>
    2360: 69 31        	adc	#$31
    2362: 85 14        	sta	$14                     ; 0x2014 <exhaustZeroes+0x42>
    2364: a5 11        	lda	$11                     ; 0x2011 <exhaustZeroes+0x3f>
    2366: 69 00        	adc	#$0
    2368: 85 15        	sta	$15                     ; 0x2015 <exhaustZeroes+0x43>
    236a: a5 17        	lda	$17                     ; 0x2017 <exhaustZeroes+0x45>
    236c: 92 14        	sta	($14)                   ; 0x2014 <exhaustZeroes+0x42>
    236e: a5 16        	lda	$16                     ; 0x2016 <exhaustZeroes+0x44>
    2370: 91 14        	sta	($14),y                 ; 0x2014 <exhaustZeroes+0x42>
    2372: 18           	clc
    2373: a5 10        	lda	$10                     ; 0x2010 <exhaustZeroes+0x3e>
    2375: 69 1e        	adc	#$1e
    2377: 85 1f        	sta	$1f                     ; 0x201f <exhaustZeroes+0x4d>
    2379: a5 11        	lda	$11                     ; 0x2011 <exhaustZeroes+0x3f>
    237b: 69 00        	adc	#$0
    237d: 85 1e        	sta	$1e                     ; 0x201e <exhaustZeroes+0x4c>
    237f: 18           	clc
    2380: a5 10        	lda	$10                     ; 0x2010 <exhaustZeroes+0x3e>
    2382: 69 1e        	adc	#$1e
    2384: 48           	pha
    2385: a5 11        	lda	$11                     ; 0x2011 <exhaustZeroes+0x3f>
    2387: 69 00        	adc	#$0
    2389: aa           	tax
    238a: 68           	pla
    238b: 85 16        	sta	$16                     ; 0x2016 <exhaustZeroes+0x44>
    238d: 86 17        	stx	$17                     ; 0x2017 <exhaustZeroes+0x45>
    238f: 18           	clc
    2390: 69 03        	adc	#$3
    2392: 85 18        	sta	$18                     ; 0x2018 <exhaustZeroes+0x46>
    2394: 8a           	txa
    2395: 69 00        	adc	#$0
    2397: 18           	clc
    2398: 48           	pha
    2399: a5 10        	lda	$10                     ; 0x2010 <exhaustZeroes+0x3e>
    239b: 69 1e        	adc	#$1e
    239d: 85 1a        	sta	$1a                     ; 0x201a <exhaustZeroes+0x48>
    239f: a5 11        	lda	$11                     ; 0x2011 <exhaustZeroes+0x3f>
    23a1: 69 00        	adc	#$0
    23a3: 85 1b        	sta	$1b                     ; 0x201b <exhaustZeroes+0x49>
    23a5: 68           	pla
    23a6: 85 19        	sta	$19                     ; 0x2019 <exhaustZeroes+0x47>
    23a8: 18           	clc
    23a9: a5 1a        	lda	$1a                     ; 0x201a <exhaustZeroes+0x48>
    23ab: 69 05        	adc	#$5
    23ad: 85 1a        	sta	$1a                     ; 0x201a <exhaustZeroes+0x48>
    23af: a5 1b        	lda	$1b                     ; 0x201b <exhaustZeroes+0x49>
    23b1: 69 00        	adc	#$0
    23b3: 85 1b        	sta	$1b                     ; 0x201b <exhaustZeroes+0x49>
    23b5: 18           	clc
    23b6: a5 10        	lda	$10                     ; 0x2010 <exhaustZeroes+0x3e>
    23b8: 69 1e        	adc	#$1e
    23ba: 48           	pha
    23bb: a5 11        	lda	$11                     ; 0x2011 <exhaustZeroes+0x3f>
    23bd: 69 00        	adc	#$0
    23bf: 85 1c        	sta	$1c                     ; 0x201c <exhaustZeroes+0x4a>
    23c1: 68           	pla
    23c2: 18           	clc
    23c3: 69 09        	adc	#$9
    23c5: aa           	tax
    23c6: a5 1c        	lda	$1c                     ; 0x201c <exhaustZeroes+0x4a>
    23c8: 69 00        	adc	#$0
    23ca: 86 1c        	stx	$1c                     ; 0x201c <exhaustZeroes+0x4a>
    23cc: 85 1d        	sta	$1d                     ; 0x201d <exhaustZeroes+0x4b>
    23ce: a2 00        	ldx	#$0
    23d0: 86 2e        	stx	$2e                     ; 0x202e <exhaustZeroes+0x5c>
    23d2: a2 00        	ldx	#$0
    23d4: 86 2f        	stx	$2f                     ; 0x202f <exhaustZeroes+0x5d>
    23d6: a5 2e        	lda	$2e                     ; 0x202e <exhaustZeroes+0x5c>
    23d8: a0 09        	ldy	#$9
    23da: 91 16        	sta	($16),y                 ; 0x2016 <exhaustZeroes+0x44>
    23dc: a0 01        	ldy	#$1
    23de: a5 2f        	lda	$2f                     ; 0x202f <exhaustZeroes+0x5d>
    23e0: 91 1c        	sta	($1c),y                 ; 0x201c <exhaustZeroes+0x4a>
    23e2: 18           	clc
    23e3: a5 1f        	lda	$1f                     ; 0x201f <exhaustZeroes+0x4d>
    23e5: 69 0f        	adc	#$f
    23e7: 85 1c        	sta	$1c                     ; 0x201c <exhaustZeroes+0x4a>
    23e9: a5 1e        	lda	$1e                     ; 0x201e <exhaustZeroes+0x4c>
    23eb: 69 00        	adc	#$0
    23ed: 18           	clc
    23ee: 48           	pha
    23ef: a5 10        	lda	$10                     ; 0x2010 <exhaustZeroes+0x3e>
    23f1: 69 1e        	adc	#$1e
    23f3: 85 1e        	sta	$1e                     ; 0x201e <exhaustZeroes+0x4c>
    23f5: a5 11        	lda	$11                     ; 0x2011 <exhaustZeroes+0x3f>
    23f7: 69 00        	adc	#$0
    23f9: aa           	tax
    23fa: 68           	pla
    23fb: a0 0f        	ldy	#$f
    23fd: 85 1d        	sta	$1d                     ; 0x201d <exhaustZeroes+0x4b>
    23ff: a9 02        	lda	#$2
    2401: 91 16        	sta	($16),y                 ; 0x2016 <exhaustZeroes+0x44>
    2403: 18           	clc
    2404: a5 1e        	lda	$1e                     ; 0x201e <exhaustZeroes+0x4c>
    2406: 69 11        	adc	#$11
    2408: 85 1e        	sta	$1e                     ; 0x201e <exhaustZeroes+0x4c>
    240a: 8a           	txa
    240b: 69 00        	adc	#$0
    240d: 85 1f        	sta	$1f                     ; 0x201f <exhaustZeroes+0x4d>
    240f: a0 03        	ldy	#$3
    2411: a9 ff        	lda	#$ff
    2413: 91 16        	sta	($16),y                 ; 0x2016 <exhaustZeroes+0x44>
    2415: a0 01        	ldy	#$1
    2417: 91 18        	sta	($18),y                 ; 0x2018 <exhaustZeroes+0x46>
    2419: a0 05        	ldy	#$5
    241b: 1a           	inc
    241c: 91 16        	sta	($16),y                 ; 0x2016 <exhaustZeroes+0x44>
    241e: a0 01        	ldy	#$1
    2420: 91 1a        	sta	($1a),y                 ; 0x201a <exhaustZeroes+0x48>
    2422: 91 1c        	sta	($1c),y                 ; 0x201c <exhaustZeroes+0x4a>
    2424: b2 14        	lda	($14)                   ; 0x2014 <exhaustZeroes+0x42>
    2426: 85 18        	sta	$18                     ; 0x2018 <exhaustZeroes+0x46>
    2428: b1 14        	lda	($14),y                 ; 0x2014 <exhaustZeroes+0x42>
    242a: 85 14        	sta	$14                     ; 0x2014 <exhaustZeroes+0x42>
    242c: a0 11        	ldy	#$11
    242e: a5 18        	lda	$18                     ; 0x2018 <exhaustZeroes+0x46>
    2430: 91 16        	sta	($16),y                 ; 0x2016 <exhaustZeroes+0x44>
    2432: a0 01        	ldy	#$1
    2434: a5 14        	lda	$14                     ; 0x2014 <exhaustZeroes+0x42>
    2436: 91 1e        	sta	($1e),y                 ; 0x201e <exhaustZeroes+0x4c>
    2438: 18           	clc
    2439: 5a           	phy
    243a: a5 10        	lda	$10                     ; 0x2010 <exhaustZeroes+0x3e>
    243c: 69 33        	adc	#$33
    243e: 85 2a        	sta	$2a                     ; 0x202a <exhaustZeroes+0x58>
    2440: a5 11        	lda	$11                     ; 0x2011 <exhaustZeroes+0x3f>
    2442: 69 00        	adc	#$0
    2444: 85 2b        	sta	$2b                     ; 0x202b <exhaustZeroes+0x59>
    2446: 18           	clc
    2447: a5 10        	lda	$10                     ; 0x2010 <exhaustZeroes+0x3e>
    2449: 69 3e        	adc	#$3e
    244b: 85 16        	sta	$16                     ; 0x2016 <exhaustZeroes+0x44>
    244d: a5 11        	lda	$11                     ; 0x2011 <exhaustZeroes+0x3f>
    244f: 69 00        	adc	#$0
    2451: 85 17        	sta	$17                     ; 0x2017 <exhaustZeroes+0x45>
    2453: a5 16        	lda	$16                     ; 0x2016 <exhaustZeroes+0x44>
    2455: a0 0b        	ldy	#$b
    2457: 91 10        	sta	($10),y                 ; 0x2010 <exhaustZeroes+0x3e>
    2459: 18           	clc
    245a: 69 02        	adc	#$2
    245c: 85 2c        	sta	$2c                     ; 0x202c <exhaustZeroes+0x5a>
    245e: a5 17        	lda	$17                     ; 0x2017 <exhaustZeroes+0x45>
    2460: 88           	dey
    2461: 91 10        	sta	($10),y                 ; 0x2010 <exhaustZeroes+0x3e>
    2463: 69 00        	adc	#$0
    2465: a6 12        	ldx	$12                     ; 0x2012 <exhaustZeroes+0x40>
    2467: 86 26        	stx	$26                     ; 0x2026 <exhaustZeroes+0x54>
    2469: a6 13        	ldx	$13                     ; 0x2013 <exhaustZeroes+0x41>
    246b: 86 27        	stx	$27                     ; 0x2027 <exhaustZeroes+0x55>
    246d: a6 2a        	ldx	$2a                     ; 0x202a <exhaustZeroes+0x58>
    246f: 86 12        	stx	$12                     ; 0x2012 <exhaustZeroes+0x40>
    2471: a6 2b        	ldx	$2b                     ; 0x202b <exhaustZeroes+0x59>
    2473: 86 13        	stx	$13                     ; 0x2013 <exhaustZeroes+0x41>
    2475: e6 12        	inc	$12                     ; 0x2012 <exhaustZeroes+0x40>
    2477: d0 02        	bne	$247b <printf+0x189>
    2479: e6 13        	inc	$13                     ; 0x2013 <exhaustZeroes+0x41>
    247b: 48           	pha
    247c: a5 12        	lda	$12                     ; 0x2012 <exhaustZeroes+0x40>
    247e: a0 0c        	ldy	#$c
    2480: 91 10        	sta	($10),y                 ; 0x2010 <exhaustZeroes+0x3e>
    2482: a5 13        	lda	$13                     ; 0x2013 <exhaustZeroes+0x41>
    2484: c8           	iny
    2485: 91 10        	sta	($10),y                 ; 0x2010 <exhaustZeroes+0x3e>
    2487: a5 2c        	lda	$2c                     ; 0x202c <exhaustZeroes+0x5a>
    2489: a0 09        	ldy	#$9
    248b: 91 10        	sta	($10),y                 ; 0x2010 <exhaustZeroes+0x3e>
    248d: 68           	pla
    248e: 88           	dey
    248f: 91 10        	sta	($10),y                 ; 0x2010 <exhaustZeroes+0x3e>
    2491: 7a           	ply
    2492: 85 2d        	sta	$2d                     ; 0x202d <exhaustZeroes+0x5b>
    2494: a6 26        	ldx	$26                     ; 0x2026 <exhaustZeroes+0x54>
    2496: 86 24        	stx	$24                     ; 0x2024 <exhaustZeroes+0x52>
    2498: a6 27        	ldx	$27                     ; 0x2027 <exhaustZeroes+0x55>
    249a: 86 25        	stx	$25                     ; 0x2025 <exhaustZeroes+0x53>
    249c: b2 26        	lda	($26)                   ; 0x2026 <exhaustZeroes+0x54>
    249e: c9 25        	cmp	#$25
    24a0: d0 03        	bne	$24a5 <printf+0x1b3>
    24a2: 4c f5 24     	jmp	$24f5 <printf+0x203>
    24a5: a2 00        	ldx	#$0
    24a7: a8           	tay
    24a8: d0 03        	bne	$24ad <printf+0x1bb>
    24aa: 4c c0 3c     	jmp	$3cc0 <printf+0x19ce>
    24ad: 20 03 3d     	jsr	$3d03 <putchar>
    24b0: e6 24        	inc	$24                     ; 0x2024 <exhaustZeroes+0x52>
    24b2: d0 02        	bne	$24b6 <printf+0x1c4>
    24b4: e6 25        	inc	$25                     ; 0x2025 <exhaustZeroes+0x53>
    24b6: 18           	clc
    24b7: a5 10        	lda	$10                     ; 0x2010 <exhaustZeroes+0x3e>
    24b9: 69 1e        	adc	#$1e
    24bb: 48           	pha
    24bc: a5 11        	lda	$11                     ; 0x2011 <exhaustZeroes+0x3f>
    24be: 69 00        	adc	#$0
    24c0: aa           	tax
    24c1: 68           	pla
    24c2: 85 12        	sta	$12                     ; 0x2012 <exhaustZeroes+0x40>
    24c4: 86 13        	stx	$13                     ; 0x2013 <exhaustZeroes+0x41>
    24c6: 18           	clc
    24c7: 69 05        	adc	#$5
    24c9: 85 14        	sta	$14                     ; 0x2014 <exhaustZeroes+0x42>
    24cb: 8a           	txa
    24cc: 69 00        	adc	#$0
    24ce: 85 15        	sta	$15                     ; 0x2015 <exhaustZeroes+0x43>
    24d0: a0 05        	ldy	#$5
    24d2: b1 12        	lda	($12),y                 ; 0x2012 <exhaustZeroes+0x40>
    24d4: 85 16        	sta	$16                     ; 0x2016 <exhaustZeroes+0x44>
    24d6: a0 01        	ldy	#$1
    24d8: b1 14        	lda	($14),y                 ; 0x2014 <exhaustZeroes+0x42>
    24da: aa           	tax
    24db: a5 16        	lda	$16                     ; 0x2016 <exhaustZeroes+0x44>
    24dd: 1a           	inc
    24de: d0 01        	bne	$24e1 <printf+0x1ef>
    24e0: e8           	inx
    24e1: a0 05        	ldy	#$5
    24e3: 91 12        	sta	($12),y                 ; 0x2012 <exhaustZeroes+0x40>
    24e5: a0 01        	ldy	#$1
    24e7: 8a           	txa
    24e8: 91 14        	sta	($14),y                 ; 0x2014 <exhaustZeroes+0x42>
    24ea: a6 24        	ldx	$24                     ; 0x2024 <exhaustZeroes+0x52>
    24ec: 86 26        	stx	$26                     ; 0x2026 <exhaustZeroes+0x54>
    24ee: a6 25        	ldx	$25                     ; 0x2025 <exhaustZeroes+0x53>
    24f0: 86 27        	stx	$27                     ; 0x2027 <exhaustZeroes+0x55>
    24f2: 4c 94 24     	jmp	$2494 <printf+0x1a2>
    24f5: a6 26        	ldx	$26                     ; 0x2026 <exhaustZeroes+0x54>
    24f7: 86 12        	stx	$12                     ; 0x2012 <exhaustZeroes+0x40>
    24f9: a6 27        	ldx	$27                     ; 0x2027 <exhaustZeroes+0x55>
    24fb: 86 13        	stx	$13                     ; 0x2013 <exhaustZeroes+0x41>
    24fd: e6 12        	inc	$12                     ; 0x2012 <exhaustZeroes+0x40>
    24ff: d0 02        	bne	$2503 <printf+0x211>
    2501: e6 13        	inc	$13                     ; 0x2013 <exhaustZeroes+0x41>
    2503: b1 24        	lda	($24),y                 ; 0x2024 <exhaustZeroes+0x52>
    2505: c9 25        	cmp	#$25
    2507: f0 03        	beq	$250c <printf+0x21a>
    2509: 4c 72 25     	jmp	$2572 <printf+0x280>
    250c: 18           	clc
    250d: a5 10        	lda	$10                     ; 0x2010 <exhaustZeroes+0x3e>
    250f: 69 1e        	adc	#$1e
    2511: aa           	tax
    2512: a0 01        	ldy	#$1
    2514: b0 02        	bcs	$2518 <printf+0x226>
    2516: a0 00        	ldy	#$0
    2518: 84 14        	sty	$14                     ; 0x2014 <exhaustZeroes+0x42>
    251a: 18           	clc
    251b: a5 10        	lda	$10                     ; 0x2010 <exhaustZeroes+0x3e>
    251d: 69 1e        	adc	#$1e
    251f: 48           	pha
    2520: a5 11        	lda	$11                     ; 0x2011 <exhaustZeroes+0x3f>
    2522: 69 00        	adc	#$0
    2524: a8           	tay
    2525: 68           	pla
    2526: 85 12        	sta	$12                     ; 0x2012 <exhaustZeroes+0x40>
    2528: 84 13        	sty	$13                     ; 0x2013 <exhaustZeroes+0x41>
    252a: 18           	clc
    252b: 69 05        	adc	#$5
    252d: 85 16        	sta	$16                     ; 0x2016 <exhaustZeroes+0x44>
    252f: 98           	tya
    2530: 69 00        	adc	#$0
    2532: a4 14        	ldy	$14                     ; 0x2014 <exhaustZeroes+0x42>
    2534: c0 01        	cpy	#$1
    2536: 48           	pha
    2537: a5 11        	lda	$11                     ; 0x2011 <exhaustZeroes+0x3f>
    2539: 69 00        	adc	#$0
    253b: 85 14        	sta	$14                     ; 0x2014 <exhaustZeroes+0x42>
    253d: 68           	pla
    253e: 85 17        	sta	$17                     ; 0x2017 <exhaustZeroes+0x45>
    2540: 18           	clc
    2541: 8a           	txa
    2542: 69 03        	adc	#$3
    2544: aa           	tax
    2545: a5 14        	lda	$14                     ; 0x2014 <exhaustZeroes+0x42>
    2547: 69 00        	adc	#$0
    2549: 85 15        	sta	$15                     ; 0x2015 <exhaustZeroes+0x43>
    254b: a0 05        	ldy	#$5
    254d: b1 12        	lda	($12),y                 ; 0x2012 <exhaustZeroes+0x40>
    254f: 85 18        	sta	$18                     ; 0x2018 <exhaustZeroes+0x46>
    2551: a0 01        	ldy	#$1
    2553: 86 14        	stx	$14                     ; 0x2014 <exhaustZeroes+0x42>
    2555: b1 16        	lda	($16),y                 ; 0x2016 <exhaustZeroes+0x44>
    2557: d1 14        	cmp	($14),y                 ; 0x2014 <exhaustZeroes+0x42>
    2559: f0 03        	beq	$255e <printf+0x26c>
    255b: 4c f0 26     	jmp	$26f0 <printf+0x3fe>
    255e: 85 17        	sta	$17                     ; 0x2017 <exhaustZeroes+0x45>
    2560: a0 03        	ldy	#$3
    2562: a6 18        	ldx	$18                     ; 0x2018 <exhaustZeroes+0x46>
    2564: b1 12        	lda	($12),y                 ; 0x2012 <exhaustZeroes+0x40>
    2566: 85 12        	sta	$12                     ; 0x2012 <exhaustZeroes+0x40>
    2568: e4 12        	cpx	$12                     ; 0x2012 <exhaustZeroes+0x40>
    256a: b0 03        	bcs	$256f <printf+0x27d>
    256c: 4c fb 26     	jmp	$26fb <printf+0x409>
    256f: 4c 6e 27     	jmp	$276e <printf+0x47c>
    2572: 18           	clc
    2573: a5 10        	lda	$10                     ; 0x2010 <exhaustZeroes+0x3e>
    2575: 69 1e        	adc	#$1e
    2577: aa           	tax
    2578: a5 11        	lda	$11                     ; 0x2011 <exhaustZeroes+0x3f>
    257a: 69 00        	adc	#$0
    257c: 85 15        	sta	$15                     ; 0x2015 <exhaustZeroes+0x43>
    257e: 8a           	txa
    257f: 18           	clc
    2580: 69 0b        	adc	#$b
    2582: 85 18        	sta	$18                     ; 0x2018 <exhaustZeroes+0x46>
    2584: a5 15        	lda	$15                     ; 0x2015 <exhaustZeroes+0x43>
    2586: 69 00        	adc	#$0
    2588: 18           	clc
    2589: 48           	pha
    258a: a5 10        	lda	$10                     ; 0x2010 <exhaustZeroes+0x3e>
    258c: 69 1e        	adc	#$1e
    258e: 85 1b        	sta	$1b                     ; 0x201b <exhaustZeroes+0x49>
    2590: a5 11        	lda	$11                     ; 0x2011 <exhaustZeroes+0x3f>
    2592: 69 00        	adc	#$0
    2594: 85 1a        	sta	$1a                     ; 0x201a <exhaustZeroes+0x48>
    2596: 68           	pla
    2597: 86 1e        	stx	$1e                     ; 0x201e <exhaustZeroes+0x4c>
    2599: 86 14        	stx	$14                     ; 0x2014 <exhaustZeroes+0x42>
    259b: 5a           	phy
    259c: a4 15        	ldy	$15                     ; 0x2015 <exhaustZeroes+0x43>
    259e: 84 1d        	sty	$1d                     ; 0x201d <exhaustZeroes+0x4b>
    25a0: 7a           	ply
    25a1: 86 16        	stx	$16                     ; 0x2016 <exhaustZeroes+0x44>
    25a3: a6 15        	ldx	$15                     ; 0x2015 <exhaustZeroes+0x43>
    25a5: 86 17        	stx	$17                     ; 0x2017 <exhaustZeroes+0x45>
    25a7: 85 19        	sta	$19                     ; 0x2019 <exhaustZeroes+0x47>
    25a9: 18           	clc
    25aa: a5 1b        	lda	$1b                     ; 0x201b <exhaustZeroes+0x49>
    25ac: 69 0d        	adc	#$d
    25ae: aa           	tax
    25af: a5 1a        	lda	$1a                     ; 0x201a <exhaustZeroes+0x48>
    25b1: 69 00        	adc	#$0
    25b3: 85 1b        	sta	$1b                     ; 0x201b <exhaustZeroes+0x49>
    25b5: e6 16        	inc	$16                     ; 0x2016 <exhaustZeroes+0x44>
    25b7: d0 02        	bne	$25bb <printf+0x2c9>
    25b9: e6 17        	inc	$17                     ; 0x2017 <exhaustZeroes+0x45>
    25bb: 86 1a        	stx	$1a                     ; 0x201a <exhaustZeroes+0x48>
    25bd: a9 00        	lda	#$0
    25bf: 91 16        	sta	($16),y                 ; 0x2016 <exhaustZeroes+0x44>
    25c1: 91 14        	sta	($14),y                 ; 0x2014 <exhaustZeroes+0x42>
    25c3: 92 14        	sta	($14)                   ; 0x2014 <exhaustZeroes+0x42>
    25c5: a0 0b        	ldy	#$b
    25c7: 91 14        	sta	($14),y                 ; 0x2014 <exhaustZeroes+0x42>
    25c9: a0 01        	ldy	#$1
    25cb: 91 18        	sta	($18),y                 ; 0x2018 <exhaustZeroes+0x46>
    25cd: 3a           	dec
    25ce: a0 0d        	ldy	#$d
    25d0: 91 14        	sta	($14),y                 ; 0x2014 <exhaustZeroes+0x42>
    25d2: a0 01        	ldy	#$1
    25d4: 91 1a        	sta	($1a),y                 ; 0x201a <exhaustZeroes+0x48>
    25d6: 64 2e        	stz	$2e                     ; 0x202e <exhaustZeroes+0x5c>
    25d8: 80 41        	bra	$261b <printf+0x329>
    25da: a2 02        	ldx	#$2
    25dc: 80 15        	bra	$25f3 <printf+0x301>
    25de: e0 20        	cpx	#$20
    25e0: f0 15        	beq	$25f7 <printf+0x305>
    25e2: 86 15        	stx	$15                     ; 0x2015 <exhaustZeroes+0x43>
    25e4: e0 23        	cpx	#$23
    25e6: f0 03        	beq	$25eb <printf+0x2f9>
    25e8: 4c 85 26     	jmp	$2685 <printf+0x393>
    25eb: a5 2e        	lda	$2e                     ; 0x202e <exhaustZeroes+0x5c>
    25ed: a2 04        	ldx	#$4
    25ef: 80 02        	bra	$25f3 <printf+0x301>
    25f1: a2 10        	ldx	#$10
    25f3: 86 14        	stx	$14                     ; 0x2014 <exhaustZeroes+0x42>
    25f5: 80 06        	bra	$25fd <printf+0x30b>
    25f7: a2 08        	ldx	#$8
    25f9: 86 14        	stx	$14                     ; 0x2014 <exhaustZeroes+0x42>
    25fb: a5 2e        	lda	$2e                     ; 0x202e <exhaustZeroes+0x5c>
    25fd: 05 14        	ora	$14                     ; 0x2014 <exhaustZeroes+0x42>
    25ff: a6 1e        	ldx	$1e                     ; 0x201e <exhaustZeroes+0x4c>
    2601: 86 14        	stx	$14                     ; 0x2014 <exhaustZeroes+0x42>
    2603: a6 1d        	ldx	$1d                     ; 0x201d <exhaustZeroes+0x4b>
    2605: 86 15        	stx	$15                     ; 0x2015 <exhaustZeroes+0x43>
    2607: 85 2e        	sta	$2e                     ; 0x202e <exhaustZeroes+0x5c>
    2609: 91 14        	sta	($14),y                 ; 0x2014 <exhaustZeroes+0x42>
    260b: e6 14        	inc	$14                     ; 0x2014 <exhaustZeroes+0x42>
    260d: d0 02        	bne	$2611 <printf+0x31f>
    260f: e6 15        	inc	$15                     ; 0x2015 <exhaustZeroes+0x43>
    2611: a9 00        	lda	#$0
    2613: 91 14        	sta	($14),y                 ; 0x2014 <exhaustZeroes+0x42>
    2615: e6 12        	inc	$12                     ; 0x2012 <exhaustZeroes+0x40>
    2617: d0 02        	bne	$261b <printf+0x329>
    2619: e6 13        	inc	$13                     ; 0x2013 <exhaustZeroes+0x41>
    261b: b2 12        	lda	($12)                   ; 0x2012 <exhaustZeroes+0x40>
    261d: aa           	tax
    261e: 18           	clc
    261f: 69 d6        	adc	#$d6
    2621: c9 07        	cmp	#$7
    2623: b0 b9        	bcs	$25de <printf+0x2ec>
    2625: 86 15        	stx	$15                     ; 0x2015 <exhaustZeroes+0x43>
    2627: 0a           	asl
    2628: aa           	tax
    2629: a0 01        	ldy	#$1
    262b: 84 14        	sty	$14                     ; 0x2014 <exhaustZeroes+0x42>
    262d: a5 2e        	lda	$2e                     ; 0x202e <exhaustZeroes+0x5c>
    262f: 7c 63 44     	jmp	($4463,x)               ; 0x4463 <__set_v+0x13>
    2632: 18           	clc
    2633: a5 10        	lda	$10                     ; 0x2010 <exhaustZeroes+0x3e>
    2635: 69 1e        	adc	#$1e
    2637: 48           	pha
    2638: a5 11        	lda	$11                     ; 0x2011 <exhaustZeroes+0x3f>
    263a: 69 00        	adc	#$0
    263c: aa           	tax
    263d: 68           	pla
    263e: 85 14        	sta	$14                     ; 0x2014 <exhaustZeroes+0x42>
    2640: 86 15        	stx	$15                     ; 0x2015 <exhaustZeroes+0x43>
    2642: 18           	clc
    2643: 69 11        	adc	#$11
    2645: 85 16        	sta	$16                     ; 0x2016 <exhaustZeroes+0x44>
    2647: 8a           	txa
    2648: 69 00        	adc	#$0
    264a: 85 17        	sta	$17                     ; 0x2017 <exhaustZeroes+0x45>
    264c: a0 11        	ldy	#$11
    264e: b1 14        	lda	($14),y                 ; 0x2014 <exhaustZeroes+0x42>
    2650: 85 18        	sta	$18                     ; 0x2018 <exhaustZeroes+0x46>
    2652: a0 01        	ldy	#$1
    2654: b1 16        	lda	($16),y                 ; 0x2016 <exhaustZeroes+0x44>
    2656: aa           	tax
    2657: a5 18        	lda	$18                     ; 0x2018 <exhaustZeroes+0x46>
    2659: 86 19        	stx	$19                     ; 0x2019 <exhaustZeroes+0x47>
    265b: 18           	clc
    265c: 69 02        	adc	#$2
    265e: 85 1b        	sta	$1b                     ; 0x201b <exhaustZeroes+0x49>
    2660: 8a           	txa
    2661: 69 00        	adc	#$0
    2663: 85 1a        	sta	$1a                     ; 0x201a <exhaustZeroes+0x48>
    2665: a0 11        	ldy	#$11
    2667: a5 1b        	lda	$1b                     ; 0x201b <exhaustZeroes+0x49>
    2669: 91 14        	sta	($14),y                 ; 0x2014 <exhaustZeroes+0x42>
    266b: a0 01        	ldy	#$1
    266d: a5 1a        	lda	$1a                     ; 0x201a <exhaustZeroes+0x48>
    266f: 91 16        	sta	($16),y                 ; 0x2016 <exhaustZeroes+0x44>
    2671: b2 18        	lda	($18)                   ; 0x2018 <exhaustZeroes+0x46>
    2673: 85 17        	sta	$17                     ; 0x2017 <exhaustZeroes+0x45>
    2675: b1 18        	lda	($18),y                 ; 0x2018 <exhaustZeroes+0x46>
    2677: 85 16        	sta	$16                     ; 0x2016 <exhaustZeroes+0x44>
    2679: 10 03        	bpl	$267e <printf+0x38c>
    267b: 4c e6 27     	jmp	$27e6 <printf+0x4f4>
    267e: a6 17        	ldx	$17                     ; 0x2017 <exhaustZeroes+0x45>
    2680: 85 18        	sta	$18                     ; 0x2018 <exhaustZeroes+0x46>
    2682: 4c 04 28     	jmp	$2804 <printf+0x512>
    2685: a5 15        	lda	$15                     ; 0x2015 <exhaustZeroes+0x43>
    2687: 18           	clc
    2688: 69 d0        	adc	#$d0
    268a: c9 0a        	cmp	#$a
    268c: 90 03        	bcc	$2691 <printf+0x39f>
    268e: 4c b2 27     	jmp	$27b2 <printf+0x4c0>
    2691: a6 15        	ldx	$15                     ; 0x2015 <exhaustZeroes+0x43>
    2693: 86 14        	stx	$14                     ; 0x2014 <exhaustZeroes+0x42>
    2695: a2 00        	ldx	#$0
    2697: 64 15        	stz	$15                     ; 0x2015 <exhaustZeroes+0x43>
    2699: 64 18        	stz	$18                     ; 0x2018 <exhaustZeroes+0x46>
    269b: 86 16        	stx	$16                     ; 0x2016 <exhaustZeroes+0x44>
    269d: 06 16        	asl	$16                     ; 0x2016 <exhaustZeroes+0x44>
    269f: a6 18        	ldx	$18                     ; 0x2018 <exhaustZeroes+0x46>
    26a1: 86 17        	stx	$17                     ; 0x2017 <exhaustZeroes+0x45>
    26a3: 26 17        	rol	$17                     ; 0x2017 <exhaustZeroes+0x45>
    26a5: a5 16        	lda	$16                     ; 0x2016 <exhaustZeroes+0x44>
    26a7: 0a           	asl
    26a8: aa           	tax
    26a9: a5 17        	lda	$17                     ; 0x2017 <exhaustZeroes+0x45>
    26ab: 2a           	rol
    26ac: 86 18        	stx	$18                     ; 0x2018 <exhaustZeroes+0x46>
    26ae: 06 18        	asl	$18                     ; 0x2018 <exhaustZeroes+0x46>
    26b0: 2a           	rol
    26b1: aa           	tax
    26b2: a5 18        	lda	$18                     ; 0x2018 <exhaustZeroes+0x46>
    26b4: 18           	clc
    26b5: 65 16        	adc	$16                     ; 0x2016 <exhaustZeroes+0x44>
    26b7: 85 16        	sta	$16                     ; 0x2016 <exhaustZeroes+0x44>
    26b9: 8a           	txa
    26ba: 65 17        	adc	$17                     ; 0x2017 <exhaustZeroes+0x45>
    26bc: 85 17        	sta	$17                     ; 0x2017 <exhaustZeroes+0x45>
    26be: a5 16        	lda	$16                     ; 0x2016 <exhaustZeroes+0x44>
    26c0: 18           	clc
    26c1: 65 14        	adc	$14                     ; 0x2014 <exhaustZeroes+0x42>
    26c3: 85 14        	sta	$14                     ; 0x2014 <exhaustZeroes+0x42>
    26c5: a5 17        	lda	$17                     ; 0x2017 <exhaustZeroes+0x45>
    26c7: 65 15        	adc	$15                     ; 0x2015 <exhaustZeroes+0x43>
    26c9: 85 15        	sta	$15                     ; 0x2015 <exhaustZeroes+0x43>
    26cb: 18           	clc
    26cc: a5 14        	lda	$14                     ; 0x2014 <exhaustZeroes+0x42>
    26ce: 69 d0        	adc	#$d0
    26d0: aa           	tax
    26d1: a5 15        	lda	$15                     ; 0x2015 <exhaustZeroes+0x43>
    26d3: 69 ff        	adc	#$ff
    26d5: 85 18        	sta	$18                     ; 0x2018 <exhaustZeroes+0x46>
    26d7: b1 12        	lda	($12),y                 ; 0x2012 <exhaustZeroes+0x40>
    26d9: 85 14        	sta	$14                     ; 0x2014 <exhaustZeroes+0x42>
    26db: 18           	clc
    26dc: 69 d0        	adc	#$d0
    26de: e6 12        	inc	$12                     ; 0x2012 <exhaustZeroes+0x40>
    26e0: d0 02        	bne	$26e4 <printf+0x3f2>
    26e2: e6 13        	inc	$13                     ; 0x2013 <exhaustZeroes+0x41>
    26e4: c9 0a        	cmp	#$a
    26e6: 64 15        	stz	$15                     ; 0x2015 <exhaustZeroes+0x43>
    26e8: b0 03        	bcs	$26ed <printf+0x3fb>
    26ea: 4c 9b 26     	jmp	$269b <printf+0x3a9>
    26ed: 4c b6 27     	jmp	$27b6 <printf+0x4c4>
    26f0: 85 17        	sta	$17                     ; 0x2017 <exhaustZeroes+0x45>
    26f2: d1 14        	cmp	($14),y                 ; 0x2014 <exhaustZeroes+0x42>
    26f4: a6 18        	ldx	$18                     ; 0x2018 <exhaustZeroes+0x46>
    26f6: 90 03        	bcc	$26fb <printf+0x409>
    26f8: 4c 6e 27     	jmp	$276e <printf+0x47c>
    26fb: a0 01        	ldy	#$1
    26fd: 86 16        	stx	$16                     ; 0x2016 <exhaustZeroes+0x44>
    26ff: 18           	clc
    2700: a5 10        	lda	$10                     ; 0x2010 <exhaustZeroes+0x3e>
    2702: 69 1e        	adc	#$1e
    2704: 48           	pha
    2705: a5 11        	lda	$11                     ; 0x2011 <exhaustZeroes+0x3f>
    2707: 69 00        	adc	#$0
    2709: 85 12        	sta	$12                     ; 0x2012 <exhaustZeroes+0x40>
    270b: 68           	pla
    270c: 18           	clc
    270d: aa           	tax
    270e: 69 0f        	adc	#$f
    2710: 85 13        	sta	$13                     ; 0x2013 <exhaustZeroes+0x41>
    2712: 5a           	phy
    2713: a4 12        	ldy	$12                     ; 0x2012 <exhaustZeroes+0x40>
    2715: 84 14        	sty	$14                     ; 0x2014 <exhaustZeroes+0x42>
    2717: a5 12        	lda	$12                     ; 0x2012 <exhaustZeroes+0x40>
    2719: 69 00        	adc	#$0
    271b: a4 13        	ldy	$13                     ; 0x2013 <exhaustZeroes+0x41>
    271d: 84 12        	sty	$12                     ; 0x2012 <exhaustZeroes+0x40>
    271f: 7a           	ply
    2720: 85 13        	sta	$13                     ; 0x2013 <exhaustZeroes+0x41>
    2722: b1 12        	lda	($12),y                 ; 0x2012 <exhaustZeroes+0x40>
    2724: c5 2f        	cmp	$2f                     ; 0x202f <exhaustZeroes+0x5d>
    2726: d0 3f        	bne	$2767 <printf+0x475>
    2728: 86 12        	stx	$12                     ; 0x2012 <exhaustZeroes+0x40>
    272a: a6 14        	ldx	$14                     ; 0x2014 <exhaustZeroes+0x42>
    272c: 86 13        	stx	$13                     ; 0x2013 <exhaustZeroes+0x41>
    272e: a0 0f        	ldy	#$f
    2730: b1 12        	lda	($12),y                 ; 0x2012 <exhaustZeroes+0x40>
    2732: c5 2e        	cmp	$2e                     ; 0x202e <exhaustZeroes+0x5c>
    2734: d0 31        	bne	$2767 <printf+0x475>
    2736: 18           	clc
    2737: a5 10        	lda	$10                     ; 0x2010 <exhaustZeroes+0x3e>
    2739: 69 1e        	adc	#$1e
    273b: 48           	pha
    273c: a5 11        	lda	$11                     ; 0x2011 <exhaustZeroes+0x3f>
    273e: 69 00        	adc	#$0
    2740: aa           	tax
    2741: 68           	pla
    2742: 85 12        	sta	$12                     ; 0x2012 <exhaustZeroes+0x40>
    2744: 86 13        	stx	$13                     ; 0x2013 <exhaustZeroes+0x41>
    2746: 18           	clc
    2747: 69 09        	adc	#$9
    2749: 85 14        	sta	$14                     ; 0x2014 <exhaustZeroes+0x42>
    274b: 8a           	txa
    274c: 69 00        	adc	#$0
    274e: 85 15        	sta	$15                     ; 0x2015 <exhaustZeroes+0x43>
    2750: 18           	clc
    2751: a0 09        	ldy	#$9
    2753: a5 16        	lda	$16                     ; 0x2016 <exhaustZeroes+0x44>
    2755: 71 12        	adc	($12),y                 ; 0x2012 <exhaustZeroes+0x40>
    2757: 85 12        	sta	$12                     ; 0x2012 <exhaustZeroes+0x40>
    2759: a0 01        	ldy	#$1
    275b: a5 17        	lda	$17                     ; 0x2017 <exhaustZeroes+0x45>
    275d: 71 14        	adc	($14),y                 ; 0x2014 <exhaustZeroes+0x42>
    275f: 85 13        	sta	$13                     ; 0x2013 <exhaustZeroes+0x41>
    2761: a9 25        	lda	#$25
    2763: 92 12        	sta	($12)                   ; 0x2012 <exhaustZeroes+0x40>
    2765: 80 07        	bra	$276e <printf+0x47c>
    2767: a2 00        	ldx	#$0
    2769: a9 25        	lda	#$25
    276b: 20 03 3d     	jsr	$3d03 <putchar>
    276e: 18           	clc
    276f: a5 10        	lda	$10                     ; 0x2010 <exhaustZeroes+0x3e>
    2771: 69 1e        	adc	#$1e
    2773: 48           	pha
    2774: a5 11        	lda	$11                     ; 0x2011 <exhaustZeroes+0x3f>
    2776: 69 00        	adc	#$0
    2778: aa           	tax
    2779: 68           	pla
    277a: 85 12        	sta	$12                     ; 0x2012 <exhaustZeroes+0x40>
    277c: 86 13        	stx	$13                     ; 0x2013 <exhaustZeroes+0x41>
    277e: 18           	clc
    277f: 69 05        	adc	#$5
    2781: 85 14        	sta	$14                     ; 0x2014 <exhaustZeroes+0x42>
    2783: 8a           	txa
    2784: 69 00        	adc	#$0
    2786: 85 15        	sta	$15                     ; 0x2015 <exhaustZeroes+0x43>
    2788: a0 05        	ldy	#$5
    278a: b1 12        	lda	($12),y                 ; 0x2012 <exhaustZeroes+0x40>
    278c: 85 16        	sta	$16                     ; 0x2016 <exhaustZeroes+0x44>
    278e: a0 01        	ldy	#$1
    2790: b1 14        	lda	($14),y                 ; 0x2014 <exhaustZeroes+0x42>
    2792: aa           	tax
    2793: a5 16        	lda	$16                     ; 0x2016 <exhaustZeroes+0x44>
    2795: 1a           	inc
    2796: d0 01        	bne	$2799 <printf+0x4a7>
    2798: e8           	inx
    2799: a0 05        	ldy	#$5
    279b: 91 12        	sta	($12),y                 ; 0x2012 <exhaustZeroes+0x40>
    279d: a0 01        	ldy	#$1
    279f: 8a           	txa
    27a0: 91 14        	sta	($14),y                 ; 0x2014 <exhaustZeroes+0x42>
    27a2: a5 24        	lda	$24                     ; 0x2024 <exhaustZeroes+0x52>
    27a4: 18           	clc
    27a5: 69 02        	adc	#$2
    27a7: 85 26        	sta	$26                     ; 0x2026 <exhaustZeroes+0x54>
    27a9: a5 25        	lda	$25                     ; 0x2025 <exhaustZeroes+0x53>
    27ab: 69 00        	adc	#$0
    27ad: 85 27        	sta	$27                     ; 0x2027 <exhaustZeroes+0x55>
    27af: 4c 94 24     	jmp	$2494 <printf+0x1a2>
    27b2: a2 00        	ldx	#$0
    27b4: 64 18        	stz	$18                     ; 0x2018 <exhaustZeroes+0x46>
    27b6: 18           	clc
    27b7: a5 10        	lda	$10                     ; 0x2010 <exhaustZeroes+0x3e>
    27b9: 69 1e        	adc	#$1e
    27bb: 48           	pha
    27bc: a5 11        	lda	$11                     ; 0x2011 <exhaustZeroes+0x3f>
    27be: 69 00        	adc	#$0
    27c0: 85 17        	sta	$17                     ; 0x2017 <exhaustZeroes+0x45>
    27c2: 68           	pla
    27c3: 85 14        	sta	$14                     ; 0x2014 <exhaustZeroes+0x42>
    27c5: a4 17        	ldy	$17                     ; 0x2017 <exhaustZeroes+0x45>
    27c7: 84 15        	sty	$15                     ; 0x2015 <exhaustZeroes+0x43>
    27c9: 18           	clc
    27ca: 69 0b        	adc	#$b
    27cc: 85 16        	sta	$16                     ; 0x2016 <exhaustZeroes+0x44>
    27ce: a5 17        	lda	$17                     ; 0x2017 <exhaustZeroes+0x45>
    27d0: 69 00        	adc	#$0
    27d2: 85 17        	sta	$17                     ; 0x2017 <exhaustZeroes+0x45>
    27d4: a0 0b        	ldy	#$b
    27d6: 8a           	txa
    27d7: 91 14        	sta	($14),y                 ; 0x2014 <exhaustZeroes+0x42>
    27d9: a0 01        	ldy	#$1
    27db: 86 1b        	stx	$1b                     ; 0x201b <exhaustZeroes+0x49>
    27dd: a5 18        	lda	$18                     ; 0x2018 <exhaustZeroes+0x46>
    27df: 91 16        	sta	($16),y                 ; 0x2016 <exhaustZeroes+0x44>
    27e1: 85 1c        	sta	$1c                     ; 0x201c <exhaustZeroes+0x4a>
    27e3: 4c 33 28     	jmp	$2833 <printf+0x541>
    27e6: a5 2e        	lda	$2e                     ; 0x202e <exhaustZeroes+0x5c>
    27e8: 09 01        	ora	#$1
    27ea: 85 2e        	sta	$2e                     ; 0x202e <exhaustZeroes+0x5c>
    27ec: 91 14        	sta	($14),y                 ; 0x2014 <exhaustZeroes+0x42>
    27ee: a9 00        	lda	#$0
    27f0: 38           	sec
    27f1: e5 17        	sbc	$17                     ; 0x2017 <exhaustZeroes+0x45>
    27f3: aa           	tax
    27f4: a9 00        	lda	#$0
    27f6: e5 16        	sbc	$16                     ; 0x2016 <exhaustZeroes+0x44>
    27f8: 85 18        	sta	$18                     ; 0x2018 <exhaustZeroes+0x46>
    27fa: e6 14        	inc	$14                     ; 0x2014 <exhaustZeroes+0x42>
    27fc: d0 02        	bne	$2800 <printf+0x50e>
    27fe: e6 15        	inc	$15                     ; 0x2015 <exhaustZeroes+0x43>
    2800: a9 00        	lda	#$0
    2802: 91 14        	sta	($14),y                 ; 0x2014 <exhaustZeroes+0x42>
    2804: 18           	clc
    2805: a5 10        	lda	$10                     ; 0x2010 <exhaustZeroes+0x3e>
    2807: 69 1e        	adc	#$1e
    2809: 48           	pha
    280a: a5 11        	lda	$11                     ; 0x2011 <exhaustZeroes+0x3f>
    280c: 69 00        	adc	#$0
    280e: a8           	tay
    280f: 68           	pla
    2810: 85 14        	sta	$14                     ; 0x2014 <exhaustZeroes+0x42>
    2812: 84 15        	sty	$15                     ; 0x2015 <exhaustZeroes+0x43>
    2814: 18           	clc
    2815: 69 0b        	adc	#$b
    2817: 85 16        	sta	$16                     ; 0x2016 <exhaustZeroes+0x44>
    2819: 98           	tya
    281a: 69 00        	adc	#$0
    281c: 85 17        	sta	$17                     ; 0x2017 <exhaustZeroes+0x45>
    281e: a0 0b        	ldy	#$b
    2820: 8a           	txa
    2821: 91 14        	sta	($14),y                 ; 0x2014 <exhaustZeroes+0x42>
    2823: 86 1b        	stx	$1b                     ; 0x201b <exhaustZeroes+0x49>
    2825: a5 18        	lda	$18                     ; 0x2018 <exhaustZeroes+0x46>
    2827: a0 01        	ldy	#$1
    2829: 91 16        	sta	($16),y                 ; 0x2016 <exhaustZeroes+0x44>
    282b: 85 1c        	sta	$1c                     ; 0x201c <exhaustZeroes+0x4a>
    282d: e6 12        	inc	$12                     ; 0x2012 <exhaustZeroes+0x40>
    282f: d0 02        	bne	$2833 <printf+0x541>
    2831: e6 13        	inc	$13                     ; 0x2013 <exhaustZeroes+0x41>
    2833: b2 12        	lda	($12)                   ; 0x2012 <exhaustZeroes+0x40>
    2835: a2 ff        	ldx	#$ff
    2837: c9 2e        	cmp	#$2e
    2839: f0 03        	beq	$283e <printf+0x54c>
    283b: 4c d4 28     	jmp	$28d4 <printf+0x5e2>
    283e: b1 12        	lda	($12),y                 ; 0x2012 <exhaustZeroes+0x40>
    2840: c9 2a        	cmp	#$2a
    2842: f0 03        	beq	$2847 <printf+0x555>
    2844: 4c e2 28     	jmp	$28e2 <printf+0x5f0>
    2847: 18           	clc
    2848: a5 10        	lda	$10                     ; 0x2010 <exhaustZeroes+0x3e>
    284a: 69 1e        	adc	#$1e
    284c: aa           	tax
    284d: a0 01        	ldy	#$1
    284f: b0 02        	bcs	$2853 <printf+0x561>
    2851: a0 00        	ldy	#$0
    2853: 84 1a        	sty	$1a                     ; 0x201a <exhaustZeroes+0x48>
    2855: 18           	clc
    2856: a5 10        	lda	$10                     ; 0x2010 <exhaustZeroes+0x3e>
    2858: 69 1e        	adc	#$1e
    285a: 48           	pha
    285b: a5 11        	lda	$11                     ; 0x2011 <exhaustZeroes+0x3f>
    285d: 69 00        	adc	#$0
    285f: a8           	tay
    2860: 68           	pla
    2861: 85 14        	sta	$14                     ; 0x2014 <exhaustZeroes+0x42>
    2863: 84 15        	sty	$15                     ; 0x2015 <exhaustZeroes+0x43>
    2865: 18           	clc
    2866: 69 11        	adc	#$11
    2868: 85 18        	sta	$18                     ; 0x2018 <exhaustZeroes+0x46>
    286a: 98           	tya
    286b: 69 00        	adc	#$0
    286d: 85 19        	sta	$19                     ; 0x2019 <exhaustZeroes+0x47>
    286f: a0 11        	ldy	#$11
    2871: b1 14        	lda	($14),y                 ; 0x2014 <exhaustZeroes+0x42>
    2873: 85 16        	sta	$16                     ; 0x2016 <exhaustZeroes+0x44>
    2875: a0 01        	ldy	#$1
    2877: b1 18        	lda	($18),y                 ; 0x2018 <exhaustZeroes+0x46>
    2879: 85 1f        	sta	$1f                     ; 0x201f <exhaustZeroes+0x4d>
    287b: a5 16        	lda	$16                     ; 0x2016 <exhaustZeroes+0x44>
    287d: a4 1f        	ldy	$1f                     ; 0x201f <exhaustZeroes+0x4d>
    287f: 84 17        	sty	$17                     ; 0x2017 <exhaustZeroes+0x45>
    2881: 18           	clc
    2882: 69 02        	adc	#$2
    2884: 85 22        	sta	$22                     ; 0x2022 <exhaustZeroes+0x50>
    2886: a5 1f        	lda	$1f                     ; 0x201f <exhaustZeroes+0x4d>
    2888: 69 00        	adc	#$0
    288a: 85 1f        	sta	$1f                     ; 0x201f <exhaustZeroes+0x4d>
    288c: a4 1a        	ldy	$1a                     ; 0x201a <exhaustZeroes+0x48>
    288e: c0 01        	cpy	#$1
    2890: a5 11        	lda	$11                     ; 0x2011 <exhaustZeroes+0x3f>
    2892: 69 00        	adc	#$0
    2894: 85 1a        	sta	$1a                     ; 0x201a <exhaustZeroes+0x48>
    2896: a5 22        	lda	$22                     ; 0x2022 <exhaustZeroes+0x50>
    2898: a0 11        	ldy	#$11
    289a: 91 14        	sta	($14),y                 ; 0x2014 <exhaustZeroes+0x42>
    289c: a0 01        	ldy	#$1
    289e: a5 1f        	lda	$1f                     ; 0x201f <exhaustZeroes+0x4d>
    28a0: 91 18        	sta	($18),y                 ; 0x2018 <exhaustZeroes+0x46>
    28a2: 18           	clc
    28a3: 8a           	txa
    28a4: 69 0d        	adc	#$d
    28a6: 85 18        	sta	$18                     ; 0x2018 <exhaustZeroes+0x46>
    28a8: a5 1a        	lda	$1a                     ; 0x201a <exhaustZeroes+0x48>
    28aa: 69 00        	adc	#$0
    28ac: 85 19        	sta	$19                     ; 0x2019 <exhaustZeroes+0x47>
    28ae: a5 12        	lda	$12                     ; 0x2012 <exhaustZeroes+0x40>
    28b0: 18           	clc
    28b1: 69 02        	adc	#$2
    28b3: 85 12        	sta	$12                     ; 0x2012 <exhaustZeroes+0x40>
    28b5: a5 13        	lda	$13                     ; 0x2013 <exhaustZeroes+0x41>
    28b7: 69 00        	adc	#$0
    28b9: 85 13        	sta	$13                     ; 0x2013 <exhaustZeroes+0x41>
    28bb: b2 16        	lda	($16)                   ; 0x2016 <exhaustZeroes+0x44>
    28bd: 85 1a        	sta	$1a                     ; 0x201a <exhaustZeroes+0x48>
    28bf: b1 16        	lda	($16),y                 ; 0x2016 <exhaustZeroes+0x44>
    28c1: aa           	tax
    28c2: a0 0d        	ldy	#$d
    28c4: a5 1a        	lda	$1a                     ; 0x201a <exhaustZeroes+0x48>
    28c6: 85 29        	sta	$29                     ; 0x2029 <exhaustZeroes+0x57>
    28c8: 91 14        	sta	($14),y                 ; 0x2014 <exhaustZeroes+0x42>
    28ca: a0 01        	ldy	#$1
    28cc: 8a           	txa
    28cd: 86 1f        	stx	$1f                     ; 0x201f <exhaustZeroes+0x4d>
    28cf: 91 18        	sta	($18),y                 ; 0x2018 <exhaustZeroes+0x46>
    28d1: 4c d0 29     	jmp	$29d0 <printf+0x6de>
    28d4: 86 29        	stx	$29                     ; 0x2029 <exhaustZeroes+0x57>
    28d6: 48           	pha
    28d7: 8a           	txa
    28d8: 5a           	phy
    28d9: a0 13        	ldy	#$13
    28db: 91 10        	sta	($10),y                 ; 0x2010 <exhaustZeroes+0x3e>
    28dd: 7a           	ply
    28de: 68           	pla
    28df: 4c f4 29     	jmp	$29f4 <printf+0x702>
    28e2: 85 17        	sta	$17                     ; 0x2017 <exhaustZeroes+0x45>
    28e4: 18           	clc
    28e5: 69 d0        	adc	#$d0
    28e7: c9 0a        	cmp	#$a
    28e9: 90 03        	bcc	$28ee <printf+0x5fc>
    28eb: 4c a2 29     	jmp	$29a2 <printf+0x6b0>
    28ee: 64 16        	stz	$16                     ; 0x2016 <exhaustZeroes+0x44>
    28f0: a2 01        	ldx	#$1
    28f2: 64 18        	stz	$18                     ; 0x2018 <exhaustZeroes+0x46>
    28f4: 64 1f        	stz	$1f                     ; 0x201f <exhaustZeroes+0x4d>
    28f6: 64 1a        	stz	$1a                     ; 0x201a <exhaustZeroes+0x48>
    28f8: 5a           	phy
    28f9: a4 1a        	ldy	$1a                     ; 0x201a <exhaustZeroes+0x48>
    28fb: 84 14        	sty	$14                     ; 0x2014 <exhaustZeroes+0x42>
    28fd: 86 15        	stx	$15                     ; 0x2015 <exhaustZeroes+0x43>
    28ff: 06 18        	asl	$18                     ; 0x2018 <exhaustZeroes+0x46>
    2901: a4 1f        	ldy	$1f                     ; 0x201f <exhaustZeroes+0x4d>
    2903: 84 19        	sty	$19                     ; 0x2019 <exhaustZeroes+0x47>
    2905: 26 19        	rol	$19                     ; 0x2019 <exhaustZeroes+0x47>
    2907: a5 18        	lda	$18                     ; 0x2018 <exhaustZeroes+0x46>
    2909: 0a           	asl
    290a: a4 19        	ldy	$19                     ; 0x2019 <exhaustZeroes+0x47>
    290c: 84 1f        	sty	$1f                     ; 0x201f <exhaustZeroes+0x4d>
    290e: 26 1f        	rol	$1f                     ; 0x201f <exhaustZeroes+0x4d>
    2910: 0a           	asl
    2911: 26 1f        	rol	$1f                     ; 0x201f <exhaustZeroes+0x4d>
    2913: 18           	clc
    2914: 65 18        	adc	$18                     ; 0x2018 <exhaustZeroes+0x46>
    2916: 85 22        	sta	$22                     ; 0x2022 <exhaustZeroes+0x50>
    2918: a5 1f        	lda	$1f                     ; 0x201f <exhaustZeroes+0x4d>
    291a: 65 19        	adc	$19                     ; 0x2019 <exhaustZeroes+0x47>
    291c: 85 18        	sta	$18                     ; 0x2018 <exhaustZeroes+0x46>
    291e: 18           	clc
    291f: a5 22        	lda	$22                     ; 0x2022 <exhaustZeroes+0x50>
    2921: 65 17        	adc	$17                     ; 0x2017 <exhaustZeroes+0x45>
    2923: 85 17        	sta	$17                     ; 0x2017 <exhaustZeroes+0x45>
    2925: a5 18        	lda	$18                     ; 0x2018 <exhaustZeroes+0x46>
    2927: 65 16        	adc	$16                     ; 0x2016 <exhaustZeroes+0x44>
    2929: 85 16        	sta	$16                     ; 0x2016 <exhaustZeroes+0x44>
    292b: 18           	clc
    292c: a5 17        	lda	$17                     ; 0x2017 <exhaustZeroes+0x45>
    292e: 69 d0        	adc	#$d0
    2930: 85 17        	sta	$17                     ; 0x2017 <exhaustZeroes+0x45>
    2932: a5 16        	lda	$16                     ; 0x2016 <exhaustZeroes+0x44>
    2934: 69 ff        	adc	#$ff
    2936: 85 1f        	sta	$1f                     ; 0x201f <exhaustZeroes+0x4d>
    2938: a4 17        	ldy	$17                     ; 0x2017 <exhaustZeroes+0x45>
    293a: 84 18        	sty	$18                     ; 0x2018 <exhaustZeroes+0x46>
    293c: e8           	inx
    293d: d0 02        	bne	$2941 <printf+0x64f>
    293f: e6 1a        	inc	$1a                     ; 0x201a <exhaustZeroes+0x48>
    2941: a5 12        	lda	$12                     ; 0x2012 <exhaustZeroes+0x40>
    2943: 18           	clc
    2944: 65 15        	adc	$15                     ; 0x2015 <exhaustZeroes+0x43>
    2946: 85 19        	sta	$19                     ; 0x2019 <exhaustZeroes+0x47>
    2948: a5 13        	lda	$13                     ; 0x2013 <exhaustZeroes+0x41>
    294a: 65 14        	adc	$14                     ; 0x2014 <exhaustZeroes+0x42>
    294c: a4 19        	ldy	$19                     ; 0x2019 <exhaustZeroes+0x47>
    294e: 84 16        	sty	$16                     ; 0x2016 <exhaustZeroes+0x44>
    2950: 7a           	ply
    2951: 85 17        	sta	$17                     ; 0x2017 <exhaustZeroes+0x45>
    2953: b1 16        	lda	($16),y                 ; 0x2016 <exhaustZeroes+0x44>
    2955: 85 17        	sta	$17                     ; 0x2017 <exhaustZeroes+0x45>
    2957: 18           	clc
    2958: 69 d0        	adc	#$d0
    295a: c9 0a        	cmp	#$a
    295c: 64 16        	stz	$16                     ; 0x2016 <exhaustZeroes+0x44>
    295e: b0 03        	bcs	$2963 <printf+0x671>
    2960: 4c f8 28     	jmp	$28f8 <printf+0x606>
    2963: a5 12        	lda	$12                     ; 0x2012 <exhaustZeroes+0x40>
    2965: 18           	clc
    2966: 65 15        	adc	$15                     ; 0x2015 <exhaustZeroes+0x43>
    2968: 85 12        	sta	$12                     ; 0x2012 <exhaustZeroes+0x40>
    296a: a5 13        	lda	$13                     ; 0x2013 <exhaustZeroes+0x41>
    296c: 65 14        	adc	$14                     ; 0x2014 <exhaustZeroes+0x42>
    296e: 85 13        	sta	$13                     ; 0x2013 <exhaustZeroes+0x41>
    2970: 18           	clc
    2971: a5 10        	lda	$10                     ; 0x2010 <exhaustZeroes+0x3e>
    2973: 69 1e        	adc	#$1e
    2975: 48           	pha
    2976: a5 11        	lda	$11                     ; 0x2011 <exhaustZeroes+0x3f>
    2978: 69 00        	adc	#$0
    297a: a8           	tay
    297b: 68           	pla
    297c: 85 14        	sta	$14                     ; 0x2014 <exhaustZeroes+0x42>
    297e: 84 15        	sty	$15                     ; 0x2015 <exhaustZeroes+0x43>
    2980: 18           	clc
    2981: 69 0d        	adc	#$d
    2983: 85 16        	sta	$16                     ; 0x2016 <exhaustZeroes+0x44>
    2985: 98           	tya
    2986: 69 00        	adc	#$0
    2988: 85 17        	sta	$17                     ; 0x2017 <exhaustZeroes+0x45>
    298a: e6 12        	inc	$12                     ; 0x2012 <exhaustZeroes+0x40>
    298c: d0 02        	bne	$2990 <printf+0x69e>
    298e: e6 13        	inc	$13                     ; 0x2013 <exhaustZeroes+0x41>
    2990: a0 0d        	ldy	#$d
    2992: a5 18        	lda	$18                     ; 0x2018 <exhaustZeroes+0x46>
    2994: 91 14        	sta	($14),y                 ; 0x2014 <exhaustZeroes+0x42>
    2996: a6 18        	ldx	$18                     ; 0x2018 <exhaustZeroes+0x46>
    2998: a5 1f        	lda	$1f                     ; 0x201f <exhaustZeroes+0x4d>
    299a: a0 01        	ldy	#$1
    299c: 91 16        	sta	($16),y                 ; 0x2016 <exhaustZeroes+0x44>
    299e: 86 29        	stx	$29                     ; 0x2029 <exhaustZeroes+0x57>
    29a0: 80 2e        	bra	$29d0 <printf+0x6de>
    29a2: e6 12        	inc	$12                     ; 0x2012 <exhaustZeroes+0x40>
    29a4: d0 02        	bne	$29a8 <printf+0x6b6>
    29a6: e6 13        	inc	$13                     ; 0x2013 <exhaustZeroes+0x41>
    29a8: 18           	clc
    29a9: a5 10        	lda	$10                     ; 0x2010 <exhaustZeroes+0x3e>
    29ab: 69 1e        	adc	#$1e
    29ad: 48           	pha
    29ae: a5 11        	lda	$11                     ; 0x2011 <exhaustZeroes+0x3f>
    29b0: 69 00        	adc	#$0
    29b2: aa           	tax
    29b3: 68           	pla
    29b4: 85 14        	sta	$14                     ; 0x2014 <exhaustZeroes+0x42>
    29b6: 86 15        	stx	$15                     ; 0x2015 <exhaustZeroes+0x43>
    29b8: 18           	clc
    29b9: 69 0d        	adc	#$d
    29bb: 85 16        	sta	$16                     ; 0x2016 <exhaustZeroes+0x44>
    29bd: 8a           	txa
    29be: 69 00        	adc	#$0
    29c0: 85 17        	sta	$17                     ; 0x2017 <exhaustZeroes+0x45>
    29c2: a9 00        	lda	#$0
    29c4: a0 0d        	ldy	#$d
    29c6: 91 14        	sta	($14),y                 ; 0x2014 <exhaustZeroes+0x42>
    29c8: a0 01        	ldy	#$1
    29ca: 64 29        	stz	$29                     ; 0x2029 <exhaustZeroes+0x57>
    29cc: 91 16        	sta	($16),y                 ; 0x2016 <exhaustZeroes+0x44>
    29ce: 64 1f        	stz	$1f                     ; 0x201f <exhaustZeroes+0x4d>
    29d0: a5 2e        	lda	$2e                     ; 0x202e <exhaustZeroes+0x5c>
    29d2: 29 ef        	and	#$ef
    29d4: a6 1e        	ldx	$1e                     ; 0x201e <exhaustZeroes+0x4c>
    29d6: 86 14        	stx	$14                     ; 0x2014 <exhaustZeroes+0x42>
    29d8: a6 1d        	ldx	$1d                     ; 0x201d <exhaustZeroes+0x4b>
    29da: 86 15        	stx	$15                     ; 0x2015 <exhaustZeroes+0x43>
    29dc: 85 2e        	sta	$2e                     ; 0x202e <exhaustZeroes+0x5c>
    29de: 91 14        	sta	($14),y                 ; 0x2014 <exhaustZeroes+0x42>
    29e0: e6 14        	inc	$14                     ; 0x2014 <exhaustZeroes+0x42>
    29e2: d0 02        	bne	$29e6 <printf+0x6f4>
    29e4: e6 15        	inc	$15                     ; 0x2015 <exhaustZeroes+0x43>
    29e6: a9 00        	lda	#$0
    29e8: 91 14        	sta	($14),y                 ; 0x2014 <exhaustZeroes+0x42>
    29ea: a5 1f        	lda	$1f                     ; 0x201f <exhaustZeroes+0x4d>
    29ec: 5a           	phy
    29ed: a0 13        	ldy	#$13
    29ef: 91 10        	sta	($10),y                 ; 0x2010 <exhaustZeroes+0x3e>
    29f1: 7a           	ply
    29f2: b2 12        	lda	($12)                   ; 0x2012 <exhaustZeroes+0x40>
    29f4: a6 12        	ldx	$12                     ; 0x2012 <exhaustZeroes+0x40>
    29f6: 86 26        	stx	$26                     ; 0x2026 <exhaustZeroes+0x54>
    29f8: a6 13        	ldx	$13                     ; 0x2013 <exhaustZeroes+0x41>
    29fa: 86 27        	stx	$27                     ; 0x2027 <exhaustZeroes+0x55>
    29fc: e6 26        	inc	$26                     ; 0x2026 <exhaustZeroes+0x54>
    29fe: d0 02        	bne	$2a02 <printf+0x710>
    2a00: e6 27        	inc	$27                     ; 0x2027 <exhaustZeroes+0x55>
    2a02: aa           	tax
    2a03: 38           	sec
    2a04: e9 6c        	sbc	#$6c
    2a06: 50 02        	bvc	$2a0a <printf+0x718>
    2a08: 49 80        	eor	#$80
    2a0a: c9 00        	cmp	#$0
    2a0c: 10 27        	bpl	$2a35 <printf+0x743>
    2a0e: e0 4c        	cpx	#$4c
    2a10: f0 3c        	beq	$2a4e <printf+0x75c>
    2a12: 8a           	txa
    2a13: e0 68        	cpx	#$68
    2a15: d0 03        	bne	$2a1a <printf+0x728>
    2a17: 4c 08 2b     	jmp	$2b08 <printf+0x816>
    2a1a: 48           	pha
    2a1b: a5 29        	lda	$29                     ; 0x2029 <exhaustZeroes+0x57>
    2a1d: 5a           	phy
    2a1e: a0 12        	ldy	#$12
    2a20: 91 10        	sta	($10),y                 ; 0x2010 <exhaustZeroes+0x3e>
    2a22: 7a           	ply
    2a23: 68           	pla
    2a24: a2 08        	ldx	#$8
    2a26: c9 6a        	cmp	#$6a
    2a28: d0 4e        	bne	$2a78 <printf+0x786>
    2a2a: a5 26        	lda	$26                     ; 0x2026 <exhaustZeroes+0x54>
    2a2c: 85 12        	sta	$12                     ; 0x2012 <exhaustZeroes+0x40>
    2a2e: a5 27        	lda	$27                     ; 0x2027 <exhaustZeroes+0x55>
    2a30: 85 13        	sta	$13                     ; 0x2013 <exhaustZeroes+0x41>
    2a32: 4c 9f 2a     	jmp	$2a9f <printf+0x7ad>
    2a35: e0 6c        	cpx	#$6c
    2a37: f0 44        	beq	$2a7d <printf+0x78b>
    2a39: e0 74        	cpx	#$74
    2a3b: d0 03        	bne	$2a40 <printf+0x74e>
    2a3d: 4c 35 2b     	jmp	$2b35 <printf+0x843>
    2a40: a5 29        	lda	$29                     ; 0x2029 <exhaustZeroes+0x57>
    2a42: 5a           	phy
    2a43: a0 12        	ldy	#$12
    2a45: 91 10        	sta	($10),y                 ; 0x2010 <exhaustZeroes+0x3e>
    2a47: 7a           	ply
    2a48: e0 7a        	cpx	#$7a
    2a4a: f0 24        	beq	$2a70 <printf+0x77e>
    2a4c: 80 2a        	bra	$2a78 <printf+0x786>
    2a4e: a5 29        	lda	$29                     ; 0x2029 <exhaustZeroes+0x57>
    2a50: 5a           	phy
    2a51: a0 12        	ldy	#$12
    2a53: 91 10        	sta	($10),y                 ; 0x2010 <exhaustZeroes+0x3e>
    2a55: 7a           	ply
    2a56: a5 2e        	lda	$2e                     ; 0x202e <exhaustZeroes+0x5c>
    2a58: 09 40        	ora	#$40
    2a5a: a6 1e        	ldx	$1e                     ; 0x201e <exhaustZeroes+0x4c>
    2a5c: 86 12        	stx	$12                     ; 0x2012 <exhaustZeroes+0x40>
    2a5e: a6 1d        	ldx	$1d                     ; 0x201d <exhaustZeroes+0x4b>
    2a60: 86 13        	stx	$13                     ; 0x2013 <exhaustZeroes+0x41>
    2a62: 85 2e        	sta	$2e                     ; 0x202e <exhaustZeroes+0x5c>
    2a64: 91 12        	sta	($12),y                 ; 0x2012 <exhaustZeroes+0x40>
    2a66: e6 12        	inc	$12                     ; 0x2012 <exhaustZeroes+0x40>
    2a68: d0 02        	bne	$2a6c <printf+0x77a>
    2a6a: e6 13        	inc	$13                     ; 0x2013 <exhaustZeroes+0x41>
    2a6c: a9 00        	lda	#$0
    2a6e: 91 12        	sta	($12),y                 ; 0x2012 <exhaustZeroes+0x40>
    2a70: a6 26        	ldx	$26                     ; 0x2026 <exhaustZeroes+0x54>
    2a72: 86 12        	stx	$12                     ; 0x2012 <exhaustZeroes+0x40>
    2a74: a6 27        	ldx	$27                     ; 0x2027 <exhaustZeroes+0x55>
    2a76: 86 13        	stx	$13                     ; 0x2013 <exhaustZeroes+0x41>
    2a78: a2 02        	ldx	#$2
    2a7a: 8a           	txa
    2a7b: 80 24        	bra	$2aa1 <printf+0x7af>
    2a7d: a5 29        	lda	$29                     ; 0x2029 <exhaustZeroes+0x57>
    2a7f: 5a           	phy
    2a80: a0 12        	ldy	#$12
    2a82: 91 10        	sta	($10),y                 ; 0x2010 <exhaustZeroes+0x3e>
    2a84: 7a           	ply
    2a85: b1 12        	lda	($12),y                 ; 0x2012 <exhaustZeroes+0x40>
    2a87: a2 04        	ldx	#$4
    2a89: c9 6c        	cmp	#$6c
    2a8b: f0 03        	beq	$2a90 <printf+0x79e>
    2a8d: 4c 8c 30     	jmp	$308c <printf+0xd9a>
    2a90: a5 12        	lda	$12                     ; 0x2012 <exhaustZeroes+0x40>
    2a92: 18           	clc
    2a93: 69 02        	adc	#$2
    2a95: 85 12        	sta	$12                     ; 0x2012 <exhaustZeroes+0x40>
    2a97: a5 13        	lda	$13                     ; 0x2013 <exhaustZeroes+0x41>
    2a99: 69 00        	adc	#$0
    2a9b: 85 13        	sta	$13                     ; 0x2013 <exhaustZeroes+0x41>
    2a9d: a2 08        	ldx	#$8
    2a9f: a9 08        	lda	#$8
    2aa1: 5a           	phy
    2aa2: a0 1a        	ldy	#$1a
    2aa4: 91 10        	sta	($10),y                 ; 0x2010 <exhaustZeroes+0x3e>
    2aa6: 7a           	ply
    2aa7: b2 12        	lda	($12)                   ; 0x2012 <exhaustZeroes+0x40>
    2aa9: 5a           	phy
    2aaa: a4 12        	ldy	$12                     ; 0x2012 <exhaustZeroes+0x40>
    2aac: 84 26        	sty	$26                     ; 0x2026 <exhaustZeroes+0x54>
    2aae: a4 13        	ldy	$13                     ; 0x2013 <exhaustZeroes+0x41>
    2ab0: 84 27        	sty	$27                     ; 0x2027 <exhaustZeroes+0x55>
    2ab2: 7a           	ply
    2ab3: 86 12        	stx	$12                     ; 0x2012 <exhaustZeroes+0x40>
    2ab5: aa           	tax
    2ab6: 18           	clc
    2ab7: 69 9d        	adc	#$9d
    2ab9: c9 16        	cmp	#$16
    2abb: 90 03        	bcc	$2ac0 <printf+0x7ce>
    2abd: 4c 4a 2b     	jmp	$2b4a <printf+0x858>
    2ac0: 0a           	asl
    2ac1: aa           	tax
    2ac2: 7c 71 44     	jmp	($4471,x)               ; 0x4471 <__set_v+0x21>
    2ac5: a5 12        	lda	$12                     ; 0x2012 <exhaustZeroes+0x40>
    2ac7: a0 11        	ldy	#$11
    2ac9: 91 10        	sta	($10),y                 ; 0x2010 <exhaustZeroes+0x3e>
    2acb: a5 1c        	lda	$1c                     ; 0x201c <exhaustZeroes+0x4a>
    2acd: a0 0f        	ldy	#$f
    2acf: 91 10        	sta	($10),y                 ; 0x2010 <exhaustZeroes+0x3e>
    2ad1: a5 1b        	lda	$1b                     ; 0x201b <exhaustZeroes+0x49>
    2ad3: 88           	dey
    2ad4: 91 10        	sta	($10),y                 ; 0x2010 <exhaustZeroes+0x3e>
    2ad6: a5 24        	lda	$24                     ; 0x2024 <exhaustZeroes+0x52>
    2ad8: a0 14        	ldy	#$14
    2ada: 91 10        	sta	($10),y                 ; 0x2010 <exhaustZeroes+0x3e>
    2adc: a5 25        	lda	$25                     ; 0x2025 <exhaustZeroes+0x53>
    2ade: c8           	iny
    2adf: 91 10        	sta	($10),y                 ; 0x2010 <exhaustZeroes+0x3e>
    2ae1: a5 26        	lda	$26                     ; 0x2026 <exhaustZeroes+0x54>
    2ae3: c8           	iny
    2ae4: 91 10        	sta	($10),y                 ; 0x2010 <exhaustZeroes+0x3e>
    2ae6: a5 27        	lda	$27                     ; 0x2027 <exhaustZeroes+0x55>
    2ae8: c8           	iny
    2ae9: 91 10        	sta	($10),y                 ; 0x2010 <exhaustZeroes+0x3e>
    2aeb: a6 1e        	ldx	$1e                     ; 0x201e <exhaustZeroes+0x4c>
    2aed: 86 12        	stx	$12                     ; 0x2012 <exhaustZeroes+0x40>
    2aef: a6 1d        	ldx	$1d                     ; 0x201d <exhaustZeroes+0x4b>
    2af1: 86 13        	stx	$13                     ; 0x2013 <exhaustZeroes+0x41>
    2af3: a9 0a        	lda	#$a
    2af5: aa           	tax
    2af6: 48           	pha
    2af7: 8a           	txa
    2af8: a0 1b        	ldy	#$1b
    2afa: 91 10        	sta	($10),y                 ; 0x2010 <exhaustZeroes+0x3e>
    2afc: 68           	pla
    2afd: 92 12        	sta	($12)                   ; 0x2012 <exhaustZeroes+0x40>
    2aff: 64 12        	stz	$12                     ; 0x2012 <exhaustZeroes+0x40>
    2b01: a9 00        	lda	#$0
    2b03: a0 10        	ldy	#$10
    2b05: 4c 22 2c     	jmp	$2c22 <printf+0x930>
    2b08: a5 29        	lda	$29                     ; 0x2029 <exhaustZeroes+0x57>
    2b0a: 5a           	phy
    2b0b: a0 12        	ldy	#$12
    2b0d: 91 10        	sta	($10),y                 ; 0x2010 <exhaustZeroes+0x3e>
    2b0f: 7a           	ply
    2b10: b1 12        	lda	($12),y                 ; 0x2012 <exhaustZeroes+0x40>
    2b12: a2 02        	ldx	#$2
    2b14: c9 68        	cmp	#$68
    2b16: f0 03        	beq	$2b1b <printf+0x829>
    2b18: 4c 92 30     	jmp	$3092 <printf+0xda0>
    2b1b: a5 12        	lda	$12                     ; 0x2012 <exhaustZeroes+0x40>
    2b1d: 18           	clc
    2b1e: 69 02        	adc	#$2
    2b20: 85 12        	sta	$12                     ; 0x2012 <exhaustZeroes+0x40>
    2b22: a5 13        	lda	$13                     ; 0x2013 <exhaustZeroes+0x41>
    2b24: 69 00        	adc	#$0
    2b26: 85 13        	sta	$13                     ; 0x2013 <exhaustZeroes+0x41>
    2b28: a2 01        	ldx	#$1
    2b2a: 8a           	txa
    2b2b: 5a           	phy
    2b2c: a0 1a        	ldy	#$1a
    2b2e: 91 10        	sta	($10),y                 ; 0x2010 <exhaustZeroes+0x3e>
    2b30: 7a           	ply
    2b31: e8           	inx
    2b32: 4c a7 2a     	jmp	$2aa7 <printf+0x7b5>
    2b35: 5a           	phy
    2b36: a5 29        	lda	$29                     ; 0x2029 <exhaustZeroes+0x57>
    2b38: a0 12        	ldy	#$12
    2b3a: 91 10        	sta	($10),y                 ; 0x2010 <exhaustZeroes+0x3e>
    2b3c: a6 26        	ldx	$26                     ; 0x2026 <exhaustZeroes+0x54>
    2b3e: 86 12        	stx	$12                     ; 0x2012 <exhaustZeroes+0x40>
    2b40: a6 27        	ldx	$27                     ; 0x2027 <exhaustZeroes+0x55>
    2b42: 86 13        	stx	$13                     ; 0x2013 <exhaustZeroes+0x41>
    2b44: a2 02        	ldx	#$2
    2b46: 8a           	txa
    2b47: 4c a2 2a     	jmp	$2aa2 <printf+0x7b0>
    2b4a: e0 58        	cpx	#$58
    2b4c: f0 03        	beq	$2b51 <printf+0x85f>
    2b4e: 4c aa 3c     	jmp	$3caa <printf+0x19b8>
    2b51: 5a           	phy
    2b52: a5 12        	lda	$12                     ; 0x2012 <exhaustZeroes+0x40>
    2b54: a0 11        	ldy	#$11
    2b56: 91 10        	sta	($10),y                 ; 0x2010 <exhaustZeroes+0x3e>
    2b58: a5 1c        	lda	$1c                     ; 0x201c <exhaustZeroes+0x4a>
    2b5a: a0 0f        	ldy	#$f
    2b5c: 91 10        	sta	($10),y                 ; 0x2010 <exhaustZeroes+0x3e>
    2b5e: a5 1b        	lda	$1b                     ; 0x201b <exhaustZeroes+0x49>
    2b60: 88           	dey
    2b61: 91 10        	sta	($10),y                 ; 0x2010 <exhaustZeroes+0x3e>
    2b63: a5 24        	lda	$24                     ; 0x2024 <exhaustZeroes+0x52>
    2b65: a0 14        	ldy	#$14
    2b67: 91 10        	sta	($10),y                 ; 0x2010 <exhaustZeroes+0x3e>
    2b69: a5 25        	lda	$25                     ; 0x2025 <exhaustZeroes+0x53>
    2b6b: c8           	iny
    2b6c: 91 10        	sta	($10),y                 ; 0x2010 <exhaustZeroes+0x3e>
    2b6e: a5 26        	lda	$26                     ; 0x2026 <exhaustZeroes+0x54>
    2b70: c8           	iny
    2b71: 91 10        	sta	($10),y                 ; 0x2010 <exhaustZeroes+0x3e>
    2b73: a5 27        	lda	$27                     ; 0x2027 <exhaustZeroes+0x55>
    2b75: c8           	iny
    2b76: 91 10        	sta	($10),y                 ; 0x2010 <exhaustZeroes+0x3e>
    2b78: 7a           	ply
    2b79: a6 1e        	ldx	$1e                     ; 0x201e <exhaustZeroes+0x4c>
    2b7b: 86 12        	stx	$12                     ; 0x2012 <exhaustZeroes+0x40>
    2b7d: a6 1d        	ldx	$1d                     ; 0x201d <exhaustZeroes+0x4b>
    2b7f: 86 13        	stx	$13                     ; 0x2013 <exhaustZeroes+0x41>
    2b81: a9 10        	lda	#$10
    2b83: 92 12        	sta	($12)                   ; 0x2012 <exhaustZeroes+0x40>
    2b85: a9 00        	lda	#$0
    2b87: 09 01        	ora	#$1
    2b89: aa           	tax
    2b8a: a5 2e        	lda	$2e                     ; 0x202e <exhaustZeroes+0x5c>
    2b8c: 4c 0c 2c     	jmp	$2c0c <printf+0x91a>
    2b8f: 5a           	phy
    2b90: a5 12        	lda	$12                     ; 0x2012 <exhaustZeroes+0x40>
    2b92: a0 11        	ldy	#$11
    2b94: 91 10        	sta	($10),y                 ; 0x2010 <exhaustZeroes+0x3e>
    2b96: a5 1c        	lda	$1c                     ; 0x201c <exhaustZeroes+0x4a>
    2b98: a0 0f        	ldy	#$f
    2b9a: 91 10        	sta	($10),y                 ; 0x2010 <exhaustZeroes+0x3e>
    2b9c: a5 1b        	lda	$1b                     ; 0x201b <exhaustZeroes+0x49>
    2b9e: 88           	dey
    2b9f: 91 10        	sta	($10),y                 ; 0x2010 <exhaustZeroes+0x3e>
    2ba1: a5 24        	lda	$24                     ; 0x2024 <exhaustZeroes+0x52>
    2ba3: a0 14        	ldy	#$14
    2ba5: 91 10        	sta	($10),y                 ; 0x2010 <exhaustZeroes+0x3e>
    2ba7: a5 25        	lda	$25                     ; 0x2025 <exhaustZeroes+0x53>
    2ba9: c8           	iny
    2baa: 91 10        	sta	($10),y                 ; 0x2010 <exhaustZeroes+0x3e>
    2bac: a5 26        	lda	$26                     ; 0x2026 <exhaustZeroes+0x54>
    2bae: c8           	iny
    2baf: 91 10        	sta	($10),y                 ; 0x2010 <exhaustZeroes+0x3e>
    2bb1: a5 27        	lda	$27                     ; 0x2027 <exhaustZeroes+0x55>
    2bb3: c8           	iny
    2bb4: 91 10        	sta	($10),y                 ; 0x2010 <exhaustZeroes+0x3e>
    2bb6: 7a           	ply
    2bb7: a6 1e        	ldx	$1e                     ; 0x201e <exhaustZeroes+0x4c>
    2bb9: 86 12        	stx	$12                     ; 0x2012 <exhaustZeroes+0x40>
    2bbb: a6 1d        	ldx	$1d                     ; 0x201d <exhaustZeroes+0x4b>
    2bbd: 86 13        	stx	$13                     ; 0x2013 <exhaustZeroes+0x41>
    2bbf: a9 10        	lda	#$10
    2bc1: 92 12        	sta	($12)                   ; 0x2012 <exhaustZeroes+0x40>
    2bc3: a5 2e        	lda	$2e                     ; 0x202e <exhaustZeroes+0x5c>
    2bc5: 09 84        	ora	#$84
    2bc7: 80 38        	bra	$2c01 <printf+0x90f>
    2bc9: 5a           	phy
    2bca: a5 12        	lda	$12                     ; 0x2012 <exhaustZeroes+0x40>
    2bcc: a0 11        	ldy	#$11
    2bce: 91 10        	sta	($10),y                 ; 0x2010 <exhaustZeroes+0x3e>
    2bd0: a5 1c        	lda	$1c                     ; 0x201c <exhaustZeroes+0x4a>
    2bd2: a0 0f        	ldy	#$f
    2bd4: 91 10        	sta	($10),y                 ; 0x2010 <exhaustZeroes+0x3e>
    2bd6: a5 1b        	lda	$1b                     ; 0x201b <exhaustZeroes+0x49>
    2bd8: 88           	dey
    2bd9: 91 10        	sta	($10),y                 ; 0x2010 <exhaustZeroes+0x3e>
    2bdb: a5 24        	lda	$24                     ; 0x2024 <exhaustZeroes+0x52>
    2bdd: a0 14        	ldy	#$14
    2bdf: 91 10        	sta	($10),y                 ; 0x2010 <exhaustZeroes+0x3e>
    2be1: a5 25        	lda	$25                     ; 0x2025 <exhaustZeroes+0x53>
    2be3: c8           	iny
    2be4: 91 10        	sta	($10),y                 ; 0x2010 <exhaustZeroes+0x3e>
    2be6: a5 26        	lda	$26                     ; 0x2026 <exhaustZeroes+0x54>
    2be8: c8           	iny
    2be9: 91 10        	sta	($10),y                 ; 0x2010 <exhaustZeroes+0x3e>
    2beb: a5 27        	lda	$27                     ; 0x2027 <exhaustZeroes+0x55>
    2bed: c8           	iny
    2bee: 91 10        	sta	($10),y                 ; 0x2010 <exhaustZeroes+0x3e>
    2bf0: 7a           	ply
    2bf1: a6 1e        	ldx	$1e                     ; 0x201e <exhaustZeroes+0x4c>
    2bf3: 86 12        	stx	$12                     ; 0x2012 <exhaustZeroes+0x40>
    2bf5: a6 1d        	ldx	$1d                     ; 0x201d <exhaustZeroes+0x4b>
    2bf7: 86 13        	stx	$13                     ; 0x2013 <exhaustZeroes+0x41>
    2bf9: a9 10        	lda	#$10
    2bfb: 92 12        	sta	($12)                   ; 0x2012 <exhaustZeroes+0x40>
    2bfd: a5 2e        	lda	$2e                     ; 0x202e <exhaustZeroes+0x5c>
    2bff: 09 80        	ora	#$80
    2c01: 85 14        	sta	$14                     ; 0x2014 <exhaustZeroes+0x42>
    2c03: a9 00        	lda	#$0
    2c05: 09 01        	ora	#$1
    2c07: aa           	tax
    2c08: a5 14        	lda	$14                     ; 0x2014 <exhaustZeroes+0x42>
    2c0a: 85 2e        	sta	$2e                     ; 0x202e <exhaustZeroes+0x5c>
    2c0c: 91 12        	sta	($12),y                 ; 0x2012 <exhaustZeroes+0x40>
    2c0e: e6 12        	inc	$12                     ; 0x2012 <exhaustZeroes+0x40>
    2c10: d0 02        	bne	$2c14 <printf+0x922>
    2c12: e6 13        	inc	$13                     ; 0x2013 <exhaustZeroes+0x41>
    2c14: 8a           	txa
    2c15: 5a           	phy
    2c16: a0 10        	ldy	#$10
    2c18: 91 10        	sta	($10),y                 ; 0x2010 <exhaustZeroes+0x3e>
    2c1a: 7a           	ply
    2c1b: 91 12        	sta	($12),y                 ; 0x2012 <exhaustZeroes+0x40>
    2c1d: a2 10        	ldx	#$10
    2c1f: 8a           	txa
    2c20: a0 1b        	ldy	#$1b
    2c22: 91 10        	sta	($10),y                 ; 0x2010 <exhaustZeroes+0x3e>
    2c24: 4c e2 2d     	jmp	$2de2 <printf+0xaf0>
    2c27: 18           	clc
    2c28: a5 10        	lda	$10                     ; 0x2010 <exhaustZeroes+0x3e>
    2c2a: 69 1e        	adc	#$1e
    2c2c: aa           	tax
    2c2d: a0 01        	ldy	#$1
    2c2f: b0 02        	bcs	$2c33 <printf+0x941>
    2c31: a0 00        	ldy	#$0
    2c33: 84 18        	sty	$18                     ; 0x2018 <exhaustZeroes+0x46>
    2c35: 18           	clc
    2c36: a5 10        	lda	$10                     ; 0x2010 <exhaustZeroes+0x3e>
    2c38: 69 1e        	adc	#$1e
    2c3a: 48           	pha
    2c3b: a5 11        	lda	$11                     ; 0x2011 <exhaustZeroes+0x3f>
    2c3d: 69 00        	adc	#$0
    2c3f: a8           	tay
    2c40: 68           	pla
    2c41: 85 12        	sta	$12                     ; 0x2012 <exhaustZeroes+0x40>
    2c43: 84 13        	sty	$13                     ; 0x2013 <exhaustZeroes+0x41>
    2c45: 18           	clc
    2c46: 69 11        	adc	#$11
    2c48: 85 14        	sta	$14                     ; 0x2014 <exhaustZeroes+0x42>
    2c4a: 98           	tya
    2c4b: 69 00        	adc	#$0
    2c4d: 85 15        	sta	$15                     ; 0x2015 <exhaustZeroes+0x43>
    2c4f: a0 11        	ldy	#$11
    2c51: b1 12        	lda	($12),y                 ; 0x2012 <exhaustZeroes+0x40>
    2c53: 85 16        	sta	$16                     ; 0x2016 <exhaustZeroes+0x44>
    2c55: a0 01        	ldy	#$1
    2c57: b1 14        	lda	($14),y                 ; 0x2014 <exhaustZeroes+0x42>
    2c59: a8           	tay
    2c5a: a5 16        	lda	$16                     ; 0x2016 <exhaustZeroes+0x44>
    2c5c: 84 17        	sty	$17                     ; 0x2017 <exhaustZeroes+0x45>
    2c5e: 18           	clc
    2c5f: 69 02        	adc	#$2
    2c61: 85 1a        	sta	$1a                     ; 0x201a <exhaustZeroes+0x48>
    2c63: 98           	tya
    2c64: 69 00        	adc	#$0
    2c66: 85 19        	sta	$19                     ; 0x2019 <exhaustZeroes+0x47>
    2c68: a4 18        	ldy	$18                     ; 0x2018 <exhaustZeroes+0x46>
    2c6a: c0 01        	cpy	#$1
    2c6c: a5 11        	lda	$11                     ; 0x2011 <exhaustZeroes+0x3f>
    2c6e: 69 00        	adc	#$0
    2c70: 85 18        	sta	$18                     ; 0x2018 <exhaustZeroes+0x46>
    2c72: a0 11        	ldy	#$11
    2c74: a5 1a        	lda	$1a                     ; 0x201a <exhaustZeroes+0x48>
    2c76: 91 12        	sta	($12),y                 ; 0x2012 <exhaustZeroes+0x40>
    2c78: a0 01        	ldy	#$1
    2c7a: a5 19        	lda	$19                     ; 0x2019 <exhaustZeroes+0x47>
    2c7c: 91 14        	sta	($14),y                 ; 0x2014 <exhaustZeroes+0x42>
    2c7e: b2 16        	lda	($16)                   ; 0x2016 <exhaustZeroes+0x44>
    2c80: 85 14        	sta	$14                     ; 0x2014 <exhaustZeroes+0x42>
    2c82: b1 16        	lda	($16),y                 ; 0x2016 <exhaustZeroes+0x44>
    2c84: 85 15        	sta	$15                     ; 0x2015 <exhaustZeroes+0x43>
    2c86: 18           	clc
    2c87: 8a           	txa
    2c88: 69 05        	adc	#$5
    2c8a: 85 16        	sta	$16                     ; 0x2016 <exhaustZeroes+0x44>
    2c8c: a5 18        	lda	$18                     ; 0x2018 <exhaustZeroes+0x46>
    2c8e: 69 00        	adc	#$0
    2c90: 85 17        	sta	$17                     ; 0x2017 <exhaustZeroes+0x45>
    2c92: a0 05        	ldy	#$5
    2c94: b1 12        	lda	($12),y                 ; 0x2012 <exhaustZeroes+0x40>
    2c96: 85 13        	sta	$13                     ; 0x2013 <exhaustZeroes+0x41>
    2c98: a0 01        	ldy	#$1
    2c9a: b1 16        	lda	($16),y                 ; 0x2016 <exhaustZeroes+0x44>
    2c9c: 85 12        	sta	$12                     ; 0x2012 <exhaustZeroes+0x40>
    2c9e: a5 13        	lda	$13                     ; 0x2013 <exhaustZeroes+0x41>
    2ca0: 92 14        	sta	($14)                   ; 0x2014 <exhaustZeroes+0x42>
    2ca2: a5 12        	lda	$12                     ; 0x2012 <exhaustZeroes+0x40>
    2ca4: 91 14        	sta	($14),y                 ; 0x2014 <exhaustZeroes+0x42>
    2ca6: 4c 81 2d     	jmp	$2d81 <printf+0xa8f>
    2ca9: 18           	clc
    2caa: a5 10        	lda	$10                     ; 0x2010 <exhaustZeroes+0x3e>
    2cac: 69 1e        	adc	#$1e
    2cae: 48           	pha
    2caf: a5 11        	lda	$11                     ; 0x2011 <exhaustZeroes+0x3f>
    2cb1: 69 00        	adc	#$0
    2cb3: aa           	tax
    2cb4: 68           	pla
    2cb5: 85 14        	sta	$14                     ; 0x2014 <exhaustZeroes+0x42>
    2cb7: 86 15        	stx	$15                     ; 0x2015 <exhaustZeroes+0x43>
    2cb9: 18           	clc
    2cba: 69 11        	adc	#$11
    2cbc: 85 12        	sta	$12                     ; 0x2012 <exhaustZeroes+0x40>
    2cbe: 8a           	txa
    2cbf: 69 00        	adc	#$0
    2cc1: 85 13        	sta	$13                     ; 0x2013 <exhaustZeroes+0x41>
    2cc3: a0 11        	ldy	#$11
    2cc5: b1 14        	lda	($14),y                 ; 0x2014 <exhaustZeroes+0x42>
    2cc7: 85 16        	sta	$16                     ; 0x2016 <exhaustZeroes+0x44>
    2cc9: a0 01        	ldy	#$1
    2ccb: b1 12        	lda	($12),y                 ; 0x2012 <exhaustZeroes+0x40>
    2ccd: aa           	tax
    2cce: a5 16        	lda	$16                     ; 0x2016 <exhaustZeroes+0x44>
    2cd0: 86 17        	stx	$17                     ; 0x2017 <exhaustZeroes+0x45>
    2cd2: 18           	clc
    2cd3: 69 02        	adc	#$2
    2cd5: 85 19        	sta	$19                     ; 0x2019 <exhaustZeroes+0x47>
    2cd7: 8a           	txa
    2cd8: 69 00        	adc	#$0
    2cda: 85 18        	sta	$18                     ; 0x2018 <exhaustZeroes+0x46>
    2cdc: a0 11        	ldy	#$11
    2cde: a5 19        	lda	$19                     ; 0x2019 <exhaustZeroes+0x47>
    2ce0: 91 14        	sta	($14),y                 ; 0x2014 <exhaustZeroes+0x42>
    2ce2: a5 18        	lda	$18                     ; 0x2018 <exhaustZeroes+0x46>
    2ce4: a0 01        	ldy	#$1
    2ce6: 91 12        	sta	($12),y                 ; 0x2012 <exhaustZeroes+0x40>
    2ce8: b2 16        	lda	($16)                   ; 0x2016 <exhaustZeroes+0x44>
    2cea: 85 12        	sta	$12                     ; 0x2012 <exhaustZeroes+0x40>
    2cec: b1 16        	lda	($16),y                 ; 0x2016 <exhaustZeroes+0x44>
    2cee: 85 13        	sta	$13                     ; 0x2013 <exhaustZeroes+0x41>
    2cf0: 4c 7c 2d     	jmp	$2d7c <printf+0xa8a>
    2cf3: 84 21        	sty	$21                     ; 0x2021 <exhaustZeroes+0x4f>
    2cf5: a5 12        	lda	$12                     ; 0x2012 <exhaustZeroes+0x40>
    2cf7: a0 11        	ldy	#$11
    2cf9: 91 10        	sta	($10),y                 ; 0x2010 <exhaustZeroes+0x3e>
    2cfb: a5 1c        	lda	$1c                     ; 0x201c <exhaustZeroes+0x4a>
    2cfd: a0 0f        	ldy	#$f
    2cff: 91 10        	sta	($10),y                 ; 0x2010 <exhaustZeroes+0x3e>
    2d01: a5 1b        	lda	$1b                     ; 0x201b <exhaustZeroes+0x49>
    2d03: 88           	dey
    2d04: 91 10        	sta	($10),y                 ; 0x2010 <exhaustZeroes+0x3e>
    2d06: a5 24        	lda	$24                     ; 0x2024 <exhaustZeroes+0x52>
    2d08: a0 14        	ldy	#$14
    2d0a: 91 10        	sta	($10),y                 ; 0x2010 <exhaustZeroes+0x3e>
    2d0c: a5 25        	lda	$25                     ; 0x2025 <exhaustZeroes+0x53>
    2d0e: c8           	iny
    2d0f: 91 10        	sta	($10),y                 ; 0x2010 <exhaustZeroes+0x3e>
    2d11: a5 26        	lda	$26                     ; 0x2026 <exhaustZeroes+0x54>
    2d13: c8           	iny
    2d14: 91 10        	sta	($10),y                 ; 0x2010 <exhaustZeroes+0x3e>
    2d16: a5 27        	lda	$27                     ; 0x2027 <exhaustZeroes+0x55>
    2d18: c8           	iny
    2d19: 91 10        	sta	($10),y                 ; 0x2010 <exhaustZeroes+0x3e>
    2d1b: a6 1e        	ldx	$1e                     ; 0x201e <exhaustZeroes+0x4c>
    2d1d: 86 12        	stx	$12                     ; 0x2012 <exhaustZeroes+0x40>
    2d1f: a6 1d        	ldx	$1d                     ; 0x201d <exhaustZeroes+0x4b>
    2d21: 86 13        	stx	$13                     ; 0x2013 <exhaustZeroes+0x41>
    2d23: a9 08        	lda	#$8
    2d25: 4c be 2d     	jmp	$2dbe <printf+0xacc>
    2d28: 18           	clc
    2d29: a5 10        	lda	$10                     ; 0x2010 <exhaustZeroes+0x3e>
    2d2b: 69 1e        	adc	#$1e
    2d2d: 48           	pha
    2d2e: a5 11        	lda	$11                     ; 0x2011 <exhaustZeroes+0x3f>
    2d30: 69 00        	adc	#$0
    2d32: aa           	tax
    2d33: 68           	pla
    2d34: 85 14        	sta	$14                     ; 0x2014 <exhaustZeroes+0x42>
    2d36: 86 15        	stx	$15                     ; 0x2015 <exhaustZeroes+0x43>
    2d38: 18           	clc
    2d39: 69 11        	adc	#$11
    2d3b: 85 12        	sta	$12                     ; 0x2012 <exhaustZeroes+0x40>
    2d3d: 8a           	txa
    2d3e: 69 00        	adc	#$0
    2d40: 85 13        	sta	$13                     ; 0x2013 <exhaustZeroes+0x41>
    2d42: a0 11        	ldy	#$11
    2d44: b1 14        	lda	($14),y                 ; 0x2014 <exhaustZeroes+0x42>
    2d46: 85 16        	sta	$16                     ; 0x2016 <exhaustZeroes+0x44>
    2d48: a0 01        	ldy	#$1
    2d4a: b1 12        	lda	($12),y                 ; 0x2012 <exhaustZeroes+0x40>
    2d4c: aa           	tax
    2d4d: a5 16        	lda	$16                     ; 0x2016 <exhaustZeroes+0x44>
    2d4f: 86 17        	stx	$17                     ; 0x2017 <exhaustZeroes+0x45>
    2d51: 18           	clc
    2d52: 69 02        	adc	#$2
    2d54: 85 19        	sta	$19                     ; 0x2019 <exhaustZeroes+0x47>
    2d56: 8a           	txa
    2d57: 69 00        	adc	#$0
    2d59: 85 18        	sta	$18                     ; 0x2018 <exhaustZeroes+0x46>
    2d5b: a0 11        	ldy	#$11
    2d5d: a5 19        	lda	$19                     ; 0x2019 <exhaustZeroes+0x47>
    2d5f: 91 14        	sta	($14),y                 ; 0x2014 <exhaustZeroes+0x42>
    2d61: a5 18        	lda	$18                     ; 0x2018 <exhaustZeroes+0x46>
    2d63: a0 01        	ldy	#$1
    2d65: 91 12        	sta	($12),y                 ; 0x2012 <exhaustZeroes+0x40>
    2d67: 18           	clc
    2d68: a5 10        	lda	$10                     ; 0x2010 <exhaustZeroes+0x3e>
    2d6a: 69 3c        	adc	#$3c
    2d6c: 85 12        	sta	$12                     ; 0x2012 <exhaustZeroes+0x40>
    2d6e: a5 11        	lda	$11                     ; 0x2011 <exhaustZeroes+0x3f>
    2d70: 69 00        	adc	#$0
    2d72: 85 13        	sta	$13                     ; 0x2013 <exhaustZeroes+0x41>
    2d74: b2 16        	lda	($16)                   ; 0x2016 <exhaustZeroes+0x44>
    2d76: 92 12        	sta	($12)                   ; 0x2012 <exhaustZeroes+0x40>
    2d78: a9 00        	lda	#$0
    2d7a: 91 12        	sta	($12),y                 ; 0x2012 <exhaustZeroes+0x40>
    2d7c: 20 7e 21     	jsr	$217e <_ZN12_GLOBAL__N_112print_stringEPKcP6Status>
    2d7f: a0 01        	ldy	#$1
    2d81: a2 00        	ldx	#$0
    2d83: 86 2e        	stx	$2e                     ; 0x202e <exhaustZeroes+0x5c>
    2d85: a2 00        	ldx	#$0
    2d87: 86 2f        	stx	$2f                     ; 0x202f <exhaustZeroes+0x5d>
    2d89: 4c 92 3c     	jmp	$3c92 <printf+0x19a0>
    2d8c: 84 21        	sty	$21                     ; 0x2021 <exhaustZeroes+0x4f>
    2d8e: a5 12        	lda	$12                     ; 0x2012 <exhaustZeroes+0x40>
    2d90: a0 11        	ldy	#$11
    2d92: 91 10        	sta	($10),y                 ; 0x2010 <exhaustZeroes+0x3e>
    2d94: a5 1c        	lda	$1c                     ; 0x201c <exhaustZeroes+0x4a>
    2d96: a0 0f        	ldy	#$f
    2d98: 91 10        	sta	($10),y                 ; 0x2010 <exhaustZeroes+0x3e>
    2d9a: a5 1b        	lda	$1b                     ; 0x201b <exhaustZeroes+0x49>
    2d9c: 88           	dey
    2d9d: 91 10        	sta	($10),y                 ; 0x2010 <exhaustZeroes+0x3e>
    2d9f: a5 24        	lda	$24                     ; 0x2024 <exhaustZeroes+0x52>
    2da1: a0 14        	ldy	#$14
    2da3: 91 10        	sta	($10),y                 ; 0x2010 <exhaustZeroes+0x3e>
    2da5: a5 25        	lda	$25                     ; 0x2025 <exhaustZeroes+0x53>
    2da7: c8           	iny
    2da8: 91 10        	sta	($10),y                 ; 0x2010 <exhaustZeroes+0x3e>
    2daa: a5 26        	lda	$26                     ; 0x2026 <exhaustZeroes+0x54>
    2dac: c8           	iny
    2dad: 91 10        	sta	($10),y                 ; 0x2010 <exhaustZeroes+0x3e>
    2daf: a5 27        	lda	$27                     ; 0x2027 <exhaustZeroes+0x55>
    2db1: c8           	iny
    2db2: 91 10        	sta	($10),y                 ; 0x2010 <exhaustZeroes+0x3e>
    2db4: a6 1e        	ldx	$1e                     ; 0x201e <exhaustZeroes+0x4c>
    2db6: 86 12        	stx	$12                     ; 0x2012 <exhaustZeroes+0x40>
    2db8: a6 1d        	ldx	$1d                     ; 0x201d <exhaustZeroes+0x4b>
    2dba: 86 13        	stx	$13                     ; 0x2013 <exhaustZeroes+0x41>
    2dbc: a9 0a        	lda	#$a
    2dbe: aa           	tax
    2dbf: 48           	pha
    2dc0: 8a           	txa
    2dc1: a0 1b        	ldy	#$1b
    2dc3: 91 10        	sta	($10),y                 ; 0x2010 <exhaustZeroes+0x3e>
    2dc5: a4 21        	ldy	$21                     ; 0x2021 <exhaustZeroes+0x4f>
    2dc7: 68           	pla
    2dc8: 92 12        	sta	($12)                   ; 0x2012 <exhaustZeroes+0x40>
    2dca: a9 00        	lda	#$0
    2dcc: 09 01        	ora	#$1
    2dce: aa           	tax
    2dcf: a5 2e        	lda	$2e                     ; 0x202e <exhaustZeroes+0x5c>
    2dd1: 91 12        	sta	($12),y                 ; 0x2012 <exhaustZeroes+0x40>
    2dd3: e6 12        	inc	$12                     ; 0x2012 <exhaustZeroes+0x40>
    2dd5: d0 02        	bne	$2dd9 <printf+0xae7>
    2dd7: e6 13        	inc	$13                     ; 0x2013 <exhaustZeroes+0x41>
    2dd9: 8a           	txa
    2dda: 5a           	phy
    2ddb: a0 10        	ldy	#$10
    2ddd: 91 10        	sta	($10),y                 ; 0x2010 <exhaustZeroes+0x3e>
    2ddf: 7a           	ply
    2de0: 91 12        	sta	($12),y                 ; 0x2012 <exhaustZeroes+0x40>
    2de2: a0 1a        	ldy	#$1a
    2de4: b1 10        	lda	($10),y                 ; 0x2010 <exhaustZeroes+0x3e>
    2de6: 85 18        	sta	$18                     ; 0x2018 <exhaustZeroes+0x46>
    2de8: 92 2a        	sta	($2a)                   ; 0x202a <exhaustZeroes+0x58>
    2dea: 18           	clc
    2deb: a5 10        	lda	$10                     ; 0x2010 <exhaustZeroes+0x3e>
    2ded: 69 1e        	adc	#$1e
    2def: 85 24        	sta	$24                     ; 0x2024 <exhaustZeroes+0x52>
    2df1: a5 11        	lda	$11                     ; 0x2011 <exhaustZeroes+0x3f>
    2df3: 69 00        	adc	#$0
    2df5: 85 25        	sta	$25                     ; 0x2025 <exhaustZeroes+0x53>
    2df7: 18           	clc
    2df8: a5 24        	lda	$24                     ; 0x2024 <exhaustZeroes+0x52>
    2dfa: 69 11        	adc	#$11
    2dfc: 85 26        	sta	$26                     ; 0x2026 <exhaustZeroes+0x54>
    2dfe: a5 25        	lda	$25                     ; 0x2025 <exhaustZeroes+0x53>
    2e00: 69 00        	adc	#$0
    2e02: 48           	pha
    2e03: a5 24        	lda	$24                     ; 0x2024 <exhaustZeroes+0x52>
    2e05: 88           	dey
    2e06: 91 10        	sta	($10),y                 ; 0x2010 <exhaustZeroes+0x3e>
    2e08: a5 25        	lda	$25                     ; 0x2025 <exhaustZeroes+0x53>
    2e0a: 88           	dey
    2e0b: 91 10        	sta	($10),y                 ; 0x2010 <exhaustZeroes+0x3e>
    2e0d: 68           	pla
    2e0e: 85 27        	sta	$27                     ; 0x2027 <exhaustZeroes+0x55>
    2e10: a0 11        	ldy	#$11
    2e12: b1 24        	lda	($24),y                 ; 0x2024 <exhaustZeroes+0x52>
    2e14: 85 2f        	sta	$2f                     ; 0x202f <exhaustZeroes+0x5d>
    2e16: a0 01        	ldy	#$1
    2e18: b1 26        	lda	($26),y                 ; 0x2026 <exhaustZeroes+0x54>
    2e1a: 85 29        	sta	$29                     ; 0x2029 <exhaustZeroes+0x57>
    2e1c: a6 2f        	ldx	$2f                     ; 0x202f <exhaustZeroes+0x5d>
    2e1e: 86 14        	stx	$14                     ; 0x2014 <exhaustZeroes+0x42>
    2e20: 85 15        	sta	$15                     ; 0x2015 <exhaustZeroes+0x43>
    2e22: a0 0c        	ldy	#$c
    2e24: b1 10        	lda	($10),y                 ; 0x2010 <exhaustZeroes+0x3e>
    2e26: 85 12        	sta	$12                     ; 0x2012 <exhaustZeroes+0x40>
    2e28: c8           	iny
    2e29: b1 10        	lda	($10),y                 ; 0x2010 <exhaustZeroes+0x3e>
    2e2b: 85 13        	sta	$13                     ; 0x2013 <exhaustZeroes+0x41>
    2e2d: a2 00        	ldx	#$0
    2e2f: a4 18        	ldy	$18                     ; 0x2018 <exhaustZeroes+0x46>
    2e31: 84 28        	sty	$28                     ; 0x2028 <exhaustZeroes+0x56>
    2e33: a5 18        	lda	$18                     ; 0x2018 <exhaustZeroes+0x46>
    2e35: 20 c1 41     	jsr	$41c1 <memcpy>
    2e38: 18           	clc
    2e39: a5 2f        	lda	$2f                     ; 0x202f <exhaustZeroes+0x5d>
    2e3b: 48           	pha
    2e3c: a0 11        	ldy	#$11
    2e3e: b1 10        	lda	($10),y                 ; 0x2010 <exhaustZeroes+0x3e>
    2e40: 85 12        	sta	$12                     ; 0x2012 <exhaustZeroes+0x40>
    2e42: 68           	pla
    2e43: 65 12        	adc	$12                     ; 0x2012 <exhaustZeroes+0x40>
    2e45: 85 12        	sta	$12                     ; 0x2012 <exhaustZeroes+0x40>
    2e47: a5 29        	lda	$29                     ; 0x2029 <exhaustZeroes+0x57>
    2e49: 69 00        	adc	#$0
    2e4b: aa           	tax
    2e4c: a5 12        	lda	$12                     ; 0x2012 <exhaustZeroes+0x40>
    2e4e: 91 24        	sta	($24),y                 ; 0x2024 <exhaustZeroes+0x52>
    2e50: a0 01        	ldy	#$1
    2e52: 8a           	txa
    2e53: 91 26        	sta	($26),y                 ; 0x2026 <exhaustZeroes+0x54>
    2e55: a0 10        	ldy	#$10
    2e57: b1 10        	lda	($10),y                 ; 0x2010 <exhaustZeroes+0x3e>
    2e59: 29 01        	and	#$1
    2e5b: b8           	clv
    2e5c: f0 03        	beq	$2e61 <printf+0xb6f>
    2e5e: 4c e1 2e     	jmp	$2ee1 <printf+0xbef>
    2e61: a4 28        	ldy	$28                     ; 0x2028 <exhaustZeroes+0x56>
    2e63: b1 2a        	lda	($2a),y                 ; 0x202a <exhaustZeroes+0x58>
    2e65: 48           	pha
    2e66: 5a           	phy
    2e67: a0 0c        	ldy	#$c
    2e69: b1 10        	lda	($10),y                 ; 0x2010 <exhaustZeroes+0x3e>
    2e6b: 85 14        	sta	$14                     ; 0x2014 <exhaustZeroes+0x42>
    2e6d: c8           	iny
    2e6e: b1 10        	lda	($10),y                 ; 0x2010 <exhaustZeroes+0x3e>
    2e70: 85 15        	sta	$15                     ; 0x2015 <exhaustZeroes+0x43>
    2e72: a0 16        	ldy	#$16
    2e74: b1 10        	lda	($10),y                 ; 0x2010 <exhaustZeroes+0x3e>
    2e76: 85 18        	sta	$18                     ; 0x2018 <exhaustZeroes+0x46>
    2e78: c8           	iny
    2e79: b1 10        	lda	($10),y                 ; 0x2010 <exhaustZeroes+0x3e>
    2e7b: 85 19        	sta	$19                     ; 0x2019 <exhaustZeroes+0x47>
    2e7d: a0 14        	ldy	#$14
    2e7f: b1 10        	lda	($10),y                 ; 0x2010 <exhaustZeroes+0x3e>
    2e81: 85 16        	sta	$16                     ; 0x2016 <exhaustZeroes+0x44>
    2e83: c8           	iny
    2e84: b1 10        	lda	($10),y                 ; 0x2010 <exhaustZeroes+0x3e>
    2e86: 85 17        	sta	$17                     ; 0x2017 <exhaustZeroes+0x45>
    2e88: a0 12        	ldy	#$12
    2e8a: b1 10        	lda	($10),y                 ; 0x2010 <exhaustZeroes+0x3e>
    2e8c: 85 27        	sta	$27                     ; 0x2027 <exhaustZeroes+0x55>
    2e8e: c8           	iny
    2e8f: b1 10        	lda	($10),y                 ; 0x2010 <exhaustZeroes+0x3e>
    2e91: 85 25        	sta	$25                     ; 0x2025 <exhaustZeroes+0x53>
    2e93: a0 0e        	ldy	#$e
    2e95: b1 10        	lda	($10),y                 ; 0x2010 <exhaustZeroes+0x3e>
    2e97: 85 1a        	sta	$1a                     ; 0x201a <exhaustZeroes+0x48>
    2e99: c8           	iny
    2e9a: b1 10        	lda	($10),y                 ; 0x2010 <exhaustZeroes+0x3e>
    2e9c: 7a           	ply
    2e9d: 85 1b        	sta	$1b                     ; 0x201b <exhaustZeroes+0x49>
    2e9f: 68           	pla
    2ea0: 30 03        	bmi	$2ea5 <printf+0xbb3>
    2ea2: 4c 0f 2f     	jmp	$2f0f <printf+0xc1d>
    2ea5: a0 00        	ldy	#$0
    2ea7: 64 12        	stz	$12                     ; 0x2012 <exhaustZeroes+0x40>
    2ea9: a9 00        	lda	#$0
    2eab: 38           	sec
    2eac: f1 14        	sbc	($14),y                 ; 0x2014 <exhaustZeroes+0x42>
    2eae: a2 00        	ldx	#$0
    2eb0: b0 02        	bcs	$2eb4 <printf+0xbc2>
    2eb2: a2 01        	ldx	#$1
    2eb4: 38           	sec
    2eb5: e5 12        	sbc	$12                     ; 0x2012 <exhaustZeroes+0x40>
    2eb7: 85 13        	sta	$13                     ; 0x2013 <exhaustZeroes+0x41>
    2eb9: 64 12        	stz	$12                     ; 0x2012 <exhaustZeroes+0x40>
    2ebb: b0 04        	bcs	$2ec1 <printf+0xbcf>
    2ebd: a9 01        	lda	#$1
    2ebf: 85 12        	sta	$12                     ; 0x2012 <exhaustZeroes+0x40>
    2ec1: 8a           	txa
    2ec2: 05 12        	ora	$12                     ; 0x2012 <exhaustZeroes+0x40>
    2ec4: 85 12        	sta	$12                     ; 0x2012 <exhaustZeroes+0x40>
    2ec6: a5 13        	lda	$13                     ; 0x2013 <exhaustZeroes+0x41>
    2ec8: 91 14        	sta	($14),y                 ; 0x2014 <exhaustZeroes+0x42>
    2eca: c8           	iny
    2ecb: 84 13        	sty	$13                     ; 0x2013 <exhaustZeroes+0x41>
    2ecd: 5a           	phy
    2ece: a0 1a        	ldy	#$1a
    2ed0: b1 10        	lda	($10),y                 ; 0x2010 <exhaustZeroes+0x3e>
    2ed2: 7a           	ply
    2ed3: c5 13        	cmp	$13                     ; 0x2013 <exhaustZeroes+0x41>
    2ed5: d0 d2        	bne	$2ea9 <printf+0xbb7>
    2ed7: 2c 50 44     	bit	$4450                   ; 0x4450 <__set_v>
    2eda: a0 1a        	ldy	#$1a
    2edc: b1 10        	lda	($10),y                 ; 0x2010 <exhaustZeroes+0x3e>
    2ede: a8           	tay
    2edf: 80 2e        	bra	$2f0f <printf+0xc1d>
    2ee1: a0 16        	ldy	#$16
    2ee3: b1 10        	lda	($10),y                 ; 0x2010 <exhaustZeroes+0x3e>
    2ee5: 85 18        	sta	$18                     ; 0x2018 <exhaustZeroes+0x46>
    2ee7: c8           	iny
    2ee8: b1 10        	lda	($10),y                 ; 0x2010 <exhaustZeroes+0x3e>
    2eea: 85 19        	sta	$19                     ; 0x2019 <exhaustZeroes+0x47>
    2eec: a0 14        	ldy	#$14
    2eee: b1 10        	lda	($10),y                 ; 0x2010 <exhaustZeroes+0x3e>
    2ef0: 85 16        	sta	$16                     ; 0x2016 <exhaustZeroes+0x44>
    2ef2: c8           	iny
    2ef3: b1 10        	lda	($10),y                 ; 0x2010 <exhaustZeroes+0x3e>
    2ef5: 85 17        	sta	$17                     ; 0x2017 <exhaustZeroes+0x45>
    2ef7: a0 12        	ldy	#$12
    2ef9: b1 10        	lda	($10),y                 ; 0x2010 <exhaustZeroes+0x3e>
    2efb: 85 27        	sta	$27                     ; 0x2027 <exhaustZeroes+0x55>
    2efd: c8           	iny
    2efe: b1 10        	lda	($10),y                 ; 0x2010 <exhaustZeroes+0x3e>
    2f00: 85 25        	sta	$25                     ; 0x2025 <exhaustZeroes+0x53>
    2f02: a0 0e        	ldy	#$e
    2f04: b1 10        	lda	($10),y                 ; 0x2010 <exhaustZeroes+0x3e>
    2f06: 85 1a        	sta	$1a                     ; 0x201a <exhaustZeroes+0x48>
    2f08: c8           	iny
    2f09: b1 10        	lda	($10),y                 ; 0x2010 <exhaustZeroes+0x3e>
    2f0b: 85 1b        	sta	$1b                     ; 0x201b <exhaustZeroes+0x49>
    2f0d: a4 28        	ldy	$28                     ; 0x2028 <exhaustZeroes+0x56>
    2f0f: a2 01        	ldx	#$1
    2f11: 70 02        	bvs	$2f15 <printf+0xc23>
    2f13: a2 00        	ldx	#$0
    2f15: 86 1c        	stx	$1c                     ; 0x201c <exhaustZeroes+0x4a>
    2f17: 5a           	phy
    2f18: a5 16        	lda	$16                     ; 0x2016 <exhaustZeroes+0x44>
    2f1a: a0 14        	ldy	#$14
    2f1c: 91 10        	sta	($10),y                 ; 0x2010 <exhaustZeroes+0x3e>
    2f1e: a5 17        	lda	$17                     ; 0x2017 <exhaustZeroes+0x45>
    2f20: c8           	iny
    2f21: 91 10        	sta	($10),y                 ; 0x2010 <exhaustZeroes+0x3e>
    2f23: 7a           	ply
    2f24: 98           	tya
    2f25: 0a           	asl
    2f26: 0a           	asl
    2f27: 0a           	asl
    2f28: 85 12        	sta	$12                     ; 0x2012 <exhaustZeroes+0x40>
    2f2a: 64 24        	stz	$24                     ; 0x2024 <exhaustZeroes+0x52>
    2f2c: a9 00        	lda	#$0
    2f2e: 4c ec 2f     	jmp	$2fec <printf+0xcfa>
    2f31: a4 13        	ldy	$13                     ; 0x2013 <exhaustZeroes+0x41>
    2f33: 91 2c        	sta	($2c),y                 ; 0x202c <exhaustZeroes+0x5a>
    2f35: a4 16        	ldy	$16                     ; 0x2016 <exhaustZeroes+0x44>
    2f37: c4 13        	cpy	$13                     ; 0x2013 <exhaustZeroes+0x41>
    2f39: f0 37        	beq	$2f72 <printf+0xc80>
    2f3b: e6 13        	inc	$13                     ; 0x2013 <exhaustZeroes+0x41>
    2f3d: a4 13        	ldy	$13                     ; 0x2013 <exhaustZeroes+0x41>
    2f3f: b1 2c        	lda	($2c),y                 ; 0x202c <exhaustZeroes+0x5a>
    2f41: 0a           	asl
    2f42: e0 00        	cpx	#$0
    2f44: f0 02        	beq	$2f48 <printf+0xc56>
    2f46: 09 01        	ora	#$1
    2f48: 48           	pha
    2f49: a0 1b        	ldy	#$1b
    2f4b: b1 10        	lda	($10),y                 ; 0x2010 <exhaustZeroes+0x3e>
    2f4d: a8           	tay
    2f4e: 68           	pla
    2f4f: 84 14        	sty	$14                     ; 0x2014 <exhaustZeroes+0x42>
    2f51: c5 14        	cmp	$14                     ; 0x2014 <exhaustZeroes+0x42>
    2f53: a2 01        	ldx	#$1
    2f55: b0 02        	bcs	$2f59 <printf+0xc67>
    2f57: a2 00        	ldx	#$0
    2f59: 90 d6        	bcc	$2f31 <printf+0xc3f>
    2f5b: 84 14        	sty	$14                     ; 0x2014 <exhaustZeroes+0x42>
    2f5d: 38           	sec
    2f5e: e5 14        	sbc	$14                     ; 0x2014 <exhaustZeroes+0x42>
    2f60: a4 13        	ldy	$13                     ; 0x2013 <exhaustZeroes+0x41>
    2f62: 91 2c        	sta	($2c),y                 ; 0x202c <exhaustZeroes+0x5a>
    2f64: a4 16        	ldy	$16                     ; 0x2016 <exhaustZeroes+0x44>
    2f66: c4 13        	cpy	$13                     ; 0x2013 <exhaustZeroes+0x41>
    2f68: d0 d1        	bne	$2f3b <printf+0xc49>
    2f6a: a4 24        	ldy	$24                     ; 0x2024 <exhaustZeroes+0x52>
    2f6c: e6 24        	inc	$24                     ; 0x2024 <exhaustZeroes+0x52>
    2f6e: a9 01        	lda	#$1
    2f70: 91 2c        	sta	($2c),y                 ; 0x202c <exhaustZeroes+0x5a>
    2f72: a0 1a        	ldy	#$1a
    2f74: b1 10        	lda	($10),y                 ; 0x2010 <exhaustZeroes+0x3e>
    2f76: a8           	tay
    2f77: b1 2a        	lda	($2a),y                 ; 0x202a <exhaustZeroes+0x58>
    2f79: 30 14        	bmi	$2f8f <printf+0xc9d>
    2f7b: a4 24        	ldy	$24                     ; 0x2024 <exhaustZeroes+0x52>
    2f7d: 80 40        	bra	$2fbf <printf+0xccd>
    2f7f: 85 1d        	sta	$1d                     ; 0x201d <exhaustZeroes+0x4b>
    2f81: a0 1a        	ldy	#$1a
    2f83: b1 10        	lda	($10),y                 ; 0x2010 <exhaustZeroes+0x3e>
    2f85: a8           	tay
    2f86: b1 2a        	lda	($2a),y                 ; 0x202a <exhaustZeroes+0x58>
    2f88: a0 00        	ldy	#$0
    2f8a: aa           	tax
    2f8b: 30 29        	bmi	$2fb6 <printf+0xcc4>
    2f8d: 80 30        	bra	$2fbf <printf+0xccd>
    2f8f: a0 00        	ldy	#$0
    2f91: a5 24        	lda	$24                     ; 0x2024 <exhaustZeroes+0x52>
    2f93: f0 21        	beq	$2fb6 <printf+0xcc4>
    2f95: 5a           	phy
    2f96: a0 1b        	ldy	#$1b
    2f98: b1 10        	lda	($10),y                 ; 0x2010 <exhaustZeroes+0x3e>
    2f9a: 7a           	ply
    2f9b: 85 15        	sta	$15                     ; 0x2015 <exhaustZeroes+0x43>
    2f9d: b1 2c        	lda	($2c),y                 ; 0x202c <exhaustZeroes+0x5a>
    2f9f: 1a           	inc
    2fa0: 91 2c        	sta	($2c),y                 ; 0x202c <exhaustZeroes+0x5a>
    2fa2: c5 15        	cmp	$15                     ; 0x2015 <exhaustZeroes+0x43>
    2fa4: 90 d5        	bcc	$2f7b <printf+0xc89>
    2fa6: 38           	sec
    2fa7: e5 15        	sbc	$15                     ; 0x2015 <exhaustZeroes+0x43>
    2fa9: 91 2c        	sta	($2c),y                 ; 0x202c <exhaustZeroes+0x5a>
    2fab: c8           	iny
    2fac: 84 13        	sty	$13                     ; 0x2013 <exhaustZeroes+0x41>
    2fae: a6 24        	ldx	$24                     ; 0x2024 <exhaustZeroes+0x52>
    2fb0: e4 13        	cpx	$13                     ; 0x2013 <exhaustZeroes+0x41>
    2fb2: d0 e9        	bne	$2f9d <printf+0xcab>
    2fb4: a4 24        	ldy	$24                     ; 0x2024 <exhaustZeroes+0x52>
    2fb6: 5a           	phy
    2fb7: fa           	plx
    2fb8: e8           	inx
    2fb9: a9 01        	lda	#$1
    2fbb: 91 2c        	sta	($2c),y                 ; 0x202c <exhaustZeroes+0x5a>
    2fbd: da           	phx
    2fbe: 7a           	ply
    2fbf: 84 24        	sty	$24                     ; 0x2024 <exhaustZeroes+0x52>
    2fc1: a0 01        	ldy	#$1
    2fc3: 64 13        	stz	$13                     ; 0x2013 <exhaustZeroes+0x41>
    2fc5: 5a           	phy
    2fc6: a0 1a        	ldy	#$1a
    2fc8: b1 10        	lda	($10),y                 ; 0x2010 <exhaustZeroes+0x3e>
    2fca: 7a           	ply
    2fcb: 85 14        	sta	$14                     ; 0x2014 <exhaustZeroes+0x42>
    2fcd: b1 2a        	lda	($2a),y                 ; 0x202a <exhaustZeroes+0x58>
    2fcf: 0a           	asl
    2fd0: 64 15        	stz	$15                     ; 0x2015 <exhaustZeroes+0x43>
    2fd2: 26 15        	rol	$15                     ; 0x2015 <exhaustZeroes+0x43>
    2fd4: 05 13        	ora	$13                     ; 0x2013 <exhaustZeroes+0x41>
    2fd6: 91 2a        	sta	($2a),y                 ; 0x202a <exhaustZeroes+0x58>
    2fd8: c8           	iny
    2fd9: c6 14        	dec	$14                     ; 0x2014 <exhaustZeroes+0x42>
    2fdb: a6 15        	ldx	$15                     ; 0x2015 <exhaustZeroes+0x43>
    2fdd: 86 13        	stx	$13                     ; 0x2013 <exhaustZeroes+0x41>
    2fdf: a5 14        	lda	$14                     ; 0x2014 <exhaustZeroes+0x42>
    2fe1: d0 ea        	bne	$2fcd <printf+0xcdb>
    2fe3: a5 1d        	lda	$1d                     ; 0x201d <exhaustZeroes+0x4b>
    2fe5: 1a           	inc
    2fe6: c5 12        	cmp	$12                     ; 0x2012 <exhaustZeroes+0x40>
    2fe8: a0 01        	ldy	#$1
    2fea: b0 15        	bcs	$3001 <printf+0xd0f>
    2fec: a6 24        	ldx	$24                     ; 0x2024 <exhaustZeroes+0x52>
    2fee: d0 03        	bne	$2ff3 <printf+0xd01>
    2ff0: 4c 7f 2f     	jmp	$2f7f <printf+0xc8d>
    2ff3: a6 24        	ldx	$24                     ; 0x2024 <exhaustZeroes+0x52>
    2ff5: 85 1d        	sta	$1d                     ; 0x201d <exhaustZeroes+0x4b>
    2ff7: ca           	dex
    2ff8: 86 16        	stx	$16                     ; 0x2016 <exhaustZeroes+0x44>
    2ffa: a2 00        	ldx	#$0
    2ffc: 64 13        	stz	$13                     ; 0x2013 <exhaustZeroes+0x41>
    2ffe: 4c 3d 2f     	jmp	$2f3d <printf+0xc4b>
    3001: a5 2e        	lda	$2e                     ; 0x202e <exhaustZeroes+0x5c>
    3003: a6 25        	ldx	$25                     ; 0x2025 <exhaustZeroes+0x53>
    3005: 10 06        	bpl	$300d <printf+0xd1b>
    3007: a2 01        	ldx	#$1
    3009: 64 25        	stz	$25                     ; 0x2025 <exhaustZeroes+0x53>
    300b: 86 27        	stx	$27                     ; 0x2027 <exhaustZeroes+0x55>
    300d: 29 04        	and	#$4
    300f: f0 31        	beq	$3042 <printf+0xd50>
    3011: 5a           	phy
    3012: a0 1b        	ldy	#$1b
    3014: b1 10        	lda	($10),y                 ; 0x2010 <exhaustZeroes+0x3e>
    3016: 7a           	ply
    3017: aa           	tax
    3018: c9 10        	cmp	#$10
    301a: f0 14        	beq	$3030 <printf+0xd3e>
    301c: e0 08        	cpx	#$8
    301e: d0 22        	bne	$3042 <printf+0xd50>
    3020: a2 00        	ldx	#$0
    3022: e4 25        	cpx	$25                     ; 0x2025 <exhaustZeroes+0x53>
    3024: f0 03        	beq	$3029 <printf+0xd37>
    3026: 4c ac 30     	jmp	$30ac <printf+0xdba>
    3029: a6 24        	ldx	$24                     ; 0x2024 <exhaustZeroes+0x52>
    302b: e4 27        	cpx	$27                     ; 0x2027 <exhaustZeroes+0x55>
    302d: 4c ae 30     	jmp	$30ae <printf+0xdbc>
    3030: a5 24        	lda	$24                     ; 0x2024 <exhaustZeroes+0x52>
    3032: f0 0e        	beq	$3042 <printf+0xd50>
    3034: a5 2e        	lda	$2e                     ; 0x202e <exhaustZeroes+0x5c>
    3036: 29 80        	and	#$80
    3038: d0 03        	bne	$303d <printf+0xd4b>
    303a: 4c c7 30     	jmp	$30c7 <printf+0xdd5>
    303d: a2 78        	ldx	#$78
    303f: 4c c9 30     	jmp	$30c9 <printf+0xdd7>
    3042: a5 2e        	lda	$2e                     ; 0x202e <exhaustZeroes+0x5c>
    3044: a2 2d        	ldx	#$2d
    3046: 48           	pha
    3047: 8a           	txa
    3048: 5a           	phy
    3049: a0 13        	ldy	#$13
    304b: 91 10        	sta	($10),y                 ; 0x2010 <exhaustZeroes+0x3e>
    304d: 7a           	ply
    304e: 68           	pla
    304f: a6 1c        	ldx	$1c                     ; 0x201c <exhaustZeroes+0x4a>
    3051: d0 29        	bne	$307c <printf+0xd8a>
    3053: 85 12        	sta	$12                     ; 0x2012 <exhaustZeroes+0x40>
    3055: 29 02        	and	#$2
    3057: a2 2b        	ldx	#$2b
    3059: 48           	pha
    305a: 8a           	txa
    305b: 5a           	phy
    305c: a0 13        	ldy	#$13
    305e: 91 10        	sta	($10),y                 ; 0x2010 <exhaustZeroes+0x3e>
    3060: 7a           	ply
    3061: 68           	pla
    3062: d0 18        	bne	$307c <printf+0xd8a>
    3064: a5 12        	lda	$12                     ; 0x2012 <exhaustZeroes+0x40>
    3066: 29 08        	and	#$8
    3068: d0 37        	bne	$30a1 <printf+0xdaf>
    306a: 38           	sec
    306b: 84 21        	sty	$21                     ; 0x2021 <exhaustZeroes+0x4f>
    306d: a9 01        	lda	#$1
    306f: a0 1a        	ldy	#$1a
    3071: 91 10        	sta	($10),y                 ; 0x2010 <exhaustZeroes+0x3e>
    3073: 3a           	dec
    3074: 18           	clc
    3075: 48           	pha
    3076: a9 00        	lda	#$0
    3078: c8           	iny
    3079: 4c e8 30     	jmp	$30e8 <printf+0xdf6>
    307c: 18           	clc
    307d: 5a           	phy
    307e: a9 00        	lda	#$0
    3080: a0 1a        	ldy	#$1a
    3082: 91 10        	sta	($10),y                 ; 0x2010 <exhaustZeroes+0x3e>
    3084: c8           	iny
    3085: 91 10        	sta	($10),y                 ; 0x2010 <exhaustZeroes+0x3e>
    3087: 7a           	ply
    3088: 98           	tya
    3089: 4c ed 30     	jmp	$30ed <printf+0xdfb>
    308c: 85 14        	sta	$14                     ; 0x2014 <exhaustZeroes+0x42>
    308e: a9 04        	lda	#$4
    3090: 80 04        	bra	$3096 <printf+0xda4>
    3092: 85 14        	sta	$14                     ; 0x2014 <exhaustZeroes+0x42>
    3094: a9 02        	lda	#$2
    3096: 5a           	phy
    3097: a0 1a        	ldy	#$1a
    3099: 91 10        	sta	($10),y                 ; 0x2010 <exhaustZeroes+0x3e>
    309b: 7a           	ply
    309c: a5 14        	lda	$14                     ; 0x2014 <exhaustZeroes+0x42>
    309e: 4c b3 2a     	jmp	$2ab3 <printf+0x7c1>
    30a1: a2 20        	ldx	#$20
    30a3: 5a           	phy
    30a4: 8a           	txa
    30a5: a0 13        	ldy	#$13
    30a7: 91 10        	sta	($10),y                 ; 0x2010 <exhaustZeroes+0x3e>
    30a9: 18           	clc
    30aa: 80 d2        	bra	$307e <printf+0xd8c>
    30ac: e4 25        	cpx	$25                     ; 0x2025 <exhaustZeroes+0x53>
    30ae: a5 2e        	lda	$2e                     ; 0x202e <exhaustZeroes+0x5c>
    30b0: b0 03        	bcs	$30b5 <printf+0xdc3>
    30b2: 4c 44 30     	jmp	$3044 <printf+0xd52>
    30b5: a6 24        	ldx	$24                     ; 0x2024 <exhaustZeroes+0x52>
    30b7: 64 29        	stz	$29                     ; 0x2029 <exhaustZeroes+0x57>
    30b9: e8           	inx
    30ba: d0 02        	bne	$30be <printf+0xdcc>
    30bc: e6 29        	inc	$29                     ; 0x2029 <exhaustZeroes+0x57>
    30be: 86 27        	stx	$27                     ; 0x2027 <exhaustZeroes+0x55>
    30c0: a6 29        	ldx	$29                     ; 0x2029 <exhaustZeroes+0x57>
    30c2: 86 25        	stx	$25                     ; 0x2025 <exhaustZeroes+0x53>
    30c4: 4c 44 30     	jmp	$3044 <printf+0xd52>
    30c7: a2 58        	ldx	#$58
    30c9: 8a           	txa
    30ca: 5a           	phy
    30cb: a0 12        	ldy	#$12
    30cd: 91 10        	sta	($10),y                 ; 0x2010 <exhaustZeroes+0x3e>
    30cf: 7a           	ply
    30d0: 38           	sec
    30d1: 84 21        	sty	$21                     ; 0x2021 <exhaustZeroes+0x4f>
    30d3: a9 01        	lda	#$1
    30d5: a0 1b        	ldy	#$1b
    30d7: 91 10        	sta	($10),y                 ; 0x2010 <exhaustZeroes+0x3e>
    30d9: a2 30        	ldx	#$30
    30db: 8a           	txa
    30dc: a0 13        	ldy	#$13
    30de: 91 10        	sta	($10),y                 ; 0x2010 <exhaustZeroes+0x3e>
    30e0: a9 02        	lda	#$2
    30e2: 18           	clc
    30e3: 48           	pha
    30e4: a9 00        	lda	#$0
    30e6: a0 1a        	ldy	#$1a
    30e8: 91 10        	sta	($10),y                 ; 0x2010 <exhaustZeroes+0x3e>
    30ea: a4 21        	ldy	$21                     ; 0x2021 <exhaustZeroes+0x4f>
    30ec: 68           	pla
    30ed: a6 25        	ldx	$25                     ; 0x2025 <exhaustZeroes+0x53>
    30ef: d0 06        	bne	$30f7 <printf+0xe05>
    30f1: a6 27        	ldx	$27                     ; 0x2027 <exhaustZeroes+0x55>
    30f3: e4 24        	cpx	$24                     ; 0x2024 <exhaustZeroes+0x52>
    30f5: 80 04        	bra	$30fb <printf+0xe09>
    30f7: a6 25        	ldx	$25                     ; 0x2025 <exhaustZeroes+0x53>
    30f9: e0 00        	cpx	#$0
    30fb: a6 27        	ldx	$27                     ; 0x2027 <exhaustZeroes+0x55>
    30fd: 86 12        	stx	$12                     ; 0x2012 <exhaustZeroes+0x40>
    30ff: a6 25        	ldx	$25                     ; 0x2025 <exhaustZeroes+0x53>
    3101: 86 13        	stx	$13                     ; 0x2013 <exhaustZeroes+0x41>
    3103: b0 06        	bcs	$310b <printf+0xe19>
    3105: a6 24        	ldx	$24                     ; 0x2024 <exhaustZeroes+0x52>
    3107: 86 12        	stx	$12                     ; 0x2012 <exhaustZeroes+0x40>
    3109: 64 13        	stz	$13                     ; 0x2013 <exhaustZeroes+0x41>
    310b: 48           	pha
    310c: 5a           	phy
    310d: a5 18        	lda	$18                     ; 0x2018 <exhaustZeroes+0x46>
    310f: a0 16        	ldy	#$16
    3111: 91 10        	sta	($10),y                 ; 0x2010 <exhaustZeroes+0x3e>
    3113: a5 19        	lda	$19                     ; 0x2019 <exhaustZeroes+0x47>
    3115: c8           	iny
    3116: 91 10        	sta	($10),y                 ; 0x2010 <exhaustZeroes+0x3e>
    3118: 7a           	ply
    3119: 68           	pla
    311a: aa           	tax
    311b: 18           	clc
    311c: 65 12        	adc	$12                     ; 0x2012 <exhaustZeroes+0x40>
    311e: 85 16        	sta	$16                     ; 0x2016 <exhaustZeroes+0x44>
    3120: 85 14        	sta	$14                     ; 0x2014 <exhaustZeroes+0x42>
    3122: a5 13        	lda	$13                     ; 0x2013 <exhaustZeroes+0x41>
    3124: 69 00        	adc	#$0
    3126: 85 15        	sta	$15                     ; 0x2015 <exhaustZeroes+0x43>
    3128: c5 1b        	cmp	$1b                     ; 0x201b <exhaustZeroes+0x49>
    312a: d0 06        	bne	$3132 <printf+0xe40>
    312c: a5 16        	lda	$16                     ; 0x2016 <exhaustZeroes+0x44>
    312e: c5 1a        	cmp	$1a                     ; 0x201a <exhaustZeroes+0x48>
    3130: 80 02        	bra	$3134 <printf+0xe42>
    3132: c5 1b        	cmp	$1b                     ; 0x201b <exhaustZeroes+0x49>
    3134: 64 29        	stz	$29                     ; 0x2029 <exhaustZeroes+0x57>
    3136: 64 26        	stz	$26                     ; 0x2026 <exhaustZeroes+0x54>
    3138: 90 03        	bcc	$313d <printf+0xe4b>
    313a: 4c aa 32     	jmp	$32aa <printf+0xfb8>
    313d: a5 2e        	lda	$2e                     ; 0x202e <exhaustZeroes+0x5c>
    313f: 29 11        	and	#$11
    3141: f0 10        	beq	$3153 <printf+0xe61>
    3143: a5 1a        	lda	$1a                     ; 0x201a <exhaustZeroes+0x48>
    3145: 38           	sec
    3146: e5 14        	sbc	$14                     ; 0x2014 <exhaustZeroes+0x42>
    3148: 85 29        	sta	$29                     ; 0x2029 <exhaustZeroes+0x57>
    314a: a5 1b        	lda	$1b                     ; 0x201b <exhaustZeroes+0x49>
    314c: e5 15        	sbc	$15                     ; 0x2015 <exhaustZeroes+0x43>
    314e: 85 26        	sta	$26                     ; 0x2026 <exhaustZeroes+0x54>
    3150: 4c aa 32     	jmp	$32aa <printf+0xfb8>
    3153: a4 27        	ldy	$27                     ; 0x2027 <exhaustZeroes+0x55>
    3155: 84 28        	sty	$28                     ; 0x2028 <exhaustZeroes+0x56>
    3157: 18           	clc
    3158: a5 10        	lda	$10                     ; 0x2010 <exhaustZeroes+0x3e>
    315a: 69 1e        	adc	#$1e
    315c: 48           	pha
    315d: a5 11        	lda	$11                     ; 0x2011 <exhaustZeroes+0x3f>
    315f: 69 00        	adc	#$0
    3161: a8           	tay
    3162: 68           	pla
    3163: 85 14        	sta	$14                     ; 0x2014 <exhaustZeroes+0x42>
    3165: 84 15        	sty	$15                     ; 0x2015 <exhaustZeroes+0x43>
    3167: 18           	clc
    3168: 69 05        	adc	#$5
    316a: 85 16        	sta	$16                     ; 0x2016 <exhaustZeroes+0x44>
    316c: 98           	tya
    316d: 69 00        	adc	#$0
    316f: 85 17        	sta	$17                     ; 0x2017 <exhaustZeroes+0x45>
    3171: a0 05        	ldy	#$5
    3173: b1 14        	lda	($14),y                 ; 0x2014 <exhaustZeroes+0x42>
    3175: 85 18        	sta	$18                     ; 0x2018 <exhaustZeroes+0x46>
    3177: a0 01        	ldy	#$1
    3179: 38           	sec
    317a: 8a           	txa
    317b: e5 1a        	sbc	$1a                     ; 0x201a <exhaustZeroes+0x48>
    317d: 85 14        	sta	$14                     ; 0x2014 <exhaustZeroes+0x42>
    317f: a9 00        	lda	#$0
    3181: e5 1b        	sbc	$1b                     ; 0x201b <exhaustZeroes+0x49>
    3183: aa           	tax
    3184: 18           	clc
    3185: a5 14        	lda	$14                     ; 0x2014 <exhaustZeroes+0x42>
    3187: 65 12        	adc	$12                     ; 0x2012 <exhaustZeroes+0x40>
    3189: 85 26        	sta	$26                     ; 0x2026 <exhaustZeroes+0x54>
    318b: 8a           	txa
    318c: 65 13        	adc	$13                     ; 0x2013 <exhaustZeroes+0x41>
    318e: 85 27        	sta	$27                     ; 0x2027 <exhaustZeroes+0x55>
    3190: b1 16        	lda	($16),y                 ; 0x2016 <exhaustZeroes+0x44>
    3192: 85 16        	sta	$16                     ; 0x2016 <exhaustZeroes+0x44>
    3194: a2 00        	ldx	#$0
    3196: 86 2e        	stx	$2e                     ; 0x202e <exhaustZeroes+0x5c>
    3198: a2 00        	ldx	#$0
    319a: 86 2f        	stx	$2f                     ; 0x202f <exhaustZeroes+0x5d>
    319c: 4c 63 32     	jmp	$3263 <printf+0xf71>
    319f: d1 12        	cmp	($12),y                 ; 0x2012 <exhaustZeroes+0x40>
    31a1: a6 27        	ldx	$27                     ; 0x2027 <exhaustZeroes+0x55>
    31a3: 90 03        	bcc	$31a8 <printf+0xeb6>
    31a5: 4c 1b 32     	jmp	$321b <printf+0xf29>
    31a8: a0 01        	ldy	#$1
    31aa: 18           	clc
    31ab: a5 10        	lda	$10                     ; 0x2010 <exhaustZeroes+0x3e>
    31ad: 69 1e        	adc	#$1e
    31af: 48           	pha
    31b0: a5 11        	lda	$11                     ; 0x2011 <exhaustZeroes+0x3f>
    31b2: 69 00        	adc	#$0
    31b4: 85 12        	sta	$12                     ; 0x2012 <exhaustZeroes+0x40>
    31b6: 68           	pla
    31b7: 18           	clc
    31b8: aa           	tax
    31b9: 69 0f        	adc	#$f
    31bb: 85 13        	sta	$13                     ; 0x2013 <exhaustZeroes+0x41>
    31bd: 5a           	phy
    31be: a4 12        	ldy	$12                     ; 0x2012 <exhaustZeroes+0x40>
    31c0: 84 14        	sty	$14                     ; 0x2014 <exhaustZeroes+0x42>
    31c2: a5 12        	lda	$12                     ; 0x2012 <exhaustZeroes+0x40>
    31c4: 69 00        	adc	#$0
    31c6: a4 13        	ldy	$13                     ; 0x2013 <exhaustZeroes+0x41>
    31c8: 84 12        	sty	$12                     ; 0x2012 <exhaustZeroes+0x40>
    31ca: 7a           	ply
    31cb: 85 13        	sta	$13                     ; 0x2013 <exhaustZeroes+0x41>
    31cd: b1 12        	lda	($12),y                 ; 0x2012 <exhaustZeroes+0x40>
    31cf: c5 2f        	cmp	$2f                     ; 0x202f <exhaustZeroes+0x5d>
    31d1: d0 3f        	bne	$3212 <printf+0xf20>
    31d3: 86 12        	stx	$12                     ; 0x2012 <exhaustZeroes+0x40>
    31d5: a6 14        	ldx	$14                     ; 0x2014 <exhaustZeroes+0x42>
    31d7: 86 13        	stx	$13                     ; 0x2013 <exhaustZeroes+0x41>
    31d9: a0 0f        	ldy	#$f
    31db: b1 12        	lda	($12),y                 ; 0x2012 <exhaustZeroes+0x40>
    31dd: c5 2e        	cmp	$2e                     ; 0x202e <exhaustZeroes+0x5c>
    31df: d0 31        	bne	$3212 <printf+0xf20>
    31e1: 18           	clc
    31e2: a5 10        	lda	$10                     ; 0x2010 <exhaustZeroes+0x3e>
    31e4: 69 1e        	adc	#$1e
    31e6: 48           	pha
    31e7: a5 11        	lda	$11                     ; 0x2011 <exhaustZeroes+0x3f>
    31e9: 69 00        	adc	#$0
    31eb: aa           	tax
    31ec: 68           	pla
    31ed: 85 12        	sta	$12                     ; 0x2012 <exhaustZeroes+0x40>
    31ef: 86 13        	stx	$13                     ; 0x2013 <exhaustZeroes+0x41>
    31f1: 18           	clc
    31f2: 69 09        	adc	#$9
    31f4: 85 14        	sta	$14                     ; 0x2014 <exhaustZeroes+0x42>
    31f6: 8a           	txa
    31f7: 69 00        	adc	#$0
    31f9: 85 15        	sta	$15                     ; 0x2015 <exhaustZeroes+0x43>
    31fb: 18           	clc
    31fc: a0 09        	ldy	#$9
    31fe: a5 18        	lda	$18                     ; 0x2018 <exhaustZeroes+0x46>
    3200: 71 12        	adc	($12),y                 ; 0x2012 <exhaustZeroes+0x40>
    3202: 85 12        	sta	$12                     ; 0x2012 <exhaustZeroes+0x40>
    3204: a0 01        	ldy	#$1
    3206: a5 16        	lda	$16                     ; 0x2016 <exhaustZeroes+0x44>
    3208: 71 14        	adc	($14),y                 ; 0x2014 <exhaustZeroes+0x42>
    320a: 85 13        	sta	$13                     ; 0x2013 <exhaustZeroes+0x41>
    320c: a9 20        	lda	#$20
    320e: 92 12        	sta	($12)                   ; 0x2012 <exhaustZeroes+0x40>
    3210: 80 07        	bra	$3219 <printf+0xf27>
    3212: a2 00        	ldx	#$0
    3214: a9 20        	lda	#$20
    3216: 20 03 3d     	jsr	$3d03 <putchar>
    3219: a6 27        	ldx	$27                     ; 0x2027 <exhaustZeroes+0x55>
    321b: 18           	clc
    321c: a5 10        	lda	$10                     ; 0x2010 <exhaustZeroes+0x3e>
    321e: 69 1e        	adc	#$1e
    3220: 48           	pha
    3221: a5 11        	lda	$11                     ; 0x2011 <exhaustZeroes+0x3f>
    3223: 69 00        	adc	#$0
    3225: a8           	tay
    3226: 68           	pla
    3227: 85 12        	sta	$12                     ; 0x2012 <exhaustZeroes+0x40>
    3229: 84 13        	sty	$13                     ; 0x2013 <exhaustZeroes+0x41>
    322b: 18           	clc
    322c: 69 05        	adc	#$5
    322e: 85 14        	sta	$14                     ; 0x2014 <exhaustZeroes+0x42>
    3230: 98           	tya
    3231: 69 00        	adc	#$0
    3233: 85 15        	sta	$15                     ; 0x2015 <exhaustZeroes+0x43>
    3235: a0 05        	ldy	#$5
    3237: b1 12        	lda	($12),y                 ; 0x2012 <exhaustZeroes+0x40>
    3239: 85 17        	sta	$17                     ; 0x2017 <exhaustZeroes+0x45>
    323b: a0 01        	ldy	#$1
    323d: b1 14        	lda	($14),y                 ; 0x2014 <exhaustZeroes+0x42>
    323f: 85 16        	sta	$16                     ; 0x2016 <exhaustZeroes+0x44>
    3241: a4 17        	ldy	$17                     ; 0x2017 <exhaustZeroes+0x45>
    3243: c8           	iny
    3244: d0 02        	bne	$3248 <printf+0xf56>
    3246: e6 16        	inc	$16                     ; 0x2016 <exhaustZeroes+0x44>
    3248: 84 18        	sty	$18                     ; 0x2018 <exhaustZeroes+0x46>
    324a: 98           	tya
    324b: a0 05        	ldy	#$5
    324d: 91 12        	sta	($12),y                 ; 0x2012 <exhaustZeroes+0x40>
    324f: a0 01        	ldy	#$1
    3251: a5 16        	lda	$16                     ; 0x2016 <exhaustZeroes+0x44>
    3253: 91 14        	sta	($14),y                 ; 0x2014 <exhaustZeroes+0x42>
    3255: e6 26        	inc	$26                     ; 0x2026 <exhaustZeroes+0x54>
    3257: d0 01        	bne	$325a <printf+0xf68>
    3259: e8           	inx
    325a: 86 27        	stx	$27                     ; 0x2027 <exhaustZeroes+0x55>
    325c: 8a           	txa
    325d: d0 04        	bne	$3263 <printf+0xf71>
    325f: a5 26        	lda	$26                     ; 0x2026 <exhaustZeroes+0x54>
    3261: f0 3f        	beq	$32a2 <printf+0xfb0>
    3263: 18           	clc
    3264: a5 10        	lda	$10                     ; 0x2010 <exhaustZeroes+0x3e>
    3266: 69 1e        	adc	#$1e
    3268: 48           	pha
    3269: a5 11        	lda	$11                     ; 0x2011 <exhaustZeroes+0x3f>
    326b: 69 00        	adc	#$0
    326d: 85 12        	sta	$12                     ; 0x2012 <exhaustZeroes+0x40>
    326f: 68           	pla
    3270: aa           	tax
    3271: 18           	clc
    3272: 69 03        	adc	#$3
    3274: 85 13        	sta	$13                     ; 0x2013 <exhaustZeroes+0x41>
    3276: 5a           	phy
    3277: a4 12        	ldy	$12                     ; 0x2012 <exhaustZeroes+0x40>
    3279: 84 14        	sty	$14                     ; 0x2014 <exhaustZeroes+0x42>
    327b: a5 12        	lda	$12                     ; 0x2012 <exhaustZeroes+0x40>
    327d: 69 00        	adc	#$0
    327f: a4 13        	ldy	$13                     ; 0x2013 <exhaustZeroes+0x41>
    3281: 84 12        	sty	$12                     ; 0x2012 <exhaustZeroes+0x40>
    3283: 7a           	ply
    3284: 85 13        	sta	$13                     ; 0x2013 <exhaustZeroes+0x41>
    3286: a5 16        	lda	$16                     ; 0x2016 <exhaustZeroes+0x44>
    3288: d1 12        	cmp	($12),y                 ; 0x2012 <exhaustZeroes+0x40>
    328a: f0 03        	beq	$328f <printf+0xf9d>
    328c: 4c 9f 31     	jmp	$319f <printf+0xead>
    328f: 86 12        	stx	$12                     ; 0x2012 <exhaustZeroes+0x40>
    3291: a6 14        	ldx	$14                     ; 0x2014 <exhaustZeroes+0x42>
    3293: 86 13        	stx	$13                     ; 0x2013 <exhaustZeroes+0x41>
    3295: a0 03        	ldy	#$3
    3297: b1 12        	lda	($12),y                 ; 0x2012 <exhaustZeroes+0x40>
    3299: 85 12        	sta	$12                     ; 0x2012 <exhaustZeroes+0x40>
    329b: a6 18        	ldx	$18                     ; 0x2018 <exhaustZeroes+0x46>
    329d: e4 12        	cpx	$12                     ; 0x2012 <exhaustZeroes+0x40>
    329f: 4c a1 31     	jmp	$31a1 <printf+0xeaf>
    32a2: 64 29        	stz	$29                     ; 0x2029 <exhaustZeroes+0x57>
    32a4: 64 26        	stz	$26                     ; 0x2026 <exhaustZeroes+0x54>
    32a6: a6 28        	ldx	$28                     ; 0x2028 <exhaustZeroes+0x56>
    32a8: 86 27        	stx	$27                     ; 0x2027 <exhaustZeroes+0x55>
    32aa: a2 00        	ldx	#$0
    32ac: 86 2e        	stx	$2e                     ; 0x202e <exhaustZeroes+0x5c>
    32ae: a2 00        	ldx	#$0
    32b0: 86 2f        	stx	$2f                     ; 0x202f <exhaustZeroes+0x5d>
    32b2: 5a           	phy
    32b3: a0 1a        	ldy	#$1a
    32b5: b1 10        	lda	($10),y                 ; 0x2010 <exhaustZeroes+0x3e>
    32b7: 7a           	ply
    32b8: 85 12        	sta	$12                     ; 0x2012 <exhaustZeroes+0x40>
    32ba: a5 12        	lda	$12                     ; 0x2012 <exhaustZeroes+0x40>
    32bc: f0 03        	beq	$32c1 <printf+0xfcf>
    32be: 4c d7 33     	jmp	$33d7 <printf+0x10e5>
    32c1: 18           	clc
    32c2: a5 10        	lda	$10                     ; 0x2010 <exhaustZeroes+0x3e>
    32c4: 69 1e        	adc	#$1e
    32c6: aa           	tax
    32c7: a0 01        	ldy	#$1
    32c9: b0 02        	bcs	$32cd <printf+0xfdb>
    32cb: a0 00        	ldy	#$0
    32cd: 84 14        	sty	$14                     ; 0x2014 <exhaustZeroes+0x42>
    32cf: 18           	clc
    32d0: a5 10        	lda	$10                     ; 0x2010 <exhaustZeroes+0x3e>
    32d2: 69 1e        	adc	#$1e
    32d4: 48           	pha
    32d5: a5 11        	lda	$11                     ; 0x2011 <exhaustZeroes+0x3f>
    32d7: 69 00        	adc	#$0
    32d9: a8           	tay
    32da: 68           	pla
    32db: 85 12        	sta	$12                     ; 0x2012 <exhaustZeroes+0x40>
    32dd: 84 13        	sty	$13                     ; 0x2013 <exhaustZeroes+0x41>
    32df: 18           	clc
    32e0: 69 05        	adc	#$5
    32e2: 85 16        	sta	$16                     ; 0x2016 <exhaustZeroes+0x44>
    32e4: 98           	tya
    32e5: 69 00        	adc	#$0
    32e7: a4 14        	ldy	$14                     ; 0x2014 <exhaustZeroes+0x42>
    32e9: c0 01        	cpy	#$1
    32eb: 48           	pha
    32ec: a5 11        	lda	$11                     ; 0x2011 <exhaustZeroes+0x3f>
    32ee: 69 00        	adc	#$0
    32f0: 85 14        	sta	$14                     ; 0x2014 <exhaustZeroes+0x42>
    32f2: 68           	pla
    32f3: 85 17        	sta	$17                     ; 0x2017 <exhaustZeroes+0x45>
    32f5: 18           	clc
    32f6: 8a           	txa
    32f7: 69 03        	adc	#$3
    32f9: aa           	tax
    32fa: a5 14        	lda	$14                     ; 0x2014 <exhaustZeroes+0x42>
    32fc: 69 00        	adc	#$0
    32fe: 85 15        	sta	$15                     ; 0x2015 <exhaustZeroes+0x43>
    3300: a0 05        	ldy	#$5
    3302: b1 12        	lda	($12),y                 ; 0x2012 <exhaustZeroes+0x40>
    3304: 85 18        	sta	$18                     ; 0x2018 <exhaustZeroes+0x46>
    3306: a0 01        	ldy	#$1
    3308: 86 14        	stx	$14                     ; 0x2014 <exhaustZeroes+0x42>
    330a: b1 16        	lda	($16),y                 ; 0x2016 <exhaustZeroes+0x44>
    330c: d1 14        	cmp	($14),y                 ; 0x2014 <exhaustZeroes+0x42>
    330e: d0 11        	bne	$3321 <printf+0x102f>
    3310: 85 17        	sta	$17                     ; 0x2017 <exhaustZeroes+0x45>
    3312: a0 03        	ldy	#$3
    3314: a6 18        	ldx	$18                     ; 0x2018 <exhaustZeroes+0x46>
    3316: b1 12        	lda	($12),y                 ; 0x2012 <exhaustZeroes+0x40>
    3318: 85 12        	sta	$12                     ; 0x2012 <exhaustZeroes+0x40>
    331a: e4 12        	cpx	$12                     ; 0x2012 <exhaustZeroes+0x40>
    331c: 90 0e        	bcc	$332c <printf+0x103a>
    331e: 4c a3 33     	jmp	$33a3 <printf+0x10b1>
    3321: 85 17        	sta	$17                     ; 0x2017 <exhaustZeroes+0x45>
    3323: d1 14        	cmp	($14),y                 ; 0x2014 <exhaustZeroes+0x42>
    3325: a6 18        	ldx	$18                     ; 0x2018 <exhaustZeroes+0x46>
    3327: 90 03        	bcc	$332c <printf+0x103a>
    3329: 4c a3 33     	jmp	$33a3 <printf+0x10b1>
    332c: a0 01        	ldy	#$1
    332e: 86 16        	stx	$16                     ; 0x2016 <exhaustZeroes+0x44>
    3330: 18           	clc
    3331: a5 10        	lda	$10                     ; 0x2010 <exhaustZeroes+0x3e>
    3333: 69 1e        	adc	#$1e
    3335: 48           	pha
    3336: a5 11        	lda	$11                     ; 0x2011 <exhaustZeroes+0x3f>
    3338: 69 00        	adc	#$0
    333a: 85 12        	sta	$12                     ; 0x2012 <exhaustZeroes+0x40>
    333c: 68           	pla
    333d: 18           	clc
    333e: aa           	tax
    333f: 69 0f        	adc	#$f
    3341: 85 13        	sta	$13                     ; 0x2013 <exhaustZeroes+0x41>
    3343: 5a           	phy
    3344: a4 12        	ldy	$12                     ; 0x2012 <exhaustZeroes+0x40>
    3346: 84 14        	sty	$14                     ; 0x2014 <exhaustZeroes+0x42>
    3348: a5 12        	lda	$12                     ; 0x2012 <exhaustZeroes+0x40>
    334a: 69 00        	adc	#$0
    334c: a4 13        	ldy	$13                     ; 0x2013 <exhaustZeroes+0x41>
    334e: 84 12        	sty	$12                     ; 0x2012 <exhaustZeroes+0x40>
    3350: 7a           	ply
    3351: 85 13        	sta	$13                     ; 0x2013 <exhaustZeroes+0x41>
    3353: b1 12        	lda	($12),y                 ; 0x2012 <exhaustZeroes+0x40>
    3355: c5 2f        	cmp	$2f                     ; 0x202f <exhaustZeroes+0x5d>
    3357: d0 41        	bne	$339a <printf+0x10a8>
    3359: 86 12        	stx	$12                     ; 0x2012 <exhaustZeroes+0x40>
    335b: a6 14        	ldx	$14                     ; 0x2014 <exhaustZeroes+0x42>
    335d: 86 13        	stx	$13                     ; 0x2013 <exhaustZeroes+0x41>
    335f: a0 0f        	ldy	#$f
    3361: b1 12        	lda	($12),y                 ; 0x2012 <exhaustZeroes+0x40>
    3363: c5 2e        	cmp	$2e                     ; 0x202e <exhaustZeroes+0x5c>
    3365: d0 33        	bne	$339a <printf+0x10a8>
    3367: 18           	clc
    3368: a5 10        	lda	$10                     ; 0x2010 <exhaustZeroes+0x3e>
    336a: 69 1e        	adc	#$1e
    336c: 48           	pha
    336d: a5 11        	lda	$11                     ; 0x2011 <exhaustZeroes+0x3f>
    336f: 69 00        	adc	#$0
    3371: aa           	tax
    3372: 68           	pla
    3373: 85 12        	sta	$12                     ; 0x2012 <exhaustZeroes+0x40>
    3375: 86 13        	stx	$13                     ; 0x2013 <exhaustZeroes+0x41>
    3377: 18           	clc
    3378: 69 09        	adc	#$9
    337a: 85 14        	sta	$14                     ; 0x2014 <exhaustZeroes+0x42>
    337c: 8a           	txa
    337d: 69 00        	adc	#$0
    337f: 85 15        	sta	$15                     ; 0x2015 <exhaustZeroes+0x43>
    3381: 18           	clc
    3382: a0 09        	ldy	#$9
    3384: a5 16        	lda	$16                     ; 0x2016 <exhaustZeroes+0x44>
    3386: 71 12        	adc	($12),y                 ; 0x2012 <exhaustZeroes+0x40>
    3388: 85 12        	sta	$12                     ; 0x2012 <exhaustZeroes+0x40>
    338a: a0 01        	ldy	#$1
    338c: a5 17        	lda	$17                     ; 0x2017 <exhaustZeroes+0x45>
    338e: 71 14        	adc	($14),y                 ; 0x2014 <exhaustZeroes+0x42>
    3390: 85 13        	sta	$13                     ; 0x2013 <exhaustZeroes+0x41>
    3392: a0 13        	ldy	#$13
    3394: b1 10        	lda	($10),y                 ; 0x2010 <exhaustZeroes+0x3e>
    3396: 92 12        	sta	($12)                   ; 0x2012 <exhaustZeroes+0x40>
    3398: 80 09        	bra	$33a3 <printf+0x10b1>
    339a: a2 00        	ldx	#$0
    339c: a0 13        	ldy	#$13
    339e: b1 10        	lda	($10),y                 ; 0x2010 <exhaustZeroes+0x3e>
    33a0: 20 03 3d     	jsr	$3d03 <putchar>
    33a3: 18           	clc
    33a4: a5 10        	lda	$10                     ; 0x2010 <exhaustZeroes+0x3e>
    33a6: 69 1e        	adc	#$1e
    33a8: 48           	pha
    33a9: a5 11        	lda	$11                     ; 0x2011 <exhaustZeroes+0x3f>
    33ab: 69 00        	adc	#$0
    33ad: aa           	tax
    33ae: 68           	pla
    33af: 85 12        	sta	$12                     ; 0x2012 <exhaustZeroes+0x40>
    33b1: 86 13        	stx	$13                     ; 0x2013 <exhaustZeroes+0x41>
    33b3: 18           	clc
    33b4: 69 05        	adc	#$5
    33b6: 85 14        	sta	$14                     ; 0x2014 <exhaustZeroes+0x42>
    33b8: 8a           	txa
    33b9: 69 00        	adc	#$0
    33bb: 85 15        	sta	$15                     ; 0x2015 <exhaustZeroes+0x43>
    33bd: a0 05        	ldy	#$5
    33bf: b1 12        	lda	($12),y                 ; 0x2012 <exhaustZeroes+0x40>
    33c1: 85 16        	sta	$16                     ; 0x2016 <exhaustZeroes+0x44>
    33c3: a0 01        	ldy	#$1
    33c5: b1 14        	lda	($14),y                 ; 0x2014 <exhaustZeroes+0x42>
    33c7: aa           	tax
    33c8: a5 16        	lda	$16                     ; 0x2016 <exhaustZeroes+0x44>
    33ca: 1a           	inc
    33cb: d0 01        	bne	$33ce <printf+0x10dc>
    33cd: e8           	inx
    33ce: a0 05        	ldy	#$5
    33d0: 91 12        	sta	($12),y                 ; 0x2012 <exhaustZeroes+0x40>
    33d2: a0 01        	ldy	#$1
    33d4: 8a           	txa
    33d5: 91 14        	sta	($14),y                 ; 0x2014 <exhaustZeroes+0x42>
    33d7: 5a           	phy
    33d8: a0 1b        	ldy	#$1b
    33da: b1 10        	lda	($10),y                 ; 0x2010 <exhaustZeroes+0x3e>
    33dc: 7a           	ply
    33dd: 85 12        	sta	$12                     ; 0x2012 <exhaustZeroes+0x40>
    33df: a5 12        	lda	$12                     ; 0x2012 <exhaustZeroes+0x40>
    33e1: d0 03        	bne	$33e6 <printf+0x10f4>
    33e3: 4c fc 34     	jmp	$34fc <printf+0x120a>
    33e6: 18           	clc
    33e7: a5 10        	lda	$10                     ; 0x2010 <exhaustZeroes+0x3e>
    33e9: 69 1e        	adc	#$1e
    33eb: aa           	tax
    33ec: a0 01        	ldy	#$1
    33ee: b0 02        	bcs	$33f2 <printf+0x1100>
    33f0: a0 00        	ldy	#$0
    33f2: 84 14        	sty	$14                     ; 0x2014 <exhaustZeroes+0x42>
    33f4: 18           	clc
    33f5: a5 10        	lda	$10                     ; 0x2010 <exhaustZeroes+0x3e>
    33f7: 69 1e        	adc	#$1e
    33f9: 48           	pha
    33fa: a5 11        	lda	$11                     ; 0x2011 <exhaustZeroes+0x3f>
    33fc: 69 00        	adc	#$0
    33fe: a8           	tay
    33ff: 68           	pla
    3400: 85 12        	sta	$12                     ; 0x2012 <exhaustZeroes+0x40>
    3402: 84 13        	sty	$13                     ; 0x2013 <exhaustZeroes+0x41>
    3404: 18           	clc
    3405: 69 05        	adc	#$5
    3407: 85 16        	sta	$16                     ; 0x2016 <exhaustZeroes+0x44>
    3409: 98           	tya
    340a: 69 00        	adc	#$0
    340c: a4 14        	ldy	$14                     ; 0x2014 <exhaustZeroes+0x42>
    340e: c0 01        	cpy	#$1
    3410: 48           	pha
    3411: a5 11        	lda	$11                     ; 0x2011 <exhaustZeroes+0x3f>
    3413: 69 00        	adc	#$0
    3415: 85 14        	sta	$14                     ; 0x2014 <exhaustZeroes+0x42>
    3417: 68           	pla
    3418: 85 17        	sta	$17                     ; 0x2017 <exhaustZeroes+0x45>
    341a: 18           	clc
    341b: 8a           	txa
    341c: 69 03        	adc	#$3
    341e: aa           	tax
    341f: a5 14        	lda	$14                     ; 0x2014 <exhaustZeroes+0x42>
    3421: 69 00        	adc	#$0
    3423: 85 15        	sta	$15                     ; 0x2015 <exhaustZeroes+0x43>
    3425: a0 05        	ldy	#$5
    3427: b1 12        	lda	($12),y                 ; 0x2012 <exhaustZeroes+0x40>
    3429: 85 18        	sta	$18                     ; 0x2018 <exhaustZeroes+0x46>
    342b: a0 01        	ldy	#$1
    342d: 86 14        	stx	$14                     ; 0x2014 <exhaustZeroes+0x42>
    342f: b1 16        	lda	($16),y                 ; 0x2016 <exhaustZeroes+0x44>
    3431: d1 14        	cmp	($14),y                 ; 0x2014 <exhaustZeroes+0x42>
    3433: d0 11        	bne	$3446 <printf+0x1154>
    3435: 85 17        	sta	$17                     ; 0x2017 <exhaustZeroes+0x45>
    3437: a0 03        	ldy	#$3
    3439: a6 18        	ldx	$18                     ; 0x2018 <exhaustZeroes+0x46>
    343b: b1 12        	lda	($12),y                 ; 0x2012 <exhaustZeroes+0x40>
    343d: 85 12        	sta	$12                     ; 0x2012 <exhaustZeroes+0x40>
    343f: e4 12        	cpx	$12                     ; 0x2012 <exhaustZeroes+0x40>
    3441: 90 0e        	bcc	$3451 <printf+0x115f>
    3443: 4c c8 34     	jmp	$34c8 <printf+0x11d6>
    3446: 85 17        	sta	$17                     ; 0x2017 <exhaustZeroes+0x45>
    3448: d1 14        	cmp	($14),y                 ; 0x2014 <exhaustZeroes+0x42>
    344a: a6 18        	ldx	$18                     ; 0x2018 <exhaustZeroes+0x46>
    344c: 90 03        	bcc	$3451 <printf+0x115f>
    344e: 4c c8 34     	jmp	$34c8 <printf+0x11d6>
    3451: a0 01        	ldy	#$1
    3453: 86 16        	stx	$16                     ; 0x2016 <exhaustZeroes+0x44>
    3455: 18           	clc
    3456: a5 10        	lda	$10                     ; 0x2010 <exhaustZeroes+0x3e>
    3458: 69 1e        	adc	#$1e
    345a: 48           	pha
    345b: a5 11        	lda	$11                     ; 0x2011 <exhaustZeroes+0x3f>
    345d: 69 00        	adc	#$0
    345f: 85 12        	sta	$12                     ; 0x2012 <exhaustZeroes+0x40>
    3461: 68           	pla
    3462: 18           	clc
    3463: aa           	tax
    3464: 69 0f        	adc	#$f
    3466: 85 13        	sta	$13                     ; 0x2013 <exhaustZeroes+0x41>
    3468: 5a           	phy
    3469: a4 12        	ldy	$12                     ; 0x2012 <exhaustZeroes+0x40>
    346b: 84 14        	sty	$14                     ; 0x2014 <exhaustZeroes+0x42>
    346d: a5 12        	lda	$12                     ; 0x2012 <exhaustZeroes+0x40>
    346f: 69 00        	adc	#$0
    3471: a4 13        	ldy	$13                     ; 0x2013 <exhaustZeroes+0x41>
    3473: 84 12        	sty	$12                     ; 0x2012 <exhaustZeroes+0x40>
    3475: 7a           	ply
    3476: 85 13        	sta	$13                     ; 0x2013 <exhaustZeroes+0x41>
    3478: b1 12        	lda	($12),y                 ; 0x2012 <exhaustZeroes+0x40>
    347a: c5 2f        	cmp	$2f                     ; 0x202f <exhaustZeroes+0x5d>
    347c: d0 41        	bne	$34bf <printf+0x11cd>
    347e: 86 12        	stx	$12                     ; 0x2012 <exhaustZeroes+0x40>
    3480: a6 14        	ldx	$14                     ; 0x2014 <exhaustZeroes+0x42>
    3482: 86 13        	stx	$13                     ; 0x2013 <exhaustZeroes+0x41>
    3484: a0 0f        	ldy	#$f
    3486: b1 12        	lda	($12),y                 ; 0x2012 <exhaustZeroes+0x40>
    3488: c5 2e        	cmp	$2e                     ; 0x202e <exhaustZeroes+0x5c>
    348a: d0 33        	bne	$34bf <printf+0x11cd>
    348c: 18           	clc
    348d: a5 10        	lda	$10                     ; 0x2010 <exhaustZeroes+0x3e>
    348f: 69 1e        	adc	#$1e
    3491: 48           	pha
    3492: a5 11        	lda	$11                     ; 0x2011 <exhaustZeroes+0x3f>
    3494: 69 00        	adc	#$0
    3496: aa           	tax
    3497: 68           	pla
    3498: 85 12        	sta	$12                     ; 0x2012 <exhaustZeroes+0x40>
    349a: 86 13        	stx	$13                     ; 0x2013 <exhaustZeroes+0x41>
    349c: 18           	clc
    349d: 69 09        	adc	#$9
    349f: 85 14        	sta	$14                     ; 0x2014 <exhaustZeroes+0x42>
    34a1: 8a           	txa
    34a2: 69 00        	adc	#$0
    34a4: 85 15        	sta	$15                     ; 0x2015 <exhaustZeroes+0x43>
    34a6: 18           	clc
    34a7: a0 09        	ldy	#$9
    34a9: a5 16        	lda	$16                     ; 0x2016 <exhaustZeroes+0x44>
    34ab: 71 12        	adc	($12),y                 ; 0x2012 <exhaustZeroes+0x40>
    34ad: 85 12        	sta	$12                     ; 0x2012 <exhaustZeroes+0x40>
    34af: a0 01        	ldy	#$1
    34b1: a5 17        	lda	$17                     ; 0x2017 <exhaustZeroes+0x45>
    34b3: 71 14        	adc	($14),y                 ; 0x2014 <exhaustZeroes+0x42>
    34b5: 85 13        	sta	$13                     ; 0x2013 <exhaustZeroes+0x41>
    34b7: a0 12        	ldy	#$12
    34b9: b1 10        	lda	($10),y                 ; 0x2010 <exhaustZeroes+0x3e>
    34bb: 92 12        	sta	($12)                   ; 0x2012 <exhaustZeroes+0x40>
    34bd: 80 09        	bra	$34c8 <printf+0x11d6>
    34bf: a2 00        	ldx	#$0
    34c1: a0 12        	ldy	#$12
    34c3: b1 10        	lda	($10),y                 ; 0x2010 <exhaustZeroes+0x3e>
    34c5: 20 03 3d     	jsr	$3d03 <putchar>
    34c8: 18           	clc
    34c9: a5 10        	lda	$10                     ; 0x2010 <exhaustZeroes+0x3e>
    34cb: 69 1e        	adc	#$1e
    34cd: 48           	pha
    34ce: a5 11        	lda	$11                     ; 0x2011 <exhaustZeroes+0x3f>
    34d0: 69 00        	adc	#$0
    34d2: aa           	tax
    34d3: 68           	pla
    34d4: 85 12        	sta	$12                     ; 0x2012 <exhaustZeroes+0x40>
    34d6: 86 13        	stx	$13                     ; 0x2013 <exhaustZeroes+0x41>
    34d8: 18           	clc
    34d9: 69 05        	adc	#$5
    34db: 85 14        	sta	$14                     ; 0x2014 <exhaustZeroes+0x42>
    34dd: 8a           	txa
    34de: 69 00        	adc	#$0
    34e0: 85 15        	sta	$15                     ; 0x2015 <exhaustZeroes+0x43>
    34e2: a0 05        	ldy	#$5
    34e4: b1 12        	lda	($12),y                 ; 0x2012 <exhaustZeroes+0x40>
    34e6: 85 16        	sta	$16                     ; 0x2016 <exhaustZeroes+0x44>
    34e8: a0 01        	ldy	#$1
    34ea: b1 14        	lda	($14),y                 ; 0x2014 <exhaustZeroes+0x42>
    34ec: aa           	tax
    34ed: a5 16        	lda	$16                     ; 0x2016 <exhaustZeroes+0x44>
    34ef: 1a           	inc
    34f0: d0 01        	bne	$34f3 <printf+0x1201>
    34f2: e8           	inx
    34f3: a0 05        	ldy	#$5
    34f5: 91 12        	sta	($12),y                 ; 0x2012 <exhaustZeroes+0x40>
    34f7: a0 01        	ldy	#$1
    34f9: 8a           	txa
    34fa: 91 14        	sta	($14),y                 ; 0x2014 <exhaustZeroes+0x42>
    34fc: 5a           	phy
    34fd: a0 19        	ldy	#$19
    34ff: b1 10        	lda	($10),y                 ; 0x2010 <exhaustZeroes+0x3e>
    3501: 85 12        	sta	$12                     ; 0x2012 <exhaustZeroes+0x40>
    3503: 88           	dey
    3504: b1 10        	lda	($10),y                 ; 0x2010 <exhaustZeroes+0x3e>
    3506: 7a           	ply
    3507: 85 13        	sta	$13                     ; 0x2013 <exhaustZeroes+0x41>
    3509: b1 12        	lda	($12),y                 ; 0x2012 <exhaustZeroes+0x40>
    350b: aa           	tax
    350c: 29 10        	and	#$10
    350e: d0 03        	bne	$3513 <printf+0x1221>
    3510: 4c 60 36     	jmp	$3660 <printf+0x136e>
    3513: 8a           	txa
    3514: 29 01        	and	#$1
    3516: f0 03        	beq	$351b <printf+0x1229>
    3518: 4c 60 36     	jmp	$3660 <printf+0x136e>
    351b: a6 29        	ldx	$29                     ; 0x2029 <exhaustZeroes+0x57>
    351d: a5 26        	lda	$26                     ; 0x2026 <exhaustZeroes+0x54>
    351f: d0 06        	bne	$3527 <printf+0x1235>
    3521: 8a           	txa
    3522: d0 03        	bne	$3527 <printf+0x1235>
    3524: 4c 5c 36     	jmp	$365c <printf+0x136a>
    3527: 18           	clc
    3528: a5 10        	lda	$10                     ; 0x2010 <exhaustZeroes+0x3e>
    352a: 69 1e        	adc	#$1e
    352c: 48           	pha
    352d: a5 11        	lda	$11                     ; 0x2011 <exhaustZeroes+0x3f>
    352f: 69 00        	adc	#$0
    3531: aa           	tax
    3532: 68           	pla
    3533: 85 12        	sta	$12                     ; 0x2012 <exhaustZeroes+0x40>
    3535: 86 13        	stx	$13                     ; 0x2013 <exhaustZeroes+0x41>
    3537: 18           	clc
    3538: 69 05        	adc	#$5
    353a: 85 14        	sta	$14                     ; 0x2014 <exhaustZeroes+0x42>
    353c: 8a           	txa
    353d: 69 00        	adc	#$0
    353f: 85 15        	sta	$15                     ; 0x2015 <exhaustZeroes+0x43>
    3541: a0 05        	ldy	#$5
    3543: b1 12        	lda	($12),y                 ; 0x2012 <exhaustZeroes+0x40>
    3545: 85 16        	sta	$16                     ; 0x2016 <exhaustZeroes+0x44>
    3547: a0 01        	ldy	#$1
    3549: b1 14        	lda	($14),y                 ; 0x2014 <exhaustZeroes+0x42>
    354b: 85 17        	sta	$17                     ; 0x2017 <exhaustZeroes+0x45>
    354d: 4c 1e 36     	jmp	$361e <printf+0x132c>
    3550: d1 12        	cmp	($12),y                 ; 0x2012 <exhaustZeroes+0x40>
    3552: 90 03        	bcc	$3557 <printf+0x1265>
    3554: 4c c8 35     	jmp	$35c8 <printf+0x12d6>
    3557: a0 01        	ldy	#$1
    3559: 18           	clc
    355a: a5 10        	lda	$10                     ; 0x2010 <exhaustZeroes+0x3e>
    355c: 69 1e        	adc	#$1e
    355e: 48           	pha
    355f: a5 11        	lda	$11                     ; 0x2011 <exhaustZeroes+0x3f>
    3561: 69 00        	adc	#$0
    3563: 85 12        	sta	$12                     ; 0x2012 <exhaustZeroes+0x40>
    3565: 68           	pla
    3566: aa           	tax
    3567: 18           	clc
    3568: 69 0f        	adc	#$f
    356a: 85 13        	sta	$13                     ; 0x2013 <exhaustZeroes+0x41>
    356c: 5a           	phy
    356d: a4 12        	ldy	$12                     ; 0x2012 <exhaustZeroes+0x40>
    356f: 84 14        	sty	$14                     ; 0x2014 <exhaustZeroes+0x42>
    3571: a5 12        	lda	$12                     ; 0x2012 <exhaustZeroes+0x40>
    3573: 69 00        	adc	#$0
    3575: a4 13        	ldy	$13                     ; 0x2013 <exhaustZeroes+0x41>
    3577: 84 12        	sty	$12                     ; 0x2012 <exhaustZeroes+0x40>
    3579: 7a           	ply
    357a: 85 13        	sta	$13                     ; 0x2013 <exhaustZeroes+0x41>
    357c: b1 12        	lda	($12),y                 ; 0x2012 <exhaustZeroes+0x40>
    357e: c5 2f        	cmp	$2f                     ; 0x202f <exhaustZeroes+0x5d>
    3580: d0 3f        	bne	$35c1 <printf+0x12cf>
    3582: 86 12        	stx	$12                     ; 0x2012 <exhaustZeroes+0x40>
    3584: a6 14        	ldx	$14                     ; 0x2014 <exhaustZeroes+0x42>
    3586: 86 13        	stx	$13                     ; 0x2013 <exhaustZeroes+0x41>
    3588: a0 0f        	ldy	#$f
    358a: b1 12        	lda	($12),y                 ; 0x2012 <exhaustZeroes+0x40>
    358c: c5 2e        	cmp	$2e                     ; 0x202e <exhaustZeroes+0x5c>
    358e: d0 31        	bne	$35c1 <printf+0x12cf>
    3590: 18           	clc
    3591: a5 10        	lda	$10                     ; 0x2010 <exhaustZeroes+0x3e>
    3593: 69 1e        	adc	#$1e
    3595: 48           	pha
    3596: a5 11        	lda	$11                     ; 0x2011 <exhaustZeroes+0x3f>
    3598: 69 00        	adc	#$0
    359a: aa           	tax
    359b: 68           	pla
    359c: 85 12        	sta	$12                     ; 0x2012 <exhaustZeroes+0x40>
    359e: 86 13        	stx	$13                     ; 0x2013 <exhaustZeroes+0x41>
    35a0: 18           	clc
    35a1: 69 09        	adc	#$9
    35a3: 85 14        	sta	$14                     ; 0x2014 <exhaustZeroes+0x42>
    35a5: 8a           	txa
    35a6: 69 00        	adc	#$0
    35a8: 85 15        	sta	$15                     ; 0x2015 <exhaustZeroes+0x43>
    35aa: 18           	clc
    35ab: a0 09        	ldy	#$9
    35ad: a5 16        	lda	$16                     ; 0x2016 <exhaustZeroes+0x44>
    35af: 71 12        	adc	($12),y                 ; 0x2012 <exhaustZeroes+0x40>
    35b1: 85 12        	sta	$12                     ; 0x2012 <exhaustZeroes+0x40>
    35b3: a0 01        	ldy	#$1
    35b5: a5 17        	lda	$17                     ; 0x2017 <exhaustZeroes+0x45>
    35b7: 71 14        	adc	($14),y                 ; 0x2014 <exhaustZeroes+0x42>
    35b9: 85 13        	sta	$13                     ; 0x2013 <exhaustZeroes+0x41>
    35bb: a9 30        	lda	#$30
    35bd: 92 12        	sta	($12)                   ; 0x2012 <exhaustZeroes+0x40>
    35bf: 80 07        	bra	$35c8 <printf+0x12d6>
    35c1: a2 00        	ldx	#$0
    35c3: a9 30        	lda	#$30
    35c5: 20 03 3d     	jsr	$3d03 <putchar>
    35c8: 18           	clc
    35c9: a5 10        	lda	$10                     ; 0x2010 <exhaustZeroes+0x3e>
    35cb: 69 1e        	adc	#$1e
    35cd: 48           	pha
    35ce: a5 11        	lda	$11                     ; 0x2011 <exhaustZeroes+0x3f>
    35d0: 69 00        	adc	#$0
    35d2: aa           	tax
    35d3: 68           	pla
    35d4: 85 12        	sta	$12                     ; 0x2012 <exhaustZeroes+0x40>
    35d6: 86 13        	stx	$13                     ; 0x2013 <exhaustZeroes+0x41>
    35d8: 18           	clc
    35d9: 69 05        	adc	#$5
    35db: 85 14        	sta	$14                     ; 0x2014 <exhaustZeroes+0x42>
    35dd: 8a           	txa
    35de: 69 00        	adc	#$0
    35e0: 85 15        	sta	$15                     ; 0x2015 <exhaustZeroes+0x43>
    35e2: a0 05        	ldy	#$5
    35e4: b1 12        	lda	($12),y                 ; 0x2012 <exhaustZeroes+0x40>
    35e6: aa           	tax
    35e7: a0 01        	ldy	#$1
    35e9: b1 14        	lda	($14),y                 ; 0x2014 <exhaustZeroes+0x42>
    35eb: e8           	inx
    35ec: d0 01        	bne	$35ef <printf+0x12fd>
    35ee: 1a           	inc
    35ef: 85 17        	sta	$17                     ; 0x2017 <exhaustZeroes+0x45>
    35f1: 86 16        	stx	$16                     ; 0x2016 <exhaustZeroes+0x44>
    35f3: 8a           	txa
    35f4: a0 05        	ldy	#$5
    35f6: 91 12        	sta	($12),y                 ; 0x2012 <exhaustZeroes+0x40>
    35f8: a5 17        	lda	$17                     ; 0x2017 <exhaustZeroes+0x45>
    35fa: a0 01        	ldy	#$1
    35fc: 91 14        	sta	($14),y                 ; 0x2014 <exhaustZeroes+0x42>
    35fe: a6 29        	ldx	$29                     ; 0x2029 <exhaustZeroes+0x57>
    3600: 86 13        	stx	$13                     ; 0x2013 <exhaustZeroes+0x41>
    3602: a6 26        	ldx	$26                     ; 0x2026 <exhaustZeroes+0x54>
    3604: 86 12        	stx	$12                     ; 0x2012 <exhaustZeroes+0x40>
    3606: a2 ff        	ldx	#$ff
    3608: c6 13        	dec	$13                     ; 0x2013 <exhaustZeroes+0x41>
    360a: e4 13        	cpx	$13                     ; 0x2013 <exhaustZeroes+0x41>
    360c: d0 02        	bne	$3610 <printf+0x131e>
    360e: c6 12        	dec	$12                     ; 0x2012 <exhaustZeroes+0x40>
    3610: a6 13        	ldx	$13                     ; 0x2013 <exhaustZeroes+0x41>
    3612: 86 29        	stx	$29                     ; 0x2029 <exhaustZeroes+0x57>
    3614: a6 12        	ldx	$12                     ; 0x2012 <exhaustZeroes+0x40>
    3616: 86 26        	stx	$26                     ; 0x2026 <exhaustZeroes+0x54>
    3618: d0 04        	bne	$361e <printf+0x132c>
    361a: a5 13        	lda	$13                     ; 0x2013 <exhaustZeroes+0x41>
    361c: f0 3e        	beq	$365c <printf+0x136a>
    361e: 18           	clc
    361f: a5 10        	lda	$10                     ; 0x2010 <exhaustZeroes+0x3e>
    3621: 69 1e        	adc	#$1e
    3623: 48           	pha
    3624: a5 11        	lda	$11                     ; 0x2011 <exhaustZeroes+0x3f>
    3626: 69 00        	adc	#$0
    3628: 85 13        	sta	$13                     ; 0x2013 <exhaustZeroes+0x41>
    362a: 68           	pla
    362b: aa           	tax
    362c: 18           	clc
    362d: 69 03        	adc	#$3
    362f: 85 12        	sta	$12                     ; 0x2012 <exhaustZeroes+0x40>
    3631: a5 13        	lda	$13                     ; 0x2013 <exhaustZeroes+0x41>
    3633: 85 14        	sta	$14                     ; 0x2014 <exhaustZeroes+0x42>
    3635: a5 13        	lda	$13                     ; 0x2013 <exhaustZeroes+0x41>
    3637: 69 00        	adc	#$0
    3639: 85 13        	sta	$13                     ; 0x2013 <exhaustZeroes+0x41>
    363b: a5 17        	lda	$17                     ; 0x2017 <exhaustZeroes+0x45>
    363d: d1 12        	cmp	($12),y                 ; 0x2012 <exhaustZeroes+0x40>
    363f: f0 03        	beq	$3644 <printf+0x1352>
    3641: 4c 50 35     	jmp	$3550 <printf+0x125e>
    3644: 86 12        	stx	$12                     ; 0x2012 <exhaustZeroes+0x40>
    3646: a6 14        	ldx	$14                     ; 0x2014 <exhaustZeroes+0x42>
    3648: 86 13        	stx	$13                     ; 0x2013 <exhaustZeroes+0x41>
    364a: a0 03        	ldy	#$3
    364c: b1 12        	lda	($12),y                 ; 0x2012 <exhaustZeroes+0x40>
    364e: 85 12        	sta	$12                     ; 0x2012 <exhaustZeroes+0x40>
    3650: a6 16        	ldx	$16                     ; 0x2016 <exhaustZeroes+0x44>
    3652: e4 12        	cpx	$12                     ; 0x2012 <exhaustZeroes+0x40>
    3654: b0 03        	bcs	$3659 <printf+0x1367>
    3656: 4c 57 35     	jmp	$3557 <printf+0x1265>
    3659: 4c c8 35     	jmp	$35c8 <printf+0x12d6>
    365c: 64 29        	stz	$29                     ; 0x2029 <exhaustZeroes+0x57>
    365e: 64 26        	stz	$26                     ; 0x2026 <exhaustZeroes+0x54>
    3660: a2 00        	ldx	#$0
    3662: e4 25        	cpx	$25                     ; 0x2025 <exhaustZeroes+0x53>
    3664: d0 09        	bne	$366f <printf+0x137d>
    3666: a6 24        	ldx	$24                     ; 0x2024 <exhaustZeroes+0x52>
    3668: e4 27        	cpx	$27                     ; 0x2027 <exhaustZeroes+0x55>
    366a: 90 0a        	bcc	$3676 <printf+0x1384>
    366c: 4c a9 37     	jmp	$37a9 <printf+0x14b7>
    366f: e4 25        	cpx	$25                     ; 0x2025 <exhaustZeroes+0x53>
    3671: 90 03        	bcc	$3676 <printf+0x1384>
    3673: 4c a9 37     	jmp	$37a9 <printf+0x14b7>
    3676: 18           	clc
    3677: a5 10        	lda	$10                     ; 0x2010 <exhaustZeroes+0x3e>
    3679: 69 1e        	adc	#$1e
    367b: 48           	pha
    367c: a5 11        	lda	$11                     ; 0x2011 <exhaustZeroes+0x3f>
    367e: 69 00        	adc	#$0
    3680: aa           	tax
    3681: 68           	pla
    3682: 85 12        	sta	$12                     ; 0x2012 <exhaustZeroes+0x40>
    3684: 86 13        	stx	$13                     ; 0x2013 <exhaustZeroes+0x41>
    3686: 18           	clc
    3687: 69 05        	adc	#$5
    3689: 85 14        	sta	$14                     ; 0x2014 <exhaustZeroes+0x42>
    368b: 8a           	txa
    368c: 69 00        	adc	#$0
    368e: 85 15        	sta	$15                     ; 0x2015 <exhaustZeroes+0x43>
    3690: a0 05        	ldy	#$5
    3692: b1 12        	lda	($12),y                 ; 0x2012 <exhaustZeroes+0x40>
    3694: 85 16        	sta	$16                     ; 0x2016 <exhaustZeroes+0x44>
    3696: a0 01        	ldy	#$1
    3698: b1 14        	lda	($14),y                 ; 0x2014 <exhaustZeroes+0x42>
    369a: 85 17        	sta	$17                     ; 0x2017 <exhaustZeroes+0x45>
    369c: 18           	clc
    369d: a5 10        	lda	$10                     ; 0x2010 <exhaustZeroes+0x3e>
    369f: 69 1e        	adc	#$1e
    36a1: 48           	pha
    36a2: a5 11        	lda	$11                     ; 0x2011 <exhaustZeroes+0x3f>
    36a4: 69 00        	adc	#$0
    36a6: 85 12        	sta	$12                     ; 0x2012 <exhaustZeroes+0x40>
    36a8: 68           	pla
    36a9: 85 14        	sta	$14                     ; 0x2014 <exhaustZeroes+0x42>
    36ab: 18           	clc
    36ac: 69 03        	adc	#$3
    36ae: aa           	tax
    36af: a5 12        	lda	$12                     ; 0x2012 <exhaustZeroes+0x40>
    36b1: 85 15        	sta	$15                     ; 0x2015 <exhaustZeroes+0x43>
    36b3: a5 12        	lda	$12                     ; 0x2012 <exhaustZeroes+0x40>
    36b5: 69 00        	adc	#$0
    36b7: 86 12        	stx	$12                     ; 0x2012 <exhaustZeroes+0x40>
    36b9: a2 ff        	ldx	#$ff
    36bb: c6 27        	dec	$27                     ; 0x2027 <exhaustZeroes+0x55>
    36bd: e4 27        	cpx	$27                     ; 0x2027 <exhaustZeroes+0x55>
    36bf: d0 02        	bne	$36c3 <printf+0x13d1>
    36c1: c6 25        	dec	$25                     ; 0x2025 <exhaustZeroes+0x53>
    36c3: 85 13        	sta	$13                     ; 0x2013 <exhaustZeroes+0x41>
    36c5: a5 17        	lda	$17                     ; 0x2017 <exhaustZeroes+0x45>
    36c7: d1 12        	cmp	($12),y                 ; 0x2012 <exhaustZeroes+0x40>
    36c9: d0 17        	bne	$36e2 <printf+0x13f0>
    36cb: a6 14        	ldx	$14                     ; 0x2014 <exhaustZeroes+0x42>
    36cd: 86 12        	stx	$12                     ; 0x2012 <exhaustZeroes+0x40>
    36cf: a6 15        	ldx	$15                     ; 0x2015 <exhaustZeroes+0x43>
    36d1: 86 13        	stx	$13                     ; 0x2013 <exhaustZeroes+0x41>
    36d3: a0 03        	ldy	#$3
    36d5: b1 12        	lda	($12),y                 ; 0x2012 <exhaustZeroes+0x40>
    36d7: 85 12        	sta	$12                     ; 0x2012 <exhaustZeroes+0x40>
    36d9: a6 16        	ldx	$16                     ; 0x2016 <exhaustZeroes+0x44>
    36db: e4 12        	cpx	$12                     ; 0x2012 <exhaustZeroes+0x40>
    36dd: 90 0a        	bcc	$36e9 <printf+0x13f7>
    36df: 4c 5a 37     	jmp	$375a <printf+0x1468>
    36e2: d1 12        	cmp	($12),y                 ; 0x2012 <exhaustZeroes+0x40>
    36e4: 90 03        	bcc	$36e9 <printf+0x13f7>
    36e6: 4c 5a 37     	jmp	$375a <printf+0x1468>
    36e9: a0 01        	ldy	#$1
    36eb: 18           	clc
    36ec: a5 10        	lda	$10                     ; 0x2010 <exhaustZeroes+0x3e>
    36ee: 69 1e        	adc	#$1e
    36f0: 48           	pha
    36f1: a5 11        	lda	$11                     ; 0x2011 <exhaustZeroes+0x3f>
    36f3: 69 00        	adc	#$0
    36f5: 85 12        	sta	$12                     ; 0x2012 <exhaustZeroes+0x40>
    36f7: 68           	pla
    36f8: aa           	tax
    36f9: 18           	clc
    36fa: 69 0f        	adc	#$f
    36fc: 85 13        	sta	$13                     ; 0x2013 <exhaustZeroes+0x41>
    36fe: 5a           	phy
    36ff: a4 12        	ldy	$12                     ; 0x2012 <exhaustZeroes+0x40>
    3701: 84 14        	sty	$14                     ; 0x2014 <exhaustZeroes+0x42>
    3703: a5 12        	lda	$12                     ; 0x2012 <exhaustZeroes+0x40>
    3705: 69 00        	adc	#$0
    3707: a4 13        	ldy	$13                     ; 0x2013 <exhaustZeroes+0x41>
    3709: 84 12        	sty	$12                     ; 0x2012 <exhaustZeroes+0x40>
    370b: 7a           	ply
    370c: 85 13        	sta	$13                     ; 0x2013 <exhaustZeroes+0x41>
    370e: b1 12        	lda	($12),y                 ; 0x2012 <exhaustZeroes+0x40>
    3710: c5 2f        	cmp	$2f                     ; 0x202f <exhaustZeroes+0x5d>
    3712: d0 3f        	bne	$3753 <printf+0x1461>
    3714: 86 12        	stx	$12                     ; 0x2012 <exhaustZeroes+0x40>
    3716: a6 14        	ldx	$14                     ; 0x2014 <exhaustZeroes+0x42>
    3718: 86 13        	stx	$13                     ; 0x2013 <exhaustZeroes+0x41>
    371a: a0 0f        	ldy	#$f
    371c: b1 12        	lda	($12),y                 ; 0x2012 <exhaustZeroes+0x40>
    371e: c5 2e        	cmp	$2e                     ; 0x202e <exhaustZeroes+0x5c>
    3720: d0 31        	bne	$3753 <printf+0x1461>
    3722: 18           	clc
    3723: a5 10        	lda	$10                     ; 0x2010 <exhaustZeroes+0x3e>
    3725: 69 1e        	adc	#$1e
    3727: 48           	pha
    3728: a5 11        	lda	$11                     ; 0x2011 <exhaustZeroes+0x3f>
    372a: 69 00        	adc	#$0
    372c: aa           	tax
    372d: 68           	pla
    372e: 85 12        	sta	$12                     ; 0x2012 <exhaustZeroes+0x40>
    3730: 86 13        	stx	$13                     ; 0x2013 <exhaustZeroes+0x41>
    3732: 18           	clc
    3733: 69 09        	adc	#$9
    3735: 85 14        	sta	$14                     ; 0x2014 <exhaustZeroes+0x42>
    3737: 8a           	txa
    3738: 69 00        	adc	#$0
    373a: 85 15        	sta	$15                     ; 0x2015 <exhaustZeroes+0x43>
    373c: 18           	clc
    373d: a0 09        	ldy	#$9
    373f: a5 16        	lda	$16                     ; 0x2016 <exhaustZeroes+0x44>
    3741: 71 12        	adc	($12),y                 ; 0x2012 <exhaustZeroes+0x40>
    3743: 85 12        	sta	$12                     ; 0x2012 <exhaustZeroes+0x40>
    3745: a0 01        	ldy	#$1
    3747: a5 17        	lda	$17                     ; 0x2017 <exhaustZeroes+0x45>
    3749: 71 14        	adc	($14),y                 ; 0x2014 <exhaustZeroes+0x42>
    374b: 85 13        	sta	$13                     ; 0x2013 <exhaustZeroes+0x41>
    374d: a9 30        	lda	#$30
    374f: 92 12        	sta	($12)                   ; 0x2012 <exhaustZeroes+0x40>
    3751: 80 07        	bra	$375a <printf+0x1468>
    3753: a2 00        	ldx	#$0
    3755: a9 30        	lda	#$30
    3757: 20 03 3d     	jsr	$3d03 <putchar>
    375a: 18           	clc
    375b: a5 10        	lda	$10                     ; 0x2010 <exhaustZeroes+0x3e>
    375d: 69 1e        	adc	#$1e
    375f: 48           	pha
    3760: a5 11        	lda	$11                     ; 0x2011 <exhaustZeroes+0x3f>
    3762: 69 00        	adc	#$0
    3764: aa           	tax
    3765: 68           	pla
    3766: 85 12        	sta	$12                     ; 0x2012 <exhaustZeroes+0x40>
    3768: 86 13        	stx	$13                     ; 0x2013 <exhaustZeroes+0x41>
    376a: 18           	clc
    376b: 69 05        	adc	#$5
    376d: 85 14        	sta	$14                     ; 0x2014 <exhaustZeroes+0x42>
    376f: 8a           	txa
    3770: 69 00        	adc	#$0
    3772: 85 15        	sta	$15                     ; 0x2015 <exhaustZeroes+0x43>
    3774: a0 05        	ldy	#$5
    3776: b1 12        	lda	($12),y                 ; 0x2012 <exhaustZeroes+0x40>
    3778: 85 16        	sta	$16                     ; 0x2016 <exhaustZeroes+0x44>
    377a: a0 01        	ldy	#$1
    377c: b1 14        	lda	($14),y                 ; 0x2014 <exhaustZeroes+0x42>
    377e: aa           	tax
    377f: a4 16        	ldy	$16                     ; 0x2016 <exhaustZeroes+0x44>
    3781: c8           	iny
    3782: d0 01        	bne	$3785 <printf+0x1493>
    3784: e8           	inx
    3785: 84 16        	sty	$16                     ; 0x2016 <exhaustZeroes+0x44>
    3787: 98           	tya
    3788: a0 05        	ldy	#$5
    378a: 91 12        	sta	($12),y                 ; 0x2012 <exhaustZeroes+0x40>
    378c: a0 01        	ldy	#$1
    378e: 8a           	txa
    378f: 86 17        	stx	$17                     ; 0x2017 <exhaustZeroes+0x45>
    3791: 91 14        	sta	($14),y                 ; 0x2014 <exhaustZeroes+0x42>
    3793: a2 00        	ldx	#$0
    3795: e4 25        	cpx	$25                     ; 0x2025 <exhaustZeroes+0x53>
    3797: d0 09        	bne	$37a2 <printf+0x14b0>
    3799: a6 24        	ldx	$24                     ; 0x2024 <exhaustZeroes+0x52>
    379b: e4 27        	cpx	$27                     ; 0x2027 <exhaustZeroes+0x55>
    379d: b0 0a        	bcs	$37a9 <printf+0x14b7>
    379f: 4c 9c 36     	jmp	$369c <printf+0x13aa>
    37a2: e4 25        	cpx	$25                     ; 0x2025 <exhaustZeroes+0x53>
    37a4: b0 03        	bcs	$37a9 <printf+0x14b7>
    37a6: 4c 9c 36     	jmp	$369c <printf+0x13aa>
    37a9: a5 24        	lda	$24                     ; 0x2024 <exhaustZeroes+0x52>
    37ab: d0 03        	bne	$37b0 <printf+0x14be>
    37ad: 4c 71 3a     	jmp	$3a71 <printf+0x177f>
    37b0: c6 24        	dec	$24                     ; 0x2024 <exhaustZeroes+0x52>
    37b2: d0 03        	bne	$37b7 <printf+0x14c5>
    37b4: 4c 24 39     	jmp	$3924 <printf+0x1632>
    37b7: a6 24        	ldx	$24                     ; 0x2024 <exhaustZeroes+0x52>
    37b9: 86 28        	stx	$28                     ; 0x2028 <exhaustZeroes+0x56>
    37bb: 5a           	phy
    37bc: a0 09        	ldy	#$9
    37be: b1 10        	lda	($10),y                 ; 0x2010 <exhaustZeroes+0x3e>
    37c0: 18           	clc
    37c1: 65 24        	adc	$24                     ; 0x2024 <exhaustZeroes+0x52>
    37c3: 85 24        	sta	$24                     ; 0x2024 <exhaustZeroes+0x52>
    37c5: 88           	dey
    37c6: b1 10        	lda	($10),y                 ; 0x2010 <exhaustZeroes+0x3e>
    37c8: 7a           	ply
    37c9: 69 00        	adc	#$0
    37cb: 85 25        	sta	$25                     ; 0x2025 <exhaustZeroes+0x53>
    37cd: 4c 16 39     	jmp	$3916 <printf+0x1624>
    37d0: 85 16        	sta	$16                     ; 0x2016 <exhaustZeroes+0x44>
    37d2: 5a           	phy
    37d3: a0 19        	ldy	#$19
    37d5: b1 10        	lda	($10),y                 ; 0x2010 <exhaustZeroes+0x3e>
    37d7: 85 12        	sta	$12                     ; 0x2012 <exhaustZeroes+0x40>
    37d9: 88           	dey
    37da: b1 10        	lda	($10),y                 ; 0x2010 <exhaustZeroes+0x3e>
    37dc: 7a           	ply
    37dd: 85 13        	sta	$13                     ; 0x2013 <exhaustZeroes+0x41>
    37df: a9 80        	lda	#$80
    37e1: 31 12        	and	($12),y                 ; 0x2012 <exhaustZeroes+0x40>
    37e3: f0 04        	beq	$37e9 <printf+0x14f7>
    37e5: a2 61        	ldx	#$61
    37e7: 80 02        	bra	$37eb <printf+0x14f9>
    37e9: a2 41        	ldx	#$41
    37eb: 86 12        	stx	$12                     ; 0x2012 <exhaustZeroes+0x40>
    37ed: 18           	clc
    37ee: a5 16        	lda	$16                     ; 0x2016 <exhaustZeroes+0x44>
    37f0: 65 12        	adc	$12                     ; 0x2012 <exhaustZeroes+0x40>
    37f2: 18           	clc
    37f3: 69 f6        	adc	#$f6
    37f5: 85 18        	sta	$18                     ; 0x2018 <exhaustZeroes+0x46>
    37f7: 18           	clc
    37f8: a5 10        	lda	$10                     ; 0x2010 <exhaustZeroes+0x3e>
    37fa: 69 1e        	adc	#$1e
    37fc: 85 14        	sta	$14                     ; 0x2014 <exhaustZeroes+0x42>
    37fe: a2 01        	ldx	#$1
    3800: b0 02        	bcs	$3804 <printf+0x1512>
    3802: a2 00        	ldx	#$0
    3804: 86 15        	stx	$15                     ; 0x2015 <exhaustZeroes+0x43>
    3806: 18           	clc
    3807: a5 10        	lda	$10                     ; 0x2010 <exhaustZeroes+0x3e>
    3809: 69 1e        	adc	#$1e
    380b: 48           	pha
    380c: a5 11        	lda	$11                     ; 0x2011 <exhaustZeroes+0x3f>
    380e: 69 00        	adc	#$0
    3810: aa           	tax
    3811: 68           	pla
    3812: 85 12        	sta	$12                     ; 0x2012 <exhaustZeroes+0x40>
    3814: 86 13        	stx	$13                     ; 0x2013 <exhaustZeroes+0x41>
    3816: 18           	clc
    3817: 69 05        	adc	#$5
    3819: 85 16        	sta	$16                     ; 0x2016 <exhaustZeroes+0x44>
    381b: 8a           	txa
    381c: 69 00        	adc	#$0
    381e: a6 15        	ldx	$15                     ; 0x2015 <exhaustZeroes+0x43>
    3820: e0 01        	cpx	#$1
    3822: 48           	pha
    3823: a5 11        	lda	$11                     ; 0x2011 <exhaustZeroes+0x3f>
    3825: 69 00        	adc	#$0
    3827: 85 15        	sta	$15                     ; 0x2015 <exhaustZeroes+0x43>
    3829: 68           	pla
    382a: 85 17        	sta	$17                     ; 0x2017 <exhaustZeroes+0x45>
    382c: 18           	clc
    382d: a5 14        	lda	$14                     ; 0x2014 <exhaustZeroes+0x42>
    382f: 69 03        	adc	#$3
    3831: 85 14        	sta	$14                     ; 0x2014 <exhaustZeroes+0x42>
    3833: a5 15        	lda	$15                     ; 0x2015 <exhaustZeroes+0x43>
    3835: 69 00        	adc	#$0
    3837: 85 15        	sta	$15                     ; 0x2015 <exhaustZeroes+0x43>
    3839: a0 05        	ldy	#$5
    383b: b1 12        	lda	($12),y                 ; 0x2012 <exhaustZeroes+0x40>
    383d: aa           	tax
    383e: a0 01        	ldy	#$1
    3840: b1 16        	lda	($16),y                 ; 0x2016 <exhaustZeroes+0x44>
    3842: d1 14        	cmp	($14),y                 ; 0x2014 <exhaustZeroes+0x42>
    3844: d0 11        	bne	$3857 <printf+0x1565>
    3846: a0 03        	ldy	#$3
    3848: 85 17        	sta	$17                     ; 0x2017 <exhaustZeroes+0x45>
    384a: b1 12        	lda	($12),y                 ; 0x2012 <exhaustZeroes+0x40>
    384c: 85 12        	sta	$12                     ; 0x2012 <exhaustZeroes+0x40>
    384e: 86 16        	stx	$16                     ; 0x2016 <exhaustZeroes+0x44>
    3850: e4 12        	cpx	$12                     ; 0x2012 <exhaustZeroes+0x40>
    3852: 90 0e        	bcc	$3862 <printf+0x1570>
    3854: 4c d2 38     	jmp	$38d2 <printf+0x15e0>
    3857: 86 16        	stx	$16                     ; 0x2016 <exhaustZeroes+0x44>
    3859: d1 14        	cmp	($14),y                 ; 0x2014 <exhaustZeroes+0x42>
    385b: 85 17        	sta	$17                     ; 0x2017 <exhaustZeroes+0x45>
    385d: 90 03        	bcc	$3862 <printf+0x1570>
    385f: 4c d2 38     	jmp	$38d2 <printf+0x15e0>
    3862: a0 01        	ldy	#$1
    3864: 18           	clc
    3865: a5 10        	lda	$10                     ; 0x2010 <exhaustZeroes+0x3e>
    3867: 69 1e        	adc	#$1e
    3869: 48           	pha
    386a: a5 11        	lda	$11                     ; 0x2011 <exhaustZeroes+0x3f>
    386c: 69 00        	adc	#$0
    386e: 85 12        	sta	$12                     ; 0x2012 <exhaustZeroes+0x40>
    3870: 68           	pla
    3871: 85 14        	sta	$14                     ; 0x2014 <exhaustZeroes+0x42>
    3873: 18           	clc
    3874: 69 0f        	adc	#$f
    3876: 85 13        	sta	$13                     ; 0x2013 <exhaustZeroes+0x41>
    3878: a6 12        	ldx	$12                     ; 0x2012 <exhaustZeroes+0x40>
    387a: a5 12        	lda	$12                     ; 0x2012 <exhaustZeroes+0x40>
    387c: 69 00        	adc	#$0
    387e: 5a           	phy
    387f: a4 13        	ldy	$13                     ; 0x2013 <exhaustZeroes+0x41>
    3881: 84 12        	sty	$12                     ; 0x2012 <exhaustZeroes+0x40>
    3883: 7a           	ply
    3884: 85 13        	sta	$13                     ; 0x2013 <exhaustZeroes+0x41>
    3886: b1 12        	lda	($12),y                 ; 0x2012 <exhaustZeroes+0x40>
    3888: c5 2f        	cmp	$2f                     ; 0x202f <exhaustZeroes+0x5d>
    388a: d0 3f        	bne	$38cb <printf+0x15d9>
    388c: a4 14        	ldy	$14                     ; 0x2014 <exhaustZeroes+0x42>
    388e: 84 12        	sty	$12                     ; 0x2012 <exhaustZeroes+0x40>
    3890: 86 13        	stx	$13                     ; 0x2013 <exhaustZeroes+0x41>
    3892: a0 0f        	ldy	#$f
    3894: b1 12        	lda	($12),y                 ; 0x2012 <exhaustZeroes+0x40>
    3896: c5 2e        	cmp	$2e                     ; 0x202e <exhaustZeroes+0x5c>
    3898: d0 31        	bne	$38cb <printf+0x15d9>
    389a: 18           	clc
    389b: a5 10        	lda	$10                     ; 0x2010 <exhaustZeroes+0x3e>
    389d: 69 1e        	adc	#$1e
    389f: 48           	pha
    38a0: a5 11        	lda	$11                     ; 0x2011 <exhaustZeroes+0x3f>
    38a2: 69 00        	adc	#$0
    38a4: aa           	tax
    38a5: 68           	pla
    38a6: 85 12        	sta	$12                     ; 0x2012 <exhaustZeroes+0x40>
    38a8: 86 13        	stx	$13                     ; 0x2013 <exhaustZeroes+0x41>
    38aa: 18           	clc
    38ab: 69 09        	adc	#$9
    38ad: 85 14        	sta	$14                     ; 0x2014 <exhaustZeroes+0x42>
    38af: 8a           	txa
    38b0: 69 00        	adc	#$0
    38b2: 85 15        	sta	$15                     ; 0x2015 <exhaustZeroes+0x43>
    38b4: 18           	clc
    38b5: a0 09        	ldy	#$9
    38b7: a5 16        	lda	$16                     ; 0x2016 <exhaustZeroes+0x44>
    38b9: 71 12        	adc	($12),y                 ; 0x2012 <exhaustZeroes+0x40>
    38bb: 85 12        	sta	$12                     ; 0x2012 <exhaustZeroes+0x40>
    38bd: a0 01        	ldy	#$1
    38bf: a5 17        	lda	$17                     ; 0x2017 <exhaustZeroes+0x45>
    38c1: 71 14        	adc	($14),y                 ; 0x2014 <exhaustZeroes+0x42>
    38c3: 85 13        	sta	$13                     ; 0x2013 <exhaustZeroes+0x41>
    38c5: a5 18        	lda	$18                     ; 0x2018 <exhaustZeroes+0x46>
    38c7: 92 12        	sta	($12)                   ; 0x2012 <exhaustZeroes+0x40>
    38c9: 80 07        	bra	$38d2 <printf+0x15e0>
    38cb: a2 00        	ldx	#$0
    38cd: a5 18        	lda	$18                     ; 0x2018 <exhaustZeroes+0x46>
    38cf: 20 03 3d     	jsr	$3d03 <putchar>
    38d2: 18           	clc
    38d3: a5 10        	lda	$10                     ; 0x2010 <exhaustZeroes+0x3e>
    38d5: 69 1e        	adc	#$1e
    38d7: 48           	pha
    38d8: a5 11        	lda	$11                     ; 0x2011 <exhaustZeroes+0x3f>
    38da: 69 00        	adc	#$0
    38dc: aa           	tax
    38dd: 68           	pla
    38de: 85 12        	sta	$12                     ; 0x2012 <exhaustZeroes+0x40>
    38e0: 86 13        	stx	$13                     ; 0x2013 <exhaustZeroes+0x41>
    38e2: 18           	clc
    38e3: 69 05        	adc	#$5
    38e5: 85 14        	sta	$14                     ; 0x2014 <exhaustZeroes+0x42>
    38e7: 8a           	txa
    38e8: 69 00        	adc	#$0
    38ea: 85 15        	sta	$15                     ; 0x2015 <exhaustZeroes+0x43>
    38ec: a0 05        	ldy	#$5
    38ee: b1 12        	lda	($12),y                 ; 0x2012 <exhaustZeroes+0x40>
    38f0: 85 16        	sta	$16                     ; 0x2016 <exhaustZeroes+0x44>
    38f2: a0 01        	ldy	#$1
    38f4: b1 14        	lda	($14),y                 ; 0x2014 <exhaustZeroes+0x42>
    38f6: aa           	tax
    38f7: a5 16        	lda	$16                     ; 0x2016 <exhaustZeroes+0x44>
    38f9: 1a           	inc
    38fa: d0 01        	bne	$38fd <printf+0x160b>
    38fc: e8           	inx
    38fd: a0 05        	ldy	#$5
    38ff: 91 12        	sta	($12),y                 ; 0x2012 <exhaustZeroes+0x40>
    3901: a0 01        	ldy	#$1
    3903: 8a           	txa
    3904: 91 14        	sta	($14),y                 ; 0x2014 <exhaustZeroes+0x42>
    3906: c6 28        	dec	$28                     ; 0x2028 <exhaustZeroes+0x56>
    3908: a2 ff        	ldx	#$ff
    390a: c6 24        	dec	$24                     ; 0x2024 <exhaustZeroes+0x52>
    390c: e4 24        	cpx	$24                     ; 0x2024 <exhaustZeroes+0x52>
    390e: d0 02        	bne	$3912 <printf+0x1620>
    3910: c6 25        	dec	$25                     ; 0x2025 <exhaustZeroes+0x53>
    3912: a5 28        	lda	$28                     ; 0x2028 <exhaustZeroes+0x56>
    3914: f0 0e        	beq	$3924 <printf+0x1632>
    3916: b2 24        	lda	($24)                   ; 0x2024 <exhaustZeroes+0x52>
    3918: c9 0a        	cmp	#$a
    391a: 90 03        	bcc	$391f <printf+0x162d>
    391c: 4c d0 37     	jmp	$37d0 <printf+0x14de>
    391f: 09 30        	ora	#$30
    3921: 4c f5 37     	jmp	$37f5 <printf+0x1503>
    3924: a0 0b        	ldy	#$b
    3926: b1 10        	lda	($10),y                 ; 0x2010 <exhaustZeroes+0x3e>
    3928: 85 12        	sta	$12                     ; 0x2012 <exhaustZeroes+0x40>
    392a: 88           	dey
    392b: b1 10        	lda	($10),y                 ; 0x2010 <exhaustZeroes+0x3e>
    392d: 85 13        	sta	$13                     ; 0x2013 <exhaustZeroes+0x41>
    392f: a0 02        	ldy	#$2
    3931: b1 12        	lda	($12),y                 ; 0x2012 <exhaustZeroes+0x40>
    3933: c9 0a        	cmp	#$a
    3935: b0 04        	bcs	$393b <printf+0x1649>
    3937: 09 30        	ora	#$30
    3939: 80 25        	bra	$3960 <printf+0x166e>
    393b: 85 16        	sta	$16                     ; 0x2016 <exhaustZeroes+0x44>
    393d: a0 19        	ldy	#$19
    393f: b1 10        	lda	($10),y                 ; 0x2010 <exhaustZeroes+0x3e>
    3941: 85 12        	sta	$12                     ; 0x2012 <exhaustZeroes+0x40>
    3943: 88           	dey
    3944: b1 10        	lda	($10),y                 ; 0x2010 <exhaustZeroes+0x3e>
    3946: 85 13        	sta	$13                     ; 0x2013 <exhaustZeroes+0x41>
    3948: a9 80        	lda	#$80
    394a: a0 01        	ldy	#$1
    394c: 31 12        	and	($12),y                 ; 0x2012 <exhaustZeroes+0x40>
    394e: f0 04        	beq	$3954 <printf+0x1662>
    3950: a2 61        	ldx	#$61
    3952: 80 02        	bra	$3956 <printf+0x1664>
    3954: a2 41        	ldx	#$41
    3956: 86 12        	stx	$12                     ; 0x2012 <exhaustZeroes+0x40>
    3958: 18           	clc
    3959: a5 16        	lda	$16                     ; 0x2016 <exhaustZeroes+0x44>
    395b: 65 12        	adc	$12                     ; 0x2012 <exhaustZeroes+0x40>
    395d: 18           	clc
    395e: 69 f6        	adc	#$f6
    3960: 85 18        	sta	$18                     ; 0x2018 <exhaustZeroes+0x46>
    3962: 18           	clc
    3963: a5 10        	lda	$10                     ; 0x2010 <exhaustZeroes+0x3e>
    3965: 69 1e        	adc	#$1e
    3967: 85 14        	sta	$14                     ; 0x2014 <exhaustZeroes+0x42>
    3969: a2 01        	ldx	#$1
    396b: b0 02        	bcs	$396f <printf+0x167d>
    396d: a2 00        	ldx	#$0
    396f: 86 15        	stx	$15                     ; 0x2015 <exhaustZeroes+0x43>
    3971: 18           	clc
    3972: a5 10        	lda	$10                     ; 0x2010 <exhaustZeroes+0x3e>
    3974: 69 1e        	adc	#$1e
    3976: 48           	pha
    3977: a5 11        	lda	$11                     ; 0x2011 <exhaustZeroes+0x3f>
    3979: 69 00        	adc	#$0
    397b: aa           	tax
    397c: 68           	pla
    397d: 85 12        	sta	$12                     ; 0x2012 <exhaustZeroes+0x40>
    397f: 86 13        	stx	$13                     ; 0x2013 <exhaustZeroes+0x41>
    3981: 18           	clc
    3982: 69 05        	adc	#$5
    3984: 85 16        	sta	$16                     ; 0x2016 <exhaustZeroes+0x44>
    3986: 8a           	txa
    3987: 69 00        	adc	#$0
    3989: a6 15        	ldx	$15                     ; 0x2015 <exhaustZeroes+0x43>
    398b: e0 01        	cpx	#$1
    398d: 48           	pha
    398e: a5 11        	lda	$11                     ; 0x2011 <exhaustZeroes+0x3f>
    3990: 69 00        	adc	#$0
    3992: 85 15        	sta	$15                     ; 0x2015 <exhaustZeroes+0x43>
    3994: 68           	pla
    3995: 85 17        	sta	$17                     ; 0x2017 <exhaustZeroes+0x45>
    3997: 18           	clc
    3998: a5 14        	lda	$14                     ; 0x2014 <exhaustZeroes+0x42>
    399a: 69 03        	adc	#$3
    399c: 85 14        	sta	$14                     ; 0x2014 <exhaustZeroes+0x42>
    399e: a5 15        	lda	$15                     ; 0x2015 <exhaustZeroes+0x43>
    39a0: 69 00        	adc	#$0
    39a2: 85 15        	sta	$15                     ; 0x2015 <exhaustZeroes+0x43>
    39a4: a0 05        	ldy	#$5
    39a6: b1 12        	lda	($12),y                 ; 0x2012 <exhaustZeroes+0x40>
    39a8: aa           	tax
    39a9: a0 01        	ldy	#$1
    39ab: b1 16        	lda	($16),y                 ; 0x2016 <exhaustZeroes+0x44>
    39ad: d1 14        	cmp	($14),y                 ; 0x2014 <exhaustZeroes+0x42>
    39af: d0 11        	bne	$39c2 <printf+0x16d0>
    39b1: a0 03        	ldy	#$3
    39b3: 85 17        	sta	$17                     ; 0x2017 <exhaustZeroes+0x45>
    39b5: b1 12        	lda	($12),y                 ; 0x2012 <exhaustZeroes+0x40>
    39b7: 85 12        	sta	$12                     ; 0x2012 <exhaustZeroes+0x40>
    39b9: 86 16        	stx	$16                     ; 0x2016 <exhaustZeroes+0x44>
    39bb: e4 12        	cpx	$12                     ; 0x2012 <exhaustZeroes+0x40>
    39bd: 90 0e        	bcc	$39cd <printf+0x16db>
    39bf: 4c 3d 3a     	jmp	$3a3d <printf+0x174b>
    39c2: 86 16        	stx	$16                     ; 0x2016 <exhaustZeroes+0x44>
    39c4: d1 14        	cmp	($14),y                 ; 0x2014 <exhaustZeroes+0x42>
    39c6: 85 17        	sta	$17                     ; 0x2017 <exhaustZeroes+0x45>
    39c8: 90 03        	bcc	$39cd <printf+0x16db>
    39ca: 4c 3d 3a     	jmp	$3a3d <printf+0x174b>
    39cd: a0 01        	ldy	#$1
    39cf: 18           	clc
    39d0: a5 10        	lda	$10                     ; 0x2010 <exhaustZeroes+0x3e>
    39d2: 69 1e        	adc	#$1e
    39d4: 48           	pha
    39d5: a5 11        	lda	$11                     ; 0x2011 <exhaustZeroes+0x3f>
    39d7: 69 00        	adc	#$0
    39d9: 85 12        	sta	$12                     ; 0x2012 <exhaustZeroes+0x40>
    39db: 68           	pla
    39dc: 85 14        	sta	$14                     ; 0x2014 <exhaustZeroes+0x42>
    39de: 18           	clc
    39df: 69 0f        	adc	#$f
    39e1: 85 13        	sta	$13                     ; 0x2013 <exhaustZeroes+0x41>
    39e3: a6 12        	ldx	$12                     ; 0x2012 <exhaustZeroes+0x40>
    39e5: a5 12        	lda	$12                     ; 0x2012 <exhaustZeroes+0x40>
    39e7: 69 00        	adc	#$0
    39e9: 5a           	phy
    39ea: a4 13        	ldy	$13                     ; 0x2013 <exhaustZeroes+0x41>
    39ec: 84 12        	sty	$12                     ; 0x2012 <exhaustZeroes+0x40>
    39ee: 7a           	ply
    39ef: 85 13        	sta	$13                     ; 0x2013 <exhaustZeroes+0x41>
    39f1: b1 12        	lda	($12),y                 ; 0x2012 <exhaustZeroes+0x40>
    39f3: c5 2f        	cmp	$2f                     ; 0x202f <exhaustZeroes+0x5d>
    39f5: d0 3f        	bne	$3a36 <printf+0x1744>
    39f7: a4 14        	ldy	$14                     ; 0x2014 <exhaustZeroes+0x42>
    39f9: 84 12        	sty	$12                     ; 0x2012 <exhaustZeroes+0x40>
    39fb: 86 13        	stx	$13                     ; 0x2013 <exhaustZeroes+0x41>
    39fd: a0 0f        	ldy	#$f
    39ff: b1 12        	lda	($12),y                 ; 0x2012 <exhaustZeroes+0x40>
    3a01: c5 2e        	cmp	$2e                     ; 0x202e <exhaustZeroes+0x5c>
    3a03: d0 31        	bne	$3a36 <printf+0x1744>
    3a05: 18           	clc
    3a06: a5 10        	lda	$10                     ; 0x2010 <exhaustZeroes+0x3e>
    3a08: 69 1e        	adc	#$1e
    3a0a: 48           	pha
    3a0b: a5 11        	lda	$11                     ; 0x2011 <exhaustZeroes+0x3f>
    3a0d: 69 00        	adc	#$0
    3a0f: aa           	tax
    3a10: 68           	pla
    3a11: 85 12        	sta	$12                     ; 0x2012 <exhaustZeroes+0x40>
    3a13: 86 13        	stx	$13                     ; 0x2013 <exhaustZeroes+0x41>
    3a15: 18           	clc
    3a16: 69 09        	adc	#$9
    3a18: 85 14        	sta	$14                     ; 0x2014 <exhaustZeroes+0x42>
    3a1a: 8a           	txa
    3a1b: 69 00        	adc	#$0
    3a1d: 85 15        	sta	$15                     ; 0x2015 <exhaustZeroes+0x43>
    3a1f: 18           	clc
    3a20: a0 09        	ldy	#$9
    3a22: a5 16        	lda	$16                     ; 0x2016 <exhaustZeroes+0x44>
    3a24: 71 12        	adc	($12),y                 ; 0x2012 <exhaustZeroes+0x40>
    3a26: 85 12        	sta	$12                     ; 0x2012 <exhaustZeroes+0x40>
    3a28: a0 01        	ldy	#$1
    3a2a: a5 17        	lda	$17                     ; 0x2017 <exhaustZeroes+0x45>
    3a2c: 71 14        	adc	($14),y                 ; 0x2014 <exhaustZeroes+0x42>
    3a2e: 85 13        	sta	$13                     ; 0x2013 <exhaustZeroes+0x41>
    3a30: a5 18        	lda	$18                     ; 0x2018 <exhaustZeroes+0x46>
    3a32: 92 12        	sta	($12)                   ; 0x2012 <exhaustZeroes+0x40>
    3a34: 80 07        	bra	$3a3d <printf+0x174b>
    3a36: a2 00        	ldx	#$0
    3a38: a5 18        	lda	$18                     ; 0x2018 <exhaustZeroes+0x46>
    3a3a: 20 03 3d     	jsr	$3d03 <putchar>
    3a3d: 18           	clc
    3a3e: a5 10        	lda	$10                     ; 0x2010 <exhaustZeroes+0x3e>
    3a40: 69 1e        	adc	#$1e
    3a42: 48           	pha
    3a43: a5 11        	lda	$11                     ; 0x2011 <exhaustZeroes+0x3f>
    3a45: 69 00        	adc	#$0
    3a47: aa           	tax
    3a48: 68           	pla
    3a49: 85 12        	sta	$12                     ; 0x2012 <exhaustZeroes+0x40>
    3a4b: 86 13        	stx	$13                     ; 0x2013 <exhaustZeroes+0x41>
    3a4d: 18           	clc
    3a4e: 69 05        	adc	#$5
    3a50: 85 14        	sta	$14                     ; 0x2014 <exhaustZeroes+0x42>
    3a52: 8a           	txa
    3a53: 69 00        	adc	#$0
    3a55: 85 15        	sta	$15                     ; 0x2015 <exhaustZeroes+0x43>
    3a57: a0 05        	ldy	#$5
    3a59: b1 12        	lda	($12),y                 ; 0x2012 <exhaustZeroes+0x40>
    3a5b: 85 16        	sta	$16                     ; 0x2016 <exhaustZeroes+0x44>
    3a5d: a0 01        	ldy	#$1
    3a5f: b1 14        	lda	($14),y                 ; 0x2014 <exhaustZeroes+0x42>
    3a61: aa           	tax
    3a62: a5 16        	lda	$16                     ; 0x2016 <exhaustZeroes+0x44>
    3a64: 1a           	inc
    3a65: d0 01        	bne	$3a68 <printf+0x1776>
    3a67: e8           	inx
    3a68: a0 05        	ldy	#$5
    3a6a: 91 12        	sta	($12),y                 ; 0x2012 <exhaustZeroes+0x40>
    3a6c: a0 01        	ldy	#$1
    3a6e: 8a           	txa
    3a6f: 91 14        	sta	($14),y                 ; 0x2014 <exhaustZeroes+0x42>
    3a71: 5a           	phy
    3a72: a0 19        	ldy	#$19
    3a74: b1 10        	lda	($10),y                 ; 0x2010 <exhaustZeroes+0x3e>
    3a76: 85 12        	sta	$12                     ; 0x2012 <exhaustZeroes+0x40>
    3a78: 88           	dey
    3a79: b1 10        	lda	($10),y                 ; 0x2010 <exhaustZeroes+0x3e>
    3a7b: 7a           	ply
    3a7c: 85 13        	sta	$13                     ; 0x2013 <exhaustZeroes+0x41>
    3a7e: b1 12        	lda	($12),y                 ; 0x2012 <exhaustZeroes+0x40>
    3a80: 29 01        	and	#$1
    3a82: 48           	pha
    3a83: a0 14        	ldy	#$14
    3a85: b1 10        	lda	($10),y                 ; 0x2010 <exhaustZeroes+0x3e>
    3a87: 85 24        	sta	$24                     ; 0x2024 <exhaustZeroes+0x52>
    3a89: c8           	iny
    3a8a: b1 10        	lda	($10),y                 ; 0x2010 <exhaustZeroes+0x3e>
    3a8c: 85 25        	sta	$25                     ; 0x2025 <exhaustZeroes+0x53>
    3a8e: 68           	pla
    3a8f: f0 03        	beq	$3a94 <printf+0x17a2>
    3a91: 4c f2 3a     	jmp	$3af2 <printf+0x1800>
    3a94: 18           	clc
    3a95: a5 10        	lda	$10                     ; 0x2010 <exhaustZeroes+0x3e>
    3a97: 69 1e        	adc	#$1e
    3a99: 48           	pha
    3a9a: a5 11        	lda	$11                     ; 0x2011 <exhaustZeroes+0x3f>
    3a9c: 69 00        	adc	#$0
    3a9e: aa           	tax
    3a9f: 68           	pla
    3aa0: 85 12        	sta	$12                     ; 0x2012 <exhaustZeroes+0x40>
    3aa2: 86 13        	stx	$13                     ; 0x2013 <exhaustZeroes+0x41>
    3aa4: 18           	clc
    3aa5: 69 05        	adc	#$5
    3aa7: 85 14        	sta	$14                     ; 0x2014 <exhaustZeroes+0x42>
    3aa9: 8a           	txa
    3aaa: 69 00        	adc	#$0
    3aac: 85 15        	sta	$15                     ; 0x2015 <exhaustZeroes+0x43>
    3aae: a0 05        	ldy	#$5
    3ab0: b1 12        	lda	($12),y                 ; 0x2012 <exhaustZeroes+0x40>
    3ab2: 85 16        	sta	$16                     ; 0x2016 <exhaustZeroes+0x44>
    3ab4: a0 01        	ldy	#$1
    3ab6: b1 14        	lda	($14),y                 ; 0x2014 <exhaustZeroes+0x42>
    3ab8: 85 17        	sta	$17                     ; 0x2017 <exhaustZeroes+0x45>
    3aba: 18           	clc
    3abb: a5 10        	lda	$10                     ; 0x2010 <exhaustZeroes+0x3e>
    3abd: 69 1e        	adc	#$1e
    3abf: 48           	pha
    3ac0: a5 11        	lda	$11                     ; 0x2011 <exhaustZeroes+0x3f>
    3ac2: 69 00        	adc	#$0
    3ac4: aa           	tax
    3ac5: 68           	pla
    3ac6: 85 12        	sta	$12                     ; 0x2012 <exhaustZeroes+0x40>
    3ac8: 86 13        	stx	$13                     ; 0x2013 <exhaustZeroes+0x41>
    3aca: 18           	clc
    3acb: 69 03        	adc	#$3
    3acd: 85 14        	sta	$14                     ; 0x2014 <exhaustZeroes+0x42>
    3acf: 8a           	txa
    3ad0: 69 00        	adc	#$0
    3ad2: 85 15        	sta	$15                     ; 0x2015 <exhaustZeroes+0x43>
    3ad4: a0 03        	ldy	#$3
    3ad6: b1 12        	lda	($12),y                 ; 0x2012 <exhaustZeroes+0x40>
    3ad8: 85 18        	sta	$18                     ; 0x2018 <exhaustZeroes+0x46>
    3ada: a0 01        	ldy	#$1
    3adc: b1 14        	lda	($14),y                 ; 0x2014 <exhaustZeroes+0x42>
    3ade: 85 12        	sta	$12                     ; 0x2012 <exhaustZeroes+0x40>
    3ae0: a6 17        	ldx	$17                     ; 0x2017 <exhaustZeroes+0x45>
    3ae2: 85 17        	sta	$17                     ; 0x2017 <exhaustZeroes+0x45>
    3ae4: e4 12        	cpx	$12                     ; 0x2012 <exhaustZeroes+0x40>
    3ae6: f0 03        	beq	$3aeb <printf+0x17f9>
    3ae8: 4c 3b 3c     	jmp	$3c3b <printf+0x1949>
    3aeb: a6 16        	ldx	$16                     ; 0x2016 <exhaustZeroes+0x44>
    3aed: e4 18        	cpx	$18                     ; 0x2018 <exhaustZeroes+0x46>
    3aef: 4c 3f 3c     	jmp	$3c3f <printf+0x194d>
    3af2: 18           	clc
    3af3: a5 10        	lda	$10                     ; 0x2010 <exhaustZeroes+0x3e>
    3af5: 69 1e        	adc	#$1e
    3af7: 48           	pha
    3af8: a5 11        	lda	$11                     ; 0x2011 <exhaustZeroes+0x3f>
    3afa: 69 00        	adc	#$0
    3afc: aa           	tax
    3afd: 68           	pla
    3afe: 85 12        	sta	$12                     ; 0x2012 <exhaustZeroes+0x40>
    3b00: 86 13        	stx	$13                     ; 0x2013 <exhaustZeroes+0x41>
    3b02: 18           	clc
    3b03: 69 05        	adc	#$5
    3b05: 85 14        	sta	$14                     ; 0x2014 <exhaustZeroes+0x42>
    3b07: 8a           	txa
    3b08: 69 00        	adc	#$0
    3b0a: 85 15        	sta	$15                     ; 0x2015 <exhaustZeroes+0x43>
    3b0c: a0 05        	ldy	#$5
    3b0e: b1 12        	lda	($12),y                 ; 0x2012 <exhaustZeroes+0x40>
    3b10: 85 16        	sta	$16                     ; 0x2016 <exhaustZeroes+0x44>
    3b12: a0 01        	ldy	#$1
    3b14: b1 14        	lda	($14),y                 ; 0x2014 <exhaustZeroes+0x42>
    3b16: 85 12        	sta	$12                     ; 0x2012 <exhaustZeroes+0x40>
    3b18: a6 29        	ldx	$29                     ; 0x2029 <exhaustZeroes+0x57>
    3b1a: a5 26        	lda	$26                     ; 0x2026 <exhaustZeroes+0x54>
    3b1c: d0 06        	bne	$3b24 <printf+0x1832>
    3b1e: 8a           	txa
    3b1f: d0 03        	bne	$3b24 <printf+0x1832>
    3b21: 4c b9 3c     	jmp	$3cb9 <printf+0x19c7>
    3b24: a6 12        	ldx	$12                     ; 0x2012 <exhaustZeroes+0x40>
    3b26: 86 17        	stx	$17                     ; 0x2017 <exhaustZeroes+0x45>
    3b28: 4c f7 3b     	jmp	$3bf7 <printf+0x1905>
    3b2b: d1 12        	cmp	($12),y                 ; 0x2012 <exhaustZeroes+0x40>
    3b2d: 90 03        	bcc	$3b32 <printf+0x1840>
    3b2f: 4c a3 3b     	jmp	$3ba3 <printf+0x18b1>
    3b32: a0 01        	ldy	#$1
    3b34: 18           	clc
    3b35: a5 10        	lda	$10                     ; 0x2010 <exhaustZeroes+0x3e>
    3b37: 69 1e        	adc	#$1e
    3b39: 48           	pha
    3b3a: a5 11        	lda	$11                     ; 0x2011 <exhaustZeroes+0x3f>
    3b3c: 69 00        	adc	#$0
    3b3e: 85 12        	sta	$12                     ; 0x2012 <exhaustZeroes+0x40>
    3b40: 68           	pla
    3b41: aa           	tax
    3b42: 18           	clc
    3b43: 69 0f        	adc	#$f
    3b45: 85 13        	sta	$13                     ; 0x2013 <exhaustZeroes+0x41>
    3b47: 5a           	phy
    3b48: a4 12        	ldy	$12                     ; 0x2012 <exhaustZeroes+0x40>
    3b4a: 84 14        	sty	$14                     ; 0x2014 <exhaustZeroes+0x42>
    3b4c: a5 12        	lda	$12                     ; 0x2012 <exhaustZeroes+0x40>
    3b4e: 69 00        	adc	#$0
    3b50: a4 13        	ldy	$13                     ; 0x2013 <exhaustZeroes+0x41>
    3b52: 84 12        	sty	$12                     ; 0x2012 <exhaustZeroes+0x40>
    3b54: 7a           	ply
    3b55: 85 13        	sta	$13                     ; 0x2013 <exhaustZeroes+0x41>
    3b57: b1 12        	lda	($12),y                 ; 0x2012 <exhaustZeroes+0x40>
    3b59: c5 2f        	cmp	$2f                     ; 0x202f <exhaustZeroes+0x5d>
    3b5b: d0 3f        	bne	$3b9c <printf+0x18aa>
    3b5d: 86 12        	stx	$12                     ; 0x2012 <exhaustZeroes+0x40>
    3b5f: a6 14        	ldx	$14                     ; 0x2014 <exhaustZeroes+0x42>
    3b61: 86 13        	stx	$13                     ; 0x2013 <exhaustZeroes+0x41>
    3b63: a0 0f        	ldy	#$f
    3b65: b1 12        	lda	($12),y                 ; 0x2012 <exhaustZeroes+0x40>
    3b67: c5 2e        	cmp	$2e                     ; 0x202e <exhaustZeroes+0x5c>
    3b69: d0 31        	bne	$3b9c <printf+0x18aa>
    3b6b: 18           	clc
    3b6c: a5 10        	lda	$10                     ; 0x2010 <exhaustZeroes+0x3e>
    3b6e: 69 1e        	adc	#$1e
    3b70: 48           	pha
    3b71: a5 11        	lda	$11                     ; 0x2011 <exhaustZeroes+0x3f>
    3b73: 69 00        	adc	#$0
    3b75: aa           	tax
    3b76: 68           	pla
    3b77: 85 12        	sta	$12                     ; 0x2012 <exhaustZeroes+0x40>
    3b79: 86 13        	stx	$13                     ; 0x2013 <exhaustZeroes+0x41>
    3b7b: 18           	clc
    3b7c: 69 09        	adc	#$9
    3b7e: 85 14        	sta	$14                     ; 0x2014 <exhaustZeroes+0x42>
    3b80: 8a           	txa
    3b81: 69 00        	adc	#$0
    3b83: 85 15        	sta	$15                     ; 0x2015 <exhaustZeroes+0x43>
    3b85: 18           	clc
    3b86: a0 09        	ldy	#$9
    3b88: a5 16        	lda	$16                     ; 0x2016 <exhaustZeroes+0x44>
    3b8a: 71 12        	adc	($12),y                 ; 0x2012 <exhaustZeroes+0x40>
    3b8c: 85 12        	sta	$12                     ; 0x2012 <exhaustZeroes+0x40>
    3b8e: a0 01        	ldy	#$1
    3b90: a5 17        	lda	$17                     ; 0x2017 <exhaustZeroes+0x45>
    3b92: 71 14        	adc	($14),y                 ; 0x2014 <exhaustZeroes+0x42>
    3b94: 85 13        	sta	$13                     ; 0x2013 <exhaustZeroes+0x41>
    3b96: a9 20        	lda	#$20
    3b98: 92 12        	sta	($12)                   ; 0x2012 <exhaustZeroes+0x40>
    3b9a: 80 07        	bra	$3ba3 <printf+0x18b1>
    3b9c: a2 00        	ldx	#$0
    3b9e: a9 20        	lda	#$20
    3ba0: 20 03 3d     	jsr	$3d03 <putchar>
    3ba3: 18           	clc
    3ba4: a5 10        	lda	$10                     ; 0x2010 <exhaustZeroes+0x3e>
    3ba6: 69 1e        	adc	#$1e
    3ba8: 48           	pha
    3ba9: a5 11        	lda	$11                     ; 0x2011 <exhaustZeroes+0x3f>
    3bab: 69 00        	adc	#$0
    3bad: aa           	tax
    3bae: 68           	pla
    3baf: 85 12        	sta	$12                     ; 0x2012 <exhaustZeroes+0x40>
    3bb1: 86 13        	stx	$13                     ; 0x2013 <exhaustZeroes+0x41>
    3bb3: 18           	clc
    3bb4: 69 05        	adc	#$5
    3bb6: 85 14        	sta	$14                     ; 0x2014 <exhaustZeroes+0x42>
    3bb8: 8a           	txa
    3bb9: 69 00        	adc	#$0
    3bbb: 85 15        	sta	$15                     ; 0x2015 <exhaustZeroes+0x43>
    3bbd: a0 05        	ldy	#$5
    3bbf: b1 12        	lda	($12),y                 ; 0x2012 <exhaustZeroes+0x40>
    3bc1: 85 16        	sta	$16                     ; 0x2016 <exhaustZeroes+0x44>
    3bc3: a0 01        	ldy	#$1
    3bc5: b1 14        	lda	($14),y                 ; 0x2014 <exhaustZeroes+0x42>
    3bc7: aa           	tax
    3bc8: a4 16        	ldy	$16                     ; 0x2016 <exhaustZeroes+0x44>
    3bca: c8           	iny
    3bcb: d0 01        	bne	$3bce <printf+0x18dc>
    3bcd: e8           	inx
    3bce: 84 16        	sty	$16                     ; 0x2016 <exhaustZeroes+0x44>
    3bd0: 98           	tya
    3bd1: a0 05        	ldy	#$5
    3bd3: 91 12        	sta	($12),y                 ; 0x2012 <exhaustZeroes+0x40>
    3bd5: a0 01        	ldy	#$1
    3bd7: 8a           	txa
    3bd8: 86 17        	stx	$17                     ; 0x2017 <exhaustZeroes+0x45>
    3bda: 91 14        	sta	($14),y                 ; 0x2014 <exhaustZeroes+0x42>
    3bdc: a5 29        	lda	$29                     ; 0x2029 <exhaustZeroes+0x57>
    3bde: a6 26        	ldx	$26                     ; 0x2026 <exhaustZeroes+0x54>
    3be0: 86 12        	stx	$12                     ; 0x2012 <exhaustZeroes+0x40>
    3be2: 3a           	dec
    3be3: c9 ff        	cmp	#$ff
    3be5: d0 02        	bne	$3be9 <printf+0x18f7>
    3be7: c6 12        	dec	$12                     ; 0x2012 <exhaustZeroes+0x40>
    3be9: 85 29        	sta	$29                     ; 0x2029 <exhaustZeroes+0x57>
    3beb: a6 12        	ldx	$12                     ; 0x2012 <exhaustZeroes+0x40>
    3bed: 86 26        	stx	$26                     ; 0x2026 <exhaustZeroes+0x54>
    3bef: d0 06        	bne	$3bf7 <printf+0x1905>
    3bf1: aa           	tax
    3bf2: d0 03        	bne	$3bf7 <printf+0x1905>
    3bf4: 4c ba 3a     	jmp	$3aba <printf+0x17c8>
    3bf7: 18           	clc
    3bf8: a5 10        	lda	$10                     ; 0x2010 <exhaustZeroes+0x3e>
    3bfa: 69 1e        	adc	#$1e
    3bfc: 48           	pha
    3bfd: a5 11        	lda	$11                     ; 0x2011 <exhaustZeroes+0x3f>
    3bff: 69 00        	adc	#$0
    3c01: 85 12        	sta	$12                     ; 0x2012 <exhaustZeroes+0x40>
    3c03: 68           	pla
    3c04: 18           	clc
    3c05: aa           	tax
    3c06: 69 03        	adc	#$3
    3c08: 85 13        	sta	$13                     ; 0x2013 <exhaustZeroes+0x41>
    3c0a: 5a           	phy
    3c0b: a4 12        	ldy	$12                     ; 0x2012 <exhaustZeroes+0x40>
    3c0d: 84 14        	sty	$14                     ; 0x2014 <exhaustZeroes+0x42>
    3c0f: a5 12        	lda	$12                     ; 0x2012 <exhaustZeroes+0x40>
    3c11: 69 00        	adc	#$0
    3c13: a4 13        	ldy	$13                     ; 0x2013 <exhaustZeroes+0x41>
    3c15: 84 12        	sty	$12                     ; 0x2012 <exhaustZeroes+0x40>
    3c17: 7a           	ply
    3c18: 85 13        	sta	$13                     ; 0x2013 <exhaustZeroes+0x41>
    3c1a: a5 17        	lda	$17                     ; 0x2017 <exhaustZeroes+0x45>
    3c1c: d1 12        	cmp	($12),y                 ; 0x2012 <exhaustZeroes+0x40>
    3c1e: f0 03        	beq	$3c23 <printf+0x1931>
    3c20: 4c 2b 3b     	jmp	$3b2b <printf+0x1839>
    3c23: 86 12        	stx	$12                     ; 0x2012 <exhaustZeroes+0x40>
    3c25: a6 14        	ldx	$14                     ; 0x2014 <exhaustZeroes+0x42>
    3c27: 86 13        	stx	$13                     ; 0x2013 <exhaustZeroes+0x41>
    3c29: a0 03        	ldy	#$3
    3c2b: b1 12        	lda	($12),y                 ; 0x2012 <exhaustZeroes+0x40>
    3c2d: 85 12        	sta	$12                     ; 0x2012 <exhaustZeroes+0x40>
    3c2f: a6 16        	ldx	$16                     ; 0x2016 <exhaustZeroes+0x44>
    3c31: e4 12        	cpx	$12                     ; 0x2012 <exhaustZeroes+0x40>
    3c33: b0 03        	bcs	$3c38 <printf+0x1946>
    3c35: 4c 32 3b     	jmp	$3b32 <printf+0x1840>
    3c38: 4c a3 3b     	jmp	$3ba3 <printf+0x18b1>
    3c3b: 85 12        	sta	$12                     ; 0x2012 <exhaustZeroes+0x40>
    3c3d: e4 12        	cpx	$12                     ; 0x2012 <exhaustZeroes+0x40>
    3c3f: 5a           	phy
    3c40: a0 16        	ldy	#$16
    3c42: b1 10        	lda	($10),y                 ; 0x2010 <exhaustZeroes+0x3e>
    3c44: 85 26        	sta	$26                     ; 0x2026 <exhaustZeroes+0x54>
    3c46: c8           	iny
    3c47: b1 10        	lda	($10),y                 ; 0x2010 <exhaustZeroes+0x3e>
    3c49: 7a           	ply
    3c4a: 85 27        	sta	$27                     ; 0x2027 <exhaustZeroes+0x55>
    3c4c: 90 44        	bcc	$3c92 <printf+0x19a0>
    3c4e: a6 17        	ldx	$17                     ; 0x2017 <exhaustZeroes+0x45>
    3c50: a5 18        	lda	$18                     ; 0x2018 <exhaustZeroes+0x46>
    3c52: e0 00        	cpx	#$0
    3c54: d0 03        	bne	$3c59 <printf+0x1967>
    3c56: aa           	tax
    3c57: f0 39        	beq	$3c92 <printf+0x19a0>
    3c59: 18           	clc
    3c5a: a5 10        	lda	$10                     ; 0x2010 <exhaustZeroes+0x3e>
    3c5c: 69 1e        	adc	#$1e
    3c5e: 48           	pha
    3c5f: a5 11        	lda	$11                     ; 0x2011 <exhaustZeroes+0x3f>
    3c61: 69 00        	adc	#$0
    3c63: aa           	tax
    3c64: 68           	pla
    3c65: 85 12        	sta	$12                     ; 0x2012 <exhaustZeroes+0x40>
    3c67: 86 13        	stx	$13                     ; 0x2013 <exhaustZeroes+0x41>
    3c69: 18           	clc
    3c6a: 69 09        	adc	#$9
    3c6c: 85 14        	sta	$14                     ; 0x2014 <exhaustZeroes+0x42>
    3c6e: 8a           	txa
    3c6f: 69 00        	adc	#$0
    3c71: 85 15        	sta	$15                     ; 0x2015 <exhaustZeroes+0x43>
    3c73: 18           	clc
    3c74: a0 09        	ldy	#$9
    3c76: a5 18        	lda	$18                     ; 0x2018 <exhaustZeroes+0x46>
    3c78: 71 12        	adc	($12),y                 ; 0x2012 <exhaustZeroes+0x40>
    3c7a: 85 12        	sta	$12                     ; 0x2012 <exhaustZeroes+0x40>
    3c7c: a0 01        	ldy	#$1
    3c7e: a5 17        	lda	$17                     ; 0x2017 <exhaustZeroes+0x45>
    3c80: 71 14        	adc	($14),y                 ; 0x2014 <exhaustZeroes+0x42>
    3c82: 85 13        	sta	$13                     ; 0x2013 <exhaustZeroes+0x41>
    3c84: a2 ff        	ldx	#$ff
    3c86: c6 12        	dec	$12                     ; 0x2012 <exhaustZeroes+0x40>
    3c88: e4 12        	cpx	$12                     ; 0x2012 <exhaustZeroes+0x40>
    3c8a: d0 02        	bne	$3c8e <printf+0x199c>
    3c8c: c6 13        	dec	$13                     ; 0x2013 <exhaustZeroes+0x41>
    3c8e: a9 00        	lda	#$0
    3c90: 92 12        	sta	($12)                   ; 0x2012 <exhaustZeroes+0x40>
    3c92: e6 26        	inc	$26                     ; 0x2026 <exhaustZeroes+0x54>
    3c94: d0 02        	bne	$3c98 <printf+0x19a6>
    3c96: e6 27        	inc	$27                     ; 0x2027 <exhaustZeroes+0x55>
    3c98: a6 27        	ldx	$27                     ; 0x2027 <exhaustZeroes+0x55>
    3c9a: e4 25        	cpx	$25                     ; 0x2025 <exhaustZeroes+0x53>
    3c9c: f0 03        	beq	$3ca1 <printf+0x19af>
    3c9e: 4c 94 24     	jmp	$2494 <printf+0x1a2>
    3ca1: a6 26        	ldx	$26                     ; 0x2026 <exhaustZeroes+0x54>
    3ca3: e4 24        	cpx	$24                     ; 0x2024 <exhaustZeroes+0x52>
    3ca5: f0 03        	beq	$3caa <printf+0x19b8>
    3ca7: 4c 94 24     	jmp	$2494 <printf+0x1a2>
    3caa: b2 24        	lda	($24)                   ; 0x2024 <exhaustZeroes+0x52>
    3cac: a2 00        	ldx	#$0
    3cae: a0 00        	ldy	#$0
    3cb0: 84 2e        	sty	$2e                     ; 0x202e <exhaustZeroes+0x5c>
    3cb2: a0 00        	ldy	#$0
    3cb4: 84 2f        	sty	$2f                     ; 0x202f <exhaustZeroes+0x5d>
    3cb6: 4c ad 24     	jmp	$24ad <printf+0x1bb>
    3cb9: a6 12        	ldx	$12                     ; 0x2012 <exhaustZeroes+0x40>
    3cbb: 86 17        	stx	$17                     ; 0x2017 <exhaustZeroes+0x45>
    3cbd: 4c ba 3a     	jmp	$3aba <printf+0x17c8>
    3cc0: a0 00        	ldy	#$0
    3cc2: b1 10        	lda	($10),y                 ; 0x2010 <exhaustZeroes+0x3e>
    3cc4: 85 2f        	sta	$2f                     ; 0x202f <exhaustZeroes+0x5d>
    3cc6: c8           	iny
    3cc7: b1 10        	lda	($10),y                 ; 0x2010 <exhaustZeroes+0x3e>
    3cc9: 85 2e        	sta	$2e                     ; 0x202e <exhaustZeroes+0x5c>
    3ccb: c8           	iny
    3ccc: b1 10        	lda	($10),y                 ; 0x2010 <exhaustZeroes+0x3e>
    3cce: 85 2d        	sta	$2d                     ; 0x202d <exhaustZeroes+0x5b>
    3cd0: c8           	iny
    3cd1: b1 10        	lda	($10),y                 ; 0x2010 <exhaustZeroes+0x3e>
    3cd3: 85 2c        	sta	$2c                     ; 0x202c <exhaustZeroes+0x5a>
    3cd5: c8           	iny
    3cd6: b1 10        	lda	($10),y                 ; 0x2010 <exhaustZeroes+0x3e>
    3cd8: 85 2b        	sta	$2b                     ; 0x202b <exhaustZeroes+0x59>
    3cda: c8           	iny
    3cdb: b1 10        	lda	($10),y                 ; 0x2010 <exhaustZeroes+0x3e>
    3cdd: 85 2a        	sta	$2a                     ; 0x202a <exhaustZeroes+0x58>
    3cdf: c8           	iny
    3ce0: b1 10        	lda	($10),y                 ; 0x2010 <exhaustZeroes+0x3e>
    3ce2: 85 29        	sta	$29                     ; 0x2029 <exhaustZeroes+0x57>
    3ce4: c8           	iny
    3ce5: b1 10        	lda	($10),y                 ; 0x2010 <exhaustZeroes+0x3e>
    3ce7: 85 28        	sta	$28                     ; 0x2028 <exhaustZeroes+0x56>
    3ce9: fa           	plx
    3cea: 86 27        	stx	$27                     ; 0x2027 <exhaustZeroes+0x55>
    3cec: fa           	plx
    3ced: 86 26        	stx	$26                     ; 0x2026 <exhaustZeroes+0x54>
    3cef: fa           	plx
    3cf0: 86 25        	stx	$25                     ; 0x2025 <exhaustZeroes+0x53>
    3cf2: fa           	plx
    3cf3: 86 24        	stx	$24                     ; 0x2024 <exhaustZeroes+0x52>
    3cf5: 18           	clc
    3cf6: a5 10        	lda	$10                     ; 0x2010 <exhaustZeroes+0x3e>
    3cf8: 69 55        	adc	#$55
    3cfa: 85 10        	sta	$10                     ; 0x2010 <exhaustZeroes+0x3e>
    3cfc: a5 11        	lda	$11                     ; 0x2011 <exhaustZeroes+0x3f>
    3cfe: 69 00        	adc	#$0
    3d00: 85 11        	sta	$11                     ; 0x2011 <exhaustZeroes+0x3f>
    3d02: 60           	rts

00003d03 <putchar>:
    3d03: a4 24        	ldy	$24                     ; 0x2024 <exhaustZeroes+0x52>
    3d05: 5a           	phy
    3d06: a4 25        	ldy	$25                     ; 0x2025 <exhaustZeroes+0x53>
    3d08: 5a           	phy
    3d09: 86 12        	stx	$12                     ; 0x2012 <exhaustZeroes+0x40>
    3d0b: 85 25        	sta	$25                     ; 0x2025 <exhaustZeroes+0x53>
    3d0d: 85 62        	sta	$62                     ; 0x2062 <exhaustZeroes+0x90>
    3d0f: a6 01        	ldx	$1                      ; 0x2001 <exhaustZeroes+0x2f>
    3d11: 86 24        	stx	$24                     ; 0x2024 <exhaustZeroes+0x52>
    3d13: a6 61        	ldx	$61                     ; 0x2061 <exhaustZeroes+0x8f>
    3d15: a0 50        	ldy	#$50
    3d17: 8c 00 de     	sty	$de00                   ; 0xde00 <end_block9+0x9900>
    3d1a: 9c 01 de     	stz	$de01                   ; 0xde01 <end_block9+0x9901>
    3d1d: 8e 02 de     	stx	$de02                   ; 0xde02 <end_block9+0x9902>
    3d20: 9c 03 de     	stz	$de03                   ; 0xde03 <end_block9+0x9903>
    3d23: ad 10 de     	lda	$de10                   ; 0xde10 <end_block9+0x9910>
    3d26: ac 11 de     	ldy	$de11                   ; 0xde11 <end_block9+0x9911>
    3d29: ae 12 de     	ldx	$de12                   ; 0xde12 <end_block9+0x9912>
    3d2c: 86 1a        	stx	$1a                     ; 0x201a <exhaustZeroes+0x48>
    3d2e: ae 13 de     	ldx	$de13                   ; 0xde13 <end_block9+0x9913>
    3d31: 86 1b        	stx	$1b                     ; 0x201b <exhaustZeroes+0x49>
    3d33: 9c 08 de     	stz	$de08                   ; 0xde08 <end_block9+0x9908>
    3d36: a2 c0        	ldx	#$c0
    3d38: 8e 09 de     	stx	$de09                   ; 0xde09 <end_block9+0x9909>
    3d3b: 9c 0a de     	stz	$de0a                   ; 0xde0a <end_block9+0x990a>
    3d3e: 9c 0b de     	stz	$de0b                   ; 0xde0b <end_block9+0x990b>
    3d41: 8d 0c de     	sta	$de0c                   ; 0xde0c <end_block9+0x990c>
    3d44: 8c 0d de     	sty	$de0d                   ; 0xde0d <end_block9+0x990d>
    3d47: 64 13        	stz	$13                     ; 0x2013 <exhaustZeroes+0x41>
    3d49: a2 00        	ldx	#$0
    3d4b: 86 14        	stx	$14                     ; 0x2014 <exhaustZeroes+0x42>
    3d4d: a2 c0        	ldx	#$c0
    3d4f: 86 15        	stx	$15                     ; 0x2015 <exhaustZeroes+0x43>
    3d51: a2 11        	ldx	#$11
    3d53: 86 16        	stx	$16                     ; 0x2016 <exhaustZeroes+0x44>
    3d55: a2 c9        	ldx	#$c9
    3d57: 86 17        	stx	$17                     ; 0x2017 <exhaustZeroes+0x45>
    3d59: a2 10        	ldx	#$10
    3d5b: 86 18        	stx	$18                     ; 0x2018 <exhaustZeroes+0x46>
    3d5d: a2 c9        	ldx	#$c9
    3d5f: 86 19        	stx	$19                     ; 0x2019 <exhaustZeroes+0x47>
    3d61: a6 1a        	ldx	$1a                     ; 0x201a <exhaustZeroes+0x48>
    3d63: 8e 0e de     	stx	$de0e                   ; 0xde0e <end_block9+0x990e>
    3d66: a6 1b        	ldx	$1b                     ; 0x201b <exhaustZeroes+0x49>
    3d68: 8e 0f de     	stx	$de0f                   ; 0xde0f <end_block9+0x990f>
    3d6b: ad 18 de     	lda	$de18                   ; 0xde18 <end_block9+0x9918>
    3d6e: ac 19 de     	ldy	$de19                   ; 0xde19 <end_block9+0x9919>
    3d71: ae 1a de     	ldx	$de1a                   ; 0xde1a <end_block9+0x991a>
    3d74: ae 1b de     	ldx	$de1b                   ; 0xde1b <end_block9+0x991b>
    3d77: 85 1c        	sta	$1c                     ; 0x201c <exhaustZeroes+0x4a>
    3d79: 84 1d        	sty	$1d                     ; 0x201d <exhaustZeroes+0x4b>
    3d7b: 64 1a        	stz	$1a                     ; 0x201a <exhaustZeroes+0x48>
    3d7d: 80 13        	bra	$3d92 <putchar+0x8f>
    3d7f: a5 1c        	lda	$1c                     ; 0x201c <exhaustZeroes+0x4a>
    3d81: 18           	clc
    3d82: 69 50        	adc	#$50
    3d84: 85 1c        	sta	$1c                     ; 0x201c <exhaustZeroes+0x4a>
    3d86: a5 1d        	lda	$1d                     ; 0x201d <exhaustZeroes+0x4b>
    3d88: 69 00        	adc	#$0
    3d8a: 85 1d        	sta	$1d                     ; 0x201d <exhaustZeroes+0x4b>
    3d8c: e6 13        	inc	$13                     ; 0x2013 <exhaustZeroes+0x41>
    3d8e: d0 02        	bne	$3d92 <putchar+0x8f>
    3d90: e6 1a        	inc	$1a                     ; 0x201a <exhaustZeroes+0x48>
    3d92: a9 62        	lda	#$62
    3d94: 18           	clc
    3d95: 65 13        	adc	$13                     ; 0x2013 <exhaustZeroes+0x41>
    3d97: 85 1e        	sta	$1e                     ; 0x201e <exhaustZeroes+0x4c>
    3d99: a9 00        	lda	#$0
    3d9b: 65 1a        	adc	$1a                     ; 0x201a <exhaustZeroes+0x48>
    3d9d: 85 1f        	sta	$1f                     ; 0x201f <exhaustZeroes+0x4d>
    3d9f: b2 1e        	lda	($1e)                   ; 0x201e <exhaustZeroes+0x4c>
    3da1: c9 0a        	cmp	#$a
    3da3: f0 26        	beq	$3dcb <putchar+0xc8>
    3da5: c9 0d        	cmp	#$d
    3da7: f0 22        	beq	$3dcb <putchar+0xc8>
    3da9: aa           	tax
    3daa: d0 03        	bne	$3daf <putchar+0xac>
    3dac: 4c b0 3e     	jmp	$3eb0 <putchar+0x1ad>
    3daf: a2 03        	ldx	#$3
    3db1: 86 01        	stx	$1                      ; 0x2001 <exhaustZeroes+0x2f>
    3db3: a4 60        	ldy	$60                     ; 0x2060 <exhaustZeroes+0x8e>
    3db5: a9 f0        	lda	#$f0
    3db7: 91 1c        	sta	($1c),y                 ; 0x201c <exhaustZeroes+0x4a>
    3db9: ca           	dex
    3dba: 86 01        	stx	$1                      ; 0x2001 <exhaustZeroes+0x2f>
    3dbc: b2 1e        	lda	($1e)                   ; 0x201e <exhaustZeroes+0x4c>
    3dbe: a4 60        	ldy	$60                     ; 0x2060 <exhaustZeroes+0x8e>
    3dc0: 91 1c        	sta	($1c),y                 ; 0x201c <exhaustZeroes+0x4a>
    3dc2: a6 60        	ldx	$60                     ; 0x2060 <exhaustZeroes+0x8e>
    3dc4: e8           	inx
    3dc5: e6 60        	inc	$60                     ; 0x2060 <exhaustZeroes+0x8e>
    3dc7: e0 50        	cpx	#$50
    3dc9: d0 c1        	bne	$3d8c <putchar+0x89>
    3dcb: 64 60        	stz	$60                     ; 0x2060 <exhaustZeroes+0x8e>
    3dcd: a6 61        	ldx	$61                     ; 0x2061 <exhaustZeroes+0x8f>
    3dcf: e8           	inx
    3dd0: e6 61        	inc	$61                     ; 0x2061 <exhaustZeroes+0x8f>
    3dd2: e0 1e        	cpx	#$1e
    3dd4: f0 03        	beq	$3dd9 <putchar+0xd6>
    3dd6: 4c 7f 3d     	jmp	$3d7f <putchar+0x7c>
    3dd9: a2 03        	ldx	#$3
    3ddb: 86 01        	stx	$1                      ; 0x2001 <exhaustZeroes+0x2f>
    3ddd: a2 01        	ldx	#$1
    3ddf: 86 1b        	stx	$1b                     ; 0x201b <exhaustZeroes+0x49>
    3de1: a2 09        	ldx	#$9
    3de3: a0 10        	ldy	#$10
    3de5: a9 00        	lda	#$0
    3de7: 85 1c        	sta	$1c                     ; 0x201c <exhaustZeroes+0x4a>
    3de9: a9 c0        	lda	#$c0
    3deb: 85 1d        	sta	$1d                     ; 0x201d <exhaustZeroes+0x4b>
    3ded: 84 1e        	sty	$1e                     ; 0x201e <exhaustZeroes+0x4c>
    3def: a0 50        	ldy	#$50
    3df1: b1 1c        	lda	($1c),y                 ; 0x201c <exhaustZeroes+0x4a>
    3df3: 92 1c        	sta	($1c)                   ; 0x201c <exhaustZeroes+0x4a>
    3df5: a0 ff        	ldy	#$ff
    3df7: c6 1e        	dec	$1e                     ; 0x201e <exhaustZeroes+0x4c>
    3df9: c4 1e        	cpy	$1e                     ; 0x201e <exhaustZeroes+0x4c>
    3dfb: d0 01        	bne	$3dfe <putchar+0xfb>
    3dfd: ca           	dex
    3dfe: e6 1c        	inc	$1c                     ; 0x201c <exhaustZeroes+0x4a>
    3e00: d0 02        	bne	$3e04 <putchar+0x101>
    3e02: e6 1d        	inc	$1d                     ; 0x201d <exhaustZeroes+0x4b>
    3e04: 8a           	txa
    3e05: d0 e8        	bne	$3def <putchar+0xec>
    3e07: a5 1e        	lda	$1e                     ; 0x201e <exhaustZeroes+0x4c>
    3e09: d0 e4        	bne	$3def <putchar+0xec>
    3e0b: a2 02        	ldx	#$2
    3e0d: 86 01        	stx	$1                      ; 0x2001 <exhaustZeroes+0x2f>
    3e0f: a2 00        	ldx	#$0
    3e11: a5 1b        	lda	$1b                     ; 0x201b <exhaustZeroes+0x49>
    3e13: d0 ca        	bne	$3ddf <putchar+0xdc>
    3e15: a2 03        	ldx	#$3
    3e17: 86 01        	stx	$1                      ; 0x2001 <exhaustZeroes+0x2f>
    3e19: a2 50        	ldx	#$50
    3e1b: a0 11        	ldy	#$11
    3e1d: 84 1c        	sty	$1c                     ; 0x201c <exhaustZeroes+0x4a>
    3e1f: a0 c9        	ldy	#$c9
    3e21: 84 1d        	sty	$1d                     ; 0x201d <exhaustZeroes+0x4b>
    3e23: a0 10        	ldy	#$10
    3e25: 84 1e        	sty	$1e                     ; 0x201e <exhaustZeroes+0x4c>
    3e27: a0 c9        	ldy	#$c9
    3e29: 84 1f        	sty	$1f                     ; 0x201f <exhaustZeroes+0x4d>
    3e2b: a9 f0        	lda	#$f0
    3e2d: a4 1c        	ldy	$1c                     ; 0x201c <exhaustZeroes+0x4a>
    3e2f: 84 22        	sty	$22                     ; 0x2022 <exhaustZeroes+0x50>
    3e31: a4 1d        	ldy	$1d                     ; 0x201d <exhaustZeroes+0x4b>
    3e33: 84 23        	sty	$23                     ; 0x2023 <exhaustZeroes+0x51>
    3e35: 92 1e        	sta	($1e)                   ; 0x201e <exhaustZeroes+0x4c>
    3e37: e6 1c        	inc	$1c                     ; 0x201c <exhaustZeroes+0x4a>
    3e39: d0 02        	bne	$3e3d <putchar+0x13a>
    3e3b: e6 1d        	inc	$1d                     ; 0x201d <exhaustZeroes+0x4b>
    3e3d: ca           	dex
    3e3e: a4 22        	ldy	$22                     ; 0x2022 <exhaustZeroes+0x50>
    3e40: 84 1e        	sty	$1e                     ; 0x201e <exhaustZeroes+0x4c>
    3e42: a4 23        	ldy	$23                     ; 0x2023 <exhaustZeroes+0x51>
    3e44: 84 1f        	sty	$1f                     ; 0x201f <exhaustZeroes+0x4d>
    3e46: e0 00        	cpx	#$0
    3e48: d0 e3        	bne	$3e2d <putchar+0x12a>
    3e4a: a2 02        	ldx	#$2
    3e4c: 86 01        	stx	$1                      ; 0x2001 <exhaustZeroes+0x2f>
    3e4e: a2 50        	ldx	#$50
    3e50: a0 11        	ldy	#$11
    3e52: 84 1c        	sty	$1c                     ; 0x201c <exhaustZeroes+0x4a>
    3e54: a0 c9        	ldy	#$c9
    3e56: 84 1d        	sty	$1d                     ; 0x201d <exhaustZeroes+0x4b>
    3e58: a0 10        	ldy	#$10
    3e5a: 84 1e        	sty	$1e                     ; 0x201e <exhaustZeroes+0x4c>
    3e5c: a0 c9        	ldy	#$c9
    3e5e: 84 1f        	sty	$1f                     ; 0x201f <exhaustZeroes+0x4d>
    3e60: a9 20        	lda	#$20
    3e62: a4 1c        	ldy	$1c                     ; 0x201c <exhaustZeroes+0x4a>
    3e64: 84 22        	sty	$22                     ; 0x2022 <exhaustZeroes+0x50>
    3e66: a4 1d        	ldy	$1d                     ; 0x201d <exhaustZeroes+0x4b>
    3e68: 84 23        	sty	$23                     ; 0x2023 <exhaustZeroes+0x51>
    3e6a: 92 1e        	sta	($1e)                   ; 0x201e <exhaustZeroes+0x4c>
    3e6c: e6 1c        	inc	$1c                     ; 0x201c <exhaustZeroes+0x4a>
    3e6e: d0 02        	bne	$3e72 <putchar+0x16f>
    3e70: e6 1d        	inc	$1d                     ; 0x201d <exhaustZeroes+0x4b>
    3e72: ca           	dex
    3e73: a4 22        	ldy	$22                     ; 0x2022 <exhaustZeroes+0x50>
    3e75: 84 1e        	sty	$1e                     ; 0x201e <exhaustZeroes+0x4c>
    3e77: a4 23        	ldy	$23                     ; 0x2023 <exhaustZeroes+0x51>
    3e79: 84 1f        	sty	$1f                     ; 0x201f <exhaustZeroes+0x4d>
    3e7b: e0 00        	cpx	#$0
    3e7d: d0 e3        	bne	$3e62 <putchar+0x15f>
    3e7f: c6 61        	dec	$61                     ; 0x2061 <exhaustZeroes+0x8f>
    3e81: 9c 08 de     	stz	$de08                   ; 0xde08 <end_block9+0x9908>
    3e84: a2 c0        	ldx	#$c0
    3e86: 8e 09 de     	stx	$de09                   ; 0xde09 <end_block9+0x9909>
    3e89: 9c 0a de     	stz	$de0a                   ; 0xde0a <end_block9+0x990a>
    3e8c: 9c 0b de     	stz	$de0b                   ; 0xde0b <end_block9+0x990b>
    3e8f: a2 1d        	ldx	#$1d
    3e91: 8e 0c de     	stx	$de0c                   ; 0xde0c <end_block9+0x990c>
    3e94: 9c 0d de     	stz	$de0d                   ; 0xde0d <end_block9+0x990d>
    3e97: 9c 0e de     	stz	$de0e                   ; 0xde0e <end_block9+0x990e>
    3e9a: 9c 0f de     	stz	$de0f                   ; 0xde0f <end_block9+0x990f>
    3e9d: ad 18 de     	lda	$de18                   ; 0xde18 <end_block9+0x9918>
    3ea0: ac 19 de     	ldy	$de19                   ; 0xde19 <end_block9+0x9919>
    3ea3: ae 1a de     	ldx	$de1a                   ; 0xde1a <end_block9+0x991a>
    3ea6: ae 1b de     	ldx	$de1b                   ; 0xde1b <end_block9+0x991b>
    3ea9: 85 1c        	sta	$1c                     ; 0x201c <exhaustZeroes+0x4a>
    3eab: 84 1d        	sty	$1d                     ; 0x201d <exhaustZeroes+0x4b>
    3ead: 4c 8c 3d     	jmp	$3d8c <putchar+0x89>
    3eb0: a6 24        	ldx	$24                     ; 0x2024 <exhaustZeroes+0x52>
    3eb2: 86 01        	stx	$1                      ; 0x2001 <exhaustZeroes+0x2f>
    3eb4: a6 60        	ldx	$60                     ; 0x2060 <exhaustZeroes+0x8e>
    3eb6: a4 61        	ldy	$61                     ; 0x2061 <exhaustZeroes+0x8f>
    3eb8: 8e 14 d0     	stx	$d014                   ; 0xd014 <end_block9+0x8b14>
    3ebb: 9c 15 d0     	stz	$d015                   ; 0xd015 <end_block9+0x8b15>
    3ebe: 84 61        	sty	$61                     ; 0x2061 <exhaustZeroes+0x8f>
    3ec0: 8c 16 d0     	sty	$d016                   ; 0xd016 <end_block9+0x8b16>
    3ec3: 9c 17 d0     	stz	$d017                   ; 0xd017 <end_block9+0x8b17>
    3ec6: a6 12        	ldx	$12                     ; 0x2012 <exhaustZeroes+0x40>
    3ec8: a5 25        	lda	$25                     ; 0x2025 <exhaustZeroes+0x53>
    3eca: 7a           	ply
    3ecb: 84 25        	sty	$25                     ; 0x2025 <exhaustZeroes+0x53>
    3ecd: 7a           	ply
    3ece: 84 24        	sty	$24                     ; 0x2024 <exhaustZeroes+0x52>
    3ed0: 60           	rts

00003ed1 <malloc>:
    3ed1: 48           	pha
    3ed2: 18           	clc
    3ed3: a5 10        	lda	$10                     ; 0x2010 <exhaustZeroes+0x3e>
    3ed5: 69 f9        	adc	#$f9
    3ed7: 85 10        	sta	$10                     ; 0x2010 <exhaustZeroes+0x3e>
    3ed9: a5 11        	lda	$11                     ; 0x2011 <exhaustZeroes+0x3f>
    3edb: 69 ff        	adc	#$ff
    3edd: 85 11        	sta	$11                     ; 0x2011 <exhaustZeroes+0x3f>
    3edf: 68           	pla
    3ee0: a4 24        	ldy	$24                     ; 0x2024 <exhaustZeroes+0x52>
    3ee2: 5a           	phy
    3ee3: a4 25        	ldy	$25                     ; 0x2025 <exhaustZeroes+0x53>
    3ee5: 5a           	phy
    3ee6: a4 26        	ldy	$26                     ; 0x2026 <exhaustZeroes+0x54>
    3ee8: 5a           	phy
    3ee9: a8           	tay
    3eea: 8a           	txa
    3eeb: a2 00        	ldx	#$0
    3eed: 86 24        	stx	$24                     ; 0x2024 <exhaustZeroes+0x52>
    3eef: a2 00        	ldx	#$0
    3ef1: 86 25        	stx	$25                     ; 0x2025 <exhaustZeroes+0x53>
    3ef3: aa           	tax
    3ef4: d0 07        	bne	$3efd <malloc+0x2c>
    3ef6: c0 00        	cpy	#$0
    3ef8: d0 03        	bne	$3efd <malloc+0x2c>
    3efa: 4c a2 41     	jmp	$41a2 <malloc+0x2d1>
    3efd: 84 14        	sty	$14                     ; 0x2014 <exhaustZeroes+0x42>
    3eff: aa           	tax
    3f00: d0 11        	bne	$3f13 <malloc+0x42>
    3f02: a6 14        	ldx	$14                     ; 0x2014 <exhaustZeroes+0x42>
    3f04: e0 07        	cpx	#$7
    3f06: b0 0f        	bcs	$3f17 <malloc+0x46>
    3f08: a2 08        	ldx	#$8
    3f0a: 8a           	txa
    3f0b: a0 06        	ldy	#$6
    3f0d: 91 10        	sta	($10),y                 ; 0x2010 <exhaustZeroes+0x3e>
    3f0f: a9 00        	lda	#$0
    3f11: 80 33        	bra	$3f46 <malloc+0x75>
    3f13: c9 00        	cmp	#$0
    3f15: 90 f1        	bcc	$3f08 <malloc+0x37>
    3f17: a8           	tay
    3f18: a5 14        	lda	$14                     ; 0x2014 <exhaustZeroes+0x42>
    3f1a: 29 01        	and	#$1
    3f1c: a2 02        	ldx	#$2
    3f1e: 64 12        	stz	$12                     ; 0x2012 <exhaustZeroes+0x40>
    3f20: c9 00        	cmp	#$0
    3f22: f0 02        	beq	$3f26 <malloc+0x55>
    3f24: a2 03        	ldx	#$3
    3f26: 86 13        	stx	$13                     ; 0x2013 <exhaustZeroes+0x41>
    3f28: 18           	clc
    3f29: a5 14        	lda	$14                     ; 0x2014 <exhaustZeroes+0x42>
    3f2b: 65 13        	adc	$13                     ; 0x2013 <exhaustZeroes+0x41>
    3f2d: aa           	tax
    3f2e: 98           	tya
    3f2f: 65 12        	adc	$12                     ; 0x2012 <exhaustZeroes+0x40>
    3f31: 90 03        	bcc	$3f36 <malloc+0x65>
    3f33: 4c a2 41     	jmp	$41a2 <malloc+0x2d1>
    3f36: 48           	pha
    3f37: 8a           	txa
    3f38: a0 06        	ldy	#$6
    3f3a: 91 10        	sta	($10),y                 ; 0x2010 <exhaustZeroes+0x3e>
    3f3c: 68           	pla
    3f3d: d0 07        	bne	$3f46 <malloc+0x75>
    3f3f: e0 00        	cpx	#$0
    3f41: d0 03        	bne	$3f46 <malloc+0x75>
    3f43: 4c a2 41     	jmp	$41a2 <malloc+0x2d1>
    3f46: 85 26        	sta	$26                     ; 0x2026 <exhaustZeroes+0x54>
    3f48: a5 75        	lda	$75                     ; 0x2075 <exhaustZeroes+0xa3>
    3f4a: 29 01        	and	#$1
    3f4c: d0 21        	bne	$3f6f <malloc+0x9e>
    3f4e: a9 00        	lda	#$0
    3f50: a2 10        	ldx	#$10
    3f52: a0 00        	ldy	#$0
    3f54: 84 12        	sty	$12                     ; 0x2012 <exhaustZeroes+0x40>
    3f56: a0 45        	ldy	#$45
    3f58: 84 13        	sty	$13                     ; 0x2013 <exhaustZeroes+0x41>
    3f5a: 20 48 03     	jsr	$348 <_ZN12_GLOBAL__N_19FreeChunk6insertEPvj>
    3f5d: ae 01 45     	ldx	$4501                   ; 0x4501 <end_block9+0x1>
    3f60: a9 fe        	lda	#$fe
    3f62: 2d 00 45     	and	$4500                   ; 0x4500 <end_block9>
    3f65: 8d 00 45     	sta	$4500                   ; 0x4500 <end_block9>
    3f68: 8e 01 45     	stx	$4501                   ; 0x4501 <end_block9+0x1>
    3f6b: a2 01        	ldx	#$1
    3f6d: 86 75        	stx	$75                     ; 0x2075 <exhaustZeroes+0xa3>
    3f6f: a6 78        	ldx	$78                     ; 0x2078 <exhaustZeroes+0xa6>
    3f71: a5 79        	lda	$79                     ; 0x2079 <exhaustZeroes+0xa7>
    3f73: a0 00        	ldy	#$0
    3f75: 84 12        	sty	$12                     ; 0x2012 <exhaustZeroes+0x40>
    3f77: a0 00        	ldy	#$0
    3f79: 84 13        	sty	$13                     ; 0x2013 <exhaustZeroes+0x41>
    3f7b: 85 1c        	sta	$1c                     ; 0x201c <exhaustZeroes+0x4a>
    3f7d: c5 13        	cmp	$13                     ; 0x2013 <exhaustZeroes+0x41>
    3f7f: d0 07        	bne	$3f88 <malloc+0xb7>
    3f81: e4 12        	cpx	$12                     ; 0x2012 <exhaustZeroes+0x40>
    3f83: d0 03        	bne	$3f88 <malloc+0xb7>
    3f85: 4c a2 41     	jmp	$41a2 <malloc+0x2d1>
    3f88: a0 00        	ldy	#$0
    3f8a: 86 14        	stx	$14                     ; 0x2014 <exhaustZeroes+0x42>
    3f8c: a2 10        	ldx	#$10
    3f8e: 84 12        	sty	$12                     ; 0x2012 <exhaustZeroes+0x40>
    3f90: 86 13        	stx	$13                     ; 0x2013 <exhaustZeroes+0x41>
    3f92: a6 14        	ldx	$14                     ; 0x2014 <exhaustZeroes+0x42>
    3f94: 18           	clc
    3f95: a9 00        	lda	#$0
    3f97: 65 12        	adc	$12                     ; 0x2012 <exhaustZeroes+0x40>
    3f99: 85 14        	sta	$14                     ; 0x2014 <exhaustZeroes+0x42>
    3f9b: a9 45        	lda	#$45
    3f9d: 65 13        	adc	$13                     ; 0x2013 <exhaustZeroes+0x41>
    3f9f: 85 15        	sta	$15                     ; 0x2015 <exhaustZeroes+0x43>
    3fa1: 86 12        	stx	$12                     ; 0x2012 <exhaustZeroes+0x40>
    3fa3: a4 1c        	ldy	$1c                     ; 0x201c <exhaustZeroes+0x4a>
    3fa5: 84 13        	sty	$13                     ; 0x2013 <exhaustZeroes+0x41>
    3fa7: a0 01        	ldy	#$1
    3fa9: a5 26        	lda	$26                     ; 0x2026 <exhaustZeroes+0x54>
    3fab: 85 16        	sta	$16                     ; 0x2016 <exhaustZeroes+0x44>
    3fad: b1 12        	lda	($12),y                 ; 0x2012 <exhaustZeroes+0x40>
    3faf: 85 17        	sta	$17                     ; 0x2017 <exhaustZeroes+0x45>
    3fb1: a8           	tay
    3fb2: a9 fe        	lda	#$fe
    3fb4: 32 12        	and	($12)                   ; 0x2012 <exhaustZeroes+0x40>
    3fb6: 85 18        	sta	$18                     ; 0x2018 <exhaustZeroes+0x46>
    3fb8: c4 16        	cpy	$16                     ; 0x2016 <exhaustZeroes+0x44>
    3fba: d0 0e        	bne	$3fca <malloc+0xf9>
    3fbc: 48           	pha
    3fbd: a0 06        	ldy	#$6
    3fbf: b1 10        	lda	($10),y                 ; 0x2010 <exhaustZeroes+0x3e>
    3fc1: 85 19        	sta	$19                     ; 0x2019 <exhaustZeroes+0x47>
    3fc3: 68           	pla
    3fc4: c5 19        	cmp	$19                     ; 0x2019 <exhaustZeroes+0x47>
    3fc6: b0 33        	bcs	$3ffb <malloc+0x12a>
    3fc8: 80 04        	bra	$3fce <malloc+0xfd>
    3fca: c4 16        	cpy	$16                     ; 0x2016 <exhaustZeroes+0x44>
    3fcc: b0 2d        	bcs	$3ffb <malloc+0x12a>
    3fce: a5 12        	lda	$12                     ; 0x2012 <exhaustZeroes+0x40>
    3fd0: 18           	clc
    3fd1: 69 02        	adc	#$2
    3fd3: 85 18        	sta	$18                     ; 0x2018 <exhaustZeroes+0x46>
    3fd5: a5 13        	lda	$13                     ; 0x2013 <exhaustZeroes+0x41>
    3fd7: 69 00        	adc	#$0
    3fd9: 85 19        	sta	$19                     ; 0x2019 <exhaustZeroes+0x47>
    3fdb: a0 02        	ldy	#$2
    3fdd: b1 12        	lda	($12),y                 ; 0x2012 <exhaustZeroes+0x40>
    3fdf: 85 12        	sta	$12                     ; 0x2012 <exhaustZeroes+0x40>
    3fe1: 88           	dey
    3fe2: b1 18        	lda	($18),y                 ; 0x2018 <exhaustZeroes+0x46>
    3fe4: 85 13        	sta	$13                     ; 0x2013 <exhaustZeroes+0x41>
    3fe6: a5 12        	lda	$12                     ; 0x2012 <exhaustZeroes+0x40>
    3fe8: 85 18        	sta	$18                     ; 0x2018 <exhaustZeroes+0x46>
    3fea: a5 13        	lda	$13                     ; 0x2013 <exhaustZeroes+0x41>
    3fec: c5 1c        	cmp	$1c                     ; 0x201c <exhaustZeroes+0x4a>
    3fee: d0 bd        	bne	$3fad <malloc+0xdc>
    3ff0: 86 17        	stx	$17                     ; 0x2017 <exhaustZeroes+0x45>
    3ff2: a5 18        	lda	$18                     ; 0x2018 <exhaustZeroes+0x46>
    3ff4: c5 17        	cmp	$17                     ; 0x2017 <exhaustZeroes+0x45>
    3ff6: d0 b5        	bne	$3fad <malloc+0xdc>
    3ff8: 4c a2 41     	jmp	$41a2 <malloc+0x2d1>
    3ffb: a5 76        	lda	$76                     ; 0x2076 <exhaustZeroes+0xa4>
    3ffd: a4 77        	ldy	$77                     ; 0x2077 <exhaustZeroes+0xa5>
    3fff: 84 16        	sty	$16                     ; 0x2016 <exhaustZeroes+0x44>
    4001: 38           	sec
    4002: e5 18        	sbc	$18                     ; 0x2018 <exhaustZeroes+0x46>
    4004: a8           	tay
    4005: a5 16        	lda	$16                     ; 0x2016 <exhaustZeroes+0x44>
    4007: e5 17        	sbc	$17                     ; 0x2017 <exhaustZeroes+0x45>
    4009: 85 16        	sta	$16                     ; 0x2016 <exhaustZeroes+0x44>
    400b: 18           	clc
    400c: 98           	tya
    400d: 69 02        	adc	#$2
    400f: 85 17        	sta	$17                     ; 0x2017 <exhaustZeroes+0x45>
    4011: a5 16        	lda	$16                     ; 0x2016 <exhaustZeroes+0x44>
    4013: 69 00        	adc	#$0
    4015: a4 17        	ldy	$17                     ; 0x2017 <exhaustZeroes+0x45>
    4017: 84 76        	sty	$76                     ; 0x2076 <exhaustZeroes+0xa4>
    4019: 85 77        	sta	$77                     ; 0x2077 <exhaustZeroes+0xa5>
    401b: a0 02        	ldy	#$2
    401d: a5 12        	lda	$12                     ; 0x2012 <exhaustZeroes+0x40>
    401f: 18           	clc
    4020: 69 02        	adc	#$2
    4022: 85 24        	sta	$24                     ; 0x2024 <exhaustZeroes+0x52>
    4024: a5 13        	lda	$13                     ; 0x2013 <exhaustZeroes+0x41>
    4026: 69 00        	adc	#$0
    4028: 85 25        	sta	$25                     ; 0x2025 <exhaustZeroes+0x53>
    402a: b1 12        	lda	($12),y                 ; 0x2012 <exhaustZeroes+0x40>
    402c: 85 1a        	sta	$1a                     ; 0x201a <exhaustZeroes+0x48>
    402e: 88           	dey
    402f: b1 24        	lda	($24),y                 ; 0x2024 <exhaustZeroes+0x52>
    4031: 85 1d        	sta	$1d                     ; 0x201d <exhaustZeroes+0x4b>
    4033: c5 13        	cmp	$13                     ; 0x2013 <exhaustZeroes+0x41>
    4035: d0 15        	bne	$404c <malloc+0x17b>
    4037: a4 1a        	ldy	$1a                     ; 0x201a <exhaustZeroes+0x48>
    4039: c4 12        	cpy	$12                     ; 0x2012 <exhaustZeroes+0x40>
    403b: d0 0f        	bne	$404c <malloc+0x17b>
    403d: a6 26        	ldx	$26                     ; 0x2026 <exhaustZeroes+0x54>
    403f: 86 1b        	stx	$1b                     ; 0x201b <exhaustZeroes+0x49>
    4041: a2 00        	ldx	#$0
    4043: 86 16        	stx	$16                     ; 0x2016 <exhaustZeroes+0x44>
    4045: a2 00        	ldx	#$0
    4047: 86 17        	stx	$17                     ; 0x2017 <exhaustZeroes+0x45>
    4049: 4c c8 40     	jmp	$40c8 <malloc+0x1f7>
    404c: 18           	clc
    404d: a5 12        	lda	$12                     ; 0x2012 <exhaustZeroes+0x40>
    404f: 69 04        	adc	#$4
    4051: 85 16        	sta	$16                     ; 0x2016 <exhaustZeroes+0x44>
    4053: a5 13        	lda	$13                     ; 0x2013 <exhaustZeroes+0x41>
    4055: 69 00        	adc	#$0
    4057: 85 17        	sta	$17                     ; 0x2017 <exhaustZeroes+0x45>
    4059: a0 04        	ldy	#$4
    405b: b1 12        	lda	($12),y                 ; 0x2012 <exhaustZeroes+0x40>
    405d: 85 1f        	sta	$1f                     ; 0x201f <exhaustZeroes+0x4d>
    405f: 18           	clc
    4060: 69 02        	adc	#$2
    4062: 85 18        	sta	$18                     ; 0x2018 <exhaustZeroes+0x46>
    4064: a0 01        	ldy	#$1
    4066: b1 16        	lda	($16),y                 ; 0x2016 <exhaustZeroes+0x44>
    4068: 85 1e        	sta	$1e                     ; 0x201e <exhaustZeroes+0x4c>
    406a: 69 00        	adc	#$0
    406c: a4 18        	ldy	$18                     ; 0x2018 <exhaustZeroes+0x46>
    406e: 84 16        	sty	$16                     ; 0x2016 <exhaustZeroes+0x44>
    4070: 85 17        	sta	$17                     ; 0x2017 <exhaustZeroes+0x45>
    4072: a4 1f        	ldy	$1f                     ; 0x201f <exhaustZeroes+0x4d>
    4074: 84 18        	sty	$18                     ; 0x2018 <exhaustZeroes+0x46>
    4076: a4 1e        	ldy	$1e                     ; 0x201e <exhaustZeroes+0x4c>
    4078: 84 19        	sty	$19                     ; 0x2019 <exhaustZeroes+0x47>
    407a: a0 02        	ldy	#$2
    407c: a5 1a        	lda	$1a                     ; 0x201a <exhaustZeroes+0x48>
    407e: 91 18        	sta	($18),y                 ; 0x2018 <exhaustZeroes+0x46>
    4080: a5 1d        	lda	$1d                     ; 0x201d <exhaustZeroes+0x4b>
    4082: 88           	dey
    4083: 91 16        	sta	($16),y                 ; 0x2016 <exhaustZeroes+0x44>
    4085: 18           	clc
    4086: a5 12        	lda	$12                     ; 0x2012 <exhaustZeroes+0x40>
    4088: 69 02        	adc	#$2
    408a: 85 18        	sta	$18                     ; 0x2018 <exhaustZeroes+0x46>
    408c: a5 13        	lda	$13                     ; 0x2013 <exhaustZeroes+0x41>
    408e: 69 00        	adc	#$0
    4090: 85 19        	sta	$19                     ; 0x2019 <exhaustZeroes+0x47>
    4092: c8           	iny
    4093: b1 12        	lda	($12),y                 ; 0x2012 <exhaustZeroes+0x40>
    4095: 85 16        	sta	$16                     ; 0x2016 <exhaustZeroes+0x44>
    4097: 85 1a        	sta	$1a                     ; 0x201a <exhaustZeroes+0x48>
    4099: 88           	dey
    409a: b1 18        	lda	($18),y                 ; 0x2018 <exhaustZeroes+0x46>
    409c: 85 17        	sta	$17                     ; 0x2017 <exhaustZeroes+0x45>
    409e: 85 18        	sta	$18                     ; 0x2018 <exhaustZeroes+0x46>
    40a0: a0 04        	ldy	#$4
    40a2: a5 1f        	lda	$1f                     ; 0x201f <exhaustZeroes+0x4d>
    40a4: 91 16        	sta	($16),y                 ; 0x2016 <exhaustZeroes+0x44>
    40a6: 18           	clc
    40a7: a5 1a        	lda	$1a                     ; 0x201a <exhaustZeroes+0x48>
    40a9: 69 04        	adc	#$4
    40ab: a8           	tay
    40ac: a5 18        	lda	$18                     ; 0x2018 <exhaustZeroes+0x46>
    40ae: 69 00        	adc	#$0
    40b0: 84 18        	sty	$18                     ; 0x2018 <exhaustZeroes+0x46>
    40b2: 85 19        	sta	$19                     ; 0x2019 <exhaustZeroes+0x47>
    40b4: a5 1e        	lda	$1e                     ; 0x201e <exhaustZeroes+0x4c>
    40b6: a0 01        	ldy	#$1
    40b8: 91 18        	sta	($18),y                 ; 0x2018 <exhaustZeroes+0x46>
    40ba: a4 26        	ldy	$26                     ; 0x2026 <exhaustZeroes+0x54>
    40bc: 84 1b        	sty	$1b                     ; 0x201b <exhaustZeroes+0x49>
    40be: a4 1c        	ldy	$1c                     ; 0x201c <exhaustZeroes+0x4a>
    40c0: c4 13        	cpy	$13                     ; 0x2013 <exhaustZeroes+0x41>
    40c2: d0 0c        	bne	$40d0 <malloc+0x1ff>
    40c4: e4 12        	cpx	$12                     ; 0x2012 <exhaustZeroes+0x40>
    40c6: d0 08        	bne	$40d0 <malloc+0x1ff>
    40c8: a6 16        	ldx	$16                     ; 0x2016 <exhaustZeroes+0x44>
    40ca: a4 17        	ldy	$17                     ; 0x2017 <exhaustZeroes+0x45>
    40cc: 86 78        	stx	$78                     ; 0x2078 <exhaustZeroes+0xa6>
    40ce: 84 79        	sty	$79                     ; 0x2079 <exhaustZeroes+0xa7>
    40d0: a0 01        	ldy	#$1
    40d2: b1 12        	lda	($12),y                 ; 0x2012 <exhaustZeroes+0x40>
    40d4: aa           	tax
    40d5: a9 fe        	lda	#$fe
    40d7: 32 12        	and	($12)                   ; 0x2012 <exhaustZeroes+0x40>
    40d9: 38           	sec
    40da: 48           	pha
    40db: a0 06        	ldy	#$6
    40dd: b1 10        	lda	($10),y                 ; 0x2010 <exhaustZeroes+0x3e>
    40df: 85 16        	sta	$16                     ; 0x2016 <exhaustZeroes+0x44>
    40e1: 68           	pla
    40e2: 85 17        	sta	$17                     ; 0x2017 <exhaustZeroes+0x45>
    40e4: e5 16        	sbc	$16                     ; 0x2016 <exhaustZeroes+0x44>
    40e6: a8           	tay
    40e7: 8a           	txa
    40e8: 86 18        	stx	$18                     ; 0x2018 <exhaustZeroes+0x46>
    40ea: e5 1b        	sbc	$1b                     ; 0x201b <exhaustZeroes+0x49>
    40ec: d0 05        	bne	$40f3 <malloc+0x222>
    40ee: aa           	tax
    40ef: c0 08        	cpy	#$8
    40f1: 80 03        	bra	$40f6 <malloc+0x225>
    40f3: aa           	tax
    40f4: c9 00        	cmp	#$0
    40f6: a5 18        	lda	$18                     ; 0x2018 <exhaustZeroes+0x46>
    40f8: 85 16        	sta	$16                     ; 0x2016 <exhaustZeroes+0x44>
    40fa: b0 03        	bcs	$40ff <malloc+0x22e>
    40fc: 4c 7b 41     	jmp	$417b <malloc+0x2aa>
    40ff: 5a           	phy
    4100: a5 24        	lda	$24                     ; 0x2024 <exhaustZeroes+0x52>
    4102: a0 02        	ldy	#$2
    4104: 91 10        	sta	($10),y                 ; 0x2010 <exhaustZeroes+0x3e>
    4106: a5 25        	lda	$25                     ; 0x2025 <exhaustZeroes+0x53>
    4108: c8           	iny
    4109: 91 10        	sta	($10),y                 ; 0x2010 <exhaustZeroes+0x3e>
    410b: a5 15        	lda	$15                     ; 0x2015 <exhaustZeroes+0x43>
    410d: a0 05        	ldy	#$5
    410f: 91 10        	sta	($10),y                 ; 0x2010 <exhaustZeroes+0x3e>
    4111: a5 14        	lda	$14                     ; 0x2014 <exhaustZeroes+0x42>
    4113: 88           	dey
    4114: 91 10        	sta	($10),y                 ; 0x2010 <exhaustZeroes+0x3e>
    4116: 7a           	ply
    4117: 18           	clc
    4118: 84 21        	sty	$21                     ; 0x2021 <exhaustZeroes+0x4f>
    411a: a0 06        	ldy	#$6
    411c: b1 10        	lda	($10),y                 ; 0x2010 <exhaustZeroes+0x3e>
    411e: 85 24        	sta	$24                     ; 0x2024 <exhaustZeroes+0x52>
    4120: 65 12        	adc	$12                     ; 0x2012 <exhaustZeroes+0x40>
    4122: 85 16        	sta	$16                     ; 0x2016 <exhaustZeroes+0x44>
    4124: a5 26        	lda	$26                     ; 0x2026 <exhaustZeroes+0x54>
    4126: 65 13        	adc	$13                     ; 0x2013 <exhaustZeroes+0x41>
    4128: 48           	pha
    4129: a5 12        	lda	$12                     ; 0x2012 <exhaustZeroes+0x40>
    412b: a0 00        	ldy	#$0
    412d: 91 10        	sta	($10),y                 ; 0x2010 <exhaustZeroes+0x3e>
    412f: a5 13        	lda	$13                     ; 0x2013 <exhaustZeroes+0x41>
    4131: c8           	iny
    4132: 91 10        	sta	($10),y                 ; 0x2010 <exhaustZeroes+0x3e>
    4134: a4 21        	ldy	$21                     ; 0x2021 <exhaustZeroes+0x4f>
    4136: 68           	pla
    4137: 5a           	phy
    4138: a4 16        	ldy	$16                     ; 0x2016 <exhaustZeroes+0x44>
    413a: 84 12        	sty	$12                     ; 0x2012 <exhaustZeroes+0x40>
    413c: 7a           	ply
    413d: 85 13        	sta	$13                     ; 0x2013 <exhaustZeroes+0x41>
    413f: 98           	tya
    4140: 20 48 03     	jsr	$348 <_ZN12_GLOBAL__N_19FreeChunk6insertEPvj>
    4143: a0 00        	ldy	#$0
    4145: b1 10        	lda	($10),y                 ; 0x2010 <exhaustZeroes+0x3e>
    4147: 85 12        	sta	$12                     ; 0x2012 <exhaustZeroes+0x40>
    4149: c8           	iny
    414a: b1 10        	lda	($10),y                 ; 0x2010 <exhaustZeroes+0x3e>
    414c: 85 13        	sta	$13                     ; 0x2013 <exhaustZeroes+0x41>
    414e: a5 24        	lda	$24                     ; 0x2024 <exhaustZeroes+0x52>
    4150: 29 fe        	and	#$fe
    4152: 85 14        	sta	$14                     ; 0x2014 <exhaustZeroes+0x42>
    4154: 98           	tya
    4155: 32 12        	and	($12)                   ; 0x2012 <exhaustZeroes+0x40>
    4157: 05 14        	ora	$14                     ; 0x2014 <exhaustZeroes+0x42>
    4159: 92 12        	sta	($12)                   ; 0x2012 <exhaustZeroes+0x40>
    415b: a5 26        	lda	$26                     ; 0x2026 <exhaustZeroes+0x54>
    415d: 91 12        	sta	($12),y                 ; 0x2012 <exhaustZeroes+0x40>
    415f: a6 14        	ldx	$14                     ; 0x2014 <exhaustZeroes+0x42>
    4161: 86 17        	stx	$17                     ; 0x2017 <exhaustZeroes+0x45>
    4163: 85 16        	sta	$16                     ; 0x2016 <exhaustZeroes+0x44>
    4165: a0 04        	ldy	#$4
    4167: b1 10        	lda	($10),y                 ; 0x2010 <exhaustZeroes+0x3e>
    4169: 85 14        	sta	$14                     ; 0x2014 <exhaustZeroes+0x42>
    416b: c8           	iny
    416c: b1 10        	lda	($10),y                 ; 0x2010 <exhaustZeroes+0x3e>
    416e: 85 15        	sta	$15                     ; 0x2015 <exhaustZeroes+0x43>
    4170: a0 02        	ldy	#$2
    4172: b1 10        	lda	($10),y                 ; 0x2010 <exhaustZeroes+0x3e>
    4174: 85 24        	sta	$24                     ; 0x2024 <exhaustZeroes+0x52>
    4176: c8           	iny
    4177: b1 10        	lda	($10),y                 ; 0x2010 <exhaustZeroes+0x3e>
    4179: 85 25        	sta	$25                     ; 0x2025 <exhaustZeroes+0x53>
    417b: a5 17        	lda	$17                     ; 0x2017 <exhaustZeroes+0x45>
    417d: 18           	clc
    417e: 65 12        	adc	$12                     ; 0x2012 <exhaustZeroes+0x40>
    4180: 85 12        	sta	$12                     ; 0x2012 <exhaustZeroes+0x40>
    4182: a5 13        	lda	$13                     ; 0x2013 <exhaustZeroes+0x41>
    4184: 65 16        	adc	$16                     ; 0x2016 <exhaustZeroes+0x44>
    4186: c5 15        	cmp	$15                     ; 0x2015 <exhaustZeroes+0x43>
    4188: d0 06        	bne	$4190 <malloc+0x2bf>
    418a: a6 12        	ldx	$12                     ; 0x2012 <exhaustZeroes+0x40>
    418c: e4 14        	cpx	$14                     ; 0x2014 <exhaustZeroes+0x42>
    418e: f0 12        	beq	$41a2 <malloc+0x2d1>
    4190: 85 13        	sta	$13                     ; 0x2013 <exhaustZeroes+0x41>
    4192: a0 01        	ldy	#$1
    4194: b1 12        	lda	($12),y                 ; 0x2012 <exhaustZeroes+0x40>
    4196: 85 14        	sta	$14                     ; 0x2014 <exhaustZeroes+0x42>
    4198: a9 fe        	lda	#$fe
    419a: 32 12        	and	($12)                   ; 0x2012 <exhaustZeroes+0x40>
    419c: 92 12        	sta	($12)                   ; 0x2012 <exhaustZeroes+0x40>
    419e: a5 14        	lda	$14                     ; 0x2014 <exhaustZeroes+0x42>
    41a0: 91 12        	sta	($12),y                 ; 0x2012 <exhaustZeroes+0x40>
    41a2: a6 24        	ldx	$24                     ; 0x2024 <exhaustZeroes+0x52>
    41a4: 86 12        	stx	$12                     ; 0x2012 <exhaustZeroes+0x40>
    41a6: a6 25        	ldx	$25                     ; 0x2025 <exhaustZeroes+0x53>
    41a8: 86 13        	stx	$13                     ; 0x2013 <exhaustZeroes+0x41>
    41aa: fa           	plx
    41ab: 86 26        	stx	$26                     ; 0x2026 <exhaustZeroes+0x54>
    41ad: fa           	plx
    41ae: 86 25        	stx	$25                     ; 0x2025 <exhaustZeroes+0x53>
    41b0: fa           	plx
    41b1: 86 24        	stx	$24                     ; 0x2024 <exhaustZeroes+0x52>
    41b3: 18           	clc
    41b4: a5 10        	lda	$10                     ; 0x2010 <exhaustZeroes+0x3e>
    41b6: 69 07        	adc	#$7
    41b8: 85 10        	sta	$10                     ; 0x2010 <exhaustZeroes+0x3e>
    41ba: a5 11        	lda	$11                     ; 0x2011 <exhaustZeroes+0x3f>
    41bc: 69 00        	adc	#$0
    41be: 85 11        	sta	$11                     ; 0x2011 <exhaustZeroes+0x3f>
    41c0: 60           	rts

000041c1 <memcpy>:
    41c1: a8           	tay
    41c2: 8a           	txa
    41c3: d0 03        	bne	$41c8 <memcpy+0x7>
    41c5: 98           	tya
    41c6: f0 24        	beq	$41ec <memcpy+0x2b>
    41c8: a5 12        	lda	$12                     ; 0x2012 <exhaustZeroes+0x40>
    41ca: 85 16        	sta	$16                     ; 0x2016 <exhaustZeroes+0x44>
    41cc: a5 13        	lda	$13                     ; 0x2013 <exhaustZeroes+0x41>
    41ce: 85 17        	sta	$17                     ; 0x2017 <exhaustZeroes+0x45>
    41d0: b2 14        	lda	($14)                   ; 0x2014 <exhaustZeroes+0x42>
    41d2: 92 16        	sta	($16)                   ; 0x2016 <exhaustZeroes+0x44>
    41d4: e6 16        	inc	$16                     ; 0x2016 <exhaustZeroes+0x44>
    41d6: d0 02        	bne	$41da <memcpy+0x19>
    41d8: e6 17        	inc	$17                     ; 0x2017 <exhaustZeroes+0x45>
    41da: e6 14        	inc	$14                     ; 0x2014 <exhaustZeroes+0x42>
    41dc: d0 02        	bne	$41e0 <memcpy+0x1f>
    41de: e6 15        	inc	$15                     ; 0x2015 <exhaustZeroes+0x43>
    41e0: 88           	dey
    41e1: c0 ff        	cpy	#$ff
    41e3: d0 01        	bne	$41e6 <memcpy+0x25>
    41e5: ca           	dex
    41e6: 8a           	txa
    41e7: d0 e7        	bne	$41d0 <memcpy+0xf>
    41e9: 98           	tya
    41ea: d0 e4        	bne	$41d0 <memcpy+0xf>
    41ec: 60           	rts

000041ed <__memset>:
    41ed: a4 14        	ldy	$14                     ; 0x2014 <exhaustZeroes+0x42>
    41ef: d0 04        	bne	$41f5 <__memset+0x8>
    41f1: e0 00        	cpx	#$0
    41f3: f0 17        	beq	$420c <__memset+0x1f>
    41f5: 92 12        	sta	($12)                   ; 0x2012 <exhaustZeroes+0x40>
    41f7: e6 12        	inc	$12                     ; 0x2012 <exhaustZeroes+0x40>
    41f9: d0 02        	bne	$41fd <__memset+0x10>
    41fb: e6 13        	inc	$13                     ; 0x2013 <exhaustZeroes+0x41>
    41fd: ca           	dex
    41fe: e0 ff        	cpx	#$ff
    4200: d0 02        	bne	$4204 <__memset+0x17>
    4202: c6 14        	dec	$14                     ; 0x2014 <exhaustZeroes+0x42>
    4204: a4 14        	ldy	$14                     ; 0x2014 <exhaustZeroes+0x42>
    4206: d0 ed        	bne	$41f5 <__memset+0x8>
    4208: e0 00        	cpx	#$0
    420a: d0 e9        	bne	$41f5 <__memset+0x8>
    420c: 60           	rts

0000420d <__mulhi3>:
    420d: a4 13        	ldy	$13                     ; 0x2013 <exhaustZeroes+0x41>
    420f: d0 04        	bne	$4215 <__mulhi3+0x8>
    4211: a4 12        	ldy	$12                     ; 0x2012 <exhaustZeroes+0x40>
    4213: f0 25        	beq	$423a <__mulhi3+0x2d>
    4215: 85 14        	sta	$14                     ; 0x2014 <exhaustZeroes+0x42>
    4217: 86 15        	stx	$15                     ; 0x2015 <exhaustZeroes+0x43>
    4219: a0 00        	ldy	#$0
    421b: 98           	tya
    421c: 46 13        	lsr	$13                     ; 0x2013 <exhaustZeroes+0x41>
    421e: 66 12        	ror	$12                     ; 0x2012 <exhaustZeroes+0x40>
    4220: 90 09        	bcc	$422b <__mulhi3+0x1e>
    4222: aa           	tax
    4223: 98           	tya
    4224: 18           	clc
    4225: 65 14        	adc	$14                     ; 0x2014 <exhaustZeroes+0x42>
    4227: a8           	tay
    4228: 8a           	txa
    4229: 65 15        	adc	$15                     ; 0x2015 <exhaustZeroes+0x43>
    422b: 06 14        	asl	$14                     ; 0x2014 <exhaustZeroes+0x42>
    422d: 26 15        	rol	$15                     ; 0x2015 <exhaustZeroes+0x43>
    422f: a6 13        	ldx	$13                     ; 0x2013 <exhaustZeroes+0x41>
    4231: d0 e9        	bne	$421c <__mulhi3+0xf>
    4233: a6 12        	ldx	$12                     ; 0x2012 <exhaustZeroes+0x40>
    4235: d0 e5        	bne	$421c <__mulhi3+0xf>
    4237: aa           	tax
    4238: 98           	tya
    4239: 60           	rts
    423a: a0 00        	ldy	#$0
    423c: 98           	tya
    423d: 80 f8        	bra	$4237 <__mulhi3+0x2a>

0000423f <__mulsi3>:
    423f: a4 17        	ldy	$17                     ; 0x2017 <exhaustZeroes+0x45>
    4241: d0 0f        	bne	$4252 <__mulsi3+0x13>
    4243: a4 16        	ldy	$16                     ; 0x2016 <exhaustZeroes+0x44>
    4245: d0 0b        	bne	$4252 <__mulsi3+0x13>
    4247: a4 15        	ldy	$15                     ; 0x2015 <exhaustZeroes+0x43>
    4249: d0 07        	bne	$4252 <__mulsi3+0x13>
    424b: a4 14        	ldy	$14                     ; 0x2014 <exhaustZeroes+0x42>
    424d: d0 03        	bne	$4252 <__mulsi3+0x13>
    424f: 4c a6 42     	jmp	$42a6 <__mulsi3+0x67>
    4252: 85 18        	sta	$18                     ; 0x2018 <exhaustZeroes+0x46>
    4254: 86 19        	stx	$19                     ; 0x2019 <exhaustZeroes+0x47>
    4256: a0 00        	ldy	#$0
    4258: a2 00        	ldx	#$0
    425a: 64 1a        	stz	$1a                     ; 0x201a <exhaustZeroes+0x48>
    425c: 98           	tya
    425d: 46 17        	lsr	$17                     ; 0x2017 <exhaustZeroes+0x45>
    425f: 66 16        	ror	$16                     ; 0x2016 <exhaustZeroes+0x44>
    4261: 66 15        	ror	$15                     ; 0x2015 <exhaustZeroes+0x43>
    4263: 66 14        	ror	$14                     ; 0x2014 <exhaustZeroes+0x42>
    4265: 90 15        	bcc	$427c <__mulsi3+0x3d>
    4267: 85 1b        	sta	$1b                     ; 0x201b <exhaustZeroes+0x49>
    4269: 98           	tya
    426a: 18           	clc
    426b: 65 18        	adc	$18                     ; 0x2018 <exhaustZeroes+0x46>
    426d: a8           	tay
    426e: 8a           	txa
    426f: 65 19        	adc	$19                     ; 0x2019 <exhaustZeroes+0x47>
    4271: aa           	tax
    4272: a5 1a        	lda	$1a                     ; 0x201a <exhaustZeroes+0x48>
    4274: 65 12        	adc	$12                     ; 0x2012 <exhaustZeroes+0x40>
    4276: 85 1a        	sta	$1a                     ; 0x201a <exhaustZeroes+0x48>
    4278: a5 1b        	lda	$1b                     ; 0x201b <exhaustZeroes+0x49>
    427a: 65 13        	adc	$13                     ; 0x2013 <exhaustZeroes+0x41>
    427c: 06 18        	asl	$18                     ; 0x2018 <exhaustZeroes+0x46>
    427e: 26 19        	rol	$19                     ; 0x2019 <exhaustZeroes+0x47>
    4280: 26 12        	rol	$12                     ; 0x2012 <exhaustZeroes+0x40>
    4282: 26 13        	rol	$13                     ; 0x2013 <exhaustZeroes+0x41>
    4284: e6 17        	inc	$17                     ; 0x2017 <exhaustZeroes+0x45>
    4286: c6 17        	dec	$17                     ; 0x2017 <exhaustZeroes+0x45>
    4288: d0 d3        	bne	$425d <__mulsi3+0x1e>
    428a: e6 16        	inc	$16                     ; 0x2016 <exhaustZeroes+0x44>
    428c: c6 16        	dec	$16                     ; 0x2016 <exhaustZeroes+0x44>
    428e: d0 cd        	bne	$425d <__mulsi3+0x1e>
    4290: e6 15        	inc	$15                     ; 0x2015 <exhaustZeroes+0x43>
    4292: c6 15        	dec	$15                     ; 0x2015 <exhaustZeroes+0x43>
    4294: d0 c7        	bne	$425d <__mulsi3+0x1e>
    4296: e6 14        	inc	$14                     ; 0x2014 <exhaustZeroes+0x42>
    4298: c6 14        	dec	$14                     ; 0x2014 <exhaustZeroes+0x42>
    429a: d0 c1        	bne	$425d <__mulsi3+0x1e>
    429c: 5a           	phy
    429d: a4 1a        	ldy	$1a                     ; 0x201a <exhaustZeroes+0x48>
    429f: 84 12        	sty	$12                     ; 0x2012 <exhaustZeroes+0x40>
    42a1: 7a           	ply
    42a2: 85 13        	sta	$13                     ; 0x2013 <exhaustZeroes+0x41>
    42a4: 98           	tya
    42a5: 60           	rts
    42a6: a0 00        	ldy	#$0
    42a8: a2 00        	ldx	#$0
    42aa: 64 1a        	stz	$1a                     ; 0x201a <exhaustZeroes+0x48>
    42ac: 98           	tya
    42ad: 80 ed        	bra	$429c <__mulsi3+0x5d>

000042af <__udivsi3>:
    42af: 48           	pha
    42b0: 18           	clc
    42b1: a5 10        	lda	$10                     ; 0x2010 <exhaustZeroes+0x3e>
    42b3: 69 ff        	adc	#$ff
    42b5: 85 10        	sta	$10                     ; 0x2010 <exhaustZeroes+0x3e>
    42b7: a5 11        	lda	$11                     ; 0x2011 <exhaustZeroes+0x3f>
    42b9: 69 ff        	adc	#$ff
    42bb: 85 11        	sta	$11                     ; 0x2011 <exhaustZeroes+0x3f>
    42bd: 68           	pla
    42be: 64 18        	stz	$18                     ; 0x2018 <exhaustZeroes+0x46>
    42c0: a4 17        	ldy	$17                     ; 0x2017 <exhaustZeroes+0x45>
    42c2: d0 0c        	bne	$42d0 <__udivsi3+0x21>
    42c4: a4 16        	ldy	$16                     ; 0x2016 <exhaustZeroes+0x44>
    42c6: d0 08        	bne	$42d0 <__udivsi3+0x21>
    42c8: a4 15        	ldy	$15                     ; 0x2015 <exhaustZeroes+0x43>
    42ca: d0 04        	bne	$42d0 <__udivsi3+0x21>
    42cc: a4 14        	ldy	$14                     ; 0x2014 <exhaustZeroes+0x42>
    42ce: f0 27        	beq	$42f7 <__udivsi3+0x48>
    42d0: 86 1e        	stx	$1e                     ; 0x201e <exhaustZeroes+0x4c>
    42d2: a6 12        	ldx	$12                     ; 0x2012 <exhaustZeroes+0x40>
    42d4: 86 1f        	stx	$1f                     ; 0x201f <exhaustZeroes+0x4d>
    42d6: a6 13        	ldx	$13                     ; 0x2013 <exhaustZeroes+0x41>
    42d8: 86 22        	stx	$22                     ; 0x2022 <exhaustZeroes+0x50>
    42da: e4 17        	cpx	$17                     ; 0x2017 <exhaustZeroes+0x45>
    42dc: d0 15        	bne	$42f3 <__udivsi3+0x44>
    42de: a6 12        	ldx	$12                     ; 0x2012 <exhaustZeroes+0x40>
    42e0: e4 16        	cpx	$16                     ; 0x2016 <exhaustZeroes+0x44>
    42e2: d0 1d        	bne	$4301 <__udivsi3+0x52>
    42e4: a6 1e        	ldx	$1e                     ; 0x201e <exhaustZeroes+0x4c>
    42e6: e4 15        	cpx	$15                     ; 0x2015 <exhaustZeroes+0x43>
    42e8: f0 03        	beq	$42ed <__udivsi3+0x3e>
    42ea: 4c 46 44     	jmp	$4446 <__udivsi3+0x197>
    42ed: c5 14        	cmp	$14                     ; 0x2014 <exhaustZeroes+0x42>
    42ef: 90 06        	bcc	$42f7 <__udivsi3+0x48>
    42f1: 80 12        	bra	$4305 <__udivsi3+0x56>
    42f3: e4 17        	cpx	$17                     ; 0x2017 <exhaustZeroes+0x45>
    42f5: b0 0e        	bcs	$4305 <__udivsi3+0x56>
    42f7: 64 12        	stz	$12                     ; 0x2012 <exhaustZeroes+0x40>
    42f9: a9 00        	lda	#$0
    42fb: a8           	tay
    42fc: 91 10        	sta	($10),y                 ; 0x2010 <exhaustZeroes+0x3e>
    42fe: 4c 2e 44     	jmp	$442e <__udivsi3+0x17f>
    4301: e4 16        	cpx	$16                     ; 0x2016 <exhaustZeroes+0x44>
    4303: 90 f2        	bcc	$42f7 <__udivsi3+0x48>
    4305: a2 01        	ldx	#$1
    4307: 48           	pha
    4308: 8a           	txa
    4309: a0 00        	ldy	#$0
    430b: 91 10        	sta	($10),y                 ; 0x2010 <exhaustZeroes+0x3e>
    430d: 68           	pla
    430e: a6 17        	ldx	$17                     ; 0x2017 <exhaustZeroes+0x45>
    4310: 10 03        	bpl	$4315 <__udivsi3+0x66>
    4312: 4c 2c 44     	jmp	$442c <__udivsi3+0x17d>
    4315: 85 1d        	sta	$1d                     ; 0x201d <exhaustZeroes+0x4b>
    4317: a5 1e        	lda	$1e                     ; 0x201e <exhaustZeroes+0x4c>
    4319: a2 00        	ldx	#$0
    431b: a4 14        	ldy	$14                     ; 0x2014 <exhaustZeroes+0x42>
    431d: 84 19        	sty	$19                     ; 0x2019 <exhaustZeroes+0x47>
    431f: a4 15        	ldy	$15                     ; 0x2015 <exhaustZeroes+0x43>
    4321: 84 1a        	sty	$1a                     ; 0x201a <exhaustZeroes+0x48>
    4323: a4 16        	ldy	$16                     ; 0x2016 <exhaustZeroes+0x44>
    4325: 84 1b        	sty	$1b                     ; 0x201b <exhaustZeroes+0x49>
    4327: a4 17        	ldy	$17                     ; 0x2017 <exhaustZeroes+0x45>
    4329: 84 1c        	sty	$1c                     ; 0x201c <exhaustZeroes+0x4a>
    432b: 06 19        	asl	$19                     ; 0x2019 <exhaustZeroes+0x47>
    432d: 26 1a        	rol	$1a                     ; 0x201a <exhaustZeroes+0x48>
    432f: 26 1b        	rol	$1b                     ; 0x201b <exhaustZeroes+0x49>
    4331: 26 1c        	rol	$1c                     ; 0x201c <exhaustZeroes+0x4a>
    4333: a4 22        	ldy	$22                     ; 0x2022 <exhaustZeroes+0x50>
    4335: c4 1c        	cpy	$1c                     ; 0x201c <exhaustZeroes+0x4a>
    4337: d0 12        	bne	$434b <__udivsi3+0x9c>
    4339: a4 12        	ldy	$12                     ; 0x2012 <exhaustZeroes+0x40>
    433b: c4 1b        	cpy	$1b                     ; 0x201b <exhaustZeroes+0x49>
    433d: d0 12        	bne	$4351 <__udivsi3+0xa2>
    433f: c5 1a        	cmp	$1a                     ; 0x201a <exhaustZeroes+0x48>
    4341: d0 14        	bne	$4357 <__udivsi3+0xa8>
    4343: a4 1d        	ldy	$1d                     ; 0x201d <exhaustZeroes+0x4b>
    4345: c4 19        	cpy	$19                     ; 0x2019 <exhaustZeroes+0x47>
    4347: 90 27        	bcc	$4370 <__udivsi3+0xc1>
    4349: 80 10        	bra	$435b <__udivsi3+0xac>
    434b: c4 1c        	cpy	$1c                     ; 0x201c <exhaustZeroes+0x4a>
    434d: b0 0c        	bcs	$435b <__udivsi3+0xac>
    434f: 80 1f        	bra	$4370 <__udivsi3+0xc1>
    4351: c4 1b        	cpy	$1b                     ; 0x201b <exhaustZeroes+0x49>
    4353: 90 1b        	bcc	$4370 <__udivsi3+0xc1>
    4355: 80 04        	bra	$435b <__udivsi3+0xac>
    4357: c5 1a        	cmp	$1a                     ; 0x201a <exhaustZeroes+0x48>
    4359: 90 15        	bcc	$4370 <__udivsi3+0xc1>
    435b: e8           	inx
    435c: a4 19        	ldy	$19                     ; 0x2019 <exhaustZeroes+0x47>
    435e: 84 14        	sty	$14                     ; 0x2014 <exhaustZeroes+0x42>
    4360: a4 1a        	ldy	$1a                     ; 0x201a <exhaustZeroes+0x48>
    4362: 84 15        	sty	$15                     ; 0x2015 <exhaustZeroes+0x43>
    4364: a4 1b        	ldy	$1b                     ; 0x201b <exhaustZeroes+0x49>
    4366: 84 16        	sty	$16                     ; 0x2016 <exhaustZeroes+0x44>
    4368: a4 1c        	ldy	$1c                     ; 0x201c <exhaustZeroes+0x4a>
    436a: 84 17        	sty	$17                     ; 0x2017 <exhaustZeroes+0x45>
    436c: 10 bd        	bpl	$432b <__udivsi3+0x7c>
    436e: 80 10        	bra	$4380 <__udivsi3+0xd1>
    4370: a4 14        	ldy	$14                     ; 0x2014 <exhaustZeroes+0x42>
    4372: 84 19        	sty	$19                     ; 0x2019 <exhaustZeroes+0x47>
    4374: a4 15        	ldy	$15                     ; 0x2015 <exhaustZeroes+0x43>
    4376: 84 1a        	sty	$1a                     ; 0x201a <exhaustZeroes+0x48>
    4378: a4 16        	ldy	$16                     ; 0x2016 <exhaustZeroes+0x44>
    437a: 84 1b        	sty	$1b                     ; 0x201b <exhaustZeroes+0x49>
    437c: a4 17        	ldy	$17                     ; 0x2017 <exhaustZeroes+0x45>
    437e: 84 1c        	sty	$1c                     ; 0x201c <exhaustZeroes+0x4a>
    4380: 64 12        	stz	$12                     ; 0x2012 <exhaustZeroes+0x40>
    4382: 64 13        	stz	$13                     ; 0x2013 <exhaustZeroes+0x41>
    4384: 8a           	txa
    4385: d0 03        	bne	$438a <__udivsi3+0xdb>
    4387: 4c 30 44     	jmp	$4430 <__udivsi3+0x181>
    438a: 38           	sec
    438b: a5 1d        	lda	$1d                     ; 0x201d <exhaustZeroes+0x4b>
    438d: e5 19        	sbc	$19                     ; 0x2019 <exhaustZeroes+0x47>
    438f: 85 14        	sta	$14                     ; 0x2014 <exhaustZeroes+0x42>
    4391: a5 1e        	lda	$1e                     ; 0x201e <exhaustZeroes+0x4c>
    4393: e5 1a        	sbc	$1a                     ; 0x201a <exhaustZeroes+0x48>
    4395: 85 1d        	sta	$1d                     ; 0x201d <exhaustZeroes+0x4b>
    4397: a5 1f        	lda	$1f                     ; 0x201f <exhaustZeroes+0x4d>
    4399: e5 1b        	sbc	$1b                     ; 0x201b <exhaustZeroes+0x49>
    439b: 85 15        	sta	$15                     ; 0x2015 <exhaustZeroes+0x43>
    439d: a5 22        	lda	$22                     ; 0x2022 <exhaustZeroes+0x50>
    439f: e5 1c        	sbc	$1c                     ; 0x201c <exhaustZeroes+0x4a>
    43a1: a0 01        	ldy	#$1
    43a3: 48           	pha
    43a4: 98           	tya
    43a5: 88           	dey
    43a6: 91 10        	sta	($10),y                 ; 0x2010 <exhaustZeroes+0x3e>
    43a8: 68           	pla
    43a9: 64 18        	stz	$18                     ; 0x2018 <exhaustZeroes+0x46>
    43ab: 46 1c        	lsr	$1c                     ; 0x201c <exhaustZeroes+0x4a>
    43ad: 66 1b        	ror	$1b                     ; 0x201b <exhaustZeroes+0x49>
    43af: 66 1a        	ror	$1a                     ; 0x201a <exhaustZeroes+0x48>
    43b1: 66 19        	ror	$19                     ; 0x2019 <exhaustZeroes+0x47>
    43b3: 48           	pha
    43b4: a0 00        	ldy	#$0
    43b6: b1 10        	lda	($10),y                 ; 0x2010 <exhaustZeroes+0x3e>
    43b8: 85 16        	sta	$16                     ; 0x2016 <exhaustZeroes+0x44>
    43ba: 06 16        	asl	$16                     ; 0x2016 <exhaustZeroes+0x44>
    43bc: a9 01        	lda	#$1
    43be: b0 02        	bcs	$43c2 <__udivsi3+0x113>
    43c0: a9 00        	lda	#$0
    43c2: 85 22        	sta	$22                     ; 0x2022 <exhaustZeroes+0x50>
    43c4: a5 16        	lda	$16                     ; 0x2016 <exhaustZeroes+0x44>
    43c6: 91 10        	sta	($10),y                 ; 0x2010 <exhaustZeroes+0x3e>
    43c8: 68           	pla
    43c9: c5 1c        	cmp	$1c                     ; 0x201c <exhaustZeroes+0x4a>
    43cb: d0 16        	bne	$43e3 <__udivsi3+0x134>
    43cd: 85 1e        	sta	$1e                     ; 0x201e <exhaustZeroes+0x4c>
    43cf: a4 15        	ldy	$15                     ; 0x2015 <exhaustZeroes+0x43>
    43d1: a5 1d        	lda	$1d                     ; 0x201d <exhaustZeroes+0x4b>
    43d3: c4 1b        	cpy	$1b                     ; 0x201b <exhaustZeroes+0x49>
    43d5: d0 49        	bne	$4420 <__udivsi3+0x171>
    43d7: c5 1a        	cmp	$1a                     ; 0x201a <exhaustZeroes+0x48>
    43d9: d0 4b        	bne	$4426 <__udivsi3+0x177>
    43db: a4 14        	ldy	$14                     ; 0x2014 <exhaustZeroes+0x42>
    43dd: c4 19        	cpy	$19                     ; 0x2019 <exhaustZeroes+0x47>
    43df: b0 0a        	bcs	$43eb <__udivsi3+0x13c>
    43e1: 80 29        	bra	$440c <__udivsi3+0x15d>
    43e3: 85 1e        	sta	$1e                     ; 0x201e <exhaustZeroes+0x4c>
    43e5: c5 1c        	cmp	$1c                     ; 0x201c <exhaustZeroes+0x4a>
    43e7: a5 1d        	lda	$1d                     ; 0x201d <exhaustZeroes+0x4b>
    43e9: 90 21        	bcc	$440c <__udivsi3+0x15d>
    43eb: a8           	tay
    43ec: 38           	sec
    43ed: a5 14        	lda	$14                     ; 0x2014 <exhaustZeroes+0x42>
    43ef: e5 19        	sbc	$19                     ; 0x2019 <exhaustZeroes+0x47>
    43f1: 85 14        	sta	$14                     ; 0x2014 <exhaustZeroes+0x42>
    43f3: 98           	tya
    43f4: e5 1a        	sbc	$1a                     ; 0x201a <exhaustZeroes+0x48>
    43f6: 85 1d        	sta	$1d                     ; 0x201d <exhaustZeroes+0x4b>
    43f8: a5 15        	lda	$15                     ; 0x2015 <exhaustZeroes+0x43>
    43fa: e5 1b        	sbc	$1b                     ; 0x201b <exhaustZeroes+0x49>
    43fc: 85 15        	sta	$15                     ; 0x2015 <exhaustZeroes+0x43>
    43fe: a5 1e        	lda	$1e                     ; 0x201e <exhaustZeroes+0x4c>
    4400: e5 1c        	sbc	$1c                     ; 0x201c <exhaustZeroes+0x4a>
    4402: 85 1e        	sta	$1e                     ; 0x201e <exhaustZeroes+0x4c>
    4404: a0 00        	ldy	#$0
    4406: b1 10        	lda	($10),y                 ; 0x2010 <exhaustZeroes+0x3e>
    4408: 09 01        	ora	#$1
    440a: 91 10        	sta	($10),y                 ; 0x2010 <exhaustZeroes+0x3e>
    440c: a4 22        	ldy	$22                     ; 0x2022 <exhaustZeroes+0x50>
    440e: c0 01        	cpy	#$1
    4410: 26 18        	rol	$18                     ; 0x2018 <exhaustZeroes+0x46>
    4412: 26 12        	rol	$12                     ; 0x2012 <exhaustZeroes+0x40>
    4414: 26 13        	rol	$13                     ; 0x2013 <exhaustZeroes+0x41>
    4416: ca           	dex
    4417: a5 1e        	lda	$1e                     ; 0x201e <exhaustZeroes+0x4c>
    4419: e0 00        	cpx	#$0
    441b: f0 13        	beq	$4430 <__udivsi3+0x181>
    441d: 4c ab 43     	jmp	$43ab <__udivsi3+0xfc>
    4420: c4 1b        	cpy	$1b                     ; 0x201b <exhaustZeroes+0x49>
    4422: b0 c7        	bcs	$43eb <__udivsi3+0x13c>
    4424: 80 e6        	bra	$440c <__udivsi3+0x15d>
    4426: c5 1a        	cmp	$1a                     ; 0x201a <exhaustZeroes+0x48>
    4428: b0 c1        	bcs	$43eb <__udivsi3+0x13c>
    442a: 80 e0        	bra	$440c <__udivsi3+0x15d>
    442c: 64 12        	stz	$12                     ; 0x2012 <exhaustZeroes+0x40>
    442e: 64 13        	stz	$13                     ; 0x2013 <exhaustZeroes+0x41>
    4430: a6 18        	ldx	$18                     ; 0x2018 <exhaustZeroes+0x46>
    4432: a0 00        	ldy	#$0
    4434: b1 10        	lda	($10),y                 ; 0x2010 <exhaustZeroes+0x3e>
    4436: 48           	pha
    4437: 18           	clc
    4438: a5 10        	lda	$10                     ; 0x2010 <exhaustZeroes+0x3e>
    443a: 69 01        	adc	#$1
    443c: 85 10        	sta	$10                     ; 0x2010 <exhaustZeroes+0x3e>
    443e: a5 11        	lda	$11                     ; 0x2011 <exhaustZeroes+0x3f>
    4440: 69 00        	adc	#$0
    4442: 85 11        	sta	$11                     ; 0x2011 <exhaustZeroes+0x3f>
    4444: 68           	pla
    4445: 60           	rts
    4446: e4 15        	cpx	$15                     ; 0x2015 <exhaustZeroes+0x43>
    4448: b0 03        	bcs	$444d <__udivsi3+0x19e>
    444a: 4c f7 42     	jmp	$42f7 <__udivsi3+0x48>
    444d: 4c 05 43     	jmp	$4305 <__udivsi3+0x56>
