
multiRead.elf:	file format elf32-mos

SYMBOL TABLE:
00000000 l    df *ABS*	00000000 zero-bss.c
00000000 l    df *ABS*	00000000 zero-zp-bss.c
00000000 l    df *ABS*	00000000 copy-zp-data.c
00000000 l    df *ABS*	00000000 ld-temp.o
00000081 l     O .zp.bss	00000007 kernelEventData
00000030 l     O .zp.data	00000030 textColors
00000060 l     O .zp.bss	00000001 _col
00000061 l     O .zp.bss	00000001 _row
00000062 l     O .zp.bss	00000004 _BITMAP_BASE.0
00000066 l     O .zp.bss	00000004 _BITMAP_BASE.1
0000006a l     O .zp.bss	00000004 _BITMAP_BASE.2
0000450b l     O .bss	00000001 kernelError
00000070 l     O .zp.bss	00000002 theOne.0
000041b5 l     F .text	00000032 __mulhi3
00003ebd l     F .text	000002ac malloc
0000007f l     O .zp.bss	00000002 theOne.6
00000078 l     O .zp.bss	00000001 theOne.3
00000074 l     O .zp.bss	00000004 theOne.2
00000079 l     O .zp.bss	00000004 theOne.4
0000007d l     O .zp.bss	00000002 theOne.5
00000072 l     O .zp.bss	00000002 theOne.1
00001b6e l     F .text	00000470 readDelta
00001fde l     F .text	0000063b readMIDICmd
0000281e l     F .text	00000701 exhaustZeroes
00004356 l     F .text	000000a5 __umodhi3
000041e7 l     F .text	0000016f __udivsi3
00003103 l     F .text	00000bd3 printf
00002619 l     F .text	00000205 skipWhenFFCmd
00002f24 l     F .text	000000d3 _ZN12_GLOBAL__N_13putEcP6Status
00003cd6 l     F .text	000001e7 putchar
00002ff7 l     F .text	0000010c _ZN12_GLOBAL__N_112print_stringEPKcP6Status
0000006e l     O .zp.bss	00000002 __putchar.s
00000088 l     O .zp.bss	00000001 _ZN12_GLOBAL__N_111initializedE
00000348 l     F .text	00000135 _ZN12_GLOBAL__N_19FreeChunk6insertEPvj
0000008b l     O .zp.bss	00000002 _ZN12_GLOBAL__N_19free_listE
00000089 l     O .zp.bss	00000002 _ZN12_GLOBAL__N_19free_sizeE
000004ba g     F .text	000016b4 main
00010000 g       .music	00000000 music_start
00014629 g       .music	00000000 music_end
00000344 g       .text	00000000 __after_main
00000330 g       .text	00000000 __do_init_stack
0000033e g       .text	00000000 __do_copy_zp_data
000004a3 g     F .text	00000017 __copy_zp_data
00000338 g       .text	00000000 __do_zero_bss
0000047d g     F .text	00000013 __zero_bss
0000033b g       .text	00000000 __do_zero_zp_bss
00000490 g     F .text	00000013 __zero_zp_bss
00002f1f g     F .text	00000005 exit
00000347 g       .text	00000000 _fini
000043fb g       .rodata	00000000 __set_v
00004195  w    F .text	00000020 __memset
00001000  w      *ABS*	00000000 __heap_default_limit
0000450c g       .noinit	00000000 __heap_start
00004169  w    F .text	0000002c memcpy
00000010 g       *ABS*	00000000 __rc0
00000012 g       *ABS*	00000000 __rc2
00000014 g       *ABS*	00000000 __rc4
00000016 g       *ABS*	00000000 __rc6
00000018 g       *ABS*	00000000 __rc8
0000001a g       *ABS*	00000000 __rc10
0000001c g       *ABS*	00000000 __rc12
0000001e g       *ABS*	00000000 __rc14
00000020 g       *ABS*	00000000 __rc16
00000022 g       *ABS*	00000000 __rc18
00000024 g       *ABS*	00000000 __rc20
00000026 g       *ABS*	00000000 __rc22
00000028 g       *ABS*	00000000 __rc24
0000002a g       *ABS*	00000000 __rc26
0000002c g       *ABS*	00000000 __rc28
0000002e g       *ABS*	00000000 __rc30
0000002f g       *ABS*	00000000 __rc31
00000300 g       *ABS*	00000000 __f256_start
0000c000 g       *ABS*	00000000 __stack
0000c000 g       *ABS*	00000000 __SLOT_ADDR
0800c000 g       *ABS*	00000000 __block8_lma
00002000 g       *ABS*	00000000 __BLOCK_SIZE
0900c000 g       *ABS*	00000000 __block9_lma
0a00c000 g       *ABS*	00000000 __block10_lma
0b00c000 g       *ABS*	00000000 __block11_lma
0c00c000 g       *ABS*	00000000 __block12_lma
0d00c000 g       *ABS*	00000000 __block13_lma
0e00c000 g       *ABS*	00000000 __block14_lma
0f00c000 g       *ABS*	00000000 __block15_lma
1000c000 g       *ABS*	00000000 __block16_lma
1100c000 g       *ABS*	00000000 __block17_lma
1200c000 g       *ABS*	00000000 __block18_lma
1300c000 g       *ABS*	00000000 __block19_lma
1400c000 g       *ABS*	00000000 __block20_lma
1500c000 g       *ABS*	00000000 __block21_lma
1600c000 g       *ABS*	00000000 __block22_lma
1700c000 g       *ABS*	00000000 __block23_lma
00010000 g       *ABS*	00000000 __music_lma
00004629 g       *ABS*	00000000 __music_size
0000450b g       .bss	00000000 __bss_start
00014629 g       .music	00000000 end_music
00000330 g       .text	00000000 _start
0000002d g       *ABS*	00000000 __rc29
0000002b g       *ABS*	00000000 __rc27
00000029 g       *ABS*	00000000 __rc25
00000027 g       *ABS*	00000000 __rc23
00000025 g       *ABS*	00000000 __rc21
00000023 g       *ABS*	00000000 __rc19
00000021 g       *ABS*	00000000 __rc17
0000001f g       *ABS*	00000000 __rc15
0000001d g       *ABS*	00000000 __rc13
0000001b g       *ABS*	00000000 __rc11
00000019 g       *ABS*	00000000 __rc9
00000017 g       *ABS*	00000000 __rc7
00000015 g       *ABS*	00000000 __rc5
00000013 g       *ABS*	00000000 __rc3
00000011 g       *ABS*	00000000 __rc1
00000030 g       .zp.data	00000000 __zp_data_start
00000300 g       *ABS*	00000000 __zp_data_load_start
00000030 g       *ABS*	00000000 __zp_data_size
00000060 g       .zp.bss	00000000 __zp_bss_start
0000002d g       *ABS*	00000000 __zp_bss_size
00000330 g       .text	00000000 _init
000043fb g       .text	00000000 __init_array_start
000043fb g       .text	00000000 __init_array_end
000043fb g       .text	00000000 __fini_array_start
000043fb g       .text	00000000 __fini_array_end
0000450b g       .data	00000000 __data_start
0000450b g       .data	00000000 __data_end
0000450b g       *ABS*	00000000 __data_load_start
00000000 g       *ABS*	00000000 __data_size
0000450c g       .bss	00000000 __bss_end
00000001 g       *ABS*	00000000 __bss_size
0000450c g       .noinit	00000000 end_block8
0000450c g       .noinit	00000000 end_block9
0000450c g       .noinit	00000000 end_block10
0000450c g       .noinit	00000000 end_block11
0000450c g       .noinit	00000000 end_block12
0000450c g       .noinit	00000000 end_block13
0000450c g       .noinit	00000000 end_block14
0000450c g       .noinit	00000000 end_block15
0000450c g       .noinit	00000000 end_block16
0000450c g       .noinit	00000000 end_block17
0000450c g       .noinit	00000000 end_block18
0000450c g       .noinit	00000000 end_block19
0000450c g       .noinit	00000000 end_block20
0000450c g       .noinit	00000000 end_block21
0000450c g       .noinit	00000000 end_block22
0000450c g       .noinit	00000000 end_block23

Disassembly of section .text:

00000330 <_start>:
     330: a9 00        	lda	#$0
     332: 85 10        	sta	$10                     ; 0x2010 <readMIDICmd+0x32>
     334: a9 c0        	lda	#$c0
     336: 85 11        	sta	$11                     ; 0x2011 <readMIDICmd+0x33>

00000338 <__do_zero_bss>:
     338: 20 7d 04     	jsr	$47d <__zero_bss>

0000033b <__do_zero_zp_bss>:
     33b: 20 90 04     	jsr	$490 <__zero_zp_bss>

0000033e <__do_copy_zp_data>:
     33e: 20 a3 04     	jsr	$4a3 <__copy_zp_data>
     341: 20 ba 04     	jsr	$4ba <main>

00000344 <__after_main>:
     344: 4c 1f 2f     	jmp	$2f1f <exit>

00000347 <_fini>:
     347: 60           	rts

00000348 <_ZN12_GLOBAL__N_19FreeChunk6insertEPvj>:
     348: 85 16        	sta	$16                     ; 0x2016 <readMIDICmd+0x38>
     34a: 29 fe        	and	#$fe
     34c: 85 14        	sta	$14                     ; 0x2014 <readMIDICmd+0x36>
     34e: a0 01        	ldy	#$1
     350: 98           	tya
     351: 32 12        	and	($12)                   ; 0x2012 <readMIDICmd+0x34>
     353: 05 14        	ora	$14                     ; 0x2014 <readMIDICmd+0x36>
     355: 92 12        	sta	($12)                   ; 0x2012 <readMIDICmd+0x34>
     357: a5 12        	lda	$12                     ; 0x2012 <readMIDICmd+0x34>
     359: 18           	clc
     35a: 65 14        	adc	$14                     ; 0x2014 <readMIDICmd+0x36>
     35c: 85 15        	sta	$15                     ; 0x2015 <readMIDICmd+0x37>
     35e: 8a           	txa
     35f: 65 13        	adc	$13                     ; 0x2013 <readMIDICmd+0x35>
     361: 85 14        	sta	$14                     ; 0x2014 <readMIDICmd+0x36>
     363: 18           	clc
     364: a5 15        	lda	$15                     ; 0x2015 <readMIDICmd+0x37>
     366: 69 fe        	adc	#$fe
     368: 85 17        	sta	$17                     ; 0x2017 <readMIDICmd+0x39>
     36a: a5 14        	lda	$14                     ; 0x2014 <readMIDICmd+0x36>
     36c: 69 ff        	adc	#$ff
     36e: 85 15        	sta	$15                     ; 0x2015 <readMIDICmd+0x37>
     370: a5 17        	lda	$17                     ; 0x2017 <readMIDICmd+0x39>
     372: 85 14        	sta	$14                     ; 0x2014 <readMIDICmd+0x36>
     374: 8a           	txa
     375: 91 12        	sta	($12),y                 ; 0x2012 <readMIDICmd+0x34>
     377: a5 16        	lda	$16                     ; 0x2016 <readMIDICmd+0x38>
     379: 92 14        	sta	($14)                   ; 0x2014 <readMIDICmd+0x36>
     37b: 8a           	txa
     37c: 91 14        	sta	($14),y                 ; 0x2014 <readMIDICmd+0x36>
     37e: b1 12        	lda	($12),y                 ; 0x2012 <readMIDICmd+0x34>
     380: 85 14        	sta	$14                     ; 0x2014 <readMIDICmd+0x36>
     382: a9 fe        	lda	#$fe
     384: 32 12        	and	($12)                   ; 0x2012 <readMIDICmd+0x34>
     386: 18           	clc
     387: 65 89        	adc	$89                     ; 0x2089 <readMIDICmd+0xab>
     389: aa           	tax
     38a: a5 14        	lda	$14                     ; 0x2014 <readMIDICmd+0x36>
     38c: 65 8a        	adc	$8a                     ; 0x208a <readMIDICmd+0xac>
     38e: a8           	tay
     38f: 18           	clc
     390: 8a           	txa
     391: 69 fe        	adc	#$fe
     393: aa           	tax
     394: 98           	tya
     395: 69 ff        	adc	#$ff
     397: 86 89        	stx	$89                     ; 0x2089 <readMIDICmd+0xab>
     399: 85 8a        	sta	$8a                     ; 0x208a <readMIDICmd+0xac>
     39b: a6 8b        	ldx	$8b                     ; 0x208b <readMIDICmd+0xad>
     39d: 86 16        	stx	$16                     ; 0x2016 <readMIDICmd+0x38>
     39f: a4 8c        	ldy	$8c                     ; 0x208c <readMIDICmd+0xae>
     3a1: a2 00        	ldx	#$0
     3a3: 86 14        	stx	$14                     ; 0x2014 <readMIDICmd+0x36>
     3a5: a2 00        	ldx	#$0
     3a7: 86 15        	stx	$15                     ; 0x2015 <readMIDICmd+0x37>
     3a9: c4 15        	cpy	$15                     ; 0x2015 <readMIDICmd+0x37>
     3ab: d0 3c        	bne	$3e9 <_ZN12_GLOBAL__N_19FreeChunk6insertEPvj+0xa1>
     3ad: a6 16        	ldx	$16                     ; 0x2016 <readMIDICmd+0x38>
     3af: e4 14        	cpx	$14                     ; 0x2014 <readMIDICmd+0x36>
     3b1: d0 36        	bne	$3e9 <_ZN12_GLOBAL__N_19FreeChunk6insertEPvj+0xa1>
     3b3: a0 04        	ldy	#$4
     3b5: a5 12        	lda	$12                     ; 0x2012 <readMIDICmd+0x34>
     3b7: 18           	clc
     3b8: 69 04        	adc	#$4
     3ba: 85 14        	sta	$14                     ; 0x2014 <readMIDICmd+0x36>
     3bc: a5 13        	lda	$13                     ; 0x2013 <readMIDICmd+0x35>
     3be: 69 00        	adc	#$0
     3c0: 18           	clc
     3c1: 85 15        	sta	$15                     ; 0x2015 <readMIDICmd+0x37>
     3c3: a5 12        	lda	$12                     ; 0x2012 <readMIDICmd+0x34>
     3c5: 91 12        	sta	($12),y                 ; 0x2012 <readMIDICmd+0x34>
     3c7: a0 02        	ldy	#$2
     3c9: 85 17        	sta	$17                     ; 0x2017 <readMIDICmd+0x39>
     3cb: 69 02        	adc	#$2
     3cd: 85 16        	sta	$16                     ; 0x2016 <readMIDICmd+0x38>
     3cf: a5 17        	lda	$17                     ; 0x2017 <readMIDICmd+0x39>
     3d1: 91 12        	sta	($12),y                 ; 0x2012 <readMIDICmd+0x34>
     3d3: a5 13        	lda	$13                     ; 0x2013 <readMIDICmd+0x35>
     3d5: 69 00        	adc	#$0
     3d7: 85 17        	sta	$17                     ; 0x2017 <readMIDICmd+0x39>
     3d9: 88           	dey
     3da: a5 13        	lda	$13                     ; 0x2013 <readMIDICmd+0x35>
     3dc: 91 14        	sta	($14),y                 ; 0x2014 <readMIDICmd+0x36>
     3de: 91 16        	sta	($16),y                 ; 0x2016 <readMIDICmd+0x38>
     3e0: a6 12        	ldx	$12                     ; 0x2012 <readMIDICmd+0x34>
     3e2: 86 8b        	stx	$8b                     ; 0x208b <readMIDICmd+0xad>
     3e4: a6 13        	ldx	$13                     ; 0x2013 <readMIDICmd+0x35>
     3e6: 86 8c        	stx	$8c                     ; 0x208c <readMIDICmd+0xae>
     3e8: 60           	rts
     3e9: a6 12        	ldx	$12                     ; 0x2012 <readMIDICmd+0x34>
     3eb: a5 12        	lda	$12                     ; 0x2012 <readMIDICmd+0x34>
     3ed: 18           	clc
     3ee: 69 02        	adc	#$2
     3f0: 85 14        	sta	$14                     ; 0x2014 <readMIDICmd+0x36>
     3f2: 84 18        	sty	$18                     ; 0x2018 <readMIDICmd+0x3a>
     3f4: a5 13        	lda	$13                     ; 0x2013 <readMIDICmd+0x35>
     3f6: 69 00        	adc	#$0
     3f8: 85 15        	sta	$15                     ; 0x2015 <readMIDICmd+0x37>
     3fa: a5 16        	lda	$16                     ; 0x2016 <readMIDICmd+0x38>
     3fc: 84 17        	sty	$17                     ; 0x2017 <readMIDICmd+0x39>
     3fe: a0 02        	ldy	#$2
     400: 91 12        	sta	($12),y                 ; 0x2012 <readMIDICmd+0x34>
     402: 85 19        	sta	$19                     ; 0x2019 <readMIDICmd+0x3b>
     404: 88           	dey
     405: a5 18        	lda	$18                     ; 0x2018 <readMIDICmd+0x3a>
     407: 91 14        	sta	($14),y                 ; 0x2014 <readMIDICmd+0x36>
     409: 18           	clc
     40a: a5 19        	lda	$19                     ; 0x2019 <readMIDICmd+0x3b>
     40c: 69 04        	adc	#$4
     40e: a8           	tay
     40f: a5 18        	lda	$18                     ; 0x2018 <readMIDICmd+0x3a>
     411: 69 00        	adc	#$0
     413: 85 19        	sta	$19                     ; 0x2019 <readMIDICmd+0x3b>
     415: 84 18        	sty	$18                     ; 0x2018 <readMIDICmd+0x3a>
     417: 8a           	txa
     418: 18           	clc
     419: 69 04        	adc	#$4
     41b: 85 1a        	sta	$1a                     ; 0x201a <readMIDICmd+0x3c>
     41d: a5 13        	lda	$13                     ; 0x2013 <readMIDICmd+0x35>
     41f: 69 00        	adc	#$0
     421: 85 1b        	sta	$1b                     ; 0x201b <readMIDICmd+0x3d>
     423: a0 04        	ldy	#$4
     425: b1 16        	lda	($16),y                 ; 0x2016 <readMIDICmd+0x38>
     427: 85 16        	sta	$16                     ; 0x2016 <readMIDICmd+0x38>
     429: 85 1d        	sta	$1d                     ; 0x201d <readMIDICmd+0x3f>
     42b: a0 01        	ldy	#$1
     42d: b1 18        	lda	($18),y                 ; 0x2018 <readMIDICmd+0x3a>
     42f: 85 17        	sta	$17                     ; 0x2017 <readMIDICmd+0x39>
     431: 85 19        	sta	$19                     ; 0x2019 <readMIDICmd+0x3b>
     433: a0 04        	ldy	#$4
     435: a5 1d        	lda	$1d                     ; 0x201d <readMIDICmd+0x3f>
     437: 91 12        	sta	($12),y                 ; 0x2012 <readMIDICmd+0x34>
     439: a5 19        	lda	$19                     ; 0x2019 <readMIDICmd+0x3b>
     43b: a0 01        	ldy	#$1
     43d: 91 1a        	sta	($1a),y                 ; 0x201a <readMIDICmd+0x3c>
     43f: 18           	clc
     440: a5 1d        	lda	$1d                     ; 0x201d <readMIDICmd+0x3f>
     442: 69 02        	adc	#$2
     444: 85 18        	sta	$18                     ; 0x2018 <readMIDICmd+0x3a>
     446: a5 19        	lda	$19                     ; 0x2019 <readMIDICmd+0x3b>
     448: 69 00        	adc	#$0
     44a: 85 19        	sta	$19                     ; 0x2019 <readMIDICmd+0x3b>
     44c: 8a           	txa
     44d: c8           	iny
     44e: 91 16        	sta	($16),y                 ; 0x2016 <readMIDICmd+0x38>
     450: a5 13        	lda	$13                     ; 0x2013 <readMIDICmd+0x35>
     452: 88           	dey
     453: 91 18        	sta	($18),y                 ; 0x2018 <readMIDICmd+0x3a>
     455: c8           	iny
     456: b1 12        	lda	($12),y                 ; 0x2012 <readMIDICmd+0x34>
     458: 85 16        	sta	$16                     ; 0x2016 <readMIDICmd+0x38>
     45a: 85 18        	sta	$18                     ; 0x2018 <readMIDICmd+0x3a>
     45c: 88           	dey
     45d: b1 14        	lda	($14),y                 ; 0x2014 <readMIDICmd+0x36>
     45f: 85 17        	sta	$17                     ; 0x2017 <readMIDICmd+0x39>
     461: 85 14        	sta	$14                     ; 0x2014 <readMIDICmd+0x36>
     463: 8a           	txa
     464: a0 04        	ldy	#$4
     466: 91 16        	sta	($16),y                 ; 0x2016 <readMIDICmd+0x38>
     468: 18           	clc
     469: a5 18        	lda	$18                     ; 0x2018 <readMIDICmd+0x3a>
     46b: 69 04        	adc	#$4
     46d: a8           	tay
     46e: a5 14        	lda	$14                     ; 0x2014 <readMIDICmd+0x36>
     470: 69 00        	adc	#$0
     472: 84 14        	sty	$14                     ; 0x2014 <readMIDICmd+0x36>
     474: 85 15        	sta	$15                     ; 0x2015 <readMIDICmd+0x37>
     476: a5 13        	lda	$13                     ; 0x2013 <readMIDICmd+0x35>
     478: a0 01        	ldy	#$1
     47a: 91 14        	sta	($14),y                 ; 0x2014 <readMIDICmd+0x36>
     47c: 60           	rts

0000047d <__zero_bss>:
     47d: a2 01        	ldx	#$1
     47f: a0 00        	ldy	#$0
     481: a9 0b        	lda	#$b
     483: 85 12        	sta	$12                     ; 0x2012 <readMIDICmd+0x34>
     485: a9 45        	lda	#$45
     487: 85 13        	sta	$13                     ; 0x2013 <readMIDICmd+0x35>
     489: a9 00        	lda	#$0
     48b: 84 14        	sty	$14                     ; 0x2014 <readMIDICmd+0x36>
     48d: 4c 95 41     	jmp	$4195 <__memset>

00000490 <__zero_zp_bss>:
     490: a2 2d        	ldx	#$2d
     492: a0 00        	ldy	#$0
     494: a9 60        	lda	#$60
     496: 85 12        	sta	$12                     ; 0x2012 <readMIDICmd+0x34>
     498: a9 00        	lda	#$0
     49a: 85 13        	sta	$13                     ; 0x2013 <readMIDICmd+0x35>
     49c: a9 00        	lda	#$0
     49e: 84 14        	sty	$14                     ; 0x2014 <readMIDICmd+0x36>
     4a0: 4c 95 41     	jmp	$4195 <__memset>

000004a3 <__copy_zp_data>:
     4a3: a9 30        	lda	#$30
     4a5: a2 00        	ldx	#$0
     4a7: a0 30        	ldy	#$30
     4a9: 84 12        	sty	$12                     ; 0x2012 <readMIDICmd+0x34>
     4ab: a0 00        	ldy	#$0
     4ad: 84 13        	sty	$13                     ; 0x2013 <readMIDICmd+0x35>
     4af: a0 00        	ldy	#$0
     4b1: 84 14        	sty	$14                     ; 0x2014 <readMIDICmd+0x36>
     4b3: a0 03        	ldy	#$3
     4b5: 84 15        	sty	$15                     ; 0x2015 <readMIDICmd+0x37>
     4b7: 4c 69 41     	jmp	$4169 <memcpy>

000004ba <main>:
     4ba: 18           	clc
     4bb: a5 10        	lda	$10                     ; 0x2010 <readMIDICmd+0x32>
     4bd: 69 f3        	adc	#$f3
     4bf: 85 10        	sta	$10                     ; 0x2010 <readMIDICmd+0x32>
     4c1: a5 11        	lda	$11                     ; 0x2011 <readMIDICmd+0x33>
     4c3: 69 ff        	adc	#$ff
     4c5: 85 11        	sta	$11                     ; 0x2011 <readMIDICmd+0x33>
     4c7: 64 1c        	stz	$1c                     ; 0x201c <readMIDICmd+0x3e>
     4c9: a2 00        	ldx	#$0
     4cb: 86 1a        	stx	$1a                     ; 0x201a <readMIDICmd+0x3c>
     4cd: a2 d0        	ldx	#$d0
     4cf: 86 1b        	stx	$1b                     ; 0x201b <readMIDICmd+0x3d>
     4d1: a2 00        	ldx	#$0
     4d3: 86 16        	stx	$16                     ; 0x2016 <readMIDICmd+0x38>
     4d5: a2 d8        	ldx	#$d8
     4d7: 86 17        	stx	$17                     ; 0x2017 <readMIDICmd+0x39>
     4d9: a2 00        	ldx	#$0
     4db: 86 18        	stx	$18                     ; 0x2018 <readMIDICmd+0x3a>
     4dd: a2 d4        	ldx	#$d4
     4df: 86 19        	stx	$19                     ; 0x2019 <readMIDICmd+0x3b>
     4e1: a2 00        	ldx	#$0
     4e3: 86 14        	stx	$14                     ; 0x2014 <readMIDICmd+0x36>
     4e5: a2 dc        	ldx	#$dc
     4e7: 86 15        	stx	$15                     ; 0x2015 <readMIDICmd+0x37>
     4e9: a2 00        	ldx	#$0
     4eb: 86 12        	stx	$12                     ; 0x2012 <readMIDICmd+0x34>
     4ed: a2 c0        	ldx	#$c0
     4ef: 86 13        	stx	$13                     ; 0x2013 <readMIDICmd+0x35>
     4f1: 64 01        	stz	$1                      ; 0x2001 <readMIDICmd+0x23>
     4f3: a2 3f        	ldx	#$3f
     4f5: 8e 00 d0     	stx	$d000                   ; 0xd000 <end_block9+0x8af4>
     4f8: a2 b3        	ldx	#$b3
     4fa: 86 00        	stx	$0                      ; 0x2000 <readMIDICmd+0x22>
     4fc: 64 08        	stz	$8                      ; 0x2008 <readMIDICmd+0x2a>
     4fe: a2 01        	ldx	#$1
     500: 86 09        	stx	$9                      ; 0x2009 <readMIDICmd+0x2b>
     502: e8           	inx
     503: 86 0a        	stx	$a                      ; 0x200a <readMIDICmd+0x2c>
     505: e8           	inx
     506: 86 0b        	stx	$b                      ; 0x200b <readMIDICmd+0x2d>
     508: e8           	inx
     509: 86 0c        	stx	$c                      ; 0x200c <readMIDICmd+0x2e>
     50b: e8           	inx
     50c: 86 0d        	stx	$d                      ; 0x200d <readMIDICmd+0x2f>
     50e: a2 81        	ldx	#$81
     510: a9 00        	lda	#$0
     512: 86 f0        	stx	$f0                     ; 0x20f0 <readMIDICmd+0x112>
     514: 85 f1        	sta	$f1                     ; 0x20f1 <readMIDICmd+0x113>
     516: a6 01        	ldx	$1                      ; 0x2001 <readMIDICmd+0x23>
     518: a0 01        	ldy	#$1
     51a: 84 01        	sty	$1                      ; 0x2001 <readMIDICmd+0x23>
     51c: a5 1c        	lda	$1c                     ; 0x201c <readMIDICmd+0x3e>
     51e: 92 1a        	sta	($1a)                   ; 0x201a <readMIDICmd+0x3c>
     520: 91 1a        	sta	($1a),y                 ; 0x201a <readMIDICmd+0x3c>
     522: c8           	iny
     523: 91 1a        	sta	($1a),y                 ; 0x201a <readMIDICmd+0x3c>
     525: c8           	iny
     526: a9 ff        	lda	#$ff
     528: 91 1a        	sta	($1a),y                 ; 0x201a <readMIDICmd+0x3c>
     52a: 86 01        	stx	$1                      ; 0x2001 <readMIDICmd+0x23>
     52c: a5 1a        	lda	$1a                     ; 0x201a <readMIDICmd+0x3c>
     52e: 18           	clc
     52f: 69 04        	adc	#$4
     531: 85 1a        	sta	$1a                     ; 0x201a <readMIDICmd+0x3c>
     533: a5 1b        	lda	$1b                     ; 0x201b <readMIDICmd+0x3d>
     535: 69 00        	adc	#$0
     537: e6 1c        	inc	$1c                     ; 0x201c <readMIDICmd+0x3e>
     539: 85 1b        	sta	$1b                     ; 0x201b <readMIDICmd+0x3d>
     53b: d0 d9        	bne	$516 <main+0x5c>
     53d: a9 00        	lda	#$0
     53f: a6 01        	ldx	$1                      ; 0x2001 <readMIDICmd+0x23>
     541: a0 01        	ldy	#$1
     543: 84 01        	sty	$1                      ; 0x2001 <readMIDICmd+0x23>
     545: 92 18        	sta	($18)                   ; 0x2018 <readMIDICmd+0x3a>
     547: 91 18        	sta	($18),y                 ; 0x2018 <readMIDICmd+0x3a>
     549: c8           	iny
     54a: 91 18        	sta	($18),y                 ; 0x2018 <readMIDICmd+0x3a>
     54c: c8           	iny
     54d: 85 1a        	sta	$1a                     ; 0x201a <readMIDICmd+0x3c>
     54f: a9 ff        	lda	#$ff
     551: 91 18        	sta	($18),y                 ; 0x2018 <readMIDICmd+0x3a>
     553: 86 01        	stx	$1                      ; 0x2001 <readMIDICmd+0x23>
     555: a5 18        	lda	$18                     ; 0x2018 <readMIDICmd+0x3a>
     557: 18           	clc
     558: 69 04        	adc	#$4
     55a: 85 18        	sta	$18                     ; 0x2018 <readMIDICmd+0x3a>
     55c: a5 19        	lda	$19                     ; 0x2019 <readMIDICmd+0x3b>
     55e: 69 00        	adc	#$0
     560: e6 1a        	inc	$1a                     ; 0x201a <readMIDICmd+0x3c>
     562: 85 19        	sta	$19                     ; 0x2019 <readMIDICmd+0x3b>
     564: a5 1a        	lda	$1a                     ; 0x201a <readMIDICmd+0x3c>
     566: d0 d7        	bne	$53f <main+0x85>
     568: a9 00        	lda	#$0
     56a: a6 01        	ldx	$1                      ; 0x2001 <readMIDICmd+0x23>
     56c: a0 01        	ldy	#$1
     56e: 84 01        	sty	$1                      ; 0x2001 <readMIDICmd+0x23>
     570: 92 16        	sta	($16)                   ; 0x2016 <readMIDICmd+0x38>
     572: 91 16        	sta	($16),y                 ; 0x2016 <readMIDICmd+0x38>
     574: c8           	iny
     575: 91 16        	sta	($16),y                 ; 0x2016 <readMIDICmd+0x38>
     577: c8           	iny
     578: 85 18        	sta	$18                     ; 0x2018 <readMIDICmd+0x3a>
     57a: a9 ff        	lda	#$ff
     57c: 91 16        	sta	($16),y                 ; 0x2016 <readMIDICmd+0x38>
     57e: 86 01        	stx	$1                      ; 0x2001 <readMIDICmd+0x23>
     580: a5 16        	lda	$16                     ; 0x2016 <readMIDICmd+0x38>
     582: 18           	clc
     583: 69 04        	adc	#$4
     585: 85 16        	sta	$16                     ; 0x2016 <readMIDICmd+0x38>
     587: a5 17        	lda	$17                     ; 0x2017 <readMIDICmd+0x39>
     589: 69 00        	adc	#$0
     58b: e6 18        	inc	$18                     ; 0x2018 <readMIDICmd+0x3a>
     58d: 85 17        	sta	$17                     ; 0x2017 <readMIDICmd+0x39>
     58f: a5 18        	lda	$18                     ; 0x2018 <readMIDICmd+0x3a>
     591: d0 d7        	bne	$56a <main+0xb0>
     593: a9 00        	lda	#$0
     595: a6 01        	ldx	$1                      ; 0x2001 <readMIDICmd+0x23>
     597: a0 01        	ldy	#$1
     599: 84 01        	sty	$1                      ; 0x2001 <readMIDICmd+0x23>
     59b: 92 14        	sta	($14)                   ; 0x2014 <readMIDICmd+0x36>
     59d: 91 14        	sta	($14),y                 ; 0x2014 <readMIDICmd+0x36>
     59f: c8           	iny
     5a0: 91 14        	sta	($14),y                 ; 0x2014 <readMIDICmd+0x36>
     5a2: c8           	iny
     5a3: 85 16        	sta	$16                     ; 0x2016 <readMIDICmd+0x38>
     5a5: a9 ff        	lda	#$ff
     5a7: 91 14        	sta	($14),y                 ; 0x2014 <readMIDICmd+0x36>
     5a9: 86 01        	stx	$1                      ; 0x2001 <readMIDICmd+0x23>
     5ab: a5 14        	lda	$14                     ; 0x2014 <readMIDICmd+0x36>
     5ad: 18           	clc
     5ae: 69 04        	adc	#$4
     5b0: 85 14        	sta	$14                     ; 0x2014 <readMIDICmd+0x36>
     5b2: a5 15        	lda	$15                     ; 0x2015 <readMIDICmd+0x37>
     5b4: 69 00        	adc	#$0
     5b6: e6 16        	inc	$16                     ; 0x2016 <readMIDICmd+0x38>
     5b8: 85 15        	sta	$15                     ; 0x2015 <readMIDICmd+0x37>
     5ba: a5 16        	lda	$16                     ; 0x2016 <readMIDICmd+0x38>
     5bc: d0 d7        	bne	$595 <main+0xdb>
     5be: ad 02 d0     	lda	$d002                   ; 0xd002 <end_block9+0x8af6>
     5c1: 29 f0        	and	#$f0
     5c3: 8d 02 d0     	sta	$d002                   ; 0xd002 <end_block9+0x8af6>
     5c6: ad 02 d0     	lda	$d002                   ; 0xd002 <end_block9+0x8af6>
     5c9: 29 0f        	and	#$f
     5cb: 09 10        	ora	#$10
     5cd: 8d 02 d0     	sta	$d002                   ; 0xd002 <end_block9+0x8af6>
     5d0: a2 02        	ldx	#$2
     5d2: 8e 03 d0     	stx	$d003                   ; 0xd003 <end_block9+0x8af7>
     5d5: ad 01 d0     	lda	$d001                   ; 0xd001 <end_block9+0x8af5>
     5d8: 29 f9        	and	#$f9
     5da: 09 04        	ora	#$4
     5dc: 8d 01 d0     	sta	$d001                   ; 0xd001 <end_block9+0x8af5>
     5df: 64 14        	stz	$14                     ; 0x2014 <readMIDICmd+0x36>
     5e1: 9c 10 d0     	stz	$d010                   ; 0xd010 <end_block9+0x8b04>
     5e4: a2 00        	ldx	#$0
     5e6: 64 15        	stz	$15                     ; 0x2015 <readMIDICmd+0x37>
     5e8: 86 18        	stx	$18                     ; 0x2018 <readMIDICmd+0x3a>
     5ea: a4 18        	ldy	$18                     ; 0x2018 <readMIDICmd+0x3a>
     5ec: b6 30        	ldx	$30,y                   ; 0x2030 <readMIDICmd+0x52>
     5ee: 86 19        	stx	$19                     ; 0x2019 <readMIDICmd+0x3b>
     5f0: b6 31        	ldx	$31,y                   ; 0x2031 <readMIDICmd+0x53>
     5f2: 86 1a        	stx	$1a                     ; 0x201a <readMIDICmd+0x3c>
     5f4: b6 32        	ldx	$32,y                   ; 0x2032 <readMIDICmd+0x54>
     5f6: 86 1b        	stx	$1b                     ; 0x201b <readMIDICmd+0x3d>
     5f8: a6 15        	ldx	$15                     ; 0x2015 <readMIDICmd+0x37>
     5fa: 8e 00 de     	stx	$de00                   ; 0xde00 <end_block9+0x98f4>
     5fd: 86 17        	stx	$17                     ; 0x2017 <readMIDICmd+0x39>
     5ff: 9c 01 de     	stz	$de01                   ; 0xde01 <end_block9+0x98f5>
     602: a2 04        	ldx	#$4
     604: 8e 02 de     	stx	$de02                   ; 0xde02 <end_block9+0x98f6>
     607: 9c 03 de     	stz	$de03                   ; 0xde03 <end_block9+0x98f7>
     60a: ad 10 de     	lda	$de10                   ; 0xde10 <end_block9+0x9904>
     60d: ac 11 de     	ldy	$de11                   ; 0xde11 <end_block9+0x9905>
     610: 84 15        	sty	$15                     ; 0x2015 <readMIDICmd+0x37>
     612: ac 12 de     	ldy	$de12                   ; 0xde12 <end_block9+0x9906>
     615: ac 13 de     	ldy	$de13                   ; 0xde13 <end_block9+0x9907>
     618: 18           	clc
     619: 65 14        	adc	$14                     ; 0x2014 <readMIDICmd+0x36>
     61b: 85 16        	sta	$16                     ; 0x2016 <readMIDICmd+0x38>
     61d: a6 17        	ldx	$17                     ; 0x2017 <readMIDICmd+0x39>
     61f: a9 d8        	lda	#$d8
     621: 65 15        	adc	$15                     ; 0x2015 <readMIDICmd+0x37>
     623: 85 17        	sta	$17                     ; 0x2017 <readMIDICmd+0x39>
     625: a5 1b        	lda	$1b                     ; 0x201b <readMIDICmd+0x3d>
     627: 92 16        	sta	($16)                   ; 0x2016 <readMIDICmd+0x38>
     629: a0 01        	ldy	#$1
     62b: a5 1a        	lda	$1a                     ; 0x201a <readMIDICmd+0x3c>
     62d: 91 16        	sta	($16),y                 ; 0x2016 <readMIDICmd+0x38>
     62f: c8           	iny
     630: a5 19        	lda	$19                     ; 0x2019 <readMIDICmd+0x3b>
     632: 91 16        	sta	($16),y                 ; 0x2016 <readMIDICmd+0x38>
     634: c8           	iny
     635: a9 ff        	lda	#$ff
     637: 91 16        	sta	($16),y                 ; 0x2016 <readMIDICmd+0x38>
     639: 8e 00 de     	stx	$de00                   ; 0xde00 <end_block9+0x98f4>
     63c: 9c 01 de     	stz	$de01                   ; 0xde01 <end_block9+0x98f5>
     63f: c8           	iny
     640: 8c 02 de     	sty	$de02                   ; 0xde02 <end_block9+0x98f6>
     643: 9c 03 de     	stz	$de03                   ; 0xde03 <end_block9+0x98f7>
     646: ad 10 de     	lda	$de10                   ; 0xde10 <end_block9+0x9904>
     649: 85 15        	sta	$15                     ; 0x2015 <readMIDICmd+0x37>
     64b: ad 11 de     	lda	$de11                   ; 0xde11 <end_block9+0x9905>
     64e: 85 16        	sta	$16                     ; 0x2016 <readMIDICmd+0x38>
     650: a9 40        	lda	#$40
     652: 18           	clc
     653: 65 15        	adc	$15                     ; 0x2015 <readMIDICmd+0x37>
     655: a8           	tay
     656: a9 d8        	lda	#$d8
     658: 65 16        	adc	$16                     ; 0x2016 <readMIDICmd+0x38>
     65a: 85 17        	sta	$17                     ; 0x2017 <readMIDICmd+0x39>
     65c: 84 16        	sty	$16                     ; 0x2016 <readMIDICmd+0x38>
     65e: ad 12 de     	lda	$de12                   ; 0xde12 <end_block9+0x9906>
     661: ad 13 de     	lda	$de13                   ; 0xde13 <end_block9+0x9907>
     664: a5 1b        	lda	$1b                     ; 0x201b <readMIDICmd+0x3d>
     666: 92 16        	sta	($16)                   ; 0x2016 <readMIDICmd+0x38>
     668: a5 1a        	lda	$1a                     ; 0x201a <readMIDICmd+0x3c>
     66a: a0 01        	ldy	#$1
     66c: 91 16        	sta	($16),y                 ; 0x2016 <readMIDICmd+0x38>
     66e: a5 19        	lda	$19                     ; 0x2019 <readMIDICmd+0x3b>
     670: c8           	iny
     671: 91 16        	sta	($16),y                 ; 0x2016 <readMIDICmd+0x38>
     673: c8           	iny
     674: a9 ff        	lda	#$ff
     676: 91 16        	sta	($16),y                 ; 0x2016 <readMIDICmd+0x38>
     678: e8           	inx
     679: 86 15        	stx	$15                     ; 0x2015 <readMIDICmd+0x37>
     67b: 18           	clc
     67c: a5 18        	lda	$18                     ; 0x2018 <readMIDICmd+0x3a>
     67e: 69 03        	adc	#$3
     680: aa           	tax
     681: c9 30        	cmp	#$30
     683: f0 03        	beq	$688 <main+0x1ce>
     685: 4c e8 05     	jmp	$5e8 <main+0x12e>
     688: a6 01        	ldx	$1                      ; 0x2001 <readMIDICmd+0x23>
     68a: 86 18        	stx	$18                     ; 0x2018 <readMIDICmd+0x3a>
     68c: a2 50        	ldx	#$50
     68e: 8e 00 de     	stx	$de00                   ; 0xde00 <end_block9+0x98f4>
     691: 9c 01 de     	stz	$de01                   ; 0xde01 <end_block9+0x98f5>
     694: a2 1e        	ldx	#$1e
     696: 8e 02 de     	stx	$de02                   ; 0xde02 <end_block9+0x98f6>
     699: 9c 03 de     	stz	$de03                   ; 0xde03 <end_block9+0x98f7>
     69c: ae 10 de     	ldx	$de10                   ; 0xde10 <end_block9+0x9904>
     69f: ac 11 de     	ldy	$de11                   ; 0xde11 <end_block9+0x9905>
     6a2: ad 12 de     	lda	$de12                   ; 0xde12 <end_block9+0x9906>
     6a5: ad 13 de     	lda	$de13                   ; 0xde13 <end_block9+0x9907>
     6a8: a9 02        	lda	#$2
     6aa: 85 01        	sta	$1                      ; 0x2001 <readMIDICmd+0x23>
     6ac: e0 01        	cpx	#$1
     6ae: 98           	tya
     6af: e9 00        	sbc	#$0
     6b1: 50 02        	bvc	$6b5 <main+0x1fb>
     6b3: 49 80        	eor	#$80
     6b5: c9 00        	cmp	#$0
     6b7: 10 03        	bpl	$6bc <main+0x202>
     6b9: 4c 13 07     	jmp	$713 <main+0x259>
     6bc: a9 20        	lda	#$20
     6be: 86 19        	stx	$19                     ; 0x2019 <readMIDICmd+0x3b>
     6c0: 86 14        	stx	$14                     ; 0x2014 <readMIDICmd+0x36>
     6c2: 84 15        	sty	$15                     ; 0x2015 <readMIDICmd+0x37>
     6c4: a2 00        	ldx	#$0
     6c6: 86 16        	stx	$16                     ; 0x2016 <readMIDICmd+0x38>
     6c8: a2 c0        	ldx	#$c0
     6ca: 86 17        	stx	$17                     ; 0x2017 <readMIDICmd+0x39>
     6cc: 80 04        	bra	$6d2 <main+0x218>
     6ce: a6 15        	ldx	$15                     ; 0x2015 <readMIDICmd+0x37>
     6d0: f0 14        	beq	$6e6 <main+0x22c>
     6d2: 92 16        	sta	($16)                   ; 0x2016 <readMIDICmd+0x38>
     6d4: e6 16        	inc	$16                     ; 0x2016 <readMIDICmd+0x38>
     6d6: d0 02        	bne	$6da <main+0x220>
     6d8: e6 17        	inc	$17                     ; 0x2017 <readMIDICmd+0x39>
     6da: a2 ff        	ldx	#$ff
     6dc: c6 14        	dec	$14                     ; 0x2014 <readMIDICmd+0x36>
     6de: e4 14        	cpx	$14                     ; 0x2014 <readMIDICmd+0x36>
     6e0: d0 ec        	bne	$6ce <main+0x214>
     6e2: c6 15        	dec	$15                     ; 0x2015 <readMIDICmd+0x37>
     6e4: 80 e8        	bra	$6ce <main+0x214>
     6e6: a6 14        	ldx	$14                     ; 0x2014 <readMIDICmd+0x36>
     6e8: d0 e8        	bne	$6d2 <main+0x218>
     6ea: a2 03        	ldx	#$3
     6ec: 86 01        	stx	$1                      ; 0x2001 <readMIDICmd+0x23>
     6ee: a6 19        	ldx	$19                     ; 0x2019 <readMIDICmd+0x3b>
     6f0: 80 03        	bra	$6f5 <main+0x23b>
     6f2: 98           	tya
     6f3: f0 19        	beq	$70e <main+0x254>
     6f5: a9 f0        	lda	#$f0
     6f7: 92 12        	sta	($12)                   ; 0x2012 <readMIDICmd+0x34>
     6f9: e6 12        	inc	$12                     ; 0x2012 <readMIDICmd+0x34>
     6fb: f0 07        	beq	$704 <main+0x24a>
     6fd: ca           	dex
     6fe: e0 ff        	cpx	#$ff
     700: d0 f0        	bne	$6f2 <main+0x238>
     702: 80 07        	bra	$70b <main+0x251>
     704: e6 13        	inc	$13                     ; 0x2013 <readMIDICmd+0x35>
     706: ca           	dex
     707: e0 ff        	cpx	#$ff
     709: d0 e7        	bne	$6f2 <main+0x238>
     70b: 88           	dey
     70c: 80 e4        	bra	$6f2 <main+0x238>
     70e: 8a           	txa
     70f: d0 e4        	bne	$6f5 <main+0x23b>
     711: 80 04        	bra	$717 <main+0x25d>
     713: a2 03        	ldx	#$3
     715: 86 01        	stx	$1                      ; 0x2001 <readMIDICmd+0x23>
     717: a6 18        	ldx	$18                     ; 0x2018 <readMIDICmd+0x3a>
     719: 86 01        	stx	$1                      ; 0x2001 <readMIDICmd+0x23>
     71b: 64 60        	stz	$60                     ; 0x2060 <readMIDICmd+0x82>
     71d: 9c 14 d0     	stz	$d014                   ; 0xd014 <end_block9+0x8b08>
     720: 9c 15 d0     	stz	$d015                   ; 0xd015 <end_block9+0x8b09>
     723: 64 61        	stz	$61                     ; 0x2061 <readMIDICmd+0x83>
     725: 9c 16 d0     	stz	$d016                   ; 0xd016 <end_block9+0x8b0a>
     728: 9c 17 d0     	stz	$d017                   ; 0xd017 <end_block9+0x8b0b>
     72b: a2 40        	ldx	#$40
     72d: 8e 00 de     	stx	$de00                   ; 0xde00 <end_block9+0x98f4>
     730: a2 01        	ldx	#$1
     732: 8e 01 de     	stx	$de01                   ; 0xde01 <end_block9+0x98f5>
     735: a2 f0        	ldx	#$f0
     737: 8e 02 de     	stx	$de02                   ; 0xde02 <end_block9+0x98f6>
     73a: 9c 03 de     	stz	$de03                   ; 0xde03 <end_block9+0x98f7>
     73d: ae 10 de     	ldx	$de10                   ; 0xde10 <end_block9+0x9904>
     740: 86 17        	stx	$17                     ; 0x2017 <readMIDICmd+0x39>
     742: ae 11 de     	ldx	$de11                   ; 0xde11 <end_block9+0x9905>
     745: 86 12        	stx	$12                     ; 0x2012 <readMIDICmd+0x34>
     747: ae 12 de     	ldx	$de12                   ; 0xde12 <end_block9+0x9906>
     74a: 86 13        	stx	$13                     ; 0x2013 <readMIDICmd+0x35>
     74c: ae 13 de     	ldx	$de13                   ; 0xde13 <end_block9+0x9907>
     74f: 86 14        	stx	$14                     ; 0x2014 <readMIDICmd+0x36>
     751: a4 12        	ldy	$12                     ; 0x2012 <readMIDICmd+0x34>
     753: 84 15        	sty	$15                     ; 0x2015 <readMIDICmd+0x37>
     755: 06 15        	asl	$15                     ; 0x2015 <readMIDICmd+0x37>
     757: a5 13        	lda	$13                     ; 0x2013 <readMIDICmd+0x35>
     759: 2a           	rol
     75a: 86 16        	stx	$16                     ; 0x2016 <readMIDICmd+0x38>
     75c: 26 16        	rol	$16                     ; 0x2016 <readMIDICmd+0x38>
     75e: 06 15        	asl	$15                     ; 0x2015 <readMIDICmd+0x37>
     760: 2a           	rol
     761: 26 16        	rol	$16                     ; 0x2016 <readMIDICmd+0x38>
     763: 06 15        	asl	$15                     ; 0x2015 <readMIDICmd+0x37>
     765: 2a           	rol
     766: 26 16        	rol	$16                     ; 0x2016 <readMIDICmd+0x38>
     768: 85 15        	sta	$15                     ; 0x2015 <readMIDICmd+0x37>
     76a: 8d 00 de     	sta	$de00                   ; 0xde00 <end_block9+0x98f4>
     76d: a5 16        	lda	$16                     ; 0x2016 <readMIDICmd+0x38>
     76f: 8d 01 de     	sta	$de01                   ; 0xde01 <end_block9+0x98f5>
     772: 9c 02 de     	stz	$de02                   ; 0xde02 <end_block9+0x98f6>
     775: a2 20        	ldx	#$20
     777: 8e 03 de     	stx	$de03                   ; 0xde03 <end_block9+0x98f7>
     77a: ae 10 de     	ldx	$de10                   ; 0xde10 <end_block9+0x9904>
     77d: 86 16        	stx	$16                     ; 0x2016 <readMIDICmd+0x38>
     77f: ae 11 de     	ldx	$de11                   ; 0xde11 <end_block9+0x9905>
     782: 86 18        	stx	$18                     ; 0x2018 <readMIDICmd+0x3a>
     784: ac 12 de     	ldy	$de12                   ; 0xde12 <end_block9+0x9906>
     787: ae 13 de     	ldx	$de13                   ; 0xde13 <end_block9+0x9907>
     78a: e4 14        	cpx	$14                     ; 0x2014 <readMIDICmd+0x36>
     78c: d0 14        	bne	$7a2 <main+0x2e8>
     78e: c4 13        	cpy	$13                     ; 0x2013 <readMIDICmd+0x35>
     790: d0 10        	bne	$7a2 <main+0x2e8>
     792: a6 18        	ldx	$18                     ; 0x2018 <readMIDICmd+0x3a>
     794: e4 12        	cpx	$12                     ; 0x2012 <readMIDICmd+0x34>
     796: d0 0a        	bne	$7a2 <main+0x2e8>
     798: a6 16        	ldx	$16                     ; 0x2016 <readMIDICmd+0x38>
     79a: e4 17        	cpx	$17                     ; 0x2017 <readMIDICmd+0x39>
     79c: d0 04        	bne	$7a2 <main+0x2e8>
     79e: a6 15        	ldx	$15                     ; 0x2015 <readMIDICmd+0x37>
     7a0: 80 06        	bra	$7a8 <main+0x2ee>
     7a2: a6 15        	ldx	$15                     ; 0x2015 <readMIDICmd+0x37>
     7a4: e8           	inx
     7a5: d0 01        	bne	$7a8 <main+0x2ee>
     7a7: 1a           	inc
     7a8: 8e 00 de     	stx	$de00                   ; 0xde00 <end_block9+0x98f4>
     7ab: 8d 01 de     	sta	$de01                   ; 0xde01 <end_block9+0x98f5>
     7ae: 9c 02 de     	stz	$de02                   ; 0xde02 <end_block9+0x98f6>
     7b1: a2 20        	ldx	#$20
     7b3: 8e 03 de     	stx	$de03                   ; 0xde03 <end_block9+0x98f7>
     7b6: ae 10 de     	ldx	$de10                   ; 0xde10 <end_block9+0x9904>
     7b9: 86 12        	stx	$12                     ; 0x2012 <readMIDICmd+0x34>
     7bb: ae 11 de     	ldx	$de11                   ; 0xde11 <end_block9+0x9905>
     7be: 86 13        	stx	$13                     ; 0x2013 <readMIDICmd+0x35>
     7c0: ae 12 de     	ldx	$de12                   ; 0xde12 <end_block9+0x9906>
     7c3: 86 14        	stx	$14                     ; 0x2014 <readMIDICmd+0x36>
     7c5: ae 13 de     	ldx	$de13                   ; 0xde13 <end_block9+0x9907>
     7c8: 86 15        	stx	$15                     ; 0x2015 <readMIDICmd+0x37>
     7ca: a9 00        	lda	#$0
     7cc: 38           	sec
     7cd: e5 12        	sbc	$12                     ; 0x2012 <readMIDICmd+0x34>
     7cf: 85 19        	sta	$19                     ; 0x2019 <readMIDICmd+0x3b>
     7d1: a9 00        	lda	#$0
     7d3: e5 13        	sbc	$13                     ; 0x2013 <readMIDICmd+0x35>
     7d5: aa           	tax
     7d6: a9 08        	lda	#$8
     7d8: e5 14        	sbc	$14                     ; 0x2014 <readMIDICmd+0x36>
     7da: 85 16        	sta	$16                     ; 0x2016 <readMIDICmd+0x38>
     7dc: a9 00        	lda	#$0
     7de: e5 15        	sbc	$15                     ; 0x2015 <readMIDICmd+0x37>
     7e0: 86 63        	stx	$63                     ; 0x2063 <readMIDICmd+0x85>
     7e2: a4 16        	ldy	$16                     ; 0x2016 <readMIDICmd+0x38>
     7e4: 84 64        	sty	$64                     ; 0x2064 <readMIDICmd+0x86>
     7e6: 85 65        	sta	$65                     ; 0x2065 <readMIDICmd+0x87>
     7e8: a8           	tay
     7e9: a5 19        	lda	$19                     ; 0x2019 <readMIDICmd+0x3b>
     7eb: 38           	sec
     7ec: e5 12        	sbc	$12                     ; 0x2012 <readMIDICmd+0x34>
     7ee: 85 18        	sta	$18                     ; 0x2018 <readMIDICmd+0x3a>
     7f0: 8a           	txa
     7f1: e5 13        	sbc	$13                     ; 0x2013 <readMIDICmd+0x35>
     7f3: 85 1a        	sta	$1a                     ; 0x201a <readMIDICmd+0x3c>
     7f5: a5 16        	lda	$16                     ; 0x2016 <readMIDICmd+0x38>
     7f7: e5 14        	sbc	$14                     ; 0x2014 <readMIDICmd+0x36>
     7f9: 85 16        	sta	$16                     ; 0x2016 <readMIDICmd+0x38>
     7fb: 98           	tya
     7fc: e5 15        	sbc	$15                     ; 0x2015 <readMIDICmd+0x37>
     7fe: 85 17        	sta	$17                     ; 0x2017 <readMIDICmd+0x39>
     800: 38           	sec
     801: a4 18        	ldy	$18                     ; 0x2018 <readMIDICmd+0x3a>
     803: 84 66        	sty	$66                     ; 0x2066 <readMIDICmd+0x88>
     805: a6 1a        	ldx	$1a                     ; 0x201a <readMIDICmd+0x3c>
     807: 86 67        	stx	$67                     ; 0x2067 <readMIDICmd+0x89>
     809: a4 16        	ldy	$16                     ; 0x2016 <readMIDICmd+0x38>
     80b: 84 68        	sty	$68                     ; 0x2068 <readMIDICmd+0x8a>
     80d: 85 69        	sta	$69                     ; 0x2069 <readMIDICmd+0x8b>
     80f: a5 18        	lda	$18                     ; 0x2018 <readMIDICmd+0x3a>
     811: e5 12        	sbc	$12                     ; 0x2012 <readMIDICmd+0x34>
     813: 85 18        	sta	$18                     ; 0x2018 <readMIDICmd+0x3a>
     815: a5 1a        	lda	$1a                     ; 0x201a <readMIDICmd+0x3c>
     817: e5 13        	sbc	$13                     ; 0x2013 <readMIDICmd+0x35>
     819: a8           	tay
     81a: a5 16        	lda	$16                     ; 0x2016 <readMIDICmd+0x38>
     81c: e5 14        	sbc	$14                     ; 0x2014 <readMIDICmd+0x36>
     81e: 85 12        	sta	$12                     ; 0x2012 <readMIDICmd+0x34>
     820: a5 17        	lda	$17                     ; 0x2017 <readMIDICmd+0x39>
     822: e5 15        	sbc	$15                     ; 0x2015 <readMIDICmd+0x37>
     824: a6 18        	ldx	$18                     ; 0x2018 <readMIDICmd+0x3a>
     826: 86 6a        	stx	$6a                     ; 0x206a <readMIDICmd+0x8c>
     828: 84 6b        	sty	$6b                     ; 0x206b <readMIDICmd+0x8d>
     82a: a6 19        	ldx	$19                     ; 0x2019 <readMIDICmd+0x3b>
     82c: 86 62        	stx	$62                     ; 0x2062 <readMIDICmd+0x84>
     82e: a4 12        	ldy	$12                     ; 0x2012 <readMIDICmd+0x34>
     830: 84 6c        	sty	$6c                     ; 0x206c <readMIDICmd+0x8e>
     832: 85 6d        	sta	$6d                     ; 0x206d <readMIDICmd+0x8f>
     834: 8e 01 d1     	stx	$d101                   ; 0xd101 <end_block9+0x8bf5>
     837: a6 63        	ldx	$63                     ; 0x2063 <readMIDICmd+0x85>
     839: 8e 02 d1     	stx	$d102                   ; 0xd102 <end_block9+0x8bf6>
     83c: a6 64        	ldx	$64                     ; 0x2064 <readMIDICmd+0x86>
     83e: 8e 03 d1     	stx	$d103                   ; 0xd103 <end_block9+0x8bf7>
     841: a6 66        	ldx	$66                     ; 0x2066 <readMIDICmd+0x88>
     843: 8e 09 d1     	stx	$d109                   ; 0xd109 <end_block9+0x8bfd>
     846: a6 67        	ldx	$67                     ; 0x2067 <readMIDICmd+0x89>
     848: 8e 0a d1     	stx	$d10a                   ; 0xd10a <end_block9+0x8bfe>
     84b: a6 68        	ldx	$68                     ; 0x2068 <readMIDICmd+0x8a>
     84d: 8e 0b d1     	stx	$d10b                   ; 0xd10b <end_block9+0x8bff>
     850: a6 6a        	ldx	$6a                     ; 0x206a <readMIDICmd+0x8c>
     852: 8e 11 d1     	stx	$d111                   ; 0xd111 <end_block9+0x8c05>
     855: a6 6b        	ldx	$6b                     ; 0x206b <readMIDICmd+0x8d>
     857: 8e 12 d1     	stx	$d112                   ; 0xd112 <end_block9+0x8c06>
     85a: a6 6c        	ldx	$6c                     ; 0x206c <readMIDICmd+0x8e>
     85c: 8e 13 d1     	stx	$d113                   ; 0xd113 <end_block9+0x8c07>
     85f: 9c 00 d1     	stz	$d100                   ; 0xd100 <end_block9+0x8bf4>
     862: 9c 08 d1     	stz	$d108                   ; 0xd108 <end_block9+0x8bfc>
     865: 9c 10 d1     	stz	$d110                   ; 0xd110 <end_block9+0x8c04>
     868: a2 10        	ldx	#$10
     86a: 8e 00 d2     	stx	$d200                   ; 0xd200 <end_block9+0x8cf4>
     86d: 8e 0c d2     	stx	$d20c                   ; 0xd20c <end_block9+0x8d00>
     870: 8e 18 d2     	stx	$d218                   ; 0xd218 <end_block9+0x8d0c>
     873: a0 d9        	ldy	#$d9
     875: a2 40        	ldx	#$40
     877: 64 12        	stz	$12                     ; 0x2012 <readMIDICmd+0x34>
     879: 84 13        	sty	$13                     ; 0x2013 <readMIDICmd+0x35>
     87b: a9 00        	lda	#$0
     87d: 92 12        	sta	($12)                   ; 0x2012 <readMIDICmd+0x34>
     87f: ca           	dex
     880: 18           	clc
     881: a5 12        	lda	$12                     ; 0x2012 <readMIDICmd+0x34>
     883: 69 08        	adc	#$8
     885: 85 12        	sta	$12                     ; 0x2012 <readMIDICmd+0x34>
     887: 98           	tya
     888: 69 00        	adc	#$0
     88a: a8           	tay
     88b: 8a           	txa
     88c: d0 eb        	bne	$879 <main+0x3bf>
     88e: 18           	clc
     88f: a5 10        	lda	$10                     ; 0x2010 <readMIDICmd+0x32>
     891: 69 05        	adc	#$5
     893: 85 12        	sta	$12                     ; 0x2012 <readMIDICmd+0x34>
     895: a5 11        	lda	$11                     ; 0x2011 <readMIDICmd+0x33>
     897: 69 00        	adc	#$0
     899: 85 13        	sta	$13                     ; 0x2013 <readMIDICmd+0x35>
     89b: a6 12        	ldx	$12                     ; 0x2012 <readMIDICmd+0x34>
     89d: 86 fb        	stx	$fb                     ; 0x20fb <readMIDICmd+0x11d>
     89f: 85 fc        	sta	$fc                     ; 0x20fc <readMIDICmd+0x11e>
     8a1: a2 08        	ldx	#$8
     8a3: 86 fd        	stx	$fd                     ; 0x20fd <readMIDICmd+0x11f>
     8a5: 18           	clc
     8a6: a5 10        	lda	$10                     ; 0x2010 <readMIDICmd+0x32>
     8a8: 69 04        	adc	#$4
     8aa: 85 14        	sta	$14                     ; 0x2014 <readMIDICmd+0x36>
     8ac: a5 11        	lda	$11                     ; 0x2011 <readMIDICmd+0x33>
     8ae: 69 00        	adc	#$0
     8b0: 85 15        	sta	$15                     ; 0x2015 <readMIDICmd+0x37>
     8b2: a2 0b        	ldx	#$b
     8b4: 86 26        	stx	$26                     ; 0x2026 <readMIDICmd+0x48>
     8b6: a2 45        	ldx	#$45
     8b8: 86 27        	stx	$27                     ; 0x2027 <readMIDICmd+0x49>
     8ba: a0 06        	ldy	#$6
     8bc: 20 dc ff     	jsr	$ffdc <end_block9+0xbad0>
     8bf: 92 14        	sta	($14)                   ; 0x2014 <readMIDICmd+0x36>
     8c1: a9 00        	lda	#$0
     8c3: 6a           	ror
     8c4: 85 26        	sta	$26                     ; 0x2026 <readMIDICmd+0x48>
     8c6: b1 12        	lda	($12),y                 ; 0x2012 <readMIDICmd+0x34>
     8c8: 85 14        	sta	$14                     ; 0x2014 <readMIDICmd+0x36>
     8ca: c8           	iny
     8cb: b1 12        	lda	($12),y                 ; 0x2012 <readMIDICmd+0x34>
     8cd: a6 14        	ldx	$14                     ; 0x2014 <readMIDICmd+0x36>
     8cf: 8e 00 de     	stx	$de00                   ; 0xde00 <end_block9+0x98f4>
     8d2: 9c 01 de     	stz	$de01                   ; 0xde01 <end_block9+0x98f5>
     8d5: 8d 02 de     	sta	$de02                   ; 0xde02 <end_block9+0x98f6>
     8d8: 9c 03 de     	stz	$de03                   ; 0xde03 <end_block9+0x98f7>
     8db: ae 10 de     	ldx	$de10                   ; 0xde10 <end_block9+0x9904>
     8de: ac 11 de     	ldy	$de11                   ; 0xde11 <end_block9+0x9905>
     8e1: ad 12 de     	lda	$de12                   ; 0xde12 <end_block9+0x9906>
     8e4: ad 13 de     	lda	$de13                   ; 0xde13 <end_block9+0x9907>
     8e7: 8e a4 d6     	stx	$d6a4                   ; 0xd6a4 <end_block9+0x9198>
     8ea: 8c a5 d6     	sty	$d6a5                   ; 0xd6a5 <end_block9+0x9199>
     8ed: a2 03        	ldx	#$3
     8ef: 8e a6 d6     	stx	$d6a6                   ; 0xd6a6 <end_block9+0x919a>
     8f2: a2 b0        	ldx	#$b0
     8f4: 8e a1 dd     	stx	$dda1                   ; 0xdda1 <end_block9+0x9895>
     8f7: a2 7b        	ldx	#$7b
     8f9: 8e a1 dd     	stx	$dda1                   ; 0xdda1 <end_block9+0x9895>
     8fc: 9c a1 dd     	stz	$dda1                   ; 0xdda1 <end_block9+0x9895>
     8ff: a0 b1        	ldy	#$b1
     901: 8c a1 dd     	sty	$dda1                   ; 0xdda1 <end_block9+0x9895>
     904: 8e a1 dd     	stx	$dda1                   ; 0xdda1 <end_block9+0x9895>
     907: 9c a1 dd     	stz	$dda1                   ; 0xdda1 <end_block9+0x9895>
     90a: c8           	iny
     90b: 8c a1 dd     	sty	$dda1                   ; 0xdda1 <end_block9+0x9895>
     90e: 8e a1 dd     	stx	$dda1                   ; 0xdda1 <end_block9+0x9895>
     911: 9c a1 dd     	stz	$dda1                   ; 0xdda1 <end_block9+0x9895>
     914: c8           	iny
     915: 8c a1 dd     	sty	$dda1                   ; 0xdda1 <end_block9+0x9895>
     918: 8e a1 dd     	stx	$dda1                   ; 0xdda1 <end_block9+0x9895>
     91b: 9c a1 dd     	stz	$dda1                   ; 0xdda1 <end_block9+0x9895>
     91e: c8           	iny
     91f: 8c a1 dd     	sty	$dda1                   ; 0xdda1 <end_block9+0x9895>
     922: 8e a1 dd     	stx	$dda1                   ; 0xdda1 <end_block9+0x9895>
     925: 9c a1 dd     	stz	$dda1                   ; 0xdda1 <end_block9+0x9895>
     928: c8           	iny
     929: 8c a1 dd     	sty	$dda1                   ; 0xdda1 <end_block9+0x9895>
     92c: 8e a1 dd     	stx	$dda1                   ; 0xdda1 <end_block9+0x9895>
     92f: 9c a1 dd     	stz	$dda1                   ; 0xdda1 <end_block9+0x9895>
     932: c8           	iny
     933: 8c a1 dd     	sty	$dda1                   ; 0xdda1 <end_block9+0x9895>
     936: 8e a1 dd     	stx	$dda1                   ; 0xdda1 <end_block9+0x9895>
     939: 9c a1 dd     	stz	$dda1                   ; 0xdda1 <end_block9+0x9895>
     93c: c8           	iny
     93d: 8c a1 dd     	sty	$dda1                   ; 0xdda1 <end_block9+0x9895>
     940: 8e a1 dd     	stx	$dda1                   ; 0xdda1 <end_block9+0x9895>
     943: 9c a1 dd     	stz	$dda1                   ; 0xdda1 <end_block9+0x9895>
     946: c8           	iny
     947: 8c a1 dd     	sty	$dda1                   ; 0xdda1 <end_block9+0x9895>
     94a: 8e a1 dd     	stx	$dda1                   ; 0xdda1 <end_block9+0x9895>
     94d: 9c a1 dd     	stz	$dda1                   ; 0xdda1 <end_block9+0x9895>
     950: c8           	iny
     951: 8c a1 dd     	sty	$dda1                   ; 0xdda1 <end_block9+0x9895>
     954: 8e a1 dd     	stx	$dda1                   ; 0xdda1 <end_block9+0x9895>
     957: 9c a1 dd     	stz	$dda1                   ; 0xdda1 <end_block9+0x9895>
     95a: c8           	iny
     95b: 8c a1 dd     	sty	$dda1                   ; 0xdda1 <end_block9+0x9895>
     95e: 8e a1 dd     	stx	$dda1                   ; 0xdda1 <end_block9+0x9895>
     961: 9c a1 dd     	stz	$dda1                   ; 0xdda1 <end_block9+0x9895>
     964: c8           	iny
     965: 8c a1 dd     	sty	$dda1                   ; 0xdda1 <end_block9+0x9895>
     968: 8e a1 dd     	stx	$dda1                   ; 0xdda1 <end_block9+0x9895>
     96b: 9c a1 dd     	stz	$dda1                   ; 0xdda1 <end_block9+0x9895>
     96e: c8           	iny
     96f: 8c a1 dd     	sty	$dda1                   ; 0xdda1 <end_block9+0x9895>
     972: 8e a1 dd     	stx	$dda1                   ; 0xdda1 <end_block9+0x9895>
     975: 9c a1 dd     	stz	$dda1                   ; 0xdda1 <end_block9+0x9895>
     978: c8           	iny
     979: 8c a1 dd     	sty	$dda1                   ; 0xdda1 <end_block9+0x9895>
     97c: 8e a1 dd     	stx	$dda1                   ; 0xdda1 <end_block9+0x9895>
     97f: 9c a1 dd     	stz	$dda1                   ; 0xdda1 <end_block9+0x9895>
     982: c8           	iny
     983: 8c a1 dd     	sty	$dda1                   ; 0xdda1 <end_block9+0x9895>
     986: 8e a1 dd     	stx	$dda1                   ; 0xdda1 <end_block9+0x9895>
     989: 9c a1 dd     	stz	$dda1                   ; 0xdda1 <end_block9+0x9895>
     98c: c8           	iny
     98d: 8c a1 dd     	sty	$dda1                   ; 0xdda1 <end_block9+0x9895>
     990: 8e a1 dd     	stx	$dda1                   ; 0xdda1 <end_block9+0x9895>
     993: 9c a1 dd     	stz	$dda1                   ; 0xdda1 <end_block9+0x9895>
     996: a4 0f        	ldy	$f                      ; 0x200f <readMIDICmd+0x31>
     998: 78           	sei
     999: a9 08        	lda	#$8
     99b: 85 0f        	sta	$f                      ; 0x200f <readMIDICmd+0x31>
     99d: ae 0a e0     	ldx	$e00a                   ; 0xe00a <end_block9+0x9afe>
     9a0: 84 0f        	sty	$f                      ; 0x200f <readMIDICmd+0x31>
     9a2: 58           	cli
     9a3: a4 0f        	ldy	$f                      ; 0x200f <readMIDICmd+0x31>
     9a5: 78           	sei
     9a6: 85 0f        	sta	$f                      ; 0x200f <readMIDICmd+0x31>
     9a8: ad 0b e0     	lda	$e00b                   ; 0xe00b <end_block9+0x9aff>
     9ab: 84 0f        	sty	$f                      ; 0x200f <readMIDICmd+0x31>
     9ad: 64 13        	stz	$13                     ; 0x2013 <readMIDICmd+0x35>
     9af: 58           	cli
     9b0: 85 70        	sta	$70                     ; 0x2070 <readMIDICmd+0x92>
     9b2: 86 71        	stx	$71                     ; 0x2071 <readMIDICmd+0x93>
     9b4: a0 19        	ldy	#$19
     9b6: 84 12        	sty	$12                     ; 0x2012 <readMIDICmd+0x34>
     9b8: 20 b5 41     	jsr	$41b5 <__mulhi3>
     9bb: 20 bd 3e     	jsr	$3ebd <malloc>
     9be: a6 12        	ldx	$12                     ; 0x2012 <readMIDICmd+0x34>
     9c0: a4 13        	ldy	$13                     ; 0x2013 <readMIDICmd+0x35>
     9c2: 86 7f        	stx	$7f                     ; 0x207f <readMIDICmd+0xa1>
     9c4: 84 80        	sty	$80                     ; 0x2080 <readMIDICmd+0xa2>
     9c6: 64 78        	stz	$78                     ; 0x2078 <readMIDICmd+0x9a>
     9c8: a2 20        	ldx	#$20
     9ca: 86 74        	stx	$74                     ; 0x2074 <readMIDICmd+0x96>
     9cc: a2 a1        	ldx	#$a1
     9ce: 86 75        	stx	$75                     ; 0x2075 <readMIDICmd+0x97>
     9d0: a2 07        	ldx	#$7
     9d2: 86 76        	stx	$76                     ; 0x2076 <readMIDICmd+0x98>
     9d4: 64 77        	stz	$77                     ; 0x2077 <readMIDICmd+0x99>
     9d6: a2 ff        	ldx	#$ff
     9d8: 86 79        	stx	$79                     ; 0x2079 <readMIDICmd+0x9b>
     9da: 86 7a        	stx	$7a                     ; 0x207a <readMIDICmd+0x9c>
     9dc: 86 7b        	stx	$7b                     ; 0x207b <readMIDICmd+0x9d>
     9de: 86 7c        	stx	$7c                     ; 0x207c <readMIDICmd+0x9e>
     9e0: 64 7d        	stz	$7d                     ; 0x207d <readMIDICmd+0x9f>
     9e2: 64 7e        	stz	$7e                     ; 0x207e <readMIDICmd+0xa0>
     9e4: a2 30        	ldx	#$30
     9e6: 86 72        	stx	$72                     ; 0x2072 <readMIDICmd+0x94>
     9e8: 64 73        	stz	$73                     ; 0x2073 <readMIDICmd+0x95>
     9ea: a4 0f        	ldy	$f                      ; 0x200f <readMIDICmd+0x31>
     9ec: 78           	sei
     9ed: a9 08        	lda	#$8
     9ef: 85 0f        	sta	$f                      ; 0x200f <readMIDICmd+0x31>
     9f1: ae 0c e0     	ldx	$e00c                   ; 0xe00c <end_block9+0x9b00>
     9f4: 84 0f        	sty	$f                      ; 0x200f <readMIDICmd+0x31>
     9f6: 58           	cli
     9f7: a4 0f        	ldy	$f                      ; 0x200f <readMIDICmd+0x31>
     9f9: 78           	sei
     9fa: 85 0f        	sta	$f                      ; 0x200f <readMIDICmd+0x31>
     9fc: ad 0d e0     	lda	$e00d                   ; 0xe00d <end_block9+0x9b01>
     9ff: 84 0f        	sty	$f                      ; 0x200f <readMIDICmd+0x31>
     a01: 58           	cli
     a02: 85 72        	sta	$72                     ; 0x2072 <readMIDICmd+0x94>
     a04: 86 73        	stx	$73                     ; 0x2073 <readMIDICmd+0x95>
     a06: a6 70        	ldx	$70                     ; 0x2070 <readMIDICmd+0x92>
     a08: a4 71        	ldy	$71                     ; 0x2071 <readMIDICmd+0x93>
     a0a: d0 06        	bne	$a12 <main+0x558>
     a0c: 8a           	txa
     a0d: d0 03        	bne	$a12 <main+0x558>
     a0f: 4c 7a 0d     	jmp	$d7a <main+0x8c0>
     a12: a5 7f        	lda	$7f                     ; 0x207f <readMIDICmd+0xa1>
     a14: 85 24        	sta	$24                     ; 0x2024 <readMIDICmd+0x46>
     a16: a5 80        	lda	$80                     ; 0x2080 <readMIDICmd+0xa2>
     a18: 85 25        	sta	$25                     ; 0x2025 <readMIDICmd+0x47>
     a1a: 86 28        	stx	$28                     ; 0x2028 <readMIDICmd+0x4a>
     a1c: 84 29        	sty	$29                     ; 0x2029 <readMIDICmd+0x4b>
     a1e: 80 06        	bra	$a26 <main+0x56c>
     a20: 85 25        	sta	$25                     ; 0x2025 <readMIDICmd+0x47>
     a22: a5 29        	lda	$29                     ; 0x2029 <readMIDICmd+0x4b>
     a24: f0 32        	beq	$a58 <main+0x59e>
     a26: a6 24        	ldx	$24                     ; 0x2024 <readMIDICmd+0x46>
     a28: 86 12        	stx	$12                     ; 0x2012 <readMIDICmd+0x34>
     a2a: a6 25        	ldx	$25                     ; 0x2025 <readMIDICmd+0x47>
     a2c: 86 13        	stx	$13                     ; 0x2013 <readMIDICmd+0x35>
     a2e: 64 14        	stz	$14                     ; 0x2014 <readMIDICmd+0x36>
     a30: a9 00        	lda	#$0
     a32: a2 17        	ldx	#$17
     a34: 20 95 41     	jsr	$4195 <__memset>
     a37: a9 01        	lda	#$1
     a39: a0 17        	ldy	#$17
     a3b: 91 24        	sta	($24),y                 ; 0x2024 <readMIDICmd+0x46>
     a3d: c8           	iny
     a3e: 3a           	dec
     a3f: 91 24        	sta	($24),y                 ; 0x2024 <readMIDICmd+0x46>
     a41: a5 24        	lda	$24                     ; 0x2024 <readMIDICmd+0x46>
     a43: 18           	clc
     a44: 69 19        	adc	#$19
     a46: 85 24        	sta	$24                     ; 0x2024 <readMIDICmd+0x46>
     a48: a5 25        	lda	$25                     ; 0x2025 <readMIDICmd+0x47>
     a4a: 69 00        	adc	#$0
     a4c: a2 ff        	ldx	#$ff
     a4e: c6 28        	dec	$28                     ; 0x2028 <readMIDICmd+0x4a>
     a50: e4 28        	cpx	$28                     ; 0x2028 <readMIDICmd+0x4a>
     a52: d0 cc        	bne	$a20 <main+0x566>
     a54: c6 29        	dec	$29                     ; 0x2029 <readMIDICmd+0x4b>
     a56: 80 c8        	bra	$a20 <main+0x566>
     a58: a5 28        	lda	$28                     ; 0x2028 <readMIDICmd+0x4a>
     a5a: d0 ca        	bne	$a26 <main+0x56c>
     a5c: a2 0e        	ldx	#$e
     a5e: 8a           	txa
     a5f: a0 01        	ldy	#$1
     a61: 91 10        	sta	($10),y                 ; 0x2010 <readMIDICmd+0x32>
     a63: a2 08        	ldx	#$8
     a65: 8a           	txa
     a66: c8           	iny
     a67: 91 10        	sta	($10),y                 ; 0x2010 <readMIDICmd+0x32>
     a69: 64 18        	stz	$18                     ; 0x2018 <readMIDICmd+0x3a>
     a6b: 64 19        	stz	$19                     ; 0x2019 <readMIDICmd+0x3b>
     a6d: 64 17        	stz	$17                     ; 0x2017 <readMIDICmd+0x39>
     a6f: a9 00        	lda	#$0
     a71: aa           	tax
     a72: 64 29        	stz	$29                     ; 0x2029 <readMIDICmd+0x4b>
     a74: 85 12        	sta	$12                     ; 0x2012 <readMIDICmd+0x34>
     a76: a4 17        	ldy	$17                     ; 0x2017 <readMIDICmd+0x39>
     a78: 84 13        	sty	$13                     ; 0x2013 <readMIDICmd+0x35>
     a7a: a4 19        	ldy	$19                     ; 0x2019 <readMIDICmd+0x3b>
     a7c: 84 14        	sty	$14                     ; 0x2014 <readMIDICmd+0x36>
     a7e: a0 01        	ldy	#$1
     a80: b1 10        	lda	($10),y                 ; 0x2010 <readMIDICmd+0x32>
     a82: 85 15        	sta	$15                     ; 0x2015 <readMIDICmd+0x37>
     a84: 18           	clc
     a85: 69 04        	adc	#$4
     a87: 85 17        	sta	$17                     ; 0x2017 <readMIDICmd+0x39>
     a89: a5 19        	lda	$19                     ; 0x2019 <readMIDICmd+0x3b>
     a8b: 69 00        	adc	#$0
     a8d: 85 19        	sta	$19                     ; 0x2019 <readMIDICmd+0x3b>
     a8f: a5 13        	lda	$13                     ; 0x2013 <readMIDICmd+0x35>
     a91: 69 01        	adc	#$1
     a93: a4 19        	ldy	$19                     ; 0x2019 <readMIDICmd+0x3b>
     a95: 84 16        	sty	$16                     ; 0x2016 <readMIDICmd+0x38>
     a97: 06 16        	asl	$16                     ; 0x2016 <readMIDICmd+0x38>
     a99: 2a           	rol
     a9a: 06 16        	asl	$16                     ; 0x2016 <readMIDICmd+0x38>
     a9c: 2a           	rol
     a9d: 06 16        	asl	$16                     ; 0x2016 <readMIDICmd+0x38>
     a9f: 2a           	rol
     aa0: 86 1a        	stx	$1a                     ; 0x201a <readMIDICmd+0x3c>
     aa2: a6 0f        	ldx	$f                      ; 0x200f <readMIDICmd+0x31>
     aa4: 78           	sei
     aa5: 85 0f        	sta	$f                      ; 0x200f <readMIDICmd+0x31>
     aa7: a5 19        	lda	$19                     ; 0x2019 <readMIDICmd+0x3b>
     aa9: 09 e0        	ora	#$e0
     aab: a4 17        	ldy	$17                     ; 0x2017 <readMIDICmd+0x39>
     aad: 84 16        	sty	$16                     ; 0x2016 <readMIDICmd+0x38>
     aaf: 85 17        	sta	$17                     ; 0x2017 <readMIDICmd+0x39>
     ab1: b2 16        	lda	($16)                   ; 0x2016 <readMIDICmd+0x38>
     ab3: 85 1c        	sta	$1c                     ; 0x201c <readMIDICmd+0x3e>
     ab5: 86 0f        	stx	$f                      ; 0x200f <readMIDICmd+0x31>
     ab7: 18           	clc
     ab8: a5 15        	lda	$15                     ; 0x2015 <readMIDICmd+0x37>
     aba: 69 05        	adc	#$5
     abc: 85 17        	sta	$17                     ; 0x2017 <readMIDICmd+0x39>
     abe: a5 14        	lda	$14                     ; 0x2014 <readMIDICmd+0x36>
     ac0: 69 00        	adc	#$0
     ac2: 85 19        	sta	$19                     ; 0x2019 <readMIDICmd+0x3b>
     ac4: a5 13        	lda	$13                     ; 0x2013 <readMIDICmd+0x35>
     ac6: 69 01        	adc	#$1
     ac8: a6 19        	ldx	$19                     ; 0x2019 <readMIDICmd+0x3b>
     aca: 86 16        	stx	$16                     ; 0x2016 <readMIDICmd+0x38>
     acc: 06 16        	asl	$16                     ; 0x2016 <readMIDICmd+0x38>
     ace: 2a           	rol
     acf: 06 16        	asl	$16                     ; 0x2016 <readMIDICmd+0x38>
     ad1: 2a           	rol
     ad2: 06 16        	asl	$16                     ; 0x2016 <readMIDICmd+0x38>
     ad4: 2a           	rol
     ad5: 58           	cli
     ad6: a6 0f        	ldx	$f                      ; 0x200f <readMIDICmd+0x31>
     ad8: 78           	sei
     ad9: 85 0f        	sta	$f                      ; 0x200f <readMIDICmd+0x31>
     adb: a5 19        	lda	$19                     ; 0x2019 <readMIDICmd+0x3b>
     add: 09 e0        	ora	#$e0
     adf: a4 17        	ldy	$17                     ; 0x2017 <readMIDICmd+0x39>
     ae1: 84 16        	sty	$16                     ; 0x2016 <readMIDICmd+0x38>
     ae3: 85 17        	sta	$17                     ; 0x2017 <readMIDICmd+0x39>
     ae5: b2 16        	lda	($16)                   ; 0x2016 <readMIDICmd+0x38>
     ae7: 85 1d        	sta	$1d                     ; 0x201d <readMIDICmd+0x3f>
     ae9: 86 0f        	stx	$f                      ; 0x200f <readMIDICmd+0x31>
     aeb: 18           	clc
     aec: a5 15        	lda	$15                     ; 0x2015 <readMIDICmd+0x37>
     aee: 69 06        	adc	#$6
     af0: 85 17        	sta	$17                     ; 0x2017 <readMIDICmd+0x39>
     af2: a5 14        	lda	$14                     ; 0x2014 <readMIDICmd+0x36>
     af4: 69 00        	adc	#$0
     af6: 85 19        	sta	$19                     ; 0x2019 <readMIDICmd+0x3b>
     af8: a5 13        	lda	$13                     ; 0x2013 <readMIDICmd+0x35>
     afa: 69 01        	adc	#$1
     afc: a6 19        	ldx	$19                     ; 0x2019 <readMIDICmd+0x3b>
     afe: 86 16        	stx	$16                     ; 0x2016 <readMIDICmd+0x38>
     b00: 06 16        	asl	$16                     ; 0x2016 <readMIDICmd+0x38>
     b02: 2a           	rol
     b03: 06 16        	asl	$16                     ; 0x2016 <readMIDICmd+0x38>
     b05: 2a           	rol
     b06: 06 16        	asl	$16                     ; 0x2016 <readMIDICmd+0x38>
     b08: 2a           	rol
     b09: 58           	cli
     b0a: a6 0f        	ldx	$f                      ; 0x200f <readMIDICmd+0x31>
     b0c: 78           	sei
     b0d: 85 0f        	sta	$f                      ; 0x200f <readMIDICmd+0x31>
     b0f: a4 17        	ldy	$17                     ; 0x2017 <readMIDICmd+0x39>
     b11: 84 16        	sty	$16                     ; 0x2016 <readMIDICmd+0x38>
     b13: a5 19        	lda	$19                     ; 0x2019 <readMIDICmd+0x3b>
     b15: 09 e0        	ora	#$e0
     b17: 85 17        	sta	$17                     ; 0x2017 <readMIDICmd+0x39>
     b19: b2 16        	lda	($16)                   ; 0x2016 <readMIDICmd+0x38>
     b1b: 85 22        	sta	$22                     ; 0x2022 <readMIDICmd+0x44>
     b1d: 86 0f        	stx	$f                      ; 0x200f <readMIDICmd+0x31>
     b1f: 18           	clc
     b20: a5 15        	lda	$15                     ; 0x2015 <readMIDICmd+0x37>
     b22: 69 07        	adc	#$7
     b24: 85 17        	sta	$17                     ; 0x2017 <readMIDICmd+0x39>
     b26: a5 14        	lda	$14                     ; 0x2014 <readMIDICmd+0x36>
     b28: 69 00        	adc	#$0
     b2a: 85 19        	sta	$19                     ; 0x2019 <readMIDICmd+0x3b>
     b2c: a5 13        	lda	$13                     ; 0x2013 <readMIDICmd+0x35>
     b2e: 69 01        	adc	#$1
     b30: a6 19        	ldx	$19                     ; 0x2019 <readMIDICmd+0x3b>
     b32: 86 16        	stx	$16                     ; 0x2016 <readMIDICmd+0x38>
     b34: 06 16        	asl	$16                     ; 0x2016 <readMIDICmd+0x38>
     b36: 2a           	rol
     b37: 06 16        	asl	$16                     ; 0x2016 <readMIDICmd+0x38>
     b39: 2a           	rol
     b3a: 06 16        	asl	$16                     ; 0x2016 <readMIDICmd+0x38>
     b3c: 2a           	rol
     b3d: 58           	cli
     b3e: a6 0f        	ldx	$f                      ; 0x200f <readMIDICmd+0x31>
     b40: 78           	sei
     b41: 85 0f        	sta	$f                      ; 0x200f <readMIDICmd+0x31>
     b43: a4 17        	ldy	$17                     ; 0x2017 <readMIDICmd+0x39>
     b45: 84 16        	sty	$16                     ; 0x2016 <readMIDICmd+0x38>
     b47: a5 19        	lda	$19                     ; 0x2019 <readMIDICmd+0x3b>
     b49: 09 e0        	ora	#$e0
     b4b: 85 17        	sta	$17                     ; 0x2017 <readMIDICmd+0x39>
     b4d: b2 16        	lda	($16)                   ; 0x2016 <readMIDICmd+0x38>
     b4f: 85 25        	sta	$25                     ; 0x2025 <readMIDICmd+0x47>
     b51: 86 0f        	stx	$f                      ; 0x200f <readMIDICmd+0x31>
     b53: 58           	cli
     b54: a6 7f        	ldx	$7f                     ; 0x207f <readMIDICmd+0xa1>
     b56: 86 1e        	stx	$1e                     ; 0x201e <readMIDICmd+0x40>
     b58: a6 80        	ldx	$80                     ; 0x2080 <readMIDICmd+0xa2>
     b5a: 86 1f        	stx	$1f                     ; 0x201f <readMIDICmd+0x41>
     b5c: 18           	clc
     b5d: a0 02        	ldy	#$2
     b5f: b1 10        	lda	($10),y                 ; 0x2010 <readMIDICmd+0x32>
     b61: 85 24        	sta	$24                     ; 0x2024 <readMIDICmd+0x46>
     b63: 65 7f        	adc	$7f                     ; 0x207f <readMIDICmd+0xa1>
     b65: aa           	tax
     b66: a4 18        	ldy	$18                     ; 0x2018 <readMIDICmd+0x3a>
     b68: 84 23        	sty	$23                     ; 0x2023 <readMIDICmd+0x45>
     b6a: a5 18        	lda	$18                     ; 0x2018 <readMIDICmd+0x3a>
     b6c: 65 80        	adc	$80                     ; 0x2080 <readMIDICmd+0xa2>
     b6e: 86 16        	stx	$16                     ; 0x2016 <readMIDICmd+0x38>
     b70: 85 17        	sta	$17                     ; 0x2017 <readMIDICmd+0x39>
     b72: 85 19        	sta	$19                     ; 0x2019 <readMIDICmd+0x3b>
     b74: 18           	clc
     b75: 8a           	txa
     b76: 69 f8        	adc	#$f8
     b78: 85 18        	sta	$18                     ; 0x2018 <readMIDICmd+0x3a>
     b7a: a5 19        	lda	$19                     ; 0x2019 <readMIDICmd+0x3b>
     b7c: 69 ff        	adc	#$ff
     b7e: 85 19        	sta	$19                     ; 0x2019 <readMIDICmd+0x3b>
     b80: 18           	clc
     b81: a5 15        	lda	$15                     ; 0x2015 <readMIDICmd+0x37>
     b83: 69 08        	adc	#$8
     b85: aa           	tax
     b86: a5 14        	lda	$14                     ; 0x2014 <readMIDICmd+0x36>
     b88: 69 00        	adc	#$0
     b8a: 85 1b        	sta	$1b                     ; 0x201b <readMIDICmd+0x3d>
     b8c: a5 13        	lda	$13                     ; 0x2013 <readMIDICmd+0x35>
     b8e: 69 01        	adc	#$1
     b90: 85 28        	sta	$28                     ; 0x2028 <readMIDICmd+0x4a>
     b92: a5 12        	lda	$12                     ; 0x2012 <readMIDICmd+0x34>
     b94: 69 00        	adc	#$0
     b96: 85 2a        	sta	$2a                     ; 0x202a <readMIDICmd+0x4c>
     b98: 8a           	txa
     b99: 92 16        	sta	($16)                   ; 0x2016 <readMIDICmd+0x38>
     b9b: a0 01        	ldy	#$1
     b9d: a5 1b        	lda	$1b                     ; 0x201b <readMIDICmd+0x3d>
     b9f: 91 16        	sta	($16),y                 ; 0x2016 <readMIDICmd+0x38>
     ba1: c8           	iny
     ba2: a5 28        	lda	$28                     ; 0x2028 <readMIDICmd+0x4a>
     ba4: 91 16        	sta	($16),y                 ; 0x2016 <readMIDICmd+0x38>
     ba6: c8           	iny
     ba7: a5 2a        	lda	$2a                     ; 0x202a <readMIDICmd+0x4c>
     ba9: 91 16        	sta	($16),y                 ; 0x2016 <readMIDICmd+0x38>
     bab: a5 25        	lda	$25                     ; 0x2025 <readMIDICmd+0x47>
     bad: 92 18        	sta	($18)                   ; 0x2018 <readMIDICmd+0x3a>
     baf: a5 22        	lda	$22                     ; 0x2022 <readMIDICmd+0x44>
     bb1: a0 01        	ldy	#$1
     bb3: 91 18        	sta	($18),y                 ; 0x2018 <readMIDICmd+0x3a>
     bb5: a5 1d        	lda	$1d                     ; 0x201d <readMIDICmd+0x3f>
     bb7: c8           	iny
     bb8: 91 18        	sta	($18),y                 ; 0x2018 <readMIDICmd+0x3a>
     bba: a5 1c        	lda	$1c                     ; 0x201c <readMIDICmd+0x3e>
     bbc: c8           	iny
     bbd: 91 18        	sta	($18),y                 ; 0x2018 <readMIDICmd+0x3a>
     bbf: 85 16        	sta	$16                     ; 0x2016 <readMIDICmd+0x38>
     bc1: 18           	clc
     bc2: a5 25        	lda	$25                     ; 0x2025 <readMIDICmd+0x47>
     bc4: 65 15        	adc	$15                     ; 0x2015 <readMIDICmd+0x37>
     bc6: 85 15        	sta	$15                     ; 0x2015 <readMIDICmd+0x37>
     bc8: a5 22        	lda	$22                     ; 0x2022 <readMIDICmd+0x44>
     bca: 65 14        	adc	$14                     ; 0x2014 <readMIDICmd+0x36>
     bcc: a8           	tay
     bcd: a5 1d        	lda	$1d                     ; 0x201d <readMIDICmd+0x3f>
     bcf: 65 13        	adc	$13                     ; 0x2013 <readMIDICmd+0x35>
     bd1: aa           	tax
     bd2: a5 16        	lda	$16                     ; 0x2016 <readMIDICmd+0x38>
     bd4: 65 12        	adc	$12                     ; 0x2012 <readMIDICmd+0x34>
     bd6: 85 14        	sta	$14                     ; 0x2014 <readMIDICmd+0x36>
     bd8: 18           	clc
     bd9: a5 15        	lda	$15                     ; 0x2015 <readMIDICmd+0x37>
     bdb: 69 08        	adc	#$8
     bdd: 5a           	phy
     bde: a0 01        	ldy	#$1
     be0: 91 10        	sta	($10),y                 ; 0x2010 <readMIDICmd+0x32>
     be2: 7a           	ply
     be3: 98           	tya
     be4: 69 00        	adc	#$0
     be6: 85 19        	sta	$19                     ; 0x2019 <readMIDICmd+0x3b>
     be8: 8a           	txa
     be9: 69 00        	adc	#$0
     beb: 85 17        	sta	$17                     ; 0x2017 <readMIDICmd+0x39>
     bed: a5 14        	lda	$14                     ; 0x2014 <readMIDICmd+0x36>
     bef: 69 00        	adc	#$0
     bf1: 85 16        	sta	$16                     ; 0x2016 <readMIDICmd+0x38>
     bf3: a4 29        	ldy	$29                     ; 0x2029 <readMIDICmd+0x4b>
     bf5: a6 1a        	ldx	$1a                     ; 0x201a <readMIDICmd+0x3c>
     bf7: e8           	inx
     bf8: d0 01        	bne	$bfb <main+0x741>
     bfa: c8           	iny
     bfb: a5 70        	lda	$70                     ; 0x2070 <readMIDICmd+0x92>
     bfd: 85 12        	sta	$12                     ; 0x2012 <readMIDICmd+0x34>
     bff: a5 71        	lda	$71                     ; 0x2071 <readMIDICmd+0x93>
     c01: 85 13        	sta	$13                     ; 0x2013 <readMIDICmd+0x35>
     c03: 18           	clc
     c04: a5 24        	lda	$24                     ; 0x2024 <readMIDICmd+0x46>
     c06: 69 19        	adc	#$19
     c08: 5a           	phy
     c09: a0 02        	ldy	#$2
     c0b: 91 10        	sta	($10),y                 ; 0x2010 <readMIDICmd+0x32>
     c0d: 7a           	ply
     c0e: a5 23        	lda	$23                     ; 0x2023 <readMIDICmd+0x45>
     c10: 69 00        	adc	#$0
     c12: 85 18        	sta	$18                     ; 0x2018 <readMIDICmd+0x3a>
     c14: 84 29        	sty	$29                     ; 0x2029 <readMIDICmd+0x4b>
     c16: c4 13        	cpy	$13                     ; 0x2013 <readMIDICmd+0x35>
     c18: d0 09        	bne	$c23 <main+0x769>
     c1a: e4 12        	cpx	$12                     ; 0x2012 <readMIDICmd+0x34>
     c1c: a5 16        	lda	$16                     ; 0x2016 <readMIDICmd+0x38>
     c1e: b0 0c        	bcs	$c2c <main+0x772>
     c20: 4c 74 0a     	jmp	$a74 <main+0x5ba>
     c23: c4 13        	cpy	$13                     ; 0x2013 <readMIDICmd+0x35>
     c25: a5 16        	lda	$16                     ; 0x2016 <readMIDICmd+0x38>
     c27: b0 03        	bcs	$c2c <main+0x772>
     c29: 4c 74 0a     	jmp	$a74 <main+0x5ba>
     c2c: a5 13        	lda	$13                     ; 0x2013 <readMIDICmd+0x35>
     c2e: d0 07        	bne	$c37 <main+0x77d>
     c30: a5 12        	lda	$12                     ; 0x2012 <readMIDICmd+0x34>
     c32: d0 03        	bne	$c37 <main+0x77d>
     c34: 4c 7a 0d     	jmp	$d7a <main+0x8c0>
     c37: a6 1e        	ldx	$1e                     ; 0x201e <readMIDICmd+0x40>
     c39: 86 14        	stx	$14                     ; 0x2014 <readMIDICmd+0x36>
     c3b: a6 1f        	ldx	$1f                     ; 0x201f <readMIDICmd+0x41>
     c3d: 86 15        	stx	$15                     ; 0x2015 <readMIDICmd+0x37>
     c3f: 64 16        	stz	$16                     ; 0x2016 <readMIDICmd+0x38>
     c41: 64 25        	stz	$25                     ; 0x2025 <readMIDICmd+0x47>
     c43: a0 00        	ldy	#$0
     c45: a2 00        	ldx	#$0
     c47: 86 2a        	stx	$2a                     ; 0x202a <readMIDICmd+0x4c>
     c49: 84 29        	sty	$29                     ; 0x2029 <readMIDICmd+0x4b>
     c4b: a5 16        	lda	$16                     ; 0x2016 <readMIDICmd+0x38>
     c4d: 18           	clc
     c4e: 65 14        	adc	$14                     ; 0x2014 <readMIDICmd+0x36>
     c50: a8           	tay
     c51: a6 16        	ldx	$16                     ; 0x2016 <readMIDICmd+0x38>
     c53: a5 25        	lda	$25                     ; 0x2025 <readMIDICmd+0x47>
     c55: 65 15        	adc	$15                     ; 0x2015 <readMIDICmd+0x37>
     c57: 84 16        	sty	$16                     ; 0x2016 <readMIDICmd+0x38>
     c59: 85 17        	sta	$17                     ; 0x2017 <readMIDICmd+0x39>
     c5b: a0 18        	ldy	#$18
     c5d: b1 16        	lda	($16),y                 ; 0x2016 <readMIDICmd+0x38>
     c5f: f0 05        	beq	$c66 <main+0x7ac>
     c61: 86 24        	stx	$24                     ; 0x2024 <readMIDICmd+0x46>
     c63: 4c 53 0d     	jmp	$d53 <main+0x899>
     c66: 86 24        	stx	$24                     ; 0x2024 <readMIDICmd+0x46>
     c68: 8a           	txa
     c69: 18           	clc
     c6a: 65 14        	adc	$14                     ; 0x2014 <readMIDICmd+0x36>
     c6c: aa           	tax
     c6d: a5 25        	lda	$25                     ; 0x2025 <readMIDICmd+0x47>
     c6f: 65 15        	adc	$15                     ; 0x2015 <readMIDICmd+0x37>
     c71: a8           	tay
     c72: 8a           	txa
     c73: 18           	clc
     c74: 69 04        	adc	#$4
     c76: 85 18        	sta	$18                     ; 0x2018 <readMIDICmd+0x3a>
     c78: 98           	tya
     c79: 84 1b        	sty	$1b                     ; 0x201b <readMIDICmd+0x3d>
     c7b: 69 00        	adc	#$0
     c7d: 85 19        	sta	$19                     ; 0x2019 <readMIDICmd+0x3b>
     c7f: a0 03        	ldy	#$3
     c81: b1 18        	lda	($18),y                 ; 0x2018 <readMIDICmd+0x3a>
     c83: d1 16        	cmp	($16),y                 ; 0x2016 <readMIDICmd+0x38>
     c85: d0 29        	bne	$cb0 <main+0x7f6>
     c87: a0 02        	ldy	#$2
     c89: b1 18        	lda	($18),y                 ; 0x2018 <readMIDICmd+0x3a>
     c8b: 85 1c        	sta	$1c                     ; 0x201c <readMIDICmd+0x3e>
     c8d: b1 16        	lda	($16),y                 ; 0x2016 <readMIDICmd+0x38>
     c8f: 85 1a        	sta	$1a                     ; 0x201a <readMIDICmd+0x3c>
     c91: a4 1c        	ldy	$1c                     ; 0x201c <readMIDICmd+0x3e>
     c93: c4 1a        	cpy	$1a                     ; 0x201a <readMIDICmd+0x3c>
     c95: f0 03        	beq	$c9a <main+0x7e0>
     c97: 4c 44 0d     	jmp	$d44 <main+0x88a>
     c9a: a0 01        	ldy	#$1
     c9c: b1 18        	lda	($18),y                 ; 0x2018 <readMIDICmd+0x3a>
     c9e: 85 19        	sta	$19                     ; 0x2019 <readMIDICmd+0x3b>
     ca0: b1 16        	lda	($16),y                 ; 0x2016 <readMIDICmd+0x38>
     ca2: 85 18        	sta	$18                     ; 0x2018 <readMIDICmd+0x3a>
     ca4: a4 19        	ldy	$19                     ; 0x2019 <readMIDICmd+0x3b>
     ca6: c4 18        	cpy	$18                     ; 0x2018 <readMIDICmd+0x3a>
     ca8: f0 03        	beq	$cad <main+0x7f3>
     caa: 4c aa 0d     	jmp	$daa <main+0x8f0>
     cad: 4c 8c 0d     	jmp	$d8c <main+0x8d2>
     cb0: d1 16        	cmp	($16),y                 ; 0x2016 <readMIDICmd+0x38>
     cb2: a6 29        	ldx	$29                     ; 0x2029 <readMIDICmd+0x4b>
     cb4: 90 03        	bcc	$cb9 <main+0x7ff>
     cb6: 4c 4d 0d     	jmp	$d4d <main+0x893>
     cb9: 64 60        	stz	$60                     ; 0x2060 <readMIDICmd+0x82>
     cbb: 9c 14 d0     	stz	$d014                   ; 0xd014 <end_block9+0x8b08>
     cbe: 9c 15 d0     	stz	$d015                   ; 0xd015 <end_block9+0x8b09>
     cc1: 8a           	txa
     cc2: 18           	clc
     cc3: 69 0f        	adc	#$f
     cc5: 85 61        	sta	$61                     ; 0x2061 <readMIDICmd+0x83>
     cc7: 8d 16 d0     	sta	$d016                   ; 0xd016 <end_block9+0x8b0a>
     cca: 9c 17 d0     	stz	$d017                   ; 0xd017 <end_block9+0x8b0b>
     ccd: 8a           	txa
     cce: 86 28        	stx	$28                     ; 0x2028 <readMIDICmd+0x4a>
     cd0: 20 6e 1b     	jsr	$1b6e <readDelta>
     cd3: 85 2b        	sta	$2b                     ; 0x202b <readMIDICmd+0x4d>
     cd5: 86 2c        	stx	$2c                     ; 0x202c <readMIDICmd+0x4e>
     cd7: a6 12        	ldx	$12                     ; 0x2012 <readMIDICmd+0x34>
     cd9: 86 2d        	stx	$2d                     ; 0x202d <readMIDICmd+0x4f>
     cdb: a5 13        	lda	$13                     ; 0x2013 <readMIDICmd+0x35>
     cdd: a0 02        	ldy	#$2
     cdf: 91 10        	sta	($10),y                 ; 0x2010 <readMIDICmd+0x32>
     ce1: a6 7f        	ldx	$7f                     ; 0x207f <readMIDICmd+0xa1>
     ce3: 86 2e        	stx	$2e                     ; 0x202e <readMIDICmd+0x50>
     ce5: a6 80        	ldx	$80                     ; 0x2080 <readMIDICmd+0xa2>
     ce7: 86 2f        	stx	$2f                     ; 0x202f <readMIDICmd+0x51>
     ce9: a2 19        	ldx	#$19
     ceb: 86 12        	stx	$12                     ; 0x2012 <readMIDICmd+0x34>
     ced: 64 13        	stz	$13                     ; 0x2013 <readMIDICmd+0x35>
     cef: a2 00        	ldx	#$0
     cf1: a5 28        	lda	$28                     ; 0x2028 <readMIDICmd+0x4a>
     cf3: 20 b5 41     	jsr	$41b5 <__mulhi3>
     cf6: 85 12        	sta	$12                     ; 0x2012 <readMIDICmd+0x34>
     cf8: 86 13        	stx	$13                     ; 0x2013 <readMIDICmd+0x35>
     cfa: 18           	clc
     cfb: a5 2e        	lda	$2e                     ; 0x202e <readMIDICmd+0x50>
     cfd: 65 12        	adc	$12                     ; 0x2012 <readMIDICmd+0x34>
     cff: a8           	tay
     d00: a5 2f        	lda	$2f                     ; 0x202f <readMIDICmd+0x51>
     d02: 65 13        	adc	$13                     ; 0x2013 <readMIDICmd+0x35>
     d04: aa           	tax
     d05: 98           	tya
     d06: 84 12        	sty	$12                     ; 0x2012 <readMIDICmd+0x34>
     d08: 86 13        	stx	$13                     ; 0x2013 <readMIDICmd+0x35>
     d0a: 18           	clc
     d0b: 69 0c        	adc	#$c
     d0d: 85 14        	sta	$14                     ; 0x2014 <readMIDICmd+0x36>
     d0f: 8a           	txa
     d10: 69 00        	adc	#$0
     d12: 85 15        	sta	$15                     ; 0x2015 <readMIDICmd+0x37>
     d14: a0 0c        	ldy	#$c
     d16: a5 2b        	lda	$2b                     ; 0x202b <readMIDICmd+0x4d>
     d18: 91 12        	sta	($12),y                 ; 0x2012 <readMIDICmd+0x34>
     d1a: a0 01        	ldy	#$1
     d1c: a5 2c        	lda	$2c                     ; 0x202c <readMIDICmd+0x4e>
     d1e: 91 14        	sta	($14),y                 ; 0x2014 <readMIDICmd+0x36>
     d20: c8           	iny
     d21: a5 2d        	lda	$2d                     ; 0x202d <readMIDICmd+0x4f>
     d23: 91 14        	sta	($14),y                 ; 0x2014 <readMIDICmd+0x36>
     d25: c8           	iny
     d26: 5a           	phy
     d27: 88           	dey
     d28: b1 10        	lda	($10),y                 ; 0x2010 <readMIDICmd+0x32>
     d2a: 7a           	ply
     d2b: 91 14        	sta	($14),y                 ; 0x2014 <readMIDICmd+0x36>
     d2d: a5 28        	lda	$28                     ; 0x2028 <readMIDICmd+0x4a>
     d2f: 20 de 1f     	jsr	$1fde <readMIDICmd>
     d32: a6 7f        	ldx	$7f                     ; 0x207f <readMIDICmd+0xa1>
     d34: a4 80        	ldy	$80                     ; 0x2080 <readMIDICmd+0xa2>
     d36: 86 14        	stx	$14                     ; 0x2014 <readMIDICmd+0x36>
     d38: 84 15        	sty	$15                     ; 0x2015 <readMIDICmd+0x37>
     d3a: a6 70        	ldx	$70                     ; 0x2070 <readMIDICmd+0x92>
     d3c: a4 71        	ldy	$71                     ; 0x2071 <readMIDICmd+0x93>
     d3e: 86 12        	stx	$12                     ; 0x2012 <readMIDICmd+0x34>
     d40: 84 13        	sty	$13                     ; 0x2013 <readMIDICmd+0x35>
     d42: 80 0f        	bra	$d53 <main+0x899>
     d44: c4 1a        	cpy	$1a                     ; 0x201a <readMIDICmd+0x3c>
     d46: a6 29        	ldx	$29                     ; 0x2029 <readMIDICmd+0x4b>
     d48: b0 03        	bcs	$d4d <main+0x893>
     d4a: 4c b9 0c     	jmp	$cb9 <main+0x7ff>
     d4d: a0 18        	ldy	#$18
     d4f: a9 01        	lda	#$1
     d51: 91 16        	sta	($16),y                 ; 0x2016 <readMIDICmd+0x38>
     d53: a6 2a        	ldx	$2a                     ; 0x202a <readMIDICmd+0x4c>
     d55: a4 29        	ldy	$29                     ; 0x2029 <readMIDICmd+0x4b>
     d57: c8           	iny
     d58: d0 01        	bne	$d5b <main+0x8a1>
     d5a: e8           	inx
     d5b: 18           	clc
     d5c: a5 24        	lda	$24                     ; 0x2024 <readMIDICmd+0x46>
     d5e: 69 19        	adc	#$19
     d60: 85 16        	sta	$16                     ; 0x2016 <readMIDICmd+0x38>
     d62: a5 25        	lda	$25                     ; 0x2025 <readMIDICmd+0x47>
     d64: 69 00        	adc	#$0
     d66: 85 25        	sta	$25                     ; 0x2025 <readMIDICmd+0x47>
     d68: e4 13        	cpx	$13                     ; 0x2013 <readMIDICmd+0x35>
     d6a: d0 07        	bne	$d73 <main+0x8b9>
     d6c: c4 12        	cpy	$12                     ; 0x2012 <readMIDICmd+0x34>
     d6e: b0 0a        	bcs	$d7a <main+0x8c0>
     d70: 4c 47 0c     	jmp	$c47 <main+0x78d>
     d73: e4 13        	cpx	$13                     ; 0x2013 <readMIDICmd+0x35>
     d75: b0 03        	bcs	$d7a <main+0x8c0>
     d77: 4c 47 0c     	jmp	$c47 <main+0x78d>
     d7a: 20 1e 28     	jsr	$281e <exhaustZeroes>
     d7d: 18           	clc
     d7e: a5 10        	lda	$10                     ; 0x2010 <readMIDICmd+0x32>
     d80: 69 03        	adc	#$3
     d82: 85 24        	sta	$24                     ; 0x2024 <readMIDICmd+0x46>
     d84: a5 11        	lda	$11                     ; 0x2011 <readMIDICmd+0x33>
     d86: 69 00        	adc	#$0
     d88: 85 25        	sta	$25                     ; 0x2025 <readMIDICmd+0x47>
     d8a: 80 56        	bra	$de2 <main+0x928>
     d8c: 86 18        	stx	$18                     ; 0x2018 <readMIDICmd+0x3a>
     d8e: a6 1b        	ldx	$1b                     ; 0x201b <readMIDICmd+0x3d>
     d90: 86 19        	stx	$19                     ; 0x2019 <readMIDICmd+0x3b>
     d92: a0 04        	ldy	#$4
     d94: b1 18        	lda	($18),y                 ; 0x2018 <readMIDICmd+0x3a>
     d96: 85 19        	sta	$19                     ; 0x2019 <readMIDICmd+0x3b>
     d98: b2 16        	lda	($16)                   ; 0x2016 <readMIDICmd+0x38>
     d9a: 85 18        	sta	$18                     ; 0x2018 <readMIDICmd+0x3a>
     d9c: a6 19        	ldx	$19                     ; 0x2019 <readMIDICmd+0x3b>
     d9e: e4 18        	cpx	$18                     ; 0x2018 <readMIDICmd+0x3a>
     da0: a6 29        	ldx	$29                     ; 0x2029 <readMIDICmd+0x4b>
     da2: b0 03        	bcs	$da7 <main+0x8ed>
     da4: 4c b9 0c     	jmp	$cb9 <main+0x7ff>
     da7: 4c 4d 0d     	jmp	$d4d <main+0x893>
     daa: c4 18        	cpy	$18                     ; 0x2018 <readMIDICmd+0x3a>
     dac: a6 29        	ldx	$29                     ; 0x2029 <readMIDICmd+0x4b>
     dae: b0 03        	bcs	$db3 <main+0x8f9>
     db0: 4c b9 0c     	jmp	$cb9 <main+0x7ff>
     db3: 4c 4d 0d     	jmp	$d4d <main+0x893>
     db6: a6 19        	ldx	$19                     ; 0x2019 <readMIDICmd+0x3b>
     db8: 86 79        	stx	$79                     ; 0x2079 <readMIDICmd+0x9b>
     dba: a6 18        	ldx	$18                     ; 0x2018 <readMIDICmd+0x3a>
     dbc: 86 7a        	stx	$7a                     ; 0x207a <readMIDICmd+0x9c>
     dbe: a6 17        	ldx	$17                     ; 0x2017 <readMIDICmd+0x39>
     dc0: 86 7b        	stx	$7b                     ; 0x207b <readMIDICmd+0x9d>
     dc2: a6 16        	ldx	$16                     ; 0x2016 <readMIDICmd+0x38>
     dc4: 86 7c        	stx	$7c                     ; 0x207c <readMIDICmd+0x9e>
     dc6: a6 19        	ldx	$19                     ; 0x2019 <readMIDICmd+0x3b>
     dc8: 8e 55 d6     	stx	$d655                   ; 0xd655 <end_block9+0x9149>
     dcb: a6 18        	ldx	$18                     ; 0x2018 <readMIDICmd+0x3a>
     dcd: 8e 56 d6     	stx	$d656                   ; 0xd656 <end_block9+0x914a>
     dd0: a6 17        	ldx	$17                     ; 0x2017 <readMIDICmd+0x39>
     dd2: 8e 57 d6     	stx	$d657                   ; 0xd657 <end_block9+0x914b>
     dd5: 8c 54 d6     	sty	$d654                   ; 0xd654 <end_block9+0x9148>
     dd8: a2 02        	ldx	#$2
     dda: 8e 50 d6     	stx	$d650                   ; 0xd650 <end_block9+0x9144>
     ddd: a2 89        	ldx	#$89
     ddf: 8e 50 d6     	stx	$d650                   ; 0xd650 <end_block9+0x9144>
     de2: 64 81        	stz	$81                     ; 0x2081 <readMIDICmd+0xa3>
     de4: 20 00 ff     	jsr	$ff00 <end_block9+0xb9f4>
     de7: 92 24        	sta	($24)                   ; 0x2024 <readMIDICmd+0x46>
     de9: a9 00        	lda	#$0
     deb: 6a           	ror
     dec: 85 26        	sta	$26                     ; 0x2026 <readMIDICmd+0x48>
     dee: ad 60 d6     	lda	$d660                   ; 0xd660 <end_block9+0x9154>
     df1: 29 10        	and	#$10
     df3: d0 03        	bne	$df8 <main+0x93e>
     df5: 4c 6d 0e     	jmp	$e6d <main+0x9b3>
     df8: a2 10        	ldx	#$10
     dfa: 8e 60 d6     	stx	$d660                   ; 0xd660 <end_block9+0x9154>
     dfd: 8e 60 d6     	stx	$d660                   ; 0xd660 <end_block9+0x9154>
     e00: a6 79        	ldx	$79                     ; 0x2079 <readMIDICmd+0x9b>
     e02: 86 14        	stx	$14                     ; 0x2014 <readMIDICmd+0x36>
     e04: a6 7a        	ldx	$7a                     ; 0x207a <readMIDICmd+0x9c>
     e06: 86 13        	stx	$13                     ; 0x2013 <readMIDICmd+0x35>
     e08: a5 7b        	lda	$7b                     ; 0x207b <readMIDICmd+0x9d>
     e0a: a6 7c        	ldx	$7c                     ; 0x207c <readMIDICmd+0x9e>
     e0c: e0 01        	cpx	#$1
     e0e: d0 1a        	bne	$e2a <main+0x970>
     e10: 86 15        	stx	$15                     ; 0x2015 <readMIDICmd+0x37>
     e12: aa           	tax
     e13: f0 03        	beq	$e18 <main+0x95e>
     e15: 4c 82 14     	jmp	$1482 <main+0xfc8>
     e18: 85 12        	sta	$12                     ; 0x2012 <readMIDICmd+0x34>
     e1a: a6 13        	ldx	$13                     ; 0x2013 <readMIDICmd+0x35>
     e1c: f0 03        	beq	$e21 <main+0x967>
     e1e: 4c d3 14     	jmp	$14d3 <main+0x1019>
     e21: a6 14        	ldx	$14                     ; 0x2014 <readMIDICmd+0x36>
     e23: e0 00        	cpx	#$0
     e25: 90 0e        	bcc	$e35 <main+0x97b>
     e27: 4c 8b 14     	jmp	$148b <main+0xfd1>
     e2a: 85 12        	sta	$12                     ; 0x2012 <readMIDICmd+0x34>
     e2c: 86 15        	stx	$15                     ; 0x2015 <readMIDICmd+0x37>
     e2e: e0 01        	cpx	#$1
     e30: 90 03        	bcc	$e35 <main+0x97b>
     e32: 4c 8b 14     	jmp	$148b <main+0xfd1>
     e35: a4 13        	ldy	$13                     ; 0x2013 <readMIDICmd+0x35>
     e37: a6 14        	ldx	$14                     ; 0x2014 <readMIDICmd+0x36>
     e39: e6 15        	inc	$15                     ; 0x2015 <readMIDICmd+0x37>
     e3b: c6 15        	dec	$15                     ; 0x2015 <readMIDICmd+0x37>
     e3d: d0 0f        	bne	$e4e <main+0x994>
     e3f: c9 00        	cmp	#$0
     e41: d0 0b        	bne	$e4e <main+0x994>
     e43: c0 00        	cpy	#$0
     e45: d0 07        	bne	$e4e <main+0x994>
     e47: e0 00        	cpx	#$0
     e49: d0 03        	bne	$e4e <main+0x994>
     e4b: 4c e7 14     	jmp	$14e7 <main+0x102d>
     e4e: 8e 55 d6     	stx	$d655                   ; 0xd655 <end_block9+0x9149>
     e51: 8c 56 d6     	sty	$d656                   ; 0xd656 <end_block9+0x914a>
     e54: 8d 57 d6     	sta	$d657                   ; 0xd657 <end_block9+0x914b>
     e57: a2 01        	ldx	#$1
     e59: 8e 54 d6     	stx	$d654                   ; 0xd654 <end_block9+0x9148>
     e5c: e8           	inx
     e5d: 8e 50 d6     	stx	$d650                   ; 0xd650 <end_block9+0x9144>
     e60: a2 89        	ldx	#$89
     e62: 8e 50 d6     	stx	$d650                   ; 0xd650 <end_block9+0x9144>
     e65: 64 79        	stz	$79                     ; 0x2079 <readMIDICmd+0x9b>
     e67: 64 7a        	stz	$7a                     ; 0x207a <readMIDICmd+0x9c>
     e69: 64 7b        	stz	$7b                     ; 0x207b <readMIDICmd+0x9d>
     e6b: 64 7c        	stz	$7c                     ; 0x207c <readMIDICmd+0x9e>
     e6d: a5 78        	lda	$78                     ; 0x2078 <readMIDICmd+0x9a>
     e6f: 29 01        	and	#$1
     e71: f0 03        	beq	$e76 <main+0x9bc>
     e73: 4c e2 0d     	jmp	$de2 <main+0x928>
     e76: a6 70        	ldx	$70                     ; 0x2070 <readMIDICmd+0x92>
     e78: a5 71        	lda	$71                     ; 0x2071 <readMIDICmd+0x93>
     e7a: d0 07        	bne	$e83 <main+0x9c9>
     e7c: e0 00        	cpx	#$0
     e7e: d0 03        	bne	$e83 <main+0x9c9>
     e80: 4c 49 0f     	jmp	$f49 <main+0xa8f>
     e83: 86 1a        	stx	$1a                     ; 0x201a <readMIDICmd+0x3c>
     e85: 85 1b        	sta	$1b                     ; 0x201b <readMIDICmd+0x3d>
     e87: a5 7f        	lda	$7f                     ; 0x207f <readMIDICmd+0xa1>
     e89: a6 80        	ldx	$80                     ; 0x2080 <readMIDICmd+0xa2>
     e8b: 86 12        	stx	$12                     ; 0x2012 <readMIDICmd+0x34>
     e8d: 18           	clc
     e8e: 69 0c        	adc	#$c
     e90: aa           	tax
     e91: a5 12        	lda	$12                     ; 0x2012 <readMIDICmd+0x34>
     e93: 69 00        	adc	#$0
     e95: 86 12        	stx	$12                     ; 0x2012 <readMIDICmd+0x34>
     e97: 85 13        	sta	$13                     ; 0x2013 <readMIDICmd+0x35>
     e99: a9 ff        	lda	#$ff
     e9b: 64 1c        	stz	$1c                     ; 0x201c <readMIDICmd+0x3e>
     e9d: a2 00        	ldx	#$0
     e9f: 85 14        	sta	$14                     ; 0x2014 <readMIDICmd+0x36>
     ea1: 85 15        	sta	$15                     ; 0x2015 <readMIDICmd+0x37>
     ea3: 85 16        	sta	$16                     ; 0x2016 <readMIDICmd+0x38>
     ea5: 85 17        	sta	$17                     ; 0x2017 <readMIDICmd+0x39>
     ea7: a0 0c        	ldy	#$c
     ea9: b1 12        	lda	($12),y                 ; 0x2012 <readMIDICmd+0x34>
     eab: f0 05        	beq	$eb2 <main+0x9f8>
     ead: a5 1c        	lda	$1c                     ; 0x201c <readMIDICmd+0x3e>
     eaf: 4c 0e 0f     	jmp	$f0e <main+0xa54>
     eb2: b2 12        	lda	($12)                   ; 0x2012 <readMIDICmd+0x34>
     eb4: 85 1e        	sta	$1e                     ; 0x201e <readMIDICmd+0x40>
     eb6: a0 01        	ldy	#$1
     eb8: b1 12        	lda	($12),y                 ; 0x2012 <readMIDICmd+0x34>
     eba: 85 19        	sta	$19                     ; 0x2019 <readMIDICmd+0x3b>
     ebc: c8           	iny
     ebd: b1 12        	lda	($12),y                 ; 0x2012 <readMIDICmd+0x34>
     ebf: 85 1d        	sta	$1d                     ; 0x201d <readMIDICmd+0x3f>
     ec1: c8           	iny
     ec2: b1 12        	lda	($12),y                 ; 0x2012 <readMIDICmd+0x34>
     ec4: c5 17        	cmp	$17                     ; 0x2017 <readMIDICmd+0x39>
     ec6: d0 1e        	bne	$ee6 <main+0xa2c>
     ec8: 85 18        	sta	$18                     ; 0x2018 <readMIDICmd+0x3a>
     eca: a5 1c        	lda	$1c                     ; 0x201c <readMIDICmd+0x3e>
     ecc: a4 1d        	ldy	$1d                     ; 0x201d <readMIDICmd+0x3f>
     ece: c4 16        	cpy	$16                     ; 0x2016 <readMIDICmd+0x38>
     ed0: f0 03        	beq	$ed5 <main+0xa1b>
     ed2: 4c 3a 0f     	jmp	$f3a <main+0xa80>
     ed5: a4 19        	ldy	$19                     ; 0x2019 <readMIDICmd+0x3b>
     ed7: c4 15        	cpy	$15                     ; 0x2015 <readMIDICmd+0x37>
     ed9: f0 03        	beq	$ede <main+0xa24>
     edb: 4c 42 0f     	jmp	$f42 <main+0xa88>
     ede: a4 1e        	ldy	$1e                     ; 0x201e <readMIDICmd+0x40>
     ee0: c4 14        	cpy	$14                     ; 0x2014 <readMIDICmd+0x36>
     ee2: 90 0a        	bcc	$eee <main+0xa34>
     ee4: 80 28        	bra	$f0e <main+0xa54>
     ee6: 85 18        	sta	$18                     ; 0x2018 <readMIDICmd+0x3a>
     ee8: c5 17        	cmp	$17                     ; 0x2017 <readMIDICmd+0x39>
     eea: a5 1c        	lda	$1c                     ; 0x201c <readMIDICmd+0x3e>
     eec: b0 20        	bcs	$f0e <main+0xa54>
     eee: a4 1e        	ldy	$1e                     ; 0x201e <readMIDICmd+0x40>
     ef0: 84 79        	sty	$79                     ; 0x2079 <readMIDICmd+0x9b>
     ef2: 84 14        	sty	$14                     ; 0x2014 <readMIDICmd+0x36>
     ef4: a4 19        	ldy	$19                     ; 0x2019 <readMIDICmd+0x3b>
     ef6: 84 7a        	sty	$7a                     ; 0x207a <readMIDICmd+0x9c>
     ef8: 84 15        	sty	$15                     ; 0x2015 <readMIDICmd+0x37>
     efa: a4 1d        	ldy	$1d                     ; 0x201d <readMIDICmd+0x3f>
     efc: 84 7b        	sty	$7b                     ; 0x207b <readMIDICmd+0x9d>
     efe: 84 16        	sty	$16                     ; 0x2016 <readMIDICmd+0x38>
     f00: a4 18        	ldy	$18                     ; 0x2018 <readMIDICmd+0x3a>
     f02: 84 7c        	sty	$7c                     ; 0x207c <readMIDICmd+0x9e>
     f04: 84 17        	sty	$17                     ; 0x2017 <readMIDICmd+0x39>
     f06: a0 01        	ldy	#$1
     f08: 84 78        	sty	$78                     ; 0x2078 <readMIDICmd+0x9a>
     f0a: 85 7d        	sta	$7d                     ; 0x207d <readMIDICmd+0x9f>
     f0c: 86 7e        	stx	$7e                     ; 0x207e <readMIDICmd+0xa0>
     f0e: a8           	tay
     f0f: c8           	iny
     f10: d0 01        	bne	$f13 <main+0xa59>
     f12: e8           	inx
     f13: 86 19        	stx	$19                     ; 0x2019 <readMIDICmd+0x3b>
     f15: a5 12        	lda	$12                     ; 0x2012 <readMIDICmd+0x34>
     f17: 18           	clc
     f18: 69 19        	adc	#$19
     f1a: 85 12        	sta	$12                     ; 0x2012 <readMIDICmd+0x34>
     f1c: a5 13        	lda	$13                     ; 0x2013 <readMIDICmd+0x35>
     f1e: 69 00        	adc	#$0
     f20: 85 13        	sta	$13                     ; 0x2013 <readMIDICmd+0x35>
     f22: 84 1c        	sty	$1c                     ; 0x201c <readMIDICmd+0x3e>
     f24: a5 1b        	lda	$1b                     ; 0x201b <readMIDICmd+0x3d>
     f26: c5 19        	cmp	$19                     ; 0x2019 <readMIDICmd+0x3b>
     f28: f0 03        	beq	$f2d <main+0xa73>
     f2a: 4c a7 0e     	jmp	$ea7 <main+0x9ed>
     f2d: 84 18        	sty	$18                     ; 0x2018 <readMIDICmd+0x3a>
     f2f: 84 1c        	sty	$1c                     ; 0x201c <readMIDICmd+0x3e>
     f31: a5 1a        	lda	$1a                     ; 0x201a <readMIDICmd+0x3c>
     f33: c5 18        	cmp	$18                     ; 0x2018 <readMIDICmd+0x3a>
     f35: f0 12        	beq	$f49 <main+0xa8f>
     f37: 4c a7 0e     	jmp	$ea7 <main+0x9ed>
     f3a: a4 1d        	ldy	$1d                     ; 0x201d <readMIDICmd+0x3f>
     f3c: c4 16        	cpy	$16                     ; 0x2016 <readMIDICmd+0x38>
     f3e: 90 ae        	bcc	$eee <main+0xa34>
     f40: 80 cc        	bra	$f0e <main+0xa54>
     f42: c4 15        	cpy	$15                     ; 0x2015 <readMIDICmd+0x37>
     f44: b0 c8        	bcs	$f0e <main+0xa54>
     f46: 4c ee 0e     	jmp	$eee <main+0xa34>
     f49: a2 10        	ldx	#$10
     f4b: 8e 60 d6     	stx	$d660                   ; 0xd660 <end_block9+0x9154>
     f4e: a6 79        	ldx	$79                     ; 0x2079 <readMIDICmd+0x9b>
     f50: 86 16        	stx	$16                     ; 0x2016 <readMIDICmd+0x38>
     f52: a5 7a        	lda	$7a                     ; 0x207a <readMIDICmd+0x9c>
     f54: a4 7b        	ldy	$7b                     ; 0x207b <readMIDICmd+0x9d>
     f56: a6 7c        	ldx	$7c                     ; 0x207c <readMIDICmd+0x9e>
     f58: d0 11        	bne	$f6b <main+0xab1>
     f5a: c0 00        	cpy	#$0
     f5c: d0 0d        	bne	$f6b <main+0xab1>
     f5e: c9 00        	cmp	#$0
     f60: d0 09        	bne	$f6b <main+0xab1>
     f62: e6 16        	inc	$16                     ; 0x2016 <readMIDICmd+0x38>
     f64: c6 16        	dec	$16                     ; 0x2016 <readMIDICmd+0x38>
     f66: d0 03        	bne	$f6b <main+0xab1>
     f68: 4c dc 14     	jmp	$14dc <main+0x1022>
     f6b: 85 13        	sta	$13                     ; 0x2013 <readMIDICmd+0x35>
     f6d: a5 16        	lda	$16                     ; 0x2016 <readMIDICmd+0x38>
     f6f: 85 12        	sta	$12                     ; 0x2012 <readMIDICmd+0x34>
     f71: 84 14        	sty	$14                     ; 0x2014 <readMIDICmd+0x36>
     f73: 86 15        	stx	$15                     ; 0x2015 <readMIDICmd+0x37>
     f75: a5 74        	lda	$74                     ; 0x2074 <readMIDICmd+0x96>
     f77: aa           	tax
     f78: 29 01        	and	#$1
     f7a: 64 19        	stz	$19                     ; 0x2019 <readMIDICmd+0x3b>
     f7c: 64 18        	stz	$18                     ; 0x2018 <readMIDICmd+0x3a>
     f7e: 64 17        	stz	$17                     ; 0x2017 <readMIDICmd+0x39>
     f80: 64 16        	stz	$16                     ; 0x2016 <readMIDICmd+0x38>
     f82: f0 0e        	beq	$f92 <main+0xad8>
     f84: a5 12        	lda	$12                     ; 0x2012 <readMIDICmd+0x34>
     f86: 85 19        	sta	$19                     ; 0x2019 <readMIDICmd+0x3b>
     f88: a5 13        	lda	$13                     ; 0x2013 <readMIDICmd+0x35>
     f8a: 85 18        	sta	$18                     ; 0x2018 <readMIDICmd+0x3a>
     f8c: 84 17        	sty	$17                     ; 0x2017 <readMIDICmd+0x39>
     f8e: a4 15        	ldy	$15                     ; 0x2015 <readMIDICmd+0x37>
     f90: 84 16        	sty	$16                     ; 0x2016 <readMIDICmd+0x38>
     f92: 06 12        	asl	$12                     ; 0x2012 <readMIDICmd+0x34>
     f94: 26 13        	rol	$13                     ; 0x2013 <readMIDICmd+0x35>
     f96: 26 14        	rol	$14                     ; 0x2014 <readMIDICmd+0x36>
     f98: 26 15        	rol	$15                     ; 0x2015 <readMIDICmd+0x37>
     f9a: 8a           	txa
     f9b: 29 02        	and	#$2
     f9d: a0 01        	ldy	#$1
     f9f: c9 00        	cmp	#$0
     fa1: f0 19        	beq	$fbc <main+0xb02>
     fa3: 18           	clc
     fa4: a5 19        	lda	$19                     ; 0x2019 <readMIDICmd+0x3b>
     fa6: 65 12        	adc	$12                     ; 0x2012 <readMIDICmd+0x34>
     fa8: 85 19        	sta	$19                     ; 0x2019 <readMIDICmd+0x3b>
     faa: a5 18        	lda	$18                     ; 0x2018 <readMIDICmd+0x3a>
     fac: 65 13        	adc	$13                     ; 0x2013 <readMIDICmd+0x35>
     fae: 85 18        	sta	$18                     ; 0x2018 <readMIDICmd+0x3a>
     fb0: a5 17        	lda	$17                     ; 0x2017 <readMIDICmd+0x39>
     fb2: 65 14        	adc	$14                     ; 0x2014 <readMIDICmd+0x36>
     fb4: 85 17        	sta	$17                     ; 0x2017 <readMIDICmd+0x39>
     fb6: a5 16        	lda	$16                     ; 0x2016 <readMIDICmd+0x38>
     fb8: 65 15        	adc	$15                     ; 0x2015 <readMIDICmd+0x37>
     fba: 85 16        	sta	$16                     ; 0x2016 <readMIDICmd+0x38>
     fbc: 8a           	txa
     fbd: 29 04        	and	#$4
     fbf: 06 12        	asl	$12                     ; 0x2012 <readMIDICmd+0x34>
     fc1: 26 13        	rol	$13                     ; 0x2013 <readMIDICmd+0x35>
     fc3: 26 14        	rol	$14                     ; 0x2014 <readMIDICmd+0x36>
     fc5: 26 15        	rol	$15                     ; 0x2015 <readMIDICmd+0x37>
     fc7: c9 00        	cmp	#$0
     fc9: f0 19        	beq	$fe4 <main+0xb2a>
     fcb: 18           	clc
     fcc: a5 19        	lda	$19                     ; 0x2019 <readMIDICmd+0x3b>
     fce: 65 12        	adc	$12                     ; 0x2012 <readMIDICmd+0x34>
     fd0: 85 19        	sta	$19                     ; 0x2019 <readMIDICmd+0x3b>
     fd2: a5 18        	lda	$18                     ; 0x2018 <readMIDICmd+0x3a>
     fd4: 65 13        	adc	$13                     ; 0x2013 <readMIDICmd+0x35>
     fd6: 85 18        	sta	$18                     ; 0x2018 <readMIDICmd+0x3a>
     fd8: a5 17        	lda	$17                     ; 0x2017 <readMIDICmd+0x39>
     fda: 65 14        	adc	$14                     ; 0x2014 <readMIDICmd+0x36>
     fdc: 85 17        	sta	$17                     ; 0x2017 <readMIDICmd+0x39>
     fde: a5 16        	lda	$16                     ; 0x2016 <readMIDICmd+0x38>
     fe0: 65 15        	adc	$15                     ; 0x2015 <readMIDICmd+0x37>
     fe2: 85 16        	sta	$16                     ; 0x2016 <readMIDICmd+0x38>
     fe4: 8a           	txa
     fe5: 29 08        	and	#$8
     fe7: 06 12        	asl	$12                     ; 0x2012 <readMIDICmd+0x34>
     fe9: 26 13        	rol	$13                     ; 0x2013 <readMIDICmd+0x35>
     feb: 26 14        	rol	$14                     ; 0x2014 <readMIDICmd+0x36>
     fed: 26 15        	rol	$15                     ; 0x2015 <readMIDICmd+0x37>
     fef: c9 00        	cmp	#$0
     ff1: f0 19        	beq	$100c <main+0xb52>
     ff3: 18           	clc
     ff4: a5 19        	lda	$19                     ; 0x2019 <readMIDICmd+0x3b>
     ff6: 65 12        	adc	$12                     ; 0x2012 <readMIDICmd+0x34>
     ff8: 85 19        	sta	$19                     ; 0x2019 <readMIDICmd+0x3b>
     ffa: a5 18        	lda	$18                     ; 0x2018 <readMIDICmd+0x3a>
     ffc: 65 13        	adc	$13                     ; 0x2013 <readMIDICmd+0x35>
     ffe: 85 18        	sta	$18                     ; 0x2018 <readMIDICmd+0x3a>
    1000: a5 17        	lda	$17                     ; 0x2017 <readMIDICmd+0x39>
    1002: 65 14        	adc	$14                     ; 0x2014 <readMIDICmd+0x36>
    1004: 85 17        	sta	$17                     ; 0x2017 <readMIDICmd+0x39>
    1006: a5 16        	lda	$16                     ; 0x2016 <readMIDICmd+0x38>
    1008: 65 15        	adc	$15                     ; 0x2015 <readMIDICmd+0x37>
    100a: 85 16        	sta	$16                     ; 0x2016 <readMIDICmd+0x38>
    100c: 8a           	txa
    100d: 29 10        	and	#$10
    100f: 06 12        	asl	$12                     ; 0x2012 <readMIDICmd+0x34>
    1011: 26 13        	rol	$13                     ; 0x2013 <readMIDICmd+0x35>
    1013: 26 14        	rol	$14                     ; 0x2014 <readMIDICmd+0x36>
    1015: 26 15        	rol	$15                     ; 0x2015 <readMIDICmd+0x37>
    1017: c9 00        	cmp	#$0
    1019: f0 19        	beq	$1034 <main+0xb7a>
    101b: 18           	clc
    101c: a5 19        	lda	$19                     ; 0x2019 <readMIDICmd+0x3b>
    101e: 65 12        	adc	$12                     ; 0x2012 <readMIDICmd+0x34>
    1020: 85 19        	sta	$19                     ; 0x2019 <readMIDICmd+0x3b>
    1022: a5 18        	lda	$18                     ; 0x2018 <readMIDICmd+0x3a>
    1024: 65 13        	adc	$13                     ; 0x2013 <readMIDICmd+0x35>
    1026: 85 18        	sta	$18                     ; 0x2018 <readMIDICmd+0x3a>
    1028: a5 17        	lda	$17                     ; 0x2017 <readMIDICmd+0x39>
    102a: 65 14        	adc	$14                     ; 0x2014 <readMIDICmd+0x36>
    102c: 85 17        	sta	$17                     ; 0x2017 <readMIDICmd+0x39>
    102e: a5 16        	lda	$16                     ; 0x2016 <readMIDICmd+0x38>
    1030: 65 15        	adc	$15                     ; 0x2015 <readMIDICmd+0x37>
    1032: 85 16        	sta	$16                     ; 0x2016 <readMIDICmd+0x38>
    1034: 8a           	txa
    1035: 29 20        	and	#$20
    1037: 06 12        	asl	$12                     ; 0x2012 <readMIDICmd+0x34>
    1039: 26 13        	rol	$13                     ; 0x2013 <readMIDICmd+0x35>
    103b: 26 14        	rol	$14                     ; 0x2014 <readMIDICmd+0x36>
    103d: 26 15        	rol	$15                     ; 0x2015 <readMIDICmd+0x37>
    103f: c9 00        	cmp	#$0
    1041: f0 19        	beq	$105c <main+0xba2>
    1043: 18           	clc
    1044: a5 19        	lda	$19                     ; 0x2019 <readMIDICmd+0x3b>
    1046: 65 12        	adc	$12                     ; 0x2012 <readMIDICmd+0x34>
    1048: 85 19        	sta	$19                     ; 0x2019 <readMIDICmd+0x3b>
    104a: a5 18        	lda	$18                     ; 0x2018 <readMIDICmd+0x3a>
    104c: 65 13        	adc	$13                     ; 0x2013 <readMIDICmd+0x35>
    104e: 85 18        	sta	$18                     ; 0x2018 <readMIDICmd+0x3a>
    1050: a5 17        	lda	$17                     ; 0x2017 <readMIDICmd+0x39>
    1052: 65 14        	adc	$14                     ; 0x2014 <readMIDICmd+0x36>
    1054: 85 17        	sta	$17                     ; 0x2017 <readMIDICmd+0x39>
    1056: a5 16        	lda	$16                     ; 0x2016 <readMIDICmd+0x38>
    1058: 65 15        	adc	$15                     ; 0x2015 <readMIDICmd+0x37>
    105a: 85 16        	sta	$16                     ; 0x2016 <readMIDICmd+0x38>
    105c: 8a           	txa
    105d: 29 40        	and	#$40
    105f: 06 12        	asl	$12                     ; 0x2012 <readMIDICmd+0x34>
    1061: 26 13        	rol	$13                     ; 0x2013 <readMIDICmd+0x35>
    1063: 26 14        	rol	$14                     ; 0x2014 <readMIDICmd+0x36>
    1065: 26 15        	rol	$15                     ; 0x2015 <readMIDICmd+0x37>
    1067: c9 00        	cmp	#$0
    1069: f0 19        	beq	$1084 <main+0xbca>
    106b: 18           	clc
    106c: a5 19        	lda	$19                     ; 0x2019 <readMIDICmd+0x3b>
    106e: 65 12        	adc	$12                     ; 0x2012 <readMIDICmd+0x34>
    1070: 85 19        	sta	$19                     ; 0x2019 <readMIDICmd+0x3b>
    1072: a5 18        	lda	$18                     ; 0x2018 <readMIDICmd+0x3a>
    1074: 65 13        	adc	$13                     ; 0x2013 <readMIDICmd+0x35>
    1076: 85 18        	sta	$18                     ; 0x2018 <readMIDICmd+0x3a>
    1078: a5 17        	lda	$17                     ; 0x2017 <readMIDICmd+0x39>
    107a: 65 14        	adc	$14                     ; 0x2014 <readMIDICmd+0x36>
    107c: 85 17        	sta	$17                     ; 0x2017 <readMIDICmd+0x39>
    107e: a5 16        	lda	$16                     ; 0x2016 <readMIDICmd+0x38>
    1080: 65 15        	adc	$15                     ; 0x2015 <readMIDICmd+0x37>
    1082: 85 16        	sta	$16                     ; 0x2016 <readMIDICmd+0x38>
    1084: 8a           	txa
    1085: 29 80        	and	#$80
    1087: 06 12        	asl	$12                     ; 0x2012 <readMIDICmd+0x34>
    1089: 26 13        	rol	$13                     ; 0x2013 <readMIDICmd+0x35>
    108b: 26 14        	rol	$14                     ; 0x2014 <readMIDICmd+0x36>
    108d: 26 15        	rol	$15                     ; 0x2015 <readMIDICmd+0x37>
    108f: aa           	tax
    1090: f0 19        	beq	$10ab <main+0xbf1>
    1092: 18           	clc
    1093: a5 19        	lda	$19                     ; 0x2019 <readMIDICmd+0x3b>
    1095: 65 12        	adc	$12                     ; 0x2012 <readMIDICmd+0x34>
    1097: 85 19        	sta	$19                     ; 0x2019 <readMIDICmd+0x3b>
    1099: a5 18        	lda	$18                     ; 0x2018 <readMIDICmd+0x3a>
    109b: 65 13        	adc	$13                     ; 0x2013 <readMIDICmd+0x35>
    109d: 85 18        	sta	$18                     ; 0x2018 <readMIDICmd+0x3a>
    109f: a5 17        	lda	$17                     ; 0x2017 <readMIDICmd+0x39>
    10a1: 65 14        	adc	$14                     ; 0x2014 <readMIDICmd+0x36>
    10a3: 85 17        	sta	$17                     ; 0x2017 <readMIDICmd+0x39>
    10a5: a5 16        	lda	$16                     ; 0x2016 <readMIDICmd+0x38>
    10a7: 65 15        	adc	$15                     ; 0x2015 <readMIDICmd+0x37>
    10a9: 85 16        	sta	$16                     ; 0x2016 <readMIDICmd+0x38>
    10ab: a5 75        	lda	$75                     ; 0x2075 <readMIDICmd+0x97>
    10ad: 85 1b        	sta	$1b                     ; 0x201b <readMIDICmd+0x3d>
    10af: 29 01        	and	#$1
    10b1: 06 12        	asl	$12                     ; 0x2012 <readMIDICmd+0x34>
    10b3: 26 13        	rol	$13                     ; 0x2013 <readMIDICmd+0x35>
    10b5: 26 14        	rol	$14                     ; 0x2014 <readMIDICmd+0x36>
    10b7: 26 15        	rol	$15                     ; 0x2015 <readMIDICmd+0x37>
    10b9: aa           	tax
    10ba: f0 19        	beq	$10d5 <main+0xc1b>
    10bc: 18           	clc
    10bd: a5 19        	lda	$19                     ; 0x2019 <readMIDICmd+0x3b>
    10bf: 65 12        	adc	$12                     ; 0x2012 <readMIDICmd+0x34>
    10c1: 85 19        	sta	$19                     ; 0x2019 <readMIDICmd+0x3b>
    10c3: a5 18        	lda	$18                     ; 0x2018 <readMIDICmd+0x3a>
    10c5: 65 13        	adc	$13                     ; 0x2013 <readMIDICmd+0x35>
    10c7: 85 18        	sta	$18                     ; 0x2018 <readMIDICmd+0x3a>
    10c9: a5 17        	lda	$17                     ; 0x2017 <readMIDICmd+0x39>
    10cb: 65 14        	adc	$14                     ; 0x2014 <readMIDICmd+0x36>
    10cd: 85 17        	sta	$17                     ; 0x2017 <readMIDICmd+0x39>
    10cf: a5 16        	lda	$16                     ; 0x2016 <readMIDICmd+0x38>
    10d1: 65 15        	adc	$15                     ; 0x2015 <readMIDICmd+0x37>
    10d3: 85 16        	sta	$16                     ; 0x2016 <readMIDICmd+0x38>
    10d5: a5 1b        	lda	$1b                     ; 0x201b <readMIDICmd+0x3d>
    10d7: 29 02        	and	#$2
    10d9: 06 12        	asl	$12                     ; 0x2012 <readMIDICmd+0x34>
    10db: 26 13        	rol	$13                     ; 0x2013 <readMIDICmd+0x35>
    10dd: 26 14        	rol	$14                     ; 0x2014 <readMIDICmd+0x36>
    10df: 26 15        	rol	$15                     ; 0x2015 <readMIDICmd+0x37>
    10e1: aa           	tax
    10e2: f0 19        	beq	$10fd <main+0xc43>
    10e4: 18           	clc
    10e5: a5 19        	lda	$19                     ; 0x2019 <readMIDICmd+0x3b>
    10e7: 65 12        	adc	$12                     ; 0x2012 <readMIDICmd+0x34>
    10e9: 85 19        	sta	$19                     ; 0x2019 <readMIDICmd+0x3b>
    10eb: a5 18        	lda	$18                     ; 0x2018 <readMIDICmd+0x3a>
    10ed: 65 13        	adc	$13                     ; 0x2013 <readMIDICmd+0x35>
    10ef: 85 18        	sta	$18                     ; 0x2018 <readMIDICmd+0x3a>
    10f1: a5 17        	lda	$17                     ; 0x2017 <readMIDICmd+0x39>
    10f3: 65 14        	adc	$14                     ; 0x2014 <readMIDICmd+0x36>
    10f5: 85 17        	sta	$17                     ; 0x2017 <readMIDICmd+0x39>
    10f7: a5 16        	lda	$16                     ; 0x2016 <readMIDICmd+0x38>
    10f9: 65 15        	adc	$15                     ; 0x2015 <readMIDICmd+0x37>
    10fb: 85 16        	sta	$16                     ; 0x2016 <readMIDICmd+0x38>
    10fd: a6 76        	ldx	$76                     ; 0x2076 <readMIDICmd+0x98>
    10ff: 86 1a        	stx	$1a                     ; 0x201a <readMIDICmd+0x3c>
    1101: a6 77        	ldx	$77                     ; 0x2077 <readMIDICmd+0x99>
    1103: a5 1b        	lda	$1b                     ; 0x201b <readMIDICmd+0x3d>
    1105: 29 04        	and	#$4
    1107: 06 12        	asl	$12                     ; 0x2012 <readMIDICmd+0x34>
    1109: 26 13        	rol	$13                     ; 0x2013 <readMIDICmd+0x35>
    110b: 26 14        	rol	$14                     ; 0x2014 <readMIDICmd+0x36>
    110d: 26 15        	rol	$15                     ; 0x2015 <readMIDICmd+0x37>
    110f: c9 00        	cmp	#$0
    1111: f0 19        	beq	$112c <main+0xc72>
    1113: 18           	clc
    1114: a5 19        	lda	$19                     ; 0x2019 <readMIDICmd+0x3b>
    1116: 65 12        	adc	$12                     ; 0x2012 <readMIDICmd+0x34>
    1118: 85 19        	sta	$19                     ; 0x2019 <readMIDICmd+0x3b>
    111a: a5 18        	lda	$18                     ; 0x2018 <readMIDICmd+0x3a>
    111c: 65 13        	adc	$13                     ; 0x2013 <readMIDICmd+0x35>
    111e: 85 18        	sta	$18                     ; 0x2018 <readMIDICmd+0x3a>
    1120: a5 17        	lda	$17                     ; 0x2017 <readMIDICmd+0x39>
    1122: 65 14        	adc	$14                     ; 0x2014 <readMIDICmd+0x36>
    1124: 85 17        	sta	$17                     ; 0x2017 <readMIDICmd+0x39>
    1126: a5 16        	lda	$16                     ; 0x2016 <readMIDICmd+0x38>
    1128: 65 15        	adc	$15                     ; 0x2015 <readMIDICmd+0x37>
    112a: 85 16        	sta	$16                     ; 0x2016 <readMIDICmd+0x38>
    112c: a5 1b        	lda	$1b                     ; 0x201b <readMIDICmd+0x3d>
    112e: 29 08        	and	#$8
    1130: 06 12        	asl	$12                     ; 0x2012 <readMIDICmd+0x34>
    1132: 26 13        	rol	$13                     ; 0x2013 <readMIDICmd+0x35>
    1134: 26 14        	rol	$14                     ; 0x2014 <readMIDICmd+0x36>
    1136: 26 15        	rol	$15                     ; 0x2015 <readMIDICmd+0x37>
    1138: c9 00        	cmp	#$0
    113a: f0 19        	beq	$1155 <main+0xc9b>
    113c: 18           	clc
    113d: a5 19        	lda	$19                     ; 0x2019 <readMIDICmd+0x3b>
    113f: 65 12        	adc	$12                     ; 0x2012 <readMIDICmd+0x34>
    1141: 85 19        	sta	$19                     ; 0x2019 <readMIDICmd+0x3b>
    1143: a5 18        	lda	$18                     ; 0x2018 <readMIDICmd+0x3a>
    1145: 65 13        	adc	$13                     ; 0x2013 <readMIDICmd+0x35>
    1147: 85 18        	sta	$18                     ; 0x2018 <readMIDICmd+0x3a>
    1149: a5 17        	lda	$17                     ; 0x2017 <readMIDICmd+0x39>
    114b: 65 14        	adc	$14                     ; 0x2014 <readMIDICmd+0x36>
    114d: 85 17        	sta	$17                     ; 0x2017 <readMIDICmd+0x39>
    114f: a5 16        	lda	$16                     ; 0x2016 <readMIDICmd+0x38>
    1151: 65 15        	adc	$15                     ; 0x2015 <readMIDICmd+0x37>
    1153: 85 16        	sta	$16                     ; 0x2016 <readMIDICmd+0x38>
    1155: a5 1b        	lda	$1b                     ; 0x201b <readMIDICmd+0x3d>
    1157: 29 10        	and	#$10
    1159: 06 12        	asl	$12                     ; 0x2012 <readMIDICmd+0x34>
    115b: 26 13        	rol	$13                     ; 0x2013 <readMIDICmd+0x35>
    115d: 26 14        	rol	$14                     ; 0x2014 <readMIDICmd+0x36>
    115f: 26 15        	rol	$15                     ; 0x2015 <readMIDICmd+0x37>
    1161: c9 00        	cmp	#$0
    1163: f0 19        	beq	$117e <main+0xcc4>
    1165: 18           	clc
    1166: a5 19        	lda	$19                     ; 0x2019 <readMIDICmd+0x3b>
    1168: 65 12        	adc	$12                     ; 0x2012 <readMIDICmd+0x34>
    116a: 85 19        	sta	$19                     ; 0x2019 <readMIDICmd+0x3b>
    116c: a5 18        	lda	$18                     ; 0x2018 <readMIDICmd+0x3a>
    116e: 65 13        	adc	$13                     ; 0x2013 <readMIDICmd+0x35>
    1170: 85 18        	sta	$18                     ; 0x2018 <readMIDICmd+0x3a>
    1172: a5 17        	lda	$17                     ; 0x2017 <readMIDICmd+0x39>
    1174: 65 14        	adc	$14                     ; 0x2014 <readMIDICmd+0x36>
    1176: 85 17        	sta	$17                     ; 0x2017 <readMIDICmd+0x39>
    1178: a5 16        	lda	$16                     ; 0x2016 <readMIDICmd+0x38>
    117a: 65 15        	adc	$15                     ; 0x2015 <readMIDICmd+0x37>
    117c: 85 16        	sta	$16                     ; 0x2016 <readMIDICmd+0x38>
    117e: a5 1b        	lda	$1b                     ; 0x201b <readMIDICmd+0x3d>
    1180: 29 20        	and	#$20
    1182: 06 12        	asl	$12                     ; 0x2012 <readMIDICmd+0x34>
    1184: 26 13        	rol	$13                     ; 0x2013 <readMIDICmd+0x35>
    1186: 26 14        	rol	$14                     ; 0x2014 <readMIDICmd+0x36>
    1188: 26 15        	rol	$15                     ; 0x2015 <readMIDICmd+0x37>
    118a: c9 00        	cmp	#$0
    118c: f0 19        	beq	$11a7 <main+0xced>
    118e: 18           	clc
    118f: a5 19        	lda	$19                     ; 0x2019 <readMIDICmd+0x3b>
    1191: 65 12        	adc	$12                     ; 0x2012 <readMIDICmd+0x34>
    1193: 85 19        	sta	$19                     ; 0x2019 <readMIDICmd+0x3b>
    1195: a5 18        	lda	$18                     ; 0x2018 <readMIDICmd+0x3a>
    1197: 65 13        	adc	$13                     ; 0x2013 <readMIDICmd+0x35>
    1199: 85 18        	sta	$18                     ; 0x2018 <readMIDICmd+0x3a>
    119b: a5 17        	lda	$17                     ; 0x2017 <readMIDICmd+0x39>
    119d: 65 14        	adc	$14                     ; 0x2014 <readMIDICmd+0x36>
    119f: 85 17        	sta	$17                     ; 0x2017 <readMIDICmd+0x39>
    11a1: a5 16        	lda	$16                     ; 0x2016 <readMIDICmd+0x38>
    11a3: 65 15        	adc	$15                     ; 0x2015 <readMIDICmd+0x37>
    11a5: 85 16        	sta	$16                     ; 0x2016 <readMIDICmd+0x38>
    11a7: a5 1b        	lda	$1b                     ; 0x201b <readMIDICmd+0x3d>
    11a9: 29 40        	and	#$40
    11ab: 06 12        	asl	$12                     ; 0x2012 <readMIDICmd+0x34>
    11ad: 26 13        	rol	$13                     ; 0x2013 <readMIDICmd+0x35>
    11af: 26 14        	rol	$14                     ; 0x2014 <readMIDICmd+0x36>
    11b1: 26 15        	rol	$15                     ; 0x2015 <readMIDICmd+0x37>
    11b3: c9 00        	cmp	#$0
    11b5: f0 19        	beq	$11d0 <main+0xd16>
    11b7: 18           	clc
    11b8: a5 19        	lda	$19                     ; 0x2019 <readMIDICmd+0x3b>
    11ba: 65 12        	adc	$12                     ; 0x2012 <readMIDICmd+0x34>
    11bc: 85 19        	sta	$19                     ; 0x2019 <readMIDICmd+0x3b>
    11be: a5 18        	lda	$18                     ; 0x2018 <readMIDICmd+0x3a>
    11c0: 65 13        	adc	$13                     ; 0x2013 <readMIDICmd+0x35>
    11c2: 85 18        	sta	$18                     ; 0x2018 <readMIDICmd+0x3a>
    11c4: a5 17        	lda	$17                     ; 0x2017 <readMIDICmd+0x39>
    11c6: 65 14        	adc	$14                     ; 0x2014 <readMIDICmd+0x36>
    11c8: 85 17        	sta	$17                     ; 0x2017 <readMIDICmd+0x39>
    11ca: a5 16        	lda	$16                     ; 0x2016 <readMIDICmd+0x38>
    11cc: 65 15        	adc	$15                     ; 0x2015 <readMIDICmd+0x37>
    11ce: 85 16        	sta	$16                     ; 0x2016 <readMIDICmd+0x38>
    11d0: a5 1b        	lda	$1b                     ; 0x201b <readMIDICmd+0x3d>
    11d2: 29 80        	and	#$80
    11d4: 06 12        	asl	$12                     ; 0x2012 <readMIDICmd+0x34>
    11d6: 26 13        	rol	$13                     ; 0x2013 <readMIDICmd+0x35>
    11d8: 26 14        	rol	$14                     ; 0x2014 <readMIDICmd+0x36>
    11da: 26 15        	rol	$15                     ; 0x2015 <readMIDICmd+0x37>
    11dc: c9 00        	cmp	#$0
    11de: f0 19        	beq	$11f9 <main+0xd3f>
    11e0: 18           	clc
    11e1: a5 19        	lda	$19                     ; 0x2019 <readMIDICmd+0x3b>
    11e3: 65 12        	adc	$12                     ; 0x2012 <readMIDICmd+0x34>
    11e5: 85 19        	sta	$19                     ; 0x2019 <readMIDICmd+0x3b>
    11e7: a5 18        	lda	$18                     ; 0x2018 <readMIDICmd+0x3a>
    11e9: 65 13        	adc	$13                     ; 0x2013 <readMIDICmd+0x35>
    11eb: 85 18        	sta	$18                     ; 0x2018 <readMIDICmd+0x3a>
    11ed: a5 17        	lda	$17                     ; 0x2017 <readMIDICmd+0x39>
    11ef: 65 14        	adc	$14                     ; 0x2014 <readMIDICmd+0x36>
    11f1: 85 17        	sta	$17                     ; 0x2017 <readMIDICmd+0x39>
    11f3: a5 16        	lda	$16                     ; 0x2016 <readMIDICmd+0x38>
    11f5: 65 15        	adc	$15                     ; 0x2015 <readMIDICmd+0x37>
    11f7: 85 16        	sta	$16                     ; 0x2016 <readMIDICmd+0x38>
    11f9: a5 1a        	lda	$1a                     ; 0x201a <readMIDICmd+0x3c>
    11fb: 29 01        	and	#$1
    11fd: 06 12        	asl	$12                     ; 0x2012 <readMIDICmd+0x34>
    11ff: 26 13        	rol	$13                     ; 0x2013 <readMIDICmd+0x35>
    1201: 26 14        	rol	$14                     ; 0x2014 <readMIDICmd+0x36>
    1203: 26 15        	rol	$15                     ; 0x2015 <readMIDICmd+0x37>
    1205: c9 00        	cmp	#$0
    1207: f0 19        	beq	$1222 <main+0xd68>
    1209: 18           	clc
    120a: a5 19        	lda	$19                     ; 0x2019 <readMIDICmd+0x3b>
    120c: 65 12        	adc	$12                     ; 0x2012 <readMIDICmd+0x34>
    120e: 85 19        	sta	$19                     ; 0x2019 <readMIDICmd+0x3b>
    1210: a5 18        	lda	$18                     ; 0x2018 <readMIDICmd+0x3a>
    1212: 65 13        	adc	$13                     ; 0x2013 <readMIDICmd+0x35>
    1214: 85 18        	sta	$18                     ; 0x2018 <readMIDICmd+0x3a>
    1216: a5 17        	lda	$17                     ; 0x2017 <readMIDICmd+0x39>
    1218: 65 14        	adc	$14                     ; 0x2014 <readMIDICmd+0x36>
    121a: 85 17        	sta	$17                     ; 0x2017 <readMIDICmd+0x39>
    121c: a5 16        	lda	$16                     ; 0x2016 <readMIDICmd+0x38>
    121e: 65 15        	adc	$15                     ; 0x2015 <readMIDICmd+0x37>
    1220: 85 16        	sta	$16                     ; 0x2016 <readMIDICmd+0x38>
    1222: a5 1a        	lda	$1a                     ; 0x201a <readMIDICmd+0x3c>
    1224: 29 02        	and	#$2
    1226: 06 12        	asl	$12                     ; 0x2012 <readMIDICmd+0x34>
    1228: 26 13        	rol	$13                     ; 0x2013 <readMIDICmd+0x35>
    122a: 26 14        	rol	$14                     ; 0x2014 <readMIDICmd+0x36>
    122c: 26 15        	rol	$15                     ; 0x2015 <readMIDICmd+0x37>
    122e: c9 00        	cmp	#$0
    1230: f0 19        	beq	$124b <main+0xd91>
    1232: 18           	clc
    1233: a5 19        	lda	$19                     ; 0x2019 <readMIDICmd+0x3b>
    1235: 65 12        	adc	$12                     ; 0x2012 <readMIDICmd+0x34>
    1237: 85 19        	sta	$19                     ; 0x2019 <readMIDICmd+0x3b>
    1239: a5 18        	lda	$18                     ; 0x2018 <readMIDICmd+0x3a>
    123b: 65 13        	adc	$13                     ; 0x2013 <readMIDICmd+0x35>
    123d: 85 18        	sta	$18                     ; 0x2018 <readMIDICmd+0x3a>
    123f: a5 17        	lda	$17                     ; 0x2017 <readMIDICmd+0x39>
    1241: 65 14        	adc	$14                     ; 0x2014 <readMIDICmd+0x36>
    1243: 85 17        	sta	$17                     ; 0x2017 <readMIDICmd+0x39>
    1245: a5 16        	lda	$16                     ; 0x2016 <readMIDICmd+0x38>
    1247: 65 15        	adc	$15                     ; 0x2015 <readMIDICmd+0x37>
    1249: 85 16        	sta	$16                     ; 0x2016 <readMIDICmd+0x38>
    124b: a5 1a        	lda	$1a                     ; 0x201a <readMIDICmd+0x3c>
    124d: 29 04        	and	#$4
    124f: 06 12        	asl	$12                     ; 0x2012 <readMIDICmd+0x34>
    1251: 26 13        	rol	$13                     ; 0x2013 <readMIDICmd+0x35>
    1253: 26 14        	rol	$14                     ; 0x2014 <readMIDICmd+0x36>
    1255: 26 15        	rol	$15                     ; 0x2015 <readMIDICmd+0x37>
    1257: c9 00        	cmp	#$0
    1259: f0 19        	beq	$1274 <main+0xdba>
    125b: 18           	clc
    125c: a5 19        	lda	$19                     ; 0x2019 <readMIDICmd+0x3b>
    125e: 65 12        	adc	$12                     ; 0x2012 <readMIDICmd+0x34>
    1260: 85 19        	sta	$19                     ; 0x2019 <readMIDICmd+0x3b>
    1262: a5 18        	lda	$18                     ; 0x2018 <readMIDICmd+0x3a>
    1264: 65 13        	adc	$13                     ; 0x2013 <readMIDICmd+0x35>
    1266: 85 18        	sta	$18                     ; 0x2018 <readMIDICmd+0x3a>
    1268: a5 17        	lda	$17                     ; 0x2017 <readMIDICmd+0x39>
    126a: 65 14        	adc	$14                     ; 0x2014 <readMIDICmd+0x36>
    126c: 85 17        	sta	$17                     ; 0x2017 <readMIDICmd+0x39>
    126e: a5 16        	lda	$16                     ; 0x2016 <readMIDICmd+0x38>
    1270: 65 15        	adc	$15                     ; 0x2015 <readMIDICmd+0x37>
    1272: 85 16        	sta	$16                     ; 0x2016 <readMIDICmd+0x38>
    1274: a5 1a        	lda	$1a                     ; 0x201a <readMIDICmd+0x3c>
    1276: 29 08        	and	#$8
    1278: 06 12        	asl	$12                     ; 0x2012 <readMIDICmd+0x34>
    127a: 26 13        	rol	$13                     ; 0x2013 <readMIDICmd+0x35>
    127c: 26 14        	rol	$14                     ; 0x2014 <readMIDICmd+0x36>
    127e: 26 15        	rol	$15                     ; 0x2015 <readMIDICmd+0x37>
    1280: c9 00        	cmp	#$0
    1282: f0 19        	beq	$129d <main+0xde3>
    1284: 18           	clc
    1285: a5 19        	lda	$19                     ; 0x2019 <readMIDICmd+0x3b>
    1287: 65 12        	adc	$12                     ; 0x2012 <readMIDICmd+0x34>
    1289: 85 19        	sta	$19                     ; 0x2019 <readMIDICmd+0x3b>
    128b: a5 18        	lda	$18                     ; 0x2018 <readMIDICmd+0x3a>
    128d: 65 13        	adc	$13                     ; 0x2013 <readMIDICmd+0x35>
    128f: 85 18        	sta	$18                     ; 0x2018 <readMIDICmd+0x3a>
    1291: a5 17        	lda	$17                     ; 0x2017 <readMIDICmd+0x39>
    1293: 65 14        	adc	$14                     ; 0x2014 <readMIDICmd+0x36>
    1295: 85 17        	sta	$17                     ; 0x2017 <readMIDICmd+0x39>
    1297: a5 16        	lda	$16                     ; 0x2016 <readMIDICmd+0x38>
    1299: 65 15        	adc	$15                     ; 0x2015 <readMIDICmd+0x37>
    129b: 85 16        	sta	$16                     ; 0x2016 <readMIDICmd+0x38>
    129d: a5 1a        	lda	$1a                     ; 0x201a <readMIDICmd+0x3c>
    129f: 29 10        	and	#$10
    12a1: 06 12        	asl	$12                     ; 0x2012 <readMIDICmd+0x34>
    12a3: 26 13        	rol	$13                     ; 0x2013 <readMIDICmd+0x35>
    12a5: 26 14        	rol	$14                     ; 0x2014 <readMIDICmd+0x36>
    12a7: 26 15        	rol	$15                     ; 0x2015 <readMIDICmd+0x37>
    12a9: c9 00        	cmp	#$0
    12ab: f0 19        	beq	$12c6 <main+0xe0c>
    12ad: 18           	clc
    12ae: a5 19        	lda	$19                     ; 0x2019 <readMIDICmd+0x3b>
    12b0: 65 12        	adc	$12                     ; 0x2012 <readMIDICmd+0x34>
    12b2: 85 19        	sta	$19                     ; 0x2019 <readMIDICmd+0x3b>
    12b4: a5 18        	lda	$18                     ; 0x2018 <readMIDICmd+0x3a>
    12b6: 65 13        	adc	$13                     ; 0x2013 <readMIDICmd+0x35>
    12b8: 85 18        	sta	$18                     ; 0x2018 <readMIDICmd+0x3a>
    12ba: a5 17        	lda	$17                     ; 0x2017 <readMIDICmd+0x39>
    12bc: 65 14        	adc	$14                     ; 0x2014 <readMIDICmd+0x36>
    12be: 85 17        	sta	$17                     ; 0x2017 <readMIDICmd+0x39>
    12c0: a5 16        	lda	$16                     ; 0x2016 <readMIDICmd+0x38>
    12c2: 65 15        	adc	$15                     ; 0x2015 <readMIDICmd+0x37>
    12c4: 85 16        	sta	$16                     ; 0x2016 <readMIDICmd+0x38>
    12c6: a5 1a        	lda	$1a                     ; 0x201a <readMIDICmd+0x3c>
    12c8: 29 20        	and	#$20
    12ca: 06 12        	asl	$12                     ; 0x2012 <readMIDICmd+0x34>
    12cc: 26 13        	rol	$13                     ; 0x2013 <readMIDICmd+0x35>
    12ce: 26 14        	rol	$14                     ; 0x2014 <readMIDICmd+0x36>
    12d0: 26 15        	rol	$15                     ; 0x2015 <readMIDICmd+0x37>
    12d2: c9 00        	cmp	#$0
    12d4: f0 19        	beq	$12ef <main+0xe35>
    12d6: 18           	clc
    12d7: a5 19        	lda	$19                     ; 0x2019 <readMIDICmd+0x3b>
    12d9: 65 12        	adc	$12                     ; 0x2012 <readMIDICmd+0x34>
    12db: 85 19        	sta	$19                     ; 0x2019 <readMIDICmd+0x3b>
    12dd: a5 18        	lda	$18                     ; 0x2018 <readMIDICmd+0x3a>
    12df: 65 13        	adc	$13                     ; 0x2013 <readMIDICmd+0x35>
    12e1: 85 18        	sta	$18                     ; 0x2018 <readMIDICmd+0x3a>
    12e3: a5 17        	lda	$17                     ; 0x2017 <readMIDICmd+0x39>
    12e5: 65 14        	adc	$14                     ; 0x2014 <readMIDICmd+0x36>
    12e7: 85 17        	sta	$17                     ; 0x2017 <readMIDICmd+0x39>
    12e9: a5 16        	lda	$16                     ; 0x2016 <readMIDICmd+0x38>
    12eb: 65 15        	adc	$15                     ; 0x2015 <readMIDICmd+0x37>
    12ed: 85 16        	sta	$16                     ; 0x2016 <readMIDICmd+0x38>
    12ef: a5 1a        	lda	$1a                     ; 0x201a <readMIDICmd+0x3c>
    12f1: 29 40        	and	#$40
    12f3: 06 12        	asl	$12                     ; 0x2012 <readMIDICmd+0x34>
    12f5: 26 13        	rol	$13                     ; 0x2013 <readMIDICmd+0x35>
    12f7: 26 14        	rol	$14                     ; 0x2014 <readMIDICmd+0x36>
    12f9: 26 15        	rol	$15                     ; 0x2015 <readMIDICmd+0x37>
    12fb: c9 00        	cmp	#$0
    12fd: f0 19        	beq	$1318 <main+0xe5e>
    12ff: 18           	clc
    1300: a5 19        	lda	$19                     ; 0x2019 <readMIDICmd+0x3b>
    1302: 65 12        	adc	$12                     ; 0x2012 <readMIDICmd+0x34>
    1304: 85 19        	sta	$19                     ; 0x2019 <readMIDICmd+0x3b>
    1306: a5 18        	lda	$18                     ; 0x2018 <readMIDICmd+0x3a>
    1308: 65 13        	adc	$13                     ; 0x2013 <readMIDICmd+0x35>
    130a: 85 18        	sta	$18                     ; 0x2018 <readMIDICmd+0x3a>
    130c: a5 17        	lda	$17                     ; 0x2017 <readMIDICmd+0x39>
    130e: 65 14        	adc	$14                     ; 0x2014 <readMIDICmd+0x36>
    1310: 85 17        	sta	$17                     ; 0x2017 <readMIDICmd+0x39>
    1312: a5 16        	lda	$16                     ; 0x2016 <readMIDICmd+0x38>
    1314: 65 15        	adc	$15                     ; 0x2015 <readMIDICmd+0x37>
    1316: 85 16        	sta	$16                     ; 0x2016 <readMIDICmd+0x38>
    1318: a5 1a        	lda	$1a                     ; 0x201a <readMIDICmd+0x3c>
    131a: 29 80        	and	#$80
    131c: 06 12        	asl	$12                     ; 0x2012 <readMIDICmd+0x34>
    131e: 26 13        	rol	$13                     ; 0x2013 <readMIDICmd+0x35>
    1320: 26 14        	rol	$14                     ; 0x2014 <readMIDICmd+0x36>
    1322: 26 15        	rol	$15                     ; 0x2015 <readMIDICmd+0x37>
    1324: c9 00        	cmp	#$0
    1326: f0 19        	beq	$1341 <main+0xe87>
    1328: 18           	clc
    1329: a5 19        	lda	$19                     ; 0x2019 <readMIDICmd+0x3b>
    132b: 65 12        	adc	$12                     ; 0x2012 <readMIDICmd+0x34>
    132d: 85 19        	sta	$19                     ; 0x2019 <readMIDICmd+0x3b>
    132f: a5 18        	lda	$18                     ; 0x2018 <readMIDICmd+0x3a>
    1331: 65 13        	adc	$13                     ; 0x2013 <readMIDICmd+0x35>
    1333: 85 18        	sta	$18                     ; 0x2018 <readMIDICmd+0x3a>
    1335: a5 17        	lda	$17                     ; 0x2017 <readMIDICmd+0x39>
    1337: 65 14        	adc	$14                     ; 0x2014 <readMIDICmd+0x36>
    1339: 85 17        	sta	$17                     ; 0x2017 <readMIDICmd+0x39>
    133b: a5 16        	lda	$16                     ; 0x2016 <readMIDICmd+0x38>
    133d: 65 15        	adc	$15                     ; 0x2015 <readMIDICmd+0x37>
    133f: 85 16        	sta	$16                     ; 0x2016 <readMIDICmd+0x38>
    1341: 8a           	txa
    1342: 29 01        	and	#$1
    1344: 06 12        	asl	$12                     ; 0x2012 <readMIDICmd+0x34>
    1346: 26 13        	rol	$13                     ; 0x2013 <readMIDICmd+0x35>
    1348: 26 14        	rol	$14                     ; 0x2014 <readMIDICmd+0x36>
    134a: 26 15        	rol	$15                     ; 0x2015 <readMIDICmd+0x37>
    134c: c9 00        	cmp	#$0
    134e: f0 19        	beq	$1369 <main+0xeaf>
    1350: 18           	clc
    1351: a5 19        	lda	$19                     ; 0x2019 <readMIDICmd+0x3b>
    1353: 65 12        	adc	$12                     ; 0x2012 <readMIDICmd+0x34>
    1355: 85 19        	sta	$19                     ; 0x2019 <readMIDICmd+0x3b>
    1357: a5 18        	lda	$18                     ; 0x2018 <readMIDICmd+0x3a>
    1359: 65 13        	adc	$13                     ; 0x2013 <readMIDICmd+0x35>
    135b: 85 18        	sta	$18                     ; 0x2018 <readMIDICmd+0x3a>
    135d: a5 17        	lda	$17                     ; 0x2017 <readMIDICmd+0x39>
    135f: 65 14        	adc	$14                     ; 0x2014 <readMIDICmd+0x36>
    1361: 85 17        	sta	$17                     ; 0x2017 <readMIDICmd+0x39>
    1363: a5 16        	lda	$16                     ; 0x2016 <readMIDICmd+0x38>
    1365: 65 15        	adc	$15                     ; 0x2015 <readMIDICmd+0x37>
    1367: 85 16        	sta	$16                     ; 0x2016 <readMIDICmd+0x38>
    1369: 8a           	txa
    136a: 29 02        	and	#$2
    136c: 06 12        	asl	$12                     ; 0x2012 <readMIDICmd+0x34>
    136e: 26 13        	rol	$13                     ; 0x2013 <readMIDICmd+0x35>
    1370: 26 14        	rol	$14                     ; 0x2014 <readMIDICmd+0x36>
    1372: 26 15        	rol	$15                     ; 0x2015 <readMIDICmd+0x37>
    1374: c9 00        	cmp	#$0
    1376: f0 19        	beq	$1391 <main+0xed7>
    1378: 18           	clc
    1379: a5 19        	lda	$19                     ; 0x2019 <readMIDICmd+0x3b>
    137b: 65 12        	adc	$12                     ; 0x2012 <readMIDICmd+0x34>
    137d: 85 19        	sta	$19                     ; 0x2019 <readMIDICmd+0x3b>
    137f: a5 18        	lda	$18                     ; 0x2018 <readMIDICmd+0x3a>
    1381: 65 13        	adc	$13                     ; 0x2013 <readMIDICmd+0x35>
    1383: 85 18        	sta	$18                     ; 0x2018 <readMIDICmd+0x3a>
    1385: a5 17        	lda	$17                     ; 0x2017 <readMIDICmd+0x39>
    1387: 65 14        	adc	$14                     ; 0x2014 <readMIDICmd+0x36>
    1389: 85 17        	sta	$17                     ; 0x2017 <readMIDICmd+0x39>
    138b: a5 16        	lda	$16                     ; 0x2016 <readMIDICmd+0x38>
    138d: 65 15        	adc	$15                     ; 0x2015 <readMIDICmd+0x37>
    138f: 85 16        	sta	$16                     ; 0x2016 <readMIDICmd+0x38>
    1391: 8a           	txa
    1392: 29 04        	and	#$4
    1394: 06 12        	asl	$12                     ; 0x2012 <readMIDICmd+0x34>
    1396: 26 13        	rol	$13                     ; 0x2013 <readMIDICmd+0x35>
    1398: 26 14        	rol	$14                     ; 0x2014 <readMIDICmd+0x36>
    139a: 26 15        	rol	$15                     ; 0x2015 <readMIDICmd+0x37>
    139c: c9 00        	cmp	#$0
    139e: f0 19        	beq	$13b9 <main+0xeff>
    13a0: 18           	clc
    13a1: a5 19        	lda	$19                     ; 0x2019 <readMIDICmd+0x3b>
    13a3: 65 12        	adc	$12                     ; 0x2012 <readMIDICmd+0x34>
    13a5: 85 19        	sta	$19                     ; 0x2019 <readMIDICmd+0x3b>
    13a7: a5 18        	lda	$18                     ; 0x2018 <readMIDICmd+0x3a>
    13a9: 65 13        	adc	$13                     ; 0x2013 <readMIDICmd+0x35>
    13ab: 85 18        	sta	$18                     ; 0x2018 <readMIDICmd+0x3a>
    13ad: a5 17        	lda	$17                     ; 0x2017 <readMIDICmd+0x39>
    13af: 65 14        	adc	$14                     ; 0x2014 <readMIDICmd+0x36>
    13b1: 85 17        	sta	$17                     ; 0x2017 <readMIDICmd+0x39>
    13b3: a5 16        	lda	$16                     ; 0x2016 <readMIDICmd+0x38>
    13b5: 65 15        	adc	$15                     ; 0x2015 <readMIDICmd+0x37>
    13b7: 85 16        	sta	$16                     ; 0x2016 <readMIDICmd+0x38>
    13b9: 8a           	txa
    13ba: 29 08        	and	#$8
    13bc: 06 12        	asl	$12                     ; 0x2012 <readMIDICmd+0x34>
    13be: 26 13        	rol	$13                     ; 0x2013 <readMIDICmd+0x35>
    13c0: 26 14        	rol	$14                     ; 0x2014 <readMIDICmd+0x36>
    13c2: 26 15        	rol	$15                     ; 0x2015 <readMIDICmd+0x37>
    13c4: c9 00        	cmp	#$0
    13c6: f0 19        	beq	$13e1 <main+0xf27>
    13c8: 18           	clc
    13c9: a5 19        	lda	$19                     ; 0x2019 <readMIDICmd+0x3b>
    13cb: 65 12        	adc	$12                     ; 0x2012 <readMIDICmd+0x34>
    13cd: 85 19        	sta	$19                     ; 0x2019 <readMIDICmd+0x3b>
    13cf: a5 18        	lda	$18                     ; 0x2018 <readMIDICmd+0x3a>
    13d1: 65 13        	adc	$13                     ; 0x2013 <readMIDICmd+0x35>
    13d3: 85 18        	sta	$18                     ; 0x2018 <readMIDICmd+0x3a>
    13d5: a5 17        	lda	$17                     ; 0x2017 <readMIDICmd+0x39>
    13d7: 65 14        	adc	$14                     ; 0x2014 <readMIDICmd+0x36>
    13d9: 85 17        	sta	$17                     ; 0x2017 <readMIDICmd+0x39>
    13db: a5 16        	lda	$16                     ; 0x2016 <readMIDICmd+0x38>
    13dd: 65 15        	adc	$15                     ; 0x2015 <readMIDICmd+0x37>
    13df: 85 16        	sta	$16                     ; 0x2016 <readMIDICmd+0x38>
    13e1: 8a           	txa
    13e2: 29 10        	and	#$10
    13e4: 06 12        	asl	$12                     ; 0x2012 <readMIDICmd+0x34>
    13e6: 26 13        	rol	$13                     ; 0x2013 <readMIDICmd+0x35>
    13e8: 26 14        	rol	$14                     ; 0x2014 <readMIDICmd+0x36>
    13ea: 26 15        	rol	$15                     ; 0x2015 <readMIDICmd+0x37>
    13ec: c9 00        	cmp	#$0
    13ee: f0 19        	beq	$1409 <main+0xf4f>
    13f0: 18           	clc
    13f1: a5 19        	lda	$19                     ; 0x2019 <readMIDICmd+0x3b>
    13f3: 65 12        	adc	$12                     ; 0x2012 <readMIDICmd+0x34>
    13f5: 85 19        	sta	$19                     ; 0x2019 <readMIDICmd+0x3b>
    13f7: a5 18        	lda	$18                     ; 0x2018 <readMIDICmd+0x3a>
    13f9: 65 13        	adc	$13                     ; 0x2013 <readMIDICmd+0x35>
    13fb: 85 18        	sta	$18                     ; 0x2018 <readMIDICmd+0x3a>
    13fd: a5 17        	lda	$17                     ; 0x2017 <readMIDICmd+0x39>
    13ff: 65 14        	adc	$14                     ; 0x2014 <readMIDICmd+0x36>
    1401: 85 17        	sta	$17                     ; 0x2017 <readMIDICmd+0x39>
    1403: a5 16        	lda	$16                     ; 0x2016 <readMIDICmd+0x38>
    1405: 65 15        	adc	$15                     ; 0x2015 <readMIDICmd+0x37>
    1407: 85 16        	sta	$16                     ; 0x2016 <readMIDICmd+0x38>
    1409: 8a           	txa
    140a: 29 20        	and	#$20
    140c: 06 12        	asl	$12                     ; 0x2012 <readMIDICmd+0x34>
    140e: 26 13        	rol	$13                     ; 0x2013 <readMIDICmd+0x35>
    1410: 26 14        	rol	$14                     ; 0x2014 <readMIDICmd+0x36>
    1412: 26 15        	rol	$15                     ; 0x2015 <readMIDICmd+0x37>
    1414: c9 00        	cmp	#$0
    1416: f0 19        	beq	$1431 <main+0xf77>
    1418: 18           	clc
    1419: a5 19        	lda	$19                     ; 0x2019 <readMIDICmd+0x3b>
    141b: 65 12        	adc	$12                     ; 0x2012 <readMIDICmd+0x34>
    141d: 85 19        	sta	$19                     ; 0x2019 <readMIDICmd+0x3b>
    141f: a5 18        	lda	$18                     ; 0x2018 <readMIDICmd+0x3a>
    1421: 65 13        	adc	$13                     ; 0x2013 <readMIDICmd+0x35>
    1423: 85 18        	sta	$18                     ; 0x2018 <readMIDICmd+0x3a>
    1425: a5 17        	lda	$17                     ; 0x2017 <readMIDICmd+0x39>
    1427: 65 14        	adc	$14                     ; 0x2014 <readMIDICmd+0x36>
    1429: 85 17        	sta	$17                     ; 0x2017 <readMIDICmd+0x39>
    142b: a5 16        	lda	$16                     ; 0x2016 <readMIDICmd+0x38>
    142d: 65 15        	adc	$15                     ; 0x2015 <readMIDICmd+0x37>
    142f: 85 16        	sta	$16                     ; 0x2016 <readMIDICmd+0x38>
    1431: 8a           	txa
    1432: 29 40        	and	#$40
    1434: 06 12        	asl	$12                     ; 0x2012 <readMIDICmd+0x34>
    1436: 26 13        	rol	$13                     ; 0x2013 <readMIDICmd+0x35>
    1438: 26 14        	rol	$14                     ; 0x2014 <readMIDICmd+0x36>
    143a: 26 15        	rol	$15                     ; 0x2015 <readMIDICmd+0x37>
    143c: c9 00        	cmp	#$0
    143e: f0 19        	beq	$1459 <main+0xf9f>
    1440: 18           	clc
    1441: a5 19        	lda	$19                     ; 0x2019 <readMIDICmd+0x3b>
    1443: 65 12        	adc	$12                     ; 0x2012 <readMIDICmd+0x34>
    1445: 85 19        	sta	$19                     ; 0x2019 <readMIDICmd+0x3b>
    1447: a5 18        	lda	$18                     ; 0x2018 <readMIDICmd+0x3a>
    1449: 65 13        	adc	$13                     ; 0x2013 <readMIDICmd+0x35>
    144b: 85 18        	sta	$18                     ; 0x2018 <readMIDICmd+0x3a>
    144d: a5 17        	lda	$17                     ; 0x2017 <readMIDICmd+0x39>
    144f: 65 14        	adc	$14                     ; 0x2014 <readMIDICmd+0x36>
    1451: 85 17        	sta	$17                     ; 0x2017 <readMIDICmd+0x39>
    1453: a5 16        	lda	$16                     ; 0x2016 <readMIDICmd+0x38>
    1455: 65 15        	adc	$15                     ; 0x2015 <readMIDICmd+0x37>
    1457: 85 16        	sta	$16                     ; 0x2016 <readMIDICmd+0x38>
    1459: 8a           	txa
    145a: 30 03        	bmi	$145f <main+0xfa5>
    145c: 4c b6 0d     	jmp	$db6 <main+0x8fc>
    145f: a5 12        	lda	$12                     ; 0x2012 <readMIDICmd+0x34>
    1461: 0a           	asl
    1462: 26 13        	rol	$13                     ; 0x2013 <readMIDICmd+0x35>
    1464: 26 14        	rol	$14                     ; 0x2014 <readMIDICmd+0x36>
    1466: 26 15        	rol	$15                     ; 0x2015 <readMIDICmd+0x37>
    1468: 18           	clc
    1469: 65 19        	adc	$19                     ; 0x2019 <readMIDICmd+0x3b>
    146b: 85 19        	sta	$19                     ; 0x2019 <readMIDICmd+0x3b>
    146d: a5 13        	lda	$13                     ; 0x2013 <readMIDICmd+0x35>
    146f: 65 18        	adc	$18                     ; 0x2018 <readMIDICmd+0x3a>
    1471: 85 18        	sta	$18                     ; 0x2018 <readMIDICmd+0x3a>
    1473: a5 14        	lda	$14                     ; 0x2014 <readMIDICmd+0x36>
    1475: 65 17        	adc	$17                     ; 0x2017 <readMIDICmd+0x39>
    1477: 85 17        	sta	$17                     ; 0x2017 <readMIDICmd+0x39>
    1479: a5 15        	lda	$15                     ; 0x2015 <readMIDICmd+0x37>
    147b: 65 16        	adc	$16                     ; 0x2016 <readMIDICmd+0x38>
    147d: 85 16        	sta	$16                     ; 0x2016 <readMIDICmd+0x38>
    147f: 4c b6 0d     	jmp	$db6 <main+0x8fc>
    1482: 85 12        	sta	$12                     ; 0x2012 <readMIDICmd+0x34>
    1484: c9 00        	cmp	#$0
    1486: b0 03        	bcs	$148b <main+0xfd1>
    1488: 4c 35 0e     	jmp	$e35 <main+0x97b>
    148b: 18           	clc
    148c: a5 14        	lda	$14                     ; 0x2014 <readMIDICmd+0x36>
    148e: 69 01        	adc	#$1
    1490: aa           	tax
    1491: a5 13        	lda	$13                     ; 0x2013 <readMIDICmd+0x35>
    1493: 69 00        	adc	#$0
    1495: a8           	tay
    1496: a5 12        	lda	$12                     ; 0x2012 <readMIDICmd+0x34>
    1498: 69 00        	adc	#$0
    149a: 85 16        	sta	$16                     ; 0x2016 <readMIDICmd+0x38>
    149c: a5 15        	lda	$15                     ; 0x2015 <readMIDICmd+0x37>
    149e: 69 ff        	adc	#$ff
    14a0: 85 12        	sta	$12                     ; 0x2012 <readMIDICmd+0x34>
    14a2: 86 79        	stx	$79                     ; 0x2079 <readMIDICmd+0x9b>
    14a4: 84 7a        	sty	$7a                     ; 0x207a <readMIDICmd+0x9c>
    14a6: a5 16        	lda	$16                     ; 0x2016 <readMIDICmd+0x38>
    14a8: 85 7b        	sta	$7b                     ; 0x207b <readMIDICmd+0x9d>
    14aa: a5 12        	lda	$12                     ; 0x2012 <readMIDICmd+0x34>
    14ac: 85 7c        	sta	$7c                     ; 0x207c <readMIDICmd+0x9e>
    14ae: 8e 55 d6     	stx	$d655                   ; 0xd655 <end_block9+0x9149>
    14b1: 8c 56 d6     	sty	$d656                   ; 0xd656 <end_block9+0x914a>
    14b4: a6 16        	ldx	$16                     ; 0x2016 <readMIDICmd+0x38>
    14b6: 8e 57 d6     	stx	$d657                   ; 0xd657 <end_block9+0x914b>
    14b9: a2 01        	ldx	#$1
    14bb: 8e 54 d6     	stx	$d654                   ; 0xd654 <end_block9+0x9148>
    14be: e8           	inx
    14bf: 8e 50 d6     	stx	$d650                   ; 0xd650 <end_block9+0x9144>
    14c2: a2 89        	ldx	#$89
    14c4: 8e 50 d6     	stx	$d650                   ; 0xd650 <end_block9+0x9144>
    14c7: a5 78        	lda	$78                     ; 0x2078 <readMIDICmd+0x9a>
    14c9: 29 01        	and	#$1
    14cb: f0 03        	beq	$14d0 <main+0x1016>
    14cd: 4c e2 0d     	jmp	$de2 <main+0x928>
    14d0: 4c 76 0e     	jmp	$e76 <main+0x9bc>
    14d3: a4 13        	ldy	$13                     ; 0x2013 <readMIDICmd+0x35>
    14d5: c0 00        	cpy	#$0
    14d7: b0 b2        	bcs	$148b <main+0xfd1>
    14d9: 4c 35 0e     	jmp	$e35 <main+0x97b>
    14dc: 64 19        	stz	$19                     ; 0x2019 <readMIDICmd+0x3b>
    14de: 64 18        	stz	$18                     ; 0x2018 <readMIDICmd+0x3a>
    14e0: 64 17        	stz	$17                     ; 0x2017 <readMIDICmd+0x39>
    14e2: a0 01        	ldy	#$1
    14e4: 4c c6 0d     	jmp	$dc6 <main+0x90c>
    14e7: a5 7d        	lda	$7d                     ; 0x207d <readMIDICmd+0x9f>
    14e9: a6 7f        	ldx	$7f                     ; 0x207f <readMIDICmd+0xa1>
    14eb: 86 26        	stx	$26                     ; 0x2026 <readMIDICmd+0x48>
    14ed: a6 80        	ldx	$80                     ; 0x2080 <readMIDICmd+0xa2>
    14ef: 86 27        	stx	$27                     ; 0x2027 <readMIDICmd+0x49>
    14f1: a2 19        	ldx	#$19
    14f3: 86 12        	stx	$12                     ; 0x2012 <readMIDICmd+0x34>
    14f5: 64 13        	stz	$13                     ; 0x2013 <readMIDICmd+0x35>
    14f7: a2 00        	ldx	#$0
    14f9: 85 28        	sta	$28                     ; 0x2028 <readMIDICmd+0x4a>
    14fb: 20 b5 41     	jsr	$41b5 <__mulhi3>
    14fe: 85 12        	sta	$12                     ; 0x2012 <readMIDICmd+0x34>
    1500: 86 13        	stx	$13                     ; 0x2013 <readMIDICmd+0x35>
    1502: a5 26        	lda	$26                     ; 0x2026 <readMIDICmd+0x48>
    1504: 18           	clc
    1505: 65 12        	adc	$12                     ; 0x2012 <readMIDICmd+0x34>
    1507: 85 12        	sta	$12                     ; 0x2012 <readMIDICmd+0x34>
    1509: a5 27        	lda	$27                     ; 0x2027 <readMIDICmd+0x49>
    150b: 65 13        	adc	$13                     ; 0x2013 <readMIDICmd+0x35>
    150d: 85 13        	sta	$13                     ; 0x2013 <readMIDICmd+0x35>
    150f: a0 10        	ldy	#$10
    1511: b1 12        	lda	($12),y                 ; 0x2012 <readMIDICmd+0x34>
    1513: c9 ff        	cmp	#$ff
    1515: f0 51        	beq	$1568 <main+0x10ae>
    1517: 8d a1 dd     	sta	$dda1                   ; 0xdda1 <end_block9+0x9895>
    151a: a6 7f        	ldx	$7f                     ; 0x207f <readMIDICmd+0xa1>
    151c: 86 27        	stx	$27                     ; 0x2027 <readMIDICmd+0x49>
    151e: a6 80        	ldx	$80                     ; 0x2080 <readMIDICmd+0xa2>
    1520: 86 26        	stx	$26                     ; 0x2026 <readMIDICmd+0x48>
    1522: a2 19        	ldx	#$19
    1524: 86 12        	stx	$12                     ; 0x2012 <readMIDICmd+0x34>
    1526: 64 13        	stz	$13                     ; 0x2013 <readMIDICmd+0x35>
    1528: a2 00        	ldx	#$0
    152a: a5 28        	lda	$28                     ; 0x2028 <readMIDICmd+0x4a>
    152c: 20 b5 41     	jsr	$41b5 <__mulhi3>
    152f: 86 14        	stx	$14                     ; 0x2014 <readMIDICmd+0x36>
    1531: 85 12        	sta	$12                     ; 0x2012 <readMIDICmd+0x34>
    1533: 85 15        	sta	$15                     ; 0x2015 <readMIDICmd+0x37>
    1535: 18           	clc
    1536: a5 27        	lda	$27                     ; 0x2027 <readMIDICmd+0x49>
    1538: 65 12        	adc	$12                     ; 0x2012 <readMIDICmd+0x34>
    153a: aa           	tax
    153b: a5 26        	lda	$26                     ; 0x2026 <readMIDICmd+0x48>
    153d: 65 14        	adc	$14                     ; 0x2014 <readMIDICmd+0x36>
    153f: 86 12        	stx	$12                     ; 0x2012 <readMIDICmd+0x34>
    1541: 85 13        	sta	$13                     ; 0x2013 <readMIDICmd+0x35>
    1543: a0 11        	ldy	#$11
    1545: b1 12        	lda	($12),y                 ; 0x2012 <readMIDICmd+0x34>
    1547: 8d a1 dd     	sta	$dda1                   ; 0xdda1 <end_block9+0x9895>
    154a: a6 7f        	ldx	$7f                     ; 0x207f <readMIDICmd+0xa1>
    154c: a4 80        	ldy	$80                     ; 0x2080 <readMIDICmd+0xa2>
    154e: 84 29        	sty	$29                     ; 0x2029 <readMIDICmd+0x4b>
    1550: 18           	clc
    1551: a5 15        	lda	$15                     ; 0x2015 <readMIDICmd+0x37>
    1553: 65 7f        	adc	$7f                     ; 0x207f <readMIDICmd+0xa1>
    1555: 85 12        	sta	$12                     ; 0x2012 <readMIDICmd+0x34>
    1557: a5 14        	lda	$14                     ; 0x2014 <readMIDICmd+0x36>
    1559: 65 80        	adc	$80                     ; 0x2080 <readMIDICmd+0xa2>
    155b: 85 13        	sta	$13                     ; 0x2013 <readMIDICmd+0x35>
    155d: a0 17        	ldy	#$17
    155f: b1 12        	lda	($12),y                 ; 0x2012 <readMIDICmd+0x34>
    1561: f0 29        	beq	$158c <main+0x10d2>
    1563: 86 28        	stx	$28                     ; 0x2028 <readMIDICmd+0x4a>
    1565: 4c 5b 16     	jmp	$165b <main+0x11a1>
    1568: a6 28        	ldx	$28                     ; 0x2028 <readMIDICmd+0x4a>
    156a: 86 15        	stx	$15                     ; 0x2015 <readMIDICmd+0x37>
    156c: a6 26        	ldx	$26                     ; 0x2026 <readMIDICmd+0x48>
    156e: 86 28        	stx	$28                     ; 0x2028 <readMIDICmd+0x4a>
    1570: a6 27        	ldx	$27                     ; 0x2027 <readMIDICmd+0x49>
    1572: 86 29        	stx	$29                     ; 0x2029 <readMIDICmd+0x4b>
    1574: a0 11        	ldy	#$11
    1576: b1 12        	lda	($12),y                 ; 0x2012 <readMIDICmd+0x34>
    1578: c9 51        	cmp	#$51
    157a: f0 22        	beq	$159e <main+0x10e4>
    157c: c9 2f        	cmp	#$2f
    157e: f0 03        	beq	$1583 <main+0x10c9>
    1580: 4c 5b 16     	jmp	$165b <main+0x11a1>
    1583: a9 01        	lda	#$1
    1585: a0 18        	ldy	#$18
    1587: 91 12        	sta	($12),y                 ; 0x2012 <readMIDICmd+0x34>
    1589: 4c 5b 16     	jmp	$165b <main+0x11a1>
    158c: a0 12        	ldy	#$12
    158e: b1 12        	lda	($12),y                 ; 0x2012 <readMIDICmd+0x34>
    1590: 8d a1 dd     	sta	$dda1                   ; 0xdda1 <end_block9+0x9895>
    1593: a6 7f        	ldx	$7f                     ; 0x207f <readMIDICmd+0xa1>
    1595: a4 80        	ldy	$80                     ; 0x2080 <readMIDICmd+0xa2>
    1597: 86 28        	stx	$28                     ; 0x2028 <readMIDICmd+0x4a>
    1599: 84 29        	sty	$29                     ; 0x2029 <readMIDICmd+0x4b>
    159b: 4c 5b 16     	jmp	$165b <main+0x11a1>
    159e: a2 19        	ldx	#$19
    15a0: 86 12        	stx	$12                     ; 0x2012 <readMIDICmd+0x34>
    15a2: 64 13        	stz	$13                     ; 0x2013 <readMIDICmd+0x35>
    15a4: a2 00        	ldx	#$0
    15a6: a5 15        	lda	$15                     ; 0x2015 <readMIDICmd+0x37>
    15a8: 20 b5 41     	jsr	$41b5 <__mulhi3>
    15ab: 85 12        	sta	$12                     ; 0x2012 <readMIDICmd+0x34>
    15ad: 86 13        	stx	$13                     ; 0x2013 <readMIDICmd+0x35>
    15af: 18           	clc
    15b0: a5 26        	lda	$26                     ; 0x2026 <readMIDICmd+0x48>
    15b2: 65 12        	adc	$12                     ; 0x2012 <readMIDICmd+0x34>
    15b4: 85 12        	sta	$12                     ; 0x2012 <readMIDICmd+0x34>
    15b6: a5 27        	lda	$27                     ; 0x2027 <readMIDICmd+0x49>
    15b8: 65 13        	adc	$13                     ; 0x2013 <readMIDICmd+0x35>
    15ba: 85 13        	sta	$13                     ; 0x2013 <readMIDICmd+0x35>
    15bc: a0 13        	ldy	#$13
    15be: b1 12        	lda	($12),y                 ; 0x2012 <readMIDICmd+0x34>
    15c0: 85 14        	sta	$14                     ; 0x2014 <readMIDICmd+0x36>
    15c2: c8           	iny
    15c3: b1 12        	lda	($12),y                 ; 0x2012 <readMIDICmd+0x34>
    15c5: 85 2b        	sta	$2b                     ; 0x202b <readMIDICmd+0x4d>
    15c7: c8           	iny
    15c8: b1 12        	lda	($12),y                 ; 0x2012 <readMIDICmd+0x34>
    15ca: 85 2a        	sta	$2a                     ; 0x202a <readMIDICmd+0x4c>
    15cc: a4 72        	ldy	$72                     ; 0x2072 <readMIDICmd+0x94>
    15ce: a5 73        	lda	$73                     ; 0x2073 <readMIDICmd+0x95>
    15d0: a6 14        	ldx	$14                     ; 0x2014 <readMIDICmd+0x36>
    15d2: 8e 06 de     	stx	$de06                   ; 0xde06 <end_block9+0x98fa>
    15d5: 9c 07 de     	stz	$de07                   ; 0xde07 <end_block9+0x98fb>
    15d8: 8c 04 de     	sty	$de04                   ; 0xde04 <end_block9+0x98f8>
    15db: 8d 05 de     	sta	$de05                   ; 0xde05 <end_block9+0x98f9>
    15de: ae 14 de     	ldx	$de14                   ; 0xde14 <end_block9+0x9908>
    15e1: 86 27        	stx	$27                     ; 0x2027 <readMIDICmd+0x49>
    15e3: ae 15 de     	ldx	$de15                   ; 0xde15 <end_block9+0x9909>
    15e6: 86 26        	stx	$26                     ; 0x2026 <readMIDICmd+0x48>
    15e8: 84 12        	sty	$12                     ; 0x2012 <readMIDICmd+0x34>
    15ea: 84 2c        	sty	$2c                     ; 0x202c <readMIDICmd+0x4e>
    15ec: 85 13        	sta	$13                     ; 0x2013 <readMIDICmd+0x35>
    15ee: 85 2d        	sta	$2d                     ; 0x202d <readMIDICmd+0x4f>
    15f0: a2 00        	ldx	#$0
    15f2: a5 14        	lda	$14                     ; 0x2014 <readMIDICmd+0x36>
    15f4: 20 56 43     	jsr	$4356 <__umodhi3>
    15f7: 85 12        	sta	$12                     ; 0x2012 <readMIDICmd+0x34>
    15f9: 86 13        	stx	$13                     ; 0x2013 <readMIDICmd+0x35>
    15fb: a6 2c        	ldx	$2c                     ; 0x202c <readMIDICmd+0x4e>
    15fd: 86 14        	stx	$14                     ; 0x2014 <readMIDICmd+0x36>
    15ff: a6 2d        	ldx	$2d                     ; 0x202d <readMIDICmd+0x4f>
    1601: 86 15        	stx	$15                     ; 0x2015 <readMIDICmd+0x37>
    1603: 64 16        	stz	$16                     ; 0x2016 <readMIDICmd+0x38>
    1605: 64 17        	stz	$17                     ; 0x2017 <readMIDICmd+0x39>
    1607: a6 2b        	ldx	$2b                     ; 0x202b <readMIDICmd+0x4d>
    1609: a5 2a        	lda	$2a                     ; 0x202a <readMIDICmd+0x4c>
    160b: 20 e7 41     	jsr	$41e7 <__udivsi3>
    160e: 86 12        	stx	$12                     ; 0x2012 <readMIDICmd+0x34>
    1610: 0a           	asl
    1611: 26 12        	rol	$12                     ; 0x2012 <readMIDICmd+0x34>
    1613: a6 27        	ldx	$27                     ; 0x2027 <readMIDICmd+0x49>
    1615: 86 14        	stx	$14                     ; 0x2014 <readMIDICmd+0x36>
    1617: 26 14        	rol	$14                     ; 0x2014 <readMIDICmd+0x36>
    1619: a6 26        	ldx	$26                     ; 0x2026 <readMIDICmd+0x48>
    161b: 86 15        	stx	$15                     ; 0x2015 <readMIDICmd+0x37>
    161d: 26 15        	rol	$15                     ; 0x2015 <readMIDICmd+0x37>
    161f: 0a           	asl
    1620: 85 13        	sta	$13                     ; 0x2013 <readMIDICmd+0x35>
    1622: 26 12        	rol	$12                     ; 0x2012 <readMIDICmd+0x34>
    1624: 26 14        	rol	$14                     ; 0x2014 <readMIDICmd+0x36>
    1626: 26 15        	rol	$15                     ; 0x2015 <readMIDICmd+0x37>
    1628: 0a           	asl
    1629: aa           	tax
    162a: a5 12        	lda	$12                     ; 0x2012 <readMIDICmd+0x34>
    162c: 2a           	rol
    162d: a8           	tay
    162e: a5 14        	lda	$14                     ; 0x2014 <readMIDICmd+0x36>
    1630: 2a           	rol
    1631: 85 16        	sta	$16                     ; 0x2016 <readMIDICmd+0x38>
    1633: a5 15        	lda	$15                     ; 0x2015 <readMIDICmd+0x37>
    1635: 2a           	rol
    1636: 85 18        	sta	$18                     ; 0x2018 <readMIDICmd+0x3a>
    1638: 18           	clc
    1639: 8a           	txa
    163a: 65 13        	adc	$13                     ; 0x2013 <readMIDICmd+0x35>
    163c: 85 13        	sta	$13                     ; 0x2013 <readMIDICmd+0x35>
    163e: 98           	tya
    163f: 65 12        	adc	$12                     ; 0x2012 <readMIDICmd+0x34>
    1641: 85 17        	sta	$17                     ; 0x2017 <readMIDICmd+0x39>
    1643: a5 16        	lda	$16                     ; 0x2016 <readMIDICmd+0x38>
    1645: 65 14        	adc	$14                     ; 0x2014 <readMIDICmd+0x36>
    1647: 85 12        	sta	$12                     ; 0x2012 <readMIDICmd+0x34>
    1649: a5 18        	lda	$18                     ; 0x2018 <readMIDICmd+0x3a>
    164b: 65 15        	adc	$15                     ; 0x2015 <readMIDICmd+0x37>
    164d: a6 13        	ldx	$13                     ; 0x2013 <readMIDICmd+0x35>
    164f: 86 74        	stx	$74                     ; 0x2074 <readMIDICmd+0x96>
    1651: a6 17        	ldx	$17                     ; 0x2017 <readMIDICmd+0x39>
    1653: 86 75        	stx	$75                     ; 0x2075 <readMIDICmd+0x97>
    1655: a6 12        	ldx	$12                     ; 0x2012 <readMIDICmd+0x34>
    1657: 86 76        	stx	$76                     ; 0x2076 <readMIDICmd+0x98>
    1659: 85 77        	sta	$77                     ; 0x2077 <readMIDICmd+0x99>
    165b: a4 70        	ldy	$70                     ; 0x2070 <readMIDICmd+0x92>
    165d: a5 71        	lda	$71                     ; 0x2071 <readMIDICmd+0x93>
    165f: a6 7d        	ldx	$7d                     ; 0x207d <readMIDICmd+0x9f>
    1661: 86 2b        	stx	$2b                     ; 0x202b <readMIDICmd+0x4d>
    1663: aa           	tax
    1664: d0 07        	bne	$166d <main+0x11b3>
    1666: c0 00        	cpy	#$0
    1668: d0 03        	bne	$166d <main+0x11b3>
    166a: 4c 4e 17     	jmp	$174e <main+0x1294>
    166d: a6 7e        	ldx	$7e                     ; 0x207e <readMIDICmd+0xa0>
    166f: 86 2c        	stx	$2c                     ; 0x202c <readMIDICmd+0x4e>
    1671: a2 19        	ldx	#$19
    1673: 86 12        	stx	$12                     ; 0x2012 <readMIDICmd+0x34>
    1675: 64 13        	stz	$13                     ; 0x2013 <readMIDICmd+0x35>
    1677: a6 2c        	ldx	$2c                     ; 0x202c <readMIDICmd+0x4e>
    1679: 5a           	phy
    167a: a4 2b        	ldy	$2b                     ; 0x202b <readMIDICmd+0x4d>
    167c: 84 2a        	sty	$2a                     ; 0x202a <readMIDICmd+0x4c>
    167e: 7a           	ply
    167f: 84 26        	sty	$26                     ; 0x2026 <readMIDICmd+0x48>
    1681: 85 27        	sta	$27                     ; 0x2027 <readMIDICmd+0x49>
    1683: a5 2b        	lda	$2b                     ; 0x202b <readMIDICmd+0x4d>
    1685: 20 b5 41     	jsr	$41b5 <__mulhi3>
    1688: 85 12        	sta	$12                     ; 0x2012 <readMIDICmd+0x34>
    168a: 86 13        	stx	$13                     ; 0x2013 <readMIDICmd+0x35>
    168c: a5 28        	lda	$28                     ; 0x2028 <readMIDICmd+0x4a>
    168e: 18           	clc
    168f: 65 12        	adc	$12                     ; 0x2012 <readMIDICmd+0x34>
    1691: 85 14        	sta	$14                     ; 0x2014 <readMIDICmd+0x36>
    1693: a5 29        	lda	$29                     ; 0x2029 <readMIDICmd+0x4b>
    1695: 65 13        	adc	$13                     ; 0x2013 <readMIDICmd+0x35>
    1697: a6 14        	ldx	$14                     ; 0x2014 <readMIDICmd+0x36>
    1699: 86 12        	stx	$12                     ; 0x2012 <readMIDICmd+0x34>
    169b: 85 13        	sta	$13                     ; 0x2013 <readMIDICmd+0x35>
    169d: 85 15        	sta	$15                     ; 0x2015 <readMIDICmd+0x37>
    169f: 18           	clc
    16a0: a5 14        	lda	$14                     ; 0x2014 <readMIDICmd+0x36>
    16a2: 69 0c        	adc	#$c
    16a4: 85 14        	sta	$14                     ; 0x2014 <readMIDICmd+0x36>
    16a6: a5 15        	lda	$15                     ; 0x2015 <readMIDICmd+0x37>
    16a8: 69 00        	adc	#$0
    16aa: 85 15        	sta	$15                     ; 0x2015 <readMIDICmd+0x37>
    16ac: 18           	clc
    16ad: a5 28        	lda	$28                     ; 0x2028 <readMIDICmd+0x4a>
    16af: 69 0c        	adc	#$c
    16b1: 85 16        	sta	$16                     ; 0x2016 <readMIDICmd+0x38>
    16b3: a5 29        	lda	$29                     ; 0x2029 <readMIDICmd+0x4b>
    16b5: 69 00        	adc	#$0
    16b7: 85 17        	sta	$17                     ; 0x2017 <readMIDICmd+0x39>
    16b9: a6 26        	ldx	$26                     ; 0x2026 <readMIDICmd+0x48>
    16bb: a4 27        	ldy	$27                     ; 0x2027 <readMIDICmd+0x49>
    16bd: 84 1a        	sty	$1a                     ; 0x201a <readMIDICmd+0x3c>
    16bf: a4 2c        	ldy	$2c                     ; 0x202c <readMIDICmd+0x4e>
    16c1: 84 19        	sty	$19                     ; 0x2019 <readMIDICmd+0x3b>
    16c3: 80 14        	bra	$16d9 <main+0x121f>
    16c5: a5 16        	lda	$16                     ; 0x2016 <readMIDICmd+0x38>
    16c7: 18           	clc
    16c8: 69 19        	adc	#$19
    16ca: 85 16        	sta	$16                     ; 0x2016 <readMIDICmd+0x38>
    16cc: a5 17        	lda	$17                     ; 0x2017 <readMIDICmd+0x39>
    16ce: 69 00        	adc	#$0
    16d0: 85 17        	sta	$17                     ; 0x2017 <readMIDICmd+0x39>
    16d2: a5 1a        	lda	$1a                     ; 0x201a <readMIDICmd+0x3c>
    16d4: d0 03        	bne	$16d9 <main+0x121f>
    16d6: 4c 48 17     	jmp	$1748 <main+0x128e>
    16d9: a0 0c        	ldy	#$c
    16db: b1 16        	lda	($16),y                 ; 0x2016 <readMIDICmd+0x38>
    16dd: f0 03        	beq	$16e2 <main+0x1228>
    16df: 4c 31 17     	jmp	$1731 <main+0x1277>
    16e2: a5 19        	lda	$19                     ; 0x2019 <readMIDICmd+0x3b>
    16e4: d0 04        	bne	$16ea <main+0x1230>
    16e6: a5 2a        	lda	$2a                     ; 0x202a <readMIDICmd+0x4c>
    16e8: f0 47        	beq	$1731 <main+0x1277>
    16ea: b2 16        	lda	($16)                   ; 0x2016 <readMIDICmd+0x38>
    16ec: 85 1d        	sta	$1d                     ; 0x201d <readMIDICmd+0x3f>
    16ee: a0 01        	ldy	#$1
    16f0: b1 16        	lda	($16),y                 ; 0x2016 <readMIDICmd+0x38>
    16f2: 85 1c        	sta	$1c                     ; 0x201c <readMIDICmd+0x3e>
    16f4: c8           	iny
    16f5: b1 16        	lda	($16),y                 ; 0x2016 <readMIDICmd+0x38>
    16f7: 85 1b        	sta	$1b                     ; 0x201b <readMIDICmd+0x3d>
    16f9: c8           	iny
    16fa: b1 16        	lda	($16),y                 ; 0x2016 <readMIDICmd+0x38>
    16fc: 85 1e        	sta	$1e                     ; 0x201e <readMIDICmd+0x40>
    16fe: 38           	sec
    16ff: a0 0c        	ldy	#$c
    1701: a5 1d        	lda	$1d                     ; 0x201d <readMIDICmd+0x3f>
    1703: f1 12        	sbc	($12),y                 ; 0x2012 <readMIDICmd+0x34>
    1705: 85 1d        	sta	$1d                     ; 0x201d <readMIDICmd+0x3f>
    1707: a5 1c        	lda	$1c                     ; 0x201c <readMIDICmd+0x3e>
    1709: a0 01        	ldy	#$1
    170b: f1 14        	sbc	($14),y                 ; 0x2014 <readMIDICmd+0x36>
    170d: 85 1c        	sta	$1c                     ; 0x201c <readMIDICmd+0x3e>
    170f: a5 1b        	lda	$1b                     ; 0x201b <readMIDICmd+0x3d>
    1711: c8           	iny
    1712: f1 14        	sbc	($14),y                 ; 0x2014 <readMIDICmd+0x36>
    1714: 85 1b        	sta	$1b                     ; 0x201b <readMIDICmd+0x3d>
    1716: c8           	iny
    1717: a5 1e        	lda	$1e                     ; 0x201e <readMIDICmd+0x40>
    1719: f1 14        	sbc	($14),y                 ; 0x2014 <readMIDICmd+0x36>
    171b: 85 1e        	sta	$1e                     ; 0x201e <readMIDICmd+0x40>
    171d: a5 1d        	lda	$1d                     ; 0x201d <readMIDICmd+0x3f>
    171f: 92 16        	sta	($16)                   ; 0x2016 <readMIDICmd+0x38>
    1721: a5 1c        	lda	$1c                     ; 0x201c <readMIDICmd+0x3e>
    1723: a0 01        	ldy	#$1
    1725: 91 16        	sta	($16),y                 ; 0x2016 <readMIDICmd+0x38>
    1727: a5 1b        	lda	$1b                     ; 0x201b <readMIDICmd+0x3d>
    1729: c8           	iny
    172a: 91 16        	sta	($16),y                 ; 0x2016 <readMIDICmd+0x38>
    172c: c8           	iny
    172d: a5 1e        	lda	$1e                     ; 0x201e <readMIDICmd+0x40>
    172f: 91 16        	sta	($16),y                 ; 0x2016 <readMIDICmd+0x38>
    1731: a9 ff        	lda	#$ff
    1733: c6 2a        	dec	$2a                     ; 0x202a <readMIDICmd+0x4c>
    1735: c5 2a        	cmp	$2a                     ; 0x202a <readMIDICmd+0x4c>
    1737: d0 02        	bne	$173b <main+0x1281>
    1739: c6 19        	dec	$19                     ; 0x2019 <readMIDICmd+0x3b>
    173b: ca           	dex
    173c: e0 ff        	cpx	#$ff
    173e: f0 03        	beq	$1743 <main+0x1289>
    1740: 4c c5 16     	jmp	$16c5 <main+0x120b>
    1743: c6 1a        	dec	$1a                     ; 0x201a <readMIDICmd+0x3c>
    1745: 4c c5 16     	jmp	$16c5 <main+0x120b>
    1748: 8a           	txa
    1749: f0 03        	beq	$174e <main+0x1294>
    174b: 4c d9 16     	jmp	$16d9 <main+0x121f>
    174e: a2 19        	ldx	#$19
    1750: 86 12        	stx	$12                     ; 0x2012 <readMIDICmd+0x34>
    1752: 64 13        	stz	$13                     ; 0x2013 <readMIDICmd+0x35>
    1754: a2 00        	ldx	#$0
    1756: a5 2b        	lda	$2b                     ; 0x202b <readMIDICmd+0x4d>
    1758: 20 b5 41     	jsr	$41b5 <__mulhi3>
    175b: 86 12        	stx	$12                     ; 0x2012 <readMIDICmd+0x34>
    175d: 18           	clc
    175e: 65 28        	adc	$28                     ; 0x2028 <readMIDICmd+0x4a>
    1760: aa           	tax
    1761: a5 29        	lda	$29                     ; 0x2029 <readMIDICmd+0x4b>
    1763: 65 12        	adc	$12                     ; 0x2012 <readMIDICmd+0x34>
    1765: 86 12        	stx	$12                     ; 0x2012 <readMIDICmd+0x34>
    1767: 85 13        	sta	$13                     ; 0x2013 <readMIDICmd+0x35>
    1769: a8           	tay
    176a: 8a           	txa
    176b: 18           	clc
    176c: 69 08        	adc	#$8
    176e: 85 14        	sta	$14                     ; 0x2014 <readMIDICmd+0x36>
    1770: 98           	tya
    1771: 69 00        	adc	#$0
    1773: 85 15        	sta	$15                     ; 0x2015 <readMIDICmd+0x37>
    1775: 18           	clc
    1776: 8a           	txa
    1777: 69 04        	adc	#$4
    1779: 85 16        	sta	$16                     ; 0x2016 <readMIDICmd+0x38>
    177b: 98           	tya
    177c: 69 00        	adc	#$0
    177e: 85 17        	sta	$17                     ; 0x2017 <readMIDICmd+0x39>
    1780: a0 04        	ldy	#$4
    1782: b1 12        	lda	($12),y                 ; 0x2012 <readMIDICmd+0x34>
    1784: 85 18        	sta	$18                     ; 0x2018 <readMIDICmd+0x3a>
    1786: a0 01        	ldy	#$1
    1788: b1 16        	lda	($16),y                 ; 0x2016 <readMIDICmd+0x38>
    178a: 85 19        	sta	$19                     ; 0x2019 <readMIDICmd+0x3b>
    178c: c8           	iny
    178d: b1 16        	lda	($16),y                 ; 0x2016 <readMIDICmd+0x38>
    178f: aa           	tax
    1790: c8           	iny
    1791: b1 16        	lda	($16),y                 ; 0x2016 <readMIDICmd+0x38>
    1793: a4 18        	ldy	$18                     ; 0x2018 <readMIDICmd+0x3a>
    1795: 84 1a        	sty	$1a                     ; 0x201a <readMIDICmd+0x3c>
    1797: a4 19        	ldy	$19                     ; 0x2019 <readMIDICmd+0x3b>
    1799: 84 1b        	sty	$1b                     ; 0x201b <readMIDICmd+0x3d>
    179b: 86 1c        	stx	$1c                     ; 0x201c <readMIDICmd+0x3e>
    179d: e6 1a        	inc	$1a                     ; 0x201a <readMIDICmd+0x3c>
    179f: d0 09        	bne	$17aa <main+0x12f0>
    17a1: e6 1b        	inc	$1b                     ; 0x201b <readMIDICmd+0x3d>
    17a3: d0 05        	bne	$17aa <main+0x12f0>
    17a5: e6 1c        	inc	$1c                     ; 0x201c <readMIDICmd+0x3e>
    17a7: d0 01        	bne	$17aa <main+0x12f0>
    17a9: 1a           	inc
    17aa: 85 1d        	sta	$1d                     ; 0x201d <readMIDICmd+0x3f>
    17ac: a0 04        	ldy	#$4
    17ae: a5 1a        	lda	$1a                     ; 0x201a <readMIDICmd+0x3c>
    17b0: 91 12        	sta	($12),y                 ; 0x2012 <readMIDICmd+0x34>
    17b2: a0 01        	ldy	#$1
    17b4: a5 1b        	lda	$1b                     ; 0x201b <readMIDICmd+0x3d>
    17b6: 91 16        	sta	($16),y                 ; 0x2016 <readMIDICmd+0x38>
    17b8: c8           	iny
    17b9: a5 1c        	lda	$1c                     ; 0x201c <readMIDICmd+0x3e>
    17bb: 91 16        	sta	($16),y                 ; 0x2016 <readMIDICmd+0x38>
    17bd: c8           	iny
    17be: a5 1d        	lda	$1d                     ; 0x201d <readMIDICmd+0x3f>
    17c0: 91 16        	sta	($16),y                 ; 0x2016 <readMIDICmd+0x38>
    17c2: 18           	clc
    17c3: a0 08        	ldy	#$8
    17c5: a5 18        	lda	$18                     ; 0x2018 <readMIDICmd+0x3a>
    17c7: 71 12        	adc	($12),y                 ; 0x2012 <readMIDICmd+0x34>
    17c9: 85 13        	sta	$13                     ; 0x2013 <readMIDICmd+0x35>
    17cb: a0 01        	ldy	#$1
    17cd: a5 19        	lda	$19                     ; 0x2019 <readMIDICmd+0x3b>
    17cf: 71 14        	adc	($14),y                 ; 0x2014 <readMIDICmd+0x36>
    17d1: 85 12        	sta	$12                     ; 0x2012 <readMIDICmd+0x34>
    17d3: c8           	iny
    17d4: 8a           	txa
    17d5: 71 14        	adc	($14),y                 ; 0x2014 <readMIDICmd+0x36>
    17d7: 85 14        	sta	$14                     ; 0x2014 <readMIDICmd+0x36>
    17d9: a5 12        	lda	$12                     ; 0x2012 <readMIDICmd+0x34>
    17db: 06 12        	asl	$12                     ; 0x2012 <readMIDICmd+0x34>
    17dd: 26 14        	rol	$14                     ; 0x2014 <readMIDICmd+0x36>
    17df: 06 12        	asl	$12                     ; 0x2012 <readMIDICmd+0x34>
    17e1: 26 14        	rol	$14                     ; 0x2014 <readMIDICmd+0x36>
    17e3: 06 12        	asl	$12                     ; 0x2012 <readMIDICmd+0x34>
    17e5: 26 14        	rol	$14                     ; 0x2014 <readMIDICmd+0x36>
    17e7: a4 14        	ldy	$14                     ; 0x2014 <readMIDICmd+0x36>
    17e9: a6 0f        	ldx	$f                      ; 0x200f <readMIDICmd+0x31>
    17eb: 78           	sei
    17ec: 84 0f        	sty	$f                      ; 0x200f <readMIDICmd+0x31>
    17ee: a4 13        	ldy	$13                     ; 0x2013 <readMIDICmd+0x35>
    17f0: 84 12        	sty	$12                     ; 0x2012 <readMIDICmd+0x34>
    17f2: 09 e0        	ora	#$e0
    17f4: 85 13        	sta	$13                     ; 0x2013 <readMIDICmd+0x35>
    17f6: b2 12        	lda	($12)                   ; 0x2012 <readMIDICmd+0x34>
    17f8: 86 0f        	stx	$f                      ; 0x200f <readMIDICmd+0x31>
    17fa: 58           	cli
    17fb: aa           	tax
    17fc: 30 19        	bmi	$1817 <main+0x135d>
    17fe: 85 2c        	sta	$2c                     ; 0x202c <readMIDICmd+0x4e>
    1800: 64 2d        	stz	$2d                     ; 0x202d <readMIDICmd+0x4f>
    1802: 64 2e        	stz	$2e                     ; 0x202e <readMIDICmd+0x50>
    1804: 64 2f        	stz	$2f                     ; 0x202f <readMIDICmd+0x51>
    1806: 64 26        	stz	$26                     ; 0x2026 <readMIDICmd+0x48>
    1808: 64 28        	stz	$28                     ; 0x2028 <readMIDICmd+0x4a>
    180a: 64 12        	stz	$12                     ; 0x2012 <readMIDICmd+0x34>
    180c: 64 13        	stz	$13                     ; 0x2013 <readMIDICmd+0x35>
    180e: 64 14        	stz	$14                     ; 0x2014 <readMIDICmd+0x36>
    1810: a2 00        	ldx	#$0
    1812: a0 00        	ldy	#$0
    1814: 4c e3 1a     	jmp	$1ae3 <main+0x1629>
    1817: 4a           	lsr
    1818: aa           	tax
    1819: a9 00        	lda	#$0
    181b: 6a           	ror
    181c: 29 80        	and	#$80
    181e: 85 29        	sta	$29                     ; 0x2029 <readMIDICmd+0x4b>
    1820: 8a           	txa
    1821: 29 3f        	and	#$3f
    1823: 85 27        	sta	$27                     ; 0x2027 <readMIDICmd+0x49>
    1825: a6 7f        	ldx	$7f                     ; 0x207f <readMIDICmd+0xa1>
    1827: 86 28        	stx	$28                     ; 0x2028 <readMIDICmd+0x4a>
    1829: a6 80        	ldx	$80                     ; 0x2080 <readMIDICmd+0xa2>
    182b: 86 26        	stx	$26                     ; 0x2026 <readMIDICmd+0x48>
    182d: a2 19        	ldx	#$19
    182f: 86 12        	stx	$12                     ; 0x2012 <readMIDICmd+0x34>
    1831: 64 13        	stz	$13                     ; 0x2013 <readMIDICmd+0x35>
    1833: a2 00        	ldx	#$0
    1835: a5 2b        	lda	$2b                     ; 0x202b <readMIDICmd+0x4d>
    1837: 20 b5 41     	jsr	$41b5 <__mulhi3>
    183a: 85 12        	sta	$12                     ; 0x2012 <readMIDICmd+0x34>
    183c: 86 13        	stx	$13                     ; 0x2013 <readMIDICmd+0x35>
    183e: 18           	clc
    183f: a5 28        	lda	$28                     ; 0x2028 <readMIDICmd+0x4a>
    1841: 65 12        	adc	$12                     ; 0x2012 <readMIDICmd+0x34>
    1843: a8           	tay
    1844: a5 26        	lda	$26                     ; 0x2026 <readMIDICmd+0x48>
    1846: 65 13        	adc	$13                     ; 0x2013 <readMIDICmd+0x35>
    1848: aa           	tax
    1849: 84 12        	sty	$12                     ; 0x2012 <readMIDICmd+0x34>
    184b: 85 13        	sta	$13                     ; 0x2013 <readMIDICmd+0x35>
    184d: 18           	clc
    184e: 98           	tya
    184f: 69 08        	adc	#$8
    1851: 85 14        	sta	$14                     ; 0x2014 <readMIDICmd+0x36>
    1853: 8a           	txa
    1854: 69 00        	adc	#$0
    1856: 85 15        	sta	$15                     ; 0x2015 <readMIDICmd+0x37>
    1858: 18           	clc
    1859: 98           	tya
    185a: 69 04        	adc	#$4
    185c: 85 16        	sta	$16                     ; 0x2016 <readMIDICmd+0x38>
    185e: 8a           	txa
    185f: 69 00        	adc	#$0
    1861: 85 17        	sta	$17                     ; 0x2017 <readMIDICmd+0x39>
    1863: a0 04        	ldy	#$4
    1865: b1 12        	lda	($12),y                 ; 0x2012 <readMIDICmd+0x34>
    1867: 85 18        	sta	$18                     ; 0x2018 <readMIDICmd+0x3a>
    1869: a0 01        	ldy	#$1
    186b: b1 16        	lda	($16),y                 ; 0x2016 <readMIDICmd+0x38>
    186d: 85 19        	sta	$19                     ; 0x2019 <readMIDICmd+0x3b>
    186f: c8           	iny
    1870: b1 16        	lda	($16),y                 ; 0x2016 <readMIDICmd+0x38>
    1872: aa           	tax
    1873: c8           	iny
    1874: b1 16        	lda	($16),y                 ; 0x2016 <readMIDICmd+0x38>
    1876: a4 18        	ldy	$18                     ; 0x2018 <readMIDICmd+0x3a>
    1878: 84 1a        	sty	$1a                     ; 0x201a <readMIDICmd+0x3c>
    187a: a4 19        	ldy	$19                     ; 0x2019 <readMIDICmd+0x3b>
    187c: 84 1b        	sty	$1b                     ; 0x201b <readMIDICmd+0x3d>
    187e: 86 1c        	stx	$1c                     ; 0x201c <readMIDICmd+0x3e>
    1880: e6 1a        	inc	$1a                     ; 0x201a <readMIDICmd+0x3c>
    1882: d0 09        	bne	$188d <main+0x13d3>
    1884: e6 1b        	inc	$1b                     ; 0x201b <readMIDICmd+0x3d>
    1886: d0 05        	bne	$188d <main+0x13d3>
    1888: e6 1c        	inc	$1c                     ; 0x201c <readMIDICmd+0x3e>
    188a: d0 01        	bne	$188d <main+0x13d3>
    188c: 1a           	inc
    188d: 85 1d        	sta	$1d                     ; 0x201d <readMIDICmd+0x3f>
    188f: a0 04        	ldy	#$4
    1891: a5 1a        	lda	$1a                     ; 0x201a <readMIDICmd+0x3c>
    1893: 91 12        	sta	($12),y                 ; 0x2012 <readMIDICmd+0x34>
    1895: a0 01        	ldy	#$1
    1897: a5 1b        	lda	$1b                     ; 0x201b <readMIDICmd+0x3d>
    1899: 91 16        	sta	($16),y                 ; 0x2016 <readMIDICmd+0x38>
    189b: c8           	iny
    189c: a5 1c        	lda	$1c                     ; 0x201c <readMIDICmd+0x3e>
    189e: 91 16        	sta	($16),y                 ; 0x2016 <readMIDICmd+0x38>
    18a0: c8           	iny
    18a1: a5 1d        	lda	$1d                     ; 0x201d <readMIDICmd+0x3f>
    18a3: 91 16        	sta	($16),y                 ; 0x2016 <readMIDICmd+0x38>
    18a5: 18           	clc
    18a6: a5 18        	lda	$18                     ; 0x2018 <readMIDICmd+0x3a>
    18a8: a0 08        	ldy	#$8
    18aa: 71 12        	adc	($12),y                 ; 0x2012 <readMIDICmd+0x34>
    18ac: 85 13        	sta	$13                     ; 0x2013 <readMIDICmd+0x35>
    18ae: a0 01        	ldy	#$1
    18b0: a5 19        	lda	$19                     ; 0x2019 <readMIDICmd+0x3b>
    18b2: 71 14        	adc	($14),y                 ; 0x2014 <readMIDICmd+0x36>
    18b4: 85 12        	sta	$12                     ; 0x2012 <readMIDICmd+0x34>
    18b6: c8           	iny
    18b7: 8a           	txa
    18b8: 71 14        	adc	($14),y                 ; 0x2014 <readMIDICmd+0x36>
    18ba: 85 14        	sta	$14                     ; 0x2014 <readMIDICmd+0x36>
    18bc: a5 12        	lda	$12                     ; 0x2012 <readMIDICmd+0x34>
    18be: 06 12        	asl	$12                     ; 0x2012 <readMIDICmd+0x34>
    18c0: 26 14        	rol	$14                     ; 0x2014 <readMIDICmd+0x36>
    18c2: 06 12        	asl	$12                     ; 0x2012 <readMIDICmd+0x34>
    18c4: 26 14        	rol	$14                     ; 0x2014 <readMIDICmd+0x36>
    18c6: 06 12        	asl	$12                     ; 0x2012 <readMIDICmd+0x34>
    18c8: 26 14        	rol	$14                     ; 0x2014 <readMIDICmd+0x36>
    18ca: a4 14        	ldy	$14                     ; 0x2014 <readMIDICmd+0x36>
    18cc: a6 0f        	ldx	$f                      ; 0x200f <readMIDICmd+0x31>
    18ce: 78           	sei
    18cf: 84 0f        	sty	$f                      ; 0x200f <readMIDICmd+0x31>
    18d1: a4 13        	ldy	$13                     ; 0x2013 <readMIDICmd+0x35>
    18d3: 84 12        	sty	$12                     ; 0x2012 <readMIDICmd+0x34>
    18d5: 09 e0        	ora	#$e0
    18d7: 85 13        	sta	$13                     ; 0x2013 <readMIDICmd+0x35>
    18d9: b2 12        	lda	($12)                   ; 0x2012 <readMIDICmd+0x34>
    18db: 86 0f        	stx	$f                      ; 0x200f <readMIDICmd+0x31>
    18dd: 58           	cli
    18de: aa           	tax
    18df: 30 1b        	bmi	$18fc <main+0x1442>
    18e1: a6 29        	ldx	$29                     ; 0x2029 <readMIDICmd+0x4b>
    18e3: 86 2c        	stx	$2c                     ; 0x202c <readMIDICmd+0x4e>
    18e5: 64 2e        	stz	$2e                     ; 0x202e <readMIDICmd+0x50>
    18e7: 64 26        	stz	$26                     ; 0x2026 <readMIDICmd+0x48>
    18e9: 64 28        	stz	$28                     ; 0x2028 <readMIDICmd+0x4a>
    18eb: 64 12        	stz	$12                     ; 0x2012 <readMIDICmd+0x34>
    18ed: 64 2d        	stz	$2d                     ; 0x202d <readMIDICmd+0x4f>
    18ef: 64 13        	stz	$13                     ; 0x2013 <readMIDICmd+0x35>
    18f1: 64 14        	stz	$14                     ; 0x2014 <readMIDICmd+0x36>
    18f3: a2 00        	ldx	#$0
    18f5: 85 2f        	sta	$2f                     ; 0x202f <readMIDICmd+0x51>
    18f7: a4 27        	ldy	$27                     ; 0x2027 <readMIDICmd+0x49>
    18f9: 4c e3 1a     	jmp	$1ae3 <main+0x1629>
    18fc: 4a           	lsr
    18fd: aa           	tax
    18fe: a9 00        	lda	#$0
    1900: 6a           	ror
    1901: a4 27        	ldy	$27                     ; 0x2027 <readMIDICmd+0x49>
    1903: 84 2d        	sty	$2d                     ; 0x202d <readMIDICmd+0x4f>
    1905: 46 2d        	lsr	$2d                     ; 0x202d <readMIDICmd+0x4f>
    1907: 66 29        	ror	$29                     ; 0x2029 <readMIDICmd+0x4b>
    1909: 64 2c        	stz	$2c                     ; 0x202c <readMIDICmd+0x4e>
    190b: 66 2c        	ror	$2c                     ; 0x202c <readMIDICmd+0x4e>
    190d: 64 13        	stz	$13                     ; 0x2013 <readMIDICmd+0x35>
    190f: 29 80        	and	#$80
    1911: 85 2f        	sta	$2f                     ; 0x202f <readMIDICmd+0x51>
    1913: 8a           	txa
    1914: 29 3f        	and	#$3f
    1916: 85 26        	sta	$26                     ; 0x2026 <readMIDICmd+0x48>
    1918: a6 7f        	ldx	$7f                     ; 0x207f <readMIDICmd+0xa1>
    191a: 86 28        	stx	$28                     ; 0x2028 <readMIDICmd+0x4a>
    191c: a6 80        	ldx	$80                     ; 0x2080 <readMIDICmd+0xa2>
    191e: 86 27        	stx	$27                     ; 0x2027 <readMIDICmd+0x49>
    1920: a2 19        	ldx	#$19
    1922: 86 12        	stx	$12                     ; 0x2012 <readMIDICmd+0x34>
    1924: a2 00        	ldx	#$0
    1926: a5 2b        	lda	$2b                     ; 0x202b <readMIDICmd+0x4d>
    1928: 20 b5 41     	jsr	$41b5 <__mulhi3>
    192b: 85 12        	sta	$12                     ; 0x2012 <readMIDICmd+0x34>
    192d: 86 13        	stx	$13                     ; 0x2013 <readMIDICmd+0x35>
    192f: 18           	clc
    1930: a5 28        	lda	$28                     ; 0x2028 <readMIDICmd+0x4a>
    1932: 65 12        	adc	$12                     ; 0x2012 <readMIDICmd+0x34>
    1934: a8           	tay
    1935: a5 27        	lda	$27                     ; 0x2027 <readMIDICmd+0x49>
    1937: 65 13        	adc	$13                     ; 0x2013 <readMIDICmd+0x35>
    1939: aa           	tax
    193a: 84 12        	sty	$12                     ; 0x2012 <readMIDICmd+0x34>
    193c: 85 13        	sta	$13                     ; 0x2013 <readMIDICmd+0x35>
    193e: 18           	clc
    193f: 98           	tya
    1940: 69 08        	adc	#$8
    1942: 85 14        	sta	$14                     ; 0x2014 <readMIDICmd+0x36>
    1944: 8a           	txa
    1945: 69 00        	adc	#$0
    1947: 85 15        	sta	$15                     ; 0x2015 <readMIDICmd+0x37>
    1949: 18           	clc
    194a: 98           	tya
    194b: 69 04        	adc	#$4
    194d: 85 16        	sta	$16                     ; 0x2016 <readMIDICmd+0x38>
    194f: 8a           	txa
    1950: 69 00        	adc	#$0
    1952: 85 17        	sta	$17                     ; 0x2017 <readMIDICmd+0x39>
    1954: a0 04        	ldy	#$4
    1956: b1 12        	lda	($12),y                 ; 0x2012 <readMIDICmd+0x34>
    1958: aa           	tax
    1959: a0 01        	ldy	#$1
    195b: b1 16        	lda	($16),y                 ; 0x2016 <readMIDICmd+0x38>
    195d: 85 18        	sta	$18                     ; 0x2018 <readMIDICmd+0x3a>
    195f: c8           	iny
    1960: b1 16        	lda	($16),y                 ; 0x2016 <readMIDICmd+0x38>
    1962: 85 19        	sta	$19                     ; 0x2019 <readMIDICmd+0x3b>
    1964: c8           	iny
    1965: b1 16        	lda	($16),y                 ; 0x2016 <readMIDICmd+0x38>
    1967: 85 1a        	sta	$1a                     ; 0x201a <readMIDICmd+0x3c>
    1969: a4 18        	ldy	$18                     ; 0x2018 <readMIDICmd+0x3a>
    196b: 84 1b        	sty	$1b                     ; 0x201b <readMIDICmd+0x3d>
    196d: a4 19        	ldy	$19                     ; 0x2019 <readMIDICmd+0x3b>
    196f: 84 1c        	sty	$1c                     ; 0x201c <readMIDICmd+0x3e>
    1971: 8a           	txa
    1972: 1a           	inc
    1973: d0 0a        	bne	$197f <main+0x14c5>
    1975: e6 1b        	inc	$1b                     ; 0x201b <readMIDICmd+0x3d>
    1977: d0 06        	bne	$197f <main+0x14c5>
    1979: e6 1c        	inc	$1c                     ; 0x201c <readMIDICmd+0x3e>
    197b: d0 02        	bne	$197f <main+0x14c5>
    197d: e6 1a        	inc	$1a                     ; 0x201a <readMIDICmd+0x3c>
    197f: a0 04        	ldy	#$4
    1981: 91 12        	sta	($12),y                 ; 0x2012 <readMIDICmd+0x34>
    1983: a0 01        	ldy	#$1
    1985: a5 1b        	lda	$1b                     ; 0x201b <readMIDICmd+0x3d>
    1987: 91 16        	sta	($16),y                 ; 0x2016 <readMIDICmd+0x38>
    1989: c8           	iny
    198a: a5 1c        	lda	$1c                     ; 0x201c <readMIDICmd+0x3e>
    198c: 91 16        	sta	($16),y                 ; 0x2016 <readMIDICmd+0x38>
    198e: a5 1a        	lda	$1a                     ; 0x201a <readMIDICmd+0x3c>
    1990: c8           	iny
    1991: 91 16        	sta	($16),y                 ; 0x2016 <readMIDICmd+0x38>
    1993: 18           	clc
    1994: 8a           	txa
    1995: a0 08        	ldy	#$8
    1997: 71 12        	adc	($12),y                 ; 0x2012 <readMIDICmd+0x34>
    1999: 85 12        	sta	$12                     ; 0x2012 <readMIDICmd+0x34>
    199b: a0 01        	ldy	#$1
    199d: a5 18        	lda	$18                     ; 0x2018 <readMIDICmd+0x3a>
    199f: 71 14        	adc	($14),y                 ; 0x2014 <readMIDICmd+0x36>
    19a1: 85 13        	sta	$13                     ; 0x2013 <readMIDICmd+0x35>
    19a3: c8           	iny
    19a4: a5 19        	lda	$19                     ; 0x2019 <readMIDICmd+0x3b>
    19a6: 71 14        	adc	($14),y                 ; 0x2014 <readMIDICmd+0x36>
    19a8: 85 14        	sta	$14                     ; 0x2014 <readMIDICmd+0x36>
    19aa: a5 13        	lda	$13                     ; 0x2013 <readMIDICmd+0x35>
    19ac: 0a           	asl
    19ad: 26 14        	rol	$14                     ; 0x2014 <readMIDICmd+0x36>
    19af: 0a           	asl
    19b0: 26 14        	rol	$14                     ; 0x2014 <readMIDICmd+0x36>
    19b2: 0a           	asl
    19b3: a5 14        	lda	$14                     ; 0x2014 <readMIDICmd+0x36>
    19b5: 2a           	rol
    19b6: a6 0f        	ldx	$f                      ; 0x200f <readMIDICmd+0x31>
    19b8: 78           	sei
    19b9: 85 0f        	sta	$f                      ; 0x200f <readMIDICmd+0x31>
    19bb: a5 13        	lda	$13                     ; 0x2013 <readMIDICmd+0x35>
    19bd: 09 e0        	ora	#$e0
    19bf: 85 13        	sta	$13                     ; 0x2013 <readMIDICmd+0x35>
    19c1: b2 12        	lda	($12)                   ; 0x2012 <readMIDICmd+0x34>
    19c3: 86 0f        	stx	$f                      ; 0x200f <readMIDICmd+0x31>
    19c5: 58           	cli
    19c6: aa           	tax
    19c7: 30 11        	bmi	$19da <main+0x1520>
    19c9: 64 28        	stz	$28                     ; 0x2028 <readMIDICmd+0x4a>
    19cb: 85 12        	sta	$12                     ; 0x2012 <readMIDICmd+0x34>
    19cd: 64 13        	stz	$13                     ; 0x2013 <readMIDICmd+0x35>
    19cf: 64 2e        	stz	$2e                     ; 0x202e <readMIDICmd+0x50>
    19d1: 64 14        	stz	$14                     ; 0x2014 <readMIDICmd+0x36>
    19d3: a2 00        	ldx	#$0
    19d5: a4 29        	ldy	$29                     ; 0x2029 <readMIDICmd+0x4b>
    19d7: 4c e3 1a     	jmp	$1ae3 <main+0x1629>
    19da: 4a           	lsr
    19db: aa           	tax
    19dc: a9 00        	lda	#$0
    19de: 6a           	ror
    19df: 46 26        	lsr	$26                     ; 0x2026 <readMIDICmd+0x48>
    19e1: 48           	pha
    19e2: a5 26        	lda	$26                     ; 0x2026 <readMIDICmd+0x48>
    19e4: a0 00        	ldy	#$0
    19e6: 91 10        	sta	($10),y                 ; 0x2010 <readMIDICmd+0x32>
    19e8: 68           	pla
    19e9: a4 2f        	ldy	$2f                     ; 0x202f <readMIDICmd+0x51>
    19eb: 84 26        	sty	$26                     ; 0x2026 <readMIDICmd+0x48>
    19ed: 66 26        	ror	$26                     ; 0x2026 <readMIDICmd+0x48>
    19ef: 64 2f        	stz	$2f                     ; 0x202f <readMIDICmd+0x51>
    19f1: 66 2f        	ror	$2f                     ; 0x202f <readMIDICmd+0x51>
    19f3: 46 2d        	lsr	$2d                     ; 0x202d <readMIDICmd+0x4f>
    19f5: a4 2d        	ldy	$2d                     ; 0x202d <readMIDICmd+0x4f>
    19f7: 84 2e        	sty	$2e                     ; 0x202e <readMIDICmd+0x50>
    19f9: 66 29        	ror	$29                     ; 0x2029 <readMIDICmd+0x4b>
    19fb: a4 29        	ldy	$29                     ; 0x2029 <readMIDICmd+0x4b>
    19fd: 84 2d        	sty	$2d                     ; 0x202d <readMIDICmd+0x4f>
    19ff: a4 2c        	ldy	$2c                     ; 0x202c <readMIDICmd+0x4e>
    1a01: 84 29        	sty	$29                     ; 0x2029 <readMIDICmd+0x4b>
    1a03: 66 29        	ror	$29                     ; 0x2029 <readMIDICmd+0x4b>
    1a05: 64 2c        	stz	$2c                     ; 0x202c <readMIDICmd+0x4e>
    1a07: 66 2c        	ror	$2c                     ; 0x202c <readMIDICmd+0x4e>
    1a09: 29 80        	and	#$80
    1a0b: a0 02        	ldy	#$2
    1a0d: 91 10        	sta	($10),y                 ; 0x2010 <readMIDICmd+0x32>
    1a0f: 8a           	txa
    1a10: 29 3f        	and	#$3f
    1a12: 88           	dey
    1a13: 91 10        	sta	($10),y                 ; 0x2010 <readMIDICmd+0x32>
    1a15: a6 7f        	ldx	$7f                     ; 0x207f <readMIDICmd+0xa1>
    1a17: 86 28        	stx	$28                     ; 0x2028 <readMIDICmd+0x4a>
    1a19: a6 80        	ldx	$80                     ; 0x2080 <readMIDICmd+0xa2>
    1a1b: 86 27        	stx	$27                     ; 0x2027 <readMIDICmd+0x49>
    1a1d: a2 19        	ldx	#$19
    1a1f: 86 12        	stx	$12                     ; 0x2012 <readMIDICmd+0x34>
    1a21: 64 13        	stz	$13                     ; 0x2013 <readMIDICmd+0x35>
    1a23: a2 00        	ldx	#$0
    1a25: a5 2b        	lda	$2b                     ; 0x202b <readMIDICmd+0x4d>
    1a27: 20 b5 41     	jsr	$41b5 <__mulhi3>
    1a2a: 85 12        	sta	$12                     ; 0x2012 <readMIDICmd+0x34>
    1a2c: 86 13        	stx	$13                     ; 0x2013 <readMIDICmd+0x35>
    1a2e: 18           	clc
    1a2f: a5 28        	lda	$28                     ; 0x2028 <readMIDICmd+0x4a>
    1a31: 65 12        	adc	$12                     ; 0x2012 <readMIDICmd+0x34>
    1a33: a8           	tay
    1a34: a5 27        	lda	$27                     ; 0x2027 <readMIDICmd+0x49>
    1a36: 65 13        	adc	$13                     ; 0x2013 <readMIDICmd+0x35>
    1a38: aa           	tax
    1a39: 98           	tya
    1a3a: 18           	clc
    1a3b: 69 08        	adc	#$8
    1a3d: 85 12        	sta	$12                     ; 0x2012 <readMIDICmd+0x34>
    1a3f: 8a           	txa
    1a40: 69 00        	adc	#$0
    1a42: 84 14        	sty	$14                     ; 0x2014 <readMIDICmd+0x36>
    1a44: 86 15        	stx	$15                     ; 0x2015 <readMIDICmd+0x37>
    1a46: 85 13        	sta	$13                     ; 0x2013 <readMIDICmd+0x35>
    1a48: 18           	clc
    1a49: 98           	tya
    1a4a: 69 04        	adc	#$4
    1a4c: 85 16        	sta	$16                     ; 0x2016 <readMIDICmd+0x38>
    1a4e: 8a           	txa
    1a4f: 69 00        	adc	#$0
    1a51: 85 17        	sta	$17                     ; 0x2017 <readMIDICmd+0x39>
    1a53: a0 04        	ldy	#$4
    1a55: b1 14        	lda	($14),y                 ; 0x2014 <readMIDICmd+0x36>
    1a57: aa           	tax
    1a58: a0 01        	ldy	#$1
    1a5a: b1 16        	lda	($16),y                 ; 0x2016 <readMIDICmd+0x38>
    1a5c: 85 18        	sta	$18                     ; 0x2018 <readMIDICmd+0x3a>
    1a5e: c8           	iny
    1a5f: b1 16        	lda	($16),y                 ; 0x2016 <readMIDICmd+0x38>
    1a61: 85 19        	sta	$19                     ; 0x2019 <readMIDICmd+0x3b>
    1a63: c8           	iny
    1a64: b1 16        	lda	($16),y                 ; 0x2016 <readMIDICmd+0x38>
    1a66: 85 1a        	sta	$1a                     ; 0x201a <readMIDICmd+0x3c>
    1a68: a4 18        	ldy	$18                     ; 0x2018 <readMIDICmd+0x3a>
    1a6a: 84 1b        	sty	$1b                     ; 0x201b <readMIDICmd+0x3d>
    1a6c: a4 19        	ldy	$19                     ; 0x2019 <readMIDICmd+0x3b>
    1a6e: 84 1c        	sty	$1c                     ; 0x201c <readMIDICmd+0x3e>
    1a70: 8a           	txa
    1a71: 1a           	inc
    1a72: d0 0b        	bne	$1a7f <main+0x15c5>
    1a74: e6 1b        	inc	$1b                     ; 0x201b <readMIDICmd+0x3d>
    1a76: d0 07        	bne	$1a7f <main+0x15c5>
    1a78: e6 1c        	inc	$1c                     ; 0x201c <readMIDICmd+0x3e>
    1a7a: d0 03        	bne	$1a7f <main+0x15c5>
    1a7c: 4c 69 1b     	jmp	$1b69 <main+0x16af>
    1a7f: a0 04        	ldy	#$4
    1a81: 91 14        	sta	($14),y                 ; 0x2014 <readMIDICmd+0x36>
    1a83: a0 01        	ldy	#$1
    1a85: a5 1b        	lda	$1b                     ; 0x201b <readMIDICmd+0x3d>
    1a87: 91 16        	sta	($16),y                 ; 0x2016 <readMIDICmd+0x38>
    1a89: c8           	iny
    1a8a: a5 1c        	lda	$1c                     ; 0x201c <readMIDICmd+0x3e>
    1a8c: 91 16        	sta	($16),y                 ; 0x2016 <readMIDICmd+0x38>
    1a8e: a5 1a        	lda	$1a                     ; 0x201a <readMIDICmd+0x3c>
    1a90: c8           	iny
    1a91: 91 16        	sta	($16),y                 ; 0x2016 <readMIDICmd+0x38>
    1a93: 18           	clc
    1a94: 8a           	txa
    1a95: a0 08        	ldy	#$8
    1a97: 71 14        	adc	($14),y                 ; 0x2014 <readMIDICmd+0x36>
    1a99: 85 14        	sta	$14                     ; 0x2014 <readMIDICmd+0x36>
    1a9b: a0 01        	ldy	#$1
    1a9d: a5 18        	lda	$18                     ; 0x2018 <readMIDICmd+0x3a>
    1a9f: 71 12        	adc	($12),y                 ; 0x2012 <readMIDICmd+0x34>
    1aa1: 85 15        	sta	$15                     ; 0x2015 <readMIDICmd+0x37>
    1aa3: a5 19        	lda	$19                     ; 0x2019 <readMIDICmd+0x3b>
    1aa5: c8           	iny
    1aa6: 71 12        	adc	($12),y                 ; 0x2012 <readMIDICmd+0x34>
    1aa8: 85 12        	sta	$12                     ; 0x2012 <readMIDICmd+0x34>
    1aaa: a5 15        	lda	$15                     ; 0x2015 <readMIDICmd+0x37>
    1aac: 0a           	asl
    1aad: 26 12        	rol	$12                     ; 0x2012 <readMIDICmd+0x34>
    1aaf: 0a           	asl
    1ab0: 26 12        	rol	$12                     ; 0x2012 <readMIDICmd+0x34>
    1ab2: 0a           	asl
    1ab3: a5 12        	lda	$12                     ; 0x2012 <readMIDICmd+0x34>
    1ab5: 2a           	rol
    1ab6: a6 0f        	ldx	$f                      ; 0x200f <readMIDICmd+0x31>
    1ab8: 78           	sei
    1ab9: 85 0f        	sta	$f                      ; 0x200f <readMIDICmd+0x31>
    1abb: a5 14        	lda	$14                     ; 0x2014 <readMIDICmd+0x36>
    1abd: 85 12        	sta	$12                     ; 0x2012 <readMIDICmd+0x34>
    1abf: a5 15        	lda	$15                     ; 0x2015 <readMIDICmd+0x37>
    1ac1: 09 e0        	ora	#$e0
    1ac3: 85 13        	sta	$13                     ; 0x2013 <readMIDICmd+0x35>
    1ac5: b2 12        	lda	($12)                   ; 0x2012 <readMIDICmd+0x34>
    1ac7: 86 0f        	stx	$f                      ; 0x200f <readMIDICmd+0x31>
    1ac9: 48           	pha
    1aca: b1 10        	lda	($10),y                 ; 0x2010 <readMIDICmd+0x32>
    1acc: 85 12        	sta	$12                     ; 0x2012 <readMIDICmd+0x34>
    1ace: 88           	dey
    1acf: b1 10        	lda	($10),y                 ; 0x2010 <readMIDICmd+0x32>
    1ad1: 85 13        	sta	$13                     ; 0x2013 <readMIDICmd+0x35>
    1ad3: 68           	pla
    1ad4: 85 14        	sta	$14                     ; 0x2014 <readMIDICmd+0x36>
    1ad6: a4 29        	ldy	$29                     ; 0x2029 <readMIDICmd+0x4b>
    1ad8: 58           	cli
    1ad9: 5a           	phy
    1ada: a0 00        	ldy	#$0
    1adc: b1 10        	lda	($10),y                 ; 0x2010 <readMIDICmd+0x32>
    1ade: 7a           	ply
    1adf: 85 28        	sta	$28                     ; 0x2028 <readMIDICmd+0x4a>
    1ae1: a2 00        	ldx	#$0
    1ae3: a5 2c        	lda	$2c                     ; 0x202c <readMIDICmd+0x4e>
    1ae5: 05 2f        	ora	$2f                     ; 0x202f <readMIDICmd+0x51>
    1ae7: 85 16        	sta	$16                     ; 0x2016 <readMIDICmd+0x38>
    1ae9: 98           	tya
    1aea: 05 26        	ora	$26                     ; 0x2026 <readMIDICmd+0x48>
    1aec: a8           	tay
    1aed: a5 2d        	lda	$2d                     ; 0x202d <readMIDICmd+0x4f>
    1aef: 05 28        	ora	$28                     ; 0x2028 <readMIDICmd+0x4a>
    1af1: 85 26        	sta	$26                     ; 0x2026 <readMIDICmd+0x48>
    1af3: a5 16        	lda	$16                     ; 0x2016 <readMIDICmd+0x38>
    1af5: 05 12        	ora	$12                     ; 0x2012 <readMIDICmd+0x34>
    1af7: 85 12        	sta	$12                     ; 0x2012 <readMIDICmd+0x34>
    1af9: 98           	tya
    1afa: 05 13        	ora	$13                     ; 0x2013 <readMIDICmd+0x35>
    1afc: 85 2a        	sta	$2a                     ; 0x202a <readMIDICmd+0x4c>
    1afe: a5 12        	lda	$12                     ; 0x2012 <readMIDICmd+0x34>
    1b00: 05 14        	ora	$14                     ; 0x2014 <readMIDICmd+0x36>
    1b02: 85 27        	sta	$27                     ; 0x2027 <readMIDICmd+0x49>
    1b04: a4 7f        	ldy	$7f                     ; 0x207f <readMIDICmd+0xa1>
    1b06: 84 2c        	sty	$2c                     ; 0x202c <readMIDICmd+0x4e>
    1b08: a4 80        	ldy	$80                     ; 0x2080 <readMIDICmd+0xa2>
    1b0a: 84 29        	sty	$29                     ; 0x2029 <readMIDICmd+0x4b>
    1b0c: a0 19        	ldy	#$19
    1b0e: 84 12        	sty	$12                     ; 0x2012 <readMIDICmd+0x34>
    1b10: 64 13        	stz	$13                     ; 0x2013 <readMIDICmd+0x35>
    1b12: a5 2b        	lda	$2b                     ; 0x202b <readMIDICmd+0x4d>
    1b14: 20 b5 41     	jsr	$41b5 <__mulhi3>
    1b17: 85 12        	sta	$12                     ; 0x2012 <readMIDICmd+0x34>
    1b19: 86 13        	stx	$13                     ; 0x2013 <readMIDICmd+0x35>
    1b1b: 18           	clc
    1b1c: a5 2c        	lda	$2c                     ; 0x202c <readMIDICmd+0x4e>
    1b1e: 65 12        	adc	$12                     ; 0x2012 <readMIDICmd+0x34>
    1b20: a8           	tay
    1b21: a5 29        	lda	$29                     ; 0x2029 <readMIDICmd+0x4b>
    1b23: 65 13        	adc	$13                     ; 0x2013 <readMIDICmd+0x35>
    1b25: aa           	tax
    1b26: 98           	tya
    1b27: 84 12        	sty	$12                     ; 0x2012 <readMIDICmd+0x34>
    1b29: 86 13        	stx	$13                     ; 0x2013 <readMIDICmd+0x35>
    1b2b: 18           	clc
    1b2c: 69 0c        	adc	#$c
    1b2e: 85 14        	sta	$14                     ; 0x2014 <readMIDICmd+0x36>
    1b30: 8a           	txa
    1b31: 69 00        	adc	#$0
    1b33: 85 15        	sta	$15                     ; 0x2015 <readMIDICmd+0x37>
    1b35: a0 0c        	ldy	#$c
    1b37: a5 27        	lda	$27                     ; 0x2027 <readMIDICmd+0x49>
    1b39: 91 12        	sta	($12),y                 ; 0x2012 <readMIDICmd+0x34>
    1b3b: a0 01        	ldy	#$1
    1b3d: a5 2a        	lda	$2a                     ; 0x202a <readMIDICmd+0x4c>
    1b3f: 91 14        	sta	($14),y                 ; 0x2014 <readMIDICmd+0x36>
    1b41: c8           	iny
    1b42: a5 26        	lda	$26                     ; 0x2026 <readMIDICmd+0x48>
    1b44: 91 14        	sta	($14),y                 ; 0x2014 <readMIDICmd+0x36>
    1b46: c8           	iny
    1b47: a5 2e        	lda	$2e                     ; 0x202e <readMIDICmd+0x50>
    1b49: 91 14        	sta	($14),y                 ; 0x2014 <readMIDICmd+0x36>
    1b4b: a5 2b        	lda	$2b                     ; 0x202b <readMIDICmd+0x4d>
    1b4d: 20 de 1f     	jsr	$1fde <readMIDICmd>
    1b50: 20 1e 28     	jsr	$281e <exhaustZeroes>
    1b53: 64 78        	stz	$78                     ; 0x2078 <readMIDICmd+0x9a>
    1b55: a2 0b        	ldx	#$b
    1b57: 86 26        	stx	$26                     ; 0x2026 <readMIDICmd+0x48>
    1b59: a2 45        	ldx	#$45
    1b5b: 86 27        	stx	$27                     ; 0x2027 <readMIDICmd+0x49>
    1b5d: a6 70        	ldx	$70                     ; 0x2070 <readMIDICmd+0x92>
    1b5f: a5 71        	lda	$71                     ; 0x2071 <readMIDICmd+0x93>
    1b61: f0 03        	beq	$1b66 <main+0x16ac>
    1b63: 4c 83 0e     	jmp	$e83 <main+0x9c9>
    1b66: 4c 7c 0e     	jmp	$e7c <main+0x9c2>
    1b69: e6 1a        	inc	$1a                     ; 0x201a <readMIDICmd+0x3c>
    1b6b: 4c 7f 1a     	jmp	$1a7f <main+0x15c5>

00001b6e <readDelta>:
    1b6e: 48           	pha
    1b6f: 18           	clc
    1b70: a5 10        	lda	$10                     ; 0x2010 <readMIDICmd+0x32>
    1b72: 69 f7        	adc	#$f7
    1b74: 85 10        	sta	$10                     ; 0x2010 <readMIDICmd+0x32>
    1b76: a5 11        	lda	$11                     ; 0x2011 <readMIDICmd+0x33>
    1b78: 69 ff        	adc	#$ff
    1b7a: 85 11        	sta	$11                     ; 0x2011 <readMIDICmd+0x33>
    1b7c: 68           	pla
    1b7d: a6 24        	ldx	$24                     ; 0x2024 <readMIDICmd+0x46>
    1b7f: da           	phx
    1b80: a6 25        	ldx	$25                     ; 0x2025 <readMIDICmd+0x47>
    1b82: da           	phx
    1b83: a6 26        	ldx	$26                     ; 0x2026 <readMIDICmd+0x48>
    1b85: da           	phx
    1b86: a6 27        	ldx	$27                     ; 0x2027 <readMIDICmd+0x49>
    1b88: da           	phx
    1b89: 48           	pha
    1b8a: a5 28        	lda	$28                     ; 0x2028 <readMIDICmd+0x4a>
    1b8c: a0 02        	ldy	#$2
    1b8e: 91 10        	sta	($10),y                 ; 0x2010 <readMIDICmd+0x32>
    1b90: a5 29        	lda	$29                     ; 0x2029 <readMIDICmd+0x4b>
    1b92: 88           	dey
    1b93: 91 10        	sta	($10),y                 ; 0x2010 <readMIDICmd+0x32>
    1b95: a5 2a        	lda	$2a                     ; 0x202a <readMIDICmd+0x4c>
    1b97: 88           	dey
    1b98: 91 10        	sta	($10),y                 ; 0x2010 <readMIDICmd+0x32>
    1b9a: 68           	pla
    1b9b: 85 25        	sta	$25                     ; 0x2025 <readMIDICmd+0x47>
    1b9d: a6 7f        	ldx	$7f                     ; 0x207f <readMIDICmd+0xa1>
    1b9f: 86 27        	stx	$27                     ; 0x2027 <readMIDICmd+0x49>
    1ba1: a6 80        	ldx	$80                     ; 0x2080 <readMIDICmd+0xa2>
    1ba3: 86 26        	stx	$26                     ; 0x2026 <readMIDICmd+0x48>
    1ba5: 64 24        	stz	$24                     ; 0x2024 <readMIDICmd+0x46>
    1ba7: a2 19        	ldx	#$19
    1ba9: 86 12        	stx	$12                     ; 0x2012 <readMIDICmd+0x34>
    1bab: 64 13        	stz	$13                     ; 0x2013 <readMIDICmd+0x35>
    1bad: a2 00        	ldx	#$0
    1baf: 20 b5 41     	jsr	$41b5 <__mulhi3>
    1bb2: 85 12        	sta	$12                     ; 0x2012 <readMIDICmd+0x34>
    1bb4: 86 13        	stx	$13                     ; 0x2013 <readMIDICmd+0x35>
    1bb6: 18           	clc
    1bb7: a5 27        	lda	$27                     ; 0x2027 <readMIDICmd+0x49>
    1bb9: 65 12        	adc	$12                     ; 0x2012 <readMIDICmd+0x34>
    1bbb: a8           	tay
    1bbc: a5 26        	lda	$26                     ; 0x2026 <readMIDICmd+0x48>
    1bbe: 65 13        	adc	$13                     ; 0x2013 <readMIDICmd+0x35>
    1bc0: aa           	tax
    1bc1: 84 12        	sty	$12                     ; 0x2012 <readMIDICmd+0x34>
    1bc3: 85 13        	sta	$13                     ; 0x2013 <readMIDICmd+0x35>
    1bc5: 98           	tya
    1bc6: 18           	clc
    1bc7: 69 08        	adc	#$8
    1bc9: 85 14        	sta	$14                     ; 0x2014 <readMIDICmd+0x36>
    1bcb: 8a           	txa
    1bcc: 69 00        	adc	#$0
    1bce: 85 15        	sta	$15                     ; 0x2015 <readMIDICmd+0x37>
    1bd0: 18           	clc
    1bd1: 98           	tya
    1bd2: 69 04        	adc	#$4
    1bd4: 85 16        	sta	$16                     ; 0x2016 <readMIDICmd+0x38>
    1bd6: 8a           	txa
    1bd7: 69 00        	adc	#$0
    1bd9: a0 04        	ldy	#$4
    1bdb: 85 17        	sta	$17                     ; 0x2017 <readMIDICmd+0x39>
    1bdd: b1 12        	lda	($12),y                 ; 0x2012 <readMIDICmd+0x34>
    1bdf: 85 18        	sta	$18                     ; 0x2018 <readMIDICmd+0x3a>
    1be1: a0 01        	ldy	#$1
    1be3: b1 16        	lda	($16),y                 ; 0x2016 <readMIDICmd+0x38>
    1be5: 85 19        	sta	$19                     ; 0x2019 <readMIDICmd+0x3b>
    1be7: c8           	iny
    1be8: b1 16        	lda	($16),y                 ; 0x2016 <readMIDICmd+0x38>
    1bea: aa           	tax
    1beb: c8           	iny
    1bec: b1 16        	lda	($16),y                 ; 0x2016 <readMIDICmd+0x38>
    1bee: a4 18        	ldy	$18                     ; 0x2018 <readMIDICmd+0x3a>
    1bf0: 84 1a        	sty	$1a                     ; 0x201a <readMIDICmd+0x3c>
    1bf2: a4 19        	ldy	$19                     ; 0x2019 <readMIDICmd+0x3b>
    1bf4: 84 1b        	sty	$1b                     ; 0x201b <readMIDICmd+0x3d>
    1bf6: 86 1c        	stx	$1c                     ; 0x201c <readMIDICmd+0x3e>
    1bf8: e6 1a        	inc	$1a                     ; 0x201a <readMIDICmd+0x3c>
    1bfa: d0 09        	bne	$1c05 <readDelta+0x97>
    1bfc: e6 1b        	inc	$1b                     ; 0x201b <readMIDICmd+0x3d>
    1bfe: d0 05        	bne	$1c05 <readDelta+0x97>
    1c00: e6 1c        	inc	$1c                     ; 0x201c <readMIDICmd+0x3e>
    1c02: d0 01        	bne	$1c05 <readDelta+0x97>
    1c04: 1a           	inc
    1c05: 85 1d        	sta	$1d                     ; 0x201d <readMIDICmd+0x3f>
    1c07: a0 04        	ldy	#$4
    1c09: a5 1a        	lda	$1a                     ; 0x201a <readMIDICmd+0x3c>
    1c0b: 91 12        	sta	($12),y                 ; 0x2012 <readMIDICmd+0x34>
    1c0d: a0 01        	ldy	#$1
    1c0f: a5 1b        	lda	$1b                     ; 0x201b <readMIDICmd+0x3d>
    1c11: 91 16        	sta	($16),y                 ; 0x2016 <readMIDICmd+0x38>
    1c13: c8           	iny
    1c14: a5 1c        	lda	$1c                     ; 0x201c <readMIDICmd+0x3e>
    1c16: 91 16        	sta	($16),y                 ; 0x2016 <readMIDICmd+0x38>
    1c18: c8           	iny
    1c19: a5 1d        	lda	$1d                     ; 0x201d <readMIDICmd+0x3f>
    1c1b: 91 16        	sta	($16),y                 ; 0x2016 <readMIDICmd+0x38>
    1c1d: 18           	clc
    1c1e: a0 08        	ldy	#$8
    1c20: a5 18        	lda	$18                     ; 0x2018 <readMIDICmd+0x3a>
    1c22: 71 12        	adc	($12),y                 ; 0x2012 <readMIDICmd+0x34>
    1c24: 85 16        	sta	$16                     ; 0x2016 <readMIDICmd+0x38>
    1c26: a5 19        	lda	$19                     ; 0x2019 <readMIDICmd+0x3b>
    1c28: a0 01        	ldy	#$1
    1c2a: 71 14        	adc	($14),y                 ; 0x2014 <readMIDICmd+0x36>
    1c2c: 85 12        	sta	$12                     ; 0x2012 <readMIDICmd+0x34>
    1c2e: 8a           	txa
    1c2f: c8           	iny
    1c30: 71 14        	adc	($14),y                 ; 0x2014 <readMIDICmd+0x36>
    1c32: 85 13        	sta	$13                     ; 0x2013 <readMIDICmd+0x35>
    1c34: a5 12        	lda	$12                     ; 0x2012 <readMIDICmd+0x34>
    1c36: 06 12        	asl	$12                     ; 0x2012 <readMIDICmd+0x34>
    1c38: 26 13        	rol	$13                     ; 0x2013 <readMIDICmd+0x35>
    1c3a: 06 12        	asl	$12                     ; 0x2012 <readMIDICmd+0x34>
    1c3c: 26 13        	rol	$13                     ; 0x2013 <readMIDICmd+0x35>
    1c3e: 06 12        	asl	$12                     ; 0x2012 <readMIDICmd+0x34>
    1c40: 26 13        	rol	$13                     ; 0x2013 <readMIDICmd+0x35>
    1c42: a4 13        	ldy	$13                     ; 0x2013 <readMIDICmd+0x35>
    1c44: a6 0f        	ldx	$f                      ; 0x200f <readMIDICmd+0x31>
    1c46: 78           	sei
    1c47: 84 0f        	sty	$f                      ; 0x200f <readMIDICmd+0x31>
    1c49: a4 16        	ldy	$16                     ; 0x2016 <readMIDICmd+0x38>
    1c4b: 84 12        	sty	$12                     ; 0x2012 <readMIDICmd+0x34>
    1c4d: 09 e0        	ora	#$e0
    1c4f: 85 13        	sta	$13                     ; 0x2013 <readMIDICmd+0x35>
    1c51: b2 12        	lda	($12)                   ; 0x2012 <readMIDICmd+0x34>
    1c53: 86 0f        	stx	$f                      ; 0x200f <readMIDICmd+0x31>
    1c55: 58           	cli
    1c56: aa           	tax
    1c57: 30 15        	bmi	$1c6e <readDelta+0x100>
    1c59: 64 2a        	stz	$2a                     ; 0x202a <readMIDICmd+0x4c>
    1c5b: 64 27        	stz	$27                     ; 0x2027 <readMIDICmd+0x49>
    1c5d: 64 13        	stz	$13                     ; 0x2013 <readMIDICmd+0x35>
    1c5f: 85 29        	sta	$29                     ; 0x2029 <readMIDICmd+0x4b>
    1c61: a9 00        	lda	#$0
    1c63: 64 28        	stz	$28                     ; 0x2028 <readMIDICmd+0x4a>
    1c65: 64 15        	stz	$15                     ; 0x2015 <readMIDICmd+0x37>
    1c67: 64 12        	stz	$12                     ; 0x2012 <readMIDICmd+0x34>
    1c69: 64 14        	stz	$14                     ; 0x2014 <readMIDICmd+0x36>
    1c6b: 4c 8e 1f     	jmp	$1f8e <readDelta+0x420>
    1c6e: 4a           	lsr
    1c6f: aa           	tax
    1c70: a9 00        	lda	#$0
    1c72: 6a           	ror
    1c73: 29 80        	and	#$80
    1c75: 85 29        	sta	$29                     ; 0x2029 <readMIDICmd+0x4b>
    1c77: 8a           	txa
    1c78: 29 3f        	and	#$3f
    1c7a: 85 2a        	sta	$2a                     ; 0x202a <readMIDICmd+0x4c>
    1c7c: a6 7f        	ldx	$7f                     ; 0x207f <readMIDICmd+0xa1>
    1c7e: 86 28        	stx	$28                     ; 0x2028 <readMIDICmd+0x4a>
    1c80: a6 80        	ldx	$80                     ; 0x2080 <readMIDICmd+0xa2>
    1c82: 86 27        	stx	$27                     ; 0x2027 <readMIDICmd+0x49>
    1c84: a2 19        	ldx	#$19
    1c86: 86 12        	stx	$12                     ; 0x2012 <readMIDICmd+0x34>
    1c88: 64 13        	stz	$13                     ; 0x2013 <readMIDICmd+0x35>
    1c8a: a2 00        	ldx	#$0
    1c8c: a5 25        	lda	$25                     ; 0x2025 <readMIDICmd+0x47>
    1c8e: 20 b5 41     	jsr	$41b5 <__mulhi3>
    1c91: 85 12        	sta	$12                     ; 0x2012 <readMIDICmd+0x34>
    1c93: 86 13        	stx	$13                     ; 0x2013 <readMIDICmd+0x35>
    1c95: 18           	clc
    1c96: a5 28        	lda	$28                     ; 0x2028 <readMIDICmd+0x4a>
    1c98: 65 12        	adc	$12                     ; 0x2012 <readMIDICmd+0x34>
    1c9a: a8           	tay
    1c9b: a5 27        	lda	$27                     ; 0x2027 <readMIDICmd+0x49>
    1c9d: 65 13        	adc	$13                     ; 0x2013 <readMIDICmd+0x35>
    1c9f: aa           	tax
    1ca0: 98           	tya
    1ca1: 84 12        	sty	$12                     ; 0x2012 <readMIDICmd+0x34>
    1ca3: 86 13        	stx	$13                     ; 0x2013 <readMIDICmd+0x35>
    1ca5: 84 17        	sty	$17                     ; 0x2017 <readMIDICmd+0x39>
    1ca7: 18           	clc
    1ca8: 69 04        	adc	#$4
    1caa: 85 14        	sta	$14                     ; 0x2014 <readMIDICmd+0x36>
    1cac: 8a           	txa
    1cad: 86 18        	stx	$18                     ; 0x2018 <readMIDICmd+0x3a>
    1caf: 69 00        	adc	#$0
    1cb1: 85 15        	sta	$15                     ; 0x2015 <readMIDICmd+0x37>
    1cb3: a0 04        	ldy	#$4
    1cb5: b1 12        	lda	($12),y                 ; 0x2012 <readMIDICmd+0x34>
    1cb7: 85 16        	sta	$16                     ; 0x2016 <readMIDICmd+0x38>
    1cb9: a0 01        	ldy	#$1
    1cbb: b1 14        	lda	($14),y                 ; 0x2014 <readMIDICmd+0x36>
    1cbd: 85 1a        	sta	$1a                     ; 0x201a <readMIDICmd+0x3c>
    1cbf: c8           	iny
    1cc0: b1 14        	lda	($14),y                 ; 0x2014 <readMIDICmd+0x36>
    1cc2: 85 19        	sta	$19                     ; 0x2019 <readMIDICmd+0x3b>
    1cc4: c8           	iny
    1cc5: b1 14        	lda	($14),y                 ; 0x2014 <readMIDICmd+0x36>
    1cc7: a6 16        	ldx	$16                     ; 0x2016 <readMIDICmd+0x38>
    1cc9: 86 1c        	stx	$1c                     ; 0x201c <readMIDICmd+0x3e>
    1ccb: a6 1a        	ldx	$1a                     ; 0x201a <readMIDICmd+0x3c>
    1ccd: a4 19        	ldy	$19                     ; 0x2019 <readMIDICmd+0x3b>
    1ccf: 84 1b        	sty	$1b                     ; 0x201b <readMIDICmd+0x3d>
    1cd1: e6 1c        	inc	$1c                     ; 0x201c <readMIDICmd+0x3e>
    1cd3: d0 08        	bne	$1cdd <readDelta+0x16f>
    1cd5: e8           	inx
    1cd6: d0 05        	bne	$1cdd <readDelta+0x16f>
    1cd8: e6 1b        	inc	$1b                     ; 0x201b <readMIDICmd+0x3d>
    1cda: d0 01        	bne	$1cdd <readDelta+0x16f>
    1cdc: 1a           	inc
    1cdd: 85 1d        	sta	$1d                     ; 0x201d <readMIDICmd+0x3f>
    1cdf: a0 04        	ldy	#$4
    1ce1: a5 1c        	lda	$1c                     ; 0x201c <readMIDICmd+0x3e>
    1ce3: 91 12        	sta	($12),y                 ; 0x2012 <readMIDICmd+0x34>
    1ce5: 88           	dey
    1ce6: a5 1d        	lda	$1d                     ; 0x201d <readMIDICmd+0x3f>
    1ce8: 91 14        	sta	($14),y                 ; 0x2014 <readMIDICmd+0x36>
    1cea: a0 01        	ldy	#$1
    1cec: 8a           	txa
    1ced: 91 14        	sta	($14),y                 ; 0x2014 <readMIDICmd+0x36>
    1cef: c8           	iny
    1cf0: a5 1b        	lda	$1b                     ; 0x201b <readMIDICmd+0x3d>
    1cf2: 91 14        	sta	($14),y                 ; 0x2014 <readMIDICmd+0x36>
    1cf4: a5 16        	lda	$16                     ; 0x2016 <readMIDICmd+0x38>
    1cf6: 18           	clc
    1cf7: a0 08        	ldy	#$8
    1cf9: 71 12        	adc	($12),y                 ; 0x2012 <readMIDICmd+0x34>
    1cfb: a2 01        	ldx	#$1
    1cfd: b0 02        	bcs	$1d01 <readDelta+0x193>
    1cff: a2 00        	ldx	#$0
    1d01: 85 14        	sta	$14                     ; 0x2014 <readMIDICmd+0x36>
    1d03: 18           	clc
    1d04: a5 17        	lda	$17                     ; 0x2017 <readMIDICmd+0x39>
    1d06: 69 08        	adc	#$8
    1d08: 85 12        	sta	$12                     ; 0x2012 <readMIDICmd+0x34>
    1d0a: a5 18        	lda	$18                     ; 0x2018 <readMIDICmd+0x3a>
    1d0c: 69 00        	adc	#$0
    1d0e: 85 13        	sta	$13                     ; 0x2013 <readMIDICmd+0x35>
    1d10: a5 1a        	lda	$1a                     ; 0x201a <readMIDICmd+0x3c>
    1d12: e0 01        	cpx	#$1
    1d14: a0 01        	ldy	#$1
    1d16: 71 12        	adc	($12),y                 ; 0x2012 <readMIDICmd+0x34>
    1d18: aa           	tax
    1d19: a5 19        	lda	$19                     ; 0x2019 <readMIDICmd+0x3b>
    1d1b: c8           	iny
    1d1c: 71 12        	adc	($12),y                 ; 0x2012 <readMIDICmd+0x34>
    1d1e: 85 13        	sta	$13                     ; 0x2013 <readMIDICmd+0x35>
    1d20: 8a           	txa
    1d21: 86 12        	stx	$12                     ; 0x2012 <readMIDICmd+0x34>
    1d23: 06 12        	asl	$12                     ; 0x2012 <readMIDICmd+0x34>
    1d25: 26 13        	rol	$13                     ; 0x2013 <readMIDICmd+0x35>
    1d27: 06 12        	asl	$12                     ; 0x2012 <readMIDICmd+0x34>
    1d29: 26 13        	rol	$13                     ; 0x2013 <readMIDICmd+0x35>
    1d2b: 06 12        	asl	$12                     ; 0x2012 <readMIDICmd+0x34>
    1d2d: 26 13        	rol	$13                     ; 0x2013 <readMIDICmd+0x35>
    1d2f: a4 13        	ldy	$13                     ; 0x2013 <readMIDICmd+0x35>
    1d31: a6 0f        	ldx	$f                      ; 0x200f <readMIDICmd+0x31>
    1d33: 78           	sei
    1d34: 84 0f        	sty	$f                      ; 0x200f <readMIDICmd+0x31>
    1d36: a4 14        	ldy	$14                     ; 0x2014 <readMIDICmd+0x36>
    1d38: 84 12        	sty	$12                     ; 0x2012 <readMIDICmd+0x34>
    1d3a: 09 e0        	ora	#$e0
    1d3c: 85 13        	sta	$13                     ; 0x2013 <readMIDICmd+0x35>
    1d3e: b2 12        	lda	($12)                   ; 0x2012 <readMIDICmd+0x34>
    1d40: 86 0f        	stx	$f                      ; 0x200f <readMIDICmd+0x31>
    1d42: 58           	cli
    1d43: aa           	tax
    1d44: 30 0f        	bmi	$1d55 <readDelta+0x1e7>
    1d46: 64 13        	stz	$13                     ; 0x2013 <readMIDICmd+0x35>
    1d48: 64 28        	stz	$28                     ; 0x2028 <readMIDICmd+0x4a>
    1d4a: 64 15        	stz	$15                     ; 0x2015 <readMIDICmd+0x37>
    1d4c: 64 12        	stz	$12                     ; 0x2012 <readMIDICmd+0x34>
    1d4e: 64 27        	stz	$27                     ; 0x2027 <readMIDICmd+0x49>
    1d50: 64 14        	stz	$14                     ; 0x2014 <readMIDICmd+0x36>
    1d52: 4c 8e 1f     	jmp	$1f8e <readDelta+0x420>
    1d55: 4a           	lsr
    1d56: aa           	tax
    1d57: a9 00        	lda	#$0
    1d59: 6a           	ror
    1d5a: a4 2a        	ldy	$2a                     ; 0x202a <readMIDICmd+0x4c>
    1d5c: 84 26        	sty	$26                     ; 0x2026 <readMIDICmd+0x48>
    1d5e: 46 26        	lsr	$26                     ; 0x2026 <readMIDICmd+0x48>
    1d60: a4 26        	ldy	$26                     ; 0x2026 <readMIDICmd+0x48>
    1d62: 84 27        	sty	$27                     ; 0x2027 <readMIDICmd+0x49>
    1d64: a4 29        	ldy	$29                     ; 0x2029 <readMIDICmd+0x4b>
    1d66: 84 26        	sty	$26                     ; 0x2026 <readMIDICmd+0x48>
    1d68: 66 26        	ror	$26                     ; 0x2026 <readMIDICmd+0x48>
    1d6a: a4 26        	ldy	$26                     ; 0x2026 <readMIDICmd+0x48>
    1d6c: 84 2a        	sty	$2a                     ; 0x202a <readMIDICmd+0x4c>
    1d6e: 64 14        	stz	$14                     ; 0x2014 <readMIDICmd+0x36>
    1d70: 66 14        	ror	$14                     ; 0x2014 <readMIDICmd+0x36>
    1d72: 48           	pha
    1d73: a5 14        	lda	$14                     ; 0x2014 <readMIDICmd+0x36>
    1d75: a0 07        	ldy	#$7
    1d77: 91 10        	sta	($10),y                 ; 0x2010 <readMIDICmd+0x32>
    1d79: 68           	pla
    1d7a: 64 13        	stz	$13                     ; 0x2013 <readMIDICmd+0x35>
    1d7c: 29 80        	and	#$80
    1d7e: c8           	iny
    1d7f: 91 10        	sta	($10),y                 ; 0x2010 <readMIDICmd+0x32>
    1d81: 8a           	txa
    1d82: 29 3f        	and	#$3f
    1d84: 85 28        	sta	$28                     ; 0x2028 <readMIDICmd+0x4a>
    1d86: a6 7f        	ldx	$7f                     ; 0x207f <readMIDICmd+0xa1>
    1d88: 86 26        	stx	$26                     ; 0x2026 <readMIDICmd+0x48>
    1d8a: a6 80        	ldx	$80                     ; 0x2080 <readMIDICmd+0xa2>
    1d8c: 86 29        	stx	$29                     ; 0x2029 <readMIDICmd+0x4b>
    1d8e: a0 19        	ldy	#$19
    1d90: a2 00        	ldx	#$0
    1d92: 84 12        	sty	$12                     ; 0x2012 <readMIDICmd+0x34>
    1d94: a5 25        	lda	$25                     ; 0x2025 <readMIDICmd+0x47>
    1d96: 20 b5 41     	jsr	$41b5 <__mulhi3>
    1d99: 85 12        	sta	$12                     ; 0x2012 <readMIDICmd+0x34>
    1d9b: 86 13        	stx	$13                     ; 0x2013 <readMIDICmd+0x35>
    1d9d: a5 26        	lda	$26                     ; 0x2026 <readMIDICmd+0x48>
    1d9f: 18           	clc
    1da0: 65 12        	adc	$12                     ; 0x2012 <readMIDICmd+0x34>
    1da2: a8           	tay
    1da3: a5 29        	lda	$29                     ; 0x2029 <readMIDICmd+0x4b>
    1da5: 65 13        	adc	$13                     ; 0x2013 <readMIDICmd+0x35>
    1da7: aa           	tax
    1da8: 84 12        	sty	$12                     ; 0x2012 <readMIDICmd+0x34>
    1daa: 85 13        	sta	$13                     ; 0x2013 <readMIDICmd+0x35>
    1dac: 18           	clc
    1dad: 98           	tya
    1dae: 84 16        	sty	$16                     ; 0x2016 <readMIDICmd+0x38>
    1db0: 69 08        	adc	#$8
    1db2: 85 14        	sta	$14                     ; 0x2014 <readMIDICmd+0x36>
    1db4: 8a           	txa
    1db5: 69 00        	adc	#$0
    1db7: 85 15        	sta	$15                     ; 0x2015 <readMIDICmd+0x37>
    1db9: a0 04        	ldy	#$4
    1dbb: 18           	clc
    1dbc: a5 16        	lda	$16                     ; 0x2016 <readMIDICmd+0x38>
    1dbe: 69 04        	adc	#$4
    1dc0: 85 16        	sta	$16                     ; 0x2016 <readMIDICmd+0x38>
    1dc2: 8a           	txa
    1dc3: 69 00        	adc	#$0
    1dc5: 85 17        	sta	$17                     ; 0x2017 <readMIDICmd+0x39>
    1dc7: b1 12        	lda	($12),y                 ; 0x2012 <readMIDICmd+0x34>
    1dc9: 85 18        	sta	$18                     ; 0x2018 <readMIDICmd+0x3a>
    1dcb: a0 01        	ldy	#$1
    1dcd: b1 16        	lda	($16),y                 ; 0x2016 <readMIDICmd+0x38>
    1dcf: 85 19        	sta	$19                     ; 0x2019 <readMIDICmd+0x3b>
    1dd1: c8           	iny
    1dd2: b1 16        	lda	($16),y                 ; 0x2016 <readMIDICmd+0x38>
    1dd4: aa           	tax
    1dd5: c8           	iny
    1dd6: b1 16        	lda	($16),y                 ; 0x2016 <readMIDICmd+0x38>
    1dd8: 85 1b        	sta	$1b                     ; 0x201b <readMIDICmd+0x3d>
    1dda: a4 18        	ldy	$18                     ; 0x2018 <readMIDICmd+0x3a>
    1ddc: 84 1a        	sty	$1a                     ; 0x201a <readMIDICmd+0x3c>
    1dde: a4 19        	ldy	$19                     ; 0x2019 <readMIDICmd+0x3b>
    1de0: 8a           	txa
    1de1: e6 1a        	inc	$1a                     ; 0x201a <readMIDICmd+0x3c>
    1de3: d0 08        	bne	$1ded <readDelta+0x27f>
    1de5: c8           	iny
    1de6: d0 05        	bne	$1ded <readDelta+0x27f>
    1de8: 1a           	inc
    1de9: d0 02        	bne	$1ded <readDelta+0x27f>
    1deb: e6 1b        	inc	$1b                     ; 0x201b <readMIDICmd+0x3d>
    1ded: 85 1c        	sta	$1c                     ; 0x201c <readMIDICmd+0x3e>
    1def: 84 1d        	sty	$1d                     ; 0x201d <readMIDICmd+0x3f>
    1df1: a0 04        	ldy	#$4
    1df3: a5 1a        	lda	$1a                     ; 0x201a <readMIDICmd+0x3c>
    1df5: 91 12        	sta	($12),y                 ; 0x2012 <readMIDICmd+0x34>
    1df7: a0 01        	ldy	#$1
    1df9: a5 1d        	lda	$1d                     ; 0x201d <readMIDICmd+0x3f>
    1dfb: 91 16        	sta	($16),y                 ; 0x2016 <readMIDICmd+0x38>
    1dfd: c8           	iny
    1dfe: a5 1c        	lda	$1c                     ; 0x201c <readMIDICmd+0x3e>
    1e00: 91 16        	sta	($16),y                 ; 0x2016 <readMIDICmd+0x38>
    1e02: c8           	iny
    1e03: a5 1b        	lda	$1b                     ; 0x201b <readMIDICmd+0x3d>
    1e05: 91 16        	sta	($16),y                 ; 0x2016 <readMIDICmd+0x38>
    1e07: 18           	clc
    1e08: a0 08        	ldy	#$8
    1e0a: a5 18        	lda	$18                     ; 0x2018 <readMIDICmd+0x3a>
    1e0c: 71 12        	adc	($12),y                 ; 0x2012 <readMIDICmd+0x34>
    1e0e: 85 16        	sta	$16                     ; 0x2016 <readMIDICmd+0x38>
    1e10: a5 19        	lda	$19                     ; 0x2019 <readMIDICmd+0x3b>
    1e12: a0 01        	ldy	#$1
    1e14: 71 14        	adc	($14),y                 ; 0x2014 <readMIDICmd+0x36>
    1e16: 85 12        	sta	$12                     ; 0x2012 <readMIDICmd+0x34>
    1e18: c8           	iny
    1e19: 8a           	txa
    1e1a: 71 14        	adc	($14),y                 ; 0x2014 <readMIDICmd+0x36>
    1e1c: 85 13        	sta	$13                     ; 0x2013 <readMIDICmd+0x35>
    1e1e: a5 12        	lda	$12                     ; 0x2012 <readMIDICmd+0x34>
    1e20: 06 12        	asl	$12                     ; 0x2012 <readMIDICmd+0x34>
    1e22: 26 13        	rol	$13                     ; 0x2013 <readMIDICmd+0x35>
    1e24: 06 12        	asl	$12                     ; 0x2012 <readMIDICmd+0x34>
    1e26: 26 13        	rol	$13                     ; 0x2013 <readMIDICmd+0x35>
    1e28: 06 12        	asl	$12                     ; 0x2012 <readMIDICmd+0x34>
    1e2a: 26 13        	rol	$13                     ; 0x2013 <readMIDICmd+0x35>
    1e2c: a4 13        	ldy	$13                     ; 0x2013 <readMIDICmd+0x35>
    1e2e: a6 0f        	ldx	$f                      ; 0x200f <readMIDICmd+0x31>
    1e30: 78           	sei
    1e31: 84 0f        	sty	$f                      ; 0x200f <readMIDICmd+0x31>
    1e33: a4 16        	ldy	$16                     ; 0x2016 <readMIDICmd+0x38>
    1e35: 84 12        	sty	$12                     ; 0x2012 <readMIDICmd+0x34>
    1e37: 09 e0        	ora	#$e0
    1e39: 85 13        	sta	$13                     ; 0x2013 <readMIDICmd+0x35>
    1e3b: b2 12        	lda	($12)                   ; 0x2012 <readMIDICmd+0x34>
    1e3d: 86 0f        	stx	$f                      ; 0x200f <readMIDICmd+0x31>
    1e3f: 58           	cli
    1e40: aa           	tax
    1e41: 30 14        	bmi	$1e57 <readDelta+0x2e9>
    1e43: 64 15        	stz	$15                     ; 0x2015 <readMIDICmd+0x37>
    1e45: 85 12        	sta	$12                     ; 0x2012 <readMIDICmd+0x34>
    1e47: 64 14        	stz	$14                     ; 0x2014 <readMIDICmd+0x36>
    1e49: 64 13        	stz	$13                     ; 0x2013 <readMIDICmd+0x35>
    1e4b: a0 07        	ldy	#$7
    1e4d: b1 10        	lda	($10),y                 ; 0x2010 <readMIDICmd+0x32>
    1e4f: 85 29        	sta	$29                     ; 0x2029 <readMIDICmd+0x4b>
    1e51: c8           	iny
    1e52: b1 10        	lda	($10),y                 ; 0x2010 <readMIDICmd+0x32>
    1e54: 4c 8e 1f     	jmp	$1f8e <readDelta+0x420>
    1e57: 4a           	lsr
    1e58: 64 14        	stz	$14                     ; 0x2014 <readMIDICmd+0x36>
    1e5a: 66 14        	ror	$14                     ; 0x2014 <readMIDICmd+0x36>
    1e5c: 46 28        	lsr	$28                     ; 0x2028 <readMIDICmd+0x4a>
    1e5e: 48           	pha
    1e5f: a5 28        	lda	$28                     ; 0x2028 <readMIDICmd+0x4a>
    1e61: a0 06        	ldy	#$6
    1e63: 91 10        	sta	($10),y                 ; 0x2010 <readMIDICmd+0x32>
    1e65: a0 08        	ldy	#$8
    1e67: b1 10        	lda	($10),y                 ; 0x2010 <readMIDICmd+0x32>
    1e69: 85 28        	sta	$28                     ; 0x2028 <readMIDICmd+0x4a>
    1e6b: 68           	pla
    1e6c: 66 28        	ror	$28                     ; 0x2028 <readMIDICmd+0x4a>
    1e6e: aa           	tax
    1e6f: a9 00        	lda	#$0
    1e71: 6a           	ror
    1e72: 91 10        	sta	($10),y                 ; 0x2010 <readMIDICmd+0x32>
    1e74: a4 27        	ldy	$27                     ; 0x2027 <readMIDICmd+0x49>
    1e76: 84 24        	sty	$24                     ; 0x2024 <readMIDICmd+0x46>
    1e78: 46 24        	lsr	$24                     ; 0x2024 <readMIDICmd+0x46>
    1e7a: a4 2a        	ldy	$2a                     ; 0x202a <readMIDICmd+0x4c>
    1e7c: 84 26        	sty	$26                     ; 0x2026 <readMIDICmd+0x48>
    1e7e: 66 26        	ror	$26                     ; 0x2026 <readMIDICmd+0x48>
    1e80: a4 26        	ldy	$26                     ; 0x2026 <readMIDICmd+0x48>
    1e82: 84 27        	sty	$27                     ; 0x2027 <readMIDICmd+0x49>
    1e84: a0 07        	ldy	#$7
    1e86: b1 10        	lda	($10),y                 ; 0x2010 <readMIDICmd+0x32>
    1e88: 85 26        	sta	$26                     ; 0x2026 <readMIDICmd+0x48>
    1e8a: 66 26        	ror	$26                     ; 0x2026 <readMIDICmd+0x48>
    1e8c: a5 26        	lda	$26                     ; 0x2026 <readMIDICmd+0x48>
    1e8e: 85 2a        	sta	$2a                     ; 0x202a <readMIDICmd+0x4c>
    1e90: a9 00        	lda	#$0
    1e92: 6a           	ror
    1e93: 91 10        	sta	($10),y                 ; 0x2010 <readMIDICmd+0x32>
    1e95: a5 14        	lda	$14                     ; 0x2014 <readMIDICmd+0x36>
    1e97: 29 80        	and	#$80
    1e99: 85 29        	sta	$29                     ; 0x2029 <readMIDICmd+0x4b>
    1e9b: 8a           	txa
    1e9c: 29 3f        	and	#$3f
    1e9e: a0 04        	ldy	#$4
    1ea0: 91 10        	sta	($10),y                 ; 0x2010 <readMIDICmd+0x32>
    1ea2: a6 7f        	ldx	$7f                     ; 0x207f <readMIDICmd+0xa1>
    1ea4: 8a           	txa
    1ea5: 88           	dey
    1ea6: 91 10        	sta	($10),y                 ; 0x2010 <readMIDICmd+0x32>
    1ea8: a6 80        	ldx	$80                     ; 0x2080 <readMIDICmd+0xa2>
    1eaa: 8a           	txa
    1eab: a0 05        	ldy	#$5
    1ead: 91 10        	sta	($10),y                 ; 0x2010 <readMIDICmd+0x32>
    1eaf: a0 19        	ldy	#$19
    1eb1: a2 00        	ldx	#$0
    1eb3: 84 12        	sty	$12                     ; 0x2012 <readMIDICmd+0x34>
    1eb5: 64 13        	stz	$13                     ; 0x2013 <readMIDICmd+0x35>
    1eb7: a5 25        	lda	$25                     ; 0x2025 <readMIDICmd+0x47>
    1eb9: 20 b5 41     	jsr	$41b5 <__mulhi3>
    1ebc: a4 24        	ldy	$24                     ; 0x2024 <readMIDICmd+0x46>
    1ebe: 84 13        	sty	$13                     ; 0x2013 <readMIDICmd+0x35>
    1ec0: 85 15        	sta	$15                     ; 0x2015 <readMIDICmd+0x37>
    1ec2: 86 16        	stx	$16                     ; 0x2016 <readMIDICmd+0x38>
    1ec4: a6 29        	ldx	$29                     ; 0x2029 <readMIDICmd+0x4b>
    1ec6: 86 12        	stx	$12                     ; 0x2012 <readMIDICmd+0x34>
    1ec8: a0 04        	ldy	#$4
    1eca: b1 10        	lda	($10),y                 ; 0x2010 <readMIDICmd+0x32>
    1ecc: 85 14        	sta	$14                     ; 0x2014 <readMIDICmd+0x36>
    1ece: 18           	clc
    1ecf: 88           	dey
    1ed0: b1 10        	lda	($10),y                 ; 0x2010 <readMIDICmd+0x32>
    1ed2: 65 15        	adc	$15                     ; 0x2015 <readMIDICmd+0x37>
    1ed4: a8           	tay
    1ed5: 5a           	phy
    1ed6: a0 05        	ldy	#$5
    1ed8: b1 10        	lda	($10),y                 ; 0x2010 <readMIDICmd+0x32>
    1eda: 7a           	ply
    1edb: 65 16        	adc	$16                     ; 0x2016 <readMIDICmd+0x38>
    1edd: aa           	tax
    1ede: 98           	tya
    1edf: 84 16        	sty	$16                     ; 0x2016 <readMIDICmd+0x38>
    1ee1: 86 17        	stx	$17                     ; 0x2017 <readMIDICmd+0x39>
    1ee3: 84 1b        	sty	$1b                     ; 0x201b <readMIDICmd+0x3d>
    1ee5: 18           	clc
    1ee6: 69 04        	adc	#$4
    1ee8: 85 18        	sta	$18                     ; 0x2018 <readMIDICmd+0x3a>
    1eea: 8a           	txa
    1eeb: 86 1c        	stx	$1c                     ; 0x201c <readMIDICmd+0x3e>
    1eed: 69 00        	adc	#$0
    1eef: 85 19        	sta	$19                     ; 0x2019 <readMIDICmd+0x3b>
    1ef1: a0 04        	ldy	#$4
    1ef3: b1 16        	lda	($16),y                 ; 0x2016 <readMIDICmd+0x38>
    1ef5: aa           	tax
    1ef6: a0 01        	ldy	#$1
    1ef8: b1 18        	lda	($18),y                 ; 0x2018 <readMIDICmd+0x3a>
    1efa: 85 1a        	sta	$1a                     ; 0x201a <readMIDICmd+0x3c>
    1efc: c8           	iny
    1efd: b1 18        	lda	($18),y                 ; 0x2018 <readMIDICmd+0x3a>
    1eff: 85 15        	sta	$15                     ; 0x2015 <readMIDICmd+0x37>
    1f01: c8           	iny
    1f02: b1 18        	lda	($18),y                 ; 0x2018 <readMIDICmd+0x3a>
    1f04: 85 1d        	sta	$1d                     ; 0x201d <readMIDICmd+0x3f>
    1f06: a4 1a        	ldy	$1a                     ; 0x201a <readMIDICmd+0x3c>
    1f08: 84 1e        	sty	$1e                     ; 0x201e <readMIDICmd+0x40>
    1f0a: a4 15        	ldy	$15                     ; 0x2015 <readMIDICmd+0x37>
    1f0c: 84 1f        	sty	$1f                     ; 0x201f <readMIDICmd+0x41>
    1f0e: 8a           	txa
    1f0f: 1a           	inc
    1f10: d0 0a        	bne	$1f1c <readDelta+0x3ae>
    1f12: e6 1e        	inc	$1e                     ; 0x201e <readMIDICmd+0x40>
    1f14: d0 06        	bne	$1f1c <readDelta+0x3ae>
    1f16: e6 1f        	inc	$1f                     ; 0x201f <readMIDICmd+0x41>
    1f18: d0 02        	bne	$1f1c <readDelta+0x3ae>
    1f1a: e6 1d        	inc	$1d                     ; 0x201d <readMIDICmd+0x3f>
    1f1c: a0 04        	ldy	#$4
    1f1e: 91 16        	sta	($16),y                 ; 0x2016 <readMIDICmd+0x38>
    1f20: a5 1d        	lda	$1d                     ; 0x201d <readMIDICmd+0x3f>
    1f22: 88           	dey
    1f23: 91 18        	sta	($18),y                 ; 0x2018 <readMIDICmd+0x3a>
    1f25: a0 01        	ldy	#$1
    1f27: a5 1e        	lda	$1e                     ; 0x201e <readMIDICmd+0x40>
    1f29: 91 18        	sta	($18),y                 ; 0x2018 <readMIDICmd+0x3a>
    1f2b: c8           	iny
    1f2c: a5 1f        	lda	$1f                     ; 0x201f <readMIDICmd+0x41>
    1f2e: 91 18        	sta	($18),y                 ; 0x2018 <readMIDICmd+0x3a>
    1f30: a0 08        	ldy	#$8
    1f32: 8a           	txa
    1f33: 18           	clc
    1f34: 71 16        	adc	($16),y                 ; 0x2016 <readMIDICmd+0x38>
    1f36: a2 01        	ldx	#$1
    1f38: b0 02        	bcs	$1f3c <readDelta+0x3ce>
    1f3a: a2 00        	ldx	#$0
    1f3c: 85 19        	sta	$19                     ; 0x2019 <readMIDICmd+0x3b>
    1f3e: 18           	clc
    1f3f: a5 1b        	lda	$1b                     ; 0x201b <readMIDICmd+0x3d>
    1f41: 69 08        	adc	#$8
    1f43: 85 16        	sta	$16                     ; 0x2016 <readMIDICmd+0x38>
    1f45: a5 1c        	lda	$1c                     ; 0x201c <readMIDICmd+0x3e>
    1f47: 69 00        	adc	#$0
    1f49: 85 17        	sta	$17                     ; 0x2017 <readMIDICmd+0x39>
    1f4b: e0 01        	cpx	#$1
    1f4d: a5 1a        	lda	$1a                     ; 0x201a <readMIDICmd+0x3c>
    1f4f: a0 01        	ldy	#$1
    1f51: 71 16        	adc	($16),y                 ; 0x2016 <readMIDICmd+0x38>
    1f53: 85 18        	sta	$18                     ; 0x2018 <readMIDICmd+0x3a>
    1f55: a5 15        	lda	$15                     ; 0x2015 <readMIDICmd+0x37>
    1f57: c8           	iny
    1f58: 71 16        	adc	($16),y                 ; 0x2016 <readMIDICmd+0x38>
    1f5a: 85 15        	sta	$15                     ; 0x2015 <readMIDICmd+0x37>
    1f5c: a6 0f        	ldx	$f                      ; 0x200f <readMIDICmd+0x31>
    1f5e: 78           	sei
    1f5f: a5 18        	lda	$18                     ; 0x2018 <readMIDICmd+0x3a>
    1f61: 0a           	asl
    1f62: 26 15        	rol	$15                     ; 0x2015 <readMIDICmd+0x37>
    1f64: 0a           	asl
    1f65: 26 15        	rol	$15                     ; 0x2015 <readMIDICmd+0x37>
    1f67: 0a           	asl
    1f68: a5 15        	lda	$15                     ; 0x2015 <readMIDICmd+0x37>
    1f6a: 2a           	rol
    1f6b: 85 0f        	sta	$f                      ; 0x200f <readMIDICmd+0x31>
    1f6d: a5 18        	lda	$18                     ; 0x2018 <readMIDICmd+0x3a>
    1f6f: 09 e0        	ora	#$e0
    1f71: a4 19        	ldy	$19                     ; 0x2019 <readMIDICmd+0x3b>
    1f73: 84 16        	sty	$16                     ; 0x2016 <readMIDICmd+0x38>
    1f75: 85 17        	sta	$17                     ; 0x2017 <readMIDICmd+0x39>
    1f77: b2 16        	lda	($16)                   ; 0x2016 <readMIDICmd+0x38>
    1f79: 86 0f        	stx	$f                      ; 0x200f <readMIDICmd+0x31>
    1f7b: 58           	cli
    1f7c: 85 24        	sta	$24                     ; 0x2024 <readMIDICmd+0x46>
    1f7e: a0 08        	ldy	#$8
    1f80: b1 10        	lda	($10),y                 ; 0x2010 <readMIDICmd+0x32>
    1f82: 48           	pha
    1f83: 88           	dey
    1f84: b1 10        	lda	($10),y                 ; 0x2010 <readMIDICmd+0x32>
    1f86: 85 29        	sta	$29                     ; 0x2029 <readMIDICmd+0x4b>
    1f88: 88           	dey
    1f89: b1 10        	lda	($10),y                 ; 0x2010 <readMIDICmd+0x32>
    1f8b: 85 15        	sta	$15                     ; 0x2015 <readMIDICmd+0x37>
    1f8d: 68           	pla
    1f8e: 85 17        	sta	$17                     ; 0x2017 <readMIDICmd+0x39>
    1f90: a5 29        	lda	$29                     ; 0x2029 <readMIDICmd+0x4b>
    1f92: 05 17        	ora	$17                     ; 0x2017 <readMIDICmd+0x39>
    1f94: aa           	tax
    1f95: a5 2a        	lda	$2a                     ; 0x202a <readMIDICmd+0x4c>
    1f97: 05 28        	ora	$28                     ; 0x2028 <readMIDICmd+0x4a>
    1f99: 85 16        	sta	$16                     ; 0x2016 <readMIDICmd+0x38>
    1f9b: a5 27        	lda	$27                     ; 0x2027 <readMIDICmd+0x49>
    1f9d: 05 15        	ora	$15                     ; 0x2015 <readMIDICmd+0x37>
    1f9f: a8           	tay
    1fa0: 8a           	txa
    1fa1: 05 12        	ora	$12                     ; 0x2012 <readMIDICmd+0x34>
    1fa3: 85 12        	sta	$12                     ; 0x2012 <readMIDICmd+0x34>
    1fa5: a5 16        	lda	$16                     ; 0x2016 <readMIDICmd+0x38>
    1fa7: 05 14        	ora	$14                     ; 0x2014 <readMIDICmd+0x36>
    1fa9: aa           	tax
    1faa: a5 12        	lda	$12                     ; 0x2012 <readMIDICmd+0x34>
    1fac: 05 24        	ora	$24                     ; 0x2024 <readMIDICmd+0x46>
    1fae: 84 12        	sty	$12                     ; 0x2012 <readMIDICmd+0x34>
    1fb0: 85 20        	sta	$20                     ; 0x2020 <readMIDICmd+0x42>
    1fb2: a0 00        	ldy	#$0
    1fb4: b1 10        	lda	($10),y                 ; 0x2010 <readMIDICmd+0x32>
    1fb6: 85 2a        	sta	$2a                     ; 0x202a <readMIDICmd+0x4c>
    1fb8: c8           	iny
    1fb9: b1 10        	lda	($10),y                 ; 0x2010 <readMIDICmd+0x32>
    1fbb: 85 29        	sta	$29                     ; 0x2029 <readMIDICmd+0x4b>
    1fbd: c8           	iny
    1fbe: b1 10        	lda	($10),y                 ; 0x2010 <readMIDICmd+0x32>
    1fc0: 85 28        	sta	$28                     ; 0x2028 <readMIDICmd+0x4a>
    1fc2: 7a           	ply
    1fc3: 84 27        	sty	$27                     ; 0x2027 <readMIDICmd+0x49>
    1fc5: 7a           	ply
    1fc6: 84 26        	sty	$26                     ; 0x2026 <readMIDICmd+0x48>
    1fc8: 7a           	ply
    1fc9: 84 25        	sty	$25                     ; 0x2025 <readMIDICmd+0x47>
    1fcb: 7a           	ply
    1fcc: 84 24        	sty	$24                     ; 0x2024 <readMIDICmd+0x46>
    1fce: 18           	clc
    1fcf: a5 10        	lda	$10                     ; 0x2010 <readMIDICmd+0x32>
    1fd1: 69 09        	adc	#$9
    1fd3: 85 10        	sta	$10                     ; 0x2010 <readMIDICmd+0x32>
    1fd5: a5 11        	lda	$11                     ; 0x2011 <readMIDICmd+0x33>
    1fd7: 69 00        	adc	#$0
    1fd9: 85 11        	sta	$11                     ; 0x2011 <readMIDICmd+0x33>
    1fdb: a5 20        	lda	$20                     ; 0x2020 <readMIDICmd+0x42>
    1fdd: 60           	rts

00001fde <readMIDICmd>:
    1fde: 48           	pha
    1fdf: 18           	clc
    1fe0: a5 10        	lda	$10                     ; 0x2010 <readMIDICmd+0x32>
    1fe2: 69 f0        	adc	#$f0
    1fe4: 85 10        	sta	$10                     ; 0x2010 <readMIDICmd+0x32>
    1fe6: a5 11        	lda	$11                     ; 0x2011 <readMIDICmd+0x33>
    1fe8: 69 ff        	adc	#$ff
    1fea: 85 11        	sta	$11                     ; 0x2011 <readMIDICmd+0x33>
    1fec: 68           	pla
    1fed: a6 24        	ldx	$24                     ; 0x2024 <readMIDICmd+0x46>
    1fef: da           	phx
    1ff0: a6 25        	ldx	$25                     ; 0x2025 <readMIDICmd+0x47>
    1ff2: da           	phx
    1ff3: a6 26        	ldx	$26                     ; 0x2026 <readMIDICmd+0x48>
    1ff5: da           	phx
    1ff6: a6 27        	ldx	$27                     ; 0x2027 <readMIDICmd+0x49>
    1ff8: da           	phx
    1ff9: 48           	pha
    1ffa: a5 28        	lda	$28                     ; 0x2028 <readMIDICmd+0x4a>
    1ffc: a0 09        	ldy	#$9
    1ffe: 91 10        	sta	($10),y                 ; 0x2010 <readMIDICmd+0x32>
    2000: a5 29        	lda	$29                     ; 0x2029 <readMIDICmd+0x4b>
    2002: 88           	dey
    2003: 91 10        	sta	($10),y                 ; 0x2010 <readMIDICmd+0x32>
    2005: a5 2a        	lda	$2a                     ; 0x202a <readMIDICmd+0x4c>
    2007: 88           	dey
    2008: 91 10        	sta	($10),y                 ; 0x2010 <readMIDICmd+0x32>
    200a: a5 2b        	lda	$2b                     ; 0x202b <readMIDICmd+0x4d>
    200c: 88           	dey
    200d: 91 10        	sta	($10),y                 ; 0x2010 <readMIDICmd+0x32>
    200f: a5 2c        	lda	$2c                     ; 0x202c <readMIDICmd+0x4e>
    2011: 88           	dey
    2012: 91 10        	sta	($10),y                 ; 0x2010 <readMIDICmd+0x32>
    2014: a5 2d        	lda	$2d                     ; 0x202d <readMIDICmd+0x4f>
    2016: 88           	dey
    2017: 91 10        	sta	($10),y                 ; 0x2010 <readMIDICmd+0x32>
    2019: a5 2e        	lda	$2e                     ; 0x202e <readMIDICmd+0x50>
    201b: 88           	dey
    201c: 91 10        	sta	($10),y                 ; 0x2010 <readMIDICmd+0x32>
    201e: a5 2f        	lda	$2f                     ; 0x202f <readMIDICmd+0x51>
    2020: 88           	dey
    2021: 91 10        	sta	($10),y                 ; 0x2010 <readMIDICmd+0x32>
    2023: 68           	pla
    2024: a6 7f        	ldx	$7f                     ; 0x207f <readMIDICmd+0xa1>
    2026: 86 24        	stx	$24                     ; 0x2024 <readMIDICmd+0x46>
    2028: a6 80        	ldx	$80                     ; 0x2080 <readMIDICmd+0xa2>
    202a: 86 25        	stx	$25                     ; 0x2025 <readMIDICmd+0x47>
    202c: a2 19        	ldx	#$19
    202e: 86 12        	stx	$12                     ; 0x2012 <readMIDICmd+0x34>
    2030: 64 13        	stz	$13                     ; 0x2013 <readMIDICmd+0x35>
    2032: a2 00        	ldx	#$0
    2034: a0 0f        	ldy	#$f
    2036: 91 10        	sta	($10),y                 ; 0x2010 <readMIDICmd+0x32>
    2038: 20 b5 41     	jsr	$41b5 <__mulhi3>
    203b: 85 13        	sta	$13                     ; 0x2013 <readMIDICmd+0x35>
    203d: 86 12        	stx	$12                     ; 0x2012 <readMIDICmd+0x34>
    203f: 18           	clc
    2040: a5 24        	lda	$24                     ; 0x2024 <readMIDICmd+0x46>
    2042: 65 13        	adc	$13                     ; 0x2013 <readMIDICmd+0x35>
    2044: aa           	tax
    2045: a5 25        	lda	$25                     ; 0x2025 <readMIDICmd+0x47>
    2047: 65 12        	adc	$12                     ; 0x2012 <readMIDICmd+0x34>
    2049: 86 14        	stx	$14                     ; 0x2014 <readMIDICmd+0x36>
    204b: 85 15        	sta	$15                     ; 0x2015 <readMIDICmd+0x37>
    204d: 85 18        	sta	$18                     ; 0x2018 <readMIDICmd+0x3a>
    204f: 8a           	txa
    2050: 18           	clc
    2051: 69 08        	adc	#$8
    2053: 85 16        	sta	$16                     ; 0x2016 <readMIDICmd+0x38>
    2055: a5 18        	lda	$18                     ; 0x2018 <readMIDICmd+0x3a>
    2057: 69 00        	adc	#$0
    2059: a0 08        	ldy	#$8
    205b: 85 17        	sta	$17                     ; 0x2017 <readMIDICmd+0x39>
    205d: b1 14        	lda	($14),y                 ; 0x2014 <readMIDICmd+0x36>
    205f: 85 1a        	sta	$1a                     ; 0x201a <readMIDICmd+0x3c>
    2061: 18           	clc
    2062: 8a           	txa
    2063: 69 04        	adc	#$4
    2065: aa           	tax
    2066: a5 18        	lda	$18                     ; 0x2018 <readMIDICmd+0x3a>
    2068: 69 00        	adc	#$0
    206a: 85 19        	sta	$19                     ; 0x2019 <readMIDICmd+0x3b>
    206c: a0 01        	ldy	#$1
    206e: 86 18        	stx	$18                     ; 0x2018 <readMIDICmd+0x3a>
    2070: b1 16        	lda	($16),y                 ; 0x2016 <readMIDICmd+0x38>
    2072: 85 1b        	sta	$1b                     ; 0x201b <readMIDICmd+0x3d>
    2074: c8           	iny
    2075: b1 16        	lda	($16),y                 ; 0x2016 <readMIDICmd+0x38>
    2077: 85 16        	sta	$16                     ; 0x2016 <readMIDICmd+0x38>
    2079: 18           	clc
    207a: a0 04        	ldy	#$4
    207c: a5 1a        	lda	$1a                     ; 0x201a <readMIDICmd+0x3c>
    207e: 71 14        	adc	($14),y                 ; 0x2014 <readMIDICmd+0x36>
    2080: 85 15        	sta	$15                     ; 0x2015 <readMIDICmd+0x37>
    2082: a5 1b        	lda	$1b                     ; 0x201b <readMIDICmd+0x3d>
    2084: a0 01        	ldy	#$1
    2086: 71 18        	adc	($18),y                 ; 0x2018 <readMIDICmd+0x3a>
    2088: aa           	tax
    2089: c8           	iny
    208a: a5 16        	lda	$16                     ; 0x2016 <readMIDICmd+0x38>
    208c: 71 18        	adc	($18),y                 ; 0x2018 <readMIDICmd+0x3a>
    208e: 85 16        	sta	$16                     ; 0x2016 <readMIDICmd+0x38>
    2090: 8a           	txa
    2091: 86 14        	stx	$14                     ; 0x2014 <readMIDICmd+0x36>
    2093: 06 14        	asl	$14                     ; 0x2014 <readMIDICmd+0x36>
    2095: 26 16        	rol	$16                     ; 0x2016 <readMIDICmd+0x38>
    2097: 06 14        	asl	$14                     ; 0x2014 <readMIDICmd+0x36>
    2099: 26 16        	rol	$16                     ; 0x2016 <readMIDICmd+0x38>
    209b: 06 14        	asl	$14                     ; 0x2014 <readMIDICmd+0x36>
    209d: 26 16        	rol	$16                     ; 0x2016 <readMIDICmd+0x38>
    209f: a4 16        	ldy	$16                     ; 0x2016 <readMIDICmd+0x38>
    20a1: a6 0f        	ldx	$f                      ; 0x200f <readMIDICmd+0x31>
    20a3: 78           	sei
    20a4: 84 0f        	sty	$f                      ; 0x200f <readMIDICmd+0x31>
    20a6: a4 15        	ldy	$15                     ; 0x2015 <readMIDICmd+0x37>
    20a8: 84 14        	sty	$14                     ; 0x2014 <readMIDICmd+0x36>
    20aa: 09 e0        	ora	#$e0
    20ac: 85 15        	sta	$15                     ; 0x2015 <readMIDICmd+0x37>
    20ae: b2 14        	lda	($14)                   ; 0x2014 <readMIDICmd+0x36>
    20b0: 85 25        	sta	$25                     ; 0x2025 <readMIDICmd+0x47>
    20b2: 86 0f        	stx	$f                      ; 0x200f <readMIDICmd+0x31>
    20b4: 58           	cli
    20b5: 18           	clc
    20b6: a5 13        	lda	$13                     ; 0x2013 <readMIDICmd+0x35>
    20b8: 65 7f        	adc	$7f                     ; 0x207f <readMIDICmd+0xa1>
    20ba: aa           	tax
    20bb: a5 12        	lda	$12                     ; 0x2012 <readMIDICmd+0x34>
    20bd: 65 80        	adc	$80                     ; 0x2080 <readMIDICmd+0xa2>
    20bf: a8           	tay
    20c0: 8a           	txa
    20c1: 18           	clc
    20c2: 69 08        	adc	#$8
    20c4: 85 14        	sta	$14                     ; 0x2014 <readMIDICmd+0x36>
    20c6: 98           	tya
    20c7: 69 00        	adc	#$0
    20c9: 85 15        	sta	$15                     ; 0x2015 <readMIDICmd+0x37>
    20cb: 86 16        	stx	$16                     ; 0x2016 <readMIDICmd+0x38>
    20cd: 84 17        	sty	$17                     ; 0x2017 <readMIDICmd+0x39>
    20cf: 18           	clc
    20d0: 8a           	txa
    20d1: 69 04        	adc	#$4
    20d3: 85 18        	sta	$18                     ; 0x2018 <readMIDICmd+0x3a>
    20d5: 98           	tya
    20d6: 69 00        	adc	#$0
    20d8: 85 19        	sta	$19                     ; 0x2019 <readMIDICmd+0x3b>
    20da: a0 04        	ldy	#$4
    20dc: b1 16        	lda	($16),y                 ; 0x2016 <readMIDICmd+0x38>
    20de: 85 1b        	sta	$1b                     ; 0x201b <readMIDICmd+0x3d>
    20e0: a0 01        	ldy	#$1
    20e2: b1 18        	lda	($18),y                 ; 0x2018 <readMIDICmd+0x3a>
    20e4: aa           	tax
    20e5: c8           	iny
    20e6: b1 18        	lda	($18),y                 ; 0x2018 <readMIDICmd+0x3a>
    20e8: 85 1d        	sta	$1d                     ; 0x201d <readMIDICmd+0x3f>
    20ea: c8           	iny
    20eb: b1 18        	lda	($18),y                 ; 0x2018 <readMIDICmd+0x3a>
    20ed: 85 18        	sta	$18                     ; 0x2018 <readMIDICmd+0x3a>
    20ef: 18           	clc
    20f0: a0 08        	ldy	#$8
    20f2: a5 1b        	lda	$1b                     ; 0x201b <readMIDICmd+0x3d>
    20f4: 71 16        	adc	($16),y                 ; 0x2016 <readMIDICmd+0x38>
    20f6: 85 16        	sta	$16                     ; 0x2016 <readMIDICmd+0x38>
    20f8: a0 01        	ldy	#$1
    20fa: 8a           	txa
    20fb: 71 14        	adc	($14),y                 ; 0x2014 <readMIDICmd+0x36>
    20fd: 85 17        	sta	$17                     ; 0x2017 <readMIDICmd+0x39>
    20ff: c8           	iny
    2100: a5 1d        	lda	$1d                     ; 0x201d <readMIDICmd+0x3f>
    2102: 71 14        	adc	($14),y                 ; 0x2014 <readMIDICmd+0x36>
    2104: aa           	tax
    2105: a5 18        	lda	$18                     ; 0x2018 <readMIDICmd+0x3a>
    2107: c8           	iny
    2108: 71 14        	adc	($14),y                 ; 0x2014 <readMIDICmd+0x36>
    210a: a8           	tay
    210b: a5 17        	lda	$17                     ; 0x2017 <readMIDICmd+0x39>
    210d: e6 16        	inc	$16                     ; 0x2016 <readMIDICmd+0x38>
    210f: d0 07        	bne	$2118 <readMIDICmd+0x13a>
    2111: 1a           	inc
    2112: d0 04        	bne	$2118 <readMIDICmd+0x13a>
    2114: e8           	inx
    2115: d0 01        	bne	$2118 <readMIDICmd+0x13a>
    2117: c8           	iny
    2118: 85 14        	sta	$14                     ; 0x2014 <readMIDICmd+0x36>
    211a: 06 14        	asl	$14                     ; 0x2014 <readMIDICmd+0x36>
    211c: 86 15        	stx	$15                     ; 0x2015 <readMIDICmd+0x37>
    211e: 26 15        	rol	$15                     ; 0x2015 <readMIDICmd+0x37>
    2120: 06 14        	asl	$14                     ; 0x2014 <readMIDICmd+0x36>
    2122: 26 15        	rol	$15                     ; 0x2015 <readMIDICmd+0x37>
    2124: 06 14        	asl	$14                     ; 0x2014 <readMIDICmd+0x36>
    2126: 26 15        	rol	$15                     ; 0x2015 <readMIDICmd+0x37>
    2128: a4 15        	ldy	$15                     ; 0x2015 <readMIDICmd+0x37>
    212a: a6 0f        	ldx	$f                      ; 0x200f <readMIDICmd+0x31>
    212c: 78           	sei
    212d: 84 0f        	sty	$f                      ; 0x200f <readMIDICmd+0x31>
    212f: a4 16        	ldy	$16                     ; 0x2016 <readMIDICmd+0x38>
    2131: 84 14        	sty	$14                     ; 0x2014 <readMIDICmd+0x36>
    2133: 09 e0        	ora	#$e0
    2135: 85 15        	sta	$15                     ; 0x2015 <readMIDICmd+0x37>
    2137: b2 14        	lda	($14)                   ; 0x2014 <readMIDICmd+0x36>
    2139: 85 1b        	sta	$1b                     ; 0x201b <readMIDICmd+0x3d>
    213b: 86 0f        	stx	$f                      ; 0x200f <readMIDICmd+0x31>
    213d: 58           	cli
    213e: 18           	clc
    213f: a5 13        	lda	$13                     ; 0x2013 <readMIDICmd+0x35>
    2141: 65 7f        	adc	$7f                     ; 0x207f <readMIDICmd+0xa1>
    2143: aa           	tax
    2144: a5 12        	lda	$12                     ; 0x2012 <readMIDICmd+0x34>
    2146: 65 80        	adc	$80                     ; 0x2080 <readMIDICmd+0xa2>
    2148: a8           	tay
    2149: 18           	clc
    214a: 8a           	txa
    214b: 69 08        	adc	#$8
    214d: 85 14        	sta	$14                     ; 0x2014 <readMIDICmd+0x36>
    214f: 98           	tya
    2150: 69 00        	adc	#$0
    2152: 85 15        	sta	$15                     ; 0x2015 <readMIDICmd+0x37>
    2154: 86 16        	stx	$16                     ; 0x2016 <readMIDICmd+0x38>
    2156: 84 17        	sty	$17                     ; 0x2017 <readMIDICmd+0x39>
    2158: 18           	clc
    2159: 8a           	txa
    215a: 69 04        	adc	#$4
    215c: 85 18        	sta	$18                     ; 0x2018 <readMIDICmd+0x3a>
    215e: 98           	tya
    215f: 69 00        	adc	#$0
    2161: 85 19        	sta	$19                     ; 0x2019 <readMIDICmd+0x3b>
    2163: a0 04        	ldy	#$4
    2165: b1 16        	lda	($16),y                 ; 0x2016 <readMIDICmd+0x38>
    2167: 85 1d        	sta	$1d                     ; 0x201d <readMIDICmd+0x3f>
    2169: a0 01        	ldy	#$1
    216b: b1 18        	lda	($18),y                 ; 0x2018 <readMIDICmd+0x3a>
    216d: 85 1e        	sta	$1e                     ; 0x201e <readMIDICmd+0x40>
    216f: c8           	iny
    2170: b1 18        	lda	($18),y                 ; 0x2018 <readMIDICmd+0x3a>
    2172: 85 18        	sta	$18                     ; 0x2018 <readMIDICmd+0x3a>
    2174: 18           	clc
    2175: a0 08        	ldy	#$8
    2177: a5 1d        	lda	$1d                     ; 0x201d <readMIDICmd+0x3f>
    2179: 71 16        	adc	($16),y                 ; 0x2016 <readMIDICmd+0x38>
    217b: 85 16        	sta	$16                     ; 0x2016 <readMIDICmd+0x38>
    217d: a5 1e        	lda	$1e                     ; 0x201e <readMIDICmd+0x40>
    217f: a0 01        	ldy	#$1
    2181: 71 14        	adc	($14),y                 ; 0x2014 <readMIDICmd+0x36>
    2183: 85 17        	sta	$17                     ; 0x2017 <readMIDICmd+0x39>
    2185: a5 18        	lda	$18                     ; 0x2018 <readMIDICmd+0x3a>
    2187: c8           	iny
    2188: 71 14        	adc	($14),y                 ; 0x2014 <readMIDICmd+0x36>
    218a: 85 14        	sta	$14                     ; 0x2014 <readMIDICmd+0x36>
    218c: 18           	clc
    218d: a5 16        	lda	$16                     ; 0x2016 <readMIDICmd+0x38>
    218f: 69 02        	adc	#$2
    2191: 85 16        	sta	$16                     ; 0x2016 <readMIDICmd+0x38>
    2193: a5 17        	lda	$17                     ; 0x2017 <readMIDICmd+0x39>
    2195: 69 00        	adc	#$0
    2197: aa           	tax
    2198: a5 14        	lda	$14                     ; 0x2014 <readMIDICmd+0x36>
    219a: 69 00        	adc	#$0
    219c: 85 15        	sta	$15                     ; 0x2015 <readMIDICmd+0x37>
    219e: 8a           	txa
    219f: 86 14        	stx	$14                     ; 0x2014 <readMIDICmd+0x36>
    21a1: 06 14        	asl	$14                     ; 0x2014 <readMIDICmd+0x36>
    21a3: 26 15        	rol	$15                     ; 0x2015 <readMIDICmd+0x37>
    21a5: 06 14        	asl	$14                     ; 0x2014 <readMIDICmd+0x36>
    21a7: 26 15        	rol	$15                     ; 0x2015 <readMIDICmd+0x37>
    21a9: 06 14        	asl	$14                     ; 0x2014 <readMIDICmd+0x36>
    21ab: 26 15        	rol	$15                     ; 0x2015 <readMIDICmd+0x37>
    21ad: a4 15        	ldy	$15                     ; 0x2015 <readMIDICmd+0x37>
    21af: a6 0f        	ldx	$f                      ; 0x200f <readMIDICmd+0x31>
    21b1: 78           	sei
    21b2: 84 0f        	sty	$f                      ; 0x200f <readMIDICmd+0x31>
    21b4: a4 16        	ldy	$16                     ; 0x2016 <readMIDICmd+0x38>
    21b6: 84 14        	sty	$14                     ; 0x2014 <readMIDICmd+0x36>
    21b8: 09 e0        	ora	#$e0
    21ba: 85 15        	sta	$15                     ; 0x2015 <readMIDICmd+0x37>
    21bc: b2 14        	lda	($14)                   ; 0x2014 <readMIDICmd+0x36>
    21be: 85 1d        	sta	$1d                     ; 0x201d <readMIDICmd+0x3f>
    21c0: 86 0f        	stx	$f                      ; 0x200f <readMIDICmd+0x31>
    21c2: 58           	cli
    21c3: 18           	clc
    21c4: a5 13        	lda	$13                     ; 0x2013 <readMIDICmd+0x35>
    21c6: 65 7f        	adc	$7f                     ; 0x207f <readMIDICmd+0xa1>
    21c8: aa           	tax
    21c9: a5 12        	lda	$12                     ; 0x2012 <readMIDICmd+0x34>
    21cb: 65 80        	adc	$80                     ; 0x2080 <readMIDICmd+0xa2>
    21cd: a8           	tay
    21ce: 18           	clc
    21cf: 8a           	txa
    21d0: 69 08        	adc	#$8
    21d2: 85 14        	sta	$14                     ; 0x2014 <readMIDICmd+0x36>
    21d4: 98           	tya
    21d5: 69 00        	adc	#$0
    21d7: 85 15        	sta	$15                     ; 0x2015 <readMIDICmd+0x37>
    21d9: 86 16        	stx	$16                     ; 0x2016 <readMIDICmd+0x38>
    21db: 84 17        	sty	$17                     ; 0x2017 <readMIDICmd+0x39>
    21dd: 18           	clc
    21de: 8a           	txa
    21df: 69 04        	adc	#$4
    21e1: 85 18        	sta	$18                     ; 0x2018 <readMIDICmd+0x3a>
    21e3: 98           	tya
    21e4: 69 00        	adc	#$0
    21e6: 85 19        	sta	$19                     ; 0x2019 <readMIDICmd+0x3b>
    21e8: a0 04        	ldy	#$4
    21ea: b1 16        	lda	($16),y                 ; 0x2016 <readMIDICmd+0x38>
    21ec: 85 1e        	sta	$1e                     ; 0x201e <readMIDICmd+0x40>
    21ee: a0 01        	ldy	#$1
    21f0: b1 18        	lda	($18),y                 ; 0x2018 <readMIDICmd+0x3a>
    21f2: 85 1f        	sta	$1f                     ; 0x201f <readMIDICmd+0x41>
    21f4: c8           	iny
    21f5: b1 18        	lda	($18),y                 ; 0x2018 <readMIDICmd+0x3a>
    21f7: 85 18        	sta	$18                     ; 0x2018 <readMIDICmd+0x3a>
    21f9: 18           	clc
    21fa: a0 08        	ldy	#$8
    21fc: a5 1e        	lda	$1e                     ; 0x201e <readMIDICmd+0x40>
    21fe: 71 16        	adc	($16),y                 ; 0x2016 <readMIDICmd+0x38>
    2200: 85 16        	sta	$16                     ; 0x2016 <readMIDICmd+0x38>
    2202: a5 1f        	lda	$1f                     ; 0x201f <readMIDICmd+0x41>
    2204: a0 01        	ldy	#$1
    2206: 71 14        	adc	($14),y                 ; 0x2014 <readMIDICmd+0x36>
    2208: 85 17        	sta	$17                     ; 0x2017 <readMIDICmd+0x39>
    220a: a5 18        	lda	$18                     ; 0x2018 <readMIDICmd+0x3a>
    220c: c8           	iny
    220d: 71 14        	adc	($14),y                 ; 0x2014 <readMIDICmd+0x36>
    220f: 85 14        	sta	$14                     ; 0x2014 <readMIDICmd+0x36>
    2211: 18           	clc
    2212: a5 16        	lda	$16                     ; 0x2016 <readMIDICmd+0x38>
    2214: 69 03        	adc	#$3
    2216: 85 16        	sta	$16                     ; 0x2016 <readMIDICmd+0x38>
    2218: a5 17        	lda	$17                     ; 0x2017 <readMIDICmd+0x39>
    221a: 69 00        	adc	#$0
    221c: aa           	tax
    221d: a5 14        	lda	$14                     ; 0x2014 <readMIDICmd+0x36>
    221f: 69 00        	adc	#$0
    2221: 85 15        	sta	$15                     ; 0x2015 <readMIDICmd+0x37>
    2223: 8a           	txa
    2224: 86 14        	stx	$14                     ; 0x2014 <readMIDICmd+0x36>
    2226: 06 14        	asl	$14                     ; 0x2014 <readMIDICmd+0x36>
    2228: 26 15        	rol	$15                     ; 0x2015 <readMIDICmd+0x37>
    222a: 06 14        	asl	$14                     ; 0x2014 <readMIDICmd+0x36>
    222c: 26 15        	rol	$15                     ; 0x2015 <readMIDICmd+0x37>
    222e: 06 14        	asl	$14                     ; 0x2014 <readMIDICmd+0x36>
    2230: 26 15        	rol	$15                     ; 0x2015 <readMIDICmd+0x37>
    2232: a4 15        	ldy	$15                     ; 0x2015 <readMIDICmd+0x37>
    2234: a6 0f        	ldx	$f                      ; 0x200f <readMIDICmd+0x31>
    2236: 78           	sei
    2237: 84 0f        	sty	$f                      ; 0x200f <readMIDICmd+0x31>
    2239: a4 16        	ldy	$16                     ; 0x2016 <readMIDICmd+0x38>
    223b: 84 14        	sty	$14                     ; 0x2014 <readMIDICmd+0x36>
    223d: 09 e0        	ora	#$e0
    223f: 85 15        	sta	$15                     ; 0x2015 <readMIDICmd+0x37>
    2241: b2 14        	lda	($14)                   ; 0x2014 <readMIDICmd+0x36>
    2243: a0 0c        	ldy	#$c
    2245: 91 10        	sta	($10),y                 ; 0x2010 <readMIDICmd+0x32>
    2247: 86 0f        	stx	$f                      ; 0x200f <readMIDICmd+0x31>
    2249: 58           	cli
    224a: 18           	clc
    224b: a5 13        	lda	$13                     ; 0x2013 <readMIDICmd+0x35>
    224d: 65 7f        	adc	$7f                     ; 0x207f <readMIDICmd+0xa1>
    224f: aa           	tax
    2250: a5 12        	lda	$12                     ; 0x2012 <readMIDICmd+0x34>
    2252: 65 80        	adc	$80                     ; 0x2080 <readMIDICmd+0xa2>
    2254: a8           	tay
    2255: 8a           	txa
    2256: 18           	clc
    2257: 69 08        	adc	#$8
    2259: 85 14        	sta	$14                     ; 0x2014 <readMIDICmd+0x36>
    225b: 98           	tya
    225c: 69 00        	adc	#$0
    225e: 85 15        	sta	$15                     ; 0x2015 <readMIDICmd+0x37>
    2260: 86 16        	stx	$16                     ; 0x2016 <readMIDICmd+0x38>
    2262: 84 17        	sty	$17                     ; 0x2017 <readMIDICmd+0x39>
    2264: 18           	clc
    2265: 8a           	txa
    2266: 69 04        	adc	#$4
    2268: 85 18        	sta	$18                     ; 0x2018 <readMIDICmd+0x3a>
    226a: 98           	tya
    226b: 69 00        	adc	#$0
    226d: 85 19        	sta	$19                     ; 0x2019 <readMIDICmd+0x3b>
    226f: a0 04        	ldy	#$4
    2271: b1 16        	lda	($16),y                 ; 0x2016 <readMIDICmd+0x38>
    2273: 85 1e        	sta	$1e                     ; 0x201e <readMIDICmd+0x40>
    2275: a0 01        	ldy	#$1
    2277: b1 18        	lda	($18),y                 ; 0x2018 <readMIDICmd+0x3a>
    2279: 85 1f        	sta	$1f                     ; 0x201f <readMIDICmd+0x41>
    227b: c8           	iny
    227c: b1 18        	lda	($18),y                 ; 0x2018 <readMIDICmd+0x3a>
    227e: 85 18        	sta	$18                     ; 0x2018 <readMIDICmd+0x3a>
    2280: 18           	clc
    2281: a0 08        	ldy	#$8
    2283: a5 1e        	lda	$1e                     ; 0x201e <readMIDICmd+0x40>
    2285: 71 16        	adc	($16),y                 ; 0x2016 <readMIDICmd+0x38>
    2287: 85 16        	sta	$16                     ; 0x2016 <readMIDICmd+0x38>
    2289: a0 01        	ldy	#$1
    228b: a5 1f        	lda	$1f                     ; 0x201f <readMIDICmd+0x41>
    228d: 71 14        	adc	($14),y                 ; 0x2014 <readMIDICmd+0x36>
    228f: 85 17        	sta	$17                     ; 0x2017 <readMIDICmd+0x39>
    2291: c8           	iny
    2292: a5 18        	lda	$18                     ; 0x2018 <readMIDICmd+0x3a>
    2294: 71 14        	adc	($14),y                 ; 0x2014 <readMIDICmd+0x36>
    2296: 85 14        	sta	$14                     ; 0x2014 <readMIDICmd+0x36>
    2298: 18           	clc
    2299: a5 16        	lda	$16                     ; 0x2016 <readMIDICmd+0x38>
    229b: 69 04        	adc	#$4
    229d: 85 16        	sta	$16                     ; 0x2016 <readMIDICmd+0x38>
    229f: a5 17        	lda	$17                     ; 0x2017 <readMIDICmd+0x39>
    22a1: 69 00        	adc	#$0
    22a3: aa           	tax
    22a4: a5 14        	lda	$14                     ; 0x2014 <readMIDICmd+0x36>
    22a6: 69 00        	adc	#$0
    22a8: 85 15        	sta	$15                     ; 0x2015 <readMIDICmd+0x37>
    22aa: 8a           	txa
    22ab: 86 14        	stx	$14                     ; 0x2014 <readMIDICmd+0x36>
    22ad: 06 14        	asl	$14                     ; 0x2014 <readMIDICmd+0x36>
    22af: 26 15        	rol	$15                     ; 0x2015 <readMIDICmd+0x37>
    22b1: 06 14        	asl	$14                     ; 0x2014 <readMIDICmd+0x36>
    22b3: 26 15        	rol	$15                     ; 0x2015 <readMIDICmd+0x37>
    22b5: 06 14        	asl	$14                     ; 0x2014 <readMIDICmd+0x36>
    22b7: 26 15        	rol	$15                     ; 0x2015 <readMIDICmd+0x37>
    22b9: a4 15        	ldy	$15                     ; 0x2015 <readMIDICmd+0x37>
    22bb: a6 0f        	ldx	$f                      ; 0x200f <readMIDICmd+0x31>
    22bd: 78           	sei
    22be: 84 0f        	sty	$f                      ; 0x200f <readMIDICmd+0x31>
    22c0: a4 16        	ldy	$16                     ; 0x2016 <readMIDICmd+0x38>
    22c2: 84 14        	sty	$14                     ; 0x2014 <readMIDICmd+0x36>
    22c4: 09 e0        	ora	#$e0
    22c6: 85 15        	sta	$15                     ; 0x2015 <readMIDICmd+0x37>
    22c8: b2 14        	lda	($14)                   ; 0x2014 <readMIDICmd+0x36>
    22ca: a0 0b        	ldy	#$b
    22cc: 91 10        	sta	($10),y                 ; 0x2010 <readMIDICmd+0x32>
    22ce: 86 0f        	stx	$f                      ; 0x200f <readMIDICmd+0x31>
    22d0: 58           	cli
    22d1: 18           	clc
    22d2: a5 13        	lda	$13                     ; 0x2013 <readMIDICmd+0x35>
    22d4: 65 7f        	adc	$7f                     ; 0x207f <readMIDICmd+0xa1>
    22d6: a8           	tay
    22d7: a5 12        	lda	$12                     ; 0x2012 <readMIDICmd+0x34>
    22d9: 65 80        	adc	$80                     ; 0x2080 <readMIDICmd+0xa2>
    22db: aa           	tax
    22dc: 98           	tya
    22dd: 84 14        	sty	$14                     ; 0x2014 <readMIDICmd+0x36>
    22df: 86 15        	stx	$15                     ; 0x2015 <readMIDICmd+0x37>
    22e1: 84 19        	sty	$19                     ; 0x2019 <readMIDICmd+0x3b>
    22e3: 18           	clc
    22e4: 69 04        	adc	#$4
    22e6: 85 16        	sta	$16                     ; 0x2016 <readMIDICmd+0x38>
    22e8: 8a           	txa
    22e9: 69 00        	adc	#$0
    22eb: 85 17        	sta	$17                     ; 0x2017 <readMIDICmd+0x39>
    22ed: a0 04        	ldy	#$4
    22ef: b1 14        	lda	($14),y                 ; 0x2014 <readMIDICmd+0x36>
    22f1: 85 18        	sta	$18                     ; 0x2018 <readMIDICmd+0x3a>
    22f3: a0 01        	ldy	#$1
    22f5: b1 16        	lda	($16),y                 ; 0x2016 <readMIDICmd+0x38>
    22f7: 85 1a        	sta	$1a                     ; 0x201a <readMIDICmd+0x3c>
    22f9: c8           	iny
    22fa: b1 16        	lda	($16),y                 ; 0x2016 <readMIDICmd+0x38>
    22fc: 85 17        	sta	$17                     ; 0x2017 <readMIDICmd+0x39>
    22fe: 18           	clc
    22ff: a0 08        	ldy	#$8
    2301: a5 18        	lda	$18                     ; 0x2018 <readMIDICmd+0x3a>
    2303: 71 14        	adc	($14),y                 ; 0x2014 <readMIDICmd+0x36>
    2305: a0 01        	ldy	#$1
    2307: b0 02        	bcs	$230b <readMIDICmd+0x32d>
    2309: a0 00        	ldy	#$0
    230b: 84 18        	sty	$18                     ; 0x2018 <readMIDICmd+0x3a>
    230d: 85 16        	sta	$16                     ; 0x2016 <readMIDICmd+0x38>
    230f: 18           	clc
    2310: a5 19        	lda	$19                     ; 0x2019 <readMIDICmd+0x3b>
    2312: 69 08        	adc	#$8
    2314: 85 14        	sta	$14                     ; 0x2014 <readMIDICmd+0x36>
    2316: 8a           	txa
    2317: 69 00        	adc	#$0
    2319: 85 15        	sta	$15                     ; 0x2015 <readMIDICmd+0x37>
    231b: a0 01        	ldy	#$1
    231d: a5 1a        	lda	$1a                     ; 0x201a <readMIDICmd+0x3c>
    231f: a6 18        	ldx	$18                     ; 0x2018 <readMIDICmd+0x3a>
    2321: e0 01        	cpx	#$1
    2323: 71 14        	adc	($14),y                 ; 0x2014 <readMIDICmd+0x36>
    2325: 85 18        	sta	$18                     ; 0x2018 <readMIDICmd+0x3a>
    2327: c8           	iny
    2328: a5 17        	lda	$17                     ; 0x2017 <readMIDICmd+0x39>
    232a: 71 14        	adc	($14),y                 ; 0x2014 <readMIDICmd+0x36>
    232c: 85 14        	sta	$14                     ; 0x2014 <readMIDICmd+0x36>
    232e: 18           	clc
    232f: a5 16        	lda	$16                     ; 0x2016 <readMIDICmd+0x38>
    2331: 69 05        	adc	#$5
    2333: 85 16        	sta	$16                     ; 0x2016 <readMIDICmd+0x38>
    2335: a5 18        	lda	$18                     ; 0x2018 <readMIDICmd+0x3a>
    2337: 69 00        	adc	#$0
    2339: aa           	tax
    233a: a5 14        	lda	$14                     ; 0x2014 <readMIDICmd+0x36>
    233c: 69 00        	adc	#$0
    233e: 85 15        	sta	$15                     ; 0x2015 <readMIDICmd+0x37>
    2340: 8a           	txa
    2341: 86 14        	stx	$14                     ; 0x2014 <readMIDICmd+0x36>
    2343: 06 14        	asl	$14                     ; 0x2014 <readMIDICmd+0x36>
    2345: 26 15        	rol	$15                     ; 0x2015 <readMIDICmd+0x37>
    2347: 06 14        	asl	$14                     ; 0x2014 <readMIDICmd+0x36>
    2349: 26 15        	rol	$15                     ; 0x2015 <readMIDICmd+0x37>
    234b: 06 14        	asl	$14                     ; 0x2014 <readMIDICmd+0x36>
    234d: 26 15        	rol	$15                     ; 0x2015 <readMIDICmd+0x37>
    234f: a4 15        	ldy	$15                     ; 0x2015 <readMIDICmd+0x37>
    2351: a6 0f        	ldx	$f                      ; 0x200f <readMIDICmd+0x31>
    2353: 78           	sei
    2354: 84 0f        	sty	$f                      ; 0x200f <readMIDICmd+0x31>
    2356: a4 16        	ldy	$16                     ; 0x2016 <readMIDICmd+0x38>
    2358: 84 14        	sty	$14                     ; 0x2014 <readMIDICmd+0x36>
    235a: 09 e0        	ora	#$e0
    235c: 85 15        	sta	$15                     ; 0x2015 <readMIDICmd+0x37>
    235e: b2 14        	lda	($14)                   ; 0x2014 <readMIDICmd+0x36>
    2360: a0 0a        	ldy	#$a
    2362: 91 10        	sta	($10),y                 ; 0x2010 <readMIDICmd+0x32>
    2364: 86 0f        	stx	$f                      ; 0x200f <readMIDICmd+0x31>
    2366: 58           	cli
    2367: a4 7f        	ldy	$7f                     ; 0x207f <readMIDICmd+0xa1>
    2369: a6 80        	ldx	$80                     ; 0x2080 <readMIDICmd+0xa2>
    236b: 84 2e        	sty	$2e                     ; 0x202e <readMIDICmd+0x50>
    236d: 98           	tya
    236e: 18           	clc
    236f: 65 13        	adc	$13                     ; 0x2013 <readMIDICmd+0x35>
    2371: a8           	tay
    2372: 8a           	txa
    2373: 65 12        	adc	$12                     ; 0x2012 <readMIDICmd+0x34>
    2375: 84 28        	sty	$28                     ; 0x2028 <readMIDICmd+0x4a>
    2377: 85 29        	sta	$29                     ; 0x2029 <readMIDICmd+0x4b>
    2379: 85 12        	sta	$12                     ; 0x2012 <readMIDICmd+0x34>
    237b: 18           	clc
    237c: 98           	tya
    237d: 69 04        	adc	#$4
    237f: 85 26        	sta	$26                     ; 0x2026 <readMIDICmd+0x48>
    2381: a5 12        	lda	$12                     ; 0x2012 <readMIDICmd+0x34>
    2383: 69 00        	adc	#$0
    2385: 85 27        	sta	$27                     ; 0x2027 <readMIDICmd+0x49>
    2387: a0 10        	ldy	#$10
    2389: a5 25        	lda	$25                     ; 0x2025 <readMIDICmd+0x47>
    238b: 91 28        	sta	($28),y                 ; 0x2028 <readMIDICmd+0x4a>
    238d: c8           	iny
    238e: a5 1b        	lda	$1b                     ; 0x201b <readMIDICmd+0x3d>
    2390: 85 2a        	sta	$2a                     ; 0x202a <readMIDICmd+0x4c>
    2392: 91 28        	sta	($28),y                 ; 0x2028 <readMIDICmd+0x4a>
    2394: c8           	iny
    2395: a5 1d        	lda	$1d                     ; 0x201d <readMIDICmd+0x3f>
    2397: 85 13        	sta	$13                     ; 0x2013 <readMIDICmd+0x35>
    2399: 91 28        	sta	($28),y                 ; 0x2028 <readMIDICmd+0x4a>
    239b: a0 04        	ldy	#$4
    239d: b1 28        	lda	($28),y                 ; 0x2028 <readMIDICmd+0x4a>
    239f: 85 16        	sta	$16                     ; 0x2016 <readMIDICmd+0x38>
    23a1: a0 01        	ldy	#$1
    23a3: b1 26        	lda	($26),y                 ; 0x2026 <readMIDICmd+0x48>
    23a5: 85 15        	sta	$15                     ; 0x2015 <readMIDICmd+0x37>
    23a7: c8           	iny
    23a8: b1 26        	lda	($26),y                 ; 0x2026 <readMIDICmd+0x48>
    23aa: 85 12        	sta	$12                     ; 0x2012 <readMIDICmd+0x34>
    23ac: c8           	iny
    23ad: b1 26        	lda	($26),y                 ; 0x2026 <readMIDICmd+0x48>
    23af: a8           	tay
    23b0: a5 12        	lda	$12                     ; 0x2012 <readMIDICmd+0x34>
    23b2: 85 2d        	sta	$2d                     ; 0x202d <readMIDICmd+0x4f>
    23b4: 85 14        	sta	$14                     ; 0x2014 <readMIDICmd+0x36>
    23b6: 84 24        	sty	$24                     ; 0x2024 <readMIDICmd+0x46>
    23b8: 84 12        	sty	$12                     ; 0x2012 <readMIDICmd+0x34>
    23ba: a5 16        	lda	$16                     ; 0x2016 <readMIDICmd+0x38>
    23bc: 85 2b        	sta	$2b                     ; 0x202b <readMIDICmd+0x4d>
    23be: a4 15        	ldy	$15                     ; 0x2015 <readMIDICmd+0x37>
    23c0: 84 2c        	sty	$2c                     ; 0x202c <readMIDICmd+0x4e>
    23c2: 1a           	inc
    23c3: d0 0a        	bne	$23cf <readMIDICmd+0x3f1>
    23c5: e6 15        	inc	$15                     ; 0x2015 <readMIDICmd+0x37>
    23c7: d0 06        	bne	$23cf <readMIDICmd+0x3f1>
    23c9: e6 14        	inc	$14                     ; 0x2014 <readMIDICmd+0x36>
    23cb: d0 02        	bne	$23cf <readMIDICmd+0x3f1>
    23cd: e6 12        	inc	$12                     ; 0x2012 <readMIDICmd+0x34>
    23cf: a0 04        	ldy	#$4
    23d1: 85 16        	sta	$16                     ; 0x2016 <readMIDICmd+0x38>
    23d3: 91 28        	sta	($28),y                 ; 0x2028 <readMIDICmd+0x4a>
    23d5: a0 01        	ldy	#$1
    23d7: a5 15        	lda	$15                     ; 0x2015 <readMIDICmd+0x37>
    23d9: 85 17        	sta	$17                     ; 0x2017 <readMIDICmd+0x39>
    23db: 91 26        	sta	($26),y                 ; 0x2026 <readMIDICmd+0x48>
    23dd: a5 14        	lda	$14                     ; 0x2014 <readMIDICmd+0x36>
    23df: 85 2f        	sta	$2f                     ; 0x202f <readMIDICmd+0x51>
    23e1: c8           	iny
    23e2: 91 26        	sta	($26),y                 ; 0x2026 <readMIDICmd+0x48>
    23e4: a5 12        	lda	$12                     ; 0x2012 <readMIDICmd+0x34>
    23e6: c8           	iny
    23e7: 91 26        	sta	($26),y                 ; 0x2026 <readMIDICmd+0x48>
    23e9: a4 25        	ldy	$25                     ; 0x2025 <readMIDICmd+0x47>
    23eb: 10 03        	bpl	$23f0 <readMIDICmd+0x412>
    23ed: 4c c5 24     	jmp	$24c5 <readMIDICmd+0x4e7>
    23f0: a0 19        	ldy	#$19
    23f2: 64 13        	stz	$13                     ; 0x2013 <readMIDICmd+0x35>
    23f4: 86 2f        	stx	$2f                     ; 0x202f <readMIDICmd+0x51>
    23f6: a2 00        	ldx	#$0
    23f8: 84 12        	sty	$12                     ; 0x2012 <readMIDICmd+0x34>
    23fa: a0 0f        	ldy	#$f
    23fc: b1 10        	lda	($10),y                 ; 0x2010 <readMIDICmd+0x32>
    23fe: 20 b5 41     	jsr	$41b5 <__mulhi3>
    2401: 85 12        	sta	$12                     ; 0x2012 <readMIDICmd+0x34>
    2403: 86 13        	stx	$13                     ; 0x2013 <readMIDICmd+0x35>
    2405: a5 25        	lda	$25                     ; 0x2025 <readMIDICmd+0x47>
    2407: a0 11        	ldy	#$11
    2409: 91 28        	sta	($28),y                 ; 0x2028 <readMIDICmd+0x4a>
    240b: 85 16        	sta	$16                     ; 0x2016 <readMIDICmd+0x38>
    240d: a5 2a        	lda	$2a                     ; 0x202a <readMIDICmd+0x4c>
    240f: c8           	iny
    2410: 91 28        	sta	($28),y                 ; 0x2028 <readMIDICmd+0x4a>
    2412: 85 17        	sta	$17                     ; 0x2017 <readMIDICmd+0x39>
    2414: a0 04        	ldy	#$4
    2416: a5 2b        	lda	$2b                     ; 0x202b <readMIDICmd+0x4d>
    2418: 85 2a        	sta	$2a                     ; 0x202a <readMIDICmd+0x4c>
    241a: 91 28        	sta	($28),y                 ; 0x2028 <readMIDICmd+0x4a>
    241c: a0 01        	ldy	#$1
    241e: a5 2c        	lda	$2c                     ; 0x202c <readMIDICmd+0x4e>
    2420: 5a           	phy
    2421: a0 0e        	ldy	#$e
    2423: 91 10        	sta	($10),y                 ; 0x2010 <readMIDICmd+0x32>
    2425: 7a           	ply
    2426: 91 26        	sta	($26),y                 ; 0x2026 <readMIDICmd+0x48>
    2428: a5 2e        	lda	$2e                     ; 0x202e <readMIDICmd+0x50>
    242a: 18           	clc
    242b: 65 12        	adc	$12                     ; 0x2012 <readMIDICmd+0x34>
    242d: 85 12        	sta	$12                     ; 0x2012 <readMIDICmd+0x34>
    242f: a5 2f        	lda	$2f                     ; 0x202f <readMIDICmd+0x51>
    2431: a0 0d        	ldy	#$d
    2433: 91 10        	sta	($10),y                 ; 0x2010 <readMIDICmd+0x32>
    2435: 65 13        	adc	$13                     ; 0x2013 <readMIDICmd+0x35>
    2437: 85 13        	sta	$13                     ; 0x2013 <readMIDICmd+0x35>
    2439: a0 16        	ldy	#$16
    243b: b1 12        	lda	($12),y                 ; 0x2012 <readMIDICmd+0x34>
    243d: a0 10        	ldy	#$10
    243f: 91 12        	sta	($12),y                 ; 0x2012 <readMIDICmd+0x34>
    2441: aa           	tax
    2442: a0 02        	ldy	#$2
    2444: a5 2d        	lda	$2d                     ; 0x202d <readMIDICmd+0x4f>
    2446: 85 2f        	sta	$2f                     ; 0x202f <readMIDICmd+0x51>
    2448: 91 26        	sta	($26),y                 ; 0x2026 <readMIDICmd+0x48>
    244a: c8           	iny
    244b: a5 24        	lda	$24                     ; 0x2024 <readMIDICmd+0x46>
    244d: 91 26        	sta	($26),y                 ; 0x2026 <readMIDICmd+0x48>
    244f: a4 17        	ldy	$17                     ; 0x2017 <readMIDICmd+0x39>
    2451: 84 13        	sty	$13                     ; 0x2013 <readMIDICmd+0x35>
    2453: a4 16        	ldy	$16                     ; 0x2016 <readMIDICmd+0x38>
    2455: 84 12        	sty	$12                     ; 0x2012 <readMIDICmd+0x34>
    2457: e0 ff        	cpx	#$ff
    2459: d0 03        	bne	$245e <readMIDICmd+0x480>
    245b: 4c e4 24     	jmp	$24e4 <readMIDICmd+0x506>
    245e: e0 c0        	cpx	#$c0
    2460: b0 03        	bcs	$2465 <readMIDICmd+0x487>
    2462: 4c 61 25     	jmp	$2561 <readMIDICmd+0x583>
    2465: e0 e0        	cpx	#$e0
    2467: 90 03        	bcc	$246c <readMIDICmd+0x48e>
    2469: 4c 81 25     	jmp	$2581 <readMIDICmd+0x5a3>
    246c: a0 0e        	ldy	#$e
    246e: b1 10        	lda	($10),y                 ; 0x2010 <readMIDICmd+0x32>
    2470: 85 14        	sta	$14                     ; 0x2014 <readMIDICmd+0x36>
    2472: a5 2a        	lda	$2a                     ; 0x202a <readMIDICmd+0x4c>
    2474: 1a           	inc
    2475: d0 0a        	bne	$2481 <readMIDICmd+0x4a3>
    2477: e6 14        	inc	$14                     ; 0x2014 <readMIDICmd+0x36>
    2479: d0 06        	bne	$2481 <readMIDICmd+0x4a3>
    247b: e6 2f        	inc	$2f                     ; 0x202f <readMIDICmd+0x51>
    247d: d0 02        	bne	$2481 <readMIDICmd+0x4a3>
    247f: e6 24        	inc	$24                     ; 0x2024 <readMIDICmd+0x46>
    2481: a0 04        	ldy	#$4
    2483: 91 28        	sta	($28),y                 ; 0x2028 <readMIDICmd+0x4a>
    2485: a0 01        	ldy	#$1
    2487: a5 14        	lda	$14                     ; 0x2014 <readMIDICmd+0x36>
    2489: 91 26        	sta	($26),y                 ; 0x2026 <readMIDICmd+0x48>
    248b: c8           	iny
    248c: a5 2f        	lda	$2f                     ; 0x202f <readMIDICmd+0x51>
    248e: 91 26        	sta	($26),y                 ; 0x2026 <readMIDICmd+0x48>
    2490: c8           	iny
    2491: a5 24        	lda	$24                     ; 0x2024 <readMIDICmd+0x46>
    2493: 91 26        	sta	($26),y                 ; 0x2026 <readMIDICmd+0x48>
    2495: a0 19        	ldy	#$19
    2497: 64 13        	stz	$13                     ; 0x2013 <readMIDICmd+0x35>
    2499: 86 24        	stx	$24                     ; 0x2024 <readMIDICmd+0x46>
    249b: a2 00        	ldx	#$0
    249d: 84 12        	sty	$12                     ; 0x2012 <readMIDICmd+0x34>
    249f: a0 0f        	ldy	#$f
    24a1: b1 10        	lda	($10),y                 ; 0x2010 <readMIDICmd+0x32>
    24a3: 20 b5 41     	jsr	$41b5 <__mulhi3>
    24a6: 85 12        	sta	$12                     ; 0x2012 <readMIDICmd+0x34>
    24a8: 86 13        	stx	$13                     ; 0x2013 <readMIDICmd+0x35>
    24aa: 18           	clc
    24ab: a5 2e        	lda	$2e                     ; 0x202e <readMIDICmd+0x50>
    24ad: 65 12        	adc	$12                     ; 0x2012 <readMIDICmd+0x34>
    24af: 85 12        	sta	$12                     ; 0x2012 <readMIDICmd+0x34>
    24b1: a0 0d        	ldy	#$d
    24b3: b1 10        	lda	($10),y                 ; 0x2010 <readMIDICmd+0x32>
    24b5: 65 13        	adc	$13                     ; 0x2013 <readMIDICmd+0x35>
    24b7: 85 13        	sta	$13                     ; 0x2013 <readMIDICmd+0x35>
    24b9: a0 17        	ldy	#$17
    24bb: a9 01        	lda	#$1
    24bd: 91 12        	sta	($12),y                 ; 0x2012 <readMIDICmd+0x34>
    24bf: 88           	dey
    24c0: a5 24        	lda	$24                     ; 0x2024 <readMIDICmd+0x46>
    24c2: 4c d4 25     	jmp	$25d4 <readMIDICmd+0x5f6>
    24c5: 48           	pha
    24c6: 8a           	txa
    24c7: a0 0d        	ldy	#$d
    24c9: 91 10        	sta	($10),y                 ; 0x2010 <readMIDICmd+0x32>
    24cb: a6 2a        	ldx	$2a                     ; 0x202a <readMIDICmd+0x4c>
    24cd: 86 12        	stx	$12                     ; 0x2012 <readMIDICmd+0x34>
    24cf: a6 16        	ldx	$16                     ; 0x2016 <readMIDICmd+0x38>
    24d1: 86 2a        	stx	$2a                     ; 0x202a <readMIDICmd+0x4c>
    24d3: a5 17        	lda	$17                     ; 0x2017 <readMIDICmd+0x39>
    24d5: c8           	iny
    24d6: 91 10        	sta	($10),y                 ; 0x2010 <readMIDICmd+0x32>
    24d8: 68           	pla
    24d9: 85 24        	sta	$24                     ; 0x2024 <readMIDICmd+0x46>
    24db: a6 25        	ldx	$25                     ; 0x2025 <readMIDICmd+0x47>
    24dd: e0 ff        	cpx	#$ff
    24df: f0 03        	beq	$24e4 <readMIDICmd+0x506>
    24e1: 4c 5e 24     	jmp	$245e <readMIDICmd+0x480>
    24e4: a0 10        	ldy	#$10
    24e6: a9 ff        	lda	#$ff
    24e8: 91 28        	sta	($28),y                 ; 0x2028 <readMIDICmd+0x4a>
    24ea: c8           	iny
    24eb: a5 12        	lda	$12                     ; 0x2012 <readMIDICmd+0x34>
    24ed: 91 28        	sta	($28),y                 ; 0x2028 <readMIDICmd+0x4a>
    24ef: a6 12        	ldx	$12                     ; 0x2012 <readMIDICmd+0x34>
    24f1: c8           	iny
    24f2: a5 13        	lda	$13                     ; 0x2013 <readMIDICmd+0x35>
    24f4: 91 28        	sta	($28),y                 ; 0x2028 <readMIDICmd+0x4a>
    24f6: e0 51        	cpx	#$51
    24f8: f0 03        	beq	$24fd <readMIDICmd+0x51f>
    24fa: 4c 75 25     	jmp	$2575 <readMIDICmd+0x597>
    24fd: a0 19        	ldy	#$19
    24ff: 64 13        	stz	$13                     ; 0x2013 <readMIDICmd+0x35>
    2501: a2 00        	ldx	#$0
    2503: 84 12        	sty	$12                     ; 0x2012 <readMIDICmd+0x34>
    2505: a0 0f        	ldy	#$f
    2507: b1 10        	lda	($10),y                 ; 0x2010 <readMIDICmd+0x32>
    2509: 20 b5 41     	jsr	$41b5 <__mulhi3>
    250c: 85 12        	sta	$12                     ; 0x2012 <readMIDICmd+0x34>
    250e: 86 13        	stx	$13                     ; 0x2013 <readMIDICmd+0x35>
    2510: 18           	clc
    2511: a5 2e        	lda	$2e                     ; 0x202e <readMIDICmd+0x50>
    2513: 65 12        	adc	$12                     ; 0x2012 <readMIDICmd+0x34>
    2515: 85 12        	sta	$12                     ; 0x2012 <readMIDICmd+0x34>
    2517: a0 0d        	ldy	#$d
    2519: b1 10        	lda	($10),y                 ; 0x2010 <readMIDICmd+0x32>
    251b: 65 13        	adc	$13                     ; 0x2013 <readMIDICmd+0x35>
    251d: 85 13        	sta	$13                     ; 0x2013 <readMIDICmd+0x35>
    251f: a0 13        	ldy	#$13
    2521: 5a           	phy
    2522: a0 0c        	ldy	#$c
    2524: b1 10        	lda	($10),y                 ; 0x2010 <readMIDICmd+0x32>
    2526: 7a           	ply
    2527: 91 12        	sta	($12),y                 ; 0x2012 <readMIDICmd+0x34>
    2529: a0 14        	ldy	#$14
    252b: 5a           	phy
    252c: a0 0b        	ldy	#$b
    252e: b1 10        	lda	($10),y                 ; 0x2010 <readMIDICmd+0x32>
    2530: 7a           	ply
    2531: 91 12        	sta	($12),y                 ; 0x2012 <readMIDICmd+0x34>
    2533: a0 15        	ldy	#$15
    2535: 5a           	phy
    2536: a0 0a        	ldy	#$a
    2538: b1 10        	lda	($10),y                 ; 0x2010 <readMIDICmd+0x32>
    253a: 7a           	ply
    253b: 91 12        	sta	($12),y                 ; 0x2012 <readMIDICmd+0x34>
    253d: a5 2a        	lda	$2a                     ; 0x202a <readMIDICmd+0x4c>
    253f: 18           	clc
    2540: 69 05        	adc	#$5
    2542: a0 04        	ldy	#$4
    2544: 91 28        	sta	($28),y                 ; 0x2028 <readMIDICmd+0x4a>
    2546: a0 0e        	ldy	#$e
    2548: b1 10        	lda	($10),y                 ; 0x2010 <readMIDICmd+0x32>
    254a: 69 00        	adc	#$0
    254c: a0 01        	ldy	#$1
    254e: 91 26        	sta	($26),y                 ; 0x2026 <readMIDICmd+0x48>
    2550: a5 2f        	lda	$2f                     ; 0x202f <readMIDICmd+0x51>
    2552: 69 00        	adc	#$0
    2554: c8           	iny
    2555: 91 26        	sta	($26),y                 ; 0x2026 <readMIDICmd+0x48>
    2557: a5 24        	lda	$24                     ; 0x2024 <readMIDICmd+0x46>
    2559: 69 00        	adc	#$0
    255b: c8           	iny
    255c: 91 26        	sta	($26),y                 ; 0x2026 <readMIDICmd+0x48>
    255e: 4c d6 25     	jmp	$25d6 <readMIDICmd+0x5f8>
    2561: 86 25        	stx	$25                     ; 0x2025 <readMIDICmd+0x47>
    2563: 8a           	txa
    2564: 30 21        	bmi	$2587 <readMIDICmd+0x5a9>
    2566: 8a           	txa
    2567: 92 10        	sta	($10)                   ; 0x2010 <readMIDICmd+0x32>
    2569: a0 01        	ldy	#$1
    256b: a9 00        	lda	#$0
    256d: 91 10        	sta	($10),y                 ; 0x2010 <readMIDICmd+0x32>
    256f: 20 03 31     	jsr	$3103 <printf>
    2572: 4c d6 25     	jmp	$25d6 <readMIDICmd+0x5f8>
    2575: 85 12        	sta	$12                     ; 0x2012 <readMIDICmd+0x34>
    2577: a0 0f        	ldy	#$f
    2579: b1 10        	lda	($10),y                 ; 0x2010 <readMIDICmd+0x32>
    257b: 20 19 26     	jsr	$2619 <skipWhenFFCmd>
    257e: 4c d6 25     	jmp	$25d6 <readMIDICmd+0x5f8>
    2581: e0 f0        	cpx	#$f0
    2583: 86 25        	stx	$25                     ; 0x2025 <readMIDICmd+0x47>
    2585: b0 df        	bcs	$2566 <readMIDICmd+0x588>
    2587: a2 19        	ldx	#$19
    2589: 86 12        	stx	$12                     ; 0x2012 <readMIDICmd+0x34>
    258b: 64 13        	stz	$13                     ; 0x2013 <readMIDICmd+0x35>
    258d: a2 00        	ldx	#$0
    258f: a0 0f        	ldy	#$f
    2591: b1 10        	lda	($10),y                 ; 0x2010 <readMIDICmd+0x32>
    2593: 20 b5 41     	jsr	$41b5 <__mulhi3>
    2596: 85 12        	sta	$12                     ; 0x2012 <readMIDICmd+0x34>
    2598: 86 13        	stx	$13                     ; 0x2013 <readMIDICmd+0x35>
    259a: 18           	clc
    259b: a5 2e        	lda	$2e                     ; 0x202e <readMIDICmd+0x50>
    259d: 65 12        	adc	$12                     ; 0x2012 <readMIDICmd+0x34>
    259f: 85 12        	sta	$12                     ; 0x2012 <readMIDICmd+0x34>
    25a1: a0 0d        	ldy	#$d
    25a3: b1 10        	lda	($10),y                 ; 0x2010 <readMIDICmd+0x32>
    25a5: 65 13        	adc	$13                     ; 0x2013 <readMIDICmd+0x35>
    25a7: 85 13        	sta	$13                     ; 0x2013 <readMIDICmd+0x35>
    25a9: a0 16        	ldy	#$16
    25ab: a5 25        	lda	$25                     ; 0x2025 <readMIDICmd+0x47>
    25ad: 91 12        	sta	($12),y                 ; 0x2012 <readMIDICmd+0x34>
    25af: a5 2a        	lda	$2a                     ; 0x202a <readMIDICmd+0x4c>
    25b1: 18           	clc
    25b2: 69 02        	adc	#$2
    25b4: a0 04        	ldy	#$4
    25b6: 91 28        	sta	($28),y                 ; 0x2028 <readMIDICmd+0x4a>
    25b8: a0 0e        	ldy	#$e
    25ba: b1 10        	lda	($10),y                 ; 0x2010 <readMIDICmd+0x32>
    25bc: 69 00        	adc	#$0
    25be: a0 01        	ldy	#$1
    25c0: 91 26        	sta	($26),y                 ; 0x2026 <readMIDICmd+0x48>
    25c2: a5 2f        	lda	$2f                     ; 0x202f <readMIDICmd+0x51>
    25c4: 69 00        	adc	#$0
    25c6: c8           	iny
    25c7: 91 26        	sta	($26),y                 ; 0x2026 <readMIDICmd+0x48>
    25c9: a5 24        	lda	$24                     ; 0x2024 <readMIDICmd+0x46>
    25cb: 69 00        	adc	#$0
    25cd: c8           	iny
    25ce: 91 26        	sta	($26),y                 ; 0x2026 <readMIDICmd+0x48>
    25d0: a0 17        	ldy	#$17
    25d2: a9 00        	lda	#$0
    25d4: 91 12        	sta	($12),y                 ; 0x2012 <readMIDICmd+0x34>
    25d6: a0 02        	ldy	#$2
    25d8: b1 10        	lda	($10),y                 ; 0x2010 <readMIDICmd+0x32>
    25da: 85 2f        	sta	$2f                     ; 0x202f <readMIDICmd+0x51>
    25dc: c8           	iny
    25dd: b1 10        	lda	($10),y                 ; 0x2010 <readMIDICmd+0x32>
    25df: 85 2e        	sta	$2e                     ; 0x202e <readMIDICmd+0x50>
    25e1: c8           	iny
    25e2: b1 10        	lda	($10),y                 ; 0x2010 <readMIDICmd+0x32>
    25e4: 85 2d        	sta	$2d                     ; 0x202d <readMIDICmd+0x4f>
    25e6: c8           	iny
    25e7: b1 10        	lda	($10),y                 ; 0x2010 <readMIDICmd+0x32>
    25e9: 85 2c        	sta	$2c                     ; 0x202c <readMIDICmd+0x4e>
    25eb: c8           	iny
    25ec: b1 10        	lda	($10),y                 ; 0x2010 <readMIDICmd+0x32>
    25ee: 85 2b        	sta	$2b                     ; 0x202b <readMIDICmd+0x4d>
    25f0: c8           	iny
    25f1: b1 10        	lda	($10),y                 ; 0x2010 <readMIDICmd+0x32>
    25f3: 85 2a        	sta	$2a                     ; 0x202a <readMIDICmd+0x4c>
    25f5: c8           	iny
    25f6: b1 10        	lda	($10),y                 ; 0x2010 <readMIDICmd+0x32>
    25f8: 85 29        	sta	$29                     ; 0x2029 <readMIDICmd+0x4b>
    25fa: c8           	iny
    25fb: b1 10        	lda	($10),y                 ; 0x2010 <readMIDICmd+0x32>
    25fd: 85 28        	sta	$28                     ; 0x2028 <readMIDICmd+0x4a>
    25ff: fa           	plx
    2600: 86 27        	stx	$27                     ; 0x2027 <readMIDICmd+0x49>
    2602: fa           	plx
    2603: 86 26        	stx	$26                     ; 0x2026 <readMIDICmd+0x48>
    2605: fa           	plx
    2606: 86 25        	stx	$25                     ; 0x2025 <readMIDICmd+0x47>
    2608: fa           	plx
    2609: 86 24        	stx	$24                     ; 0x2024 <readMIDICmd+0x46>
    260b: 18           	clc
    260c: a5 10        	lda	$10                     ; 0x2010 <readMIDICmd+0x32>
    260e: 69 10        	adc	#$10
    2610: 85 10        	sta	$10                     ; 0x2010 <readMIDICmd+0x32>
    2612: a5 11        	lda	$11                     ; 0x2011 <readMIDICmd+0x33>
    2614: 69 00        	adc	#$0
    2616: 85 11        	sta	$11                     ; 0x2011 <readMIDICmd+0x33>
    2618: 60           	rts

00002619 <skipWhenFFCmd>:
    2619: a8           	tay
    261a: 8a           	txa
    261b: a6 12        	ldx	$12                     ; 0x2012 <readMIDICmd+0x34>
    261d: 86 8d        	stx	$8d                     ; 0x208d <readMIDICmd+0xaf>
    261f: c9 5a        	cmp	#$5a
    2621: 90 03        	bcc	$2626 <skipWhenFFCmd+0xd>
    2623: 4c 1d 28     	jmp	$281d <skipWhenFFCmd+0x204>
    2626: 0a           	asl
    2627: aa           	tax
    2628: 7c fc 43     	jmp	($43fc,x)               ; 0x43fc <__set_v+0x1>
    262b: a6 7f        	ldx	$7f                     ; 0x207f <readMIDICmd+0xa1>
    262d: 86 8f        	stx	$8f                     ; 0x208f <readMIDICmd+0xb1>
    262f: a6 80        	ldx	$80                     ; 0x2080 <readMIDICmd+0xa2>
    2631: 86 8e        	stx	$8e                     ; 0x208e <readMIDICmd+0xb0>
    2633: a2 19        	ldx	#$19
    2635: 86 12        	stx	$12                     ; 0x2012 <readMIDICmd+0x34>
    2637: 64 13        	stz	$13                     ; 0x2013 <readMIDICmd+0x35>
    2639: a2 00        	ldx	#$0
    263b: 98           	tya
    263c: 20 b5 41     	jsr	$41b5 <__mulhi3>
    263f: 85 12        	sta	$12                     ; 0x2012 <readMIDICmd+0x34>
    2641: 86 13        	stx	$13                     ; 0x2013 <readMIDICmd+0x35>
    2643: 18           	clc
    2644: a6 8f        	ldx	$8f                     ; 0x208f <readMIDICmd+0xb1>
    2646: 8a           	txa
    2647: 65 12        	adc	$12                     ; 0x2012 <readMIDICmd+0x34>
    2649: a8           	tay
    264a: a5 8e        	lda	$8e                     ; 0x208e <readMIDICmd+0xb0>
    264c: 65 13        	adc	$13                     ; 0x2013 <readMIDICmd+0x35>
    264e: aa           	tax
    264f: 98           	tya
    2650: 84 12        	sty	$12                     ; 0x2012 <readMIDICmd+0x34>
    2652: 86 13        	stx	$13                     ; 0x2013 <readMIDICmd+0x35>
    2654: 18           	clc
    2655: 69 04        	adc	#$4
    2657: 85 14        	sta	$14                     ; 0x2014 <readMIDICmd+0x36>
    2659: 8a           	txa
    265a: 69 00        	adc	#$0
    265c: 85 15        	sta	$15                     ; 0x2015 <readMIDICmd+0x37>
    265e: 18           	clc
    265f: a6 8d        	ldx	$8d                     ; 0x208d <readMIDICmd+0xaf>
    2661: 8a           	txa
    2662: a0 04        	ldy	#$4
    2664: 71 12        	adc	($12),y                 ; 0x2012 <readMIDICmd+0x34>
    2666: 85 16        	sta	$16                     ; 0x2016 <readMIDICmd+0x38>
    2668: a9 00        	lda	#$0
    266a: a0 01        	ldy	#$1
    266c: 71 14        	adc	($14),y                 ; 0x2014 <readMIDICmd+0x36>
    266e: 85 17        	sta	$17                     ; 0x2017 <readMIDICmd+0x39>
    2670: c8           	iny
    2671: a9 00        	lda	#$0
    2673: 71 14        	adc	($14),y                 ; 0x2014 <readMIDICmd+0x36>
    2675: 85 18        	sta	$18                     ; 0x2018 <readMIDICmd+0x3a>
    2677: c8           	iny
    2678: a9 00        	lda	#$0
    267a: 71 14        	adc	($14),y                 ; 0x2014 <readMIDICmd+0x36>
    267c: aa           	tax
    267d: 18           	clc
    267e: a5 16        	lda	$16                     ; 0x2016 <readMIDICmd+0x38>
    2680: 69 02        	adc	#$2
    2682: c8           	iny
    2683: 91 12        	sta	($12),y                 ; 0x2012 <readMIDICmd+0x34>
    2685: a5 17        	lda	$17                     ; 0x2017 <readMIDICmd+0x39>
    2687: 69 00        	adc	#$0
    2689: a0 01        	ldy	#$1
    268b: 91 14        	sta	($14),y                 ; 0x2014 <readMIDICmd+0x36>
    268d: a5 18        	lda	$18                     ; 0x2018 <readMIDICmd+0x3a>
    268f: 69 00        	adc	#$0
    2691: c8           	iny
    2692: 91 14        	sta	($14),y                 ; 0x2014 <readMIDICmd+0x36>
    2694: 8a           	txa
    2695: 69 00        	adc	#$0
    2697: c8           	iny
    2698: 91 14        	sta	($14),y                 ; 0x2014 <readMIDICmd+0x36>
    269a: 60           	rts
    269b: a6 7f        	ldx	$7f                     ; 0x207f <readMIDICmd+0xa1>
    269d: 86 8e        	stx	$8e                     ; 0x208e <readMIDICmd+0xb0>
    269f: a6 80        	ldx	$80                     ; 0x2080 <readMIDICmd+0xa2>
    26a1: 86 8d        	stx	$8d                     ; 0x208d <readMIDICmd+0xaf>
    26a3: a2 19        	ldx	#$19
    26a5: 86 12        	stx	$12                     ; 0x2012 <readMIDICmd+0x34>
    26a7: 64 13        	stz	$13                     ; 0x2013 <readMIDICmd+0x35>
    26a9: a2 00        	ldx	#$0
    26ab: 98           	tya
    26ac: 20 b5 41     	jsr	$41b5 <__mulhi3>
    26af: 85 12        	sta	$12                     ; 0x2012 <readMIDICmd+0x34>
    26b1: 86 13        	stx	$13                     ; 0x2013 <readMIDICmd+0x35>
    26b3: 18           	clc
    26b4: a6 8e        	ldx	$8e                     ; 0x208e <readMIDICmd+0xb0>
    26b6: 8a           	txa
    26b7: 65 12        	adc	$12                     ; 0x2012 <readMIDICmd+0x34>
    26b9: a8           	tay
    26ba: a5 8d        	lda	$8d                     ; 0x208d <readMIDICmd+0xaf>
    26bc: 65 13        	adc	$13                     ; 0x2013 <readMIDICmd+0x35>
    26be: aa           	tax
    26bf: 98           	tya
    26c0: 84 14        	sty	$14                     ; 0x2014 <readMIDICmd+0x36>
    26c2: 86 15        	stx	$15                     ; 0x2015 <readMIDICmd+0x37>
    26c4: 18           	clc
    26c5: 69 04        	adc	#$4
    26c7: 85 12        	sta	$12                     ; 0x2012 <readMIDICmd+0x34>
    26c9: 8a           	txa
    26ca: 69 00        	adc	#$0
    26cc: a0 04        	ldy	#$4
    26ce: 85 13        	sta	$13                     ; 0x2013 <readMIDICmd+0x35>
    26d0: b1 14        	lda	($14),y                 ; 0x2014 <readMIDICmd+0x36>
    26d2: 18           	clc
    26d3: 69 03        	adc	#$3
    26d5: 4c 05 28     	jmp	$2805 <skipWhenFFCmd+0x1ec>
    26d8: a6 7f        	ldx	$7f                     ; 0x207f <readMIDICmd+0xa1>
    26da: 86 8e        	stx	$8e                     ; 0x208e <readMIDICmd+0xb0>
    26dc: a6 80        	ldx	$80                     ; 0x2080 <readMIDICmd+0xa2>
    26de: 86 8d        	stx	$8d                     ; 0x208d <readMIDICmd+0xaf>
    26e0: a2 19        	ldx	#$19
    26e2: 86 12        	stx	$12                     ; 0x2012 <readMIDICmd+0x34>
    26e4: 64 13        	stz	$13                     ; 0x2013 <readMIDICmd+0x35>
    26e6: a2 00        	ldx	#$0
    26e8: 98           	tya
    26e9: 20 b5 41     	jsr	$41b5 <__mulhi3>
    26ec: 85 12        	sta	$12                     ; 0x2012 <readMIDICmd+0x34>
    26ee: 86 13        	stx	$13                     ; 0x2013 <readMIDICmd+0x35>
    26f0: 18           	clc
    26f1: a6 8e        	ldx	$8e                     ; 0x208e <readMIDICmd+0xb0>
    26f3: 8a           	txa
    26f4: 65 12        	adc	$12                     ; 0x2012 <readMIDICmd+0x34>
    26f6: a8           	tay
    26f7: a5 8d        	lda	$8d                     ; 0x208d <readMIDICmd+0xaf>
    26f9: 65 13        	adc	$13                     ; 0x2013 <readMIDICmd+0x35>
    26fb: aa           	tax
    26fc: 98           	tya
    26fd: 84 14        	sty	$14                     ; 0x2014 <readMIDICmd+0x36>
    26ff: 86 15        	stx	$15                     ; 0x2015 <readMIDICmd+0x37>
    2701: 18           	clc
    2702: 69 04        	adc	#$4
    2704: 85 12        	sta	$12                     ; 0x2012 <readMIDICmd+0x34>
    2706: 8a           	txa
    2707: 69 00        	adc	#$0
    2709: a0 04        	ldy	#$4
    270b: 85 13        	sta	$13                     ; 0x2013 <readMIDICmd+0x35>
    270d: b1 14        	lda	($14),y                 ; 0x2014 <readMIDICmd+0x36>
    270f: 18           	clc
    2710: 69 07        	adc	#$7
    2712: 4c 05 28     	jmp	$2805 <skipWhenFFCmd+0x1ec>
    2715: a6 7f        	ldx	$7f                     ; 0x207f <readMIDICmd+0xa1>
    2717: 86 8e        	stx	$8e                     ; 0x208e <readMIDICmd+0xb0>
    2719: a6 80        	ldx	$80                     ; 0x2080 <readMIDICmd+0xa2>
    271b: 86 8d        	stx	$8d                     ; 0x208d <readMIDICmd+0xaf>
    271d: a2 19        	ldx	#$19
    271f: 86 12        	stx	$12                     ; 0x2012 <readMIDICmd+0x34>
    2721: 64 13        	stz	$13                     ; 0x2013 <readMIDICmd+0x35>
    2723: a2 00        	ldx	#$0
    2725: 98           	tya
    2726: 20 b5 41     	jsr	$41b5 <__mulhi3>
    2729: 85 12        	sta	$12                     ; 0x2012 <readMIDICmd+0x34>
    272b: 86 13        	stx	$13                     ; 0x2013 <readMIDICmd+0x35>
    272d: 18           	clc
    272e: a6 8e        	ldx	$8e                     ; 0x208e <readMIDICmd+0xb0>
    2730: 8a           	txa
    2731: 65 12        	adc	$12                     ; 0x2012 <readMIDICmd+0x34>
    2733: a8           	tay
    2734: a5 8d        	lda	$8d                     ; 0x208d <readMIDICmd+0xaf>
    2736: 65 13        	adc	$13                     ; 0x2013 <readMIDICmd+0x35>
    2738: aa           	tax
    2739: 98           	tya
    273a: 84 14        	sty	$14                     ; 0x2014 <readMIDICmd+0x36>
    273c: 86 15        	stx	$15                     ; 0x2015 <readMIDICmd+0x37>
    273e: 18           	clc
    273f: 69 04        	adc	#$4
    2741: 85 12        	sta	$12                     ; 0x2012 <readMIDICmd+0x34>
    2743: 8a           	txa
    2744: 69 00        	adc	#$0
    2746: a0 04        	ldy	#$4
    2748: 85 13        	sta	$13                     ; 0x2013 <readMIDICmd+0x35>
    274a: b1 14        	lda	($14),y                 ; 0x2014 <readMIDICmd+0x36>
    274c: 18           	clc
    274d: 69 05        	adc	#$5
    274f: 4c 05 28     	jmp	$2805 <skipWhenFFCmd+0x1ec>
    2752: a6 7f        	ldx	$7f                     ; 0x207f <readMIDICmd+0xa1>
    2754: 86 8e        	stx	$8e                     ; 0x208e <readMIDICmd+0xb0>
    2756: a6 80        	ldx	$80                     ; 0x2080 <readMIDICmd+0xa2>
    2758: 86 8d        	stx	$8d                     ; 0x208d <readMIDICmd+0xaf>
    275a: a2 19        	ldx	#$19
    275c: 86 12        	stx	$12                     ; 0x2012 <readMIDICmd+0x34>
    275e: 64 13        	stz	$13                     ; 0x2013 <readMIDICmd+0x35>
    2760: a2 00        	ldx	#$0
    2762: 98           	tya
    2763: 20 b5 41     	jsr	$41b5 <__mulhi3>
    2766: 85 12        	sta	$12                     ; 0x2012 <readMIDICmd+0x34>
    2768: 86 13        	stx	$13                     ; 0x2013 <readMIDICmd+0x35>
    276a: 18           	clc
    276b: a6 8e        	ldx	$8e                     ; 0x208e <readMIDICmd+0xb0>
    276d: 8a           	txa
    276e: 65 12        	adc	$12                     ; 0x2012 <readMIDICmd+0x34>
    2770: a8           	tay
    2771: a5 8d        	lda	$8d                     ; 0x208d <readMIDICmd+0xaf>
    2773: 65 13        	adc	$13                     ; 0x2013 <readMIDICmd+0x35>
    2775: aa           	tax
    2776: 98           	tya
    2777: 84 14        	sty	$14                     ; 0x2014 <readMIDICmd+0x36>
    2779: 86 15        	stx	$15                     ; 0x2015 <readMIDICmd+0x37>
    277b: 18           	clc
    277c: 69 04        	adc	#$4
    277e: 85 12        	sta	$12                     ; 0x2012 <readMIDICmd+0x34>
    2780: 8a           	txa
    2781: 69 00        	adc	#$0
    2783: a0 04        	ldy	#$4
    2785: 85 13        	sta	$13                     ; 0x2013 <readMIDICmd+0x35>
    2787: b1 14        	lda	($14),y                 ; 0x2014 <readMIDICmd+0x36>
    2789: 18           	clc
    278a: 69 04        	adc	#$4
    278c: 4c 05 28     	jmp	$2805 <skipWhenFFCmd+0x1ec>
    278f: a6 7f        	ldx	$7f                     ; 0x207f <readMIDICmd+0xa1>
    2791: 86 8e        	stx	$8e                     ; 0x208e <readMIDICmd+0xb0>
    2793: a6 80        	ldx	$80                     ; 0x2080 <readMIDICmd+0xa2>
    2795: 86 8d        	stx	$8d                     ; 0x208d <readMIDICmd+0xaf>
    2797: a2 19        	ldx	#$19
    2799: 86 12        	stx	$12                     ; 0x2012 <readMIDICmd+0x34>
    279b: 64 13        	stz	$13                     ; 0x2013 <readMIDICmd+0x35>
    279d: a2 00        	ldx	#$0
    279f: 98           	tya
    27a0: 20 b5 41     	jsr	$41b5 <__mulhi3>
    27a3: 85 12        	sta	$12                     ; 0x2012 <readMIDICmd+0x34>
    27a5: 86 13        	stx	$13                     ; 0x2013 <readMIDICmd+0x35>
    27a7: 18           	clc
    27a8: a6 8e        	ldx	$8e                     ; 0x208e <readMIDICmd+0xb0>
    27aa: 8a           	txa
    27ab: 65 12        	adc	$12                     ; 0x2012 <readMIDICmd+0x34>
    27ad: a8           	tay
    27ae: a5 8d        	lda	$8d                     ; 0x208d <readMIDICmd+0xaf>
    27b0: 65 13        	adc	$13                     ; 0x2013 <readMIDICmd+0x35>
    27b2: aa           	tax
    27b3: 98           	tya
    27b4: 84 14        	sty	$14                     ; 0x2014 <readMIDICmd+0x36>
    27b6: 86 15        	stx	$15                     ; 0x2015 <readMIDICmd+0x37>
    27b8: 18           	clc
    27b9: 69 04        	adc	#$4
    27bb: 85 12        	sta	$12                     ; 0x2012 <readMIDICmd+0x34>
    27bd: 8a           	txa
    27be: 69 00        	adc	#$0
    27c0: a0 04        	ldy	#$4
    27c2: 85 13        	sta	$13                     ; 0x2013 <readMIDICmd+0x35>
    27c4: b1 14        	lda	($14),y                 ; 0x2014 <readMIDICmd+0x36>
    27c6: 18           	clc
    27c7: 69 02        	adc	#$2
    27c9: 80 3a        	bra	$2805 <skipWhenFFCmd+0x1ec>
    27cb: a6 7f        	ldx	$7f                     ; 0x207f <readMIDICmd+0xa1>
    27cd: 86 8e        	stx	$8e                     ; 0x208e <readMIDICmd+0xb0>
    27cf: a6 80        	ldx	$80                     ; 0x2080 <readMIDICmd+0xa2>
    27d1: 86 8d        	stx	$8d                     ; 0x208d <readMIDICmd+0xaf>
    27d3: a2 19        	ldx	#$19
    27d5: 86 12        	stx	$12                     ; 0x2012 <readMIDICmd+0x34>
    27d7: 64 13        	stz	$13                     ; 0x2013 <readMIDICmd+0x35>
    27d9: a2 00        	ldx	#$0
    27db: 98           	tya
    27dc: 20 b5 41     	jsr	$41b5 <__mulhi3>
    27df: 85 12        	sta	$12                     ; 0x2012 <readMIDICmd+0x34>
    27e1: 86 13        	stx	$13                     ; 0x2013 <readMIDICmd+0x35>
    27e3: 18           	clc
    27e4: a6 8e        	ldx	$8e                     ; 0x208e <readMIDICmd+0xb0>
    27e6: 8a           	txa
    27e7: 65 12        	adc	$12                     ; 0x2012 <readMIDICmd+0x34>
    27e9: a8           	tay
    27ea: a5 8d        	lda	$8d                     ; 0x208d <readMIDICmd+0xaf>
    27ec: 65 13        	adc	$13                     ; 0x2013 <readMIDICmd+0x35>
    27ee: aa           	tax
    27ef: 98           	tya
    27f0: 84 14        	sty	$14                     ; 0x2014 <readMIDICmd+0x36>
    27f2: 86 15        	stx	$15                     ; 0x2015 <readMIDICmd+0x37>
    27f4: 18           	clc
    27f5: 69 04        	adc	#$4
    27f7: 85 12        	sta	$12                     ; 0x2012 <readMIDICmd+0x34>
    27f9: 8a           	txa
    27fa: 69 00        	adc	#$0
    27fc: a0 04        	ldy	#$4
    27fe: 85 13        	sta	$13                     ; 0x2013 <readMIDICmd+0x35>
    2800: b1 14        	lda	($14),y                 ; 0x2014 <readMIDICmd+0x36>
    2802: 18           	clc
    2803: 69 06        	adc	#$6
    2805: 91 14        	sta	($14),y                 ; 0x2014 <readMIDICmd+0x36>
    2807: a0 01        	ldy	#$1
    2809: b1 12        	lda	($12),y                 ; 0x2012 <readMIDICmd+0x34>
    280b: 69 00        	adc	#$0
    280d: 91 12        	sta	($12),y                 ; 0x2012 <readMIDICmd+0x34>
    280f: c8           	iny
    2810: b1 12        	lda	($12),y                 ; 0x2012 <readMIDICmd+0x34>
    2812: 69 00        	adc	#$0
    2814: 91 12        	sta	($12),y                 ; 0x2012 <readMIDICmd+0x34>
    2816: c8           	iny
    2817: b1 12        	lda	($12),y                 ; 0x2012 <readMIDICmd+0x34>
    2819: 69 00        	adc	#$0
    281b: 91 12        	sta	($12),y                 ; 0x2012 <readMIDICmd+0x34>
    281d: 60           	rts

0000281e <exhaustZeroes>:
    281e: a4 70        	ldy	$70                     ; 0x2070 <readMIDICmd+0x92>
    2820: a6 71        	ldx	$71                     ; 0x2071 <readMIDICmd+0x93>
    2822: d0 06        	bne	$282a <exhaustZeroes+0xc>
    2824: 98           	tya
    2825: d0 03        	bne	$282a <exhaustZeroes+0xc>
    2827: 4c 29 29     	jmp	$2929 <exhaustZeroes+0x10b>
    282a: 18           	clc
    282b: a5 10        	lda	$10                     ; 0x2010 <readMIDICmd+0x32>
    282d: 69 f5        	adc	#$f5
    282f: 85 10        	sta	$10                     ; 0x2010 <readMIDICmd+0x32>
    2831: a5 11        	lda	$11                     ; 0x2011 <readMIDICmd+0x33>
    2833: 69 ff        	adc	#$ff
    2835: 85 11        	sta	$11                     ; 0x2011 <readMIDICmd+0x33>
    2837: a5 24        	lda	$24                     ; 0x2024 <readMIDICmd+0x46>
    2839: 48           	pha
    283a: a5 25        	lda	$25                     ; 0x2025 <readMIDICmd+0x47>
    283c: 48           	pha
    283d: a5 26        	lda	$26                     ; 0x2026 <readMIDICmd+0x48>
    283f: 48           	pha
    2840: a5 27        	lda	$27                     ; 0x2027 <readMIDICmd+0x49>
    2842: 48           	pha
    2843: 5a           	phy
    2844: a5 28        	lda	$28                     ; 0x2028 <readMIDICmd+0x4a>
    2846: a0 07        	ldy	#$7
    2848: 91 10        	sta	($10),y                 ; 0x2010 <readMIDICmd+0x32>
    284a: a5 29        	lda	$29                     ; 0x2029 <readMIDICmd+0x4b>
    284c: 88           	dey
    284d: 91 10        	sta	($10),y                 ; 0x2010 <readMIDICmd+0x32>
    284f: a5 2a        	lda	$2a                     ; 0x202a <readMIDICmd+0x4c>
    2851: 88           	dey
    2852: 91 10        	sta	($10),y                 ; 0x2010 <readMIDICmd+0x32>
    2854: a5 2b        	lda	$2b                     ; 0x202b <readMIDICmd+0x4d>
    2856: 88           	dey
    2857: 91 10        	sta	($10),y                 ; 0x2010 <readMIDICmd+0x32>
    2859: a5 2c        	lda	$2c                     ; 0x202c <readMIDICmd+0x4e>
    285b: 88           	dey
    285c: 91 10        	sta	($10),y                 ; 0x2010 <readMIDICmd+0x32>
    285e: a5 2d        	lda	$2d                     ; 0x202d <readMIDICmd+0x4f>
    2860: 88           	dey
    2861: 91 10        	sta	($10),y                 ; 0x2010 <readMIDICmd+0x32>
    2863: a5 2e        	lda	$2e                     ; 0x202e <readMIDICmd+0x50>
    2865: 88           	dey
    2866: 91 10        	sta	($10),y                 ; 0x2010 <readMIDICmd+0x32>
    2868: a5 2f        	lda	$2f                     ; 0x202f <readMIDICmd+0x51>
    286a: 88           	dey
    286b: 91 10        	sta	($10),y                 ; 0x2010 <readMIDICmd+0x32>
    286d: 7a           	ply
    286e: a5 7f        	lda	$7f                     ; 0x207f <readMIDICmd+0xa1>
    2870: 85 26        	sta	$26                     ; 0x2026 <readMIDICmd+0x48>
    2872: a5 80        	lda	$80                     ; 0x2080 <readMIDICmd+0xa2>
    2874: 85 25        	sta	$25                     ; 0x2025 <readMIDICmd+0x47>
    2876: 64 24        	stz	$24                     ; 0x2024 <readMIDICmd+0x46>
    2878: a9 19        	lda	#$19
    287a: 84 27        	sty	$27                     ; 0x2027 <readMIDICmd+0x49>
    287c: 86 28        	stx	$28                     ; 0x2028 <readMIDICmd+0x4a>
    287e: a0 00        	ldy	#$0
    2880: a2 00        	ldx	#$0
    2882: 85 12        	sta	$12                     ; 0x2012 <readMIDICmd+0x34>
    2884: 64 13        	stz	$13                     ; 0x2013 <readMIDICmd+0x35>
    2886: 86 2f        	stx	$2f                     ; 0x202f <readMIDICmd+0x51>
    2888: 84 29        	sty	$29                     ; 0x2029 <readMIDICmd+0x4b>
    288a: 98           	tya
    288b: 20 b5 41     	jsr	$41b5 <__mulhi3>
    288e: 18           	clc
    288f: 65 26        	adc	$26                     ; 0x2026 <readMIDICmd+0x48>
    2891: 85 12        	sta	$12                     ; 0x2012 <readMIDICmd+0x34>
    2893: 8a           	txa
    2894: 65 25        	adc	$25                     ; 0x2025 <readMIDICmd+0x47>
    2896: 85 14        	sta	$14                     ; 0x2014 <readMIDICmd+0x36>
    2898: 85 13        	sta	$13                     ; 0x2013 <readMIDICmd+0x35>
    289a: a0 18        	ldy	#$18
    289c: b1 12        	lda	($12),y                 ; 0x2012 <readMIDICmd+0x34>
    289e: d0 2b        	bne	$28cb <exhaustZeroes+0xad>
    28a0: 18           	clc
    28a1: a5 12        	lda	$12                     ; 0x2012 <readMIDICmd+0x34>
    28a3: 69 0c        	adc	#$c
    28a5: aa           	tax
    28a6: a5 14        	lda	$14                     ; 0x2014 <readMIDICmd+0x36>
    28a8: 69 00        	adc	#$0
    28aa: 86 14        	stx	$14                     ; 0x2014 <readMIDICmd+0x36>
    28ac: 85 15        	sta	$15                     ; 0x2015 <readMIDICmd+0x37>
    28ae: a0 0c        	ldy	#$c
    28b0: b1 12        	lda	($12),y                 ; 0x2012 <readMIDICmd+0x34>
    28b2: 85 12        	sta	$12                     ; 0x2012 <readMIDICmd+0x34>
    28b4: a0 01        	ldy	#$1
    28b6: b1 14        	lda	($14),y                 ; 0x2014 <readMIDICmd+0x36>
    28b8: 85 13        	sta	$13                     ; 0x2013 <readMIDICmd+0x35>
    28ba: c8           	iny
    28bb: b1 14        	lda	($14),y                 ; 0x2014 <readMIDICmd+0x36>
    28bd: 85 16        	sta	$16                     ; 0x2016 <readMIDICmd+0x38>
    28bf: c8           	iny
    28c0: b1 14        	lda	($14),y                 ; 0x2014 <readMIDICmd+0x36>
    28c2: d0 07        	bne	$28cb <exhaustZeroes+0xad>
    28c4: a5 16        	lda	$16                     ; 0x2016 <readMIDICmd+0x38>
    28c6: d0 03        	bne	$28cb <exhaustZeroes+0xad>
    28c8: 4c 2a 29     	jmp	$292a <exhaustZeroes+0x10c>
    28cb: a6 2f        	ldx	$2f                     ; 0x202f <readMIDICmd+0x51>
    28cd: a4 29        	ldy	$29                     ; 0x2029 <readMIDICmd+0x4b>
    28cf: c8           	iny
    28d0: d0 01        	bne	$28d3 <exhaustZeroes+0xb5>
    28d2: e8           	inx
    28d3: a9 19        	lda	#$19
    28d5: e4 28        	cpx	$28                     ; 0x2028 <readMIDICmd+0x4a>
    28d7: d0 07        	bne	$28e0 <exhaustZeroes+0xc2>
    28d9: c4 27        	cpy	$27                     ; 0x2027 <readMIDICmd+0x49>
    28db: b0 0a        	bcs	$28e7 <exhaustZeroes+0xc9>
    28dd: 4c 82 28     	jmp	$2882 <exhaustZeroes+0x64>
    28e0: e4 28        	cpx	$28                     ; 0x2028 <readMIDICmd+0x4a>
    28e2: b0 03        	bcs	$28e7 <exhaustZeroes+0xc9>
    28e4: 4c 82 28     	jmp	$2882 <exhaustZeroes+0x64>
    28e7: a0 00        	ldy	#$0
    28e9: b1 10        	lda	($10),y                 ; 0x2010 <readMIDICmd+0x32>
    28eb: 85 2f        	sta	$2f                     ; 0x202f <readMIDICmd+0x51>
    28ed: c8           	iny
    28ee: b1 10        	lda	($10),y                 ; 0x2010 <readMIDICmd+0x32>
    28f0: 85 2e        	sta	$2e                     ; 0x202e <readMIDICmd+0x50>
    28f2: c8           	iny
    28f3: b1 10        	lda	($10),y                 ; 0x2010 <readMIDICmd+0x32>
    28f5: 85 2d        	sta	$2d                     ; 0x202d <readMIDICmd+0x4f>
    28f7: c8           	iny
    28f8: b1 10        	lda	($10),y                 ; 0x2010 <readMIDICmd+0x32>
    28fa: 85 2c        	sta	$2c                     ; 0x202c <readMIDICmd+0x4e>
    28fc: c8           	iny
    28fd: b1 10        	lda	($10),y                 ; 0x2010 <readMIDICmd+0x32>
    28ff: 85 2b        	sta	$2b                     ; 0x202b <readMIDICmd+0x4d>
    2901: c8           	iny
    2902: b1 10        	lda	($10),y                 ; 0x2010 <readMIDICmd+0x32>
    2904: 85 2a        	sta	$2a                     ; 0x202a <readMIDICmd+0x4c>
    2906: c8           	iny
    2907: b1 10        	lda	($10),y                 ; 0x2010 <readMIDICmd+0x32>
    2909: 85 29        	sta	$29                     ; 0x2029 <readMIDICmd+0x4b>
    290b: c8           	iny
    290c: b1 10        	lda	($10),y                 ; 0x2010 <readMIDICmd+0x32>
    290e: 85 28        	sta	$28                     ; 0x2028 <readMIDICmd+0x4a>
    2910: fa           	plx
    2911: 86 27        	stx	$27                     ; 0x2027 <readMIDICmd+0x49>
    2913: fa           	plx
    2914: 86 26        	stx	$26                     ; 0x2026 <readMIDICmd+0x48>
    2916: fa           	plx
    2917: 86 25        	stx	$25                     ; 0x2025 <readMIDICmd+0x47>
    2919: fa           	plx
    291a: 86 24        	stx	$24                     ; 0x2024 <readMIDICmd+0x46>
    291c: 18           	clc
    291d: a5 10        	lda	$10                     ; 0x2010 <readMIDICmd+0x32>
    291f: 69 0b        	adc	#$b
    2921: 85 10        	sta	$10                     ; 0x2010 <readMIDICmd+0x32>
    2923: a5 11        	lda	$11                     ; 0x2011 <readMIDICmd+0x33>
    2925: 69 00        	adc	#$0
    2927: 85 11        	sta	$11                     ; 0x2011 <readMIDICmd+0x33>
    2929: 60           	rts
    292a: a5 13        	lda	$13                     ; 0x2013 <readMIDICmd+0x35>
    292c: f0 03        	beq	$2931 <exhaustZeroes+0x113>
    292e: 4c cb 28     	jmp	$28cb <exhaustZeroes+0xad>
    2931: a5 12        	lda	$12                     ; 0x2012 <readMIDICmd+0x34>
    2933: f0 03        	beq	$2938 <exhaustZeroes+0x11a>
    2935: 4c cb 28     	jmp	$28cb <exhaustZeroes+0xad>
    2938: 4c 90 2e     	jmp	$2e90 <exhaustZeroes+0x672>
    293b: a0 11        	ldy	#$11
    293d: b1 12        	lda	($12),y                 ; 0x2012 <readMIDICmd+0x34>
    293f: c9 51        	cmp	#$51
    2941: d0 03        	bne	$2946 <exhaustZeroes+0x128>
    2943: 4c ec 2b     	jmp	$2bec <exhaustZeroes+0x3ce>
    2946: c9 2f        	cmp	#$2f
    2948: d0 17        	bne	$2961 <exhaustZeroes+0x143>
    294a: a0 18        	ldy	#$18
    294c: a9 01        	lda	#$1
    294e: 91 12        	sta	($12),y                 ; 0x2012 <readMIDICmd+0x34>
    2950: 80 0f        	bra	$2961 <exhaustZeroes+0x143>
    2952: a0 12        	ldy	#$12
    2954: b1 12        	lda	($12),y                 ; 0x2012 <readMIDICmd+0x34>
    2956: 8d a1 dd     	sta	$dda1                   ; 0xdda1 <end_block9+0x9895>
    2959: a6 7f        	ldx	$7f                     ; 0x207f <readMIDICmd+0xa1>
    295b: a4 80        	ldy	$80                     ; 0x2080 <readMIDICmd+0xa2>
    295d: 86 26        	stx	$26                     ; 0x2026 <readMIDICmd+0x48>
    295f: 84 25        	sty	$25                     ; 0x2025 <readMIDICmd+0x47>
    2961: a2 19        	ldx	#$19
    2963: 86 12        	stx	$12                     ; 0x2012 <readMIDICmd+0x34>
    2965: 64 13        	stz	$13                     ; 0x2013 <readMIDICmd+0x35>
    2967: a2 00        	ldx	#$0
    2969: a5 29        	lda	$29                     ; 0x2029 <readMIDICmd+0x4b>
    296b: 20 b5 41     	jsr	$41b5 <__mulhi3>
    296e: 86 12        	stx	$12                     ; 0x2012 <readMIDICmd+0x34>
    2970: 18           	clc
    2971: 65 26        	adc	$26                     ; 0x2026 <readMIDICmd+0x48>
    2973: aa           	tax
    2974: a5 25        	lda	$25                     ; 0x2025 <readMIDICmd+0x47>
    2976: 65 12        	adc	$12                     ; 0x2012 <readMIDICmd+0x34>
    2978: 86 12        	stx	$12                     ; 0x2012 <readMIDICmd+0x34>
    297a: 85 13        	sta	$13                     ; 0x2013 <readMIDICmd+0x35>
    297c: a8           	tay
    297d: 8a           	txa
    297e: 18           	clc
    297f: 69 08        	adc	#$8
    2981: 85 14        	sta	$14                     ; 0x2014 <readMIDICmd+0x36>
    2983: 98           	tya
    2984: 69 00        	adc	#$0
    2986: 85 15        	sta	$15                     ; 0x2015 <readMIDICmd+0x37>
    2988: 18           	clc
    2989: 8a           	txa
    298a: 69 04        	adc	#$4
    298c: 85 16        	sta	$16                     ; 0x2016 <readMIDICmd+0x38>
    298e: 98           	tya
    298f: 69 00        	adc	#$0
    2991: 85 17        	sta	$17                     ; 0x2017 <readMIDICmd+0x39>
    2993: a0 04        	ldy	#$4
    2995: b1 12        	lda	($12),y                 ; 0x2012 <readMIDICmd+0x34>
    2997: 85 18        	sta	$18                     ; 0x2018 <readMIDICmd+0x3a>
    2999: a0 01        	ldy	#$1
    299b: b1 16        	lda	($16),y                 ; 0x2016 <readMIDICmd+0x38>
    299d: 85 19        	sta	$19                     ; 0x2019 <readMIDICmd+0x3b>
    299f: c8           	iny
    29a0: b1 16        	lda	($16),y                 ; 0x2016 <readMIDICmd+0x38>
    29a2: aa           	tax
    29a3: c8           	iny
    29a4: b1 16        	lda	($16),y                 ; 0x2016 <readMIDICmd+0x38>
    29a6: a4 18        	ldy	$18                     ; 0x2018 <readMIDICmd+0x3a>
    29a8: 84 1a        	sty	$1a                     ; 0x201a <readMIDICmd+0x3c>
    29aa: a4 19        	ldy	$19                     ; 0x2019 <readMIDICmd+0x3b>
    29ac: 84 1b        	sty	$1b                     ; 0x201b <readMIDICmd+0x3d>
    29ae: 86 1c        	stx	$1c                     ; 0x201c <readMIDICmd+0x3e>
    29b0: e6 1a        	inc	$1a                     ; 0x201a <readMIDICmd+0x3c>
    29b2: d0 09        	bne	$29bd <exhaustZeroes+0x19f>
    29b4: e6 1b        	inc	$1b                     ; 0x201b <readMIDICmd+0x3d>
    29b6: d0 05        	bne	$29bd <exhaustZeroes+0x19f>
    29b8: e6 1c        	inc	$1c                     ; 0x201c <readMIDICmd+0x3e>
    29ba: d0 01        	bne	$29bd <exhaustZeroes+0x19f>
    29bc: 1a           	inc
    29bd: 85 1d        	sta	$1d                     ; 0x201d <readMIDICmd+0x3f>
    29bf: a0 04        	ldy	#$4
    29c1: a5 1a        	lda	$1a                     ; 0x201a <readMIDICmd+0x3c>
    29c3: 91 12        	sta	($12),y                 ; 0x2012 <readMIDICmd+0x34>
    29c5: a0 01        	ldy	#$1
    29c7: a5 1b        	lda	$1b                     ; 0x201b <readMIDICmd+0x3d>
    29c9: 91 16        	sta	($16),y                 ; 0x2016 <readMIDICmd+0x38>
    29cb: c8           	iny
    29cc: a5 1c        	lda	$1c                     ; 0x201c <readMIDICmd+0x3e>
    29ce: 91 16        	sta	($16),y                 ; 0x2016 <readMIDICmd+0x38>
    29d0: c8           	iny
    29d1: a5 1d        	lda	$1d                     ; 0x201d <readMIDICmd+0x3f>
    29d3: 91 16        	sta	($16),y                 ; 0x2016 <readMIDICmd+0x38>
    29d5: 18           	clc
    29d6: a0 08        	ldy	#$8
    29d8: a5 18        	lda	$18                     ; 0x2018 <readMIDICmd+0x3a>
    29da: 71 12        	adc	($12),y                 ; 0x2012 <readMIDICmd+0x34>
    29dc: 85 13        	sta	$13                     ; 0x2013 <readMIDICmd+0x35>
    29de: a5 19        	lda	$19                     ; 0x2019 <readMIDICmd+0x3b>
    29e0: a0 01        	ldy	#$1
    29e2: 71 14        	adc	($14),y                 ; 0x2014 <readMIDICmd+0x36>
    29e4: 85 12        	sta	$12                     ; 0x2012 <readMIDICmd+0x34>
    29e6: c8           	iny
    29e7: 8a           	txa
    29e8: 71 14        	adc	($14),y                 ; 0x2014 <readMIDICmd+0x36>
    29ea: 85 14        	sta	$14                     ; 0x2014 <readMIDICmd+0x36>
    29ec: a5 12        	lda	$12                     ; 0x2012 <readMIDICmd+0x34>
    29ee: 06 12        	asl	$12                     ; 0x2012 <readMIDICmd+0x34>
    29f0: 26 14        	rol	$14                     ; 0x2014 <readMIDICmd+0x36>
    29f2: 06 12        	asl	$12                     ; 0x2012 <readMIDICmd+0x34>
    29f4: 26 14        	rol	$14                     ; 0x2014 <readMIDICmd+0x36>
    29f6: 06 12        	asl	$12                     ; 0x2012 <readMIDICmd+0x34>
    29f8: 26 14        	rol	$14                     ; 0x2014 <readMIDICmd+0x36>
    29fa: a4 14        	ldy	$14                     ; 0x2014 <readMIDICmd+0x36>
    29fc: a6 0f        	ldx	$f                      ; 0x200f <readMIDICmd+0x31>
    29fe: 78           	sei
    29ff: 84 0f        	sty	$f                      ; 0x200f <readMIDICmd+0x31>
    2a01: a4 13        	ldy	$13                     ; 0x2013 <readMIDICmd+0x35>
    2a03: 84 12        	sty	$12                     ; 0x2012 <readMIDICmd+0x34>
    2a05: 09 e0        	ora	#$e0
    2a07: 85 13        	sta	$13                     ; 0x2013 <readMIDICmd+0x35>
    2a09: b2 12        	lda	($12)                   ; 0x2012 <readMIDICmd+0x34>
    2a0b: 86 0f        	stx	$f                      ; 0x200f <readMIDICmd+0x31>
    2a0d: 58           	cli
    2a0e: aa           	tax
    2a0f: 30 17        	bmi	$2a28 <exhaustZeroes+0x20a>
    2a11: 85 28        	sta	$28                     ; 0x2028 <readMIDICmd+0x4a>
    2a13: 64 2b        	stz	$2b                     ; 0x202b <readMIDICmd+0x4d>
    2a15: 64 2c        	stz	$2c                     ; 0x202c <readMIDICmd+0x4e>
    2a17: 64 2e        	stz	$2e                     ; 0x202e <readMIDICmd+0x50>
    2a19: 64 2d        	stz	$2d                     ; 0x202d <readMIDICmd+0x4f>
    2a1b: 64 25        	stz	$25                     ; 0x2025 <readMIDICmd+0x47>
    2a1d: 64 12        	stz	$12                     ; 0x2012 <readMIDICmd+0x34>
    2a1f: 64 13        	stz	$13                     ; 0x2013 <readMIDICmd+0x35>
    2a21: 64 14        	stz	$14                     ; 0x2014 <readMIDICmd+0x36>
    2a23: 64 26        	stz	$26                     ; 0x2026 <readMIDICmd+0x48>
    2a25: 4c b4 2d     	jmp	$2db4 <exhaustZeroes+0x596>
    2a28: 4a           	lsr
    2a29: aa           	tax
    2a2a: a9 00        	lda	#$0
    2a2c: 6a           	ror
    2a2d: 29 80        	and	#$80
    2a2f: 85 28        	sta	$28                     ; 0x2028 <readMIDICmd+0x4a>
    2a31: 8a           	txa
    2a32: 29 3f        	and	#$3f
    2a34: 85 26        	sta	$26                     ; 0x2026 <readMIDICmd+0x48>
    2a36: a6 7f        	ldx	$7f                     ; 0x207f <readMIDICmd+0xa1>
    2a38: 86 2a        	stx	$2a                     ; 0x202a <readMIDICmd+0x4c>
    2a3a: a6 80        	ldx	$80                     ; 0x2080 <readMIDICmd+0xa2>
    2a3c: 86 25        	stx	$25                     ; 0x2025 <readMIDICmd+0x47>
    2a3e: a2 19        	ldx	#$19
    2a40: 86 12        	stx	$12                     ; 0x2012 <readMIDICmd+0x34>
    2a42: 64 13        	stz	$13                     ; 0x2013 <readMIDICmd+0x35>
    2a44: a2 00        	ldx	#$0
    2a46: a5 29        	lda	$29                     ; 0x2029 <readMIDICmd+0x4b>
    2a48: 20 b5 41     	jsr	$41b5 <__mulhi3>
    2a4b: 85 12        	sta	$12                     ; 0x2012 <readMIDICmd+0x34>
    2a4d: 86 13        	stx	$13                     ; 0x2013 <readMIDICmd+0x35>
    2a4f: 18           	clc
    2a50: a5 2a        	lda	$2a                     ; 0x202a <readMIDICmd+0x4c>
    2a52: 65 12        	adc	$12                     ; 0x2012 <readMIDICmd+0x34>
    2a54: a8           	tay
    2a55: a5 25        	lda	$25                     ; 0x2025 <readMIDICmd+0x47>
    2a57: 65 13        	adc	$13                     ; 0x2013 <readMIDICmd+0x35>
    2a59: aa           	tax
    2a5a: 84 12        	sty	$12                     ; 0x2012 <readMIDICmd+0x34>
    2a5c: 85 13        	sta	$13                     ; 0x2013 <readMIDICmd+0x35>
    2a5e: 98           	tya
    2a5f: 18           	clc
    2a60: 69 08        	adc	#$8
    2a62: 85 14        	sta	$14                     ; 0x2014 <readMIDICmd+0x36>
    2a64: 8a           	txa
    2a65: 69 00        	adc	#$0
    2a67: 85 15        	sta	$15                     ; 0x2015 <readMIDICmd+0x37>
    2a69: 18           	clc
    2a6a: 98           	tya
    2a6b: 69 04        	adc	#$4
    2a6d: 85 16        	sta	$16                     ; 0x2016 <readMIDICmd+0x38>
    2a6f: 8a           	txa
    2a70: 69 00        	adc	#$0
    2a72: 85 17        	sta	$17                     ; 0x2017 <readMIDICmd+0x39>
    2a74: a0 04        	ldy	#$4
    2a76: b1 12        	lda	($12),y                 ; 0x2012 <readMIDICmd+0x34>
    2a78: 85 18        	sta	$18                     ; 0x2018 <readMIDICmd+0x3a>
    2a7a: a0 01        	ldy	#$1
    2a7c: b1 16        	lda	($16),y                 ; 0x2016 <readMIDICmd+0x38>
    2a7e: 85 19        	sta	$19                     ; 0x2019 <readMIDICmd+0x3b>
    2a80: c8           	iny
    2a81: b1 16        	lda	($16),y                 ; 0x2016 <readMIDICmd+0x38>
    2a83: aa           	tax
    2a84: c8           	iny
    2a85: b1 16        	lda	($16),y                 ; 0x2016 <readMIDICmd+0x38>
    2a87: a4 18        	ldy	$18                     ; 0x2018 <readMIDICmd+0x3a>
    2a89: 84 1a        	sty	$1a                     ; 0x201a <readMIDICmd+0x3c>
    2a8b: a4 19        	ldy	$19                     ; 0x2019 <readMIDICmd+0x3b>
    2a8d: 84 1b        	sty	$1b                     ; 0x201b <readMIDICmd+0x3d>
    2a8f: 86 1c        	stx	$1c                     ; 0x201c <readMIDICmd+0x3e>
    2a91: e6 1a        	inc	$1a                     ; 0x201a <readMIDICmd+0x3c>
    2a93: d0 09        	bne	$2a9e <exhaustZeroes+0x280>
    2a95: e6 1b        	inc	$1b                     ; 0x201b <readMIDICmd+0x3d>
    2a97: d0 05        	bne	$2a9e <exhaustZeroes+0x280>
    2a99: e6 1c        	inc	$1c                     ; 0x201c <readMIDICmd+0x3e>
    2a9b: d0 01        	bne	$2a9e <exhaustZeroes+0x280>
    2a9d: 1a           	inc
    2a9e: 85 1d        	sta	$1d                     ; 0x201d <readMIDICmd+0x3f>
    2aa0: a0 04        	ldy	#$4
    2aa2: a5 1a        	lda	$1a                     ; 0x201a <readMIDICmd+0x3c>
    2aa4: 91 12        	sta	($12),y                 ; 0x2012 <readMIDICmd+0x34>
    2aa6: a0 01        	ldy	#$1
    2aa8: a5 1b        	lda	$1b                     ; 0x201b <readMIDICmd+0x3d>
    2aaa: 91 16        	sta	($16),y                 ; 0x2016 <readMIDICmd+0x38>
    2aac: c8           	iny
    2aad: a5 1c        	lda	$1c                     ; 0x201c <readMIDICmd+0x3e>
    2aaf: 91 16        	sta	($16),y                 ; 0x2016 <readMIDICmd+0x38>
    2ab1: c8           	iny
    2ab2: a5 1d        	lda	$1d                     ; 0x201d <readMIDICmd+0x3f>
    2ab4: 91 16        	sta	($16),y                 ; 0x2016 <readMIDICmd+0x38>
    2ab6: 18           	clc
    2ab7: a0 08        	ldy	#$8
    2ab9: a5 18        	lda	$18                     ; 0x2018 <readMIDICmd+0x3a>
    2abb: 71 12        	adc	($12),y                 ; 0x2012 <readMIDICmd+0x34>
    2abd: 85 13        	sta	$13                     ; 0x2013 <readMIDICmd+0x35>
    2abf: a5 19        	lda	$19                     ; 0x2019 <readMIDICmd+0x3b>
    2ac1: a0 01        	ldy	#$1
    2ac3: 71 14        	adc	($14),y                 ; 0x2014 <readMIDICmd+0x36>
    2ac5: 85 12        	sta	$12                     ; 0x2012 <readMIDICmd+0x34>
    2ac7: c8           	iny
    2ac8: 8a           	txa
    2ac9: 71 14        	adc	($14),y                 ; 0x2014 <readMIDICmd+0x36>
    2acb: 85 14        	sta	$14                     ; 0x2014 <readMIDICmd+0x36>
    2acd: a5 12        	lda	$12                     ; 0x2012 <readMIDICmd+0x34>
    2acf: 06 12        	asl	$12                     ; 0x2012 <readMIDICmd+0x34>
    2ad1: 26 14        	rol	$14                     ; 0x2014 <readMIDICmd+0x36>
    2ad3: 06 12        	asl	$12                     ; 0x2012 <readMIDICmd+0x34>
    2ad5: 26 14        	rol	$14                     ; 0x2014 <readMIDICmd+0x36>
    2ad7: 06 12        	asl	$12                     ; 0x2012 <readMIDICmd+0x34>
    2ad9: 26 14        	rol	$14                     ; 0x2014 <readMIDICmd+0x36>
    2adb: a4 14        	ldy	$14                     ; 0x2014 <readMIDICmd+0x36>
    2add: a6 0f        	ldx	$f                      ; 0x200f <readMIDICmd+0x31>
    2adf: 78           	sei
    2ae0: 84 0f        	sty	$f                      ; 0x200f <readMIDICmd+0x31>
    2ae2: a4 13        	ldy	$13                     ; 0x2013 <readMIDICmd+0x35>
    2ae4: 84 12        	sty	$12                     ; 0x2012 <readMIDICmd+0x34>
    2ae6: 09 e0        	ora	#$e0
    2ae8: 85 13        	sta	$13                     ; 0x2013 <readMIDICmd+0x35>
    2aea: b2 12        	lda	($12)                   ; 0x2012 <readMIDICmd+0x34>
    2aec: 86 0f        	stx	$f                      ; 0x200f <readMIDICmd+0x31>
    2aee: 58           	cli
    2aef: aa           	tax
    2af0: 30 13        	bmi	$2b05 <exhaustZeroes+0x2e7>
    2af2: 64 2c        	stz	$2c                     ; 0x202c <readMIDICmd+0x4e>
    2af4: 64 2d        	stz	$2d                     ; 0x202d <readMIDICmd+0x4f>
    2af6: 64 25        	stz	$25                     ; 0x2025 <readMIDICmd+0x47>
    2af8: 64 12        	stz	$12                     ; 0x2012 <readMIDICmd+0x34>
    2afa: 64 2b        	stz	$2b                     ; 0x202b <readMIDICmd+0x4d>
    2afc: 64 13        	stz	$13                     ; 0x2013 <readMIDICmd+0x35>
    2afe: 64 14        	stz	$14                     ; 0x2014 <readMIDICmd+0x36>
    2b00: 85 2e        	sta	$2e                     ; 0x202e <readMIDICmd+0x50>
    2b02: 4c b4 2d     	jmp	$2db4 <exhaustZeroes+0x596>
    2b05: 4a           	lsr
    2b06: aa           	tax
    2b07: a9 00        	lda	#$0
    2b09: 6a           	ror
    2b0a: a4 26        	ldy	$26                     ; 0x2026 <readMIDICmd+0x48>
    2b0c: 84 2b        	sty	$2b                     ; 0x202b <readMIDICmd+0x4d>
    2b0e: 46 2b        	lsr	$2b                     ; 0x202b <readMIDICmd+0x4d>
    2b10: a4 28        	ldy	$28                     ; 0x2028 <readMIDICmd+0x4a>
    2b12: 84 26        	sty	$26                     ; 0x2026 <readMIDICmd+0x48>
    2b14: 66 26        	ror	$26                     ; 0x2026 <readMIDICmd+0x48>
    2b16: 64 28        	stz	$28                     ; 0x2028 <readMIDICmd+0x4a>
    2b18: 66 28        	ror	$28                     ; 0x2028 <readMIDICmd+0x4a>
    2b1a: 64 13        	stz	$13                     ; 0x2013 <readMIDICmd+0x35>
    2b1c: 29 80        	and	#$80
    2b1e: 85 2e        	sta	$2e                     ; 0x202e <readMIDICmd+0x50>
    2b20: 8a           	txa
    2b21: 29 3f        	and	#$3f
    2b23: 85 2d        	sta	$2d                     ; 0x202d <readMIDICmd+0x4f>
    2b25: a6 7f        	ldx	$7f                     ; 0x207f <readMIDICmd+0xa1>
    2b27: 86 2a        	stx	$2a                     ; 0x202a <readMIDICmd+0x4c>
    2b29: a6 80        	ldx	$80                     ; 0x2080 <readMIDICmd+0xa2>
    2b2b: 86 25        	stx	$25                     ; 0x2025 <readMIDICmd+0x47>
    2b2d: a2 19        	ldx	#$19
    2b2f: 86 12        	stx	$12                     ; 0x2012 <readMIDICmd+0x34>
    2b31: a2 00        	ldx	#$0
    2b33: a5 29        	lda	$29                     ; 0x2029 <readMIDICmd+0x4b>
    2b35: 20 b5 41     	jsr	$41b5 <__mulhi3>
    2b38: 85 12        	sta	$12                     ; 0x2012 <readMIDICmd+0x34>
    2b3a: 86 13        	stx	$13                     ; 0x2013 <readMIDICmd+0x35>
    2b3c: 18           	clc
    2b3d: a5 2a        	lda	$2a                     ; 0x202a <readMIDICmd+0x4c>
    2b3f: 65 12        	adc	$12                     ; 0x2012 <readMIDICmd+0x34>
    2b41: a8           	tay
    2b42: a5 25        	lda	$25                     ; 0x2025 <readMIDICmd+0x47>
    2b44: 65 13        	adc	$13                     ; 0x2013 <readMIDICmd+0x35>
    2b46: aa           	tax
    2b47: 84 12        	sty	$12                     ; 0x2012 <readMIDICmd+0x34>
    2b49: 85 13        	sta	$13                     ; 0x2013 <readMIDICmd+0x35>
    2b4b: 98           	tya
    2b4c: 18           	clc
    2b4d: 69 08        	adc	#$8
    2b4f: 85 14        	sta	$14                     ; 0x2014 <readMIDICmd+0x36>
    2b51: 8a           	txa
    2b52: 69 00        	adc	#$0
    2b54: 85 15        	sta	$15                     ; 0x2015 <readMIDICmd+0x37>
    2b56: 18           	clc
    2b57: 98           	tya
    2b58: 69 04        	adc	#$4
    2b5a: 85 16        	sta	$16                     ; 0x2016 <readMIDICmd+0x38>
    2b5c: 8a           	txa
    2b5d: 69 00        	adc	#$0
    2b5f: 85 17        	sta	$17                     ; 0x2017 <readMIDICmd+0x39>
    2b61: a0 04        	ldy	#$4
    2b63: b1 12        	lda	($12),y                 ; 0x2012 <readMIDICmd+0x34>
    2b65: 85 18        	sta	$18                     ; 0x2018 <readMIDICmd+0x3a>
    2b67: a0 01        	ldy	#$1
    2b69: b1 16        	lda	($16),y                 ; 0x2016 <readMIDICmd+0x38>
    2b6b: 85 19        	sta	$19                     ; 0x2019 <readMIDICmd+0x3b>
    2b6d: c8           	iny
    2b6e: b1 16        	lda	($16),y                 ; 0x2016 <readMIDICmd+0x38>
    2b70: aa           	tax
    2b71: c8           	iny
    2b72: b1 16        	lda	($16),y                 ; 0x2016 <readMIDICmd+0x38>
    2b74: 85 1b        	sta	$1b                     ; 0x201b <readMIDICmd+0x3d>
    2b76: 86 1a        	stx	$1a                     ; 0x201a <readMIDICmd+0x3c>
    2b78: a5 18        	lda	$18                     ; 0x2018 <readMIDICmd+0x3a>
    2b7a: a4 19        	ldy	$19                     ; 0x2019 <readMIDICmd+0x3b>
    2b7c: 84 1c        	sty	$1c                     ; 0x201c <readMIDICmd+0x3e>
    2b7e: 1a           	inc
    2b7f: d0 0b        	bne	$2b8c <exhaustZeroes+0x36e>
    2b81: e6 1c        	inc	$1c                     ; 0x201c <readMIDICmd+0x3e>
    2b83: d0 07        	bne	$2b8c <exhaustZeroes+0x36e>
    2b85: e6 1a        	inc	$1a                     ; 0x201a <readMIDICmd+0x3c>
    2b87: d0 03        	bne	$2b8c <exhaustZeroes+0x36e>
    2b89: 4c 11 2f     	jmp	$2f11 <exhaustZeroes+0x6f3>
    2b8c: a0 04        	ldy	#$4
    2b8e: 91 12        	sta	($12),y                 ; 0x2012 <readMIDICmd+0x34>
    2b90: a0 01        	ldy	#$1
    2b92: a5 1c        	lda	$1c                     ; 0x201c <readMIDICmd+0x3e>
    2b94: 91 16        	sta	($16),y                 ; 0x2016 <readMIDICmd+0x38>
    2b96: c8           	iny
    2b97: a5 1a        	lda	$1a                     ; 0x201a <readMIDICmd+0x3c>
    2b99: 91 16        	sta	($16),y                 ; 0x2016 <readMIDICmd+0x38>
    2b9b: c8           	iny
    2b9c: a5 1b        	lda	$1b                     ; 0x201b <readMIDICmd+0x3d>
    2b9e: 91 16        	sta	($16),y                 ; 0x2016 <readMIDICmd+0x38>
    2ba0: 18           	clc
    2ba1: a0 08        	ldy	#$8
    2ba3: a5 18        	lda	$18                     ; 0x2018 <readMIDICmd+0x3a>
    2ba5: 71 12        	adc	($12),y                 ; 0x2012 <readMIDICmd+0x34>
    2ba7: 85 13        	sta	$13                     ; 0x2013 <readMIDICmd+0x35>
    2ba9: a5 19        	lda	$19                     ; 0x2019 <readMIDICmd+0x3b>
    2bab: a0 01        	ldy	#$1
    2bad: 71 14        	adc	($14),y                 ; 0x2014 <readMIDICmd+0x36>
    2baf: 85 12        	sta	$12                     ; 0x2012 <readMIDICmd+0x34>
    2bb1: c8           	iny
    2bb2: 8a           	txa
    2bb3: 71 14        	adc	($14),y                 ; 0x2014 <readMIDICmd+0x36>
    2bb5: 85 14        	sta	$14                     ; 0x2014 <readMIDICmd+0x36>
    2bb7: a5 12        	lda	$12                     ; 0x2012 <readMIDICmd+0x34>
    2bb9: 06 12        	asl	$12                     ; 0x2012 <readMIDICmd+0x34>
    2bbb: 26 14        	rol	$14                     ; 0x2014 <readMIDICmd+0x36>
    2bbd: 06 12        	asl	$12                     ; 0x2012 <readMIDICmd+0x34>
    2bbf: 26 14        	rol	$14                     ; 0x2014 <readMIDICmd+0x36>
    2bc1: 06 12        	asl	$12                     ; 0x2012 <readMIDICmd+0x34>
    2bc3: 26 14        	rol	$14                     ; 0x2014 <readMIDICmd+0x36>
    2bc5: a4 14        	ldy	$14                     ; 0x2014 <readMIDICmd+0x36>
    2bc7: a6 0f        	ldx	$f                      ; 0x200f <readMIDICmd+0x31>
    2bc9: 78           	sei
    2bca: 84 0f        	sty	$f                      ; 0x200f <readMIDICmd+0x31>
    2bcc: a4 13        	ldy	$13                     ; 0x2013 <readMIDICmd+0x35>
    2bce: 84 12        	sty	$12                     ; 0x2012 <readMIDICmd+0x34>
    2bd0: 09 e0        	ora	#$e0
    2bd2: 85 13        	sta	$13                     ; 0x2013 <readMIDICmd+0x35>
    2bd4: b2 12        	lda	($12)                   ; 0x2012 <readMIDICmd+0x34>
    2bd6: 86 0f        	stx	$f                      ; 0x200f <readMIDICmd+0x31>
    2bd8: 58           	cli
    2bd9: aa           	tax
    2bda: 10 03        	bpl	$2bdf <exhaustZeroes+0x3c1>
    2bdc: 4c a9 2c     	jmp	$2ca9 <exhaustZeroes+0x48b>
    2bdf: 64 25        	stz	$25                     ; 0x2025 <readMIDICmd+0x47>
    2be1: 85 12        	sta	$12                     ; 0x2012 <readMIDICmd+0x34>
    2be3: 64 13        	stz	$13                     ; 0x2013 <readMIDICmd+0x35>
    2be5: 64 2c        	stz	$2c                     ; 0x202c <readMIDICmd+0x4e>
    2be7: 64 14        	stz	$14                     ; 0x2014 <readMIDICmd+0x36>
    2be9: 4c b4 2d     	jmp	$2db4 <exhaustZeroes+0x596>
    2bec: a2 19        	ldx	#$19
    2bee: 86 12        	stx	$12                     ; 0x2012 <readMIDICmd+0x34>
    2bf0: 64 13        	stz	$13                     ; 0x2013 <readMIDICmd+0x35>
    2bf2: a2 00        	ldx	#$0
    2bf4: a5 29        	lda	$29                     ; 0x2029 <readMIDICmd+0x4b>
    2bf6: 20 b5 41     	jsr	$41b5 <__mulhi3>
    2bf9: 86 12        	stx	$12                     ; 0x2012 <readMIDICmd+0x34>
    2bfb: 18           	clc
    2bfc: 65 26        	adc	$26                     ; 0x2026 <readMIDICmd+0x48>
    2bfe: aa           	tax
    2bff: a5 25        	lda	$25                     ; 0x2025 <readMIDICmd+0x47>
    2c01: 65 12        	adc	$12                     ; 0x2012 <readMIDICmd+0x34>
    2c03: 86 12        	stx	$12                     ; 0x2012 <readMIDICmd+0x34>
    2c05: 85 13        	sta	$13                     ; 0x2013 <readMIDICmd+0x35>
    2c07: a0 13        	ldy	#$13
    2c09: b1 12        	lda	($12),y                 ; 0x2012 <readMIDICmd+0x34>
    2c0b: 85 14        	sta	$14                     ; 0x2014 <readMIDICmd+0x36>
    2c0d: c8           	iny
    2c0e: b1 12        	lda	($12),y                 ; 0x2012 <readMIDICmd+0x34>
    2c10: 85 2d        	sta	$2d                     ; 0x202d <readMIDICmd+0x4f>
    2c12: c8           	iny
    2c13: b1 12        	lda	($12),y                 ; 0x2012 <readMIDICmd+0x34>
    2c15: 85 2c        	sta	$2c                     ; 0x202c <readMIDICmd+0x4e>
    2c17: a4 72        	ldy	$72                     ; 0x2072 <readMIDICmd+0x94>
    2c19: a5 73        	lda	$73                     ; 0x2073 <readMIDICmd+0x95>
    2c1b: a6 14        	ldx	$14                     ; 0x2014 <readMIDICmd+0x36>
    2c1d: 8e 06 de     	stx	$de06                   ; 0xde06 <end_block9+0x98fa>
    2c20: 9c 07 de     	stz	$de07                   ; 0xde07 <end_block9+0x98fb>
    2c23: 8c 04 de     	sty	$de04                   ; 0xde04 <end_block9+0x98f8>
    2c26: 8d 05 de     	sta	$de05                   ; 0xde05 <end_block9+0x98f9>
    2c29: ae 14 de     	ldx	$de14                   ; 0xde14 <end_block9+0x9908>
    2c2c: 86 2b        	stx	$2b                     ; 0x202b <readMIDICmd+0x4d>
    2c2e: ae 15 de     	ldx	$de15                   ; 0xde15 <end_block9+0x9909>
    2c31: 86 28        	stx	$28                     ; 0x2028 <readMIDICmd+0x4a>
    2c33: 84 12        	sty	$12                     ; 0x2012 <readMIDICmd+0x34>
    2c35: 84 2e        	sty	$2e                     ; 0x202e <readMIDICmd+0x50>
    2c37: 85 13        	sta	$13                     ; 0x2013 <readMIDICmd+0x35>
    2c39: 85 2a        	sta	$2a                     ; 0x202a <readMIDICmd+0x4c>
    2c3b: a2 00        	ldx	#$0
    2c3d: a5 14        	lda	$14                     ; 0x2014 <readMIDICmd+0x36>
    2c3f: 20 56 43     	jsr	$4356 <__umodhi3>
    2c42: 85 12        	sta	$12                     ; 0x2012 <readMIDICmd+0x34>
    2c44: 86 13        	stx	$13                     ; 0x2013 <readMIDICmd+0x35>
    2c46: a6 2e        	ldx	$2e                     ; 0x202e <readMIDICmd+0x50>
    2c48: 86 14        	stx	$14                     ; 0x2014 <readMIDICmd+0x36>
    2c4a: a6 2a        	ldx	$2a                     ; 0x202a <readMIDICmd+0x4c>
    2c4c: 86 15        	stx	$15                     ; 0x2015 <readMIDICmd+0x37>
    2c4e: 64 16        	stz	$16                     ; 0x2016 <readMIDICmd+0x38>
    2c50: 64 17        	stz	$17                     ; 0x2017 <readMIDICmd+0x39>
    2c52: a6 2d        	ldx	$2d                     ; 0x202d <readMIDICmd+0x4f>
    2c54: a5 2c        	lda	$2c                     ; 0x202c <readMIDICmd+0x4e>
    2c56: 20 e7 41     	jsr	$41e7 <__udivsi3>
    2c59: 86 12        	stx	$12                     ; 0x2012 <readMIDICmd+0x34>
    2c5b: 0a           	asl
    2c5c: 26 12        	rol	$12                     ; 0x2012 <readMIDICmd+0x34>
    2c5e: a6 2b        	ldx	$2b                     ; 0x202b <readMIDICmd+0x4d>
    2c60: 86 14        	stx	$14                     ; 0x2014 <readMIDICmd+0x36>
    2c62: 26 14        	rol	$14                     ; 0x2014 <readMIDICmd+0x36>
    2c64: a6 28        	ldx	$28                     ; 0x2028 <readMIDICmd+0x4a>
    2c66: 86 15        	stx	$15                     ; 0x2015 <readMIDICmd+0x37>
    2c68: 26 15        	rol	$15                     ; 0x2015 <readMIDICmd+0x37>
    2c6a: 0a           	asl
    2c6b: 85 13        	sta	$13                     ; 0x2013 <readMIDICmd+0x35>
    2c6d: 26 12        	rol	$12                     ; 0x2012 <readMIDICmd+0x34>
    2c6f: 26 14        	rol	$14                     ; 0x2014 <readMIDICmd+0x36>
    2c71: 26 15        	rol	$15                     ; 0x2015 <readMIDICmd+0x37>
    2c73: 0a           	asl
    2c74: aa           	tax
    2c75: a5 12        	lda	$12                     ; 0x2012 <readMIDICmd+0x34>
    2c77: 2a           	rol
    2c78: a8           	tay
    2c79: a5 14        	lda	$14                     ; 0x2014 <readMIDICmd+0x36>
    2c7b: 2a           	rol
    2c7c: 85 16        	sta	$16                     ; 0x2016 <readMIDICmd+0x38>
    2c7e: a5 15        	lda	$15                     ; 0x2015 <readMIDICmd+0x37>
    2c80: 2a           	rol
    2c81: 85 18        	sta	$18                     ; 0x2018 <readMIDICmd+0x3a>
    2c83: 18           	clc
    2c84: 8a           	txa
    2c85: 65 13        	adc	$13                     ; 0x2013 <readMIDICmd+0x35>
    2c87: 85 13        	sta	$13                     ; 0x2013 <readMIDICmd+0x35>
    2c89: 98           	tya
    2c8a: 65 12        	adc	$12                     ; 0x2012 <readMIDICmd+0x34>
    2c8c: 85 17        	sta	$17                     ; 0x2017 <readMIDICmd+0x39>
    2c8e: a5 16        	lda	$16                     ; 0x2016 <readMIDICmd+0x38>
    2c90: 65 14        	adc	$14                     ; 0x2014 <readMIDICmd+0x36>
    2c92: 85 12        	sta	$12                     ; 0x2012 <readMIDICmd+0x34>
    2c94: a5 18        	lda	$18                     ; 0x2018 <readMIDICmd+0x3a>
    2c96: 65 15        	adc	$15                     ; 0x2015 <readMIDICmd+0x37>
    2c98: a6 13        	ldx	$13                     ; 0x2013 <readMIDICmd+0x35>
    2c9a: 86 74        	stx	$74                     ; 0x2074 <readMIDICmd+0x96>
    2c9c: a6 17        	ldx	$17                     ; 0x2017 <readMIDICmd+0x39>
    2c9e: 86 75        	stx	$75                     ; 0x2075 <readMIDICmd+0x97>
    2ca0: a6 12        	ldx	$12                     ; 0x2012 <readMIDICmd+0x34>
    2ca2: 86 76        	stx	$76                     ; 0x2076 <readMIDICmd+0x98>
    2ca4: 85 77        	sta	$77                     ; 0x2077 <readMIDICmd+0x99>
    2ca6: 4c 61 29     	jmp	$2961 <exhaustZeroes+0x143>
    2ca9: 85 14        	sta	$14                     ; 0x2014 <readMIDICmd+0x36>
    2cab: 46 14        	lsr	$14                     ; 0x2014 <readMIDICmd+0x36>
    2cad: a9 00        	lda	#$0
    2caf: 6a           	ror
    2cb0: 46 2d        	lsr	$2d                     ; 0x202d <readMIDICmd+0x4f>
    2cb2: 48           	pha
    2cb3: a5 2d        	lda	$2d                     ; 0x202d <readMIDICmd+0x4f>
    2cb5: a0 08        	ldy	#$8
    2cb7: 91 10        	sta	($10),y                 ; 0x2010 <readMIDICmd+0x32>
    2cb9: 68           	pla
    2cba: a6 2e        	ldx	$2e                     ; 0x202e <readMIDICmd+0x50>
    2cbc: 86 2d        	stx	$2d                     ; 0x202d <readMIDICmd+0x4f>
    2cbe: 66 2d        	ror	$2d                     ; 0x202d <readMIDICmd+0x4f>
    2cc0: 64 2e        	stz	$2e                     ; 0x202e <readMIDICmd+0x50>
    2cc2: 66 2e        	ror	$2e                     ; 0x202e <readMIDICmd+0x50>
    2cc4: 46 2b        	lsr	$2b                     ; 0x202b <readMIDICmd+0x4d>
    2cc6: a6 2b        	ldx	$2b                     ; 0x202b <readMIDICmd+0x4d>
    2cc8: 86 2c        	stx	$2c                     ; 0x202c <readMIDICmd+0x4e>
    2cca: 66 26        	ror	$26                     ; 0x2026 <readMIDICmd+0x48>
    2ccc: a6 26        	ldx	$26                     ; 0x2026 <readMIDICmd+0x48>
    2cce: 86 2b        	stx	$2b                     ; 0x202b <readMIDICmd+0x4d>
    2cd0: a6 28        	ldx	$28                     ; 0x2028 <readMIDICmd+0x4a>
    2cd2: 86 26        	stx	$26                     ; 0x2026 <readMIDICmd+0x48>
    2cd4: 66 26        	ror	$26                     ; 0x2026 <readMIDICmd+0x48>
    2cd6: 64 28        	stz	$28                     ; 0x2028 <readMIDICmd+0x4a>
    2cd8: 66 28        	ror	$28                     ; 0x2028 <readMIDICmd+0x4a>
    2cda: 29 80        	and	#$80
    2cdc: a0 0a        	ldy	#$a
    2cde: 91 10        	sta	($10),y                 ; 0x2010 <readMIDICmd+0x32>
    2ce0: a5 14        	lda	$14                     ; 0x2014 <readMIDICmd+0x36>
    2ce2: 29 3f        	and	#$3f
    2ce4: 88           	dey
    2ce5: 91 10        	sta	($10),y                 ; 0x2010 <readMIDICmd+0x32>
    2ce7: a6 7f        	ldx	$7f                     ; 0x207f <readMIDICmd+0xa1>
    2ce9: 86 2a        	stx	$2a                     ; 0x202a <readMIDICmd+0x4c>
    2ceb: a6 80        	ldx	$80                     ; 0x2080 <readMIDICmd+0xa2>
    2ced: 86 25        	stx	$25                     ; 0x2025 <readMIDICmd+0x47>
    2cef: a2 19        	ldx	#$19
    2cf1: 86 12        	stx	$12                     ; 0x2012 <readMIDICmd+0x34>
    2cf3: 64 13        	stz	$13                     ; 0x2013 <readMIDICmd+0x35>
    2cf5: a2 00        	ldx	#$0
    2cf7: a5 29        	lda	$29                     ; 0x2029 <readMIDICmd+0x4b>
    2cf9: 20 b5 41     	jsr	$41b5 <__mulhi3>
    2cfc: 85 12        	sta	$12                     ; 0x2012 <readMIDICmd+0x34>
    2cfe: 86 13        	stx	$13                     ; 0x2013 <readMIDICmd+0x35>
    2d00: 18           	clc
    2d01: a5 2a        	lda	$2a                     ; 0x202a <readMIDICmd+0x4c>
    2d03: 65 12        	adc	$12                     ; 0x2012 <readMIDICmd+0x34>
    2d05: a8           	tay
    2d06: a5 25        	lda	$25                     ; 0x2025 <readMIDICmd+0x47>
    2d08: 65 13        	adc	$13                     ; 0x2013 <readMIDICmd+0x35>
    2d0a: aa           	tax
    2d0b: 98           	tya
    2d0c: 18           	clc
    2d0d: 69 08        	adc	#$8
    2d0f: 85 12        	sta	$12                     ; 0x2012 <readMIDICmd+0x34>
    2d11: 8a           	txa
    2d12: 69 00        	adc	#$0
    2d14: 84 14        	sty	$14                     ; 0x2014 <readMIDICmd+0x36>
    2d16: 86 15        	stx	$15                     ; 0x2015 <readMIDICmd+0x37>
    2d18: 85 13        	sta	$13                     ; 0x2013 <readMIDICmd+0x35>
    2d1a: 18           	clc
    2d1b: 98           	tya
    2d1c: 69 04        	adc	#$4
    2d1e: 85 16        	sta	$16                     ; 0x2016 <readMIDICmd+0x38>
    2d20: 8a           	txa
    2d21: 69 00        	adc	#$0
    2d23: 85 17        	sta	$17                     ; 0x2017 <readMIDICmd+0x39>
    2d25: a0 04        	ldy	#$4
    2d27: b1 14        	lda	($14),y                 ; 0x2014 <readMIDICmd+0x36>
    2d29: 85 18        	sta	$18                     ; 0x2018 <readMIDICmd+0x3a>
    2d2b: a0 01        	ldy	#$1
    2d2d: b1 16        	lda	($16),y                 ; 0x2016 <readMIDICmd+0x38>
    2d2f: 85 19        	sta	$19                     ; 0x2019 <readMIDICmd+0x3b>
    2d31: c8           	iny
    2d32: b1 16        	lda	($16),y                 ; 0x2016 <readMIDICmd+0x38>
    2d34: 85 1d        	sta	$1d                     ; 0x201d <readMIDICmd+0x3f>
    2d36: c8           	iny
    2d37: b1 16        	lda	($16),y                 ; 0x2016 <readMIDICmd+0x38>
    2d39: 85 1b        	sta	$1b                     ; 0x201b <readMIDICmd+0x3d>
    2d3b: a5 18        	lda	$18                     ; 0x2018 <readMIDICmd+0x3a>
    2d3d: a4 19        	ldy	$19                     ; 0x2019 <readMIDICmd+0x3b>
    2d3f: a6 19        	ldx	$19                     ; 0x2019 <readMIDICmd+0x3b>
    2d41: 48           	pha
    2d42: a5 1d        	lda	$1d                     ; 0x201d <readMIDICmd+0x3f>
    2d44: 85 1c        	sta	$1c                     ; 0x201c <readMIDICmd+0x3e>
    2d46: a5 1d        	lda	$1d                     ; 0x201d <readMIDICmd+0x3f>
    2d48: 85 19        	sta	$19                     ; 0x2019 <readMIDICmd+0x3b>
    2d4a: 68           	pla
    2d4b: 1a           	inc
    2d4c: d0 06        	bne	$2d54 <exhaustZeroes+0x536>
    2d4e: c8           	iny
    2d4f: d0 03        	bne	$2d54 <exhaustZeroes+0x536>
    2d51: 4c 16 2f     	jmp	$2f16 <exhaustZeroes+0x6f8>
    2d54: 84 1d        	sty	$1d                     ; 0x201d <readMIDICmd+0x3f>
    2d56: a0 04        	ldy	#$4
    2d58: 91 14        	sta	($14),y                 ; 0x2014 <readMIDICmd+0x36>
    2d5a: a0 01        	ldy	#$1
    2d5c: a5 1d        	lda	$1d                     ; 0x201d <readMIDICmd+0x3f>
    2d5e: 91 16        	sta	($16),y                 ; 0x2016 <readMIDICmd+0x38>
    2d60: c8           	iny
    2d61: a5 1c        	lda	$1c                     ; 0x201c <readMIDICmd+0x3e>
    2d63: 91 16        	sta	($16),y                 ; 0x2016 <readMIDICmd+0x38>
    2d65: c8           	iny
    2d66: a5 1b        	lda	$1b                     ; 0x201b <readMIDICmd+0x3d>
    2d68: 91 16        	sta	($16),y                 ; 0x2016 <readMIDICmd+0x38>
    2d6a: 18           	clc
    2d6b: a0 08        	ldy	#$8
    2d6d: a5 18        	lda	$18                     ; 0x2018 <readMIDICmd+0x3a>
    2d6f: 71 14        	adc	($14),y                 ; 0x2014 <readMIDICmd+0x36>
    2d71: 85 14        	sta	$14                     ; 0x2014 <readMIDICmd+0x36>
    2d73: a0 01        	ldy	#$1
    2d75: 8a           	txa
    2d76: 71 12        	adc	($12),y                 ; 0x2012 <readMIDICmd+0x34>
    2d78: 85 15        	sta	$15                     ; 0x2015 <readMIDICmd+0x37>
    2d7a: a5 19        	lda	$19                     ; 0x2019 <readMIDICmd+0x3b>
    2d7c: c8           	iny
    2d7d: 71 12        	adc	($12),y                 ; 0x2012 <readMIDICmd+0x34>
    2d7f: a6 15        	ldx	$15                     ; 0x2015 <readMIDICmd+0x37>
    2d81: 86 12        	stx	$12                     ; 0x2012 <readMIDICmd+0x34>
    2d83: 06 12        	asl	$12                     ; 0x2012 <readMIDICmd+0x34>
    2d85: 2a           	rol
    2d86: 06 12        	asl	$12                     ; 0x2012 <readMIDICmd+0x34>
    2d88: 2a           	rol
    2d89: 06 12        	asl	$12                     ; 0x2012 <readMIDICmd+0x34>
    2d8b: 2a           	rol
    2d8c: a6 0f        	ldx	$f                      ; 0x200f <readMIDICmd+0x31>
    2d8e: 78           	sei
    2d8f: 85 0f        	sta	$f                      ; 0x200f <readMIDICmd+0x31>
    2d91: a4 14        	ldy	$14                     ; 0x2014 <readMIDICmd+0x36>
    2d93: 84 12        	sty	$12                     ; 0x2012 <readMIDICmd+0x34>
    2d95: a5 15        	lda	$15                     ; 0x2015 <readMIDICmd+0x37>
    2d97: 09 e0        	ora	#$e0
    2d99: 85 13        	sta	$13                     ; 0x2013 <readMIDICmd+0x35>
    2d9b: b2 12        	lda	($12)                   ; 0x2012 <readMIDICmd+0x34>
    2d9d: 86 0f        	stx	$f                      ; 0x200f <readMIDICmd+0x31>
    2d9f: 48           	pha
    2da0: a0 0a        	ldy	#$a
    2da2: b1 10        	lda	($10),y                 ; 0x2010 <readMIDICmd+0x32>
    2da4: 85 12        	sta	$12                     ; 0x2012 <readMIDICmd+0x34>
    2da6: 88           	dey
    2da7: b1 10        	lda	($10),y                 ; 0x2010 <readMIDICmd+0x32>
    2da9: 85 13        	sta	$13                     ; 0x2013 <readMIDICmd+0x35>
    2dab: 68           	pla
    2dac: 85 14        	sta	$14                     ; 0x2014 <readMIDICmd+0x36>
    2dae: 58           	cli
    2daf: 88           	dey
    2db0: b1 10        	lda	($10),y                 ; 0x2010 <readMIDICmd+0x32>
    2db2: 85 25        	sta	$25                     ; 0x2025 <readMIDICmd+0x47>
    2db4: a5 28        	lda	$28                     ; 0x2028 <readMIDICmd+0x4a>
    2db6: 05 2e        	ora	$2e                     ; 0x202e <readMIDICmd+0x50>
    2db8: a8           	tay
    2db9: a5 26        	lda	$26                     ; 0x2026 <readMIDICmd+0x48>
    2dbb: 05 2d        	ora	$2d                     ; 0x202d <readMIDICmd+0x4f>
    2dbd: aa           	tax
    2dbe: a5 2b        	lda	$2b                     ; 0x202b <readMIDICmd+0x4d>
    2dc0: 05 25        	ora	$25                     ; 0x2025 <readMIDICmd+0x47>
    2dc2: 85 25        	sta	$25                     ; 0x2025 <readMIDICmd+0x47>
    2dc4: 98           	tya
    2dc5: 05 12        	ora	$12                     ; 0x2012 <readMIDICmd+0x34>
    2dc7: a8           	tay
    2dc8: 8a           	txa
    2dc9: 05 13        	ora	$13                     ; 0x2013 <readMIDICmd+0x35>
    2dcb: 85 2a        	sta	$2a                     ; 0x202a <readMIDICmd+0x4c>
    2dcd: 98           	tya
    2dce: 05 14        	ora	$14                     ; 0x2014 <readMIDICmd+0x36>
    2dd0: 85 26        	sta	$26                     ; 0x2026 <readMIDICmd+0x48>
    2dd2: a6 7f        	ldx	$7f                     ; 0x207f <readMIDICmd+0xa1>
    2dd4: 86 2b        	stx	$2b                     ; 0x202b <readMIDICmd+0x4d>
    2dd6: a6 80        	ldx	$80                     ; 0x2080 <readMIDICmd+0xa2>
    2dd8: 86 28        	stx	$28                     ; 0x2028 <readMIDICmd+0x4a>
    2dda: a2 19        	ldx	#$19
    2ddc: 86 12        	stx	$12                     ; 0x2012 <readMIDICmd+0x34>
    2dde: 64 13        	stz	$13                     ; 0x2013 <readMIDICmd+0x35>
    2de0: a2 00        	ldx	#$0
    2de2: a5 29        	lda	$29                     ; 0x2029 <readMIDICmd+0x4b>
    2de4: 20 b5 41     	jsr	$41b5 <__mulhi3>
    2de7: 85 12        	sta	$12                     ; 0x2012 <readMIDICmd+0x34>
    2de9: 86 13        	stx	$13                     ; 0x2013 <readMIDICmd+0x35>
    2deb: 18           	clc
    2dec: a5 2b        	lda	$2b                     ; 0x202b <readMIDICmd+0x4d>
    2dee: 65 12        	adc	$12                     ; 0x2012 <readMIDICmd+0x34>
    2df0: a8           	tay
    2df1: a5 28        	lda	$28                     ; 0x2028 <readMIDICmd+0x4a>
    2df3: 65 13        	adc	$13                     ; 0x2013 <readMIDICmd+0x35>
    2df5: aa           	tax
    2df6: 98           	tya
    2df7: 84 12        	sty	$12                     ; 0x2012 <readMIDICmd+0x34>
    2df9: 86 13        	stx	$13                     ; 0x2013 <readMIDICmd+0x35>
    2dfb: 18           	clc
    2dfc: 69 0c        	adc	#$c
    2dfe: 85 14        	sta	$14                     ; 0x2014 <readMIDICmd+0x36>
    2e00: 8a           	txa
    2e01: 69 00        	adc	#$0
    2e03: 85 15        	sta	$15                     ; 0x2015 <readMIDICmd+0x37>
    2e05: a0 0c        	ldy	#$c
    2e07: a5 26        	lda	$26                     ; 0x2026 <readMIDICmd+0x48>
    2e09: 91 12        	sta	($12),y                 ; 0x2012 <readMIDICmd+0x34>
    2e0b: a0 01        	ldy	#$1
    2e0d: a5 2a        	lda	$2a                     ; 0x202a <readMIDICmd+0x4c>
    2e0f: 91 14        	sta	($14),y                 ; 0x2014 <readMIDICmd+0x36>
    2e11: c8           	iny
    2e12: a5 25        	lda	$25                     ; 0x2025 <readMIDICmd+0x47>
    2e14: 91 14        	sta	($14),y                 ; 0x2014 <readMIDICmd+0x36>
    2e16: c8           	iny
    2e17: a5 2c        	lda	$2c                     ; 0x202c <readMIDICmd+0x4e>
    2e19: 91 14        	sta	($14),y                 ; 0x2014 <readMIDICmd+0x36>
    2e1b: a5 29        	lda	$29                     ; 0x2029 <readMIDICmd+0x4b>
    2e1d: 20 de 1f     	jsr	$1fde <readMIDICmd>
    2e20: a6 7f        	ldx	$7f                     ; 0x207f <readMIDICmd+0xa1>
    2e22: a4 80        	ldy	$80                     ; 0x2080 <readMIDICmd+0xa2>
    2e24: 86 26        	stx	$26                     ; 0x2026 <readMIDICmd+0x48>
    2e26: 86 28        	stx	$28                     ; 0x2028 <readMIDICmd+0x4a>
    2e28: 84 25        	sty	$25                     ; 0x2025 <readMIDICmd+0x47>
    2e2a: 84 2a        	sty	$2a                     ; 0x202a <readMIDICmd+0x4c>
    2e2c: a2 19        	ldx	#$19
    2e2e: 86 12        	stx	$12                     ; 0x2012 <readMIDICmd+0x34>
    2e30: 64 13        	stz	$13                     ; 0x2013 <readMIDICmd+0x35>
    2e32: a6 2f        	ldx	$2f                     ; 0x202f <readMIDICmd+0x51>
    2e34: a5 29        	lda	$29                     ; 0x2029 <readMIDICmd+0x4b>
    2e36: 20 b5 41     	jsr	$41b5 <__mulhi3>
    2e39: 85 12        	sta	$12                     ; 0x2012 <readMIDICmd+0x34>
    2e3b: 86 13        	stx	$13                     ; 0x2013 <readMIDICmd+0x35>
    2e3d: 18           	clc
    2e3e: a5 28        	lda	$28                     ; 0x2028 <readMIDICmd+0x4a>
    2e40: 65 12        	adc	$12                     ; 0x2012 <readMIDICmd+0x34>
    2e42: aa           	tax
    2e43: a5 2a        	lda	$2a                     ; 0x202a <readMIDICmd+0x4c>
    2e45: 65 13        	adc	$13                     ; 0x2013 <readMIDICmd+0x35>
    2e47: 86 12        	stx	$12                     ; 0x2012 <readMIDICmd+0x34>
    2e49: 85 15        	sta	$15                     ; 0x2015 <readMIDICmd+0x37>
    2e4b: 85 13        	sta	$13                     ; 0x2013 <readMIDICmd+0x35>
    2e4d: a0 18        	ldy	#$18
    2e4f: b1 12        	lda	($12),y                 ; 0x2012 <readMIDICmd+0x34>
    2e51: f0 03        	beq	$2e56 <exhaustZeroes+0x638>
    2e53: 4c 06 2f     	jmp	$2f06 <exhaustZeroes+0x6e8>
    2e56: 18           	clc
    2e57: 8a           	txa
    2e58: 69 0c        	adc	#$c
    2e5a: 85 14        	sta	$14                     ; 0x2014 <readMIDICmd+0x36>
    2e5c: a5 15        	lda	$15                     ; 0x2015 <readMIDICmd+0x37>
    2e5e: 69 00        	adc	#$0
    2e60: 85 15        	sta	$15                     ; 0x2015 <readMIDICmd+0x37>
    2e62: a0 0c        	ldy	#$c
    2e64: b1 12        	lda	($12),y                 ; 0x2012 <readMIDICmd+0x34>
    2e66: 85 12        	sta	$12                     ; 0x2012 <readMIDICmd+0x34>
    2e68: a0 01        	ldy	#$1
    2e6a: b1 14        	lda	($14),y                 ; 0x2014 <readMIDICmd+0x36>
    2e6c: 85 13        	sta	$13                     ; 0x2013 <readMIDICmd+0x35>
    2e6e: c8           	iny
    2e6f: b1 14        	lda	($14),y                 ; 0x2014 <readMIDICmd+0x36>
    2e71: 85 16        	sta	$16                     ; 0x2016 <readMIDICmd+0x38>
    2e73: c8           	iny
    2e74: b1 14        	lda	($14),y                 ; 0x2014 <readMIDICmd+0x36>
    2e76: f0 03        	beq	$2e7b <exhaustZeroes+0x65d>
    2e78: 4c 06 2f     	jmp	$2f06 <exhaustZeroes+0x6e8>
    2e7b: a5 16        	lda	$16                     ; 0x2016 <readMIDICmd+0x38>
    2e7d: f0 03        	beq	$2e82 <exhaustZeroes+0x664>
    2e7f: 4c 06 2f     	jmp	$2f06 <exhaustZeroes+0x6e8>
    2e82: a5 13        	lda	$13                     ; 0x2013 <readMIDICmd+0x35>
    2e84: f0 03        	beq	$2e89 <exhaustZeroes+0x66b>
    2e86: 4c 06 2f     	jmp	$2f06 <exhaustZeroes+0x6e8>
    2e89: a5 12        	lda	$12                     ; 0x2012 <readMIDICmd+0x34>
    2e8b: f0 03        	beq	$2e90 <exhaustZeroes+0x672>
    2e8d: 4c 06 2f     	jmp	$2f06 <exhaustZeroes+0x6e8>
    2e90: a2 19        	ldx	#$19
    2e92: 86 12        	stx	$12                     ; 0x2012 <readMIDICmd+0x34>
    2e94: 64 13        	stz	$13                     ; 0x2013 <readMIDICmd+0x35>
    2e96: a2 00        	ldx	#$0
    2e98: a5 29        	lda	$29                     ; 0x2029 <readMIDICmd+0x4b>
    2e9a: 20 b5 41     	jsr	$41b5 <__mulhi3>
    2e9d: 18           	clc
    2e9e: 65 26        	adc	$26                     ; 0x2026 <readMIDICmd+0x48>
    2ea0: 85 12        	sta	$12                     ; 0x2012 <readMIDICmd+0x34>
    2ea2: 8a           	txa
    2ea3: 65 25        	adc	$25                     ; 0x2025 <readMIDICmd+0x47>
    2ea5: 85 13        	sta	$13                     ; 0x2013 <readMIDICmd+0x35>
    2ea7: a0 10        	ldy	#$10
    2ea9: b1 12        	lda	($12),y                 ; 0x2012 <readMIDICmd+0x34>
    2eab: c9 ff        	cmp	#$ff
    2ead: d0 03        	bne	$2eb2 <exhaustZeroes+0x694>
    2eaf: 4c 3b 29     	jmp	$293b <exhaustZeroes+0x11d>
    2eb2: 8d a1 dd     	sta	$dda1                   ; 0xdda1 <end_block9+0x9895>
    2eb5: a6 7f        	ldx	$7f                     ; 0x207f <readMIDICmd+0xa1>
    2eb7: 86 26        	stx	$26                     ; 0x2026 <readMIDICmd+0x48>
    2eb9: a6 80        	ldx	$80                     ; 0x2080 <readMIDICmd+0xa2>
    2ebb: 86 25        	stx	$25                     ; 0x2025 <readMIDICmd+0x47>
    2ebd: a2 19        	ldx	#$19
    2ebf: 86 12        	stx	$12                     ; 0x2012 <readMIDICmd+0x34>
    2ec1: 64 13        	stz	$13                     ; 0x2013 <readMIDICmd+0x35>
    2ec3: a2 00        	ldx	#$0
    2ec5: a5 29        	lda	$29                     ; 0x2029 <readMIDICmd+0x4b>
    2ec7: 20 b5 41     	jsr	$41b5 <__mulhi3>
    2eca: 86 14        	stx	$14                     ; 0x2014 <readMIDICmd+0x36>
    2ecc: 85 12        	sta	$12                     ; 0x2012 <readMIDICmd+0x34>
    2ece: 85 15        	sta	$15                     ; 0x2015 <readMIDICmd+0x37>
    2ed0: 18           	clc
    2ed1: a5 26        	lda	$26                     ; 0x2026 <readMIDICmd+0x48>
    2ed3: 65 12        	adc	$12                     ; 0x2012 <readMIDICmd+0x34>
    2ed5: aa           	tax
    2ed6: a5 25        	lda	$25                     ; 0x2025 <readMIDICmd+0x47>
    2ed8: 65 14        	adc	$14                     ; 0x2014 <readMIDICmd+0x36>
    2eda: 86 12        	stx	$12                     ; 0x2012 <readMIDICmd+0x34>
    2edc: 85 13        	sta	$13                     ; 0x2013 <readMIDICmd+0x35>
    2ede: a0 11        	ldy	#$11
    2ee0: b1 12        	lda	($12),y                 ; 0x2012 <readMIDICmd+0x34>
    2ee2: 8d a1 dd     	sta	$dda1                   ; 0xdda1 <end_block9+0x9895>
    2ee5: a6 7f        	ldx	$7f                     ; 0x207f <readMIDICmd+0xa1>
    2ee7: a4 80        	ldy	$80                     ; 0x2080 <readMIDICmd+0xa2>
    2ee9: 84 25        	sty	$25                     ; 0x2025 <readMIDICmd+0x47>
    2eeb: 18           	clc
    2eec: a5 15        	lda	$15                     ; 0x2015 <readMIDICmd+0x37>
    2eee: 65 7f        	adc	$7f                     ; 0x207f <readMIDICmd+0xa1>
    2ef0: 85 12        	sta	$12                     ; 0x2012 <readMIDICmd+0x34>
    2ef2: a5 14        	lda	$14                     ; 0x2014 <readMIDICmd+0x36>
    2ef4: 65 80        	adc	$80                     ; 0x2080 <readMIDICmd+0xa2>
    2ef6: 85 13        	sta	$13                     ; 0x2013 <readMIDICmd+0x35>
    2ef8: a0 17        	ldy	#$17
    2efa: b1 12        	lda	($12),y                 ; 0x2012 <readMIDICmd+0x34>
    2efc: d0 03        	bne	$2f01 <exhaustZeroes+0x6e3>
    2efe: 4c 52 29     	jmp	$2952 <exhaustZeroes+0x134>
    2f01: 86 26        	stx	$26                     ; 0x2026 <readMIDICmd+0x48>
    2f03: 4c 61 29     	jmp	$2961 <exhaustZeroes+0x143>
    2f06: a6 70        	ldx	$70                     ; 0x2070 <readMIDICmd+0x92>
    2f08: a4 71        	ldy	$71                     ; 0x2071 <readMIDICmd+0x93>
    2f0a: 86 27        	stx	$27                     ; 0x2027 <readMIDICmd+0x49>
    2f0c: 84 28        	sty	$28                     ; 0x2028 <readMIDICmd+0x4a>
    2f0e: 4c cb 28     	jmp	$28cb <exhaustZeroes+0xad>
    2f11: e6 1b        	inc	$1b                     ; 0x201b <readMIDICmd+0x3d>
    2f13: 4c 8c 2b     	jmp	$2b8c <exhaustZeroes+0x36e>
    2f16: e6 1c        	inc	$1c                     ; 0x201c <readMIDICmd+0x3e>
    2f18: d0 02        	bne	$2f1c <exhaustZeroes+0x6fe>
    2f1a: e6 1b        	inc	$1b                     ; 0x201b <readMIDICmd+0x3d>
    2f1c: 4c 54 2d     	jmp	$2d54 <exhaustZeroes+0x536>

00002f1f <exit>:
    2f1f: 20 47 03     	jsr	$347 <_fini>
    2f22: 80 fe        	bra	$2f22 <exit+0x3>

00002f24 <_ZN12_GLOBAL__N_13putEcP6Status>:
    2f24: 85 18        	sta	$18                     ; 0x2018 <readMIDICmd+0x3a>
    2f26: a6 13        	ldx	$13                     ; 0x2013 <readMIDICmd+0x35>
    2f28: 18           	clc
    2f29: a5 12        	lda	$12                     ; 0x2012 <readMIDICmd+0x34>
    2f2b: 69 05        	adc	#$5
    2f2d: a8           	tay
    2f2e: a5 13        	lda	$13                     ; 0x2013 <readMIDICmd+0x35>
    2f30: 86 15        	stx	$15                     ; 0x2015 <readMIDICmd+0x37>
    2f32: 69 00        	adc	#$0
    2f34: 18           	clc
    2f35: 84 16        	sty	$16                     ; 0x2016 <readMIDICmd+0x38>
    2f37: a0 05        	ldy	#$5
    2f39: 85 17        	sta	$17                     ; 0x2017 <readMIDICmd+0x39>
    2f3b: b1 12        	lda	($12),y                 ; 0x2012 <readMIDICmd+0x34>
    2f3d: aa           	tax
    2f3e: a5 12        	lda	$12                     ; 0x2012 <readMIDICmd+0x34>
    2f40: 69 03        	adc	#$3
    2f42: 85 14        	sta	$14                     ; 0x2014 <readMIDICmd+0x36>
    2f44: a5 15        	lda	$15                     ; 0x2015 <readMIDICmd+0x37>
    2f46: 69 00        	adc	#$0
    2f48: 85 15        	sta	$15                     ; 0x2015 <readMIDICmd+0x37>
    2f4a: a0 01        	ldy	#$1
    2f4c: b1 16        	lda	($16),y                 ; 0x2016 <readMIDICmd+0x38>
    2f4e: d1 14        	cmp	($14),y                 ; 0x2014 <readMIDICmd+0x36>
    2f50: d0 11        	bne	$2f63 <_ZN12_GLOBAL__N_13putEcP6Status+0x3f>
    2f52: a0 03        	ldy	#$3
    2f54: 85 17        	sta	$17                     ; 0x2017 <readMIDICmd+0x39>
    2f56: b1 12        	lda	($12),y                 ; 0x2012 <readMIDICmd+0x34>
    2f58: 85 14        	sta	$14                     ; 0x2014 <readMIDICmd+0x36>
    2f5a: 86 16        	stx	$16                     ; 0x2016 <readMIDICmd+0x38>
    2f5c: e4 14        	cpx	$14                     ; 0x2014 <readMIDICmd+0x36>
    2f5e: 90 0e        	bcc	$2f6e <_ZN12_GLOBAL__N_13putEcP6Status+0x4a>
    2f60: 4c cf 2f     	jmp	$2fcf <_ZN12_GLOBAL__N_13putEcP6Status+0xab>
    2f63: 86 16        	stx	$16                     ; 0x2016 <readMIDICmd+0x38>
    2f65: d1 14        	cmp	($14),y                 ; 0x2014 <readMIDICmd+0x36>
    2f67: 85 17        	sta	$17                     ; 0x2017 <readMIDICmd+0x39>
    2f69: 90 03        	bcc	$2f6e <_ZN12_GLOBAL__N_13putEcP6Status+0x4a>
    2f6b: 4c cf 2f     	jmp	$2fcf <_ZN12_GLOBAL__N_13putEcP6Status+0xab>
    2f6e: a5 12        	lda	$12                     ; 0x2012 <readMIDICmd+0x34>
    2f70: 18           	clc
    2f71: 69 0f        	adc	#$f
    2f73: 85 14        	sta	$14                     ; 0x2014 <readMIDICmd+0x36>
    2f75: a5 13        	lda	$13                     ; 0x2013 <readMIDICmd+0x35>
    2f77: 69 00        	adc	#$0
    2f79: 85 15        	sta	$15                     ; 0x2015 <readMIDICmd+0x37>
    2f7b: a0 01        	ldy	#$1
    2f7d: b1 14        	lda	($14),y                 ; 0x2014 <readMIDICmd+0x36>
    2f7f: a2 00        	ldx	#$0
    2f81: 86 14        	stx	$14                     ; 0x2014 <readMIDICmd+0x36>
    2f83: a2 00        	ldx	#$0
    2f85: 86 15        	stx	$15                     ; 0x2015 <readMIDICmd+0x37>
    2f87: c5 15        	cmp	$15                     ; 0x2015 <readMIDICmd+0x37>
    2f89: d0 2d        	bne	$2fb8 <_ZN12_GLOBAL__N_13putEcP6Status+0x94>
    2f8b: a0 0f        	ldy	#$f
    2f8d: b1 12        	lda	($12),y                 ; 0x2012 <readMIDICmd+0x34>
    2f8f: c5 14        	cmp	$14                     ; 0x2014 <readMIDICmd+0x36>
    2f91: d0 25        	bne	$2fb8 <_ZN12_GLOBAL__N_13putEcP6Status+0x94>
    2f93: a5 12        	lda	$12                     ; 0x2012 <readMIDICmd+0x34>
    2f95: 18           	clc
    2f96: 69 09        	adc	#$9
    2f98: 85 14        	sta	$14                     ; 0x2014 <readMIDICmd+0x36>
    2f9a: a5 13        	lda	$13                     ; 0x2013 <readMIDICmd+0x35>
    2f9c: 69 00        	adc	#$0
    2f9e: a0 09        	ldy	#$9
    2fa0: 85 15        	sta	$15                     ; 0x2015 <readMIDICmd+0x37>
    2fa2: 18           	clc
    2fa3: a5 16        	lda	$16                     ; 0x2016 <readMIDICmd+0x38>
    2fa5: 71 12        	adc	($12),y                 ; 0x2012 <readMIDICmd+0x34>
    2fa7: aa           	tax
    2fa8: a0 01        	ldy	#$1
    2faa: a5 17        	lda	$17                     ; 0x2017 <readMIDICmd+0x39>
    2fac: 71 14        	adc	($14),y                 ; 0x2014 <readMIDICmd+0x36>
    2fae: 86 14        	stx	$14                     ; 0x2014 <readMIDICmd+0x36>
    2fb0: 85 15        	sta	$15                     ; 0x2015 <readMIDICmd+0x37>
    2fb2: a5 18        	lda	$18                     ; 0x2018 <readMIDICmd+0x3a>
    2fb4: 92 14        	sta	($14)                   ; 0x2014 <readMIDICmd+0x36>
    2fb6: 80 17        	bra	$2fcf <_ZN12_GLOBAL__N_13putEcP6Status+0xab>
    2fb8: a6 12        	ldx	$12                     ; 0x2012 <readMIDICmd+0x34>
    2fba: 86 e2        	stx	$e2                     ; 0x20e2 <readMIDICmd+0x104>
    2fbc: a6 13        	ldx	$13                     ; 0x2013 <readMIDICmd+0x35>
    2fbe: 86 e3        	stx	$e3                     ; 0x20e3 <readMIDICmd+0x105>
    2fc0: a2 00        	ldx	#$0
    2fc2: a5 18        	lda	$18                     ; 0x2018 <readMIDICmd+0x3a>
    2fc4: 20 d6 3c     	jsr	$3cd6 <putchar>
    2fc7: a6 e2        	ldx	$e2                     ; 0x20e2 <readMIDICmd+0x104>
    2fc9: 86 12        	stx	$12                     ; 0x2012 <readMIDICmd+0x34>
    2fcb: a6 e3        	ldx	$e3                     ; 0x20e3 <readMIDICmd+0x105>
    2fcd: 86 13        	stx	$13                     ; 0x2013 <readMIDICmd+0x35>
    2fcf: a0 05        	ldy	#$5
    2fd1: a5 12        	lda	$12                     ; 0x2012 <readMIDICmd+0x34>
    2fd3: 18           	clc
    2fd4: 69 05        	adc	#$5
    2fd6: 85 14        	sta	$14                     ; 0x2014 <readMIDICmd+0x36>
    2fd8: a5 13        	lda	$13                     ; 0x2013 <readMIDICmd+0x35>
    2fda: 69 00        	adc	#$0
    2fdc: 85 15        	sta	$15                     ; 0x2015 <readMIDICmd+0x37>
    2fde: b1 12        	lda	($12),y                 ; 0x2012 <readMIDICmd+0x34>
    2fe0: aa           	tax
    2fe1: a0 01        	ldy	#$1
    2fe3: b1 14        	lda	($14),y                 ; 0x2014 <readMIDICmd+0x36>
    2fe5: e8           	inx
    2fe6: d0 01        	bne	$2fe9 <_ZN12_GLOBAL__N_13putEcP6Status+0xc5>
    2fe8: 1a           	inc
    2fe9: 85 16        	sta	$16                     ; 0x2016 <readMIDICmd+0x38>
    2feb: 8a           	txa
    2fec: a0 05        	ldy	#$5
    2fee: 91 12        	sta	($12),y                 ; 0x2012 <readMIDICmd+0x34>
    2ff0: a0 01        	ldy	#$1
    2ff2: a5 16        	lda	$16                     ; 0x2016 <readMIDICmd+0x38>
    2ff4: 91 14        	sta	($14),y                 ; 0x2014 <readMIDICmd+0x36>
    2ff6: 60           	rts

00002ff7 <_ZN12_GLOBAL__N_112print_stringEPKcP6Status>:
    2ff7: a6 12        	ldx	$12                     ; 0x2012 <readMIDICmd+0x34>
    2ff9: 86 da        	stx	$da                     ; 0x20da <readMIDICmd+0xfc>
    2ffb: a6 13        	ldx	$13                     ; 0x2013 <readMIDICmd+0x35>
    2ffd: 86 db        	stx	$db                     ; 0x20db <readMIDICmd+0xfd>
    2fff: a6 14        	ldx	$14                     ; 0x2014 <readMIDICmd+0x36>
    3001: 86 dc        	stx	$dc                     ; 0x20dc <readMIDICmd+0xfe>
    3003: a6 15        	ldx	$15                     ; 0x2015 <readMIDICmd+0x37>
    3005: 86 dd        	stx	$dd                     ; 0x20dd <readMIDICmd+0xff>
    3007: a5 dc        	lda	$dc                     ; 0x20dc <readMIDICmd+0xfe>
    3009: 18           	clc
    300a: 69 0d        	adc	#$d
    300c: 85 12        	sta	$12                     ; 0x2012 <readMIDICmd+0x34>
    300e: a5 dd        	lda	$dd                     ; 0x20dd <readMIDICmd+0xff>
    3010: 69 00        	adc	#$0
    3012: 85 13        	sta	$13                     ; 0x2013 <readMIDICmd+0x35>
    3014: a0 01        	ldy	#$1
    3016: b1 12        	lda	($12),y                 ; 0x2012 <readMIDICmd+0x34>
    3018: 30 16        	bmi	$3030 <_ZN12_GLOBAL__N_112print_stringEPKcP6Status+0x39>
    301a: a0 0d        	ldy	#$d
    301c: 85 12        	sta	$12                     ; 0x2012 <readMIDICmd+0x34>
    301e: b1 dc        	lda	($dc),y                 ; 0x20dc <readMIDICmd+0xfe>
    3020: a6 12        	ldx	$12                     ; 0x2012 <readMIDICmd+0x34>
    3022: 86 e1        	stx	$e1                     ; 0x20e1 <readMIDICmd+0x103>
    3024: d0 0f        	bne	$3035 <_ZN12_GLOBAL__N_112print_stringEPKcP6Status+0x3e>
    3026: aa           	tax
    3027: d0 0c        	bne	$3035 <_ZN12_GLOBAL__N_112print_stringEPKcP6Status+0x3e>
    3029: 64 de        	stz	$de                     ; 0x20de <readMIDICmd+0x100>
    302b: a2 00        	ldx	#$0
    302d: 4c fe 30     	jmp	$30fe <_ZN12_GLOBAL__N_112print_stringEPKcP6Status+0x107>
    3030: a9 ff        	lda	#$ff
    3032: aa           	tax
    3033: 86 e1        	stx	$e1                     ; 0x20e1 <readMIDICmd+0x103>
    3035: 85 de        	sta	$de                     ; 0x20de <readMIDICmd+0x100>
    3037: 64 12        	stz	$12                     ; 0x2012 <readMIDICmd+0x34>
    3039: a4 da        	ldy	$da                     ; 0x20da <readMIDICmd+0xfc>
    303b: a6 db        	ldx	$db                     ; 0x20db <readMIDICmd+0xfd>
    303d: 86 16        	stx	$16                     ; 0x2016 <readMIDICmd+0x38>
    303f: 64 13        	stz	$13                     ; 0x2013 <readMIDICmd+0x35>
    3041: 98           	tya
    3042: 18           	clc
    3043: 65 12        	adc	$12                     ; 0x2012 <readMIDICmd+0x34>
    3045: 85 14        	sta	$14                     ; 0x2014 <readMIDICmd+0x36>
    3047: a5 db        	lda	$db                     ; 0x20db <readMIDICmd+0xfd>
    3049: 65 13        	adc	$13                     ; 0x2013 <readMIDICmd+0x35>
    304b: 85 15        	sta	$15                     ; 0x2015 <readMIDICmd+0x37>
    304d: b2 14        	lda	($14)                   ; 0x2014 <readMIDICmd+0x36>
    304f: d0 03        	bne	$3054 <_ZN12_GLOBAL__N_112print_stringEPKcP6Status+0x5d>
    3051: 4c f8 30     	jmp	$30f8 <_ZN12_GLOBAL__N_112print_stringEPKcP6Status+0x101>
    3054: e6 12        	inc	$12                     ; 0x2012 <readMIDICmd+0x34>
    3056: d0 02        	bne	$305a <_ZN12_GLOBAL__N_112print_stringEPKcP6Status+0x63>
    3058: e6 13        	inc	$13                     ; 0x2013 <readMIDICmd+0x35>
    305a: a6 e1        	ldx	$e1                     ; 0x20e1 <readMIDICmd+0x103>
    305c: e4 13        	cpx	$13                     ; 0x2013 <readMIDICmd+0x35>
    305e: d0 e1        	bne	$3041 <_ZN12_GLOBAL__N_112print_stringEPKcP6Status+0x4a>
    3060: a6 de        	ldx	$de                     ; 0x20de <readMIDICmd+0x100>
    3062: e4 12        	cpx	$12                     ; 0x2012 <readMIDICmd+0x34>
    3064: d0 db        	bne	$3041 <_ZN12_GLOBAL__N_112print_stringEPKcP6Status+0x4a>
    3066: a0 01        	ldy	#$1
    3068: b1 dc        	lda	($dc),y                 ; 0x20dc <readMIDICmd+0xfe>
    306a: 29 01        	and	#$1
    306c: f0 03        	beq	$3071 <_ZN12_GLOBAL__N_112print_stringEPKcP6Status+0x7a>
    306e: 4c c9 30     	jmp	$30c9 <_ZN12_GLOBAL__N_112print_stringEPKcP6Status+0xd2>
    3071: a5 dc        	lda	$dc                     ; 0x20dc <readMIDICmd+0xfe>
    3073: 18           	clc
    3074: 69 0b        	adc	#$b
    3076: 85 14        	sta	$14                     ; 0x2014 <readMIDICmd+0x36>
    3078: a5 dd        	lda	$dd                     ; 0x20dd <readMIDICmd+0xff>
    307a: 69 00        	adc	#$0
    307c: 85 15        	sta	$15                     ; 0x2015 <readMIDICmd+0x37>
    307e: a0 0b        	ldy	#$b
    3080: b1 dc        	lda	($dc),y                 ; 0x20dc <readMIDICmd+0xfe>
    3082: 85 13        	sta	$13                     ; 0x2013 <readMIDICmd+0x35>
    3084: a0 01        	ldy	#$1
    3086: b1 14        	lda	($14),y                 ; 0x2014 <readMIDICmd+0x36>
    3088: 85 12        	sta	$12                     ; 0x2012 <readMIDICmd+0x34>
    308a: a6 e1        	ldx	$e1                     ; 0x20e1 <readMIDICmd+0x103>
    308c: e4 12        	cpx	$12                     ; 0x2012 <readMIDICmd+0x34>
    308e: d0 08        	bne	$3098 <_ZN12_GLOBAL__N_112print_stringEPKcP6Status+0xa1>
    3090: a6 de        	ldx	$de                     ; 0x20de <readMIDICmd+0x100>
    3092: e4 13        	cpx	$13                     ; 0x2013 <readMIDICmd+0x35>
    3094: 90 06        	bcc	$309c <_ZN12_GLOBAL__N_112print_stringEPKcP6Status+0xa5>
    3096: 80 31        	bra	$30c9 <_ZN12_GLOBAL__N_112print_stringEPKcP6Status+0xd2>
    3098: e4 12        	cpx	$12                     ; 0x2012 <readMIDICmd+0x34>
    309a: b0 2d        	bcs	$30c9 <_ZN12_GLOBAL__N_112print_stringEPKcP6Status+0xd2>
    309c: 38           	sec
    309d: a5 de        	lda	$de                     ; 0x20de <readMIDICmd+0x100>
    309f: e5 13        	sbc	$13                     ; 0x2013 <readMIDICmd+0x35>
    30a1: a8           	tay
    30a2: a5 e1        	lda	$e1                     ; 0x20e1 <readMIDICmd+0x103>
    30a4: e5 12        	sbc	$12                     ; 0x2012 <readMIDICmd+0x34>
    30a6: 85 e0        	sta	$e0                     ; 0x20e0 <readMIDICmd+0x102>
    30a8: a6 dc        	ldx	$dc                     ; 0x20dc <readMIDICmd+0xfe>
    30aa: 86 12        	stx	$12                     ; 0x2012 <readMIDICmd+0x34>
    30ac: a6 dd        	ldx	$dd                     ; 0x20dd <readMIDICmd+0xff>
    30ae: 86 13        	stx	$13                     ; 0x2013 <readMIDICmd+0x35>
    30b0: 84 df        	sty	$df                     ; 0x20df <readMIDICmd+0x101>
    30b2: a9 20        	lda	#$20
    30b4: 20 24 2f     	jsr	$2f24 <_ZN12_GLOBAL__N_13putEcP6Status>
    30b7: a6 e0        	ldx	$e0                     ; 0x20e0 <readMIDICmd+0x102>
    30b9: e6 df        	inc	$df                     ; 0x20df <readMIDICmd+0x101>
    30bb: d0 01        	bne	$30be <_ZN12_GLOBAL__N_112print_stringEPKcP6Status+0xc7>
    30bd: e8           	inx
    30be: 86 e0        	stx	$e0                     ; 0x20e0 <readMIDICmd+0x102>
    30c0: a4 df        	ldy	$df                     ; 0x20df <readMIDICmd+0x101>
    30c2: 8a           	txa
    30c3: d0 e3        	bne	$30a8 <_ZN12_GLOBAL__N_112print_stringEPKcP6Status+0xb1>
    30c5: a5 df        	lda	$df                     ; 0x20df <readMIDICmd+0x101>
    30c7: d0 df        	bne	$30a8 <_ZN12_GLOBAL__N_112print_stringEPKcP6Status+0xb1>
    30c9: a4 e1        	ldy	$e1                     ; 0x20e1 <readMIDICmd+0x103>
    30cb: d0 04        	bne	$30d1 <_ZN12_GLOBAL__N_112print_stringEPKcP6Status+0xda>
    30cd: a5 de        	lda	$de                     ; 0x20de <readMIDICmd+0x100>
    30cf: f0 26        	beq	$30f7 <_ZN12_GLOBAL__N_112print_stringEPKcP6Status+0x100>
    30d1: a2 ff        	ldx	#$ff
    30d3: c6 de        	dec	$de                     ; 0x20de <readMIDICmd+0x100>
    30d5: e4 de        	cpx	$de                     ; 0x20de <readMIDICmd+0x100>
    30d7: d0 01        	bne	$30da <_ZN12_GLOBAL__N_112print_stringEPKcP6Status+0xe3>
    30d9: 88           	dey
    30da: 84 df        	sty	$df                     ; 0x20df <readMIDICmd+0x101>
    30dc: b2 da        	lda	($da)                   ; 0x20da <readMIDICmd+0xfc>
    30de: e6 da        	inc	$da                     ; 0x20da <readMIDICmd+0xfc>
    30e0: d0 02        	bne	$30e4 <_ZN12_GLOBAL__N_112print_stringEPKcP6Status+0xed>
    30e2: e6 db        	inc	$db                     ; 0x20db <readMIDICmd+0xfd>
    30e4: a6 dc        	ldx	$dc                     ; 0x20dc <readMIDICmd+0xfe>
    30e6: 86 12        	stx	$12                     ; 0x2012 <readMIDICmd+0x34>
    30e8: a6 dd        	ldx	$dd                     ; 0x20dd <readMIDICmd+0xff>
    30ea: 86 13        	stx	$13                     ; 0x2013 <readMIDICmd+0x35>
    30ec: 20 24 2f     	jsr	$2f24 <_ZN12_GLOBAL__N_13putEcP6Status>
    30ef: a4 df        	ldy	$df                     ; 0x20df <readMIDICmd+0x101>
    30f1: d0 de        	bne	$30d1 <_ZN12_GLOBAL__N_112print_stringEPKcP6Status+0xda>
    30f3: a5 de        	lda	$de                     ; 0x20de <readMIDICmd+0x100>
    30f5: d0 da        	bne	$30d1 <_ZN12_GLOBAL__N_112print_stringEPKcP6Status+0xda>
    30f7: 60           	rts
    30f8: a6 12        	ldx	$12                     ; 0x2012 <readMIDICmd+0x34>
    30fa: 86 de        	stx	$de                     ; 0x20de <readMIDICmd+0x100>
    30fc: a6 13        	ldx	$13                     ; 0x2013 <readMIDICmd+0x35>
    30fe: 86 e1        	stx	$e1                     ; 0x20e1 <readMIDICmd+0x103>
    3100: 4c 66 30     	jmp	$3066 <_ZN12_GLOBAL__N_112print_stringEPKcP6Status+0x6f>

00003103 <printf>:
    3103: 18           	clc
    3104: a6 10        	ldx	$10                     ; 0x2010 <readMIDICmd+0x32>
    3106: a4 11        	ldy	$11                     ; 0x2011 <readMIDICmd+0x33>
    3108: 86 d0        	stx	$d0                     ; 0x20d0 <readMIDICmd+0xf2>
    310a: 84 d1        	sty	$d1                     ; 0x20d1 <readMIDICmd+0xf3>
    310c: a6 d0        	ldx	$d0                     ; 0x20d0 <readMIDICmd+0xf2>
    310e: a4 d1        	ldy	$d1                     ; 0x20d1 <readMIDICmd+0xf3>
    3110: 86 bb        	stx	$bb                     ; 0x20bb <readMIDICmd+0xdd>
    3112: 84 bc        	sty	$bc                     ; 0x20bc <readMIDICmd+0xde>
    3114: a2 ff        	ldx	#$ff
    3116: 86 c0        	stx	$c0                     ; 0x20c0 <readMIDICmd+0xe2>
    3118: 86 c1        	stx	$c1                     ; 0x20c1 <readMIDICmd+0xe3>
    311a: 64 c2        	stz	$c2                     ; 0x20c2 <readMIDICmd+0xe4>
    311c: 64 c3        	stz	$c3                     ; 0x20c3 <readMIDICmd+0xe5>
    311e: e8           	inx
    311f: 86 8f        	stx	$8f                     ; 0x208f <readMIDICmd+0xb1>
    3121: a2 00        	ldx	#$0
    3123: 86 90        	stx	$90                     ; 0x2090 <readMIDICmd+0xb2>
    3125: a6 8f        	ldx	$8f                     ; 0x208f <readMIDICmd+0xb1>
    3127: a4 90        	ldy	$90                     ; 0x2090 <readMIDICmd+0xb2>
    3129: 86 c6        	stx	$c6                     ; 0x20c6 <readMIDICmd+0xe8>
    312b: 84 c7        	sty	$c7                     ; 0x20c7 <readMIDICmd+0xe9>
    312d: a2 02        	ldx	#$2
    312f: 86 cc        	stx	$cc                     ; 0x20cc <readMIDICmd+0xee>
    3131: 64 cd        	stz	$cd                     ; 0x20cd <readMIDICmd+0xef>
    3133: a6 bb        	ldx	$bb                     ; 0x20bb <readMIDICmd+0xdd>
    3135: a4 bc        	ldy	$bc                     ; 0x20bc <readMIDICmd+0xde>
    3137: 86 ce        	stx	$ce                     ; 0x20ce <readMIDICmd+0xf0>
    3139: 84 cf        	sty	$cf                     ; 0x20cf <readMIDICmd+0xf1>
    313b: a2 b2        	ldx	#$b2
    313d: a0 00        	ldy	#$0
    313f: 86 12        	stx	$12                     ; 0x2012 <readMIDICmd+0x34>
    3141: 84 13        	sty	$13                     ; 0x2013 <readMIDICmd+0x35>
    3143: a0 01        	ldy	#$1
    3145: a9 99        	lda	#$99
    3147: 18           	clc
    3148: 69 02        	adc	#$2
    314a: 85 d8        	sta	$d8                     ; 0x20d8 <readMIDICmd+0xfa>
    314c: a9 00        	lda	#$0
    314e: 69 00        	adc	#$0
    3150: 85 d9        	sta	$d9                     ; 0x20d9 <readMIDICmd+0xfb>
    3152: e6 12        	inc	$12                     ; 0x2012 <readMIDICmd+0x34>
    3154: d0 02        	bne	$3158 <printf+0x55>
    3156: e6 13        	inc	$13                     ; 0x2013 <readMIDICmd+0x35>
    3158: a6 12        	ldx	$12                     ; 0x2012 <readMIDICmd+0x34>
    315a: 86 d4        	stx	$d4                     ; 0x20d4 <readMIDICmd+0xf6>
    315c: a6 13        	ldx	$13                     ; 0x2013 <readMIDICmd+0x35>
    315e: 86 d5        	stx	$d5                     ; 0x20d5 <readMIDICmd+0xf7>
    3160: a2 ea        	ldx	#$ea
    3162: 86 93        	stx	$93                     ; 0x2093 <readMIDICmd+0xb5>
    3164: a2 44        	ldx	#$44
    3166: 86 94        	stx	$94                     ; 0x2094 <readMIDICmd+0xb6>
    3168: a6 93        	ldx	$93                     ; 0x2093 <readMIDICmd+0xb5>
    316a: 86 91        	stx	$91                     ; 0x2091 <readMIDICmd+0xb3>
    316c: a6 94        	ldx	$94                     ; 0x2094 <readMIDICmd+0xb6>
    316e: 86 92        	stx	$92                     ; 0x2092 <readMIDICmd+0xb4>
    3170: b2 93        	lda	($93)                   ; 0x2093 <readMIDICmd+0xb5>
    3172: c9 25        	cmp	#$25
    3174: f0 23        	beq	$3199 <printf+0x96>
    3176: a2 00        	ldx	#$0
    3178: a8           	tay
    3179: d0 03        	bne	$317e <printf+0x7b>
    317b: 4c d5 3c     	jmp	$3cd5 <printf+0xbd2>
    317e: 20 d6 3c     	jsr	$3cd6 <putchar>
    3181: a0 01        	ldy	#$1
    3183: e6 91        	inc	$91                     ; 0x2091 <readMIDICmd+0xb3>
    3185: d0 02        	bne	$3189 <printf+0x86>
    3187: e6 92        	inc	$92                     ; 0x2092 <readMIDICmd+0xb4>
    3189: e6 c2        	inc	$c2                     ; 0x20c2 <readMIDICmd+0xe4>
    318b: d0 02        	bne	$318f <printf+0x8c>
    318d: e6 c3        	inc	$c3                     ; 0x20c3 <readMIDICmd+0xe5>
    318f: a6 91        	ldx	$91                     ; 0x2091 <readMIDICmd+0xb3>
    3191: 86 93        	stx	$93                     ; 0x2093 <readMIDICmd+0xb5>
    3193: a6 92        	ldx	$92                     ; 0x2092 <readMIDICmd+0xb4>
    3195: 86 94        	stx	$94                     ; 0x2094 <readMIDICmd+0xb6>
    3197: 80 cf        	bra	$3168 <printf+0x65>
    3199: a6 93        	ldx	$93                     ; 0x2093 <readMIDICmd+0xb5>
    319b: 86 12        	stx	$12                     ; 0x2012 <readMIDICmd+0x34>
    319d: a6 94        	ldx	$94                     ; 0x2094 <readMIDICmd+0xb6>
    319f: 86 13        	stx	$13                     ; 0x2013 <readMIDICmd+0x35>
    31a1: e6 12        	inc	$12                     ; 0x2012 <readMIDICmd+0x34>
    31a3: d0 02        	bne	$31a7 <printf+0xa4>
    31a5: e6 13        	inc	$13                     ; 0x2013 <readMIDICmd+0x35>
    31a7: b1 91        	lda	($91),y                 ; 0x2091 <readMIDICmd+0xb3>
    31a9: c9 25        	cmp	#$25
    31ab: d0 16        	bne	$31c3 <printf+0xc0>
    31ad: a4 c2        	ldy	$c2                     ; 0x20c2 <readMIDICmd+0xe4>
    31af: a5 c3        	lda	$c3                     ; 0x20c3 <readMIDICmd+0xe5>
    31b1: c5 c1        	cmp	$c1                     ; 0x20c1 <readMIDICmd+0xe3>
    31b3: f0 03        	beq	$31b8 <printf+0xb5>
    31b5: 4c c9 32     	jmp	$32c9 <printf+0x1c6>
    31b8: a6 c0        	ldx	$c0                     ; 0x20c0 <readMIDICmd+0xe2>
    31ba: 86 12        	stx	$12                     ; 0x2012 <readMIDICmd+0x34>
    31bc: 84 13        	sty	$13                     ; 0x2013 <readMIDICmd+0x35>
    31be: c4 12        	cpy	$12                     ; 0x2012 <readMIDICmd+0x34>
    31c0: 4c cd 32     	jmp	$32cd <printf+0x1ca>
    31c3: 64 be        	stz	$be                     ; 0x20be <readMIDICmd+0xe0>
    31c5: 64 bf        	stz	$bf                     ; 0x20bf <readMIDICmd+0xe1>
    31c7: 64 bd        	stz	$bd                     ; 0x20bd <readMIDICmd+0xdf>
    31c9: 64 c8        	stz	$c8                     ; 0x20c8 <readMIDICmd+0xea>
    31cb: 64 c9        	stz	$c9                     ; 0x20c9 <readMIDICmd+0xeb>
    31cd: a2 ff        	ldx	#$ff
    31cf: 86 ca        	stx	$ca                     ; 0x20ca <readMIDICmd+0xec>
    31d1: 86 cb        	stx	$cb                     ; 0x20cb <readMIDICmd+0xed>
    31d3: 64 8e        	stz	$8e                     ; 0x208e <readMIDICmd+0xb0>
    31d5: 80 33        	bra	$320a <printf+0x107>
    31d7: a2 02        	ldx	#$2
    31d9: 80 15        	bra	$31f0 <printf+0xed>
    31db: e0 20        	cpx	#$20
    31dd: f0 15        	beq	$31f4 <printf+0xf1>
    31df: 86 15        	stx	$15                     ; 0x2015 <readMIDICmd+0x37>
    31e1: e0 23        	cpx	#$23
    31e3: f0 03        	beq	$31e8 <printf+0xe5>
    31e5: 4c 67 32     	jmp	$3267 <printf+0x164>
    31e8: a5 8e        	lda	$8e                     ; 0x208e <readMIDICmd+0xb0>
    31ea: a2 04        	ldx	#$4
    31ec: 80 02        	bra	$31f0 <printf+0xed>
    31ee: a2 10        	ldx	#$10
    31f0: 86 14        	stx	$14                     ; 0x2014 <readMIDICmd+0x36>
    31f2: 80 06        	bra	$31fa <printf+0xf7>
    31f4: a2 08        	ldx	#$8
    31f6: 86 14        	stx	$14                     ; 0x2014 <readMIDICmd+0x36>
    31f8: a5 8e        	lda	$8e                     ; 0x208e <readMIDICmd+0xb0>
    31fa: 05 14        	ora	$14                     ; 0x2014 <readMIDICmd+0x36>
    31fc: 85 8e        	sta	$8e                     ; 0x208e <readMIDICmd+0xb0>
    31fe: 85 be        	sta	$be                     ; 0x20be <readMIDICmd+0xe0>
    3200: a2 00        	ldx	#$0
    3202: 86 bf        	stx	$bf                     ; 0x20bf <readMIDICmd+0xe1>
    3204: e6 12        	inc	$12                     ; 0x2012 <readMIDICmd+0x34>
    3206: d0 02        	bne	$320a <printf+0x107>
    3208: e6 13        	inc	$13                     ; 0x2013 <readMIDICmd+0x35>
    320a: b2 12        	lda	($12)                   ; 0x2012 <readMIDICmd+0x34>
    320c: 18           	clc
    320d: aa           	tax
    320e: 69 d6        	adc	#$d6
    3210: c9 07        	cmp	#$7
    3212: b0 c7        	bcs	$31db <printf+0xd8>
    3214: 86 15        	stx	$15                     ; 0x2015 <readMIDICmd+0x37>
    3216: 0a           	asl
    3217: aa           	tax
    3218: a0 01        	ldy	#$1
    321a: 84 14        	sty	$14                     ; 0x2014 <readMIDICmd+0x36>
    321c: a5 8e        	lda	$8e                     ; 0x208e <readMIDICmd+0xb0>
    321e: 7c b0 44     	jmp	($44b0,x)               ; 0x44b0 <__set_v+0xb5>
    3221: a5 ce        	lda	$ce                     ; 0x20ce <readMIDICmd+0xf0>
    3223: a6 cf        	ldx	$cf                     ; 0x20cf <readMIDICmd+0xf1>
    3225: 85 16        	sta	$16                     ; 0x2016 <readMIDICmd+0x38>
    3227: 86 17        	stx	$17                     ; 0x2017 <readMIDICmd+0x39>
    3229: 18           	clc
    322a: 69 02        	adc	#$2
    322c: a8           	tay
    322d: 8a           	txa
    322e: 69 00        	adc	#$0
    3230: 84 ce        	sty	$ce                     ; 0x20ce <readMIDICmd+0xf0>
    3232: 85 cf        	sta	$cf                     ; 0x20cf <readMIDICmd+0xf1>
    3234: b2 16        	lda	($16)                   ; 0x2016 <readMIDICmd+0x38>
    3236: 85 15        	sta	$15                     ; 0x2015 <readMIDICmd+0x37>
    3238: a0 01        	ldy	#$1
    323a: b1 16        	lda	($16),y                 ; 0x2016 <readMIDICmd+0x38>
    323c: 85 14        	sta	$14                     ; 0x2014 <readMIDICmd+0x36>
    323e: 10 15        	bpl	$3255 <printf+0x152>
    3240: a5 8e        	lda	$8e                     ; 0x208e <readMIDICmd+0xb0>
    3242: 09 01        	ora	#$1
    3244: 85 8e        	sta	$8e                     ; 0x208e <readMIDICmd+0xb0>
    3246: 85 be        	sta	$be                     ; 0x20be <readMIDICmd+0xe0>
    3248: a2 00        	ldx	#$0
    324a: 86 bf        	stx	$bf                     ; 0x20bf <readMIDICmd+0xe1>
    324c: 8a           	txa
    324d: 38           	sec
    324e: e5 15        	sbc	$15                     ; 0x2015 <readMIDICmd+0x37>
    3250: 85 15        	sta	$15                     ; 0x2015 <readMIDICmd+0x37>
    3252: 8a           	txa
    3253: e5 14        	sbc	$14                     ; 0x2014 <readMIDICmd+0x36>
    3255: a6 15        	ldx	$15                     ; 0x2015 <readMIDICmd+0x37>
    3257: 86 c8        	stx	$c8                     ; 0x20c8 <readMIDICmd+0xea>
    3259: 85 c9        	sta	$c9                     ; 0x20c9 <readMIDICmd+0xeb>
    325b: e6 12        	inc	$12                     ; 0x2012 <readMIDICmd+0x34>
    325d: f0 03        	beq	$3262 <printf+0x15f>
    325f: 4c 1d 33     	jmp	$331d <printf+0x21a>
    3262: e6 13        	inc	$13                     ; 0x2013 <readMIDICmd+0x35>
    3264: 4c 1d 33     	jmp	$331d <printf+0x21a>
    3267: 18           	clc
    3268: a5 15        	lda	$15                     ; 0x2015 <readMIDICmd+0x37>
    326a: 69 d0        	adc	#$d0
    326c: c9 0a        	cmp	#$a
    326e: 90 03        	bcc	$3273 <printf+0x170>
    3270: 4c 0f 33     	jmp	$330f <printf+0x20c>
    3273: a6 15        	ldx	$15                     ; 0x2015 <readMIDICmd+0x37>
    3275: 86 14        	stx	$14                     ; 0x2014 <readMIDICmd+0x36>
    3277: 64 16        	stz	$16                     ; 0x2016 <readMIDICmd+0x38>
    3279: 64 15        	stz	$15                     ; 0x2015 <readMIDICmd+0x37>
    327b: 64 17        	stz	$17                     ; 0x2017 <readMIDICmd+0x39>
    327d: a0 01        	ldy	#$1
    327f: 06 16        	asl	$16                     ; 0x2016 <readMIDICmd+0x38>
    3281: 26 17        	rol	$17                     ; 0x2017 <readMIDICmd+0x39>
    3283: a5 16        	lda	$16                     ; 0x2016 <readMIDICmd+0x38>
    3285: 0a           	asl
    3286: aa           	tax
    3287: a5 17        	lda	$17                     ; 0x2017 <readMIDICmd+0x39>
    3289: 2a           	rol
    328a: 86 18        	stx	$18                     ; 0x2018 <readMIDICmd+0x3a>
    328c: 06 18        	asl	$18                     ; 0x2018 <readMIDICmd+0x3a>
    328e: 2a           	rol
    328f: aa           	tax
    3290: a5 18        	lda	$18                     ; 0x2018 <readMIDICmd+0x3a>
    3292: 18           	clc
    3293: 65 16        	adc	$16                     ; 0x2016 <readMIDICmd+0x38>
    3295: 85 16        	sta	$16                     ; 0x2016 <readMIDICmd+0x38>
    3297: 8a           	txa
    3298: 65 17        	adc	$17                     ; 0x2017 <readMIDICmd+0x39>
    329a: 85 17        	sta	$17                     ; 0x2017 <readMIDICmd+0x39>
    329c: a5 16        	lda	$16                     ; 0x2016 <readMIDICmd+0x38>
    329e: 18           	clc
    329f: 65 14        	adc	$14                     ; 0x2014 <readMIDICmd+0x36>
    32a1: 85 14        	sta	$14                     ; 0x2014 <readMIDICmd+0x36>
    32a3: a5 17        	lda	$17                     ; 0x2017 <readMIDICmd+0x39>
    32a5: 65 15        	adc	$15                     ; 0x2015 <readMIDICmd+0x37>
    32a7: aa           	tax
    32a8: 18           	clc
    32a9: a5 14        	lda	$14                     ; 0x2014 <readMIDICmd+0x36>
    32ab: 69 d0        	adc	#$d0
    32ad: 85 16        	sta	$16                     ; 0x2016 <readMIDICmd+0x38>
    32af: 8a           	txa
    32b0: 69 ff        	adc	#$ff
    32b2: 85 17        	sta	$17                     ; 0x2017 <readMIDICmd+0x39>
    32b4: b1 12        	lda	($12),y                 ; 0x2012 <readMIDICmd+0x34>
    32b6: 85 14        	sta	$14                     ; 0x2014 <readMIDICmd+0x36>
    32b8: 18           	clc
    32b9: 69 d0        	adc	#$d0
    32bb: e6 12        	inc	$12                     ; 0x2012 <readMIDICmd+0x34>
    32bd: d0 02        	bne	$32c1 <printf+0x1be>
    32bf: e6 13        	inc	$13                     ; 0x2013 <readMIDICmd+0x35>
    32c1: c9 0a        	cmp	#$a
    32c3: 64 15        	stz	$15                     ; 0x2015 <readMIDICmd+0x37>
    32c5: 90 b8        	bcc	$327f <printf+0x17c>
    32c7: 80 4c        	bra	$3315 <printf+0x212>
    32c9: 84 13        	sty	$13                     ; 0x2013 <readMIDICmd+0x35>
    32cb: c5 c1        	cmp	$c1                     ; 0x20c1 <readMIDICmd+0xe3>
    32cd: a0 01        	ldy	#$1
    32cf: b0 28        	bcs	$32f9 <printf+0x1f6>
    32d1: a6 cd        	ldx	$cd                     ; 0x20cd <readMIDICmd+0xef>
    32d3: e4 90        	cpx	$90                     ; 0x2090 <readMIDICmd+0xb2>
    32d5: d0 19        	bne	$32f0 <printf+0x1ed>
    32d7: a6 cc        	ldx	$cc                     ; 0x20cc <readMIDICmd+0xee>
    32d9: e4 8f        	cpx	$8f                     ; 0x208f <readMIDICmd+0xb1>
    32db: d0 13        	bne	$32f0 <printf+0x1ed>
    32dd: 18           	clc
    32de: aa           	tax
    32df: a5 13        	lda	$13                     ; 0x2013 <readMIDICmd+0x35>
    32e1: 65 c6        	adc	$c6                     ; 0x20c6 <readMIDICmd+0xe8>
    32e3: 85 12        	sta	$12                     ; 0x2012 <readMIDICmd+0x34>
    32e5: 8a           	txa
    32e6: 65 c7        	adc	$c7                     ; 0x20c7 <readMIDICmd+0xe9>
    32e8: 85 13        	sta	$13                     ; 0x2013 <readMIDICmd+0x35>
    32ea: a9 25        	lda	#$25
    32ec: 92 12        	sta	($12)                   ; 0x2012 <readMIDICmd+0x34>
    32ee: 80 09        	bra	$32f9 <printf+0x1f6>
    32f0: a2 00        	ldx	#$0
    32f2: a9 25        	lda	#$25
    32f4: 20 d6 3c     	jsr	$3cd6 <putchar>
    32f7: a0 01        	ldy	#$1
    32f9: e6 c2        	inc	$c2                     ; 0x20c2 <readMIDICmd+0xe4>
    32fb: d0 02        	bne	$32ff <printf+0x1fc>
    32fd: e6 c3        	inc	$c3                     ; 0x20c3 <readMIDICmd+0xe5>
    32ff: a5 91        	lda	$91                     ; 0x2091 <readMIDICmd+0xb3>
    3301: 18           	clc
    3302: 69 02        	adc	#$2
    3304: 85 93        	sta	$93                     ; 0x2093 <readMIDICmd+0xb5>
    3306: a5 92        	lda	$92                     ; 0x2092 <readMIDICmd+0xb4>
    3308: 69 00        	adc	#$0
    330a: 85 94        	sta	$94                     ; 0x2094 <readMIDICmd+0xb6>
    330c: 4c 68 31     	jmp	$3168 <printf+0x65>
    330f: 64 16        	stz	$16                     ; 0x2016 <readMIDICmd+0x38>
    3311: 64 17        	stz	$17                     ; 0x2017 <readMIDICmd+0x39>
    3313: a0 01        	ldy	#$1
    3315: a6 16        	ldx	$16                     ; 0x2016 <readMIDICmd+0x38>
    3317: 86 c8        	stx	$c8                     ; 0x20c8 <readMIDICmd+0xea>
    3319: a5 17        	lda	$17                     ; 0x2017 <readMIDICmd+0x39>
    331b: 85 c9        	sta	$c9                     ; 0x20c9 <readMIDICmd+0xeb>
    331d: 86 97        	stx	$97                     ; 0x2097 <readMIDICmd+0xb9>
    331f: 85 95        	sta	$95                     ; 0x2095 <readMIDICmd+0xb7>
    3321: b2 12        	lda	($12)                   ; 0x2012 <readMIDICmd+0x34>
    3323: a2 ff        	ldx	#$ff
    3325: c9 2e        	cmp	#$2e
    3327: d0 39        	bne	$3362 <printf+0x25f>
    3329: b1 12        	lda	($12),y                 ; 0x2012 <readMIDICmd+0x34>
    332b: c9 2a        	cmp	#$2a
    332d: d0 38        	bne	$3367 <printf+0x264>
    332f: a5 ce        	lda	$ce                     ; 0x20ce <readMIDICmd+0xf0>
    3331: a6 cf        	ldx	$cf                     ; 0x20cf <readMIDICmd+0xf1>
    3333: 85 14        	sta	$14                     ; 0x2014 <readMIDICmd+0x36>
    3335: 86 15        	stx	$15                     ; 0x2015 <readMIDICmd+0x37>
    3337: 18           	clc
    3338: 69 02        	adc	#$2
    333a: 85 16        	sta	$16                     ; 0x2016 <readMIDICmd+0x38>
    333c: 8a           	txa
    333d: 69 00        	adc	#$0
    333f: a6 16        	ldx	$16                     ; 0x2016 <readMIDICmd+0x38>
    3341: 86 ce        	stx	$ce                     ; 0x20ce <readMIDICmd+0xf0>
    3343: 85 cf        	sta	$cf                     ; 0x20cf <readMIDICmd+0xf1>
    3345: a5 12        	lda	$12                     ; 0x2012 <readMIDICmd+0x34>
    3347: 18           	clc
    3348: 69 02        	adc	#$2
    334a: 85 12        	sta	$12                     ; 0x2012 <readMIDICmd+0x34>
    334c: a5 13        	lda	$13                     ; 0x2013 <readMIDICmd+0x35>
    334e: 69 00        	adc	#$0
    3350: 85 13        	sta	$13                     ; 0x2013 <readMIDICmd+0x35>
    3352: b2 14        	lda	($14)                   ; 0x2014 <readMIDICmd+0x36>
    3354: aa           	tax
    3355: b1 14        	lda	($14),y                 ; 0x2014 <readMIDICmd+0x36>
    3357: 86 18        	stx	$18                     ; 0x2018 <readMIDICmd+0x3a>
    3359: 86 ca        	stx	$ca                     ; 0x20ca <readMIDICmd+0xec>
    335b: 85 19        	sta	$19                     ; 0x2019 <readMIDICmd+0x3b>
    335d: 85 cb        	sta	$cb                     ; 0x20cb <readMIDICmd+0xed>
    335f: 4c 12 34     	jmp	$3412 <printf+0x30f>
    3362: 86 18        	stx	$18                     ; 0x2018 <readMIDICmd+0x3a>
    3364: 4c 22 34     	jmp	$3422 <printf+0x31f>
    3367: 18           	clc
    3368: 85 17        	sta	$17                     ; 0x2017 <readMIDICmd+0x39>
    336a: 69 d0        	adc	#$d0
    336c: c9 0a        	cmp	#$a
    336e: 90 03        	bcc	$3373 <printf+0x270>
    3370: 4c 04 34     	jmp	$3404 <printf+0x301>
    3373: 64 16        	stz	$16                     ; 0x2016 <readMIDICmd+0x38>
    3375: a2 01        	ldx	#$1
    3377: 64 18        	stz	$18                     ; 0x2018 <readMIDICmd+0x3a>
    3379: 64 19        	stz	$19                     ; 0x2019 <readMIDICmd+0x3b>
    337b: a0 01        	ldy	#$1
    337d: 64 1a        	stz	$1a                     ; 0x201a <readMIDICmd+0x3c>
    337f: 5a           	phy
    3380: a4 1a        	ldy	$1a                     ; 0x201a <readMIDICmd+0x3c>
    3382: 84 14        	sty	$14                     ; 0x2014 <readMIDICmd+0x36>
    3384: 86 15        	stx	$15                     ; 0x2015 <readMIDICmd+0x37>
    3386: 06 18        	asl	$18                     ; 0x2018 <readMIDICmd+0x3a>
    3388: 26 19        	rol	$19                     ; 0x2019 <readMIDICmd+0x3b>
    338a: a5 18        	lda	$18                     ; 0x2018 <readMIDICmd+0x3a>
    338c: 0a           	asl
    338d: 85 1d        	sta	$1d                     ; 0x201d <readMIDICmd+0x3f>
    338f: a5 19        	lda	$19                     ; 0x2019 <readMIDICmd+0x3b>
    3391: 2a           	rol
    3392: 06 1d        	asl	$1d                     ; 0x201d <readMIDICmd+0x3f>
    3394: 2a           	rol
    3395: 85 1e        	sta	$1e                     ; 0x201e <readMIDICmd+0x40>
    3397: a5 1d        	lda	$1d                     ; 0x201d <readMIDICmd+0x3f>
    3399: 18           	clc
    339a: 65 18        	adc	$18                     ; 0x2018 <readMIDICmd+0x3a>
    339c: 85 18        	sta	$18                     ; 0x2018 <readMIDICmd+0x3a>
    339e: a5 1e        	lda	$1e                     ; 0x201e <readMIDICmd+0x40>
    33a0: 65 19        	adc	$19                     ; 0x2019 <readMIDICmd+0x3b>
    33a2: 85 19        	sta	$19                     ; 0x2019 <readMIDICmd+0x3b>
    33a4: a5 18        	lda	$18                     ; 0x2018 <readMIDICmd+0x3a>
    33a6: 18           	clc
    33a7: 65 17        	adc	$17                     ; 0x2017 <readMIDICmd+0x39>
    33a9: 85 17        	sta	$17                     ; 0x2017 <readMIDICmd+0x39>
    33ab: a5 19        	lda	$19                     ; 0x2019 <readMIDICmd+0x3b>
    33ad: 65 16        	adc	$16                     ; 0x2016 <readMIDICmd+0x38>
    33af: 85 16        	sta	$16                     ; 0x2016 <readMIDICmd+0x38>
    33b1: 18           	clc
    33b2: a5 17        	lda	$17                     ; 0x2017 <readMIDICmd+0x39>
    33b4: 69 d0        	adc	#$d0
    33b6: 85 18        	sta	$18                     ; 0x2018 <readMIDICmd+0x3a>
    33b8: a5 16        	lda	$16                     ; 0x2016 <readMIDICmd+0x38>
    33ba: 69 ff        	adc	#$ff
    33bc: 85 19        	sta	$19                     ; 0x2019 <readMIDICmd+0x3b>
    33be: e8           	inx
    33bf: d0 02        	bne	$33c3 <printf+0x2c0>
    33c1: e6 1a        	inc	$1a                     ; 0x201a <readMIDICmd+0x3c>
    33c3: a5 12        	lda	$12                     ; 0x2012 <readMIDICmd+0x34>
    33c5: 18           	clc
    33c6: 65 15        	adc	$15                     ; 0x2015 <readMIDICmd+0x37>
    33c8: 85 1d        	sta	$1d                     ; 0x201d <readMIDICmd+0x3f>
    33ca: a5 13        	lda	$13                     ; 0x2013 <readMIDICmd+0x35>
    33cc: 65 14        	adc	$14                     ; 0x2014 <readMIDICmd+0x36>
    33ce: a4 1d        	ldy	$1d                     ; 0x201d <readMIDICmd+0x3f>
    33d0: 84 16        	sty	$16                     ; 0x2016 <readMIDICmd+0x38>
    33d2: 7a           	ply
    33d3: 85 17        	sta	$17                     ; 0x2017 <readMIDICmd+0x39>
    33d5: b1 16        	lda	($16),y                 ; 0x2016 <readMIDICmd+0x38>
    33d7: 85 17        	sta	$17                     ; 0x2017 <readMIDICmd+0x39>
    33d9: 18           	clc
    33da: 69 d0        	adc	#$d0
    33dc: c9 0a        	cmp	#$a
    33de: 64 16        	stz	$16                     ; 0x2016 <readMIDICmd+0x38>
    33e0: b0 03        	bcs	$33e5 <printf+0x2e2>
    33e2: 4c 7f 33     	jmp	$337f <printf+0x27c>
    33e5: a5 12        	lda	$12                     ; 0x2012 <readMIDICmd+0x34>
    33e7: 18           	clc
    33e8: 65 15        	adc	$15                     ; 0x2015 <readMIDICmd+0x37>
    33ea: 85 12        	sta	$12                     ; 0x2012 <readMIDICmd+0x34>
    33ec: a5 13        	lda	$13                     ; 0x2013 <readMIDICmd+0x35>
    33ee: 65 14        	adc	$14                     ; 0x2014 <readMIDICmd+0x36>
    33f0: 85 13        	sta	$13                     ; 0x2013 <readMIDICmd+0x35>
    33f2: e6 12        	inc	$12                     ; 0x2012 <readMIDICmd+0x34>
    33f4: d0 02        	bne	$33f8 <printf+0x2f5>
    33f6: e6 13        	inc	$13                     ; 0x2013 <readMIDICmd+0x35>
    33f8: a6 18        	ldx	$18                     ; 0x2018 <readMIDICmd+0x3a>
    33fa: 86 ca        	stx	$ca                     ; 0x20ca <readMIDICmd+0xec>
    33fc: a6 19        	ldx	$19                     ; 0x2019 <readMIDICmd+0x3b>
    33fe: 86 cb        	stx	$cb                     ; 0x20cb <readMIDICmd+0xed>
    3400: a0 01        	ldy	#$1
    3402: 80 0e        	bra	$3412 <printf+0x30f>
    3404: e6 12        	inc	$12                     ; 0x2012 <readMIDICmd+0x34>
    3406: d0 02        	bne	$340a <printf+0x307>
    3408: e6 13        	inc	$13                     ; 0x2013 <readMIDICmd+0x35>
    340a: 64 18        	stz	$18                     ; 0x2018 <readMIDICmd+0x3a>
    340c: 64 ca        	stz	$ca                     ; 0x20ca <readMIDICmd+0xec>
    340e: 64 cb        	stz	$cb                     ; 0x20cb <readMIDICmd+0xed>
    3410: 64 19        	stz	$19                     ; 0x2019 <readMIDICmd+0x3b>
    3412: a5 8e        	lda	$8e                     ; 0x208e <readMIDICmd+0xb0>
    3414: 29 ef        	and	#$ef
    3416: 85 8e        	sta	$8e                     ; 0x208e <readMIDICmd+0xb0>
    3418: 85 be        	sta	$be                     ; 0x20be <readMIDICmd+0xe0>
    341a: a2 00        	ldx	#$0
    341c: 86 bf        	stx	$bf                     ; 0x20bf <readMIDICmd+0xe1>
    341e: b2 12        	lda	($12)                   ; 0x2012 <readMIDICmd+0x34>
    3420: a6 19        	ldx	$19                     ; 0x2019 <readMIDICmd+0x3b>
    3422: 86 15        	stx	$15                     ; 0x2015 <readMIDICmd+0x37>
    3424: a6 12        	ldx	$12                     ; 0x2012 <readMIDICmd+0x34>
    3426: 86 93        	stx	$93                     ; 0x2093 <readMIDICmd+0xb5>
    3428: a6 13        	ldx	$13                     ; 0x2013 <readMIDICmd+0x35>
    342a: 86 94        	stx	$94                     ; 0x2094 <readMIDICmd+0xb6>
    342c: e6 93        	inc	$93                     ; 0x2093 <readMIDICmd+0xb5>
    342e: d0 02        	bne	$3432 <printf+0x32f>
    3430: e6 94        	inc	$94                     ; 0x2094 <readMIDICmd+0xb6>
    3432: 85 14        	sta	$14                     ; 0x2014 <readMIDICmd+0x36>
    3434: 38           	sec
    3435: e9 6c        	sbc	#$6c
    3437: 50 02        	bvc	$343b <printf+0x338>
    3439: 49 80        	eor	#$80
    343b: aa           	tax
    343c: 10 1d        	bpl	$345b <printf+0x358>
    343e: a5 14        	lda	$14                     ; 0x2014 <readMIDICmd+0x36>
    3440: c9 4c        	cmp	#$4c
    3442: f0 27        	beq	$346b <printf+0x368>
    3444: c9 68        	cmp	#$68
    3446: d0 03        	bne	$344b <printf+0x348>
    3448: 4c d2 34     	jmp	$34d2 <printf+0x3cf>
    344b: a2 08        	ldx	#$8
    344d: c9 6a        	cmp	#$6a
    344f: d0 2e        	bne	$347f <printf+0x37c>
    3451: a5 93        	lda	$93                     ; 0x2093 <readMIDICmd+0xb5>
    3453: 85 12        	sta	$12                     ; 0x2012 <readMIDICmd+0x34>
    3455: a5 94        	lda	$94                     ; 0x2094 <readMIDICmd+0xb6>
    3457: 85 13        	sta	$13                     ; 0x2013 <readMIDICmd+0x35>
    3459: 80 43        	bra	$349e <printf+0x39b>
    345b: a6 14        	ldx	$14                     ; 0x2014 <readMIDICmd+0x36>
    345d: e0 6c        	cpx	#$6c
    345f: f0 23        	beq	$3484 <printf+0x381>
    3461: e0 74        	cpx	#$74
    3463: f0 12        	beq	$3477 <printf+0x374>
    3465: e0 7a        	cpx	#$7a
    3467: f0 0e        	beq	$3477 <printf+0x374>
    3469: 80 14        	bra	$347f <printf+0x37c>
    346b: a5 8e        	lda	$8e                     ; 0x208e <readMIDICmd+0xb0>
    346d: 09 40        	ora	#$40
    346f: 85 8e        	sta	$8e                     ; 0x208e <readMIDICmd+0xb0>
    3471: 85 be        	sta	$be                     ; 0x20be <readMIDICmd+0xe0>
    3473: a2 00        	ldx	#$0
    3475: 86 bf        	stx	$bf                     ; 0x20bf <readMIDICmd+0xe1>
    3477: a6 93        	ldx	$93                     ; 0x2093 <readMIDICmd+0xb5>
    3479: 86 12        	stx	$12                     ; 0x2012 <readMIDICmd+0x34>
    347b: a6 94        	ldx	$94                     ; 0x2094 <readMIDICmd+0xb6>
    347d: 86 13        	stx	$13                     ; 0x2013 <readMIDICmd+0x35>
    347f: a2 02        	ldx	#$2
    3481: 8a           	txa
    3482: 80 1c        	bra	$34a0 <printf+0x39d>
    3484: b1 12        	lda	($12),y                 ; 0x2012 <readMIDICmd+0x34>
    3486: a2 04        	ldx	#$4
    3488: c9 6c        	cmp	#$6c
    348a: f0 03        	beq	$348f <printf+0x38c>
    348c: 4c e1 37     	jmp	$37e1 <printf+0x6de>
    348f: a5 12        	lda	$12                     ; 0x2012 <readMIDICmd+0x34>
    3491: 18           	clc
    3492: 69 02        	adc	#$2
    3494: 85 12        	sta	$12                     ; 0x2012 <readMIDICmd+0x34>
    3496: a5 13        	lda	$13                     ; 0x2013 <readMIDICmd+0x35>
    3498: 69 00        	adc	#$0
    349a: 85 13        	sta	$13                     ; 0x2013 <readMIDICmd+0x35>
    349c: a2 08        	ldx	#$8
    349e: a9 08        	lda	#$8
    34a0: 85 d3        	sta	$d3                     ; 0x20d3 <readMIDICmd+0xf5>
    34a2: b2 12        	lda	($12)                   ; 0x2012 <readMIDICmd+0x34>
    34a4: 5a           	phy
    34a5: a4 12        	ldy	$12                     ; 0x2012 <readMIDICmd+0x34>
    34a7: 84 93        	sty	$93                     ; 0x2093 <readMIDICmd+0xb5>
    34a9: a4 13        	ldy	$13                     ; 0x2013 <readMIDICmd+0x35>
    34ab: 84 94        	sty	$94                     ; 0x2094 <readMIDICmd+0xb6>
    34ad: 7a           	ply
    34ae: 86 8f        	stx	$8f                     ; 0x208f <readMIDICmd+0xb1>
    34b0: aa           	tax
    34b1: 18           	clc
    34b2: 69 9d        	adc	#$9d
    34b4: c9 16        	cmp	#$16
    34b6: b0 39        	bcs	$34f1 <printf+0x3ee>
    34b8: 0a           	asl
    34b9: aa           	tax
    34ba: 7c be 44     	jmp	($44be,x)               ; 0x44be <__set_v+0xc3>
    34bd: a6 15        	ldx	$15                     ; 0x2015 <readMIDICmd+0x37>
    34bf: 86 d6        	stx	$d6                     ; 0x20d6 <readMIDICmd+0xf8>
    34c1: a6 18        	ldx	$18                     ; 0x2018 <readMIDICmd+0x3a>
    34c3: 86 d7        	stx	$d7                     ; 0x20d7 <readMIDICmd+0xf9>
    34c5: a0 0a        	ldy	#$a
    34c7: a2 0a        	ldx	#$a
    34c9: 86 d2        	stx	$d2                     ; 0x20d2 <readMIDICmd+0xf4>
    34cb: 84 bd        	sty	$bd                     ; 0x20bd <readMIDICmd+0xdf>
    34cd: 64 98        	stz	$98                     ; 0x2098 <readMIDICmd+0xba>
    34cf: 4c f1 35     	jmp	$35f1 <printf+0x4ee>
    34d2: b1 12        	lda	($12),y                 ; 0x2012 <readMIDICmd+0x34>
    34d4: a2 02        	ldx	#$2
    34d6: c9 68        	cmp	#$68
    34d8: f0 03        	beq	$34dd <printf+0x3da>
    34da: 4c e7 37     	jmp	$37e7 <printf+0x6e4>
    34dd: a5 12        	lda	$12                     ; 0x2012 <readMIDICmd+0x34>
    34df: 18           	clc
    34e0: 69 02        	adc	#$2
    34e2: 85 12        	sta	$12                     ; 0x2012 <readMIDICmd+0x34>
    34e4: a5 13        	lda	$13                     ; 0x2013 <readMIDICmd+0x35>
    34e6: 69 00        	adc	#$0
    34e8: 85 13        	sta	$13                     ; 0x2013 <readMIDICmd+0x35>
    34ea: a2 01        	ldx	#$1
    34ec: 86 d3        	stx	$d3                     ; 0x20d3 <readMIDICmd+0xf5>
    34ee: e8           	inx
    34ef: 80 b1        	bra	$34a2 <printf+0x39f>
    34f1: e0 58        	cpx	#$58
    34f3: f0 03        	beq	$34f8 <printf+0x3f5>
    34f5: 4c 8f 3c     	jmp	$3c8f <printf+0xb8c>
    34f8: a6 15        	ldx	$15                     ; 0x2015 <readMIDICmd+0x37>
    34fa: 86 d6        	stx	$d6                     ; 0x20d6 <readMIDICmd+0xf8>
    34fc: a6 18        	ldx	$18                     ; 0x2018 <readMIDICmd+0x3a>
    34fe: 86 d7        	stx	$d7                     ; 0x20d7 <readMIDICmd+0xf9>
    3500: a2 10        	ldx	#$10
    3502: 86 bd        	stx	$bd                     ; 0x20bd <readMIDICmd+0xdf>
    3504: a9 00        	lda	#$0
    3506: 09 01        	ora	#$1
    3508: a6 8e        	ldx	$8e                     ; 0x208e <readMIDICmd+0xb0>
    350a: 80 29        	bra	$3535 <printf+0x432>
    350c: a6 15        	ldx	$15                     ; 0x2015 <readMIDICmd+0x37>
    350e: 86 d6        	stx	$d6                     ; 0x20d6 <readMIDICmd+0xf8>
    3510: a6 18        	ldx	$18                     ; 0x2018 <readMIDICmd+0x3a>
    3512: 86 d7        	stx	$d7                     ; 0x20d7 <readMIDICmd+0xf9>
    3514: a2 10        	ldx	#$10
    3516: 86 bd        	stx	$bd                     ; 0x20bd <readMIDICmd+0xdf>
    3518: a5 8e        	lda	$8e                     ; 0x208e <readMIDICmd+0xb0>
    351a: 09 84        	ora	#$84
    351c: 80 10        	bra	$352e <printf+0x42b>
    351e: a6 15        	ldx	$15                     ; 0x2015 <readMIDICmd+0x37>
    3520: 86 d6        	stx	$d6                     ; 0x20d6 <readMIDICmd+0xf8>
    3522: a6 18        	ldx	$18                     ; 0x2018 <readMIDICmd+0x3a>
    3524: 86 d7        	stx	$d7                     ; 0x20d7 <readMIDICmd+0xf9>
    3526: a2 10        	ldx	#$10
    3528: 86 bd        	stx	$bd                     ; 0x20bd <readMIDICmd+0xdf>
    352a: a5 8e        	lda	$8e                     ; 0x208e <readMIDICmd+0xb0>
    352c: 09 80        	ora	#$80
    352e: aa           	tax
    352f: a9 00        	lda	#$0
    3531: 09 01        	ora	#$1
    3533: 86 8e        	stx	$8e                     ; 0x208e <readMIDICmd+0xb0>
    3535: 86 be        	stx	$be                     ; 0x20be <readMIDICmd+0xe0>
    3537: 85 98        	sta	$98                     ; 0x2098 <readMIDICmd+0xba>
    3539: 85 bf        	sta	$bf                     ; 0x20bf <readMIDICmd+0xe1>
    353b: a2 10        	ldx	#$10
    353d: 86 d2        	stx	$d2                     ; 0x20d2 <readMIDICmd+0xf4>
    353f: 4c f1 35     	jmp	$35f1 <printf+0x4ee>
    3542: a5 ce        	lda	$ce                     ; 0x20ce <readMIDICmd+0xf0>
    3544: a6 cf        	ldx	$cf                     ; 0x20cf <readMIDICmd+0xf1>
    3546: 85 12        	sta	$12                     ; 0x2012 <readMIDICmd+0x34>
    3548: 86 13        	stx	$13                     ; 0x2013 <readMIDICmd+0x35>
    354a: 18           	clc
    354b: 69 02        	adc	#$2
    354d: 85 14        	sta	$14                     ; 0x2014 <readMIDICmd+0x36>
    354f: 8a           	txa
    3550: 69 00        	adc	#$0
    3552: a6 14        	ldx	$14                     ; 0x2014 <readMIDICmd+0x36>
    3554: 86 ce        	stx	$ce                     ; 0x20ce <readMIDICmd+0xf0>
    3556: 85 cf        	sta	$cf                     ; 0x20cf <readMIDICmd+0xf1>
    3558: b2 12        	lda	($12)                   ; 0x2012 <readMIDICmd+0x34>
    355a: aa           	tax
    355b: b1 12        	lda	($12),y                 ; 0x2012 <readMIDICmd+0x34>
    355d: 86 12        	stx	$12                     ; 0x2012 <readMIDICmd+0x34>
    355f: 85 13        	sta	$13                     ; 0x2013 <readMIDICmd+0x35>
    3561: a5 c2        	lda	$c2                     ; 0x20c2 <readMIDICmd+0xe4>
    3563: a6 c3        	ldx	$c3                     ; 0x20c3 <readMIDICmd+0xe5>
    3565: 92 12        	sta	($12)                   ; 0x2012 <readMIDICmd+0x34>
    3567: 8a           	txa
    3568: 91 12        	sta	($12),y                 ; 0x2012 <readMIDICmd+0x34>
    356a: 4c ca 35     	jmp	$35ca <printf+0x4c7>
    356d: a5 ce        	lda	$ce                     ; 0x20ce <readMIDICmd+0xf0>
    356f: a6 cf        	ldx	$cf                     ; 0x20cf <readMIDICmd+0xf1>
    3571: 85 12        	sta	$12                     ; 0x2012 <readMIDICmd+0x34>
    3573: 86 13        	stx	$13                     ; 0x2013 <readMIDICmd+0x35>
    3575: 18           	clc
    3576: 69 02        	adc	#$2
    3578: 85 14        	sta	$14                     ; 0x2014 <readMIDICmd+0x36>
    357a: 8a           	txa
    357b: 69 00        	adc	#$0
    357d: a6 14        	ldx	$14                     ; 0x2014 <readMIDICmd+0x36>
    357f: 86 ce        	stx	$ce                     ; 0x20ce <readMIDICmd+0xf0>
    3581: 85 cf        	sta	$cf                     ; 0x20cf <readMIDICmd+0xf1>
    3583: b2 12        	lda	($12)                   ; 0x2012 <readMIDICmd+0x34>
    3585: aa           	tax
    3586: b1 12        	lda	($12),y                 ; 0x2012 <readMIDICmd+0x34>
    3588: 86 12        	stx	$12                     ; 0x2012 <readMIDICmd+0x34>
    358a: 85 13        	sta	$13                     ; 0x2013 <readMIDICmd+0x35>
    358c: 80 2f        	bra	$35bd <printf+0x4ba>
    358e: a6 15        	ldx	$15                     ; 0x2015 <readMIDICmd+0x37>
    3590: 86 d6        	stx	$d6                     ; 0x20d6 <readMIDICmd+0xf8>
    3592: a6 18        	ldx	$18                     ; 0x2018 <readMIDICmd+0x3a>
    3594: 86 d7        	stx	$d7                     ; 0x20d7 <readMIDICmd+0xf9>
    3596: a0 08        	ldy	#$8
    3598: a2 08        	ldx	#$8
    359a: 80 45        	bra	$35e1 <printf+0x4de>
    359c: a5 ce        	lda	$ce                     ; 0x20ce <readMIDICmd+0xf0>
    359e: a6 cf        	ldx	$cf                     ; 0x20cf <readMIDICmd+0xf1>
    35a0: 85 12        	sta	$12                     ; 0x2012 <readMIDICmd+0x34>
    35a2: 86 13        	stx	$13                     ; 0x2013 <readMIDICmd+0x35>
    35a4: 18           	clc
    35a5: 69 02        	adc	#$2
    35a7: a8           	tay
    35a8: 8a           	txa
    35a9: 69 00        	adc	#$0
    35ab: 84 ce        	sty	$ce                     ; 0x20ce <readMIDICmd+0xf0>
    35ad: 85 cf        	sta	$cf                     ; 0x20cf <readMIDICmd+0xf1>
    35af: b2 12        	lda	($12)                   ; 0x2012 <readMIDICmd+0x34>
    35b1: 85 b0        	sta	$b0                     ; 0x20b0 <readMIDICmd+0xd2>
    35b3: 64 b1        	stz	$b1                     ; 0x20b1 <readMIDICmd+0xd3>
    35b5: a2 b0        	ldx	#$b0
    35b7: 86 12        	stx	$12                     ; 0x2012 <readMIDICmd+0x34>
    35b9: a2 00        	ldx	#$0
    35bb: 86 13        	stx	$13                     ; 0x2013 <readMIDICmd+0x35>
    35bd: a2 bd        	ldx	#$bd
    35bf: 86 14        	stx	$14                     ; 0x2014 <readMIDICmd+0x36>
    35c1: a2 00        	ldx	#$0
    35c3: 86 15        	stx	$15                     ; 0x2015 <readMIDICmd+0x37>
    35c5: 20 f7 2f     	jsr	$2ff7 <_ZN12_GLOBAL__N_112print_stringEPKcP6Status>
    35c8: a0 01        	ldy	#$1
    35ca: a2 00        	ldx	#$0
    35cc: 86 8f        	stx	$8f                     ; 0x208f <readMIDICmd+0xb1>
    35ce: a2 00        	ldx	#$0
    35d0: 86 90        	stx	$90                     ; 0x2090 <readMIDICmd+0xb2>
    35d2: 4c 77 3c     	jmp	$3c77 <printf+0xb74>
    35d5: a6 15        	ldx	$15                     ; 0x2015 <readMIDICmd+0x37>
    35d7: 86 d6        	stx	$d6                     ; 0x20d6 <readMIDICmd+0xf8>
    35d9: a6 18        	ldx	$18                     ; 0x2018 <readMIDICmd+0x3a>
    35db: 86 d7        	stx	$d7                     ; 0x20d7 <readMIDICmd+0xf9>
    35dd: a0 0a        	ldy	#$a
    35df: a2 0a        	ldx	#$a
    35e1: 86 d2        	stx	$d2                     ; 0x20d2 <readMIDICmd+0xf4>
    35e3: 84 bd        	sty	$bd                     ; 0x20bd <readMIDICmd+0xdf>
    35e5: a9 00        	lda	#$0
    35e7: 09 01        	ora	#$1
    35e9: a6 8e        	ldx	$8e                     ; 0x208e <readMIDICmd+0xb0>
    35eb: 86 be        	stx	$be                     ; 0x20be <readMIDICmd+0xe0>
    35ed: 85 98        	sta	$98                     ; 0x2098 <readMIDICmd+0xba>
    35ef: 85 bf        	sta	$bf                     ; 0x20bf <readMIDICmd+0xe1>
    35f1: a5 d3        	lda	$d3                     ; 0x20d3 <readMIDICmd+0xf5>
    35f3: 85 b2        	sta	$b2                     ; 0x20b2 <readMIDICmd+0xd4>
    35f5: a4 ce        	ldy	$ce                     ; 0x20ce <readMIDICmd+0xf0>
    35f7: a6 cf        	ldx	$cf                     ; 0x20cf <readMIDICmd+0xf1>
    35f9: 86 96        	stx	$96                     ; 0x2096 <readMIDICmd+0xb8>
    35fb: 84 14        	sty	$14                     ; 0x2014 <readMIDICmd+0x36>
    35fd: 84 8d        	sty	$8d                     ; 0x208d <readMIDICmd+0xaf>
    35ff: 86 15        	stx	$15                     ; 0x2015 <readMIDICmd+0x37>
    3601: a6 d4        	ldx	$d4                     ; 0x20d4 <readMIDICmd+0xf6>
    3603: 86 12        	stx	$12                     ; 0x2012 <readMIDICmd+0x34>
    3605: a6 d5        	ldx	$d5                     ; 0x20d5 <readMIDICmd+0xf7>
    3607: 86 13        	stx	$13                     ; 0x2013 <readMIDICmd+0x35>
    3609: a2 00        	ldx	#$0
    360b: 85 90        	sta	$90                     ; 0x2090 <readMIDICmd+0xb2>
    360d: 20 69 41     	jsr	$4169 <memcpy>
    3610: 18           	clc
    3611: a5 8d        	lda	$8d                     ; 0x208d <readMIDICmd+0xaf>
    3613: 65 8f        	adc	$8f                     ; 0x208f <readMIDICmd+0xb1>
    3615: aa           	tax
    3616: a5 96        	lda	$96                     ; 0x2096 <readMIDICmd+0xb8>
    3618: 69 00        	adc	#$0
    361a: 86 ce        	stx	$ce                     ; 0x20ce <readMIDICmd+0xf0>
    361c: 85 cf        	sta	$cf                     ; 0x20cf <readMIDICmd+0xf1>
    361e: a5 98        	lda	$98                     ; 0x2098 <readMIDICmd+0xba>
    3620: 29 01        	and	#$1
    3622: b8           	clv
    3623: f0 03        	beq	$3628 <printf+0x525>
    3625: 4c 7c 36     	jmp	$367c <printf+0x579>
    3628: a6 90        	ldx	$90                     ; 0x2090 <readMIDICmd+0xb2>
    362a: b5 b2        	lda	$b2,x                   ; 0x20b2 <readMIDICmd+0xd4>
    362c: aa           	tax
    362d: a0 01        	ldy	#$1
    362f: a5 95        	lda	$95                     ; 0x2095 <readMIDICmd+0xb7>
    3631: 85 1a        	sta	$1a                     ; 0x201a <readMIDICmd+0x3c>
    3633: a5 d7        	lda	$d7                     ; 0x20d7 <readMIDICmd+0xf9>
    3635: 85 95        	sta	$95                     ; 0x2095 <readMIDICmd+0xb7>
    3637: a9 00        	lda	#$0
    3639: 85 8f        	sta	$8f                     ; 0x208f <readMIDICmd+0xb1>
    363b: a9 00        	lda	#$0
    363d: 85 90        	sta	$90                     ; 0x2090 <readMIDICmd+0xb2>
    363f: a5 d6        	lda	$d6                     ; 0x20d6 <readMIDICmd+0xf8>
    3641: 85 96        	sta	$96                     ; 0x2096 <readMIDICmd+0xb8>
    3643: 8a           	txa
    3644: 10 4c        	bpl	$3692 <printf+0x58f>
    3646: a2 00        	ldx	#$0
    3648: 64 12        	stz	$12                     ; 0x2012 <readMIDICmd+0x34>
    364a: a9 00        	lda	#$0
    364c: 38           	sec
    364d: f5 b3        	sbc	$b3,x                   ; 0x20b3 <readMIDICmd+0xd5>
    364f: a0 00        	ldy	#$0
    3651: b0 02        	bcs	$3655 <printf+0x552>
    3653: a0 01        	ldy	#$1
    3655: 38           	sec
    3656: e5 12        	sbc	$12                     ; 0x2012 <readMIDICmd+0x34>
    3658: 85 13        	sta	$13                     ; 0x2013 <readMIDICmd+0x35>
    365a: 64 12        	stz	$12                     ; 0x2012 <readMIDICmd+0x34>
    365c: b0 04        	bcs	$3662 <printf+0x55f>
    365e: a9 01        	lda	#$1
    3660: 85 12        	sta	$12                     ; 0x2012 <readMIDICmd+0x34>
    3662: 98           	tya
    3663: 05 12        	ora	$12                     ; 0x2012 <readMIDICmd+0x34>
    3665: 85 12        	sta	$12                     ; 0x2012 <readMIDICmd+0x34>
    3667: a5 13        	lda	$13                     ; 0x2013 <readMIDICmd+0x35>
    3669: 9d b3 00     	sta	$b3,x                   ; 0xb3 <__zp_data_size+0x83>
    366c: e8           	inx
    366d: 86 13        	stx	$13                     ; 0x2013 <readMIDICmd+0x35>
    366f: a4 d3        	ldy	$d3                     ; 0x20d3 <readMIDICmd+0xf5>
    3671: c4 13        	cpy	$13                     ; 0x2013 <readMIDICmd+0x35>
    3673: d0 d5        	bne	$364a <printf+0x547>
    3675: 2c fb 43     	bit	$43fb                   ; 0x43fb <__set_v>
    3678: a0 01        	ldy	#$1
    367a: 80 16        	bra	$3692 <printf+0x58f>
    367c: a0 01        	ldy	#$1
    367e: a6 95        	ldx	$95                     ; 0x2095 <readMIDICmd+0xb7>
    3680: 86 1a        	stx	$1a                     ; 0x201a <readMIDICmd+0x3c>
    3682: a6 d7        	ldx	$d7                     ; 0x20d7 <readMIDICmd+0xf9>
    3684: 86 95        	stx	$95                     ; 0x2095 <readMIDICmd+0xb7>
    3686: a2 00        	ldx	#$0
    3688: 86 8f        	stx	$8f                     ; 0x208f <readMIDICmd+0xb1>
    368a: a2 00        	ldx	#$0
    368c: 86 90        	stx	$90                     ; 0x2090 <readMIDICmd+0xb2>
    368e: a6 d6        	ldx	$d6                     ; 0x20d6 <readMIDICmd+0xf8>
    3690: 86 96        	stx	$96                     ; 0x2096 <readMIDICmd+0xb8>
    3692: a2 01        	ldx	#$1
    3694: 70 02        	bvs	$3698 <printf+0x595>
    3696: a2 00        	ldx	#$0
    3698: 86 16        	stx	$16                     ; 0x2016 <readMIDICmd+0x38>
    369a: a5 d3        	lda	$d3                     ; 0x20d3 <readMIDICmd+0xf5>
    369c: 0a           	asl
    369d: 0a           	asl
    369e: 0a           	asl
    369f: 85 12        	sta	$12                     ; 0x2012 <readMIDICmd+0x34>
    36a1: a2 00        	ldx	#$0
    36a3: 8a           	txa
    36a4: e0 00        	cpx	#$0
    36a6: d0 03        	bne	$36ab <printf+0x5a8>
    36a8: 4c 30 37     	jmp	$3730 <printf+0x62d>
    36ab: 85 17        	sta	$17                     ; 0x2017 <readMIDICmd+0x39>
    36ad: 86 8d        	stx	$8d                     ; 0x208d <readMIDICmd+0xaf>
    36af: ca           	dex
    36b0: 86 15        	stx	$15                     ; 0x2015 <readMIDICmd+0x37>
    36b2: a2 00        	ldx	#$0
    36b4: 64 13        	stz	$13                     ; 0x2013 <readMIDICmd+0x35>
    36b6: 80 0d        	bra	$36c5 <printf+0x5c2>
    36b8: a4 13        	ldy	$13                     ; 0x2013 <readMIDICmd+0x35>
    36ba: 99 9b 00     	sta	$9b,y                   ; 0x9b <__zp_data_size+0x6b>
    36bd: a4 15        	ldy	$15                     ; 0x2015 <readMIDICmd+0x37>
    36bf: c4 13        	cpy	$13                     ; 0x2013 <readMIDICmd+0x35>
    36c1: f0 38        	beq	$36fb <printf+0x5f8>
    36c3: e6 13        	inc	$13                     ; 0x2013 <readMIDICmd+0x35>
    36c5: a4 13        	ldy	$13                     ; 0x2013 <readMIDICmd+0x35>
    36c7: b9 9b 00     	lda	$9b,y                   ; 0x9b <__zp_data_size+0x6b>
    36ca: 0a           	asl
    36cb: e0 00        	cpx	#$0
    36cd: f0 02        	beq	$36d1 <printf+0x5ce>
    36cf: 09 01        	ora	#$1
    36d1: a4 d2        	ldy	$d2                     ; 0x20d2 <readMIDICmd+0xf4>
    36d3: 84 14        	sty	$14                     ; 0x2014 <readMIDICmd+0x36>
    36d5: c5 14        	cmp	$14                     ; 0x2014 <readMIDICmd+0x36>
    36d7: a2 01        	ldx	#$1
    36d9: b0 02        	bcs	$36dd <printf+0x5da>
    36db: a2 00        	ldx	#$0
    36dd: 90 d9        	bcc	$36b8 <printf+0x5b5>
    36df: 84 14        	sty	$14                     ; 0x2014 <readMIDICmd+0x36>
    36e1: 38           	sec
    36e2: e5 14        	sbc	$14                     ; 0x2014 <readMIDICmd+0x36>
    36e4: a4 13        	ldy	$13                     ; 0x2013 <readMIDICmd+0x35>
    36e6: 99 9b 00     	sta	$9b,y                   ; 0x9b <__zp_data_size+0x6b>
    36e9: a4 15        	ldy	$15                     ; 0x2015 <readMIDICmd+0x37>
    36eb: c4 13        	cpy	$13                     ; 0x2013 <readMIDICmd+0x35>
    36ed: d0 d4        	bne	$36c3 <printf+0x5c0>
    36ef: a4 8d        	ldy	$8d                     ; 0x208d <readMIDICmd+0xaf>
    36f1: a6 8d        	ldx	$8d                     ; 0x208d <readMIDICmd+0xaf>
    36f3: e8           	inx
    36f4: a9 01        	lda	#$1
    36f6: 99 9b 00     	sta	$9b,y                   ; 0x9b <__zp_data_size+0x6b>
    36f9: 86 8d        	stx	$8d                     ; 0x208d <readMIDICmd+0xaf>
    36fb: a6 d3        	ldx	$d3                     ; 0x20d3 <readMIDICmd+0xf5>
    36fd: b5 b2        	lda	$b2,x                   ; 0x20b2 <readMIDICmd+0xd4>
    36ff: aa           	tax
    3700: a0 01        	ldy	#$1
    3702: 8a           	txa
    3703: 10 47        	bpl	$374c <printf+0x649>
    3705: a5 8d        	lda	$8d                     ; 0x208d <readMIDICmd+0xaf>
    3707: f0 34        	beq	$373d <printf+0x63a>
    3709: a2 00        	ldx	#$0
    370b: a4 d2        	ldy	$d2                     ; 0x20d2 <readMIDICmd+0xf4>
    370d: 84 14        	sty	$14                     ; 0x2014 <readMIDICmd+0x36>
    370f: b5 9b        	lda	$9b,x                   ; 0x209b <readMIDICmd+0xbd>
    3711: 1a           	inc
    3712: f6 9b        	inc	$9b,x                   ; 0x209b <readMIDICmd+0xbd>
    3714: c5 14        	cmp	$14                     ; 0x2014 <readMIDICmd+0x36>
    3716: b0 03        	bcs	$371b <printf+0x618>
    3718: 4c 77 37     	jmp	$3777 <printf+0x674>
    371b: a4 14        	ldy	$14                     ; 0x2014 <readMIDICmd+0x36>
    371d: 84 13        	sty	$13                     ; 0x2013 <readMIDICmd+0x35>
    371f: 38           	sec
    3720: e5 13        	sbc	$13                     ; 0x2013 <readMIDICmd+0x35>
    3722: 9d 9b 00     	sta	$9b,x                   ; 0x9b <__zp_data_size+0x6b>
    3725: e8           	inx
    3726: 86 13        	stx	$13                     ; 0x2013 <readMIDICmd+0x35>
    3728: a4 8d        	ldy	$8d                     ; 0x208d <readMIDICmd+0xaf>
    372a: c4 13        	cpy	$13                     ; 0x2013 <readMIDICmd+0x35>
    372c: d0 e1        	bne	$370f <printf+0x60c>
    372e: 80 0f        	bra	$373f <printf+0x63c>
    3730: 85 17        	sta	$17                     ; 0x2017 <readMIDICmd+0x39>
    3732: a6 d3        	ldx	$d3                     ; 0x20d3 <readMIDICmd+0xf5>
    3734: b5 b2        	lda	$b2,x                   ; 0x20b2 <readMIDICmd+0xd4>
    3736: aa           	tax
    3737: 64 8d        	stz	$8d                     ; 0x208d <readMIDICmd+0xaf>
    3739: 30 04        	bmi	$373f <printf+0x63c>
    373b: 80 0f        	bra	$374c <printf+0x649>
    373d: 64 8d        	stz	$8d                     ; 0x208d <readMIDICmd+0xaf>
    373f: a4 8d        	ldy	$8d                     ; 0x208d <readMIDICmd+0xaf>
    3741: a6 8d        	ldx	$8d                     ; 0x208d <readMIDICmd+0xaf>
    3743: e8           	inx
    3744: a9 01        	lda	#$1
    3746: 99 9b 00     	sta	$9b,y                   ; 0x9b <__zp_data_size+0x6b>
    3749: a8           	tay
    374a: 86 8d        	stx	$8d                     ; 0x208d <readMIDICmd+0xaf>
    374c: a2 01        	ldx	#$1
    374e: 64 13        	stz	$13                     ; 0x2013 <readMIDICmd+0x35>
    3750: a5 d3        	lda	$d3                     ; 0x20d3 <readMIDICmd+0xf5>
    3752: 85 14        	sta	$14                     ; 0x2014 <readMIDICmd+0x36>
    3754: b5 b2        	lda	$b2,x                   ; 0x20b2 <readMIDICmd+0xd4>
    3756: 0a           	asl
    3757: 64 15        	stz	$15                     ; 0x2015 <readMIDICmd+0x37>
    3759: 26 15        	rol	$15                     ; 0x2015 <readMIDICmd+0x37>
    375b: 05 13        	ora	$13                     ; 0x2013 <readMIDICmd+0x35>
    375d: 9d b2 00     	sta	$b2,x                   ; 0xb2 <__zp_data_size+0x82>
    3760: e8           	inx
    3761: c6 14        	dec	$14                     ; 0x2014 <readMIDICmd+0x36>
    3763: a5 15        	lda	$15                     ; 0x2015 <readMIDICmd+0x37>
    3765: 85 13        	sta	$13                     ; 0x2013 <readMIDICmd+0x35>
    3767: a5 14        	lda	$14                     ; 0x2014 <readMIDICmd+0x36>
    3769: d0 e9        	bne	$3754 <printf+0x651>
    376b: a5 17        	lda	$17                     ; 0x2017 <readMIDICmd+0x39>
    376d: 1a           	inc
    376e: c5 12        	cmp	$12                     ; 0x2012 <readMIDICmd+0x34>
    3770: a6 8d        	ldx	$8d                     ; 0x208d <readMIDICmd+0xaf>
    3772: b0 07        	bcs	$377b <printf+0x678>
    3774: 4c a4 36     	jmp	$36a4 <printf+0x5a1>
    3777: a0 01        	ldy	#$1
    3779: 80 d1        	bra	$374c <printf+0x649>
    377b: a5 8e        	lda	$8e                     ; 0x208e <readMIDICmd+0xb0>
    377d: e6 96        	inc	$96                     ; 0x2096 <readMIDICmd+0xb8>
    377f: c6 96        	dec	$96                     ; 0x2096 <readMIDICmd+0xb8>
    3781: 10 08        	bpl	$378b <printf+0x688>
    3783: a2 01        	ldx	#$1
    3785: 64 96        	stz	$96                     ; 0x2096 <readMIDICmd+0xb8>
    3787: 86 95        	stx	$95                     ; 0x2095 <readMIDICmd+0xb7>
    3789: a6 8d        	ldx	$8d                     ; 0x208d <readMIDICmd+0xaf>
    378b: 29 04        	and	#$4
    378d: f0 2b        	beq	$37ba <printf+0x6b7>
    378f: a5 d2        	lda	$d2                     ; 0x20d2 <readMIDICmd+0xf4>
    3791: c9 10        	cmp	#$10
    3793: f0 14        	beq	$37a9 <printf+0x6a6>
    3795: c9 08        	cmp	#$8
    3797: d0 21        	bne	$37ba <printf+0x6b7>
    3799: a2 00        	ldx	#$0
    379b: e4 96        	cpx	$96                     ; 0x2096 <readMIDICmd+0xb8>
    379d: f0 03        	beq	$37a2 <printf+0x69f>
    379f: 4c 9e 3c     	jmp	$3c9e <printf+0xb9b>
    37a2: a6 8d        	ldx	$8d                     ; 0x208d <readMIDICmd+0xaf>
    37a4: e4 95        	cpx	$95                     ; 0x2095 <readMIDICmd+0xb7>
    37a6: 4c a0 3c     	jmp	$3ca0 <printf+0xb9d>
    37a9: 8a           	txa
    37aa: f0 0e        	beq	$37ba <printf+0x6b7>
    37ac: a5 8e        	lda	$8e                     ; 0x208e <readMIDICmd+0xb0>
    37ae: 29 80        	and	#$80
    37b0: d0 03        	bne	$37b5 <printf+0x6b2>
    37b2: 4c b9 3c     	jmp	$3cb9 <printf+0xbb6>
    37b5: a2 78        	ldx	#$78
    37b7: 4c bb 3c     	jmp	$3cbb <printf+0xbb8>
    37ba: a6 8e        	ldx	$8e                     ; 0x208e <readMIDICmd+0xb0>
    37bc: a9 2d        	lda	#$2d
    37be: 85 d6        	sta	$d6                     ; 0x20d6 <readMIDICmd+0xf8>
    37c0: a5 16        	lda	$16                     ; 0x2016 <readMIDICmd+0x38>
    37c2: d0 32        	bne	$37f6 <printf+0x6f3>
    37c4: 86 12        	stx	$12                     ; 0x2012 <readMIDICmd+0x34>
    37c6: 8a           	txa
    37c7: 29 02        	and	#$2
    37c9: a2 2b        	ldx	#$2b
    37cb: 86 d6        	stx	$d6                     ; 0x20d6 <readMIDICmd+0xf8>
    37cd: aa           	tax
    37ce: d0 26        	bne	$37f6 <printf+0x6f3>
    37d0: a5 12        	lda	$12                     ; 0x2012 <readMIDICmd+0x34>
    37d2: 29 08        	and	#$8
    37d4: d0 1c        	bne	$37f2 <printf+0x6ef>
    37d6: a2 01        	ldx	#$1
    37d8: 86 d3        	stx	$d3                     ; 0x20d3 <readMIDICmd+0xf5>
    37da: a9 00        	lda	#$0
    37dc: aa           	tax
    37dd: 86 d2        	stx	$d2                     ; 0x20d2 <readMIDICmd+0xf4>
    37df: 80 1c        	bra	$37fd <printf+0x6fa>
    37e1: 85 12        	sta	$12                     ; 0x2012 <readMIDICmd+0x34>
    37e3: a9 04        	lda	#$4
    37e5: 80 04        	bra	$37eb <printf+0x6e8>
    37e7: 85 12        	sta	$12                     ; 0x2012 <readMIDICmd+0x34>
    37e9: a9 02        	lda	#$2
    37eb: 85 d3        	sta	$d3                     ; 0x20d3 <readMIDICmd+0xf5>
    37ed: a5 12        	lda	$12                     ; 0x2012 <readMIDICmd+0x34>
    37ef: 4c ae 34     	jmp	$34ae <printf+0x3ab>
    37f2: a2 20        	ldx	#$20
    37f4: 86 d6        	stx	$d6                     ; 0x20d6 <readMIDICmd+0xf8>
    37f6: a2 00        	ldx	#$0
    37f8: 86 d3        	stx	$d3                     ; 0x20d3 <readMIDICmd+0xf5>
    37fa: 86 d2        	stx	$d2                     ; 0x20d2 <readMIDICmd+0xf4>
    37fc: 98           	tya
    37fd: a6 96        	ldx	$96                     ; 0x2096 <readMIDICmd+0xb8>
    37ff: d0 35        	bne	$3836 <printf+0x733>
    3801: a6 95        	ldx	$95                     ; 0x2095 <readMIDICmd+0xb7>
    3803: a4 8d        	ldy	$8d                     ; 0x208d <readMIDICmd+0xaf>
    3805: 84 12        	sty	$12                     ; 0x2012 <readMIDICmd+0x34>
    3807: e4 12        	cpx	$12                     ; 0x2012 <readMIDICmd+0x34>
    3809: a6 95        	ldx	$95                     ; 0x2095 <readMIDICmd+0xb7>
    380b: 86 12        	stx	$12                     ; 0x2012 <readMIDICmd+0x34>
    380d: a6 96        	ldx	$96                     ; 0x2096 <readMIDICmd+0xb8>
    380f: 86 13        	stx	$13                     ; 0x2013 <readMIDICmd+0x35>
    3811: b0 04        	bcs	$3817 <printf+0x714>
    3813: 84 12        	sty	$12                     ; 0x2012 <readMIDICmd+0x34>
    3815: 64 13        	stz	$13                     ; 0x2013 <readMIDICmd+0x35>
    3817: 85 18        	sta	$18                     ; 0x2018 <readMIDICmd+0x3a>
    3819: 18           	clc
    381a: 65 12        	adc	$12                     ; 0x2012 <readMIDICmd+0x34>
    381c: 85 16        	sta	$16                     ; 0x2016 <readMIDICmd+0x38>
    381e: 85 14        	sta	$14                     ; 0x2014 <readMIDICmd+0x36>
    3820: a5 13        	lda	$13                     ; 0x2013 <readMIDICmd+0x35>
    3822: 69 00        	adc	#$0
    3824: 85 15        	sta	$15                     ; 0x2015 <readMIDICmd+0x37>
    3826: c5 1a        	cmp	$1a                     ; 0x201a <readMIDICmd+0x3c>
    3828: d0 1e        	bne	$3848 <printf+0x745>
    382a: a6 1a        	ldx	$1a                     ; 0x201a <readMIDICmd+0x3c>
    382c: 86 17        	stx	$17                     ; 0x2017 <readMIDICmd+0x39>
    382e: a6 97        	ldx	$97                     ; 0x2097 <readMIDICmd+0xb9>
    3830: a5 16        	lda	$16                     ; 0x2016 <readMIDICmd+0x38>
    3832: c5 97        	cmp	$97                     ; 0x2097 <readMIDICmd+0xb9>
    3834: 80 1c        	bra	$3852 <printf+0x74f>
    3836: a6 96        	ldx	$96                     ; 0x2096 <readMIDICmd+0xb8>
    3838: e0 00        	cpx	#$0
    383a: a6 95        	ldx	$95                     ; 0x2095 <readMIDICmd+0xb7>
    383c: 86 12        	stx	$12                     ; 0x2012 <readMIDICmd+0x34>
    383e: a6 96        	ldx	$96                     ; 0x2096 <readMIDICmd+0xb8>
    3840: 86 13        	stx	$13                     ; 0x2013 <readMIDICmd+0x35>
    3842: a4 8d        	ldy	$8d                     ; 0x208d <readMIDICmd+0xaf>
    3844: 90 cd        	bcc	$3813 <printf+0x710>
    3846: 80 cf        	bra	$3817 <printf+0x714>
    3848: a6 97        	ldx	$97                     ; 0x2097 <readMIDICmd+0xb9>
    384a: 5a           	phy
    384b: a4 1a        	ldy	$1a                     ; 0x201a <readMIDICmd+0x3c>
    384d: 84 17        	sty	$17                     ; 0x2017 <readMIDICmd+0x39>
    384f: 7a           	ply
    3850: c5 1a        	cmp	$1a                     ; 0x201a <readMIDICmd+0x3c>
    3852: 64 98        	stz	$98                     ; 0x2098 <readMIDICmd+0xba>
    3854: 64 97        	stz	$97                     ; 0x2097 <readMIDICmd+0xb9>
    3856: 90 03        	bcc	$385b <printf+0x758>
    3858: 4c f0 38     	jmp	$38f0 <printf+0x7ed>
    385b: a5 8e        	lda	$8e                     ; 0x208e <readMIDICmd+0xb0>
    385d: 29 11        	and	#$11
    385f: 86 16        	stx	$16                     ; 0x2016 <readMIDICmd+0x38>
    3861: f0 0f        	beq	$3872 <printf+0x76f>
    3863: 8a           	txa
    3864: 38           	sec
    3865: e5 14        	sbc	$14                     ; 0x2014 <readMIDICmd+0x36>
    3867: 85 98        	sta	$98                     ; 0x2098 <readMIDICmd+0xba>
    3869: a5 1a        	lda	$1a                     ; 0x201a <readMIDICmd+0x3c>
    386b: e5 15        	sbc	$15                     ; 0x2015 <readMIDICmd+0x37>
    386d: 85 97        	sta	$97                     ; 0x2097 <readMIDICmd+0xb9>
    386f: 4c f0 38     	jmp	$38f0 <printf+0x7ed>
    3872: a6 c2        	ldx	$c2                     ; 0x20c2 <readMIDICmd+0xe4>
    3874: 86 14        	stx	$14                     ; 0x2014 <readMIDICmd+0x36>
    3876: 38           	sec
    3877: a5 18        	lda	$18                     ; 0x2018 <readMIDICmd+0x3a>
    3879: e5 16        	sbc	$16                     ; 0x2016 <readMIDICmd+0x38>
    387b: aa           	tax
    387c: a9 00        	lda	#$0
    387e: e5 17        	sbc	$17                     ; 0x2017 <readMIDICmd+0x39>
    3880: a8           	tay
    3881: 18           	clc
    3882: 8a           	txa
    3883: 65 12        	adc	$12                     ; 0x2012 <readMIDICmd+0x34>
    3885: 85 8e        	sta	$8e                     ; 0x208e <readMIDICmd+0xb0>
    3887: 98           	tya
    3888: 65 13        	adc	$13                     ; 0x2013 <readMIDICmd+0x35>
    388a: a4 c3        	ldy	$c3                     ; 0x20c3 <readMIDICmd+0xe5>
    388c: 80 49        	bra	$38d7 <printf+0x7d4>
    388e: c4 c1        	cpy	$c1                     ; 0x20c1 <readMIDICmd+0xe3>
    3890: b0 27        	bcs	$38b9 <printf+0x7b6>
    3892: a6 cd        	ldx	$cd                     ; 0x20cd <readMIDICmd+0xef>
    3894: e4 90        	cpx	$90                     ; 0x2090 <readMIDICmd+0xb2>
    3896: d0 18        	bne	$38b0 <printf+0x7ad>
    3898: a6 cc        	ldx	$cc                     ; 0x20cc <readMIDICmd+0xee>
    389a: e4 8f        	cpx	$8f                     ; 0x208f <readMIDICmd+0xb1>
    389c: d0 12        	bne	$38b0 <printf+0x7ad>
    389e: 18           	clc
    389f: a5 14        	lda	$14                     ; 0x2014 <readMIDICmd+0x36>
    38a1: 65 c6        	adc	$c6                     ; 0x20c6 <readMIDICmd+0xe8>
    38a3: 85 12        	sta	$12                     ; 0x2012 <readMIDICmd+0x34>
    38a5: 98           	tya
    38a6: 65 c7        	adc	$c7                     ; 0x20c7 <readMIDICmd+0xe9>
    38a8: 85 13        	sta	$13                     ; 0x2013 <readMIDICmd+0x35>
    38aa: a9 20        	lda	#$20
    38ac: 92 12        	sta	($12)                   ; 0x2012 <readMIDICmd+0x34>
    38ae: 80 07        	bra	$38b7 <printf+0x7b4>
    38b0: a2 00        	ldx	#$0
    38b2: a9 20        	lda	#$20
    38b4: 20 d6 3c     	jsr	$3cd6 <putchar>
    38b7: a5 97        	lda	$97                     ; 0x2097 <readMIDICmd+0xb9>
    38b9: a6 c2        	ldx	$c2                     ; 0x20c2 <readMIDICmd+0xe4>
    38bb: a4 c3        	ldy	$c3                     ; 0x20c3 <readMIDICmd+0xe5>
    38bd: e8           	inx
    38be: d0 01        	bne	$38c1 <printf+0x7be>
    38c0: c8           	iny
    38c1: 86 14        	stx	$14                     ; 0x2014 <readMIDICmd+0x36>
    38c3: 86 c2        	stx	$c2                     ; 0x20c2 <readMIDICmd+0xe4>
    38c5: 84 c3        	sty	$c3                     ; 0x20c3 <readMIDICmd+0xe5>
    38c7: a6 8e        	ldx	$8e                     ; 0x208e <readMIDICmd+0xb0>
    38c9: e8           	inx
    38ca: d0 01        	bne	$38cd <printf+0x7ca>
    38cc: 1a           	inc
    38cd: 86 8e        	stx	$8e                     ; 0x208e <readMIDICmd+0xb0>
    38cf: c9 00        	cmp	#$0
    38d1: d0 04        	bne	$38d7 <printf+0x7d4>
    38d3: e0 00        	cpx	#$0
    38d5: f0 13        	beq	$38ea <printf+0x7e7>
    38d7: 85 97        	sta	$97                     ; 0x2097 <readMIDICmd+0xb9>
    38d9: c4 c1        	cpy	$c1                     ; 0x20c1 <readMIDICmd+0xe3>
    38db: d0 b1        	bne	$388e <printf+0x78b>
    38dd: a6 c0        	ldx	$c0                     ; 0x20c0 <readMIDICmd+0xe2>
    38df: 86 12        	stx	$12                     ; 0x2012 <readMIDICmd+0x34>
    38e1: a6 14        	ldx	$14                     ; 0x2014 <readMIDICmd+0x36>
    38e3: e4 12        	cpx	$12                     ; 0x2012 <readMIDICmd+0x34>
    38e5: b0 d2        	bcs	$38b9 <printf+0x7b6>
    38e7: 4c 92 38     	jmp	$3892 <printf+0x78f>
    38ea: 64 98        	stz	$98                     ; 0x2098 <readMIDICmd+0xba>
    38ec: 64 97        	stz	$97                     ; 0x2097 <readMIDICmd+0xb9>
    38ee: a4 8d        	ldy	$8d                     ; 0x208d <readMIDICmd+0xaf>
    38f0: a6 d3        	ldx	$d3                     ; 0x20d3 <readMIDICmd+0xf5>
    38f2: d0 4f        	bne	$3943 <printf+0x840>
    38f4: a6 c2        	ldx	$c2                     ; 0x20c2 <readMIDICmd+0xe4>
    38f6: a5 c3        	lda	$c3                     ; 0x20c3 <readMIDICmd+0xe5>
    38f8: c5 c1        	cmp	$c1                     ; 0x20c1 <readMIDICmd+0xe3>
    38fa: d0 10        	bne	$390c <printf+0x809>
    38fc: 86 13        	stx	$13                     ; 0x2013 <readMIDICmd+0x35>
    38fe: a6 c0        	ldx	$c0                     ; 0x20c0 <readMIDICmd+0xe2>
    3900: 86 12        	stx	$12                     ; 0x2012 <readMIDICmd+0x34>
    3902: a4 8d        	ldy	$8d                     ; 0x208d <readMIDICmd+0xaf>
    3904: a6 13        	ldx	$13                     ; 0x2013 <readMIDICmd+0x35>
    3906: e4 12        	cpx	$12                     ; 0x2012 <readMIDICmd+0x34>
    3908: 90 08        	bcc	$3912 <printf+0x80f>
    390a: 80 31        	bra	$393d <printf+0x83a>
    390c: 86 13        	stx	$13                     ; 0x2013 <readMIDICmd+0x35>
    390e: c5 c1        	cmp	$c1                     ; 0x20c1 <readMIDICmd+0xe3>
    3910: b0 2b        	bcs	$393d <printf+0x83a>
    3912: a6 cd        	ldx	$cd                     ; 0x20cd <readMIDICmd+0xef>
    3914: e4 90        	cpx	$90                     ; 0x2090 <readMIDICmd+0xb2>
    3916: d0 1c        	bne	$3934 <printf+0x831>
    3918: a6 cc        	ldx	$cc                     ; 0x20cc <readMIDICmd+0xee>
    391a: e4 8f        	cpx	$8f                     ; 0x208f <readMIDICmd+0xb1>
    391c: d0 16        	bne	$3934 <printf+0x831>
    391e: 18           	clc
    391f: 85 12        	sta	$12                     ; 0x2012 <readMIDICmd+0x34>
    3921: a5 13        	lda	$13                     ; 0x2013 <readMIDICmd+0x35>
    3923: 65 c6        	adc	$c6                     ; 0x20c6 <readMIDICmd+0xe8>
    3925: aa           	tax
    3926: a5 12        	lda	$12                     ; 0x2012 <readMIDICmd+0x34>
    3928: 65 c7        	adc	$c7                     ; 0x20c7 <readMIDICmd+0xe9>
    392a: 86 12        	stx	$12                     ; 0x2012 <readMIDICmd+0x34>
    392c: 85 13        	sta	$13                     ; 0x2013 <readMIDICmd+0x35>
    392e: a5 d6        	lda	$d6                     ; 0x20d6 <readMIDICmd+0xf8>
    3930: 92 12        	sta	($12)                   ; 0x2012 <readMIDICmd+0x34>
    3932: 80 07        	bra	$393b <printf+0x838>
    3934: a2 00        	ldx	#$0
    3936: a5 d6        	lda	$d6                     ; 0x20d6 <readMIDICmd+0xf8>
    3938: 20 d6 3c     	jsr	$3cd6 <putchar>
    393b: a4 8d        	ldy	$8d                     ; 0x208d <readMIDICmd+0xaf>
    393d: e6 c2        	inc	$c2                     ; 0x20c2 <readMIDICmd+0xe4>
    393f: d0 02        	bne	$3943 <printf+0x840>
    3941: e6 c3        	inc	$c3                     ; 0x20c3 <readMIDICmd+0xe5>
    3943: a6 d2        	ldx	$d2                     ; 0x20d2 <readMIDICmd+0xf4>
    3945: f0 4f        	beq	$3996 <printf+0x893>
    3947: a6 c2        	ldx	$c2                     ; 0x20c2 <readMIDICmd+0xe4>
    3949: a5 c3        	lda	$c3                     ; 0x20c3 <readMIDICmd+0xe5>
    394b: c5 c1        	cmp	$c1                     ; 0x20c1 <readMIDICmd+0xe3>
    394d: d0 10        	bne	$395f <printf+0x85c>
    394f: 86 13        	stx	$13                     ; 0x2013 <readMIDICmd+0x35>
    3951: a6 c0        	ldx	$c0                     ; 0x20c0 <readMIDICmd+0xe2>
    3953: 86 12        	stx	$12                     ; 0x2012 <readMIDICmd+0x34>
    3955: a4 8d        	ldy	$8d                     ; 0x208d <readMIDICmd+0xaf>
    3957: a6 13        	ldx	$13                     ; 0x2013 <readMIDICmd+0x35>
    3959: e4 12        	cpx	$12                     ; 0x2012 <readMIDICmd+0x34>
    395b: 90 08        	bcc	$3965 <printf+0x862>
    395d: 80 31        	bra	$3990 <printf+0x88d>
    395f: 86 13        	stx	$13                     ; 0x2013 <readMIDICmd+0x35>
    3961: c5 c1        	cmp	$c1                     ; 0x20c1 <readMIDICmd+0xe3>
    3963: b0 2b        	bcs	$3990 <printf+0x88d>
    3965: a6 cd        	ldx	$cd                     ; 0x20cd <readMIDICmd+0xef>
    3967: e4 90        	cpx	$90                     ; 0x2090 <readMIDICmd+0xb2>
    3969: d0 1c        	bne	$3987 <printf+0x884>
    396b: a6 cc        	ldx	$cc                     ; 0x20cc <readMIDICmd+0xee>
    396d: e4 8f        	cpx	$8f                     ; 0x208f <readMIDICmd+0xb1>
    396f: d0 16        	bne	$3987 <printf+0x884>
    3971: 18           	clc
    3972: 85 12        	sta	$12                     ; 0x2012 <readMIDICmd+0x34>
    3974: a5 13        	lda	$13                     ; 0x2013 <readMIDICmd+0x35>
    3976: 65 c6        	adc	$c6                     ; 0x20c6 <readMIDICmd+0xe8>
    3978: aa           	tax
    3979: a5 12        	lda	$12                     ; 0x2012 <readMIDICmd+0x34>
    397b: 65 c7        	adc	$c7                     ; 0x20c7 <readMIDICmd+0xe9>
    397d: 86 12        	stx	$12                     ; 0x2012 <readMIDICmd+0x34>
    397f: 85 13        	sta	$13                     ; 0x2013 <readMIDICmd+0x35>
    3981: a5 d7        	lda	$d7                     ; 0x20d7 <readMIDICmd+0xf9>
    3983: 92 12        	sta	($12)                   ; 0x2012 <readMIDICmd+0x34>
    3985: 80 07        	bra	$398e <printf+0x88b>
    3987: a2 00        	ldx	#$0
    3989: a5 d7        	lda	$d7                     ; 0x20d7 <readMIDICmd+0xf9>
    398b: 20 d6 3c     	jsr	$3cd6 <putchar>
    398e: a4 8d        	ldy	$8d                     ; 0x208d <readMIDICmd+0xaf>
    3990: e6 c2        	inc	$c2                     ; 0x20c2 <readMIDICmd+0xe4>
    3992: d0 02        	bne	$3996 <printf+0x893>
    3994: e6 c3        	inc	$c3                     ; 0x20c3 <readMIDICmd+0xe5>
    3996: a9 10        	lda	#$10
    3998: 25 be        	and	$be                     ; 0x20be <readMIDICmd+0xe0>
    399a: d0 03        	bne	$399f <printf+0x89c>
    399c: 4c 28 3a     	jmp	$3a28 <printf+0x925>
    399f: a5 be        	lda	$be                     ; 0x20be <readMIDICmd+0xe0>
    39a1: 29 01        	and	#$1
    39a3: f0 03        	beq	$39a8 <printf+0x8a5>
    39a5: 4c 28 3a     	jmp	$3a28 <printf+0x925>
    39a8: a6 98        	ldx	$98                     ; 0x2098 <readMIDICmd+0xba>
    39aa: a5 97        	lda	$97                     ; 0x2097 <readMIDICmd+0xb9>
    39ac: d0 06        	bne	$39b4 <printf+0x8b1>
    39ae: 8a           	txa
    39af: d0 03        	bne	$39b4 <printf+0x8b1>
    39b1: 4c ce 3c     	jmp	$3cce <printf+0xbcb>
    39b4: a6 c2        	ldx	$c2                     ; 0x20c2 <readMIDICmd+0xe4>
    39b6: 86 13        	stx	$13                     ; 0x2013 <readMIDICmd+0x35>
    39b8: a5 c3        	lda	$c3                     ; 0x20c3 <readMIDICmd+0xe5>
    39ba: 4c 0e 3a     	jmp	$3a0e <printf+0x90b>
    39bd: c5 c1        	cmp	$c1                     ; 0x20c1 <readMIDICmd+0xe3>
    39bf: b0 26        	bcs	$39e7 <printf+0x8e4>
    39c1: a6 cd        	ldx	$cd                     ; 0x20cd <readMIDICmd+0xef>
    39c3: e4 90        	cpx	$90                     ; 0x2090 <readMIDICmd+0xb2>
    39c5: d0 19        	bne	$39e0 <printf+0x8dd>
    39c7: a6 cc        	ldx	$cc                     ; 0x20cc <readMIDICmd+0xee>
    39c9: e4 8f        	cpx	$8f                     ; 0x208f <readMIDICmd+0xb1>
    39cb: d0 13        	bne	$39e0 <printf+0x8dd>
    39cd: 18           	clc
    39ce: aa           	tax
    39cf: a5 13        	lda	$13                     ; 0x2013 <readMIDICmd+0x35>
    39d1: 65 c6        	adc	$c6                     ; 0x20c6 <readMIDICmd+0xe8>
    39d3: 85 12        	sta	$12                     ; 0x2012 <readMIDICmd+0x34>
    39d5: 8a           	txa
    39d6: 65 c7        	adc	$c7                     ; 0x20c7 <readMIDICmd+0xe9>
    39d8: 85 13        	sta	$13                     ; 0x2013 <readMIDICmd+0x35>
    39da: a9 30        	lda	#$30
    39dc: 92 12        	sta	($12)                   ; 0x2012 <readMIDICmd+0x34>
    39de: 80 07        	bra	$39e7 <printf+0x8e4>
    39e0: a2 00        	ldx	#$0
    39e2: a9 30        	lda	#$30
    39e4: 20 d6 3c     	jsr	$3cd6 <putchar>
    39e7: a6 c2        	ldx	$c2                     ; 0x20c2 <readMIDICmd+0xe4>
    39e9: a5 c3        	lda	$c3                     ; 0x20c3 <readMIDICmd+0xe5>
    39eb: e8           	inx
    39ec: d0 01        	bne	$39ef <printf+0x8ec>
    39ee: 1a           	inc
    39ef: 86 13        	stx	$13                     ; 0x2013 <readMIDICmd+0x35>
    39f1: 86 c2        	stx	$c2                     ; 0x20c2 <readMIDICmd+0xe4>
    39f3: 85 c3        	sta	$c3                     ; 0x20c3 <readMIDICmd+0xe5>
    39f5: a4 98        	ldy	$98                     ; 0x2098 <readMIDICmd+0xba>
    39f7: a6 97        	ldx	$97                     ; 0x2097 <readMIDICmd+0xb9>
    39f9: 86 12        	stx	$12                     ; 0x2012 <readMIDICmd+0x34>
    39fb: 88           	dey
    39fc: c0 ff        	cpy	#$ff
    39fe: d0 02        	bne	$3a02 <printf+0x8ff>
    3a00: c6 12        	dec	$12                     ; 0x2012 <readMIDICmd+0x34>
    3a02: 84 98        	sty	$98                     ; 0x2098 <readMIDICmd+0xba>
    3a04: a6 12        	ldx	$12                     ; 0x2012 <readMIDICmd+0x34>
    3a06: 86 97        	stx	$97                     ; 0x2097 <readMIDICmd+0xb9>
    3a08: d0 04        	bne	$3a0e <printf+0x90b>
    3a0a: c0 00        	cpy	#$0
    3a0c: f0 14        	beq	$3a22 <printf+0x91f>
    3a0e: c5 c1        	cmp	$c1                     ; 0x20c1 <readMIDICmd+0xe3>
    3a10: f0 03        	beq	$3a15 <printf+0x912>
    3a12: 4c bd 39     	jmp	$39bd <printf+0x8ba>
    3a15: a6 c0        	ldx	$c0                     ; 0x20c0 <readMIDICmd+0xe2>
    3a17: 86 12        	stx	$12                     ; 0x2012 <readMIDICmd+0x34>
    3a19: a6 13        	ldx	$13                     ; 0x2013 <readMIDICmd+0x35>
    3a1b: e4 12        	cpx	$12                     ; 0x2012 <readMIDICmd+0x34>
    3a1d: b0 c8        	bcs	$39e7 <printf+0x8e4>
    3a1f: 4c c1 39     	jmp	$39c1 <printf+0x8be>
    3a22: 64 98        	stz	$98                     ; 0x2098 <readMIDICmd+0xba>
    3a24: 64 97        	stz	$97                     ; 0x2097 <readMIDICmd+0xb9>
    3a26: a4 8d        	ldy	$8d                     ; 0x208d <readMIDICmd+0xaf>
    3a28: a2 00        	ldx	#$0
    3a2a: e4 96        	cpx	$96                     ; 0x2096 <readMIDICmd+0xb8>
    3a2c: d0 07        	bne	$3a35 <printf+0x932>
    3a2e: c4 95        	cpy	$95                     ; 0x2095 <readMIDICmd+0xb7>
    3a30: 90 0a        	bcc	$3a3c <printf+0x939>
    3a32: 4c ac 3a     	jmp	$3aac <printf+0x9a9>
    3a35: e4 96        	cpx	$96                     ; 0x2096 <readMIDICmd+0xb8>
    3a37: 90 03        	bcc	$3a3c <printf+0x939>
    3a39: 4c ac 3a     	jmp	$3aac <printf+0x9a9>
    3a3c: a6 c2        	ldx	$c2                     ; 0x20c2 <readMIDICmd+0xe4>
    3a3e: 86 13        	stx	$13                     ; 0x2013 <readMIDICmd+0x35>
    3a40: a5 c3        	lda	$c3                     ; 0x20c3 <readMIDICmd+0xe5>
    3a42: a2 ff        	ldx	#$ff
    3a44: c6 95        	dec	$95                     ; 0x2095 <readMIDICmd+0xb7>
    3a46: e4 95        	cpx	$95                     ; 0x2095 <readMIDICmd+0xb7>
    3a48: d0 02        	bne	$3a4c <printf+0x949>
    3a4a: c6 96        	dec	$96                     ; 0x2096 <readMIDICmd+0xb8>
    3a4c: c5 c1        	cmp	$c1                     ; 0x20c1 <readMIDICmd+0xe3>
    3a4e: d0 0c        	bne	$3a5c <printf+0x959>
    3a50: a6 c0        	ldx	$c0                     ; 0x20c0 <readMIDICmd+0xe2>
    3a52: 86 12        	stx	$12                     ; 0x2012 <readMIDICmd+0x34>
    3a54: a6 13        	ldx	$13                     ; 0x2013 <readMIDICmd+0x35>
    3a56: e4 12        	cpx	$12                     ; 0x2012 <readMIDICmd+0x34>
    3a58: 90 06        	bcc	$3a60 <printf+0x95d>
    3a5a: 80 2a        	bra	$3a86 <printf+0x983>
    3a5c: c5 c1        	cmp	$c1                     ; 0x20c1 <readMIDICmd+0xe3>
    3a5e: b0 26        	bcs	$3a86 <printf+0x983>
    3a60: a6 cd        	ldx	$cd                     ; 0x20cd <readMIDICmd+0xef>
    3a62: e4 90        	cpx	$90                     ; 0x2090 <readMIDICmd+0xb2>
    3a64: d0 19        	bne	$3a7f <printf+0x97c>
    3a66: a6 cc        	ldx	$cc                     ; 0x20cc <readMIDICmd+0xee>
    3a68: e4 8f        	cpx	$8f                     ; 0x208f <readMIDICmd+0xb1>
    3a6a: d0 13        	bne	$3a7f <printf+0x97c>
    3a6c: 18           	clc
    3a6d: aa           	tax
    3a6e: a5 13        	lda	$13                     ; 0x2013 <readMIDICmd+0x35>
    3a70: 65 c6        	adc	$c6                     ; 0x20c6 <readMIDICmd+0xe8>
    3a72: 85 12        	sta	$12                     ; 0x2012 <readMIDICmd+0x34>
    3a74: 8a           	txa
    3a75: 65 c7        	adc	$c7                     ; 0x20c7 <readMIDICmd+0xe9>
    3a77: 85 13        	sta	$13                     ; 0x2013 <readMIDICmd+0x35>
    3a79: a9 30        	lda	#$30
    3a7b: 92 12        	sta	($12)                   ; 0x2012 <readMIDICmd+0x34>
    3a7d: 80 07        	bra	$3a86 <printf+0x983>
    3a7f: a2 00        	ldx	#$0
    3a81: a9 30        	lda	#$30
    3a83: 20 d6 3c     	jsr	$3cd6 <putchar>
    3a86: a6 c2        	ldx	$c2                     ; 0x20c2 <readMIDICmd+0xe4>
    3a88: a5 c3        	lda	$c3                     ; 0x20c3 <readMIDICmd+0xe5>
    3a8a: e8           	inx
    3a8b: d0 01        	bne	$3a8e <printf+0x98b>
    3a8d: 1a           	inc
    3a8e: 86 13        	stx	$13                     ; 0x2013 <readMIDICmd+0x35>
    3a90: 86 c2        	stx	$c2                     ; 0x20c2 <readMIDICmd+0xe4>
    3a92: 85 c3        	sta	$c3                     ; 0x20c3 <readMIDICmd+0xe5>
    3a94: a2 00        	ldx	#$0
    3a96: e4 96        	cpx	$96                     ; 0x2096 <readMIDICmd+0xb8>
    3a98: d0 09        	bne	$3aa3 <printf+0x9a0>
    3a9a: a4 8d        	ldy	$8d                     ; 0x208d <readMIDICmd+0xaf>
    3a9c: c4 95        	cpy	$95                     ; 0x2095 <readMIDICmd+0xb7>
    3a9e: b0 0c        	bcs	$3aac <printf+0x9a9>
    3aa0: 4c 42 3a     	jmp	$3a42 <printf+0x93f>
    3aa3: e4 96        	cpx	$96                     ; 0x2096 <readMIDICmd+0xb8>
    3aa5: a4 8d        	ldy	$8d                     ; 0x208d <readMIDICmd+0xaf>
    3aa7: b0 03        	bcs	$3aac <printf+0x9a9>
    3aa9: 4c 42 3a     	jmp	$3a42 <printf+0x93f>
    3aac: 98           	tya
    3aad: d0 03        	bne	$3ab2 <printf+0x9af>
    3aaf: 4c a5 3b     	jmp	$3ba5 <printf+0xaa2>
    3ab2: 88           	dey
    3ab3: d0 03        	bne	$3ab8 <printf+0x9b5>
    3ab5: 4c 42 3b     	jmp	$3b42 <printf+0xa3f>
    3ab8: 84 95        	sty	$95                     ; 0x2095 <readMIDICmd+0xb7>
    3aba: a6 d8        	ldx	$d8                     ; 0x20d8 <readMIDICmd+0xfa>
    3abc: 8a           	txa
    3abd: 18           	clc
    3abe: 65 95        	adc	$95                     ; 0x2095 <readMIDICmd+0xb7>
    3ac0: 85 8d        	sta	$8d                     ; 0x208d <readMIDICmd+0xaf>
    3ac2: a5 d9        	lda	$d9                     ; 0x20d9 <readMIDICmd+0xfb>
    3ac4: 69 00        	adc	#$0
    3ac6: 85 8e        	sta	$8e                     ; 0x208e <readMIDICmd+0xb0>
    3ac8: 4c 34 3b     	jmp	$3b34 <printf+0xa31>
    3acb: a8           	tay
    3acc: a9 80        	lda	#$80
    3ace: 25 be        	and	$be                     ; 0x20be <readMIDICmd+0xe0>
    3ad0: f0 04        	beq	$3ad6 <printf+0x9d3>
    3ad2: a2 61        	ldx	#$61
    3ad4: 80 02        	bra	$3ad8 <printf+0x9d5>
    3ad6: a2 41        	ldx	#$41
    3ad8: 86 12        	stx	$12                     ; 0x2012 <readMIDICmd+0x34>
    3ada: 18           	clc
    3adb: 98           	tya
    3adc: 65 12        	adc	$12                     ; 0x2012 <readMIDICmd+0x34>
    3ade: 18           	clc
    3adf: 69 f6        	adc	#$f6
    3ae1: a4 c2        	ldy	$c2                     ; 0x20c2 <readMIDICmd+0xe4>
    3ae3: a6 c3        	ldx	$c3                     ; 0x20c3 <readMIDICmd+0xe5>
    3ae5: e4 c1        	cpx	$c1                     ; 0x20c1 <readMIDICmd+0xe3>
    3ae7: d0 0c        	bne	$3af5 <printf+0x9f2>
    3ae9: 86 14        	stx	$14                     ; 0x2014 <readMIDICmd+0x36>
    3aeb: a6 c0        	ldx	$c0                     ; 0x20c0 <readMIDICmd+0xe2>
    3aed: 86 12        	stx	$12                     ; 0x2012 <readMIDICmd+0x34>
    3aef: c4 12        	cpy	$12                     ; 0x2012 <readMIDICmd+0x34>
    3af1: 90 08        	bcc	$3afb <printf+0x9f8>
    3af3: 80 29        	bra	$3b1e <printf+0xa1b>
    3af5: 86 14        	stx	$14                     ; 0x2014 <readMIDICmd+0x36>
    3af7: e4 c1        	cpx	$c1                     ; 0x20c1 <readMIDICmd+0xe3>
    3af9: b0 23        	bcs	$3b1e <printf+0xa1b>
    3afb: a6 cd        	ldx	$cd                     ; 0x20cd <readMIDICmd+0xef>
    3afd: e4 90        	cpx	$90                     ; 0x2090 <readMIDICmd+0xb2>
    3aff: d0 18        	bne	$3b19 <printf+0xa16>
    3b01: a6 cc        	ldx	$cc                     ; 0x20cc <readMIDICmd+0xee>
    3b03: e4 8f        	cpx	$8f                     ; 0x208f <readMIDICmd+0xb1>
    3b05: d0 12        	bne	$3b19 <printf+0xa16>
    3b07: 18           	clc
    3b08: aa           	tax
    3b09: 98           	tya
    3b0a: 65 c6        	adc	$c6                     ; 0x20c6 <readMIDICmd+0xe8>
    3b0c: 85 12        	sta	$12                     ; 0x2012 <readMIDICmd+0x34>
    3b0e: a5 14        	lda	$14                     ; 0x2014 <readMIDICmd+0x36>
    3b10: 65 c7        	adc	$c7                     ; 0x20c7 <readMIDICmd+0xe9>
    3b12: 85 13        	sta	$13                     ; 0x2013 <readMIDICmd+0x35>
    3b14: 8a           	txa
    3b15: 92 12        	sta	($12)                   ; 0x2012 <readMIDICmd+0x34>
    3b17: 80 05        	bra	$3b1e <printf+0xa1b>
    3b19: a2 00        	ldx	#$0
    3b1b: 20 d6 3c     	jsr	$3cd6 <putchar>
    3b1e: e6 c2        	inc	$c2                     ; 0x20c2 <readMIDICmd+0xe4>
    3b20: d0 02        	bne	$3b24 <printf+0xa21>
    3b22: e6 c3        	inc	$c3                     ; 0x20c3 <readMIDICmd+0xe5>
    3b24: c6 95        	dec	$95                     ; 0x2095 <readMIDICmd+0xb7>
    3b26: a2 ff        	ldx	#$ff
    3b28: c6 8d        	dec	$8d                     ; 0x208d <readMIDICmd+0xaf>
    3b2a: e4 8d        	cpx	$8d                     ; 0x208d <readMIDICmd+0xaf>
    3b2c: d0 02        	bne	$3b30 <printf+0xa2d>
    3b2e: c6 8e        	dec	$8e                     ; 0x208e <readMIDICmd+0xb0>
    3b30: a5 95        	lda	$95                     ; 0x2095 <readMIDICmd+0xb7>
    3b32: f0 0e        	beq	$3b42 <printf+0xa3f>
    3b34: b2 8d        	lda	($8d)                   ; 0x208d <readMIDICmd+0xaf>
    3b36: c9 0a        	cmp	#$a
    3b38: 90 03        	bcc	$3b3d <printf+0xa3a>
    3b3a: 4c cb 3a     	jmp	$3acb <printf+0x9c8>
    3b3d: 09 30        	ora	#$30
    3b3f: 4c e1 3a     	jmp	$3ae1 <printf+0x9de>
    3b42: a5 9b        	lda	$9b                     ; 0x209b <readMIDICmd+0xbd>
    3b44: c9 0a        	cmp	#$a
    3b46: b0 04        	bcs	$3b4c <printf+0xa49>
    3b48: 09 30        	ora	#$30
    3b4a: 80 16        	bra	$3b62 <printf+0xa5f>
    3b4c: a8           	tay
    3b4d: a9 80        	lda	#$80
    3b4f: 25 be        	and	$be                     ; 0x20be <readMIDICmd+0xe0>
    3b51: f0 04        	beq	$3b57 <printf+0xa54>
    3b53: a2 61        	ldx	#$61
    3b55: 80 02        	bra	$3b59 <printf+0xa56>
    3b57: a2 41        	ldx	#$41
    3b59: 86 12        	stx	$12                     ; 0x2012 <readMIDICmd+0x34>
    3b5b: 18           	clc
    3b5c: 98           	tya
    3b5d: 65 12        	adc	$12                     ; 0x2012 <readMIDICmd+0x34>
    3b5f: 18           	clc
    3b60: 69 f6        	adc	#$f6
    3b62: a4 c2        	ldy	$c2                     ; 0x20c2 <readMIDICmd+0xe4>
    3b64: a6 c3        	ldx	$c3                     ; 0x20c3 <readMIDICmd+0xe5>
    3b66: e4 c1        	cpx	$c1                     ; 0x20c1 <readMIDICmd+0xe3>
    3b68: d0 0c        	bne	$3b76 <printf+0xa73>
    3b6a: 86 14        	stx	$14                     ; 0x2014 <readMIDICmd+0x36>
    3b6c: a6 c0        	ldx	$c0                     ; 0x20c0 <readMIDICmd+0xe2>
    3b6e: 86 12        	stx	$12                     ; 0x2012 <readMIDICmd+0x34>
    3b70: c4 12        	cpy	$12                     ; 0x2012 <readMIDICmd+0x34>
    3b72: 90 08        	bcc	$3b7c <printf+0xa79>
    3b74: 80 29        	bra	$3b9f <printf+0xa9c>
    3b76: 86 14        	stx	$14                     ; 0x2014 <readMIDICmd+0x36>
    3b78: e4 c1        	cpx	$c1                     ; 0x20c1 <readMIDICmd+0xe3>
    3b7a: b0 23        	bcs	$3b9f <printf+0xa9c>
    3b7c: a6 cd        	ldx	$cd                     ; 0x20cd <readMIDICmd+0xef>
    3b7e: e4 90        	cpx	$90                     ; 0x2090 <readMIDICmd+0xb2>
    3b80: d0 18        	bne	$3b9a <printf+0xa97>
    3b82: a6 cc        	ldx	$cc                     ; 0x20cc <readMIDICmd+0xee>
    3b84: e4 8f        	cpx	$8f                     ; 0x208f <readMIDICmd+0xb1>
    3b86: d0 12        	bne	$3b9a <printf+0xa97>
    3b88: 18           	clc
    3b89: aa           	tax
    3b8a: 98           	tya
    3b8b: 65 c6        	adc	$c6                     ; 0x20c6 <readMIDICmd+0xe8>
    3b8d: 85 12        	sta	$12                     ; 0x2012 <readMIDICmd+0x34>
    3b8f: a5 14        	lda	$14                     ; 0x2014 <readMIDICmd+0x36>
    3b91: 65 c7        	adc	$c7                     ; 0x20c7 <readMIDICmd+0xe9>
    3b93: 85 13        	sta	$13                     ; 0x2013 <readMIDICmd+0x35>
    3b95: 8a           	txa
    3b96: 92 12        	sta	($12)                   ; 0x2012 <readMIDICmd+0x34>
    3b98: 80 05        	bra	$3b9f <printf+0xa9c>
    3b9a: a2 00        	ldx	#$0
    3b9c: 20 d6 3c     	jsr	$3cd6 <putchar>
    3b9f: e6 c2        	inc	$c2                     ; 0x20c2 <readMIDICmd+0xe4>
    3ba1: d0 02        	bne	$3ba5 <printf+0xaa2>
    3ba3: e6 c3        	inc	$c3                     ; 0x20c3 <readMIDICmd+0xe5>
    3ba5: a5 be        	lda	$be                     ; 0x20be <readMIDICmd+0xe0>
    3ba7: 29 01        	and	#$1
    3ba9: d0 1e        	bne	$3bc9 <printf+0xac6>
    3bab: a6 c2        	ldx	$c2                     ; 0x20c2 <readMIDICmd+0xe4>
    3bad: 86 14        	stx	$14                     ; 0x2014 <readMIDICmd+0x36>
    3baf: a5 c3        	lda	$c3                     ; 0x20c3 <readMIDICmd+0xe5>
    3bb1: a4 c0        	ldy	$c0                     ; 0x20c0 <readMIDICmd+0xe2>
    3bb3: a6 c1        	ldx	$c1                     ; 0x20c1 <readMIDICmd+0xe3>
    3bb5: 86 12        	stx	$12                     ; 0x2012 <readMIDICmd+0x34>
    3bb7: 86 13        	stx	$13                     ; 0x2013 <readMIDICmd+0x35>
    3bb9: c5 12        	cmp	$12                     ; 0x2012 <readMIDICmd+0x34>
    3bbb: f0 03        	beq	$3bc0 <printf+0xabd>
    3bbd: 4c 4e 3c     	jmp	$3c4e <printf+0xb4b>
    3bc0: 84 12        	sty	$12                     ; 0x2012 <readMIDICmd+0x34>
    3bc2: a6 14        	ldx	$14                     ; 0x2014 <readMIDICmd+0x36>
    3bc4: e4 12        	cpx	$12                     ; 0x2012 <readMIDICmd+0x34>
    3bc6: 4c 52 3c     	jmp	$3c52 <printf+0xb4f>
    3bc9: a6 c2        	ldx	$c2                     ; 0x20c2 <readMIDICmd+0xe4>
    3bcb: 86 14        	stx	$14                     ; 0x2014 <readMIDICmd+0x36>
    3bcd: a5 c3        	lda	$c3                     ; 0x20c3 <readMIDICmd+0xe5>
    3bcf: a6 98        	ldx	$98                     ; 0x2098 <readMIDICmd+0xba>
    3bd1: a4 97        	ldy	$97                     ; 0x2097 <readMIDICmd+0xb9>
    3bd3: f0 03        	beq	$3bd8 <printf+0xad5>
    3bd5: 4c 3a 3c     	jmp	$3c3a <printf+0xb37>
    3bd8: e0 00        	cpx	#$0
    3bda: f0 d5        	beq	$3bb1 <printf+0xaae>
    3bdc: 4c 3a 3c     	jmp	$3c3a <printf+0xb37>
    3bdf: c5 c1        	cmp	$c1                     ; 0x20c1 <readMIDICmd+0xe3>
    3be1: b0 26        	bcs	$3c09 <printf+0xb06>
    3be3: a6 cd        	ldx	$cd                     ; 0x20cd <readMIDICmd+0xef>
    3be5: e4 90        	cpx	$90                     ; 0x2090 <readMIDICmd+0xb2>
    3be7: d0 19        	bne	$3c02 <printf+0xaff>
    3be9: a6 cc        	ldx	$cc                     ; 0x20cc <readMIDICmd+0xee>
    3beb: e4 8f        	cpx	$8f                     ; 0x208f <readMIDICmd+0xb1>
    3bed: d0 13        	bne	$3c02 <printf+0xaff>
    3bef: 18           	clc
    3bf0: aa           	tax
    3bf1: a5 14        	lda	$14                     ; 0x2014 <readMIDICmd+0x36>
    3bf3: 65 c6        	adc	$c6                     ; 0x20c6 <readMIDICmd+0xe8>
    3bf5: 85 12        	sta	$12                     ; 0x2012 <readMIDICmd+0x34>
    3bf7: 8a           	txa
    3bf8: 65 c7        	adc	$c7                     ; 0x20c7 <readMIDICmd+0xe9>
    3bfa: 85 13        	sta	$13                     ; 0x2013 <readMIDICmd+0x35>
    3bfc: a9 20        	lda	#$20
    3bfe: 92 12        	sta	($12)                   ; 0x2012 <readMIDICmd+0x34>
    3c00: 80 07        	bra	$3c09 <printf+0xb06>
    3c02: a2 00        	ldx	#$0
    3c04: a9 20        	lda	#$20
    3c06: 20 d6 3c     	jsr	$3cd6 <putchar>
    3c09: a6 c2        	ldx	$c2                     ; 0x20c2 <readMIDICmd+0xe4>
    3c0b: a5 c3        	lda	$c3                     ; 0x20c3 <readMIDICmd+0xe5>
    3c0d: e8           	inx
    3c0e: d0 01        	bne	$3c11 <printf+0xb0e>
    3c10: 1a           	inc
    3c11: 86 14        	stx	$14                     ; 0x2014 <readMIDICmd+0x36>
    3c13: 86 c2        	stx	$c2                     ; 0x20c2 <readMIDICmd+0xe4>
    3c15: 85 c3        	sta	$c3                     ; 0x20c3 <readMIDICmd+0xe5>
    3c17: a6 98        	ldx	$98                     ; 0x2098 <readMIDICmd+0xba>
    3c19: 86 12        	stx	$12                     ; 0x2012 <readMIDICmd+0x34>
    3c1b: a6 97        	ldx	$97                     ; 0x2097 <readMIDICmd+0xb9>
    3c1d: 86 13        	stx	$13                     ; 0x2013 <readMIDICmd+0x35>
    3c1f: a2 ff        	ldx	#$ff
    3c21: c6 12        	dec	$12                     ; 0x2012 <readMIDICmd+0x34>
    3c23: e4 12        	cpx	$12                     ; 0x2012 <readMIDICmd+0x34>
    3c25: d0 02        	bne	$3c29 <printf+0xb26>
    3c27: c6 13        	dec	$13                     ; 0x2013 <readMIDICmd+0x35>
    3c29: a6 12        	ldx	$12                     ; 0x2012 <readMIDICmd+0x34>
    3c2b: 86 98        	stx	$98                     ; 0x2098 <readMIDICmd+0xba>
    3c2d: a6 13        	ldx	$13                     ; 0x2013 <readMIDICmd+0x35>
    3c2f: 86 97        	stx	$97                     ; 0x2097 <readMIDICmd+0xb9>
    3c31: d0 07        	bne	$3c3a <printf+0xb37>
    3c33: a6 12        	ldx	$12                     ; 0x2012 <readMIDICmd+0x34>
    3c35: d0 03        	bne	$3c3a <printf+0xb37>
    3c37: 4c b1 3b     	jmp	$3bb1 <printf+0xaae>
    3c3a: c5 c1        	cmp	$c1                     ; 0x20c1 <readMIDICmd+0xe3>
    3c3c: f0 03        	beq	$3c41 <printf+0xb3e>
    3c3e: 4c df 3b     	jmp	$3bdf <printf+0xadc>
    3c41: a6 c0        	ldx	$c0                     ; 0x20c0 <readMIDICmd+0xe2>
    3c43: 86 12        	stx	$12                     ; 0x2012 <readMIDICmd+0x34>
    3c45: a6 14        	ldx	$14                     ; 0x2014 <readMIDICmd+0x36>
    3c47: e4 12        	cpx	$12                     ; 0x2012 <readMIDICmd+0x34>
    3c49: b0 be        	bcs	$3c09 <printf+0xb06>
    3c4b: 4c e3 3b     	jmp	$3be3 <printf+0xae0>
    3c4e: 86 12        	stx	$12                     ; 0x2012 <readMIDICmd+0x34>
    3c50: c5 12        	cmp	$12                     ; 0x2012 <readMIDICmd+0x34>
    3c52: 98           	tya
    3c53: a0 01        	ldy	#$1
    3c55: 90 20        	bcc	$3c77 <printf+0xb74>
    3c57: a6 13        	ldx	$13                     ; 0x2013 <readMIDICmd+0x35>
    3c59: d0 03        	bne	$3c5e <printf+0xb5b>
    3c5b: aa           	tax
    3c5c: f0 19        	beq	$3c77 <printf+0xb74>
    3c5e: 18           	clc
    3c5f: 65 c6        	adc	$c6                     ; 0x20c6 <readMIDICmd+0xe8>
    3c61: 85 12        	sta	$12                     ; 0x2012 <readMIDICmd+0x34>
    3c63: a5 13        	lda	$13                     ; 0x2013 <readMIDICmd+0x35>
    3c65: 65 c7        	adc	$c7                     ; 0x20c7 <readMIDICmd+0xe9>
    3c67: 85 13        	sta	$13                     ; 0x2013 <readMIDICmd+0x35>
    3c69: a2 ff        	ldx	#$ff
    3c6b: c6 12        	dec	$12                     ; 0x2012 <readMIDICmd+0x34>
    3c6d: e4 12        	cpx	$12                     ; 0x2012 <readMIDICmd+0x34>
    3c6f: d0 02        	bne	$3c73 <printf+0xb70>
    3c71: c6 13        	dec	$13                     ; 0x2013 <readMIDICmd+0x35>
    3c73: a9 00        	lda	#$0
    3c75: 92 12        	sta	($12)                   ; 0x2012 <readMIDICmd+0x34>
    3c77: e6 93        	inc	$93                     ; 0x2093 <readMIDICmd+0xb5>
    3c79: d0 02        	bne	$3c7d <printf+0xb7a>
    3c7b: e6 94        	inc	$94                     ; 0x2094 <readMIDICmd+0xb6>
    3c7d: a6 94        	ldx	$94                     ; 0x2094 <readMIDICmd+0xb6>
    3c7f: e4 92        	cpx	$92                     ; 0x2092 <readMIDICmd+0xb4>
    3c81: f0 03        	beq	$3c86 <printf+0xb83>
    3c83: 4c 68 31     	jmp	$3168 <printf+0x65>
    3c86: a6 93        	ldx	$93                     ; 0x2093 <readMIDICmd+0xb5>
    3c88: e4 91        	cpx	$91                     ; 0x2091 <readMIDICmd+0xb3>
    3c8a: f0 03        	beq	$3c8f <printf+0xb8c>
    3c8c: 4c 68 31     	jmp	$3168 <printf+0x65>
    3c8f: b2 91        	lda	($91)                   ; 0x2091 <readMIDICmd+0xb3>
    3c91: a2 00        	ldx	#$0
    3c93: a0 00        	ldy	#$0
    3c95: 84 8f        	sty	$8f                     ; 0x208f <readMIDICmd+0xb1>
    3c97: a0 00        	ldy	#$0
    3c99: 84 90        	sty	$90                     ; 0x2090 <readMIDICmd+0xb2>
    3c9b: 4c 7e 31     	jmp	$317e <printf+0x7b>
    3c9e: e4 96        	cpx	$96                     ; 0x2096 <readMIDICmd+0xb8>
    3ca0: a6 8e        	ldx	$8e                     ; 0x208e <readMIDICmd+0xb0>
    3ca2: b0 03        	bcs	$3ca7 <printf+0xba4>
    3ca4: 4c bc 37     	jmp	$37bc <printf+0x6b9>
    3ca7: a5 8d        	lda	$8d                     ; 0x208d <readMIDICmd+0xaf>
    3ca9: 85 95        	sta	$95                     ; 0x2095 <readMIDICmd+0xb7>
    3cab: 64 96        	stz	$96                     ; 0x2096 <readMIDICmd+0xb8>
    3cad: e6 95        	inc	$95                     ; 0x2095 <readMIDICmd+0xb7>
    3caf: f0 03        	beq	$3cb4 <printf+0xbb1>
    3cb1: 4c bc 37     	jmp	$37bc <printf+0x6b9>
    3cb4: e6 96        	inc	$96                     ; 0x2096 <readMIDICmd+0xb8>
    3cb6: 4c bc 37     	jmp	$37bc <printf+0x6b9>
    3cb9: a2 58        	ldx	#$58
    3cbb: 86 d7        	stx	$d7                     ; 0x20d7 <readMIDICmd+0xf9>
    3cbd: a2 01        	ldx	#$1
    3cbf: 86 d2        	stx	$d2                     ; 0x20d2 <readMIDICmd+0xf4>
    3cc1: a2 30        	ldx	#$30
    3cc3: 86 d6        	stx	$d6                     ; 0x20d6 <readMIDICmd+0xf8>
    3cc5: a9 02        	lda	#$2
    3cc7: a2 00        	ldx	#$0
    3cc9: 86 d3        	stx	$d3                     ; 0x20d3 <readMIDICmd+0xf5>
    3ccb: 4c fd 37     	jmp	$37fd <printf+0x6fa>
    3cce: 64 98        	stz	$98                     ; 0x2098 <readMIDICmd+0xba>
    3cd0: 64 97        	stz	$97                     ; 0x2097 <readMIDICmd+0xb9>
    3cd2: 4c 28 3a     	jmp	$3a28 <printf+0x925>
    3cd5: 60           	rts

00003cd6 <putchar>:
    3cd6: 86 12        	stx	$12                     ; 0x2012 <readMIDICmd+0x34>
    3cd8: 85 e4        	sta	$e4                     ; 0x20e4 <readMIDICmd+0x106>
    3cda: 85 6e        	sta	$6e                     ; 0x206e <readMIDICmd+0x90>
    3cdc: a6 01        	ldx	$1                      ; 0x2001 <readMIDICmd+0x23>
    3cde: 86 e5        	stx	$e5                     ; 0x20e5 <readMIDICmd+0x107>
    3ce0: a6 61        	ldx	$61                     ; 0x2061 <readMIDICmd+0x83>
    3ce2: a0 50        	ldy	#$50
    3ce4: 8c 00 de     	sty	$de00                   ; 0xde00 <end_block9+0x98f4>
    3ce7: 9c 01 de     	stz	$de01                   ; 0xde01 <end_block9+0x98f5>
    3cea: 8e 02 de     	stx	$de02                   ; 0xde02 <end_block9+0x98f6>
    3ced: 9c 03 de     	stz	$de03                   ; 0xde03 <end_block9+0x98f7>
    3cf0: ae 10 de     	ldx	$de10                   ; 0xde10 <end_block9+0x9904>
    3cf3: ad 11 de     	lda	$de11                   ; 0xde11 <end_block9+0x9905>
    3cf6: ac 12 de     	ldy	$de12                   ; 0xde12 <end_block9+0x9906>
    3cf9: 84 1a        	sty	$1a                     ; 0x201a <readMIDICmd+0x3c>
    3cfb: ac 13 de     	ldy	$de13                   ; 0xde13 <end_block9+0x9907>
    3cfe: 84 1b        	sty	$1b                     ; 0x201b <readMIDICmd+0x3d>
    3d00: 9c 08 de     	stz	$de08                   ; 0xde08 <end_block9+0x98fc>
    3d03: a0 c0        	ldy	#$c0
    3d05: 8c 09 de     	sty	$de09                   ; 0xde09 <end_block9+0x98fd>
    3d08: 9c 0a de     	stz	$de0a                   ; 0xde0a <end_block9+0x98fe>
    3d0b: 9c 0b de     	stz	$de0b                   ; 0xde0b <end_block9+0x98ff>
    3d0e: 8e 0c de     	stx	$de0c                   ; 0xde0c <end_block9+0x9900>
    3d11: 8d 0d de     	sta	$de0d                   ; 0xde0d <end_block9+0x9901>
    3d14: 64 13        	stz	$13                     ; 0x2013 <readMIDICmd+0x35>
    3d16: a2 00        	ldx	#$0
    3d18: 86 14        	stx	$14                     ; 0x2014 <readMIDICmd+0x36>
    3d1a: a2 c0        	ldx	#$c0
    3d1c: 86 15        	stx	$15                     ; 0x2015 <readMIDICmd+0x37>
    3d1e: a2 11        	ldx	#$11
    3d20: 86 16        	stx	$16                     ; 0x2016 <readMIDICmd+0x38>
    3d22: a2 c9        	ldx	#$c9
    3d24: 86 17        	stx	$17                     ; 0x2017 <readMIDICmd+0x39>
    3d26: a2 10        	ldx	#$10
    3d28: 86 18        	stx	$18                     ; 0x2018 <readMIDICmd+0x3a>
    3d2a: a2 c9        	ldx	#$c9
    3d2c: 86 19        	stx	$19                     ; 0x2019 <readMIDICmd+0x3b>
    3d2e: a6 1a        	ldx	$1a                     ; 0x201a <readMIDICmd+0x3c>
    3d30: 8e 0e de     	stx	$de0e                   ; 0xde0e <end_block9+0x9902>
    3d33: a6 1b        	ldx	$1b                     ; 0x201b <readMIDICmd+0x3d>
    3d35: 8e 0f de     	stx	$de0f                   ; 0xde0f <end_block9+0x9903>
    3d38: ac 18 de     	ldy	$de18                   ; 0xde18 <end_block9+0x990c>
    3d3b: ad 19 de     	lda	$de19                   ; 0xde19 <end_block9+0x990d>
    3d3e: ae 1a de     	ldx	$de1a                   ; 0xde1a <end_block9+0x990e>
    3d41: ae 1b de     	ldx	$de1b                   ; 0xde1b <end_block9+0x990f>
    3d44: 84 1c        	sty	$1c                     ; 0x201c <readMIDICmd+0x3e>
    3d46: 85 1d        	sta	$1d                     ; 0x201d <readMIDICmd+0x3f>
    3d48: 64 1a        	stz	$1a                     ; 0x201a <readMIDICmd+0x3c>
    3d4a: 80 13        	bra	$3d5f <putchar+0x89>
    3d4c: a5 1c        	lda	$1c                     ; 0x201c <readMIDICmd+0x3e>
    3d4e: 18           	clc
    3d4f: 69 50        	adc	#$50
    3d51: 85 1c        	sta	$1c                     ; 0x201c <readMIDICmd+0x3e>
    3d53: a5 1d        	lda	$1d                     ; 0x201d <readMIDICmd+0x3f>
    3d55: 69 00        	adc	#$0
    3d57: 85 1d        	sta	$1d                     ; 0x201d <readMIDICmd+0x3f>
    3d59: e6 13        	inc	$13                     ; 0x2013 <readMIDICmd+0x35>
    3d5b: d0 02        	bne	$3d5f <putchar+0x89>
    3d5d: e6 1a        	inc	$1a                     ; 0x201a <readMIDICmd+0x3c>
    3d5f: a9 6e        	lda	#$6e
    3d61: 18           	clc
    3d62: 65 13        	adc	$13                     ; 0x2013 <readMIDICmd+0x35>
    3d64: 85 1e        	sta	$1e                     ; 0x201e <readMIDICmd+0x40>
    3d66: a9 00        	lda	#$0
    3d68: 65 1a        	adc	$1a                     ; 0x201a <readMIDICmd+0x3c>
    3d6a: 85 1f        	sta	$1f                     ; 0x201f <readMIDICmd+0x41>
    3d6c: b2 1e        	lda	($1e)                   ; 0x201e <readMIDICmd+0x40>
    3d6e: c9 0a        	cmp	#$a
    3d70: f0 26        	beq	$3d98 <putchar+0xc2>
    3d72: c9 0d        	cmp	#$d
    3d74: f0 22        	beq	$3d98 <putchar+0xc2>
    3d76: aa           	tax
    3d77: d0 03        	bne	$3d7c <putchar+0xa6>
    3d79: 4c a2 3e     	jmp	$3ea2 <putchar+0x1cc>
    3d7c: a2 03        	ldx	#$3
    3d7e: 86 01        	stx	$1                      ; 0x2001 <readMIDICmd+0x23>
    3d80: a4 60        	ldy	$60                     ; 0x2060 <readMIDICmd+0x82>
    3d82: a9 f0        	lda	#$f0
    3d84: 91 1c        	sta	($1c),y                 ; 0x201c <readMIDICmd+0x3e>
    3d86: ca           	dex
    3d87: 86 01        	stx	$1                      ; 0x2001 <readMIDICmd+0x23>
    3d89: b2 1e        	lda	($1e)                   ; 0x201e <readMIDICmd+0x40>
    3d8b: a4 60        	ldy	$60                     ; 0x2060 <readMIDICmd+0x82>
    3d8d: 91 1c        	sta	($1c),y                 ; 0x201c <readMIDICmd+0x3e>
    3d8f: a6 60        	ldx	$60                     ; 0x2060 <readMIDICmd+0x82>
    3d91: e8           	inx
    3d92: e6 60        	inc	$60                     ; 0x2060 <readMIDICmd+0x82>
    3d94: e0 50        	cpx	#$50
    3d96: d0 c1        	bne	$3d59 <putchar+0x83>
    3d98: 64 60        	stz	$60                     ; 0x2060 <readMIDICmd+0x82>
    3d9a: a6 61        	ldx	$61                     ; 0x2061 <readMIDICmd+0x83>
    3d9c: e8           	inx
    3d9d: e6 61        	inc	$61                     ; 0x2061 <readMIDICmd+0x83>
    3d9f: e0 1e        	cpx	#$1e
    3da1: f0 03        	beq	$3da6 <putchar+0xd0>
    3da3: 4c 4c 3d     	jmp	$3d4c <putchar+0x76>
    3da6: a2 03        	ldx	#$3
    3da8: 86 01        	stx	$1                      ; 0x2001 <readMIDICmd+0x23>
    3daa: a2 09        	ldx	#$9
    3dac: a0 50        	ldy	#$50
    3dae: a9 10        	lda	#$10
    3db0: 5a           	phy
    3db1: a0 00        	ldy	#$0
    3db3: 84 1c        	sty	$1c                     ; 0x201c <readMIDICmd+0x3e>
    3db5: a0 c0        	ldy	#$c0
    3db7: 84 1d        	sty	$1d                     ; 0x201d <readMIDICmd+0x3f>
    3db9: 7a           	ply
    3dba: 85 1b        	sta	$1b                     ; 0x201b <readMIDICmd+0x3d>
    3dbc: b1 1c        	lda	($1c),y                 ; 0x201c <readMIDICmd+0x3e>
    3dbe: 92 1c        	sta	($1c)                   ; 0x201c <readMIDICmd+0x3e>
    3dc0: a9 ff        	lda	#$ff
    3dc2: c6 1b        	dec	$1b                     ; 0x201b <readMIDICmd+0x3d>
    3dc4: c5 1b        	cmp	$1b                     ; 0x201b <readMIDICmd+0x3d>
    3dc6: d0 01        	bne	$3dc9 <putchar+0xf3>
    3dc8: ca           	dex
    3dc9: e6 1c        	inc	$1c                     ; 0x201c <readMIDICmd+0x3e>
    3dcb: d0 02        	bne	$3dcf <putchar+0xf9>
    3dcd: e6 1d        	inc	$1d                     ; 0x201d <readMIDICmd+0x3f>
    3dcf: 8a           	txa
    3dd0: d0 ea        	bne	$3dbc <putchar+0xe6>
    3dd2: a5 1b        	lda	$1b                     ; 0x201b <readMIDICmd+0x3d>
    3dd4: d0 e6        	bne	$3dbc <putchar+0xe6>
    3dd6: a2 02        	ldx	#$2
    3dd8: 86 01        	stx	$1                      ; 0x2001 <readMIDICmd+0x23>
    3dda: a2 09        	ldx	#$9
    3ddc: a9 10        	lda	#$10
    3dde: 5a           	phy
    3ddf: a0 00        	ldy	#$0
    3de1: 84 1c        	sty	$1c                     ; 0x201c <readMIDICmd+0x3e>
    3de3: a0 c0        	ldy	#$c0
    3de5: 84 1d        	sty	$1d                     ; 0x201d <readMIDICmd+0x3f>
    3de7: 7a           	ply
    3de8: 85 1b        	sta	$1b                     ; 0x201b <readMIDICmd+0x3d>
    3dea: b1 1c        	lda	($1c),y                 ; 0x201c <readMIDICmd+0x3e>
    3dec: 92 1c        	sta	($1c)                   ; 0x201c <readMIDICmd+0x3e>
    3dee: a9 ff        	lda	#$ff
    3df0: c6 1b        	dec	$1b                     ; 0x201b <readMIDICmd+0x3d>
    3df2: c5 1b        	cmp	$1b                     ; 0x201b <readMIDICmd+0x3d>
    3df4: d0 01        	bne	$3df7 <putchar+0x121>
    3df6: ca           	dex
    3df7: e6 1c        	inc	$1c                     ; 0x201c <readMIDICmd+0x3e>
    3df9: d0 02        	bne	$3dfd <putchar+0x127>
    3dfb: e6 1d        	inc	$1d                     ; 0x201d <readMIDICmd+0x3f>
    3dfd: 8a           	txa
    3dfe: d0 ea        	bne	$3dea <putchar+0x114>
    3e00: a5 1b        	lda	$1b                     ; 0x201b <readMIDICmd+0x3d>
    3e02: d0 e6        	bne	$3dea <putchar+0x114>
    3e04: a2 02        	ldx	#$2
    3e06: 86 01        	stx	$1                      ; 0x2001 <readMIDICmd+0x23>
    3e08: e8           	inx
    3e09: 86 01        	stx	$1                      ; 0x2001 <readMIDICmd+0x23>
    3e0b: a2 50        	ldx	#$50
    3e0d: a0 11        	ldy	#$11
    3e0f: 84 1c        	sty	$1c                     ; 0x201c <readMIDICmd+0x3e>
    3e11: a0 c9        	ldy	#$c9
    3e13: 84 1d        	sty	$1d                     ; 0x201d <readMIDICmd+0x3f>
    3e15: a0 10        	ldy	#$10
    3e17: 84 1e        	sty	$1e                     ; 0x201e <readMIDICmd+0x40>
    3e19: a0 c9        	ldy	#$c9
    3e1b: 84 1f        	sty	$1f                     ; 0x201f <readMIDICmd+0x41>
    3e1d: a9 f0        	lda	#$f0
    3e1f: a4 1c        	ldy	$1c                     ; 0x201c <readMIDICmd+0x3e>
    3e21: 84 22        	sty	$22                     ; 0x2022 <readMIDICmd+0x44>
    3e23: a4 1d        	ldy	$1d                     ; 0x201d <readMIDICmd+0x3f>
    3e25: 84 23        	sty	$23                     ; 0x2023 <readMIDICmd+0x45>
    3e27: 92 1e        	sta	($1e)                   ; 0x201e <readMIDICmd+0x40>
    3e29: e6 1c        	inc	$1c                     ; 0x201c <readMIDICmd+0x3e>
    3e2b: d0 02        	bne	$3e2f <putchar+0x159>
    3e2d: e6 1d        	inc	$1d                     ; 0x201d <readMIDICmd+0x3f>
    3e2f: ca           	dex
    3e30: a4 22        	ldy	$22                     ; 0x2022 <readMIDICmd+0x44>
    3e32: 84 1e        	sty	$1e                     ; 0x201e <readMIDICmd+0x40>
    3e34: a4 23        	ldy	$23                     ; 0x2023 <readMIDICmd+0x45>
    3e36: 84 1f        	sty	$1f                     ; 0x201f <readMIDICmd+0x41>
    3e38: e0 00        	cpx	#$0
    3e3a: d0 e3        	bne	$3e1f <putchar+0x149>
    3e3c: a2 02        	ldx	#$2
    3e3e: 86 01        	stx	$1                      ; 0x2001 <readMIDICmd+0x23>
    3e40: a2 50        	ldx	#$50
    3e42: a0 11        	ldy	#$11
    3e44: 84 1c        	sty	$1c                     ; 0x201c <readMIDICmd+0x3e>
    3e46: a0 c9        	ldy	#$c9
    3e48: 84 1d        	sty	$1d                     ; 0x201d <readMIDICmd+0x3f>
    3e4a: a0 10        	ldy	#$10
    3e4c: 84 1e        	sty	$1e                     ; 0x201e <readMIDICmd+0x40>
    3e4e: a0 c9        	ldy	#$c9
    3e50: 84 1f        	sty	$1f                     ; 0x201f <readMIDICmd+0x41>
    3e52: a9 20        	lda	#$20
    3e54: a4 1c        	ldy	$1c                     ; 0x201c <readMIDICmd+0x3e>
    3e56: 84 22        	sty	$22                     ; 0x2022 <readMIDICmd+0x44>
    3e58: a4 1d        	ldy	$1d                     ; 0x201d <readMIDICmd+0x3f>
    3e5a: 84 23        	sty	$23                     ; 0x2023 <readMIDICmd+0x45>
    3e5c: 92 1e        	sta	($1e)                   ; 0x201e <readMIDICmd+0x40>
    3e5e: e6 1c        	inc	$1c                     ; 0x201c <readMIDICmd+0x3e>
    3e60: d0 02        	bne	$3e64 <putchar+0x18e>
    3e62: e6 1d        	inc	$1d                     ; 0x201d <readMIDICmd+0x3f>
    3e64: ca           	dex
    3e65: a4 22        	ldy	$22                     ; 0x2022 <readMIDICmd+0x44>
    3e67: 84 1e        	sty	$1e                     ; 0x201e <readMIDICmd+0x40>
    3e69: a4 23        	ldy	$23                     ; 0x2023 <readMIDICmd+0x45>
    3e6b: 84 1f        	sty	$1f                     ; 0x201f <readMIDICmd+0x41>
    3e6d: e0 00        	cpx	#$0
    3e6f: d0 e3        	bne	$3e54 <putchar+0x17e>
    3e71: c6 61        	dec	$61                     ; 0x2061 <readMIDICmd+0x83>
    3e73: 9c 08 de     	stz	$de08                   ; 0xde08 <end_block9+0x98fc>
    3e76: a2 c0        	ldx	#$c0
    3e78: 8e 09 de     	stx	$de09                   ; 0xde09 <end_block9+0x98fd>
    3e7b: 9c 0a de     	stz	$de0a                   ; 0xde0a <end_block9+0x98fe>
    3e7e: 9c 0b de     	stz	$de0b                   ; 0xde0b <end_block9+0x98ff>
    3e81: a2 1d        	ldx	#$1d
    3e83: 8e 0c de     	stx	$de0c                   ; 0xde0c <end_block9+0x9900>
    3e86: 9c 0d de     	stz	$de0d                   ; 0xde0d <end_block9+0x9901>
    3e89: 9c 0e de     	stz	$de0e                   ; 0xde0e <end_block9+0x9902>
    3e8c: 9c 0f de     	stz	$de0f                   ; 0xde0f <end_block9+0x9903>
    3e8f: ae 18 de     	ldx	$de18                   ; 0xde18 <end_block9+0x990c>
    3e92: ac 19 de     	ldy	$de19                   ; 0xde19 <end_block9+0x990d>
    3e95: ad 1a de     	lda	$de1a                   ; 0xde1a <end_block9+0x990e>
    3e98: ad 1b de     	lda	$de1b                   ; 0xde1b <end_block9+0x990f>
    3e9b: 86 1c        	stx	$1c                     ; 0x201c <readMIDICmd+0x3e>
    3e9d: 84 1d        	sty	$1d                     ; 0x201d <readMIDICmd+0x3f>
    3e9f: 4c 59 3d     	jmp	$3d59 <putchar+0x83>
    3ea2: a6 e5        	ldx	$e5                     ; 0x20e5 <readMIDICmd+0x107>
    3ea4: 86 01        	stx	$1                      ; 0x2001 <readMIDICmd+0x23>
    3ea6: a6 60        	ldx	$60                     ; 0x2060 <readMIDICmd+0x82>
    3ea8: a4 61        	ldy	$61                     ; 0x2061 <readMIDICmd+0x83>
    3eaa: 8e 14 d0     	stx	$d014                   ; 0xd014 <end_block9+0x8b08>
    3ead: 9c 15 d0     	stz	$d015                   ; 0xd015 <end_block9+0x8b09>
    3eb0: 84 61        	sty	$61                     ; 0x2061 <readMIDICmd+0x83>
    3eb2: 8c 16 d0     	sty	$d016                   ; 0xd016 <end_block9+0x8b0a>
    3eb5: 9c 17 d0     	stz	$d017                   ; 0xd017 <end_block9+0x8b0b>
    3eb8: a6 12        	ldx	$12                     ; 0x2012 <readMIDICmd+0x34>
    3eba: a5 e4        	lda	$e4                     ; 0x20e4 <readMIDICmd+0x106>
    3ebc: 60           	rts

00003ebd <malloc>:
    3ebd: a8           	tay
    3ebe: 8a           	txa
    3ebf: a2 00        	ldx	#$0
    3ec1: 86 12        	stx	$12                     ; 0x2012 <readMIDICmd+0x34>
    3ec3: a2 00        	ldx	#$0
    3ec5: 86 13        	stx	$13                     ; 0x2013 <readMIDICmd+0x35>
    3ec7: aa           	tax
    3ec8: d0 07        	bne	$3ed1 <malloc+0x14>
    3eca: c0 00        	cpy	#$0
    3ecc: d0 03        	bne	$3ed1 <malloc+0x14>
    3ece: 4c c9 3f     	jmp	$3fc9 <malloc+0x10c>
    3ed1: 84 16        	sty	$16                     ; 0x2016 <readMIDICmd+0x38>
    3ed3: aa           	tax
    3ed4: d0 0e        	bne	$3ee4 <malloc+0x27>
    3ed6: a6 16        	ldx	$16                     ; 0x2016 <readMIDICmd+0x38>
    3ed8: e0 07        	cpx	#$7
    3eda: b0 0c        	bcs	$3ee8 <malloc+0x2b>
    3edc: a2 08        	ldx	#$8
    3ede: 86 8d        	stx	$8d                     ; 0x208d <readMIDICmd+0xaf>
    3ee0: a9 00        	lda	#$0
    3ee2: 80 2f        	bra	$3f13 <malloc+0x56>
    3ee4: c9 00        	cmp	#$0
    3ee6: 90 f4        	bcc	$3edc <malloc+0x1f>
    3ee8: a8           	tay
    3ee9: a5 16        	lda	$16                     ; 0x2016 <readMIDICmd+0x38>
    3eeb: 29 01        	and	#$1
    3eed: a2 02        	ldx	#$2
    3eef: 64 14        	stz	$14                     ; 0x2014 <readMIDICmd+0x36>
    3ef1: c9 00        	cmp	#$0
    3ef3: f0 02        	beq	$3ef7 <malloc+0x3a>
    3ef5: a2 03        	ldx	#$3
    3ef7: 86 15        	stx	$15                     ; 0x2015 <readMIDICmd+0x37>
    3ef9: 18           	clc
    3efa: a5 16        	lda	$16                     ; 0x2016 <readMIDICmd+0x38>
    3efc: 65 15        	adc	$15                     ; 0x2015 <readMIDICmd+0x37>
    3efe: aa           	tax
    3eff: 98           	tya
    3f00: 65 14        	adc	$14                     ; 0x2014 <readMIDICmd+0x36>
    3f02: 90 03        	bcc	$3f07 <malloc+0x4a>
    3f04: 4c c9 3f     	jmp	$3fc9 <malloc+0x10c>
    3f07: 86 8d        	stx	$8d                     ; 0x208d <readMIDICmd+0xaf>
    3f09: a8           	tay
    3f0a: d0 07        	bne	$3f13 <malloc+0x56>
    3f0c: e0 00        	cpx	#$0
    3f0e: d0 03        	bne	$3f13 <malloc+0x56>
    3f10: 4c c9 3f     	jmp	$3fc9 <malloc+0x10c>
    3f13: 85 8e        	sta	$8e                     ; 0x208e <readMIDICmd+0xb0>
    3f15: a5 88        	lda	$88                     ; 0x2088 <readMIDICmd+0xaa>
    3f17: 29 01        	and	#$1
    3f19: d0 29        	bne	$3f44 <malloc+0x87>
    3f1b: a9 00        	lda	#$0
    3f1d: a2 10        	ldx	#$10
    3f1f: a0 0c        	ldy	#$c
    3f21: 84 12        	sty	$12                     ; 0x2012 <readMIDICmd+0x34>
    3f23: a0 45        	ldy	#$45
    3f25: 84 13        	sty	$13                     ; 0x2013 <readMIDICmd+0x35>
    3f27: 20 48 03     	jsr	$348 <_ZN12_GLOBAL__N_19FreeChunk6insertEPvj>
    3f2a: a2 00        	ldx	#$0
    3f2c: 86 12        	stx	$12                     ; 0x2012 <readMIDICmd+0x34>
    3f2e: a2 00        	ldx	#$0
    3f30: 86 13        	stx	$13                     ; 0x2013 <readMIDICmd+0x35>
    3f32: ae 0d 45     	ldx	$450d                   ; 0x450d <end_block9+0x1>
    3f35: a9 fe        	lda	#$fe
    3f37: 2d 0c 45     	and	$450c                   ; 0x450c <end_block9>
    3f3a: 8d 0c 45     	sta	$450c                   ; 0x450c <end_block9>
    3f3d: 8e 0d 45     	stx	$450d                   ; 0x450d <end_block9+0x1>
    3f40: a2 01        	ldx	#$1
    3f42: 86 88        	stx	$88                     ; 0x2088 <readMIDICmd+0xaa>
    3f44: a5 8b        	lda	$8b                     ; 0x208b <readMIDICmd+0xad>
    3f46: a6 8c        	ldx	$8c                     ; 0x208c <readMIDICmd+0xae>
    3f48: a0 00        	ldy	#$0
    3f4a: 84 14        	sty	$14                     ; 0x2014 <readMIDICmd+0x36>
    3f4c: a0 00        	ldy	#$0
    3f4e: 84 15        	sty	$15                     ; 0x2015 <readMIDICmd+0x37>
    3f50: 86 1d        	stx	$1d                     ; 0x201d <readMIDICmd+0x3f>
    3f52: e4 15        	cpx	$15                     ; 0x2015 <readMIDICmd+0x37>
    3f54: d0 07        	bne	$3f5d <malloc+0xa0>
    3f56: c5 14        	cmp	$14                     ; 0x2014 <readMIDICmd+0x36>
    3f58: d0 03        	bne	$3f5d <malloc+0xa0>
    3f5a: 4c c9 3f     	jmp	$3fc9 <malloc+0x10c>
    3f5d: a0 00        	ldy	#$0
    3f5f: a2 10        	ldx	#$10
    3f61: 85 18        	sta	$18                     ; 0x2018 <readMIDICmd+0x3a>
    3f63: 84 14        	sty	$14                     ; 0x2014 <readMIDICmd+0x36>
    3f65: 86 15        	stx	$15                     ; 0x2015 <readMIDICmd+0x37>
    3f67: 18           	clc
    3f68: a9 0c        	lda	#$c
    3f6a: 65 14        	adc	$14                     ; 0x2014 <readMIDICmd+0x36>
    3f6c: 85 14        	sta	$14                     ; 0x2014 <readMIDICmd+0x36>
    3f6e: a9 45        	lda	#$45
    3f70: 65 15        	adc	$15                     ; 0x2015 <readMIDICmd+0x37>
    3f72: a6 14        	ldx	$14                     ; 0x2014 <readMIDICmd+0x36>
    3f74: 86 8f        	stx	$8f                     ; 0x208f <readMIDICmd+0xb1>
    3f76: 85 17        	sta	$17                     ; 0x2017 <readMIDICmd+0x39>
    3f78: a6 18        	ldx	$18                     ; 0x2018 <readMIDICmd+0x3a>
    3f7a: 86 1c        	stx	$1c                     ; 0x201c <readMIDICmd+0x3e>
    3f7c: a6 18        	ldx	$18                     ; 0x2018 <readMIDICmd+0x3a>
    3f7e: 86 14        	stx	$14                     ; 0x2014 <readMIDICmd+0x36>
    3f80: a6 1d        	ldx	$1d                     ; 0x201d <readMIDICmd+0x3f>
    3f82: 86 15        	stx	$15                     ; 0x2015 <readMIDICmd+0x37>
    3f84: a0 01        	ldy	#$1
    3f86: a6 8e        	ldx	$8e                     ; 0x208e <readMIDICmd+0xb0>
    3f88: 86 18        	stx	$18                     ; 0x2018 <readMIDICmd+0x3a>
    3f8a: b1 14        	lda	($14),y                 ; 0x2014 <readMIDICmd+0x36>
    3f8c: 85 19        	sta	$19                     ; 0x2019 <readMIDICmd+0x3b>
    3f8e: aa           	tax
    3f8f: a9 fe        	lda	#$fe
    3f91: 32 14        	and	($14)                   ; 0x2014 <readMIDICmd+0x36>
    3f93: 85 1a        	sta	$1a                     ; 0x201a <readMIDICmd+0x3c>
    3f95: e4 18        	cpx	$18                     ; 0x2018 <readMIDICmd+0x3a>
    3f97: d0 0a        	bne	$3fa3 <malloc+0xe6>
    3f99: a6 8d        	ldx	$8d                     ; 0x208d <readMIDICmd+0xaf>
    3f9b: 86 1b        	stx	$1b                     ; 0x201b <readMIDICmd+0x3d>
    3f9d: c5 1b        	cmp	$1b                     ; 0x201b <readMIDICmd+0x3d>
    3f9f: b0 29        	bcs	$3fca <malloc+0x10d>
    3fa1: 80 04        	bra	$3fa7 <malloc+0xea>
    3fa3: e4 18        	cpx	$18                     ; 0x2018 <readMIDICmd+0x3a>
    3fa5: b0 23        	bcs	$3fca <malloc+0x10d>
    3fa7: a5 14        	lda	$14                     ; 0x2014 <readMIDICmd+0x36>
    3fa9: 18           	clc
    3faa: 69 02        	adc	#$2
    3fac: 85 1a        	sta	$1a                     ; 0x201a <readMIDICmd+0x3c>
    3fae: a5 15        	lda	$15                     ; 0x2015 <readMIDICmd+0x37>
    3fb0: 69 00        	adc	#$0
    3fb2: 85 1b        	sta	$1b                     ; 0x201b <readMIDICmd+0x3d>
    3fb4: a0 02        	ldy	#$2
    3fb6: b1 14        	lda	($14),y                 ; 0x2014 <readMIDICmd+0x36>
    3fb8: 85 14        	sta	$14                     ; 0x2014 <readMIDICmd+0x36>
    3fba: 88           	dey
    3fbb: b1 1a        	lda	($1a),y                 ; 0x201a <readMIDICmd+0x3c>
    3fbd: 85 15        	sta	$15                     ; 0x2015 <readMIDICmd+0x37>
    3fbf: c5 1d        	cmp	$1d                     ; 0x201d <readMIDICmd+0x3f>
    3fc1: d0 c7        	bne	$3f8a <malloc+0xcd>
    3fc3: a5 14        	lda	$14                     ; 0x2014 <readMIDICmd+0x36>
    3fc5: c5 1c        	cmp	$1c                     ; 0x201c <readMIDICmd+0x3e>
    3fc7: d0 c1        	bne	$3f8a <malloc+0xcd>
    3fc9: 60           	rts
    3fca: a5 89        	lda	$89                     ; 0x2089 <readMIDICmd+0xab>
    3fcc: a6 8a        	ldx	$8a                     ; 0x208a <readMIDICmd+0xac>
    3fce: 86 12        	stx	$12                     ; 0x2012 <readMIDICmd+0x34>
    3fd0: 38           	sec
    3fd1: e5 1a        	sbc	$1a                     ; 0x201a <readMIDICmd+0x3c>
    3fd3: aa           	tax
    3fd4: a5 12        	lda	$12                     ; 0x2012 <readMIDICmd+0x34>
    3fd6: e5 19        	sbc	$19                     ; 0x2019 <readMIDICmd+0x3b>
    3fd8: 85 12        	sta	$12                     ; 0x2012 <readMIDICmd+0x34>
    3fda: 18           	clc
    3fdb: 8a           	txa
    3fdc: 69 02        	adc	#$2
    3fde: 85 13        	sta	$13                     ; 0x2013 <readMIDICmd+0x35>
    3fe0: a5 12        	lda	$12                     ; 0x2012 <readMIDICmd+0x34>
    3fe2: 69 00        	adc	#$0
    3fe4: a6 13        	ldx	$13                     ; 0x2013 <readMIDICmd+0x35>
    3fe6: 86 89        	stx	$89                     ; 0x2089 <readMIDICmd+0xab>
    3fe8: 85 8a        	sta	$8a                     ; 0x208a <readMIDICmd+0xac>
    3fea: a0 02        	ldy	#$2
    3fec: a5 14        	lda	$14                     ; 0x2014 <readMIDICmd+0x36>
    3fee: 18           	clc
    3fef: 69 02        	adc	#$2
    3ff1: 85 12        	sta	$12                     ; 0x2012 <readMIDICmd+0x34>
    3ff3: a5 15        	lda	$15                     ; 0x2015 <readMIDICmd+0x37>
    3ff5: 69 00        	adc	#$0
    3ff7: 85 13        	sta	$13                     ; 0x2013 <readMIDICmd+0x35>
    3ff9: b1 14        	lda	($14),y                 ; 0x2014 <readMIDICmd+0x36>
    3ffb: 85 1e        	sta	$1e                     ; 0x201e <readMIDICmd+0x40>
    3ffd: 88           	dey
    3ffe: b1 12        	lda	($12),y                 ; 0x2012 <readMIDICmd+0x34>
    4000: 85 1f        	sta	$1f                     ; 0x201f <readMIDICmd+0x41>
    4002: c5 15        	cmp	$15                     ; 0x2015 <readMIDICmd+0x37>
    4004: d0 15        	bne	$401b <malloc+0x15e>
    4006: a5 8e        	lda	$8e                     ; 0x208e <readMIDICmd+0xb0>
    4008: a6 1e        	ldx	$1e                     ; 0x201e <readMIDICmd+0x40>
    400a: e4 14        	cpx	$14                     ; 0x2014 <readMIDICmd+0x36>
    400c: d0 0d        	bne	$401b <malloc+0x15e>
    400e: 85 1a        	sta	$1a                     ; 0x201a <readMIDICmd+0x3c>
    4010: a2 00        	ldx	#$0
    4012: 86 18        	stx	$18                     ; 0x2018 <readMIDICmd+0x3a>
    4014: a2 00        	ldx	#$0
    4016: 86 19        	stx	$19                     ; 0x2019 <readMIDICmd+0x3b>
    4018: 4c 95 40     	jmp	$4095 <malloc+0x1d8>
    401b: 18           	clc
    401c: a5 14        	lda	$14                     ; 0x2014 <readMIDICmd+0x36>
    401e: 69 04        	adc	#$4
    4020: 85 18        	sta	$18                     ; 0x2018 <readMIDICmd+0x3a>
    4022: a5 15        	lda	$15                     ; 0x2015 <readMIDICmd+0x37>
    4024: 69 00        	adc	#$0
    4026: 85 19        	sta	$19                     ; 0x2019 <readMIDICmd+0x3b>
    4028: a0 04        	ldy	#$4
    402a: b1 14        	lda	($14),y                 ; 0x2014 <readMIDICmd+0x36>
    402c: 85 23        	sta	$23                     ; 0x2023 <readMIDICmd+0x45>
    402e: 18           	clc
    402f: 69 02        	adc	#$2
    4031: 85 1a        	sta	$1a                     ; 0x201a <readMIDICmd+0x3c>
    4033: a0 01        	ldy	#$1
    4035: b1 18        	lda	($18),y                 ; 0x2018 <readMIDICmd+0x3a>
    4037: 85 22        	sta	$22                     ; 0x2022 <readMIDICmd+0x44>
    4039: 69 00        	adc	#$0
    403b: a6 1a        	ldx	$1a                     ; 0x201a <readMIDICmd+0x3c>
    403d: 86 18        	stx	$18                     ; 0x2018 <readMIDICmd+0x3a>
    403f: 85 19        	sta	$19                     ; 0x2019 <readMIDICmd+0x3b>
    4041: a6 23        	ldx	$23                     ; 0x2023 <readMIDICmd+0x45>
    4043: 86 1a        	stx	$1a                     ; 0x201a <readMIDICmd+0x3c>
    4045: a6 22        	ldx	$22                     ; 0x2022 <readMIDICmd+0x44>
    4047: 86 1b        	stx	$1b                     ; 0x201b <readMIDICmd+0x3d>
    4049: c8           	iny
    404a: a5 1e        	lda	$1e                     ; 0x201e <readMIDICmd+0x40>
    404c: 91 1a        	sta	($1a),y                 ; 0x201a <readMIDICmd+0x3c>
    404e: a5 1f        	lda	$1f                     ; 0x201f <readMIDICmd+0x41>
    4050: 88           	dey
    4051: 91 18        	sta	($18),y                 ; 0x2018 <readMIDICmd+0x3a>
    4053: 18           	clc
    4054: a5 14        	lda	$14                     ; 0x2014 <readMIDICmd+0x36>
    4056: 69 02        	adc	#$2
    4058: 85 1a        	sta	$1a                     ; 0x201a <readMIDICmd+0x3c>
    405a: a5 15        	lda	$15                     ; 0x2015 <readMIDICmd+0x37>
    405c: 69 00        	adc	#$0
    405e: 85 1b        	sta	$1b                     ; 0x201b <readMIDICmd+0x3d>
    4060: c8           	iny
    4061: b1 14        	lda	($14),y                 ; 0x2014 <readMIDICmd+0x36>
    4063: 85 18        	sta	$18                     ; 0x2018 <readMIDICmd+0x3a>
    4065: aa           	tax
    4066: 88           	dey
    4067: b1 1a        	lda	($1a),y                 ; 0x201a <readMIDICmd+0x3c>
    4069: 85 19        	sta	$19                     ; 0x2019 <readMIDICmd+0x3b>
    406b: 85 16        	sta	$16                     ; 0x2016 <readMIDICmd+0x38>
    406d: a0 04        	ldy	#$4
    406f: a5 23        	lda	$23                     ; 0x2023 <readMIDICmd+0x45>
    4071: 91 18        	sta	($18),y                 ; 0x2018 <readMIDICmd+0x3a>
    4073: 18           	clc
    4074: 8a           	txa
    4075: 69 04        	adc	#$4
    4077: 85 1a        	sta	$1a                     ; 0x201a <readMIDICmd+0x3c>
    4079: a5 16        	lda	$16                     ; 0x2016 <readMIDICmd+0x38>
    407b: 69 00        	adc	#$0
    407d: 85 1b        	sta	$1b                     ; 0x201b <readMIDICmd+0x3d>
    407f: a5 22        	lda	$22                     ; 0x2022 <readMIDICmd+0x44>
    4081: a0 01        	ldy	#$1
    4083: 91 1a        	sta	($1a),y                 ; 0x201a <readMIDICmd+0x3c>
    4085: a5 8e        	lda	$8e                     ; 0x208e <readMIDICmd+0xb0>
    4087: 85 1a        	sta	$1a                     ; 0x201a <readMIDICmd+0x3c>
    4089: a6 1d        	ldx	$1d                     ; 0x201d <readMIDICmd+0x3f>
    408b: e4 15        	cpx	$15                     ; 0x2015 <readMIDICmd+0x37>
    408d: d0 0e        	bne	$409d <malloc+0x1e0>
    408f: a6 1c        	ldx	$1c                     ; 0x201c <readMIDICmd+0x3e>
    4091: e4 14        	cpx	$14                     ; 0x2014 <readMIDICmd+0x36>
    4093: d0 08        	bne	$409d <malloc+0x1e0>
    4095: a6 18        	ldx	$18                     ; 0x2018 <readMIDICmd+0x3a>
    4097: a4 19        	ldy	$19                     ; 0x2019 <readMIDICmd+0x3b>
    4099: 86 8b        	stx	$8b                     ; 0x208b <readMIDICmd+0xad>
    409b: 84 8c        	sty	$8c                     ; 0x208c <readMIDICmd+0xae>
    409d: a0 01        	ldy	#$1
    409f: b1 14        	lda	($14),y                 ; 0x2014 <readMIDICmd+0x36>
    40a1: 85 16        	sta	$16                     ; 0x2016 <readMIDICmd+0x38>
    40a3: a9 fe        	lda	#$fe
    40a5: 32 14        	and	($14)                   ; 0x2014 <readMIDICmd+0x36>
    40a7: 38           	sec
    40a8: a6 8d        	ldx	$8d                     ; 0x208d <readMIDICmd+0xaf>
    40aa: 86 18        	stx	$18                     ; 0x2018 <readMIDICmd+0x3a>
    40ac: a8           	tay
    40ad: e5 18        	sbc	$18                     ; 0x2018 <readMIDICmd+0x3a>
    40af: 85 19        	sta	$19                     ; 0x2019 <readMIDICmd+0x3b>
    40b1: a5 16        	lda	$16                     ; 0x2016 <readMIDICmd+0x38>
    40b3: a6 16        	ldx	$16                     ; 0x2016 <readMIDICmd+0x38>
    40b5: e5 1a        	sbc	$1a                     ; 0x201a <readMIDICmd+0x3c>
    40b7: f0 03        	beq	$40bc <malloc+0x1ff>
    40b9: 4c 47 41     	jmp	$4147 <malloc+0x28a>
    40bc: 85 16        	sta	$16                     ; 0x2016 <readMIDICmd+0x38>
    40be: a5 19        	lda	$19                     ; 0x2019 <readMIDICmd+0x3b>
    40c0: c9 08        	cmp	#$8
    40c2: 86 18        	stx	$18                     ; 0x2018 <readMIDICmd+0x3a>
    40c4: b0 03        	bcs	$40c9 <malloc+0x20c>
    40c6: 4c 2a 41     	jmp	$412a <malloc+0x26d>
    40c9: a6 17        	ldx	$17                     ; 0x2017 <readMIDICmd+0x39>
    40cb: 86 94        	stx	$94                     ; 0x2094 <readMIDICmd+0xb6>
    40cd: a6 8f        	ldx	$8f                     ; 0x208f <readMIDICmd+0xb1>
    40cf: 86 8f        	stx	$8f                     ; 0x208f <readMIDICmd+0xb1>
    40d1: a6 12        	ldx	$12                     ; 0x2012 <readMIDICmd+0x34>
    40d3: 86 90        	stx	$90                     ; 0x2090 <readMIDICmd+0xb2>
    40d5: a6 13        	ldx	$13                     ; 0x2013 <readMIDICmd+0x35>
    40d7: 86 91        	stx	$91                     ; 0x2091 <readMIDICmd+0xb3>
    40d9: a8           	tay
    40da: 18           	clc
    40db: a5 8d        	lda	$8d                     ; 0x208d <readMIDICmd+0xaf>
    40dd: 85 8d        	sta	$8d                     ; 0x208d <readMIDICmd+0xaf>
    40df: 65 14        	adc	$14                     ; 0x2014 <readMIDICmd+0x36>
    40e1: 85 12        	sta	$12                     ; 0x2012 <readMIDICmd+0x34>
    40e3: a5 1a        	lda	$1a                     ; 0x201a <readMIDICmd+0x3c>
    40e5: a6 1a        	ldx	$1a                     ; 0x201a <readMIDICmd+0x3c>
    40e7: 86 8e        	stx	$8e                     ; 0x208e <readMIDICmd+0xb0>
    40e9: 65 15        	adc	$15                     ; 0x2015 <readMIDICmd+0x37>
    40eb: 85 13        	sta	$13                     ; 0x2013 <readMIDICmd+0x35>
    40ed: a6 16        	ldx	$16                     ; 0x2016 <readMIDICmd+0x38>
    40ef: 98           	tya
    40f0: a4 14        	ldy	$14                     ; 0x2014 <readMIDICmd+0x36>
    40f2: 84 92        	sty	$92                     ; 0x2092 <readMIDICmd+0xb4>
    40f4: a4 15        	ldy	$15                     ; 0x2015 <readMIDICmd+0x37>
    40f6: 84 93        	sty	$93                     ; 0x2093 <readMIDICmd+0xb5>
    40f8: 20 48 03     	jsr	$348 <_ZN12_GLOBAL__N_19FreeChunk6insertEPvj>
    40fb: a6 92        	ldx	$92                     ; 0x2092 <readMIDICmd+0xb4>
    40fd: 86 14        	stx	$14                     ; 0x2014 <readMIDICmd+0x36>
    40ff: a6 93        	ldx	$93                     ; 0x2093 <readMIDICmd+0xb5>
    4101: 86 15        	stx	$15                     ; 0x2015 <readMIDICmd+0x37>
    4103: a5 8d        	lda	$8d                     ; 0x208d <readMIDICmd+0xaf>
    4105: 29 fe        	and	#$fe
    4107: 85 12        	sta	$12                     ; 0x2012 <readMIDICmd+0x34>
    4109: a0 01        	ldy	#$1
    410b: 98           	tya
    410c: 32 14        	and	($14)                   ; 0x2014 <readMIDICmd+0x36>
    410e: 05 12        	ora	$12                     ; 0x2012 <readMIDICmd+0x34>
    4110: 92 14        	sta	($14)                   ; 0x2014 <readMIDICmd+0x36>
    4112: a5 8e        	lda	$8e                     ; 0x208e <readMIDICmd+0xb0>
    4114: 91 14        	sta	($14),y                 ; 0x2014 <readMIDICmd+0x36>
    4116: a4 12        	ldy	$12                     ; 0x2012 <readMIDICmd+0x34>
    4118: 85 18        	sta	$18                     ; 0x2018 <readMIDICmd+0x3a>
    411a: a6 90        	ldx	$90                     ; 0x2090 <readMIDICmd+0xb2>
    411c: 86 12        	stx	$12                     ; 0x2012 <readMIDICmd+0x34>
    411e: a6 91        	ldx	$91                     ; 0x2091 <readMIDICmd+0xb3>
    4120: 86 13        	stx	$13                     ; 0x2013 <readMIDICmd+0x35>
    4122: a6 8f        	ldx	$8f                     ; 0x208f <readMIDICmd+0xb1>
    4124: 86 8f        	stx	$8f                     ; 0x208f <readMIDICmd+0xb1>
    4126: a6 94        	ldx	$94                     ; 0x2094 <readMIDICmd+0xb6>
    4128: 86 17        	stx	$17                     ; 0x2017 <readMIDICmd+0x39>
    412a: 18           	clc
    412b: 98           	tya
    412c: 65 14        	adc	$14                     ; 0x2014 <readMIDICmd+0x36>
    412e: 85 16        	sta	$16                     ; 0x2016 <readMIDICmd+0x38>
    4130: a5 15        	lda	$15                     ; 0x2015 <readMIDICmd+0x37>
    4132: 65 18        	adc	$18                     ; 0x2018 <readMIDICmd+0x3a>
    4134: 85 15        	sta	$15                     ; 0x2015 <readMIDICmd+0x37>
    4136: c5 17        	cmp	$17                     ; 0x2017 <readMIDICmd+0x39>
    4138: d0 1a        	bne	$4154 <malloc+0x297>
    413a: a6 8f        	ldx	$8f                     ; 0x208f <readMIDICmd+0xb1>
    413c: 86 14        	stx	$14                     ; 0x2014 <readMIDICmd+0x36>
    413e: a6 16        	ldx	$16                     ; 0x2016 <readMIDICmd+0x38>
    4140: e4 14        	cpx	$14                     ; 0x2014 <readMIDICmd+0x36>
    4142: d0 12        	bne	$4156 <malloc+0x299>
    4144: 4c c9 3f     	jmp	$3fc9 <malloc+0x10c>
    4147: 85 16        	sta	$16                     ; 0x2016 <readMIDICmd+0x38>
    4149: c9 00        	cmp	#$0
    414b: 86 18        	stx	$18                     ; 0x2018 <readMIDICmd+0x3a>
    414d: a5 19        	lda	$19                     ; 0x2019 <readMIDICmd+0x3b>
    414f: 90 d9        	bcc	$412a <malloc+0x26d>
    4151: 4c c9 40     	jmp	$40c9 <malloc+0x20c>
    4154: a6 16        	ldx	$16                     ; 0x2016 <readMIDICmd+0x38>
    4156: 86 14        	stx	$14                     ; 0x2014 <readMIDICmd+0x36>
    4158: a0 01        	ldy	#$1
    415a: b1 14        	lda	($14),y                 ; 0x2014 <readMIDICmd+0x36>
    415c: 85 16        	sta	$16                     ; 0x2016 <readMIDICmd+0x38>
    415e: a9 fe        	lda	#$fe
    4160: 32 14        	and	($14)                   ; 0x2014 <readMIDICmd+0x36>
    4162: 92 14        	sta	($14)                   ; 0x2014 <readMIDICmd+0x36>
    4164: a5 16        	lda	$16                     ; 0x2016 <readMIDICmd+0x38>
    4166: 91 14        	sta	($14),y                 ; 0x2014 <readMIDICmd+0x36>
    4168: 60           	rts

00004169 <memcpy>:
    4169: a8           	tay
    416a: 8a           	txa
    416b: d0 03        	bne	$4170 <memcpy+0x7>
    416d: 98           	tya
    416e: f0 24        	beq	$4194 <memcpy+0x2b>
    4170: a5 12        	lda	$12                     ; 0x2012 <readMIDICmd+0x34>
    4172: 85 16        	sta	$16                     ; 0x2016 <readMIDICmd+0x38>
    4174: a5 13        	lda	$13                     ; 0x2013 <readMIDICmd+0x35>
    4176: 85 17        	sta	$17                     ; 0x2017 <readMIDICmd+0x39>
    4178: b2 14        	lda	($14)                   ; 0x2014 <readMIDICmd+0x36>
    417a: 92 16        	sta	($16)                   ; 0x2016 <readMIDICmd+0x38>
    417c: e6 16        	inc	$16                     ; 0x2016 <readMIDICmd+0x38>
    417e: d0 02        	bne	$4182 <memcpy+0x19>
    4180: e6 17        	inc	$17                     ; 0x2017 <readMIDICmd+0x39>
    4182: e6 14        	inc	$14                     ; 0x2014 <readMIDICmd+0x36>
    4184: d0 02        	bne	$4188 <memcpy+0x1f>
    4186: e6 15        	inc	$15                     ; 0x2015 <readMIDICmd+0x37>
    4188: 88           	dey
    4189: c0 ff        	cpy	#$ff
    418b: d0 01        	bne	$418e <memcpy+0x25>
    418d: ca           	dex
    418e: 8a           	txa
    418f: d0 e7        	bne	$4178 <memcpy+0xf>
    4191: 98           	tya
    4192: d0 e4        	bne	$4178 <memcpy+0xf>
    4194: 60           	rts

00004195 <__memset>:
    4195: a4 14        	ldy	$14                     ; 0x2014 <readMIDICmd+0x36>
    4197: d0 04        	bne	$419d <__memset+0x8>
    4199: e0 00        	cpx	#$0
    419b: f0 17        	beq	$41b4 <__memset+0x1f>
    419d: 92 12        	sta	($12)                   ; 0x2012 <readMIDICmd+0x34>
    419f: e6 12        	inc	$12                     ; 0x2012 <readMIDICmd+0x34>
    41a1: d0 02        	bne	$41a5 <__memset+0x10>
    41a3: e6 13        	inc	$13                     ; 0x2013 <readMIDICmd+0x35>
    41a5: ca           	dex
    41a6: e0 ff        	cpx	#$ff
    41a8: d0 02        	bne	$41ac <__memset+0x17>
    41aa: c6 14        	dec	$14                     ; 0x2014 <readMIDICmd+0x36>
    41ac: a4 14        	ldy	$14                     ; 0x2014 <readMIDICmd+0x36>
    41ae: d0 ed        	bne	$419d <__memset+0x8>
    41b0: e0 00        	cpx	#$0
    41b2: d0 e9        	bne	$419d <__memset+0x8>
    41b4: 60           	rts

000041b5 <__mulhi3>:
    41b5: a4 13        	ldy	$13                     ; 0x2013 <readMIDICmd+0x35>
    41b7: d0 04        	bne	$41bd <__mulhi3+0x8>
    41b9: a4 12        	ldy	$12                     ; 0x2012 <readMIDICmd+0x34>
    41bb: f0 25        	beq	$41e2 <__mulhi3+0x2d>
    41bd: 85 14        	sta	$14                     ; 0x2014 <readMIDICmd+0x36>
    41bf: 86 15        	stx	$15                     ; 0x2015 <readMIDICmd+0x37>
    41c1: a0 00        	ldy	#$0
    41c3: 98           	tya
    41c4: 46 13        	lsr	$13                     ; 0x2013 <readMIDICmd+0x35>
    41c6: 66 12        	ror	$12                     ; 0x2012 <readMIDICmd+0x34>
    41c8: 90 09        	bcc	$41d3 <__mulhi3+0x1e>
    41ca: aa           	tax
    41cb: 98           	tya
    41cc: 18           	clc
    41cd: 65 14        	adc	$14                     ; 0x2014 <readMIDICmd+0x36>
    41cf: a8           	tay
    41d0: 8a           	txa
    41d1: 65 15        	adc	$15                     ; 0x2015 <readMIDICmd+0x37>
    41d3: 06 14        	asl	$14                     ; 0x2014 <readMIDICmd+0x36>
    41d5: 26 15        	rol	$15                     ; 0x2015 <readMIDICmd+0x37>
    41d7: a6 13        	ldx	$13                     ; 0x2013 <readMIDICmd+0x35>
    41d9: d0 e9        	bne	$41c4 <__mulhi3+0xf>
    41db: a6 12        	ldx	$12                     ; 0x2012 <readMIDICmd+0x34>
    41dd: d0 e5        	bne	$41c4 <__mulhi3+0xf>
    41df: aa           	tax
    41e0: 98           	tya
    41e1: 60           	rts
    41e2: a0 00        	ldy	#$0
    41e4: 98           	tya
    41e5: 80 f8        	bra	$41df <__mulhi3+0x2a>

000041e7 <__udivsi3>:
    41e7: 64 18        	stz	$18                     ; 0x2018 <readMIDICmd+0x3a>
    41e9: a4 17        	ldy	$17                     ; 0x2017 <readMIDICmd+0x39>
    41eb: d0 0c        	bne	$41f9 <__udivsi3+0x12>
    41ed: a4 16        	ldy	$16                     ; 0x2016 <readMIDICmd+0x38>
    41ef: d0 08        	bne	$41f9 <__udivsi3+0x12>
    41f1: a4 15        	ldy	$15                     ; 0x2015 <readMIDICmd+0x37>
    41f3: d0 04        	bne	$41f9 <__udivsi3+0x12>
    41f5: a4 14        	ldy	$14                     ; 0x2014 <readMIDICmd+0x36>
    41f7: f0 27        	beq	$4220 <__udivsi3+0x39>
    41f9: 86 1e        	stx	$1e                     ; 0x201e <readMIDICmd+0x40>
    41fb: a6 12        	ldx	$12                     ; 0x2012 <readMIDICmd+0x34>
    41fd: 86 1f        	stx	$1f                     ; 0x201f <readMIDICmd+0x41>
    41ff: a6 13        	ldx	$13                     ; 0x2013 <readMIDICmd+0x35>
    4201: 86 22        	stx	$22                     ; 0x2022 <readMIDICmd+0x44>
    4203: e4 17        	cpx	$17                     ; 0x2017 <readMIDICmd+0x39>
    4205: d0 15        	bne	$421c <__udivsi3+0x35>
    4207: a6 12        	ldx	$12                     ; 0x2012 <readMIDICmd+0x34>
    4209: e4 16        	cpx	$16                     ; 0x2016 <readMIDICmd+0x38>
    420b: d0 1a        	bne	$4227 <__udivsi3+0x40>
    420d: a6 1e        	ldx	$1e                     ; 0x201e <readMIDICmd+0x40>
    420f: e4 15        	cpx	$15                     ; 0x2015 <readMIDICmd+0x37>
    4211: f0 03        	beq	$4216 <__udivsi3+0x2f>
    4213: 4c 4c 43     	jmp	$434c <__udivsi3+0x165>
    4216: c5 14        	cmp	$14                     ; 0x2014 <readMIDICmd+0x36>
    4218: 90 06        	bcc	$4220 <__udivsi3+0x39>
    421a: 80 0f        	bra	$422b <__udivsi3+0x44>
    421c: e4 17        	cpx	$17                     ; 0x2017 <readMIDICmd+0x39>
    421e: b0 0b        	bcs	$422b <__udivsi3+0x44>
    4220: a2 00        	ldx	#$0
    4222: 86 8d        	stx	$8d                     ; 0x208d <readMIDICmd+0xaf>
    4224: 4c 91 42     	jmp	$4291 <__udivsi3+0xaa>
    4227: e4 16        	cpx	$16                     ; 0x2016 <readMIDICmd+0x38>
    4229: 90 f5        	bcc	$4220 <__udivsi3+0x39>
    422b: a2 01        	ldx	#$1
    422d: 86 8d        	stx	$8d                     ; 0x208d <readMIDICmd+0xaf>
    422f: a6 17        	ldx	$17                     ; 0x2017 <readMIDICmd+0x39>
    4231: 10 03        	bpl	$4236 <__udivsi3+0x4f>
    4233: 4c 91 42     	jmp	$4291 <__udivsi3+0xaa>
    4236: 85 1d        	sta	$1d                     ; 0x201d <readMIDICmd+0x3f>
    4238: a5 1e        	lda	$1e                     ; 0x201e <readMIDICmd+0x40>
    423a: a2 00        	ldx	#$0
    423c: a4 14        	ldy	$14                     ; 0x2014 <readMIDICmd+0x36>
    423e: 84 19        	sty	$19                     ; 0x2019 <readMIDICmd+0x3b>
    4240: a4 15        	ldy	$15                     ; 0x2015 <readMIDICmd+0x37>
    4242: 84 1a        	sty	$1a                     ; 0x201a <readMIDICmd+0x3c>
    4244: a4 16        	ldy	$16                     ; 0x2016 <readMIDICmd+0x38>
    4246: 84 1b        	sty	$1b                     ; 0x201b <readMIDICmd+0x3d>
    4248: a4 17        	ldy	$17                     ; 0x2017 <readMIDICmd+0x39>
    424a: 84 1c        	sty	$1c                     ; 0x201c <readMIDICmd+0x3e>
    424c: 06 19        	asl	$19                     ; 0x2019 <readMIDICmd+0x3b>
    424e: 26 1a        	rol	$1a                     ; 0x201a <readMIDICmd+0x3c>
    4250: 26 1b        	rol	$1b                     ; 0x201b <readMIDICmd+0x3d>
    4252: 26 1c        	rol	$1c                     ; 0x201c <readMIDICmd+0x3e>
    4254: a4 22        	ldy	$22                     ; 0x2022 <readMIDICmd+0x44>
    4256: c4 1c        	cpy	$1c                     ; 0x201c <readMIDICmd+0x3e>
    4258: d0 12        	bne	$426c <__udivsi3+0x85>
    425a: a4 12        	ldy	$12                     ; 0x2012 <readMIDICmd+0x34>
    425c: c4 1b        	cpy	$1b                     ; 0x201b <readMIDICmd+0x3d>
    425e: d0 12        	bne	$4272 <__udivsi3+0x8b>
    4260: c5 1a        	cmp	$1a                     ; 0x201a <readMIDICmd+0x3c>
    4262: d0 14        	bne	$4278 <__udivsi3+0x91>
    4264: a4 1d        	ldy	$1d                     ; 0x201d <readMIDICmd+0x3f>
    4266: c4 19        	cpy	$19                     ; 0x2019 <readMIDICmd+0x3b>
    4268: 90 30        	bcc	$429a <__udivsi3+0xb3>
    426a: 80 10        	bra	$427c <__udivsi3+0x95>
    426c: c4 1c        	cpy	$1c                     ; 0x201c <readMIDICmd+0x3e>
    426e: 90 2a        	bcc	$429a <__udivsi3+0xb3>
    4270: 80 0a        	bra	$427c <__udivsi3+0x95>
    4272: c4 1b        	cpy	$1b                     ; 0x201b <readMIDICmd+0x3d>
    4274: 90 24        	bcc	$429a <__udivsi3+0xb3>
    4276: 80 04        	bra	$427c <__udivsi3+0x95>
    4278: c5 1a        	cmp	$1a                     ; 0x201a <readMIDICmd+0x3c>
    427a: 90 1e        	bcc	$429a <__udivsi3+0xb3>
    427c: e8           	inx
    427d: a4 19        	ldy	$19                     ; 0x2019 <readMIDICmd+0x3b>
    427f: 84 14        	sty	$14                     ; 0x2014 <readMIDICmd+0x36>
    4281: a4 1a        	ldy	$1a                     ; 0x201a <readMIDICmd+0x3c>
    4283: 84 15        	sty	$15                     ; 0x2015 <readMIDICmd+0x37>
    4285: a4 1b        	ldy	$1b                     ; 0x201b <readMIDICmd+0x3d>
    4287: 84 16        	sty	$16                     ; 0x2016 <readMIDICmd+0x38>
    4289: a4 1c        	ldy	$1c                     ; 0x201c <readMIDICmd+0x3e>
    428b: 84 17        	sty	$17                     ; 0x2017 <readMIDICmd+0x39>
    428d: 10 bd        	bpl	$424c <__udivsi3+0x65>
    428f: 80 19        	bra	$42aa <__udivsi3+0xc3>
    4291: 64 12        	stz	$12                     ; 0x2012 <readMIDICmd+0x34>
    4293: 64 13        	stz	$13                     ; 0x2013 <readMIDICmd+0x35>
    4295: a6 18        	ldx	$18                     ; 0x2018 <readMIDICmd+0x3a>
    4297: a5 8d        	lda	$8d                     ; 0x208d <readMIDICmd+0xaf>
    4299: 60           	rts
    429a: a4 14        	ldy	$14                     ; 0x2014 <readMIDICmd+0x36>
    429c: 84 19        	sty	$19                     ; 0x2019 <readMIDICmd+0x3b>
    429e: a4 15        	ldy	$15                     ; 0x2015 <readMIDICmd+0x37>
    42a0: 84 1a        	sty	$1a                     ; 0x201a <readMIDICmd+0x3c>
    42a2: a4 16        	ldy	$16                     ; 0x2016 <readMIDICmd+0x38>
    42a4: 84 1b        	sty	$1b                     ; 0x201b <readMIDICmd+0x3d>
    42a6: a4 17        	ldy	$17                     ; 0x2017 <readMIDICmd+0x39>
    42a8: 84 1c        	sty	$1c                     ; 0x201c <readMIDICmd+0x3e>
    42aa: 64 12        	stz	$12                     ; 0x2012 <readMIDICmd+0x34>
    42ac: 64 13        	stz	$13                     ; 0x2013 <readMIDICmd+0x35>
    42ae: 8a           	txa
    42af: f0 e4        	beq	$4295 <__udivsi3+0xae>
    42b1: 38           	sec
    42b2: a5 1d        	lda	$1d                     ; 0x201d <readMIDICmd+0x3f>
    42b4: e5 19        	sbc	$19                     ; 0x2019 <readMIDICmd+0x3b>
    42b6: 85 14        	sta	$14                     ; 0x2014 <readMIDICmd+0x36>
    42b8: a5 1e        	lda	$1e                     ; 0x201e <readMIDICmd+0x40>
    42ba: e5 1a        	sbc	$1a                     ; 0x201a <readMIDICmd+0x3c>
    42bc: 85 17        	sta	$17                     ; 0x2017 <readMIDICmd+0x39>
    42be: a5 1f        	lda	$1f                     ; 0x201f <readMIDICmd+0x41>
    42c0: e5 1b        	sbc	$1b                     ; 0x201b <readMIDICmd+0x3d>
    42c2: 85 15        	sta	$15                     ; 0x2015 <readMIDICmd+0x37>
    42c4: a5 22        	lda	$22                     ; 0x2022 <readMIDICmd+0x44>
    42c6: e5 1c        	sbc	$1c                     ; 0x201c <readMIDICmd+0x3e>
    42c8: a0 01        	ldy	#$1
    42ca: 84 8d        	sty	$8d                     ; 0x208d <readMIDICmd+0xaf>
    42cc: 64 18        	stz	$18                     ; 0x2018 <readMIDICmd+0x3a>
    42ce: 46 1c        	lsr	$1c                     ; 0x201c <readMIDICmd+0x3e>
    42d0: 66 1b        	ror	$1b                     ; 0x201b <readMIDICmd+0x3d>
    42d2: 66 1a        	ror	$1a                     ; 0x201a <readMIDICmd+0x3c>
    42d4: 66 19        	ror	$19                     ; 0x2019 <readMIDICmd+0x3b>
    42d6: a4 8d        	ldy	$8d                     ; 0x208d <readMIDICmd+0xaf>
    42d8: 84 16        	sty	$16                     ; 0x2016 <readMIDICmd+0x38>
    42da: 06 16        	asl	$16                     ; 0x2016 <readMIDICmd+0x38>
    42dc: a0 01        	ldy	#$1
    42de: b0 02        	bcs	$42e2 <__udivsi3+0xfb>
    42e0: a0 00        	ldy	#$0
    42e2: 84 1d        	sty	$1d                     ; 0x201d <readMIDICmd+0x3f>
    42e4: a4 16        	ldy	$16                     ; 0x2016 <readMIDICmd+0x38>
    42e6: 84 8d        	sty	$8d                     ; 0x208d <readMIDICmd+0xaf>
    42e8: c5 1c        	cmp	$1c                     ; 0x201c <readMIDICmd+0x3e>
    42ea: d0 16        	bne	$4302 <__udivsi3+0x11b>
    42ec: 85 16        	sta	$16                     ; 0x2016 <readMIDICmd+0x38>
    42ee: a4 15        	ldy	$15                     ; 0x2015 <readMIDICmd+0x37>
    42f0: a5 17        	lda	$17                     ; 0x2017 <readMIDICmd+0x39>
    42f2: c4 1b        	cpy	$1b                     ; 0x201b <readMIDICmd+0x3d>
    42f4: d0 4a        	bne	$4340 <__udivsi3+0x159>
    42f6: c5 1a        	cmp	$1a                     ; 0x201a <readMIDICmd+0x3c>
    42f8: d0 4c        	bne	$4346 <__udivsi3+0x15f>
    42fa: a4 14        	ldy	$14                     ; 0x2014 <readMIDICmd+0x36>
    42fc: c4 19        	cpy	$19                     ; 0x2019 <readMIDICmd+0x3b>
    42fe: b0 0a        	bcs	$430a <__udivsi3+0x123>
    4300: 80 27        	bra	$4329 <__udivsi3+0x142>
    4302: 85 16        	sta	$16                     ; 0x2016 <readMIDICmd+0x38>
    4304: c5 1c        	cmp	$1c                     ; 0x201c <readMIDICmd+0x3e>
    4306: a5 17        	lda	$17                     ; 0x2017 <readMIDICmd+0x39>
    4308: 90 1f        	bcc	$4329 <__udivsi3+0x142>
    430a: a8           	tay
    430b: 38           	sec
    430c: a5 14        	lda	$14                     ; 0x2014 <readMIDICmd+0x36>
    430e: e5 19        	sbc	$19                     ; 0x2019 <readMIDICmd+0x3b>
    4310: 85 14        	sta	$14                     ; 0x2014 <readMIDICmd+0x36>
    4312: 98           	tya
    4313: e5 1a        	sbc	$1a                     ; 0x201a <readMIDICmd+0x3c>
    4315: 85 17        	sta	$17                     ; 0x2017 <readMIDICmd+0x39>
    4317: a5 15        	lda	$15                     ; 0x2015 <readMIDICmd+0x37>
    4319: e5 1b        	sbc	$1b                     ; 0x201b <readMIDICmd+0x3d>
    431b: 85 15        	sta	$15                     ; 0x2015 <readMIDICmd+0x37>
    431d: a5 16        	lda	$16                     ; 0x2016 <readMIDICmd+0x38>
    431f: e5 1c        	sbc	$1c                     ; 0x201c <readMIDICmd+0x3e>
    4321: 85 16        	sta	$16                     ; 0x2016 <readMIDICmd+0x38>
    4323: a5 8d        	lda	$8d                     ; 0x208d <readMIDICmd+0xaf>
    4325: 09 01        	ora	#$1
    4327: 85 8d        	sta	$8d                     ; 0x208d <readMIDICmd+0xaf>
    4329: a4 1d        	ldy	$1d                     ; 0x201d <readMIDICmd+0x3f>
    432b: c0 01        	cpy	#$1
    432d: 26 18        	rol	$18                     ; 0x2018 <readMIDICmd+0x3a>
    432f: 26 12        	rol	$12                     ; 0x2012 <readMIDICmd+0x34>
    4331: 26 13        	rol	$13                     ; 0x2013 <readMIDICmd+0x35>
    4333: ca           	dex
    4334: a5 16        	lda	$16                     ; 0x2016 <readMIDICmd+0x38>
    4336: e0 00        	cpx	#$0
    4338: f0 03        	beq	$433d <__udivsi3+0x156>
    433a: 4c ce 42     	jmp	$42ce <__udivsi3+0xe7>
    433d: 4c 95 42     	jmp	$4295 <__udivsi3+0xae>
    4340: c4 1b        	cpy	$1b                     ; 0x201b <readMIDICmd+0x3d>
    4342: b0 c6        	bcs	$430a <__udivsi3+0x123>
    4344: 80 e3        	bra	$4329 <__udivsi3+0x142>
    4346: c5 1a        	cmp	$1a                     ; 0x201a <readMIDICmd+0x3c>
    4348: b0 c0        	bcs	$430a <__udivsi3+0x123>
    434a: 80 dd        	bra	$4329 <__udivsi3+0x142>
    434c: e4 15        	cpx	$15                     ; 0x2015 <readMIDICmd+0x37>
    434e: b0 03        	bcs	$4353 <__udivsi3+0x16c>
    4350: 4c 20 42     	jmp	$4220 <__udivsi3+0x39>
    4353: 4c 2b 42     	jmp	$422b <__udivsi3+0x44>

00004356 <__umodhi3>:
    4356: a8           	tay
    4357: 8a           	txa
    4358: e6 13        	inc	$13                     ; 0x2013 <readMIDICmd+0x35>
    435a: c6 13        	dec	$13                     ; 0x2013 <readMIDICmd+0x35>
    435c: d0 09        	bne	$4367 <__umodhi3+0x11>
    435e: e6 12        	inc	$12                     ; 0x2012 <readMIDICmd+0x34>
    4360: c6 12        	dec	$12                     ; 0x2012 <readMIDICmd+0x34>
    4362: d0 03        	bne	$4367 <__umodhi3+0x11>
    4364: 4c f8 43     	jmp	$43f8 <__umodhi3+0xa2>
    4367: c5 13        	cmp	$13                     ; 0x2013 <readMIDICmd+0x35>
    4369: d0 07        	bne	$4372 <__umodhi3+0x1c>
    436b: c4 12        	cpy	$12                     ; 0x2012 <readMIDICmd+0x34>
    436d: b0 0a        	bcs	$4379 <__umodhi3+0x23>
    436f: 4c f8 43     	jmp	$43f8 <__umodhi3+0xa2>
    4372: c5 13        	cmp	$13                     ; 0x2013 <readMIDICmd+0x35>
    4374: b0 03        	bcs	$4379 <__umodhi3+0x23>
    4376: 4c f8 43     	jmp	$43f8 <__umodhi3+0xa2>
    4379: 86 16        	stx	$16                     ; 0x2016 <readMIDICmd+0x38>
    437b: e6 13        	inc	$13                     ; 0x2013 <readMIDICmd+0x35>
    437d: c6 13        	dec	$13                     ; 0x2013 <readMIDICmd+0x35>
    437f: 10 03        	bpl	$4384 <__umodhi3+0x2e>
    4381: 4c f0 43     	jmp	$43f0 <__umodhi3+0x9a>
    4384: a2 00        	ldx	#$0
    4386: 5a           	phy
    4387: a4 12        	ldy	$12                     ; 0x2012 <readMIDICmd+0x34>
    4389: 84 14        	sty	$14                     ; 0x2014 <readMIDICmd+0x36>
    438b: a4 13        	ldy	$13                     ; 0x2013 <readMIDICmd+0x35>
    438d: 84 15        	sty	$15                     ; 0x2015 <readMIDICmd+0x37>
    438f: 7a           	ply
    4390: 06 14        	asl	$14                     ; 0x2014 <readMIDICmd+0x36>
    4392: 26 15        	rol	$15                     ; 0x2015 <readMIDICmd+0x37>
    4394: c5 15        	cmp	$15                     ; 0x2015 <readMIDICmd+0x37>
    4396: d0 08        	bne	$43a0 <__umodhi3+0x4a>
    4398: c4 14        	cpy	$14                     ; 0x2014 <readMIDICmd+0x36>
    439a: a5 16        	lda	$16                     ; 0x2016 <readMIDICmd+0x38>
    439c: 90 19        	bcc	$43b7 <__umodhi3+0x61>
    439e: 80 04        	bra	$43a4 <__umodhi3+0x4e>
    43a0: c5 15        	cmp	$15                     ; 0x2015 <readMIDICmd+0x37>
    43a2: 90 13        	bcc	$43b7 <__umodhi3+0x61>
    43a4: e8           	inx
    43a5: 5a           	phy
    43a6: a4 14        	ldy	$14                     ; 0x2014 <readMIDICmd+0x36>
    43a8: 84 12        	sty	$12                     ; 0x2012 <readMIDICmd+0x34>
    43aa: a4 15        	ldy	$15                     ; 0x2015 <readMIDICmd+0x37>
    43ac: 84 13        	sty	$13                     ; 0x2013 <readMIDICmd+0x35>
    43ae: 7a           	ply
    43af: e6 15        	inc	$15                     ; 0x2015 <readMIDICmd+0x37>
    43b1: c6 15        	dec	$15                     ; 0x2015 <readMIDICmd+0x37>
    43b3: 10 db        	bpl	$4390 <__umodhi3+0x3a>
    43b5: 80 08        	bra	$43bf <__umodhi3+0x69>
    43b7: a5 12        	lda	$12                     ; 0x2012 <readMIDICmd+0x34>
    43b9: 85 14        	sta	$14                     ; 0x2014 <readMIDICmd+0x36>
    43bb: a5 13        	lda	$13                     ; 0x2013 <readMIDICmd+0x35>
    43bd: 85 15        	sta	$15                     ; 0x2015 <readMIDICmd+0x37>
    43bf: 38           	sec
    43c0: 98           	tya
    43c1: e5 14        	sbc	$14                     ; 0x2014 <readMIDICmd+0x36>
    43c3: a8           	tay
    43c4: a5 16        	lda	$16                     ; 0x2016 <readMIDICmd+0x38>
    43c6: e5 15        	sbc	$15                     ; 0x2015 <readMIDICmd+0x37>
    43c8: e0 00        	cpx	#$0
    43ca: d0 08        	bne	$43d4 <__umodhi3+0x7e>
    43cc: 80 2a        	bra	$43f8 <__umodhi3+0xa2>
    43ce: c5 15        	cmp	$15                     ; 0x2015 <readMIDICmd+0x37>
    43d0: b0 0e        	bcs	$43e0 <__umodhi3+0x8a>
    43d2: 80 17        	bra	$43eb <__umodhi3+0x95>
    43d4: 46 15        	lsr	$15                     ; 0x2015 <readMIDICmd+0x37>
    43d6: 66 14        	ror	$14                     ; 0x2014 <readMIDICmd+0x36>
    43d8: c5 15        	cmp	$15                     ; 0x2015 <readMIDICmd+0x37>
    43da: d0 f2        	bne	$43ce <__umodhi3+0x78>
    43dc: c4 14        	cpy	$14                     ; 0x2014 <readMIDICmd+0x36>
    43de: 90 0b        	bcc	$43eb <__umodhi3+0x95>
    43e0: 85 12        	sta	$12                     ; 0x2012 <readMIDICmd+0x34>
    43e2: 38           	sec
    43e3: 98           	tya
    43e4: e5 14        	sbc	$14                     ; 0x2014 <readMIDICmd+0x36>
    43e6: a8           	tay
    43e7: a5 12        	lda	$12                     ; 0x2012 <readMIDICmd+0x34>
    43e9: e5 15        	sbc	$15                     ; 0x2015 <readMIDICmd+0x37>
    43eb: ca           	dex
    43ec: d0 e6        	bne	$43d4 <__umodhi3+0x7e>
    43ee: 80 08        	bra	$43f8 <__umodhi3+0xa2>
    43f0: 38           	sec
    43f1: 98           	tya
    43f2: e5 12        	sbc	$12                     ; 0x2012 <readMIDICmd+0x34>
    43f4: a8           	tay
    43f5: 8a           	txa
    43f6: e5 13        	sbc	$13                     ; 0x2013 <readMIDICmd+0x35>
    43f8: aa           	tax
    43f9: 98           	tya
    43fa: 60           	rts
