
multiRead.elf:	file format elf32-mos

SYMBOL TABLE:
00000000 l    df *ABS*	00000000 zero-bss.c
00000000 l    df *ABS*	00000000 zero-zp-bss.c
00000000 l    df *ABS*	00000000 ld-temp.o
00000479 l     F .text	00000380 f256Init
00000035 l     O .zp.bss	00000007 kernelEventData
0000227b l     O .rodata	00000030 textColors
00000030 l     O .zp.bss	00000001 _col
00000031 l     O .zp.bss	00000001 _row
00000034 l     O .zp.bss	00000001 kernelError
000007ff l     F .text	000005e2 f256main
00000de1 l     F .text	00000093 fileOpen
00000e74 l     F .text	0000014b fileRead
00001f3e l     F .text	000002b6 malloc
000011a3 l     F .text	00000bd9 printf
00000fc4 l     F .text	000000d3 _ZN12_GLOBAL__N_13putEcP6Status
00001d7c l     F .text	000001c2 putchar
00001097 l     F .text	0000010c _ZN12_GLOBAL__N_112print_stringEPKcP6Status
00000032 l     O .zp.bss	00000002 __putchar.s
000022f5 l     O .bss	00000001 _ZN12_GLOBAL__N_111initializedE
00000316 l     F .text	0000013d _ZN12_GLOBAL__N_19FreeChunk6insertEPvj
000022f8 l     O .bss	00000002 _ZN12_GLOBAL__N_19free_listE
000022f6 l     O .bss	00000002 _ZN12_GLOBAL__N_19free_sizeE
000007f9 g     F .text	00000006 main
00000311 g       .text	00000000 __after_main
00000300 g       .text	00000000 __do_init_stack
00000308 g       .text	00000000 __do_zero_bss
00000453 g     F .text	00000013 __zero_bss
0000030b g       .text	00000000 __do_zero_zp_bss
00000466 g     F .text	00000013 __zero_zp_bss
00000fbf g     F .text	00000005 exit
00000314 g       .text	00000000 _fini
00002240 g       .rodata	00000000 __set_v
00002220  w    F .text	00000020 __memset
00001000  w      *ABS*	00000000 __heap_default_limit
000022fa g       .noinit	00000000 __heap_start
000021f4  w    F .text	0000002c memcpy
00000010 g       *ABS*	00000000 __rc0
00000012 g       *ABS*	00000000 __rc2
00000014 g       *ABS*	00000000 __rc4
00000016 g       *ABS*	00000000 __rc6
00000018 g       *ABS*	00000000 __rc8
0000001a g       *ABS*	00000000 __rc10
0000001c g       *ABS*	00000000 __rc12
0000001e g       *ABS*	00000000 __rc14
00000020 g       *ABS*	00000000 __rc16
00000022 g       *ABS*	00000000 __rc18
00000024 g       *ABS*	00000000 __rc20
00000026 g       *ABS*	00000000 __rc22
00000028 g       *ABS*	00000000 __rc24
0000002a g       *ABS*	00000000 __rc26
0000002c g       *ABS*	00000000 __rc28
0000002e g       *ABS*	00000000 __rc30
0000002f g       *ABS*	00000000 __rc31
00000300 g       *ABS*	00000000 __f256_start
0000a000 g       *ABS*	00000000 __stack
0000a000 g       *ABS*	00000000 __SLOT_ADDR
0800a000 g       *ABS*	00000000 __block8_lma
00002000 g       *ABS*	00000000 __BLOCK_SIZE
0900a000 g       *ABS*	00000000 __block9_lma
0a00a000 g       *ABS*	00000000 __block10_lma
0b00a000 g       *ABS*	00000000 __block11_lma
0c00a000 g       *ABS*	00000000 __block12_lma
0d00a000 g       *ABS*	00000000 __block13_lma
0e00a000 g       *ABS*	00000000 __block14_lma
0f00a000 g       *ABS*	00000000 __block15_lma
1000a000 g       *ABS*	00000000 __block16_lma
1100a000 g       *ABS*	00000000 __block17_lma
1200a000 g       *ABS*	00000000 __block18_lma
1300a000 g       *ABS*	00000000 __block19_lma
1400a000 g       *ABS*	00000000 __block20_lma
1500a000 g       *ABS*	00000000 __block21_lma
1600a000 g       *ABS*	00000000 __block22_lma
1700a000 g       *ABS*	00000000 __block23_lma
000022f5 g       .bss	00000000 __bss_start
00000300 g       .text	00000000 _start
0000002d g       *ABS*	00000000 __rc29
0000002b g       *ABS*	00000000 __rc27
00000029 g       *ABS*	00000000 __rc25
00000027 g       *ABS*	00000000 __rc23
00000025 g       *ABS*	00000000 __rc21
00000023 g       *ABS*	00000000 __rc19
00000021 g       *ABS*	00000000 __rc17
0000001f g       *ABS*	00000000 __rc15
0000001d g       *ABS*	00000000 __rc13
0000001b g       *ABS*	00000000 __rc11
00000019 g       *ABS*	00000000 __rc9
00000017 g       *ABS*	00000000 __rc7
00000015 g       *ABS*	00000000 __rc5
00000013 g       *ABS*	00000000 __rc3
00000011 g       *ABS*	00000000 __rc1
00000030 g       .zp.data	00000000 __zp_data_start
00000300 g       *ABS*	00000000 __zp_data_load_start
00000000 g       *ABS*	00000000 __zp_data_size
00000030 g       .zp.bss	00000000 __zp_bss_start
0000000c g       *ABS*	00000000 __zp_bss_size
00000300 g       .text	00000000 _init
00002240 g       .text	00000000 __init_array_start
00002240 g       .text	00000000 __init_array_end
00002240 g       .text	00000000 __fini_array_start
00002240 g       .text	00000000 __fini_array_end
000022f5 g       .data	00000000 __data_start
000022f5 g       .data	00000000 __data_end
000022f5 g       *ABS*	00000000 __data_load_start
00000000 g       *ABS*	00000000 __data_size
000022fa g       .bss	00000000 __bss_end
00000005 g       *ABS*	00000000 __bss_size
000022fa g       .noinit	00000000 end_block8
000022fa g       .noinit	00000000 end_block9
000022fa g       .noinit	00000000 end_block10
000022fa g       .noinit	00000000 end_block11
000022fa g       .noinit	00000000 end_block12
000022fa g       .noinit	00000000 end_block13
000022fa g       .noinit	00000000 end_block14
000022fa g       .noinit	00000000 end_block15
000022fa g       .noinit	00000000 end_block16
000022fa g       .noinit	00000000 end_block17
000022fa g       .noinit	00000000 end_block18
000022fa g       .noinit	00000000 end_block19
000022fa g       .noinit	00000000 end_block20
000022fa g       .noinit	00000000 end_block21
000022fa g       .noinit	00000000 end_block22
000022fa g       .noinit	00000000 end_block23

Disassembly of section .text:

00000300 <_start>:
     300: a9 00        	lda	#$0
     302: 85 10        	sta	$10                     ; 0x2010 <malloc+0xd2>
     304: a9 a0        	lda	#$a0
     306: 85 11        	sta	$11                     ; 0x2011 <malloc+0xd3>

00000308 <__do_zero_bss>:
     308: 20 53 04     	jsr	$453 <__zero_bss>

0000030b <__do_zero_zp_bss>:
     30b: 20 66 04     	jsr	$466 <__zero_zp_bss>
     30e: 20 f9 07     	jsr	$7f9 <main>

00000311 <__after_main>:
     311: 4c bf 0f     	jmp	$fbf <exit>

00000314 <_fini>:
     314: 60           	rts
     315: 00           	brk

00000316 <_ZN12_GLOBAL__N_19FreeChunk6insertEPvj>:
     316: 85 16        	sta	$16                     ; 0x2016 <malloc+0xd8>
     318: 29 fe        	and	#$fe
     31a: 85 14        	sta	$14                     ; 0x2014 <malloc+0xd6>
     31c: a0 01        	ldy	#$1
     31e: 98           	tya
     31f: 32 12        	and	($12)                   ; 0x2012 <malloc+0xd4>
     321: 05 14        	ora	$14                     ; 0x2014 <malloc+0xd6>
     323: 92 12        	sta	($12)                   ; 0x2012 <malloc+0xd4>
     325: a5 12        	lda	$12                     ; 0x2012 <malloc+0xd4>
     327: 18           	clc
     328: 65 14        	adc	$14                     ; 0x2014 <malloc+0xd6>
     32a: 85 15        	sta	$15                     ; 0x2015 <malloc+0xd7>
     32c: 8a           	txa
     32d: 65 13        	adc	$13                     ; 0x2013 <malloc+0xd5>
     32f: 85 14        	sta	$14                     ; 0x2014 <malloc+0xd6>
     331: 18           	clc
     332: a5 15        	lda	$15                     ; 0x2015 <malloc+0xd7>
     334: 69 fe        	adc	#$fe
     336: 85 17        	sta	$17                     ; 0x2017 <malloc+0xd9>
     338: a5 14        	lda	$14                     ; 0x2014 <malloc+0xd6>
     33a: 69 ff        	adc	#$ff
     33c: 85 15        	sta	$15                     ; 0x2015 <malloc+0xd7>
     33e: a5 17        	lda	$17                     ; 0x2017 <malloc+0xd9>
     340: 85 14        	sta	$14                     ; 0x2014 <malloc+0xd6>
     342: 8a           	txa
     343: 91 12        	sta	($12),y                 ; 0x2012 <malloc+0xd4>
     345: a5 16        	lda	$16                     ; 0x2016 <malloc+0xd8>
     347: 92 14        	sta	($14)                   ; 0x2014 <malloc+0xd6>
     349: 8a           	txa
     34a: 91 14        	sta	($14),y                 ; 0x2014 <malloc+0xd6>
     34c: b1 12        	lda	($12),y                 ; 0x2012 <malloc+0xd4>
     34e: 85 14        	sta	$14                     ; 0x2014 <malloc+0xd6>
     350: a9 fe        	lda	#$fe
     352: 32 12        	and	($12)                   ; 0x2012 <malloc+0xd4>
     354: 18           	clc
     355: 6d f6 22     	adc	$22f6                   ; 0x22f6 <_ZN12_GLOBAL__N_19free_sizeE>
     358: aa           	tax
     359: a5 14        	lda	$14                     ; 0x2014 <malloc+0xd6>
     35b: 6d f7 22     	adc	$22f7                   ; 0x22f7 <_ZN12_GLOBAL__N_19free_sizeE+0x1>
     35e: a8           	tay
     35f: 18           	clc
     360: 8a           	txa
     361: 69 fe        	adc	#$fe
     363: aa           	tax
     364: 98           	tya
     365: 69 ff        	adc	#$ff
     367: 8e f6 22     	stx	$22f6                   ; 0x22f6 <_ZN12_GLOBAL__N_19free_sizeE>
     36a: 8d f7 22     	sta	$22f7                   ; 0x22f7 <_ZN12_GLOBAL__N_19free_sizeE+0x1>
     36d: ae f8 22     	ldx	$22f8                   ; 0x22f8 <_ZN12_GLOBAL__N_19free_listE>
     370: 86 16        	stx	$16                     ; 0x2016 <malloc+0xd8>
     372: ac f9 22     	ldy	$22f9                   ; 0x22f9 <_ZN12_GLOBAL__N_19free_listE+0x1>
     375: a2 00        	ldx	#$0
     377: 86 14        	stx	$14                     ; 0x2014 <malloc+0xd6>
     379: a2 00        	ldx	#$0
     37b: 86 15        	stx	$15                     ; 0x2015 <malloc+0xd7>
     37d: c4 15        	cpy	$15                     ; 0x2015 <malloc+0xd7>
     37f: d0 3e        	bne	$3bf <_ZN12_GLOBAL__N_19FreeChunk6insertEPvj+0xa9>
     381: a6 16        	ldx	$16                     ; 0x2016 <malloc+0xd8>
     383: e4 14        	cpx	$14                     ; 0x2014 <malloc+0xd6>
     385: d0 38        	bne	$3bf <_ZN12_GLOBAL__N_19FreeChunk6insertEPvj+0xa9>
     387: a0 04        	ldy	#$4
     389: a5 12        	lda	$12                     ; 0x2012 <malloc+0xd4>
     38b: 18           	clc
     38c: 69 04        	adc	#$4
     38e: 85 14        	sta	$14                     ; 0x2014 <malloc+0xd6>
     390: a5 13        	lda	$13                     ; 0x2013 <malloc+0xd5>
     392: 69 00        	adc	#$0
     394: 18           	clc
     395: 85 15        	sta	$15                     ; 0x2015 <malloc+0xd7>
     397: a5 12        	lda	$12                     ; 0x2012 <malloc+0xd4>
     399: 91 12        	sta	($12),y                 ; 0x2012 <malloc+0xd4>
     39b: a0 02        	ldy	#$2
     39d: 85 17        	sta	$17                     ; 0x2017 <malloc+0xd9>
     39f: 69 02        	adc	#$2
     3a1: 85 16        	sta	$16                     ; 0x2016 <malloc+0xd8>
     3a3: a5 17        	lda	$17                     ; 0x2017 <malloc+0xd9>
     3a5: 91 12        	sta	($12),y                 ; 0x2012 <malloc+0xd4>
     3a7: a5 13        	lda	$13                     ; 0x2013 <malloc+0xd5>
     3a9: 69 00        	adc	#$0
     3ab: 85 17        	sta	$17                     ; 0x2017 <malloc+0xd9>
     3ad: 88           	dey
     3ae: a5 13        	lda	$13                     ; 0x2013 <malloc+0xd5>
     3b0: 91 14        	sta	($14),y                 ; 0x2014 <malloc+0xd6>
     3b2: 91 16        	sta	($16),y                 ; 0x2016 <malloc+0xd8>
     3b4: a6 12        	ldx	$12                     ; 0x2012 <malloc+0xd4>
     3b6: 8e f8 22     	stx	$22f8                   ; 0x22f8 <_ZN12_GLOBAL__N_19free_listE>
     3b9: a6 13        	ldx	$13                     ; 0x2013 <malloc+0xd5>
     3bb: 8e f9 22     	stx	$22f9                   ; 0x22f9 <_ZN12_GLOBAL__N_19free_listE+0x1>
     3be: 60           	rts
     3bf: a6 12        	ldx	$12                     ; 0x2012 <malloc+0xd4>
     3c1: a5 12        	lda	$12                     ; 0x2012 <malloc+0xd4>
     3c3: 18           	clc
     3c4: 69 02        	adc	#$2
     3c6: 85 14        	sta	$14                     ; 0x2014 <malloc+0xd6>
     3c8: 84 18        	sty	$18                     ; 0x2018 <malloc+0xda>
     3ca: a5 13        	lda	$13                     ; 0x2013 <malloc+0xd5>
     3cc: 69 00        	adc	#$0
     3ce: 85 15        	sta	$15                     ; 0x2015 <malloc+0xd7>
     3d0: a5 16        	lda	$16                     ; 0x2016 <malloc+0xd8>
     3d2: 84 17        	sty	$17                     ; 0x2017 <malloc+0xd9>
     3d4: a0 02        	ldy	#$2
     3d6: 91 12        	sta	($12),y                 ; 0x2012 <malloc+0xd4>
     3d8: 85 19        	sta	$19                     ; 0x2019 <malloc+0xdb>
     3da: 88           	dey
     3db: a5 18        	lda	$18                     ; 0x2018 <malloc+0xda>
     3dd: 91 14        	sta	($14),y                 ; 0x2014 <malloc+0xd6>
     3df: 18           	clc
     3e0: a5 19        	lda	$19                     ; 0x2019 <malloc+0xdb>
     3e2: 69 04        	adc	#$4
     3e4: a8           	tay
     3e5: a5 18        	lda	$18                     ; 0x2018 <malloc+0xda>
     3e7: 69 00        	adc	#$0
     3e9: 85 19        	sta	$19                     ; 0x2019 <malloc+0xdb>
     3eb: 84 18        	sty	$18                     ; 0x2018 <malloc+0xda>
     3ed: 8a           	txa
     3ee: 18           	clc
     3ef: 69 04        	adc	#$4
     3f1: 85 1a        	sta	$1a                     ; 0x201a <malloc+0xdc>
     3f3: a5 13        	lda	$13                     ; 0x2013 <malloc+0xd5>
     3f5: 69 00        	adc	#$0
     3f7: 85 1b        	sta	$1b                     ; 0x201b <malloc+0xdd>
     3f9: a0 04        	ldy	#$4
     3fb: b1 16        	lda	($16),y                 ; 0x2016 <malloc+0xd8>
     3fd: 85 16        	sta	$16                     ; 0x2016 <malloc+0xd8>
     3ff: 85 1d        	sta	$1d                     ; 0x201d <malloc+0xdf>
     401: a0 01        	ldy	#$1
     403: b1 18        	lda	($18),y                 ; 0x2018 <malloc+0xda>
     405: 85 17        	sta	$17                     ; 0x2017 <malloc+0xd9>
     407: 85 19        	sta	$19                     ; 0x2019 <malloc+0xdb>
     409: a0 04        	ldy	#$4
     40b: a5 1d        	lda	$1d                     ; 0x201d <malloc+0xdf>
     40d: 91 12        	sta	($12),y                 ; 0x2012 <malloc+0xd4>
     40f: a5 19        	lda	$19                     ; 0x2019 <malloc+0xdb>
     411: a0 01        	ldy	#$1
     413: 91 1a        	sta	($1a),y                 ; 0x201a <malloc+0xdc>
     415: 18           	clc
     416: a5 1d        	lda	$1d                     ; 0x201d <malloc+0xdf>
     418: 69 02        	adc	#$2
     41a: 85 18        	sta	$18                     ; 0x2018 <malloc+0xda>
     41c: a5 19        	lda	$19                     ; 0x2019 <malloc+0xdb>
     41e: 69 00        	adc	#$0
     420: 85 19        	sta	$19                     ; 0x2019 <malloc+0xdb>
     422: 8a           	txa
     423: c8           	iny
     424: 91 16        	sta	($16),y                 ; 0x2016 <malloc+0xd8>
     426: a5 13        	lda	$13                     ; 0x2013 <malloc+0xd5>
     428: 88           	dey
     429: 91 18        	sta	($18),y                 ; 0x2018 <malloc+0xda>
     42b: c8           	iny
     42c: b1 12        	lda	($12),y                 ; 0x2012 <malloc+0xd4>
     42e: 85 16        	sta	$16                     ; 0x2016 <malloc+0xd8>
     430: 85 18        	sta	$18                     ; 0x2018 <malloc+0xda>
     432: 88           	dey
     433: b1 14        	lda	($14),y                 ; 0x2014 <malloc+0xd6>
     435: 85 17        	sta	$17                     ; 0x2017 <malloc+0xd9>
     437: 85 14        	sta	$14                     ; 0x2014 <malloc+0xd6>
     439: 8a           	txa
     43a: a0 04        	ldy	#$4
     43c: 91 16        	sta	($16),y                 ; 0x2016 <malloc+0xd8>
     43e: 18           	clc
     43f: a5 18        	lda	$18                     ; 0x2018 <malloc+0xda>
     441: 69 04        	adc	#$4
     443: a8           	tay
     444: a5 14        	lda	$14                     ; 0x2014 <malloc+0xd6>
     446: 69 00        	adc	#$0
     448: 84 14        	sty	$14                     ; 0x2014 <malloc+0xd6>
     44a: 85 15        	sta	$15                     ; 0x2015 <malloc+0xd7>
     44c: a5 13        	lda	$13                     ; 0x2013 <malloc+0xd5>
     44e: a0 01        	ldy	#$1
     450: 91 14        	sta	($14),y                 ; 0x2014 <malloc+0xd6>
     452: 60           	rts

00000453 <__zero_bss>:
     453: a2 05        	ldx	#$5
     455: a0 00        	ldy	#$0
     457: a9 f5        	lda	#$f5
     459: 85 12        	sta	$12                     ; 0x2012 <malloc+0xd4>
     45b: a9 22        	lda	#$22
     45d: 85 13        	sta	$13                     ; 0x2013 <malloc+0xd5>
     45f: a9 00        	lda	#$0
     461: 84 14        	sty	$14                     ; 0x2014 <malloc+0xd6>
     463: 4c 20 22     	jmp	$2220 <__memset>

00000466 <__zero_zp_bss>:
     466: a2 0c        	ldx	#$c
     468: a0 00        	ldy	#$0
     46a: a9 30        	lda	#$30
     46c: 85 12        	sta	$12                     ; 0x2012 <malloc+0xd4>
     46e: a9 00        	lda	#$0
     470: 85 13        	sta	$13                     ; 0x2013 <malloc+0xd5>
     472: a9 00        	lda	#$0
     474: 84 14        	sty	$14                     ; 0x2014 <malloc+0xd6>
     476: 4c 20 22     	jmp	$2220 <__memset>

00000479 <f256Init>:
     479: 64 14        	stz	$14                     ; 0x2014 <malloc+0xd6>
     47b: a2 00        	ldx	#$0
     47d: 86 12        	stx	$12                     ; 0x2012 <malloc+0xd4>
     47f: a2 c0        	ldx	#$c0
     481: 86 13        	stx	$13                     ; 0x2013 <malloc+0xd5>
     483: 64 01        	stz	$1                      ; 0x2001 <malloc+0xc3>
     485: a2 3f        	ldx	#$3f
     487: 8e 00 d0     	stx	$d000                   ; 0xd000 <end_block9+0xad06>
     48a: a2 b3        	ldx	#$b3
     48c: 86 00        	stx	$0                      ; 0x2000 <malloc+0xc2>
     48e: 64 08        	stz	$8                      ; 0x2008 <malloc+0xca>
     490: a2 01        	ldx	#$1
     492: 86 09        	stx	$9                      ; 0x2009 <malloc+0xcb>
     494: e8           	inx
     495: 86 0a        	stx	$a                      ; 0x200a <malloc+0xcc>
     497: e8           	inx
     498: 86 0b        	stx	$b                      ; 0x200b <malloc+0xcd>
     49a: e8           	inx
     49b: 86 0c        	stx	$c                      ; 0x200c <malloc+0xce>
     49d: e8           	inx
     49e: 86 0d        	stx	$d                      ; 0x200d <malloc+0xcf>
     4a0: a2 35        	ldx	#$35
     4a2: a0 00        	ldy	#$0
     4a4: 86 f0        	stx	$f0                     ; 0x20f0 <malloc+0x1b2>
     4a6: 84 f1        	sty	$f1                     ; 0x20f1 <malloc+0x1b3>
     4a8: a2 00        	ldx	#$0
     4aa: 86 18        	stx	$18                     ; 0x2018 <malloc+0xda>
     4ac: ca           	dex
     4ad: 86 19        	stx	$19                     ; 0x2019 <malloc+0xdb>
     4af: 8a           	txa
     4b0: 0a           	asl
     4b1: 0a           	asl
     4b2: 18           	clc
     4b3: 69 d4        	adc	#$d4
     4b5: 85 1a        	sta	$1a                     ; 0x201a <malloc+0xdc>
     4b7: a0 00        	ldy	#$0
     4b9: 64 17        	stz	$17                     ; 0x2017 <malloc+0xd9>
     4bb: 64 16        	stz	$16                     ; 0x2016 <malloc+0xd8>
     4bd: a6 19        	ldx	$19                     ; 0x2019 <malloc+0xdb>
     4bf: e0 03        	cpx	#$3
     4c1: a6 01        	ldx	$1                      ; 0x2001 <malloc+0xc3>
     4c3: 86 1c        	stx	$1c                     ; 0x201c <malloc+0xde>
     4c5: a2 d0        	ldx	#$d0
     4c7: 84 1b        	sty	$1b                     ; 0x201b <malloc+0xdd>
     4c9: b0 02        	bcs	$4cd <f256Init+0x54>
     4cb: a6 1a        	ldx	$1a                     ; 0x201a <malloc+0xdc>
     4cd: 86 15        	stx	$15                     ; 0x2015 <malloc+0xd7>
     4cf: a5 17        	lda	$17                     ; 0x2017 <malloc+0xd9>
     4d1: 18           	clc
     4d2: 65 14        	adc	$14                     ; 0x2014 <malloc+0xd6>
     4d4: a8           	tay
     4d5: a6 17        	ldx	$17                     ; 0x2017 <malloc+0xd9>
     4d7: a5 16        	lda	$16                     ; 0x2016 <malloc+0xd8>
     4d9: 85 1d        	sta	$1d                     ; 0x201d <malloc+0xdf>
     4db: a5 16        	lda	$16                     ; 0x2016 <malloc+0xd8>
     4dd: 65 15        	adc	$15                     ; 0x2015 <malloc+0xd7>
     4df: 84 16        	sty	$16                     ; 0x2016 <malloc+0xd8>
     4e1: a0 01        	ldy	#$1
     4e3: 84 01        	sty	$1                      ; 0x2001 <malloc+0xc3>
     4e5: 85 17        	sta	$17                     ; 0x2017 <malloc+0xd9>
     4e7: a5 1b        	lda	$1b                     ; 0x201b <malloc+0xdd>
     4e9: 92 16        	sta	($16)                   ; 0x2016 <malloc+0xd8>
     4eb: 91 16        	sta	($16),y                 ; 0x2016 <malloc+0xd8>
     4ed: c8           	iny
     4ee: 91 16        	sta	($16),y                 ; 0x2016 <malloc+0xd8>
     4f0: 85 15        	sta	$15                     ; 0x2015 <malloc+0xd7>
     4f2: c8           	iny
     4f3: a9 ff        	lda	#$ff
     4f5: 91 16        	sta	($16),y                 ; 0x2016 <malloc+0xd8>
     4f7: 8a           	txa
     4f8: a6 1c        	ldx	$1c                     ; 0x201c <malloc+0xde>
     4fa: 86 01        	stx	$1                      ; 0x2001 <malloc+0xc3>
     4fc: 18           	clc
     4fd: 69 04        	adc	#$4
     4ff: 85 17        	sta	$17                     ; 0x2017 <malloc+0xd9>
     501: a5 1d        	lda	$1d                     ; 0x201d <malloc+0xdf>
     503: 69 00        	adc	#$0
     505: e6 15        	inc	$15                     ; 0x2015 <malloc+0xd7>
     507: a4 15        	ldy	$15                     ; 0x2015 <malloc+0xd7>
     509: 85 16        	sta	$16                     ; 0x2016 <malloc+0xd8>
     50b: c9 04        	cmp	#$4
     50d: f0 03        	beq	$512 <f256Init+0x99>
     50f: 4c bd 04     	jmp	$4bd <f256Init+0x44>
     512: a5 17        	lda	$17                     ; 0x2017 <malloc+0xd9>
     514: f0 03        	beq	$519 <f256Init+0xa0>
     516: 4c bd 04     	jmp	$4bd <f256Init+0x44>
     519: a6 18        	ldx	$18                     ; 0x2018 <malloc+0xda>
     51b: e8           	inx
     51c: e0 04        	cpx	#$4
     51e: f0 03        	beq	$523 <f256Init+0xaa>
     520: 4c aa 04     	jmp	$4aa <f256Init+0x31>
     523: ad 02 d0     	lda	$d002                   ; 0xd002 <end_block9+0xad08>
     526: 29 f0        	and	#$f0
     528: 8d 02 d0     	sta	$d002                   ; 0xd002 <end_block9+0xad08>
     52b: ad 02 d0     	lda	$d002                   ; 0xd002 <end_block9+0xad08>
     52e: 29 0f        	and	#$f
     530: 09 10        	ora	#$10
     532: 8d 02 d0     	sta	$d002                   ; 0xd002 <end_block9+0xad08>
     535: a2 02        	ldx	#$2
     537: 8e 03 d0     	stx	$d003                   ; 0xd003 <end_block9+0xad09>
     53a: ad 01 d0     	lda	$d001                   ; 0xd001 <end_block9+0xad07>
     53d: 29 f9        	and	#$f9
     53f: 09 04        	ora	#$4
     541: 8d 01 d0     	sta	$d001                   ; 0xd001 <end_block9+0xad07>
     544: 64 14        	stz	$14                     ; 0x2014 <malloc+0xd6>
     546: 9c 10 d0     	stz	$d010                   ; 0xd010 <end_block9+0xad16>
     549: a2 00        	ldx	#$0
     54b: 64 15        	stz	$15                     ; 0x2015 <malloc+0xd7>
     54d: 86 18        	stx	$18                     ; 0x2018 <malloc+0xda>
     54f: a4 18        	ldy	$18                     ; 0x2018 <malloc+0xda>
     551: be 7b 22     	ldx	$227b,y                 ; 0x227b <textColors>
     554: 86 19        	stx	$19                     ; 0x2019 <malloc+0xdb>
     556: be 7c 22     	ldx	$227c,y                 ; 0x227c <textColors+0x1>
     559: 86 1a        	stx	$1a                     ; 0x201a <malloc+0xdc>
     55b: be 7d 22     	ldx	$227d,y                 ; 0x227d <textColors+0x2>
     55e: 86 1b        	stx	$1b                     ; 0x201b <malloc+0xdd>
     560: a6 15        	ldx	$15                     ; 0x2015 <malloc+0xd7>
     562: 8e 00 de     	stx	$de00                   ; 0xde00 <end_block9+0xbb06>
     565: 86 17        	stx	$17                     ; 0x2017 <malloc+0xd9>
     567: 9c 01 de     	stz	$de01                   ; 0xde01 <end_block9+0xbb07>
     56a: a2 04        	ldx	#$4
     56c: 8e 02 de     	stx	$de02                   ; 0xde02 <end_block9+0xbb08>
     56f: 9c 03 de     	stz	$de03                   ; 0xde03 <end_block9+0xbb09>
     572: ad 10 de     	lda	$de10                   ; 0xde10 <end_block9+0xbb16>
     575: ac 11 de     	ldy	$de11                   ; 0xde11 <end_block9+0xbb17>
     578: 84 15        	sty	$15                     ; 0x2015 <malloc+0xd7>
     57a: ac 12 de     	ldy	$de12                   ; 0xde12 <end_block9+0xbb18>
     57d: ac 13 de     	ldy	$de13                   ; 0xde13 <end_block9+0xbb19>
     580: 18           	clc
     581: 65 14        	adc	$14                     ; 0x2014 <malloc+0xd6>
     583: 85 16        	sta	$16                     ; 0x2016 <malloc+0xd8>
     585: a6 17        	ldx	$17                     ; 0x2017 <malloc+0xd9>
     587: a9 d8        	lda	#$d8
     589: 65 15        	adc	$15                     ; 0x2015 <malloc+0xd7>
     58b: 85 17        	sta	$17                     ; 0x2017 <malloc+0xd9>
     58d: a5 1b        	lda	$1b                     ; 0x201b <malloc+0xdd>
     58f: 92 16        	sta	($16)                   ; 0x2016 <malloc+0xd8>
     591: a0 01        	ldy	#$1
     593: a5 1a        	lda	$1a                     ; 0x201a <malloc+0xdc>
     595: 91 16        	sta	($16),y                 ; 0x2016 <malloc+0xd8>
     597: c8           	iny
     598: a5 19        	lda	$19                     ; 0x2019 <malloc+0xdb>
     59a: 91 16        	sta	($16),y                 ; 0x2016 <malloc+0xd8>
     59c: c8           	iny
     59d: a9 ff        	lda	#$ff
     59f: 91 16        	sta	($16),y                 ; 0x2016 <malloc+0xd8>
     5a1: 8e 00 de     	stx	$de00                   ; 0xde00 <end_block9+0xbb06>
     5a4: 9c 01 de     	stz	$de01                   ; 0xde01 <end_block9+0xbb07>
     5a7: c8           	iny
     5a8: 8c 02 de     	sty	$de02                   ; 0xde02 <end_block9+0xbb08>
     5ab: 9c 03 de     	stz	$de03                   ; 0xde03 <end_block9+0xbb09>
     5ae: ad 10 de     	lda	$de10                   ; 0xde10 <end_block9+0xbb16>
     5b1: 85 15        	sta	$15                     ; 0x2015 <malloc+0xd7>
     5b3: ad 11 de     	lda	$de11                   ; 0xde11 <end_block9+0xbb17>
     5b6: 85 16        	sta	$16                     ; 0x2016 <malloc+0xd8>
     5b8: a9 40        	lda	#$40
     5ba: 18           	clc
     5bb: 65 15        	adc	$15                     ; 0x2015 <malloc+0xd7>
     5bd: a8           	tay
     5be: a9 d8        	lda	#$d8
     5c0: 65 16        	adc	$16                     ; 0x2016 <malloc+0xd8>
     5c2: 85 17        	sta	$17                     ; 0x2017 <malloc+0xd9>
     5c4: 84 16        	sty	$16                     ; 0x2016 <malloc+0xd8>
     5c6: ad 12 de     	lda	$de12                   ; 0xde12 <end_block9+0xbb18>
     5c9: ad 13 de     	lda	$de13                   ; 0xde13 <end_block9+0xbb19>
     5cc: a5 1b        	lda	$1b                     ; 0x201b <malloc+0xdd>
     5ce: 92 16        	sta	($16)                   ; 0x2016 <malloc+0xd8>
     5d0: a5 1a        	lda	$1a                     ; 0x201a <malloc+0xdc>
     5d2: a0 01        	ldy	#$1
     5d4: 91 16        	sta	($16),y                 ; 0x2016 <malloc+0xd8>
     5d6: a5 19        	lda	$19                     ; 0x2019 <malloc+0xdb>
     5d8: c8           	iny
     5d9: 91 16        	sta	($16),y                 ; 0x2016 <malloc+0xd8>
     5db: c8           	iny
     5dc: a9 ff        	lda	#$ff
     5de: 91 16        	sta	($16),y                 ; 0x2016 <malloc+0xd8>
     5e0: e8           	inx
     5e1: 86 15        	stx	$15                     ; 0x2015 <malloc+0xd7>
     5e3: 18           	clc
     5e4: a5 18        	lda	$18                     ; 0x2018 <malloc+0xda>
     5e6: 69 03        	adc	#$3
     5e8: aa           	tax
     5e9: c9 30        	cmp	#$30
     5eb: f0 03        	beq	$5f0 <f256Init+0x177>
     5ed: 4c 4d 05     	jmp	$54d <f256Init+0xd4>
     5f0: a6 01        	ldx	$1                      ; 0x2001 <malloc+0xc3>
     5f2: 86 18        	stx	$18                     ; 0x2018 <malloc+0xda>
     5f4: a2 50        	ldx	#$50
     5f6: 8e 00 de     	stx	$de00                   ; 0xde00 <end_block9+0xbb06>
     5f9: 9c 01 de     	stz	$de01                   ; 0xde01 <end_block9+0xbb07>
     5fc: a2 1e        	ldx	#$1e
     5fe: 8e 02 de     	stx	$de02                   ; 0xde02 <end_block9+0xbb08>
     601: 9c 03 de     	stz	$de03                   ; 0xde03 <end_block9+0xbb09>
     604: ae 10 de     	ldx	$de10                   ; 0xde10 <end_block9+0xbb16>
     607: ac 11 de     	ldy	$de11                   ; 0xde11 <end_block9+0xbb17>
     60a: ad 12 de     	lda	$de12                   ; 0xde12 <end_block9+0xbb18>
     60d: ad 13 de     	lda	$de13                   ; 0xde13 <end_block9+0xbb19>
     610: a9 02        	lda	#$2
     612: 85 01        	sta	$1                      ; 0x2001 <malloc+0xc3>
     614: e0 01        	cpx	#$1
     616: 98           	tya
     617: e9 00        	sbc	#$0
     619: 50 02        	bvc	$61d <f256Init+0x1a4>
     61b: 49 80        	eor	#$80
     61d: c9 00        	cmp	#$0
     61f: 30 48        	bmi	$669 <f256Init+0x1f0>
     621: a9 20        	lda	#$20
     623: 86 19        	stx	$19                     ; 0x2019 <malloc+0xdb>
     625: 86 14        	stx	$14                     ; 0x2014 <malloc+0xd6>
     627: 84 15        	sty	$15                     ; 0x2015 <malloc+0xd7>
     629: a2 00        	ldx	#$0
     62b: 86 16        	stx	$16                     ; 0x2016 <malloc+0xd8>
     62d: a2 c0        	ldx	#$c0
     62f: 86 17        	stx	$17                     ; 0x2017 <malloc+0xd9>
     631: 92 16        	sta	($16)                   ; 0x2016 <malloc+0xd8>
     633: e6 16        	inc	$16                     ; 0x2016 <malloc+0xd8>
     635: d0 02        	bne	$639 <f256Init+0x1c0>
     637: e6 17        	inc	$17                     ; 0x2017 <malloc+0xd9>
     639: a2 ff        	ldx	#$ff
     63b: c6 14        	dec	$14                     ; 0x2014 <malloc+0xd6>
     63d: e4 14        	cpx	$14                     ; 0x2014 <malloc+0xd6>
     63f: d0 02        	bne	$643 <f256Init+0x1ca>
     641: c6 15        	dec	$15                     ; 0x2015 <malloc+0xd7>
     643: a6 15        	ldx	$15                     ; 0x2015 <malloc+0xd7>
     645: d0 ea        	bne	$631 <f256Init+0x1b8>
     647: a6 14        	ldx	$14                     ; 0x2014 <malloc+0xd6>
     649: d0 e6        	bne	$631 <f256Init+0x1b8>
     64b: a2 03        	ldx	#$3
     64d: 86 01        	stx	$1                      ; 0x2001 <malloc+0xc3>
     64f: a6 19        	ldx	$19                     ; 0x2019 <malloc+0xdb>
     651: a9 f0        	lda	#$f0
     653: 92 12        	sta	($12)                   ; 0x2012 <malloc+0xd4>
     655: e6 12        	inc	$12                     ; 0x2012 <malloc+0xd4>
     657: d0 02        	bne	$65b <f256Init+0x1e2>
     659: e6 13        	inc	$13                     ; 0x2013 <malloc+0xd5>
     65b: ca           	dex
     65c: e0 ff        	cpx	#$ff
     65e: d0 01        	bne	$661 <f256Init+0x1e8>
     660: 88           	dey
     661: 98           	tya
     662: d0 ed        	bne	$651 <f256Init+0x1d8>
     664: 8a           	txa
     665: d0 ea        	bne	$651 <f256Init+0x1d8>
     667: 80 04        	bra	$66d <f256Init+0x1f4>
     669: a2 03        	ldx	#$3
     66b: 86 01        	stx	$1                      ; 0x2001 <malloc+0xc3>
     66d: a6 18        	ldx	$18                     ; 0x2018 <malloc+0xda>
     66f: 86 01        	stx	$1                      ; 0x2001 <malloc+0xc3>
     671: 64 30        	stz	$30                     ; 0x2030 <malloc+0xf2>
     673: 9c 14 d0     	stz	$d014                   ; 0xd014 <end_block9+0xad1a>
     676: 9c 15 d0     	stz	$d015                   ; 0xd015 <end_block9+0xad1b>
     679: 64 31        	stz	$31                     ; 0x2031 <malloc+0xf3>
     67b: 9c 16 d0     	stz	$d016                   ; 0xd016 <end_block9+0xad1c>
     67e: 9c 17 d0     	stz	$d017                   ; 0xd017 <end_block9+0xad1d>
     681: a2 40        	ldx	#$40
     683: 8e 00 de     	stx	$de00                   ; 0xde00 <end_block9+0xbb06>
     686: a2 01        	ldx	#$1
     688: 8e 01 de     	stx	$de01                   ; 0xde01 <end_block9+0xbb07>
     68b: a2 f0        	ldx	#$f0
     68d: 8e 02 de     	stx	$de02                   ; 0xde02 <end_block9+0xbb08>
     690: 9c 03 de     	stz	$de03                   ; 0xde03 <end_block9+0xbb09>
     693: ae 10 de     	ldx	$de10                   ; 0xde10 <end_block9+0xbb16>
     696: 86 17        	stx	$17                     ; 0x2017 <malloc+0xd9>
     698: ae 11 de     	ldx	$de11                   ; 0xde11 <end_block9+0xbb17>
     69b: 86 12        	stx	$12                     ; 0x2012 <malloc+0xd4>
     69d: ae 12 de     	ldx	$de12                   ; 0xde12 <end_block9+0xbb18>
     6a0: 86 13        	stx	$13                     ; 0x2013 <malloc+0xd5>
     6a2: ae 13 de     	ldx	$de13                   ; 0xde13 <end_block9+0xbb19>
     6a5: 86 14        	stx	$14                     ; 0x2014 <malloc+0xd6>
     6a7: a4 12        	ldy	$12                     ; 0x2012 <malloc+0xd4>
     6a9: 84 15        	sty	$15                     ; 0x2015 <malloc+0xd7>
     6ab: 06 15        	asl	$15                     ; 0x2015 <malloc+0xd7>
     6ad: a5 13        	lda	$13                     ; 0x2013 <malloc+0xd5>
     6af: 2a           	rol
     6b0: 86 16        	stx	$16                     ; 0x2016 <malloc+0xd8>
     6b2: 26 16        	rol	$16                     ; 0x2016 <malloc+0xd8>
     6b4: 06 15        	asl	$15                     ; 0x2015 <malloc+0xd7>
     6b6: 2a           	rol
     6b7: 26 16        	rol	$16                     ; 0x2016 <malloc+0xd8>
     6b9: 06 15        	asl	$15                     ; 0x2015 <malloc+0xd7>
     6bb: 2a           	rol
     6bc: 26 16        	rol	$16                     ; 0x2016 <malloc+0xd8>
     6be: 85 15        	sta	$15                     ; 0x2015 <malloc+0xd7>
     6c0: 8d 00 de     	sta	$de00                   ; 0xde00 <end_block9+0xbb06>
     6c3: a5 16        	lda	$16                     ; 0x2016 <malloc+0xd8>
     6c5: 8d 01 de     	sta	$de01                   ; 0xde01 <end_block9+0xbb07>
     6c8: 9c 02 de     	stz	$de02                   ; 0xde02 <end_block9+0xbb08>
     6cb: a2 20        	ldx	#$20
     6cd: 8e 03 de     	stx	$de03                   ; 0xde03 <end_block9+0xbb09>
     6d0: ae 10 de     	ldx	$de10                   ; 0xde10 <end_block9+0xbb16>
     6d3: 86 16        	stx	$16                     ; 0x2016 <malloc+0xd8>
     6d5: ae 11 de     	ldx	$de11                   ; 0xde11 <end_block9+0xbb17>
     6d8: 86 18        	stx	$18                     ; 0x2018 <malloc+0xda>
     6da: ac 12 de     	ldy	$de12                   ; 0xde12 <end_block9+0xbb18>
     6dd: ae 13 de     	ldx	$de13                   ; 0xde13 <end_block9+0xbb19>
     6e0: e4 14        	cpx	$14                     ; 0x2014 <malloc+0xd6>
     6e2: d0 14        	bne	$6f8 <f256Init+0x27f>
     6e4: c4 13        	cpy	$13                     ; 0x2013 <malloc+0xd5>
     6e6: d0 10        	bne	$6f8 <f256Init+0x27f>
     6e8: a6 18        	ldx	$18                     ; 0x2018 <malloc+0xda>
     6ea: e4 12        	cpx	$12                     ; 0x2012 <malloc+0xd4>
     6ec: d0 0a        	bne	$6f8 <f256Init+0x27f>
     6ee: a6 16        	ldx	$16                     ; 0x2016 <malloc+0xd8>
     6f0: e4 17        	cpx	$17                     ; 0x2017 <malloc+0xd9>
     6f2: d0 04        	bne	$6f8 <f256Init+0x27f>
     6f4: a6 15        	ldx	$15                     ; 0x2015 <malloc+0xd7>
     6f6: 80 06        	bra	$6fe <f256Init+0x285>
     6f8: a6 15        	ldx	$15                     ; 0x2015 <malloc+0xd7>
     6fa: e8           	inx
     6fb: d0 01        	bne	$6fe <f256Init+0x285>
     6fd: 1a           	inc
     6fe: 8e 00 de     	stx	$de00                   ; 0xde00 <end_block9+0xbb06>
     701: 8d 01 de     	sta	$de01                   ; 0xde01 <end_block9+0xbb07>
     704: 9c 02 de     	stz	$de02                   ; 0xde02 <end_block9+0xbb08>
     707: a2 20        	ldx	#$20
     709: 8e 03 de     	stx	$de03                   ; 0xde03 <end_block9+0xbb09>
     70c: ae 10 de     	ldx	$de10                   ; 0xde10 <end_block9+0xbb16>
     70f: 86 12        	stx	$12                     ; 0x2012 <malloc+0xd4>
     711: ae 11 de     	ldx	$de11                   ; 0xde11 <end_block9+0xbb17>
     714: 86 13        	stx	$13                     ; 0x2013 <malloc+0xd5>
     716: ae 12 de     	ldx	$de12                   ; 0xde12 <end_block9+0xbb18>
     719: 86 14        	stx	$14                     ; 0x2014 <malloc+0xd6>
     71b: a9 00        	lda	#$0
     71d: 38           	sec
     71e: e5 12        	sbc	$12                     ; 0x2012 <malloc+0xd4>
     720: a8           	tay
     721: a9 00        	lda	#$0
     723: e5 13        	sbc	$13                     ; 0x2013 <malloc+0xd5>
     725: 85 15        	sta	$15                     ; 0x2015 <malloc+0xd7>
     727: a9 08        	lda	#$8
     729: e5 14        	sbc	$14                     ; 0x2014 <malloc+0xd6>
     72b: aa           	tax
     72c: 98           	tya
     72d: 84 17        	sty	$17                     ; 0x2017 <malloc+0xd9>
     72f: 38           	sec
     730: e5 12        	sbc	$12                     ; 0x2012 <malloc+0xd4>
     732: 85 16        	sta	$16                     ; 0x2016 <malloc+0xd8>
     734: a5 15        	lda	$15                     ; 0x2015 <malloc+0xd7>
     736: e5 13        	sbc	$13                     ; 0x2013 <malloc+0xd5>
     738: 85 18        	sta	$18                     ; 0x2018 <malloc+0xda>
     73a: 8a           	txa
     73b: 86 19        	stx	$19                     ; 0x2019 <malloc+0xdb>
     73d: e5 14        	sbc	$14                     ; 0x2014 <malloc+0xd6>
     73f: a8           	tay
     740: 38           	sec
     741: a5 16        	lda	$16                     ; 0x2016 <malloc+0xd8>
     743: e5 12        	sbc	$12                     ; 0x2012 <malloc+0xd4>
     745: 85 12        	sta	$12                     ; 0x2012 <malloc+0xd4>
     747: a5 18        	lda	$18                     ; 0x2018 <malloc+0xda>
     749: e5 13        	sbc	$13                     ; 0x2013 <malloc+0xd5>
     74b: 85 13        	sta	$13                     ; 0x2013 <malloc+0xd5>
     74d: 98           	tya
     74e: e5 14        	sbc	$14                     ; 0x2014 <malloc+0xd6>
     750: ae 13 de     	ldx	$de13                   ; 0xde13 <end_block9+0xbb19>
     753: a6 17        	ldx	$17                     ; 0x2017 <malloc+0xd9>
     755: 8e 01 d1     	stx	$d101                   ; 0xd101 <end_block9+0xae07>
     758: a6 15        	ldx	$15                     ; 0x2015 <malloc+0xd7>
     75a: 8e 02 d1     	stx	$d102                   ; 0xd102 <end_block9+0xae08>
     75d: a6 19        	ldx	$19                     ; 0x2019 <malloc+0xdb>
     75f: 8e 03 d1     	stx	$d103                   ; 0xd103 <end_block9+0xae09>
     762: a6 16        	ldx	$16                     ; 0x2016 <malloc+0xd8>
     764: 8e 09 d1     	stx	$d109                   ; 0xd109 <end_block9+0xae0f>
     767: a6 18        	ldx	$18                     ; 0x2018 <malloc+0xda>
     769: 8e 0a d1     	stx	$d10a                   ; 0xd10a <end_block9+0xae10>
     76c: 8c 0b d1     	sty	$d10b                   ; 0xd10b <end_block9+0xae11>
     76f: a6 12        	ldx	$12                     ; 0x2012 <malloc+0xd4>
     771: 8e 11 d1     	stx	$d111                   ; 0xd111 <end_block9+0xae17>
     774: a6 13        	ldx	$13                     ; 0x2013 <malloc+0xd5>
     776: 8e 12 d1     	stx	$d112                   ; 0xd112 <end_block9+0xae18>
     779: 8d 13 d1     	sta	$d113                   ; 0xd113 <end_block9+0xae19>
     77c: 9c 00 d1     	stz	$d100                   ; 0xd100 <end_block9+0xae06>
     77f: 9c 08 d1     	stz	$d108                   ; 0xd108 <end_block9+0xae0e>
     782: 9c 10 d1     	stz	$d110                   ; 0xd110 <end_block9+0xae16>
     785: a2 10        	ldx	#$10
     787: 8e 00 d2     	stx	$d200                   ; 0xd200 <end_block9+0xaf06>
     78a: 8e 0c d2     	stx	$d20c                   ; 0xd20c <end_block9+0xaf12>
     78d: 8e 18 d2     	stx	$d218                   ; 0xd218 <end_block9+0xaf1e>
     790: a0 d9        	ldy	#$d9
     792: a2 40        	ldx	#$40
     794: 64 12        	stz	$12                     ; 0x2012 <malloc+0xd4>
     796: 84 13        	sty	$13                     ; 0x2013 <malloc+0xd5>
     798: a9 00        	lda	#$0
     79a: 92 12        	sta	($12)                   ; 0x2012 <malloc+0xd4>
     79c: ca           	dex
     79d: 18           	clc
     79e: a5 12        	lda	$12                     ; 0x2012 <malloc+0xd4>
     7a0: 69 08        	adc	#$8
     7a2: 85 12        	sta	$12                     ; 0x2012 <malloc+0xd4>
     7a4: 98           	tya
     7a5: 69 00        	adc	#$0
     7a7: a8           	tay
     7a8: 8a           	txa
     7a9: d0 eb        	bne	$796 <f256Init+0x31d>
     7ab: a2 3c        	ldx	#$3c
     7ad: a0 00        	ldy	#$0
     7af: 86 fb        	stx	$fb                     ; 0x20fb <malloc+0x1bd>
     7b1: 84 fc        	sty	$fc                     ; 0x20fc <malloc+0x1be>
     7b3: a2 08        	ldx	#$8
     7b5: 86 fd        	stx	$fd                     ; 0x20fd <malloc+0x1bf>
     7b7: a2 44        	ldx	#$44
     7b9: a0 00        	ldy	#$0
     7bb: 86 12        	stx	$12                     ; 0x2012 <malloc+0xd4>
     7bd: 84 13        	sty	$13                     ; 0x2013 <malloc+0xd5>
     7bf: a2 34        	ldx	#$34
     7c1: 86 14        	stx	$14                     ; 0x2014 <malloc+0xd6>
     7c3: a2 00        	ldx	#$0
     7c5: 86 15        	stx	$15                     ; 0x2015 <malloc+0xd7>
     7c7: 20 dc ff     	jsr	$ffdc <end_block9+0xdce2>
     7ca: 92 12        	sta	($12)                   ; 0x2012 <malloc+0xd4>
     7cc: a9 00        	lda	#$0
     7ce: 6a           	ror
     7cf: 85 14        	sta	$14                     ; 0x2014 <malloc+0xd6>
     7d1: a6 42        	ldx	$42                     ; 0x2042 <malloc+0x104>
     7d3: a4 43        	ldy	$43                     ; 0x2043 <malloc+0x105>
     7d5: 8e 00 de     	stx	$de00                   ; 0xde00 <end_block9+0xbb06>
     7d8: 9c 01 de     	stz	$de01                   ; 0xde01 <end_block9+0xbb07>
     7db: 8c 02 de     	sty	$de02                   ; 0xde02 <end_block9+0xbb08>
     7de: 9c 03 de     	stz	$de03                   ; 0xde03 <end_block9+0xbb09>
     7e1: ae 10 de     	ldx	$de10                   ; 0xde10 <end_block9+0xbb16>
     7e4: ac 11 de     	ldy	$de11                   ; 0xde11 <end_block9+0xbb17>
     7e7: ad 12 de     	lda	$de12                   ; 0xde12 <end_block9+0xbb18>
     7ea: ad 13 de     	lda	$de13                   ; 0xde13 <end_block9+0xbb19>
     7ed: 8e a4 d6     	stx	$d6a4                   ; 0xd6a4 <end_block9+0xb3aa>
     7f0: 8c a5 d6     	sty	$d6a5                   ; 0xd6a5 <end_block9+0xb3ab>
     7f3: a2 03        	ldx	#$3
     7f5: 8e a6 d6     	stx	$d6a6                   ; 0xd6a6 <end_block9+0xb3ac>
     7f8: 60           	rts

000007f9 <main>:
     7f9: 20 79 04     	jsr	$479 <f256Init>
     7fc: 20 ff 07     	jsr	$7ff <f256main>

000007ff <f256main>:
     7ff: 18           	clc
     800: a5 10        	lda	$10                     ; 0x2010 <malloc+0xd2>
     802: 69 f8        	adc	#$f8
     804: 85 10        	sta	$10                     ; 0x2010 <malloc+0xd2>
     806: a5 11        	lda	$11                     ; 0x2011 <malloc+0xd3>
     808: 69 ff        	adc	#$ff
     80a: 85 11        	sta	$11                     ; 0x2011 <malloc+0xd3>
     80c: a2 40        	ldx	#$40
     80e: a0 00        	ldy	#$0
     810: 86 12        	stx	$12                     ; 0x2012 <malloc+0xd4>
     812: 84 13        	sty	$13                     ; 0x2013 <malloc+0xd5>
     814: a2 08        	ldx	#$8
     816: 64 14        	stz	$14                     ; 0x2014 <malloc+0xd6>
     818: a9 00        	lda	#$0
     81a: 20 20 22     	jsr	$2220 <__memset>
     81d: 20 e1 0d     	jsr	$de1 <fileOpen>
     820: a6 12        	ldx	$12                     ; 0x2012 <malloc+0xd4>
     822: 86 24        	stx	$24                     ; 0x2024 <malloc+0xe6>
     824: a6 13        	ldx	$13                     ; 0x2013 <malloc+0xd5>
     826: 86 25        	stx	$25                     ; 0x2025 <malloc+0xe7>
     828: 20 e1 0d     	jsr	$de1 <fileOpen>
     82b: b2 24        	lda	($24)                   ; 0x2024 <malloc+0xe6>
     82d: 85 f3        	sta	$f3                     ; 0x20f3 <malloc+0x1b5>
     82f: a2 0a        	ldx	#$a
     831: 86 f4        	stx	$f4                     ; 0x20f4 <malloc+0x1b6>
     833: 64 f5        	stz	$f5                     ; 0x20f5 <malloc+0x1b7>
     835: 64 f6        	stz	$f6                     ; 0x20f6 <malloc+0x1b8>
     837: 64 f7        	stz	$f7                     ; 0x20f7 <malloc+0x1b9>
     839: a2 3c        	ldx	#$3c
     83b: a0 00        	ldy	#$0
     83d: 86 12        	stx	$12                     ; 0x2012 <malloc+0xd4>
     83f: 84 13        	sty	$13                     ; 0x2013 <malloc+0xd5>
     841: a2 34        	ldx	#$34
     843: 86 14        	stx	$14                     ; 0x2014 <malloc+0xd6>
     845: a2 00        	ldx	#$0
     847: 86 15        	stx	$15                     ; 0x2015 <malloc+0xd7>
     849: 20 74 ff     	jsr	$ff74 <end_block9+0xdc7a>
     84c: 92 12        	sta	($12)                   ; 0x2012 <malloc+0xd4>
     84e: a9 00        	lda	#$0
     850: 6a           	ror
     851: 85 14        	sta	$14                     ; 0x2014 <malloc+0xd6>
     853: a9 02        	lda	#$2
     855: a6 24        	ldx	$24                     ; 0x2024 <malloc+0xe6>
     857: 86 14        	stx	$14                     ; 0x2014 <malloc+0xd6>
     859: a6 25        	ldx	$25                     ; 0x2025 <malloc+0xe7>
     85b: 86 15        	stx	$15                     ; 0x2015 <malloc+0xd7>
     85d: a6 14        	ldx	$14                     ; 0x2014 <malloc+0xd6>
     85f: 86 49        	stx	$49                     ; 0x2049 <malloc+0x10b>
     861: a6 15        	ldx	$15                     ; 0x2015 <malloc+0xd7>
     863: 86 4a        	stx	$4a                     ; 0x204a <malloc+0x10c>
     865: a2 00        	ldx	#$0
     867: 20 74 0e     	jsr	$e74 <fileRead>
     86a: e0 00        	cpx	#$0
     86c: d0 0a        	bne	$878 <f256main+0x79>
     86e: c9 02        	cmp	#$2
     870: d0 06        	bne	$878 <f256main+0x79>
     872: a4 3c        	ldy	$3c                     ; 0x203c <malloc+0xfe>
     874: a6 3d        	ldx	$3d                     ; 0x203d <malloc+0xff>
     876: 80 04        	bra	$87c <f256main+0x7d>
     878: a0 00        	ldy	#$0
     87a: a2 00        	ldx	#$0
     87c: 84 4d        	sty	$4d                     ; 0x204d <malloc+0x10f>
     87e: 86 4e        	stx	$4e                     ; 0x204e <malloc+0x110>
     880: 86 2a        	stx	$2a                     ; 0x202a <malloc+0xec>
     882: 06 2a        	asl	$2a                     ; 0x202a <malloc+0xec>
     884: 84 24        	sty	$24                     ; 0x2024 <malloc+0xe6>
     886: 26 24        	rol	$24                     ; 0x2024 <malloc+0xe6>
     888: 06 2a        	asl	$2a                     ; 0x202a <malloc+0xec>
     88a: 26 24        	rol	$24                     ; 0x2024 <malloc+0xe6>
     88c: a6 24        	ldx	$24                     ; 0x2024 <malloc+0xe6>
     88e: a5 2a        	lda	$2a                     ; 0x202a <malloc+0xec>
     890: 20 3e 1f     	jsr	$1f3e <malloc>
     893: a6 12        	ldx	$12                     ; 0x2012 <malloc+0xd4>
     895: 86 2e        	stx	$2e                     ; 0x202e <malloc+0xf0>
     897: a6 13        	ldx	$13                     ; 0x2013 <malloc+0xd5>
     899: 86 2f        	stx	$2f                     ; 0x202f <malloc+0xf1>
     89b: a6 24        	ldx	$24                     ; 0x2024 <malloc+0xe6>
     89d: a5 2a        	lda	$2a                     ; 0x202a <malloc+0xec>
     89f: 20 3e 1f     	jsr	$1f3e <malloc>
     8a2: a6 12        	ldx	$12                     ; 0x2012 <malloc+0xd4>
     8a4: 86 28        	stx	$28                     ; 0x2028 <malloc+0xea>
     8a6: a6 13        	ldx	$13                     ; 0x2013 <malloc+0xd5>
     8a8: 86 29        	stx	$29                     ; 0x2029 <malloc+0xeb>
     8aa: a6 24        	ldx	$24                     ; 0x2024 <malloc+0xe6>
     8ac: a5 2a        	lda	$2a                     ; 0x202a <malloc+0xec>
     8ae: 20 3e 1f     	jsr	$1f3e <malloc>
     8b1: a6 12        	ldx	$12                     ; 0x2012 <malloc+0xd4>
     8b3: 86 2c        	stx	$2c                     ; 0x202c <malloc+0xee>
     8b5: a6 13        	ldx	$13                     ; 0x2013 <malloc+0xd5>
     8b7: 86 2d        	stx	$2d                     ; 0x202d <malloc+0xef>
     8b9: a6 4d        	ldx	$4d                     ; 0x204d <malloc+0x10f>
     8bb: a5 4e        	lda	$4e                     ; 0x204e <malloc+0x110>
     8bd: 20 3e 1f     	jsr	$1f3e <malloc>
     8c0: a6 4d        	ldx	$4d                     ; 0x204d <malloc+0x10f>
     8c2: 86 14        	stx	$14                     ; 0x2014 <malloc+0xd6>
     8c4: a6 4e        	ldx	$4e                     ; 0x204e <malloc+0x110>
     8c6: a5 14        	lda	$14                     ; 0x2014 <malloc+0xd6>
     8c8: d0 06        	bne	$8d0 <f256main+0xd1>
     8ca: 8a           	txa
     8cb: d0 03        	bne	$8d0 <f256main+0xd1>
     8cd: 4c 6a 0d     	jmp	$d6a <f256main+0x56b>
     8d0: a4 2e        	ldy	$2e                     ; 0x202e <malloc+0xf0>
     8d2: 84 16        	sty	$16                     ; 0x2016 <malloc+0xd8>
     8d4: a4 2f        	ldy	$2f                     ; 0x202f <malloc+0xf1>
     8d6: 84 17        	sty	$17                     ; 0x2017 <malloc+0xd9>
     8d8: a4 2c        	ldy	$2c                     ; 0x202c <malloc+0xee>
     8da: 84 18        	sty	$18                     ; 0x2018 <malloc+0xda>
     8dc: a4 2d        	ldy	$2d                     ; 0x202d <malloc+0xef>
     8de: 84 19        	sty	$19                     ; 0x2019 <malloc+0xdb>
     8e0: a4 28        	ldy	$28                     ; 0x2028 <malloc+0xea>
     8e2: 84 1a        	sty	$1a                     ; 0x201a <malloc+0xdc>
     8e4: a4 29        	ldy	$29                     ; 0x2029 <malloc+0xeb>
     8e6: 84 1b        	sty	$1b                     ; 0x201b <malloc+0xdd>
     8e8: a9 00        	lda	#$0
     8ea: 92 12        	sta	($12)                   ; 0x2012 <malloc+0xd4>
     8ec: 92 16        	sta	($16)                   ; 0x2016 <malloc+0xd8>
     8ee: a0 01        	ldy	#$1
     8f0: 91 16        	sta	($16),y                 ; 0x2016 <malloc+0xd8>
     8f2: c8           	iny
     8f3: 91 16        	sta	($16),y                 ; 0x2016 <malloc+0xd8>
     8f5: c8           	iny
     8f6: 91 16        	sta	($16),y                 ; 0x2016 <malloc+0xd8>
     8f8: 92 18        	sta	($18)                   ; 0x2018 <malloc+0xda>
     8fa: a0 01        	ldy	#$1
     8fc: 91 18        	sta	($18),y                 ; 0x2018 <malloc+0xda>
     8fe: c8           	iny
     8ff: 91 18        	sta	($18),y                 ; 0x2018 <malloc+0xda>
     901: c8           	iny
     902: 91 18        	sta	($18),y                 ; 0x2018 <malloc+0xda>
     904: 92 1a        	sta	($1a)                   ; 0x201a <malloc+0xdc>
     906: a0 01        	ldy	#$1
     908: 91 1a        	sta	($1a),y                 ; 0x201a <malloc+0xdc>
     90a: c8           	iny
     90b: 91 1a        	sta	($1a),y                 ; 0x201a <malloc+0xdc>
     90d: c8           	iny
     90e: 91 1a        	sta	($1a),y                 ; 0x201a <malloc+0xdc>
     910: a5 1a        	lda	$1a                     ; 0x201a <malloc+0xdc>
     912: 18           	clc
     913: 69 04        	adc	#$4
     915: 85 1a        	sta	$1a                     ; 0x201a <malloc+0xdc>
     917: a5 1b        	lda	$1b                     ; 0x201b <malloc+0xdd>
     919: 69 00        	adc	#$0
     91b: 85 1b        	sta	$1b                     ; 0x201b <malloc+0xdd>
     91d: a5 18        	lda	$18                     ; 0x2018 <malloc+0xda>
     91f: 18           	clc
     920: 69 04        	adc	#$4
     922: 85 18        	sta	$18                     ; 0x2018 <malloc+0xda>
     924: a5 19        	lda	$19                     ; 0x2019 <malloc+0xdb>
     926: 69 00        	adc	#$0
     928: 85 19        	sta	$19                     ; 0x2019 <malloc+0xdb>
     92a: a5 16        	lda	$16                     ; 0x2016 <malloc+0xd8>
     92c: 18           	clc
     92d: 69 04        	adc	#$4
     92f: 85 16        	sta	$16                     ; 0x2016 <malloc+0xd8>
     931: a5 17        	lda	$17                     ; 0x2017 <malloc+0xd9>
     933: 69 00        	adc	#$0
     935: ca           	dex
     936: e0 ff        	cpx	#$ff
     938: d0 02        	bne	$93c <f256main+0x13d>
     93a: c6 14        	dec	$14                     ; 0x2014 <malloc+0xd6>
     93c: 85 17        	sta	$17                     ; 0x2017 <malloc+0xd9>
     93e: e6 12        	inc	$12                     ; 0x2012 <malloc+0xd4>
     940: d0 02        	bne	$944 <f256main+0x145>
     942: e6 13        	inc	$13                     ; 0x2013 <malloc+0xd5>
     944: a5 14        	lda	$14                     ; 0x2014 <malloc+0xd6>
     946: f0 03        	beq	$94b <f256main+0x14c>
     948: 4c e8 08     	jmp	$8e8 <f256main+0xe9>
     94b: 8a           	txa
     94c: f0 03        	beq	$951 <f256main+0x152>
     94e: 4c e8 08     	jmp	$8e8 <f256main+0xe9>
     951: a6 28        	ldx	$28                     ; 0x2028 <malloc+0xea>
     953: 86 51        	stx	$51                     ; 0x2051 <malloc+0x113>
     955: a6 29        	ldx	$29                     ; 0x2029 <malloc+0xeb>
     957: 86 52        	stx	$52                     ; 0x2052 <malloc+0x114>
     959: a2 3c        	ldx	#$3c
     95b: a0 00        	ldy	#$0
     95d: 86 12        	stx	$12                     ; 0x2012 <malloc+0xd4>
     95f: 84 13        	sty	$13                     ; 0x2013 <malloc+0xd5>
     961: a2 34        	ldx	#$34
     963: 86 14        	stx	$14                     ; 0x2014 <malloc+0xd6>
     965: a2 00        	ldx	#$0
     967: 86 15        	stx	$15                     ; 0x2015 <malloc+0xd7>
     969: 64 35        	stz	$35                     ; 0x2035 <malloc+0xf7>
     96b: 20 00 ff     	jsr	$ff00 <end_block9+0xdc06>
     96e: 92 12        	sta	($12)                   ; 0x2012 <malloc+0xd4>
     970: a9 00        	lda	#$0
     972: 6a           	ror
     973: 85 14        	sta	$14                     ; 0x2014 <malloc+0xd6>
     975: a6 35        	ldx	$35                     ; 0x2035 <malloc+0xf7>
     977: e0 08        	cpx	#$8
     979: d0 ee        	bne	$969 <f256main+0x16a>
     97b: a6 39        	ldx	$39                     ; 0x2039 <malloc+0xfb>
     97d: e0 20        	cpx	#$20
     97f: f0 04        	beq	$985 <f256main+0x186>
     981: e0 94        	cpx	#$94
     983: d0 e4        	bne	$969 <f256main+0x16a>
     985: a6 49        	ldx	$49                     ; 0x2049 <malloc+0x10b>
     987: 86 12        	stx	$12                     ; 0x2012 <malloc+0xd4>
     989: a6 4a        	ldx	$4a                     ; 0x204a <malloc+0x10c>
     98b: 86 13        	stx	$13                     ; 0x2013 <malloc+0xd5>
     98d: b2 12        	lda	($12)                   ; 0x2012 <malloc+0xd4>
     98f: 85 f3        	sta	$f3                     ; 0x20f3 <malloc+0x1b5>
     991: a0 0e        	ldy	#$e
     993: a2 0e        	ldx	#$e
     995: 86 57        	stx	$57                     ; 0x2057 <malloc+0x119>
     997: 84 f4        	sty	$f4                     ; 0x20f4 <malloc+0x1b6>
     999: 64 f5        	stz	$f5                     ; 0x20f5 <malloc+0x1b7>
     99b: 64 f6        	stz	$f6                     ; 0x20f6 <malloc+0x1b8>
     99d: 64 f7        	stz	$f7                     ; 0x20f7 <malloc+0x1b9>
     99f: a2 3c        	ldx	#$3c
     9a1: a0 00        	ldy	#$0
     9a3: 86 26        	stx	$26                     ; 0x2026 <malloc+0xe8>
     9a5: 84 27        	sty	$27                     ; 0x2027 <malloc+0xe9>
     9a7: a2 34        	ldx	#$34
     9a9: 86 14        	stx	$14                     ; 0x2014 <malloc+0xd6>
     9ab: a2 00        	ldx	#$0
     9ad: 86 15        	stx	$15                     ; 0x2015 <malloc+0xd7>
     9af: a2 40        	ldx	#$40
     9b1: a0 00        	ldy	#$0
     9b3: 84 13        	sty	$13                     ; 0x2013 <malloc+0xd5>
     9b5: 86 55        	stx	$55                     ; 0x2055 <malloc+0x117>
     9b7: a6 13        	ldx	$13                     ; 0x2013 <malloc+0xd5>
     9b9: 86 56        	stx	$56                     ; 0x2056 <malloc+0x118>
     9bb: a6 2e        	ldx	$2e                     ; 0x202e <malloc+0xf0>
     9bd: 86 12        	stx	$12                     ; 0x2012 <malloc+0xd4>
     9bf: a6 2f        	ldx	$2f                     ; 0x202f <malloc+0xf1>
     9c1: 86 13        	stx	$13                     ; 0x2013 <malloc+0xd5>
     9c3: a6 12        	ldx	$12                     ; 0x2012 <malloc+0xd4>
     9c5: 86 4f        	stx	$4f                     ; 0x204f <malloc+0x111>
     9c7: a6 13        	ldx	$13                     ; 0x2013 <malloc+0xd5>
     9c9: 86 50        	stx	$50                     ; 0x2050 <malloc+0x112>
     9cb: a6 2c        	ldx	$2c                     ; 0x202c <malloc+0xee>
     9cd: 86 12        	stx	$12                     ; 0x2012 <malloc+0xd4>
     9cf: a6 2d        	ldx	$2d                     ; 0x202d <malloc+0xef>
     9d1: 86 13        	stx	$13                     ; 0x2013 <malloc+0xd5>
     9d3: a6 12        	ldx	$12                     ; 0x2012 <malloc+0xd4>
     9d5: 86 53        	stx	$53                     ; 0x2053 <malloc+0x115>
     9d7: a6 13        	ldx	$13                     ; 0x2013 <malloc+0xd5>
     9d9: 86 54        	stx	$54                     ; 0x2054 <malloc+0x116>
     9db: a2 00        	ldx	#$0
     9dd: 86 48        	stx	$48                     ; 0x2048 <malloc+0x10a>
     9df: 64 28        	stz	$28                     ; 0x2028 <malloc+0xea>
     9e1: 64 2a        	stz	$2a                     ; 0x202a <malloc+0xec>
     9e3: 86 59        	stx	$59                     ; 0x2059 <malloc+0x11b>
     9e5: 86 58        	stx	$58                     ; 0x2058 <malloc+0x11a>
     9e7: 20 74 ff     	jsr	$ff74 <end_block9+0xdc7a>
     9ea: 92 26        	sta	($26)                   ; 0x2026 <malloc+0xe8>
     9ec: a9 00        	lda	#$0
     9ee: 6a           	ror
     9ef: 85 14        	sta	$14                     ; 0x2014 <malloc+0xd6>
     9f1: a6 55        	ldx	$55                     ; 0x2055 <malloc+0x117>
     9f3: 86 12        	stx	$12                     ; 0x2012 <malloc+0xd4>
     9f5: a6 56        	ldx	$56                     ; 0x2056 <malloc+0x118>
     9f7: 86 13        	stx	$13                     ; 0x2013 <malloc+0xd5>
     9f9: a6 49        	ldx	$49                     ; 0x2049 <malloc+0x10b>
     9fb: 86 24        	stx	$24                     ; 0x2024 <malloc+0xe6>
     9fd: a6 4a        	ldx	$4a                     ; 0x204a <malloc+0x10c>
     9ff: 86 25        	stx	$25                     ; 0x2025 <malloc+0xe7>
     a01: a4 24        	ldy	$24                     ; 0x2024 <malloc+0xe6>
     a03: 84 14        	sty	$14                     ; 0x2014 <malloc+0xd6>
     a05: 86 15        	stx	$15                     ; 0x2015 <malloc+0xd7>
     a07: a2 00        	ldx	#$0
     a09: a9 04        	lda	#$4
     a0b: 20 74 0e     	jsr	$e74 <fileRead>
     a0e: a6 26        	ldx	$26                     ; 0x2026 <malloc+0xe8>
     a10: 86 12        	stx	$12                     ; 0x2012 <malloc+0xd4>
     a12: a6 27        	ldx	$27                     ; 0x2027 <malloc+0xe9>
     a14: 86 13        	stx	$13                     ; 0x2013 <malloc+0xd5>
     a16: a6 12        	ldx	$12                     ; 0x2012 <malloc+0xd4>
     a18: 86 4b        	stx	$4b                     ; 0x204b <malloc+0x10d>
     a1a: a6 13        	ldx	$13                     ; 0x2013 <malloc+0xd5>
     a1c: 86 4c        	stx	$4c                     ; 0x204c <malloc+0x10e>
     a1e: a6 24        	ldx	$24                     ; 0x2024 <malloc+0xe6>
     a20: 86 14        	stx	$14                     ; 0x2014 <malloc+0xd6>
     a22: a6 25        	ldx	$25                     ; 0x2025 <malloc+0xe7>
     a24: 86 15        	stx	$15                     ; 0x2015 <malloc+0xd7>
     a26: a2 00        	ldx	#$0
     a28: a9 04        	lda	#$4
     a2a: 20 74 0e     	jsr	$e74 <fileRead>
     a2d: e0 00        	cpx	#$0
     a2f: d0 52        	bne	$a83 <f256main+0x284>
     a31: c9 04        	cmp	#$4
     a33: d0 4e        	bne	$a83 <f256main+0x284>
     a35: a5 3c        	lda	$3c                     ; 0x203c <malloc+0xfe>
     a37: a6 3d        	ldx	$3d                     ; 0x203d <malloc+0xff>
     a39: 86 14        	stx	$14                     ; 0x2014 <malloc+0xd6>
     a3b: a6 3e        	ldx	$3e                     ; 0x203e <malloc+0x100>
     a3d: 86 13        	stx	$13                     ; 0x2013 <malloc+0xd5>
     a3f: a6 3f        	ldx	$3f                     ; 0x203f <malloc+0x101>
     a41: 92 10        	sta	($10)                   ; 0x2010 <malloc+0xd2>
     a43: a0 02        	ldy	#$2
     a45: a5 14        	lda	$14                     ; 0x2014 <malloc+0xd6>
     a47: 91 10        	sta	($10),y                 ; 0x2010 <malloc+0xd2>
     a49: a0 04        	ldy	#$4
     a4b: a5 13        	lda	$13                     ; 0x2013 <malloc+0xd5>
     a4d: 91 10        	sta	($10),y                 ; 0x2010 <malloc+0xd2>
     a4f: a0 06        	ldy	#$6
     a51: 8a           	txa
     a52: 91 10        	sta	($10),y                 ; 0x2010 <malloc+0xd2>
     a54: a9 00        	lda	#$0
     a56: a0 01        	ldy	#$1
     a58: 91 10        	sta	($10),y                 ; 0x2010 <malloc+0xd2>
     a5a: a0 03        	ldy	#$3
     a5c: 91 10        	sta	($10),y                 ; 0x2010 <malloc+0xd2>
     a5e: a0 05        	ldy	#$5
     a60: 91 10        	sta	($10),y                 ; 0x2010 <malloc+0xd2>
     a62: a0 07        	ldy	#$7
     a64: 91 10        	sta	($10),y                 ; 0x2010 <malloc+0xd2>
     a66: a2 ab        	ldx	#$ab
     a68: 86 12        	stx	$12                     ; 0x2012 <malloc+0xd4>
     a6a: a2 22        	ldx	#$22
     a6c: 86 13        	stx	$13                     ; 0x2013 <malloc+0xd5>
     a6e: 20 a3 11     	jsr	$11a3 <printf>
     a71: a6 3c        	ldx	$3c                     ; 0x203c <malloc+0xfe>
     a73: 86 16        	stx	$16                     ; 0x2016 <malloc+0xd8>
     a75: a6 3d        	ldx	$3d                     ; 0x203d <malloc+0xff>
     a77: 86 13        	stx	$13                     ; 0x2013 <malloc+0xd5>
     a79: a6 3e        	ldx	$3e                     ; 0x203e <malloc+0x100>
     a7b: 86 15        	stx	$15                     ; 0x2015 <malloc+0xd7>
     a7d: a6 3f        	ldx	$3f                     ; 0x203f <malloc+0x101>
     a7f: 86 14        	stx	$14                     ; 0x2014 <malloc+0xd6>
     a81: 80 08        	bra	$a8b <f256main+0x28c>
     a83: 64 14        	stz	$14                     ; 0x2014 <malloc+0xd6>
     a85: 64 15        	stz	$15                     ; 0x2015 <malloc+0xd7>
     a87: 64 13        	stz	$13                     ; 0x2013 <malloc+0xd5>
     a89: 64 16        	stz	$16                     ; 0x2016 <malloc+0xd8>
     a8b: 18           	clc
     a8c: a5 57        	lda	$57                     ; 0x2057 <malloc+0x119>
     a8e: 69 08        	adc	#$8
     a90: 85 29        	sta	$29                     ; 0x2029 <malloc+0xeb>
     a92: a5 2a        	lda	$2a                     ; 0x202a <malloc+0xec>
     a94: 69 00        	adc	#$0
     a96: 85 2b        	sta	$2b                     ; 0x202b <malloc+0xed>
     a98: a6 59        	ldx	$59                     ; 0x2059 <malloc+0x11b>
     a9a: 8a           	txa
     a9b: 69 00        	adc	#$0
     a9d: 85 26        	sta	$26                     ; 0x2026 <malloc+0xe8>
     a9f: a6 58        	ldx	$58                     ; 0x2058 <malloc+0x11a>
     aa1: 8a           	txa
     aa2: 69 00        	adc	#$0
     aa4: 85 27        	sta	$27                     ; 0x2027 <malloc+0xe9>
     aa6: a5 14        	lda	$14                     ; 0x2014 <malloc+0xd6>
     aa8: 92 2e        	sta	($2e)                   ; 0x202e <malloc+0xf0>
     aaa: 85 2a        	sta	$2a                     ; 0x202a <malloc+0xec>
     aac: a0 01        	ldy	#$1
     aae: a5 15        	lda	$15                     ; 0x2015 <malloc+0xd7>
     ab0: 85 5c        	sta	$5c                     ; 0x205c <malloc+0x11e>
     ab2: 91 2e        	sta	($2e),y                 ; 0x202e <malloc+0xf0>
     ab4: c8           	iny
     ab5: a5 13        	lda	$13                     ; 0x2013 <malloc+0xd5>
     ab7: 85 5b        	sta	$5b                     ; 0x205b <malloc+0x11d>
     ab9: 91 2e        	sta	($2e),y                 ; 0x202e <malloc+0xf0>
     abb: c8           	iny
     abc: a5 16        	lda	$16                     ; 0x2016 <malloc+0xd8>
     abe: 91 2e        	sta	($2e),y                 ; 0x202e <malloc+0xf0>
     ac0: 85 14        	sta	$14                     ; 0x2014 <malloc+0xd6>
     ac2: a6 26        	ldx	$26                     ; 0x2026 <malloc+0xe8>
     ac4: 86 57        	stx	$57                     ; 0x2057 <malloc+0x119>
     ac6: a6 27        	ldx	$27                     ; 0x2027 <malloc+0xe9>
     ac8: 86 58        	stx	$58                     ; 0x2058 <malloc+0x11a>
     aca: a5 48        	lda	$48                     ; 0x2048 <malloc+0x10a>
     acc: 85 48        	sta	$48                     ; 0x2048 <malloc+0x10a>
     ace: 92 10        	sta	($10)                   ; 0x2010 <malloc+0xd2>
     ad0: a5 28        	lda	$28                     ; 0x2028 <malloc+0xea>
     ad2: 85 5a        	sta	$5a                     ; 0x205a <malloc+0x11c>
     ad4: a0 01        	ldy	#$1
     ad6: 91 10        	sta	($10),y                 ; 0x2010 <malloc+0xd2>
     ad8: c8           	iny
     ad9: a5 29        	lda	$29                     ; 0x2029 <malloc+0xeb>
     adb: 91 10        	sta	($10),y                 ; 0x2010 <malloc+0xd2>
     add: c8           	iny
     ade: a5 2b        	lda	$2b                     ; 0x202b <malloc+0xed>
     ae0: 91 10        	sta	($10),y                 ; 0x2010 <malloc+0xd2>
     ae2: a5 26        	lda	$26                     ; 0x2026 <malloc+0xe8>
     ae4: c8           	iny
     ae5: 91 10        	sta	($10),y                 ; 0x2010 <malloc+0xd2>
     ae7: c8           	iny
     ae8: a5 27        	lda	$27                     ; 0x2027 <malloc+0xe9>
     aea: 91 10        	sta	($10),y                 ; 0x2010 <malloc+0xd2>
     aec: a2 c0        	ldx	#$c0
     aee: 86 12        	stx	$12                     ; 0x2012 <malloc+0xd4>
     af0: a2 22        	ldx	#$22
     af2: 86 13        	stx	$13                     ; 0x2013 <malloc+0xd5>
     af4: a6 14        	ldx	$14                     ; 0x2014 <malloc+0xd6>
     af6: 86 28        	stx	$28                     ; 0x2028 <malloc+0xea>
     af8: 20 a3 11     	jsr	$11a3 <printf>
     afb: a5 29        	lda	$29                     ; 0x2029 <malloc+0xeb>
     afd: 92 2c        	sta	($2c)                   ; 0x202c <malloc+0xee>
     aff: a5 2b        	lda	$2b                     ; 0x202b <malloc+0xed>
     b01: a0 01        	ldy	#$1
     b03: 91 2c        	sta	($2c),y                 ; 0x202c <malloc+0xee>
     b05: a5 26        	lda	$26                     ; 0x2026 <malloc+0xe8>
     b07: c8           	iny
     b08: 91 2c        	sta	($2c),y                 ; 0x202c <malloc+0xee>
     b0a: a5 27        	lda	$27                     ; 0x2027 <malloc+0xe9>
     b0c: c8           	iny
     b0d: 91 2c        	sta	($2c),y                 ; 0x202c <malloc+0xee>
     b0f: a5 2a        	lda	$2a                     ; 0x202a <malloc+0xec>
     b11: a6 5c        	ldx	$5c                     ; 0x205c <malloc+0x11e>
     b13: 18           	clc
     b14: 65 29        	adc	$29                     ; 0x2029 <malloc+0xeb>
     b16: 85 14        	sta	$14                     ; 0x2014 <malloc+0xd6>
     b18: 8a           	txa
     b19: 65 2b        	adc	$2b                     ; 0x202b <malloc+0xed>
     b1b: 85 15        	sta	$15                     ; 0x2015 <malloc+0xd7>
     b1d: a6 5b        	ldx	$5b                     ; 0x205b <malloc+0x11d>
     b1f: 8a           	txa
     b20: a6 57        	ldx	$57                     ; 0x2057 <malloc+0x119>
     b22: 86 12        	stx	$12                     ; 0x2012 <malloc+0xd4>
     b24: 65 12        	adc	$12                     ; 0x2012 <malloc+0xd4>
     b26: a8           	tay
     b27: a5 28        	lda	$28                     ; 0x2028 <malloc+0xea>
     b29: a6 58        	ldx	$58                     ; 0x2058 <malloc+0x11a>
     b2b: 86 12        	stx	$12                     ; 0x2012 <malloc+0xd4>
     b2d: 65 12        	adc	$12                     ; 0x2012 <malloc+0xd4>
     b2f: 85 16        	sta	$16                     ; 0x2016 <malloc+0xd8>
     b31: a6 49        	ldx	$49                     ; 0x2049 <malloc+0x10b>
     b33: 86 12        	stx	$12                     ; 0x2012 <malloc+0xd4>
     b35: a6 4a        	ldx	$4a                     ; 0x204a <malloc+0x10c>
     b37: 86 13        	stx	$13                     ; 0x2013 <malloc+0xd5>
     b39: b2 12        	lda	($12)                   ; 0x2012 <malloc+0xd4>
     b3b: 85 f3        	sta	$f3                     ; 0x20f3 <malloc+0x1b5>
     b3d: a6 14        	ldx	$14                     ; 0x2014 <malloc+0xd6>
     b3f: 86 57        	stx	$57                     ; 0x2057 <malloc+0x119>
     b41: 86 f4        	stx	$f4                     ; 0x20f4 <malloc+0x1b6>
     b43: a6 15        	ldx	$15                     ; 0x2015 <malloc+0xd7>
     b45: 86 2a        	stx	$2a                     ; 0x202a <malloc+0xec>
     b47: 86 f5        	stx	$f5                     ; 0x20f5 <malloc+0x1b7>
     b49: 98           	tya
     b4a: 85 59        	sta	$59                     ; 0x2059 <malloc+0x11b>
     b4c: 84 f6        	sty	$f6                     ; 0x20f6 <malloc+0x1b8>
     b4e: a5 16        	lda	$16                     ; 0x2016 <malloc+0xd8>
     b50: a6 16        	ldx	$16                     ; 0x2016 <malloc+0xd8>
     b52: 86 58        	stx	$58                     ; 0x2058 <malloc+0x11a>
     b54: 85 f7        	sta	$f7                     ; 0x20f7 <malloc+0x1b9>
     b56: a2 34        	ldx	#$34
     b58: 86 12        	stx	$12                     ; 0x2012 <malloc+0xd4>
     b5a: a2 00        	ldx	#$0
     b5c: 86 13        	stx	$13                     ; 0x2013 <malloc+0xd5>
     b5e: a6 4b        	ldx	$4b                     ; 0x204b <malloc+0x10d>
     b60: 86 26        	stx	$26                     ; 0x2026 <malloc+0xe8>
     b62: a6 4c        	ldx	$4c                     ; 0x204c <malloc+0x10e>
     b64: 86 27        	stx	$27                     ; 0x2027 <malloc+0xe9>
     b66: 20 74 ff     	jsr	$ff74 <end_block9+0xdc7a>
     b69: 92 26        	sta	($26)                   ; 0x2026 <malloc+0xe8>
     b6b: a9 00        	lda	#$0
     b6d: 6a           	ror
     b6e: 85 12        	sta	$12                     ; 0x2012 <malloc+0xd4>
     b70: a6 48        	ldx	$48                     ; 0x2048 <malloc+0x10a>
     b72: 86 12        	stx	$12                     ; 0x2012 <malloc+0xd4>
     b74: a6 5a        	ldx	$5a                     ; 0x205a <malloc+0x11c>
     b76: 86 13        	stx	$13                     ; 0x2013 <malloc+0xd5>
     b78: e6 12        	inc	$12                     ; 0x2012 <malloc+0xd4>
     b7a: d0 02        	bne	$b7e <f256main+0x37f>
     b7c: e6 13        	inc	$13                     ; 0x2013 <malloc+0xd5>
     b7e: a5 2c        	lda	$2c                     ; 0x202c <malloc+0xee>
     b80: 18           	clc
     b81: 69 04        	adc	#$4
     b83: 85 2c        	sta	$2c                     ; 0x202c <malloc+0xee>
     b85: a5 2d        	lda	$2d                     ; 0x202d <malloc+0xef>
     b87: 69 00        	adc	#$0
     b89: 85 2d        	sta	$2d                     ; 0x202d <malloc+0xef>
     b8b: a5 2e        	lda	$2e                     ; 0x202e <malloc+0xf0>
     b8d: 18           	clc
     b8e: 69 04        	adc	#$4
     b90: 85 2e        	sta	$2e                     ; 0x202e <malloc+0xf0>
     b92: a5 2f        	lda	$2f                     ; 0x202f <malloc+0xf1>
     b94: 69 00        	adc	#$0
     b96: 85 2f        	sta	$2f                     ; 0x202f <malloc+0xf1>
     b98: a6 12        	ldx	$12                     ; 0x2012 <malloc+0xd4>
     b9a: 86 48        	stx	$48                     ; 0x2048 <malloc+0x10a>
     b9c: a6 13        	ldx	$13                     ; 0x2013 <malloc+0xd5>
     b9e: 86 28        	stx	$28                     ; 0x2028 <malloc+0xea>
     ba0: a6 4d        	ldx	$4d                     ; 0x204d <malloc+0x10f>
     ba2: e4 13        	cpx	$13                     ; 0x2013 <malloc+0xd5>
     ba4: f0 03        	beq	$ba9 <f256main+0x3aa>
     ba6: 4c f1 09     	jmp	$9f1 <f256main+0x1f2>
     ba9: a6 12        	ldx	$12                     ; 0x2012 <malloc+0xd4>
     bab: 86 48        	stx	$48                     ; 0x2048 <malloc+0x10a>
     bad: a6 13        	ldx	$13                     ; 0x2013 <malloc+0xd5>
     baf: 86 28        	stx	$28                     ; 0x2028 <malloc+0xea>
     bb1: a6 4e        	ldx	$4e                     ; 0x204e <malloc+0x110>
     bb3: e4 12        	cpx	$12                     ; 0x2012 <malloc+0xd4>
     bb5: f0 03        	beq	$bba <f256main+0x3bb>
     bb7: 4c f1 09     	jmp	$9f1 <f256main+0x1f2>
     bba: a2 3c        	ldx	#$3c
     bbc: a0 00        	ldy	#$0
     bbe: 86 2e        	stx	$2e                     ; 0x202e <malloc+0xf0>
     bc0: 84 2f        	sty	$2f                     ; 0x202f <malloc+0xf1>
     bc2: a2 34        	ldx	#$34
     bc4: 86 16        	stx	$16                     ; 0x2016 <malloc+0xd8>
     bc6: a2 00        	ldx	#$0
     bc8: 86 17        	stx	$17                     ; 0x2017 <malloc+0xd9>
     bca: a2 40        	ldx	#$40
     bcc: a0 00        	ldy	#$0
     bce: 84 13        	sty	$13                     ; 0x2013 <malloc+0xd5>
     bd0: 86 4b        	stx	$4b                     ; 0x204b <malloc+0x10d>
     bd2: a6 13        	ldx	$13                     ; 0x2013 <malloc+0xd5>
     bd4: 86 4c        	stx	$4c                     ; 0x204c <malloc+0x10e>
     bd6: 4c 54 0d     	jmp	$d54 <f256main+0x555>
     bd9: a2 0f        	ldx	#$f
     bdb: 86 48        	stx	$48                     ; 0x2048 <malloc+0x10a>
     bdd: a6 4f        	ldx	$4f                     ; 0x204f <malloc+0x111>
     bdf: 86 2a        	stx	$2a                     ; 0x202a <malloc+0xec>
     be1: a6 50        	ldx	$50                     ; 0x2050 <malloc+0x112>
     be3: 86 2b        	stx	$2b                     ; 0x202b <malloc+0xed>
     be5: a6 53        	ldx	$53                     ; 0x2053 <malloc+0x115>
     be7: 86 24        	stx	$24                     ; 0x2024 <malloc+0xe6>
     be9: a6 54        	ldx	$54                     ; 0x2054 <malloc+0x116>
     beb: 86 25        	stx	$25                     ; 0x2025 <malloc+0xe7>
     bed: a6 51        	ldx	$51                     ; 0x2051 <malloc+0x113>
     bef: 86 2c        	stx	$2c                     ; 0x202c <malloc+0xee>
     bf1: a6 52        	ldx	$52                     ; 0x2052 <malloc+0x114>
     bf3: 86 2d        	stx	$2d                     ; 0x202d <malloc+0xef>
     bf5: a6 4e        	ldx	$4e                     ; 0x204e <malloc+0x110>
     bf7: 86 28        	stx	$28                     ; 0x2028 <malloc+0xea>
     bf9: a6 4d        	ldx	$4d                     ; 0x204d <malloc+0x10f>
     bfb: 86 29        	stx	$29                     ; 0x2029 <malloc+0xeb>
     bfd: b2 2a        	lda	($2a)                   ; 0x202a <malloc+0xec>
     bff: 85 12        	sta	$12                     ; 0x2012 <malloc+0xd4>
     c01: a0 01        	ldy	#$1
     c03: b1 2a        	lda	($2a),y                 ; 0x202a <malloc+0xec>
     c05: 85 13        	sta	$13                     ; 0x2013 <malloc+0xd5>
     c07: c8           	iny
     c08: b1 2a        	lda	($2a),y                 ; 0x202a <malloc+0xec>
     c0a: 85 14        	sta	$14                     ; 0x2014 <malloc+0xd6>
     c0c: c8           	iny
     c0d: b1 2a        	lda	($2a),y                 ; 0x202a <malloc+0xec>
     c0f: a6 48        	ldx	$48                     ; 0x2048 <malloc+0x10a>
     c11: 86 26        	stx	$26                     ; 0x2026 <malloc+0xe8>
     c13: aa           	tax
     c14: d0 0f        	bne	$c25 <f256main+0x426>
     c16: a5 14        	lda	$14                     ; 0x2014 <malloc+0xd6>
     c18: d0 0b        	bne	$c25 <f256main+0x426>
     c1a: a5 13        	lda	$13                     ; 0x2013 <malloc+0xd5>
     c1c: d0 07        	bne	$c25 <f256main+0x426>
     c1e: a5 12        	lda	$12                     ; 0x2012 <malloc+0xd4>
     c20: d0 03        	bne	$c25 <f256main+0x426>
     c22: 4c f2 0c     	jmp	$cf2 <f256main+0x4f3>
     c25: b2 24        	lda	($24)                   ; 0x2024 <malloc+0xe6>
     c27: 85 13        	sta	$13                     ; 0x2013 <malloc+0xd5>
     c29: a0 01        	ldy	#$1
     c2b: b1 24        	lda	($24),y                 ; 0x2024 <malloc+0xe6>
     c2d: 85 12        	sta	$12                     ; 0x2012 <malloc+0xd4>
     c2f: c8           	iny
     c30: b1 24        	lda	($24),y                 ; 0x2024 <malloc+0xe6>
     c32: 85 14        	sta	$14                     ; 0x2014 <malloc+0xd6>
     c34: c8           	iny
     c35: b1 24        	lda	($24),y                 ; 0x2024 <malloc+0xe6>
     c37: 85 15        	sta	$15                     ; 0x2015 <malloc+0xd7>
     c39: 18           	clc
     c3a: a5 13        	lda	$13                     ; 0x2013 <malloc+0xd5>
     c3c: 72 2c        	adc	($2c)                   ; 0x202c <malloc+0xee>
     c3e: 85 19        	sta	$19                     ; 0x2019 <malloc+0xdb>
     c40: a0 01        	ldy	#$1
     c42: a5 12        	lda	$12                     ; 0x2012 <malloc+0xd4>
     c44: 71 2c        	adc	($2c),y                 ; 0x202c <malloc+0xee>
     c46: 85 12        	sta	$12                     ; 0x2012 <malloc+0xd4>
     c48: a5 14        	lda	$14                     ; 0x2014 <malloc+0xd6>
     c4a: c8           	iny
     c4b: 71 2c        	adc	($2c),y                 ; 0x202c <malloc+0xee>
     c4d: 85 13        	sta	$13                     ; 0x2013 <malloc+0xd5>
     c4f: a5 15        	lda	$15                     ; 0x2015 <malloc+0xd7>
     c51: c8           	iny
     c52: 71 2c        	adc	($2c),y                 ; 0x202c <malloc+0xee>
     c54: 85 18        	sta	$18                     ; 0x2018 <malloc+0xda>
     c56: a6 49        	ldx	$49                     ; 0x2049 <malloc+0x10b>
     c58: 86 14        	stx	$14                     ; 0x2014 <malloc+0xd6>
     c5a: a6 4a        	ldx	$4a                     ; 0x204a <malloc+0x10c>
     c5c: 86 15        	stx	$15                     ; 0x2015 <malloc+0xd7>
     c5e: b2 14        	lda	($14)                   ; 0x2014 <malloc+0xd6>
     c60: 85 f3        	sta	$f3                     ; 0x20f3 <malloc+0x1b5>
     c62: a6 19        	ldx	$19                     ; 0x2019 <malloc+0xdb>
     c64: 86 f4        	stx	$f4                     ; 0x20f4 <malloc+0x1b6>
     c66: a6 12        	ldx	$12                     ; 0x2012 <malloc+0xd4>
     c68: 86 f5        	stx	$f5                     ; 0x20f5 <malloc+0x1b7>
     c6a: a6 13        	ldx	$13                     ; 0x2013 <malloc+0xd5>
     c6c: 86 f6        	stx	$f6                     ; 0x20f6 <malloc+0x1b8>
     c6e: a6 18        	ldx	$18                     ; 0x2018 <malloc+0xda>
     c70: 86 f7        	stx	$f7                     ; 0x20f7 <malloc+0x1b9>
     c72: 20 74 ff     	jsr	$ff74 <end_block9+0xdc7a>
     c75: 92 2e        	sta	($2e)                   ; 0x202e <malloc+0xf0>
     c77: a9 00        	lda	#$0
     c79: 6a           	ror
     c7a: 85 16        	sta	$16                     ; 0x2016 <malloc+0xd8>
     c7c: a6 4b        	ldx	$4b                     ; 0x204b <malloc+0x10d>
     c7e: 86 12        	stx	$12                     ; 0x2012 <malloc+0xd4>
     c80: a6 4c        	ldx	$4c                     ; 0x204c <malloc+0x10e>
     c82: 86 13        	stx	$13                     ; 0x2013 <malloc+0xd5>
     c84: a2 00        	ldx	#$0
     c86: a9 01        	lda	#$1
     c88: 20 74 0e     	jsr	$e74 <fileRead>
     c8b: b2 2c        	lda	($2c)                   ; 0x202c <malloc+0xee>
     c8d: 0a           	asl
     c8e: 18           	clc
     c8f: 72 2c        	adc	($2c)                   ; 0x202c <malloc+0xee>
     c91: 85 30        	sta	$30                     ; 0x2030 <malloc+0xf2>
     c93: 8d 14 d0     	sta	$d014                   ; 0xd014 <end_block9+0xad1a>
     c96: 9c 15 d0     	stz	$d015                   ; 0xd015 <end_block9+0xad1b>
     c99: a6 26        	ldx	$26                     ; 0x2026 <malloc+0xe8>
     c9b: 86 31        	stx	$31                     ; 0x2031 <malloc+0xf3>
     c9d: 8e 16 d0     	stx	$d016                   ; 0xd016 <end_block9+0xad1c>
     ca0: 9c 17 d0     	stz	$d017                   ; 0xd017 <end_block9+0xad1d>
     ca3: a5 40        	lda	$40                     ; 0x2040 <malloc+0x102>
     ca5: 92 10        	sta	($10)                   ; 0x2010 <malloc+0xd2>
     ca7: a0 01        	ldy	#$1
     ca9: a9 00        	lda	#$0
     cab: 91 10        	sta	($10),y                 ; 0x2010 <malloc+0xd2>
     cad: a2 e1        	ldx	#$e1
     caf: 86 12        	stx	$12                     ; 0x2012 <malloc+0xd4>
     cb1: a2 22        	ldx	#$22
     cb3: 86 13        	stx	$13                     ; 0x2013 <malloc+0xd5>
     cb5: 20 a3 11     	jsr	$11a3 <printf>
     cb8: a2 34        	ldx	#$34
     cba: 86 16        	stx	$16                     ; 0x2016 <malloc+0xd8>
     cbc: a2 00        	ldx	#$0
     cbe: 86 17        	stx	$17                     ; 0x2017 <malloc+0xd9>
     cc0: a0 01        	ldy	#$1
     cc2: b2 2c        	lda	($2c)                   ; 0x202c <malloc+0xee>
     cc4: 85 14        	sta	$14                     ; 0x2014 <malloc+0xd6>
     cc6: b1 2c        	lda	($2c),y                 ; 0x202c <malloc+0xee>
     cc8: aa           	tax
     cc9: c8           	iny
     cca: b1 2c        	lda	($2c),y                 ; 0x202c <malloc+0xee>
     ccc: 85 12        	sta	$12                     ; 0x2012 <malloc+0xd4>
     cce: c8           	iny
     ccf: b1 2c        	lda	($2c),y                 ; 0x202c <malloc+0xee>
     cd1: 85 13        	sta	$13                     ; 0x2013 <malloc+0xd5>
     cd3: a5 14        	lda	$14                     ; 0x2014 <malloc+0xd6>
     cd5: 1a           	inc
     cd6: d0 09        	bne	$ce1 <f256main+0x4e2>
     cd8: e8           	inx
     cd9: d0 06        	bne	$ce1 <f256main+0x4e2>
     cdb: e6 12        	inc	$12                     ; 0x2012 <malloc+0xd4>
     cdd: d0 02        	bne	$ce1 <f256main+0x4e2>
     cdf: e6 13        	inc	$13                     ; 0x2013 <malloc+0xd5>
     ce1: 92 2c        	sta	($2c)                   ; 0x202c <malloc+0xee>
     ce3: 8a           	txa
     ce4: a0 01        	ldy	#$1
     ce6: 91 2c        	sta	($2c),y                 ; 0x202c <malloc+0xee>
     ce8: c8           	iny
     ce9: a5 12        	lda	$12                     ; 0x2012 <malloc+0xd4>
     ceb: 91 2c        	sta	($2c),y                 ; 0x202c <malloc+0xee>
     ced: c8           	iny
     cee: a5 13        	lda	$13                     ; 0x2013 <malloc+0xd5>
     cf0: 91 2c        	sta	($2c),y                 ; 0x202c <malloc+0xee>
     cf2: a2 ff        	ldx	#$ff
     cf4: c6 28        	dec	$28                     ; 0x2028 <malloc+0xea>
     cf6: e4 28        	cpx	$28                     ; 0x2028 <malloc+0xea>
     cf8: d0 02        	bne	$cfc <f256main+0x4fd>
     cfa: c6 29        	dec	$29                     ; 0x2029 <malloc+0xeb>
     cfc: 18           	clc
     cfd: a5 26        	lda	$26                     ; 0x2026 <malloc+0xe8>
     cff: 69 02        	adc	#$2
     d01: 85 48        	sta	$48                     ; 0x2048 <malloc+0x10a>
     d03: a5 2c        	lda	$2c                     ; 0x202c <malloc+0xee>
     d05: 18           	clc
     d06: 69 04        	adc	#$4
     d08: 85 2c        	sta	$2c                     ; 0x202c <malloc+0xee>
     d0a: a5 2d        	lda	$2d                     ; 0x202d <malloc+0xef>
     d0c: 69 00        	adc	#$0
     d0e: 85 2d        	sta	$2d                     ; 0x202d <malloc+0xef>
     d10: a5 24        	lda	$24                     ; 0x2024 <malloc+0xe6>
     d12: 18           	clc
     d13: 69 04        	adc	#$4
     d15: 85 24        	sta	$24                     ; 0x2024 <malloc+0xe6>
     d17: a5 25        	lda	$25                     ; 0x2025 <malloc+0xe7>
     d19: 69 00        	adc	#$0
     d1b: 85 25        	sta	$25                     ; 0x2025 <malloc+0xe7>
     d1d: a5 2a        	lda	$2a                     ; 0x202a <malloc+0xec>
     d1f: 18           	clc
     d20: 69 04        	adc	#$4
     d22: 85 2a        	sta	$2a                     ; 0x202a <malloc+0xec>
     d24: a5 2b        	lda	$2b                     ; 0x202b <malloc+0xed>
     d26: 69 00        	adc	#$0
     d28: 85 2b        	sta	$2b                     ; 0x202b <malloc+0xed>
     d2a: a5 29        	lda	$29                     ; 0x2029 <malloc+0xeb>
     d2c: f0 03        	beq	$d31 <f256main+0x532>
     d2e: 4c fd 0b     	jmp	$bfd <f256main+0x3fe>
     d31: a5 28        	lda	$28                     ; 0x2028 <malloc+0xea>
     d33: f0 03        	beq	$d38 <f256main+0x539>
     d35: 4c fd 0b     	jmp	$bfd <f256main+0x3fe>
     d38: 64 35        	stz	$35                     ; 0x2035 <malloc+0xf7>
     d3a: 20 00 ff     	jsr	$ff00 <end_block9+0xdc06>
     d3d: 92 2e        	sta	($2e)                   ; 0x202e <malloc+0xf0>
     d3f: a9 00        	lda	#$0
     d41: 6a           	ror
     d42: 85 16        	sta	$16                     ; 0x2016 <malloc+0xd8>
     d44: a6 35        	ldx	$35                     ; 0x2035 <malloc+0xf7>
     d46: e0 08        	cpx	#$8
     d48: d0 ee        	bne	$d38 <f256main+0x539>
     d4a: a6 39        	ldx	$39                     ; 0x2039 <malloc+0xfb>
     d4c: e0 94        	cpx	#$94
     d4e: f0 04        	beq	$d54 <f256main+0x555>
     d50: e0 20        	cpx	#$20
     d52: d0 e4        	bne	$d38 <f256main+0x539>
     d54: a6 4e        	ldx	$4e                     ; 0x204e <malloc+0x110>
     d56: 86 12        	stx	$12                     ; 0x2012 <malloc+0xd4>
     d58: a6 4d        	ldx	$4d                     ; 0x204d <malloc+0x10f>
     d5a: 86 13        	stx	$13                     ; 0x2013 <malloc+0xd5>
     d5c: a5 13        	lda	$13                     ; 0x2013 <malloc+0xd5>
     d5e: f0 03        	beq	$d63 <f256main+0x564>
     d60: 4c d9 0b     	jmp	$bd9 <f256main+0x3da>
     d63: a5 12        	lda	$12                     ; 0x2012 <malloc+0xd4>
     d65: f0 d1        	beq	$d38 <f256main+0x539>
     d67: 4c d9 0b     	jmp	$bd9 <f256main+0x3da>
     d6a: a6 2c        	ldx	$2c                     ; 0x202c <malloc+0xee>
     d6c: 86 53        	stx	$53                     ; 0x2053 <malloc+0x115>
     d6e: a6 2d        	ldx	$2d                     ; 0x202d <malloc+0xef>
     d70: 86 54        	stx	$54                     ; 0x2054 <malloc+0x116>
     d72: a6 28        	ldx	$28                     ; 0x2028 <malloc+0xea>
     d74: 86 51        	stx	$51                     ; 0x2051 <malloc+0x113>
     d76: a6 29        	ldx	$29                     ; 0x2029 <malloc+0xeb>
     d78: 86 52        	stx	$52                     ; 0x2052 <malloc+0x114>
     d7a: a6 2e        	ldx	$2e                     ; 0x202e <malloc+0xf0>
     d7c: 86 4f        	stx	$4f                     ; 0x204f <malloc+0x111>
     d7e: a6 2f        	ldx	$2f                     ; 0x202f <malloc+0xf1>
     d80: 86 50        	stx	$50                     ; 0x2050 <malloc+0x112>
     d82: a2 3c        	ldx	#$3c
     d84: a0 00        	ldy	#$0
     d86: 86 12        	stx	$12                     ; 0x2012 <malloc+0xd4>
     d88: 84 13        	sty	$13                     ; 0x2013 <malloc+0xd5>
     d8a: a2 34        	ldx	#$34
     d8c: 86 14        	stx	$14                     ; 0x2014 <malloc+0xd6>
     d8e: a2 00        	ldx	#$0
     d90: 86 15        	stx	$15                     ; 0x2015 <malloc+0xd7>
     d92: 64 35        	stz	$35                     ; 0x2035 <malloc+0xf7>
     d94: 20 00 ff     	jsr	$ff00 <end_block9+0xdc06>
     d97: 92 12        	sta	($12)                   ; 0x2012 <malloc+0xd4>
     d99: a9 00        	lda	#$0
     d9b: 6a           	ror
     d9c: 85 14        	sta	$14                     ; 0x2014 <malloc+0xd6>
     d9e: a6 35        	ldx	$35                     ; 0x2035 <malloc+0xf7>
     da0: e0 08        	cpx	#$8
     da2: d0 ee        	bne	$d92 <f256main+0x593>
     da4: a6 39        	ldx	$39                     ; 0x2039 <malloc+0xfb>
     da6: e0 20        	cpx	#$20
     da8: f0 04        	beq	$dae <f256main+0x5af>
     daa: e0 94        	cpx	#$94
     dac: d0 e4        	bne	$d92 <f256main+0x593>
     dae: a6 49        	ldx	$49                     ; 0x2049 <malloc+0x10b>
     db0: 86 12        	stx	$12                     ; 0x2012 <malloc+0xd4>
     db2: a6 4a        	ldx	$4a                     ; 0x204a <malloc+0x10c>
     db4: 86 13        	stx	$13                     ; 0x2013 <malloc+0xd5>
     db6: b2 12        	lda	($12)                   ; 0x2012 <malloc+0xd4>
     db8: 85 f3        	sta	$f3                     ; 0x20f3 <malloc+0x1b5>
     dba: a2 0e        	ldx	#$e
     dbc: 86 f4        	stx	$f4                     ; 0x20f4 <malloc+0x1b6>
     dbe: 64 f5        	stz	$f5                     ; 0x20f5 <malloc+0x1b7>
     dc0: 64 f6        	stz	$f6                     ; 0x20f6 <malloc+0x1b8>
     dc2: 64 f7        	stz	$f7                     ; 0x20f7 <malloc+0x1b9>
     dc4: a2 3c        	ldx	#$3c
     dc6: a0 00        	ldy	#$0
     dc8: 86 12        	stx	$12                     ; 0x2012 <malloc+0xd4>
     dca: 84 13        	sty	$13                     ; 0x2013 <malloc+0xd5>
     dcc: a2 34        	ldx	#$34
     dce: 86 14        	stx	$14                     ; 0x2014 <malloc+0xd6>
     dd0: a2 00        	ldx	#$0
     dd2: 86 15        	stx	$15                     ; 0x2015 <malloc+0xd7>
     dd4: 20 74 ff     	jsr	$ff74 <end_block9+0xdc7a>
     dd7: 92 12        	sta	($12)                   ; 0x2012 <malloc+0xd4>
     dd9: a9 00        	lda	#$0
     ddb: 6a           	ror
     ddc: 85 14        	sta	$14                     ; 0x2014 <malloc+0xd6>
     dde: 4c ba 0b     	jmp	$bba <f256main+0x3bb>

00000de1 <fileOpen>:
     de1: a2 f3        	ldx	#$f3
     de3: 86 12        	stx	$12                     ; 0x2012 <malloc+0xd4>
     de5: a2 22        	ldx	#$22
     de7: 86 13        	stx	$13                     ; 0x2013 <malloc+0xd5>
     de9: a2 00        	ldx	#$0
     deb: 80 0a        	bra	$df7 <fileOpen+0x16>
     ded: a0 02        	ldy	#$2
     def: e6 12        	inc	$12                     ; 0x2012 <malloc+0xd4>
     df1: d0 02        	bne	$df5 <fileOpen+0x14>
     df3: e6 13        	inc	$13                     ; 0x2013 <malloc+0xd5>
     df5: 5a           	phy
     df6: fa           	plx
     df7: b2 12        	lda	($12)                   ; 0x2012 <malloc+0xd4>
     df9: c9 61        	cmp	#$61
     dfb: f0 f0        	beq	$ded <fileOpen+0xc>
     dfd: a0 01        	ldy	#$1
     dff: c9 77        	cmp	#$77
     e01: f0 ec        	beq	$def <fileOpen+0xe>
     e03: a8           	tay
     e04: f0 04        	beq	$e0a <fileOpen+0x29>
     e06: da           	phx
     e07: 7a           	ply
     e08: 80 e5        	bra	$def <fileOpen+0xe>
     e0a: a0 e7        	ldy	#$e7
     e0c: a9 22        	lda	#$22
     e0e: 84 fb        	sty	$fb                     ; 0x20fb <malloc+0x1bd>
     e10: 85 fc        	sta	$fc                     ; 0x20fc <malloc+0x1be>
     e12: a0 0b        	ldy	#$b
     e14: 84 fd        	sty	$fd                     ; 0x20fd <malloc+0x1bf>
     e16: 64 f3        	stz	$f3                     ; 0x20f3 <malloc+0x1b5>
     e18: 86 f5        	stx	$f5                     ; 0x20f5 <malloc+0x1b7>
     e1a: a2 5d        	ldx	#$5d
     e1c: a0 00        	ldy	#$0
     e1e: 86 12        	stx	$12                     ; 0x2012 <malloc+0xd4>
     e20: 84 13        	sty	$13                     ; 0x2013 <malloc+0xd5>
     e22: a2 34        	ldx	#$34
     e24: 86 14        	stx	$14                     ; 0x2014 <malloc+0xd6>
     e26: a2 00        	ldx	#$0
     e28: 86 15        	stx	$15                     ; 0x2015 <malloc+0xd7>
     e2a: 20 5c ff     	jsr	$ff5c <end_block9+0xdc62>
     e2d: 92 12        	sta	($12)                   ; 0x2012 <malloc+0xd4>
     e2f: a9 00        	lda	#$0
     e31: 6a           	ror
     e32: 85 14        	sta	$14                     ; 0x2014 <malloc+0xd6>
     e34: a6 34        	ldx	$34                     ; 0x2034 <malloc+0xf6>
     e36: a0 00        	ldy	#$0
     e38: 84 12        	sty	$12                     ; 0x2012 <malloc+0xd4>
     e3a: a0 00        	ldy	#$0
     e3c: 84 13        	sty	$13                     ; 0x2013 <malloc+0xd5>
     e3e: 8a           	txa
     e3f: f0 01        	beq	$e42 <fileOpen+0x61>
     e41: 60           	rts
     e42: a6 5d        	ldx	$5d                     ; 0x205d <malloc+0x11f>
     e44: 86 5f        	stx	$5f                     ; 0x205f <malloc+0x121>
     e46: a2 5e        	ldx	#$5e
     e48: a0 00        	ldy	#$0
     e4a: 86 16        	stx	$16                     ; 0x2016 <malloc+0xd8>
     e4c: 84 17        	sty	$17                     ; 0x2017 <malloc+0xd9>
     e4e: 64 35        	stz	$35                     ; 0x2035 <malloc+0xf7>
     e50: 20 00 ff     	jsr	$ff00 <end_block9+0xdc06>
     e53: 92 16        	sta	($16)                   ; 0x2016 <malloc+0xd8>
     e55: a9 00        	lda	#$0
     e57: 6a           	ror
     e58: 85 14        	sta	$14                     ; 0x2014 <malloc+0xd6>
     e5a: a6 35        	ldx	$35                     ; 0x2035 <malloc+0xf7>
     e5c: e0 28        	cpx	#$28
     e5e: f0 e1        	beq	$e41 <fileOpen+0x60>
     e60: e0 38        	cpx	#$38
     e62: f0 dd        	beq	$e41 <fileOpen+0x60>
     e64: e0 2a        	cpx	#$2a
     e66: d0 e6        	bne	$e4e <fileOpen+0x6d>
     e68: a9 01        	lda	#$1
     e6a: a2 00        	ldx	#$0
     e6c: 20 3e 1f     	jsr	$1f3e <malloc>
     e6f: a5 5f        	lda	$5f                     ; 0x205f <malloc+0x121>
     e71: 92 12        	sta	($12)                   ; 0x2012 <malloc+0xd4>
     e73: 60           	rts

00000e74 <fileRead>:
     e74: 85 16        	sta	$16                     ; 0x2016 <malloc+0xd8>
     e76: 86 17        	stx	$17                     ; 0x2017 <malloc+0xd9>
     e78: 64 18        	stz	$18                     ; 0x2018 <malloc+0xda>
     e7a: a6 12        	ldx	$12                     ; 0x2012 <malloc+0xd4>
     e7c: 86 1a        	stx	$1a                     ; 0x201a <malloc+0xdc>
     e7e: a6 13        	ldx	$13                     ; 0x2013 <malloc+0xd5>
     e80: 86 1b        	stx	$1b                     ; 0x201b <malloc+0xdd>
     e82: a2 5d        	ldx	#$5d
     e84: a0 00        	ldy	#$0
     e86: a9 34        	lda	#$34
     e88: 85 12        	sta	$12                     ; 0x2012 <malloc+0xd4>
     e8a: a9 00        	lda	#$0
     e8c: 85 13        	sta	$13                     ; 0x2013 <malloc+0xd5>
     e8e: 64 19        	stz	$19                     ; 0x2019 <malloc+0xdb>
     e90: b2 14        	lda	($14)                   ; 0x2014 <malloc+0xd6>
     e92: 85 1d        	sta	$1d                     ; 0x201d <malloc+0xdf>
     e94: a5 1a        	lda	$1a                     ; 0x201a <malloc+0xdc>
     e96: 85 1e        	sta	$1e                     ; 0x201e <malloc+0xe0>
     e98: a5 1a        	lda	$1a                     ; 0x201a <malloc+0xdc>
     e9a: 18           	clc
     e9b: 65 18        	adc	$18                     ; 0x2018 <malloc+0xda>
     e9d: 85 1c        	sta	$1c                     ; 0x201c <malloc+0xde>
     e9f: a5 1b        	lda	$1b                     ; 0x201b <malloc+0xdd>
     ea1: 85 1f        	sta	$1f                     ; 0x201f <malloc+0xe1>
     ea3: a5 1b        	lda	$1b                     ; 0x201b <malloc+0xdd>
     ea5: 65 19        	adc	$19                     ; 0x2019 <malloc+0xdb>
     ea7: e6 1d        	inc	$1d                     ; 0x201d <malloc+0xdf>
     ea9: c6 1d        	dec	$1d                     ; 0x201d <malloc+0xdf>
     eab: d0 03        	bne	$eb0 <fileRead+0x3c>
     ead: 4c 2d 0f     	jmp	$f2d <fileRead+0xb9>
     eb0: 5a           	phy
     eb1: a4 1d        	ldy	$1d                     ; 0x201d <malloc+0xdf>
     eb3: 84 1a        	sty	$1a                     ; 0x201a <malloc+0xdc>
     eb5: 7a           	ply
     eb6: 85 1d        	sta	$1d                     ; 0x201d <malloc+0xdf>
     eb8: a5 16        	lda	$16                     ; 0x2016 <malloc+0xd8>
     eba: 38           	sec
     ebb: e5 18        	sbc	$18                     ; 0x2018 <malloc+0xda>
     ebd: 85 1b        	sta	$1b                     ; 0x201b <malloc+0xdd>
     ebf: a5 1a        	lda	$1a                     ; 0x201a <malloc+0xdc>
     ec1: 85 f3        	sta	$f3                     ; 0x20f3 <malloc+0x1b5>
     ec3: a5 1b        	lda	$1b                     ; 0x201b <malloc+0xdd>
     ec5: 85 f4        	sta	$f4                     ; 0x20f4 <malloc+0x1b6>
     ec7: a9 5f        	lda	#$5f
     ec9: 85 1a        	sta	$1a                     ; 0x201a <malloc+0xdc>
     ecb: a9 00        	lda	#$0
     ecd: 85 1b        	sta	$1b                     ; 0x201b <malloc+0xdd>
     ecf: 20 60 ff     	jsr	$ff60 <end_block9+0xdc66>
     ed2: 92 1a        	sta	($1a)                   ; 0x201a <malloc+0xdc>
     ed4: a9 00        	lda	#$0
     ed6: 6a           	ror
     ed7: 85 12        	sta	$12                     ; 0x2012 <malloc+0xd4>
     ed9: a5 34        	lda	$34                     ; 0x2034 <malloc+0xf6>
     edb: f0 03        	beq	$ee0 <fileRead+0x6c>
     edd: 4c a7 0f     	jmp	$fa7 <fileRead+0x133>
     ee0: 64 35        	stz	$35                     ; 0x2035 <malloc+0xf7>
     ee2: a9 60        	lda	#$60
     ee4: 85 1a        	sta	$1a                     ; 0x201a <malloc+0xdc>
     ee6: a9 00        	lda	#$0
     ee8: 85 1b        	sta	$1b                     ; 0x201b <malloc+0xdd>
     eea: 20 00 ff     	jsr	$ff00 <end_block9+0xdc06>
     eed: 92 1a        	sta	($1a)                   ; 0x201a <malloc+0xdc>
     eef: a9 00        	lda	#$0
     ef1: 6a           	ror
     ef2: 85 12        	sta	$12                     ; 0x2012 <malloc+0xd4>
     ef4: a5 35        	lda	$35                     ; 0x2035 <malloc+0xf7>
     ef6: c9 38        	cmp	#$38
     ef8: d0 03        	bne	$efd <fileRead+0x89>
     efa: 4c a7 0f     	jmp	$fa7 <fileRead+0x133>
     efd: c9 30        	cmp	#$30
     eff: d0 03        	bne	$f04 <fileRead+0x90>
     f01: 4c ae 0f     	jmp	$fae <fileRead+0x13a>
     f04: c9 2c        	cmp	#$2c
     f06: d0 d8        	bne	$ee0 <fileRead+0x6c>
     f08: a5 1c        	lda	$1c                     ; 0x201c <malloc+0xde>
     f0a: 85 fb        	sta	$fb                     ; 0x20fb <malloc+0x1bd>
     f0c: a5 1d        	lda	$1d                     ; 0x201d <malloc+0xdf>
     f0e: 85 fc        	sta	$fc                     ; 0x20fc <malloc+0x1be>
     f10: a5 3b        	lda	$3b                     ; 0x203b <malloc+0xfd>
     f12: 85 fd        	sta	$fd                     ; 0x20fd <malloc+0x1bf>
     f14: a9 61        	lda	#$61
     f16: 85 1a        	sta	$1a                     ; 0x201a <malloc+0xdc>
     f18: a9 00        	lda	#$0
     f1a: 85 1b        	sta	$1b                     ; 0x201b <malloc+0xdd>
     f1c: 20 04 ff     	jsr	$ff04 <end_block9+0xdc0a>
     f1f: 92 1a        	sta	($1a)                   ; 0x201a <malloc+0xdc>
     f21: a9 00        	lda	#$0
     f23: 6a           	ror
     f24: 85 12        	sta	$12                     ; 0x2012 <malloc+0xd4>
     f26: a5 3b        	lda	$3b                     ; 0x203b <malloc+0xfd>
     f28: d0 45        	bne	$f6f <fileRead+0xfb>
     f2a: 4c b8 0f     	jmp	$fb8 <fileRead+0x144>
     f2d: 5a           	phy
     f2e: a4 1c        	ldy	$1c                     ; 0x201c <malloc+0xde>
     f30: 84 1a        	sty	$1a                     ; 0x201a <malloc+0xdc>
     f32: 7a           	ply
     f33: 85 1b        	sta	$1b                     ; 0x201b <malloc+0xdd>
     f35: 80 0a        	bra	$f41 <fileRead+0xcd>
     f37: a5 35        	lda	$35                     ; 0x2035 <malloc+0xf7>
     f39: c9 08        	cmp	#$8
     f3b: d0 04        	bne	$f41 <fileRead+0xcd>
     f3d: a5 3b        	lda	$3b                     ; 0x203b <malloc+0xfd>
     f3f: f0 28        	beq	$f69 <fileRead+0xf5>
     f41: 64 35        	stz	$35                     ; 0x2035 <malloc+0xf7>
     f43: 86 1c        	stx	$1c                     ; 0x201c <malloc+0xde>
     f45: 84 1d        	sty	$1d                     ; 0x201d <malloc+0xdf>
     f47: 20 00 ff     	jsr	$ff00 <end_block9+0xdc06>
     f4a: 92 1c        	sta	($1c)                   ; 0x201c <malloc+0xde>
     f4c: a9 00        	lda	#$0
     f4e: 6a           	ror
     f4f: 85 12        	sta	$12                     ; 0x2012 <malloc+0xd4>
     f51: a5 34        	lda	$34                     ; 0x2034 <malloc+0xf6>
     f53: f0 e2        	beq	$f37 <fileRead+0xc3>
     f55: a9 5e        	lda	#$5e
     f57: 85 1c        	sta	$1c                     ; 0x201c <malloc+0xde>
     f59: a9 00        	lda	#$0
     f5b: 85 1d        	sta	$1d                     ; 0x201d <malloc+0xdf>
     f5d: 20 0c ff     	jsr	$ff0c <end_block9+0xdc12>
     f60: 92 1c        	sta	($1c)                   ; 0x201c <malloc+0xde>
     f62: a9 00        	lda	#$0
     f64: 6a           	ror
     f65: 85 12        	sta	$12                     ; 0x2012 <malloc+0xd4>
     f67: 80 d8        	bra	$f41 <fileRead+0xcd>
     f69: a5 3a        	lda	$3a                     ; 0x203a <malloc+0xfc>
     f6b: 92 1a        	sta	($1a)                   ; 0x201a <malloc+0xdc>
     f6d: a9 01        	lda	#$1
     f6f: 85 62        	sta	$62                     ; 0x2062 <malloc+0x124>
     f71: a9 00        	lda	#$0
     f73: 85 63        	sta	$63                     ; 0x2063 <malloc+0x125>
     f75: 18           	clc
     f76: a5 62        	lda	$62                     ; 0x2062 <malloc+0x124>
     f78: 65 18        	adc	$18                     ; 0x2018 <malloc+0xda>
     f7a: 85 62        	sta	$62                     ; 0x2062 <malloc+0x124>
     f7c: a5 63        	lda	$63                     ; 0x2063 <malloc+0x125>
     f7e: 65 19        	adc	$19                     ; 0x2019 <malloc+0xdb>
     f80: c5 17        	cmp	$17                     ; 0x2017 <malloc+0xd9>
     f82: d0 0a        	bne	$f8e <fileRead+0x11a>
     f84: 85 19        	sta	$19                     ; 0x2019 <malloc+0xdb>
     f86: a5 62        	lda	$62                     ; 0x2062 <malloc+0x124>
     f88: 85 18        	sta	$18                     ; 0x2018 <malloc+0xda>
     f8a: c5 16        	cmp	$16                     ; 0x2016 <malloc+0xd8>
     f8c: 80 08        	bra	$f96 <fileRead+0x122>
     f8e: c5 17        	cmp	$17                     ; 0x2017 <malloc+0xd9>
     f90: 85 19        	sta	$19                     ; 0x2019 <malloc+0xdb>
     f92: a5 62        	lda	$62                     ; 0x2062 <malloc+0x124>
     f94: 85 18        	sta	$18                     ; 0x2018 <malloc+0xda>
     f96: a5 19        	lda	$19                     ; 0x2019 <malloc+0xdb>
     f98: 5a           	phy
     f99: a4 1e        	ldy	$1e                     ; 0x201e <malloc+0xe0>
     f9b: 84 1a        	sty	$1a                     ; 0x201a <malloc+0xdc>
     f9d: a4 1f        	ldy	$1f                     ; 0x201f <malloc+0xe1>
     f9f: 84 1b        	sty	$1b                     ; 0x201b <malloc+0xdd>
     fa1: 7a           	ply
     fa2: b0 10        	bcs	$fb4 <fileRead+0x140>
     fa4: 4c 90 0e     	jmp	$e90 <fileRead+0x1c>
     fa7: a9 ff        	lda	#$ff
     fa9: aa           	tax
     faa: 86 62        	stx	$62                     ; 0x2062 <malloc+0x124>
     fac: 80 06        	bra	$fb4 <fileRead+0x140>
     fae: a6 18        	ldx	$18                     ; 0x2018 <malloc+0xda>
     fb0: 86 62        	stx	$62                     ; 0x2062 <malloc+0x124>
     fb2: a5 19        	lda	$19                     ; 0x2019 <malloc+0xdb>
     fb4: aa           	tax
     fb5: a5 62        	lda	$62                     ; 0x2062 <malloc+0x124>
     fb7: 60           	rts
     fb8: a9 00        	lda	#$0
     fba: 85 62        	sta	$62                     ; 0x2062 <malloc+0x124>
     fbc: 1a           	inc
     fbd: 80 b4        	bra	$f73 <fileRead+0xff>

00000fbf <exit>:
     fbf: 20 14 03     	jsr	$314 <_fini>
     fc2: 80 fe        	bra	$fc2 <exit+0x3>

00000fc4 <_ZN12_GLOBAL__N_13putEcP6Status>:
     fc4: 85 18        	sta	$18                     ; 0x2018 <malloc+0xda>
     fc6: a6 13        	ldx	$13                     ; 0x2013 <malloc+0xd5>
     fc8: 18           	clc
     fc9: a5 12        	lda	$12                     ; 0x2012 <malloc+0xd4>
     fcb: 69 05        	adc	#$5
     fcd: a8           	tay
     fce: a5 13        	lda	$13                     ; 0x2013 <malloc+0xd5>
     fd0: 86 15        	stx	$15                     ; 0x2015 <malloc+0xd7>
     fd2: 69 00        	adc	#$0
     fd4: 18           	clc
     fd5: 84 16        	sty	$16                     ; 0x2016 <malloc+0xd8>
     fd7: a0 05        	ldy	#$5
     fd9: 85 17        	sta	$17                     ; 0x2017 <malloc+0xd9>
     fdb: b1 12        	lda	($12),y                 ; 0x2012 <malloc+0xd4>
     fdd: aa           	tax
     fde: a5 12        	lda	$12                     ; 0x2012 <malloc+0xd4>
     fe0: 69 03        	adc	#$3
     fe2: 85 14        	sta	$14                     ; 0x2014 <malloc+0xd6>
     fe4: a5 15        	lda	$15                     ; 0x2015 <malloc+0xd7>
     fe6: 69 00        	adc	#$0
     fe8: 85 15        	sta	$15                     ; 0x2015 <malloc+0xd7>
     fea: a0 01        	ldy	#$1
     fec: b1 16        	lda	($16),y                 ; 0x2016 <malloc+0xd8>
     fee: d1 14        	cmp	($14),y                 ; 0x2014 <malloc+0xd6>
     ff0: d0 11        	bne	$1003 <_ZN12_GLOBAL__N_13putEcP6Status+0x3f>
     ff2: a0 03        	ldy	#$3
     ff4: 85 17        	sta	$17                     ; 0x2017 <malloc+0xd9>
     ff6: b1 12        	lda	($12),y                 ; 0x2012 <malloc+0xd4>
     ff8: 85 14        	sta	$14                     ; 0x2014 <malloc+0xd6>
     ffa: 86 16        	stx	$16                     ; 0x2016 <malloc+0xd8>
     ffc: e4 14        	cpx	$14                     ; 0x2014 <malloc+0xd6>
     ffe: 90 0e        	bcc	$100e <_ZN12_GLOBAL__N_13putEcP6Status+0x4a>
    1000: 4c 6f 10     	jmp	$106f <_ZN12_GLOBAL__N_13putEcP6Status+0xab>
    1003: 86 16        	stx	$16                     ; 0x2016 <malloc+0xd8>
    1005: d1 14        	cmp	($14),y                 ; 0x2014 <malloc+0xd6>
    1007: 85 17        	sta	$17                     ; 0x2017 <malloc+0xd9>
    1009: 90 03        	bcc	$100e <_ZN12_GLOBAL__N_13putEcP6Status+0x4a>
    100b: 4c 6f 10     	jmp	$106f <_ZN12_GLOBAL__N_13putEcP6Status+0xab>
    100e: a5 12        	lda	$12                     ; 0x2012 <malloc+0xd4>
    1010: 18           	clc
    1011: 69 0f        	adc	#$f
    1013: 85 14        	sta	$14                     ; 0x2014 <malloc+0xd6>
    1015: a5 13        	lda	$13                     ; 0x2013 <malloc+0xd5>
    1017: 69 00        	adc	#$0
    1019: 85 15        	sta	$15                     ; 0x2015 <malloc+0xd7>
    101b: a0 01        	ldy	#$1
    101d: b1 14        	lda	($14),y                 ; 0x2014 <malloc+0xd6>
    101f: a2 00        	ldx	#$0
    1021: 86 14        	stx	$14                     ; 0x2014 <malloc+0xd6>
    1023: a2 00        	ldx	#$0
    1025: 86 15        	stx	$15                     ; 0x2015 <malloc+0xd7>
    1027: c5 15        	cmp	$15                     ; 0x2015 <malloc+0xd7>
    1029: d0 2d        	bne	$1058 <_ZN12_GLOBAL__N_13putEcP6Status+0x94>
    102b: a0 0f        	ldy	#$f
    102d: b1 12        	lda	($12),y                 ; 0x2012 <malloc+0xd4>
    102f: c5 14        	cmp	$14                     ; 0x2014 <malloc+0xd6>
    1031: d0 25        	bne	$1058 <_ZN12_GLOBAL__N_13putEcP6Status+0x94>
    1033: a5 12        	lda	$12                     ; 0x2012 <malloc+0xd4>
    1035: 18           	clc
    1036: 69 09        	adc	#$9
    1038: 85 14        	sta	$14                     ; 0x2014 <malloc+0xd6>
    103a: a5 13        	lda	$13                     ; 0x2013 <malloc+0xd5>
    103c: 69 00        	adc	#$0
    103e: a0 09        	ldy	#$9
    1040: 85 15        	sta	$15                     ; 0x2015 <malloc+0xd7>
    1042: 18           	clc
    1043: a5 16        	lda	$16                     ; 0x2016 <malloc+0xd8>
    1045: 71 12        	adc	($12),y                 ; 0x2012 <malloc+0xd4>
    1047: aa           	tax
    1048: a0 01        	ldy	#$1
    104a: a5 17        	lda	$17                     ; 0x2017 <malloc+0xd9>
    104c: 71 14        	adc	($14),y                 ; 0x2014 <malloc+0xd6>
    104e: 86 14        	stx	$14                     ; 0x2014 <malloc+0xd6>
    1050: 85 15        	sta	$15                     ; 0x2015 <malloc+0xd7>
    1052: a5 18        	lda	$18                     ; 0x2018 <malloc+0xda>
    1054: 92 14        	sta	($14)                   ; 0x2014 <malloc+0xd6>
    1056: 80 17        	bra	$106f <_ZN12_GLOBAL__N_13putEcP6Status+0xab>
    1058: a6 12        	ldx	$12                     ; 0x2012 <malloc+0xd4>
    105a: 86 b2        	stx	$b2                     ; 0x20b2 <malloc+0x174>
    105c: a6 13        	ldx	$13                     ; 0x2013 <malloc+0xd5>
    105e: 86 b3        	stx	$b3                     ; 0x20b3 <malloc+0x175>
    1060: a2 00        	ldx	#$0
    1062: a5 18        	lda	$18                     ; 0x2018 <malloc+0xda>
    1064: 20 7c 1d     	jsr	$1d7c <putchar>
    1067: a6 b2        	ldx	$b2                     ; 0x20b2 <malloc+0x174>
    1069: 86 12        	stx	$12                     ; 0x2012 <malloc+0xd4>
    106b: a6 b3        	ldx	$b3                     ; 0x20b3 <malloc+0x175>
    106d: 86 13        	stx	$13                     ; 0x2013 <malloc+0xd5>
    106f: a0 05        	ldy	#$5
    1071: a5 12        	lda	$12                     ; 0x2012 <malloc+0xd4>
    1073: 18           	clc
    1074: 69 05        	adc	#$5
    1076: 85 14        	sta	$14                     ; 0x2014 <malloc+0xd6>
    1078: a5 13        	lda	$13                     ; 0x2013 <malloc+0xd5>
    107a: 69 00        	adc	#$0
    107c: 85 15        	sta	$15                     ; 0x2015 <malloc+0xd7>
    107e: b1 12        	lda	($12),y                 ; 0x2012 <malloc+0xd4>
    1080: aa           	tax
    1081: a0 01        	ldy	#$1
    1083: b1 14        	lda	($14),y                 ; 0x2014 <malloc+0xd6>
    1085: e8           	inx
    1086: d0 01        	bne	$1089 <_ZN12_GLOBAL__N_13putEcP6Status+0xc5>
    1088: 1a           	inc
    1089: 85 16        	sta	$16                     ; 0x2016 <malloc+0xd8>
    108b: 8a           	txa
    108c: a0 05        	ldy	#$5
    108e: 91 12        	sta	($12),y                 ; 0x2012 <malloc+0xd4>
    1090: a0 01        	ldy	#$1
    1092: a5 16        	lda	$16                     ; 0x2016 <malloc+0xd8>
    1094: 91 14        	sta	($14),y                 ; 0x2014 <malloc+0xd6>
    1096: 60           	rts

00001097 <_ZN12_GLOBAL__N_112print_stringEPKcP6Status>:
    1097: a6 12        	ldx	$12                     ; 0x2012 <malloc+0xd4>
    1099: 86 aa        	stx	$aa                     ; 0x20aa <malloc+0x16c>
    109b: a6 13        	ldx	$13                     ; 0x2013 <malloc+0xd5>
    109d: 86 ab        	stx	$ab                     ; 0x20ab <malloc+0x16d>
    109f: a6 14        	ldx	$14                     ; 0x2014 <malloc+0xd6>
    10a1: 86 ac        	stx	$ac                     ; 0x20ac <malloc+0x16e>
    10a3: a6 15        	ldx	$15                     ; 0x2015 <malloc+0xd7>
    10a5: 86 ad        	stx	$ad                     ; 0x20ad <malloc+0x16f>
    10a7: a5 ac        	lda	$ac                     ; 0x20ac <malloc+0x16e>
    10a9: 18           	clc
    10aa: 69 0d        	adc	#$d
    10ac: 85 12        	sta	$12                     ; 0x2012 <malloc+0xd4>
    10ae: a5 ad        	lda	$ad                     ; 0x20ad <malloc+0x16f>
    10b0: 69 00        	adc	#$0
    10b2: 85 13        	sta	$13                     ; 0x2013 <malloc+0xd5>
    10b4: a0 01        	ldy	#$1
    10b6: b1 12        	lda	($12),y                 ; 0x2012 <malloc+0xd4>
    10b8: 30 16        	bmi	$10d0 <_ZN12_GLOBAL__N_112print_stringEPKcP6Status+0x39>
    10ba: a0 0d        	ldy	#$d
    10bc: 85 12        	sta	$12                     ; 0x2012 <malloc+0xd4>
    10be: b1 ac        	lda	($ac),y                 ; 0x20ac <malloc+0x16e>
    10c0: a6 12        	ldx	$12                     ; 0x2012 <malloc+0xd4>
    10c2: 86 b1        	stx	$b1                     ; 0x20b1 <malloc+0x173>
    10c4: d0 0f        	bne	$10d5 <_ZN12_GLOBAL__N_112print_stringEPKcP6Status+0x3e>
    10c6: aa           	tax
    10c7: d0 0c        	bne	$10d5 <_ZN12_GLOBAL__N_112print_stringEPKcP6Status+0x3e>
    10c9: 64 ae        	stz	$ae                     ; 0x20ae <malloc+0x170>
    10cb: a2 00        	ldx	#$0
    10cd: 4c 9e 11     	jmp	$119e <_ZN12_GLOBAL__N_112print_stringEPKcP6Status+0x107>
    10d0: a9 ff        	lda	#$ff
    10d2: aa           	tax
    10d3: 86 b1        	stx	$b1                     ; 0x20b1 <malloc+0x173>
    10d5: 85 ae        	sta	$ae                     ; 0x20ae <malloc+0x170>
    10d7: 64 12        	stz	$12                     ; 0x2012 <malloc+0xd4>
    10d9: a4 aa        	ldy	$aa                     ; 0x20aa <malloc+0x16c>
    10db: a6 ab        	ldx	$ab                     ; 0x20ab <malloc+0x16d>
    10dd: 86 16        	stx	$16                     ; 0x2016 <malloc+0xd8>
    10df: 64 13        	stz	$13                     ; 0x2013 <malloc+0xd5>
    10e1: 98           	tya
    10e2: 18           	clc
    10e3: 65 12        	adc	$12                     ; 0x2012 <malloc+0xd4>
    10e5: 85 14        	sta	$14                     ; 0x2014 <malloc+0xd6>
    10e7: a5 ab        	lda	$ab                     ; 0x20ab <malloc+0x16d>
    10e9: 65 13        	adc	$13                     ; 0x2013 <malloc+0xd5>
    10eb: 85 15        	sta	$15                     ; 0x2015 <malloc+0xd7>
    10ed: b2 14        	lda	($14)                   ; 0x2014 <malloc+0xd6>
    10ef: d0 03        	bne	$10f4 <_ZN12_GLOBAL__N_112print_stringEPKcP6Status+0x5d>
    10f1: 4c 98 11     	jmp	$1198 <_ZN12_GLOBAL__N_112print_stringEPKcP6Status+0x101>
    10f4: e6 12        	inc	$12                     ; 0x2012 <malloc+0xd4>
    10f6: d0 02        	bne	$10fa <_ZN12_GLOBAL__N_112print_stringEPKcP6Status+0x63>
    10f8: e6 13        	inc	$13                     ; 0x2013 <malloc+0xd5>
    10fa: a6 b1        	ldx	$b1                     ; 0x20b1 <malloc+0x173>
    10fc: e4 13        	cpx	$13                     ; 0x2013 <malloc+0xd5>
    10fe: d0 e1        	bne	$10e1 <_ZN12_GLOBAL__N_112print_stringEPKcP6Status+0x4a>
    1100: a6 ae        	ldx	$ae                     ; 0x20ae <malloc+0x170>
    1102: e4 12        	cpx	$12                     ; 0x2012 <malloc+0xd4>
    1104: d0 db        	bne	$10e1 <_ZN12_GLOBAL__N_112print_stringEPKcP6Status+0x4a>
    1106: a0 01        	ldy	#$1
    1108: b1 ac        	lda	($ac),y                 ; 0x20ac <malloc+0x16e>
    110a: 29 01        	and	#$1
    110c: f0 03        	beq	$1111 <_ZN12_GLOBAL__N_112print_stringEPKcP6Status+0x7a>
    110e: 4c 69 11     	jmp	$1169 <_ZN12_GLOBAL__N_112print_stringEPKcP6Status+0xd2>
    1111: a5 ac        	lda	$ac                     ; 0x20ac <malloc+0x16e>
    1113: 18           	clc
    1114: 69 0b        	adc	#$b
    1116: 85 14        	sta	$14                     ; 0x2014 <malloc+0xd6>
    1118: a5 ad        	lda	$ad                     ; 0x20ad <malloc+0x16f>
    111a: 69 00        	adc	#$0
    111c: 85 15        	sta	$15                     ; 0x2015 <malloc+0xd7>
    111e: a0 0b        	ldy	#$b
    1120: b1 ac        	lda	($ac),y                 ; 0x20ac <malloc+0x16e>
    1122: 85 13        	sta	$13                     ; 0x2013 <malloc+0xd5>
    1124: a0 01        	ldy	#$1
    1126: b1 14        	lda	($14),y                 ; 0x2014 <malloc+0xd6>
    1128: 85 12        	sta	$12                     ; 0x2012 <malloc+0xd4>
    112a: a6 b1        	ldx	$b1                     ; 0x20b1 <malloc+0x173>
    112c: e4 12        	cpx	$12                     ; 0x2012 <malloc+0xd4>
    112e: d0 08        	bne	$1138 <_ZN12_GLOBAL__N_112print_stringEPKcP6Status+0xa1>
    1130: a6 ae        	ldx	$ae                     ; 0x20ae <malloc+0x170>
    1132: e4 13        	cpx	$13                     ; 0x2013 <malloc+0xd5>
    1134: 90 06        	bcc	$113c <_ZN12_GLOBAL__N_112print_stringEPKcP6Status+0xa5>
    1136: 80 31        	bra	$1169 <_ZN12_GLOBAL__N_112print_stringEPKcP6Status+0xd2>
    1138: e4 12        	cpx	$12                     ; 0x2012 <malloc+0xd4>
    113a: b0 2d        	bcs	$1169 <_ZN12_GLOBAL__N_112print_stringEPKcP6Status+0xd2>
    113c: 38           	sec
    113d: a5 ae        	lda	$ae                     ; 0x20ae <malloc+0x170>
    113f: e5 13        	sbc	$13                     ; 0x2013 <malloc+0xd5>
    1141: a8           	tay
    1142: a5 b1        	lda	$b1                     ; 0x20b1 <malloc+0x173>
    1144: e5 12        	sbc	$12                     ; 0x2012 <malloc+0xd4>
    1146: 85 b0        	sta	$b0                     ; 0x20b0 <malloc+0x172>
    1148: a6 ac        	ldx	$ac                     ; 0x20ac <malloc+0x16e>
    114a: 86 12        	stx	$12                     ; 0x2012 <malloc+0xd4>
    114c: a6 ad        	ldx	$ad                     ; 0x20ad <malloc+0x16f>
    114e: 86 13        	stx	$13                     ; 0x2013 <malloc+0xd5>
    1150: 84 af        	sty	$af                     ; 0x20af <malloc+0x171>
    1152: a9 20        	lda	#$20
    1154: 20 c4 0f     	jsr	$fc4 <_ZN12_GLOBAL__N_13putEcP6Status>
    1157: a6 b0        	ldx	$b0                     ; 0x20b0 <malloc+0x172>
    1159: e6 af        	inc	$af                     ; 0x20af <malloc+0x171>
    115b: d0 01        	bne	$115e <_ZN12_GLOBAL__N_112print_stringEPKcP6Status+0xc7>
    115d: e8           	inx
    115e: 86 b0        	stx	$b0                     ; 0x20b0 <malloc+0x172>
    1160: a4 af        	ldy	$af                     ; 0x20af <malloc+0x171>
    1162: 8a           	txa
    1163: d0 e3        	bne	$1148 <_ZN12_GLOBAL__N_112print_stringEPKcP6Status+0xb1>
    1165: a5 af        	lda	$af                     ; 0x20af <malloc+0x171>
    1167: d0 df        	bne	$1148 <_ZN12_GLOBAL__N_112print_stringEPKcP6Status+0xb1>
    1169: a4 b1        	ldy	$b1                     ; 0x20b1 <malloc+0x173>
    116b: d0 04        	bne	$1171 <_ZN12_GLOBAL__N_112print_stringEPKcP6Status+0xda>
    116d: a5 ae        	lda	$ae                     ; 0x20ae <malloc+0x170>
    116f: f0 26        	beq	$1197 <_ZN12_GLOBAL__N_112print_stringEPKcP6Status+0x100>
    1171: a2 ff        	ldx	#$ff
    1173: c6 ae        	dec	$ae                     ; 0x20ae <malloc+0x170>
    1175: e4 ae        	cpx	$ae                     ; 0x20ae <malloc+0x170>
    1177: d0 01        	bne	$117a <_ZN12_GLOBAL__N_112print_stringEPKcP6Status+0xe3>
    1179: 88           	dey
    117a: 84 af        	sty	$af                     ; 0x20af <malloc+0x171>
    117c: b2 aa        	lda	($aa)                   ; 0x20aa <malloc+0x16c>
    117e: e6 aa        	inc	$aa                     ; 0x20aa <malloc+0x16c>
    1180: d0 02        	bne	$1184 <_ZN12_GLOBAL__N_112print_stringEPKcP6Status+0xed>
    1182: e6 ab        	inc	$ab                     ; 0x20ab <malloc+0x16d>
    1184: a6 ac        	ldx	$ac                     ; 0x20ac <malloc+0x16e>
    1186: 86 12        	stx	$12                     ; 0x2012 <malloc+0xd4>
    1188: a6 ad        	ldx	$ad                     ; 0x20ad <malloc+0x16f>
    118a: 86 13        	stx	$13                     ; 0x2013 <malloc+0xd5>
    118c: 20 c4 0f     	jsr	$fc4 <_ZN12_GLOBAL__N_13putEcP6Status>
    118f: a4 af        	ldy	$af                     ; 0x20af <malloc+0x171>
    1191: d0 de        	bne	$1171 <_ZN12_GLOBAL__N_112print_stringEPKcP6Status+0xda>
    1193: a5 ae        	lda	$ae                     ; 0x20ae <malloc+0x170>
    1195: d0 da        	bne	$1171 <_ZN12_GLOBAL__N_112print_stringEPKcP6Status+0xda>
    1197: 60           	rts
    1198: a6 12        	ldx	$12                     ; 0x2012 <malloc+0xd4>
    119a: 86 ae        	stx	$ae                     ; 0x20ae <malloc+0x170>
    119c: a6 13        	ldx	$13                     ; 0x2013 <malloc+0xd5>
    119e: 86 b1        	stx	$b1                     ; 0x20b1 <malloc+0x173>
    11a0: 4c 06 11     	jmp	$1106 <_ZN12_GLOBAL__N_112print_stringEPKcP6Status+0x6f>

000011a3 <printf>:
    11a3: a6 12        	ldx	$12                     ; 0x2012 <malloc+0xd4>
    11a5: 86 5f        	stx	$5f                     ; 0x205f <malloc+0x121>
    11a7: a6 13        	ldx	$13                     ; 0x2013 <malloc+0xd5>
    11a9: 86 60        	stx	$60                     ; 0x2060 <malloc+0x122>
    11ab: 18           	clc
    11ac: a6 10        	ldx	$10                     ; 0x2010 <malloc+0xd2>
    11ae: a4 11        	ldy	$11                     ; 0x2011 <malloc+0xd3>
    11b0: 86 a0        	stx	$a0                     ; 0x20a0 <malloc+0x162>
    11b2: 84 a1        	sty	$a1                     ; 0x20a1 <malloc+0x163>
    11b4: a6 a0        	ldx	$a0                     ; 0x20a0 <malloc+0x162>
    11b6: a4 a1        	ldy	$a1                     ; 0x20a1 <malloc+0x163>
    11b8: 86 8b        	stx	$8b                     ; 0x208b <malloc+0x14d>
    11ba: 84 8c        	sty	$8c                     ; 0x208c <malloc+0x14e>
    11bc: a2 ff        	ldx	#$ff
    11be: 86 90        	stx	$90                     ; 0x2090 <malloc+0x152>
    11c0: 86 91        	stx	$91                     ; 0x2091 <malloc+0x153>
    11c2: 64 92        	stz	$92                     ; 0x2092 <malloc+0x154>
    11c4: 64 93        	stz	$93                     ; 0x2093 <malloc+0x155>
    11c6: e8           	inx
    11c7: 86 61        	stx	$61                     ; 0x2061 <malloc+0x123>
    11c9: a2 00        	ldx	#$0
    11cb: 86 62        	stx	$62                     ; 0x2062 <malloc+0x124>
    11cd: a6 61        	ldx	$61                     ; 0x2061 <malloc+0x123>
    11cf: a4 62        	ldy	$62                     ; 0x2062 <malloc+0x124>
    11d1: 86 96        	stx	$96                     ; 0x2096 <malloc+0x158>
    11d3: 84 97        	sty	$97                     ; 0x2097 <malloc+0x159>
    11d5: a2 02        	ldx	#$2
    11d7: 86 9c        	stx	$9c                     ; 0x209c <malloc+0x15e>
    11d9: 64 9d        	stz	$9d                     ; 0x209d <malloc+0x15f>
    11db: a6 8b        	ldx	$8b                     ; 0x208b <malloc+0x14d>
    11dd: a4 8c        	ldy	$8c                     ; 0x208c <malloc+0x14e>
    11df: 86 9e        	stx	$9e                     ; 0x209e <malloc+0x160>
    11e1: 84 9f        	sty	$9f                     ; 0x209f <malloc+0x161>
    11e3: a2 82        	ldx	#$82
    11e5: a0 00        	ldy	#$0
    11e7: 86 12        	stx	$12                     ; 0x2012 <malloc+0xd4>
    11e9: 84 13        	sty	$13                     ; 0x2013 <malloc+0xd5>
    11eb: a0 01        	ldy	#$1
    11ed: a9 69        	lda	#$69
    11ef: 18           	clc
    11f0: 69 02        	adc	#$2
    11f2: 85 a8        	sta	$a8                     ; 0x20a8 <malloc+0x16a>
    11f4: a9 00        	lda	#$0
    11f6: 69 00        	adc	#$0
    11f8: 85 a9        	sta	$a9                     ; 0x20a9 <malloc+0x16b>
    11fa: e6 12        	inc	$12                     ; 0x2012 <malloc+0xd4>
    11fc: d0 02        	bne	$1200 <printf+0x5d>
    11fe: e6 13        	inc	$13                     ; 0x2013 <malloc+0xd5>
    1200: a6 12        	ldx	$12                     ; 0x2012 <malloc+0xd4>
    1202: 86 a4        	stx	$a4                     ; 0x20a4 <malloc+0x166>
    1204: a6 13        	ldx	$13                     ; 0x2013 <malloc+0xd5>
    1206: 86 a5        	stx	$a5                     ; 0x20a5 <malloc+0x167>
    1208: a6 5f        	ldx	$5f                     ; 0x205f <malloc+0x121>
    120a: 86 63        	stx	$63                     ; 0x2063 <malloc+0x125>
    120c: a6 60        	ldx	$60                     ; 0x2060 <malloc+0x122>
    120e: 86 64        	stx	$64                     ; 0x2064 <malloc+0x126>
    1210: b2 5f        	lda	($5f)                   ; 0x205f <malloc+0x121>
    1212: c9 25        	cmp	#$25
    1214: f0 23        	beq	$1239 <printf+0x96>
    1216: a2 00        	ldx	#$0
    1218: a8           	tay
    1219: d0 03        	bne	$121e <printf+0x7b>
    121b: 4c 7b 1d     	jmp	$1d7b <printf+0xbd8>
    121e: 20 7c 1d     	jsr	$1d7c <putchar>
    1221: a0 01        	ldy	#$1
    1223: e6 63        	inc	$63                     ; 0x2063 <malloc+0x125>
    1225: d0 02        	bne	$1229 <printf+0x86>
    1227: e6 64        	inc	$64                     ; 0x2064 <malloc+0x126>
    1229: e6 92        	inc	$92                     ; 0x2092 <malloc+0x154>
    122b: d0 02        	bne	$122f <printf+0x8c>
    122d: e6 93        	inc	$93                     ; 0x2093 <malloc+0x155>
    122f: a6 63        	ldx	$63                     ; 0x2063 <malloc+0x125>
    1231: 86 5f        	stx	$5f                     ; 0x205f <malloc+0x121>
    1233: a6 64        	ldx	$64                     ; 0x2064 <malloc+0x126>
    1235: 86 60        	stx	$60                     ; 0x2060 <malloc+0x122>
    1237: 80 cf        	bra	$1208 <printf+0x65>
    1239: a6 5f        	ldx	$5f                     ; 0x205f <malloc+0x121>
    123b: 86 12        	stx	$12                     ; 0x2012 <malloc+0xd4>
    123d: a6 60        	ldx	$60                     ; 0x2060 <malloc+0x122>
    123f: 86 13        	stx	$13                     ; 0x2013 <malloc+0xd5>
    1241: e6 12        	inc	$12                     ; 0x2012 <malloc+0xd4>
    1243: d0 02        	bne	$1247 <printf+0xa4>
    1245: e6 13        	inc	$13                     ; 0x2013 <malloc+0xd5>
    1247: b1 63        	lda	($63),y                 ; 0x2063 <malloc+0x125>
    1249: c9 25        	cmp	#$25
    124b: d0 16        	bne	$1263 <printf+0xc0>
    124d: a4 92        	ldy	$92                     ; 0x2092 <malloc+0x154>
    124f: a5 93        	lda	$93                     ; 0x2093 <malloc+0x155>
    1251: c5 91        	cmp	$91                     ; 0x2091 <malloc+0x153>
    1253: f0 03        	beq	$1258 <printf+0xb5>
    1255: 4c 69 13     	jmp	$1369 <printf+0x1c6>
    1258: a6 90        	ldx	$90                     ; 0x2090 <malloc+0x152>
    125a: 86 12        	stx	$12                     ; 0x2012 <malloc+0xd4>
    125c: 84 13        	sty	$13                     ; 0x2013 <malloc+0xd5>
    125e: c4 12        	cpy	$12                     ; 0x2012 <malloc+0xd4>
    1260: 4c 6d 13     	jmp	$136d <printf+0x1ca>
    1263: 64 8e        	stz	$8e                     ; 0x208e <malloc+0x150>
    1265: 64 8f        	stz	$8f                     ; 0x208f <malloc+0x151>
    1267: 64 8d        	stz	$8d                     ; 0x208d <malloc+0x14f>
    1269: 64 98        	stz	$98                     ; 0x2098 <malloc+0x15a>
    126b: 64 99        	stz	$99                     ; 0x2099 <malloc+0x15b>
    126d: a2 ff        	ldx	#$ff
    126f: 86 9a        	stx	$9a                     ; 0x209a <malloc+0x15c>
    1271: 86 9b        	stx	$9b                     ; 0x209b <malloc+0x15d>
    1273: 64 5e        	stz	$5e                     ; 0x205e <malloc+0x120>
    1275: 80 33        	bra	$12aa <printf+0x107>
    1277: a2 02        	ldx	#$2
    1279: 80 15        	bra	$1290 <printf+0xed>
    127b: e0 20        	cpx	#$20
    127d: f0 15        	beq	$1294 <printf+0xf1>
    127f: 86 15        	stx	$15                     ; 0x2015 <malloc+0xd7>
    1281: e0 23        	cpx	#$23
    1283: f0 03        	beq	$1288 <printf+0xe5>
    1285: 4c 07 13     	jmp	$1307 <printf+0x164>
    1288: a5 5e        	lda	$5e                     ; 0x205e <malloc+0x120>
    128a: a2 04        	ldx	#$4
    128c: 80 02        	bra	$1290 <printf+0xed>
    128e: a2 10        	ldx	#$10
    1290: 86 14        	stx	$14                     ; 0x2014 <malloc+0xd6>
    1292: 80 06        	bra	$129a <printf+0xf7>
    1294: a2 08        	ldx	#$8
    1296: 86 14        	stx	$14                     ; 0x2014 <malloc+0xd6>
    1298: a5 5e        	lda	$5e                     ; 0x205e <malloc+0x120>
    129a: 05 14        	ora	$14                     ; 0x2014 <malloc+0xd6>
    129c: 85 5e        	sta	$5e                     ; 0x205e <malloc+0x120>
    129e: 85 8e        	sta	$8e                     ; 0x208e <malloc+0x150>
    12a0: a2 00        	ldx	#$0
    12a2: 86 8f        	stx	$8f                     ; 0x208f <malloc+0x151>
    12a4: e6 12        	inc	$12                     ; 0x2012 <malloc+0xd4>
    12a6: d0 02        	bne	$12aa <printf+0x107>
    12a8: e6 13        	inc	$13                     ; 0x2013 <malloc+0xd5>
    12aa: b2 12        	lda	($12)                   ; 0x2012 <malloc+0xd4>
    12ac: aa           	tax
    12ad: 18           	clc
    12ae: 69 d6        	adc	#$d6
    12b0: c9 07        	cmp	#$7
    12b2: b0 c7        	bcs	$127b <printf+0xd8>
    12b4: 86 15        	stx	$15                     ; 0x2015 <malloc+0xd7>
    12b6: 0a           	asl
    12b7: aa           	tax
    12b8: a0 01        	ldy	#$1
    12ba: 84 14        	sty	$14                     ; 0x2014 <malloc+0xd6>
    12bc: a5 5e        	lda	$5e                     ; 0x205e <malloc+0x120>
    12be: 7c 41 22     	jmp	($2241,x)               ; 0x2241 <__set_v+0x1>
    12c1: a5 9e        	lda	$9e                     ; 0x209e <malloc+0x160>
    12c3: a6 9f        	ldx	$9f                     ; 0x209f <malloc+0x161>
    12c5: 85 16        	sta	$16                     ; 0x2016 <malloc+0xd8>
    12c7: 86 17        	stx	$17                     ; 0x2017 <malloc+0xd9>
    12c9: 18           	clc
    12ca: 69 02        	adc	#$2
    12cc: a8           	tay
    12cd: 8a           	txa
    12ce: 69 00        	adc	#$0
    12d0: 84 9e        	sty	$9e                     ; 0x209e <malloc+0x160>
    12d2: 85 9f        	sta	$9f                     ; 0x209f <malloc+0x161>
    12d4: b2 16        	lda	($16)                   ; 0x2016 <malloc+0xd8>
    12d6: 85 15        	sta	$15                     ; 0x2015 <malloc+0xd7>
    12d8: a0 01        	ldy	#$1
    12da: b1 16        	lda	($16),y                 ; 0x2016 <malloc+0xd8>
    12dc: 85 14        	sta	$14                     ; 0x2014 <malloc+0xd6>
    12de: 10 15        	bpl	$12f5 <printf+0x152>
    12e0: a5 5e        	lda	$5e                     ; 0x205e <malloc+0x120>
    12e2: 09 01        	ora	#$1
    12e4: 85 5e        	sta	$5e                     ; 0x205e <malloc+0x120>
    12e6: 85 8e        	sta	$8e                     ; 0x208e <malloc+0x150>
    12e8: a2 00        	ldx	#$0
    12ea: 86 8f        	stx	$8f                     ; 0x208f <malloc+0x151>
    12ec: 8a           	txa
    12ed: 38           	sec
    12ee: e5 15        	sbc	$15                     ; 0x2015 <malloc+0xd7>
    12f0: 85 15        	sta	$15                     ; 0x2015 <malloc+0xd7>
    12f2: 8a           	txa
    12f3: e5 14        	sbc	$14                     ; 0x2014 <malloc+0xd6>
    12f5: a6 15        	ldx	$15                     ; 0x2015 <malloc+0xd7>
    12f7: 86 98        	stx	$98                     ; 0x2098 <malloc+0x15a>
    12f9: 85 99        	sta	$99                     ; 0x2099 <malloc+0x15b>
    12fb: e6 12        	inc	$12                     ; 0x2012 <malloc+0xd4>
    12fd: f0 03        	beq	$1302 <printf+0x15f>
    12ff: 4c bd 13     	jmp	$13bd <printf+0x21a>
    1302: e6 13        	inc	$13                     ; 0x2013 <malloc+0xd5>
    1304: 4c bd 13     	jmp	$13bd <printf+0x21a>
    1307: a5 15        	lda	$15                     ; 0x2015 <malloc+0xd7>
    1309: 18           	clc
    130a: 69 d0        	adc	#$d0
    130c: c9 0a        	cmp	#$a
    130e: 90 03        	bcc	$1313 <printf+0x170>
    1310: 4c af 13     	jmp	$13af <printf+0x20c>
    1313: a6 15        	ldx	$15                     ; 0x2015 <malloc+0xd7>
    1315: 86 14        	stx	$14                     ; 0x2014 <malloc+0xd6>
    1317: 64 16        	stz	$16                     ; 0x2016 <malloc+0xd8>
    1319: 64 15        	stz	$15                     ; 0x2015 <malloc+0xd7>
    131b: 64 17        	stz	$17                     ; 0x2017 <malloc+0xd9>
    131d: a0 01        	ldy	#$1
    131f: 06 16        	asl	$16                     ; 0x2016 <malloc+0xd8>
    1321: 26 17        	rol	$17                     ; 0x2017 <malloc+0xd9>
    1323: a5 16        	lda	$16                     ; 0x2016 <malloc+0xd8>
    1325: 0a           	asl
    1326: aa           	tax
    1327: a5 17        	lda	$17                     ; 0x2017 <malloc+0xd9>
    1329: 2a           	rol
    132a: 86 18        	stx	$18                     ; 0x2018 <malloc+0xda>
    132c: 06 18        	asl	$18                     ; 0x2018 <malloc+0xda>
    132e: 2a           	rol
    132f: aa           	tax
    1330: a5 18        	lda	$18                     ; 0x2018 <malloc+0xda>
    1332: 18           	clc
    1333: 65 16        	adc	$16                     ; 0x2016 <malloc+0xd8>
    1335: 85 16        	sta	$16                     ; 0x2016 <malloc+0xd8>
    1337: 8a           	txa
    1338: 65 17        	adc	$17                     ; 0x2017 <malloc+0xd9>
    133a: 85 17        	sta	$17                     ; 0x2017 <malloc+0xd9>
    133c: a5 16        	lda	$16                     ; 0x2016 <malloc+0xd8>
    133e: 18           	clc
    133f: 65 14        	adc	$14                     ; 0x2014 <malloc+0xd6>
    1341: 85 14        	sta	$14                     ; 0x2014 <malloc+0xd6>
    1343: a5 17        	lda	$17                     ; 0x2017 <malloc+0xd9>
    1345: 65 15        	adc	$15                     ; 0x2015 <malloc+0xd7>
    1347: aa           	tax
    1348: 18           	clc
    1349: a5 14        	lda	$14                     ; 0x2014 <malloc+0xd6>
    134b: 69 d0        	adc	#$d0
    134d: 85 16        	sta	$16                     ; 0x2016 <malloc+0xd8>
    134f: 8a           	txa
    1350: 69 ff        	adc	#$ff
    1352: 85 17        	sta	$17                     ; 0x2017 <malloc+0xd9>
    1354: b1 12        	lda	($12),y                 ; 0x2012 <malloc+0xd4>
    1356: 85 14        	sta	$14                     ; 0x2014 <malloc+0xd6>
    1358: 18           	clc
    1359: 69 d0        	adc	#$d0
    135b: e6 12        	inc	$12                     ; 0x2012 <malloc+0xd4>
    135d: d0 02        	bne	$1361 <printf+0x1be>
    135f: e6 13        	inc	$13                     ; 0x2013 <malloc+0xd5>
    1361: c9 0a        	cmp	#$a
    1363: 64 15        	stz	$15                     ; 0x2015 <malloc+0xd7>
    1365: 90 b8        	bcc	$131f <printf+0x17c>
    1367: 80 4c        	bra	$13b5 <printf+0x212>
    1369: 84 13        	sty	$13                     ; 0x2013 <malloc+0xd5>
    136b: c5 91        	cmp	$91                     ; 0x2091 <malloc+0x153>
    136d: a0 01        	ldy	#$1
    136f: b0 28        	bcs	$1399 <printf+0x1f6>
    1371: a6 9d        	ldx	$9d                     ; 0x209d <malloc+0x15f>
    1373: e4 62        	cpx	$62                     ; 0x2062 <malloc+0x124>
    1375: d0 19        	bne	$1390 <printf+0x1ed>
    1377: a6 9c        	ldx	$9c                     ; 0x209c <malloc+0x15e>
    1379: e4 61        	cpx	$61                     ; 0x2061 <malloc+0x123>
    137b: d0 13        	bne	$1390 <printf+0x1ed>
    137d: 18           	clc
    137e: aa           	tax
    137f: a5 13        	lda	$13                     ; 0x2013 <malloc+0xd5>
    1381: 65 96        	adc	$96                     ; 0x2096 <malloc+0x158>
    1383: 85 12        	sta	$12                     ; 0x2012 <malloc+0xd4>
    1385: 8a           	txa
    1386: 65 97        	adc	$97                     ; 0x2097 <malloc+0x159>
    1388: 85 13        	sta	$13                     ; 0x2013 <malloc+0xd5>
    138a: a9 25        	lda	#$25
    138c: 92 12        	sta	($12)                   ; 0x2012 <malloc+0xd4>
    138e: 80 09        	bra	$1399 <printf+0x1f6>
    1390: a2 00        	ldx	#$0
    1392: a9 25        	lda	#$25
    1394: 20 7c 1d     	jsr	$1d7c <putchar>
    1397: a0 01        	ldy	#$1
    1399: e6 92        	inc	$92                     ; 0x2092 <malloc+0x154>
    139b: d0 02        	bne	$139f <printf+0x1fc>
    139d: e6 93        	inc	$93                     ; 0x2093 <malloc+0x155>
    139f: a5 63        	lda	$63                     ; 0x2063 <malloc+0x125>
    13a1: 18           	clc
    13a2: 69 02        	adc	#$2
    13a4: 85 5f        	sta	$5f                     ; 0x205f <malloc+0x121>
    13a6: a5 64        	lda	$64                     ; 0x2064 <malloc+0x126>
    13a8: 69 00        	adc	#$0
    13aa: 85 60        	sta	$60                     ; 0x2060 <malloc+0x122>
    13ac: 4c 08 12     	jmp	$1208 <printf+0x65>
    13af: 64 16        	stz	$16                     ; 0x2016 <malloc+0xd8>
    13b1: 64 17        	stz	$17                     ; 0x2017 <malloc+0xd9>
    13b3: a0 01        	ldy	#$1
    13b5: a6 16        	ldx	$16                     ; 0x2016 <malloc+0xd8>
    13b7: 86 98        	stx	$98                     ; 0x2098 <malloc+0x15a>
    13b9: a5 17        	lda	$17                     ; 0x2017 <malloc+0xd9>
    13bb: 85 99        	sta	$99                     ; 0x2099 <malloc+0x15b>
    13bd: 86 67        	stx	$67                     ; 0x2067 <malloc+0x129>
    13bf: 85 65        	sta	$65                     ; 0x2065 <malloc+0x127>
    13c1: b2 12        	lda	($12)                   ; 0x2012 <malloc+0xd4>
    13c3: a2 ff        	ldx	#$ff
    13c5: c9 2e        	cmp	#$2e
    13c7: d0 39        	bne	$1402 <printf+0x25f>
    13c9: b1 12        	lda	($12),y                 ; 0x2012 <malloc+0xd4>
    13cb: c9 2a        	cmp	#$2a
    13cd: d0 38        	bne	$1407 <printf+0x264>
    13cf: a5 9e        	lda	$9e                     ; 0x209e <malloc+0x160>
    13d1: a6 9f        	ldx	$9f                     ; 0x209f <malloc+0x161>
    13d3: 85 14        	sta	$14                     ; 0x2014 <malloc+0xd6>
    13d5: 86 15        	stx	$15                     ; 0x2015 <malloc+0xd7>
    13d7: 18           	clc
    13d8: 69 02        	adc	#$2
    13da: 85 16        	sta	$16                     ; 0x2016 <malloc+0xd8>
    13dc: 8a           	txa
    13dd: 69 00        	adc	#$0
    13df: a6 16        	ldx	$16                     ; 0x2016 <malloc+0xd8>
    13e1: 86 9e        	stx	$9e                     ; 0x209e <malloc+0x160>
    13e3: 85 9f        	sta	$9f                     ; 0x209f <malloc+0x161>
    13e5: a5 12        	lda	$12                     ; 0x2012 <malloc+0xd4>
    13e7: 18           	clc
    13e8: 69 02        	adc	#$2
    13ea: 85 12        	sta	$12                     ; 0x2012 <malloc+0xd4>
    13ec: a5 13        	lda	$13                     ; 0x2013 <malloc+0xd5>
    13ee: 69 00        	adc	#$0
    13f0: 85 13        	sta	$13                     ; 0x2013 <malloc+0xd5>
    13f2: b2 14        	lda	($14)                   ; 0x2014 <malloc+0xd6>
    13f4: aa           	tax
    13f5: b1 14        	lda	($14),y                 ; 0x2014 <malloc+0xd6>
    13f7: 86 18        	stx	$18                     ; 0x2018 <malloc+0xda>
    13f9: 86 9a        	stx	$9a                     ; 0x209a <malloc+0x15c>
    13fb: 85 19        	sta	$19                     ; 0x2019 <malloc+0xdb>
    13fd: 85 9b        	sta	$9b                     ; 0x209b <malloc+0x15d>
    13ff: 4c b2 14     	jmp	$14b2 <printf+0x30f>
    1402: 86 18        	stx	$18                     ; 0x2018 <malloc+0xda>
    1404: 4c c2 14     	jmp	$14c2 <printf+0x31f>
    1407: 85 17        	sta	$17                     ; 0x2017 <malloc+0xd9>
    1409: 18           	clc
    140a: 69 d0        	adc	#$d0
    140c: c9 0a        	cmp	#$a
    140e: 90 03        	bcc	$1413 <printf+0x270>
    1410: 4c a4 14     	jmp	$14a4 <printf+0x301>
    1413: 64 16        	stz	$16                     ; 0x2016 <malloc+0xd8>
    1415: a2 01        	ldx	#$1
    1417: 64 18        	stz	$18                     ; 0x2018 <malloc+0xda>
    1419: 64 19        	stz	$19                     ; 0x2019 <malloc+0xdb>
    141b: a0 01        	ldy	#$1
    141d: 64 1a        	stz	$1a                     ; 0x201a <malloc+0xdc>
    141f: 5a           	phy
    1420: a4 1a        	ldy	$1a                     ; 0x201a <malloc+0xdc>
    1422: 84 14        	sty	$14                     ; 0x2014 <malloc+0xd6>
    1424: 86 15        	stx	$15                     ; 0x2015 <malloc+0xd7>
    1426: 06 18        	asl	$18                     ; 0x2018 <malloc+0xda>
    1428: 26 19        	rol	$19                     ; 0x2019 <malloc+0xdb>
    142a: a5 18        	lda	$18                     ; 0x2018 <malloc+0xda>
    142c: 0a           	asl
    142d: 85 1d        	sta	$1d                     ; 0x201d <malloc+0xdf>
    142f: a5 19        	lda	$19                     ; 0x2019 <malloc+0xdb>
    1431: 2a           	rol
    1432: 06 1d        	asl	$1d                     ; 0x201d <malloc+0xdf>
    1434: 2a           	rol
    1435: 85 1e        	sta	$1e                     ; 0x201e <malloc+0xe0>
    1437: a5 1d        	lda	$1d                     ; 0x201d <malloc+0xdf>
    1439: 18           	clc
    143a: 65 18        	adc	$18                     ; 0x2018 <malloc+0xda>
    143c: 85 18        	sta	$18                     ; 0x2018 <malloc+0xda>
    143e: a5 1e        	lda	$1e                     ; 0x201e <malloc+0xe0>
    1440: 65 19        	adc	$19                     ; 0x2019 <malloc+0xdb>
    1442: 85 19        	sta	$19                     ; 0x2019 <malloc+0xdb>
    1444: a5 18        	lda	$18                     ; 0x2018 <malloc+0xda>
    1446: 18           	clc
    1447: 65 17        	adc	$17                     ; 0x2017 <malloc+0xd9>
    1449: 85 17        	sta	$17                     ; 0x2017 <malloc+0xd9>
    144b: a5 19        	lda	$19                     ; 0x2019 <malloc+0xdb>
    144d: 65 16        	adc	$16                     ; 0x2016 <malloc+0xd8>
    144f: 85 16        	sta	$16                     ; 0x2016 <malloc+0xd8>
    1451: 18           	clc
    1452: a5 17        	lda	$17                     ; 0x2017 <malloc+0xd9>
    1454: 69 d0        	adc	#$d0
    1456: 85 18        	sta	$18                     ; 0x2018 <malloc+0xda>
    1458: a5 16        	lda	$16                     ; 0x2016 <malloc+0xd8>
    145a: 69 ff        	adc	#$ff
    145c: 85 19        	sta	$19                     ; 0x2019 <malloc+0xdb>
    145e: e8           	inx
    145f: d0 02        	bne	$1463 <printf+0x2c0>
    1461: e6 1a        	inc	$1a                     ; 0x201a <malloc+0xdc>
    1463: a5 12        	lda	$12                     ; 0x2012 <malloc+0xd4>
    1465: 18           	clc
    1466: 65 15        	adc	$15                     ; 0x2015 <malloc+0xd7>
    1468: 85 1d        	sta	$1d                     ; 0x201d <malloc+0xdf>
    146a: a5 13        	lda	$13                     ; 0x2013 <malloc+0xd5>
    146c: 65 14        	adc	$14                     ; 0x2014 <malloc+0xd6>
    146e: a4 1d        	ldy	$1d                     ; 0x201d <malloc+0xdf>
    1470: 84 16        	sty	$16                     ; 0x2016 <malloc+0xd8>
    1472: 7a           	ply
    1473: 85 17        	sta	$17                     ; 0x2017 <malloc+0xd9>
    1475: b1 16        	lda	($16),y                 ; 0x2016 <malloc+0xd8>
    1477: 85 17        	sta	$17                     ; 0x2017 <malloc+0xd9>
    1479: 18           	clc
    147a: 69 d0        	adc	#$d0
    147c: c9 0a        	cmp	#$a
    147e: 64 16        	stz	$16                     ; 0x2016 <malloc+0xd8>
    1480: b0 03        	bcs	$1485 <printf+0x2e2>
    1482: 4c 1f 14     	jmp	$141f <printf+0x27c>
    1485: a5 12        	lda	$12                     ; 0x2012 <malloc+0xd4>
    1487: 18           	clc
    1488: 65 15        	adc	$15                     ; 0x2015 <malloc+0xd7>
    148a: 85 12        	sta	$12                     ; 0x2012 <malloc+0xd4>
    148c: a5 13        	lda	$13                     ; 0x2013 <malloc+0xd5>
    148e: 65 14        	adc	$14                     ; 0x2014 <malloc+0xd6>
    1490: 85 13        	sta	$13                     ; 0x2013 <malloc+0xd5>
    1492: e6 12        	inc	$12                     ; 0x2012 <malloc+0xd4>
    1494: d0 02        	bne	$1498 <printf+0x2f5>
    1496: e6 13        	inc	$13                     ; 0x2013 <malloc+0xd5>
    1498: a6 18        	ldx	$18                     ; 0x2018 <malloc+0xda>
    149a: 86 9a        	stx	$9a                     ; 0x209a <malloc+0x15c>
    149c: a6 19        	ldx	$19                     ; 0x2019 <malloc+0xdb>
    149e: 86 9b        	stx	$9b                     ; 0x209b <malloc+0x15d>
    14a0: a0 01        	ldy	#$1
    14a2: 80 0e        	bra	$14b2 <printf+0x30f>
    14a4: e6 12        	inc	$12                     ; 0x2012 <malloc+0xd4>
    14a6: d0 02        	bne	$14aa <printf+0x307>
    14a8: e6 13        	inc	$13                     ; 0x2013 <malloc+0xd5>
    14aa: 64 18        	stz	$18                     ; 0x2018 <malloc+0xda>
    14ac: 64 9a        	stz	$9a                     ; 0x209a <malloc+0x15c>
    14ae: 64 9b        	stz	$9b                     ; 0x209b <malloc+0x15d>
    14b0: 64 19        	stz	$19                     ; 0x2019 <malloc+0xdb>
    14b2: a5 5e        	lda	$5e                     ; 0x205e <malloc+0x120>
    14b4: 29 ef        	and	#$ef
    14b6: 85 5e        	sta	$5e                     ; 0x205e <malloc+0x120>
    14b8: 85 8e        	sta	$8e                     ; 0x208e <malloc+0x150>
    14ba: a2 00        	ldx	#$0
    14bc: 86 8f        	stx	$8f                     ; 0x208f <malloc+0x151>
    14be: b2 12        	lda	($12)                   ; 0x2012 <malloc+0xd4>
    14c0: a6 19        	ldx	$19                     ; 0x2019 <malloc+0xdb>
    14c2: 86 15        	stx	$15                     ; 0x2015 <malloc+0xd7>
    14c4: a6 12        	ldx	$12                     ; 0x2012 <malloc+0xd4>
    14c6: 86 5f        	stx	$5f                     ; 0x205f <malloc+0x121>
    14c8: a6 13        	ldx	$13                     ; 0x2013 <malloc+0xd5>
    14ca: 86 60        	stx	$60                     ; 0x2060 <malloc+0x122>
    14cc: e6 5f        	inc	$5f                     ; 0x205f <malloc+0x121>
    14ce: d0 02        	bne	$14d2 <printf+0x32f>
    14d0: e6 60        	inc	$60                     ; 0x2060 <malloc+0x122>
    14d2: 85 14        	sta	$14                     ; 0x2014 <malloc+0xd6>
    14d4: 38           	sec
    14d5: e9 6c        	sbc	#$6c
    14d7: 50 02        	bvc	$14db <printf+0x338>
    14d9: 49 80        	eor	#$80
    14db: aa           	tax
    14dc: 10 1d        	bpl	$14fb <printf+0x358>
    14de: a5 14        	lda	$14                     ; 0x2014 <malloc+0xd6>
    14e0: c9 4c        	cmp	#$4c
    14e2: f0 27        	beq	$150b <printf+0x368>
    14e4: c9 68        	cmp	#$68
    14e6: d0 03        	bne	$14eb <printf+0x348>
    14e8: 4c 72 15     	jmp	$1572 <printf+0x3cf>
    14eb: a2 08        	ldx	#$8
    14ed: c9 6a        	cmp	#$6a
    14ef: d0 2e        	bne	$151f <printf+0x37c>
    14f1: a5 5f        	lda	$5f                     ; 0x205f <malloc+0x121>
    14f3: 85 12        	sta	$12                     ; 0x2012 <malloc+0xd4>
    14f5: a5 60        	lda	$60                     ; 0x2060 <malloc+0x122>
    14f7: 85 13        	sta	$13                     ; 0x2013 <malloc+0xd5>
    14f9: 80 43        	bra	$153e <printf+0x39b>
    14fb: a6 14        	ldx	$14                     ; 0x2014 <malloc+0xd6>
    14fd: e0 6c        	cpx	#$6c
    14ff: f0 23        	beq	$1524 <printf+0x381>
    1501: e0 74        	cpx	#$74
    1503: f0 12        	beq	$1517 <printf+0x374>
    1505: e0 7a        	cpx	#$7a
    1507: f0 0e        	beq	$1517 <printf+0x374>
    1509: 80 14        	bra	$151f <printf+0x37c>
    150b: a5 5e        	lda	$5e                     ; 0x205e <malloc+0x120>
    150d: 09 40        	ora	#$40
    150f: 85 5e        	sta	$5e                     ; 0x205e <malloc+0x120>
    1511: 85 8e        	sta	$8e                     ; 0x208e <malloc+0x150>
    1513: a2 00        	ldx	#$0
    1515: 86 8f        	stx	$8f                     ; 0x208f <malloc+0x151>
    1517: a6 5f        	ldx	$5f                     ; 0x205f <malloc+0x121>
    1519: 86 12        	stx	$12                     ; 0x2012 <malloc+0xd4>
    151b: a6 60        	ldx	$60                     ; 0x2060 <malloc+0x122>
    151d: 86 13        	stx	$13                     ; 0x2013 <malloc+0xd5>
    151f: a2 02        	ldx	#$2
    1521: 8a           	txa
    1522: 80 1c        	bra	$1540 <printf+0x39d>
    1524: b1 12        	lda	($12),y                 ; 0x2012 <malloc+0xd4>
    1526: a2 04        	ldx	#$4
    1528: c9 6c        	cmp	#$6c
    152a: f0 03        	beq	$152f <printf+0x38c>
    152c: 4c 81 18     	jmp	$1881 <printf+0x6de>
    152f: a5 12        	lda	$12                     ; 0x2012 <malloc+0xd4>
    1531: 18           	clc
    1532: 69 02        	adc	#$2
    1534: 85 12        	sta	$12                     ; 0x2012 <malloc+0xd4>
    1536: a5 13        	lda	$13                     ; 0x2013 <malloc+0xd5>
    1538: 69 00        	adc	#$0
    153a: 85 13        	sta	$13                     ; 0x2013 <malloc+0xd5>
    153c: a2 08        	ldx	#$8
    153e: a9 08        	lda	#$8
    1540: 85 a3        	sta	$a3                     ; 0x20a3 <malloc+0x165>
    1542: b2 12        	lda	($12)                   ; 0x2012 <malloc+0xd4>
    1544: 5a           	phy
    1545: a4 12        	ldy	$12                     ; 0x2012 <malloc+0xd4>
    1547: 84 5f        	sty	$5f                     ; 0x205f <malloc+0x121>
    1549: a4 13        	ldy	$13                     ; 0x2013 <malloc+0xd5>
    154b: 84 60        	sty	$60                     ; 0x2060 <malloc+0x122>
    154d: 7a           	ply
    154e: 86 61        	stx	$61                     ; 0x2061 <malloc+0x123>
    1550: aa           	tax
    1551: 18           	clc
    1552: 69 9d        	adc	#$9d
    1554: c9 16        	cmp	#$16
    1556: b0 39        	bcs	$1591 <printf+0x3ee>
    1558: 0a           	asl
    1559: aa           	tax
    155a: 7c 4f 22     	jmp	($224f,x)               ; 0x224f <__set_v+0xf>
    155d: a6 15        	ldx	$15                     ; 0x2015 <malloc+0xd7>
    155f: 86 a6        	stx	$a6                     ; 0x20a6 <malloc+0x168>
    1561: a6 18        	ldx	$18                     ; 0x2018 <malloc+0xda>
    1563: 86 a7        	stx	$a7                     ; 0x20a7 <malloc+0x169>
    1565: a0 0a        	ldy	#$a
    1567: a2 0a        	ldx	#$a
    1569: 86 a2        	stx	$a2                     ; 0x20a2 <malloc+0x164>
    156b: 84 8d        	sty	$8d                     ; 0x208d <malloc+0x14f>
    156d: 64 68        	stz	$68                     ; 0x2068 <malloc+0x12a>
    156f: 4c 91 16     	jmp	$1691 <printf+0x4ee>
    1572: b1 12        	lda	($12),y                 ; 0x2012 <malloc+0xd4>
    1574: a2 02        	ldx	#$2
    1576: c9 68        	cmp	#$68
    1578: f0 03        	beq	$157d <printf+0x3da>
    157a: 4c 87 18     	jmp	$1887 <printf+0x6e4>
    157d: a5 12        	lda	$12                     ; 0x2012 <malloc+0xd4>
    157f: 18           	clc
    1580: 69 02        	adc	#$2
    1582: 85 12        	sta	$12                     ; 0x2012 <malloc+0xd4>
    1584: a5 13        	lda	$13                     ; 0x2013 <malloc+0xd5>
    1586: 69 00        	adc	#$0
    1588: 85 13        	sta	$13                     ; 0x2013 <malloc+0xd5>
    158a: a2 01        	ldx	#$1
    158c: 86 a3        	stx	$a3                     ; 0x20a3 <malloc+0x165>
    158e: e8           	inx
    158f: 80 b1        	bra	$1542 <printf+0x39f>
    1591: e0 58        	cpx	#$58
    1593: f0 03        	beq	$1598 <printf+0x3f5>
    1595: 4c 35 1d     	jmp	$1d35 <printf+0xb92>
    1598: a6 15        	ldx	$15                     ; 0x2015 <malloc+0xd7>
    159a: 86 a6        	stx	$a6                     ; 0x20a6 <malloc+0x168>
    159c: a6 18        	ldx	$18                     ; 0x2018 <malloc+0xda>
    159e: 86 a7        	stx	$a7                     ; 0x20a7 <malloc+0x169>
    15a0: a2 10        	ldx	#$10
    15a2: 86 8d        	stx	$8d                     ; 0x208d <malloc+0x14f>
    15a4: a9 00        	lda	#$0
    15a6: 09 01        	ora	#$1
    15a8: a6 5e        	ldx	$5e                     ; 0x205e <malloc+0x120>
    15aa: 80 29        	bra	$15d5 <printf+0x432>
    15ac: a6 15        	ldx	$15                     ; 0x2015 <malloc+0xd7>
    15ae: 86 a6        	stx	$a6                     ; 0x20a6 <malloc+0x168>
    15b0: a6 18        	ldx	$18                     ; 0x2018 <malloc+0xda>
    15b2: 86 a7        	stx	$a7                     ; 0x20a7 <malloc+0x169>
    15b4: a2 10        	ldx	#$10
    15b6: 86 8d        	stx	$8d                     ; 0x208d <malloc+0x14f>
    15b8: a5 5e        	lda	$5e                     ; 0x205e <malloc+0x120>
    15ba: 09 84        	ora	#$84
    15bc: 80 10        	bra	$15ce <printf+0x42b>
    15be: a6 15        	ldx	$15                     ; 0x2015 <malloc+0xd7>
    15c0: 86 a6        	stx	$a6                     ; 0x20a6 <malloc+0x168>
    15c2: a6 18        	ldx	$18                     ; 0x2018 <malloc+0xda>
    15c4: 86 a7        	stx	$a7                     ; 0x20a7 <malloc+0x169>
    15c6: a2 10        	ldx	#$10
    15c8: 86 8d        	stx	$8d                     ; 0x208d <malloc+0x14f>
    15ca: a5 5e        	lda	$5e                     ; 0x205e <malloc+0x120>
    15cc: 09 80        	ora	#$80
    15ce: aa           	tax
    15cf: a9 00        	lda	#$0
    15d1: 09 01        	ora	#$1
    15d3: 86 5e        	stx	$5e                     ; 0x205e <malloc+0x120>
    15d5: 86 8e        	stx	$8e                     ; 0x208e <malloc+0x150>
    15d7: 85 68        	sta	$68                     ; 0x2068 <malloc+0x12a>
    15d9: 85 8f        	sta	$8f                     ; 0x208f <malloc+0x151>
    15db: a2 10        	ldx	#$10
    15dd: 86 a2        	stx	$a2                     ; 0x20a2 <malloc+0x164>
    15df: 4c 91 16     	jmp	$1691 <printf+0x4ee>
    15e2: a5 9e        	lda	$9e                     ; 0x209e <malloc+0x160>
    15e4: a6 9f        	ldx	$9f                     ; 0x209f <malloc+0x161>
    15e6: 85 12        	sta	$12                     ; 0x2012 <malloc+0xd4>
    15e8: 86 13        	stx	$13                     ; 0x2013 <malloc+0xd5>
    15ea: 18           	clc
    15eb: 69 02        	adc	#$2
    15ed: 85 14        	sta	$14                     ; 0x2014 <malloc+0xd6>
    15ef: 8a           	txa
    15f0: 69 00        	adc	#$0
    15f2: a6 14        	ldx	$14                     ; 0x2014 <malloc+0xd6>
    15f4: 86 9e        	stx	$9e                     ; 0x209e <malloc+0x160>
    15f6: 85 9f        	sta	$9f                     ; 0x209f <malloc+0x161>
    15f8: b2 12        	lda	($12)                   ; 0x2012 <malloc+0xd4>
    15fa: aa           	tax
    15fb: b1 12        	lda	($12),y                 ; 0x2012 <malloc+0xd4>
    15fd: 86 12        	stx	$12                     ; 0x2012 <malloc+0xd4>
    15ff: 85 13        	sta	$13                     ; 0x2013 <malloc+0xd5>
    1601: a5 92        	lda	$92                     ; 0x2092 <malloc+0x154>
    1603: a6 93        	ldx	$93                     ; 0x2093 <malloc+0x155>
    1605: 92 12        	sta	($12)                   ; 0x2012 <malloc+0xd4>
    1607: 8a           	txa
    1608: 91 12        	sta	($12),y                 ; 0x2012 <malloc+0xd4>
    160a: 4c 6a 16     	jmp	$166a <printf+0x4c7>
    160d: a5 9e        	lda	$9e                     ; 0x209e <malloc+0x160>
    160f: a6 9f        	ldx	$9f                     ; 0x209f <malloc+0x161>
    1611: 85 12        	sta	$12                     ; 0x2012 <malloc+0xd4>
    1613: 86 13        	stx	$13                     ; 0x2013 <malloc+0xd5>
    1615: 18           	clc
    1616: 69 02        	adc	#$2
    1618: 85 14        	sta	$14                     ; 0x2014 <malloc+0xd6>
    161a: 8a           	txa
    161b: 69 00        	adc	#$0
    161d: a6 14        	ldx	$14                     ; 0x2014 <malloc+0xd6>
    161f: 86 9e        	stx	$9e                     ; 0x209e <malloc+0x160>
    1621: 85 9f        	sta	$9f                     ; 0x209f <malloc+0x161>
    1623: b2 12        	lda	($12)                   ; 0x2012 <malloc+0xd4>
    1625: aa           	tax
    1626: b1 12        	lda	($12),y                 ; 0x2012 <malloc+0xd4>
    1628: 86 12        	stx	$12                     ; 0x2012 <malloc+0xd4>
    162a: 85 13        	sta	$13                     ; 0x2013 <malloc+0xd5>
    162c: 80 2f        	bra	$165d <printf+0x4ba>
    162e: a6 15        	ldx	$15                     ; 0x2015 <malloc+0xd7>
    1630: 86 a6        	stx	$a6                     ; 0x20a6 <malloc+0x168>
    1632: a6 18        	ldx	$18                     ; 0x2018 <malloc+0xda>
    1634: 86 a7        	stx	$a7                     ; 0x20a7 <malloc+0x169>
    1636: a0 08        	ldy	#$8
    1638: a2 08        	ldx	#$8
    163a: 80 45        	bra	$1681 <printf+0x4de>
    163c: a5 9e        	lda	$9e                     ; 0x209e <malloc+0x160>
    163e: a6 9f        	ldx	$9f                     ; 0x209f <malloc+0x161>
    1640: 85 12        	sta	$12                     ; 0x2012 <malloc+0xd4>
    1642: 86 13        	stx	$13                     ; 0x2013 <malloc+0xd5>
    1644: 18           	clc
    1645: 69 02        	adc	#$2
    1647: a8           	tay
    1648: 8a           	txa
    1649: 69 00        	adc	#$0
    164b: 84 9e        	sty	$9e                     ; 0x209e <malloc+0x160>
    164d: 85 9f        	sta	$9f                     ; 0x209f <malloc+0x161>
    164f: b2 12        	lda	($12)                   ; 0x2012 <malloc+0xd4>
    1651: 85 80        	sta	$80                     ; 0x2080 <malloc+0x142>
    1653: 64 81        	stz	$81                     ; 0x2081 <malloc+0x143>
    1655: a2 80        	ldx	#$80
    1657: 86 12        	stx	$12                     ; 0x2012 <malloc+0xd4>
    1659: a2 00        	ldx	#$0
    165b: 86 13        	stx	$13                     ; 0x2013 <malloc+0xd5>
    165d: a2 8d        	ldx	#$8d
    165f: 86 14        	stx	$14                     ; 0x2014 <malloc+0xd6>
    1661: a2 00        	ldx	#$0
    1663: 86 15        	stx	$15                     ; 0x2015 <malloc+0xd7>
    1665: 20 97 10     	jsr	$1097 <_ZN12_GLOBAL__N_112print_stringEPKcP6Status>
    1668: a0 01        	ldy	#$1
    166a: a2 00        	ldx	#$0
    166c: 86 61        	stx	$61                     ; 0x2061 <malloc+0x123>
    166e: a2 00        	ldx	#$0
    1670: 86 62        	stx	$62                     ; 0x2062 <malloc+0x124>
    1672: 4c 1d 1d     	jmp	$1d1d <printf+0xb7a>
    1675: a6 15        	ldx	$15                     ; 0x2015 <malloc+0xd7>
    1677: 86 a6        	stx	$a6                     ; 0x20a6 <malloc+0x168>
    1679: a6 18        	ldx	$18                     ; 0x2018 <malloc+0xda>
    167b: 86 a7        	stx	$a7                     ; 0x20a7 <malloc+0x169>
    167d: a0 0a        	ldy	#$a
    167f: a2 0a        	ldx	#$a
    1681: 86 a2        	stx	$a2                     ; 0x20a2 <malloc+0x164>
    1683: 84 8d        	sty	$8d                     ; 0x208d <malloc+0x14f>
    1685: a9 00        	lda	#$0
    1687: 09 01        	ora	#$1
    1689: a6 5e        	ldx	$5e                     ; 0x205e <malloc+0x120>
    168b: 86 8e        	stx	$8e                     ; 0x208e <malloc+0x150>
    168d: 85 68        	sta	$68                     ; 0x2068 <malloc+0x12a>
    168f: 85 8f        	sta	$8f                     ; 0x208f <malloc+0x151>
    1691: a5 a3        	lda	$a3                     ; 0x20a3 <malloc+0x165>
    1693: 85 82        	sta	$82                     ; 0x2082 <malloc+0x144>
    1695: a4 9e        	ldy	$9e                     ; 0x209e <malloc+0x160>
    1697: a6 9f        	ldx	$9f                     ; 0x209f <malloc+0x161>
    1699: 86 66        	stx	$66                     ; 0x2066 <malloc+0x128>
    169b: 84 14        	sty	$14                     ; 0x2014 <malloc+0xd6>
    169d: 84 5d        	sty	$5d                     ; 0x205d <malloc+0x11f>
    169f: 86 15        	stx	$15                     ; 0x2015 <malloc+0xd7>
    16a1: a6 a4        	ldx	$a4                     ; 0x20a4 <malloc+0x166>
    16a3: 86 12        	stx	$12                     ; 0x2012 <malloc+0xd4>
    16a5: a6 a5        	ldx	$a5                     ; 0x20a5 <malloc+0x167>
    16a7: 86 13        	stx	$13                     ; 0x2013 <malloc+0xd5>
    16a9: a2 00        	ldx	#$0
    16ab: 85 62        	sta	$62                     ; 0x2062 <malloc+0x124>
    16ad: 20 f4 21     	jsr	$21f4 <memcpy>
    16b0: 18           	clc
    16b1: a5 5d        	lda	$5d                     ; 0x205d <malloc+0x11f>
    16b3: 65 61        	adc	$61                     ; 0x2061 <malloc+0x123>
    16b5: aa           	tax
    16b6: a5 66        	lda	$66                     ; 0x2066 <malloc+0x128>
    16b8: 69 00        	adc	#$0
    16ba: 86 9e        	stx	$9e                     ; 0x209e <malloc+0x160>
    16bc: 85 9f        	sta	$9f                     ; 0x209f <malloc+0x161>
    16be: a5 68        	lda	$68                     ; 0x2068 <malloc+0x12a>
    16c0: 29 01        	and	#$1
    16c2: b8           	clv
    16c3: f0 03        	beq	$16c8 <printf+0x525>
    16c5: 4c 1c 17     	jmp	$171c <printf+0x579>
    16c8: a6 62        	ldx	$62                     ; 0x2062 <malloc+0x124>
    16ca: b5 82        	lda	$82,x                   ; 0x2082 <malloc+0x144>
    16cc: aa           	tax
    16cd: a0 01        	ldy	#$1
    16cf: a5 65        	lda	$65                     ; 0x2065 <malloc+0x127>
    16d1: 85 1a        	sta	$1a                     ; 0x201a <malloc+0xdc>
    16d3: a5 a7        	lda	$a7                     ; 0x20a7 <malloc+0x169>
    16d5: 85 65        	sta	$65                     ; 0x2065 <malloc+0x127>
    16d7: a9 00        	lda	#$0
    16d9: 85 61        	sta	$61                     ; 0x2061 <malloc+0x123>
    16db: a9 00        	lda	#$0
    16dd: 85 62        	sta	$62                     ; 0x2062 <malloc+0x124>
    16df: a5 a6        	lda	$a6                     ; 0x20a6 <malloc+0x168>
    16e1: 85 66        	sta	$66                     ; 0x2066 <malloc+0x128>
    16e3: 8a           	txa
    16e4: 10 4c        	bpl	$1732 <printf+0x58f>
    16e6: a2 00        	ldx	#$0
    16e8: 64 12        	stz	$12                     ; 0x2012 <malloc+0xd4>
    16ea: a9 00        	lda	#$0
    16ec: 38           	sec
    16ed: f5 83        	sbc	$83,x                   ; 0x2083 <malloc+0x145>
    16ef: a0 00        	ldy	#$0
    16f1: b0 02        	bcs	$16f5 <printf+0x552>
    16f3: a0 01        	ldy	#$1
    16f5: 38           	sec
    16f6: e5 12        	sbc	$12                     ; 0x2012 <malloc+0xd4>
    16f8: 85 13        	sta	$13                     ; 0x2013 <malloc+0xd5>
    16fa: 64 12        	stz	$12                     ; 0x2012 <malloc+0xd4>
    16fc: b0 04        	bcs	$1702 <printf+0x55f>
    16fe: a9 01        	lda	#$1
    1700: 85 12        	sta	$12                     ; 0x2012 <malloc+0xd4>
    1702: 98           	tya
    1703: 05 12        	ora	$12                     ; 0x2012 <malloc+0xd4>
    1705: 85 12        	sta	$12                     ; 0x2012 <malloc+0xd4>
    1707: a5 13        	lda	$13                     ; 0x2013 <malloc+0xd5>
    1709: 9d 83 00     	sta	$83,x                   ; 0x83 <__rc31+0x54>
    170c: e8           	inx
    170d: 86 13        	stx	$13                     ; 0x2013 <malloc+0xd5>
    170f: a4 a3        	ldy	$a3                     ; 0x20a3 <malloc+0x165>
    1711: c4 13        	cpy	$13                     ; 0x2013 <malloc+0xd5>
    1713: d0 d5        	bne	$16ea <printf+0x547>
    1715: 2c 40 22     	bit	$2240                   ; 0x2240 <__set_v>
    1718: a0 01        	ldy	#$1
    171a: 80 16        	bra	$1732 <printf+0x58f>
    171c: a0 01        	ldy	#$1
    171e: a6 65        	ldx	$65                     ; 0x2065 <malloc+0x127>
    1720: 86 1a        	stx	$1a                     ; 0x201a <malloc+0xdc>
    1722: a6 a7        	ldx	$a7                     ; 0x20a7 <malloc+0x169>
    1724: 86 65        	stx	$65                     ; 0x2065 <malloc+0x127>
    1726: a2 00        	ldx	#$0
    1728: 86 61        	stx	$61                     ; 0x2061 <malloc+0x123>
    172a: a2 00        	ldx	#$0
    172c: 86 62        	stx	$62                     ; 0x2062 <malloc+0x124>
    172e: a6 a6        	ldx	$a6                     ; 0x20a6 <malloc+0x168>
    1730: 86 66        	stx	$66                     ; 0x2066 <malloc+0x128>
    1732: a2 01        	ldx	#$1
    1734: 70 02        	bvs	$1738 <printf+0x595>
    1736: a2 00        	ldx	#$0
    1738: 86 16        	stx	$16                     ; 0x2016 <malloc+0xd8>
    173a: a5 a3        	lda	$a3                     ; 0x20a3 <malloc+0x165>
    173c: 0a           	asl
    173d: 0a           	asl
    173e: 0a           	asl
    173f: 85 12        	sta	$12                     ; 0x2012 <malloc+0xd4>
    1741: a2 00        	ldx	#$0
    1743: 8a           	txa
    1744: e0 00        	cpx	#$0
    1746: d0 03        	bne	$174b <printf+0x5a8>
    1748: 4c d0 17     	jmp	$17d0 <printf+0x62d>
    174b: 85 17        	sta	$17                     ; 0x2017 <malloc+0xd9>
    174d: 86 5d        	stx	$5d                     ; 0x205d <malloc+0x11f>
    174f: ca           	dex
    1750: 86 15        	stx	$15                     ; 0x2015 <malloc+0xd7>
    1752: a2 00        	ldx	#$0
    1754: 64 13        	stz	$13                     ; 0x2013 <malloc+0xd5>
    1756: 80 0d        	bra	$1765 <printf+0x5c2>
    1758: a4 13        	ldy	$13                     ; 0x2013 <malloc+0xd5>
    175a: 99 6b 00     	sta	$6b,y                   ; 0x6b <__rc31+0x3c>
    175d: a4 15        	ldy	$15                     ; 0x2015 <malloc+0xd7>
    175f: c4 13        	cpy	$13                     ; 0x2013 <malloc+0xd5>
    1761: f0 38        	beq	$179b <printf+0x5f8>
    1763: e6 13        	inc	$13                     ; 0x2013 <malloc+0xd5>
    1765: a4 13        	ldy	$13                     ; 0x2013 <malloc+0xd5>
    1767: b9 6b 00     	lda	$6b,y                   ; 0x6b <__rc31+0x3c>
    176a: 0a           	asl
    176b: e0 00        	cpx	#$0
    176d: f0 02        	beq	$1771 <printf+0x5ce>
    176f: 09 01        	ora	#$1
    1771: a4 a2        	ldy	$a2                     ; 0x20a2 <malloc+0x164>
    1773: 84 14        	sty	$14                     ; 0x2014 <malloc+0xd6>
    1775: c5 14        	cmp	$14                     ; 0x2014 <malloc+0xd6>
    1777: a2 01        	ldx	#$1
    1779: b0 02        	bcs	$177d <printf+0x5da>
    177b: a2 00        	ldx	#$0
    177d: 90 d9        	bcc	$1758 <printf+0x5b5>
    177f: 84 14        	sty	$14                     ; 0x2014 <malloc+0xd6>
    1781: 38           	sec
    1782: e5 14        	sbc	$14                     ; 0x2014 <malloc+0xd6>
    1784: a4 13        	ldy	$13                     ; 0x2013 <malloc+0xd5>
    1786: 99 6b 00     	sta	$6b,y                   ; 0x6b <__rc31+0x3c>
    1789: a4 15        	ldy	$15                     ; 0x2015 <malloc+0xd7>
    178b: c4 13        	cpy	$13                     ; 0x2013 <malloc+0xd5>
    178d: d0 d4        	bne	$1763 <printf+0x5c0>
    178f: a4 5d        	ldy	$5d                     ; 0x205d <malloc+0x11f>
    1791: a6 5d        	ldx	$5d                     ; 0x205d <malloc+0x11f>
    1793: e8           	inx
    1794: a9 01        	lda	#$1
    1796: 99 6b 00     	sta	$6b,y                   ; 0x6b <__rc31+0x3c>
    1799: 86 5d        	stx	$5d                     ; 0x205d <malloc+0x11f>
    179b: a6 a3        	ldx	$a3                     ; 0x20a3 <malloc+0x165>
    179d: b5 82        	lda	$82,x                   ; 0x2082 <malloc+0x144>
    179f: aa           	tax
    17a0: a0 01        	ldy	#$1
    17a2: 8a           	txa
    17a3: 10 47        	bpl	$17ec <printf+0x649>
    17a5: a5 5d        	lda	$5d                     ; 0x205d <malloc+0x11f>
    17a7: f0 34        	beq	$17dd <printf+0x63a>
    17a9: a2 00        	ldx	#$0
    17ab: a4 a2        	ldy	$a2                     ; 0x20a2 <malloc+0x164>
    17ad: 84 14        	sty	$14                     ; 0x2014 <malloc+0xd6>
    17af: b5 6b        	lda	$6b,x                   ; 0x206b <malloc+0x12d>
    17b1: 1a           	inc
    17b2: f6 6b        	inc	$6b,x                   ; 0x206b <malloc+0x12d>
    17b4: c5 14        	cmp	$14                     ; 0x2014 <malloc+0xd6>
    17b6: b0 03        	bcs	$17bb <printf+0x618>
    17b8: 4c 17 18     	jmp	$1817 <printf+0x674>
    17bb: a4 14        	ldy	$14                     ; 0x2014 <malloc+0xd6>
    17bd: 84 13        	sty	$13                     ; 0x2013 <malloc+0xd5>
    17bf: 38           	sec
    17c0: e5 13        	sbc	$13                     ; 0x2013 <malloc+0xd5>
    17c2: 9d 6b 00     	sta	$6b,x                   ; 0x6b <__rc31+0x3c>
    17c5: e8           	inx
    17c6: 86 13        	stx	$13                     ; 0x2013 <malloc+0xd5>
    17c8: a4 5d        	ldy	$5d                     ; 0x205d <malloc+0x11f>
    17ca: c4 13        	cpy	$13                     ; 0x2013 <malloc+0xd5>
    17cc: d0 e1        	bne	$17af <printf+0x60c>
    17ce: 80 0f        	bra	$17df <printf+0x63c>
    17d0: 85 17        	sta	$17                     ; 0x2017 <malloc+0xd9>
    17d2: a6 a3        	ldx	$a3                     ; 0x20a3 <malloc+0x165>
    17d4: b5 82        	lda	$82,x                   ; 0x2082 <malloc+0x144>
    17d6: aa           	tax
    17d7: 64 5d        	stz	$5d                     ; 0x205d <malloc+0x11f>
    17d9: 30 04        	bmi	$17df <printf+0x63c>
    17db: 80 0f        	bra	$17ec <printf+0x649>
    17dd: 64 5d        	stz	$5d                     ; 0x205d <malloc+0x11f>
    17df: a4 5d        	ldy	$5d                     ; 0x205d <malloc+0x11f>
    17e1: a6 5d        	ldx	$5d                     ; 0x205d <malloc+0x11f>
    17e3: e8           	inx
    17e4: a9 01        	lda	#$1
    17e6: 99 6b 00     	sta	$6b,y                   ; 0x6b <__rc31+0x3c>
    17e9: a8           	tay
    17ea: 86 5d        	stx	$5d                     ; 0x205d <malloc+0x11f>
    17ec: a2 01        	ldx	#$1
    17ee: 64 13        	stz	$13                     ; 0x2013 <malloc+0xd5>
    17f0: a5 a3        	lda	$a3                     ; 0x20a3 <malloc+0x165>
    17f2: 85 14        	sta	$14                     ; 0x2014 <malloc+0xd6>
    17f4: b5 82        	lda	$82,x                   ; 0x2082 <malloc+0x144>
    17f6: 0a           	asl
    17f7: 64 15        	stz	$15                     ; 0x2015 <malloc+0xd7>
    17f9: 26 15        	rol	$15                     ; 0x2015 <malloc+0xd7>
    17fb: 05 13        	ora	$13                     ; 0x2013 <malloc+0xd5>
    17fd: 9d 82 00     	sta	$82,x                   ; 0x82 <__rc31+0x53>
    1800: e8           	inx
    1801: c6 14        	dec	$14                     ; 0x2014 <malloc+0xd6>
    1803: a5 15        	lda	$15                     ; 0x2015 <malloc+0xd7>
    1805: 85 13        	sta	$13                     ; 0x2013 <malloc+0xd5>
    1807: a5 14        	lda	$14                     ; 0x2014 <malloc+0xd6>
    1809: d0 e9        	bne	$17f4 <printf+0x651>
    180b: a5 17        	lda	$17                     ; 0x2017 <malloc+0xd9>
    180d: 1a           	inc
    180e: c5 12        	cmp	$12                     ; 0x2012 <malloc+0xd4>
    1810: a6 5d        	ldx	$5d                     ; 0x205d <malloc+0x11f>
    1812: b0 07        	bcs	$181b <printf+0x678>
    1814: 4c 44 17     	jmp	$1744 <printf+0x5a1>
    1817: a0 01        	ldy	#$1
    1819: 80 d1        	bra	$17ec <printf+0x649>
    181b: a5 5e        	lda	$5e                     ; 0x205e <malloc+0x120>
    181d: e6 66        	inc	$66                     ; 0x2066 <malloc+0x128>
    181f: c6 66        	dec	$66                     ; 0x2066 <malloc+0x128>
    1821: 10 08        	bpl	$182b <printf+0x688>
    1823: a2 01        	ldx	#$1
    1825: 64 66        	stz	$66                     ; 0x2066 <malloc+0x128>
    1827: 86 65        	stx	$65                     ; 0x2065 <malloc+0x127>
    1829: a6 5d        	ldx	$5d                     ; 0x205d <malloc+0x11f>
    182b: 29 04        	and	#$4
    182d: f0 2b        	beq	$185a <printf+0x6b7>
    182f: a5 a2        	lda	$a2                     ; 0x20a2 <malloc+0x164>
    1831: c9 10        	cmp	#$10
    1833: f0 14        	beq	$1849 <printf+0x6a6>
    1835: c9 08        	cmp	#$8
    1837: d0 21        	bne	$185a <printf+0x6b7>
    1839: a2 00        	ldx	#$0
    183b: e4 66        	cpx	$66                     ; 0x2066 <malloc+0x128>
    183d: f0 03        	beq	$1842 <printf+0x69f>
    183f: 4c 44 1d     	jmp	$1d44 <printf+0xba1>
    1842: a6 5d        	ldx	$5d                     ; 0x205d <malloc+0x11f>
    1844: e4 65        	cpx	$65                     ; 0x2065 <malloc+0x127>
    1846: 4c 46 1d     	jmp	$1d46 <printf+0xba3>
    1849: 8a           	txa
    184a: f0 0e        	beq	$185a <printf+0x6b7>
    184c: a5 5e        	lda	$5e                     ; 0x205e <malloc+0x120>
    184e: 29 80        	and	#$80
    1850: d0 03        	bne	$1855 <printf+0x6b2>
    1852: 4c 5f 1d     	jmp	$1d5f <printf+0xbbc>
    1855: a2 78        	ldx	#$78
    1857: 4c 61 1d     	jmp	$1d61 <printf+0xbbe>
    185a: a6 5e        	ldx	$5e                     ; 0x205e <malloc+0x120>
    185c: a9 2d        	lda	#$2d
    185e: 85 a6        	sta	$a6                     ; 0x20a6 <malloc+0x168>
    1860: a5 16        	lda	$16                     ; 0x2016 <malloc+0xd8>
    1862: d0 32        	bne	$1896 <printf+0x6f3>
    1864: 86 12        	stx	$12                     ; 0x2012 <malloc+0xd4>
    1866: 8a           	txa
    1867: 29 02        	and	#$2
    1869: a2 2b        	ldx	#$2b
    186b: 86 a6        	stx	$a6                     ; 0x20a6 <malloc+0x168>
    186d: aa           	tax
    186e: d0 26        	bne	$1896 <printf+0x6f3>
    1870: a5 12        	lda	$12                     ; 0x2012 <malloc+0xd4>
    1872: 29 08        	and	#$8
    1874: d0 1c        	bne	$1892 <printf+0x6ef>
    1876: a2 01        	ldx	#$1
    1878: 86 a3        	stx	$a3                     ; 0x20a3 <malloc+0x165>
    187a: a9 00        	lda	#$0
    187c: aa           	tax
    187d: 86 a2        	stx	$a2                     ; 0x20a2 <malloc+0x164>
    187f: 80 1c        	bra	$189d <printf+0x6fa>
    1881: 85 12        	sta	$12                     ; 0x2012 <malloc+0xd4>
    1883: a9 04        	lda	#$4
    1885: 80 04        	bra	$188b <printf+0x6e8>
    1887: 85 12        	sta	$12                     ; 0x2012 <malloc+0xd4>
    1889: a9 02        	lda	#$2
    188b: 85 a3        	sta	$a3                     ; 0x20a3 <malloc+0x165>
    188d: a5 12        	lda	$12                     ; 0x2012 <malloc+0xd4>
    188f: 4c 4e 15     	jmp	$154e <printf+0x3ab>
    1892: a2 20        	ldx	#$20
    1894: 86 a6        	stx	$a6                     ; 0x20a6 <malloc+0x168>
    1896: a2 00        	ldx	#$0
    1898: 86 a3        	stx	$a3                     ; 0x20a3 <malloc+0x165>
    189a: 86 a2        	stx	$a2                     ; 0x20a2 <malloc+0x164>
    189c: 98           	tya
    189d: a6 66        	ldx	$66                     ; 0x2066 <malloc+0x128>
    189f: d0 35        	bne	$18d6 <printf+0x733>
    18a1: a6 65        	ldx	$65                     ; 0x2065 <malloc+0x127>
    18a3: a4 5d        	ldy	$5d                     ; 0x205d <malloc+0x11f>
    18a5: 84 12        	sty	$12                     ; 0x2012 <malloc+0xd4>
    18a7: e4 12        	cpx	$12                     ; 0x2012 <malloc+0xd4>
    18a9: a6 65        	ldx	$65                     ; 0x2065 <malloc+0x127>
    18ab: 86 12        	stx	$12                     ; 0x2012 <malloc+0xd4>
    18ad: a6 66        	ldx	$66                     ; 0x2066 <malloc+0x128>
    18af: 86 13        	stx	$13                     ; 0x2013 <malloc+0xd5>
    18b1: b0 04        	bcs	$18b7 <printf+0x714>
    18b3: 84 12        	sty	$12                     ; 0x2012 <malloc+0xd4>
    18b5: 64 13        	stz	$13                     ; 0x2013 <malloc+0xd5>
    18b7: 85 18        	sta	$18                     ; 0x2018 <malloc+0xda>
    18b9: 18           	clc
    18ba: 65 12        	adc	$12                     ; 0x2012 <malloc+0xd4>
    18bc: 85 16        	sta	$16                     ; 0x2016 <malloc+0xd8>
    18be: 85 14        	sta	$14                     ; 0x2014 <malloc+0xd6>
    18c0: a5 13        	lda	$13                     ; 0x2013 <malloc+0xd5>
    18c2: 69 00        	adc	#$0
    18c4: 85 15        	sta	$15                     ; 0x2015 <malloc+0xd7>
    18c6: c5 1a        	cmp	$1a                     ; 0x201a <malloc+0xdc>
    18c8: d0 1e        	bne	$18e8 <printf+0x745>
    18ca: a6 1a        	ldx	$1a                     ; 0x201a <malloc+0xdc>
    18cc: 86 17        	stx	$17                     ; 0x2017 <malloc+0xd9>
    18ce: a6 67        	ldx	$67                     ; 0x2067 <malloc+0x129>
    18d0: a5 16        	lda	$16                     ; 0x2016 <malloc+0xd8>
    18d2: c5 67        	cmp	$67                     ; 0x2067 <malloc+0x129>
    18d4: 80 1c        	bra	$18f2 <printf+0x74f>
    18d6: a6 66        	ldx	$66                     ; 0x2066 <malloc+0x128>
    18d8: e0 00        	cpx	#$0
    18da: a6 65        	ldx	$65                     ; 0x2065 <malloc+0x127>
    18dc: 86 12        	stx	$12                     ; 0x2012 <malloc+0xd4>
    18de: a6 66        	ldx	$66                     ; 0x2066 <malloc+0x128>
    18e0: 86 13        	stx	$13                     ; 0x2013 <malloc+0xd5>
    18e2: a4 5d        	ldy	$5d                     ; 0x205d <malloc+0x11f>
    18e4: 90 cd        	bcc	$18b3 <printf+0x710>
    18e6: 80 cf        	bra	$18b7 <printf+0x714>
    18e8: a6 67        	ldx	$67                     ; 0x2067 <malloc+0x129>
    18ea: 5a           	phy
    18eb: a4 1a        	ldy	$1a                     ; 0x201a <malloc+0xdc>
    18ed: 84 17        	sty	$17                     ; 0x2017 <malloc+0xd9>
    18ef: 7a           	ply
    18f0: c5 1a        	cmp	$1a                     ; 0x201a <malloc+0xdc>
    18f2: 64 68        	stz	$68                     ; 0x2068 <malloc+0x12a>
    18f4: 64 67        	stz	$67                     ; 0x2067 <malloc+0x129>
    18f6: 90 03        	bcc	$18fb <printf+0x758>
    18f8: 4c 96 19     	jmp	$1996 <printf+0x7f3>
    18fb: a5 5e        	lda	$5e                     ; 0x205e <malloc+0x120>
    18fd: 29 11        	and	#$11
    18ff: 86 16        	stx	$16                     ; 0x2016 <malloc+0xd8>
    1901: f0 0f        	beq	$1912 <printf+0x76f>
    1903: 8a           	txa
    1904: 38           	sec
    1905: e5 14        	sbc	$14                     ; 0x2014 <malloc+0xd6>
    1907: 85 68        	sta	$68                     ; 0x2068 <malloc+0x12a>
    1909: a5 1a        	lda	$1a                     ; 0x201a <malloc+0xdc>
    190b: e5 15        	sbc	$15                     ; 0x2015 <malloc+0xd7>
    190d: 85 67        	sta	$67                     ; 0x2067 <malloc+0x129>
    190f: 4c 96 19     	jmp	$1996 <printf+0x7f3>
    1912: a6 92        	ldx	$92                     ; 0x2092 <malloc+0x154>
    1914: 86 14        	stx	$14                     ; 0x2014 <malloc+0xd6>
    1916: 38           	sec
    1917: a5 18        	lda	$18                     ; 0x2018 <malloc+0xda>
    1919: e5 16        	sbc	$16                     ; 0x2016 <malloc+0xd8>
    191b: a8           	tay
    191c: a9 00        	lda	#$0
    191e: e5 17        	sbc	$17                     ; 0x2017 <malloc+0xd9>
    1920: aa           	tax
    1921: 18           	clc
    1922: 98           	tya
    1923: 65 12        	adc	$12                     ; 0x2012 <malloc+0xd4>
    1925: 85 5e        	sta	$5e                     ; 0x205e <malloc+0x120>
    1927: 8a           	txa
    1928: 65 13        	adc	$13                     ; 0x2013 <malloc+0xd5>
    192a: 85 67        	sta	$67                     ; 0x2067 <malloc+0x129>
    192c: a5 93        	lda	$93                     ; 0x2093 <malloc+0x155>
    192e: 80 4e        	bra	$197e <printf+0x7db>
    1930: c5 91        	cmp	$91                     ; 0x2091 <malloc+0x153>
    1932: a4 67        	ldy	$67                     ; 0x2067 <malloc+0x129>
    1934: b0 28        	bcs	$195e <printf+0x7bb>
    1936: a6 9d        	ldx	$9d                     ; 0x209d <malloc+0x15f>
    1938: e4 62        	cpx	$62                     ; 0x2062 <malloc+0x124>
    193a: d0 19        	bne	$1955 <printf+0x7b2>
    193c: a6 9c        	ldx	$9c                     ; 0x209c <malloc+0x15e>
    193e: e4 61        	cpx	$61                     ; 0x2061 <malloc+0x123>
    1940: d0 13        	bne	$1955 <printf+0x7b2>
    1942: 18           	clc
    1943: aa           	tax
    1944: a5 14        	lda	$14                     ; 0x2014 <malloc+0xd6>
    1946: 65 96        	adc	$96                     ; 0x2096 <malloc+0x158>
    1948: 85 12        	sta	$12                     ; 0x2012 <malloc+0xd4>
    194a: 8a           	txa
    194b: 65 97        	adc	$97                     ; 0x2097 <malloc+0x159>
    194d: 85 13        	sta	$13                     ; 0x2013 <malloc+0xd5>
    194f: a9 20        	lda	#$20
    1951: 92 12        	sta	($12)                   ; 0x2012 <malloc+0xd4>
    1953: 80 07        	bra	$195c <printf+0x7b9>
    1955: a2 00        	ldx	#$0
    1957: a9 20        	lda	#$20
    1959: 20 7c 1d     	jsr	$1d7c <putchar>
    195c: a4 67        	ldy	$67                     ; 0x2067 <malloc+0x129>
    195e: a6 92        	ldx	$92                     ; 0x2092 <malloc+0x154>
    1960: a5 93        	lda	$93                     ; 0x2093 <malloc+0x155>
    1962: e8           	inx
    1963: d0 01        	bne	$1966 <printf+0x7c3>
    1965: 1a           	inc
    1966: 86 14        	stx	$14                     ; 0x2014 <malloc+0xd6>
    1968: 86 92        	stx	$92                     ; 0x2092 <malloc+0x154>
    196a: 85 93        	sta	$93                     ; 0x2093 <malloc+0x155>
    196c: a6 5e        	ldx	$5e                     ; 0x205e <malloc+0x120>
    196e: e8           	inx
    196f: d0 01        	bne	$1972 <printf+0x7cf>
    1971: c8           	iny
    1972: 86 5e        	stx	$5e                     ; 0x205e <malloc+0x120>
    1974: 84 67        	sty	$67                     ; 0x2067 <malloc+0x129>
    1976: c0 00        	cpy	#$0
    1978: d0 04        	bne	$197e <printf+0x7db>
    197a: e0 00        	cpx	#$0
    197c: f0 12        	beq	$1990 <printf+0x7ed>
    197e: c5 91        	cmp	$91                     ; 0x2091 <malloc+0x153>
    1980: f0 03        	beq	$1985 <printf+0x7e2>
    1982: 4c 30 19     	jmp	$1930 <printf+0x78d>
    1985: a6 90        	ldx	$90                     ; 0x2090 <malloc+0x152>
    1987: 86 12        	stx	$12                     ; 0x2012 <malloc+0xd4>
    1989: a6 14        	ldx	$14                     ; 0x2014 <malloc+0xd6>
    198b: e4 12        	cpx	$12                     ; 0x2012 <malloc+0xd4>
    198d: 4c 32 19     	jmp	$1932 <printf+0x78f>
    1990: 64 68        	stz	$68                     ; 0x2068 <malloc+0x12a>
    1992: 64 67        	stz	$67                     ; 0x2067 <malloc+0x129>
    1994: a4 5d        	ldy	$5d                     ; 0x205d <malloc+0x11f>
    1996: a6 a3        	ldx	$a3                     ; 0x20a3 <malloc+0x165>
    1998: d0 4f        	bne	$19e9 <printf+0x846>
    199a: a6 92        	ldx	$92                     ; 0x2092 <malloc+0x154>
    199c: a5 93        	lda	$93                     ; 0x2093 <malloc+0x155>
    199e: c5 91        	cmp	$91                     ; 0x2091 <malloc+0x153>
    19a0: d0 10        	bne	$19b2 <printf+0x80f>
    19a2: 86 13        	stx	$13                     ; 0x2013 <malloc+0xd5>
    19a4: a6 90        	ldx	$90                     ; 0x2090 <malloc+0x152>
    19a6: 86 12        	stx	$12                     ; 0x2012 <malloc+0xd4>
    19a8: a4 5d        	ldy	$5d                     ; 0x205d <malloc+0x11f>
    19aa: a6 13        	ldx	$13                     ; 0x2013 <malloc+0xd5>
    19ac: e4 12        	cpx	$12                     ; 0x2012 <malloc+0xd4>
    19ae: 90 08        	bcc	$19b8 <printf+0x815>
    19b0: 80 31        	bra	$19e3 <printf+0x840>
    19b2: 86 13        	stx	$13                     ; 0x2013 <malloc+0xd5>
    19b4: c5 91        	cmp	$91                     ; 0x2091 <malloc+0x153>
    19b6: b0 2b        	bcs	$19e3 <printf+0x840>
    19b8: a6 9d        	ldx	$9d                     ; 0x209d <malloc+0x15f>
    19ba: e4 62        	cpx	$62                     ; 0x2062 <malloc+0x124>
    19bc: d0 1c        	bne	$19da <printf+0x837>
    19be: a6 9c        	ldx	$9c                     ; 0x209c <malloc+0x15e>
    19c0: e4 61        	cpx	$61                     ; 0x2061 <malloc+0x123>
    19c2: d0 16        	bne	$19da <printf+0x837>
    19c4: 18           	clc
    19c5: 85 12        	sta	$12                     ; 0x2012 <malloc+0xd4>
    19c7: a5 13        	lda	$13                     ; 0x2013 <malloc+0xd5>
    19c9: 65 96        	adc	$96                     ; 0x2096 <malloc+0x158>
    19cb: aa           	tax
    19cc: a5 12        	lda	$12                     ; 0x2012 <malloc+0xd4>
    19ce: 65 97        	adc	$97                     ; 0x2097 <malloc+0x159>
    19d0: 86 12        	stx	$12                     ; 0x2012 <malloc+0xd4>
    19d2: 85 13        	sta	$13                     ; 0x2013 <malloc+0xd5>
    19d4: a5 a6        	lda	$a6                     ; 0x20a6 <malloc+0x168>
    19d6: 92 12        	sta	($12)                   ; 0x2012 <malloc+0xd4>
    19d8: 80 07        	bra	$19e1 <printf+0x83e>
    19da: a2 00        	ldx	#$0
    19dc: a5 a6        	lda	$a6                     ; 0x20a6 <malloc+0x168>
    19de: 20 7c 1d     	jsr	$1d7c <putchar>
    19e1: a4 5d        	ldy	$5d                     ; 0x205d <malloc+0x11f>
    19e3: e6 92        	inc	$92                     ; 0x2092 <malloc+0x154>
    19e5: d0 02        	bne	$19e9 <printf+0x846>
    19e7: e6 93        	inc	$93                     ; 0x2093 <malloc+0x155>
    19e9: a6 a2        	ldx	$a2                     ; 0x20a2 <malloc+0x164>
    19eb: f0 4f        	beq	$1a3c <printf+0x899>
    19ed: a6 92        	ldx	$92                     ; 0x2092 <malloc+0x154>
    19ef: a5 93        	lda	$93                     ; 0x2093 <malloc+0x155>
    19f1: c5 91        	cmp	$91                     ; 0x2091 <malloc+0x153>
    19f3: d0 10        	bne	$1a05 <printf+0x862>
    19f5: 86 13        	stx	$13                     ; 0x2013 <malloc+0xd5>
    19f7: a6 90        	ldx	$90                     ; 0x2090 <malloc+0x152>
    19f9: 86 12        	stx	$12                     ; 0x2012 <malloc+0xd4>
    19fb: a4 5d        	ldy	$5d                     ; 0x205d <malloc+0x11f>
    19fd: a6 13        	ldx	$13                     ; 0x2013 <malloc+0xd5>
    19ff: e4 12        	cpx	$12                     ; 0x2012 <malloc+0xd4>
    1a01: 90 08        	bcc	$1a0b <printf+0x868>
    1a03: 80 31        	bra	$1a36 <printf+0x893>
    1a05: 86 13        	stx	$13                     ; 0x2013 <malloc+0xd5>
    1a07: c5 91        	cmp	$91                     ; 0x2091 <malloc+0x153>
    1a09: b0 2b        	bcs	$1a36 <printf+0x893>
    1a0b: a6 9d        	ldx	$9d                     ; 0x209d <malloc+0x15f>
    1a0d: e4 62        	cpx	$62                     ; 0x2062 <malloc+0x124>
    1a0f: d0 1c        	bne	$1a2d <printf+0x88a>
    1a11: a6 9c        	ldx	$9c                     ; 0x209c <malloc+0x15e>
    1a13: e4 61        	cpx	$61                     ; 0x2061 <malloc+0x123>
    1a15: d0 16        	bne	$1a2d <printf+0x88a>
    1a17: 18           	clc
    1a18: 85 12        	sta	$12                     ; 0x2012 <malloc+0xd4>
    1a1a: a5 13        	lda	$13                     ; 0x2013 <malloc+0xd5>
    1a1c: 65 96        	adc	$96                     ; 0x2096 <malloc+0x158>
    1a1e: aa           	tax
    1a1f: a5 12        	lda	$12                     ; 0x2012 <malloc+0xd4>
    1a21: 65 97        	adc	$97                     ; 0x2097 <malloc+0x159>
    1a23: 86 12        	stx	$12                     ; 0x2012 <malloc+0xd4>
    1a25: 85 13        	sta	$13                     ; 0x2013 <malloc+0xd5>
    1a27: a5 a7        	lda	$a7                     ; 0x20a7 <malloc+0x169>
    1a29: 92 12        	sta	($12)                   ; 0x2012 <malloc+0xd4>
    1a2b: 80 07        	bra	$1a34 <printf+0x891>
    1a2d: a2 00        	ldx	#$0
    1a2f: a5 a7        	lda	$a7                     ; 0x20a7 <malloc+0x169>
    1a31: 20 7c 1d     	jsr	$1d7c <putchar>
    1a34: a4 5d        	ldy	$5d                     ; 0x205d <malloc+0x11f>
    1a36: e6 92        	inc	$92                     ; 0x2092 <malloc+0x154>
    1a38: d0 02        	bne	$1a3c <printf+0x899>
    1a3a: e6 93        	inc	$93                     ; 0x2093 <malloc+0x155>
    1a3c: a9 10        	lda	#$10
    1a3e: 25 8e        	and	$8e                     ; 0x208e <malloc+0x150>
    1a40: d0 03        	bne	$1a45 <printf+0x8a2>
    1a42: 4c ce 1a     	jmp	$1ace <printf+0x92b>
    1a45: a5 8e        	lda	$8e                     ; 0x208e <malloc+0x150>
    1a47: 29 01        	and	#$1
    1a49: f0 03        	beq	$1a4e <printf+0x8ab>
    1a4b: 4c ce 1a     	jmp	$1ace <printf+0x92b>
    1a4e: a6 68        	ldx	$68                     ; 0x2068 <malloc+0x12a>
    1a50: a5 67        	lda	$67                     ; 0x2067 <malloc+0x129>
    1a52: d0 06        	bne	$1a5a <printf+0x8b7>
    1a54: 8a           	txa
    1a55: d0 03        	bne	$1a5a <printf+0x8b7>
    1a57: 4c 74 1d     	jmp	$1d74 <printf+0xbd1>
    1a5a: a6 92        	ldx	$92                     ; 0x2092 <malloc+0x154>
    1a5c: 86 13        	stx	$13                     ; 0x2013 <malloc+0xd5>
    1a5e: a5 93        	lda	$93                     ; 0x2093 <malloc+0x155>
    1a60: 4c b4 1a     	jmp	$1ab4 <printf+0x911>
    1a63: c5 91        	cmp	$91                     ; 0x2091 <malloc+0x153>
    1a65: b0 26        	bcs	$1a8d <printf+0x8ea>
    1a67: a6 9d        	ldx	$9d                     ; 0x209d <malloc+0x15f>
    1a69: e4 62        	cpx	$62                     ; 0x2062 <malloc+0x124>
    1a6b: d0 19        	bne	$1a86 <printf+0x8e3>
    1a6d: a6 9c        	ldx	$9c                     ; 0x209c <malloc+0x15e>
    1a6f: e4 61        	cpx	$61                     ; 0x2061 <malloc+0x123>
    1a71: d0 13        	bne	$1a86 <printf+0x8e3>
    1a73: 18           	clc
    1a74: aa           	tax
    1a75: a5 13        	lda	$13                     ; 0x2013 <malloc+0xd5>
    1a77: 65 96        	adc	$96                     ; 0x2096 <malloc+0x158>
    1a79: 85 12        	sta	$12                     ; 0x2012 <malloc+0xd4>
    1a7b: 8a           	txa
    1a7c: 65 97        	adc	$97                     ; 0x2097 <malloc+0x159>
    1a7e: 85 13        	sta	$13                     ; 0x2013 <malloc+0xd5>
    1a80: a9 30        	lda	#$30
    1a82: 92 12        	sta	($12)                   ; 0x2012 <malloc+0xd4>
    1a84: 80 07        	bra	$1a8d <printf+0x8ea>
    1a86: a2 00        	ldx	#$0
    1a88: a9 30        	lda	#$30
    1a8a: 20 7c 1d     	jsr	$1d7c <putchar>
    1a8d: a6 92        	ldx	$92                     ; 0x2092 <malloc+0x154>
    1a8f: a5 93        	lda	$93                     ; 0x2093 <malloc+0x155>
    1a91: e8           	inx
    1a92: d0 01        	bne	$1a95 <printf+0x8f2>
    1a94: 1a           	inc
    1a95: 86 13        	stx	$13                     ; 0x2013 <malloc+0xd5>
    1a97: 86 92        	stx	$92                     ; 0x2092 <malloc+0x154>
    1a99: 85 93        	sta	$93                     ; 0x2093 <malloc+0x155>
    1a9b: a4 68        	ldy	$68                     ; 0x2068 <malloc+0x12a>
    1a9d: a6 67        	ldx	$67                     ; 0x2067 <malloc+0x129>
    1a9f: 86 12        	stx	$12                     ; 0x2012 <malloc+0xd4>
    1aa1: 88           	dey
    1aa2: c0 ff        	cpy	#$ff
    1aa4: d0 02        	bne	$1aa8 <printf+0x905>
    1aa6: c6 12        	dec	$12                     ; 0x2012 <malloc+0xd4>
    1aa8: 84 68        	sty	$68                     ; 0x2068 <malloc+0x12a>
    1aaa: a6 12        	ldx	$12                     ; 0x2012 <malloc+0xd4>
    1aac: 86 67        	stx	$67                     ; 0x2067 <malloc+0x129>
    1aae: d0 04        	bne	$1ab4 <printf+0x911>
    1ab0: c0 00        	cpy	#$0
    1ab2: f0 14        	beq	$1ac8 <printf+0x925>
    1ab4: c5 91        	cmp	$91                     ; 0x2091 <malloc+0x153>
    1ab6: f0 03        	beq	$1abb <printf+0x918>
    1ab8: 4c 63 1a     	jmp	$1a63 <printf+0x8c0>
    1abb: a6 90        	ldx	$90                     ; 0x2090 <malloc+0x152>
    1abd: 86 12        	stx	$12                     ; 0x2012 <malloc+0xd4>
    1abf: a6 13        	ldx	$13                     ; 0x2013 <malloc+0xd5>
    1ac1: e4 12        	cpx	$12                     ; 0x2012 <malloc+0xd4>
    1ac3: b0 c8        	bcs	$1a8d <printf+0x8ea>
    1ac5: 4c 67 1a     	jmp	$1a67 <printf+0x8c4>
    1ac8: 64 68        	stz	$68                     ; 0x2068 <malloc+0x12a>
    1aca: 64 67        	stz	$67                     ; 0x2067 <malloc+0x129>
    1acc: a4 5d        	ldy	$5d                     ; 0x205d <malloc+0x11f>
    1ace: a2 00        	ldx	#$0
    1ad0: e4 66        	cpx	$66                     ; 0x2066 <malloc+0x128>
    1ad2: d0 07        	bne	$1adb <printf+0x938>
    1ad4: c4 65        	cpy	$65                     ; 0x2065 <malloc+0x127>
    1ad6: 90 0a        	bcc	$1ae2 <printf+0x93f>
    1ad8: 4c 52 1b     	jmp	$1b52 <printf+0x9af>
    1adb: e4 66        	cpx	$66                     ; 0x2066 <malloc+0x128>
    1add: 90 03        	bcc	$1ae2 <printf+0x93f>
    1adf: 4c 52 1b     	jmp	$1b52 <printf+0x9af>
    1ae2: a6 92        	ldx	$92                     ; 0x2092 <malloc+0x154>
    1ae4: 86 13        	stx	$13                     ; 0x2013 <malloc+0xd5>
    1ae6: a5 93        	lda	$93                     ; 0x2093 <malloc+0x155>
    1ae8: a2 ff        	ldx	#$ff
    1aea: c6 65        	dec	$65                     ; 0x2065 <malloc+0x127>
    1aec: e4 65        	cpx	$65                     ; 0x2065 <malloc+0x127>
    1aee: d0 02        	bne	$1af2 <printf+0x94f>
    1af0: c6 66        	dec	$66                     ; 0x2066 <malloc+0x128>
    1af2: c5 91        	cmp	$91                     ; 0x2091 <malloc+0x153>
    1af4: d0 0c        	bne	$1b02 <printf+0x95f>
    1af6: a6 90        	ldx	$90                     ; 0x2090 <malloc+0x152>
    1af8: 86 12        	stx	$12                     ; 0x2012 <malloc+0xd4>
    1afa: a6 13        	ldx	$13                     ; 0x2013 <malloc+0xd5>
    1afc: e4 12        	cpx	$12                     ; 0x2012 <malloc+0xd4>
    1afe: 90 06        	bcc	$1b06 <printf+0x963>
    1b00: 80 2a        	bra	$1b2c <printf+0x989>
    1b02: c5 91        	cmp	$91                     ; 0x2091 <malloc+0x153>
    1b04: b0 26        	bcs	$1b2c <printf+0x989>
    1b06: a6 9d        	ldx	$9d                     ; 0x209d <malloc+0x15f>
    1b08: e4 62        	cpx	$62                     ; 0x2062 <malloc+0x124>
    1b0a: d0 19        	bne	$1b25 <printf+0x982>
    1b0c: a6 9c        	ldx	$9c                     ; 0x209c <malloc+0x15e>
    1b0e: e4 61        	cpx	$61                     ; 0x2061 <malloc+0x123>
    1b10: d0 13        	bne	$1b25 <printf+0x982>
    1b12: 18           	clc
    1b13: aa           	tax
    1b14: a5 13        	lda	$13                     ; 0x2013 <malloc+0xd5>
    1b16: 65 96        	adc	$96                     ; 0x2096 <malloc+0x158>
    1b18: 85 12        	sta	$12                     ; 0x2012 <malloc+0xd4>
    1b1a: 8a           	txa
    1b1b: 65 97        	adc	$97                     ; 0x2097 <malloc+0x159>
    1b1d: 85 13        	sta	$13                     ; 0x2013 <malloc+0xd5>
    1b1f: a9 30        	lda	#$30
    1b21: 92 12        	sta	($12)                   ; 0x2012 <malloc+0xd4>
    1b23: 80 07        	bra	$1b2c <printf+0x989>
    1b25: a2 00        	ldx	#$0
    1b27: a9 30        	lda	#$30
    1b29: 20 7c 1d     	jsr	$1d7c <putchar>
    1b2c: a6 92        	ldx	$92                     ; 0x2092 <malloc+0x154>
    1b2e: a5 93        	lda	$93                     ; 0x2093 <malloc+0x155>
    1b30: e8           	inx
    1b31: d0 01        	bne	$1b34 <printf+0x991>
    1b33: 1a           	inc
    1b34: 86 13        	stx	$13                     ; 0x2013 <malloc+0xd5>
    1b36: 86 92        	stx	$92                     ; 0x2092 <malloc+0x154>
    1b38: 85 93        	sta	$93                     ; 0x2093 <malloc+0x155>
    1b3a: a2 00        	ldx	#$0
    1b3c: e4 66        	cpx	$66                     ; 0x2066 <malloc+0x128>
    1b3e: d0 09        	bne	$1b49 <printf+0x9a6>
    1b40: a4 5d        	ldy	$5d                     ; 0x205d <malloc+0x11f>
    1b42: c4 65        	cpy	$65                     ; 0x2065 <malloc+0x127>
    1b44: b0 0c        	bcs	$1b52 <printf+0x9af>
    1b46: 4c e8 1a     	jmp	$1ae8 <printf+0x945>
    1b49: e4 66        	cpx	$66                     ; 0x2066 <malloc+0x128>
    1b4b: a4 5d        	ldy	$5d                     ; 0x205d <malloc+0x11f>
    1b4d: b0 03        	bcs	$1b52 <printf+0x9af>
    1b4f: 4c e8 1a     	jmp	$1ae8 <printf+0x945>
    1b52: 98           	tya
    1b53: d0 03        	bne	$1b58 <printf+0x9b5>
    1b55: 4c 4b 1c     	jmp	$1c4b <printf+0xaa8>
    1b58: 88           	dey
    1b59: d0 03        	bne	$1b5e <printf+0x9bb>
    1b5b: 4c e8 1b     	jmp	$1be8 <printf+0xa45>
    1b5e: 84 65        	sty	$65                     ; 0x2065 <malloc+0x127>
    1b60: a6 a8        	ldx	$a8                     ; 0x20a8 <malloc+0x16a>
    1b62: 8a           	txa
    1b63: 18           	clc
    1b64: 65 65        	adc	$65                     ; 0x2065 <malloc+0x127>
    1b66: 85 5d        	sta	$5d                     ; 0x205d <malloc+0x11f>
    1b68: a5 a9        	lda	$a9                     ; 0x20a9 <malloc+0x16b>
    1b6a: 69 00        	adc	#$0
    1b6c: 85 5e        	sta	$5e                     ; 0x205e <malloc+0x120>
    1b6e: 4c da 1b     	jmp	$1bda <printf+0xa37>
    1b71: a8           	tay
    1b72: a9 80        	lda	#$80
    1b74: 25 8e        	and	$8e                     ; 0x208e <malloc+0x150>
    1b76: f0 04        	beq	$1b7c <printf+0x9d9>
    1b78: a2 61        	ldx	#$61
    1b7a: 80 02        	bra	$1b7e <printf+0x9db>
    1b7c: a2 41        	ldx	#$41
    1b7e: 86 12        	stx	$12                     ; 0x2012 <malloc+0xd4>
    1b80: 18           	clc
    1b81: 98           	tya
    1b82: 65 12        	adc	$12                     ; 0x2012 <malloc+0xd4>
    1b84: 18           	clc
    1b85: 69 f6        	adc	#$f6
    1b87: a4 92        	ldy	$92                     ; 0x2092 <malloc+0x154>
    1b89: a6 93        	ldx	$93                     ; 0x2093 <malloc+0x155>
    1b8b: e4 91        	cpx	$91                     ; 0x2091 <malloc+0x153>
    1b8d: d0 0c        	bne	$1b9b <printf+0x9f8>
    1b8f: 86 14        	stx	$14                     ; 0x2014 <malloc+0xd6>
    1b91: a6 90        	ldx	$90                     ; 0x2090 <malloc+0x152>
    1b93: 86 12        	stx	$12                     ; 0x2012 <malloc+0xd4>
    1b95: c4 12        	cpy	$12                     ; 0x2012 <malloc+0xd4>
    1b97: 90 08        	bcc	$1ba1 <printf+0x9fe>
    1b99: 80 29        	bra	$1bc4 <printf+0xa21>
    1b9b: 86 14        	stx	$14                     ; 0x2014 <malloc+0xd6>
    1b9d: e4 91        	cpx	$91                     ; 0x2091 <malloc+0x153>
    1b9f: b0 23        	bcs	$1bc4 <printf+0xa21>
    1ba1: a6 9d        	ldx	$9d                     ; 0x209d <malloc+0x15f>
    1ba3: e4 62        	cpx	$62                     ; 0x2062 <malloc+0x124>
    1ba5: d0 18        	bne	$1bbf <printf+0xa1c>
    1ba7: a6 9c        	ldx	$9c                     ; 0x209c <malloc+0x15e>
    1ba9: e4 61        	cpx	$61                     ; 0x2061 <malloc+0x123>
    1bab: d0 12        	bne	$1bbf <printf+0xa1c>
    1bad: 18           	clc
    1bae: aa           	tax
    1baf: 98           	tya
    1bb0: 65 96        	adc	$96                     ; 0x2096 <malloc+0x158>
    1bb2: 85 12        	sta	$12                     ; 0x2012 <malloc+0xd4>
    1bb4: a5 14        	lda	$14                     ; 0x2014 <malloc+0xd6>
    1bb6: 65 97        	adc	$97                     ; 0x2097 <malloc+0x159>
    1bb8: 85 13        	sta	$13                     ; 0x2013 <malloc+0xd5>
    1bba: 8a           	txa
    1bbb: 92 12        	sta	($12)                   ; 0x2012 <malloc+0xd4>
    1bbd: 80 05        	bra	$1bc4 <printf+0xa21>
    1bbf: a2 00        	ldx	#$0
    1bc1: 20 7c 1d     	jsr	$1d7c <putchar>
    1bc4: e6 92        	inc	$92                     ; 0x2092 <malloc+0x154>
    1bc6: d0 02        	bne	$1bca <printf+0xa27>
    1bc8: e6 93        	inc	$93                     ; 0x2093 <malloc+0x155>
    1bca: c6 65        	dec	$65                     ; 0x2065 <malloc+0x127>
    1bcc: a2 ff        	ldx	#$ff
    1bce: c6 5d        	dec	$5d                     ; 0x205d <malloc+0x11f>
    1bd0: e4 5d        	cpx	$5d                     ; 0x205d <malloc+0x11f>
    1bd2: d0 02        	bne	$1bd6 <printf+0xa33>
    1bd4: c6 5e        	dec	$5e                     ; 0x205e <malloc+0x120>
    1bd6: a5 65        	lda	$65                     ; 0x2065 <malloc+0x127>
    1bd8: f0 0e        	beq	$1be8 <printf+0xa45>
    1bda: b2 5d        	lda	($5d)                   ; 0x205d <malloc+0x11f>
    1bdc: c9 0a        	cmp	#$a
    1bde: 90 03        	bcc	$1be3 <printf+0xa40>
    1be0: 4c 71 1b     	jmp	$1b71 <printf+0x9ce>
    1be3: 09 30        	ora	#$30
    1be5: 4c 87 1b     	jmp	$1b87 <printf+0x9e4>
    1be8: a5 6b        	lda	$6b                     ; 0x206b <malloc+0x12d>
    1bea: c9 0a        	cmp	#$a
    1bec: b0 04        	bcs	$1bf2 <printf+0xa4f>
    1bee: 09 30        	ora	#$30
    1bf0: 80 16        	bra	$1c08 <printf+0xa65>
    1bf2: a8           	tay
    1bf3: a9 80        	lda	#$80
    1bf5: 25 8e        	and	$8e                     ; 0x208e <malloc+0x150>
    1bf7: f0 04        	beq	$1bfd <printf+0xa5a>
    1bf9: a2 61        	ldx	#$61
    1bfb: 80 02        	bra	$1bff <printf+0xa5c>
    1bfd: a2 41        	ldx	#$41
    1bff: 86 12        	stx	$12                     ; 0x2012 <malloc+0xd4>
    1c01: 18           	clc
    1c02: 98           	tya
    1c03: 65 12        	adc	$12                     ; 0x2012 <malloc+0xd4>
    1c05: 18           	clc
    1c06: 69 f6        	adc	#$f6
    1c08: a4 92        	ldy	$92                     ; 0x2092 <malloc+0x154>
    1c0a: a6 93        	ldx	$93                     ; 0x2093 <malloc+0x155>
    1c0c: e4 91        	cpx	$91                     ; 0x2091 <malloc+0x153>
    1c0e: d0 0c        	bne	$1c1c <printf+0xa79>
    1c10: 86 14        	stx	$14                     ; 0x2014 <malloc+0xd6>
    1c12: a6 90        	ldx	$90                     ; 0x2090 <malloc+0x152>
    1c14: 86 12        	stx	$12                     ; 0x2012 <malloc+0xd4>
    1c16: c4 12        	cpy	$12                     ; 0x2012 <malloc+0xd4>
    1c18: 90 08        	bcc	$1c22 <printf+0xa7f>
    1c1a: 80 29        	bra	$1c45 <printf+0xaa2>
    1c1c: 86 14        	stx	$14                     ; 0x2014 <malloc+0xd6>
    1c1e: e4 91        	cpx	$91                     ; 0x2091 <malloc+0x153>
    1c20: b0 23        	bcs	$1c45 <printf+0xaa2>
    1c22: a6 9d        	ldx	$9d                     ; 0x209d <malloc+0x15f>
    1c24: e4 62        	cpx	$62                     ; 0x2062 <malloc+0x124>
    1c26: d0 18        	bne	$1c40 <printf+0xa9d>
    1c28: a6 9c        	ldx	$9c                     ; 0x209c <malloc+0x15e>
    1c2a: e4 61        	cpx	$61                     ; 0x2061 <malloc+0x123>
    1c2c: d0 12        	bne	$1c40 <printf+0xa9d>
    1c2e: 18           	clc
    1c2f: aa           	tax
    1c30: 98           	tya
    1c31: 65 96        	adc	$96                     ; 0x2096 <malloc+0x158>
    1c33: 85 12        	sta	$12                     ; 0x2012 <malloc+0xd4>
    1c35: a5 14        	lda	$14                     ; 0x2014 <malloc+0xd6>
    1c37: 65 97        	adc	$97                     ; 0x2097 <malloc+0x159>
    1c39: 85 13        	sta	$13                     ; 0x2013 <malloc+0xd5>
    1c3b: 8a           	txa
    1c3c: 92 12        	sta	($12)                   ; 0x2012 <malloc+0xd4>
    1c3e: 80 05        	bra	$1c45 <printf+0xaa2>
    1c40: a2 00        	ldx	#$0
    1c42: 20 7c 1d     	jsr	$1d7c <putchar>
    1c45: e6 92        	inc	$92                     ; 0x2092 <malloc+0x154>
    1c47: d0 02        	bne	$1c4b <printf+0xaa8>
    1c49: e6 93        	inc	$93                     ; 0x2093 <malloc+0x155>
    1c4b: a5 8e        	lda	$8e                     ; 0x208e <malloc+0x150>
    1c4d: 29 01        	and	#$1
    1c4f: d0 1e        	bne	$1c6f <printf+0xacc>
    1c51: a6 92        	ldx	$92                     ; 0x2092 <malloc+0x154>
    1c53: 86 14        	stx	$14                     ; 0x2014 <malloc+0xd6>
    1c55: a5 93        	lda	$93                     ; 0x2093 <malloc+0x155>
    1c57: a4 90        	ldy	$90                     ; 0x2090 <malloc+0x152>
    1c59: a6 91        	ldx	$91                     ; 0x2091 <malloc+0x153>
    1c5b: 86 12        	stx	$12                     ; 0x2012 <malloc+0xd4>
    1c5d: 86 13        	stx	$13                     ; 0x2013 <malloc+0xd5>
    1c5f: c5 12        	cmp	$12                     ; 0x2012 <malloc+0xd4>
    1c61: f0 03        	beq	$1c66 <printf+0xac3>
    1c63: 4c f4 1c     	jmp	$1cf4 <printf+0xb51>
    1c66: 84 12        	sty	$12                     ; 0x2012 <malloc+0xd4>
    1c68: a6 14        	ldx	$14                     ; 0x2014 <malloc+0xd6>
    1c6a: e4 12        	cpx	$12                     ; 0x2012 <malloc+0xd4>
    1c6c: 4c f8 1c     	jmp	$1cf8 <printf+0xb55>
    1c6f: a6 92        	ldx	$92                     ; 0x2092 <malloc+0x154>
    1c71: 86 14        	stx	$14                     ; 0x2014 <malloc+0xd6>
    1c73: a5 93        	lda	$93                     ; 0x2093 <malloc+0x155>
    1c75: a6 68        	ldx	$68                     ; 0x2068 <malloc+0x12a>
    1c77: a4 67        	ldy	$67                     ; 0x2067 <malloc+0x129>
    1c79: f0 03        	beq	$1c7e <printf+0xadb>
    1c7b: 4c e0 1c     	jmp	$1ce0 <printf+0xb3d>
    1c7e: e0 00        	cpx	#$0
    1c80: f0 d5        	beq	$1c57 <printf+0xab4>
    1c82: 4c e0 1c     	jmp	$1ce0 <printf+0xb3d>
    1c85: c5 91        	cmp	$91                     ; 0x2091 <malloc+0x153>
    1c87: b0 26        	bcs	$1caf <printf+0xb0c>
    1c89: a6 9d        	ldx	$9d                     ; 0x209d <malloc+0x15f>
    1c8b: e4 62        	cpx	$62                     ; 0x2062 <malloc+0x124>
    1c8d: d0 19        	bne	$1ca8 <printf+0xb05>
    1c8f: a6 9c        	ldx	$9c                     ; 0x209c <malloc+0x15e>
    1c91: e4 61        	cpx	$61                     ; 0x2061 <malloc+0x123>
    1c93: d0 13        	bne	$1ca8 <printf+0xb05>
    1c95: 18           	clc
    1c96: aa           	tax
    1c97: a5 14        	lda	$14                     ; 0x2014 <malloc+0xd6>
    1c99: 65 96        	adc	$96                     ; 0x2096 <malloc+0x158>
    1c9b: 85 12        	sta	$12                     ; 0x2012 <malloc+0xd4>
    1c9d: 8a           	txa
    1c9e: 65 97        	adc	$97                     ; 0x2097 <malloc+0x159>
    1ca0: 85 13        	sta	$13                     ; 0x2013 <malloc+0xd5>
    1ca2: a9 20        	lda	#$20
    1ca4: 92 12        	sta	($12)                   ; 0x2012 <malloc+0xd4>
    1ca6: 80 07        	bra	$1caf <printf+0xb0c>
    1ca8: a2 00        	ldx	#$0
    1caa: a9 20        	lda	#$20
    1cac: 20 7c 1d     	jsr	$1d7c <putchar>
    1caf: a6 92        	ldx	$92                     ; 0x2092 <malloc+0x154>
    1cb1: a5 93        	lda	$93                     ; 0x2093 <malloc+0x155>
    1cb3: e8           	inx
    1cb4: d0 01        	bne	$1cb7 <printf+0xb14>
    1cb6: 1a           	inc
    1cb7: 86 14        	stx	$14                     ; 0x2014 <malloc+0xd6>
    1cb9: 86 92        	stx	$92                     ; 0x2092 <malloc+0x154>
    1cbb: 85 93        	sta	$93                     ; 0x2093 <malloc+0x155>
    1cbd: a6 68        	ldx	$68                     ; 0x2068 <malloc+0x12a>
    1cbf: 86 12        	stx	$12                     ; 0x2012 <malloc+0xd4>
    1cc1: a6 67        	ldx	$67                     ; 0x2067 <malloc+0x129>
    1cc3: 86 13        	stx	$13                     ; 0x2013 <malloc+0xd5>
    1cc5: a2 ff        	ldx	#$ff
    1cc7: c6 12        	dec	$12                     ; 0x2012 <malloc+0xd4>
    1cc9: e4 12        	cpx	$12                     ; 0x2012 <malloc+0xd4>
    1ccb: d0 02        	bne	$1ccf <printf+0xb2c>
    1ccd: c6 13        	dec	$13                     ; 0x2013 <malloc+0xd5>
    1ccf: a6 12        	ldx	$12                     ; 0x2012 <malloc+0xd4>
    1cd1: 86 68        	stx	$68                     ; 0x2068 <malloc+0x12a>
    1cd3: a6 13        	ldx	$13                     ; 0x2013 <malloc+0xd5>
    1cd5: 86 67        	stx	$67                     ; 0x2067 <malloc+0x129>
    1cd7: d0 07        	bne	$1ce0 <printf+0xb3d>
    1cd9: a6 12        	ldx	$12                     ; 0x2012 <malloc+0xd4>
    1cdb: d0 03        	bne	$1ce0 <printf+0xb3d>
    1cdd: 4c 57 1c     	jmp	$1c57 <printf+0xab4>
    1ce0: c5 91        	cmp	$91                     ; 0x2091 <malloc+0x153>
    1ce2: f0 03        	beq	$1ce7 <printf+0xb44>
    1ce4: 4c 85 1c     	jmp	$1c85 <printf+0xae2>
    1ce7: a6 90        	ldx	$90                     ; 0x2090 <malloc+0x152>
    1ce9: 86 12        	stx	$12                     ; 0x2012 <malloc+0xd4>
    1ceb: a6 14        	ldx	$14                     ; 0x2014 <malloc+0xd6>
    1ced: e4 12        	cpx	$12                     ; 0x2012 <malloc+0xd4>
    1cef: b0 be        	bcs	$1caf <printf+0xb0c>
    1cf1: 4c 89 1c     	jmp	$1c89 <printf+0xae6>
    1cf4: 86 12        	stx	$12                     ; 0x2012 <malloc+0xd4>
    1cf6: c5 12        	cmp	$12                     ; 0x2012 <malloc+0xd4>
    1cf8: 98           	tya
    1cf9: a0 01        	ldy	#$1
    1cfb: 90 20        	bcc	$1d1d <printf+0xb7a>
    1cfd: a6 13        	ldx	$13                     ; 0x2013 <malloc+0xd5>
    1cff: d0 03        	bne	$1d04 <printf+0xb61>
    1d01: aa           	tax
    1d02: f0 19        	beq	$1d1d <printf+0xb7a>
    1d04: 18           	clc
    1d05: 65 96        	adc	$96                     ; 0x2096 <malloc+0x158>
    1d07: 85 12        	sta	$12                     ; 0x2012 <malloc+0xd4>
    1d09: a5 13        	lda	$13                     ; 0x2013 <malloc+0xd5>
    1d0b: 65 97        	adc	$97                     ; 0x2097 <malloc+0x159>
    1d0d: 85 13        	sta	$13                     ; 0x2013 <malloc+0xd5>
    1d0f: a2 ff        	ldx	#$ff
    1d11: c6 12        	dec	$12                     ; 0x2012 <malloc+0xd4>
    1d13: e4 12        	cpx	$12                     ; 0x2012 <malloc+0xd4>
    1d15: d0 02        	bne	$1d19 <printf+0xb76>
    1d17: c6 13        	dec	$13                     ; 0x2013 <malloc+0xd5>
    1d19: a9 00        	lda	#$0
    1d1b: 92 12        	sta	($12)                   ; 0x2012 <malloc+0xd4>
    1d1d: e6 5f        	inc	$5f                     ; 0x205f <malloc+0x121>
    1d1f: d0 02        	bne	$1d23 <printf+0xb80>
    1d21: e6 60        	inc	$60                     ; 0x2060 <malloc+0x122>
    1d23: a6 60        	ldx	$60                     ; 0x2060 <malloc+0x122>
    1d25: e4 64        	cpx	$64                     ; 0x2064 <malloc+0x126>
    1d27: f0 03        	beq	$1d2c <printf+0xb89>
    1d29: 4c 08 12     	jmp	$1208 <printf+0x65>
    1d2c: a6 5f        	ldx	$5f                     ; 0x205f <malloc+0x121>
    1d2e: e4 63        	cpx	$63                     ; 0x2063 <malloc+0x125>
    1d30: f0 03        	beq	$1d35 <printf+0xb92>
    1d32: 4c 08 12     	jmp	$1208 <printf+0x65>
    1d35: b2 63        	lda	($63)                   ; 0x2063 <malloc+0x125>
    1d37: a2 00        	ldx	#$0
    1d39: a0 00        	ldy	#$0
    1d3b: 84 61        	sty	$61                     ; 0x2061 <malloc+0x123>
    1d3d: a0 00        	ldy	#$0
    1d3f: 84 62        	sty	$62                     ; 0x2062 <malloc+0x124>
    1d41: 4c 1e 12     	jmp	$121e <printf+0x7b>
    1d44: e4 66        	cpx	$66                     ; 0x2066 <malloc+0x128>
    1d46: a6 5e        	ldx	$5e                     ; 0x205e <malloc+0x120>
    1d48: b0 03        	bcs	$1d4d <printf+0xbaa>
    1d4a: 4c 5c 18     	jmp	$185c <printf+0x6b9>
    1d4d: a5 5d        	lda	$5d                     ; 0x205d <malloc+0x11f>
    1d4f: 85 65        	sta	$65                     ; 0x2065 <malloc+0x127>
    1d51: 64 66        	stz	$66                     ; 0x2066 <malloc+0x128>
    1d53: e6 65        	inc	$65                     ; 0x2065 <malloc+0x127>
    1d55: f0 03        	beq	$1d5a <printf+0xbb7>
    1d57: 4c 5c 18     	jmp	$185c <printf+0x6b9>
    1d5a: e6 66        	inc	$66                     ; 0x2066 <malloc+0x128>
    1d5c: 4c 5c 18     	jmp	$185c <printf+0x6b9>
    1d5f: a2 58        	ldx	#$58
    1d61: 86 a7        	stx	$a7                     ; 0x20a7 <malloc+0x169>
    1d63: a2 01        	ldx	#$1
    1d65: 86 a2        	stx	$a2                     ; 0x20a2 <malloc+0x164>
    1d67: a2 30        	ldx	#$30
    1d69: 86 a6        	stx	$a6                     ; 0x20a6 <malloc+0x168>
    1d6b: a9 02        	lda	#$2
    1d6d: a2 00        	ldx	#$0
    1d6f: 86 a3        	stx	$a3                     ; 0x20a3 <malloc+0x165>
    1d71: 4c 9d 18     	jmp	$189d <printf+0x6fa>
    1d74: 64 68        	stz	$68                     ; 0x2068 <malloc+0x12a>
    1d76: 64 67        	stz	$67                     ; 0x2067 <malloc+0x129>
    1d78: 4c ce 1a     	jmp	$1ace <printf+0x92b>
    1d7b: 60           	rts

00001d7c <putchar>:
    1d7c: 86 12        	stx	$12                     ; 0x2012 <malloc+0xd4>
    1d7e: 85 b5        	sta	$b5                     ; 0x20b5 <malloc+0x177>
    1d80: 85 32        	sta	$32                     ; 0x2032 <malloc+0xf4>
    1d82: a6 01        	ldx	$1                      ; 0x2001 <malloc+0xc3>
    1d84: 86 b4        	stx	$b4                     ; 0x20b4 <malloc+0x176>
    1d86: a6 31        	ldx	$31                     ; 0x2031 <malloc+0xf3>
    1d88: a0 50        	ldy	#$50
    1d8a: 8c 00 de     	sty	$de00                   ; 0xde00 <end_block9+0xbb06>
    1d8d: 9c 01 de     	stz	$de01                   ; 0xde01 <end_block9+0xbb07>
    1d90: 8e 02 de     	stx	$de02                   ; 0xde02 <end_block9+0xbb08>
    1d93: 9c 03 de     	stz	$de03                   ; 0xde03 <end_block9+0xbb09>
    1d96: ad 10 de     	lda	$de10                   ; 0xde10 <end_block9+0xbb16>
    1d99: ac 11 de     	ldy	$de11                   ; 0xde11 <end_block9+0xbb17>
    1d9c: ae 12 de     	ldx	$de12                   ; 0xde12 <end_block9+0xbb18>
    1d9f: 86 1a        	stx	$1a                     ; 0x201a <malloc+0xdc>
    1da1: ae 13 de     	ldx	$de13                   ; 0xde13 <end_block9+0xbb19>
    1da4: 86 1b        	stx	$1b                     ; 0x201b <malloc+0xdd>
    1da6: 9c 08 de     	stz	$de08                   ; 0xde08 <end_block9+0xbb0e>
    1da9: a2 c0        	ldx	#$c0
    1dab: 8e 09 de     	stx	$de09                   ; 0xde09 <end_block9+0xbb0f>
    1dae: 9c 0a de     	stz	$de0a                   ; 0xde0a <end_block9+0xbb10>
    1db1: 9c 0b de     	stz	$de0b                   ; 0xde0b <end_block9+0xbb11>
    1db4: 8d 0c de     	sta	$de0c                   ; 0xde0c <end_block9+0xbb12>
    1db7: 8c 0d de     	sty	$de0d                   ; 0xde0d <end_block9+0xbb13>
    1dba: 64 13        	stz	$13                     ; 0x2013 <malloc+0xd5>
    1dbc: a2 00        	ldx	#$0
    1dbe: 86 14        	stx	$14                     ; 0x2014 <malloc+0xd6>
    1dc0: a2 c0        	ldx	#$c0
    1dc2: 86 15        	stx	$15                     ; 0x2015 <malloc+0xd7>
    1dc4: a2 11        	ldx	#$11
    1dc6: 86 16        	stx	$16                     ; 0x2016 <malloc+0xd8>
    1dc8: a2 c9        	ldx	#$c9
    1dca: 86 17        	stx	$17                     ; 0x2017 <malloc+0xd9>
    1dcc: a2 10        	ldx	#$10
    1dce: 86 18        	stx	$18                     ; 0x2018 <malloc+0xda>
    1dd0: a2 c9        	ldx	#$c9
    1dd2: 86 19        	stx	$19                     ; 0x2019 <malloc+0xdb>
    1dd4: a6 1a        	ldx	$1a                     ; 0x201a <malloc+0xdc>
    1dd6: 8e 0e de     	stx	$de0e                   ; 0xde0e <end_block9+0xbb14>
    1dd9: a6 1b        	ldx	$1b                     ; 0x201b <malloc+0xdd>
    1ddb: 8e 0f de     	stx	$de0f                   ; 0xde0f <end_block9+0xbb15>
    1dde: ad 18 de     	lda	$de18                   ; 0xde18 <end_block9+0xbb1e>
    1de1: ac 19 de     	ldy	$de19                   ; 0xde19 <end_block9+0xbb1f>
    1de4: ae 1a de     	ldx	$de1a                   ; 0xde1a <end_block9+0xbb20>
    1de7: ae 1b de     	ldx	$de1b                   ; 0xde1b <end_block9+0xbb21>
    1dea: 85 1c        	sta	$1c                     ; 0x201c <malloc+0xde>
    1dec: 84 1d        	sty	$1d                     ; 0x201d <malloc+0xdf>
    1dee: 64 1a        	stz	$1a                     ; 0x201a <malloc+0xdc>
    1df0: 80 13        	bra	$1e05 <putchar+0x89>
    1df2: a5 1c        	lda	$1c                     ; 0x201c <malloc+0xde>
    1df4: 18           	clc
    1df5: 69 50        	adc	#$50
    1df7: 85 1c        	sta	$1c                     ; 0x201c <malloc+0xde>
    1df9: a5 1d        	lda	$1d                     ; 0x201d <malloc+0xdf>
    1dfb: 69 00        	adc	#$0
    1dfd: 85 1d        	sta	$1d                     ; 0x201d <malloc+0xdf>
    1dff: e6 13        	inc	$13                     ; 0x2013 <malloc+0xd5>
    1e01: d0 02        	bne	$1e05 <putchar+0x89>
    1e03: e6 1a        	inc	$1a                     ; 0x201a <malloc+0xdc>
    1e05: a9 32        	lda	#$32
    1e07: 18           	clc
    1e08: 65 13        	adc	$13                     ; 0x2013 <malloc+0xd5>
    1e0a: 85 1e        	sta	$1e                     ; 0x201e <malloc+0xe0>
    1e0c: a9 00        	lda	#$0
    1e0e: 65 1a        	adc	$1a                     ; 0x201a <malloc+0xdc>
    1e10: 85 1f        	sta	$1f                     ; 0x201f <malloc+0xe1>
    1e12: b2 1e        	lda	($1e)                   ; 0x201e <malloc+0xe0>
    1e14: c9 0a        	cmp	#$a
    1e16: f0 26        	beq	$1e3e <putchar+0xc2>
    1e18: c9 0d        	cmp	#$d
    1e1a: f0 22        	beq	$1e3e <putchar+0xc2>
    1e1c: aa           	tax
    1e1d: d0 03        	bne	$1e22 <putchar+0xa6>
    1e1f: 4c 23 1f     	jmp	$1f23 <putchar+0x1a7>
    1e22: a2 03        	ldx	#$3
    1e24: 86 01        	stx	$1                      ; 0x2001 <malloc+0xc3>
    1e26: a4 30        	ldy	$30                     ; 0x2030 <malloc+0xf2>
    1e28: a9 f0        	lda	#$f0
    1e2a: 91 1c        	sta	($1c),y                 ; 0x201c <malloc+0xde>
    1e2c: ca           	dex
    1e2d: 86 01        	stx	$1                      ; 0x2001 <malloc+0xc3>
    1e2f: b2 1e        	lda	($1e)                   ; 0x201e <malloc+0xe0>
    1e31: a4 30        	ldy	$30                     ; 0x2030 <malloc+0xf2>
    1e33: 91 1c        	sta	($1c),y                 ; 0x201c <malloc+0xde>
    1e35: a6 30        	ldx	$30                     ; 0x2030 <malloc+0xf2>
    1e37: e8           	inx
    1e38: e6 30        	inc	$30                     ; 0x2030 <malloc+0xf2>
    1e3a: e0 50        	cpx	#$50
    1e3c: d0 c1        	bne	$1dff <putchar+0x83>
    1e3e: 64 30        	stz	$30                     ; 0x2030 <malloc+0xf2>
    1e40: a6 31        	ldx	$31                     ; 0x2031 <malloc+0xf3>
    1e42: e8           	inx
    1e43: e6 31        	inc	$31                     ; 0x2031 <malloc+0xf3>
    1e45: e0 1e        	cpx	#$1e
    1e47: f0 03        	beq	$1e4c <putchar+0xd0>
    1e49: 4c f2 1d     	jmp	$1df2 <putchar+0x76>
    1e4c: a2 03        	ldx	#$3
    1e4e: 86 01        	stx	$1                      ; 0x2001 <malloc+0xc3>
    1e50: a2 01        	ldx	#$1
    1e52: 86 1b        	stx	$1b                     ; 0x201b <malloc+0xdd>
    1e54: a2 09        	ldx	#$9
    1e56: a0 10        	ldy	#$10
    1e58: a9 00        	lda	#$0
    1e5a: 85 1c        	sta	$1c                     ; 0x201c <malloc+0xde>
    1e5c: a9 c0        	lda	#$c0
    1e5e: 85 1d        	sta	$1d                     ; 0x201d <malloc+0xdf>
    1e60: 84 1e        	sty	$1e                     ; 0x201e <malloc+0xe0>
    1e62: a0 50        	ldy	#$50
    1e64: b1 1c        	lda	($1c),y                 ; 0x201c <malloc+0xde>
    1e66: 92 1c        	sta	($1c)                   ; 0x201c <malloc+0xde>
    1e68: a0 ff        	ldy	#$ff
    1e6a: c6 1e        	dec	$1e                     ; 0x201e <malloc+0xe0>
    1e6c: c4 1e        	cpy	$1e                     ; 0x201e <malloc+0xe0>
    1e6e: d0 01        	bne	$1e71 <putchar+0xf5>
    1e70: ca           	dex
    1e71: e6 1c        	inc	$1c                     ; 0x201c <malloc+0xde>
    1e73: d0 02        	bne	$1e77 <putchar+0xfb>
    1e75: e6 1d        	inc	$1d                     ; 0x201d <malloc+0xdf>
    1e77: 8a           	txa
    1e78: d0 e8        	bne	$1e62 <putchar+0xe6>
    1e7a: a5 1e        	lda	$1e                     ; 0x201e <malloc+0xe0>
    1e7c: d0 e4        	bne	$1e62 <putchar+0xe6>
    1e7e: a2 02        	ldx	#$2
    1e80: 86 01        	stx	$1                      ; 0x2001 <malloc+0xc3>
    1e82: a2 00        	ldx	#$0
    1e84: a5 1b        	lda	$1b                     ; 0x201b <malloc+0xdd>
    1e86: d0 ca        	bne	$1e52 <putchar+0xd6>
    1e88: a2 03        	ldx	#$3
    1e8a: 86 01        	stx	$1                      ; 0x2001 <malloc+0xc3>
    1e8c: a2 50        	ldx	#$50
    1e8e: a0 11        	ldy	#$11
    1e90: 84 1c        	sty	$1c                     ; 0x201c <malloc+0xde>
    1e92: a0 c9        	ldy	#$c9
    1e94: 84 1d        	sty	$1d                     ; 0x201d <malloc+0xdf>
    1e96: a0 10        	ldy	#$10
    1e98: 84 1e        	sty	$1e                     ; 0x201e <malloc+0xe0>
    1e9a: a0 c9        	ldy	#$c9
    1e9c: 84 1f        	sty	$1f                     ; 0x201f <malloc+0xe1>
    1e9e: a9 f0        	lda	#$f0
    1ea0: a4 1c        	ldy	$1c                     ; 0x201c <malloc+0xde>
    1ea2: 84 22        	sty	$22                     ; 0x2022 <malloc+0xe4>
    1ea4: a4 1d        	ldy	$1d                     ; 0x201d <malloc+0xdf>
    1ea6: 84 23        	sty	$23                     ; 0x2023 <malloc+0xe5>
    1ea8: 92 1e        	sta	($1e)                   ; 0x201e <malloc+0xe0>
    1eaa: e6 1c        	inc	$1c                     ; 0x201c <malloc+0xde>
    1eac: d0 02        	bne	$1eb0 <putchar+0x134>
    1eae: e6 1d        	inc	$1d                     ; 0x201d <malloc+0xdf>
    1eb0: ca           	dex
    1eb1: a4 22        	ldy	$22                     ; 0x2022 <malloc+0xe4>
    1eb3: 84 1e        	sty	$1e                     ; 0x201e <malloc+0xe0>
    1eb5: a4 23        	ldy	$23                     ; 0x2023 <malloc+0xe5>
    1eb7: 84 1f        	sty	$1f                     ; 0x201f <malloc+0xe1>
    1eb9: e0 00        	cpx	#$0
    1ebb: d0 e3        	bne	$1ea0 <putchar+0x124>
    1ebd: a2 02        	ldx	#$2
    1ebf: 86 01        	stx	$1                      ; 0x2001 <malloc+0xc3>
    1ec1: a2 50        	ldx	#$50
    1ec3: a0 11        	ldy	#$11
    1ec5: 84 1c        	sty	$1c                     ; 0x201c <malloc+0xde>
    1ec7: a0 c9        	ldy	#$c9
    1ec9: 84 1d        	sty	$1d                     ; 0x201d <malloc+0xdf>
    1ecb: a0 10        	ldy	#$10
    1ecd: 84 1e        	sty	$1e                     ; 0x201e <malloc+0xe0>
    1ecf: a0 c9        	ldy	#$c9
    1ed1: 84 1f        	sty	$1f                     ; 0x201f <malloc+0xe1>
    1ed3: a9 20        	lda	#$20
    1ed5: a4 1c        	ldy	$1c                     ; 0x201c <malloc+0xde>
    1ed7: 84 22        	sty	$22                     ; 0x2022 <malloc+0xe4>
    1ed9: a4 1d        	ldy	$1d                     ; 0x201d <malloc+0xdf>
    1edb: 84 23        	sty	$23                     ; 0x2023 <malloc+0xe5>
    1edd: 92 1e        	sta	($1e)                   ; 0x201e <malloc+0xe0>
    1edf: e6 1c        	inc	$1c                     ; 0x201c <malloc+0xde>
    1ee1: d0 02        	bne	$1ee5 <putchar+0x169>
    1ee3: e6 1d        	inc	$1d                     ; 0x201d <malloc+0xdf>
    1ee5: ca           	dex
    1ee6: a4 22        	ldy	$22                     ; 0x2022 <malloc+0xe4>
    1ee8: 84 1e        	sty	$1e                     ; 0x201e <malloc+0xe0>
    1eea: a4 23        	ldy	$23                     ; 0x2023 <malloc+0xe5>
    1eec: 84 1f        	sty	$1f                     ; 0x201f <malloc+0xe1>
    1eee: e0 00        	cpx	#$0
    1ef0: d0 e3        	bne	$1ed5 <putchar+0x159>
    1ef2: c6 31        	dec	$31                     ; 0x2031 <malloc+0xf3>
    1ef4: 9c 08 de     	stz	$de08                   ; 0xde08 <end_block9+0xbb0e>
    1ef7: a2 c0        	ldx	#$c0
    1ef9: 8e 09 de     	stx	$de09                   ; 0xde09 <end_block9+0xbb0f>
    1efc: 9c 0a de     	stz	$de0a                   ; 0xde0a <end_block9+0xbb10>
    1eff: 9c 0b de     	stz	$de0b                   ; 0xde0b <end_block9+0xbb11>
    1f02: a2 1d        	ldx	#$1d
    1f04: 8e 0c de     	stx	$de0c                   ; 0xde0c <end_block9+0xbb12>
    1f07: 9c 0d de     	stz	$de0d                   ; 0xde0d <end_block9+0xbb13>
    1f0a: 9c 0e de     	stz	$de0e                   ; 0xde0e <end_block9+0xbb14>
    1f0d: 9c 0f de     	stz	$de0f                   ; 0xde0f <end_block9+0xbb15>
    1f10: ad 18 de     	lda	$de18                   ; 0xde18 <end_block9+0xbb1e>
    1f13: ac 19 de     	ldy	$de19                   ; 0xde19 <end_block9+0xbb1f>
    1f16: ae 1a de     	ldx	$de1a                   ; 0xde1a <end_block9+0xbb20>
    1f19: ae 1b de     	ldx	$de1b                   ; 0xde1b <end_block9+0xbb21>
    1f1c: 85 1c        	sta	$1c                     ; 0x201c <malloc+0xde>
    1f1e: 84 1d        	sty	$1d                     ; 0x201d <malloc+0xdf>
    1f20: 4c ff 1d     	jmp	$1dff <putchar+0x83>
    1f23: a6 b4        	ldx	$b4                     ; 0x20b4 <malloc+0x176>
    1f25: 86 01        	stx	$1                      ; 0x2001 <malloc+0xc3>
    1f27: a6 30        	ldx	$30                     ; 0x2030 <malloc+0xf2>
    1f29: a4 31        	ldy	$31                     ; 0x2031 <malloc+0xf3>
    1f2b: 8e 14 d0     	stx	$d014                   ; 0xd014 <end_block9+0xad1a>
    1f2e: 9c 15 d0     	stz	$d015                   ; 0xd015 <end_block9+0xad1b>
    1f31: 84 31        	sty	$31                     ; 0x2031 <malloc+0xf3>
    1f33: 8c 16 d0     	sty	$d016                   ; 0xd016 <end_block9+0xad1c>
    1f36: 9c 17 d0     	stz	$d017                   ; 0xd017 <end_block9+0xad1d>
    1f39: a6 12        	ldx	$12                     ; 0x2012 <malloc+0xd4>
    1f3b: a5 b5        	lda	$b5                     ; 0x20b5 <malloc+0x177>
    1f3d: 60           	rts

00001f3e <malloc>:
    1f3e: a8           	tay
    1f3f: 8a           	txa
    1f40: a2 00        	ldx	#$0
    1f42: 86 12        	stx	$12                     ; 0x2012 <malloc+0xd4>
    1f44: a2 00        	ldx	#$0
    1f46: 86 13        	stx	$13                     ; 0x2013 <malloc+0xd5>
    1f48: aa           	tax
    1f49: d0 07        	bne	$1f52 <malloc+0x14>
    1f4b: c0 00        	cpy	#$0
    1f4d: d0 03        	bne	$1f52 <malloc+0x14>
    1f4f: 4c 4e 20     	jmp	$204e <malloc+0x110>
    1f52: 84 16        	sty	$16                     ; 0x2016 <malloc+0xd8>
    1f54: aa           	tax
    1f55: d0 0e        	bne	$1f65 <malloc+0x27>
    1f57: a6 16        	ldx	$16                     ; 0x2016 <malloc+0xd8>
    1f59: e0 07        	cpx	#$7
    1f5b: b0 0c        	bcs	$1f69 <malloc+0x2b>
    1f5d: a2 08        	ldx	#$8
    1f5f: 86 60        	stx	$60                     ; 0x2060 <malloc+0x122>
    1f61: a9 00        	lda	#$0
    1f63: 80 2f        	bra	$1f94 <malloc+0x56>
    1f65: c9 00        	cmp	#$0
    1f67: 90 f4        	bcc	$1f5d <malloc+0x1f>
    1f69: a8           	tay
    1f6a: a5 16        	lda	$16                     ; 0x2016 <malloc+0xd8>
    1f6c: 29 01        	and	#$1
    1f6e: a2 02        	ldx	#$2
    1f70: 64 14        	stz	$14                     ; 0x2014 <malloc+0xd6>
    1f72: c9 00        	cmp	#$0
    1f74: f0 02        	beq	$1f78 <malloc+0x3a>
    1f76: a2 03        	ldx	#$3
    1f78: 86 15        	stx	$15                     ; 0x2015 <malloc+0xd7>
    1f7a: 18           	clc
    1f7b: a5 16        	lda	$16                     ; 0x2016 <malloc+0xd8>
    1f7d: 65 15        	adc	$15                     ; 0x2015 <malloc+0xd7>
    1f7f: aa           	tax
    1f80: 98           	tya
    1f81: 65 14        	adc	$14                     ; 0x2014 <malloc+0xd6>
    1f83: 90 03        	bcc	$1f88 <malloc+0x4a>
    1f85: 4c 4e 20     	jmp	$204e <malloc+0x110>
    1f88: 86 60        	stx	$60                     ; 0x2060 <malloc+0x122>
    1f8a: a8           	tay
    1f8b: d0 07        	bne	$1f94 <malloc+0x56>
    1f8d: e0 00        	cpx	#$0
    1f8f: d0 03        	bne	$1f94 <malloc+0x56>
    1f91: 4c 4e 20     	jmp	$204e <malloc+0x110>
    1f94: 85 61        	sta	$61                     ; 0x2061 <malloc+0x123>
    1f96: ad f5 22     	lda	$22f5                   ; 0x22f5 <__bss_start>
    1f99: 29 01        	and	#$1
    1f9b: d0 2a        	bne	$1fc7 <malloc+0x89>
    1f9d: a9 00        	lda	#$0
    1f9f: a2 10        	ldx	#$10
    1fa1: a0 fa        	ldy	#$fa
    1fa3: 84 12        	sty	$12                     ; 0x2012 <malloc+0xd4>
    1fa5: a0 22        	ldy	#$22
    1fa7: 84 13        	sty	$13                     ; 0x2013 <malloc+0xd5>
    1fa9: 20 16 03     	jsr	$316 <_ZN12_GLOBAL__N_19FreeChunk6insertEPvj>
    1fac: a2 00        	ldx	#$0
    1fae: 86 12        	stx	$12                     ; 0x2012 <malloc+0xd4>
    1fb0: a2 00        	ldx	#$0
    1fb2: 86 13        	stx	$13                     ; 0x2013 <malloc+0xd5>
    1fb4: ae fb 22     	ldx	$22fb                   ; 0x22fb <end_block9+0x1>
    1fb7: a9 fe        	lda	#$fe
    1fb9: 2d fa 22     	and	$22fa                   ; 0x22fa <end_block9>
    1fbc: 8d fa 22     	sta	$22fa                   ; 0x22fa <end_block9>
    1fbf: 8e fb 22     	stx	$22fb                   ; 0x22fb <end_block9+0x1>
    1fc2: a2 01        	ldx	#$1
    1fc4: 8e f5 22     	stx	$22f5                   ; 0x22f5 <__bss_start>
    1fc7: ad f8 22     	lda	$22f8                   ; 0x22f8 <_ZN12_GLOBAL__N_19free_listE>
    1fca: ae f9 22     	ldx	$22f9                   ; 0x22f9 <_ZN12_GLOBAL__N_19free_listE+0x1>
    1fcd: a0 00        	ldy	#$0
    1fcf: 84 14        	sty	$14                     ; 0x2014 <malloc+0xd6>
    1fd1: a0 00        	ldy	#$0
    1fd3: 84 15        	sty	$15                     ; 0x2015 <malloc+0xd7>
    1fd5: 86 1d        	stx	$1d                     ; 0x201d <malloc+0xdf>
    1fd7: e4 15        	cpx	$15                     ; 0x2015 <malloc+0xd7>
    1fd9: d0 07        	bne	$1fe2 <malloc+0xa4>
    1fdb: c5 14        	cmp	$14                     ; 0x2014 <malloc+0xd6>
    1fdd: d0 03        	bne	$1fe2 <malloc+0xa4>
    1fdf: 4c 4e 20     	jmp	$204e <malloc+0x110>
    1fe2: a0 00        	ldy	#$0
    1fe4: a2 10        	ldx	#$10
    1fe6: 85 18        	sta	$18                     ; 0x2018 <malloc+0xda>
    1fe8: 84 14        	sty	$14                     ; 0x2014 <malloc+0xd6>
    1fea: 86 15        	stx	$15                     ; 0x2015 <malloc+0xd7>
    1fec: 18           	clc
    1fed: a9 fa        	lda	#$fa
    1fef: 65 14        	adc	$14                     ; 0x2014 <malloc+0xd6>
    1ff1: 85 14        	sta	$14                     ; 0x2014 <malloc+0xd6>
    1ff3: a9 22        	lda	#$22
    1ff5: 65 15        	adc	$15                     ; 0x2015 <malloc+0xd7>
    1ff7: a6 14        	ldx	$14                     ; 0x2014 <malloc+0xd6>
    1ff9: 86 62        	stx	$62                     ; 0x2062 <malloc+0x124>
    1ffb: 85 17        	sta	$17                     ; 0x2017 <malloc+0xd9>
    1ffd: a6 18        	ldx	$18                     ; 0x2018 <malloc+0xda>
    1fff: 86 1c        	stx	$1c                     ; 0x201c <malloc+0xde>
    2001: a6 18        	ldx	$18                     ; 0x2018 <malloc+0xda>
    2003: 86 14        	stx	$14                     ; 0x2014 <malloc+0xd6>
    2005: a6 1d        	ldx	$1d                     ; 0x201d <malloc+0xdf>
    2007: 86 15        	stx	$15                     ; 0x2015 <malloc+0xd7>
    2009: a0 01        	ldy	#$1
    200b: a6 61        	ldx	$61                     ; 0x2061 <malloc+0x123>
    200d: 86 18        	stx	$18                     ; 0x2018 <malloc+0xda>
    200f: b1 14        	lda	($14),y                 ; 0x2014 <malloc+0xd6>
    2011: 85 19        	sta	$19                     ; 0x2019 <malloc+0xdb>
    2013: aa           	tax
    2014: a9 fe        	lda	#$fe
    2016: 32 14        	and	($14)                   ; 0x2014 <malloc+0xd6>
    2018: 85 1a        	sta	$1a                     ; 0x201a <malloc+0xdc>
    201a: e4 18        	cpx	$18                     ; 0x2018 <malloc+0xda>
    201c: d0 0a        	bne	$2028 <malloc+0xea>
    201e: a6 60        	ldx	$60                     ; 0x2060 <malloc+0x122>
    2020: 86 1b        	stx	$1b                     ; 0x201b <malloc+0xdd>
    2022: c5 1b        	cmp	$1b                     ; 0x201b <malloc+0xdd>
    2024: b0 29        	bcs	$204f <malloc+0x111>
    2026: 80 04        	bra	$202c <malloc+0xee>
    2028: e4 18        	cpx	$18                     ; 0x2018 <malloc+0xda>
    202a: b0 23        	bcs	$204f <malloc+0x111>
    202c: a5 14        	lda	$14                     ; 0x2014 <malloc+0xd6>
    202e: 18           	clc
    202f: 69 02        	adc	#$2
    2031: 85 1a        	sta	$1a                     ; 0x201a <malloc+0xdc>
    2033: a5 15        	lda	$15                     ; 0x2015 <malloc+0xd7>
    2035: 69 00        	adc	#$0
    2037: 85 1b        	sta	$1b                     ; 0x201b <malloc+0xdd>
    2039: a0 02        	ldy	#$2
    203b: b1 14        	lda	($14),y                 ; 0x2014 <malloc+0xd6>
    203d: 85 14        	sta	$14                     ; 0x2014 <malloc+0xd6>
    203f: 88           	dey
    2040: b1 1a        	lda	($1a),y                 ; 0x201a <malloc+0xdc>
    2042: 85 15        	sta	$15                     ; 0x2015 <malloc+0xd7>
    2044: c5 1d        	cmp	$1d                     ; 0x201d <malloc+0xdf>
    2046: d0 c7        	bne	$200f <malloc+0xd1>
    2048: a5 14        	lda	$14                     ; 0x2014 <malloc+0xd6>
    204a: c5 1c        	cmp	$1c                     ; 0x201c <malloc+0xde>
    204c: d0 c1        	bne	$200f <malloc+0xd1>
    204e: 60           	rts
    204f: ad f6 22     	lda	$22f6                   ; 0x22f6 <_ZN12_GLOBAL__N_19free_sizeE>
    2052: ae f7 22     	ldx	$22f7                   ; 0x22f7 <_ZN12_GLOBAL__N_19free_sizeE+0x1>
    2055: 86 12        	stx	$12                     ; 0x2012 <malloc+0xd4>
    2057: 38           	sec
    2058: e5 1a        	sbc	$1a                     ; 0x201a <malloc+0xdc>
    205a: aa           	tax
    205b: a5 12        	lda	$12                     ; 0x2012 <malloc+0xd4>
    205d: e5 19        	sbc	$19                     ; 0x2019 <malloc+0xdb>
    205f: 85 12        	sta	$12                     ; 0x2012 <malloc+0xd4>
    2061: 18           	clc
    2062: 8a           	txa
    2063: 69 02        	adc	#$2
    2065: 85 13        	sta	$13                     ; 0x2013 <malloc+0xd5>
    2067: a5 12        	lda	$12                     ; 0x2012 <malloc+0xd4>
    2069: 69 00        	adc	#$0
    206b: a6 13        	ldx	$13                     ; 0x2013 <malloc+0xd5>
    206d: 8e f6 22     	stx	$22f6                   ; 0x22f6 <_ZN12_GLOBAL__N_19free_sizeE>
    2070: 8d f7 22     	sta	$22f7                   ; 0x22f7 <_ZN12_GLOBAL__N_19free_sizeE+0x1>
    2073: a0 02        	ldy	#$2
    2075: a5 14        	lda	$14                     ; 0x2014 <malloc+0xd6>
    2077: 18           	clc
    2078: 69 02        	adc	#$2
    207a: 85 12        	sta	$12                     ; 0x2012 <malloc+0xd4>
    207c: a5 15        	lda	$15                     ; 0x2015 <malloc+0xd7>
    207e: 69 00        	adc	#$0
    2080: 85 13        	sta	$13                     ; 0x2013 <malloc+0xd5>
    2082: b1 14        	lda	($14),y                 ; 0x2014 <malloc+0xd6>
    2084: 85 1e        	sta	$1e                     ; 0x201e <malloc+0xe0>
    2086: 88           	dey
    2087: b1 12        	lda	($12),y                 ; 0x2012 <malloc+0xd4>
    2089: 85 1f        	sta	$1f                     ; 0x201f <malloc+0xe1>
    208b: c5 15        	cmp	$15                     ; 0x2015 <malloc+0xd7>
    208d: d0 15        	bne	$20a4 <malloc+0x166>
    208f: a5 61        	lda	$61                     ; 0x2061 <malloc+0x123>
    2091: a6 1e        	ldx	$1e                     ; 0x201e <malloc+0xe0>
    2093: e4 14        	cpx	$14                     ; 0x2014 <malloc+0xd6>
    2095: d0 0d        	bne	$20a4 <malloc+0x166>
    2097: 85 1a        	sta	$1a                     ; 0x201a <malloc+0xdc>
    2099: a2 00        	ldx	#$0
    209b: 86 18        	stx	$18                     ; 0x2018 <malloc+0xda>
    209d: a2 00        	ldx	#$0
    209f: 86 19        	stx	$19                     ; 0x2019 <malloc+0xdb>
    20a1: 4c 1e 21     	jmp	$211e <malloc+0x1e0>
    20a4: 18           	clc
    20a5: a5 14        	lda	$14                     ; 0x2014 <malloc+0xd6>
    20a7: 69 04        	adc	#$4
    20a9: 85 18        	sta	$18                     ; 0x2018 <malloc+0xda>
    20ab: a5 15        	lda	$15                     ; 0x2015 <malloc+0xd7>
    20ad: 69 00        	adc	#$0
    20af: 85 19        	sta	$19                     ; 0x2019 <malloc+0xdb>
    20b1: a0 04        	ldy	#$4
    20b3: b1 14        	lda	($14),y                 ; 0x2014 <malloc+0xd6>
    20b5: 85 23        	sta	$23                     ; 0x2023 <malloc+0xe5>
    20b7: 18           	clc
    20b8: 69 02        	adc	#$2
    20ba: 85 1a        	sta	$1a                     ; 0x201a <malloc+0xdc>
    20bc: a0 01        	ldy	#$1
    20be: b1 18        	lda	($18),y                 ; 0x2018 <malloc+0xda>
    20c0: 85 22        	sta	$22                     ; 0x2022 <malloc+0xe4>
    20c2: 69 00        	adc	#$0
    20c4: a6 1a        	ldx	$1a                     ; 0x201a <malloc+0xdc>
    20c6: 86 18        	stx	$18                     ; 0x2018 <malloc+0xda>
    20c8: 85 19        	sta	$19                     ; 0x2019 <malloc+0xdb>
    20ca: a6 23        	ldx	$23                     ; 0x2023 <malloc+0xe5>
    20cc: 86 1a        	stx	$1a                     ; 0x201a <malloc+0xdc>
    20ce: a6 22        	ldx	$22                     ; 0x2022 <malloc+0xe4>
    20d0: 86 1b        	stx	$1b                     ; 0x201b <malloc+0xdd>
    20d2: c8           	iny
    20d3: a5 1e        	lda	$1e                     ; 0x201e <malloc+0xe0>
    20d5: 91 1a        	sta	($1a),y                 ; 0x201a <malloc+0xdc>
    20d7: a5 1f        	lda	$1f                     ; 0x201f <malloc+0xe1>
    20d9: 88           	dey
    20da: 91 18        	sta	($18),y                 ; 0x2018 <malloc+0xda>
    20dc: 18           	clc
    20dd: a5 14        	lda	$14                     ; 0x2014 <malloc+0xd6>
    20df: 69 02        	adc	#$2
    20e1: 85 1a        	sta	$1a                     ; 0x201a <malloc+0xdc>
    20e3: a5 15        	lda	$15                     ; 0x2015 <malloc+0xd7>
    20e5: 69 00        	adc	#$0
    20e7: 85 1b        	sta	$1b                     ; 0x201b <malloc+0xdd>
    20e9: c8           	iny
    20ea: b1 14        	lda	($14),y                 ; 0x2014 <malloc+0xd6>
    20ec: 85 18        	sta	$18                     ; 0x2018 <malloc+0xda>
    20ee: aa           	tax
    20ef: 88           	dey
    20f0: b1 1a        	lda	($1a),y                 ; 0x201a <malloc+0xdc>
    20f2: 85 19        	sta	$19                     ; 0x2019 <malloc+0xdb>
    20f4: 85 16        	sta	$16                     ; 0x2016 <malloc+0xd8>
    20f6: a0 04        	ldy	#$4
    20f8: a5 23        	lda	$23                     ; 0x2023 <malloc+0xe5>
    20fa: 91 18        	sta	($18),y                 ; 0x2018 <malloc+0xda>
    20fc: 18           	clc
    20fd: 8a           	txa
    20fe: 69 04        	adc	#$4
    2100: 85 1a        	sta	$1a                     ; 0x201a <malloc+0xdc>
    2102: a5 16        	lda	$16                     ; 0x2016 <malloc+0xd8>
    2104: 69 00        	adc	#$0
    2106: 85 1b        	sta	$1b                     ; 0x201b <malloc+0xdd>
    2108: a5 22        	lda	$22                     ; 0x2022 <malloc+0xe4>
    210a: a0 01        	ldy	#$1
    210c: 91 1a        	sta	($1a),y                 ; 0x201a <malloc+0xdc>
    210e: a5 61        	lda	$61                     ; 0x2061 <malloc+0x123>
    2110: 85 1a        	sta	$1a                     ; 0x201a <malloc+0xdc>
    2112: a6 1d        	ldx	$1d                     ; 0x201d <malloc+0xdf>
    2114: e4 15        	cpx	$15                     ; 0x2015 <malloc+0xd7>
    2116: d0 10        	bne	$2128 <malloc+0x1ea>
    2118: a6 1c        	ldx	$1c                     ; 0x201c <malloc+0xde>
    211a: e4 14        	cpx	$14                     ; 0x2014 <malloc+0xd6>
    211c: d0 0a        	bne	$2128 <malloc+0x1ea>
    211e: a6 18        	ldx	$18                     ; 0x2018 <malloc+0xda>
    2120: a4 19        	ldy	$19                     ; 0x2019 <malloc+0xdb>
    2122: 8e f8 22     	stx	$22f8                   ; 0x22f8 <_ZN12_GLOBAL__N_19free_listE>
    2125: 8c f9 22     	sty	$22f9                   ; 0x22f9 <_ZN12_GLOBAL__N_19free_listE+0x1>
    2128: a0 01        	ldy	#$1
    212a: b1 14        	lda	($14),y                 ; 0x2014 <malloc+0xd6>
    212c: 85 16        	sta	$16                     ; 0x2016 <malloc+0xd8>
    212e: a9 fe        	lda	#$fe
    2130: 32 14        	and	($14)                   ; 0x2014 <malloc+0xd6>
    2132: 38           	sec
    2133: a6 60        	ldx	$60                     ; 0x2060 <malloc+0x122>
    2135: 86 18        	stx	$18                     ; 0x2018 <malloc+0xda>
    2137: a8           	tay
    2138: e5 18        	sbc	$18                     ; 0x2018 <malloc+0xda>
    213a: 85 19        	sta	$19                     ; 0x2019 <malloc+0xdb>
    213c: a5 16        	lda	$16                     ; 0x2016 <malloc+0xd8>
    213e: a6 16        	ldx	$16                     ; 0x2016 <malloc+0xd8>
    2140: e5 1a        	sbc	$1a                     ; 0x201a <malloc+0xdc>
    2142: f0 03        	beq	$2147 <malloc+0x209>
    2144: 4c d2 21     	jmp	$21d2 <malloc+0x294>
    2147: 85 16        	sta	$16                     ; 0x2016 <malloc+0xd8>
    2149: a5 19        	lda	$19                     ; 0x2019 <malloc+0xdb>
    214b: c9 08        	cmp	#$8
    214d: 86 18        	stx	$18                     ; 0x2018 <malloc+0xda>
    214f: b0 03        	bcs	$2154 <malloc+0x216>
    2151: 4c b5 21     	jmp	$21b5 <malloc+0x277>
    2154: a6 17        	ldx	$17                     ; 0x2017 <malloc+0xd9>
    2156: 86 67        	stx	$67                     ; 0x2067 <malloc+0x129>
    2158: a6 62        	ldx	$62                     ; 0x2062 <malloc+0x124>
    215a: 86 62        	stx	$62                     ; 0x2062 <malloc+0x124>
    215c: a6 12        	ldx	$12                     ; 0x2012 <malloc+0xd4>
    215e: 86 63        	stx	$63                     ; 0x2063 <malloc+0x125>
    2160: a6 13        	ldx	$13                     ; 0x2013 <malloc+0xd5>
    2162: 86 64        	stx	$64                     ; 0x2064 <malloc+0x126>
    2164: a8           	tay
    2165: 18           	clc
    2166: a5 60        	lda	$60                     ; 0x2060 <malloc+0x122>
    2168: 85 60        	sta	$60                     ; 0x2060 <malloc+0x122>
    216a: 65 14        	adc	$14                     ; 0x2014 <malloc+0xd6>
    216c: 85 12        	sta	$12                     ; 0x2012 <malloc+0xd4>
    216e: a5 1a        	lda	$1a                     ; 0x201a <malloc+0xdc>
    2170: a6 1a        	ldx	$1a                     ; 0x201a <malloc+0xdc>
    2172: 86 61        	stx	$61                     ; 0x2061 <malloc+0x123>
    2174: 65 15        	adc	$15                     ; 0x2015 <malloc+0xd7>
    2176: 85 13        	sta	$13                     ; 0x2013 <malloc+0xd5>
    2178: a6 16        	ldx	$16                     ; 0x2016 <malloc+0xd8>
    217a: 98           	tya
    217b: a4 14        	ldy	$14                     ; 0x2014 <malloc+0xd6>
    217d: 84 65        	sty	$65                     ; 0x2065 <malloc+0x127>
    217f: a4 15        	ldy	$15                     ; 0x2015 <malloc+0xd7>
    2181: 84 66        	sty	$66                     ; 0x2066 <malloc+0x128>
    2183: 20 16 03     	jsr	$316 <_ZN12_GLOBAL__N_19FreeChunk6insertEPvj>
    2186: a6 65        	ldx	$65                     ; 0x2065 <malloc+0x127>
    2188: 86 14        	stx	$14                     ; 0x2014 <malloc+0xd6>
    218a: a6 66        	ldx	$66                     ; 0x2066 <malloc+0x128>
    218c: 86 15        	stx	$15                     ; 0x2015 <malloc+0xd7>
    218e: a5 60        	lda	$60                     ; 0x2060 <malloc+0x122>
    2190: 29 fe        	and	#$fe
    2192: 85 12        	sta	$12                     ; 0x2012 <malloc+0xd4>
    2194: a0 01        	ldy	#$1
    2196: 98           	tya
    2197: 32 14        	and	($14)                   ; 0x2014 <malloc+0xd6>
    2199: 05 12        	ora	$12                     ; 0x2012 <malloc+0xd4>
    219b: 92 14        	sta	($14)                   ; 0x2014 <malloc+0xd6>
    219d: a5 61        	lda	$61                     ; 0x2061 <malloc+0x123>
    219f: 91 14        	sta	($14),y                 ; 0x2014 <malloc+0xd6>
    21a1: a4 12        	ldy	$12                     ; 0x2012 <malloc+0xd4>
    21a3: 85 18        	sta	$18                     ; 0x2018 <malloc+0xda>
    21a5: a6 63        	ldx	$63                     ; 0x2063 <malloc+0x125>
    21a7: 86 12        	stx	$12                     ; 0x2012 <malloc+0xd4>
    21a9: a6 64        	ldx	$64                     ; 0x2064 <malloc+0x126>
    21ab: 86 13        	stx	$13                     ; 0x2013 <malloc+0xd5>
    21ad: a6 62        	ldx	$62                     ; 0x2062 <malloc+0x124>
    21af: 86 62        	stx	$62                     ; 0x2062 <malloc+0x124>
    21b1: a6 67        	ldx	$67                     ; 0x2067 <malloc+0x129>
    21b3: 86 17        	stx	$17                     ; 0x2017 <malloc+0xd9>
    21b5: 18           	clc
    21b6: 98           	tya
    21b7: 65 14        	adc	$14                     ; 0x2014 <malloc+0xd6>
    21b9: 85 16        	sta	$16                     ; 0x2016 <malloc+0xd8>
    21bb: a5 15        	lda	$15                     ; 0x2015 <malloc+0xd7>
    21bd: 65 18        	adc	$18                     ; 0x2018 <malloc+0xda>
    21bf: 85 15        	sta	$15                     ; 0x2015 <malloc+0xd7>
    21c1: c5 17        	cmp	$17                     ; 0x2017 <malloc+0xd9>
    21c3: d0 1a        	bne	$21df <malloc+0x2a1>
    21c5: a6 62        	ldx	$62                     ; 0x2062 <malloc+0x124>
    21c7: 86 14        	stx	$14                     ; 0x2014 <malloc+0xd6>
    21c9: a6 16        	ldx	$16                     ; 0x2016 <malloc+0xd8>
    21cb: e4 14        	cpx	$14                     ; 0x2014 <malloc+0xd6>
    21cd: d0 12        	bne	$21e1 <malloc+0x2a3>
    21cf: 4c 4e 20     	jmp	$204e <malloc+0x110>
    21d2: 85 16        	sta	$16                     ; 0x2016 <malloc+0xd8>
    21d4: c9 00        	cmp	#$0
    21d6: 86 18        	stx	$18                     ; 0x2018 <malloc+0xda>
    21d8: a5 19        	lda	$19                     ; 0x2019 <malloc+0xdb>
    21da: 90 d9        	bcc	$21b5 <malloc+0x277>
    21dc: 4c 54 21     	jmp	$2154 <malloc+0x216>
    21df: a6 16        	ldx	$16                     ; 0x2016 <malloc+0xd8>
    21e1: 86 14        	stx	$14                     ; 0x2014 <malloc+0xd6>
    21e3: a0 01        	ldy	#$1
    21e5: b1 14        	lda	($14),y                 ; 0x2014 <malloc+0xd6>
    21e7: 85 16        	sta	$16                     ; 0x2016 <malloc+0xd8>
    21e9: a9 fe        	lda	#$fe
    21eb: 32 14        	and	($14)                   ; 0x2014 <malloc+0xd6>
    21ed: 92 14        	sta	($14)                   ; 0x2014 <malloc+0xd6>
    21ef: a5 16        	lda	$16                     ; 0x2016 <malloc+0xd8>
    21f1: 91 14        	sta	($14),y                 ; 0x2014 <malloc+0xd6>
    21f3: 60           	rts

000021f4 <memcpy>:
    21f4: a8           	tay
    21f5: 8a           	txa
    21f6: d0 03        	bne	$21fb <memcpy+0x7>
    21f8: 98           	tya
    21f9: f0 24        	beq	$221f <memcpy+0x2b>
    21fb: a5 12        	lda	$12                     ; 0x2012 <malloc+0xd4>
    21fd: 85 16        	sta	$16                     ; 0x2016 <malloc+0xd8>
    21ff: a5 13        	lda	$13                     ; 0x2013 <malloc+0xd5>
    2201: 85 17        	sta	$17                     ; 0x2017 <malloc+0xd9>
    2203: b2 14        	lda	($14)                   ; 0x2014 <malloc+0xd6>
    2205: 92 16        	sta	($16)                   ; 0x2016 <malloc+0xd8>
    2207: e6 16        	inc	$16                     ; 0x2016 <malloc+0xd8>
    2209: d0 02        	bne	$220d <memcpy+0x19>
    220b: e6 17        	inc	$17                     ; 0x2017 <malloc+0xd9>
    220d: e6 14        	inc	$14                     ; 0x2014 <malloc+0xd6>
    220f: d0 02        	bne	$2213 <memcpy+0x1f>
    2211: e6 15        	inc	$15                     ; 0x2015 <malloc+0xd7>
    2213: 88           	dey
    2214: c0 ff        	cpy	#$ff
    2216: d0 01        	bne	$2219 <memcpy+0x25>
    2218: ca           	dex
    2219: 8a           	txa
    221a: d0 e7        	bne	$2203 <memcpy+0xf>
    221c: 98           	tya
    221d: d0 e4        	bne	$2203 <memcpy+0xf>
    221f: 60           	rts

00002220 <__memset>:
    2220: a4 14        	ldy	$14                     ; 0x2014 <malloc+0xd6>
    2222: d0 04        	bne	$2228 <__memset+0x8>
    2224: e0 00        	cpx	#$0
    2226: f0 17        	beq	$223f <__memset+0x1f>
    2228: 92 12        	sta	($12)                   ; 0x2012 <malloc+0xd4>
    222a: e6 12        	inc	$12                     ; 0x2012 <malloc+0xd4>
    222c: d0 02        	bne	$2230 <__memset+0x10>
    222e: e6 13        	inc	$13                     ; 0x2013 <malloc+0xd5>
    2230: ca           	dex
    2231: e0 ff        	cpx	#$ff
    2233: d0 02        	bne	$2237 <__memset+0x17>
    2235: c6 14        	dec	$14                     ; 0x2014 <malloc+0xd6>
    2237: a4 14        	ldy	$14                     ; 0x2014 <malloc+0xd6>
    2239: d0 ed        	bne	$2228 <__memset+0x8>
    223b: e0 00        	cpx	#$0
    223d: d0 e9        	bne	$2228 <__memset+0x8>
    223f: 60           	rts
