
modu.elf:	file format elf32-mos

SYMBOL TABLE:
00000000 l    df *ABS*	00000000 zero-bss.c
00000000 l    df *ABS*	00000000 zero-zp-bss.c
00000000 l    df *ABS*	00000000 copy-zp-data.c
00000000 l    df *ABS*	00000000 ld-temp.o
000004f6 l     F .text	00000432 f256Init
00000094 l     O .zp.bss	00000007 kernelEventData
00007fe8 l     O .rodata	00000030 textColors
0000009b l     O .zp.bss	00000001 _col
0000009c l     O .zp.bss	00000001 _row
00008231 l     O .bss	00000001 _active
00008232 l     O .bss	00000001 _color
00008225 l     O .bss	0000000c _BITMAP_BASE
00008233 l     O .bss	00000001 _BITMAP_CLUT.1
00008234 l     O .bss	00000001 _tileSize.0
00008235 l     O .bss	00000040 _spriteCtl
00008224 l     O .bss	00000001 kernelError
0000092e l     F .text	00002daa f256main
00005d2d l     F .text	00000227 bitmapClear
000078cf l     F .text	000002be malloc
000000cf l     O .zp.bss	00000002 gPtr
00008275 l     O .bss	0000013b radios
00005f54 l     F .text	00000255 setRadioB
000045c4 l     F .text	00001769 loadGUISID
0000009f l     O .zp.bss	00000001 diaAct.0
000000a0 l     O .zp.bss	00000001 sliAct.0
000000a1 l     O .zp.bss	00000001 polyTimer.1
000000ab l     O .zp.bss	00000001 chipAct.1
000000aa l     O .zp.bss	00000001 chipAct.0
000000bd l     O .zp.bss	00000012 polyOPL3Buffer
00007e06 l     F .text	000000db __udivmodhi4
0000812c l     O .rodata	00000018 opl3_fnums
000000af l     O .zp.bss	00000006 polySIDBuffer
00000088 l     O .zp.data	00000006 sidChoiceToVoice
000081c4 l     O .rodata	00000060 sidLow
00008059 l     O .rodata	00000060 sidHigh
000000ac l     O .zp.bss	00000001 chipAct.2
000000b7 l     O .zp.bss	00000006 polyPSGBuffer
0000008e l     O .zp.data	00000006 polyPSGChanBits
000000ad l     O .zp.bss	00000001 chipAct.3
000000ae l     O .zp.bss	00000001 chipAct.4
00008144 l     O .rodata	00000040 psgLow
00008184 l     O .rodata	00000040 psgHigh
00007ca1 l     F .text	000000c0 __udivhi3
00007d61 l     F .text	000000a5 __umodhi3
00000030 l     O .zp.data	00000058 noteColors
000000b5 l     O .zp.bss	00000001 reservedSID.2
000000b6 l     O .zp.bss	00000001 reservedSID.5
000083b0 l     O .bss	000001a4 lights
000000a2 l     O .zp.bss	00000002 mX
000000a4 l     O .zp.bss	00000002 mY
00008554 l     O .bss	000000f0 sliders
00006578 l     F .text	00000465 updateSlider
00008644 l     O .bss	000001b0 dials
000061a9 l     F .text	000003cf updateDial
000036d8 l     F .text	00000c2c dispatchAction
000000a6 l     O .zp.bss	00000002 oldMX
000000a8 l     O .zp.bss	00000002 oldMY
00007bff l     F .text	00000032 __mulhi3
00004304 l     F .text	000000d7 textLayerGen
000043db l     F .text	000001e9 textPrint
00006c0a l     F .text	00000cc5 printf
00007bec l     F .text	00000013 __lshrhi3
00007bd9 l     F .text	00000013 __ashlhi3
00007c31 l     F .text	00000070 __mulsi3
000069e2 l     F .text	000000df _ZN12_GLOBAL__N_13putEcP6Status
0000009d l     O .zp.bss	00000002 __putchar.s
00006ac1 l     F .text	00000149 _ZN12_GLOBAL__N_112print_stringEPKcP6Status
000087f4 l     O .bss	00000001 _ZN12_GLOBAL__N_111initializedE
0000037c l     F .text	0000013d _ZN12_GLOBAL__N_19FreeChunk6insertEPvj
000087f7 l     O .bss	00000002 _ZN12_GLOBAL__N_19free_listE
000087f5 l     O .bss	00000002 _ZN12_GLOBAL__N_19free_sizeE
00000928 g     F .text	00000006 main
00014000 g       .gui8	00000000 gui8_start
000303fc g       .pianopal	00000000 pianopal_end
00043000 g       .keys	00000000 keys_end
00015400 g       .pal	00000000 pal_end
00015000 g       .pal	00000000 pal_start
00030400 g       .keys	00000000 keys_start
00015000 g       .gui8	00000000 gui8_end
00014000 g       .gui16	00000000 gui16_end
00030000 g       .pianopal	00000000 pianopal_start
00010000 g       .gui16	00000000 gui16_start
00000378 g       .text	00000000 __after_main
00000364 g       .text	00000000 __do_init_stack
00000372 g       .text	00000000 __do_copy_zp_data
000004df g     F .text	00000017 __copy_zp_data
0000036c g       .text	00000000 __do_zero_bss
000004b9 g     F .text	00000013 __zero_bss
0000036f g       .text	00000000 __do_zero_zp_bss
000004cc g     F .text	00000013 __zero_zp_bss
000069dd g     F .text	00000005 exit
0000037b g       .text	00000000 _fini
00007ee1 g       .rodata	00000000 __set_v
00007bb9  w    F .text	00000020 __memset
00001000  w      *ABS*	00000000 __heap_default_limit
0000882a g       .noinit	00000000 __heap_start
00007b8d  w    F .text	0000002c memcpy
00000010 g       *ABS*	00000000 __rc0
00000012 g       *ABS*	00000000 __rc2
00000014 g       *ABS*	00000000 __rc4
00000016 g       *ABS*	00000000 __rc6
00000018 g       *ABS*	00000000 __rc8
0000001a g       *ABS*	00000000 __rc10
0000001c g       *ABS*	00000000 __rc12
0000001e g       *ABS*	00000000 __rc14
00000020 g       *ABS*	00000000 __rc16
00000022 g       *ABS*	00000000 __rc18
00000024 g       *ABS*	00000000 __rc20
00000026 g       *ABS*	00000000 __rc22
00000028 g       *ABS*	00000000 __rc24
0000002a g       *ABS*	00000000 __rc26
0000002c g       *ABS*	00000000 __rc28
0000002e g       *ABS*	00000000 __rc30
0000002f g       *ABS*	00000000 __rc31
00000300 g       *ABS*	00000000 __f256_start
0000c000 g       *ABS*	00000000 __stack
0000c000 g       *ABS*	00000000 __SLOT_ADDR
0800c000 g       *ABS*	00000000 __block8_lma
00002000 g       *ABS*	00000000 __BLOCK_SIZE
0900c000 g       *ABS*	00000000 __block9_lma
0a00c000 g       *ABS*	00000000 __block10_lma
0b00c000 g       *ABS*	00000000 __block11_lma
0c00c000 g       *ABS*	00000000 __block12_lma
0d00c000 g       *ABS*	00000000 __block13_lma
0e00c000 g       *ABS*	00000000 __block14_lma
0f00c000 g       *ABS*	00000000 __block15_lma
1000c000 g       *ABS*	00000000 __block16_lma
1100c000 g       *ABS*	00000000 __block17_lma
1200c000 g       *ABS*	00000000 __block18_lma
1300c000 g       *ABS*	00000000 __block19_lma
1400c000 g       *ABS*	00000000 __block20_lma
1500c000 g       *ABS*	00000000 __block21_lma
1600c000 g       *ABS*	00000000 __block22_lma
1700c000 g       *ABS*	00000000 __block23_lma
00010000 g       *ABS*	00000000 __gui16_lma
00004000 g       *ABS*	00000000 __gui16_size
00014000 g       *ABS*	00000000 __gui8_lma
00001000 g       *ABS*	00000000 __gui8_size
00015000 g       *ABS*	00000000 __pal_lma
00000400 g       *ABS*	00000000 __pal_size
00030000 g       *ABS*	00000000 __pianopal_lma
000003fc g       *ABS*	00000000 __pianopal_size
00030400 g       *ABS*	00000000 __keys_lma
00012c00 g       *ABS*	00000000 __keys_size
00008224 g       .bss	00000000 __bss_start
00014000 g       .gui16	00000000 end_gui16
00015000 g       .gui8	00000000 end_gui8
00015400 g       .pal	00000000 end_pal
000303fc g       .pianopal	00000000 end_pianopal
00043000 g       .keys	00000000 end_keys
00000364 g       .text	00000000 _start
0000002d g       *ABS*	00000000 __rc29
0000002b g       *ABS*	00000000 __rc27
00000029 g       *ABS*	00000000 __rc25
00000027 g       *ABS*	00000000 __rc23
00000025 g       *ABS*	00000000 __rc21
00000023 g       *ABS*	00000000 __rc19
00000021 g       *ABS*	00000000 __rc17
0000001f g       *ABS*	00000000 __rc15
0000001d g       *ABS*	00000000 __rc13
0000001b g       *ABS*	00000000 __rc11
00000019 g       *ABS*	00000000 __rc9
00000017 g       *ABS*	00000000 __rc7
00000015 g       *ABS*	00000000 __rc5
00000013 g       *ABS*	00000000 __rc3
00000011 g       *ABS*	00000000 __rc1
00000030 g       .zp.data	00000000 __zp_data_start
00000300 g       *ABS*	00000000 __zp_data_load_start
00000064 g       *ABS*	00000000 __zp_data_size
00000094 g       .zp.bss	00000000 __zp_bss_start
0000003d g       *ABS*	00000000 __zp_bss_size
00000364 g       .text	00000000 _init
00007ee1 g       .text	00000000 __init_array_start
00007ee1 g       .text	00000000 __init_array_end
00007ee1 g       .text	00000000 __fini_array_start
00007ee1 g       .text	00000000 __fini_array_end
00008224 g       .data	00000000 __data_start
00008224 g       .data	00000000 __data_end
00008224 g       *ABS*	00000000 __data_load_start
00000000 g       *ABS*	00000000 __data_size
000087f9 g       .bss	00000000 __bss_end
000005d5 g       *ABS*	00000000 __bss_size
0000882a g       .noinit	00000000 end_block8
0000882a g       .noinit	00000000 end_block9
0000882a g       .noinit	00000000 end_block10
0000882a g       .noinit	00000000 end_block11
0000882a g       .noinit	00000000 end_block12
0000882a g       .noinit	00000000 end_block13
0000882a g       .noinit	00000000 end_block14
0000882a g       .noinit	00000000 end_block15
0000882a g       .noinit	00000000 end_block16
0000882a g       .noinit	00000000 end_block17
0000882a g       .noinit	00000000 end_block18
0000882a g       .noinit	00000000 end_block19
0000882a g       .noinit	00000000 end_block20
0000882a g       .noinit	00000000 end_block21
0000882a g       .noinit	00000000 end_block22
0000882a g       .noinit	00000000 end_block23

Disassembly of section .text:

00000364 <_start>:
     364: a9 00        	lda	#$0
     366: 85 10        	sta	$10                     ; 0x2010 <f256main+0x16e2>
     368: a9 c0        	lda	#$c0
     36a: 85 11        	sta	$11                     ; 0x2011 <f256main+0x16e3>

0000036c <__do_zero_bss>:
     36c: 20 b9 04     	jsr	$4b9 <__zero_bss>

0000036f <__do_zero_zp_bss>:
     36f: 20 cc 04     	jsr	$4cc <__zero_zp_bss>

00000372 <__do_copy_zp_data>:
     372: 20 df 04     	jsr	$4df <__copy_zp_data>
     375: 20 28 09     	jsr	$928 <main>

00000378 <__after_main>:
     378: 4c dd 69     	jmp	$69dd <exit>

0000037b <_fini>:
     37b: 60           	rts

0000037c <_ZN12_GLOBAL__N_19FreeChunk6insertEPvj>:
     37c: 85 16        	sta	$16                     ; 0x2016 <f256main+0x16e8>
     37e: 29 fe        	and	#$fe
     380: 85 14        	sta	$14                     ; 0x2014 <f256main+0x16e6>
     382: a0 01        	ldy	#$1
     384: 98           	tya
     385: 32 12        	and	($12)                   ; 0x2012 <f256main+0x16e4>
     387: 05 14        	ora	$14                     ; 0x2014 <f256main+0x16e6>
     389: 92 12        	sta	($12)                   ; 0x2012 <f256main+0x16e4>
     38b: a5 12        	lda	$12                     ; 0x2012 <f256main+0x16e4>
     38d: 18           	clc
     38e: 65 14        	adc	$14                     ; 0x2014 <f256main+0x16e6>
     390: 85 15        	sta	$15                     ; 0x2015 <f256main+0x16e7>
     392: 8a           	txa
     393: 65 13        	adc	$13                     ; 0x2013 <f256main+0x16e5>
     395: 85 14        	sta	$14                     ; 0x2014 <f256main+0x16e6>
     397: 18           	clc
     398: a5 15        	lda	$15                     ; 0x2015 <f256main+0x16e7>
     39a: 69 fe        	adc	#$fe
     39c: 85 17        	sta	$17                     ; 0x2017 <f256main+0x16e9>
     39e: a5 14        	lda	$14                     ; 0x2014 <f256main+0x16e6>
     3a0: 69 ff        	adc	#$ff
     3a2: 85 15        	sta	$15                     ; 0x2015 <f256main+0x16e7>
     3a4: a5 17        	lda	$17                     ; 0x2017 <f256main+0x16e9>
     3a6: 85 14        	sta	$14                     ; 0x2014 <f256main+0x16e6>
     3a8: 8a           	txa
     3a9: 91 12        	sta	($12),y                 ; 0x2012 <f256main+0x16e4>
     3ab: a5 16        	lda	$16                     ; 0x2016 <f256main+0x16e8>
     3ad: 92 14        	sta	($14)                   ; 0x2014 <f256main+0x16e6>
     3af: 8a           	txa
     3b0: 91 14        	sta	($14),y                 ; 0x2014 <f256main+0x16e6>
     3b2: b1 12        	lda	($12),y                 ; 0x2012 <f256main+0x16e4>
     3b4: 85 14        	sta	$14                     ; 0x2014 <f256main+0x16e6>
     3b6: a9 fe        	lda	#$fe
     3b8: 32 12        	and	($12)                   ; 0x2012 <f256main+0x16e4>
     3ba: 18           	clc
     3bb: 6d f5 87     	adc	$87f5                   ; 0x87f5 <_ZN12_GLOBAL__N_19free_sizeE>
     3be: aa           	tax
     3bf: a5 14        	lda	$14                     ; 0x2014 <f256main+0x16e6>
     3c1: 6d f6 87     	adc	$87f6                   ; 0x87f6 <_ZN12_GLOBAL__N_19free_sizeE+0x1>
     3c4: a8           	tay
     3c5: 18           	clc
     3c6: 8a           	txa
     3c7: 69 fe        	adc	#$fe
     3c9: aa           	tax
     3ca: 98           	tya
     3cb: 69 ff        	adc	#$ff
     3cd: 8e f5 87     	stx	$87f5                   ; 0x87f5 <_ZN12_GLOBAL__N_19free_sizeE>
     3d0: 8d f6 87     	sta	$87f6                   ; 0x87f6 <_ZN12_GLOBAL__N_19free_sizeE+0x1>
     3d3: ae f7 87     	ldx	$87f7                   ; 0x87f7 <_ZN12_GLOBAL__N_19free_listE>
     3d6: 86 16        	stx	$16                     ; 0x2016 <f256main+0x16e8>
     3d8: ac f8 87     	ldy	$87f8                   ; 0x87f8 <_ZN12_GLOBAL__N_19free_listE+0x1>
     3db: a2 00        	ldx	#$0
     3dd: 86 14        	stx	$14                     ; 0x2014 <f256main+0x16e6>
     3df: a2 00        	ldx	#$0
     3e1: 86 15        	stx	$15                     ; 0x2015 <f256main+0x16e7>
     3e3: c4 15        	cpy	$15                     ; 0x2015 <f256main+0x16e7>
     3e5: d0 3e        	bne	$425 <_ZN12_GLOBAL__N_19FreeChunk6insertEPvj+0xa9>
     3e7: a6 16        	ldx	$16                     ; 0x2016 <f256main+0x16e8>
     3e9: e4 14        	cpx	$14                     ; 0x2014 <f256main+0x16e6>
     3eb: d0 38        	bne	$425 <_ZN12_GLOBAL__N_19FreeChunk6insertEPvj+0xa9>
     3ed: a0 04        	ldy	#$4
     3ef: a5 12        	lda	$12                     ; 0x2012 <f256main+0x16e4>
     3f1: 18           	clc
     3f2: 69 04        	adc	#$4
     3f4: 85 14        	sta	$14                     ; 0x2014 <f256main+0x16e6>
     3f6: a5 13        	lda	$13                     ; 0x2013 <f256main+0x16e5>
     3f8: 69 00        	adc	#$0
     3fa: 18           	clc
     3fb: 85 15        	sta	$15                     ; 0x2015 <f256main+0x16e7>
     3fd: a5 12        	lda	$12                     ; 0x2012 <f256main+0x16e4>
     3ff: 91 12        	sta	($12),y                 ; 0x2012 <f256main+0x16e4>
     401: a0 02        	ldy	#$2
     403: 85 17        	sta	$17                     ; 0x2017 <f256main+0x16e9>
     405: 69 02        	adc	#$2
     407: 85 16        	sta	$16                     ; 0x2016 <f256main+0x16e8>
     409: a5 17        	lda	$17                     ; 0x2017 <f256main+0x16e9>
     40b: 91 12        	sta	($12),y                 ; 0x2012 <f256main+0x16e4>
     40d: a5 13        	lda	$13                     ; 0x2013 <f256main+0x16e5>
     40f: 69 00        	adc	#$0
     411: 85 17        	sta	$17                     ; 0x2017 <f256main+0x16e9>
     413: 88           	dey
     414: a5 13        	lda	$13                     ; 0x2013 <f256main+0x16e5>
     416: 91 14        	sta	($14),y                 ; 0x2014 <f256main+0x16e6>
     418: 91 16        	sta	($16),y                 ; 0x2016 <f256main+0x16e8>
     41a: a6 12        	ldx	$12                     ; 0x2012 <f256main+0x16e4>
     41c: 8e f7 87     	stx	$87f7                   ; 0x87f7 <_ZN12_GLOBAL__N_19free_listE>
     41f: a6 13        	ldx	$13                     ; 0x2013 <f256main+0x16e5>
     421: 8e f8 87     	stx	$87f8                   ; 0x87f8 <_ZN12_GLOBAL__N_19free_listE+0x1>
     424: 60           	rts
     425: a6 12        	ldx	$12                     ; 0x2012 <f256main+0x16e4>
     427: a5 12        	lda	$12                     ; 0x2012 <f256main+0x16e4>
     429: 18           	clc
     42a: 69 02        	adc	#$2
     42c: 85 14        	sta	$14                     ; 0x2014 <f256main+0x16e6>
     42e: 84 18        	sty	$18                     ; 0x2018 <f256main+0x16ea>
     430: a5 13        	lda	$13                     ; 0x2013 <f256main+0x16e5>
     432: 69 00        	adc	#$0
     434: 85 15        	sta	$15                     ; 0x2015 <f256main+0x16e7>
     436: a5 16        	lda	$16                     ; 0x2016 <f256main+0x16e8>
     438: 84 17        	sty	$17                     ; 0x2017 <f256main+0x16e9>
     43a: a0 02        	ldy	#$2
     43c: 91 12        	sta	($12),y                 ; 0x2012 <f256main+0x16e4>
     43e: 85 19        	sta	$19                     ; 0x2019 <f256main+0x16eb>
     440: 88           	dey
     441: a5 18        	lda	$18                     ; 0x2018 <f256main+0x16ea>
     443: 91 14        	sta	($14),y                 ; 0x2014 <f256main+0x16e6>
     445: 18           	clc
     446: a5 19        	lda	$19                     ; 0x2019 <f256main+0x16eb>
     448: 69 04        	adc	#$4
     44a: a8           	tay
     44b: a5 18        	lda	$18                     ; 0x2018 <f256main+0x16ea>
     44d: 69 00        	adc	#$0
     44f: 85 19        	sta	$19                     ; 0x2019 <f256main+0x16eb>
     451: 84 18        	sty	$18                     ; 0x2018 <f256main+0x16ea>
     453: 8a           	txa
     454: 18           	clc
     455: 69 04        	adc	#$4
     457: 85 1a        	sta	$1a                     ; 0x201a <f256main+0x16ec>
     459: a5 13        	lda	$13                     ; 0x2013 <f256main+0x16e5>
     45b: 69 00        	adc	#$0
     45d: 85 1b        	sta	$1b                     ; 0x201b <f256main+0x16ed>
     45f: a0 04        	ldy	#$4
     461: b1 16        	lda	($16),y                 ; 0x2016 <f256main+0x16e8>
     463: 85 16        	sta	$16                     ; 0x2016 <f256main+0x16e8>
     465: 85 1d        	sta	$1d                     ; 0x201d <f256main+0x16ef>
     467: a0 01        	ldy	#$1
     469: b1 18        	lda	($18),y                 ; 0x2018 <f256main+0x16ea>
     46b: 85 17        	sta	$17                     ; 0x2017 <f256main+0x16e9>
     46d: 85 19        	sta	$19                     ; 0x2019 <f256main+0x16eb>
     46f: a0 04        	ldy	#$4
     471: a5 1d        	lda	$1d                     ; 0x201d <f256main+0x16ef>
     473: 91 12        	sta	($12),y                 ; 0x2012 <f256main+0x16e4>
     475: a5 19        	lda	$19                     ; 0x2019 <f256main+0x16eb>
     477: a0 01        	ldy	#$1
     479: 91 1a        	sta	($1a),y                 ; 0x201a <f256main+0x16ec>
     47b: 18           	clc
     47c: a5 1d        	lda	$1d                     ; 0x201d <f256main+0x16ef>
     47e: 69 02        	adc	#$2
     480: 85 18        	sta	$18                     ; 0x2018 <f256main+0x16ea>
     482: a5 19        	lda	$19                     ; 0x2019 <f256main+0x16eb>
     484: 69 00        	adc	#$0
     486: 85 19        	sta	$19                     ; 0x2019 <f256main+0x16eb>
     488: 8a           	txa
     489: c8           	iny
     48a: 91 16        	sta	($16),y                 ; 0x2016 <f256main+0x16e8>
     48c: a5 13        	lda	$13                     ; 0x2013 <f256main+0x16e5>
     48e: 88           	dey
     48f: 91 18        	sta	($18),y                 ; 0x2018 <f256main+0x16ea>
     491: c8           	iny
     492: b1 12        	lda	($12),y                 ; 0x2012 <f256main+0x16e4>
     494: 85 16        	sta	$16                     ; 0x2016 <f256main+0x16e8>
     496: 85 18        	sta	$18                     ; 0x2018 <f256main+0x16ea>
     498: 88           	dey
     499: b1 14        	lda	($14),y                 ; 0x2014 <f256main+0x16e6>
     49b: 85 17        	sta	$17                     ; 0x2017 <f256main+0x16e9>
     49d: 85 14        	sta	$14                     ; 0x2014 <f256main+0x16e6>
     49f: 8a           	txa
     4a0: a0 04        	ldy	#$4
     4a2: 91 16        	sta	($16),y                 ; 0x2016 <f256main+0x16e8>
     4a4: 18           	clc
     4a5: a5 18        	lda	$18                     ; 0x2018 <f256main+0x16ea>
     4a7: 69 04        	adc	#$4
     4a9: a8           	tay
     4aa: a5 14        	lda	$14                     ; 0x2014 <f256main+0x16e6>
     4ac: 69 00        	adc	#$0
     4ae: 84 14        	sty	$14                     ; 0x2014 <f256main+0x16e6>
     4b0: 85 15        	sta	$15                     ; 0x2015 <f256main+0x16e7>
     4b2: a5 13        	lda	$13                     ; 0x2013 <f256main+0x16e5>
     4b4: a0 01        	ldy	#$1
     4b6: 91 14        	sta	($14),y                 ; 0x2014 <f256main+0x16e6>
     4b8: 60           	rts

000004b9 <__zero_bss>:
     4b9: a2 d5        	ldx	#$d5
     4bb: a0 05        	ldy	#$5
     4bd: a9 24        	lda	#$24
     4bf: 85 12        	sta	$12                     ; 0x2012 <f256main+0x16e4>
     4c1: a9 82        	lda	#$82
     4c3: 85 13        	sta	$13                     ; 0x2013 <f256main+0x16e5>
     4c5: a9 00        	lda	#$0
     4c7: 84 14        	sty	$14                     ; 0x2014 <f256main+0x16e6>
     4c9: 4c b9 7b     	jmp	$7bb9 <__memset>

000004cc <__zero_zp_bss>:
     4cc: a2 3d        	ldx	#$3d
     4ce: a0 00        	ldy	#$0
     4d0: a9 94        	lda	#$94
     4d2: 85 12        	sta	$12                     ; 0x2012 <f256main+0x16e4>
     4d4: a9 00        	lda	#$0
     4d6: 85 13        	sta	$13                     ; 0x2013 <f256main+0x16e5>
     4d8: a9 00        	lda	#$0
     4da: 84 14        	sty	$14                     ; 0x2014 <f256main+0x16e6>
     4dc: 4c b9 7b     	jmp	$7bb9 <__memset>

000004df <__copy_zp_data>:
     4df: a9 64        	lda	#$64
     4e1: a2 00        	ldx	#$0
     4e3: a0 30        	ldy	#$30
     4e5: 84 12        	sty	$12                     ; 0x2012 <f256main+0x16e4>
     4e7: a0 00        	ldy	#$0
     4e9: 84 13        	sty	$13                     ; 0x2013 <f256main+0x16e5>
     4eb: a0 00        	ldy	#$0
     4ed: 84 14        	sty	$14                     ; 0x2014 <f256main+0x16e6>
     4ef: a0 03        	ldy	#$3
     4f1: 84 15        	sty	$15                     ; 0x2015 <f256main+0x16e7>
     4f3: 4c 8d 7b     	jmp	$7b8d <memcpy>

000004f6 <f256Init>:
     4f6: 64 1c        	stz	$1c                     ; 0x201c <f256main+0x16ee>
     4f8: a2 00        	ldx	#$0
     4fa: 86 1a        	stx	$1a                     ; 0x201a <f256main+0x16ec>
     4fc: a2 d0        	ldx	#$d0
     4fe: 86 1b        	stx	$1b                     ; 0x201b <f256main+0x16ed>
     500: a2 00        	ldx	#$0
     502: 86 16        	stx	$16                     ; 0x2016 <f256main+0x16e8>
     504: a2 d8        	ldx	#$d8
     506: 86 17        	stx	$17                     ; 0x2017 <f256main+0x16e9>
     508: a2 00        	ldx	#$0
     50a: 86 18        	stx	$18                     ; 0x2018 <f256main+0x16ea>
     50c: a2 d4        	ldx	#$d4
     50e: 86 19        	stx	$19                     ; 0x2019 <f256main+0x16eb>
     510: a2 00        	ldx	#$0
     512: 86 14        	stx	$14                     ; 0x2014 <f256main+0x16e6>
     514: a2 dc        	ldx	#$dc
     516: 86 15        	stx	$15                     ; 0x2015 <f256main+0x16e7>
     518: a2 00        	ldx	#$0
     51a: 86 12        	stx	$12                     ; 0x2012 <f256main+0x16e4>
     51c: a2 c0        	ldx	#$c0
     51e: 86 13        	stx	$13                     ; 0x2013 <f256main+0x16e5>
     520: 64 01        	stz	$1                      ; 0x2001 <f256main+0x16d3>
     522: a2 3f        	ldx	#$3f
     524: 8e 00 d0     	stx	$d000                   ; 0xd000 <end_block9+0x47d6>
     527: a2 b3        	ldx	#$b3
     529: 86 00        	stx	$0                      ; 0x2000 <f256main+0x16d2>
     52b: 64 08        	stz	$8                      ; 0x2008 <f256main+0x16da>
     52d: a2 01        	ldx	#$1
     52f: 86 09        	stx	$9                      ; 0x2009 <f256main+0x16db>
     531: e8           	inx
     532: 86 0a        	stx	$a                      ; 0x200a <f256main+0x16dc>
     534: e8           	inx
     535: 86 0b        	stx	$b                      ; 0x200b <f256main+0x16dd>
     537: e8           	inx
     538: 86 0c        	stx	$c                      ; 0x200c <f256main+0x16de>
     53a: e8           	inx
     53b: 86 0d        	stx	$d                      ; 0x200d <f256main+0x16df>
     53d: a2 94        	ldx	#$94
     53f: a9 00        	lda	#$0
     541: 86 f0        	stx	$f0                     ; 0x20f0 <f256main+0x17c2>
     543: 85 f1        	sta	$f1                     ; 0x20f1 <f256main+0x17c3>
     545: a6 01        	ldx	$1                      ; 0x2001 <f256main+0x16d3>
     547: a0 01        	ldy	#$1
     549: 84 01        	sty	$1                      ; 0x2001 <f256main+0x16d3>
     54b: a5 1c        	lda	$1c                     ; 0x201c <f256main+0x16ee>
     54d: 92 1a        	sta	($1a)                   ; 0x201a <f256main+0x16ec>
     54f: 91 1a        	sta	($1a),y                 ; 0x201a <f256main+0x16ec>
     551: c8           	iny
     552: 91 1a        	sta	($1a),y                 ; 0x201a <f256main+0x16ec>
     554: c8           	iny
     555: a9 ff        	lda	#$ff
     557: 91 1a        	sta	($1a),y                 ; 0x201a <f256main+0x16ec>
     559: 86 01        	stx	$1                      ; 0x2001 <f256main+0x16d3>
     55b: a5 1a        	lda	$1a                     ; 0x201a <f256main+0x16ec>
     55d: 18           	clc
     55e: 69 04        	adc	#$4
     560: 85 1a        	sta	$1a                     ; 0x201a <f256main+0x16ec>
     562: a5 1b        	lda	$1b                     ; 0x201b <f256main+0x16ed>
     564: 69 00        	adc	#$0
     566: e6 1c        	inc	$1c                     ; 0x201c <f256main+0x16ee>
     568: 85 1b        	sta	$1b                     ; 0x201b <f256main+0x16ed>
     56a: d0 d9        	bne	$545 <f256Init+0x4f>
     56c: a9 00        	lda	#$0
     56e: a6 01        	ldx	$1                      ; 0x2001 <f256main+0x16d3>
     570: a0 01        	ldy	#$1
     572: 84 01        	sty	$1                      ; 0x2001 <f256main+0x16d3>
     574: 92 18        	sta	($18)                   ; 0x2018 <f256main+0x16ea>
     576: 91 18        	sta	($18),y                 ; 0x2018 <f256main+0x16ea>
     578: c8           	iny
     579: 91 18        	sta	($18),y                 ; 0x2018 <f256main+0x16ea>
     57b: c8           	iny
     57c: 85 1a        	sta	$1a                     ; 0x201a <f256main+0x16ec>
     57e: a9 ff        	lda	#$ff
     580: 91 18        	sta	($18),y                 ; 0x2018 <f256main+0x16ea>
     582: 86 01        	stx	$1                      ; 0x2001 <f256main+0x16d3>
     584: a5 18        	lda	$18                     ; 0x2018 <f256main+0x16ea>
     586: 18           	clc
     587: 69 04        	adc	#$4
     589: 85 18        	sta	$18                     ; 0x2018 <f256main+0x16ea>
     58b: a5 19        	lda	$19                     ; 0x2019 <f256main+0x16eb>
     58d: 69 00        	adc	#$0
     58f: e6 1a        	inc	$1a                     ; 0x201a <f256main+0x16ec>
     591: 85 19        	sta	$19                     ; 0x2019 <f256main+0x16eb>
     593: a5 1a        	lda	$1a                     ; 0x201a <f256main+0x16ec>
     595: d0 d7        	bne	$56e <f256Init+0x78>
     597: a9 00        	lda	#$0
     599: a6 01        	ldx	$1                      ; 0x2001 <f256main+0x16d3>
     59b: a0 01        	ldy	#$1
     59d: 84 01        	sty	$1                      ; 0x2001 <f256main+0x16d3>
     59f: 92 16        	sta	($16)                   ; 0x2016 <f256main+0x16e8>
     5a1: 91 16        	sta	($16),y                 ; 0x2016 <f256main+0x16e8>
     5a3: c8           	iny
     5a4: 91 16        	sta	($16),y                 ; 0x2016 <f256main+0x16e8>
     5a6: c8           	iny
     5a7: 85 18        	sta	$18                     ; 0x2018 <f256main+0x16ea>
     5a9: a9 ff        	lda	#$ff
     5ab: 91 16        	sta	($16),y                 ; 0x2016 <f256main+0x16e8>
     5ad: 86 01        	stx	$1                      ; 0x2001 <f256main+0x16d3>
     5af: a5 16        	lda	$16                     ; 0x2016 <f256main+0x16e8>
     5b1: 18           	clc
     5b2: 69 04        	adc	#$4
     5b4: 85 16        	sta	$16                     ; 0x2016 <f256main+0x16e8>
     5b6: a5 17        	lda	$17                     ; 0x2017 <f256main+0x16e9>
     5b8: 69 00        	adc	#$0
     5ba: e6 18        	inc	$18                     ; 0x2018 <f256main+0x16ea>
     5bc: 85 17        	sta	$17                     ; 0x2017 <f256main+0x16e9>
     5be: a5 18        	lda	$18                     ; 0x2018 <f256main+0x16ea>
     5c0: d0 d7        	bne	$599 <f256Init+0xa3>
     5c2: a9 00        	lda	#$0
     5c4: a6 01        	ldx	$1                      ; 0x2001 <f256main+0x16d3>
     5c6: a0 01        	ldy	#$1
     5c8: 84 01        	sty	$1                      ; 0x2001 <f256main+0x16d3>
     5ca: 92 14        	sta	($14)                   ; 0x2014 <f256main+0x16e6>
     5cc: 91 14        	sta	($14),y                 ; 0x2014 <f256main+0x16e6>
     5ce: c8           	iny
     5cf: 91 14        	sta	($14),y                 ; 0x2014 <f256main+0x16e6>
     5d1: c8           	iny
     5d2: 85 16        	sta	$16                     ; 0x2016 <f256main+0x16e8>
     5d4: a9 ff        	lda	#$ff
     5d6: 91 14        	sta	($14),y                 ; 0x2014 <f256main+0x16e6>
     5d8: 86 01        	stx	$1                      ; 0x2001 <f256main+0x16d3>
     5da: a5 14        	lda	$14                     ; 0x2014 <f256main+0x16e6>
     5dc: 18           	clc
     5dd: 69 04        	adc	#$4
     5df: 85 14        	sta	$14                     ; 0x2014 <f256main+0x16e6>
     5e1: a5 15        	lda	$15                     ; 0x2015 <f256main+0x16e7>
     5e3: 69 00        	adc	#$0
     5e5: e6 16        	inc	$16                     ; 0x2016 <f256main+0x16e8>
     5e7: 85 15        	sta	$15                     ; 0x2015 <f256main+0x16e7>
     5e9: a5 16        	lda	$16                     ; 0x2016 <f256main+0x16e8>
     5eb: d0 d7        	bne	$5c4 <f256Init+0xce>
     5ed: ad 02 d0     	lda	$d002                   ; 0xd002 <end_block9+0x47d8>
     5f0: 29 f0        	and	#$f0
     5f2: 8d 02 d0     	sta	$d002                   ; 0xd002 <end_block9+0x47d8>
     5f5: ad 02 d0     	lda	$d002                   ; 0xd002 <end_block9+0x47d8>
     5f8: 29 0f        	and	#$f
     5fa: 09 10        	ora	#$10
     5fc: 8d 02 d0     	sta	$d002                   ; 0xd002 <end_block9+0x47d8>
     5ff: a2 02        	ldx	#$2
     601: 8e 03 d0     	stx	$d003                   ; 0xd003 <end_block9+0x47d9>
     604: ad 01 d0     	lda	$d001                   ; 0xd001 <end_block9+0x47d7>
     607: 29 f9        	and	#$f9
     609: 09 04        	ora	#$4
     60b: 8d 01 d0     	sta	$d001                   ; 0xd001 <end_block9+0x47d7>
     60e: 64 14        	stz	$14                     ; 0x2014 <f256main+0x16e6>
     610: 9c 10 d0     	stz	$d010                   ; 0xd010 <end_block9+0x47e6>
     613: a2 00        	ldx	#$0
     615: 64 15        	stz	$15                     ; 0x2015 <f256main+0x16e7>
     617: 86 18        	stx	$18                     ; 0x2018 <f256main+0x16ea>
     619: a4 18        	ldy	$18                     ; 0x2018 <f256main+0x16ea>
     61b: be e8 7f     	ldx	$7fe8,y                 ; 0x7fe8 <textColors>
     61e: 86 19        	stx	$19                     ; 0x2019 <f256main+0x16eb>
     620: be e9 7f     	ldx	$7fe9,y                 ; 0x7fe9 <textColors+0x1>
     623: 86 1a        	stx	$1a                     ; 0x201a <f256main+0x16ec>
     625: be ea 7f     	ldx	$7fea,y                 ; 0x7fea <textColors+0x2>
     628: 86 1b        	stx	$1b                     ; 0x201b <f256main+0x16ed>
     62a: a6 15        	ldx	$15                     ; 0x2015 <f256main+0x16e7>
     62c: 8e 00 de     	stx	$de00                   ; 0xde00 <end_block9+0x55d6>
     62f: 86 17        	stx	$17                     ; 0x2017 <f256main+0x16e9>
     631: 9c 01 de     	stz	$de01                   ; 0xde01 <end_block9+0x55d7>
     634: a2 04        	ldx	#$4
     636: 8e 02 de     	stx	$de02                   ; 0xde02 <end_block9+0x55d8>
     639: 9c 03 de     	stz	$de03                   ; 0xde03 <end_block9+0x55d9>
     63c: ad 10 de     	lda	$de10                   ; 0xde10 <end_block9+0x55e6>
     63f: ac 11 de     	ldy	$de11                   ; 0xde11 <end_block9+0x55e7>
     642: 84 15        	sty	$15                     ; 0x2015 <f256main+0x16e7>
     644: ac 12 de     	ldy	$de12                   ; 0xde12 <end_block9+0x55e8>
     647: ac 13 de     	ldy	$de13                   ; 0xde13 <end_block9+0x55e9>
     64a: 18           	clc
     64b: 65 14        	adc	$14                     ; 0x2014 <f256main+0x16e6>
     64d: 85 16        	sta	$16                     ; 0x2016 <f256main+0x16e8>
     64f: a6 17        	ldx	$17                     ; 0x2017 <f256main+0x16e9>
     651: a9 d8        	lda	#$d8
     653: 65 15        	adc	$15                     ; 0x2015 <f256main+0x16e7>
     655: 85 17        	sta	$17                     ; 0x2017 <f256main+0x16e9>
     657: a5 1b        	lda	$1b                     ; 0x201b <f256main+0x16ed>
     659: 92 16        	sta	($16)                   ; 0x2016 <f256main+0x16e8>
     65b: a0 01        	ldy	#$1
     65d: a5 1a        	lda	$1a                     ; 0x201a <f256main+0x16ec>
     65f: 91 16        	sta	($16),y                 ; 0x2016 <f256main+0x16e8>
     661: c8           	iny
     662: a5 19        	lda	$19                     ; 0x2019 <f256main+0x16eb>
     664: 91 16        	sta	($16),y                 ; 0x2016 <f256main+0x16e8>
     666: c8           	iny
     667: a9 ff        	lda	#$ff
     669: 91 16        	sta	($16),y                 ; 0x2016 <f256main+0x16e8>
     66b: 8e 00 de     	stx	$de00                   ; 0xde00 <end_block9+0x55d6>
     66e: 9c 01 de     	stz	$de01                   ; 0xde01 <end_block9+0x55d7>
     671: c8           	iny
     672: 8c 02 de     	sty	$de02                   ; 0xde02 <end_block9+0x55d8>
     675: 9c 03 de     	stz	$de03                   ; 0xde03 <end_block9+0x55d9>
     678: ad 10 de     	lda	$de10                   ; 0xde10 <end_block9+0x55e6>
     67b: 85 15        	sta	$15                     ; 0x2015 <f256main+0x16e7>
     67d: ad 11 de     	lda	$de11                   ; 0xde11 <end_block9+0x55e7>
     680: 85 16        	sta	$16                     ; 0x2016 <f256main+0x16e8>
     682: a9 40        	lda	#$40
     684: 18           	clc
     685: 65 15        	adc	$15                     ; 0x2015 <f256main+0x16e7>
     687: a8           	tay
     688: a9 d8        	lda	#$d8
     68a: 65 16        	adc	$16                     ; 0x2016 <f256main+0x16e8>
     68c: 85 17        	sta	$17                     ; 0x2017 <f256main+0x16e9>
     68e: 84 16        	sty	$16                     ; 0x2016 <f256main+0x16e8>
     690: ad 12 de     	lda	$de12                   ; 0xde12 <end_block9+0x55e8>
     693: ad 13 de     	lda	$de13                   ; 0xde13 <end_block9+0x55e9>
     696: a5 1b        	lda	$1b                     ; 0x201b <f256main+0x16ed>
     698: 92 16        	sta	($16)                   ; 0x2016 <f256main+0x16e8>
     69a: a5 1a        	lda	$1a                     ; 0x201a <f256main+0x16ec>
     69c: a0 01        	ldy	#$1
     69e: 91 16        	sta	($16),y                 ; 0x2016 <f256main+0x16e8>
     6a0: a5 19        	lda	$19                     ; 0x2019 <f256main+0x16eb>
     6a2: c8           	iny
     6a3: 91 16        	sta	($16),y                 ; 0x2016 <f256main+0x16e8>
     6a5: c8           	iny
     6a6: a9 ff        	lda	#$ff
     6a8: 91 16        	sta	($16),y                 ; 0x2016 <f256main+0x16e8>
     6aa: e8           	inx
     6ab: 86 15        	stx	$15                     ; 0x2015 <f256main+0x16e7>
     6ad: 18           	clc
     6ae: a5 18        	lda	$18                     ; 0x2018 <f256main+0x16ea>
     6b0: 69 03        	adc	#$3
     6b2: aa           	tax
     6b3: c9 30        	cmp	#$30
     6b5: f0 03        	beq	$6ba <f256Init+0x1c4>
     6b7: 4c 17 06     	jmp	$617 <f256Init+0x121>
     6ba: a6 01        	ldx	$1                      ; 0x2001 <f256main+0x16d3>
     6bc: 86 18        	stx	$18                     ; 0x2018 <f256main+0x16ea>
     6be: a2 50        	ldx	#$50
     6c0: 8e 00 de     	stx	$de00                   ; 0xde00 <end_block9+0x55d6>
     6c3: 9c 01 de     	stz	$de01                   ; 0xde01 <end_block9+0x55d7>
     6c6: a2 1e        	ldx	#$1e
     6c8: 8e 02 de     	stx	$de02                   ; 0xde02 <end_block9+0x55d8>
     6cb: 9c 03 de     	stz	$de03                   ; 0xde03 <end_block9+0x55d9>
     6ce: ae 10 de     	ldx	$de10                   ; 0xde10 <end_block9+0x55e6>
     6d1: ac 11 de     	ldy	$de11                   ; 0xde11 <end_block9+0x55e7>
     6d4: ad 12 de     	lda	$de12                   ; 0xde12 <end_block9+0x55e8>
     6d7: ad 13 de     	lda	$de13                   ; 0xde13 <end_block9+0x55e9>
     6da: a9 02        	lda	#$2
     6dc: 85 01        	sta	$1                      ; 0x2001 <f256main+0x16d3>
     6de: e0 01        	cpx	#$1
     6e0: 98           	tya
     6e1: e9 00        	sbc	#$0
     6e3: 50 02        	bvc	$6e7 <f256Init+0x1f1>
     6e5: 49 80        	eor	#$80
     6e7: c9 00        	cmp	#$0
     6e9: 30 50        	bmi	$73b <f256Init+0x245>
     6eb: a9 20        	lda	#$20
     6ed: 86 19        	stx	$19                     ; 0x2019 <f256main+0x16eb>
     6ef: 86 14        	stx	$14                     ; 0x2014 <f256main+0x16e6>
     6f1: 84 15        	sty	$15                     ; 0x2015 <f256main+0x16e7>
     6f3: a2 00        	ldx	#$0
     6f5: 86 16        	stx	$16                     ; 0x2016 <f256main+0x16e8>
     6f7: a2 c0        	ldx	#$c0
     6f9: 86 17        	stx	$17                     ; 0x2017 <f256main+0x16e9>
     6fb: 80 04        	bra	$701 <f256Init+0x20b>
     6fd: a6 15        	ldx	$15                     ; 0x2015 <f256main+0x16e7>
     6ff: f0 14        	beq	$715 <f256Init+0x21f>
     701: 92 16        	sta	($16)                   ; 0x2016 <f256main+0x16e8>
     703: e6 16        	inc	$16                     ; 0x2016 <f256main+0x16e8>
     705: d0 02        	bne	$709 <f256Init+0x213>
     707: e6 17        	inc	$17                     ; 0x2017 <f256main+0x16e9>
     709: a2 ff        	ldx	#$ff
     70b: c6 14        	dec	$14                     ; 0x2014 <f256main+0x16e6>
     70d: e4 14        	cpx	$14                     ; 0x2014 <f256main+0x16e6>
     70f: d0 ec        	bne	$6fd <f256Init+0x207>
     711: c6 15        	dec	$15                     ; 0x2015 <f256main+0x16e7>
     713: 80 e8        	bra	$6fd <f256Init+0x207>
     715: a6 14        	ldx	$14                     ; 0x2014 <f256main+0x16e6>
     717: d0 e8        	bne	$701 <f256Init+0x20b>
     719: a2 03        	ldx	#$3
     71b: 86 01        	stx	$1                      ; 0x2001 <f256main+0x16d3>
     71d: a6 19        	ldx	$19                     ; 0x2019 <f256main+0x16eb>
     71f: 80 03        	bra	$724 <f256Init+0x22e>
     721: 98           	tya
     722: f0 12        	beq	$736 <f256Init+0x240>
     724: a9 f0        	lda	#$f0
     726: 92 12        	sta	($12)                   ; 0x2012 <f256main+0x16e4>
     728: e6 12        	inc	$12                     ; 0x2012 <f256main+0x16e4>
     72a: d0 02        	bne	$72e <f256Init+0x238>
     72c: e6 13        	inc	$13                     ; 0x2013 <f256main+0x16e5>
     72e: ca           	dex
     72f: e0 ff        	cpx	#$ff
     731: d0 ee        	bne	$721 <f256Init+0x22b>
     733: 88           	dey
     734: 80 eb        	bra	$721 <f256Init+0x22b>
     736: 8a           	txa
     737: d0 eb        	bne	$724 <f256Init+0x22e>
     739: 80 04        	bra	$73f <f256Init+0x249>
     73b: a2 03        	ldx	#$3
     73d: 86 01        	stx	$1                      ; 0x2001 <f256main+0x16d3>
     73f: a6 18        	ldx	$18                     ; 0x2018 <f256main+0x16ea>
     741: 86 01        	stx	$1                      ; 0x2001 <f256main+0x16d3>
     743: 64 9b        	stz	$9b                     ; 0x209b <f256main+0x176d>
     745: 9c 14 d0     	stz	$d014                   ; 0xd014 <end_block9+0x47ea>
     748: 9c 15 d0     	stz	$d015                   ; 0xd015 <end_block9+0x47eb>
     74b: 64 9c        	stz	$9c                     ; 0x209c <f256main+0x176e>
     74d: 9c 16 d0     	stz	$d016                   ; 0xd016 <end_block9+0x47ec>
     750: 9c 17 d0     	stz	$d017                   ; 0xd017 <end_block9+0x47ed>
     753: a2 40        	ldx	#$40
     755: 8e 00 de     	stx	$de00                   ; 0xde00 <end_block9+0x55d6>
     758: a2 01        	ldx	#$1
     75a: 8e 01 de     	stx	$de01                   ; 0xde01 <end_block9+0x55d7>
     75d: a2 f0        	ldx	#$f0
     75f: 8e 02 de     	stx	$de02                   ; 0xde02 <end_block9+0x55d8>
     762: 9c 03 de     	stz	$de03                   ; 0xde03 <end_block9+0x55d9>
     765: ae 10 de     	ldx	$de10                   ; 0xde10 <end_block9+0x55e6>
     768: 86 17        	stx	$17                     ; 0x2017 <f256main+0x16e9>
     76a: ae 11 de     	ldx	$de11                   ; 0xde11 <end_block9+0x55e7>
     76d: 86 12        	stx	$12                     ; 0x2012 <f256main+0x16e4>
     76f: ae 12 de     	ldx	$de12                   ; 0xde12 <end_block9+0x55e8>
     772: 86 13        	stx	$13                     ; 0x2013 <f256main+0x16e5>
     774: ae 13 de     	ldx	$de13                   ; 0xde13 <end_block9+0x55e9>
     777: 86 14        	stx	$14                     ; 0x2014 <f256main+0x16e6>
     779: 9c 31 82     	stz	$8231                   ; 0x8231 <_active>
     77c: a2 ff        	ldx	#$ff
     77e: 8e 32 82     	stx	$8232                   ; 0x8232 <_color>
     781: a6 12        	ldx	$12                     ; 0x2012 <f256main+0x16e4>
     783: 86 15        	stx	$15                     ; 0x2015 <f256main+0x16e7>
     785: 06 15        	asl	$15                     ; 0x2015 <f256main+0x16e7>
     787: a5 13        	lda	$13                     ; 0x2013 <f256main+0x16e5>
     789: 2a           	rol
     78a: a6 14        	ldx	$14                     ; 0x2014 <f256main+0x16e6>
     78c: 86 16        	stx	$16                     ; 0x2016 <f256main+0x16e8>
     78e: 26 16        	rol	$16                     ; 0x2016 <f256main+0x16e8>
     790: 06 15        	asl	$15                     ; 0x2015 <f256main+0x16e7>
     792: 2a           	rol
     793: 26 16        	rol	$16                     ; 0x2016 <f256main+0x16e8>
     795: 06 15        	asl	$15                     ; 0x2015 <f256main+0x16e7>
     797: 2a           	rol
     798: 26 16        	rol	$16                     ; 0x2016 <f256main+0x16e8>
     79a: 85 15        	sta	$15                     ; 0x2015 <f256main+0x16e7>
     79c: 8d 00 de     	sta	$de00                   ; 0xde00 <end_block9+0x55d6>
     79f: a5 16        	lda	$16                     ; 0x2016 <f256main+0x16e8>
     7a1: 8d 01 de     	sta	$de01                   ; 0xde01 <end_block9+0x55d7>
     7a4: 9c 02 de     	stz	$de02                   ; 0xde02 <end_block9+0x55d8>
     7a7: a2 20        	ldx	#$20
     7a9: 8e 03 de     	stx	$de03                   ; 0xde03 <end_block9+0x55d9>
     7ac: ae 10 de     	ldx	$de10                   ; 0xde10 <end_block9+0x55e6>
     7af: 86 16        	stx	$16                     ; 0x2016 <f256main+0x16e8>
     7b1: ae 11 de     	ldx	$de11                   ; 0xde11 <end_block9+0x55e7>
     7b4: 86 18        	stx	$18                     ; 0x2018 <f256main+0x16ea>
     7b6: ac 12 de     	ldy	$de12                   ; 0xde12 <end_block9+0x55e8>
     7b9: ae 13 de     	ldx	$de13                   ; 0xde13 <end_block9+0x55e9>
     7bc: e4 14        	cpx	$14                     ; 0x2014 <f256main+0x16e6>
     7be: d0 14        	bne	$7d4 <f256Init+0x2de>
     7c0: c4 13        	cpy	$13                     ; 0x2013 <f256main+0x16e5>
     7c2: d0 10        	bne	$7d4 <f256Init+0x2de>
     7c4: a6 18        	ldx	$18                     ; 0x2018 <f256main+0x16ea>
     7c6: e4 12        	cpx	$12                     ; 0x2012 <f256main+0x16e4>
     7c8: d0 0a        	bne	$7d4 <f256Init+0x2de>
     7ca: a6 16        	ldx	$16                     ; 0x2016 <f256main+0x16e8>
     7cc: e4 17        	cpx	$17                     ; 0x2017 <f256main+0x16e9>
     7ce: d0 04        	bne	$7d4 <f256Init+0x2de>
     7d0: a6 15        	ldx	$15                     ; 0x2015 <f256main+0x16e7>
     7d2: 80 06        	bra	$7da <f256Init+0x2e4>
     7d4: a6 15        	ldx	$15                     ; 0x2015 <f256main+0x16e7>
     7d6: e8           	inx
     7d7: d0 01        	bne	$7da <f256Init+0x2e4>
     7d9: 1a           	inc
     7da: 8e 00 de     	stx	$de00                   ; 0xde00 <end_block9+0x55d6>
     7dd: 8d 01 de     	sta	$de01                   ; 0xde01 <end_block9+0x55d7>
     7e0: 9c 02 de     	stz	$de02                   ; 0xde02 <end_block9+0x55d8>
     7e3: a2 20        	ldx	#$20
     7e5: 8e 03 de     	stx	$de03                   ; 0xde03 <end_block9+0x55d9>
     7e8: ae 10 de     	ldx	$de10                   ; 0xde10 <end_block9+0x55e6>
     7eb: 86 12        	stx	$12                     ; 0x2012 <f256main+0x16e4>
     7ed: ae 11 de     	ldx	$de11                   ; 0xde11 <end_block9+0x55e7>
     7f0: 86 13        	stx	$13                     ; 0x2013 <f256main+0x16e5>
     7f2: ae 12 de     	ldx	$de12                   ; 0xde12 <end_block9+0x55e8>
     7f5: 86 14        	stx	$14                     ; 0x2014 <f256main+0x16e6>
     7f7: ae 13 de     	ldx	$de13                   ; 0xde13 <end_block9+0x55e9>
     7fa: 86 15        	stx	$15                     ; 0x2015 <f256main+0x16e7>
     7fc: 38           	sec
     7fd: a9 00        	lda	#$0
     7ff: e5 12        	sbc	$12                     ; 0x2012 <f256main+0x16e4>
     801: 85 18        	sta	$18                     ; 0x2018 <f256main+0x16ea>
     803: a9 00        	lda	#$0
     805: e5 13        	sbc	$13                     ; 0x2013 <f256main+0x16e5>
     807: a8           	tay
     808: a9 08        	lda	#$8
     80a: e5 14        	sbc	$14                     ; 0x2014 <f256main+0x16e6>
     80c: aa           	tax
     80d: a9 00        	lda	#$0
     80f: e5 15        	sbc	$15                     ; 0x2015 <f256main+0x16e7>
     811: 85 17        	sta	$17                     ; 0x2017 <f256main+0x16e9>
     813: 8c 26 82     	sty	$8226                   ; 0x8226 <_BITMAP_BASE+0x1>
     816: 8e 27 82     	stx	$8227                   ; 0x8227 <_BITMAP_BASE+0x2>
     819: 8d 28 82     	sta	$8228                   ; 0x8228 <_BITMAP_BASE+0x3>
     81c: a5 18        	lda	$18                     ; 0x2018 <f256main+0x16ea>
     81e: 38           	sec
     81f: e5 12        	sbc	$12                     ; 0x2012 <f256main+0x16e4>
     821: 85 19        	sta	$19                     ; 0x2019 <f256main+0x16eb>
     823: 98           	tya
     824: e5 13        	sbc	$13                     ; 0x2013 <f256main+0x16e5>
     826: 85 16        	sta	$16                     ; 0x2016 <f256main+0x16e8>
     828: 8a           	txa
     829: e5 14        	sbc	$14                     ; 0x2014 <f256main+0x16e6>
     82b: aa           	tax
     82c: a5 17        	lda	$17                     ; 0x2017 <f256main+0x16e9>
     82e: e5 15        	sbc	$15                     ; 0x2015 <f256main+0x16e7>
     830: 85 17        	sta	$17                     ; 0x2017 <f256main+0x16e9>
     832: 38           	sec
     833: a5 19        	lda	$19                     ; 0x2019 <f256main+0x16eb>
     835: 8d 29 82     	sta	$8229                   ; 0x8229 <_BITMAP_BASE+0x4>
     838: a4 16        	ldy	$16                     ; 0x2016 <f256main+0x16e8>
     83a: 8c 2a 82     	sty	$822a                   ; 0x822a <_BITMAP_BASE+0x5>
     83d: 8e 2b 82     	stx	$822b                   ; 0x822b <_BITMAP_BASE+0x6>
     840: a4 17        	ldy	$17                     ; 0x2017 <f256main+0x16e9>
     842: 8c 2c 82     	sty	$822c                   ; 0x822c <_BITMAP_BASE+0x7>
     845: e5 12        	sbc	$12                     ; 0x2012 <f256main+0x16e4>
     847: a8           	tay
     848: a5 16        	lda	$16                     ; 0x2016 <f256main+0x16e8>
     84a: e5 13        	sbc	$13                     ; 0x2013 <f256main+0x16e5>
     84c: 85 12        	sta	$12                     ; 0x2012 <f256main+0x16e4>
     84e: 8a           	txa
     84f: e5 14        	sbc	$14                     ; 0x2014 <f256main+0x16e6>
     851: 85 13        	sta	$13                     ; 0x2013 <f256main+0x16e5>
     853: a5 17        	lda	$17                     ; 0x2017 <f256main+0x16e9>
     855: e5 15        	sbc	$15                     ; 0x2015 <f256main+0x16e7>
     857: 8c 2d 82     	sty	$822d                   ; 0x822d <_BITMAP_BASE+0x8>
     85a: a4 12        	ldy	$12                     ; 0x2012 <f256main+0x16e4>
     85c: 8c 2e 82     	sty	$822e                   ; 0x822e <_BITMAP_BASE+0x9>
     85f: a6 13        	ldx	$13                     ; 0x2013 <f256main+0x16e5>
     861: 8e 2f 82     	stx	$822f                   ; 0x822f <_BITMAP_BASE+0xa>
     864: 8d 30 82     	sta	$8230                   ; 0x8230 <_BITMAP_BASE+0xb>
     867: a9 08        	lda	#$8
     869: a6 18        	ldx	$18                     ; 0x2018 <f256main+0x16ea>
     86b: 8e 25 82     	stx	$8225                   ; 0x8225 <_BITMAP_BASE>
     86e: 9c 33 82     	stz	$8233                   ; 0x8233 <_BITMAP_CLUT.1>
     871: 8e 01 d1     	stx	$d101                   ; 0xd101 <end_block9+0x48d7>
     874: ae 26 82     	ldx	$8226                   ; 0x8226 <_BITMAP_BASE+0x1>
     877: 8e 02 d1     	stx	$d102                   ; 0xd102 <end_block9+0x48d8>
     87a: ae 27 82     	ldx	$8227                   ; 0x8227 <_BITMAP_BASE+0x2>
     87d: 8e 03 d1     	stx	$d103                   ; 0xd103 <end_block9+0x48d9>
     880: ae 29 82     	ldx	$8229                   ; 0x8229 <_BITMAP_BASE+0x4>
     883: 8e 09 d1     	stx	$d109                   ; 0xd109 <end_block9+0x48df>
     886: ae 2a 82     	ldx	$822a                   ; 0x822a <_BITMAP_BASE+0x5>
     889: 8e 0a d1     	stx	$d10a                   ; 0xd10a <end_block9+0x48e0>
     88c: ae 2b 82     	ldx	$822b                   ; 0x822b <_BITMAP_BASE+0x6>
     88f: 8e 0b d1     	stx	$d10b                   ; 0xd10b <end_block9+0x48e1>
     892: ae 2d 82     	ldx	$822d                   ; 0x822d <_BITMAP_BASE+0x8>
     895: 8e 11 d1     	stx	$d111                   ; 0xd111 <end_block9+0x48e7>
     898: ae 2e 82     	ldx	$822e                   ; 0x822e <_BITMAP_BASE+0x9>
     89b: 8e 12 d1     	stx	$d112                   ; 0xd112 <end_block9+0x48e8>
     89e: ae 2f 82     	ldx	$822f                   ; 0x822f <_BITMAP_BASE+0xa>
     8a1: 8e 13 d1     	stx	$d113                   ; 0xd113 <end_block9+0x48e9>
     8a4: 9c 00 d1     	stz	$d100                   ; 0xd100 <end_block9+0x48d6>
     8a7: 9c 08 d1     	stz	$d108                   ; 0xd108 <end_block9+0x48de>
     8aa: 9c 10 d1     	stz	$d110                   ; 0xd110 <end_block9+0x48e6>
     8ad: 8d 34 82     	sta	$8234                   ; 0x8234 <_tileSize.0>
     8b0: a2 10        	ldx	#$10
     8b2: 8e 00 d2     	stx	$d200                   ; 0xd200 <end_block9+0x49d6>
     8b5: 8e 0c d2     	stx	$d20c                   ; 0xd20c <end_block9+0x49e2>
     8b8: 8e 18 d2     	stx	$d218                   ; 0xd218 <end_block9+0x49ee>
     8bb: a0 d9        	ldy	#$d9
     8bd: 64 12        	stz	$12                     ; 0x2012 <f256main+0x16e4>
     8bf: a2 00        	ldx	#$0
     8c1: 84 13        	sty	$13                     ; 0x2013 <f256main+0x16e5>
     8c3: bd 35 82     	lda	$8235,x                 ; 0x8235 <_spriteCtl>
     8c6: 92 12        	sta	($12)                   ; 0x2012 <f256main+0x16e4>
     8c8: e8           	inx
     8c9: 18           	clc
     8ca: a5 12        	lda	$12                     ; 0x2012 <f256main+0x16e4>
     8cc: 69 08        	adc	#$8
     8ce: 85 12        	sta	$12                     ; 0x2012 <f256main+0x16e4>
     8d0: 98           	tya
     8d1: 69 00        	adc	#$0
     8d3: a8           	tay
     8d4: e0 40        	cpx	#$40
     8d6: d0 e9        	bne	$8c1 <f256Init+0x3cb>
     8d8: a2 f9        	ldx	#$f9
     8da: a0 87        	ldy	#$87
     8dc: 86 fb        	stx	$fb                     ; 0x20fb <f256main+0x17cd>
     8de: 84 fc        	sty	$fc                     ; 0x20fc <f256main+0x17ce>
     8e0: a2 08        	ldx	#$8
     8e2: 86 fd        	stx	$fd                     ; 0x20fd <f256main+0x17cf>
     8e4: a2 d1        	ldx	#$d1
     8e6: a0 00        	ldy	#$0
     8e8: 86 12        	stx	$12                     ; 0x2012 <f256main+0x16e4>
     8ea: 84 13        	sty	$13                     ; 0x2013 <f256main+0x16e5>
     8ec: a2 24        	ldx	#$24
     8ee: 86 14        	stx	$14                     ; 0x2014 <f256main+0x16e6>
     8f0: a2 82        	ldx	#$82
     8f2: 86 15        	stx	$15                     ; 0x2015 <f256main+0x16e7>
     8f4: 20 dc ff     	jsr	$ffdc <end_block9+0x77b2>
     8f7: 92 12        	sta	($12)                   ; 0x2012 <f256main+0x16e4>
     8f9: a9 00        	lda	#$0
     8fb: 6a           	ror
     8fc: 85 14        	sta	$14                     ; 0x2014 <f256main+0x16e6>
     8fe: ae ff 87     	ldx	$87ff                   ; 0x87ff <__data_load_start+0x5db>
     901: ac 00 88     	ldy	$8800                   ; 0x8800 <__data_load_start+0x5dc>
     904: 8e 00 de     	stx	$de00                   ; 0xde00 <end_block9+0x55d6>
     907: 9c 01 de     	stz	$de01                   ; 0xde01 <end_block9+0x55d7>
     90a: 8c 02 de     	sty	$de02                   ; 0xde02 <end_block9+0x55d8>
     90d: 9c 03 de     	stz	$de03                   ; 0xde03 <end_block9+0x55d9>
     910: ae 10 de     	ldx	$de10                   ; 0xde10 <end_block9+0x55e6>
     913: ac 11 de     	ldy	$de11                   ; 0xde11 <end_block9+0x55e7>
     916: ad 12 de     	lda	$de12                   ; 0xde12 <end_block9+0x55e8>
     919: ad 13 de     	lda	$de13                   ; 0xde13 <end_block9+0x55e9>
     91c: 8e a4 d6     	stx	$d6a4                   ; 0xd6a4 <end_block9+0x4e7a>
     91f: 8c a5 d6     	sty	$d6a5                   ; 0xd6a5 <end_block9+0x4e7b>
     922: a2 03        	ldx	#$3
     924: 8e a6 d6     	stx	$d6a6                   ; 0xd6a6 <end_block9+0x4e7c>
     927: 60           	rts

00000928 <main>:
     928: 20 f6 04     	jsr	$4f6 <f256Init>
     92b: 20 2e 09     	jsr	$92e <f256main>

0000092e <f256main>:
     92e: 18           	clc
     92f: a5 10        	lda	$10                     ; 0x2010 <f256main+0x16e2>
     931: 69 f3        	adc	#$f3
     933: 85 10        	sta	$10                     ; 0x2010 <f256main+0x16e2>
     935: a5 11        	lda	$11                     ; 0x2011 <f256main+0x16e3>
     937: 69 ff        	adc	#$ff
     939: 85 11        	sta	$11                     ; 0x2011 <f256main+0x16e3>
     93b: 64 01        	stz	$1                      ; 0x2001 <f256main+0x16d3>
     93d: a2 3f        	ldx	#$3f
     93f: 8e 00 d0     	stx	$d000                   ; 0xd000 <end_block9+0x47d6>
     942: a2 04        	ldx	#$4
     944: 8e 01 d0     	stx	$d001                   ; 0xd001 <end_block9+0x47d7>
     947: a2 14        	ldx	#$14
     949: 8e 02 d0     	stx	$d002                   ; 0xd002 <end_block9+0x47d8>
     94c: 9c 03 d0     	stz	$d003                   ; 0xd003 <end_block9+0x47d9>
     94f: 9c 0d d0     	stz	$d00d                   ; 0xd00d <end_block9+0x47e3>
     952: 9c 0e d0     	stz	$d00e                   ; 0xd00e <end_block9+0x47e4>
     955: 9c 0f d0     	stz	$d00f                   ; 0xd00f <end_block9+0x47e5>
     958: a2 01        	ldx	#$1
     95a: 86 01        	stx	$1                      ; 0x2001 <f256main+0x16d3>
     95c: a2 f0        	ldx	#$f0
     95e: a0 00        	ldy	#$0
     960: 84 12        	sty	$12                     ; 0x2012 <f256main+0x16e4>
     962: 86 13        	stx	$13                     ; 0x2013 <f256main+0x16e5>
     964: a5 0f        	lda	$f                      ; 0x200f <f256main+0x16e1>
     966: 85 15        	sta	$15                     ; 0x2015 <f256main+0x16e7>
     968: 78           	sei
     969: a9 0a        	lda	#$a
     96b: 85 0f        	sta	$f                      ; 0x200f <f256main+0x16e1>
     96d: b2 12        	lda	($12)                   ; 0x2012 <f256main+0x16e4>
     96f: 85 14        	sta	$14                     ; 0x2014 <f256main+0x16e6>
     971: a5 15        	lda	$15                     ; 0x2015 <f256main+0x16e7>
     973: 85 0f        	sta	$f                      ; 0x200f <f256main+0x16e1>
     975: 98           	tya
     976: 18           	clc
     977: 69 00        	adc	#$0
     979: 85 12        	sta	$12                     ; 0x2012 <f256main+0x16e4>
     97b: 8a           	txa
     97c: 69 e0        	adc	#$e0
     97e: 58           	cli
     97f: 85 13        	sta	$13                     ; 0x2013 <f256main+0x16e5>
     981: a5 14        	lda	$14                     ; 0x2014 <f256main+0x16e6>
     983: 92 12        	sta	($12)                   ; 0x2012 <f256main+0x16e4>
     985: c8           	iny
     986: f0 06        	beq	$98e <f256main+0x60>
     988: e0 f3        	cpx	#$f3
     98a: d0 d4        	bne	$960 <f256main+0x32>
     98c: 80 05        	bra	$993 <f256main+0x65>
     98e: e8           	inx
     98f: e0 f3        	cpx	#$f3
     991: d0 cd        	bne	$960 <f256main+0x32>
     993: c0 ff        	cpy	#$ff
     995: d0 c9        	bne	$960 <f256main+0x32>
     997: a2 d4        	ldx	#$d4
     999: a0 00        	ldy	#$0
     99b: 84 17        	sty	$17                     ; 0x2017 <f256main+0x16e9>
     99d: 98           	tya
     99e: 18           	clc
     99f: 69 00        	adc	#$0
     9a1: 85 14        	sta	$14                     ; 0x2014 <f256main+0x16e6>
     9a3: 8a           	txa
     9a4: 69 0c        	adc	#$c
     9a6: 85 15        	sta	$15                     ; 0x2015 <f256main+0x16e7>
     9a8: 84 12        	sty	$12                     ; 0x2012 <f256main+0x16e4>
     9aa: 86 13        	stx	$13                     ; 0x2013 <f256main+0x16e5>
     9ac: a4 0f        	ldy	$f                      ; 0x200f <f256main+0x16e1>
     9ae: 78           	sei
     9af: a9 18        	lda	#$18
     9b1: 85 0f        	sta	$f                      ; 0x200f <f256main+0x16e1>
     9b3: b2 14        	lda	($14)                   ; 0x2014 <f256main+0x16e6>
     9b5: 84 0f        	sty	$f                      ; 0x200f <f256main+0x16e1>
     9b7: 58           	cli
     9b8: 92 12        	sta	($12)                   ; 0x2012 <f256main+0x16e4>
     9ba: a4 17        	ldy	$17                     ; 0x2017 <f256main+0x16e9>
     9bc: c8           	iny
     9bd: f0 06        	beq	$9c5 <f256main+0x97>
     9bf: e0 d7        	cpx	#$d7
     9c1: d0 d8        	bne	$99b <f256main+0x6d>
     9c3: 80 05        	bra	$9ca <f256main+0x9c>
     9c5: e8           	inx
     9c6: e0 d7        	cpx	#$d7
     9c8: d0 d1        	bne	$99b <f256main+0x6d>
     9ca: c0 ff        	cpy	#$ff
     9cc: d0 cd        	bne	$99b <f256main+0x6d>
     9ce: 64 01        	stz	$1                      ; 0x2001 <f256main+0x16d3>
     9d0: 9c 31 82     	stz	$8231                   ; 0x8231 <_active>
     9d3: ad 00 d1     	lda	$d100                   ; 0xd100 <end_block9+0x48d6>
     9d6: 29 f9        	and	#$f9
     9d8: 8d 00 d1     	sta	$d100                   ; 0xd100 <end_block9+0x48d6>
     9db: a2 03        	ldx	#$3
     9dd: 8e 32 82     	stx	$8232                   ; 0x8232 <_color>
     9e0: 20 2d 5d     	jsr	$5d2d <bitmapClear>
     9e3: a2 01        	ldx	#$1
     9e5: 8e 31 82     	stx	$8231                   ; 0x8231 <_active>
     9e8: 8e 33 82     	stx	$8233                   ; 0x8233 <_BITMAP_CLUT.1>
     9eb: ad 08 d1     	lda	$d108                   ; 0xd108 <end_block9+0x48de>
     9ee: 29 f9        	and	#$f9
     9f0: 09 02        	ora	#$2
     9f2: 8d 08 d1     	sta	$d108                   ; 0xd108 <end_block9+0x48de>
     9f5: 20 2d 5d     	jsr	$5d2d <bitmapClear>
     9f8: 9c 29 82     	stz	$8229                   ; 0x8229 <_BITMAP_BASE+0x4>
     9fb: a2 04        	ldx	#$4
     9fd: 8e 2a 82     	stx	$822a                   ; 0x822a <_BITMAP_BASE+0x5>
     a00: a0 03        	ldy	#$3
     a02: 8c 2b 82     	sty	$822b                   ; 0x822b <_BITMAP_BASE+0x6>
     a05: 9c 2c 82     	stz	$822c                   ; 0x822c <_BITMAP_BASE+0x7>
     a08: 9c 09 d1     	stz	$d109                   ; 0xd109 <end_block9+0x48df>
     a0b: 8e 0a d1     	stx	$d10a                   ; 0xd10a <end_block9+0x48e0>
     a0e: ca           	dex
     a0f: 8e 0b d1     	stx	$d10b                   ; 0xd10b <end_block9+0x48e1>
     a12: a0 01        	ldy	#$1
     a14: 8c 00 d1     	sty	$d100                   ; 0xd100 <end_block9+0x48d6>
     a17: ad 33 82     	lda	$8233                   ; 0x8233 <_BITMAP_CLUT.1>
     a1a: 29 01        	and	#$1
     a1c: d0 02        	bne	$a20 <f256main+0xf2>
     a1e: a2 01        	ldx	#$1
     a20: 8e 08 d1     	stx	$d108                   ; 0xd108 <end_block9+0x48de>
     a23: 9c 10 d1     	stz	$d110                   ; 0xd110 <end_block9+0x48e6>
     a26: a9 10        	lda	#$10
     a28: 8d 34 82     	sta	$8234                   ; 0x8234 <_tileSize.0>
     a2b: 9c 01 d2     	stz	$d201                   ; 0xd201 <end_block9+0x49d7>
     a2e: a2 54        	ldx	#$54
     a30: 8e 02 d2     	stx	$d202                   ; 0xd202 <end_block9+0x49d8>
     a33: a2 01        	ldx	#$1
     a35: 8e 03 d2     	stx	$d203                   ; 0xd203 <end_block9+0x49d9>
     a38: a2 14        	ldx	#$14
     a3a: 8e 04 d2     	stx	$d204                   ; 0xd204 <end_block9+0x49da>
     a3d: 9c 05 d2     	stz	$d205                   ; 0xd205 <end_block9+0x49db>
     a40: a8           	tay
     a41: 8d 06 d2     	sta	$d206                   ; 0xd206 <end_block9+0x49dc>
     a44: 9c 07 d2     	stz	$d207                   ; 0xd207 <end_block9+0x49dd>
     a47: 9c 08 d2     	stz	$d208                   ; 0xd208 <end_block9+0x49de>
     a4a: 9c 09 d2     	stz	$d209                   ; 0xd209 <end_block9+0x49df>
     a4d: 9c 0a d2     	stz	$d20a                   ; 0xd20a <end_block9+0x49e0>
     a50: 9c 0b d2     	stz	$d20b                   ; 0xd20b <end_block9+0x49e1>
     a53: 9c 80 d2     	stz	$d280                   ; 0xd280 <end_block9+0x4a56>
     a56: 9c 81 d2     	stz	$d281                   ; 0xd281 <end_block9+0x4a57>
     a59: a2 01        	ldx	#$1
     a5b: 8e 82 d2     	stx	$d282                   ; 0xd282 <end_block9+0x4a58>
     a5e: 9c 83 d2     	stz	$d283                   ; 0xd283 <end_block9+0x4a59>
     a61: ad 34 82     	lda	$8234                   ; 0x8234 <_tileSize.0>
     a64: a2 11        	ldx	#$11
     a66: c9 08        	cmp	#$8
     a68: f0 02        	beq	$a6c <f256main+0x13e>
     a6a: a2 01        	ldx	#$1
     a6c: 8e 00 d2     	stx	$d200                   ; 0xd200 <end_block9+0x49d6>
     a6f: 9c 08 d2     	stz	$d208                   ; 0xd208 <end_block9+0x49de>
     a72: 9c 09 d2     	stz	$d209                   ; 0xd209 <end_block9+0x49df>
     a75: a2 04        	ldx	#$4
     a77: 8e 0a d2     	stx	$d20a                   ; 0xd20a <end_block9+0x49e0>
     a7a: 9c 0b d2     	stz	$d20b                   ; 0xd20b <end_block9+0x49e1>
     a7d: 64 12        	stz	$12                     ; 0x2012 <f256main+0x16e4>
     a7f: 64 13        	stz	$13                     ; 0x2013 <f256main+0x16e5>
     a81: 18           	clc
     a82: a6 12        	ldx	$12                     ; 0x2012 <f256main+0x16e4>
     a84: 86 16        	stx	$16                     ; 0x2016 <f256main+0x16e8>
     a86: a5 12        	lda	$12                     ; 0x2012 <f256main+0x16e4>
     a88: 69 00        	adc	#$0
     a8a: 85 17        	sta	$17                     ; 0x2017 <f256main+0x16e9>
     a8c: a6 13        	ldx	$13                     ; 0x2013 <f256main+0x16e5>
     a8e: 86 15        	stx	$15                     ; 0x2015 <f256main+0x16e7>
     a90: a5 13        	lda	$13                     ; 0x2013 <f256main+0x16e5>
     a92: 69 54        	adc	#$54
     a94: 85 13        	sta	$13                     ; 0x2013 <f256main+0x16e5>
     a96: 84 14        	sty	$14                     ; 0x2014 <f256main+0x16e6>
     a98: a9 00        	lda	#$0
     a9a: 69 01        	adc	#$1
     a9c: a6 0f        	ldx	$f                      ; 0x200f <f256main+0x16e1>
     a9e: 78           	sei
     a9f: a4 13        	ldy	$13                     ; 0x2013 <f256main+0x16e5>
     aa1: 84 12        	sty	$12                     ; 0x2012 <f256main+0x16e4>
     aa3: 06 12        	asl	$12                     ; 0x2012 <f256main+0x16e4>
     aa5: 2a           	rol
     aa6: 06 12        	asl	$12                     ; 0x2012 <f256main+0x16e4>
     aa8: 2a           	rol
     aa9: 06 12        	asl	$12                     ; 0x2012 <f256main+0x16e4>
     aab: 2a           	rol
     aac: 85 0f        	sta	$f                      ; 0x200f <f256main+0x16e1>
     aae: a5 13        	lda	$13                     ; 0x2013 <f256main+0x16e5>
     ab0: 09 e0        	ora	#$e0
     ab2: a4 17        	ldy	$17                     ; 0x2017 <f256main+0x16e9>
     ab4: 84 12        	sty	$12                     ; 0x2012 <f256main+0x16e4>
     ab6: 85 13        	sta	$13                     ; 0x2013 <f256main+0x16e5>
     ab8: a9 3f        	lda	#$3f
     aba: 92 12        	sta	($12)                   ; 0x2012 <f256main+0x16e4>
     abc: a9 00        	lda	#$0
     abe: a0 01        	ldy	#$1
     ac0: 91 12        	sta	($12),y                 ; 0x2012 <f256main+0x16e4>
     ac2: 86 0f        	stx	$f                      ; 0x200f <f256main+0x16e1>
     ac4: 58           	cli
     ac5: 18           	clc
     ac6: a5 16        	lda	$16                     ; 0x2016 <f256main+0x16e8>
     ac8: 69 02        	adc	#$2
     aca: 85 13        	sta	$13                     ; 0x2013 <f256main+0x16e5>
     acc: a5 15        	lda	$15                     ; 0x2015 <f256main+0x16e7>
     ace: 69 54        	adc	#$54
     ad0: 85 17        	sta	$17                     ; 0x2017 <f256main+0x16e9>
     ad2: a9 00        	lda	#$0
     ad4: 69 01        	adc	#$1
     ad6: a6 0f        	ldx	$f                      ; 0x200f <f256main+0x16e1>
     ad8: 78           	sei
     ad9: 5a           	phy
     ada: a4 17        	ldy	$17                     ; 0x2017 <f256main+0x16e9>
     adc: 84 12        	sty	$12                     ; 0x2012 <f256main+0x16e4>
     ade: 06 12        	asl	$12                     ; 0x2012 <f256main+0x16e4>
     ae0: 2a           	rol
     ae1: 06 12        	asl	$12                     ; 0x2012 <f256main+0x16e4>
     ae3: 2a           	rol
     ae4: 06 12        	asl	$12                     ; 0x2012 <f256main+0x16e4>
     ae6: 2a           	rol
     ae7: 85 0f        	sta	$f                      ; 0x200f <f256main+0x16e1>
     ae9: a5 17        	lda	$17                     ; 0x2017 <f256main+0x16e9>
     aeb: 09 e0        	ora	#$e0
     aed: a4 13        	ldy	$13                     ; 0x2013 <f256main+0x16e5>
     aef: 84 12        	sty	$12                     ; 0x2012 <f256main+0x16e4>
     af1: 7a           	ply
     af2: 85 13        	sta	$13                     ; 0x2013 <f256main+0x16e5>
     af4: a9 3f        	lda	#$3f
     af6: 92 12        	sta	($12)                   ; 0x2012 <f256main+0x16e4>
     af8: a9 00        	lda	#$0
     afa: 91 12        	sta	($12),y                 ; 0x2012 <f256main+0x16e4>
     afc: 86 0f        	stx	$f                      ; 0x200f <f256main+0x16e1>
     afe: 58           	cli
     aff: 18           	clc
     b00: a5 16        	lda	$16                     ; 0x2016 <f256main+0x16e8>
     b02: 69 04        	adc	#$4
     b04: 85 13        	sta	$13                     ; 0x2013 <f256main+0x16e5>
     b06: a5 15        	lda	$15                     ; 0x2015 <f256main+0x16e7>
     b08: 69 54        	adc	#$54
     b0a: 85 17        	sta	$17                     ; 0x2017 <f256main+0x16e9>
     b0c: a9 00        	lda	#$0
     b0e: 69 01        	adc	#$1
     b10: a6 0f        	ldx	$f                      ; 0x200f <f256main+0x16e1>
     b12: 78           	sei
     b13: 5a           	phy
     b14: a4 17        	ldy	$17                     ; 0x2017 <f256main+0x16e9>
     b16: 84 12        	sty	$12                     ; 0x2012 <f256main+0x16e4>
     b18: 06 12        	asl	$12                     ; 0x2012 <f256main+0x16e4>
     b1a: 2a           	rol
     b1b: 06 12        	asl	$12                     ; 0x2012 <f256main+0x16e4>
     b1d: 2a           	rol
     b1e: 06 12        	asl	$12                     ; 0x2012 <f256main+0x16e4>
     b20: 2a           	rol
     b21: 85 0f        	sta	$f                      ; 0x200f <f256main+0x16e1>
     b23: a5 17        	lda	$17                     ; 0x2017 <f256main+0x16e9>
     b25: 09 e0        	ora	#$e0
     b27: a4 13        	ldy	$13                     ; 0x2013 <f256main+0x16e5>
     b29: 84 12        	sty	$12                     ; 0x2012 <f256main+0x16e4>
     b2b: 7a           	ply
     b2c: 85 13        	sta	$13                     ; 0x2013 <f256main+0x16e5>
     b2e: a9 3f        	lda	#$3f
     b30: 92 12        	sta	($12)                   ; 0x2012 <f256main+0x16e4>
     b32: a9 00        	lda	#$0
     b34: 91 12        	sta	($12),y                 ; 0x2012 <f256main+0x16e4>
     b36: 86 0f        	stx	$f                      ; 0x200f <f256main+0x16e1>
     b38: 58           	cli
     b39: 18           	clc
     b3a: a5 16        	lda	$16                     ; 0x2016 <f256main+0x16e8>
     b3c: 69 06        	adc	#$6
     b3e: 85 13        	sta	$13                     ; 0x2013 <f256main+0x16e5>
     b40: a5 15        	lda	$15                     ; 0x2015 <f256main+0x16e7>
     b42: 69 54        	adc	#$54
     b44: 85 17        	sta	$17                     ; 0x2017 <f256main+0x16e9>
     b46: a9 00        	lda	#$0
     b48: 69 01        	adc	#$1
     b4a: a6 0f        	ldx	$f                      ; 0x200f <f256main+0x16e1>
     b4c: 78           	sei
     b4d: 5a           	phy
     b4e: a4 17        	ldy	$17                     ; 0x2017 <f256main+0x16e9>
     b50: 84 12        	sty	$12                     ; 0x2012 <f256main+0x16e4>
     b52: 06 12        	asl	$12                     ; 0x2012 <f256main+0x16e4>
     b54: 2a           	rol
     b55: 06 12        	asl	$12                     ; 0x2012 <f256main+0x16e4>
     b57: 2a           	rol
     b58: 06 12        	asl	$12                     ; 0x2012 <f256main+0x16e4>
     b5a: 2a           	rol
     b5b: 85 0f        	sta	$f                      ; 0x200f <f256main+0x16e1>
     b5d: a5 17        	lda	$17                     ; 0x2017 <f256main+0x16e9>
     b5f: 09 e0        	ora	#$e0
     b61: a4 13        	ldy	$13                     ; 0x2013 <f256main+0x16e5>
     b63: 84 12        	sty	$12                     ; 0x2012 <f256main+0x16e4>
     b65: 7a           	ply
     b66: 85 13        	sta	$13                     ; 0x2013 <f256main+0x16e5>
     b68: a9 3f        	lda	#$3f
     b6a: 92 12        	sta	($12)                   ; 0x2012 <f256main+0x16e4>
     b6c: a9 00        	lda	#$0
     b6e: 91 12        	sta	($12),y                 ; 0x2012 <f256main+0x16e4>
     b70: 86 0f        	stx	$f                      ; 0x200f <f256main+0x16e1>
     b72: 58           	cli
     b73: 18           	clc
     b74: a5 16        	lda	$16                     ; 0x2016 <f256main+0x16e8>
     b76: 69 08        	adc	#$8
     b78: 85 13        	sta	$13                     ; 0x2013 <f256main+0x16e5>
     b7a: a5 15        	lda	$15                     ; 0x2015 <f256main+0x16e7>
     b7c: 69 54        	adc	#$54
     b7e: 85 17        	sta	$17                     ; 0x2017 <f256main+0x16e9>
     b80: a9 00        	lda	#$0
     b82: 69 01        	adc	#$1
     b84: a6 0f        	ldx	$f                      ; 0x200f <f256main+0x16e1>
     b86: 78           	sei
     b87: 5a           	phy
     b88: a4 17        	ldy	$17                     ; 0x2017 <f256main+0x16e9>
     b8a: 84 12        	sty	$12                     ; 0x2012 <f256main+0x16e4>
     b8c: 06 12        	asl	$12                     ; 0x2012 <f256main+0x16e4>
     b8e: 2a           	rol
     b8f: 06 12        	asl	$12                     ; 0x2012 <f256main+0x16e4>
     b91: 2a           	rol
     b92: 06 12        	asl	$12                     ; 0x2012 <f256main+0x16e4>
     b94: 2a           	rol
     b95: 85 0f        	sta	$f                      ; 0x200f <f256main+0x16e1>
     b97: a5 17        	lda	$17                     ; 0x2017 <f256main+0x16e9>
     b99: 09 e0        	ora	#$e0
     b9b: a4 13        	ldy	$13                     ; 0x2013 <f256main+0x16e5>
     b9d: 84 12        	sty	$12                     ; 0x2012 <f256main+0x16e4>
     b9f: 7a           	ply
     ba0: 85 13        	sta	$13                     ; 0x2013 <f256main+0x16e5>
     ba2: a9 3f        	lda	#$3f
     ba4: 92 12        	sta	($12)                   ; 0x2012 <f256main+0x16e4>
     ba6: a9 00        	lda	#$0
     ba8: 91 12        	sta	($12),y                 ; 0x2012 <f256main+0x16e4>
     baa: 86 0f        	stx	$f                      ; 0x200f <f256main+0x16e1>
     bac: 58           	cli
     bad: 18           	clc
     bae: a5 16        	lda	$16                     ; 0x2016 <f256main+0x16e8>
     bb0: 69 0a        	adc	#$a
     bb2: 85 13        	sta	$13                     ; 0x2013 <f256main+0x16e5>
     bb4: a5 15        	lda	$15                     ; 0x2015 <f256main+0x16e7>
     bb6: 69 54        	adc	#$54
     bb8: 85 17        	sta	$17                     ; 0x2017 <f256main+0x16e9>
     bba: a9 00        	lda	#$0
     bbc: 69 01        	adc	#$1
     bbe: a6 0f        	ldx	$f                      ; 0x200f <f256main+0x16e1>
     bc0: 78           	sei
     bc1: 5a           	phy
     bc2: a4 17        	ldy	$17                     ; 0x2017 <f256main+0x16e9>
     bc4: 84 12        	sty	$12                     ; 0x2012 <f256main+0x16e4>
     bc6: 06 12        	asl	$12                     ; 0x2012 <f256main+0x16e4>
     bc8: 2a           	rol
     bc9: 06 12        	asl	$12                     ; 0x2012 <f256main+0x16e4>
     bcb: 2a           	rol
     bcc: 06 12        	asl	$12                     ; 0x2012 <f256main+0x16e4>
     bce: 2a           	rol
     bcf: 85 0f        	sta	$f                      ; 0x200f <f256main+0x16e1>
     bd1: a5 17        	lda	$17                     ; 0x2017 <f256main+0x16e9>
     bd3: 09 e0        	ora	#$e0
     bd5: a4 13        	ldy	$13                     ; 0x2013 <f256main+0x16e5>
     bd7: 84 12        	sty	$12                     ; 0x2012 <f256main+0x16e4>
     bd9: 7a           	ply
     bda: 85 13        	sta	$13                     ; 0x2013 <f256main+0x16e5>
     bdc: a9 3f        	lda	#$3f
     bde: 92 12        	sta	($12)                   ; 0x2012 <f256main+0x16e4>
     be0: a9 00        	lda	#$0
     be2: 91 12        	sta	($12),y                 ; 0x2012 <f256main+0x16e4>
     be4: 86 0f        	stx	$f                      ; 0x200f <f256main+0x16e1>
     be6: 58           	cli
     be7: 18           	clc
     be8: a5 16        	lda	$16                     ; 0x2016 <f256main+0x16e8>
     bea: 69 0c        	adc	#$c
     bec: 85 13        	sta	$13                     ; 0x2013 <f256main+0x16e5>
     bee: a5 15        	lda	$15                     ; 0x2015 <f256main+0x16e7>
     bf0: 69 54        	adc	#$54
     bf2: 85 17        	sta	$17                     ; 0x2017 <f256main+0x16e9>
     bf4: a9 00        	lda	#$0
     bf6: 69 01        	adc	#$1
     bf8: a6 0f        	ldx	$f                      ; 0x200f <f256main+0x16e1>
     bfa: 78           	sei
     bfb: 5a           	phy
     bfc: a4 17        	ldy	$17                     ; 0x2017 <f256main+0x16e9>
     bfe: 84 12        	sty	$12                     ; 0x2012 <f256main+0x16e4>
     c00: 06 12        	asl	$12                     ; 0x2012 <f256main+0x16e4>
     c02: 2a           	rol
     c03: 06 12        	asl	$12                     ; 0x2012 <f256main+0x16e4>
     c05: 2a           	rol
     c06: 06 12        	asl	$12                     ; 0x2012 <f256main+0x16e4>
     c08: 2a           	rol
     c09: 85 0f        	sta	$f                      ; 0x200f <f256main+0x16e1>
     c0b: a5 17        	lda	$17                     ; 0x2017 <f256main+0x16e9>
     c0d: 09 e0        	ora	#$e0
     c0f: a4 13        	ldy	$13                     ; 0x2013 <f256main+0x16e5>
     c11: 84 12        	sty	$12                     ; 0x2012 <f256main+0x16e4>
     c13: 7a           	ply
     c14: 85 13        	sta	$13                     ; 0x2013 <f256main+0x16e5>
     c16: a9 3f        	lda	#$3f
     c18: 92 12        	sta	($12)                   ; 0x2012 <f256main+0x16e4>
     c1a: a9 00        	lda	#$0
     c1c: 91 12        	sta	($12),y                 ; 0x2012 <f256main+0x16e4>
     c1e: 86 0f        	stx	$f                      ; 0x200f <f256main+0x16e1>
     c20: 58           	cli
     c21: 18           	clc
     c22: a5 16        	lda	$16                     ; 0x2016 <f256main+0x16e8>
     c24: 69 0e        	adc	#$e
     c26: 85 13        	sta	$13                     ; 0x2013 <f256main+0x16e5>
     c28: a5 15        	lda	$15                     ; 0x2015 <f256main+0x16e7>
     c2a: 69 54        	adc	#$54
     c2c: 85 17        	sta	$17                     ; 0x2017 <f256main+0x16e9>
     c2e: a9 00        	lda	#$0
     c30: 69 01        	adc	#$1
     c32: a6 0f        	ldx	$f                      ; 0x200f <f256main+0x16e1>
     c34: 78           	sei
     c35: 5a           	phy
     c36: a4 17        	ldy	$17                     ; 0x2017 <f256main+0x16e9>
     c38: 84 12        	sty	$12                     ; 0x2012 <f256main+0x16e4>
     c3a: 06 12        	asl	$12                     ; 0x2012 <f256main+0x16e4>
     c3c: 2a           	rol
     c3d: 06 12        	asl	$12                     ; 0x2012 <f256main+0x16e4>
     c3f: 2a           	rol
     c40: 06 12        	asl	$12                     ; 0x2012 <f256main+0x16e4>
     c42: 2a           	rol
     c43: 85 0f        	sta	$f                      ; 0x200f <f256main+0x16e1>
     c45: a5 17        	lda	$17                     ; 0x2017 <f256main+0x16e9>
     c47: 09 e0        	ora	#$e0
     c49: a4 13        	ldy	$13                     ; 0x2013 <f256main+0x16e5>
     c4b: 84 12        	sty	$12                     ; 0x2012 <f256main+0x16e4>
     c4d: 7a           	ply
     c4e: 85 13        	sta	$13                     ; 0x2013 <f256main+0x16e5>
     c50: a9 3f        	lda	#$3f
     c52: 92 12        	sta	($12)                   ; 0x2012 <f256main+0x16e4>
     c54: a9 00        	lda	#$0
     c56: 91 12        	sta	($12),y                 ; 0x2012 <f256main+0x16e4>
     c58: 86 0f        	stx	$f                      ; 0x200f <f256main+0x16e1>
     c5a: 58           	cli
     c5b: 18           	clc
     c5c: a5 16        	lda	$16                     ; 0x2016 <f256main+0x16e8>
     c5e: 69 10        	adc	#$10
     c60: 85 13        	sta	$13                     ; 0x2013 <f256main+0x16e5>
     c62: a5 15        	lda	$15                     ; 0x2015 <f256main+0x16e7>
     c64: 69 54        	adc	#$54
     c66: 85 17        	sta	$17                     ; 0x2017 <f256main+0x16e9>
     c68: a9 00        	lda	#$0
     c6a: 69 01        	adc	#$1
     c6c: a6 0f        	ldx	$f                      ; 0x200f <f256main+0x16e1>
     c6e: 78           	sei
     c6f: 5a           	phy
     c70: a4 17        	ldy	$17                     ; 0x2017 <f256main+0x16e9>
     c72: 84 12        	sty	$12                     ; 0x2012 <f256main+0x16e4>
     c74: 06 12        	asl	$12                     ; 0x2012 <f256main+0x16e4>
     c76: 2a           	rol
     c77: 06 12        	asl	$12                     ; 0x2012 <f256main+0x16e4>
     c79: 2a           	rol
     c7a: 06 12        	asl	$12                     ; 0x2012 <f256main+0x16e4>
     c7c: 2a           	rol
     c7d: 85 0f        	sta	$f                      ; 0x200f <f256main+0x16e1>
     c7f: a5 17        	lda	$17                     ; 0x2017 <f256main+0x16e9>
     c81: 09 e0        	ora	#$e0
     c83: a4 13        	ldy	$13                     ; 0x2013 <f256main+0x16e5>
     c85: 84 12        	sty	$12                     ; 0x2012 <f256main+0x16e4>
     c87: 7a           	ply
     c88: 85 13        	sta	$13                     ; 0x2013 <f256main+0x16e5>
     c8a: a9 3f        	lda	#$3f
     c8c: 92 12        	sta	($12)                   ; 0x2012 <f256main+0x16e4>
     c8e: a9 00        	lda	#$0
     c90: 91 12        	sta	($12),y                 ; 0x2012 <f256main+0x16e4>
     c92: 86 0f        	stx	$f                      ; 0x200f <f256main+0x16e1>
     c94: 58           	cli
     c95: 18           	clc
     c96: a5 16        	lda	$16                     ; 0x2016 <f256main+0x16e8>
     c98: 69 12        	adc	#$12
     c9a: 85 13        	sta	$13                     ; 0x2013 <f256main+0x16e5>
     c9c: a5 15        	lda	$15                     ; 0x2015 <f256main+0x16e7>
     c9e: 69 54        	adc	#$54
     ca0: 85 17        	sta	$17                     ; 0x2017 <f256main+0x16e9>
     ca2: a9 00        	lda	#$0
     ca4: 69 01        	adc	#$1
     ca6: a6 0f        	ldx	$f                      ; 0x200f <f256main+0x16e1>
     ca8: 78           	sei
     ca9: 5a           	phy
     caa: a4 17        	ldy	$17                     ; 0x2017 <f256main+0x16e9>
     cac: 84 12        	sty	$12                     ; 0x2012 <f256main+0x16e4>
     cae: 06 12        	asl	$12                     ; 0x2012 <f256main+0x16e4>
     cb0: 2a           	rol
     cb1: 06 12        	asl	$12                     ; 0x2012 <f256main+0x16e4>
     cb3: 2a           	rol
     cb4: 06 12        	asl	$12                     ; 0x2012 <f256main+0x16e4>
     cb6: 2a           	rol
     cb7: 85 0f        	sta	$f                      ; 0x200f <f256main+0x16e1>
     cb9: a5 17        	lda	$17                     ; 0x2017 <f256main+0x16e9>
     cbb: 09 e0        	ora	#$e0
     cbd: a4 13        	ldy	$13                     ; 0x2013 <f256main+0x16e5>
     cbf: 84 12        	sty	$12                     ; 0x2012 <f256main+0x16e4>
     cc1: 7a           	ply
     cc2: 85 13        	sta	$13                     ; 0x2013 <f256main+0x16e5>
     cc4: a9 3f        	lda	#$3f
     cc6: 92 12        	sta	($12)                   ; 0x2012 <f256main+0x16e4>
     cc8: a9 00        	lda	#$0
     cca: 91 12        	sta	($12),y                 ; 0x2012 <f256main+0x16e4>
     ccc: 86 0f        	stx	$f                      ; 0x200f <f256main+0x16e1>
     cce: 58           	cli
     ccf: 18           	clc
     cd0: a5 16        	lda	$16                     ; 0x2016 <f256main+0x16e8>
     cd2: 69 14        	adc	#$14
     cd4: 85 13        	sta	$13                     ; 0x2013 <f256main+0x16e5>
     cd6: a5 15        	lda	$15                     ; 0x2015 <f256main+0x16e7>
     cd8: 69 54        	adc	#$54
     cda: 85 17        	sta	$17                     ; 0x2017 <f256main+0x16e9>
     cdc: a9 00        	lda	#$0
     cde: 69 01        	adc	#$1
     ce0: a6 0f        	ldx	$f                      ; 0x200f <f256main+0x16e1>
     ce2: 78           	sei
     ce3: 5a           	phy
     ce4: a4 17        	ldy	$17                     ; 0x2017 <f256main+0x16e9>
     ce6: 84 12        	sty	$12                     ; 0x2012 <f256main+0x16e4>
     ce8: 06 12        	asl	$12                     ; 0x2012 <f256main+0x16e4>
     cea: 2a           	rol
     ceb: 06 12        	asl	$12                     ; 0x2012 <f256main+0x16e4>
     ced: 2a           	rol
     cee: 06 12        	asl	$12                     ; 0x2012 <f256main+0x16e4>
     cf0: 2a           	rol
     cf1: 85 0f        	sta	$f                      ; 0x200f <f256main+0x16e1>
     cf3: a5 17        	lda	$17                     ; 0x2017 <f256main+0x16e9>
     cf5: 09 e0        	ora	#$e0
     cf7: a4 13        	ldy	$13                     ; 0x2013 <f256main+0x16e5>
     cf9: 84 12        	sty	$12                     ; 0x2012 <f256main+0x16e4>
     cfb: 7a           	ply
     cfc: 85 13        	sta	$13                     ; 0x2013 <f256main+0x16e5>
     cfe: a9 3f        	lda	#$3f
     d00: 92 12        	sta	($12)                   ; 0x2012 <f256main+0x16e4>
     d02: a9 00        	lda	#$0
     d04: 91 12        	sta	($12),y                 ; 0x2012 <f256main+0x16e4>
     d06: 86 0f        	stx	$f                      ; 0x200f <f256main+0x16e1>
     d08: 58           	cli
     d09: 18           	clc
     d0a: a5 16        	lda	$16                     ; 0x2016 <f256main+0x16e8>
     d0c: 69 16        	adc	#$16
     d0e: 85 13        	sta	$13                     ; 0x2013 <f256main+0x16e5>
     d10: a5 15        	lda	$15                     ; 0x2015 <f256main+0x16e7>
     d12: 69 54        	adc	#$54
     d14: 85 17        	sta	$17                     ; 0x2017 <f256main+0x16e9>
     d16: a9 00        	lda	#$0
     d18: 69 01        	adc	#$1
     d1a: a6 0f        	ldx	$f                      ; 0x200f <f256main+0x16e1>
     d1c: 78           	sei
     d1d: 5a           	phy
     d1e: a4 17        	ldy	$17                     ; 0x2017 <f256main+0x16e9>
     d20: 84 12        	sty	$12                     ; 0x2012 <f256main+0x16e4>
     d22: 06 12        	asl	$12                     ; 0x2012 <f256main+0x16e4>
     d24: 2a           	rol
     d25: 06 12        	asl	$12                     ; 0x2012 <f256main+0x16e4>
     d27: 2a           	rol
     d28: 06 12        	asl	$12                     ; 0x2012 <f256main+0x16e4>
     d2a: 2a           	rol
     d2b: 85 0f        	sta	$f                      ; 0x200f <f256main+0x16e1>
     d2d: a5 17        	lda	$17                     ; 0x2017 <f256main+0x16e9>
     d2f: 09 e0        	ora	#$e0
     d31: a4 13        	ldy	$13                     ; 0x2013 <f256main+0x16e5>
     d33: 84 12        	sty	$12                     ; 0x2012 <f256main+0x16e4>
     d35: 7a           	ply
     d36: 85 13        	sta	$13                     ; 0x2013 <f256main+0x16e5>
     d38: a9 3f        	lda	#$3f
     d3a: 92 12        	sta	($12)                   ; 0x2012 <f256main+0x16e4>
     d3c: a9 00        	lda	#$0
     d3e: 91 12        	sta	($12),y                 ; 0x2012 <f256main+0x16e4>
     d40: 86 0f        	stx	$f                      ; 0x200f <f256main+0x16e1>
     d42: 58           	cli
     d43: 18           	clc
     d44: a5 16        	lda	$16                     ; 0x2016 <f256main+0x16e8>
     d46: 69 18        	adc	#$18
     d48: 85 13        	sta	$13                     ; 0x2013 <f256main+0x16e5>
     d4a: a5 15        	lda	$15                     ; 0x2015 <f256main+0x16e7>
     d4c: 69 54        	adc	#$54
     d4e: 85 17        	sta	$17                     ; 0x2017 <f256main+0x16e9>
     d50: a9 00        	lda	#$0
     d52: 69 01        	adc	#$1
     d54: a6 0f        	ldx	$f                      ; 0x200f <f256main+0x16e1>
     d56: 78           	sei
     d57: 5a           	phy
     d58: a4 17        	ldy	$17                     ; 0x2017 <f256main+0x16e9>
     d5a: 84 12        	sty	$12                     ; 0x2012 <f256main+0x16e4>
     d5c: 06 12        	asl	$12                     ; 0x2012 <f256main+0x16e4>
     d5e: 2a           	rol
     d5f: 06 12        	asl	$12                     ; 0x2012 <f256main+0x16e4>
     d61: 2a           	rol
     d62: 06 12        	asl	$12                     ; 0x2012 <f256main+0x16e4>
     d64: 2a           	rol
     d65: 85 0f        	sta	$f                      ; 0x200f <f256main+0x16e1>
     d67: a5 17        	lda	$17                     ; 0x2017 <f256main+0x16e9>
     d69: 09 e0        	ora	#$e0
     d6b: a4 13        	ldy	$13                     ; 0x2013 <f256main+0x16e5>
     d6d: 84 12        	sty	$12                     ; 0x2012 <f256main+0x16e4>
     d6f: 7a           	ply
     d70: 85 13        	sta	$13                     ; 0x2013 <f256main+0x16e5>
     d72: a9 3f        	lda	#$3f
     d74: 92 12        	sta	($12)                   ; 0x2012 <f256main+0x16e4>
     d76: a9 00        	lda	#$0
     d78: 91 12        	sta	($12),y                 ; 0x2012 <f256main+0x16e4>
     d7a: 86 0f        	stx	$f                      ; 0x200f <f256main+0x16e1>
     d7c: 58           	cli
     d7d: 18           	clc
     d7e: a5 16        	lda	$16                     ; 0x2016 <f256main+0x16e8>
     d80: 69 1a        	adc	#$1a
     d82: 85 13        	sta	$13                     ; 0x2013 <f256main+0x16e5>
     d84: a5 15        	lda	$15                     ; 0x2015 <f256main+0x16e7>
     d86: 69 54        	adc	#$54
     d88: 85 17        	sta	$17                     ; 0x2017 <f256main+0x16e9>
     d8a: a9 00        	lda	#$0
     d8c: 69 01        	adc	#$1
     d8e: a6 0f        	ldx	$f                      ; 0x200f <f256main+0x16e1>
     d90: 78           	sei
     d91: 5a           	phy
     d92: a4 17        	ldy	$17                     ; 0x2017 <f256main+0x16e9>
     d94: 84 12        	sty	$12                     ; 0x2012 <f256main+0x16e4>
     d96: 06 12        	asl	$12                     ; 0x2012 <f256main+0x16e4>
     d98: 2a           	rol
     d99: 06 12        	asl	$12                     ; 0x2012 <f256main+0x16e4>
     d9b: 2a           	rol
     d9c: 06 12        	asl	$12                     ; 0x2012 <f256main+0x16e4>
     d9e: 2a           	rol
     d9f: 85 0f        	sta	$f                      ; 0x200f <f256main+0x16e1>
     da1: a5 17        	lda	$17                     ; 0x2017 <f256main+0x16e9>
     da3: 09 e0        	ora	#$e0
     da5: a4 13        	ldy	$13                     ; 0x2013 <f256main+0x16e5>
     da7: 84 12        	sty	$12                     ; 0x2012 <f256main+0x16e4>
     da9: 7a           	ply
     daa: 85 13        	sta	$13                     ; 0x2013 <f256main+0x16e5>
     dac: a9 3f        	lda	#$3f
     dae: 92 12        	sta	($12)                   ; 0x2012 <f256main+0x16e4>
     db0: a9 00        	lda	#$0
     db2: 91 12        	sta	($12),y                 ; 0x2012 <f256main+0x16e4>
     db4: 86 0f        	stx	$f                      ; 0x200f <f256main+0x16e1>
     db6: 58           	cli
     db7: 18           	clc
     db8: a5 16        	lda	$16                     ; 0x2016 <f256main+0x16e8>
     dba: 69 1c        	adc	#$1c
     dbc: 85 13        	sta	$13                     ; 0x2013 <f256main+0x16e5>
     dbe: a5 15        	lda	$15                     ; 0x2015 <f256main+0x16e7>
     dc0: 69 54        	adc	#$54
     dc2: 85 17        	sta	$17                     ; 0x2017 <f256main+0x16e9>
     dc4: a9 00        	lda	#$0
     dc6: 69 01        	adc	#$1
     dc8: a6 0f        	ldx	$f                      ; 0x200f <f256main+0x16e1>
     dca: 78           	sei
     dcb: 5a           	phy
     dcc: a4 17        	ldy	$17                     ; 0x2017 <f256main+0x16e9>
     dce: 84 12        	sty	$12                     ; 0x2012 <f256main+0x16e4>
     dd0: 06 12        	asl	$12                     ; 0x2012 <f256main+0x16e4>
     dd2: 2a           	rol
     dd3: 06 12        	asl	$12                     ; 0x2012 <f256main+0x16e4>
     dd5: 2a           	rol
     dd6: 06 12        	asl	$12                     ; 0x2012 <f256main+0x16e4>
     dd8: 2a           	rol
     dd9: 85 0f        	sta	$f                      ; 0x200f <f256main+0x16e1>
     ddb: a5 17        	lda	$17                     ; 0x2017 <f256main+0x16e9>
     ddd: 09 e0        	ora	#$e0
     ddf: a4 13        	ldy	$13                     ; 0x2013 <f256main+0x16e5>
     de1: 84 12        	sty	$12                     ; 0x2012 <f256main+0x16e4>
     de3: 7a           	ply
     de4: 85 13        	sta	$13                     ; 0x2013 <f256main+0x16e5>
     de6: a9 3f        	lda	#$3f
     de8: 92 12        	sta	($12)                   ; 0x2012 <f256main+0x16e4>
     dea: a9 00        	lda	#$0
     dec: 91 12        	sta	($12),y                 ; 0x2012 <f256main+0x16e4>
     dee: 86 0f        	stx	$f                      ; 0x200f <f256main+0x16e1>
     df0: 58           	cli
     df1: 18           	clc
     df2: a5 16        	lda	$16                     ; 0x2016 <f256main+0x16e8>
     df4: 69 1e        	adc	#$1e
     df6: 85 13        	sta	$13                     ; 0x2013 <f256main+0x16e5>
     df8: a5 15        	lda	$15                     ; 0x2015 <f256main+0x16e7>
     dfa: 69 54        	adc	#$54
     dfc: 85 17        	sta	$17                     ; 0x2017 <f256main+0x16e9>
     dfe: a9 00        	lda	#$0
     e00: 69 01        	adc	#$1
     e02: a6 0f        	ldx	$f                      ; 0x200f <f256main+0x16e1>
     e04: 78           	sei
     e05: 5a           	phy
     e06: a4 17        	ldy	$17                     ; 0x2017 <f256main+0x16e9>
     e08: 84 12        	sty	$12                     ; 0x2012 <f256main+0x16e4>
     e0a: 06 12        	asl	$12                     ; 0x2012 <f256main+0x16e4>
     e0c: 2a           	rol
     e0d: 06 12        	asl	$12                     ; 0x2012 <f256main+0x16e4>
     e0f: 2a           	rol
     e10: 06 12        	asl	$12                     ; 0x2012 <f256main+0x16e4>
     e12: 2a           	rol
     e13: 85 0f        	sta	$f                      ; 0x200f <f256main+0x16e1>
     e15: a5 17        	lda	$17                     ; 0x2017 <f256main+0x16e9>
     e17: 09 e0        	ora	#$e0
     e19: a4 13        	ldy	$13                     ; 0x2013 <f256main+0x16e5>
     e1b: 84 12        	sty	$12                     ; 0x2012 <f256main+0x16e4>
     e1d: 7a           	ply
     e1e: 85 13        	sta	$13                     ; 0x2013 <f256main+0x16e5>
     e20: a9 3f        	lda	#$3f
     e22: 92 12        	sta	($12)                   ; 0x2012 <f256main+0x16e4>
     e24: a9 00        	lda	#$0
     e26: 91 12        	sta	($12),y                 ; 0x2012 <f256main+0x16e4>
     e28: 86 0f        	stx	$f                      ; 0x200f <f256main+0x16e1>
     e2a: 58           	cli
     e2b: 18           	clc
     e2c: a5 16        	lda	$16                     ; 0x2016 <f256main+0x16e8>
     e2e: 69 20        	adc	#$20
     e30: 85 13        	sta	$13                     ; 0x2013 <f256main+0x16e5>
     e32: a5 15        	lda	$15                     ; 0x2015 <f256main+0x16e7>
     e34: 69 54        	adc	#$54
     e36: 85 17        	sta	$17                     ; 0x2017 <f256main+0x16e9>
     e38: a9 00        	lda	#$0
     e3a: 69 01        	adc	#$1
     e3c: a6 0f        	ldx	$f                      ; 0x200f <f256main+0x16e1>
     e3e: 78           	sei
     e3f: 5a           	phy
     e40: a4 17        	ldy	$17                     ; 0x2017 <f256main+0x16e9>
     e42: 84 12        	sty	$12                     ; 0x2012 <f256main+0x16e4>
     e44: 06 12        	asl	$12                     ; 0x2012 <f256main+0x16e4>
     e46: 2a           	rol
     e47: 06 12        	asl	$12                     ; 0x2012 <f256main+0x16e4>
     e49: 2a           	rol
     e4a: 06 12        	asl	$12                     ; 0x2012 <f256main+0x16e4>
     e4c: 2a           	rol
     e4d: 85 0f        	sta	$f                      ; 0x200f <f256main+0x16e1>
     e4f: a5 17        	lda	$17                     ; 0x2017 <f256main+0x16e9>
     e51: 09 e0        	ora	#$e0
     e53: a4 13        	ldy	$13                     ; 0x2013 <f256main+0x16e5>
     e55: 84 12        	sty	$12                     ; 0x2012 <f256main+0x16e4>
     e57: 7a           	ply
     e58: 85 13        	sta	$13                     ; 0x2013 <f256main+0x16e5>
     e5a: a9 3f        	lda	#$3f
     e5c: 92 12        	sta	($12)                   ; 0x2012 <f256main+0x16e4>
     e5e: a9 00        	lda	#$0
     e60: 91 12        	sta	($12),y                 ; 0x2012 <f256main+0x16e4>
     e62: 86 0f        	stx	$f                      ; 0x200f <f256main+0x16e1>
     e64: 58           	cli
     e65: 18           	clc
     e66: a5 16        	lda	$16                     ; 0x2016 <f256main+0x16e8>
     e68: 69 22        	adc	#$22
     e6a: 85 13        	sta	$13                     ; 0x2013 <f256main+0x16e5>
     e6c: a5 15        	lda	$15                     ; 0x2015 <f256main+0x16e7>
     e6e: 69 54        	adc	#$54
     e70: 85 17        	sta	$17                     ; 0x2017 <f256main+0x16e9>
     e72: a9 00        	lda	#$0
     e74: 69 01        	adc	#$1
     e76: a6 0f        	ldx	$f                      ; 0x200f <f256main+0x16e1>
     e78: 78           	sei
     e79: 5a           	phy
     e7a: a4 17        	ldy	$17                     ; 0x2017 <f256main+0x16e9>
     e7c: 84 12        	sty	$12                     ; 0x2012 <f256main+0x16e4>
     e7e: 06 12        	asl	$12                     ; 0x2012 <f256main+0x16e4>
     e80: 2a           	rol
     e81: 06 12        	asl	$12                     ; 0x2012 <f256main+0x16e4>
     e83: 2a           	rol
     e84: 06 12        	asl	$12                     ; 0x2012 <f256main+0x16e4>
     e86: 2a           	rol
     e87: 85 0f        	sta	$f                      ; 0x200f <f256main+0x16e1>
     e89: a5 17        	lda	$17                     ; 0x2017 <f256main+0x16e9>
     e8b: 09 e0        	ora	#$e0
     e8d: a4 13        	ldy	$13                     ; 0x2013 <f256main+0x16e5>
     e8f: 84 12        	sty	$12                     ; 0x2012 <f256main+0x16e4>
     e91: 7a           	ply
     e92: 85 13        	sta	$13                     ; 0x2013 <f256main+0x16e5>
     e94: a9 3f        	lda	#$3f
     e96: 92 12        	sta	($12)                   ; 0x2012 <f256main+0x16e4>
     e98: a9 00        	lda	#$0
     e9a: 91 12        	sta	($12),y                 ; 0x2012 <f256main+0x16e4>
     e9c: 86 0f        	stx	$f                      ; 0x200f <f256main+0x16e1>
     e9e: 58           	cli
     e9f: 18           	clc
     ea0: a5 16        	lda	$16                     ; 0x2016 <f256main+0x16e8>
     ea2: 69 24        	adc	#$24
     ea4: 85 13        	sta	$13                     ; 0x2013 <f256main+0x16e5>
     ea6: a5 15        	lda	$15                     ; 0x2015 <f256main+0x16e7>
     ea8: 69 54        	adc	#$54
     eaa: 85 17        	sta	$17                     ; 0x2017 <f256main+0x16e9>
     eac: a9 00        	lda	#$0
     eae: 69 01        	adc	#$1
     eb0: a6 0f        	ldx	$f                      ; 0x200f <f256main+0x16e1>
     eb2: 78           	sei
     eb3: 5a           	phy
     eb4: a4 17        	ldy	$17                     ; 0x2017 <f256main+0x16e9>
     eb6: 84 12        	sty	$12                     ; 0x2012 <f256main+0x16e4>
     eb8: 06 12        	asl	$12                     ; 0x2012 <f256main+0x16e4>
     eba: 2a           	rol
     ebb: 06 12        	asl	$12                     ; 0x2012 <f256main+0x16e4>
     ebd: 2a           	rol
     ebe: 06 12        	asl	$12                     ; 0x2012 <f256main+0x16e4>
     ec0: 2a           	rol
     ec1: 85 0f        	sta	$f                      ; 0x200f <f256main+0x16e1>
     ec3: a5 17        	lda	$17                     ; 0x2017 <f256main+0x16e9>
     ec5: 09 e0        	ora	#$e0
     ec7: a4 13        	ldy	$13                     ; 0x2013 <f256main+0x16e5>
     ec9: 84 12        	sty	$12                     ; 0x2012 <f256main+0x16e4>
     ecb: 7a           	ply
     ecc: 85 13        	sta	$13                     ; 0x2013 <f256main+0x16e5>
     ece: a9 3f        	lda	#$3f
     ed0: 92 12        	sta	($12)                   ; 0x2012 <f256main+0x16e4>
     ed2: a9 00        	lda	#$0
     ed4: 91 12        	sta	($12),y                 ; 0x2012 <f256main+0x16e4>
     ed6: 86 0f        	stx	$f                      ; 0x200f <f256main+0x16e1>
     ed8: 58           	cli
     ed9: 18           	clc
     eda: a5 16        	lda	$16                     ; 0x2016 <f256main+0x16e8>
     edc: 69 26        	adc	#$26
     ede: a8           	tay
     edf: a5 15        	lda	$15                     ; 0x2015 <f256main+0x16e7>
     ee1: 69 54        	adc	#$54
     ee3: 85 13        	sta	$13                     ; 0x2013 <f256main+0x16e5>
     ee5: a9 00        	lda	#$0
     ee7: 69 01        	adc	#$1
     ee9: a6 13        	ldx	$13                     ; 0x2013 <f256main+0x16e5>
     eeb: 86 12        	stx	$12                     ; 0x2012 <f256main+0x16e4>
     eed: 06 12        	asl	$12                     ; 0x2012 <f256main+0x16e4>
     eef: 2a           	rol
     ef0: 06 12        	asl	$12                     ; 0x2012 <f256main+0x16e4>
     ef2: 2a           	rol
     ef3: 06 12        	asl	$12                     ; 0x2012 <f256main+0x16e4>
     ef5: 2a           	rol
     ef6: a6 0f        	ldx	$f                      ; 0x200f <f256main+0x16e1>
     ef8: 78           	sei
     ef9: 85 0f        	sta	$f                      ; 0x200f <f256main+0x16e1>
     efb: 84 12        	sty	$12                     ; 0x2012 <f256main+0x16e4>
     efd: a5 13        	lda	$13                     ; 0x2013 <f256main+0x16e5>
     eff: 09 e0        	ora	#$e0
     f01: 85 13        	sta	$13                     ; 0x2013 <f256main+0x16e5>
     f03: a9 3f        	lda	#$3f
     f05: 92 12        	sta	($12)                   ; 0x2012 <f256main+0x16e4>
     f07: a9 00        	lda	#$0
     f09: a0 01        	ldy	#$1
     f0b: 91 12        	sta	($12),y                 ; 0x2012 <f256main+0x16e4>
     f0d: 86 0f        	stx	$f                      ; 0x200f <f256main+0x16e1>
     f0f: 58           	cli
     f10: c6 14        	dec	$14                     ; 0x2014 <f256main+0x16e6>
     f12: 18           	clc
     f13: a5 16        	lda	$16                     ; 0x2016 <f256main+0x16e8>
     f15: 69 28        	adc	#$28
     f17: 85 12        	sta	$12                     ; 0x2012 <f256main+0x16e4>
     f19: a5 15        	lda	$15                     ; 0x2015 <f256main+0x16e7>
     f1b: 69 00        	adc	#$0
     f1d: 85 13        	sta	$13                     ; 0x2013 <f256main+0x16e5>
     f1f: a4 14        	ldy	$14                     ; 0x2014 <f256main+0x16e6>
     f21: f0 03        	beq	$f26 <f256main+0x5f8>
     f23: 4c 81 0a     	jmp	$a81 <f256main+0x153>
     f26: a2 d4        	ldx	#$d4
     f28: a0 00        	ldy	#$0
     f2a: 18           	clc
     f2b: 98           	tya
     f2c: 69 00        	adc	#$0
     f2e: 85 14        	sta	$14                     ; 0x2014 <f256main+0x16e6>
     f30: 8a           	txa
     f31: 69 01        	adc	#$1
     f33: 85 15        	sta	$15                     ; 0x2015 <f256main+0x16e7>
     f35: 84 12        	sty	$12                     ; 0x2012 <f256main+0x16e4>
     f37: 86 13        	stx	$13                     ; 0x2013 <f256main+0x16e5>
     f39: a9 00        	lda	#$0
     f3b: 92 12        	sta	($12)                   ; 0x2012 <f256main+0x16e4>
     f3d: 5a           	phy
     f3e: a4 14        	ldy	$14                     ; 0x2014 <f256main+0x16e6>
     f40: 84 12        	sty	$12                     ; 0x2012 <f256main+0x16e4>
     f42: a4 15        	ldy	$15                     ; 0x2015 <f256main+0x16e7>
     f44: 84 13        	sty	$13                     ; 0x2013 <f256main+0x16e5>
     f46: 7a           	ply
     f47: 92 12        	sta	($12)                   ; 0x2012 <f256main+0x16e4>
     f49: c8           	iny
     f4a: d0 01        	bne	$f4d <f256main+0x61f>
     f4c: e8           	inx
     f4d: c0 19        	cpy	#$19
     f4f: d0 d9        	bne	$f2a <f256main+0x5fc>
     f51: a2 44        	ldx	#$44
     f53: 8e 02 d4     	stx	$d402                   ; 0xd402 <end_block9+0x4bd8>
     f56: 9c 03 d4     	stz	$d403                   ; 0xd403 <end_block9+0x4bd9>
     f59: a2 27        	ldx	#$27
     f5b: 8e 05 d4     	stx	$d405                   ; 0xd405 <end_block9+0x4bdb>
     f5e: a9 5b        	lda	#$5b
     f60: 8d 06 d4     	sta	$d406                   ; 0xd406 <end_block9+0x4bdc>
     f63: a2 10        	ldx	#$10
     f65: 8e 04 d4     	stx	$d404                   ; 0xd404 <end_block9+0x4bda>
     f68: a0 44        	ldy	#$44
     f6a: 8c 02 d5     	sty	$d502                   ; 0xd502 <end_block9+0x4cd8>
     f6d: 9c 03 d5     	stz	$d503                   ; 0xd503 <end_block9+0x4cd9>
     f70: a0 27        	ldy	#$27
     f72: 8c 05 d5     	sty	$d505                   ; 0xd505 <end_block9+0x4cdb>
     f75: 8d 06 d5     	sta	$d506                   ; 0xd506 <end_block9+0x4cdc>
     f78: 8e 04 d5     	stx	$d504                   ; 0xd504 <end_block9+0x4cda>
     f7b: a0 44        	ldy	#$44
     f7d: 8c 09 d4     	sty	$d409                   ; 0xd409 <end_block9+0x4bdf>
     f80: 9c 0a d4     	stz	$d40a                   ; 0xd40a <end_block9+0x4be0>
     f83: a0 27        	ldy	#$27
     f85: 8c 0c d4     	sty	$d40c                   ; 0xd40c <end_block9+0x4be2>
     f88: 8d 0d d4     	sta	$d40d                   ; 0xd40d <end_block9+0x4be3>
     f8b: 8e 0b d4     	stx	$d40b                   ; 0xd40b <end_block9+0x4be1>
     f8e: a0 44        	ldy	#$44
     f90: 8c 09 d5     	sty	$d509                   ; 0xd509 <end_block9+0x4cdf>
     f93: 9c 0a d5     	stz	$d50a                   ; 0xd50a <end_block9+0x4ce0>
     f96: a0 27        	ldy	#$27
     f98: 8c 0c d5     	sty	$d50c                   ; 0xd50c <end_block9+0x4ce2>
     f9b: 8d 0d d5     	sta	$d50d                   ; 0xd50d <end_block9+0x4ce3>
     f9e: 8e 0b d5     	stx	$d50b                   ; 0xd50b <end_block9+0x4ce1>
     fa1: a0 44        	ldy	#$44
     fa3: 8c 10 d4     	sty	$d410                   ; 0xd410 <end_block9+0x4be6>
     fa6: 9c 11 d4     	stz	$d411                   ; 0xd411 <end_block9+0x4be7>
     fa9: a0 27        	ldy	#$27
     fab: 8c 13 d4     	sty	$d413                   ; 0xd413 <end_block9+0x4be9>
     fae: 8d 14 d4     	sta	$d414                   ; 0xd414 <end_block9+0x4bea>
     fb1: 8e 12 d4     	stx	$d412                   ; 0xd412 <end_block9+0x4be8>
     fb4: a0 44        	ldy	#$44
     fb6: 8c 10 d5     	sty	$d510                   ; 0xd510 <end_block9+0x4ce6>
     fb9: 9c 11 d5     	stz	$d511                   ; 0xd511 <end_block9+0x4ce7>
     fbc: a0 27        	ldy	#$27
     fbe: 8c 13 d5     	sty	$d513                   ; 0xd513 <end_block9+0x4ce9>
     fc1: 8d 14 d5     	sta	$d514                   ; 0xd514 <end_block9+0x4cea>
     fc4: 8e 12 d5     	stx	$d512                   ; 0xd512 <end_block9+0x4ce8>
     fc7: 9c 14 d4     	stz	$d414                   ; 0xd414 <end_block9+0x4bea>
     fca: 9c 15 d4     	stz	$d415                   ; 0xd415 <end_block9+0x4beb>
     fcd: 9c 17 d4     	stz	$d417                   ; 0xd417 <end_block9+0x4bed>
     fd0: ca           	dex
     fd1: 8e 18 d4     	stx	$d418                   ; 0xd418 <end_block9+0x4bee>
     fd4: 9c 14 d5     	stz	$d514                   ; 0xd514 <end_block9+0x4cea>
     fd7: 9c 15 d5     	stz	$d515                   ; 0xd515 <end_block9+0x4ceb>
     fda: 9c 17 d5     	stz	$d517                   ; 0xd517 <end_block9+0x4ced>
     fdd: 8e 18 d5     	stx	$d518                   ; 0xd518 <end_block9+0x4cee>
     fe0: ad a1 d6     	lda	$d6a1                   ; 0xd6a1 <end_block9+0x4e77>
     fe3: 29 f7        	and	#$f7
     fe5: 8d a1 d6     	sta	$d6a1                   ; 0xd6a1 <end_block9+0x4e77>
     fe8: ad a1 d6     	lda	$d6a1                   ; 0xd6a1 <end_block9+0x4e77>
     feb: 29 fb        	and	#$fb
     fed: 8d a1 d6     	sta	$d6a1                   ; 0xd6a1 <end_block9+0x4e77>
     ff0: a0 01        	ldy	#$1
     ff2: 8c 80 d5     	sty	$d580                   ; 0xd580 <end_block9+0x4d56>
     ff5: a2 20        	ldx	#$20
     ff7: 8e 81 d5     	stx	$d581                   ; 0xd581 <end_block9+0x4d57>
     ffa: a2 02        	ldx	#$2
     ffc: 8e 80 d5     	stx	$d580                   ; 0xd580 <end_block9+0x4d56>
     fff: 9c 81 d5     	stz	$d581                   ; 0xd581 <end_block9+0x4d57>
    1002: e8           	inx
    1003: 8e 80 d5     	stx	$d580                   ; 0xd580 <end_block9+0x4d56>
    1006: 9c 81 d5     	stz	$d581                   ; 0xd581 <end_block9+0x4d57>
    1009: e8           	inx
    100a: 8e 82 d5     	stx	$d582                   ; 0xd582 <end_block9+0x4d58>
    100d: 9c 81 d5     	stz	$d581                   ; 0xd581 <end_block9+0x4d57>
    1010: e8           	inx
    1011: 8e 82 d5     	stx	$d582                   ; 0xd582 <end_block9+0x4d58>
    1014: 8c 81 d5     	sty	$d581                   ; 0xd581 <end_block9+0x4d57>
    1017: a2 08        	ldx	#$8
    1019: 8e 80 d5     	stx	$d580                   ; 0xd580 <end_block9+0x4d56>
    101c: 9c 81 d5     	stz	$d581                   ; 0xd581 <end_block9+0x4d57>
    101f: a2 c0        	ldx	#$c0
    1021: 8e 80 d5     	stx	$d580                   ; 0xd580 <end_block9+0x4d56>
    1024: a2 30        	ldx	#$30
    1026: 8e 81 d5     	stx	$d581                   ; 0xd581 <end_block9+0x4d57>
    1029: a0 c1        	ldy	#$c1
    102b: 8c 80 d5     	sty	$d580                   ; 0xd580 <end_block9+0x4d56>
    102e: 8e 81 d5     	stx	$d581                   ; 0xd581 <end_block9+0x4d57>
    1031: c8           	iny
    1032: 8c 80 d5     	sty	$d580                   ; 0xd580 <end_block9+0x4d56>
    1035: 8e 81 d5     	stx	$d581                   ; 0xd581 <end_block9+0x4d57>
    1038: c8           	iny
    1039: 8c 80 d5     	sty	$d580                   ; 0xd580 <end_block9+0x4d56>
    103c: 8e 81 d5     	stx	$d581                   ; 0xd581 <end_block9+0x4d57>
    103f: c8           	iny
    1040: 8c 80 d5     	sty	$d580                   ; 0xd580 <end_block9+0x4d56>
    1043: 8e 81 d5     	stx	$d581                   ; 0xd581 <end_block9+0x4d57>
    1046: c8           	iny
    1047: 8c 80 d5     	sty	$d580                   ; 0xd580 <end_block9+0x4d56>
    104a: 8e 81 d5     	stx	$d581                   ; 0xd581 <end_block9+0x4d57>
    104d: c8           	iny
    104e: 8c 80 d5     	sty	$d580                   ; 0xd580 <end_block9+0x4d56>
    1051: 8e 81 d5     	stx	$d581                   ; 0xd581 <end_block9+0x4d57>
    1054: c8           	iny
    1055: 8c 80 d5     	sty	$d580                   ; 0xd580 <end_block9+0x4d56>
    1058: 8e 81 d5     	stx	$d581                   ; 0xd581 <end_block9+0x4d57>
    105b: c8           	iny
    105c: 8c 80 d5     	sty	$d580                   ; 0xd580 <end_block9+0x4d56>
    105f: 8e 81 d5     	stx	$d581                   ; 0xd581 <end_block9+0x4d57>
    1062: a9 c0        	lda	#$c0
    1064: 8d 82 d5     	sta	$d582                   ; 0xd582 <end_block9+0x4d58>
    1067: 8e 81 d5     	stx	$d581                   ; 0xd581 <end_block9+0x4d57>
    106a: 1a           	inc
    106b: 8d 82 d5     	sta	$d582                   ; 0xd582 <end_block9+0x4d58>
    106e: 8e 81 d5     	stx	$d581                   ; 0xd581 <end_block9+0x4d57>
    1071: 1a           	inc
    1072: 8d 82 d5     	sta	$d582                   ; 0xd582 <end_block9+0x4d58>
    1075: 8e 81 d5     	stx	$d581                   ; 0xd581 <end_block9+0x4d57>
    1078: 1a           	inc
    1079: 8d 82 d5     	sta	$d582                   ; 0xd582 <end_block9+0x4d58>
    107c: 8e 81 d5     	stx	$d581                   ; 0xd581 <end_block9+0x4d57>
    107f: 1a           	inc
    1080: 8d 82 d5     	sta	$d582                   ; 0xd582 <end_block9+0x4d58>
    1083: 8e 81 d5     	stx	$d581                   ; 0xd581 <end_block9+0x4d57>
    1086: 1a           	inc
    1087: 8d 82 d5     	sta	$d582                   ; 0xd582 <end_block9+0x4d58>
    108a: 8e 81 d5     	stx	$d581                   ; 0xd581 <end_block9+0x4d57>
    108d: 1a           	inc
    108e: 8d 82 d5     	sta	$d582                   ; 0xd582 <end_block9+0x4d58>
    1091: 8e 81 d5     	stx	$d581                   ; 0xd581 <end_block9+0x4d57>
    1094: 1a           	inc
    1095: 8d 82 d5     	sta	$d582                   ; 0xd582 <end_block9+0x4d58>
    1098: 8e 81 d5     	stx	$d581                   ; 0xd581 <end_block9+0x4d57>
    109b: 8c 82 d5     	sty	$d582                   ; 0xd582 <end_block9+0x4d58>
    109e: 8e 81 d5     	stx	$d581                   ; 0xd581 <end_block9+0x4d57>
    10a1: a2 b0        	ldx	#$b0
    10a3: 8e 80 d5     	stx	$d580                   ; 0xd580 <end_block9+0x4d56>
    10a6: 9c 81 d5     	stz	$d581                   ; 0xd581 <end_block9+0x4d57>
    10a9: e8           	inx
    10aa: 8e 80 d5     	stx	$d580                   ; 0xd580 <end_block9+0x4d56>
    10ad: 9c 81 d5     	stz	$d581                   ; 0xd581 <end_block9+0x4d57>
    10b0: e8           	inx
    10b1: 8e 80 d5     	stx	$d580                   ; 0xd580 <end_block9+0x4d56>
    10b4: 9c 81 d5     	stz	$d581                   ; 0xd581 <end_block9+0x4d57>
    10b7: e8           	inx
    10b8: 8e 80 d5     	stx	$d580                   ; 0xd580 <end_block9+0x4d56>
    10bb: 9c 81 d5     	stz	$d581                   ; 0xd581 <end_block9+0x4d57>
    10be: e8           	inx
    10bf: 8e 80 d5     	stx	$d580                   ; 0xd580 <end_block9+0x4d56>
    10c2: 9c 81 d5     	stz	$d581                   ; 0xd581 <end_block9+0x4d57>
    10c5: e8           	inx
    10c6: 8e 80 d5     	stx	$d580                   ; 0xd580 <end_block9+0x4d56>
    10c9: 9c 81 d5     	stz	$d581                   ; 0xd581 <end_block9+0x4d57>
    10cc: e8           	inx
    10cd: 8e 80 d5     	stx	$d580                   ; 0xd580 <end_block9+0x4d56>
    10d0: 9c 81 d5     	stz	$d581                   ; 0xd581 <end_block9+0x4d57>
    10d3: e8           	inx
    10d4: 8e 80 d5     	stx	$d580                   ; 0xd580 <end_block9+0x4d56>
    10d7: 9c 81 d5     	stz	$d581                   ; 0xd581 <end_block9+0x4d57>
    10da: a0 b8        	ldy	#$b8
    10dc: 8c 80 d5     	sty	$d580                   ; 0xd580 <end_block9+0x4d56>
    10df: 9c 81 d5     	stz	$d581                   ; 0xd581 <end_block9+0x4d57>
    10e2: a9 b0        	lda	#$b0
    10e4: 8d 82 d5     	sta	$d582                   ; 0xd582 <end_block9+0x4d58>
    10e7: 9c 81 d5     	stz	$d581                   ; 0xd581 <end_block9+0x4d57>
    10ea: 1a           	inc
    10eb: 8d 82 d5     	sta	$d582                   ; 0xd582 <end_block9+0x4d58>
    10ee: 9c 81 d5     	stz	$d581                   ; 0xd581 <end_block9+0x4d57>
    10f1: 1a           	inc
    10f2: 8d 82 d5     	sta	$d582                   ; 0xd582 <end_block9+0x4d58>
    10f5: 9c 81 d5     	stz	$d581                   ; 0xd581 <end_block9+0x4d57>
    10f8: 1a           	inc
    10f9: 8d 82 d5     	sta	$d582                   ; 0xd582 <end_block9+0x4d58>
    10fc: 9c 81 d5     	stz	$d581                   ; 0xd581 <end_block9+0x4d57>
    10ff: 1a           	inc
    1100: 8d 82 d5     	sta	$d582                   ; 0xd582 <end_block9+0x4d58>
    1103: 9c 81 d5     	stz	$d581                   ; 0xd581 <end_block9+0x4d57>
    1106: 1a           	inc
    1107: 8d 82 d5     	sta	$d582                   ; 0xd582 <end_block9+0x4d58>
    110a: 9c 81 d5     	stz	$d581                   ; 0xd581 <end_block9+0x4d57>
    110d: 1a           	inc
    110e: 8d 82 d5     	sta	$d582                   ; 0xd582 <end_block9+0x4d58>
    1111: 9c 81 d5     	stz	$d581                   ; 0xd581 <end_block9+0x4d57>
    1114: 8e 82 d5     	stx	$d582                   ; 0xd582 <end_block9+0x4d58>
    1117: a2 00        	ldx	#$0
    1119: 9c 81 d5     	stz	$d581                   ; 0xd581 <end_block9+0x4d57>
    111c: 8c 82 d5     	sty	$d582                   ; 0xd582 <end_block9+0x4d58>
    111f: 9c 81 d5     	stz	$d581                   ; 0xd581 <end_block9+0x4d57>
    1122: 4c b6 11     	jmp	$11b6 <f256main+0x888>
    1125: 18           	clc
    1126: 69 0a        	adc	#$a
    1128: 85 12        	sta	$12                     ; 0x2012 <f256main+0x16e4>
    112a: 09 20        	ora	#$20
    112c: 8d 80 d5     	sta	$d580                   ; 0xd580 <end_block9+0x4d56>
    112f: a0 c0        	ldy	#$c0
    1131: 8c 81 d5     	sty	$d581                   ; 0xd581 <end_block9+0x4d57>
    1134: 18           	clc
    1135: a5 12        	lda	$12                     ; 0x2012 <f256main+0x16e4>
    1137: 69 03        	adc	#$3
    1139: 85 13        	sta	$13                     ; 0x2013 <f256main+0x16e5>
    113b: 09 20        	ora	#$20
    113d: 8d 80 d5     	sta	$d580                   ; 0xd580 <end_block9+0x4d56>
    1140: a0 21        	ldy	#$21
    1142: 8c 81 d5     	sty	$d581                   ; 0xd581 <end_block9+0x4d57>
    1145: a5 12        	lda	$12                     ; 0x2012 <f256main+0x16e4>
    1147: 09 40        	ora	#$40
    1149: 8d 80 d5     	sta	$d580                   ; 0xd580 <end_block9+0x4d56>
    114c: a0 15        	ldy	#$15
    114e: 8c 81 d5     	sty	$d581                   ; 0xd581 <end_block9+0x4d57>
    1151: a5 13        	lda	$13                     ; 0x2013 <f256main+0x16e5>
    1153: 09 40        	ora	#$40
    1155: 8d 80 d5     	sta	$d580                   ; 0xd580 <end_block9+0x4d56>
    1158: a9 01        	lda	#$1
    115a: 8d 81 d5     	sta	$d581                   ; 0xd581 <end_block9+0x4d57>
    115d: a5 12        	lda	$12                     ; 0x2012 <f256main+0x16e4>
    115f: 09 60        	ora	#$60
    1161: 8d 80 d5     	sta	$d580                   ; 0xd580 <end_block9+0x4d56>
    1164: a0 f2        	ldy	#$f2
    1166: 8c 81 d5     	sty	$d581                   ; 0xd581 <end_block9+0x4d57>
    1169: a5 13        	lda	$13                     ; 0x2013 <f256main+0x16e5>
    116b: 09 60        	ora	#$60
    116d: 8d 80 d5     	sta	$d580                   ; 0xd580 <end_block9+0x4d56>
    1170: a0 f4        	ldy	#$f4
    1172: 8c 81 d5     	sty	$d581                   ; 0xd581 <end_block9+0x4d57>
    1175: a5 12        	lda	$12                     ; 0x2012 <f256main+0x16e4>
    1177: 09 80        	ora	#$80
    1179: 8d 80 d5     	sta	$d580                   ; 0xd580 <end_block9+0x4d56>
    117c: a0 40        	ldy	#$40
    117e: 8c 81 d5     	sty	$d581                   ; 0xd581 <end_block9+0x4d57>
    1181: a5 13        	lda	$13                     ; 0x2013 <f256main+0x16e5>
    1183: 09 80        	ora	#$80
    1185: 8d 80 d5     	sta	$d580                   ; 0xd580 <end_block9+0x4d56>
    1188: a0 25        	ldy	#$25
    118a: 8c 81 d5     	sty	$d581                   ; 0xd581 <end_block9+0x4d57>
    118d: a5 12        	lda	$12                     ; 0x2012 <f256main+0x16e4>
    118f: 09 e0        	ora	#$e0
    1191: 8d 80 d5     	sta	$d580                   ; 0xd580 <end_block9+0x4d56>
    1194: a0 07        	ldy	#$7
    1196: 8c 81 d5     	sty	$d581                   ; 0xd581 <end_block9+0x4d57>
    1199: a5 13        	lda	$13                     ; 0x2013 <f256main+0x16e5>
    119b: 09 e0        	ora	#$e0
    119d: 8d 80 d5     	sta	$d580                   ; 0xd580 <end_block9+0x4d56>
    11a0: 8a           	txa
    11a1: 18           	clc
    11a2: 69 c0        	adc	#$c0
    11a4: a0 04        	ldy	#$4
    11a6: 8c 81 d5     	sty	$d581                   ; 0xd581 <end_block9+0x4d57>
    11a9: 8d 80 d5     	sta	$d580                   ; 0xd580 <end_block9+0x4d56>
    11ac: a0 30        	ldy	#$30
    11ae: 8c 81 d5     	sty	$d581                   ; 0xd581 <end_block9+0x4d57>
    11b1: e8           	inx
    11b2: e0 09        	cpx	#$9
    11b4: f0 16        	beq	$11cc <f256main+0x89e>
    11b6: e0 03        	cpx	#$3
    11b8: 8a           	txa
    11b9: b0 03        	bcs	$11be <f256main+0x890>
    11bb: 4c 28 11     	jmp	$1128 <f256main+0x7fa>
    11be: 8a           	txa
    11bf: e0 06        	cpx	#$6
    11c1: 90 03        	bcc	$11c6 <f256main+0x898>
    11c3: 4c 25 11     	jmp	$1125 <f256main+0x7f7>
    11c6: 18           	clc
    11c7: 69 05        	adc	#$5
    11c9: 4c 28 11     	jmp	$1128 <f256main+0x7fa>
    11cc: a2 00        	ldx	#$0
    11ce: 4c 5d 12     	jmp	$125d <f256main+0x92f>
    11d1: 18           	clc
    11d2: 8a           	txa
    11d3: 69 0a        	adc	#$a
    11d5: a8           	tay
    11d6: 09 20        	ora	#$20
    11d8: 8d 82 d5     	sta	$d582                   ; 0xd582 <end_block9+0x4d58>
    11db: a9 c0        	lda	#$c0
    11dd: 8d 81 d5     	sta	$d581                   ; 0xd581 <end_block9+0x4d57>
    11e0: 98           	tya
    11e1: 18           	clc
    11e2: 69 03        	adc	#$3
    11e4: 85 12        	sta	$12                     ; 0x2012 <f256main+0x16e4>
    11e6: 09 20        	ora	#$20
    11e8: 8d 82 d5     	sta	$d582                   ; 0xd582 <end_block9+0x4d58>
    11eb: a9 21        	lda	#$21
    11ed: 8d 81 d5     	sta	$d581                   ; 0xd581 <end_block9+0x4d57>
    11f0: 98           	tya
    11f1: 09 40        	ora	#$40
    11f3: 8d 82 d5     	sta	$d582                   ; 0xd582 <end_block9+0x4d58>
    11f6: a9 15        	lda	#$15
    11f8: 8d 81 d5     	sta	$d581                   ; 0xd581 <end_block9+0x4d57>
    11fb: a5 12        	lda	$12                     ; 0x2012 <f256main+0x16e4>
    11fd: 09 40        	ora	#$40
    11ff: 8d 82 d5     	sta	$d582                   ; 0xd582 <end_block9+0x4d58>
    1202: a9 01        	lda	#$1
    1204: 8d 81 d5     	sta	$d581                   ; 0xd581 <end_block9+0x4d57>
    1207: 98           	tya
    1208: 09 60        	ora	#$60
    120a: 8d 82 d5     	sta	$d582                   ; 0xd582 <end_block9+0x4d58>
    120d: a9 f2        	lda	#$f2
    120f: 8d 81 d5     	sta	$d581                   ; 0xd581 <end_block9+0x4d57>
    1212: a5 12        	lda	$12                     ; 0x2012 <f256main+0x16e4>
    1214: 09 60        	ora	#$60
    1216: 8d 82 d5     	sta	$d582                   ; 0xd582 <end_block9+0x4d58>
    1219: a9 f4        	lda	#$f4
    121b: 8d 81 d5     	sta	$d581                   ; 0xd581 <end_block9+0x4d57>
    121e: 98           	tya
    121f: 09 80        	ora	#$80
    1221: 8d 82 d5     	sta	$d582                   ; 0xd582 <end_block9+0x4d58>
    1224: a9 40        	lda	#$40
    1226: 8d 81 d5     	sta	$d581                   ; 0xd581 <end_block9+0x4d57>
    1229: a5 12        	lda	$12                     ; 0x2012 <f256main+0x16e4>
    122b: 09 80        	ora	#$80
    122d: 8d 82 d5     	sta	$d582                   ; 0xd582 <end_block9+0x4d58>
    1230: a9 25        	lda	#$25
    1232: 8d 81 d5     	sta	$d581                   ; 0xd581 <end_block9+0x4d57>
    1235: 98           	tya
    1236: 09 e0        	ora	#$e0
    1238: 8d 82 d5     	sta	$d582                   ; 0xd582 <end_block9+0x4d58>
    123b: a9 07        	lda	#$7
    123d: 8d 81 d5     	sta	$d581                   ; 0xd581 <end_block9+0x4d57>
    1240: a5 12        	lda	$12                     ; 0x2012 <f256main+0x16e4>
    1242: 09 e0        	ora	#$e0
    1244: 8d 82 d5     	sta	$d582                   ; 0xd582 <end_block9+0x4d58>
    1247: 18           	clc
    1248: 8a           	txa
    1249: 69 c0        	adc	#$c0
    124b: a0 04        	ldy	#$4
    124d: 8c 81 d5     	sty	$d581                   ; 0xd581 <end_block9+0x4d57>
    1250: 8d 82 d5     	sta	$d582                   ; 0xd582 <end_block9+0x4d58>
    1253: a0 30        	ldy	#$30
    1255: 8c 81 d5     	sty	$d581                   ; 0xd581 <end_block9+0x4d57>
    1258: e8           	inx
    1259: e0 09        	cpx	#$9
    125b: f0 16        	beq	$1273 <f256main+0x945>
    125d: e0 03        	cpx	#$3
    125f: 8a           	txa
    1260: b0 03        	bcs	$1265 <f256main+0x937>
    1262: 4c d5 11     	jmp	$11d5 <f256main+0x8a7>
    1265: e0 06        	cpx	#$6
    1267: 90 03        	bcc	$126c <f256main+0x93e>
    1269: 4c d1 11     	jmp	$11d1 <f256main+0x8a3>
    126c: 18           	clc
    126d: 8a           	txa
    126e: 69 05        	adc	#$5
    1270: 4c d5 11     	jmp	$11d5 <f256main+0x8a7>
    1273: a2 01        	ldx	#$1
    1275: 8e e0 d6     	stx	$d6e0                   ; 0xd6e0 <end_block9+0x4eb6>
    1278: 9c e2 d6     	stz	$d6e2                   ; 0xd6e2 <end_block9+0x4eb8>
    127b: 8e e3 d6     	stx	$d6e3                   ; 0xd6e3 <end_block9+0x4eb9>
    127e: 9c e4 d6     	stz	$d6e4                   ; 0xd6e4 <end_block9+0x4eba>
    1281: 8e e5 d6     	stx	$d6e5                   ; 0xd6e5 <end_block9+0x4ebb>
    1284: a9 11        	lda	#$11
    1286: ca           	dex
    1287: 20 cf 78     	jsr	$78cf <malloc>
    128a: a6 12        	ldx	$12                     ; 0x2012 <f256main+0x16e4>
    128c: a4 13        	ldy	$13                     ; 0x2013 <f256main+0x16e5>
    128e: 86 cf        	stx	$cf                     ; 0x20cf <f256main+0x17a1>
    1290: 84 d0        	sty	$d0                     ; 0x20d0 <f256main+0x17a2>
    1292: a9 00        	lda	#$0
    1294: 92 12        	sta	($12)                   ; 0x2012 <f256main+0x16e4>
    1296: a0 01        	ldy	#$1
    1298: 91 12        	sta	($12),y                 ; 0x2012 <f256main+0x16e4>
    129a: c8           	iny
    129b: 91 12        	sta	($12),y                 ; 0x2012 <f256main+0x16e4>
    129d: c8           	iny
    129e: 91 12        	sta	($12),y                 ; 0x2012 <f256main+0x16e4>
    12a0: a9 0b        	lda	#$b
    12a2: a2 00        	ldx	#$0
    12a4: 20 cf 78     	jsr	$78cf <malloc>
    12a7: a5 cf        	lda	$cf                     ; 0x20cf <f256main+0x17a1>
    12a9: a6 d0        	ldx	$d0                     ; 0x20d0 <f256main+0x17a2>
    12ab: 85 14        	sta	$14                     ; 0x2014 <f256main+0x16e6>
    12ad: 86 15        	stx	$15                     ; 0x2015 <f256main+0x16e7>
    12af: 18           	clc
    12b0: 69 04        	adc	#$4
    12b2: 85 16        	sta	$16                     ; 0x2016 <f256main+0x16e8>
    12b4: 8a           	txa
    12b5: 69 00        	adc	#$0
    12b7: 85 17        	sta	$17                     ; 0x2017 <f256main+0x16e9>
    12b9: a5 12        	lda	$12                     ; 0x2012 <f256main+0x16e4>
    12bb: a0 04        	ldy	#$4
    12bd: 91 14        	sta	($14),y                 ; 0x2014 <f256main+0x16e6>
    12bf: a0 01        	ldy	#$1
    12c1: a5 13        	lda	$13                     ; 0x2013 <f256main+0x16e5>
    12c3: 91 16        	sta	($16),y                 ; 0x2016 <f256main+0x16e8>
    12c5: a0 03        	ldy	#$3
    12c7: a9 01        	lda	#$1
    12c9: 91 14        	sta	($14),y                 ; 0x2014 <f256main+0x16e6>
    12cb: a9 0f        	lda	#$f
    12cd: 92 12        	sta	($12)                   ; 0x2012 <f256main+0x16e4>
    12cf: a9 8b        	lda	#$8b
    12d1: a0 01        	ldy	#$1
    12d3: 91 12        	sta	($12),y                 ; 0x2012 <f256main+0x16e4>
    12d5: a9 02        	lda	#$2
    12d7: a8           	tay
    12d8: 91 12        	sta	($12),y                 ; 0x2012 <f256main+0x16e4>
    12da: a9 19        	lda	#$19
    12dc: c8           	iny
    12dd: 91 12        	sta	($12),y                 ; 0x2012 <f256main+0x16e4>
    12df: a0 09        	ldy	#$9
    12e1: a9 55        	lda	#$55
    12e3: 91 12        	sta	($12),y                 ; 0x2012 <f256main+0x16e4>
    12e5: a9 23        	lda	#$23
    12e7: a0 04        	ldy	#$4
    12e9: 91 12        	sta	($12),y                 ; 0x2012 <f256main+0x16e4>
    12eb: c8           	iny
    12ec: a9 20        	lda	#$20
    12ee: 91 12        	sta	($12),y                 ; 0x2012 <f256main+0x16e4>
    12f0: c8           	iny
    12f1: a9 34        	lda	#$34
    12f3: 91 12        	sta	($12),y                 ; 0x2012 <f256main+0x16e4>
    12f5: c8           	iny
    12f6: a9 01        	lda	#$1
    12f8: 91 12        	sta	($12),y                 ; 0x2012 <f256main+0x16e4>
    12fa: c8           	iny
    12fb: a9 20        	lda	#$20
    12fd: 91 12        	sta	($12),y                 ; 0x2012 <f256main+0x16e4>
    12ff: a0 0a        	ldy	#$a
    1301: a9 01        	lda	#$1
    1303: 91 12        	sta	($12),y                 ; 0x2012 <f256main+0x16e4>
    1305: a0 19        	ldy	#$19
    1307: 8c 0c d4     	sty	$d40c                   ; 0xd40c <end_block9+0x4be2>
    130a: a2 23        	ldx	#$23
    130c: 8e 0d d4     	stx	$d40d                   ; 0xd40d <end_block9+0x4be3>
    130f: a9 20        	lda	#$20
    1311: 8d 0b d4     	sta	$d40b                   ; 0xd40b <end_block9+0x4be1>
    1314: a2 8b        	ldx	#$8b
    1316: 8e 09 d4     	stx	$d409                   ; 0xd409 <end_block9+0x4bdf>
    1319: a2 02        	ldx	#$2
    131b: 8e 0a d4     	stx	$d40a                   ; 0xd40a <end_block9+0x4be0>
    131e: 8c 05 d5     	sty	$d505                   ; 0xd505 <end_block9+0x4cdb>
    1321: a0 23        	ldy	#$23
    1323: 8c 06 d5     	sty	$d506                   ; 0xd506 <end_block9+0x4cdc>
    1326: 8d 04 d5     	sta	$d504                   ; 0xd504 <end_block9+0x4cda>
    1329: a0 8b        	ldy	#$8b
    132b: 8c 02 d5     	sty	$d502                   ; 0xd502 <end_block9+0x4cd8>
    132e: 8e 03 d5     	stx	$d503                   ; 0xd503 <end_block9+0x4cd9>
    1331: a0 19        	ldy	#$19
    1333: 8c 13 d5     	sty	$d513                   ; 0xd513 <end_block9+0x4ce9>
    1336: a0 23        	ldy	#$23
    1338: 8c 14 d5     	sty	$d514                   ; 0xd514 <end_block9+0x4cea>
    133b: 8d 12 d5     	sta	$d512                   ; 0xd512 <end_block9+0x4ce8>
    133e: a0 8b        	ldy	#$8b
    1340: 8c 10 d5     	sty	$d510                   ; 0xd510 <end_block9+0x4ce6>
    1343: 8e 11 d5     	stx	$d511                   ; 0xd511 <end_block9+0x4ce7>
    1346: a0 19        	ldy	#$19
    1348: 8c 13 d4     	sty	$d413                   ; 0xd413 <end_block9+0x4be9>
    134b: a0 23        	ldy	#$23
    134d: 8c 14 d4     	sty	$d414                   ; 0xd414 <end_block9+0x4bea>
    1350: 8d 12 d4     	sta	$d412                   ; 0xd412 <end_block9+0x4be8>
    1353: a0 8b        	ldy	#$8b
    1355: 8c 10 d4     	sty	$d410                   ; 0xd410 <end_block9+0x4be6>
    1358: 8e 11 d4     	stx	$d411                   ; 0xd411 <end_block9+0x4be7>
    135b: a0 19        	ldy	#$19
    135d: 8c 05 d5     	sty	$d505                   ; 0xd505 <end_block9+0x4cdb>
    1360: a0 23        	ldy	#$23
    1362: 8c 06 d5     	sty	$d506                   ; 0xd506 <end_block9+0x4cdc>
    1365: 8d 04 d5     	sta	$d504                   ; 0xd504 <end_block9+0x4cda>
    1368: a0 8b        	ldy	#$8b
    136a: 8c 02 d5     	sty	$d502                   ; 0xd502 <end_block9+0x4cd8>
    136d: 8e 03 d5     	stx	$d503                   ; 0xd503 <end_block9+0x4cd9>
    1370: a0 19        	ldy	#$19
    1372: 8c 0c d4     	sty	$d40c                   ; 0xd40c <end_block9+0x4be2>
    1375: a0 23        	ldy	#$23
    1377: 8c 0d d4     	sty	$d40d                   ; 0xd40d <end_block9+0x4be3>
    137a: 8d 0b d4     	sta	$d40b                   ; 0xd40b <end_block9+0x4be1>
    137d: a0 8b        	ldy	#$8b
    137f: 8c 09 d4     	sty	$d409                   ; 0xd409 <end_block9+0x4bdf>
    1382: 8e 0a d4     	stx	$d40a                   ; 0xd40a <end_block9+0x4be0>
    1385: a0 19        	ldy	#$19
    1387: 8c 13 d4     	sty	$d413                   ; 0xd413 <end_block9+0x4be9>
    138a: a0 23        	ldy	#$23
    138c: 8c 14 d4     	sty	$d414                   ; 0xd414 <end_block9+0x4bea>
    138f: 8d 12 d4     	sta	$d412                   ; 0xd412 <end_block9+0x4be8>
    1392: a0 8b        	ldy	#$8b
    1394: 8c 10 d4     	sty	$d410                   ; 0xd410 <end_block9+0x4be6>
    1397: 8e 11 d4     	stx	$d411                   ; 0xd411 <end_block9+0x4be7>
    139a: a0 19        	ldy	#$19
    139c: 8c 05 d5     	sty	$d505                   ; 0xd505 <end_block9+0x4cdb>
    139f: a0 23        	ldy	#$23
    13a1: 8c 06 d5     	sty	$d506                   ; 0xd506 <end_block9+0x4cdc>
    13a4: 8d 04 d5     	sta	$d504                   ; 0xd504 <end_block9+0x4cda>
    13a7: a0 8b        	ldy	#$8b
    13a9: 8c 02 d5     	sty	$d502                   ; 0xd502 <end_block9+0x4cd8>
    13ac: 8e 03 d5     	stx	$d503                   ; 0xd503 <end_block9+0x4cd9>
    13af: a0 19        	ldy	#$19
    13b1: 8c 13 d5     	sty	$d513                   ; 0xd513 <end_block9+0x4ce9>
    13b4: a0 23        	ldy	#$23
    13b6: 8c 14 d5     	sty	$d514                   ; 0xd514 <end_block9+0x4cea>
    13b9: 8d 12 d5     	sta	$d512                   ; 0xd512 <end_block9+0x4ce8>
    13bc: a0 8b        	ldy	#$8b
    13be: 8c 10 d5     	sty	$d510                   ; 0xd510 <end_block9+0x4ce6>
    13c1: 8e 11 d5     	stx	$d511                   ; 0xd511 <end_block9+0x4ce7>
    13c4: a0 19        	ldy	#$19
    13c6: 8c 0c d5     	sty	$d50c                   ; 0xd50c <end_block9+0x4ce2>
    13c9: a0 23        	ldy	#$23
    13cb: 8c 0d d5     	sty	$d50d                   ; 0xd50d <end_block9+0x4ce3>
    13ce: 8d 0b d5     	sta	$d50b                   ; 0xd50b <end_block9+0x4ce1>
    13d1: a0 8b        	ldy	#$8b
    13d3: 8c 09 d5     	sty	$d509                   ; 0xd509 <end_block9+0x4cdf>
    13d6: 8e 0a d5     	stx	$d50a                   ; 0xd50a <end_block9+0x4ce0>
    13d9: a0 19        	ldy	#$19
    13db: 8c 13 d5     	sty	$d513                   ; 0xd513 <end_block9+0x4ce9>
    13de: a0 23        	ldy	#$23
    13e0: 8c 14 d5     	sty	$d514                   ; 0xd514 <end_block9+0x4cea>
    13e3: 8d 12 d5     	sta	$d512                   ; 0xd512 <end_block9+0x4ce8>
    13e6: a0 8b        	ldy	#$8b
    13e8: 8c 10 d5     	sty	$d510                   ; 0xd510 <end_block9+0x4ce6>
    13eb: 8e 11 d5     	stx	$d511                   ; 0xd511 <end_block9+0x4ce7>
    13ee: a0 19        	ldy	#$19
    13f0: 8c 0c d4     	sty	$d40c                   ; 0xd40c <end_block9+0x4be2>
    13f3: a0 23        	ldy	#$23
    13f5: 8c 0d d4     	sty	$d40d                   ; 0xd40d <end_block9+0x4be3>
    13f8: 8d 0b d4     	sta	$d40b                   ; 0xd40b <end_block9+0x4be1>
    13fb: a0 8b        	ldy	#$8b
    13fd: 8c 09 d4     	sty	$d409                   ; 0xd409 <end_block9+0x4bdf>
    1400: 8e 0a d4     	stx	$d40a                   ; 0xd40a <end_block9+0x4be0>
    1403: a0 19        	ldy	#$19
    1405: 8c 05 d5     	sty	$d505                   ; 0xd505 <end_block9+0x4cdb>
    1408: a0 23        	ldy	#$23
    140a: 8c 06 d5     	sty	$d506                   ; 0xd506 <end_block9+0x4cdc>
    140d: 8d 04 d5     	sta	$d504                   ; 0xd504 <end_block9+0x4cda>
    1410: a0 8b        	ldy	#$8b
    1412: 8c 02 d5     	sty	$d502                   ; 0xd502 <end_block9+0x4cd8>
    1415: 8e 03 d5     	stx	$d503                   ; 0xd503 <end_block9+0x4cd9>
    1418: a0 19        	ldy	#$19
    141a: 8c 0c d5     	sty	$d50c                   ; 0xd50c <end_block9+0x4ce2>
    141d: a0 23        	ldy	#$23
    141f: 8c 0d d5     	sty	$d50d                   ; 0xd50d <end_block9+0x4ce3>
    1422: 8d 0b d5     	sta	$d50b                   ; 0xd50b <end_block9+0x4ce1>
    1425: a0 8b        	ldy	#$8b
    1427: 8c 09 d5     	sty	$d509                   ; 0xd509 <end_block9+0x4cdf>
    142a: 8e 0a d5     	stx	$d50a                   ; 0xd50a <end_block9+0x4ce0>
    142d: a0 19        	ldy	#$19
    142f: 8c 13 d5     	sty	$d513                   ; 0xd513 <end_block9+0x4ce9>
    1432: a0 23        	ldy	#$23
    1434: 8c 14 d5     	sty	$d514                   ; 0xd514 <end_block9+0x4cea>
    1437: 8d 12 d5     	sta	$d512                   ; 0xd512 <end_block9+0x4ce8>
    143a: a0 8b        	ldy	#$8b
    143c: 8c 10 d5     	sty	$d510                   ; 0xd510 <end_block9+0x4ce6>
    143f: 8e 11 d5     	stx	$d511                   ; 0xd511 <end_block9+0x4ce7>
    1442: a2 34        	ldx	#$34
    1444: 8e 14 d5     	stx	$d514                   ; 0xd514 <end_block9+0x4cea>
    1447: a0 01        	ldy	#$1
    1449: 8c 15 d5     	sty	$d515                   ; 0xd515 <end_block9+0x4ceb>
    144c: 8d 17 d5     	sta	$d517                   ; 0xd517 <end_block9+0x4ced>
    144f: a2 0f        	ldx	#$f
    1451: 8e 18 d5     	stx	$d518                   ; 0xd518 <end_block9+0x4cee>
    1454: a2 2c        	ldx	#$2c
    1456: 8e 78 82     	stx	$8278                   ; 0x8278 <radios+0x3>
    1459: 8c 75 82     	sty	$8275                   ; 0x8275 <radios>
    145c: a2 28        	ldx	#$28
    145e: 8e 76 82     	stx	$8276                   ; 0x8276 <radios+0x1>
    1461: 9c 77 82     	stz	$8277                   ; 0x8277 <radios+0x2>
    1464: 9c 79 82     	stz	$8279                   ; 0x8279 <radios+0x4>
    1467: 9c 7a 82     	stz	$827a                   ; 0x827a <radios+0x5>
    146a: 9c 7b 82     	stz	$827b                   ; 0x827b <radios+0x6>
    146d: 9c 7c 82     	stz	$827c                   ; 0x827c <radios+0x7>
    1470: 9c 7d 82     	stz	$827d                   ; 0x827d <radios+0x8>
    1473: a2 38        	ldx	#$38
    1475: 8e 7e 82     	stx	$827e                   ; 0x827e <radios+0x9>
    1478: 8a           	txa
    1479: 8c 7f 82     	sty	$827f                   ; 0x827f <radios+0xa>
    147c: 9c 80 82     	stz	$8280                   ; 0x8280 <radios+0xb>
    147f: 9c 81 82     	stz	$8281                   ; 0x8281 <radios+0xc>
    1482: a2 10        	ldx	#$10
    1484: 8e 82 82     	stx	$8282                   ; 0x8282 <radios+0xd>
    1487: 9c 83 82     	stz	$8283                   ; 0x8283 <radios+0xe>
    148a: a2 0d        	ldx	#$d
    148c: 8e 84 82     	stx	$8284                   ; 0x8284 <radios+0xf>
    148f: a2 04        	ldx	#$4
    1491: 8e 85 82     	stx	$8285                   ; 0x8285 <radios+0x10>
    1494: a2 0b        	ldx	#$b
    1496: 8e 86 82     	stx	$8286                   ; 0x8286 <radios+0x11>
    1499: 9c 87 82     	stz	$8287                   ; 0x8287 <radios+0x12>
    149c: 8c 88 82     	sty	$8288                   ; 0x8288 <radios+0x13>
    149f: 9c 89 82     	stz	$8289                   ; 0x8289 <radios+0x14>
    14a2: a2 40        	ldx	#$40
    14a4: 8e 36 82     	stx	$8236                   ; 0x8236 <_spriteCtl+0x1>
    14a7: 8e 08 d9     	stx	$d908                   ; 0xd908 <end_block9+0x50de>
    14aa: 9c 09 d9     	stz	$d909                   ; 0xd909 <end_block9+0x50df>
    14ad: 8d 0a d9     	sta	$d90a                   ; 0xd90a <end_block9+0x50e0>
    14b0: 8c 0b d9     	sty	$d90b                   ; 0xd90b <end_block9+0x50e1>
    14b3: ae 75 82     	ldx	$8275                   ; 0x8275 <radios>
    14b6: 8a           	txa
    14b7: 0a           	asl
    14b8: 64 15        	stz	$15                     ; 0x2015 <f256main+0x16e7>
    14ba: 26 15        	rol	$15                     ; 0x2015 <f256main+0x16e7>
    14bc: 85 12        	sta	$12                     ; 0x2012 <f256main+0x16e4>
    14be: 06 12        	asl	$12                     ; 0x2012 <f256main+0x16e4>
    14c0: 26 15        	rol	$15                     ; 0x2015 <f256main+0x16e7>
    14c2: 06 12        	asl	$12                     ; 0x2012 <f256main+0x16e4>
    14c4: a4 12        	ldy	$12                     ; 0x2012 <f256main+0x16e4>
    14c6: 84 14        	sty	$14                     ; 0x2014 <f256main+0x16e6>
    14c8: 26 15        	rol	$15                     ; 0x2015 <f256main+0x16e7>
    14ca: a5 12        	lda	$12                     ; 0x2012 <f256main+0x16e4>
    14cc: 18           	clc
    14cd: 69 04        	adc	#$4
    14cf: 85 12        	sta	$12                     ; 0x2012 <f256main+0x16e4>
    14d1: a5 15        	lda	$15                     ; 0x2015 <f256main+0x16e7>
    14d3: 69 d9        	adc	#$d9
    14d5: 85 13        	sta	$13                     ; 0x2013 <f256main+0x16e5>
    14d7: ad 76 82     	lda	$8276                   ; 0x8276 <radios+0x1>
    14da: ac 77 82     	ldy	$8277                   ; 0x8277 <radios+0x2>
    14dd: 84 18        	sty	$18                     ; 0x2018 <f256main+0x16ea>
    14df: ac 78 82     	ldy	$8278                   ; 0x8278 <radios+0x3>
    14e2: 84 17        	sty	$17                     ; 0x2017 <f256main+0x16e9>
    14e4: ac 79 82     	ldy	$8279                   ; 0x8279 <radios+0x4>
    14e7: 84 16        	sty	$16                     ; 0x2016 <f256main+0x16e8>
    14e9: 92 12        	sta	($12)                   ; 0x2012 <f256main+0x16e4>
    14eb: a0 01        	ldy	#$1
    14ed: a5 18        	lda	$18                     ; 0x2018 <f256main+0x16ea>
    14ef: 91 12        	sta	($12),y                 ; 0x2012 <f256main+0x16e4>
    14f1: a5 14        	lda	$14                     ; 0x2014 <f256main+0x16e6>
    14f3: 18           	clc
    14f4: 69 06        	adc	#$6
    14f6: 85 12        	sta	$12                     ; 0x2012 <f256main+0x16e4>
    14f8: a5 15        	lda	$15                     ; 0x2015 <f256main+0x16e7>
    14fa: 69 d9        	adc	#$d9
    14fc: 85 13        	sta	$13                     ; 0x2013 <f256main+0x16e5>
    14fe: a5 17        	lda	$17                     ; 0x2017 <f256main+0x16e9>
    1500: 92 12        	sta	($12)                   ; 0x2012 <f256main+0x16e4>
    1502: a5 16        	lda	$16                     ; 0x2016 <f256main+0x16e8>
    1504: 91 12        	sta	($12),y                 ; 0x2012 <f256main+0x16e4>
    1506: 98           	tya
    1507: 1d 35 82     	ora	$8235,x                 ; 0x8235 <_spriteCtl>
    150a: aa           	tax
    150b: 18           	clc
    150c: a5 14        	lda	$14                     ; 0x2014 <f256main+0x16e6>
    150e: 69 00        	adc	#$0
    1510: 85 12        	sta	$12                     ; 0x2012 <f256main+0x16e4>
    1512: a5 15        	lda	$15                     ; 0x2015 <f256main+0x16e7>
    1514: 69 d9        	adc	#$d9
    1516: 85 13        	sta	$13                     ; 0x2013 <f256main+0x16e5>
    1518: 8a           	txa
    1519: 92 12        	sta	($12)                   ; 0x2012 <f256main+0x16e4>
    151b: a2 3c        	ldx	#$3c
    151d: 8e 8d 82     	stx	$828d                   ; 0x828d <radios+0x18>
    1520: a2 02        	ldx	#$2
    1522: 8e 8a 82     	stx	$828a                   ; 0x828a <radios+0x15>
    1525: a2 28        	ldx	#$28
    1527: 8e 8b 82     	stx	$828b                   ; 0x828b <radios+0x16>
    152a: 9c 8c 82     	stz	$828c                   ; 0x828c <radios+0x17>
    152d: 9c 8e 82     	stz	$828e                   ; 0x828e <radios+0x19>
    1530: 9c 8f 82     	stz	$828f                   ; 0x828f <radios+0x1a>
    1533: 9c 90 82     	stz	$8290                   ; 0x8290 <radios+0x1b>
    1536: 9c 91 82     	stz	$8291                   ; 0x8291 <radios+0x1c>
    1539: 9c 92 82     	stz	$8292                   ; 0x8292 <radios+0x1d>
    153c: a2 38        	ldx	#$38
    153e: 8e 93 82     	stx	$8293                   ; 0x8293 <radios+0x1e>
    1541: 8c 94 82     	sty	$8294                   ; 0x8294 <radios+0x1f>
    1544: 9c 95 82     	stz	$8295                   ; 0x8295 <radios+0x20>
    1547: 8c 96 82     	sty	$8296                   ; 0x8296 <radios+0x21>
    154a: a2 10        	ldx	#$10
    154c: 8e 97 82     	stx	$8297                   ; 0x8297 <radios+0x22>
    154f: 9c 98 82     	stz	$8298                   ; 0x8298 <radios+0x23>
    1552: a2 0d        	ldx	#$d
    1554: 8e 99 82     	stx	$8299                   ; 0x8299 <radios+0x24>
    1557: a2 04        	ldx	#$4
    1559: 8e 9a 82     	stx	$829a                   ; 0x829a <radios+0x25>
    155c: a2 0b        	ldx	#$b
    155e: 8e 9b 82     	stx	$829b                   ; 0x829b <radios+0x26>
    1561: 8c 9c 82     	sty	$829c                   ; 0x829c <radios+0x27>
    1564: a2 8a        	ldx	#$8a
    1566: 86 12        	stx	$12                     ; 0x2012 <f256main+0x16e4>
    1568: a2 82        	ldx	#$82
    156a: 86 13        	stx	$13                     ; 0x2013 <f256main+0x16e5>
    156c: 84 14        	sty	$14                     ; 0x2014 <f256main+0x16e6>
    156e: 98           	tya
    156f: a2 00        	ldx	#$0
    1571: 20 54 5f     	jsr	$5f54 <setRadioB>
    1574: a2 03        	ldx	#$3
    1576: 8e 9f 82     	stx	$829f                   ; 0x829f <radios+0x2a>
    1579: a2 28        	ldx	#$28
    157b: 8e a0 82     	stx	$82a0                   ; 0x82a0 <radios+0x2b>
    157e: 9c a1 82     	stz	$82a1                   ; 0x82a1 <radios+0x2c>
    1581: a2 4c        	ldx	#$4c
    1583: 8e a2 82     	stx	$82a2                   ; 0x82a2 <radios+0x2d>
    1586: 9c a3 82     	stz	$82a3                   ; 0x82a3 <radios+0x2e>
    1589: 9c a4 82     	stz	$82a4                   ; 0x82a4 <radios+0x2f>
    158c: 9c a5 82     	stz	$82a5                   ; 0x82a5 <radios+0x30>
    158f: 9c a6 82     	stz	$82a6                   ; 0x82a6 <radios+0x31>
    1592: 9c a7 82     	stz	$82a7                   ; 0x82a7 <radios+0x32>
    1595: a2 38        	ldx	#$38
    1597: 8e a8 82     	stx	$82a8                   ; 0x82a8 <radios+0x33>
    159a: a0 01        	ldy	#$1
    159c: 8c a9 82     	sty	$82a9                   ; 0x82a9 <radios+0x34>
    159f: 9c aa 82     	stz	$82aa                   ; 0x82aa <radios+0x35>
    15a2: a9 02        	lda	#$2
    15a4: 8d ab 82     	sta	$82ab                   ; 0x82ab <radios+0x36>
    15a7: a2 10        	ldx	#$10
    15a9: 8e ac 82     	stx	$82ac                   ; 0x82ac <radios+0x37>
    15ac: 9c ad 82     	stz	$82ad                   ; 0x82ad <radios+0x38>
    15af: a2 0d        	ldx	#$d
    15b1: 8e ae 82     	stx	$82ae                   ; 0x82ae <radios+0x39>
    15b4: a2 04        	ldx	#$4
    15b6: 8e af 82     	stx	$82af                   ; 0x82af <radios+0x3a>
    15b9: a2 0b        	ldx	#$b
    15bb: 8e b0 82     	stx	$82b0                   ; 0x82b0 <radios+0x3b>
    15be: 8d b1 82     	sta	$82b1                   ; 0x82b1 <radios+0x3c>
    15c1: 8c b2 82     	sty	$82b2                   ; 0x82b2 <radios+0x3d>
    15c4: 9c b3 82     	stz	$82b3                   ; 0x82b3 <radios+0x3e>
    15c7: a2 40        	ldx	#$40
    15c9: 8e 38 82     	stx	$8238                   ; 0x8238 <_spriteCtl+0x3>
    15cc: 8e 18 d9     	stx	$d918                   ; 0xd918 <end_block9+0x50ee>
    15cf: 9c 19 d9     	stz	$d919                   ; 0xd919 <end_block9+0x50ef>
    15d2: a2 38        	ldx	#$38
    15d4: 8e 1a d9     	stx	$d91a                   ; 0xd91a <end_block9+0x50f0>
    15d7: 8c 1b d9     	sty	$d91b                   ; 0xd91b <end_block9+0x50f1>
    15da: ae 9f 82     	ldx	$829f                   ; 0x829f <radios+0x2a>
    15dd: 8a           	txa
    15de: 0a           	asl
    15df: 64 15        	stz	$15                     ; 0x2015 <f256main+0x16e7>
    15e1: 26 15        	rol	$15                     ; 0x2015 <f256main+0x16e7>
    15e3: 85 12        	sta	$12                     ; 0x2012 <f256main+0x16e4>
    15e5: 06 12        	asl	$12                     ; 0x2012 <f256main+0x16e4>
    15e7: 26 15        	rol	$15                     ; 0x2015 <f256main+0x16e7>
    15e9: 06 12        	asl	$12                     ; 0x2012 <f256main+0x16e4>
    15eb: a4 12        	ldy	$12                     ; 0x2012 <f256main+0x16e4>
    15ed: 84 14        	sty	$14                     ; 0x2014 <f256main+0x16e6>
    15ef: 26 15        	rol	$15                     ; 0x2015 <f256main+0x16e7>
    15f1: 18           	clc
    15f2: a5 12        	lda	$12                     ; 0x2012 <f256main+0x16e4>
    15f4: 69 04        	adc	#$4
    15f6: 85 12        	sta	$12                     ; 0x2012 <f256main+0x16e4>
    15f8: a5 15        	lda	$15                     ; 0x2015 <f256main+0x16e7>
    15fa: 69 d9        	adc	#$d9
    15fc: 85 13        	sta	$13                     ; 0x2013 <f256main+0x16e5>
    15fe: ad a0 82     	lda	$82a0                   ; 0x82a0 <radios+0x2b>
    1601: ac a1 82     	ldy	$82a1                   ; 0x82a1 <radios+0x2c>
    1604: 84 18        	sty	$18                     ; 0x2018 <f256main+0x16ea>
    1606: ac a2 82     	ldy	$82a2                   ; 0x82a2 <radios+0x2d>
    1609: 84 17        	sty	$17                     ; 0x2017 <f256main+0x16e9>
    160b: ac a3 82     	ldy	$82a3                   ; 0x82a3 <radios+0x2e>
    160e: 84 16        	sty	$16                     ; 0x2016 <f256main+0x16e8>
    1610: 92 12        	sta	($12)                   ; 0x2012 <f256main+0x16e4>
    1612: a0 01        	ldy	#$1
    1614: a5 18        	lda	$18                     ; 0x2018 <f256main+0x16ea>
    1616: 91 12        	sta	($12),y                 ; 0x2012 <f256main+0x16e4>
    1618: 18           	clc
    1619: a5 14        	lda	$14                     ; 0x2014 <f256main+0x16e6>
    161b: 69 06        	adc	#$6
    161d: 85 12        	sta	$12                     ; 0x2012 <f256main+0x16e4>
    161f: a5 15        	lda	$15                     ; 0x2015 <f256main+0x16e7>
    1621: 69 d9        	adc	#$d9
    1623: 85 13        	sta	$13                     ; 0x2013 <f256main+0x16e5>
    1625: a5 17        	lda	$17                     ; 0x2017 <f256main+0x16e9>
    1627: 92 12        	sta	($12)                   ; 0x2012 <f256main+0x16e4>
    1629: a5 16        	lda	$16                     ; 0x2016 <f256main+0x16e8>
    162b: 91 12        	sta	($12),y                 ; 0x2012 <f256main+0x16e4>
    162d: 18           	clc
    162e: a5 14        	lda	$14                     ; 0x2014 <f256main+0x16e6>
    1630: 69 00        	adc	#$0
    1632: 85 12        	sta	$12                     ; 0x2012 <f256main+0x16e4>
    1634: a5 15        	lda	$15                     ; 0x2015 <f256main+0x16e7>
    1636: 69 d9        	adc	#$d9
    1638: 85 13        	sta	$13                     ; 0x2013 <f256main+0x16e5>
    163a: 98           	tya
    163b: 1d 35 82     	ora	$8235,x                 ; 0x8235 <_spriteCtl>
    163e: 92 12        	sta	($12)                   ; 0x2012 <f256main+0x16e4>
    1640: a9 04        	lda	#$4
    1642: 8d b4 82     	sta	$82b4                   ; 0x82b4 <radios+0x3f>
    1645: a2 28        	ldx	#$28
    1647: 8e b5 82     	stx	$82b5                   ; 0x82b5 <radios+0x40>
    164a: 9c b6 82     	stz	$82b6                   ; 0x82b6 <radios+0x41>
    164d: a2 5c        	ldx	#$5c
    164f: 8e b7 82     	stx	$82b7                   ; 0x82b7 <radios+0x42>
    1652: 9c b8 82     	stz	$82b8                   ; 0x82b8 <radios+0x43>
    1655: 9c b9 82     	stz	$82b9                   ; 0x82b9 <radios+0x44>
    1658: 9c ba 82     	stz	$82ba                   ; 0x82ba <radios+0x45>
    165b: 9c bb 82     	stz	$82bb                   ; 0x82bb <radios+0x46>
    165e: 9c bc 82     	stz	$82bc                   ; 0x82bc <radios+0x47>
    1661: a2 38        	ldx	#$38
    1663: 8e bd 82     	stx	$82bd                   ; 0x82bd <radios+0x48>
    1666: a2 01        	ldx	#$1
    1668: 8e be 82     	stx	$82be                   ; 0x82be <radios+0x49>
    166b: 9c bf 82     	stz	$82bf                   ; 0x82bf <radios+0x4a>
    166e: a2 03        	ldx	#$3
    1670: 8e c0 82     	stx	$82c0                   ; 0x82c0 <radios+0x4b>
    1673: a0 10        	ldy	#$10
    1675: 8c c1 82     	sty	$82c1                   ; 0x82c1 <radios+0x4c>
    1678: 9c c2 82     	stz	$82c2                   ; 0x82c2 <radios+0x4d>
    167b: a0 0d        	ldy	#$d
    167d: 8c c3 82     	sty	$82c3                   ; 0x82c3 <radios+0x4e>
    1680: 8d c4 82     	sta	$82c4                   ; 0x82c4 <radios+0x4f>
    1683: a9 0b        	lda	#$b
    1685: 8d c5 82     	sta	$82c5                   ; 0x82c5 <radios+0x50>
    1688: 8e c6 82     	stx	$82c6                   ; 0x82c6 <radios+0x51>
    168b: a2 01        	ldx	#$1
    168d: 8e c7 82     	stx	$82c7                   ; 0x82c7 <radios+0x52>
    1690: 9c c8 82     	stz	$82c8                   ; 0x82c8 <radios+0x53>
    1693: a0 40        	ldy	#$40
    1695: 8c 39 82     	sty	$8239                   ; 0x8239 <_spriteCtl+0x4>
    1698: 8c 20 d9     	sty	$d920                   ; 0xd920 <end_block9+0x50f6>
    169b: 9c 21 d9     	stz	$d921                   ; 0xd921 <end_block9+0x50f7>
    169e: a0 38        	ldy	#$38
    16a0: 8c 22 d9     	sty	$d922                   ; 0xd922 <end_block9+0x50f8>
    16a3: 8e 23 d9     	stx	$d923                   ; 0xd923 <end_block9+0x50f9>
    16a6: ae b4 82     	ldx	$82b4                   ; 0x82b4 <radios+0x3f>
    16a9: 8a           	txa
    16aa: 0a           	asl
    16ab: 64 15        	stz	$15                     ; 0x2015 <f256main+0x16e7>
    16ad: 26 15        	rol	$15                     ; 0x2015 <f256main+0x16e7>
    16af: 85 12        	sta	$12                     ; 0x2012 <f256main+0x16e4>
    16b1: 06 12        	asl	$12                     ; 0x2012 <f256main+0x16e4>
    16b3: 26 15        	rol	$15                     ; 0x2015 <f256main+0x16e7>
    16b5: 06 12        	asl	$12                     ; 0x2012 <f256main+0x16e4>
    16b7: a4 12        	ldy	$12                     ; 0x2012 <f256main+0x16e4>
    16b9: 84 14        	sty	$14                     ; 0x2014 <f256main+0x16e6>
    16bb: 26 15        	rol	$15                     ; 0x2015 <f256main+0x16e7>
    16bd: a5 12        	lda	$12                     ; 0x2012 <f256main+0x16e4>
    16bf: 18           	clc
    16c0: 69 04        	adc	#$4
    16c2: 85 12        	sta	$12                     ; 0x2012 <f256main+0x16e4>
    16c4: a5 15        	lda	$15                     ; 0x2015 <f256main+0x16e7>
    16c6: 69 d9        	adc	#$d9
    16c8: 85 13        	sta	$13                     ; 0x2013 <f256main+0x16e5>
    16ca: ad b5 82     	lda	$82b5                   ; 0x82b5 <radios+0x40>
    16cd: ac b6 82     	ldy	$82b6                   ; 0x82b6 <radios+0x41>
    16d0: 84 18        	sty	$18                     ; 0x2018 <f256main+0x16ea>
    16d2: ac b7 82     	ldy	$82b7                   ; 0x82b7 <radios+0x42>
    16d5: 84 17        	sty	$17                     ; 0x2017 <f256main+0x16e9>
    16d7: ac b8 82     	ldy	$82b8                   ; 0x82b8 <radios+0x43>
    16da: 84 16        	sty	$16                     ; 0x2016 <f256main+0x16e8>
    16dc: 92 12        	sta	($12)                   ; 0x2012 <f256main+0x16e4>
    16de: a0 01        	ldy	#$1
    16e0: a5 18        	lda	$18                     ; 0x2018 <f256main+0x16ea>
    16e2: 91 12        	sta	($12),y                 ; 0x2012 <f256main+0x16e4>
    16e4: a5 14        	lda	$14                     ; 0x2014 <f256main+0x16e6>
    16e6: 18           	clc
    16e7: 69 06        	adc	#$6
    16e9: 85 12        	sta	$12                     ; 0x2012 <f256main+0x16e4>
    16eb: a5 15        	lda	$15                     ; 0x2015 <f256main+0x16e7>
    16ed: 69 d9        	adc	#$d9
    16ef: 85 13        	sta	$13                     ; 0x2013 <f256main+0x16e5>
    16f1: a5 17        	lda	$17                     ; 0x2017 <f256main+0x16e9>
    16f3: 92 12        	sta	($12)                   ; 0x2012 <f256main+0x16e4>
    16f5: a5 16        	lda	$16                     ; 0x2016 <f256main+0x16e8>
    16f7: 91 12        	sta	($12),y                 ; 0x2012 <f256main+0x16e4>
    16f9: 98           	tya
    16fa: 1d 35 82     	ora	$8235,x                 ; 0x8235 <_spriteCtl>
    16fd: aa           	tax
    16fe: 18           	clc
    16ff: a5 14        	lda	$14                     ; 0x2014 <f256main+0x16e6>
    1701: 69 00        	adc	#$0
    1703: 85 12        	sta	$12                     ; 0x2012 <f256main+0x16e4>
    1705: a5 15        	lda	$15                     ; 0x2015 <f256main+0x16e7>
    1707: 69 d9        	adc	#$d9
    1709: 85 13        	sta	$13                     ; 0x2013 <f256main+0x16e5>
    170b: 8a           	txa
    170c: 92 12        	sta	($12)                   ; 0x2012 <f256main+0x16e4>
    170e: 20 c4 45     	jsr	$45c4 <loadGUISID>
    1711: a2 ff        	ldx	#$ff
    1713: 86 9f        	stx	$9f                     ; 0x209f <f256main+0x1771>
    1715: 86 a0        	stx	$a0                     ; 0x20a0 <f256main+0x1772>
    1717: a2 80        	ldx	#$80
    1719: 86 f3        	stx	$f3                     ; 0x20f3 <f256main+0x17c5>
    171b: 18           	clc
    171c: a5 10        	lda	$10                     ; 0x2010 <f256main+0x16e2>
    171e: 69 09        	adc	#$9
    1720: 85 12        	sta	$12                     ; 0x2012 <f256main+0x16e4>
    1722: a5 11        	lda	$11                     ; 0x2011 <f256main+0x16e3>
    1724: 69 00        	adc	#$0
    1726: 85 13        	sta	$13                     ; 0x2013 <f256main+0x16e5>
    1728: a2 24        	ldx	#$24
    172a: 86 2e        	stx	$2e                     ; 0x202e <f256main+0x1700>
    172c: a2 82        	ldx	#$82
    172e: 86 2f        	stx	$2f                     ; 0x202f <f256main+0x1701>
    1730: 20 f0 ff     	jsr	$fff0 <end_block9+0x77c6>
    1733: 92 12        	sta	($12)                   ; 0x2012 <f256main+0x16e4>
    1735: a9 00        	lda	#$0
    1737: 6a           	ror
    1738: 85 2e        	sta	$2e                     ; 0x202e <f256main+0x1700>
    173a: b2 12        	lda	($12)                   ; 0x2012 <f256main+0x16e4>
    173c: 1a           	inc
    173d: 85 a1        	sta	$a1                     ; 0x20a1 <f256main+0x1773>
    173f: 64 f3        	stz	$f3                     ; 0x20f3 <f256main+0x17c5>
    1741: a6 a1        	ldx	$a1                     ; 0x20a1 <f256main+0x1773>
    1743: 86 f4        	stx	$f4                     ; 0x20f4 <f256main+0x17c6>
    1745: a2 01        	ldx	#$1
    1747: 86 f5        	stx	$f5                     ; 0x20f5 <f256main+0x17c7>
    1749: 18           	clc
    174a: a5 10        	lda	$10                     ; 0x2010 <f256main+0x16e2>
    174c: 69 0a        	adc	#$a
    174e: 85 12        	sta	$12                     ; 0x2012 <f256main+0x16e4>
    1750: a5 11        	lda	$11                     ; 0x2011 <f256main+0x16e3>
    1752: 69 00        	adc	#$0
    1754: 85 13        	sta	$13                     ; 0x2013 <f256main+0x16e5>
    1756: 38           	sec
    1757: 8a           	txa
    1758: a8           	tay
    1759: 91 10        	sta	($10),y                 ; 0x2010 <f256main+0x16e2>
    175b: 64 14        	stz	$14                     ; 0x2014 <f256main+0x16e6>
    175d: 3a           	dec
    175e: a0 05        	ldy	#$5
    1760: 91 10        	sta	($10),y                 ; 0x2010 <f256main+0x16e2>
    1762: a8           	tay
    1763: 5a           	phy
    1764: a0 04        	ldy	#$4
    1766: 91 10        	sta	($10),y                 ; 0x2010 <f256main+0x16e2>
    1768: a2 90        	ldx	#$90
    176a: 8a           	txa
    176b: a0 02        	ldy	#$2
    176d: 91 10        	sta	($10),y                 ; 0x2010 <f256main+0x16e2>
    176f: 7a           	ply
    1770: 20 f0 ff     	jsr	$fff0 <end_block9+0x77c6>
    1773: 92 12        	sta	($12)                   ; 0x2012 <f256main+0x16e4>
    1775: a9 00        	lda	#$0
    1777: 6a           	ror
    1778: 85 2e        	sta	$2e                     ; 0x202e <f256main+0x1700>
    177a: ad a0 dd     	lda	$dda0                   ; 0xdda0 <end_block9+0x5576>
    177d: 29 02        	and	#$2
    177f: f0 03        	beq	$1784 <f256main+0xe56>
    1781: 4c 67 1f     	jmp	$1f67 <f256main+0x1639>
    1784: ae a2 dd     	ldx	$dda2                   ; 0xdda2 <end_block9+0x5578>
    1787: ad a3 dd     	lda	$dda3                   ; 0xdda3 <end_block9+0x5579>
    178a: 29 0f        	and	#$f
    178c: d0 07        	bne	$1795 <f256main+0xe67>
    178e: e0 00        	cpx	#$0
    1790: d0 03        	bne	$1795 <f256main+0xe67>
    1792: 4c 67 1f     	jmp	$1f67 <f256main+0x1639>
    1795: 85 2c        	sta	$2c                     ; 0x202c <f256main+0x16fe>
    1797: 86 2a        	stx	$2a                     ; 0x202a <f256main+0x16fc>
    1799: 4c 46 1d     	jmp	$1d46 <f256main+0x1418>
    179c: a2 b1        	ldx	#$b1
    179e: 86 14        	stx	$14                     ; 0x2014 <f256main+0x16e6>
    17a0: a2 dd        	ldx	#$dd
    17a2: 86 15        	stx	$15                     ; 0x2015 <f256main+0x16e7>
    17a4: c9 04        	cmp	#$4
    17a6: f0 0c        	beq	$17b4 <f256main+0xe86>
    17a8: b2 12        	lda	($12)                   ; 0x2012 <f256main+0x16e4>
    17aa: d0 08        	bne	$17b4 <f256main+0xe86>
    17ac: a2 a1        	ldx	#$a1
    17ae: 86 14        	stx	$14                     ; 0x2014 <f256main+0x16e6>
    17b0: a2 dd        	ldx	#$dd
    17b2: 86 15        	stx	$15                     ; 0x2015 <f256main+0x16e7>
    17b4: a9 80        	lda	#$80
    17b6: 92 14        	sta	($14)                   ; 0x2014 <f256main+0x16e6>
    17b8: a5 26        	lda	$26                     ; 0x2026 <f256main+0x16f8>
    17ba: 92 14        	sta	($14)                   ; 0x2014 <f256main+0x16e6>
    17bc: a9 7f        	lda	#$7f
    17be: 92 14        	sta	($14)                   ; 0x2014 <f256main+0x16e6>
    17c0: b2 12        	lda	($12)                   ; 0x2012 <f256main+0x16e4>
    17c2: d0 03        	bne	$17c7 <f256main+0xe99>
    17c4: 4c 28 1a     	jmp	$1a28 <f256main+0x10fa>
    17c7: a6 ab        	ldx	$ab                     ; 0x20ab <f256main+0x177d>
    17c9: d0 03        	bne	$17ce <f256main+0xea0>
    17cb: 4c 2f 1a     	jmp	$1a2f <f256main+0x1101>
    17ce: ca           	dex
    17cf: 86 ab        	stx	$ab                     ; 0x20ab <f256main+0x177d>
    17d1: 4c 2f 1a     	jmp	$1a2f <f256main+0x1101>
    17d4: a9 00        	lda	#$0
    17d6: 06 13        	asl	$13                     ; 0x2013 <f256main+0x16e5>
    17d8: 85 15        	sta	$15                     ; 0x2015 <f256main+0x16e7>
    17da: 26 15        	rol	$15                     ; 0x2015 <f256main+0x16e7>
    17dc: 06 14        	asl	$14                     ; 0x2014 <f256main+0x16e6>
    17de: 26 12        	rol	$12                     ; 0x2012 <f256main+0x16e4>
    17e0: 06 14        	asl	$14                     ; 0x2014 <f256main+0x16e6>
    17e2: 26 12        	rol	$12                     ; 0x2012 <f256main+0x16e4>
    17e4: 18           	clc
    17e5: a9 00        	lda	#$0
    17e7: 65 14        	adc	$14                     ; 0x2014 <f256main+0x16e6>
    17e9: aa           	tax
    17ea: a9 d4        	lda	#$d4
    17ec: 65 12        	adc	$12                     ; 0x2012 <f256main+0x16e4>
    17ee: 86 12        	stx	$12                     ; 0x2012 <f256main+0x16e4>
    17f0: 85 13        	sta	$13                     ; 0x2013 <f256main+0x16e5>
    17f2: a6 01        	ldx	$1                      ; 0x2001 <f256main+0x16d3>
    17f4: 84 01        	sty	$1                      ; 0x2001 <f256main+0x16d3>
    17f6: a5 15        	lda	$15                     ; 0x2015 <f256main+0x16e7>
    17f8: 92 12        	sta	($12)                   ; 0x2012 <f256main+0x16e4>
    17fa: 91 12        	sta	($12),y                 ; 0x2012 <f256main+0x16e4>
    17fc: a0 02        	ldy	#$2
    17fe: 91 12        	sta	($12),y                 ; 0x2012 <f256main+0x16e4>
    1800: c8           	iny
    1801: a9 ff        	lda	#$ff
    1803: 91 12        	sta	($12),y                 ; 0x2012 <f256main+0x16e4>
    1805: 86 01        	stx	$1                      ; 0x2001 <f256main+0x16d3>
    1807: 64 12        	stz	$12                     ; 0x2012 <f256main+0x16e4>
    1809: 1a           	inc
    180a: a0 05        	ldy	#$5
    180c: 91 10        	sta	($10),y                 ; 0x2010 <f256main+0x16e2>
    180e: a6 16        	ldx	$16                     ; 0x2016 <f256main+0x16e8>
    1810: 86 26        	stx	$26                     ; 0x2026 <f256main+0x16f8>
    1812: a0 01        	ldy	#$1
    1814: a9 00        	lda	#$0
    1816: 5a           	phy
    1817: a0 04        	ldy	#$4
    1819: 80 10        	bra	$182b <f256main+0xefd>
    181b: a2 01        	ldx	#$1
    181d: 8a           	txa
    181e: 91 10        	sta	($10),y                 ; 0x2010 <f256main+0x16e2>
    1820: a0 05        	ldy	#$5
    1822: 91 10        	sta	($10),y                 ; 0x2010 <f256main+0x16e2>
    1824: a0 00        	ldy	#$0
    1826: a5 16        	lda	$16                     ; 0x2016 <f256main+0x16e8>
    1828: 5a           	phy
    1829: a0 02        	ldy	#$2
    182b: 91 10        	sta	($10),y                 ; 0x2010 <f256main+0x16e2>
    182d: 7a           	ply
    182e: 4c b0 1a     	jmp	$1ab0 <f256main+0x1182>
    1831: a5 16        	lda	$16                     ; 0x2016 <f256main+0x16e8>
    1833: 10 03        	bpl	$1838 <f256main+0xf0a>
    1835: 4c 44 1a     	jmp	$1a44 <f256main+0x1116>
    1838: a0 02        	ldy	#$2
    183a: b1 10        	lda	($10),y                 ; 0x2010 <f256main+0x16e2>
    183c: 29 f0        	and	#$f0
    183e: c9 80        	cmp	#$80
    1840: d0 03        	bne	$1845 <f256main+0xf17>
    1842: 4c 15 1e     	jmp	$1e15 <f256main+0x14e7>
    1845: c9 90        	cmp	#$90
    1847: d0 03        	bne	$184c <f256main+0xf1e>
    1849: 4c 15 1e     	jmp	$1e15 <f256main+0x14e7>
    184c: 4c 1c 1e     	jmp	$1e1c <f256main+0x14ee>
    184f: e6 aa        	inc	$aa                     ; 0x20aa <f256main+0x177c>
    1851: 4c aa 1a     	jmp	$1aaa <f256main+0x117c>
    1854: 64 28        	stz	$28                     ; 0x2028 <f256main+0x16fa>
    1856: a5 26        	lda	$26                     ; 0x2026 <f256main+0x16f8>
    1858: 85 12        	sta	$12                     ; 0x2012 <f256main+0x16e4>
    185a: 64 29        	stz	$29                     ; 0x2029 <f256main+0x16fb>
    185c: 64 2b        	stz	$2b                     ; 0x202b <f256main+0x16fd>
    185e: 64 26        	stz	$26                     ; 0x2026 <f256main+0x16f8>
    1860: e4 12        	cpx	$12                     ; 0x2012 <f256main+0x16e4>
    1862: f0 4b        	beq	$18af <f256main+0xf81>
    1864: a6 be        	ldx	$be                     ; 0x20be <f256main+0x1790>
    1866: a0 01        	ldy	#$1
    1868: 85 12        	sta	$12                     ; 0x2012 <f256main+0x16e4>
    186a: 84 28        	sty	$28                     ; 0x2028 <f256main+0x16fa>
    186c: e4 12        	cpx	$12                     ; 0x2012 <f256main+0x16e4>
    186e: f0 3f        	beq	$18af <f256main+0xf81>
    1870: a6 bf        	ldx	$bf                     ; 0x20bf <f256main+0x1791>
    1872: a0 02        	ldy	#$2
    1874: 85 12        	sta	$12                     ; 0x2012 <f256main+0x16e4>
    1876: 84 28        	sty	$28                     ; 0x2028 <f256main+0x16fa>
    1878: e4 12        	cpx	$12                     ; 0x2012 <f256main+0x16e4>
    187a: f0 33        	beq	$18af <f256main+0xf81>
    187c: a6 c0        	ldx	$c0                     ; 0x20c0 <f256main+0x1792>
    187e: a0 03        	ldy	#$3
    1880: 85 12        	sta	$12                     ; 0x2012 <f256main+0x16e4>
    1882: 84 28        	sty	$28                     ; 0x2028 <f256main+0x16fa>
    1884: e4 12        	cpx	$12                     ; 0x2012 <f256main+0x16e4>
    1886: f0 27        	beq	$18af <f256main+0xf81>
    1888: a6 c1        	ldx	$c1                     ; 0x20c1 <f256main+0x1793>
    188a: a0 04        	ldy	#$4
    188c: 85 12        	sta	$12                     ; 0x2012 <f256main+0x16e4>
    188e: 84 28        	sty	$28                     ; 0x2028 <f256main+0x16fa>
    1890: e4 12        	cpx	$12                     ; 0x2012 <f256main+0x16e4>
    1892: f0 1b        	beq	$18af <f256main+0xf81>
    1894: a6 c2        	ldx	$c2                     ; 0x20c2 <f256main+0x1794>
    1896: a0 05        	ldy	#$5
    1898: 85 12        	sta	$12                     ; 0x2012 <f256main+0x16e4>
    189a: 84 28        	sty	$28                     ; 0x2028 <f256main+0x16fa>
    189c: e4 12        	cpx	$12                     ; 0x2012 <f256main+0x16e4>
    189e: f0 0f        	beq	$18af <f256main+0xf81>
    18a0: a6 c3        	ldx	$c3                     ; 0x20c3 <f256main+0x1795>
    18a2: a0 06        	ldy	#$6
    18a4: 85 12        	sta	$12                     ; 0x2012 <f256main+0x16e4>
    18a6: 84 28        	sty	$28                     ; 0x2028 <f256main+0x16fa>
    18a8: e4 12        	cpx	$12                     ; 0x2012 <f256main+0x16e4>
    18aa: f0 03        	beq	$18af <f256main+0xf81>
    18ac: 4c 59 2a     	jmp	$2a59 <f256main+0x212b>
    18af: 18           	clc
    18b0: 69 05        	adc	#$5
    18b2: a8           	tay
    18b3: a9 00        	lda	#$0
    18b5: 69 00        	adc	#$0
    18b7: 18           	clc
    18b8: 48           	pha
    18b9: a5 10        	lda	$10                     ; 0x2010 <f256main+0x16e2>
    18bb: 69 06        	adc	#$6
    18bd: 85 24        	sta	$24                     ; 0x2024 <f256main+0x16f6>
    18bf: a5 11        	lda	$11                     ; 0x2011 <f256main+0x16e3>
    18c1: 69 00        	adc	#$0
    18c3: 85 25        	sta	$25                     ; 0x2025 <f256main+0x16f7>
    18c5: 68           	pla
    18c6: a6 24        	ldx	$24                     ; 0x2024 <f256main+0x16f6>
    18c8: 86 14        	stx	$14                     ; 0x2014 <f256main+0x16e6>
    18ca: a6 25        	ldx	$25                     ; 0x2025 <f256main+0x16f7>
    18cc: 86 15        	stx	$15                     ; 0x2015 <f256main+0x16e7>
    18ce: a2 0c        	ldx	#$c
    18d0: 86 12        	stx	$12                     ; 0x2012 <f256main+0x16e4>
    18d2: 64 13        	stz	$13                     ; 0x2013 <f256main+0x16e5>
    18d4: aa           	tax
    18d5: 98           	tya
    18d6: 20 06 7e     	jsr	$7e06 <__udivmodhi4>
    18d9: 85 15        	sta	$15                     ; 0x2015 <f256main+0x16e7>
    18db: b2 24        	lda	($24)                   ; 0x2024 <f256main+0x16f6>
    18dd: 85 12        	sta	$12                     ; 0x2012 <f256main+0x16e4>
    18df: a0 01        	ldy	#$1
    18e1: b1 24        	lda	($24),y                 ; 0x2024 <f256main+0x16f6>
    18e3: 06 12        	asl	$12                     ; 0x2012 <f256main+0x16e4>
    18e5: 2a           	rol
    18e6: 85 13        	sta	$13                     ; 0x2013 <f256main+0x16e5>
    18e8: a9 2c        	lda	#$2c
    18ea: 18           	clc
    18eb: 65 12        	adc	$12                     ; 0x2012 <f256main+0x16e4>
    18ed: 85 12        	sta	$12                     ; 0x2012 <f256main+0x16e4>
    18ef: a9 81        	lda	#$81
    18f1: 65 13        	adc	$13                     ; 0x2013 <f256main+0x16e5>
    18f3: 85 13        	sta	$13                     ; 0x2013 <f256main+0x16e5>
    18f5: b2 12        	lda	($12)                   ; 0x2012 <f256main+0x16e4>
    18f7: 85 14        	sta	$14                     ; 0x2014 <f256main+0x16e6>
    18f9: b1 12        	lda	($12),y                 ; 0x2012 <f256main+0x16e4>
    18fb: aa           	tax
    18fc: 18           	clc
    18fd: a5 15        	lda	$15                     ; 0x2015 <f256main+0x16e7>
    18ff: 69 3e        	adc	#$3e
    1901: 85 15        	sta	$15                     ; 0x2015 <f256main+0x16e7>
    1903: a5 28        	lda	$28                     ; 0x2028 <f256main+0x16fa>
    1905: 38           	sec
    1906: e5 2b        	sbc	$2b                     ; 0x202b <f256main+0x16fd>
    1908: a8           	tay
    1909: a9 00        	lda	#$0
    190b: e5 26        	sbc	$26                     ; 0x2026 <f256main+0x16f8>
    190d: 05 29        	ora	$29                     ; 0x2029 <f256main+0x16fb>
    190f: 85 12        	sta	$12                     ; 0x2012 <f256main+0x16e4>
    1911: 98           	tya
    1912: 09 a0        	ora	#$a0
    1914: 85 17        	sta	$17                     ; 0x2017 <f256main+0x16e9>
    1916: a5 12        	lda	$12                     ; 0x2012 <f256main+0x16e4>
    1918: c9 01        	cmp	#$1
    191a: f0 03        	beq	$191f <f256main+0xff1>
    191c: 4c 49 1a     	jmp	$1a49 <f256main+0x111b>
    191f: 84 16        	sty	$16                     ; 0x2016 <f256main+0x16e8>
    1921: c0 00        	cpy	#$0
    1923: 4c 4d 1a     	jmp	$1a4d <f256main+0x111f>
    1926: 64 12        	stz	$12                     ; 0x2012 <f256main+0x16e4>
    1928: a5 26        	lda	$26                     ; 0x2026 <f256main+0x16f8>
    192a: 85 14        	sta	$14                     ; 0x2014 <f256main+0x16e6>
    192c: 64 13        	stz	$13                     ; 0x2013 <f256main+0x16e5>
    192e: e4 14        	cpx	$14                     ; 0x2014 <f256main+0x16e6>
    1930: f0 1b        	beq	$194d <f256main+0x101f>
    1932: a6 b0        	ldx	$b0                     ; 0x20b0 <f256main+0x1782>
    1934: a0 01        	ldy	#$1
    1936: 85 14        	sta	$14                     ; 0x2014 <f256main+0x16e6>
    1938: 84 13        	sty	$13                     ; 0x2013 <f256main+0x16e5>
    193a: e4 14        	cpx	$14                     ; 0x2014 <f256main+0x16e6>
    193c: f0 0f        	beq	$194d <f256main+0x101f>
    193e: a6 b1        	ldx	$b1                     ; 0x20b1 <f256main+0x1783>
    1940: a0 02        	ldy	#$2
    1942: 85 14        	sta	$14                     ; 0x2014 <f256main+0x16e6>
    1944: 84 13        	sty	$13                     ; 0x2013 <f256main+0x16e5>
    1946: e4 14        	cpx	$14                     ; 0x2014 <f256main+0x16e6>
    1948: f0 03        	beq	$194d <f256main+0x101f>
    194a: 4c 74 1b     	jmp	$1b74 <f256main+0x1246>
    194d: a0 d4        	ldy	#$d4
    194f: a9 88        	lda	#$88
    1951: 18           	clc
    1952: 65 13        	adc	$13                     ; 0x2013 <f256main+0x16e5>
    1954: 85 14        	sta	$14                     ; 0x2014 <f256main+0x16e6>
    1956: a9 00        	lda	#$0
    1958: 65 12        	adc	$12                     ; 0x2012 <f256main+0x16e4>
    195a: 85 15        	sta	$15                     ; 0x2015 <f256main+0x16e7>
    195c: b2 14        	lda	($14)                   ; 0x2014 <f256main+0x16e6>
    195e: 85 14        	sta	$14                     ; 0x2014 <f256main+0x16e6>
    1960: a9 af        	lda	#$af
    1962: 18           	clc
    1963: 65 13        	adc	$13                     ; 0x2013 <f256main+0x16e5>
    1965: aa           	tax
    1966: a9 00        	lda	#$0
    1968: 65 12        	adc	$12                     ; 0x2012 <f256main+0x16e4>
    196a: 86 12        	stx	$12                     ; 0x2012 <f256main+0x16e4>
    196c: 85 13        	sta	$13                     ; 0x2013 <f256main+0x16e5>
    196e: a9 00        	lda	#$0
    1970: 92 12        	sta	($12)                   ; 0x2012 <f256main+0x16e4>
    1972: a6 26        	ldx	$26                     ; 0x2026 <f256main+0x16f8>
    1974: bd b9 81     	lda	$81b9,x                 ; 0x81b9 <psgHigh+0x35>
    1977: 5a           	phy
    1978: a4 14        	ldy	$14                     ; 0x2014 <f256main+0x16e6>
    197a: 84 12        	sty	$12                     ; 0x2012 <f256main+0x16e4>
    197c: 7a           	ply
    197d: 84 13        	sty	$13                     ; 0x2013 <f256main+0x16e5>
    197f: 92 12        	sta	($12)                   ; 0x2012 <f256main+0x16e4>
    1981: bd 4e 80     	lda	$804e,x                 ; 0x804e <textColors+0x66>
    1984: aa           	tax
    1985: 86 16        	stx	$16                     ; 0x2016 <f256main+0x16e8>
    1987: 5a           	phy
    1988: fa           	plx
    1989: 84 15        	sty	$15                     ; 0x2015 <f256main+0x16e7>
    198b: a4 14        	ldy	$14                     ; 0x2014 <f256main+0x16e6>
    198d: c8           	iny
    198e: d0 01        	bne	$1991 <f256main+0x1063>
    1990: e8           	inx
    1991: 84 12        	sty	$12                     ; 0x2012 <f256main+0x16e4>
    1993: 86 13        	stx	$13                     ; 0x2013 <f256main+0x16e5>
    1995: a5 16        	lda	$16                     ; 0x2016 <f256main+0x16e8>
    1997: 92 12        	sta	($12)                   ; 0x2012 <f256main+0x16e4>
    1999: 18           	clc
    199a: a5 14        	lda	$14                     ; 0x2014 <f256main+0x16e6>
    199c: 69 04        	adc	#$4
    199e: 85 12        	sta	$12                     ; 0x2012 <f256main+0x16e4>
    19a0: a5 15        	lda	$15                     ; 0x2015 <f256main+0x16e7>
    19a2: 69 00        	adc	#$0
    19a4: 85 13        	sta	$13                     ; 0x2013 <f256main+0x16e5>
    19a6: a5 cf        	lda	$cf                     ; 0x20cf <f256main+0x17a1>
    19a8: a6 d0        	ldx	$d0                     ; 0x20d0 <f256main+0x17a2>
    19aa: 85 14        	sta	$14                     ; 0x2014 <f256main+0x16e6>
    19ac: 86 15        	stx	$15                     ; 0x2015 <f256main+0x16e7>
    19ae: 18           	clc
    19af: 69 04        	adc	#$4
    19b1: 85 16        	sta	$16                     ; 0x2016 <f256main+0x16e8>
    19b3: 8a           	txa
    19b4: 69 00        	adc	#$0
    19b6: 85 17        	sta	$17                     ; 0x2017 <f256main+0x16e9>
    19b8: a0 04        	ldy	#$4
    19ba: b1 14        	lda	($14),y                 ; 0x2014 <f256main+0x16e6>
    19bc: 85 14        	sta	$14                     ; 0x2014 <f256main+0x16e6>
    19be: a0 01        	ldy	#$1
    19c0: b1 16        	lda	($16),y                 ; 0x2016 <f256main+0x16e8>
    19c2: 85 15        	sta	$15                     ; 0x2015 <f256main+0x16e7>
    19c4: a9 fe        	lda	#$fe
    19c6: a0 05        	ldy	#$5
    19c8: 31 14        	and	($14),y                 ; 0x2014 <f256main+0x16e6>
    19ca: 92 12        	sta	($12)                   ; 0x2012 <f256main+0x16e4>
    19cc: a6 ac        	ldx	$ac                     ; 0x20ac <f256main+0x177e>
    19ce: d0 03        	bne	$19d3 <f256main+0x10a5>
    19d0: 4c 2f 1a     	jmp	$1a2f <f256main+0x1101>
    19d3: ca           	dex
    19d4: 86 ac        	stx	$ac                     ; 0x20ac <f256main+0x177e>
    19d6: 4c 2f 1a     	jmp	$1a2f <f256main+0x1101>
    19d9: 64 12        	stz	$12                     ; 0x2012 <f256main+0x16e4>
    19db: a5 26        	lda	$26                     ; 0x2026 <f256main+0x16f8>
    19dd: 85 14        	sta	$14                     ; 0x2014 <f256main+0x16e6>
    19df: 64 13        	stz	$13                     ; 0x2013 <f256main+0x16e5>
    19e1: e4 14        	cpx	$14                     ; 0x2014 <f256main+0x16e6>
    19e3: f0 1b        	beq	$1a00 <f256main+0x10d2>
    19e5: a6 b8        	ldx	$b8                     ; 0x20b8 <f256main+0x178a>
    19e7: a0 01        	ldy	#$1
    19e9: 85 14        	sta	$14                     ; 0x2014 <f256main+0x16e6>
    19eb: 84 13        	sty	$13                     ; 0x2013 <f256main+0x16e5>
    19ed: e4 14        	cpx	$14                     ; 0x2014 <f256main+0x16e6>
    19ef: f0 0f        	beq	$1a00 <f256main+0x10d2>
    19f1: a6 b9        	ldx	$b9                     ; 0x20b9 <f256main+0x178b>
    19f3: a0 02        	ldy	#$2
    19f5: 85 14        	sta	$14                     ; 0x2014 <f256main+0x16e6>
    19f7: 84 13        	sty	$13                     ; 0x2013 <f256main+0x16e5>
    19f9: e4 14        	cpx	$14                     ; 0x2014 <f256main+0x16e6>
    19fb: f0 03        	beq	$1a00 <f256main+0x10d2>
    19fd: 4c a2 1b     	jmp	$1ba2 <f256main+0x1274>
    1a00: a6 13        	ldx	$13                     ; 0x2013 <f256main+0x16e5>
    1a02: 74 b7        	stz	$b7,x                   ; 0x20b7 <f256main+0x1789>
    1a04: a9 8e        	lda	#$8e
    1a06: 18           	clc
    1a07: 65 13        	adc	$13                     ; 0x2013 <f256main+0x16e5>
    1a09: 85 14        	sta	$14                     ; 0x2014 <f256main+0x16e6>
    1a0b: a9 00        	lda	#$0
    1a0d: 69 00        	adc	#$0
    1a0f: 85 15        	sta	$15                     ; 0x2015 <f256main+0x16e7>
    1a11: a2 d6        	ldx	#$d6
    1a13: 86 13        	stx	$13                     ; 0x2013 <f256main+0x16e5>
    1a15: a9 9f        	lda	#$9f
    1a17: 12 14        	ora	($14)                   ; 0x2014 <f256main+0x16e6>
    1a19: 92 12        	sta	($12)                   ; 0x2012 <f256main+0x16e4>
    1a1b: a6 ad        	ldx	$ad                     ; 0x20ad <f256main+0x177f>
    1a1d: d0 03        	bne	$1a22 <f256main+0x10f4>
    1a1f: 4c a2 1a     	jmp	$1aa2 <f256main+0x1174>
    1a22: ca           	dex
    1a23: 86 ad        	stx	$ad                     ; 0x20ad <f256main+0x177f>
    1a25: 4c a2 1a     	jmp	$1aa2 <f256main+0x1174>
    1a28: a6 aa        	ldx	$aa                     ; 0x20aa <f256main+0x177c>
    1a2a: f0 03        	beq	$1a2f <f256main+0x1101>
    1a2c: ca           	dex
    1a2d: 86 aa        	stx	$aa                     ; 0x20aa <f256main+0x177c>
    1a2f: 64 12        	stz	$12                     ; 0x2012 <f256main+0x16e4>
    1a31: a9 00        	lda	#$0
    1a33: 4c a8 1a     	jmp	$1aa8 <f256main+0x117a>
    1a36: a2 00        	ldx	#$0
    1a38: a0 d4        	ldy	#$d4
    1a3a: 4c f4 1a     	jmp	$1af4 <f256main+0x11c6>
    1a3d: a2 00        	ldx	#$0
    1a3f: a0 00        	ldy	#$0
    1a41: 4c ea 1b     	jmp	$1bea <f256main+0x12bc>
    1a44: a0 00        	ldy	#$0
    1a46: 4c 22 1e     	jmp	$1e22 <f256main+0x14f4>
    1a49: 84 16        	sty	$16                     ; 0x2016 <f256main+0x16e8>
    1a4b: c9 01        	cmp	#$1
    1a4d: a0 80        	ldy	#$80
    1a4f: 84 12        	sty	$12                     ; 0x2012 <f256main+0x16e4>
    1a51: a0 d5        	ldy	#$d5
    1a53: 84 13        	sty	$13                     ; 0x2013 <f256main+0x16e5>
    1a55: 90 08        	bcc	$1a5f <f256main+0x1131>
    1a57: a0 82        	ldy	#$82
    1a59: 84 12        	sty	$12                     ; 0x2012 <f256main+0x16e4>
    1a5b: a0 d5        	ldy	#$d5
    1a5d: 84 13        	sty	$13                     ; 0x2013 <f256main+0x16e5>
    1a5f: a5 17        	lda	$17                     ; 0x2017 <f256main+0x16e9>
    1a61: 92 12        	sta	($12)                   ; 0x2012 <f256main+0x16e4>
    1a63: a4 14        	ldy	$14                     ; 0x2014 <f256main+0x16e6>
    1a65: 8c 81 d5     	sty	$d581                   ; 0xd581 <end_block9+0x4d57>
    1a68: 8a           	txa
    1a69: 29 03        	and	#$3
    1a6b: 85 14        	sta	$14                     ; 0x2014 <f256main+0x16e6>
    1a6d: a5 15        	lda	$15                     ; 0x2015 <f256main+0x16e7>
    1a6f: 0a           	asl
    1a70: 0a           	asl
    1a71: 05 14        	ora	$14                     ; 0x2014 <f256main+0x16e6>
    1a73: aa           	tax
    1a74: a5 16        	lda	$16                     ; 0x2016 <f256main+0x16e8>
    1a76: 09 b0        	ora	#$b0
    1a78: 92 12        	sta	($12)                   ; 0x2012 <f256main+0x16e4>
    1a7a: 8e 81 d5     	stx	$d581                   ; 0xd581 <end_block9+0x4d57>
    1a7d: a5 28        	lda	$28                     ; 0x2028 <f256main+0x16fa>
    1a7f: 10 06        	bpl	$1a87 <f256main+0x1159>
    1a81: a2 ff        	ldx	#$ff
    1a83: 86 12        	stx	$12                     ; 0x2012 <f256main+0x16e4>
    1a85: 80 02        	bra	$1a89 <f256main+0x115b>
    1a87: 64 12        	stz	$12                     ; 0x2012 <f256main+0x16e4>
    1a89: a9 bd        	lda	#$bd
    1a8b: 18           	clc
    1a8c: 65 28        	adc	$28                     ; 0x2028 <f256main+0x16fa>
    1a8e: aa           	tax
    1a8f: a9 00        	lda	#$0
    1a91: 65 12        	adc	$12                     ; 0x2012 <f256main+0x16e4>
    1a93: 86 12        	stx	$12                     ; 0x2012 <f256main+0x16e4>
    1a95: 85 13        	sta	$13                     ; 0x2013 <f256main+0x16e5>
    1a97: a9 00        	lda	#$0
    1a99: 92 12        	sta	($12)                   ; 0x2012 <f256main+0x16e4>
    1a9b: a6 ae        	ldx	$ae                     ; 0x20ae <f256main+0x1780>
    1a9d: f0 03        	beq	$1aa2 <f256main+0x1174>
    1a9f: ca           	dex
    1aa0: 86 ae        	stx	$ae                     ; 0x20ae <f256main+0x1780>
    1aa2: 64 12        	stz	$12                     ; 0x2012 <f256main+0x16e4>
    1aa4: a9 00        	lda	#$0
    1aa6: a0 05        	ldy	#$5
    1aa8: 91 10        	sta	($10),y                 ; 0x2010 <f256main+0x16e2>
    1aaa: a0 00        	ldy	#$0
    1aac: a6 27        	ldx	$27                     ; 0x2027 <f256main+0x16f9>
    1aae: 86 26        	stx	$26                     ; 0x2026 <f256main+0x16f8>
    1ab0: a6 2c        	ldx	$2c                     ; 0x202c <f256main+0x16fe>
    1ab2: 86 12        	stx	$12                     ; 0x2012 <f256main+0x16e4>
    1ab4: a2 ff        	ldx	#$ff
    1ab6: c6 2a        	dec	$2a                     ; 0x202a <f256main+0x16fc>
    1ab8: e4 2a        	cpx	$2a                     ; 0x202a <f256main+0x16fc>
    1aba: f0 03        	beq	$1abf <f256main+0x1191>
    1abc: 4c 3d 1d     	jmp	$1d3d <f256main+0x140f>
    1abf: c6 12        	dec	$12                     ; 0x2012 <f256main+0x16e4>
    1ac1: 4c 3d 1d     	jmp	$1d3d <f256main+0x140f>
    1ac4: a2 01        	ldx	#$1
    1ac6: 4c 78 1c     	jmp	$1c78 <f256main+0x134a>
    1ac9: a2 01        	ldx	#$1
    1acb: a0 d4        	ldy	#$d4
    1acd: 80 25        	bra	$1af4 <f256main+0x11c6>
    1acf: a2 01        	ldx	#$1
    1ad1: a0 00        	ldy	#$0
    1ad3: 4c ea 1b     	jmp	$1bea <f256main+0x12bc>
    1ad6: a2 02        	ldx	#$2
    1ad8: 4c 78 1c     	jmp	$1c78 <f256main+0x134a>
    1adb: a2 02        	ldx	#$2
    1add: a0 00        	ldy	#$0
    1adf: 4c ea 1b     	jmp	$1bea <f256main+0x12bc>
    1ae2: a2 03        	ldx	#$3
    1ae4: 80 0c        	bra	$1af2 <f256main+0x11c4>
    1ae6: a2 03        	ldx	#$3
    1ae8: 4c 78 1c     	jmp	$1c78 <f256main+0x134a>
    1aeb: a2 03        	ldx	#$3
    1aed: 4c e8 1b     	jmp	$1be8 <f256main+0x12ba>
    1af0: a2 04        	ldx	#$4
    1af2: a0 d5        	ldy	#$d5
    1af4: 98           	tya
    1af5: a0 03        	ldy	#$3
    1af7: 91 10        	sta	($10),y                 ; 0x2010 <f256main+0x16e2>
    1af9: da           	phx
    1afa: 7a           	ply
    1afb: b5 88        	lda	$88,x                   ; 0x2088 <f256main+0x175a>
    1afd: aa           	tax
    1afe: 84 19        	sty	$19                     ; 0x2019 <f256main+0x16eb>
    1b00: a4 26        	ldy	$26                     ; 0x2026 <f256main+0x16f8>
    1b02: b9 b9 81     	lda	$81b9,y                 ; 0x81b9 <psgHigh+0x35>
    1b05: 85 14        	sta	$14                     ; 0x2014 <f256main+0x16e6>
    1b07: 86 12        	stx	$12                     ; 0x2012 <f256main+0x16e4>
    1b09: 86 16        	stx	$16                     ; 0x2016 <f256main+0x16e8>
    1b0b: 5a           	phy
    1b0c: a0 03        	ldy	#$3
    1b0e: b1 10        	lda	($10),y                 ; 0x2010 <f256main+0x16e2>
    1b10: 7a           	ply
    1b11: 85 15        	sta	$15                     ; 0x2015 <f256main+0x16e7>
    1b13: 85 13        	sta	$13                     ; 0x2013 <f256main+0x16e5>
    1b15: a5 14        	lda	$14                     ; 0x2014 <f256main+0x16e6>
    1b17: 92 12        	sta	($12)                   ; 0x2012 <f256main+0x16e4>
    1b19: be 4e 80     	ldx	$804e,y                 ; 0x804e <textColors+0x66>
    1b1c: 86 13        	stx	$13                     ; 0x2013 <f256main+0x16e5>
    1b1e: a4 16        	ldy	$16                     ; 0x2016 <f256main+0x16e8>
    1b20: a6 15        	ldx	$15                     ; 0x2015 <f256main+0x16e7>
    1b22: 86 12        	stx	$12                     ; 0x2012 <f256main+0x16e4>
    1b24: a6 15        	ldx	$15                     ; 0x2015 <f256main+0x16e7>
    1b26: c8           	iny
    1b27: d0 02        	bne	$1b2b <f256main+0x11fd>
    1b29: e6 12        	inc	$12                     ; 0x2012 <f256main+0x16e4>
    1b2b: 84 14        	sty	$14                     ; 0x2014 <f256main+0x16e6>
    1b2d: a4 12        	ldy	$12                     ; 0x2012 <f256main+0x16e4>
    1b2f: 84 15        	sty	$15                     ; 0x2015 <f256main+0x16e7>
    1b31: a5 13        	lda	$13                     ; 0x2013 <f256main+0x16e5>
    1b33: 92 14        	sta	($14)                   ; 0x2014 <f256main+0x16e6>
    1b35: 18           	clc
    1b36: a5 16        	lda	$16                     ; 0x2016 <f256main+0x16e8>
    1b38: 69 04        	adc	#$4
    1b3a: 85 12        	sta	$12                     ; 0x2012 <f256main+0x16e4>
    1b3c: 8a           	txa
    1b3d: 69 00        	adc	#$0
    1b3f: 85 13        	sta	$13                     ; 0x2013 <f256main+0x16e5>
    1b41: a5 cf        	lda	$cf                     ; 0x20cf <f256main+0x17a1>
    1b43: a6 d0        	ldx	$d0                     ; 0x20d0 <f256main+0x17a2>
    1b45: 85 14        	sta	$14                     ; 0x2014 <f256main+0x16e6>
    1b47: 86 15        	stx	$15                     ; 0x2015 <f256main+0x16e7>
    1b49: 18           	clc
    1b4a: 69 04        	adc	#$4
    1b4c: 85 16        	sta	$16                     ; 0x2016 <f256main+0x16e8>
    1b4e: 8a           	txa
    1b4f: 69 00        	adc	#$0
    1b51: 85 17        	sta	$17                     ; 0x2017 <f256main+0x16e9>
    1b53: a0 04        	ldy	#$4
    1b55: b1 14        	lda	($14),y                 ; 0x2014 <f256main+0x16e6>
    1b57: 85 14        	sta	$14                     ; 0x2014 <f256main+0x16e6>
    1b59: a0 01        	ldy	#$1
    1b5b: b1 16        	lda	($16),y                 ; 0x2016 <f256main+0x16e8>
    1b5d: 85 15        	sta	$15                     ; 0x2015 <f256main+0x16e7>
    1b5f: 98           	tya
    1b60: a0 05        	ldy	#$5
    1b62: 11 14        	ora	($14),y                 ; 0x2014 <f256main+0x16e6>
    1b64: 92 12        	sta	($12)                   ; 0x2012 <f256main+0x16e4>
    1b66: a5 26        	lda	$26                     ; 0x2026 <f256main+0x16f8>
    1b68: a6 19        	ldx	$19                     ; 0x2019 <f256main+0x16eb>
    1b6a: 9d af 00     	sta	$af,x                   ; 0xaf <polySIDBuffer>
    1b6d: e6 ac        	inc	$ac                     ; 0x20ac <f256main+0x177e>
    1b6f: a0 00        	ldy	#$0
    1b71: 4c b0 1a     	jmp	$1ab0 <f256main+0x1182>
    1b74: a6 b2        	ldx	$b2                     ; 0x20b2 <f256main+0x1784>
    1b76: a0 03        	ldy	#$3
    1b78: 85 12        	sta	$12                     ; 0x2012 <f256main+0x16e4>
    1b7a: 84 13        	sty	$13                     ; 0x2013 <f256main+0x16e5>
    1b7c: e4 12        	cpx	$12                     ; 0x2012 <f256main+0x16e4>
    1b7e: f0 1b        	beq	$1b9b <f256main+0x126d>
    1b80: a6 b3        	ldx	$b3                     ; 0x20b3 <f256main+0x1785>
    1b82: a0 04        	ldy	#$4
    1b84: 85 12        	sta	$12                     ; 0x2012 <f256main+0x16e4>
    1b86: 84 13        	sty	$13                     ; 0x2013 <f256main+0x16e5>
    1b88: e4 12        	cpx	$12                     ; 0x2012 <f256main+0x16e4>
    1b8a: f0 0f        	beq	$1b9b <f256main+0x126d>
    1b8c: a6 b4        	ldx	$b4                     ; 0x20b4 <f256main+0x1786>
    1b8e: a0 05        	ldy	#$5
    1b90: 85 12        	sta	$12                     ; 0x2012 <f256main+0x16e4>
    1b92: 84 13        	sty	$13                     ; 0x2013 <f256main+0x16e5>
    1b94: e4 12        	cpx	$12                     ; 0x2012 <f256main+0x16e4>
    1b96: f0 03        	beq	$1b9b <f256main+0x126d>
    1b98: 4c 2e 1c     	jmp	$1c2e <f256main+0x1300>
    1b9b: 64 12        	stz	$12                     ; 0x2012 <f256main+0x16e4>
    1b9d: a0 d5        	ldy	#$d5
    1b9f: 4c 4f 19     	jmp	$194f <f256main+0x1021>
    1ba2: a6 ba        	ldx	$ba                     ; 0x20ba <f256main+0x178c>
    1ba4: a0 03        	ldy	#$3
    1ba6: 85 13        	sta	$13                     ; 0x2013 <f256main+0x16e5>
    1ba8: 84 12        	sty	$12                     ; 0x2012 <f256main+0x16e4>
    1baa: e4 13        	cpx	$13                     ; 0x2013 <f256main+0x16e5>
    1bac: f0 1b        	beq	$1bc9 <f256main+0x129b>
    1bae: a6 bb        	ldx	$bb                     ; 0x20bb <f256main+0x178d>
    1bb0: a0 04        	ldy	#$4
    1bb2: 85 13        	sta	$13                     ; 0x2013 <f256main+0x16e5>
    1bb4: 84 12        	sty	$12                     ; 0x2012 <f256main+0x16e4>
    1bb6: e4 13        	cpx	$13                     ; 0x2013 <f256main+0x16e5>
    1bb8: f0 0f        	beq	$1bc9 <f256main+0x129b>
    1bba: a6 bc        	ldx	$bc                     ; 0x20bc <f256main+0x178e>
    1bbc: a0 05        	ldy	#$5
    1bbe: 85 13        	sta	$13                     ; 0x2013 <f256main+0x16e5>
    1bc0: 84 12        	sty	$12                     ; 0x2012 <f256main+0x16e4>
    1bc2: e4 13        	cpx	$13                     ; 0x2013 <f256main+0x16e5>
    1bc4: f0 03        	beq	$1bc9 <f256main+0x129b>
    1bc6: 4c 39 1c     	jmp	$1c39 <f256main+0x130b>
    1bc9: a6 12        	ldx	$12                     ; 0x2012 <f256main+0x16e4>
    1bcb: 74 b7        	stz	$b7,x                   ; 0x20b7 <f256main+0x1789>
    1bcd: a9 8e        	lda	#$8e
    1bcf: 18           	clc
    1bd0: 65 12        	adc	$12                     ; 0x2012 <f256main+0x16e4>
    1bd2: 85 14        	sta	$14                     ; 0x2014 <f256main+0x16e6>
    1bd4: a9 00        	lda	#$0
    1bd6: 69 00        	adc	#$0
    1bd8: 85 15        	sta	$15                     ; 0x2015 <f256main+0x16e7>
    1bda: a2 10        	ldx	#$10
    1bdc: 86 12        	stx	$12                     ; 0x2012 <f256main+0x16e4>
    1bde: 4c 11 1a     	jmp	$1a11 <f256main+0x10e3>
    1be1: a2 04        	ldx	#$4
    1be3: 4c 78 1c     	jmp	$1c78 <f256main+0x134a>
    1be6: a2 04        	ldx	#$4
    1be8: a0 10        	ldy	#$10
    1bea: 84 12        	sty	$12                     ; 0x2012 <f256main+0x16e4>
    1bec: a0 d6        	ldy	#$d6
    1bee: 84 13        	sty	$13                     ; 0x2013 <f256main+0x16e5>
    1bf0: b5 8e        	lda	$8e,x                   ; 0x208e <f256main+0x1760>
    1bf2: 85 14        	sta	$14                     ; 0x2014 <f256main+0x16e6>
    1bf4: a4 26        	ldy	$26                     ; 0x2026 <f256main+0x16f8>
    1bf6: 86 17        	stx	$17                     ; 0x2017 <f256main+0x16e9>
    1bf8: be 17 81     	ldx	$8117,y                 ; 0x8117 <sidHigh+0xbe>
    1bfb: 48           	pha
    1bfc: b9 57 81     	lda	$8157,y                 ; 0x8157 <psgLow+0x13>
    1bff: a8           	tay
    1c00: 68           	pla
    1c01: 09 90        	ora	#$90
    1c03: 92 12        	sta	($12)                   ; 0x2012 <f256main+0x16e4>
    1c05: 8a           	txa
    1c06: 05 14        	ora	$14                     ; 0x2014 <f256main+0x16e6>
    1c08: 92 12        	sta	($12)                   ; 0x2012 <f256main+0x16e4>
    1c0a: 98           	tya
    1c0b: 92 12        	sta	($12)                   ; 0x2012 <f256main+0x16e4>
    1c0d: a5 26        	lda	$26                     ; 0x2026 <f256main+0x16f8>
    1c0f: a6 17        	ldx	$17                     ; 0x2017 <f256main+0x16e9>
    1c11: 9d b7 00     	sta	$b7,x                   ; 0xb7 <polyPSGBuffer>
    1c14: e6 ad        	inc	$ad                     ; 0x20ad <f256main+0x177f>
    1c16: a0 00        	ldy	#$0
    1c18: 4c b0 1a     	jmp	$1ab0 <f256main+0x1182>
    1c1b: a2 02        	ldx	#$2
    1c1d: a0 d4        	ldy	#$d4
    1c1f: 4c f4 1a     	jmp	$1af4 <f256main+0x11c6>
    1c22: a2 05        	ldx	#$5
    1c24: 80 52        	bra	$1c78 <f256main+0x134a>
    1c26: a2 06        	ldx	#$6
    1c28: 80 4e        	bra	$1c78 <f256main+0x134a>
    1c2a: a2 07        	ldx	#$7
    1c2c: 80 4a        	bra	$1c78 <f256main+0x134a>
    1c2e: a0 d4        	ldy	#$d4
    1c30: a2 ff        	ldx	#$ff
    1c32: 86 13        	stx	$13                     ; 0x2013 <f256main+0x16e5>
    1c34: 86 12        	stx	$12                     ; 0x2012 <f256main+0x16e4>
    1c36: 4c 4f 19     	jmp	$194f <f256main+0x1021>
    1c39: 64 12        	stz	$12                     ; 0x2012 <f256main+0x16e4>
    1c3b: 64 b6        	stz	$b6                     ; 0x20b6 <f256main+0x1788>
    1c3d: a2 8d        	ldx	#$8d
    1c3f: 86 14        	stx	$14                     ; 0x2014 <f256main+0x16e6>
    1c41: a2 00        	ldx	#$0
    1c43: 86 15        	stx	$15                     ; 0x2015 <f256main+0x16e7>
    1c45: 4c 11 1a     	jmp	$1a11 <f256main+0x10e3>
    1c48: 8a           	txa
    1c49: 5a           	phy
    1c4a: a0 03        	ldy	#$3
    1c4c: 91 10        	sta	($10),y                 ; 0x2010 <f256main+0x16e2>
    1c4e: 7a           	ply
    1c4f: a5 26        	lda	$26                     ; 0x2026 <f256main+0x16f8>
    1c51: 18           	clc
    1c52: 69 05        	adc	#$5
    1c54: 85 14        	sta	$14                     ; 0x2014 <f256main+0x16e6>
    1c56: 64 25        	stz	$25                     ; 0x2025 <f256main+0x16f7>
    1c58: a9 00        	lda	#$0
    1c5a: 69 00        	adc	#$0
    1c5c: 84 12        	sty	$12                     ; 0x2012 <f256main+0x16e4>
    1c5e: 64 13        	stz	$13                     ; 0x2013 <f256main+0x16e5>
    1c60: 85 2b        	sta	$2b                     ; 0x202b <f256main+0x16fd>
    1c62: aa           	tax
    1c63: a5 14        	lda	$14                     ; 0x2014 <f256main+0x16e6>
    1c65: 85 28        	sta	$28                     ; 0x2028 <f256main+0x16fa>
    1c67: 20 a1 7c     	jsr	$7ca1 <__udivhi3>
    1c6a: 85 29        	sta	$29                     ; 0x2029 <f256main+0x16fb>
    1c6c: a2 01        	ldx	#$1
    1c6e: 86 24        	stx	$24                     ; 0x2024 <f256main+0x16f6>
    1c70: a2 09        	ldx	#$9
    1c72: 86 26        	stx	$26                     ; 0x2026 <f256main+0x16f8>
    1c74: 80 28        	bra	$1c9e <f256main+0x1370>
    1c76: a2 08        	ldx	#$8
    1c78: 8a           	txa
    1c79: 5a           	phy
    1c7a: a0 03        	ldy	#$3
    1c7c: 91 10        	sta	($10),y                 ; 0x2010 <f256main+0x16e2>
    1c7e: 7a           	ply
    1c7f: a5 26        	lda	$26                     ; 0x2026 <f256main+0x16f8>
    1c81: 18           	clc
    1c82: 69 05        	adc	#$5
    1c84: 85 14        	sta	$14                     ; 0x2014 <f256main+0x16e6>
    1c86: a9 00        	lda	#$0
    1c88: 69 00        	adc	#$0
    1c8a: 84 12        	sty	$12                     ; 0x2012 <f256main+0x16e4>
    1c8c: 64 13        	stz	$13                     ; 0x2013 <f256main+0x16e5>
    1c8e: 85 2b        	sta	$2b                     ; 0x202b <f256main+0x16fd>
    1c90: aa           	tax
    1c91: a5 14        	lda	$14                     ; 0x2014 <f256main+0x16e6>
    1c93: 85 28        	sta	$28                     ; 0x2028 <f256main+0x16fa>
    1c95: 20 a1 7c     	jsr	$7ca1 <__udivhi3>
    1c98: 85 29        	sta	$29                     ; 0x2029 <f256main+0x16fb>
    1c9a: 64 26        	stz	$26                     ; 0x2026 <f256main+0x16f8>
    1c9c: 64 25        	stz	$25                     ; 0x2025 <f256main+0x16f7>
    1c9e: a2 0c        	ldx	#$c
    1ca0: 86 12        	stx	$12                     ; 0x2012 <f256main+0x16e4>
    1ca2: 64 13        	stz	$13                     ; 0x2013 <f256main+0x16e5>
    1ca4: a6 2b        	ldx	$2b                     ; 0x202b <f256main+0x16fd>
    1ca6: a5 28        	lda	$28                     ; 0x2028 <f256main+0x16fa>
    1ca8: 20 61 7d     	jsr	$7d61 <__umodhi3>
    1cab: 86 12        	stx	$12                     ; 0x2012 <f256main+0x16e4>
    1cad: 0a           	asl
    1cae: 85 13        	sta	$13                     ; 0x2013 <f256main+0x16e5>
    1cb0: 26 12        	rol	$12                     ; 0x2012 <f256main+0x16e4>
    1cb2: a9 2c        	lda	#$2c
    1cb4: 18           	clc
    1cb5: 65 13        	adc	$13                     ; 0x2013 <f256main+0x16e5>
    1cb7: aa           	tax
    1cb8: a9 81        	lda	#$81
    1cba: 65 12        	adc	$12                     ; 0x2012 <f256main+0x16e4>
    1cbc: 86 12        	stx	$12                     ; 0x2012 <f256main+0x16e4>
    1cbe: 85 13        	sta	$13                     ; 0x2013 <f256main+0x16e5>
    1cc0: b2 12        	lda	($12)                   ; 0x2012 <f256main+0x16e4>
    1cc2: 85 14        	sta	$14                     ; 0x2014 <f256main+0x16e6>
    1cc4: a0 01        	ldy	#$1
    1cc6: b1 12        	lda	($12),y                 ; 0x2012 <f256main+0x16e4>
    1cc8: a8           	tay
    1cc9: 18           	clc
    1cca: a5 29        	lda	$29                     ; 0x2029 <f256main+0x16fb>
    1ccc: 69 3e        	adc	#$3e
    1cce: 85 15        	sta	$15                     ; 0x2015 <f256main+0x16e7>
    1cd0: 5a           	phy
    1cd1: a0 03        	ldy	#$3
    1cd3: b1 10        	lda	($10),y                 ; 0x2010 <f256main+0x16e2>
    1cd5: 7a           	ply
    1cd6: aa           	tax
    1cd7: 38           	sec
    1cd8: e5 26        	sbc	$26                     ; 0x2026 <f256main+0x16f8>
    1cda: 85 13        	sta	$13                     ; 0x2013 <f256main+0x16e5>
    1cdc: a9 00        	lda	#$0
    1cde: e5 25        	sbc	$25                     ; 0x2025 <f256main+0x16f7>
    1ce0: 05 24        	ora	$24                     ; 0x2024 <f256main+0x16f6>
    1ce2: 85 12        	sta	$12                     ; 0x2012 <f256main+0x16e4>
    1ce4: a5 13        	lda	$13                     ; 0x2013 <f256main+0x16e5>
    1ce6: 85 16        	sta	$16                     ; 0x2016 <f256main+0x16e8>
    1ce8: 09 a0        	ora	#$a0
    1cea: 85 17        	sta	$17                     ; 0x2017 <f256main+0x16e9>
    1cec: a5 12        	lda	$12                     ; 0x2012 <f256main+0x16e4>
    1cee: c9 01        	cmp	#$1
    1cf0: d0 06        	bne	$1cf8 <f256main+0x13ca>
    1cf2: a5 16        	lda	$16                     ; 0x2016 <f256main+0x16e8>
    1cf4: c9 00        	cmp	#$0
    1cf6: 80 02        	bra	$1cfa <f256main+0x13cc>
    1cf8: c9 01        	cmp	#$1
    1cfa: a9 80        	lda	#$80
    1cfc: 85 12        	sta	$12                     ; 0x2012 <f256main+0x16e4>
    1cfe: a9 d5        	lda	#$d5
    1d00: 85 13        	sta	$13                     ; 0x2013 <f256main+0x16e5>
    1d02: 84 18        	sty	$18                     ; 0x2018 <f256main+0x16ea>
    1d04: 90 08        	bcc	$1d0e <f256main+0x13e0>
    1d06: a0 82        	ldy	#$82
    1d08: 84 12        	sty	$12                     ; 0x2012 <f256main+0x16e4>
    1d0a: a0 d5        	ldy	#$d5
    1d0c: 84 13        	sty	$13                     ; 0x2013 <f256main+0x16e5>
    1d0e: a5 17        	lda	$17                     ; 0x2017 <f256main+0x16e9>
    1d10: 92 12        	sta	($12)                   ; 0x2012 <f256main+0x16e4>
    1d12: a4 14        	ldy	$14                     ; 0x2014 <f256main+0x16e6>
    1d14: 8c 81 d5     	sty	$d581                   ; 0xd581 <end_block9+0x4d57>
    1d17: a5 18        	lda	$18                     ; 0x2018 <f256main+0x16ea>
    1d19: 29 03        	and	#$3
    1d1b: 85 14        	sta	$14                     ; 0x2014 <f256main+0x16e6>
    1d1d: 06 15        	asl	$15                     ; 0x2015 <f256main+0x16e7>
    1d1f: a5 16        	lda	$16                     ; 0x2016 <f256main+0x16e8>
    1d21: 09 b0        	ora	#$b0
    1d23: 92 12        	sta	($12)                   ; 0x2012 <f256main+0x16e4>
    1d25: a5 15        	lda	$15                     ; 0x2015 <f256main+0x16e7>
    1d27: 0a           	asl
    1d28: 05 14        	ora	$14                     ; 0x2014 <f256main+0x16e6>
    1d2a: 09 20        	ora	#$20
    1d2c: 8d 81 d5     	sta	$d581                   ; 0xd581 <end_block9+0x4d57>
    1d2f: a5 27        	lda	$27                     ; 0x2027 <f256main+0x16f9>
    1d31: 85 26        	sta	$26                     ; 0x2026 <f256main+0x16f8>
    1d33: 9d bd 00     	sta	$bd,x                   ; 0xbd <polyOPL3Buffer>
    1d36: e6 ae        	inc	$ae                     ; 0x20ae <f256main+0x1780>
    1d38: a0 00        	ldy	#$0
    1d3a: 4c b0 1a     	jmp	$1ab0 <f256main+0x1182>
    1d3d: a6 12        	ldx	$12                     ; 0x2012 <f256main+0x16e4>
    1d3f: 86 2c        	stx	$2c                     ; 0x202c <f256main+0x16fe>
    1d41: d0 03        	bne	$1d46 <f256main+0x1418>
    1d43: 4c 60 1f     	jmp	$1f60 <f256main+0x1632>
    1d46: ae a1 dd     	ldx	$dda1                   ; 0xdda1 <end_block9+0x5577>
    1d49: e0 fe        	cpx	#$fe
    1d4b: d0 03        	bne	$1d50 <f256main+0x1422>
    1d4d: 4c b0 1a     	jmp	$1ab0 <f256main+0x1182>
    1d50: 98           	tya
    1d51: d0 03        	bne	$1d56 <f256main+0x1428>
    1d53: 4c c5 1d     	jmp	$1dc5 <f256main+0x1497>
    1d56: a6 cf        	ldx	$cf                     ; 0x20cf <f256main+0x17a1>
    1d58: a4 d0        	ldy	$d0                     ; 0x20d0 <f256main+0x17a2>
    1d5a: 5a           	phy
    1d5b: a0 05        	ldy	#$5
    1d5d: b1 10        	lda	($10),y                 ; 0x2010 <f256main+0x16e2>
    1d5f: 7a           	ply
    1d60: c9 00        	cmp	#$0
    1d62: f0 07        	beq	$1d6b <f256main+0x143d>
    1d64: a5 26        	lda	$26                     ; 0x2026 <f256main+0x16f8>
    1d66: d0 03        	bne	$1d6b <f256main+0x143d>
    1d68: 4c 27 1e     	jmp	$1e27 <f256main+0x14f9>
    1d6b: a5 26        	lda	$26                     ; 0x2026 <f256main+0x16f8>
    1d6d: 85 27        	sta	$27                     ; 0x2027 <f256main+0x16f9>
    1d6f: 86 12        	stx	$12                     ; 0x2012 <f256main+0x16e4>
    1d71: 84 13        	sty	$13                     ; 0x2013 <f256main+0x16e5>
    1d73: a0 03        	ldy	#$3
    1d75: b1 12        	lda	($12),y                 ; 0x2012 <f256main+0x16e4>
    1d77: c9 05        	cmp	#$5
    1d79: 90 03        	bcc	$1d7e <f256main+0x1450>
    1d7b: 4c aa 1a     	jmp	$1aaa <f256main+0x117c>
    1d7e: 85 14        	sta	$14                     ; 0x2014 <f256main+0x16e6>
    1d80: 06 14        	asl	$14                     ; 0x2014 <f256main+0x16e6>
    1d82: a6 14        	ldx	$14                     ; 0x2014 <f256main+0x16e6>
    1d84: 7c e2 7e     	jmp	($7ee2,x)               ; 0x7ee2 <__set_v+0x1>
    1d87: 48           	pha
    1d88: a0 05        	ldy	#$5
    1d8a: b1 10        	lda	($10),y                 ; 0x2010 <f256main+0x16e2>
    1d8c: aa           	tax
    1d8d: 68           	pla
    1d8e: e0 00        	cpx	#$0
    1d90: d0 03        	bne	$1d95 <f256main+0x1467>
    1d92: 4c 9c 17     	jmp	$179c <f256main+0xe6e>
    1d95: a2 b1        	ldx	#$b1
    1d97: 86 14        	stx	$14                     ; 0x2014 <f256main+0x16e6>
    1d99: a2 dd        	ldx	#$dd
    1d9b: 86 15        	stx	$15                     ; 0x2015 <f256main+0x16e7>
    1d9d: c9 04        	cmp	#$4
    1d9f: f0 0c        	beq	$1dad <f256main+0x147f>
    1da1: b2 12        	lda	($12)                   ; 0x2012 <f256main+0x16e4>
    1da3: d0 08        	bne	$1dad <f256main+0x147f>
    1da5: a2 a1        	ldx	#$a1
    1da7: 86 14        	stx	$14                     ; 0x2014 <f256main+0x16e6>
    1da9: a2 dd        	ldx	#$dd
    1dab: 86 15        	stx	$15                     ; 0x2015 <f256main+0x16e7>
    1dad: a9 90        	lda	#$90
    1daf: 92 14        	sta	($14)                   ; 0x2014 <f256main+0x16e6>
    1db1: a5 26        	lda	$26                     ; 0x2026 <f256main+0x16f8>
    1db3: 92 14        	sta	($14)                   ; 0x2014 <f256main+0x16e6>
    1db5: a9 7f        	lda	#$7f
    1db7: 92 14        	sta	($14)                   ; 0x2014 <f256main+0x16e6>
    1db9: b2 12        	lda	($12)                   ; 0x2012 <f256main+0x16e4>
    1dbb: d0 03        	bne	$1dc0 <f256main+0x1492>
    1dbd: 4c 4f 18     	jmp	$184f <f256main+0xf21>
    1dc0: e6 ab        	inc	$ab                     ; 0x20ab <f256main+0x177d>
    1dc2: 4c aa 1a     	jmp	$1aaa <f256main+0x117c>
    1dc5: 86 16        	stx	$16                     ; 0x2016 <f256main+0x16e8>
    1dc7: a0 04        	ldy	#$4
    1dc9: b1 10        	lda	($10),y                 ; 0x2010 <f256main+0x16e2>
    1dcb: d0 03        	bne	$1dd0 <f256main+0x14a2>
    1dcd: 4c 2e 1e     	jmp	$1e2e <f256main+0x1500>
    1dd0: 18           	clc
    1dd1: 8a           	txa
    1dd2: 69 ec        	adc	#$ec
    1dd4: 48           	pha
    1dd5: a0 05        	ldy	#$5
    1dd7: b1 10        	lda	($10),y                 ; 0x2010 <f256main+0x16e2>
    1dd9: aa           	tax
    1dda: 68           	pla
    1ddb: e0 00        	cpx	#$0
    1ddd: d0 03        	bne	$1de2 <f256main+0x14b4>
    1ddf: 4c 4b 1e     	jmp	$1e4b <f256main+0x151d>
    1de2: 0a           	asl
    1de3: 64 12        	stz	$12                     ; 0x2012 <f256main+0x16e4>
    1de5: 26 12        	rol	$12                     ; 0x2012 <f256main+0x16e4>
    1de7: 0a           	asl
    1de8: 85 13        	sta	$13                     ; 0x2013 <f256main+0x16e5>
    1dea: 26 12        	rol	$12                     ; 0x2012 <f256main+0x16e4>
    1dec: a9 00        	lda	#$0
    1dee: 18           	clc
    1def: 65 13        	adc	$13                     ; 0x2013 <f256main+0x16e5>
    1df1: 85 15        	sta	$15                     ; 0x2015 <f256main+0x16e7>
    1df3: a9 d4        	lda	#$d4
    1df5: 65 12        	adc	$12                     ; 0x2012 <f256main+0x16e4>
    1df7: a6 01        	ldx	$1                      ; 0x2001 <f256main+0x16d3>
    1df9: a0 01        	ldy	#$1
    1dfb: 84 01        	sty	$1                      ; 0x2001 <f256main+0x16d3>
    1dfd: 48           	pha
    1dfe: a5 15        	lda	$15                     ; 0x2015 <f256main+0x16e7>
    1e00: 85 12        	sta	$12                     ; 0x2012 <f256main+0x16e4>
    1e02: 68           	pla
    1e03: 85 13        	sta	$13                     ; 0x2013 <f256main+0x16e5>
    1e05: a9 ff        	lda	#$ff
    1e07: 92 12        	sta	($12)                   ; 0x2012 <f256main+0x16e4>
    1e09: 1a           	inc
    1e0a: 91 12        	sta	($12),y                 ; 0x2012 <f256main+0x16e4>
    1e0c: c8           	iny
    1e0d: 3a           	dec
    1e0e: 91 12        	sta	($12),y                 ; 0x2012 <f256main+0x16e4>
    1e10: c8           	iny
    1e11: 91 12        	sta	($12),y                 ; 0x2012 <f256main+0x16e4>
    1e13: 86 01        	stx	$1                      ; 0x2001 <f256main+0x16d3>
    1e15: a2 01        	ldx	#$1
    1e17: 8a           	txa
    1e18: a0 05        	ldy	#$5
    1e1a: 91 10        	sta	($10),y                 ; 0x2010 <f256main+0x16e2>
    1e1c: a6 16        	ldx	$16                     ; 0x2016 <f256main+0x16e8>
    1e1e: 86 26        	stx	$26                     ; 0x2026 <f256main+0x16f8>
    1e20: a0 01        	ldy	#$1
    1e22: 64 12        	stz	$12                     ; 0x2012 <f256main+0x16e4>
    1e24: 4c 14 18     	jmp	$1814 <f256main+0xee6>
    1e27: 64 26        	stz	$26                     ; 0x2026 <f256main+0x16f8>
    1e29: a0 00        	ldy	#$0
    1e2b: 4c b0 1a     	jmp	$1ab0 <f256main+0x1182>
    1e2e: 8a           	txa
    1e2f: 29 f0        	and	#$f0
    1e31: c9 90        	cmp	#$90
    1e33: d0 03        	bne	$1e38 <f256main+0x150a>
    1e35: 4c 1b 18     	jmp	$181b <f256main+0xeed>
    1e38: c9 80        	cmp	#$80
    1e3a: f0 03        	beq	$1e3f <f256main+0x1511>
    1e3c: 4c 31 18     	jmp	$1831 <f256main+0xf03>
    1e3f: a2 01        	ldx	#$1
    1e41: 8a           	txa
    1e42: 91 10        	sta	($10),y                 ; 0x2010 <f256main+0x16e2>
    1e44: 64 12        	stz	$12                     ; 0x2012 <f256main+0x16e4>
    1e46: a9 00        	lda	#$0
    1e48: 4c 20 18     	jmp	$1820 <f256main+0xef2>
    1e4b: aa           	tax
    1e4c: b4 2f        	ldy	$2f,x                   ; 0x202f <f256main+0x1701>
    1e4e: a2 01        	ldx	#$1
    1e50: 85 14        	sta	$14                     ; 0x2014 <f256main+0x16e6>
    1e52: 98           	tya
    1e53: f0 02        	beq	$1e57 <f256main+0x1529>
    1e55: a2 00        	ldx	#$0
    1e57: 64 12        	stz	$12                     ; 0x2012 <f256main+0x16e4>
    1e59: a0 01        	ldy	#$1
    1e5b: 64 13        	stz	$13                     ; 0x2013 <f256main+0x16e5>
    1e5d: 8a           	txa
    1e5e: d0 02        	bne	$1e62 <f256main+0x1534>
    1e60: 84 13        	sty	$13                     ; 0x2013 <f256main+0x16e5>
    1e62: 46 13        	lsr	$13                     ; 0x2013 <f256main+0x16e5>
    1e64: 64 13        	stz	$13                     ; 0x2013 <f256main+0x16e5>
    1e66: 66 13        	ror	$13                     ; 0x2013 <f256main+0x16e5>
    1e68: 30 03        	bmi	$1e6d <f256main+0x153f>
    1e6a: 4c d4 17     	jmp	$17d4 <f256main+0xea6>
    1e6d: a9 ff        	lda	#$ff
    1e6f: 4c d6 17     	jmp	$17d6 <f256main+0xea8>
    1e72: a6 bd        	ldx	$bd                     ; 0x20bd <f256main+0x178f>
    1e74: a0 05        	ldy	#$5
    1e76: b1 10        	lda	($10),y                 ; 0x2010 <f256main+0x16e2>
    1e78: d0 03        	bne	$1e7d <f256main+0x154f>
    1e7a: 4c 54 18     	jmp	$1854 <f256main+0xf26>
    1e7d: 64 24        	stz	$24                     ; 0x2024 <f256main+0x16f6>
    1e7f: 64 12        	stz	$12                     ; 0x2012 <f256main+0x16e4>
    1e81: a9 00        	lda	#$0
    1e83: a0 03        	ldy	#$3
    1e85: 91 10        	sta	($10),y                 ; 0x2010 <f256main+0x16e2>
    1e87: a0 0c        	ldy	#$c
    1e89: 8a           	txa
    1e8a: d0 03        	bne	$1e8f <f256main+0x1561>
    1e8c: 4c 7f 1c     	jmp	$1c7f <f256main+0x1351>
    1e8f: a6 be        	ldx	$be                     ; 0x20be <f256main+0x1790>
    1e91: d0 03        	bne	$1e96 <f256main+0x1568>
    1e93: 4c c4 1a     	jmp	$1ac4 <f256main+0x1196>
    1e96: a6 bf        	ldx	$bf                     ; 0x20bf <f256main+0x1791>
    1e98: d0 03        	bne	$1e9d <f256main+0x156f>
    1e9a: 4c d6 1a     	jmp	$1ad6 <f256main+0x11a8>
    1e9d: a6 c0        	ldx	$c0                     ; 0x20c0 <f256main+0x1792>
    1e9f: d0 03        	bne	$1ea4 <f256main+0x1576>
    1ea1: 4c e6 1a     	jmp	$1ae6 <f256main+0x11b8>
    1ea4: a6 c1        	ldx	$c1                     ; 0x20c1 <f256main+0x1793>
    1ea6: d0 03        	bne	$1eab <f256main+0x157d>
    1ea8: 4c e1 1b     	jmp	$1be1 <f256main+0x12b3>
    1eab: a6 c2        	ldx	$c2                     ; 0x20c2 <f256main+0x1794>
    1ead: d0 03        	bne	$1eb2 <f256main+0x1584>
    1eaf: 4c 22 1c     	jmp	$1c22 <f256main+0x12f4>
    1eb2: a6 c3        	ldx	$c3                     ; 0x20c3 <f256main+0x1795>
    1eb4: d0 03        	bne	$1eb9 <f256main+0x158b>
    1eb6: 4c 26 1c     	jmp	$1c26 <f256main+0x12f8>
    1eb9: a6 c4        	ldx	$c4                     ; 0x20c4 <f256main+0x1796>
    1ebb: d0 03        	bne	$1ec0 <f256main+0x1592>
    1ebd: 4c 2a 1c     	jmp	$1c2a <f256main+0x12fc>
    1ec0: a6 c5        	ldx	$c5                     ; 0x20c5 <f256main+0x1797>
    1ec2: d0 03        	bne	$1ec7 <f256main+0x1599>
    1ec4: 4c 76 1c     	jmp	$1c76 <f256main+0x1348>
    1ec7: a5 c6        	lda	$c6                     ; 0x20c6 <f256main+0x1798>
    1ec9: a2 09        	ldx	#$9
    1ecb: 48           	pha
    1ecc: 8a           	txa
    1ecd: 5a           	phy
    1ece: a0 03        	ldy	#$3
    1ed0: 91 10        	sta	($10),y                 ; 0x2010 <f256main+0x16e2>
    1ed2: 7a           	ply
    1ed3: 68           	pla
    1ed4: d0 03        	bne	$1ed9 <f256main+0x15ab>
    1ed6: 4c 4f 1c     	jmp	$1c4f <f256main+0x1321>
    1ed9: a6 c7        	ldx	$c7                     ; 0x20c7 <f256main+0x1799>
    1edb: f0 03        	beq	$1ee0 <f256main+0x15b2>
    1edd: 4c 23 2a     	jmp	$2a23 <f256main+0x20f5>
    1ee0: 4c d2 2d     	jmp	$2dd2 <f256main+0x24a4>
    1ee3: a6 af        	ldx	$af                     ; 0x20af <f256main+0x1781>
    1ee5: a0 05        	ldy	#$5
    1ee7: b1 10        	lda	($10),y                 ; 0x2010 <f256main+0x16e2>
    1ee9: d0 03        	bne	$1eee <f256main+0x15c0>
    1eeb: 4c 26 19     	jmp	$1926 <f256main+0xff8>
    1eee: 8a           	txa
    1eef: d0 03        	bne	$1ef4 <f256main+0x15c6>
    1ef1: 4c 36 1a     	jmp	$1a36 <f256main+0x1108>
    1ef4: a6 b0        	ldx	$b0                     ; 0x20b0 <f256main+0x1782>
    1ef6: d0 03        	bne	$1efb <f256main+0x15cd>
    1ef8: 4c c9 1a     	jmp	$1ac9 <f256main+0x119b>
    1efb: a6 b5        	ldx	$b5                     ; 0x20b5 <f256main+0x1787>
    1efd: d0 07        	bne	$1f06 <f256main+0x15d8>
    1eff: a6 b1        	ldx	$b1                     ; 0x20b1 <f256main+0x1783>
    1f01: d0 03        	bne	$1f06 <f256main+0x15d8>
    1f03: 4c 1b 1c     	jmp	$1c1b <f256main+0x12ed>
    1f06: a6 b2        	ldx	$b2                     ; 0x20b2 <f256main+0x1784>
    1f08: d0 03        	bne	$1f0d <f256main+0x15df>
    1f0a: 4c e2 1a     	jmp	$1ae2 <f256main+0x11b4>
    1f0d: a6 b3        	ldx	$b3                     ; 0x20b3 <f256main+0x1785>
    1f0f: d0 03        	bne	$1f14 <f256main+0x15e6>
    1f11: 4c f0 1a     	jmp	$1af0 <f256main+0x11c2>
    1f14: a6 b6        	ldx	$b6                     ; 0x20b6 <f256main+0x1788>
    1f16: f0 03        	beq	$1f1b <f256main+0x15ed>
    1f18: 4c 6d 1b     	jmp	$1b6d <f256main+0x123f>
    1f1b: a6 b4        	ldx	$b4                     ; 0x20b4 <f256main+0x1786>
    1f1d: f0 03        	beq	$1f22 <f256main+0x15f4>
    1f1f: 4c 6d 1b     	jmp	$1b6d <f256main+0x123f>
    1f22: a2 05        	ldx	#$5
    1f24: 4c f2 1a     	jmp	$1af2 <f256main+0x11c4>
    1f27: a6 b7        	ldx	$b7                     ; 0x20b7 <f256main+0x1789>
    1f29: a0 05        	ldy	#$5
    1f2b: b1 10        	lda	($10),y                 ; 0x2010 <f256main+0x16e2>
    1f2d: d0 03        	bne	$1f32 <f256main+0x1604>
    1f2f: 4c d9 19     	jmp	$19d9 <f256main+0x10ab>
    1f32: 8a           	txa
    1f33: d0 03        	bne	$1f38 <f256main+0x160a>
    1f35: 4c 3d 1a     	jmp	$1a3d <f256main+0x110f>
    1f38: a6 b8        	ldx	$b8                     ; 0x20b8 <f256main+0x178a>
    1f3a: d0 03        	bne	$1f3f <f256main+0x1611>
    1f3c: 4c cf 1a     	jmp	$1acf <f256main+0x11a1>
    1f3f: a6 b9        	ldx	$b9                     ; 0x20b9 <f256main+0x178b>
    1f41: d0 03        	bne	$1f46 <f256main+0x1618>
    1f43: 4c db 1a     	jmp	$1adb <f256main+0x11ad>
    1f46: a6 ba        	ldx	$ba                     ; 0x20ba <f256main+0x178c>
    1f48: d0 03        	bne	$1f4d <f256main+0x161f>
    1f4a: 4c eb 1a     	jmp	$1aeb <f256main+0x11bd>
    1f4d: a6 bb        	ldx	$bb                     ; 0x20bb <f256main+0x178d>
    1f4f: d0 03        	bne	$1f54 <f256main+0x1626>
    1f51: 4c e6 1b     	jmp	$1be6 <f256main+0x12b8>
    1f54: a6 bc        	ldx	$bc                     ; 0x20bc <f256main+0x178e>
    1f56: f0 03        	beq	$1f5b <f256main+0x162d>
    1f58: 4c 14 1c     	jmp	$1c14 <f256main+0x12e6>
    1f5b: a2 05        	ldx	#$5
    1f5d: 4c e8 1b     	jmp	$1be8 <f256main+0x12ba>
    1f60: a5 2a        	lda	$2a                     ; 0x202a <f256main+0x16fc>
    1f62: f0 03        	beq	$1f67 <f256main+0x1639>
    1f64: 4c 46 1d     	jmp	$1d46 <f256main+0x1418>
    1f67: 64 94        	stz	$94                     ; 0x2094 <f256main+0x1766>
    1f69: 18           	clc
    1f6a: a5 10        	lda	$10                     ; 0x2010 <f256main+0x16e2>
    1f6c: 69 08        	adc	#$8
    1f6e: 85 12        	sta	$12                     ; 0x2012 <f256main+0x16e4>
    1f70: a5 11        	lda	$11                     ; 0x2011 <f256main+0x16e3>
    1f72: 69 00        	adc	#$0
    1f74: 85 13        	sta	$13                     ; 0x2013 <f256main+0x16e5>
    1f76: 20 00 ff     	jsr	$ff00 <end_block9+0x76d6>
    1f79: 92 12        	sta	($12)                   ; 0x2012 <f256main+0x16e4>
    1f7b: a9 00        	lda	#$0
    1f7d: 6a           	ror
    1f7e: 85 2e        	sta	$2e                     ; 0x202e <f256main+0x1700>
    1f80: a6 94        	ldx	$94                     ; 0x2094 <f256main+0x1766>
    1f82: e0 52        	cpx	#$52
    1f84: f0 03        	beq	$1f89 <f256main+0x165b>
    1f86: 4c f2 27     	jmp	$27f2 <f256main+0x1ec4>
    1f89: a6 98        	ldx	$98                     ; 0x2098 <f256main+0x176a>
    1f8b: e0 01        	cpx	#$1
    1f8d: f0 03        	beq	$1f92 <f256main+0x1664>
    1f8f: 4c 7a 17     	jmp	$177a <f256main+0xe4c>
    1f92: 84 24        	sty	$24                     ; 0x2024 <f256main+0x16f6>
    1f94: a6 cf        	ldx	$cf                     ; 0x20cf <f256main+0x17a1>
    1f96: a4 d0        	ldy	$d0                     ; 0x20d0 <f256main+0x17a2>
    1f98: 86 12        	stx	$12                     ; 0x2012 <f256main+0x16e4>
    1f9a: 84 13        	sty	$13                     ; 0x2013 <f256main+0x16e5>
    1f9c: a0 03        	ldy	#$3
    1f9e: b1 12        	lda	($12),y                 ; 0x2012 <f256main+0x16e4>
    1fa0: c9 01        	cmp	#$1
    1fa2: d0 03        	bne	$1fa7 <f256main+0x1679>
    1fa4: 4c 20 23     	jmp	$2320 <f256main+0x19f2>
    1fa7: c9 03        	cmp	#$3
    1fa9: d0 03        	bne	$1fae <f256main+0x1680>
    1fab: 4c 9d 20     	jmp	$209d <f256main+0x176f>
    1fae: c9 02        	cmp	#$2
    1fb0: f0 03        	beq	$1fb5 <f256main+0x1687>
    1fb2: 4c ad 27     	jmp	$27ad <f256main+0x1e7f>
    1fb5: a6 ad        	ldx	$ad                     ; 0x20ad <f256main+0x177f>
    1fb7: 8a           	txa
    1fb8: 18           	clc
    1fb9: 69 0f        	adc	#$f
    1fbb: a0 01        	ldy	#$1
    1fbd: b0 02        	bcs	$1fc1 <f256main+0x1693>
    1fbf: a0 00        	ldy	#$0
    1fc1: 84 12        	sty	$12                     ; 0x2012 <f256main+0x16e4>
    1fc3: 85 16        	sta	$16                     ; 0x2016 <f256main+0x16e8>
    1fc5: 8a           	txa
    1fc6: d0 03        	bne	$1fcb <f256main+0x169d>
    1fc8: 4c 24 20     	jmp	$2024 <f256main+0x16f6>
    1fcb: a9 00        	lda	#$0
    1fcd: a6 12        	ldx	$12                     ; 0x2012 <f256main+0x16e4>
    1fcf: e0 01        	cpx	#$1
    1fd1: 69 00        	adc	#$0
    1fd3: 85 12        	sta	$12                     ; 0x2012 <f256main+0x16e4>
    1fd5: a2 10        	ldx	#$10
    1fd7: 8a           	txa
    1fd8: 3a           	dec
    1fd9: 0a           	asl
    1fda: 64 13        	stz	$13                     ; 0x2013 <f256main+0x16e5>
    1fdc: 26 13        	rol	$13                     ; 0x2013 <f256main+0x16e5>
    1fde: 0a           	asl
    1fdf: 85 14        	sta	$14                     ; 0x2014 <f256main+0x16e6>
    1fe1: 26 13        	rol	$13                     ; 0x2013 <f256main+0x16e5>
    1fe3: 0a           	asl
    1fe4: a8           	tay
    1fe5: a5 13        	lda	$13                     ; 0x2013 <f256main+0x16e5>
    1fe7: 2a           	rol
    1fe8: 84 15        	sty	$15                     ; 0x2015 <f256main+0x16e7>
    1fea: 06 15        	asl	$15                     ; 0x2015 <f256main+0x16e7>
    1fec: 2a           	rol
    1fed: a8           	tay
    1fee: 18           	clc
    1fef: a5 15        	lda	$15                     ; 0x2015 <f256main+0x16e7>
    1ff1: 65 14        	adc	$14                     ; 0x2014 <f256main+0x16e6>
    1ff3: 85 14        	sta	$14                     ; 0x2014 <f256main+0x16e6>
    1ff5: 98           	tya
    1ff6: 65 13        	adc	$13                     ; 0x2013 <f256main+0x16e5>
    1ff8: 85 13        	sta	$13                     ; 0x2013 <f256main+0x16e5>
    1ffa: a9 b0        	lda	#$b0
    1ffc: 18           	clc
    1ffd: 65 14        	adc	$14                     ; 0x2014 <f256main+0x16e6>
    1fff: 85 14        	sta	$14                     ; 0x2014 <f256main+0x16e6>
    2001: a9 83        	lda	#$83
    2003: 65 13        	adc	$13                     ; 0x2013 <f256main+0x16e5>
    2005: 85 15        	sta	$15                     ; 0x2015 <f256main+0x16e7>
    2007: a9 3b        	lda	#$3b
    2009: a0 13        	ldy	#$13
    200b: 91 14        	sta	($14),y                 ; 0x2014 <f256main+0x16e6>
    200d: 8a           	txa
    200e: 1a           	inc
    200f: a0 00        	ldy	#$0
    2011: c4 12        	cpy	$12                     ; 0x2012 <f256main+0x16e4>
    2013: d0 07        	bne	$201c <f256main+0x16ee>
    2015: e4 16        	cpx	$16                     ; 0x2016 <f256main+0x16e8>
    2017: aa           	tax
    2018: 90 bd        	bcc	$1fd7 <f256main+0x16a9>
    201a: 80 08        	bra	$2024 <f256main+0x16f6>
    201c: c4 12        	cpy	$12                     ; 0x2012 <f256main+0x16e4>
    201e: aa           	tax
    201f: b0 03        	bcs	$2024 <f256main+0x16f6>
    2021: 4c d7 1f     	jmp	$1fd7 <f256main+0x16a9>
    2024: a4 16        	ldy	$16                     ; 0x2016 <f256main+0x16e8>
    2026: c0 15        	cpy	#$15
    2028: a2 40        	ldx	#$40
    202a: 86 12        	stx	$12                     ; 0x2012 <f256main+0x16e4>
    202c: a2 85        	ldx	#$85
    202e: 86 13        	stx	$13                     ; 0x2013 <f256main+0x16e5>
    2030: a2 2c        	ldx	#$2c
    2032: 86 14        	stx	$14                     ; 0x2014 <f256main+0x16e6>
    2034: a2 85        	ldx	#$85
    2036: 86 15        	stx	$15                     ; 0x2015 <f256main+0x16e7>
    2038: a2 18        	ldx	#$18
    203a: 86 16        	stx	$16                     ; 0x2016 <f256main+0x16e8>
    203c: a2 85        	ldx	#$85
    203e: 86 17        	stx	$17                     ; 0x2017 <f256main+0x16e9>
    2040: a2 04        	ldx	#$4
    2042: 86 18        	stx	$18                     ; 0x2018 <f256main+0x16ea>
    2044: a2 85        	ldx	#$85
    2046: 86 19        	stx	$19                     ; 0x2019 <f256main+0x16eb>
    2048: a2 f0        	ldx	#$f0
    204a: 86 1a        	stx	$1a                     ; 0x201a <f256main+0x16ec>
    204c: a2 84        	ldx	#$84
    204e: 86 1b        	stx	$1b                     ; 0x201b <f256main+0x16ed>
    2050: a2 dc        	ldx	#$dc
    2052: 86 1c        	stx	$1c                     ; 0x201c <f256main+0x16ee>
    2054: a2 84        	ldx	#$84
    2056: 86 1d        	stx	$1d                     ; 0x201d <f256main+0x16ef>
    2058: 5a           	phy
    2059: fa           	plx
    205a: 90 03        	bcc	$205f <f256main+0x1731>
    205c: 4c ad 23     	jmp	$23ad <f256main+0x1a7f>
    205f: 8a           	txa
    2060: 0a           	asl
    2061: 64 1e        	stz	$1e                     ; 0x201e <f256main+0x16f0>
    2063: 26 1e        	rol	$1e                     ; 0x201e <f256main+0x16f0>
    2065: 0a           	asl
    2066: 85 1f        	sta	$1f                     ; 0x201f <f256main+0x16f1>
    2068: 26 1e        	rol	$1e                     ; 0x201e <f256main+0x16f0>
    206a: 0a           	asl
    206b: a8           	tay
    206c: a5 1e        	lda	$1e                     ; 0x201e <f256main+0x16f0>
    206e: 2a           	rol
    206f: 84 22        	sty	$22                     ; 0x2022 <f256main+0x16f4>
    2071: 06 22        	asl	$22                     ; 0x2022 <f256main+0x16f4>
    2073: 2a           	rol
    2074: a8           	tay
    2075: 18           	clc
    2076: a5 22        	lda	$22                     ; 0x2022 <f256main+0x16f4>
    2078: 65 1f        	adc	$1f                     ; 0x201f <f256main+0x16f1>
    207a: 85 1f        	sta	$1f                     ; 0x201f <f256main+0x16f1>
    207c: 98           	tya
    207d: 65 1e        	adc	$1e                     ; 0x201e <f256main+0x16f0>
    207f: 85 1e        	sta	$1e                     ; 0x201e <f256main+0x16f0>
    2081: a9 b0        	lda	#$b0
    2083: 18           	clc
    2084: 65 1f        	adc	$1f                     ; 0x201f <f256main+0x16f1>
    2086: a8           	tay
    2087: a9 83        	lda	#$83
    2089: 65 1e        	adc	$1e                     ; 0x201e <f256main+0x16f0>
    208b: 84 1e        	sty	$1e                     ; 0x201e <f256main+0x16f0>
    208d: 85 1f        	sta	$1f                     ; 0x201f <f256main+0x16f1>
    208f: a9 3a        	lda	#$3a
    2091: a0 13        	ldy	#$13
    2093: 91 1e        	sta	($1e),y                 ; 0x201e <f256main+0x16f0>
    2095: e8           	inx
    2096: e0 15        	cpx	#$15
    2098: d0 c5        	bne	$205f <f256main+0x1731>
    209a: 4c ad 23     	jmp	$23ad <f256main+0x1a7f>
    209d: a6 ae        	ldx	$ae                     ; 0x20ae <f256main+0x1780>
    209f: 8a           	txa
    20a0: 18           	clc
    20a1: 69 06        	adc	#$6
    20a3: a0 01        	ldy	#$1
    20a5: b0 02        	bcs	$20a9 <f256main+0x177b>
    20a7: a0 00        	ldy	#$0
    20a9: 84 12        	sty	$12                     ; 0x2012 <f256main+0x16e4>
    20ab: 85 16        	sta	$16                     ; 0x2016 <f256main+0x16e8>
    20ad: 8a           	txa
    20ae: d0 03        	bne	$20b3 <f256main+0x1785>
    20b0: 4c 0c 21     	jmp	$210c <f256main+0x17de>
    20b3: a9 00        	lda	#$0
    20b5: a6 12        	ldx	$12                     ; 0x2012 <f256main+0x16e4>
    20b7: e0 01        	cpx	#$1
    20b9: 69 00        	adc	#$0
    20bb: 85 12        	sta	$12                     ; 0x2012 <f256main+0x16e4>
    20bd: a2 07        	ldx	#$7
    20bf: 8a           	txa
    20c0: 3a           	dec
    20c1: 0a           	asl
    20c2: 64 13        	stz	$13                     ; 0x2013 <f256main+0x16e5>
    20c4: 26 13        	rol	$13                     ; 0x2013 <f256main+0x16e5>
    20c6: 0a           	asl
    20c7: 85 14        	sta	$14                     ; 0x2014 <f256main+0x16e6>
    20c9: 26 13        	rol	$13                     ; 0x2013 <f256main+0x16e5>
    20cb: 0a           	asl
    20cc: a8           	tay
    20cd: a5 13        	lda	$13                     ; 0x2013 <f256main+0x16e5>
    20cf: 2a           	rol
    20d0: 84 15        	sty	$15                     ; 0x2015 <f256main+0x16e7>
    20d2: 06 15        	asl	$15                     ; 0x2015 <f256main+0x16e7>
    20d4: 2a           	rol
    20d5: a8           	tay
    20d6: 18           	clc
    20d7: a5 15        	lda	$15                     ; 0x2015 <f256main+0x16e7>
    20d9: 65 14        	adc	$14                     ; 0x2014 <f256main+0x16e6>
    20db: 85 14        	sta	$14                     ; 0x2014 <f256main+0x16e6>
    20dd: 98           	tya
    20de: 65 13        	adc	$13                     ; 0x2013 <f256main+0x16e5>
    20e0: 85 13        	sta	$13                     ; 0x2013 <f256main+0x16e5>
    20e2: a9 b0        	lda	#$b0
    20e4: 18           	clc
    20e5: 65 14        	adc	$14                     ; 0x2014 <f256main+0x16e6>
    20e7: 85 14        	sta	$14                     ; 0x2014 <f256main+0x16e6>
    20e9: a9 83        	lda	#$83
    20eb: 65 13        	adc	$13                     ; 0x2013 <f256main+0x16e5>
    20ed: 85 15        	sta	$15                     ; 0x2015 <f256main+0x16e7>
    20ef: a9 3b        	lda	#$3b
    20f1: a0 13        	ldy	#$13
    20f3: 91 14        	sta	($14),y                 ; 0x2014 <f256main+0x16e6>
    20f5: 8a           	txa
    20f6: 1a           	inc
    20f7: a0 00        	ldy	#$0
    20f9: c4 12        	cpy	$12                     ; 0x2012 <f256main+0x16e4>
    20fb: d0 07        	bne	$2104 <f256main+0x17d6>
    20fd: e4 16        	cpx	$16                     ; 0x2016 <f256main+0x16e8>
    20ff: aa           	tax
    2100: 90 bd        	bcc	$20bf <f256main+0x1791>
    2102: 80 08        	bra	$210c <f256main+0x17de>
    2104: c4 12        	cpy	$12                     ; 0x2012 <f256main+0x16e4>
    2106: aa           	tax
    2107: b0 03        	bcs	$210c <f256main+0x17de>
    2109: 4c bf 20     	jmp	$20bf <f256main+0x1791>
    210c: a6 16        	ldx	$16                     ; 0x2016 <f256main+0x16e8>
    210e: e0 0f        	cpx	#$f
    2110: a0 13        	ldy	#$13
    2112: b0 3c        	bcs	$2150 <f256main+0x1822>
    2114: 8a           	txa
    2115: 0a           	asl
    2116: 64 12        	stz	$12                     ; 0x2012 <f256main+0x16e4>
    2118: 26 12        	rol	$12                     ; 0x2012 <f256main+0x16e4>
    211a: 0a           	asl
    211b: 85 13        	sta	$13                     ; 0x2013 <f256main+0x16e5>
    211d: 26 12        	rol	$12                     ; 0x2012 <f256main+0x16e4>
    211f: 0a           	asl
    2120: 5a           	phy
    2121: a4 12        	ldy	$12                     ; 0x2012 <f256main+0x16e4>
    2123: 84 14        	sty	$14                     ; 0x2014 <f256main+0x16e6>
    2125: 26 14        	rol	$14                     ; 0x2014 <f256main+0x16e6>
    2127: 0a           	asl
    2128: 26 14        	rol	$14                     ; 0x2014 <f256main+0x16e6>
    212a: 18           	clc
    212b: 65 13        	adc	$13                     ; 0x2013 <f256main+0x16e5>
    212d: 85 13        	sta	$13                     ; 0x2013 <f256main+0x16e5>
    212f: a5 14        	lda	$14                     ; 0x2014 <f256main+0x16e6>
    2131: 65 12        	adc	$12                     ; 0x2012 <f256main+0x16e4>
    2133: 85 12        	sta	$12                     ; 0x2012 <f256main+0x16e4>
    2135: a9 b0        	lda	#$b0
    2137: 18           	clc
    2138: 65 13        	adc	$13                     ; 0x2013 <f256main+0x16e5>
    213a: 85 13        	sta	$13                     ; 0x2013 <f256main+0x16e5>
    213c: a9 83        	lda	#$83
    213e: 65 12        	adc	$12                     ; 0x2012 <f256main+0x16e4>
    2140: a4 13        	ldy	$13                     ; 0x2013 <f256main+0x16e5>
    2142: 84 12        	sty	$12                     ; 0x2012 <f256main+0x16e4>
    2144: 7a           	ply
    2145: 85 13        	sta	$13                     ; 0x2013 <f256main+0x16e5>
    2147: a9 3a        	lda	#$3a
    2149: 91 12        	sta	($12),y                 ; 0x2012 <f256main+0x16e4>
    214b: e8           	inx
    214c: e0 0f        	cpx	#$f
    214e: d0 c4        	bne	$2114 <f256main+0x17e6>
    2150: ad 29 84     	lda	$8429                   ; 0x8429 <lights+0x79>
    2153: ae 2a 84     	ldx	$842a                   ; 0x842a <lights+0x7a>
    2156: 0a           	asl
    2157: 85 12        	sta	$12                     ; 0x2012 <f256main+0x16e4>
    2159: 86 13        	stx	$13                     ; 0x2013 <f256main+0x16e5>
    215b: 26 13        	rol	$13                     ; 0x2013 <f256main+0x16e5>
    215d: ad 2b 84     	lda	$842b                   ; 0x842b <lights+0x7b>
    2160: ae 2c 84     	ldx	$842c                   ; 0x842c <lights+0x7c>
    2163: 86 14        	stx	$14                     ; 0x2014 <f256main+0x16e6>
    2165: 0a           	asl
    2166: 26 14        	rol	$14                     ; 0x2014 <f256main+0x16e6>
    2168: 0a           	asl
    2169: 26 14        	rol	$14                     ; 0x2014 <f256main+0x16e6>
    216b: a6 14        	ldx	$14                     ; 0x2014 <f256main+0x16e6>
    216d: 86 15        	stx	$15                     ; 0x2015 <f256main+0x16e7>
    216f: 0a           	asl
    2170: 85 14        	sta	$14                     ; 0x2014 <f256main+0x16e6>
    2172: 26 15        	rol	$15                     ; 0x2015 <f256main+0x16e7>
    2174: 0a           	asl
    2175: a6 15        	ldx	$15                     ; 0x2015 <f256main+0x16e7>
    2177: 86 16        	stx	$16                     ; 0x2016 <f256main+0x16e8>
    2179: 26 16        	rol	$16                     ; 0x2016 <f256main+0x16e8>
    217b: 0a           	asl
    217c: 26 16        	rol	$16                     ; 0x2016 <f256main+0x16e8>
    217e: 18           	clc
    217f: 65 14        	adc	$14                     ; 0x2014 <f256main+0x16e6>
    2181: a8           	tay
    2182: a5 16        	lda	$16                     ; 0x2016 <f256main+0x16e8>
    2184: 65 15        	adc	$15                     ; 0x2015 <f256main+0x16e7>
    2186: aa           	tax
    2187: 18           	clc
    2188: 98           	tya
    2189: 65 12        	adc	$12                     ; 0x2012 <f256main+0x16e4>
    218b: 85 14        	sta	$14                     ; 0x2014 <f256main+0x16e6>
    218d: 8a           	txa
    218e: 65 13        	adc	$13                     ; 0x2013 <f256main+0x16e5>
    2190: a2 ff        	ldx	#$ff
    2192: 48           	pha
    2193: 8a           	txa
    2194: a0 03        	ldy	#$3
    2196: 91 10        	sta	($10),y                 ; 0x2010 <f256main+0x16e2>
    2198: 68           	pla
    2199: a0 ff        	ldy	#$ff
    219b: aa           	tax
    219c: 30 02        	bmi	$21a0 <f256main+0x1872>
    219e: a0 00        	ldy	#$0
    21a0: 18           	clc
    21a1: a5 14        	lda	$14                     ; 0x2014 <f256main+0x16e6>
    21a3: 69 00        	adc	#$0
    21a5: 85 13        	sta	$13                     ; 0x2013 <f256main+0x16e5>
    21a7: 8a           	txa
    21a8: 69 54        	adc	#$54
    21aa: 85 14        	sta	$14                     ; 0x2014 <f256main+0x16e6>
    21ac: 98           	tya
    21ad: 69 01        	adc	#$1
    21af: ae 3b 84     	ldx	$843b                   ; 0x843b <lights+0x8b>
    21b2: 86 15        	stx	$15                     ; 0x2015 <f256main+0x16e7>
    21b4: a6 14        	ldx	$14                     ; 0x2014 <f256main+0x16e6>
    21b6: 86 12        	stx	$12                     ; 0x2012 <f256main+0x16e4>
    21b8: 06 12        	asl	$12                     ; 0x2012 <f256main+0x16e4>
    21ba: 2a           	rol
    21bb: 06 12        	asl	$12                     ; 0x2012 <f256main+0x16e4>
    21bd: 2a           	rol
    21be: 06 12        	asl	$12                     ; 0x2012 <f256main+0x16e4>
    21c0: 2a           	rol
    21c1: a6 0f        	ldx	$f                      ; 0x200f <f256main+0x16e1>
    21c3: 78           	sei
    21c4: 85 0f        	sta	$f                      ; 0x200f <f256main+0x16e1>
    21c6: a5 14        	lda	$14                     ; 0x2014 <f256main+0x16e6>
    21c8: 09 e0        	ora	#$e0
    21ca: a4 13        	ldy	$13                     ; 0x2013 <f256main+0x16e5>
    21cc: 84 12        	sty	$12                     ; 0x2012 <f256main+0x16e4>
    21ce: 85 13        	sta	$13                     ; 0x2013 <f256main+0x16e5>
    21d0: a5 15        	lda	$15                     ; 0x2015 <f256main+0x16e7>
    21d2: 92 12        	sta	($12)                   ; 0x2012 <f256main+0x16e4>
    21d4: a0 01        	ldy	#$1
    21d6: a9 00        	lda	#$0
    21d8: 91 12        	sta	($12),y                 ; 0x2012 <f256main+0x16e4>
    21da: 86 0f        	stx	$f                      ; 0x200f <f256main+0x16e1>
    21dc: 58           	cli
    21dd: ad 3d 84     	lda	$843d                   ; 0x843d <lights+0x8d>
    21e0: ae 3e 84     	ldx	$843e                   ; 0x843e <lights+0x8e>
    21e3: 0a           	asl
    21e4: 85 12        	sta	$12                     ; 0x2012 <f256main+0x16e4>
    21e6: 86 13        	stx	$13                     ; 0x2013 <f256main+0x16e5>
    21e8: 26 13        	rol	$13                     ; 0x2013 <f256main+0x16e5>
    21ea: ad 3f 84     	lda	$843f                   ; 0x843f <lights+0x8f>
    21ed: ae 40 84     	ldx	$8440                   ; 0x8440 <lights+0x90>
    21f0: 86 14        	stx	$14                     ; 0x2014 <f256main+0x16e6>
    21f2: 0a           	asl
    21f3: 26 14        	rol	$14                     ; 0x2014 <f256main+0x16e6>
    21f5: 0a           	asl
    21f6: 26 14        	rol	$14                     ; 0x2014 <f256main+0x16e6>
    21f8: a6 14        	ldx	$14                     ; 0x2014 <f256main+0x16e6>
    21fa: 86 15        	stx	$15                     ; 0x2015 <f256main+0x16e7>
    21fc: 0a           	asl
    21fd: 85 14        	sta	$14                     ; 0x2014 <f256main+0x16e6>
    21ff: 26 15        	rol	$15                     ; 0x2015 <f256main+0x16e7>
    2201: 0a           	asl
    2202: aa           	tax
    2203: a5 15        	lda	$15                     ; 0x2015 <f256main+0x16e7>
    2205: 2a           	rol
    2206: 86 16        	stx	$16                     ; 0x2016 <f256main+0x16e8>
    2208: 06 16        	asl	$16                     ; 0x2016 <f256main+0x16e8>
    220a: 2a           	rol
    220b: aa           	tax
    220c: a5 16        	lda	$16                     ; 0x2016 <f256main+0x16e8>
    220e: 18           	clc
    220f: 65 14        	adc	$14                     ; 0x2014 <f256main+0x16e6>
    2211: 85 14        	sta	$14                     ; 0x2014 <f256main+0x16e6>
    2213: 8a           	txa
    2214: 65 15        	adc	$15                     ; 0x2015 <f256main+0x16e7>
    2216: aa           	tax
    2217: a5 14        	lda	$14                     ; 0x2014 <f256main+0x16e6>
    2219: 18           	clc
    221a: 65 12        	adc	$12                     ; 0x2012 <f256main+0x16e4>
    221c: 85 12        	sta	$12                     ; 0x2012 <f256main+0x16e4>
    221e: 8a           	txa
    221f: 65 13        	adc	$13                     ; 0x2013 <f256main+0x16e5>
    2221: a2 ff        	ldx	#$ff
    2223: a8           	tay
    2224: 30 02        	bmi	$2228 <f256main+0x18fa>
    2226: a2 00        	ldx	#$0
    2228: 18           	clc
    2229: a5 12        	lda	$12                     ; 0x2012 <f256main+0x16e4>
    222b: 69 00        	adc	#$0
    222d: 85 13        	sta	$13                     ; 0x2013 <f256main+0x16e5>
    222f: 98           	tya
    2230: 69 54        	adc	#$54
    2232: a8           	tay
    2233: 8a           	txa
    2234: 69 01        	adc	#$1
    2236: ae 4f 84     	ldx	$844f                   ; 0x844f <lights+0x9f>
    2239: 86 14        	stx	$14                     ; 0x2014 <f256main+0x16e6>
    223b: 84 12        	sty	$12                     ; 0x2012 <f256main+0x16e4>
    223d: 06 12        	asl	$12                     ; 0x2012 <f256main+0x16e4>
    223f: 2a           	rol
    2240: 06 12        	asl	$12                     ; 0x2012 <f256main+0x16e4>
    2242: 2a           	rol
    2243: 06 12        	asl	$12                     ; 0x2012 <f256main+0x16e4>
    2245: 2a           	rol
    2246: a6 0f        	ldx	$f                      ; 0x200f <f256main+0x16e1>
    2248: 78           	sei
    2249: 85 0f        	sta	$f                      ; 0x200f <f256main+0x16e1>
    224b: 98           	tya
    224c: 09 e0        	ora	#$e0
    224e: a4 13        	ldy	$13                     ; 0x2013 <f256main+0x16e5>
    2250: 84 12        	sty	$12                     ; 0x2012 <f256main+0x16e4>
    2252: 85 13        	sta	$13                     ; 0x2013 <f256main+0x16e5>
    2254: a5 14        	lda	$14                     ; 0x2014 <f256main+0x16e6>
    2256: 92 12        	sta	($12)                   ; 0x2012 <f256main+0x16e4>
    2258: a0 01        	ldy	#$1
    225a: a9 00        	lda	#$0
    225c: 91 12        	sta	($12),y                 ; 0x2012 <f256main+0x16e4>
    225e: 86 0f        	stx	$f                      ; 0x200f <f256main+0x16e1>
    2260: 58           	cli
    2261: ad 51 84     	lda	$8451                   ; 0x8451 <lights+0xa1>
    2264: ae 52 84     	ldx	$8452                   ; 0x8452 <lights+0xa2>
    2267: 0a           	asl
    2268: 85 12        	sta	$12                     ; 0x2012 <f256main+0x16e4>
    226a: 86 13        	stx	$13                     ; 0x2013 <f256main+0x16e5>
    226c: 26 13        	rol	$13                     ; 0x2013 <f256main+0x16e5>
    226e: ad 53 84     	lda	$8453                   ; 0x8453 <lights+0xa3>
    2271: ae 54 84     	ldx	$8454                   ; 0x8454 <lights+0xa4>
    2274: 86 14        	stx	$14                     ; 0x2014 <f256main+0x16e6>
    2276: 0a           	asl
    2277: 26 14        	rol	$14                     ; 0x2014 <f256main+0x16e6>
    2279: 0a           	asl
    227a: 26 14        	rol	$14                     ; 0x2014 <f256main+0x16e6>
    227c: a6 14        	ldx	$14                     ; 0x2014 <f256main+0x16e6>
    227e: 86 15        	stx	$15                     ; 0x2015 <f256main+0x16e7>
    2280: 0a           	asl
    2281: 85 14        	sta	$14                     ; 0x2014 <f256main+0x16e6>
    2283: 26 15        	rol	$15                     ; 0x2015 <f256main+0x16e7>
    2285: 0a           	asl
    2286: aa           	tax
    2287: a5 15        	lda	$15                     ; 0x2015 <f256main+0x16e7>
    2289: 2a           	rol
    228a: 86 16        	stx	$16                     ; 0x2016 <f256main+0x16e8>
    228c: 06 16        	asl	$16                     ; 0x2016 <f256main+0x16e8>
    228e: 2a           	rol
    228f: aa           	tax
    2290: a5 16        	lda	$16                     ; 0x2016 <f256main+0x16e8>
    2292: 18           	clc
    2293: 65 14        	adc	$14                     ; 0x2014 <f256main+0x16e6>
    2295: 85 14        	sta	$14                     ; 0x2014 <f256main+0x16e6>
    2297: 8a           	txa
    2298: 65 15        	adc	$15                     ; 0x2015 <f256main+0x16e7>
    229a: aa           	tax
    229b: a5 14        	lda	$14                     ; 0x2014 <f256main+0x16e6>
    229d: 18           	clc
    229e: 65 12        	adc	$12                     ; 0x2012 <f256main+0x16e4>
    22a0: a8           	tay
    22a1: 8a           	txa
    22a2: 65 13        	adc	$13                     ; 0x2013 <f256main+0x16e5>
    22a4: aa           	tax
    22a5: 30 0a        	bmi	$22b1 <f256main+0x1983>
    22a7: 64 12        	stz	$12                     ; 0x2012 <f256main+0x16e4>
    22a9: a9 00        	lda	#$0
    22ab: 5a           	phy
    22ac: a0 03        	ldy	#$3
    22ae: 91 10        	sta	($10),y                 ; 0x2010 <f256main+0x16e2>
    22b0: 7a           	ply
    22b1: 18           	clc
    22b2: 98           	tya
    22b3: 69 00        	adc	#$0
    22b5: a8           	tay
    22b6: 8a           	txa
    22b7: 69 54        	adc	#$54
    22b9: 85 14        	sta	$14                     ; 0x2014 <f256main+0x16e6>
    22bb: 5a           	phy
    22bc: a0 03        	ldy	#$3
    22be: b1 10        	lda	($10),y                 ; 0x2010 <f256main+0x16e2>
    22c0: 7a           	ply
    22c1: 69 01        	adc	#$1
    22c3: ae 63 84     	ldx	$8463                   ; 0x8463 <lights+0xb3>
    22c6: 86 15        	stx	$15                     ; 0x2015 <f256main+0x16e7>
    22c8: a6 14        	ldx	$14                     ; 0x2014 <f256main+0x16e6>
    22ca: 86 12        	stx	$12                     ; 0x2012 <f256main+0x16e4>
    22cc: 06 12        	asl	$12                     ; 0x2012 <f256main+0x16e4>
    22ce: 2a           	rol
    22cf: 06 12        	asl	$12                     ; 0x2012 <f256main+0x16e4>
    22d1: 2a           	rol
    22d2: 06 12        	asl	$12                     ; 0x2012 <f256main+0x16e4>
    22d4: 2a           	rol
    22d5: a6 0f        	ldx	$f                      ; 0x200f <f256main+0x16e1>
    22d7: 78           	sei
    22d8: 85 0f        	sta	$f                      ; 0x200f <f256main+0x16e1>
    22da: 84 12        	sty	$12                     ; 0x2012 <f256main+0x16e4>
    22dc: a5 14        	lda	$14                     ; 0x2014 <f256main+0x16e6>
    22de: 09 e0        	ora	#$e0
    22e0: 85 13        	sta	$13                     ; 0x2013 <f256main+0x16e5>
    22e2: a5 15        	lda	$15                     ; 0x2015 <f256main+0x16e7>
    22e4: 92 12        	sta	($12)                   ; 0x2012 <f256main+0x16e4>
    22e6: a0 01        	ldy	#$1
    22e8: a9 00        	lda	#$0
    22ea: 91 12        	sta	($12),y                 ; 0x2012 <f256main+0x16e4>
    22ec: 86 0f        	stx	$f                      ; 0x200f <f256main+0x16e1>
    22ee: 58           	cli
    22ef: a2 c8        	ldx	#$c8
    22f1: 86 12        	stx	$12                     ; 0x2012 <f256main+0x16e4>
    22f3: a2 84        	ldx	#$84
    22f5: 86 13        	stx	$13                     ; 0x2013 <f256main+0x16e5>
    22f7: a2 b4        	ldx	#$b4
    22f9: 86 14        	stx	$14                     ; 0x2014 <f256main+0x16e6>
    22fb: a2 84        	ldx	#$84
    22fd: 86 15        	stx	$15                     ; 0x2015 <f256main+0x16e7>
    22ff: a2 a0        	ldx	#$a0
    2301: 86 16        	stx	$16                     ; 0x2016 <f256main+0x16e8>
    2303: a2 84        	ldx	#$84
    2305: 86 17        	stx	$17                     ; 0x2017 <f256main+0x16e9>
    2307: a2 8c        	ldx	#$8c
    2309: 86 18        	stx	$18                     ; 0x2018 <f256main+0x16ea>
    230b: a2 84        	ldx	#$84
    230d: 86 19        	stx	$19                     ; 0x2019 <f256main+0x16eb>
    230f: a2 78        	ldx	#$78
    2311: 86 1a        	stx	$1a                     ; 0x201a <f256main+0x16ec>
    2313: a2 84        	ldx	#$84
    2315: 86 1b        	stx	$1b                     ; 0x201b <f256main+0x16ed>
    2317: a2 64        	ldx	#$64
    2319: 86 1c        	stx	$1c                     ; 0x201c <f256main+0x16ee>
    231b: a2 84        	ldx	#$84
    231d: 4c ab 23     	jmp	$23ab <f256main+0x1a7d>
    2320: a5 ac        	lda	$ac                     ; 0x20ac <f256main+0x177e>
    2322: f0 26        	beq	$234a <f256main+0x1a1c>
    2324: a2 c3        	ldx	#$c3
    2326: 86 12        	stx	$12                     ; 0x2012 <f256main+0x16e4>
    2328: a2 83        	ldx	#$83
    232a: 86 13        	stx	$13                     ; 0x2013 <f256main+0x16e5>
    232c: 85 14        	sta	$14                     ; 0x2014 <f256main+0x16e6>
    232e: aa           	tax
    232f: a9 3b        	lda	#$3b
    2331: 92 12        	sta	($12)                   ; 0x2012 <f256main+0x16e4>
    2333: ca           	dex
    2334: a5 12        	lda	$12                     ; 0x2012 <f256main+0x16e4>
    2336: 18           	clc
    2337: 69 14        	adc	#$14
    2339: 85 12        	sta	$12                     ; 0x2012 <f256main+0x16e4>
    233b: a5 13        	lda	$13                     ; 0x2013 <f256main+0x16e5>
    233d: 69 00        	adc	#$0
    233f: 85 13        	sta	$13                     ; 0x2013 <f256main+0x16e5>
    2341: 8a           	txa
    2342: d0 eb        	bne	$232f <f256main+0x1a01>
    2344: a5 14        	lda	$14                     ; 0x2014 <f256main+0x16e6>
    2346: c9 06        	cmp	#$6
    2348: b0 33        	bcs	$237d <f256main+0x1a4f>
    234a: aa           	tax
    234b: 0a           	asl
    234c: 0a           	asl
    234d: 85 12        	sta	$12                     ; 0x2012 <f256main+0x16e4>
    234f: 0a           	asl
    2350: 0a           	asl
    2351: 18           	clc
    2352: 65 12        	adc	$12                     ; 0x2012 <f256main+0x16e4>
    2354: 85 12        	sta	$12                     ; 0x2012 <f256main+0x16e4>
    2356: a9 c3        	lda	#$c3
    2358: 18           	clc
    2359: 65 12        	adc	$12                     ; 0x2012 <f256main+0x16e4>
    235b: 85 12        	sta	$12                     ; 0x2012 <f256main+0x16e4>
    235d: a9 83        	lda	#$83
    235f: 69 00        	adc	#$0
    2361: 85 13        	sta	$13                     ; 0x2013 <f256main+0x16e5>
    2363: 8a           	txa
    2364: 18           	clc
    2365: 69 fa        	adc	#$fa
    2367: aa           	tax
    2368: a9 3a        	lda	#$3a
    236a: 92 12        	sta	($12)                   ; 0x2012 <f256main+0x16e4>
    236c: a5 12        	lda	$12                     ; 0x2012 <f256main+0x16e4>
    236e: 18           	clc
    236f: 69 14        	adc	#$14
    2371: 85 12        	sta	$12                     ; 0x2012 <f256main+0x16e4>
    2373: a5 13        	lda	$13                     ; 0x2013 <f256main+0x16e5>
    2375: 69 00        	adc	#$0
    2377: 85 13        	sta	$13                     ; 0x2013 <f256main+0x16e5>
    2379: 8a           	txa
    237a: 1a           	inc
    237b: d0 ea        	bne	$2367 <f256main+0x1a39>
    237d: a2 14        	ldx	#$14
    237f: 86 12        	stx	$12                     ; 0x2012 <f256main+0x16e4>
    2381: a2 84        	ldx	#$84
    2383: 86 13        	stx	$13                     ; 0x2013 <f256main+0x16e5>
    2385: a2 00        	ldx	#$0
    2387: 86 14        	stx	$14                     ; 0x2014 <f256main+0x16e6>
    2389: a2 84        	ldx	#$84
    238b: 86 15        	stx	$15                     ; 0x2015 <f256main+0x16e7>
    238d: a2 ec        	ldx	#$ec
    238f: 86 16        	stx	$16                     ; 0x2016 <f256main+0x16e8>
    2391: a2 83        	ldx	#$83
    2393: 86 17        	stx	$17                     ; 0x2017 <f256main+0x16e9>
    2395: a2 d8        	ldx	#$d8
    2397: 86 18        	stx	$18                     ; 0x2018 <f256main+0x16ea>
    2399: a2 83        	ldx	#$83
    239b: 86 19        	stx	$19                     ; 0x2019 <f256main+0x16eb>
    239d: a2 c4        	ldx	#$c4
    239f: 86 1a        	stx	$1a                     ; 0x201a <f256main+0x16ec>
    23a1: a2 83        	ldx	#$83
    23a3: 86 1b        	stx	$1b                     ; 0x201b <f256main+0x16ed>
    23a5: a2 b0        	ldx	#$b0
    23a7: 86 1c        	stx	$1c                     ; 0x201c <f256main+0x16ee>
    23a9: a2 83        	ldx	#$83
    23ab: 86 1d        	stx	$1d                     ; 0x201d <f256main+0x16ef>
    23ad: a6 1c        	ldx	$1c                     ; 0x201c <f256main+0x16ee>
    23af: 86 1e        	stx	$1e                     ; 0x201e <f256main+0x16f0>
    23b1: a6 1d        	ldx	$1d                     ; 0x201d <f256main+0x16ef>
    23b3: 86 1f        	stx	$1f                     ; 0x201f <f256main+0x16f1>
    23b5: e6 1e        	inc	$1e                     ; 0x201e <f256main+0x16f0>
    23b7: d0 02        	bne	$23bb <f256main+0x1a8d>
    23b9: e6 1f        	inc	$1f                     ; 0x201f <f256main+0x16f1>
    23bb: a0 01        	ldy	#$1
    23bd: b1 1c        	lda	($1c),y                 ; 0x201c <f256main+0x16ee>
    23bf: aa           	tax
    23c0: b1 1e        	lda	($1e),y                 ; 0x201e <f256main+0x16f0>
    23c2: 86 1e        	stx	$1e                     ; 0x201e <f256main+0x16f0>
    23c4: 06 1e        	asl	$1e                     ; 0x201e <f256main+0x16f0>
    23c6: 2a           	rol
    23c7: 85 1f        	sta	$1f                     ; 0x201f <f256main+0x16f1>
    23c9: a5 1c        	lda	$1c                     ; 0x201c <f256main+0x16ee>
    23cb: 18           	clc
    23cc: 69 03        	adc	#$3
    23ce: 85 22        	sta	$22                     ; 0x2022 <f256main+0x16f4>
    23d0: a5 1d        	lda	$1d                     ; 0x201d <f256main+0x16ef>
    23d2: 69 00        	adc	#$0
    23d4: 85 23        	sta	$23                     ; 0x2023 <f256main+0x16f5>
    23d6: a0 03        	ldy	#$3
    23d8: b1 1c        	lda	($1c),y                 ; 0x201c <f256main+0x16ee>
    23da: aa           	tax
    23db: a0 01        	ldy	#$1
    23dd: b1 22        	lda	($22),y                 ; 0x2022 <f256main+0x16f4>
    23df: 85 22        	sta	$22                     ; 0x2022 <f256main+0x16f4>
    23e1: 8a           	txa
    23e2: 0a           	asl
    23e3: 26 22        	rol	$22                     ; 0x2022 <f256main+0x16f4>
    23e5: 0a           	asl
    23e6: 26 22        	rol	$22                     ; 0x2022 <f256main+0x16f4>
    23e8: a6 22        	ldx	$22                     ; 0x2022 <f256main+0x16f4>
    23ea: 86 23        	stx	$23                     ; 0x2023 <f256main+0x16f5>
    23ec: 0a           	asl
    23ed: 85 22        	sta	$22                     ; 0x2022 <f256main+0x16f4>
    23ef: 26 23        	rol	$23                     ; 0x2023 <f256main+0x16f5>
    23f1: 0a           	asl
    23f2: a6 23        	ldx	$23                     ; 0x2023 <f256main+0x16f5>
    23f4: 86 25        	stx	$25                     ; 0x2025 <f256main+0x16f7>
    23f6: 26 25        	rol	$25                     ; 0x2025 <f256main+0x16f7>
    23f8: 0a           	asl
    23f9: 26 25        	rol	$25                     ; 0x2025 <f256main+0x16f7>
    23fb: 18           	clc
    23fc: 65 22        	adc	$22                     ; 0x2022 <f256main+0x16f4>
    23fe: a8           	tay
    23ff: a5 25        	lda	$25                     ; 0x2025 <f256main+0x16f7>
    2401: 65 23        	adc	$23                     ; 0x2023 <f256main+0x16f5>
    2403: aa           	tax
    2404: 18           	clc
    2405: 98           	tya
    2406: 65 1e        	adc	$1e                     ; 0x201e <f256main+0x16f0>
    2408: 85 22        	sta	$22                     ; 0x2022 <f256main+0x16f4>
    240a: 8a           	txa
    240b: 65 1f        	adc	$1f                     ; 0x201f <f256main+0x16f1>
    240d: a2 ff        	ldx	#$ff
    240f: 48           	pha
    2410: 8a           	txa
    2411: a0 03        	ldy	#$3
    2413: 91 10        	sta	($10),y                 ; 0x2010 <f256main+0x16e2>
    2415: 68           	pla
    2416: a0 ff        	ldy	#$ff
    2418: aa           	tax
    2419: 30 02        	bmi	$241d <f256main+0x1aef>
    241b: a0 00        	ldy	#$0
    241d: 18           	clc
    241e: a5 22        	lda	$22                     ; 0x2022 <f256main+0x16f4>
    2420: 69 00        	adc	#$0
    2422: 85 1e        	sta	$1e                     ; 0x201e <f256main+0x16f0>
    2424: 8a           	txa
    2425: 69 54        	adc	#$54
    2427: 85 1f        	sta	$1f                     ; 0x201f <f256main+0x16f1>
    2429: 98           	tya
    242a: 69 01        	adc	#$1
    242c: aa           	tax
    242d: a0 13        	ldy	#$13
    242f: b1 1c        	lda	($1c),y                 ; 0x201c <f256main+0x16ee>
    2431: 85 22        	sta	$22                     ; 0x2022 <f256main+0x16f4>
    2433: a4 1f        	ldy	$1f                     ; 0x201f <f256main+0x16f1>
    2435: 84 1c        	sty	$1c                     ; 0x201c <f256main+0x16ee>
    2437: 06 1c        	asl	$1c                     ; 0x201c <f256main+0x16ee>
    2439: 8a           	txa
    243a: 2a           	rol
    243b: 06 1c        	asl	$1c                     ; 0x201c <f256main+0x16ee>
    243d: 2a           	rol
    243e: 06 1c        	asl	$1c                     ; 0x201c <f256main+0x16ee>
    2440: 2a           	rol
    2441: a6 0f        	ldx	$f                      ; 0x200f <f256main+0x16e1>
    2443: 78           	sei
    2444: 85 0f        	sta	$f                      ; 0x200f <f256main+0x16e1>
    2446: a5 1f        	lda	$1f                     ; 0x201f <f256main+0x16f1>
    2448: 09 e0        	ora	#$e0
    244a: a4 1e        	ldy	$1e                     ; 0x201e <f256main+0x16f0>
    244c: 84 1c        	sty	$1c                     ; 0x201c <f256main+0x16ee>
    244e: 85 1d        	sta	$1d                     ; 0x201d <f256main+0x16ef>
    2450: a5 22        	lda	$22                     ; 0x2022 <f256main+0x16f4>
    2452: 92 1c        	sta	($1c)                   ; 0x201c <f256main+0x16ee>
    2454: a0 01        	ldy	#$1
    2456: a9 00        	lda	#$0
    2458: 91 1c        	sta	($1c),y                 ; 0x201c <f256main+0x16ee>
    245a: 86 0f        	stx	$f                      ; 0x200f <f256main+0x16e1>
    245c: 58           	cli
    245d: a6 1a        	ldx	$1a                     ; 0x201a <f256main+0x16ec>
    245f: 86 1c        	stx	$1c                     ; 0x201c <f256main+0x16ee>
    2461: a6 1b        	ldx	$1b                     ; 0x201b <f256main+0x16ed>
    2463: 86 1d        	stx	$1d                     ; 0x201d <f256main+0x16ef>
    2465: e6 1c        	inc	$1c                     ; 0x201c <f256main+0x16ee>
    2467: d0 02        	bne	$246b <f256main+0x1b3d>
    2469: e6 1d        	inc	$1d                     ; 0x201d <f256main+0x16ef>
    246b: b1 1a        	lda	($1a),y                 ; 0x201a <f256main+0x16ec>
    246d: aa           	tax
    246e: b1 1c        	lda	($1c),y                 ; 0x201c <f256main+0x16ee>
    2470: 86 1c        	stx	$1c                     ; 0x201c <f256main+0x16ee>
    2472: 06 1c        	asl	$1c                     ; 0x201c <f256main+0x16ee>
    2474: 2a           	rol
    2475: 85 1d        	sta	$1d                     ; 0x201d <f256main+0x16ef>
    2477: a5 1a        	lda	$1a                     ; 0x201a <f256main+0x16ec>
    2479: 18           	clc
    247a: 69 03        	adc	#$3
    247c: 85 1e        	sta	$1e                     ; 0x201e <f256main+0x16f0>
    247e: a5 1b        	lda	$1b                     ; 0x201b <f256main+0x16ed>
    2480: 69 00        	adc	#$0
    2482: 85 1f        	sta	$1f                     ; 0x201f <f256main+0x16f1>
    2484: a0 03        	ldy	#$3
    2486: b1 1a        	lda	($1a),y                 ; 0x201a <f256main+0x16ec>
    2488: aa           	tax
    2489: a0 01        	ldy	#$1
    248b: b1 1e        	lda	($1e),y                 ; 0x201e <f256main+0x16f0>
    248d: 85 1e        	sta	$1e                     ; 0x201e <f256main+0x16f0>
    248f: 8a           	txa
    2490: 0a           	asl
    2491: 26 1e        	rol	$1e                     ; 0x201e <f256main+0x16f0>
    2493: 0a           	asl
    2494: 26 1e        	rol	$1e                     ; 0x201e <f256main+0x16f0>
    2496: a6 1e        	ldx	$1e                     ; 0x201e <f256main+0x16f0>
    2498: 86 1f        	stx	$1f                     ; 0x201f <f256main+0x16f1>
    249a: 0a           	asl
    249b: 85 1e        	sta	$1e                     ; 0x201e <f256main+0x16f0>
    249d: 26 1f        	rol	$1f                     ; 0x201f <f256main+0x16f1>
    249f: 0a           	asl
    24a0: a6 1f        	ldx	$1f                     ; 0x201f <f256main+0x16f1>
    24a2: 86 22        	stx	$22                     ; 0x2022 <f256main+0x16f4>
    24a4: 26 22        	rol	$22                     ; 0x2022 <f256main+0x16f4>
    24a6: 0a           	asl
    24a7: 26 22        	rol	$22                     ; 0x2022 <f256main+0x16f4>
    24a9: 18           	clc
    24aa: 65 1e        	adc	$1e                     ; 0x201e <f256main+0x16f0>
    24ac: a8           	tay
    24ad: a5 22        	lda	$22                     ; 0x2022 <f256main+0x16f4>
    24af: 65 1f        	adc	$1f                     ; 0x201f <f256main+0x16f1>
    24b1: aa           	tax
    24b2: 18           	clc
    24b3: 98           	tya
    24b4: 65 1c        	adc	$1c                     ; 0x201c <f256main+0x16ee>
    24b6: 85 1c        	sta	$1c                     ; 0x201c <f256main+0x16ee>
    24b8: 8a           	txa
    24b9: 65 1d        	adc	$1d                     ; 0x201d <f256main+0x16ef>
    24bb: a0 ff        	ldy	#$ff
    24bd: aa           	tax
    24be: 30 02        	bmi	$24c2 <f256main+0x1b94>
    24c0: a0 00        	ldy	#$0
    24c2: 18           	clc
    24c3: a5 1c        	lda	$1c                     ; 0x201c <f256main+0x16ee>
    24c5: 69 00        	adc	#$0
    24c7: 85 1c        	sta	$1c                     ; 0x201c <f256main+0x16ee>
    24c9: 8a           	txa
    24ca: 69 54        	adc	#$54
    24cc: 85 1d        	sta	$1d                     ; 0x201d <f256main+0x16ef>
    24ce: 98           	tya
    24cf: 69 01        	adc	#$1
    24d1: aa           	tax
    24d2: a0 13        	ldy	#$13
    24d4: b1 1a        	lda	($1a),y                 ; 0x201a <f256main+0x16ec>
    24d6: 85 1e        	sta	$1e                     ; 0x201e <f256main+0x16f0>
    24d8: a4 1d        	ldy	$1d                     ; 0x201d <f256main+0x16ef>
    24da: 84 1a        	sty	$1a                     ; 0x201a <f256main+0x16ec>
    24dc: 06 1a        	asl	$1a                     ; 0x201a <f256main+0x16ec>
    24de: 8a           	txa
    24df: 2a           	rol
    24e0: 06 1a        	asl	$1a                     ; 0x201a <f256main+0x16ec>
    24e2: 2a           	rol
    24e3: 06 1a        	asl	$1a                     ; 0x201a <f256main+0x16ec>
    24e5: 2a           	rol
    24e6: a6 0f        	ldx	$f                      ; 0x200f <f256main+0x16e1>
    24e8: 78           	sei
    24e9: 85 0f        	sta	$f                      ; 0x200f <f256main+0x16e1>
    24eb: a5 1d        	lda	$1d                     ; 0x201d <f256main+0x16ef>
    24ed: 09 e0        	ora	#$e0
    24ef: a4 1c        	ldy	$1c                     ; 0x201c <f256main+0x16ee>
    24f1: 84 1a        	sty	$1a                     ; 0x201a <f256main+0x16ec>
    24f3: 85 1b        	sta	$1b                     ; 0x201b <f256main+0x16ed>
    24f5: a5 1e        	lda	$1e                     ; 0x201e <f256main+0x16f0>
    24f7: 92 1a        	sta	($1a)                   ; 0x201a <f256main+0x16ec>
    24f9: a0 01        	ldy	#$1
    24fb: a9 00        	lda	#$0
    24fd: 91 1a        	sta	($1a),y                 ; 0x201a <f256main+0x16ec>
    24ff: 86 0f        	stx	$f                      ; 0x200f <f256main+0x16e1>
    2501: 58           	cli
    2502: a6 18        	ldx	$18                     ; 0x2018 <f256main+0x16ea>
    2504: 86 1a        	stx	$1a                     ; 0x201a <f256main+0x16ec>
    2506: a6 19        	ldx	$19                     ; 0x2019 <f256main+0x16eb>
    2508: 86 1b        	stx	$1b                     ; 0x201b <f256main+0x16ed>
    250a: e6 1a        	inc	$1a                     ; 0x201a <f256main+0x16ec>
    250c: d0 02        	bne	$2510 <f256main+0x1be2>
    250e: e6 1b        	inc	$1b                     ; 0x201b <f256main+0x16ed>
    2510: b1 18        	lda	($18),y                 ; 0x2018 <f256main+0x16ea>
    2512: aa           	tax
    2513: b1 1a        	lda	($1a),y                 ; 0x201a <f256main+0x16ec>
    2515: 86 1a        	stx	$1a                     ; 0x201a <f256main+0x16ec>
    2517: 06 1a        	asl	$1a                     ; 0x201a <f256main+0x16ec>
    2519: 2a           	rol
    251a: 85 1b        	sta	$1b                     ; 0x201b <f256main+0x16ed>
    251c: a5 18        	lda	$18                     ; 0x2018 <f256main+0x16ea>
    251e: 18           	clc
    251f: 69 03        	adc	#$3
    2521: 85 1c        	sta	$1c                     ; 0x201c <f256main+0x16ee>
    2523: a5 19        	lda	$19                     ; 0x2019 <f256main+0x16eb>
    2525: 69 00        	adc	#$0
    2527: 85 1d        	sta	$1d                     ; 0x201d <f256main+0x16ef>
    2529: a0 03        	ldy	#$3
    252b: b1 18        	lda	($18),y                 ; 0x2018 <f256main+0x16ea>
    252d: aa           	tax
    252e: a0 01        	ldy	#$1
    2530: b1 1c        	lda	($1c),y                 ; 0x201c <f256main+0x16ee>
    2532: 85 1c        	sta	$1c                     ; 0x201c <f256main+0x16ee>
    2534: 8a           	txa
    2535: 0a           	asl
    2536: 26 1c        	rol	$1c                     ; 0x201c <f256main+0x16ee>
    2538: 0a           	asl
    2539: 26 1c        	rol	$1c                     ; 0x201c <f256main+0x16ee>
    253b: a6 1c        	ldx	$1c                     ; 0x201c <f256main+0x16ee>
    253d: 86 1d        	stx	$1d                     ; 0x201d <f256main+0x16ef>
    253f: 0a           	asl
    2540: 85 1c        	sta	$1c                     ; 0x201c <f256main+0x16ee>
    2542: 26 1d        	rol	$1d                     ; 0x201d <f256main+0x16ef>
    2544: 0a           	asl
    2545: aa           	tax
    2546: a5 1d        	lda	$1d                     ; 0x201d <f256main+0x16ef>
    2548: 2a           	rol
    2549: 86 1e        	stx	$1e                     ; 0x201e <f256main+0x16f0>
    254b: 06 1e        	asl	$1e                     ; 0x201e <f256main+0x16f0>
    254d: 2a           	rol
    254e: aa           	tax
    254f: a5 1e        	lda	$1e                     ; 0x201e <f256main+0x16f0>
    2551: 18           	clc
    2552: 65 1c        	adc	$1c                     ; 0x201c <f256main+0x16ee>
    2554: 85 1c        	sta	$1c                     ; 0x201c <f256main+0x16ee>
    2556: 8a           	txa
    2557: 65 1d        	adc	$1d                     ; 0x201d <f256main+0x16ef>
    2559: aa           	tax
    255a: a5 1c        	lda	$1c                     ; 0x201c <f256main+0x16ee>
    255c: 18           	clc
    255d: 65 1a        	adc	$1a                     ; 0x201a <f256main+0x16ec>
    255f: 85 1a        	sta	$1a                     ; 0x201a <f256main+0x16ec>
    2561: 8a           	txa
    2562: 65 1b        	adc	$1b                     ; 0x201b <f256main+0x16ed>
    2564: a2 ff        	ldx	#$ff
    2566: a8           	tay
    2567: 30 02        	bmi	$256b <f256main+0x1c3d>
    2569: a2 00        	ldx	#$0
    256b: 18           	clc
    256c: a5 1a        	lda	$1a                     ; 0x201a <f256main+0x16ec>
    256e: 69 00        	adc	#$0
    2570: 85 1a        	sta	$1a                     ; 0x201a <f256main+0x16ec>
    2572: 98           	tya
    2573: 69 54        	adc	#$54
    2575: 85 1b        	sta	$1b                     ; 0x201b <f256main+0x16ed>
    2577: 8a           	txa
    2578: 69 01        	adc	#$1
    257a: aa           	tax
    257b: a0 13        	ldy	#$13
    257d: b1 18        	lda	($18),y                 ; 0x2018 <f256main+0x16ea>
    257f: 85 1c        	sta	$1c                     ; 0x201c <f256main+0x16ee>
    2581: a4 1b        	ldy	$1b                     ; 0x201b <f256main+0x16ed>
    2583: 84 18        	sty	$18                     ; 0x2018 <f256main+0x16ea>
    2585: 06 18        	asl	$18                     ; 0x2018 <f256main+0x16ea>
    2587: 8a           	txa
    2588: 2a           	rol
    2589: 06 18        	asl	$18                     ; 0x2018 <f256main+0x16ea>
    258b: 2a           	rol
    258c: 06 18        	asl	$18                     ; 0x2018 <f256main+0x16ea>
    258e: 2a           	rol
    258f: a6 0f        	ldx	$f                      ; 0x200f <f256main+0x16e1>
    2591: 78           	sei
    2592: 85 0f        	sta	$f                      ; 0x200f <f256main+0x16e1>
    2594: a5 1b        	lda	$1b                     ; 0x201b <f256main+0x16ed>
    2596: 09 e0        	ora	#$e0
    2598: a4 1a        	ldy	$1a                     ; 0x201a <f256main+0x16ec>
    259a: 84 18        	sty	$18                     ; 0x2018 <f256main+0x16ea>
    259c: 85 19        	sta	$19                     ; 0x2019 <f256main+0x16eb>
    259e: a5 1c        	lda	$1c                     ; 0x201c <f256main+0x16ee>
    25a0: 92 18        	sta	($18)                   ; 0x2018 <f256main+0x16ea>
    25a2: a0 01        	ldy	#$1
    25a4: a9 00        	lda	#$0
    25a6: 91 18        	sta	($18),y                 ; 0x2018 <f256main+0x16ea>
    25a8: 86 0f        	stx	$f                      ; 0x200f <f256main+0x16e1>
    25aa: 58           	cli
    25ab: a6 16        	ldx	$16                     ; 0x2016 <f256main+0x16e8>
    25ad: 86 18        	stx	$18                     ; 0x2018 <f256main+0x16ea>
    25af: a6 17        	ldx	$17                     ; 0x2017 <f256main+0x16e9>
    25b1: 86 19        	stx	$19                     ; 0x2019 <f256main+0x16eb>
    25b3: e6 18        	inc	$18                     ; 0x2018 <f256main+0x16ea>
    25b5: d0 02        	bne	$25b9 <f256main+0x1c8b>
    25b7: e6 19        	inc	$19                     ; 0x2019 <f256main+0x16eb>
    25b9: b1 16        	lda	($16),y                 ; 0x2016 <f256main+0x16e8>
    25bb: aa           	tax
    25bc: b1 18        	lda	($18),y                 ; 0x2018 <f256main+0x16ea>
    25be: 86 18        	stx	$18                     ; 0x2018 <f256main+0x16ea>
    25c0: 06 18        	asl	$18                     ; 0x2018 <f256main+0x16ea>
    25c2: 2a           	rol
    25c3: 85 19        	sta	$19                     ; 0x2019 <f256main+0x16eb>
    25c5: a5 16        	lda	$16                     ; 0x2016 <f256main+0x16e8>
    25c7: 18           	clc
    25c8: 69 03        	adc	#$3
    25ca: 85 1a        	sta	$1a                     ; 0x201a <f256main+0x16ec>
    25cc: a5 17        	lda	$17                     ; 0x2017 <f256main+0x16e9>
    25ce: 69 00        	adc	#$0
    25d0: 85 1b        	sta	$1b                     ; 0x201b <f256main+0x16ed>
    25d2: a0 03        	ldy	#$3
    25d4: b1 16        	lda	($16),y                 ; 0x2016 <f256main+0x16e8>
    25d6: aa           	tax
    25d7: a0 01        	ldy	#$1
    25d9: b1 1a        	lda	($1a),y                 ; 0x201a <f256main+0x16ec>
    25db: 85 1a        	sta	$1a                     ; 0x201a <f256main+0x16ec>
    25dd: 8a           	txa
    25de: 0a           	asl
    25df: 26 1a        	rol	$1a                     ; 0x201a <f256main+0x16ec>
    25e1: 0a           	asl
    25e2: 26 1a        	rol	$1a                     ; 0x201a <f256main+0x16ec>
    25e4: a6 1a        	ldx	$1a                     ; 0x201a <f256main+0x16ec>
    25e6: 86 1b        	stx	$1b                     ; 0x201b <f256main+0x16ed>
    25e8: 0a           	asl
    25e9: 85 1a        	sta	$1a                     ; 0x201a <f256main+0x16ec>
    25eb: 26 1b        	rol	$1b                     ; 0x201b <f256main+0x16ed>
    25ed: 0a           	asl
    25ee: aa           	tax
    25ef: a5 1b        	lda	$1b                     ; 0x201b <f256main+0x16ed>
    25f1: 2a           	rol
    25f2: 86 1c        	stx	$1c                     ; 0x201c <f256main+0x16ee>
    25f4: 06 1c        	asl	$1c                     ; 0x201c <f256main+0x16ee>
    25f6: 2a           	rol
    25f7: aa           	tax
    25f8: a5 1c        	lda	$1c                     ; 0x201c <f256main+0x16ee>
    25fa: 18           	clc
    25fb: 65 1a        	adc	$1a                     ; 0x201a <f256main+0x16ec>
    25fd: 85 1a        	sta	$1a                     ; 0x201a <f256main+0x16ec>
    25ff: 8a           	txa
    2600: 65 1b        	adc	$1b                     ; 0x201b <f256main+0x16ed>
    2602: aa           	tax
    2603: a5 1a        	lda	$1a                     ; 0x201a <f256main+0x16ec>
    2605: 18           	clc
    2606: 65 18        	adc	$18                     ; 0x2018 <f256main+0x16ea>
    2608: 85 18        	sta	$18                     ; 0x2018 <f256main+0x16ea>
    260a: 8a           	txa
    260b: 65 19        	adc	$19                     ; 0x2019 <f256main+0x16eb>
    260d: a2 ff        	ldx	#$ff
    260f: a8           	tay
    2610: 30 02        	bmi	$2614 <f256main+0x1ce6>
    2612: a2 00        	ldx	#$0
    2614: 18           	clc
    2615: a5 18        	lda	$18                     ; 0x2018 <f256main+0x16ea>
    2617: 69 00        	adc	#$0
    2619: 85 18        	sta	$18                     ; 0x2018 <f256main+0x16ea>
    261b: 98           	tya
    261c: 69 54        	adc	#$54
    261e: 85 19        	sta	$19                     ; 0x2019 <f256main+0x16eb>
    2620: 8a           	txa
    2621: 69 01        	adc	#$1
    2623: aa           	tax
    2624: a0 13        	ldy	#$13
    2626: b1 16        	lda	($16),y                 ; 0x2016 <f256main+0x16e8>
    2628: 85 1a        	sta	$1a                     ; 0x201a <f256main+0x16ec>
    262a: a4 19        	ldy	$19                     ; 0x2019 <f256main+0x16eb>
    262c: 84 16        	sty	$16                     ; 0x2016 <f256main+0x16e8>
    262e: 06 16        	asl	$16                     ; 0x2016 <f256main+0x16e8>
    2630: 8a           	txa
    2631: 2a           	rol
    2632: 06 16        	asl	$16                     ; 0x2016 <f256main+0x16e8>
    2634: 2a           	rol
    2635: 06 16        	asl	$16                     ; 0x2016 <f256main+0x16e8>
    2637: 2a           	rol
    2638: a6 0f        	ldx	$f                      ; 0x200f <f256main+0x16e1>
    263a: 78           	sei
    263b: 85 0f        	sta	$f                      ; 0x200f <f256main+0x16e1>
    263d: a5 19        	lda	$19                     ; 0x2019 <f256main+0x16eb>
    263f: 09 e0        	ora	#$e0
    2641: a4 18        	ldy	$18                     ; 0x2018 <f256main+0x16ea>
    2643: 84 16        	sty	$16                     ; 0x2016 <f256main+0x16e8>
    2645: 85 17        	sta	$17                     ; 0x2017 <f256main+0x16e9>
    2647: a5 1a        	lda	$1a                     ; 0x201a <f256main+0x16ec>
    2649: 92 16        	sta	($16)                   ; 0x2016 <f256main+0x16e8>
    264b: a0 01        	ldy	#$1
    264d: a9 00        	lda	#$0
    264f: 91 16        	sta	($16),y                 ; 0x2016 <f256main+0x16e8>
    2651: 86 0f        	stx	$f                      ; 0x200f <f256main+0x16e1>
    2653: 58           	cli
    2654: a6 14        	ldx	$14                     ; 0x2014 <f256main+0x16e6>
    2656: 86 16        	stx	$16                     ; 0x2016 <f256main+0x16e8>
    2658: a6 15        	ldx	$15                     ; 0x2015 <f256main+0x16e7>
    265a: 86 17        	stx	$17                     ; 0x2017 <f256main+0x16e9>
    265c: e6 16        	inc	$16                     ; 0x2016 <f256main+0x16e8>
    265e: d0 02        	bne	$2662 <f256main+0x1d34>
    2660: e6 17        	inc	$17                     ; 0x2017 <f256main+0x16e9>
    2662: b1 14        	lda	($14),y                 ; 0x2014 <f256main+0x16e6>
    2664: aa           	tax
    2665: b1 16        	lda	($16),y                 ; 0x2016 <f256main+0x16e8>
    2667: 86 16        	stx	$16                     ; 0x2016 <f256main+0x16e8>
    2669: 06 16        	asl	$16                     ; 0x2016 <f256main+0x16e8>
    266b: 2a           	rol
    266c: 85 17        	sta	$17                     ; 0x2017 <f256main+0x16e9>
    266e: a5 14        	lda	$14                     ; 0x2014 <f256main+0x16e6>
    2670: 18           	clc
    2671: 69 03        	adc	#$3
    2673: 85 18        	sta	$18                     ; 0x2018 <f256main+0x16ea>
    2675: a5 15        	lda	$15                     ; 0x2015 <f256main+0x16e7>
    2677: 69 00        	adc	#$0
    2679: 85 19        	sta	$19                     ; 0x2019 <f256main+0x16eb>
    267b: a0 03        	ldy	#$3
    267d: b1 14        	lda	($14),y                 ; 0x2014 <f256main+0x16e6>
    267f: aa           	tax
    2680: a0 01        	ldy	#$1
    2682: b1 18        	lda	($18),y                 ; 0x2018 <f256main+0x16ea>
    2684: 85 18        	sta	$18                     ; 0x2018 <f256main+0x16ea>
    2686: 8a           	txa
    2687: 0a           	asl
    2688: 26 18        	rol	$18                     ; 0x2018 <f256main+0x16ea>
    268a: 0a           	asl
    268b: 26 18        	rol	$18                     ; 0x2018 <f256main+0x16ea>
    268d: a6 18        	ldx	$18                     ; 0x2018 <f256main+0x16ea>
    268f: 86 19        	stx	$19                     ; 0x2019 <f256main+0x16eb>
    2691: 0a           	asl
    2692: 85 18        	sta	$18                     ; 0x2018 <f256main+0x16ea>
    2694: 26 19        	rol	$19                     ; 0x2019 <f256main+0x16eb>
    2696: 0a           	asl
    2697: aa           	tax
    2698: a5 19        	lda	$19                     ; 0x2019 <f256main+0x16eb>
    269a: 2a           	rol
    269b: 86 1a        	stx	$1a                     ; 0x201a <f256main+0x16ec>
    269d: 06 1a        	asl	$1a                     ; 0x201a <f256main+0x16ec>
    269f: 2a           	rol
    26a0: aa           	tax
    26a1: a5 1a        	lda	$1a                     ; 0x201a <f256main+0x16ec>
    26a3: 18           	clc
    26a4: 65 18        	adc	$18                     ; 0x2018 <f256main+0x16ea>
    26a6: 85 18        	sta	$18                     ; 0x2018 <f256main+0x16ea>
    26a8: 8a           	txa
    26a9: 65 19        	adc	$19                     ; 0x2019 <f256main+0x16eb>
    26ab: aa           	tax
    26ac: a5 18        	lda	$18                     ; 0x2018 <f256main+0x16ea>
    26ae: 18           	clc
    26af: 65 16        	adc	$16                     ; 0x2016 <f256main+0x16e8>
    26b1: 85 16        	sta	$16                     ; 0x2016 <f256main+0x16e8>
    26b3: 8a           	txa
    26b4: 65 17        	adc	$17                     ; 0x2017 <f256main+0x16e9>
    26b6: a2 ff        	ldx	#$ff
    26b8: a8           	tay
    26b9: 30 02        	bmi	$26bd <f256main+0x1d8f>
    26bb: a2 00        	ldx	#$0
    26bd: 18           	clc
    26be: a5 16        	lda	$16                     ; 0x2016 <f256main+0x16e8>
    26c0: 69 00        	adc	#$0
    26c2: 85 16        	sta	$16                     ; 0x2016 <f256main+0x16e8>
    26c4: 98           	tya
    26c5: 69 54        	adc	#$54
    26c7: 85 17        	sta	$17                     ; 0x2017 <f256main+0x16e9>
    26c9: 8a           	txa
    26ca: 69 01        	adc	#$1
    26cc: aa           	tax
    26cd: a0 13        	ldy	#$13
    26cf: b1 14        	lda	($14),y                 ; 0x2014 <f256main+0x16e6>
    26d1: 85 18        	sta	$18                     ; 0x2018 <f256main+0x16ea>
    26d3: a4 17        	ldy	$17                     ; 0x2017 <f256main+0x16e9>
    26d5: 84 14        	sty	$14                     ; 0x2014 <f256main+0x16e6>
    26d7: 06 14        	asl	$14                     ; 0x2014 <f256main+0x16e6>
    26d9: 8a           	txa
    26da: 2a           	rol
    26db: 06 14        	asl	$14                     ; 0x2014 <f256main+0x16e6>
    26dd: 2a           	rol
    26de: 06 14        	asl	$14                     ; 0x2014 <f256main+0x16e6>
    26e0: 2a           	rol
    26e1: a6 0f        	ldx	$f                      ; 0x200f <f256main+0x16e1>
    26e3: 78           	sei
    26e4: 85 0f        	sta	$f                      ; 0x200f <f256main+0x16e1>
    26e6: a5 17        	lda	$17                     ; 0x2017 <f256main+0x16e9>
    26e8: 09 e0        	ora	#$e0
    26ea: a4 16        	ldy	$16                     ; 0x2016 <f256main+0x16e8>
    26ec: 84 14        	sty	$14                     ; 0x2014 <f256main+0x16e6>
    26ee: 85 15        	sta	$15                     ; 0x2015 <f256main+0x16e7>
    26f0: a5 18        	lda	$18                     ; 0x2018 <f256main+0x16ea>
    26f2: 92 14        	sta	($14)                   ; 0x2014 <f256main+0x16e6>
    26f4: a0 01        	ldy	#$1
    26f6: a9 00        	lda	#$0
    26f8: 91 14        	sta	($14),y                 ; 0x2014 <f256main+0x16e6>
    26fa: 86 0f        	stx	$f                      ; 0x200f <f256main+0x16e1>
    26fc: 58           	cli
    26fd: a6 12        	ldx	$12                     ; 0x2012 <f256main+0x16e4>
    26ff: 86 14        	stx	$14                     ; 0x2014 <f256main+0x16e6>
    2701: a6 13        	ldx	$13                     ; 0x2013 <f256main+0x16e5>
    2703: 86 15        	stx	$15                     ; 0x2015 <f256main+0x16e7>
    2705: e6 14        	inc	$14                     ; 0x2014 <f256main+0x16e6>
    2707: d0 02        	bne	$270b <f256main+0x1ddd>
    2709: e6 15        	inc	$15                     ; 0x2015 <f256main+0x16e7>
    270b: b1 12        	lda	($12),y                 ; 0x2012 <f256main+0x16e4>
    270d: aa           	tax
    270e: b1 14        	lda	($14),y                 ; 0x2014 <f256main+0x16e6>
    2710: 86 14        	stx	$14                     ; 0x2014 <f256main+0x16e6>
    2712: 06 14        	asl	$14                     ; 0x2014 <f256main+0x16e6>
    2714: 2a           	rol
    2715: 85 15        	sta	$15                     ; 0x2015 <f256main+0x16e7>
    2717: a5 12        	lda	$12                     ; 0x2012 <f256main+0x16e4>
    2719: 18           	clc
    271a: 69 03        	adc	#$3
    271c: 85 16        	sta	$16                     ; 0x2016 <f256main+0x16e8>
    271e: a5 13        	lda	$13                     ; 0x2013 <f256main+0x16e5>
    2720: 69 00        	adc	#$0
    2722: 85 17        	sta	$17                     ; 0x2017 <f256main+0x16e9>
    2724: a0 03        	ldy	#$3
    2726: b1 12        	lda	($12),y                 ; 0x2012 <f256main+0x16e4>
    2728: aa           	tax
    2729: a0 01        	ldy	#$1
    272b: b1 16        	lda	($16),y                 ; 0x2016 <f256main+0x16e8>
    272d: 85 16        	sta	$16                     ; 0x2016 <f256main+0x16e8>
    272f: 8a           	txa
    2730: 0a           	asl
    2731: 26 16        	rol	$16                     ; 0x2016 <f256main+0x16e8>
    2733: 0a           	asl
    2734: 26 16        	rol	$16                     ; 0x2016 <f256main+0x16e8>
    2736: a6 16        	ldx	$16                     ; 0x2016 <f256main+0x16e8>
    2738: 86 17        	stx	$17                     ; 0x2017 <f256main+0x16e9>
    273a: 0a           	asl
    273b: 85 16        	sta	$16                     ; 0x2016 <f256main+0x16e8>
    273d: 26 17        	rol	$17                     ; 0x2017 <f256main+0x16e9>
    273f: 0a           	asl
    2740: aa           	tax
    2741: a5 17        	lda	$17                     ; 0x2017 <f256main+0x16e9>
    2743: 2a           	rol
    2744: 86 18        	stx	$18                     ; 0x2018 <f256main+0x16ea>
    2746: 06 18        	asl	$18                     ; 0x2018 <f256main+0x16ea>
    2748: 2a           	rol
    2749: aa           	tax
    274a: a5 18        	lda	$18                     ; 0x2018 <f256main+0x16ea>
    274c: 18           	clc
    274d: 65 16        	adc	$16                     ; 0x2016 <f256main+0x16e8>
    274f: 85 16        	sta	$16                     ; 0x2016 <f256main+0x16e8>
    2751: 8a           	txa
    2752: 65 17        	adc	$17                     ; 0x2017 <f256main+0x16e9>
    2754: aa           	tax
    2755: a5 16        	lda	$16                     ; 0x2016 <f256main+0x16e8>
    2757: 18           	clc
    2758: 65 14        	adc	$14                     ; 0x2014 <f256main+0x16e6>
    275a: a8           	tay
    275b: 8a           	txa
    275c: 65 15        	adc	$15                     ; 0x2015 <f256main+0x16e7>
    275e: aa           	tax
    275f: 30 0a        	bmi	$276b <f256main+0x1e3d>
    2761: 64 14        	stz	$14                     ; 0x2014 <f256main+0x16e6>
    2763: a9 00        	lda	#$0
    2765: 5a           	phy
    2766: a0 03        	ldy	#$3
    2768: 91 10        	sta	($10),y                 ; 0x2010 <f256main+0x16e2>
    276a: 7a           	ply
    276b: 18           	clc
    276c: 98           	tya
    276d: 69 00        	adc	#$0
    276f: 85 16        	sta	$16                     ; 0x2016 <f256main+0x16e8>
    2771: 8a           	txa
    2772: 69 54        	adc	#$54
    2774: 85 17        	sta	$17                     ; 0x2017 <f256main+0x16e9>
    2776: a0 03        	ldy	#$3
    2778: b1 10        	lda	($10),y                 ; 0x2010 <f256main+0x16e2>
    277a: 69 01        	adc	#$1
    277c: aa           	tax
    277d: a0 13        	ldy	#$13
    277f: b1 12        	lda	($12),y                 ; 0x2012 <f256main+0x16e4>
    2781: 85 14        	sta	$14                     ; 0x2014 <f256main+0x16e6>
    2783: a4 17        	ldy	$17                     ; 0x2017 <f256main+0x16e9>
    2785: 84 12        	sty	$12                     ; 0x2012 <f256main+0x16e4>
    2787: 06 12        	asl	$12                     ; 0x2012 <f256main+0x16e4>
    2789: 8a           	txa
    278a: 2a           	rol
    278b: 06 12        	asl	$12                     ; 0x2012 <f256main+0x16e4>
    278d: 2a           	rol
    278e: 06 12        	asl	$12                     ; 0x2012 <f256main+0x16e4>
    2790: 2a           	rol
    2791: a6 0f        	ldx	$f                      ; 0x200f <f256main+0x16e1>
    2793: 78           	sei
    2794: 85 0f        	sta	$f                      ; 0x200f <f256main+0x16e1>
    2796: a4 16        	ldy	$16                     ; 0x2016 <f256main+0x16e8>
    2798: 84 12        	sty	$12                     ; 0x2012 <f256main+0x16e4>
    279a: a5 17        	lda	$17                     ; 0x2017 <f256main+0x16e9>
    279c: 09 e0        	ora	#$e0
    279e: 85 13        	sta	$13                     ; 0x2013 <f256main+0x16e5>
    27a0: a5 14        	lda	$14                     ; 0x2014 <f256main+0x16e6>
    27a2: 92 12        	sta	($12)                   ; 0x2012 <f256main+0x16e4>
    27a4: a0 01        	ldy	#$1
    27a6: a9 00        	lda	#$0
    27a8: 91 12        	sta	($12),y                 ; 0x2012 <f256main+0x16e4>
    27aa: 86 0f        	stx	$f                      ; 0x200f <f256main+0x16e1>
    27ac: 58           	cli
    27ad: a2 80        	ldx	#$80
    27af: 86 f3        	stx	$f3                     ; 0x20f3 <f256main+0x17c5>
    27b1: 18           	clc
    27b2: a5 10        	lda	$10                     ; 0x2010 <f256main+0x16e2>
    27b4: 69 0b        	adc	#$b
    27b6: 85 12        	sta	$12                     ; 0x2012 <f256main+0x16e4>
    27b8: a5 11        	lda	$11                     ; 0x2011 <f256main+0x16e3>
    27ba: 69 00        	adc	#$0
    27bc: 85 13        	sta	$13                     ; 0x2013 <f256main+0x16e5>
    27be: 20 f0 ff     	jsr	$fff0 <end_block9+0x77c6>
    27c1: 92 12        	sta	($12)                   ; 0x2012 <f256main+0x16e4>
    27c3: a9 00        	lda	#$0
    27c5: 6a           	ror
    27c6: 85 2e        	sta	$2e                     ; 0x202e <f256main+0x1700>
    27c8: b2 12        	lda	($12)                   ; 0x2012 <f256main+0x16e4>
    27ca: 1a           	inc
    27cb: 85 a1        	sta	$a1                     ; 0x20a1 <f256main+0x1773>
    27cd: 64 f3        	stz	$f3                     ; 0x20f3 <f256main+0x17c5>
    27cf: a6 a1        	ldx	$a1                     ; 0x20a1 <f256main+0x1773>
    27d1: 86 f4        	stx	$f4                     ; 0x20f4 <f256main+0x17c6>
    27d3: a2 01        	ldx	#$1
    27d5: 86 f5        	stx	$f5                     ; 0x20f5 <f256main+0x17c7>
    27d7: 18           	clc
    27d8: a5 10        	lda	$10                     ; 0x2010 <f256main+0x16e2>
    27da: 69 0c        	adc	#$c
    27dc: 85 12        	sta	$12                     ; 0x2012 <f256main+0x16e4>
    27de: a5 11        	lda	$11                     ; 0x2011 <f256main+0x16e3>
    27e0: 69 00        	adc	#$0
    27e2: 85 13        	sta	$13                     ; 0x2013 <f256main+0x16e5>
    27e4: 20 f0 ff     	jsr	$fff0 <end_block9+0x77c6>
    27e7: 92 12        	sta	($12)                   ; 0x2012 <f256main+0x16e4>
    27e9: a9 00        	lda	#$0
    27eb: 6a           	ror
    27ec: 85 2e        	sta	$2e                     ; 0x202e <f256main+0x1700>
    27ee: a6 94        	ldx	$94                     ; 0x2094 <f256main+0x1766>
    27f0: a4 24        	ldy	$24                     ; 0x2024 <f256main+0x16f6>
    27f2: e0 0c        	cpx	#$c
    27f4: f0 03        	beq	$27f9 <f256main+0x1ecb>
    27f6: 4c 7a 17     	jmp	$177a <f256main+0xe4c>
    27f9: a5 97        	lda	$97                     ; 0x2097 <f256main+0x1769>
    27fb: 18           	clc
    27fc: 48           	pha
    27fd: a9 00        	lda	#$0
    27ff: 5a           	phy
    2800: a0 03        	ldy	#$3
    2802: 91 10        	sta	($10),y                 ; 0x2010 <f256main+0x16e2>
    2804: 7a           	ply
    2805: 68           	pla
    2806: b8           	clv
    2807: f0 08        	beq	$2811 <f256main+0x1ee3>
    2809: c9 11        	cmp	#$11
    280b: 2c e1 7e     	bit	$7ee1                   ; 0x7ee1 <__set_v>
    280e: b0 01        	bcs	$2811 <f256main+0x1ee3>
    2810: b8           	clv
    2811: 84 24        	sty	$24                     ; 0x2024 <f256main+0x16f6>
    2813: a6 98        	ldx	$98                     ; 0x2098 <f256main+0x176a>
    2815: f0 0e        	beq	$2825 <f256main+0x1ef7>
    2817: e0 11        	cpx	#$11
    2819: 48           	pha
    281a: a9 01        	lda	#$1
    281c: b0 02        	bcs	$2820 <f256main+0x1ef2>
    281e: a9 00        	lda	#$0
    2820: a0 03        	ldy	#$3
    2822: 91 10        	sta	($10),y                 ; 0x2010 <f256main+0x16e2>
    2824: 68           	pla
    2825: 86 18        	stx	$18                     ; 0x2018 <f256main+0x16ea>
    2827: ae e2 d6     	ldx	$d6e2                   ; 0xd6e2 <end_block9+0x4eb8>
    282a: ac e3 d6     	ldy	$d6e3                   ; 0xd6e3 <end_block9+0x4eb9>
    282d: 84 14        	sty	$14                     ; 0x2014 <f256main+0x16e6>
    282f: 50 01        	bvc	$2832 <f256main+0x1f04>
    2831: 0a           	asl
    2832: 85 12        	sta	$12                     ; 0x2012 <f256main+0x16e4>
    2834: 8a           	txa
    2835: a6 12        	ldx	$12                     ; 0x2012 <f256main+0x16e4>
    2837: 10 06        	bpl	$283f <f256main+0x1f11>
    2839: a2 ff        	ldx	#$ff
    283b: 86 13        	stx	$13                     ; 0x2013 <f256main+0x16e5>
    283d: 80 02        	bra	$2841 <f256main+0x1f13>
    283f: 64 13        	stz	$13                     ; 0x2013 <f256main+0x16e5>
    2841: 18           	clc
    2842: 65 12        	adc	$12                     ; 0x2012 <f256main+0x16e4>
    2844: a8           	tay
    2845: a5 14        	lda	$14                     ; 0x2014 <f256main+0x16e6>
    2847: 65 13        	adc	$13                     ; 0x2013 <f256main+0x16e5>
    2849: 5a           	phy
    284a: fa           	plx
    284b: 84 a2        	sty	$a2                     ; 0x20a2 <f256main+0x1774>
    284d: 85 14        	sta	$14                     ; 0x2014 <f256main+0x16e6>
    284f: 85 a3        	sta	$a3                     ; 0x20a3 <f256main+0x1775>
    2851: ac e4 d6     	ldy	$d6e4                   ; 0xd6e4 <end_block9+0x4eba>
    2854: 84 15        	sty	$15                     ; 0x2015 <f256main+0x16e7>
    2856: ad e5 d6     	lda	$d6e5                   ; 0xd6e5 <end_block9+0x4ebb>
    2859: 48           	pha
    285a: a0 03        	ldy	#$3
    285c: b1 10        	lda	($10),y                 ; 0x2010 <f256main+0x16e2>
    285e: 85 12        	sta	$12                     ; 0x2012 <f256main+0x16e4>
    2860: 68           	pla
    2861: a4 12        	ldy	$12                     ; 0x2012 <f256main+0x16e4>
    2863: f0 08        	beq	$286d <f256main+0x1f3f>
    2865: a4 18        	ldy	$18                     ; 0x2018 <f256main+0x16ea>
    2867: 84 12        	sty	$12                     ; 0x2012 <f256main+0x16e4>
    2869: 06 12        	asl	$12                     ; 0x2012 <f256main+0x16e4>
    286b: 80 04        	bra	$2871 <f256main+0x1f43>
    286d: a4 18        	ldy	$18                     ; 0x2018 <f256main+0x16ea>
    286f: 84 12        	sty	$12                     ; 0x2012 <f256main+0x16e4>
    2871: da           	phx
    2872: 7a           	ply
    2873: a6 12        	ldx	$12                     ; 0x2012 <f256main+0x16e4>
    2875: 10 08        	bpl	$287f <f256main+0x1f51>
    2877: 85 16        	sta	$16                     ; 0x2016 <f256main+0x16e8>
    2879: a2 ff        	ldx	#$ff
    287b: 86 13        	stx	$13                     ; 0x2013 <f256main+0x16e5>
    287d: 80 04        	bra	$2883 <f256main+0x1f55>
    287f: 85 16        	sta	$16                     ; 0x2016 <f256main+0x16e8>
    2881: 64 13        	stz	$13                     ; 0x2013 <f256main+0x16e5>
    2883: 18           	clc
    2884: a5 15        	lda	$15                     ; 0x2015 <f256main+0x16e7>
    2886: 65 12        	adc	$12                     ; 0x2012 <f256main+0x16e4>
    2888: 85 12        	sta	$12                     ; 0x2012 <f256main+0x16e4>
    288a: a5 16        	lda	$16                     ; 0x2016 <f256main+0x16e8>
    288c: 65 13        	adc	$13                     ; 0x2013 <f256main+0x16e5>
    288e: aa           	tax
    288f: a5 12        	lda	$12                     ; 0x2012 <f256main+0x16e4>
    2891: 85 a4        	sta	$a4                     ; 0x20a4 <f256main+0x1776>
    2893: 8a           	txa
    2894: 86 a5        	stx	$a5                     ; 0x20a5 <f256main+0x1777>
    2896: a6 14        	ldx	$14                     ; 0x2014 <f256main+0x16e6>
    2898: 30 19        	bmi	$28b3 <f256main+0x1f85>
    289a: a6 14        	ldx	$14                     ; 0x2014 <f256main+0x16e6>
    289c: e0 02        	cpx	#$2
    289e: d0 19        	bne	$28b9 <f256main+0x1f8b>
    28a0: c0 71        	cpy	#$71
    28a2: b0 19        	bcs	$28bd <f256main+0x1f8f>
    28a4: aa           	tax
    28a5: 30 23        	bmi	$28ca <f256main+0x1f9c>
    28a7: c9 01        	cmp	#$1
    28a9: d0 26        	bne	$28d1 <f256main+0x1fa3>
    28ab: a6 12        	ldx	$12                     ; 0x2012 <f256main+0x16e4>
    28ad: e0 d1        	cpx	#$d1
    28af: b0 24        	bcs	$28d5 <f256main+0x1fa7>
    28b1: 80 2c        	bra	$28df <f256main+0x1fb1>
    28b3: a0 00        	ldy	#$0
    28b5: a2 00        	ldx	#$0
    28b7: 80 08        	bra	$28c1 <f256main+0x1f93>
    28b9: e0 02        	cpx	#$2
    28bb: 90 e7        	bcc	$28a4 <f256main+0x1f76>
    28bd: a0 70        	ldy	#$70
    28bf: a2 02        	ldx	#$2
    28c1: 84 a2        	sty	$a2                     ; 0x20a2 <f256main+0x1774>
    28c3: 86 14        	stx	$14                     ; 0x2014 <f256main+0x16e6>
    28c5: 86 a3        	stx	$a3                     ; 0x20a3 <f256main+0x1775>
    28c7: aa           	tax
    28c8: 10 dd        	bpl	$28a7 <f256main+0x1f79>
    28ca: 98           	tya
    28cb: a2 00        	ldx	#$0
    28cd: a0 00        	ldy	#$0
    28cf: 80 09        	bra	$28da <f256main+0x1fac>
    28d1: c9 01        	cmp	#$1
    28d3: 90 0a        	bcc	$28df <f256main+0x1fb1>
    28d5: 98           	tya
    28d6: a2 d0        	ldx	#$d0
    28d8: a0 01        	ldy	#$1
    28da: 86 a4        	stx	$a4                     ; 0x20a4 <f256main+0x1776>
    28dc: 84 a5        	sty	$a5                     ; 0x20a5 <f256main+0x1777>
    28de: a8           	tay
    28df: 8c e2 d6     	sty	$d6e2                   ; 0xd6e2 <end_block9+0x4eb8>
    28e2: a6 14        	ldx	$14                     ; 0x2014 <f256main+0x16e6>
    28e4: 8e e3 d6     	stx	$d6e3                   ; 0xd6e3 <end_block9+0x4eb9>
    28e7: a6 a4        	ldx	$a4                     ; 0x20a4 <f256main+0x1776>
    28e9: a4 a5        	ldy	$a5                     ; 0x20a5 <f256main+0x1777>
    28eb: 8e e4 d6     	stx	$d6e4                   ; 0xd6e4 <end_block9+0x4eba>
    28ee: 8c e5 d6     	sty	$d6e5                   ; 0xd6e5 <end_block9+0x4ebb>
    28f1: a5 a0        	lda	$a0                     ; 0x20a0 <f256main+0x1772>
    28f3: c9 ff        	cmp	#$ff
    28f5: d0 03        	bne	$28fa <f256main+0x1fcc>
    28f7: 4c 69 2c     	jmp	$2c69 <f256main+0x233b>
    28fa: 0a           	asl
    28fb: 64 12        	stz	$12                     ; 0x2012 <f256main+0x16e4>
    28fd: 26 12        	rol	$12                     ; 0x2012 <f256main+0x16e4>
    28ff: 0a           	asl
    2900: 26 12        	rol	$12                     ; 0x2012 <f256main+0x16e4>
    2902: 0a           	asl
    2903: 26 12        	rol	$12                     ; 0x2012 <f256main+0x16e4>
    2905: 0a           	asl
    2906: 85 13        	sta	$13                     ; 0x2013 <f256main+0x16e5>
    2908: 26 12        	rol	$12                     ; 0x2012 <f256main+0x16e4>
    290a: 0a           	asl
    290b: a6 12        	ldx	$12                     ; 0x2012 <f256main+0x16e4>
    290d: 86 14        	stx	$14                     ; 0x2014 <f256main+0x16e6>
    290f: 26 14        	rol	$14                     ; 0x2014 <f256main+0x16e6>
    2911: 18           	clc
    2912: 65 13        	adc	$13                     ; 0x2013 <f256main+0x16e5>
    2914: 85 1a        	sta	$1a                     ; 0x201a <f256main+0x16ec>
    2916: 85 13        	sta	$13                     ; 0x2013 <f256main+0x16e5>
    2918: a5 14        	lda	$14                     ; 0x2014 <f256main+0x16e6>
    291a: 65 12        	adc	$12                     ; 0x2012 <f256main+0x16e4>
    291c: 85 1b        	sta	$1b                     ; 0x201b <f256main+0x16ed>
    291e: 85 12        	sta	$12                     ; 0x2012 <f256main+0x16e4>
    2920: a9 54        	lda	#$54
    2922: 18           	clc
    2923: 65 13        	adc	$13                     ; 0x2013 <f256main+0x16e5>
    2925: aa           	tax
    2926: a9 85        	lda	#$85
    2928: 65 12        	adc	$12                     ; 0x2012 <f256main+0x16e4>
    292a: 86 12        	stx	$12                     ; 0x2012 <f256main+0x16e4>
    292c: 64 15        	stz	$15                     ; 0x2015 <f256main+0x16e7>
    292e: 85 13        	sta	$13                     ; 0x2013 <f256main+0x16e5>
    2930: a6 98        	ldx	$98                     ; 0x2098 <f256main+0x176a>
    2932: 86 14        	stx	$14                     ; 0x2014 <f256main+0x16e6>
    2934: 10 08        	bpl	$293e <f256main+0x2010>
    2936: 64 17        	stz	$17                     ; 0x2017 <f256main+0x16e9>
    2938: a2 ff        	ldx	#$ff
    293a: 86 15        	stx	$15                     ; 0x2015 <f256main+0x16e7>
    293c: 80 02        	bra	$2940 <f256main+0x2012>
    293e: 64 17        	stz	$17                     ; 0x2017 <f256main+0x16e9>
    2940: a0 27        	ldy	#$27
    2942: b1 12        	lda	($12),y                 ; 0x2012 <f256main+0x16e4>
    2944: 38           	sec
    2945: e5 14        	sbc	$14                     ; 0x2014 <f256main+0x16e6>
    2947: aa           	tax
    2948: a9 00        	lda	#$0
    294a: e5 15        	sbc	$15                     ; 0x2015 <f256main+0x16e7>
    294c: 85 16        	sta	$16                     ; 0x2016 <f256main+0x16e8>
    294e: c8           	iny
    294f: b1 12        	lda	($12),y                 ; 0x2012 <f256main+0x16e4>
    2951: 85 15        	sta	$15                     ; 0x2015 <f256main+0x16e7>
    2953: 86 14        	stx	$14                     ; 0x2014 <f256main+0x16e6>
    2955: e4 15        	cpx	$15                     ; 0x2015 <f256main+0x16e7>
    2957: a5 16        	lda	$16                     ; 0x2016 <f256main+0x16e8>
    2959: e9 00        	sbc	#$0
    295b: 50 02        	bvc	$295f <f256main+0x2031>
    295d: 49 80        	eor	#$80
    295f: aa           	tax
    2960: 10 06        	bpl	$2968 <f256main+0x203a>
    2962: a6 15        	ldx	$15                     ; 0x2015 <f256main+0x16e7>
    2964: 86 14        	stx	$14                     ; 0x2014 <f256main+0x16e6>
    2966: 64 16        	stz	$16                     ; 0x2016 <f256main+0x16e8>
    2968: a6 1a        	ldx	$1a                     ; 0x201a <f256main+0x16ec>
    296a: 86 15        	stx	$15                     ; 0x2015 <f256main+0x16e7>
    296c: a6 1b        	ldx	$1b                     ; 0x201b <f256main+0x16ed>
    296e: 86 17        	stx	$17                     ; 0x2017 <f256main+0x16e9>
    2970: a9 54        	lda	#$54
    2972: 18           	clc
    2973: 65 15        	adc	$15                     ; 0x2015 <f256main+0x16e7>
    2975: 85 18        	sta	$18                     ; 0x2018 <f256main+0x16ea>
    2977: a9 85        	lda	#$85
    2979: 65 17        	adc	$17                     ; 0x2017 <f256main+0x16e9>
    297b: 85 19        	sta	$19                     ; 0x2019 <f256main+0x16eb>
    297d: a0 29        	ldy	#$29
    297f: b1 18        	lda	($18),y                 ; 0x2018 <f256main+0x16ea>
    2981: a2 00        	ldx	#$0
    2983: e4 16        	cpx	$16                     ; 0x2016 <f256main+0x16e8>
    2985: d0 08        	bne	$298f <f256main+0x2061>
    2987: c5 14        	cmp	$14                     ; 0x2014 <f256main+0x16e6>
    2989: a6 14        	ldx	$14                     ; 0x2014 <f256main+0x16e6>
    298b: 90 08        	bcc	$2995 <f256main+0x2067>
    298d: 80 07        	bra	$2996 <f256main+0x2068>
    298f: e4 16        	cpx	$16                     ; 0x2016 <f256main+0x16e8>
    2991: a6 14        	ldx	$14                     ; 0x2014 <f256main+0x16e6>
    2993: b0 01        	bcs	$2996 <f256main+0x2068>
    2995: aa           	tax
    2996: a9 54        	lda	#$54
    2998: 18           	clc
    2999: 65 1a        	adc	$1a                     ; 0x201a <f256main+0x16ec>
    299b: 85 14        	sta	$14                     ; 0x2014 <f256main+0x16e6>
    299d: a9 85        	lda	#$85
    299f: 65 1b        	adc	$1b                     ; 0x201b <f256main+0x16ed>
    29a1: 85 15        	sta	$15                     ; 0x2015 <f256main+0x16e7>
    29a3: a0 27        	ldy	#$27
    29a5: 8a           	txa
    29a6: 91 14        	sta	($14),y                 ; 0x2014 <f256main+0x16e6>
    29a8: 20 78 65     	jsr	$6578 <updateSlider>
    29ab: a5 a0        	lda	$a0                     ; 0x20a0 <f256main+0x1772>
    29ad: 0a           	asl
    29ae: 64 12        	stz	$12                     ; 0x2012 <f256main+0x16e4>
    29b0: 26 12        	rol	$12                     ; 0x2012 <f256main+0x16e4>
    29b2: 0a           	asl
    29b3: 26 12        	rol	$12                     ; 0x2012 <f256main+0x16e4>
    29b5: 0a           	asl
    29b6: 26 12        	rol	$12                     ; 0x2012 <f256main+0x16e4>
    29b8: 0a           	asl
    29b9: 85 13        	sta	$13                     ; 0x2013 <f256main+0x16e5>
    29bb: 26 12        	rol	$12                     ; 0x2012 <f256main+0x16e4>
    29bd: 0a           	asl
    29be: a6 12        	ldx	$12                     ; 0x2012 <f256main+0x16e4>
    29c0: 86 14        	stx	$14                     ; 0x2014 <f256main+0x16e6>
    29c2: 26 14        	rol	$14                     ; 0x2014 <f256main+0x16e6>
    29c4: 18           	clc
    29c5: 65 13        	adc	$13                     ; 0x2013 <f256main+0x16e5>
    29c7: 85 13        	sta	$13                     ; 0x2013 <f256main+0x16e5>
    29c9: a5 14        	lda	$14                     ; 0x2014 <f256main+0x16e6>
    29cb: 65 12        	adc	$12                     ; 0x2012 <f256main+0x16e4>
    29cd: 85 12        	sta	$12                     ; 0x2012 <f256main+0x16e4>
    29cf: a9 54        	lda	#$54
    29d1: 18           	clc
    29d2: 65 13        	adc	$13                     ; 0x2013 <f256main+0x16e5>
    29d4: aa           	tax
    29d5: a9 85        	lda	#$85
    29d7: 65 12        	adc	$12                     ; 0x2012 <f256main+0x16e4>
    29d9: 86 12        	stx	$12                     ; 0x2012 <f256main+0x16e4>
    29db: 85 13        	sta	$13                     ; 0x2013 <f256main+0x16e5>
    29dd: a9 e4        	lda	#$e4
    29df: 18           	clc
    29e0: a0 12        	ldy	#$12
    29e2: 71 12        	adc	($12),y                 ; 0x2012 <f256main+0x16e4>
    29e4: c9 17        	cmp	#$17
    29e6: 90 03        	bcc	$29eb <f256main+0x20bd>
    29e8: 4c 69 2c     	jmp	$2c69 <f256main+0x233b>
    29eb: 0a           	asl
    29ec: aa           	tax
    29ed: 7c ec 7e     	jmp	($7eec,x)               ; 0x7eec <__set_v+0xb>
    29f0: a5 cf        	lda	$cf                     ; 0x20cf <f256main+0x17a1>
    29f2: a6 d0        	ldx	$d0                     ; 0x20d0 <f256main+0x17a2>
    29f4: 85 14        	sta	$14                     ; 0x2014 <f256main+0x16e6>
    29f6: 86 15        	stx	$15                     ; 0x2015 <f256main+0x16e7>
    29f8: 18           	clc
    29f9: 69 04        	adc	#$4
    29fb: 85 16        	sta	$16                     ; 0x2016 <f256main+0x16e8>
    29fd: 8a           	txa
    29fe: 69 00        	adc	#$0
    2a00: 85 17        	sta	$17                     ; 0x2017 <f256main+0x16e9>
    2a02: a0 04        	ldy	#$4
    2a04: b1 14        	lda	($14),y                 ; 0x2014 <f256main+0x16e6>
    2a06: 85 14        	sta	$14                     ; 0x2014 <f256main+0x16e6>
    2a08: a0 01        	ldy	#$1
    2a0a: b1 16        	lda	($16),y                 ; 0x2016 <f256main+0x16e8>
    2a0c: 85 15        	sta	$15                     ; 0x2015 <f256main+0x16e7>
    2a0e: a9 0f        	lda	#$f
    2a10: a0 03        	ldy	#$3
    2a12: 31 14        	and	($14),y                 ; 0x2014 <f256main+0x16e6>
    2a14: 85 16        	sta	$16                     ; 0x2016 <f256main+0x16e8>
    2a16: a0 27        	ldy	#$27
    2a18: b1 12        	lda	($12),y                 ; 0x2012 <f256main+0x16e4>
    2a1a: 0a           	asl
    2a1b: 0a           	asl
    2a1c: 0a           	asl
    2a1d: 0a           	asl
    2a1e: 05 16        	ora	$16                     ; 0x2016 <f256main+0x16e8>
    2a20: 4c a4 2b     	jmp	$2ba4 <f256main+0x2276>
    2a23: a6 c8        	ldx	$c8                     ; 0x20c8 <f256main+0x179a>
    2a25: d0 03        	bne	$2a2a <f256main+0x20fc>
    2a27: 4c 7b 2f     	jmp	$2f7b <f256main+0x264d>
    2a2a: a6 c9        	ldx	$c9                     ; 0x20c9 <f256main+0x179b>
    2a2c: d0 03        	bne	$2a31 <f256main+0x2103>
    2a2e: 4c 80 2f     	jmp	$2f80 <f256main+0x2652>
    2a31: a6 ca        	ldx	$ca                     ; 0x20ca <f256main+0x179c>
    2a33: d0 03        	bne	$2a38 <f256main+0x210a>
    2a35: 4c ba 30     	jmp	$30ba <f256main+0x278c>
    2a38: a6 cb        	ldx	$cb                     ; 0x20cb <f256main+0x179d>
    2a3a: d0 03        	bne	$2a3f <f256main+0x2111>
    2a3c: 4c ff 31     	jmp	$31ff <f256main+0x28d1>
    2a3f: a6 cc        	ldx	$cc                     ; 0x20cc <f256main+0x179e>
    2a41: d0 03        	bne	$2a46 <f256main+0x2118>
    2a43: 4c 04 32     	jmp	$3204 <f256main+0x28d6>
    2a46: a6 cd        	ldx	$cd                     ; 0x20cd <f256main+0x179f>
    2a48: d0 03        	bne	$2a4d <f256main+0x211f>
    2a4a: 4c 41 32     	jmp	$3241 <f256main+0x2913>
    2a4d: a6 ce        	ldx	$ce                     ; 0x20ce <f256main+0x17a0>
    2a4f: f0 03        	beq	$2a54 <f256main+0x2126>
    2a51: 4c 36 1d     	jmp	$1d36 <f256main+0x1408>
    2a54: a2 11        	ldx	#$11
    2a56: 4c 48 1c     	jmp	$1c48 <f256main+0x131a>
    2a59: a6 c4        	ldx	$c4                     ; 0x20c4 <f256main+0x1796>
    2a5b: a0 07        	ldy	#$7
    2a5d: 85 12        	sta	$12                     ; 0x2012 <f256main+0x16e4>
    2a5f: 84 28        	sty	$28                     ; 0x2028 <f256main+0x16fa>
    2a61: e4 12        	cpx	$12                     ; 0x2012 <f256main+0x16e4>
    2a63: d0 03        	bne	$2a68 <f256main+0x213a>
    2a65: 4c af 18     	jmp	$18af <f256main+0xf81>
    2a68: a6 c5        	ldx	$c5                     ; 0x20c5 <f256main+0x1797>
    2a6a: a0 08        	ldy	#$8
    2a6c: 85 12        	sta	$12                     ; 0x2012 <f256main+0x16e4>
    2a6e: 84 28        	sty	$28                     ; 0x2028 <f256main+0x16fa>
    2a70: e4 12        	cpx	$12                     ; 0x2012 <f256main+0x16e4>
    2a72: d0 03        	bne	$2a77 <f256main+0x2149>
    2a74: 4c af 18     	jmp	$18af <f256main+0xf81>
    2a77: a6 c6        	ldx	$c6                     ; 0x20c6 <f256main+0x1798>
    2a79: a0 09        	ldy	#$9
    2a7b: 85 12        	sta	$12                     ; 0x2012 <f256main+0x16e4>
    2a7d: 84 28        	sty	$28                     ; 0x2028 <f256main+0x16fa>
    2a7f: a0 01        	ldy	#$1
    2a81: 84 29        	sty	$29                     ; 0x2029 <f256main+0x16fb>
    2a83: a0 09        	ldy	#$9
    2a85: 84 2b        	sty	$2b                     ; 0x202b <f256main+0x16fd>
    2a87: e4 12        	cpx	$12                     ; 0x2012 <f256main+0x16e4>
    2a89: d0 03        	bne	$2a8e <f256main+0x2160>
    2a8b: 4c af 18     	jmp	$18af <f256main+0xf81>
    2a8e: a6 c7        	ldx	$c7                     ; 0x20c7 <f256main+0x1799>
    2a90: a0 0a        	ldy	#$a
    2a92: 85 12        	sta	$12                     ; 0x2012 <f256main+0x16e4>
    2a94: 84 28        	sty	$28                     ; 0x2028 <f256main+0x16fa>
    2a96: a0 01        	ldy	#$1
    2a98: 84 29        	sty	$29                     ; 0x2029 <f256main+0x16fb>
    2a9a: a0 09        	ldy	#$9
    2a9c: 84 2b        	sty	$2b                     ; 0x202b <f256main+0x16fd>
    2a9e: e4 12        	cpx	$12                     ; 0x2012 <f256main+0x16e4>
    2aa0: d0 03        	bne	$2aa5 <f256main+0x2177>
    2aa2: 4c af 18     	jmp	$18af <f256main+0xf81>
    2aa5: a6 c8        	ldx	$c8                     ; 0x20c8 <f256main+0x179a>
    2aa7: a0 0b        	ldy	#$b
    2aa9: 85 12        	sta	$12                     ; 0x2012 <f256main+0x16e4>
    2aab: 84 28        	sty	$28                     ; 0x2028 <f256main+0x16fa>
    2aad: a0 01        	ldy	#$1
    2aaf: 84 29        	sty	$29                     ; 0x2029 <f256main+0x16fb>
    2ab1: a0 09        	ldy	#$9
    2ab3: 84 2b        	sty	$2b                     ; 0x202b <f256main+0x16fd>
    2ab5: e4 12        	cpx	$12                     ; 0x2012 <f256main+0x16e4>
    2ab7: d0 03        	bne	$2abc <f256main+0x218e>
    2ab9: 4c af 18     	jmp	$18af <f256main+0xf81>
    2abc: a6 c9        	ldx	$c9                     ; 0x20c9 <f256main+0x179b>
    2abe: a0 0c        	ldy	#$c
    2ac0: 85 12        	sta	$12                     ; 0x2012 <f256main+0x16e4>
    2ac2: 84 28        	sty	$28                     ; 0x2028 <f256main+0x16fa>
    2ac4: a0 01        	ldy	#$1
    2ac6: 84 29        	sty	$29                     ; 0x2029 <f256main+0x16fb>
    2ac8: a0 09        	ldy	#$9
    2aca: 84 2b        	sty	$2b                     ; 0x202b <f256main+0x16fd>
    2acc: e4 12        	cpx	$12                     ; 0x2012 <f256main+0x16e4>
    2ace: d0 03        	bne	$2ad3 <f256main+0x21a5>
    2ad0: 4c af 18     	jmp	$18af <f256main+0xf81>
    2ad3: a6 ca        	ldx	$ca                     ; 0x20ca <f256main+0x179c>
    2ad5: a0 0d        	ldy	#$d
    2ad7: 85 12        	sta	$12                     ; 0x2012 <f256main+0x16e4>
    2ad9: 84 28        	sty	$28                     ; 0x2028 <f256main+0x16fa>
    2adb: a0 01        	ldy	#$1
    2add: 84 29        	sty	$29                     ; 0x2029 <f256main+0x16fb>
    2adf: a0 09        	ldy	#$9
    2ae1: 84 2b        	sty	$2b                     ; 0x202b <f256main+0x16fd>
    2ae3: e4 12        	cpx	$12                     ; 0x2012 <f256main+0x16e4>
    2ae5: d0 03        	bne	$2aea <f256main+0x21bc>
    2ae7: 4c af 18     	jmp	$18af <f256main+0xf81>
    2aea: a6 cb        	ldx	$cb                     ; 0x20cb <f256main+0x179d>
    2aec: a0 0e        	ldy	#$e
    2aee: 85 12        	sta	$12                     ; 0x2012 <f256main+0x16e4>
    2af0: 84 28        	sty	$28                     ; 0x2028 <f256main+0x16fa>
    2af2: a0 01        	ldy	#$1
    2af4: 84 29        	sty	$29                     ; 0x2029 <f256main+0x16fb>
    2af6: a0 09        	ldy	#$9
    2af8: 84 2b        	sty	$2b                     ; 0x202b <f256main+0x16fd>
    2afa: e4 12        	cpx	$12                     ; 0x2012 <f256main+0x16e4>
    2afc: d0 03        	bne	$2b01 <f256main+0x21d3>
    2afe: 4c af 18     	jmp	$18af <f256main+0xf81>
    2b01: a6 cc        	ldx	$cc                     ; 0x20cc <f256main+0x179e>
    2b03: a0 0f        	ldy	#$f
    2b05: 85 12        	sta	$12                     ; 0x2012 <f256main+0x16e4>
    2b07: 84 28        	sty	$28                     ; 0x2028 <f256main+0x16fa>
    2b09: a0 01        	ldy	#$1
    2b0b: 84 29        	sty	$29                     ; 0x2029 <f256main+0x16fb>
    2b0d: a0 09        	ldy	#$9
    2b0f: 84 2b        	sty	$2b                     ; 0x202b <f256main+0x16fd>
    2b11: e4 12        	cpx	$12                     ; 0x2012 <f256main+0x16e4>
    2b13: d0 03        	bne	$2b18 <f256main+0x21ea>
    2b15: 4c af 18     	jmp	$18af <f256main+0xf81>
    2b18: a6 cd        	ldx	$cd                     ; 0x20cd <f256main+0x179f>
    2b1a: a0 10        	ldy	#$10
    2b1c: 85 12        	sta	$12                     ; 0x2012 <f256main+0x16e4>
    2b1e: 84 28        	sty	$28                     ; 0x2028 <f256main+0x16fa>
    2b20: a0 01        	ldy	#$1
    2b22: 84 29        	sty	$29                     ; 0x2029 <f256main+0x16fb>
    2b24: a0 09        	ldy	#$9
    2b26: 84 2b        	sty	$2b                     ; 0x202b <f256main+0x16fd>
    2b28: e4 12        	cpx	$12                     ; 0x2012 <f256main+0x16e4>
    2b2a: d0 03        	bne	$2b2f <f256main+0x2201>
    2b2c: 4c af 18     	jmp	$18af <f256main+0xf81>
    2b2f: a6 ce        	ldx	$ce                     ; 0x20ce <f256main+0x17a0>
    2b31: a0 11        	ldy	#$11
    2b33: 85 12        	sta	$12                     ; 0x2012 <f256main+0x16e4>
    2b35: 84 28        	sty	$28                     ; 0x2028 <f256main+0x16fa>
    2b37: a0 01        	ldy	#$1
    2b39: 84 29        	sty	$29                     ; 0x2029 <f256main+0x16fb>
    2b3b: a0 09        	ldy	#$9
    2b3d: 84 2b        	sty	$2b                     ; 0x202b <f256main+0x16fd>
    2b3f: e4 12        	cpx	$12                     ; 0x2012 <f256main+0x16e4>
    2b41: d0 03        	bne	$2b46 <f256main+0x2218>
    2b43: 4c af 18     	jmp	$18af <f256main+0xf81>
    2b46: 4c c9 36     	jmp	$36c9 <f256main+0x2d9b>
    2b49: a5 cf        	lda	$cf                     ; 0x20cf <f256main+0x17a1>
    2b4b: a6 d0        	ldx	$d0                     ; 0x20d0 <f256main+0x17a2>
    2b4d: 85 14        	sta	$14                     ; 0x2014 <f256main+0x16e6>
    2b4f: 86 15        	stx	$15                     ; 0x2015 <f256main+0x16e7>
    2b51: 18           	clc
    2b52: 69 04        	adc	#$4
    2b54: 85 16        	sta	$16                     ; 0x2016 <f256main+0x16e8>
    2b56: 8a           	txa
    2b57: 69 00        	adc	#$0
    2b59: 85 17        	sta	$17                     ; 0x2017 <f256main+0x16e9>
    2b5b: a0 04        	ldy	#$4
    2b5d: b1 14        	lda	($14),y                 ; 0x2014 <f256main+0x16e6>
    2b5f: 85 14        	sta	$14                     ; 0x2014 <f256main+0x16e6>
    2b61: a0 01        	ldy	#$1
    2b63: b1 16        	lda	($16),y                 ; 0x2016 <f256main+0x16e8>
    2b65: 85 15        	sta	$15                     ; 0x2015 <f256main+0x16e7>
    2b67: a9 0f        	lda	#$f
    2b69: a0 04        	ldy	#$4
    2b6b: 31 14        	and	($14),y                 ; 0x2014 <f256main+0x16e6>
    2b6d: 85 16        	sta	$16                     ; 0x2016 <f256main+0x16e8>
    2b6f: a0 27        	ldy	#$27
    2b71: b1 12        	lda	($12),y                 ; 0x2012 <f256main+0x16e4>
    2b73: 0a           	asl
    2b74: 0a           	asl
    2b75: 0a           	asl
    2b76: 0a           	asl
    2b77: 05 16        	ora	$16                     ; 0x2016 <f256main+0x16e8>
    2b79: 4c fe 2b     	jmp	$2bfe <f256main+0x22d0>
    2b7c: a5 cf        	lda	$cf                     ; 0x20cf <f256main+0x17a1>
    2b7e: a6 d0        	ldx	$d0                     ; 0x20d0 <f256main+0x17a2>
    2b80: 85 14        	sta	$14                     ; 0x2014 <f256main+0x16e6>
    2b82: 86 15        	stx	$15                     ; 0x2015 <f256main+0x16e7>
    2b84: 18           	clc
    2b85: 69 04        	adc	#$4
    2b87: 85 16        	sta	$16                     ; 0x2016 <f256main+0x16e8>
    2b89: 8a           	txa
    2b8a: 69 00        	adc	#$0
    2b8c: 85 17        	sta	$17                     ; 0x2017 <f256main+0x16e9>
    2b8e: a0 04        	ldy	#$4
    2b90: b1 14        	lda	($14),y                 ; 0x2014 <f256main+0x16e6>
    2b92: 85 14        	sta	$14                     ; 0x2014 <f256main+0x16e6>
    2b94: a0 01        	ldy	#$1
    2b96: b1 16        	lda	($16),y                 ; 0x2016 <f256main+0x16e8>
    2b98: 85 15        	sta	$15                     ; 0x2015 <f256main+0x16e7>
    2b9a: a9 f0        	lda	#$f0
    2b9c: a0 03        	ldy	#$3
    2b9e: 31 14        	and	($14),y                 ; 0x2014 <f256main+0x16e6>
    2ba0: a0 27        	ldy	#$27
    2ba2: 11 12        	ora	($12),y                 ; 0x2012 <f256main+0x16e4>
    2ba4: a0 03        	ldy	#$3
    2ba6: 91 14        	sta	($14),y                 ; 0x2014 <f256main+0x16e6>
    2ba8: 85 12        	sta	$12                     ; 0x2012 <f256main+0x16e4>
    2baa: c8           	iny
    2bab: b1 14        	lda	($14),y                 ; 0x2014 <f256main+0x16e6>
    2bad: a4 12        	ldy	$12                     ; 0x2012 <f256main+0x16e4>
    2baf: 8c 05 d4     	sty	$d405                   ; 0xd405 <end_block9+0x4bdb>
    2bb2: 8c 0c d4     	sty	$d40c                   ; 0xd40c <end_block9+0x4be2>
    2bb5: 8c 13 d4     	sty	$d413                   ; 0xd413 <end_block9+0x4be9>
    2bb8: 8c 05 d5     	sty	$d505                   ; 0xd505 <end_block9+0x4cdb>
    2bbb: 8c 0c d5     	sty	$d50c                   ; 0xd50c <end_block9+0x4ce2>
    2bbe: 8c 13 d5     	sty	$d513                   ; 0xd513 <end_block9+0x4ce9>
    2bc1: 8d 06 d4     	sta	$d406                   ; 0xd406 <end_block9+0x4bdc>
    2bc4: 8d 0d d4     	sta	$d40d                   ; 0xd40d <end_block9+0x4be3>
    2bc7: 8d 14 d4     	sta	$d414                   ; 0xd414 <end_block9+0x4bea>
    2bca: 8d 06 d5     	sta	$d506                   ; 0xd506 <end_block9+0x4cdc>
    2bcd: 8d 0d d5     	sta	$d50d                   ; 0xd50d <end_block9+0x4ce3>
    2bd0: 8d 14 d5     	sta	$d514                   ; 0xd514 <end_block9+0x4cea>
    2bd3: 4c 69 2c     	jmp	$2c69 <f256main+0x233b>
    2bd6: a5 cf        	lda	$cf                     ; 0x20cf <f256main+0x17a1>
    2bd8: a6 d0        	ldx	$d0                     ; 0x20d0 <f256main+0x17a2>
    2bda: 85 14        	sta	$14                     ; 0x2014 <f256main+0x16e6>
    2bdc: 86 15        	stx	$15                     ; 0x2015 <f256main+0x16e7>
    2bde: 18           	clc
    2bdf: 69 04        	adc	#$4
    2be1: 85 16        	sta	$16                     ; 0x2016 <f256main+0x16e8>
    2be3: 8a           	txa
    2be4: 69 00        	adc	#$0
    2be6: 85 17        	sta	$17                     ; 0x2017 <f256main+0x16e9>
    2be8: a0 04        	ldy	#$4
    2bea: b1 14        	lda	($14),y                 ; 0x2014 <f256main+0x16e6>
    2bec: 85 14        	sta	$14                     ; 0x2014 <f256main+0x16e6>
    2bee: a0 01        	ldy	#$1
    2bf0: b1 16        	lda	($16),y                 ; 0x2016 <f256main+0x16e8>
    2bf2: 85 15        	sta	$15                     ; 0x2015 <f256main+0x16e7>
    2bf4: a9 f0        	lda	#$f0
    2bf6: a0 04        	ldy	#$4
    2bf8: 31 14        	and	($14),y                 ; 0x2014 <f256main+0x16e6>
    2bfa: a0 27        	ldy	#$27
    2bfc: 11 12        	ora	($12),y                 ; 0x2012 <f256main+0x16e4>
    2bfe: a0 04        	ldy	#$4
    2c00: 91 14        	sta	($14),y                 ; 0x2014 <f256main+0x16e6>
    2c02: 85 13        	sta	$13                     ; 0x2013 <f256main+0x16e5>
    2c04: 88           	dey
    2c05: b1 14        	lda	($14),y                 ; 0x2014 <f256main+0x16e6>
    2c07: 8d 05 d4     	sta	$d405                   ; 0xd405 <end_block9+0x4bdb>
    2c0a: 8d 0c d4     	sta	$d40c                   ; 0xd40c <end_block9+0x4be2>
    2c0d: 8d 13 d4     	sta	$d413                   ; 0xd413 <end_block9+0x4be9>
    2c10: 8d 05 d5     	sta	$d505                   ; 0xd505 <end_block9+0x4cdb>
    2c13: 8d 0c d5     	sta	$d50c                   ; 0xd50c <end_block9+0x4ce2>
    2c16: 8d 13 d5     	sta	$d513                   ; 0xd513 <end_block9+0x4ce9>
    2c19: a6 13        	ldx	$13                     ; 0x2013 <f256main+0x16e5>
    2c1b: 8e 06 d4     	stx	$d406                   ; 0xd406 <end_block9+0x4bdc>
    2c1e: 8e 0d d4     	stx	$d40d                   ; 0xd40d <end_block9+0x4be3>
    2c21: 8e 14 d4     	stx	$d414                   ; 0xd414 <end_block9+0x4bea>
    2c24: 8e 06 d5     	stx	$d506                   ; 0xd506 <end_block9+0x4cdc>
    2c27: 8e 0d d5     	stx	$d50d                   ; 0xd50d <end_block9+0x4ce3>
    2c2a: 8e 14 d5     	stx	$d514                   ; 0xd514 <end_block9+0x4cea>
    2c2d: 80 3a        	bra	$2c69 <f256main+0x233b>
    2c2f: a5 cf        	lda	$cf                     ; 0x20cf <f256main+0x17a1>
    2c31: a6 d0        	ldx	$d0                     ; 0x20d0 <f256main+0x17a2>
    2c33: 85 14        	sta	$14                     ; 0x2014 <f256main+0x16e6>
    2c35: 86 15        	stx	$15                     ; 0x2015 <f256main+0x16e7>
    2c37: 18           	clc
    2c38: 69 04        	adc	#$4
    2c3a: 85 16        	sta	$16                     ; 0x2016 <f256main+0x16e8>
    2c3c: 8a           	txa
    2c3d: 69 00        	adc	#$0
    2c3f: 85 17        	sta	$17                     ; 0x2017 <f256main+0x16e9>
    2c41: a0 04        	ldy	#$4
    2c43: b1 14        	lda	($14),y                 ; 0x2014 <f256main+0x16e6>
    2c45: 85 14        	sta	$14                     ; 0x2014 <f256main+0x16e6>
    2c47: a0 01        	ldy	#$1
    2c49: b1 16        	lda	($16),y                 ; 0x2016 <f256main+0x16e8>
    2c4b: 85 15        	sta	$15                     ; 0x2015 <f256main+0x16e7>
    2c4d: a9 0f        	lda	#$f
    2c4f: a0 08        	ldy	#$8
    2c51: 31 14        	and	($14),y                 ; 0x2014 <f256main+0x16e6>
    2c53: 85 16        	sta	$16                     ; 0x2016 <f256main+0x16e8>
    2c55: a0 27        	ldy	#$27
    2c57: b1 12        	lda	($12),y                 ; 0x2012 <f256main+0x16e4>
    2c59: 0a           	asl
    2c5a: 0a           	asl
    2c5b: 0a           	asl
    2c5c: 0a           	asl
    2c5d: 05 16        	ora	$16                     ; 0x2016 <f256main+0x16e8>
    2c5f: a0 08        	ldy	#$8
    2c61: 91 14        	sta	($14),y                 ; 0x2014 <f256main+0x16e6>
    2c63: 8d 17 d4     	sta	$d417                   ; 0xd417 <end_block9+0x4bed>
    2c66: 8d 17 d5     	sta	$d517                   ; 0xd517 <end_block9+0x4ced>
    2c69: a5 9f        	lda	$9f                     ; 0x209f <f256main+0x1771>
    2c6b: c9 ff        	cmp	#$ff
    2c6d: d0 03        	bne	$2c72 <f256main+0x2344>
    2c6f: 4c 61 2f     	jmp	$2f61 <f256main+0x2633>
    2c72: 0a           	asl
    2c73: 64 12        	stz	$12                     ; 0x2012 <f256main+0x16e4>
    2c75: 26 12        	rol	$12                     ; 0x2012 <f256main+0x16e4>
    2c77: 0a           	asl
    2c78: 26 12        	rol	$12                     ; 0x2012 <f256main+0x16e4>
    2c7a: 0a           	asl
    2c7b: 85 13        	sta	$13                     ; 0x2013 <f256main+0x16e5>
    2c7d: 26 12        	rol	$12                     ; 0x2012 <f256main+0x16e4>
    2c7f: 0a           	asl
    2c80: a6 12        	ldx	$12                     ; 0x2012 <f256main+0x16e4>
    2c82: 86 14        	stx	$14                     ; 0x2014 <f256main+0x16e6>
    2c84: 26 14        	rol	$14                     ; 0x2014 <f256main+0x16e6>
    2c86: 0a           	asl
    2c87: 26 14        	rol	$14                     ; 0x2014 <f256main+0x16e6>
    2c89: 0a           	asl
    2c8a: 26 14        	rol	$14                     ; 0x2014 <f256main+0x16e6>
    2c8c: 18           	clc
    2c8d: 65 13        	adc	$13                     ; 0x2013 <f256main+0x16e5>
    2c8f: 85 1a        	sta	$1a                     ; 0x201a <f256main+0x16ec>
    2c91: 85 13        	sta	$13                     ; 0x2013 <f256main+0x16e5>
    2c93: a5 14        	lda	$14                     ; 0x2014 <f256main+0x16e6>
    2c95: 65 12        	adc	$12                     ; 0x2012 <f256main+0x16e4>
    2c97: 85 1b        	sta	$1b                     ; 0x201b <f256main+0x16ed>
    2c99: 85 12        	sta	$12                     ; 0x2012 <f256main+0x16e4>
    2c9b: a9 44        	lda	#$44
    2c9d: 18           	clc
    2c9e: 65 13        	adc	$13                     ; 0x2013 <f256main+0x16e5>
    2ca0: aa           	tax
    2ca1: a9 86        	lda	#$86
    2ca3: 65 12        	adc	$12                     ; 0x2012 <f256main+0x16e4>
    2ca5: 86 12        	stx	$12                     ; 0x2012 <f256main+0x16e4>
    2ca7: 85 13        	sta	$13                     ; 0x2013 <f256main+0x16e5>
    2ca9: a0 3f        	ldy	#$3f
    2cab: b1 12        	lda	($12),y                 ; 0x2012 <f256main+0x16e4>
    2cad: 85 14        	sta	$14                     ; 0x2014 <f256main+0x16e6>
    2caf: a5 97        	lda	$97                     ; 0x2097 <f256main+0x1769>
    2cb1: 10 04        	bpl	$2cb7 <f256main+0x2389>
    2cb3: a2 ff        	ldx	#$ff
    2cb5: 80 02        	bra	$2cb9 <f256main+0x238b>
    2cb7: a2 00        	ldx	#$0
    2cb9: 18           	clc
    2cba: 65 14        	adc	$14                     ; 0x2014 <f256main+0x16e6>
    2cbc: 85 14        	sta	$14                     ; 0x2014 <f256main+0x16e6>
    2cbe: 8a           	txa
    2cbf: 69 00        	adc	#$0
    2cc1: 85 16        	sta	$16                     ; 0x2016 <f256main+0x16e8>
    2cc3: a0 40        	ldy	#$40
    2cc5: a6 14        	ldx	$14                     ; 0x2014 <f256main+0x16e6>
    2cc7: b1 12        	lda	($12),y                 ; 0x2012 <f256main+0x16e4>
    2cc9: 85 15        	sta	$15                     ; 0x2015 <f256main+0x16e7>
    2ccb: e4 15        	cpx	$15                     ; 0x2015 <f256main+0x16e7>
    2ccd: a5 16        	lda	$16                     ; 0x2016 <f256main+0x16e8>
    2ccf: e9 00        	sbc	#$0
    2cd1: 50 02        	bvc	$2cd5 <f256main+0x23a7>
    2cd3: 49 80        	eor	#$80
    2cd5: aa           	tax
    2cd6: 10 06        	bpl	$2cde <f256main+0x23b0>
    2cd8: a6 15        	ldx	$15                     ; 0x2015 <f256main+0x16e7>
    2cda: 86 14        	stx	$14                     ; 0x2014 <f256main+0x16e6>
    2cdc: 64 16        	stz	$16                     ; 0x2016 <f256main+0x16e8>
    2cde: a6 1a        	ldx	$1a                     ; 0x201a <f256main+0x16ec>
    2ce0: 86 15        	stx	$15                     ; 0x2015 <f256main+0x16e7>
    2ce2: a6 1b        	ldx	$1b                     ; 0x201b <f256main+0x16ed>
    2ce4: 86 17        	stx	$17                     ; 0x2017 <f256main+0x16e9>
    2ce6: a9 44        	lda	#$44
    2ce8: 18           	clc
    2ce9: 65 15        	adc	$15                     ; 0x2015 <f256main+0x16e7>
    2ceb: 85 18        	sta	$18                     ; 0x2018 <f256main+0x16ea>
    2ced: a9 86        	lda	#$86
    2cef: 65 17        	adc	$17                     ; 0x2017 <f256main+0x16e9>
    2cf1: 85 19        	sta	$19                     ; 0x2019 <f256main+0x16eb>
    2cf3: a0 41        	ldy	#$41
    2cf5: b1 18        	lda	($18),y                 ; 0x2018 <f256main+0x16ea>
    2cf7: a2 00        	ldx	#$0
    2cf9: e4 16        	cpx	$16                     ; 0x2016 <f256main+0x16e8>
    2cfb: d0 08        	bne	$2d05 <f256main+0x23d7>
    2cfd: c5 14        	cmp	$14                     ; 0x2014 <f256main+0x16e6>
    2cff: a6 14        	ldx	$14                     ; 0x2014 <f256main+0x16e6>
    2d01: 90 08        	bcc	$2d0b <f256main+0x23dd>
    2d03: 80 07        	bra	$2d0c <f256main+0x23de>
    2d05: e4 16        	cpx	$16                     ; 0x2016 <f256main+0x16e8>
    2d07: a6 14        	ldx	$14                     ; 0x2014 <f256main+0x16e6>
    2d09: b0 01        	bcs	$2d0c <f256main+0x23de>
    2d0b: aa           	tax
    2d0c: a9 44        	lda	#$44
    2d0e: 18           	clc
    2d0f: 65 1a        	adc	$1a                     ; 0x201a <f256main+0x16ec>
    2d11: 85 14        	sta	$14                     ; 0x2014 <f256main+0x16e6>
    2d13: a9 86        	lda	#$86
    2d15: 65 1b        	adc	$1b                     ; 0x201b <f256main+0x16ed>
    2d17: 85 15        	sta	$15                     ; 0x2015 <f256main+0x16e7>
    2d19: a0 3f        	ldy	#$3f
    2d1b: 8a           	txa
    2d1c: 91 14        	sta	($14),y                 ; 0x2014 <f256main+0x16e6>
    2d1e: 20 a9 61     	jsr	$61a9 <updateDial>
    2d21: a5 9f        	lda	$9f                     ; 0x209f <f256main+0x1771>
    2d23: 0a           	asl
    2d24: 64 12        	stz	$12                     ; 0x2012 <f256main+0x16e4>
    2d26: 26 12        	rol	$12                     ; 0x2012 <f256main+0x16e4>
    2d28: 0a           	asl
    2d29: 26 12        	rol	$12                     ; 0x2012 <f256main+0x16e4>
    2d2b: 0a           	asl
    2d2c: 85 13        	sta	$13                     ; 0x2013 <f256main+0x16e5>
    2d2e: 26 12        	rol	$12                     ; 0x2012 <f256main+0x16e4>
    2d30: 0a           	asl
    2d31: a6 12        	ldx	$12                     ; 0x2012 <f256main+0x16e4>
    2d33: 86 14        	stx	$14                     ; 0x2014 <f256main+0x16e6>
    2d35: 26 14        	rol	$14                     ; 0x2014 <f256main+0x16e6>
    2d37: 0a           	asl
    2d38: 26 14        	rol	$14                     ; 0x2014 <f256main+0x16e6>
    2d3a: 0a           	asl
    2d3b: 26 14        	rol	$14                     ; 0x2014 <f256main+0x16e6>
    2d3d: 18           	clc
    2d3e: 65 13        	adc	$13                     ; 0x2013 <f256main+0x16e5>
    2d40: 85 13        	sta	$13                     ; 0x2013 <f256main+0x16e5>
    2d42: a5 14        	lda	$14                     ; 0x2014 <f256main+0x16e6>
    2d44: 65 12        	adc	$12                     ; 0x2012 <f256main+0x16e4>
    2d46: 85 12        	sta	$12                     ; 0x2012 <f256main+0x16e4>
    2d48: a9 44        	lda	#$44
    2d4a: 18           	clc
    2d4b: 65 13        	adc	$13                     ; 0x2013 <f256main+0x16e5>
    2d4d: aa           	tax
    2d4e: a9 86        	lda	#$86
    2d50: 65 12        	adc	$12                     ; 0x2012 <f256main+0x16e4>
    2d52: 86 12        	stx	$12                     ; 0x2012 <f256main+0x16e4>
    2d54: 85 13        	sta	$13                     ; 0x2013 <f256main+0x16e5>
    2d56: 18           	clc
    2d57: a9 dc        	lda	#$dc
    2d59: a0 12        	ldy	#$12
    2d5b: 71 12        	adc	($12),y                 ; 0x2012 <f256main+0x16e4>
    2d5d: c9 11        	cmp	#$11
    2d5f: 90 03        	bcc	$2d64 <f256main+0x2436>
    2d61: 4c 61 2f     	jmp	$2f61 <f256main+0x2633>
    2d64: 0a           	asl
    2d65: aa           	tax
    2d66: 7c 1a 7f     	jmp	($7f1a,x)               ; 0x7f1a <__set_v+0x39>
    2d69: a0 3f        	ldy	#$3f
    2d6b: b1 12        	lda	($12),y                 ; 0x2012 <f256main+0x16e4>
    2d6d: aa           	tax
    2d6e: 4a           	lsr
    2d6f: 4a           	lsr
    2d70: 85 16        	sta	$16                     ; 0x2016 <f256main+0x16e8>
    2d72: a5 cf        	lda	$cf                     ; 0x20cf <f256main+0x17a1>
    2d74: a4 d0        	ldy	$d0                     ; 0x20d0 <f256main+0x17a2>
    2d76: 85 12        	sta	$12                     ; 0x2012 <f256main+0x16e4>
    2d78: 84 13        	sty	$13                     ; 0x2013 <f256main+0x16e5>
    2d7a: 18           	clc
    2d7b: 69 04        	adc	#$4
    2d7d: 85 14        	sta	$14                     ; 0x2014 <f256main+0x16e6>
    2d7f: 98           	tya
    2d80: 69 00        	adc	#$0
    2d82: 46 16        	lsr	$16                     ; 0x2016 <f256main+0x16e8>
    2d84: 46 16        	lsr	$16                     ; 0x2016 <f256main+0x16e8>
    2d86: 85 15        	sta	$15                     ; 0x2015 <f256main+0x16e7>
    2d88: a0 04        	ldy	#$4
    2d8a: b1 12        	lda	($12),y                 ; 0x2012 <f256main+0x16e4>
    2d8c: 85 12        	sta	$12                     ; 0x2012 <f256main+0x16e4>
    2d8e: a0 01        	ldy	#$1
    2d90: b1 14        	lda	($14),y                 ; 0x2014 <f256main+0x16e6>
    2d92: 85 13        	sta	$13                     ; 0x2013 <f256main+0x16e5>
    2d94: c8           	iny
    2d95: a5 16        	lda	$16                     ; 0x2016 <f256main+0x16e8>
    2d97: 91 12        	sta	($12),y                 ; 0x2012 <f256main+0x16e4>
    2d99: 8a           	txa
    2d9a: 0a           	asl
    2d9b: 0a           	asl
    2d9c: 0a           	asl
    2d9d: 0a           	asl
    2d9e: 85 14        	sta	$14                     ; 0x2014 <f256main+0x16e6>
    2da0: a9 0f        	lda	#$f
    2da2: 88           	dey
    2da3: 31 12        	and	($12),y                 ; 0x2012 <f256main+0x16e4>
    2da5: 05 14        	ora	$14                     ; 0x2014 <f256main+0x16e6>
    2da7: 91 12        	sta	($12),y                 ; 0x2012 <f256main+0x16e4>
    2da9: 8d 02 d4     	sta	$d402                   ; 0xd402 <end_block9+0x4bd8>
    2dac: 8d 09 d4     	sta	$d409                   ; 0xd409 <end_block9+0x4bdf>
    2daf: 8d 10 d4     	sta	$d410                   ; 0xd410 <end_block9+0x4be6>
    2db2: 8d 02 d5     	sta	$d502                   ; 0xd502 <end_block9+0x4cd8>
    2db5: 8d 09 d5     	sta	$d509                   ; 0xd509 <end_block9+0x4cdf>
    2db8: 8d 10 d5     	sta	$d510                   ; 0xd510 <end_block9+0x4ce6>
    2dbb: a6 16        	ldx	$16                     ; 0x2016 <f256main+0x16e8>
    2dbd: 8e 03 d4     	stx	$d403                   ; 0xd403 <end_block9+0x4bd9>
    2dc0: 8e 0a d4     	stx	$d40a                   ; 0xd40a <end_block9+0x4be0>
    2dc3: 8e 11 d4     	stx	$d411                   ; 0xd411 <end_block9+0x4be7>
    2dc6: 8e 03 d5     	stx	$d503                   ; 0xd503 <end_block9+0x4cd9>
    2dc9: 8e 0a d5     	stx	$d50a                   ; 0xd50a <end_block9+0x4ce0>
    2dcc: 8e 11 d5     	stx	$d511                   ; 0xd511 <end_block9+0x4ce7>
    2dcf: 4c 61 2f     	jmp	$2f61 <f256main+0x2633>
    2dd2: a2 0a        	ldx	#$a
    2dd4: 4c 48 1c     	jmp	$1c48 <f256main+0x131a>
    2dd7: a0 3f        	ldy	#$3f
    2dd9: b1 12        	lda	($12),y                 ; 0x2012 <f256main+0x16e4>
    2ddb: aa           	tax
    2ddc: 4a           	lsr
    2ddd: 4a           	lsr
    2dde: 85 16        	sta	$16                     ; 0x2016 <f256main+0x16e8>
    2de0: a5 cf        	lda	$cf                     ; 0x20cf <f256main+0x17a1>
    2de2: a4 d0        	ldy	$d0                     ; 0x20d0 <f256main+0x17a2>
    2de4: 85 12        	sta	$12                     ; 0x2012 <f256main+0x16e4>
    2de6: 84 13        	sty	$13                     ; 0x2013 <f256main+0x16e5>
    2de8: 18           	clc
    2de9: 69 04        	adc	#$4
    2deb: 85 14        	sta	$14                     ; 0x2014 <f256main+0x16e6>
    2ded: 98           	tya
    2dee: 69 00        	adc	#$0
    2df0: 46 16        	lsr	$16                     ; 0x2016 <f256main+0x16e8>
    2df2: 46 16        	lsr	$16                     ; 0x2016 <f256main+0x16e8>
    2df4: 85 15        	sta	$15                     ; 0x2015 <f256main+0x16e7>
    2df6: a0 04        	ldy	#$4
    2df8: b1 12        	lda	($12),y                 ; 0x2012 <f256main+0x16e4>
    2dfa: 85 12        	sta	$12                     ; 0x2012 <f256main+0x16e4>
    2dfc: a0 01        	ldy	#$1
    2dfe: b1 14        	lda	($14),y                 ; 0x2014 <f256main+0x16e6>
    2e00: 85 13        	sta	$13                     ; 0x2013 <f256main+0x16e5>
    2e02: a0 07        	ldy	#$7
    2e04: a5 16        	lda	$16                     ; 0x2016 <f256main+0x16e8>
    2e06: 91 12        	sta	($12),y                 ; 0x2012 <f256main+0x16e4>
    2e08: 8a           	txa
    2e09: 0a           	asl
    2e0a: 0a           	asl
    2e0b: 0a           	asl
    2e0c: 0a           	asl
    2e0d: 85 14        	sta	$14                     ; 0x2014 <f256main+0x16e6>
    2e0f: a9 0f        	lda	#$f
    2e11: 88           	dey
    2e12: 31 12        	and	($12),y                 ; 0x2012 <f256main+0x16e4>
    2e14: 05 14        	ora	$14                     ; 0x2014 <f256main+0x16e6>
    2e16: 91 12        	sta	($12),y                 ; 0x2012 <f256main+0x16e4>
    2e18: 8d 14 d4     	sta	$d414                   ; 0xd414 <end_block9+0x4bea>
    2e1b: 8d 1b d4     	sta	$d41b                   ; 0xd41b <end_block9+0x4bf1>
    2e1e: 8d 22 d4     	sta	$d422                   ; 0xd422 <end_block9+0x4bf8>
    2e21: 8d 14 d5     	sta	$d514                   ; 0xd514 <end_block9+0x4cea>
    2e24: 8d 1b d5     	sta	$d51b                   ; 0xd51b <end_block9+0x4cf1>
    2e27: 8d 22 d5     	sta	$d522                   ; 0xd522 <end_block9+0x4cf8>
    2e2a: a6 16        	ldx	$16                     ; 0x2016 <f256main+0x16e8>
    2e2c: 8e 15 d4     	stx	$d415                   ; 0xd415 <end_block9+0x4beb>
    2e2f: 8e 1c d4     	stx	$d41c                   ; 0xd41c <end_block9+0x4bf2>
    2e32: 8e 23 d4     	stx	$d423                   ; 0xd423 <end_block9+0x4bf9>
    2e35: 8e 15 d5     	stx	$d515                   ; 0xd515 <end_block9+0x4ceb>
    2e38: 8e 1c d5     	stx	$d51c                   ; 0xd51c <end_block9+0x4cf2>
    2e3b: 8e 23 d5     	stx	$d523                   ; 0xd523 <end_block9+0x4cf9>
    2e3e: 4c 61 2f     	jmp	$2f61 <f256main+0x2633>
    2e41: a5 cf        	lda	$cf                     ; 0x20cf <f256main+0x17a1>
    2e43: a6 d0        	ldx	$d0                     ; 0x20d0 <f256main+0x17a2>
    2e45: 85 14        	sta	$14                     ; 0x2014 <f256main+0x16e6>
    2e47: 86 15        	stx	$15                     ; 0x2015 <f256main+0x16e7>
    2e49: 18           	clc
    2e4a: 69 04        	adc	#$4
    2e4c: 85 16        	sta	$16                     ; 0x2016 <f256main+0x16e8>
    2e4e: 8a           	txa
    2e4f: 69 00        	adc	#$0
    2e51: 85 17        	sta	$17                     ; 0x2017 <f256main+0x16e9>
    2e53: a0 3f        	ldy	#$3f
    2e55: b1 12        	lda	($12),y                 ; 0x2012 <f256main+0x16e4>
    2e57: aa           	tax
    2e58: a0 04        	ldy	#$4
    2e5a: b1 14        	lda	($14),y                 ; 0x2014 <f256main+0x16e6>
    2e5c: 85 12        	sta	$12                     ; 0x2012 <f256main+0x16e4>
    2e5e: a0 01        	ldy	#$1
    2e60: b1 16        	lda	($16),y                 ; 0x2016 <f256main+0x16e8>
    2e62: 85 13        	sta	$13                     ; 0x2013 <f256main+0x16e5>
    2e64: a0 09        	ldy	#$9
    2e66: 8a           	txa
    2e67: 91 12        	sta	($12),y                 ; 0x2012 <f256main+0x16e4>
    2e69: c8           	iny
    2e6a: b1 12        	lda	($12),y                 ; 0x2012 <f256main+0x16e4>
    2e6c: 8e 0e d5     	stx	$d50e                   ; 0xd50e <end_block9+0x4ce4>
    2e6f: 8d 0f d5     	sta	$d50f                   ; 0xd50f <end_block9+0x4ce5>
    2e72: 4c 61 2f     	jmp	$2f61 <f256main+0x2633>
    2e75: a5 cf        	lda	$cf                     ; 0x20cf <f256main+0x17a1>
    2e77: a6 d0        	ldx	$d0                     ; 0x20d0 <f256main+0x17a2>
    2e79: 85 14        	sta	$14                     ; 0x2014 <f256main+0x16e6>
    2e7b: 86 15        	stx	$15                     ; 0x2015 <f256main+0x16e7>
    2e7d: 18           	clc
    2e7e: 69 04        	adc	#$4
    2e80: 85 16        	sta	$16                     ; 0x2016 <f256main+0x16e8>
    2e82: 8a           	txa
    2e83: 69 00        	adc	#$0
    2e85: 85 17        	sta	$17                     ; 0x2017 <f256main+0x16e9>
    2e87: a0 04        	ldy	#$4
    2e89: b1 14        	lda	($14),y                 ; 0x2014 <f256main+0x16e6>
    2e8b: 85 14        	sta	$14                     ; 0x2014 <f256main+0x16e6>
    2e8d: a0 01        	ldy	#$1
    2e8f: b1 16        	lda	($16),y                 ; 0x2016 <f256main+0x16e8>
    2e91: 85 15        	sta	$15                     ; 0x2015 <f256main+0x16e7>
    2e93: a9 f0        	lda	#$f0
    2e95: 31 14        	and	($14),y                 ; 0x2014 <f256main+0x16e6>
    2e97: 85 16        	sta	$16                     ; 0x2016 <f256main+0x16e8>
    2e99: a9 0f        	lda	#$f
    2e9b: a0 3f        	ldy	#$3f
    2e9d: 31 12        	and	($12),y                 ; 0x2012 <f256main+0x16e4>
    2e9f: 05 16        	ora	$16                     ; 0x2016 <f256main+0x16e8>
    2ea1: a0 01        	ldy	#$1
    2ea3: 91 14        	sta	($14),y                 ; 0x2014 <f256main+0x16e6>
    2ea5: 85 12        	sta	$12                     ; 0x2012 <f256main+0x16e4>
    2ea7: c8           	iny
    2ea8: b1 14        	lda	($14),y                 ; 0x2014 <f256main+0x16e6>
    2eaa: a4 12        	ldy	$12                     ; 0x2012 <f256main+0x16e4>
    2eac: 8c 02 d4     	sty	$d402                   ; 0xd402 <end_block9+0x4bd8>
    2eaf: 8c 09 d4     	sty	$d409                   ; 0xd409 <end_block9+0x4bdf>
    2eb2: 8c 10 d4     	sty	$d410                   ; 0xd410 <end_block9+0x4be6>
    2eb5: 8c 02 d5     	sty	$d502                   ; 0xd502 <end_block9+0x4cd8>
    2eb8: 8c 09 d5     	sty	$d509                   ; 0xd509 <end_block9+0x4cdf>
    2ebb: 8c 10 d5     	sty	$d510                   ; 0xd510 <end_block9+0x4ce6>
    2ebe: 8d 03 d4     	sta	$d403                   ; 0xd403 <end_block9+0x4bd9>
    2ec1: 8d 0a d4     	sta	$d40a                   ; 0xd40a <end_block9+0x4be0>
    2ec4: 8d 11 d4     	sta	$d411                   ; 0xd411 <end_block9+0x4be7>
    2ec7: 8d 03 d5     	sta	$d503                   ; 0xd503 <end_block9+0x4cd9>
    2eca: 8d 0a d5     	sta	$d50a                   ; 0xd50a <end_block9+0x4ce0>
    2ecd: 8d 11 d5     	sta	$d511                   ; 0xd511 <end_block9+0x4ce7>
    2ed0: 4c 61 2f     	jmp	$2f61 <f256main+0x2633>
    2ed3: a5 cf        	lda	$cf                     ; 0x20cf <f256main+0x17a1>
    2ed5: a6 d0        	ldx	$d0                     ; 0x20d0 <f256main+0x17a2>
    2ed7: 85 14        	sta	$14                     ; 0x2014 <f256main+0x16e6>
    2ed9: 86 15        	stx	$15                     ; 0x2015 <f256main+0x16e7>
    2edb: 18           	clc
    2edc: 69 04        	adc	#$4
    2ede: 85 16        	sta	$16                     ; 0x2016 <f256main+0x16e8>
    2ee0: 8a           	txa
    2ee1: 69 00        	adc	#$0
    2ee3: 85 17        	sta	$17                     ; 0x2017 <f256main+0x16e9>
    2ee5: a0 04        	ldy	#$4
    2ee7: b1 14        	lda	($14),y                 ; 0x2014 <f256main+0x16e6>
    2ee9: 85 14        	sta	$14                     ; 0x2014 <f256main+0x16e6>
    2eeb: a0 01        	ldy	#$1
    2eed: b1 16        	lda	($16),y                 ; 0x2016 <f256main+0x16e8>
    2eef: 85 15        	sta	$15                     ; 0x2015 <f256main+0x16e7>
    2ef1: a9 f0        	lda	#$f0
    2ef3: a0 06        	ldy	#$6
    2ef5: 31 14        	and	($14),y                 ; 0x2014 <f256main+0x16e6>
    2ef7: a0 3f        	ldy	#$3f
    2ef9: 11 12        	ora	($12),y                 ; 0x2012 <f256main+0x16e4>
    2efb: a0 06        	ldy	#$6
    2efd: 91 14        	sta	($14),y                 ; 0x2014 <f256main+0x16e6>
    2eff: 85 12        	sta	$12                     ; 0x2012 <f256main+0x16e4>
    2f01: c8           	iny
    2f02: b1 14        	lda	($14),y                 ; 0x2014 <f256main+0x16e6>
    2f04: a4 12        	ldy	$12                     ; 0x2012 <f256main+0x16e4>
    2f06: 8c 14 d4     	sty	$d414                   ; 0xd414 <end_block9+0x4bea>
    2f09: 8c 1b d4     	sty	$d41b                   ; 0xd41b <end_block9+0x4bf1>
    2f0c: 8c 22 d4     	sty	$d422                   ; 0xd422 <end_block9+0x4bf8>
    2f0f: 8c 14 d5     	sty	$d514                   ; 0xd514 <end_block9+0x4cea>
    2f12: 8c 1b d5     	sty	$d51b                   ; 0xd51b <end_block9+0x4cf1>
    2f15: 8c 22 d5     	sty	$d522                   ; 0xd522 <end_block9+0x4cf8>
    2f18: 8d 15 d4     	sta	$d415                   ; 0xd415 <end_block9+0x4beb>
    2f1b: 8d 1c d4     	sta	$d41c                   ; 0xd41c <end_block9+0x4bf2>
    2f1e: 8d 23 d4     	sta	$d423                   ; 0xd423 <end_block9+0x4bf9>
    2f21: 8d 15 d5     	sta	$d515                   ; 0xd515 <end_block9+0x4ceb>
    2f24: 8d 1c d5     	sta	$d51c                   ; 0xd51c <end_block9+0x4cf2>
    2f27: 8d 23 d5     	sta	$d523                   ; 0xd523 <end_block9+0x4cf9>
    2f2a: 80 35        	bra	$2f61 <f256main+0x2633>
    2f2c: a5 cf        	lda	$cf                     ; 0x20cf <f256main+0x17a1>
    2f2e: a6 d0        	ldx	$d0                     ; 0x20d0 <f256main+0x17a2>
    2f30: 85 14        	sta	$14                     ; 0x2014 <f256main+0x16e6>
    2f32: 86 15        	stx	$15                     ; 0x2015 <f256main+0x16e7>
    2f34: 18           	clc
    2f35: 69 04        	adc	#$4
    2f37: 85 16        	sta	$16                     ; 0x2016 <f256main+0x16e8>
    2f39: 8a           	txa
    2f3a: 69 00        	adc	#$0
    2f3c: 85 17        	sta	$17                     ; 0x2017 <f256main+0x16e9>
    2f3e: a0 3f        	ldy	#$3f
    2f40: b1 12        	lda	($12),y                 ; 0x2012 <f256main+0x16e4>
    2f42: 85 18        	sta	$18                     ; 0x2018 <f256main+0x16ea>
    2f44: a0 04        	ldy	#$4
    2f46: b1 14        	lda	($14),y                 ; 0x2014 <f256main+0x16e6>
    2f48: 85 12        	sta	$12                     ; 0x2012 <f256main+0x16e4>
    2f4a: a0 01        	ldy	#$1
    2f4c: b1 16        	lda	($16),y                 ; 0x2016 <f256main+0x16e8>
    2f4e: 85 13        	sta	$13                     ; 0x2013 <f256main+0x16e5>
    2f50: a0 0a        	ldy	#$a
    2f52: a5 18        	lda	$18                     ; 0x2018 <f256main+0x16ea>
    2f54: 91 12        	sta	($12),y                 ; 0x2012 <f256main+0x16e4>
    2f56: 88           	dey
    2f57: b1 12        	lda	($12),y                 ; 0x2012 <f256main+0x16e4>
    2f59: 8d 0e d5     	sta	$d50e                   ; 0xd50e <end_block9+0x4ce4>
    2f5c: a6 18        	ldx	$18                     ; 0x2018 <f256main+0x16ea>
    2f5e: 8e 0f d5     	stx	$d50f                   ; 0xd50f <end_block9+0x4ce5>
    2f61: a6 9a        	ldx	$9a                     ; 0x209a <f256main+0x176c>
    2f63: a9 01        	lda	#$1
    2f65: 25 9a        	and	$9a                     ; 0x209a <f256main+0x176c>
    2f67: d0 1c        	bne	$2f85 <f256main+0x2657>
    2f69: a0 01        	ldy	#$1
    2f6b: b1 10        	lda	($10),y                 ; 0x2010 <f256main+0x16e2>
    2f6d: 85 12        	sta	$12                     ; 0x2012 <f256main+0x16e4>
    2f6f: a4 24        	ldy	$24                     ; 0x2024 <f256main+0x16f6>
    2f71: a5 12        	lda	$12                     ; 0x2012 <f256main+0x16e4>
    2f73: f0 03        	beq	$2f78 <f256main+0x264a>
    2f75: 4c 7a 17     	jmp	$177a <f256main+0xe4c>
    2f78: 4c 9d 35     	jmp	$359d <f256main+0x2c6f>
    2f7b: a2 0b        	ldx	#$b
    2f7d: 4c 48 1c     	jmp	$1c48 <f256main+0x131a>
    2f80: a2 0c        	ldx	#$c
    2f82: 4c 48 1c     	jmp	$1c48 <f256main+0x131a>
    2f85: a0 01        	ldy	#$1
    2f87: b1 10        	lda	($10),y                 ; 0x2010 <f256main+0x16e2>
    2f89: 85 12        	sta	$12                     ; 0x2012 <f256main+0x16e4>
    2f8b: a4 24        	ldy	$24                     ; 0x2024 <f256main+0x16f6>
    2f8d: a5 12        	lda	$12                     ; 0x2012 <f256main+0x16e4>
    2f8f: d0 03        	bne	$2f94 <f256main+0x2666>
    2f91: 4c 9d 35     	jmp	$359d <f256main+0x2c6f>
    2f94: 98           	tya
    2f95: a0 00        	ldy	#$0
    2f97: 91 10        	sta	($10),y                 ; 0x2010 <f256main+0x16e2>
    2f99: a6 a2        	ldx	$a2                     ; 0x20a2 <f256main+0x1774>
    2f9b: a5 a3        	lda	$a3                     ; 0x20a3 <f256main+0x1775>
    2f9d: c9 80        	cmp	#$80
    2f9f: 6a           	ror
    2fa0: a8           	tay
    2fa1: 8a           	txa
    2fa2: 6a           	ror
    2fa3: 18           	clc
    2fa4: 69 20        	adc	#$20
    2fa6: 85 27        	sta	$27                     ; 0x2027 <f256main+0x16f9>
    2fa8: 85 28        	sta	$28                     ; 0x2028 <f256main+0x16fa>
    2faa: 98           	tya
    2fab: 69 00        	adc	#$0
    2fad: 85 2a        	sta	$2a                     ; 0x202a <f256main+0x16fc>
    2faf: 85 29        	sta	$29                     ; 0x2029 <f256main+0x16fb>
    2fb1: a6 a4        	ldx	$a4                     ; 0x20a4 <f256main+0x1776>
    2fb3: 86 12        	stx	$12                     ; 0x2012 <f256main+0x16e4>
    2fb5: a5 a5        	lda	$a5                     ; 0x20a5 <f256main+0x1777>
    2fb7: c9 80        	cmp	#$80
    2fb9: 6a           	ror
    2fba: aa           	tax
    2fbb: a5 12        	lda	$12                     ; 0x2012 <f256main+0x16e4>
    2fbd: 6a           	ror
    2fbe: 18           	clc
    2fbf: 69 20        	adc	#$20
    2fc1: a0 03        	ldy	#$3
    2fc3: 91 10        	sta	($10),y                 ; 0x2010 <f256main+0x16e2>
    2fc5: a0 01        	ldy	#$1
    2fc7: 91 10        	sta	($10),y                 ; 0x2010 <f256main+0x16e2>
    2fc9: 8a           	txa
    2fca: 69 00        	adc	#$0
    2fcc: 85 2d        	sta	$2d                     ; 0x202d <f256main+0x16ff>
    2fce: 85 2b        	sta	$2b                     ; 0x202b <f256main+0x16fd>
    2fd0: a2 75        	ldx	#$75
    2fd2: 86 24        	stx	$24                     ; 0x2024 <f256main+0x16f6>
    2fd4: a2 82        	ldx	#$82
    2fd6: 86 25        	stx	$25                     ; 0x2025 <f256main+0x16f7>
    2fd8: a2 0f        	ldx	#$f
    2fda: 4c 63 30     	jmp	$3063 <f256main+0x2735>
    2fdd: c5 29        	cmp	$29                     ; 0x2029 <f256main+0x16fb>
    2fdf: b0 03        	bcs	$2fe4 <f256main+0x26b6>
    2fe1: 4c 4f 30     	jmp	$304f <f256main+0x2721>
    2fe4: a5 24        	lda	$24                     ; 0x2024 <f256main+0x16f6>
    2fe6: 18           	clc
    2fe7: 69 03        	adc	#$3
    2fe9: 85 12        	sta	$12                     ; 0x2012 <f256main+0x16e4>
    2feb: a5 25        	lda	$25                     ; 0x2025 <f256main+0x16f7>
    2fed: 69 00        	adc	#$0
    2fef: 85 13        	sta	$13                     ; 0x2013 <f256main+0x16e5>
    2ff1: a0 03        	ldy	#$3
    2ff3: b1 24        	lda	($24),y                 ; 0x2024 <f256main+0x16f6>
    2ff5: 85 14        	sta	$14                     ; 0x2014 <f256main+0x16e6>
    2ff7: a0 01        	ldy	#$1
    2ff9: b1 12        	lda	($12),y                 ; 0x2012 <f256main+0x16e4>
    2ffb: aa           	tax
    2ffc: 18           	clc
    2ffd: a5 14        	lda	$14                     ; 0x2014 <f256main+0x16e6>
    2fff: 85 13        	sta	$13                     ; 0x2013 <f256main+0x16e5>
    3001: a0 10        	ldy	#$10
    3003: 71 24        	adc	($24),y                 ; 0x2024 <f256main+0x16f6>
    3005: a8           	tay
    3006: 8a           	txa
    3007: 86 16        	stx	$16                     ; 0x2016 <f256main+0x16e8>
    3009: 69 00        	adc	#$0
    300b: 85 12        	sta	$12                     ; 0x2012 <f256main+0x16e4>
    300d: a6 2d        	ldx	$2d                     ; 0x202d <f256main+0x16ff>
    300f: e4 12        	cpx	$12                     ; 0x2012 <f256main+0x16e4>
    3011: d0 07        	bne	$301a <f256main+0x26ec>
    3013: 84 12        	sty	$12                     ; 0x2012 <f256main+0x16e4>
    3015: a0 03        	ldy	#$3
    3017: b1 10        	lda	($10),y                 ; 0x2010 <f256main+0x16e2>
    3019: aa           	tax
    301a: e4 12        	cpx	$12                     ; 0x2012 <f256main+0x16e4>
    301c: a6 2c        	ldx	$2c                     ; 0x202c <f256main+0x16fe>
    301e: 90 2f        	bcc	$304f <f256main+0x2721>
    3020: 18           	clc
    3021: a0 11        	ldy	#$11
    3023: a5 13        	lda	$13                     ; 0x2013 <f256main+0x16e5>
    3025: 71 24        	adc	($24),y                 ; 0x2024 <f256main+0x16f6>
    3027: a8           	tay
    3028: a5 16        	lda	$16                     ; 0x2016 <f256main+0x16e8>
    302a: 69 00        	adc	#$0
    302c: c5 2b        	cmp	$2b                     ; 0x202b <f256main+0x16fd>
    302e: d0 0e        	bne	$303e <f256main+0x2710>
    3030: 5a           	phy
    3031: a0 01        	ldy	#$1
    3033: b1 10        	lda	($10),y                 ; 0x2010 <f256main+0x16e2>
    3035: 7a           	ply
    3036: 85 12        	sta	$12                     ; 0x2012 <f256main+0x16e4>
    3038: c4 12        	cpy	$12                     ; 0x2012 <f256main+0x16e4>
    303a: b0 06        	bcs	$3042 <f256main+0x2714>
    303c: 80 11        	bra	$304f <f256main+0x2721>
    303e: c5 2b        	cmp	$2b                     ; 0x202b <f256main+0x16fd>
    3040: 90 0d        	bcc	$304f <f256main+0x2721>
    3042: a6 24        	ldx	$24                     ; 0x2024 <f256main+0x16f6>
    3044: 86 12        	stx	$12                     ; 0x2012 <f256main+0x16e4>
    3046: a6 25        	ldx	$25                     ; 0x2025 <f256main+0x16f7>
    3048: 86 13        	stx	$13                     ; 0x2013 <f256main+0x16e5>
    304a: 20 d8 36     	jsr	$36d8 <dispatchAction>
    304d: a6 2c        	ldx	$2c                     ; 0x202c <f256main+0x16fe>
    304f: ca           	dex
    3050: a5 24        	lda	$24                     ; 0x2024 <f256main+0x16f6>
    3052: 18           	clc
    3053: 69 15        	adc	#$15
    3055: 85 24        	sta	$24                     ; 0x2024 <f256main+0x16f6>
    3057: a5 25        	lda	$25                     ; 0x2025 <f256main+0x16f7>
    3059: 69 00        	adc	#$0
    305b: 85 25        	sta	$25                     ; 0x2025 <f256main+0x16f7>
    305d: 8a           	txa
    305e: d0 03        	bne	$3063 <f256main+0x2735>
    3060: 4c bf 30     	jmp	$30bf <f256main+0x2791>
    3063: 86 2c        	stx	$2c                     ; 0x202c <f256main+0x16fe>
    3065: a6 24        	ldx	$24                     ; 0x2024 <f256main+0x16f6>
    3067: 86 12        	stx	$12                     ; 0x2012 <f256main+0x16e4>
    3069: a6 25        	ldx	$25                     ; 0x2025 <f256main+0x16f7>
    306b: 86 13        	stx	$13                     ; 0x2013 <f256main+0x16e5>
    306d: e6 12        	inc	$12                     ; 0x2012 <f256main+0x16e4>
    306f: d0 02        	bne	$3073 <f256main+0x2745>
    3071: e6 13        	inc	$13                     ; 0x2013 <f256main+0x16e5>
    3073: a0 01        	ldy	#$1
    3075: b1 24        	lda	($24),y                 ; 0x2024 <f256main+0x16f6>
    3077: 85 14        	sta	$14                     ; 0x2014 <f256main+0x16e6>
    3079: b1 12        	lda	($12),y                 ; 0x2012 <f256main+0x16e4>
    307b: aa           	tax
    307c: a5 14        	lda	$14                     ; 0x2014 <f256main+0x16e6>
    307e: 85 13        	sta	$13                     ; 0x2013 <f256main+0x16e5>
    3080: 18           	clc
    3081: a0 0e        	ldy	#$e
    3083: 71 24        	adc	($24),y                 ; 0x2024 <f256main+0x16f6>
    3085: a8           	tay
    3086: 8a           	txa
    3087: 86 14        	stx	$14                     ; 0x2014 <f256main+0x16e6>
    3089: 69 00        	adc	#$0
    308b: 85 12        	sta	$12                     ; 0x2012 <f256main+0x16e4>
    308d: a6 2a        	ldx	$2a                     ; 0x202a <f256main+0x16fc>
    308f: e4 12        	cpx	$12                     ; 0x2012 <f256main+0x16e4>
    3091: d0 04        	bne	$3097 <f256main+0x2769>
    3093: 84 12        	sty	$12                     ; 0x2012 <f256main+0x16e4>
    3095: a6 27        	ldx	$27                     ; 0x2027 <f256main+0x16f9>
    3097: e4 12        	cpx	$12                     ; 0x2012 <f256main+0x16e4>
    3099: a6 2c        	ldx	$2c                     ; 0x202c <f256main+0x16fe>
    309b: 90 b2        	bcc	$304f <f256main+0x2721>
    309d: 18           	clc
    309e: a0 0f        	ldy	#$f
    30a0: a5 13        	lda	$13                     ; 0x2013 <f256main+0x16e5>
    30a2: 71 24        	adc	($24),y                 ; 0x2024 <f256main+0x16f6>
    30a4: a8           	tay
    30a5: a5 14        	lda	$14                     ; 0x2014 <f256main+0x16e6>
    30a7: 69 00        	adc	#$0
    30a9: c5 29        	cmp	$29                     ; 0x2029 <f256main+0x16fb>
    30ab: f0 03        	beq	$30b0 <f256main+0x2782>
    30ad: 4c dd 2f     	jmp	$2fdd <f256main+0x26af>
    30b0: c4 28        	cpy	$28                     ; 0x2028 <f256main+0x16fa>
    30b2: 90 03        	bcc	$30b7 <f256main+0x2789>
    30b4: 4c e4 2f     	jmp	$2fe4 <f256main+0x26b6>
    30b7: 4c 4f 30     	jmp	$304f <f256main+0x2721>
    30ba: a2 0d        	ldx	#$d
    30bc: 4c 48 1c     	jmp	$1c48 <f256main+0x131a>
    30bf: a2 54        	ldx	#$54
    30c1: 86 24        	stx	$24                     ; 0x2024 <f256main+0x16f6>
    30c3: a2 85        	ldx	#$85
    30c5: 86 25        	stx	$25                     ; 0x2025 <f256main+0x16f7>
    30c7: a2 05        	ldx	#$5
    30c9: 4c 55 31     	jmp	$3155 <f256main+0x2827>
    30cc: c5 29        	cmp	$29                     ; 0x2029 <f256main+0x16fb>
    30ce: a6 2c        	ldx	$2c                     ; 0x202c <f256main+0x16fe>
    30d0: b0 03        	bcs	$30d5 <f256main+0x27a7>
    30d2: 4c 42 31     	jmp	$3142 <f256main+0x2814>
    30d5: a5 24        	lda	$24                     ; 0x2024 <f256main+0x16f6>
    30d7: 18           	clc
    30d8: 69 03        	adc	#$3
    30da: 85 12        	sta	$12                     ; 0x2012 <f256main+0x16e4>
    30dc: a5 25        	lda	$25                     ; 0x2025 <f256main+0x16f7>
    30de: 69 00        	adc	#$0
    30e0: 85 13        	sta	$13                     ; 0x2013 <f256main+0x16e5>
    30e2: a0 03        	ldy	#$3
    30e4: b1 24        	lda	($24),y                 ; 0x2024 <f256main+0x16f6>
    30e6: 85 14        	sta	$14                     ; 0x2014 <f256main+0x16e6>
    30e8: a0 01        	ldy	#$1
    30ea: b1 12        	lda	($12),y                 ; 0x2012 <f256main+0x16e4>
    30ec: aa           	tax
    30ed: a5 14        	lda	$14                     ; 0x2014 <f256main+0x16e6>
    30ef: 85 13        	sta	$13                     ; 0x2013 <f256main+0x16e5>
    30f1: 18           	clc
    30f2: a0 10        	ldy	#$10
    30f4: 71 24        	adc	($24),y                 ; 0x2024 <f256main+0x16f6>
    30f6: a8           	tay
    30f7: 8a           	txa
    30f8: 86 16        	stx	$16                     ; 0x2016 <f256main+0x16e8>
    30fa: 69 00        	adc	#$0
    30fc: 85 12        	sta	$12                     ; 0x2012 <f256main+0x16e4>
    30fe: a6 2d        	ldx	$2d                     ; 0x202d <f256main+0x16ff>
    3100: e4 12        	cpx	$12                     ; 0x2012 <f256main+0x16e4>
    3102: d0 07        	bne	$310b <f256main+0x27dd>
    3104: 84 12        	sty	$12                     ; 0x2012 <f256main+0x16e4>
    3106: a0 03        	ldy	#$3
    3108: b1 10        	lda	($10),y                 ; 0x2010 <f256main+0x16e2>
    310a: aa           	tax
    310b: e4 12        	cpx	$12                     ; 0x2012 <f256main+0x16e4>
    310d: a6 2c        	ldx	$2c                     ; 0x202c <f256main+0x16fe>
    310f: 90 31        	bcc	$3142 <f256main+0x2814>
    3111: 18           	clc
    3112: a0 11        	ldy	#$11
    3114: a5 13        	lda	$13                     ; 0x2013 <f256main+0x16e5>
    3116: 71 24        	adc	($24),y                 ; 0x2024 <f256main+0x16f6>
    3118: aa           	tax
    3119: a5 16        	lda	$16                     ; 0x2016 <f256main+0x16e8>
    311b: 69 00        	adc	#$0
    311d: c5 2b        	cmp	$2b                     ; 0x202b <f256main+0x16fd>
    311f: d0 0e        	bne	$312f <f256main+0x2801>
    3121: a0 01        	ldy	#$1
    3123: b1 10        	lda	($10),y                 ; 0x2010 <f256main+0x16e2>
    3125: 85 12        	sta	$12                     ; 0x2012 <f256main+0x16e4>
    3127: e4 12        	cpx	$12                     ; 0x2012 <f256main+0x16e4>
    3129: a6 2c        	ldx	$2c                     ; 0x202c <f256main+0x16fe>
    312b: b0 08        	bcs	$3135 <f256main+0x2807>
    312d: 80 13        	bra	$3142 <f256main+0x2814>
    312f: c5 2b        	cmp	$2b                     ; 0x202b <f256main+0x16fd>
    3131: a6 2c        	ldx	$2c                     ; 0x202c <f256main+0x16fe>
    3133: 90 0d        	bcc	$3142 <f256main+0x2814>
    3135: a6 24        	ldx	$24                     ; 0x2024 <f256main+0x16f6>
    3137: 86 12        	stx	$12                     ; 0x2012 <f256main+0x16e4>
    3139: a6 25        	ldx	$25                     ; 0x2025 <f256main+0x16f7>
    313b: 86 13        	stx	$13                     ; 0x2013 <f256main+0x16e5>
    313d: 20 d8 36     	jsr	$36d8 <dispatchAction>
    3140: a6 2c        	ldx	$2c                     ; 0x202c <f256main+0x16fe>
    3142: a5 24        	lda	$24                     ; 0x2024 <f256main+0x16f6>
    3144: 18           	clc
    3145: 69 30        	adc	#$30
    3147: 85 24        	sta	$24                     ; 0x2024 <f256main+0x16f6>
    3149: a5 25        	lda	$25                     ; 0x2025 <f256main+0x16f7>
    314b: 69 00        	adc	#$0
    314d: 85 25        	sta	$25                     ; 0x2025 <f256main+0x16f7>
    314f: ca           	dex
    3150: d0 03        	bne	$3155 <f256main+0x2827>
    3152: 4c ae 31     	jmp	$31ae <f256main+0x2880>
    3155: 86 2c        	stx	$2c                     ; 0x202c <f256main+0x16fe>
    3157: a6 24        	ldx	$24                     ; 0x2024 <f256main+0x16f6>
    3159: 86 12        	stx	$12                     ; 0x2012 <f256main+0x16e4>
    315b: a6 25        	ldx	$25                     ; 0x2025 <f256main+0x16f7>
    315d: 86 13        	stx	$13                     ; 0x2013 <f256main+0x16e5>
    315f: e6 12        	inc	$12                     ; 0x2012 <f256main+0x16e4>
    3161: d0 02        	bne	$3165 <f256main+0x2837>
    3163: e6 13        	inc	$13                     ; 0x2013 <f256main+0x16e5>
    3165: a0 01        	ldy	#$1
    3167: b1 24        	lda	($24),y                 ; 0x2024 <f256main+0x16f6>
    3169: 85 14        	sta	$14                     ; 0x2014 <f256main+0x16e6>
    316b: b1 12        	lda	($12),y                 ; 0x2012 <f256main+0x16e4>
    316d: aa           	tax
    316e: 18           	clc
    316f: a5 14        	lda	$14                     ; 0x2014 <f256main+0x16e6>
    3171: 85 13        	sta	$13                     ; 0x2013 <f256main+0x16e5>
    3173: a0 0e        	ldy	#$e
    3175: 71 24        	adc	($24),y                 ; 0x2024 <f256main+0x16f6>
    3177: a8           	tay
    3178: 8a           	txa
    3179: 86 14        	stx	$14                     ; 0x2014 <f256main+0x16e6>
    317b: 69 00        	adc	#$0
    317d: 85 12        	sta	$12                     ; 0x2012 <f256main+0x16e4>
    317f: a6 2a        	ldx	$2a                     ; 0x202a <f256main+0x16fc>
    3181: e4 12        	cpx	$12                     ; 0x2012 <f256main+0x16e4>
    3183: d0 04        	bne	$3189 <f256main+0x285b>
    3185: 84 12        	sty	$12                     ; 0x2012 <f256main+0x16e4>
    3187: a6 27        	ldx	$27                     ; 0x2027 <f256main+0x16f9>
    3189: e4 12        	cpx	$12                     ; 0x2012 <f256main+0x16e4>
    318b: a6 2c        	ldx	$2c                     ; 0x202c <f256main+0x16fe>
    318d: 90 b3        	bcc	$3142 <f256main+0x2814>
    318f: 18           	clc
    3190: a0 0f        	ldy	#$f
    3192: a5 13        	lda	$13                     ; 0x2013 <f256main+0x16e5>
    3194: 71 24        	adc	($24),y                 ; 0x2024 <f256main+0x16f6>
    3196: aa           	tax
    3197: a5 14        	lda	$14                     ; 0x2014 <f256main+0x16e6>
    3199: 69 00        	adc	#$0
    319b: c5 29        	cmp	$29                     ; 0x2029 <f256main+0x16fb>
    319d: f0 03        	beq	$31a2 <f256main+0x2874>
    319f: 4c cc 30     	jmp	$30cc <f256main+0x279e>
    31a2: e4 28        	cpx	$28                     ; 0x2028 <f256main+0x16fa>
    31a4: a6 2c        	ldx	$2c                     ; 0x202c <f256main+0x16fe>
    31a6: 90 03        	bcc	$31ab <f256main+0x287d>
    31a8: 4c d5 30     	jmp	$30d5 <f256main+0x27a7>
    31ab: 4c 42 31     	jmp	$3142 <f256main+0x2814>
    31ae: ae 45 86     	ldx	$8645                   ; 0x8645 <dials+0x1>
    31b1: 86 14        	stx	$14                     ; 0x2014 <f256main+0x16e6>
    31b3: ae 46 86     	ldx	$8646                   ; 0x8646 <dials+0x2>
    31b6: ad 52 86     	lda	$8652                   ; 0x8652 <dials+0xe>
    31b9: 18           	clc
    31ba: 6d 45 86     	adc	$8645                   ; 0x8645 <dials+0x1>
    31bd: a8           	tay
    31be: 86 15        	stx	$15                     ; 0x2015 <f256main+0x16e7>
    31c0: 8a           	txa
    31c1: 69 00        	adc	#$0
    31c3: 85 12        	sta	$12                     ; 0x2012 <f256main+0x16e4>
    31c5: a6 2a        	ldx	$2a                     ; 0x202a <f256main+0x16fc>
    31c7: e4 12        	cpx	$12                     ; 0x2012 <f256main+0x16e4>
    31c9: d0 04        	bne	$31cf <f256main+0x28a1>
    31cb: 84 12        	sty	$12                     ; 0x2012 <f256main+0x16e4>
    31cd: a6 27        	ldx	$27                     ; 0x2027 <f256main+0x16f9>
    31cf: e4 12        	cpx	$12                     ; 0x2012 <f256main+0x16e4>
    31d1: a0 00        	ldy	#$0
    31d3: b1 10        	lda	($10),y                 ; 0x2010 <f256main+0x16e2>
    31d5: a8           	tay
    31d6: b0 31        	bcs	$3209 <f256main+0x28db>
    31d8: ae 8d 86     	ldx	$868d                   ; 0x868d <dials+0x49>
    31db: 86 13        	stx	$13                     ; 0x2013 <f256main+0x16e5>
    31dd: ae 8e 86     	ldx	$868e                   ; 0x868e <dials+0x4a>
    31e0: ad 9a 86     	lda	$869a                   ; 0x869a <dials+0x56>
    31e3: 18           	clc
    31e4: 6d 8d 86     	adc	$868d                   ; 0x868d <dials+0x49>
    31e7: 85 15        	sta	$15                     ; 0x2015 <f256main+0x16e7>
    31e9: 86 14        	stx	$14                     ; 0x2014 <f256main+0x16e6>
    31eb: 8a           	txa
    31ec: 69 00        	adc	#$0
    31ee: 85 12        	sta	$12                     ; 0x2012 <f256main+0x16e4>
    31f0: a6 2a        	ldx	$2a                     ; 0x202a <f256main+0x16fc>
    31f2: e4 12        	cpx	$12                     ; 0x2012 <f256main+0x16e4>
    31f4: d0 28        	bne	$321e <f256main+0x28f0>
    31f6: a6 27        	ldx	$27                     ; 0x2027 <f256main+0x16f9>
    31f8: e4 15        	cpx	$15                     ; 0x2015 <f256main+0x16e7>
    31fa: b0 29        	bcs	$3225 <f256main+0x28f7>
    31fc: 4c 03 33     	jmp	$3303 <f256main+0x29d5>
    31ff: a2 0e        	ldx	#$e
    3201: 4c 48 1c     	jmp	$1c48 <f256main+0x131a>
    3204: a2 0f        	ldx	#$f
    3206: 4c 48 1c     	jmp	$1c48 <f256main+0x131a>
    3209: 18           	clc
    320a: a5 14        	lda	$14                     ; 0x2014 <f256main+0x16e6>
    320c: 6d 53 86     	adc	$8653                   ; 0x8653 <dials+0xf>
    320f: aa           	tax
    3210: a5 15        	lda	$15                     ; 0x2015 <f256main+0x16e7>
    3212: 69 00        	adc	#$0
    3214: c5 29        	cmp	$29                     ; 0x2029 <f256main+0x16fb>
    3216: d0 2e        	bne	$3246 <f256main+0x2918>
    3218: e4 28        	cpx	$28                     ; 0x2028 <f256main+0x16fa>
    321a: 90 bc        	bcc	$31d8 <f256main+0x28aa>
    321c: 80 2f        	bra	$324d <f256main+0x291f>
    321e: e4 12        	cpx	$12                     ; 0x2012 <f256main+0x16e4>
    3220: b0 03        	bcs	$3225 <f256main+0x28f7>
    3222: 4c 03 33     	jmp	$3303 <f256main+0x29d5>
    3225: 18           	clc
    3226: a5 13        	lda	$13                     ; 0x2013 <f256main+0x16e5>
    3228: 6d 9b 86     	adc	$869b                   ; 0x869b <dials+0x57>
    322b: aa           	tax
    322c: a5 14        	lda	$14                     ; 0x2014 <f256main+0x16e6>
    322e: 69 00        	adc	#$0
    3230: c5 29        	cmp	$29                     ; 0x2029 <f256main+0x16fb>
    3232: f0 03        	beq	$3237 <f256main+0x2909>
    3234: 4c a1 32     	jmp	$32a1 <f256main+0x2973>
    3237: e4 28        	cpx	$28                     ; 0x2028 <f256main+0x16fa>
    3239: 90 03        	bcc	$323e <f256main+0x2910>
    323b: 4c a8 32     	jmp	$32a8 <f256main+0x297a>
    323e: 4c 03 33     	jmp	$3303 <f256main+0x29d5>
    3241: a2 10        	ldx	#$10
    3243: 4c 48 1c     	jmp	$1c48 <f256main+0x131a>
    3246: c5 29        	cmp	$29                     ; 0x2029 <f256main+0x16fb>
    3248: b0 03        	bcs	$324d <f256main+0x291f>
    324a: 4c d8 31     	jmp	$31d8 <f256main+0x28aa>
    324d: ae 47 86     	ldx	$8647                   ; 0x8647 <dials+0x3>
    3250: 86 13        	stx	$13                     ; 0x2013 <f256main+0x16e5>
    3252: ae 48 86     	ldx	$8648                   ; 0x8648 <dials+0x4>
    3255: ad 54 86     	lda	$8654                   ; 0x8654 <dials+0x10>
    3258: 18           	clc
    3259: 6d 47 86     	adc	$8647                   ; 0x8647 <dials+0x3>
    325c: 85 14        	sta	$14                     ; 0x2014 <f256main+0x16e6>
    325e: 86 16        	stx	$16                     ; 0x2016 <f256main+0x16e8>
    3260: 8a           	txa
    3261: 69 00        	adc	#$0
    3263: 85 12        	sta	$12                     ; 0x2012 <f256main+0x16e4>
    3265: a6 2d        	ldx	$2d                     ; 0x202d <f256main+0x16ff>
    3267: e4 12        	cpx	$12                     ; 0x2012 <f256main+0x16e4>
    3269: d0 0b        	bne	$3276 <f256main+0x2948>
    326b: a6 14        	ldx	$14                     ; 0x2014 <f256main+0x16e6>
    326d: 86 12        	stx	$12                     ; 0x2012 <f256main+0x16e4>
    326f: 5a           	phy
    3270: a0 03        	ldy	#$3
    3272: b1 10        	lda	($10),y                 ; 0x2010 <f256main+0x16e2>
    3274: 7a           	ply
    3275: aa           	tax
    3276: e4 12        	cpx	$12                     ; 0x2012 <f256main+0x16e4>
    3278: b0 03        	bcs	$327d <f256main+0x294f>
    327a: 4c d8 31     	jmp	$31d8 <f256main+0x28aa>
    327d: 18           	clc
    327e: a5 13        	lda	$13                     ; 0x2013 <f256main+0x16e5>
    3280: 6d 55 86     	adc	$8655                   ; 0x8655 <dials+0x11>
    3283: aa           	tax
    3284: a5 16        	lda	$16                     ; 0x2016 <f256main+0x16e8>
    3286: 69 00        	adc	#$0
    3288: c5 2b        	cmp	$2b                     ; 0x202b <f256main+0x16fd>
    328a: f0 03        	beq	$328f <f256main+0x2961>
    328c: 4c 7d 36     	jmp	$367d <f256main+0x2d4f>
    328f: 5a           	phy
    3290: a0 01        	ldy	#$1
    3292: b1 10        	lda	($10),y                 ; 0x2010 <f256main+0x16e2>
    3294: 7a           	ply
    3295: 85 12        	sta	$12                     ; 0x2012 <f256main+0x16e4>
    3297: e4 12        	cpx	$12                     ; 0x2012 <f256main+0x16e4>
    3299: b0 03        	bcs	$329e <f256main+0x2970>
    329b: 4c d8 31     	jmp	$31d8 <f256main+0x28aa>
    329e: 4c 84 36     	jmp	$3684 <f256main+0x2d56>
    32a1: c5 29        	cmp	$29                     ; 0x2029 <f256main+0x16fb>
    32a3: b0 03        	bcs	$32a8 <f256main+0x297a>
    32a5: 4c 03 33     	jmp	$3303 <f256main+0x29d5>
    32a8: ae 8f 86     	ldx	$868f                   ; 0x868f <dials+0x4b>
    32ab: 86 13        	stx	$13                     ; 0x2013 <f256main+0x16e5>
    32ad: ae 90 86     	ldx	$8690                   ; 0x8690 <dials+0x4c>
    32b0: ad 9c 86     	lda	$869c                   ; 0x869c <dials+0x58>
    32b3: 18           	clc
    32b4: 6d 8f 86     	adc	$868f                   ; 0x868f <dials+0x4b>
    32b7: 85 14        	sta	$14                     ; 0x2014 <f256main+0x16e6>
    32b9: 86 16        	stx	$16                     ; 0x2016 <f256main+0x16e8>
    32bb: 8a           	txa
    32bc: 69 00        	adc	#$0
    32be: 85 12        	sta	$12                     ; 0x2012 <f256main+0x16e4>
    32c0: a6 2d        	ldx	$2d                     ; 0x202d <f256main+0x16ff>
    32c2: e4 12        	cpx	$12                     ; 0x2012 <f256main+0x16e4>
    32c4: d0 0b        	bne	$32d1 <f256main+0x29a3>
    32c6: a6 14        	ldx	$14                     ; 0x2014 <f256main+0x16e6>
    32c8: 86 12        	stx	$12                     ; 0x2012 <f256main+0x16e4>
    32ca: 5a           	phy
    32cb: a0 03        	ldy	#$3
    32cd: b1 10        	lda	($10),y                 ; 0x2010 <f256main+0x16e2>
    32cf: 7a           	ply
    32d0: aa           	tax
    32d1: e4 12        	cpx	$12                     ; 0x2012 <f256main+0x16e4>
    32d3: 90 2e        	bcc	$3303 <f256main+0x29d5>
    32d5: 18           	clc
    32d6: a5 13        	lda	$13                     ; 0x2013 <f256main+0x16e5>
    32d8: 6d 9d 86     	adc	$869d                   ; 0x869d <dials+0x59>
    32db: aa           	tax
    32dc: a5 16        	lda	$16                     ; 0x2016 <f256main+0x16e8>
    32de: 69 00        	adc	#$0
    32e0: c5 2b        	cmp	$2b                     ; 0x202b <f256main+0x16fd>
    32e2: f0 03        	beq	$32e7 <f256main+0x29b9>
    32e4: 4c 97 36     	jmp	$3697 <f256main+0x2d69>
    32e7: 5a           	phy
    32e8: a0 01        	ldy	#$1
    32ea: b1 10        	lda	($10),y                 ; 0x2010 <f256main+0x16e2>
    32ec: 7a           	ply
    32ed: 85 12        	sta	$12                     ; 0x2012 <f256main+0x16e4>
    32ef: e4 12        	cpx	$12                     ; 0x2012 <f256main+0x16e4>
    32f1: 90 10        	bcc	$3303 <f256main+0x29d5>
    32f3: a2 8c        	ldx	#$8c
    32f5: 86 12        	stx	$12                     ; 0x2012 <f256main+0x16e4>
    32f7: a2 86        	ldx	#$86
    32f9: 86 13        	stx	$13                     ; 0x2013 <f256main+0x16e5>
    32fb: 20 d8 36     	jsr	$36d8 <dispatchAction>
    32fe: a0 00        	ldy	#$0
    3300: b1 10        	lda	($10),y                 ; 0x2010 <f256main+0x16e2>
    3302: a8           	tay
    3303: ae d5 86     	ldx	$86d5                   ; 0x86d5 <dials+0x91>
    3306: 86 13        	stx	$13                     ; 0x2013 <f256main+0x16e5>
    3308: ae d6 86     	ldx	$86d6                   ; 0x86d6 <dials+0x92>
    330b: ad e2 86     	lda	$86e2                   ; 0x86e2 <dials+0x9e>
    330e: 18           	clc
    330f: 6d d5 86     	adc	$86d5                   ; 0x86d5 <dials+0x91>
    3312: 85 15        	sta	$15                     ; 0x2015 <f256main+0x16e7>
    3314: 86 14        	stx	$14                     ; 0x2014 <f256main+0x16e6>
    3316: 8a           	txa
    3317: 69 00        	adc	#$0
    3319: 85 12        	sta	$12                     ; 0x2012 <f256main+0x16e4>
    331b: a6 2a        	ldx	$2a                     ; 0x202a <f256main+0x16fc>
    331d: e4 12        	cpx	$12                     ; 0x2012 <f256main+0x16e4>
    331f: d0 09        	bne	$332a <f256main+0x29fc>
    3321: a6 27        	ldx	$27                     ; 0x2027 <f256main+0x16f9>
    3323: e4 15        	cpx	$15                     ; 0x2015 <f256main+0x16e7>
    3325: b0 0a        	bcs	$3331 <f256main+0x2a03>
    3327: 4c a9 33     	jmp	$33a9 <f256main+0x2a7b>
    332a: e4 12        	cpx	$12                     ; 0x2012 <f256main+0x16e4>
    332c: b0 03        	bcs	$3331 <f256main+0x2a03>
    332e: 4c a9 33     	jmp	$33a9 <f256main+0x2a7b>
    3331: 18           	clc
    3332: a5 13        	lda	$13                     ; 0x2013 <f256main+0x16e5>
    3334: 6d e3 86     	adc	$86e3                   ; 0x86e3 <dials+0x9f>
    3337: aa           	tax
    3338: a5 14        	lda	$14                     ; 0x2014 <f256main+0x16e6>
    333a: 69 00        	adc	#$0
    333c: c5 29        	cmp	$29                     ; 0x2029 <f256main+0x16fb>
    333e: d0 07        	bne	$3347 <f256main+0x2a19>
    3340: e4 28        	cpx	$28                     ; 0x2028 <f256main+0x16fa>
    3342: b0 0a        	bcs	$334e <f256main+0x2a20>
    3344: 4c a9 33     	jmp	$33a9 <f256main+0x2a7b>
    3347: c5 29        	cmp	$29                     ; 0x2029 <f256main+0x16fb>
    3349: b0 03        	bcs	$334e <f256main+0x2a20>
    334b: 4c a9 33     	jmp	$33a9 <f256main+0x2a7b>
    334e: ae d7 86     	ldx	$86d7                   ; 0x86d7 <dials+0x93>
    3351: 86 13        	stx	$13                     ; 0x2013 <f256main+0x16e5>
    3353: ae d8 86     	ldx	$86d8                   ; 0x86d8 <dials+0x94>
    3356: ad e4 86     	lda	$86e4                   ; 0x86e4 <dials+0xa0>
    3359: 18           	clc
    335a: 6d d7 86     	adc	$86d7                   ; 0x86d7 <dials+0x93>
    335d: 85 14        	sta	$14                     ; 0x2014 <f256main+0x16e6>
    335f: 86 16        	stx	$16                     ; 0x2016 <f256main+0x16e8>
    3361: 8a           	txa
    3362: 69 00        	adc	#$0
    3364: 85 12        	sta	$12                     ; 0x2012 <f256main+0x16e4>
    3366: a6 2d        	ldx	$2d                     ; 0x202d <f256main+0x16ff>
    3368: e4 12        	cpx	$12                     ; 0x2012 <f256main+0x16e4>
    336a: d0 0b        	bne	$3377 <f256main+0x2a49>
    336c: a6 14        	ldx	$14                     ; 0x2014 <f256main+0x16e6>
    336e: 86 12        	stx	$12                     ; 0x2012 <f256main+0x16e4>
    3370: 5a           	phy
    3371: a0 03        	ldy	#$3
    3373: b1 10        	lda	($10),y                 ; 0x2010 <f256main+0x16e2>
    3375: 7a           	ply
    3376: aa           	tax
    3377: e4 12        	cpx	$12                     ; 0x2012 <f256main+0x16e4>
    3379: 90 2e        	bcc	$33a9 <f256main+0x2a7b>
    337b: 18           	clc
    337c: a5 13        	lda	$13                     ; 0x2013 <f256main+0x16e5>
    337e: 6d e5 86     	adc	$86e5                   ; 0x86e5 <dials+0xa1>
    3381: aa           	tax
    3382: a5 16        	lda	$16                     ; 0x2016 <f256main+0x16e8>
    3384: 69 00        	adc	#$0
    3386: c5 2b        	cmp	$2b                     ; 0x202b <f256main+0x16fd>
    3388: f0 03        	beq	$338d <f256main+0x2a5f>
    338a: 4c a1 36     	jmp	$36a1 <f256main+0x2d73>
    338d: 5a           	phy
    338e: a0 01        	ldy	#$1
    3390: b1 10        	lda	($10),y                 ; 0x2010 <f256main+0x16e2>
    3392: 7a           	ply
    3393: 85 12        	sta	$12                     ; 0x2012 <f256main+0x16e4>
    3395: e4 12        	cpx	$12                     ; 0x2012 <f256main+0x16e4>
    3397: 90 10        	bcc	$33a9 <f256main+0x2a7b>
    3399: a2 d4        	ldx	#$d4
    339b: 86 12        	stx	$12                     ; 0x2012 <f256main+0x16e4>
    339d: a2 86        	ldx	#$86
    339f: 86 13        	stx	$13                     ; 0x2013 <f256main+0x16e5>
    33a1: 20 d8 36     	jsr	$36d8 <dispatchAction>
    33a4: a0 00        	ldy	#$0
    33a6: b1 10        	lda	($10),y                 ; 0x2010 <f256main+0x16e2>
    33a8: a8           	tay
    33a9: ae 1d 87     	ldx	$871d                   ; 0x871d <dials+0xd9>
    33ac: 86 13        	stx	$13                     ; 0x2013 <f256main+0x16e5>
    33ae: ae 1e 87     	ldx	$871e                   ; 0x871e <dials+0xda>
    33b1: ad 2a 87     	lda	$872a                   ; 0x872a <dials+0xe6>
    33b4: 18           	clc
    33b5: 6d 1d 87     	adc	$871d                   ; 0x871d <dials+0xd9>
    33b8: 85 15        	sta	$15                     ; 0x2015 <f256main+0x16e7>
    33ba: 86 14        	stx	$14                     ; 0x2014 <f256main+0x16e6>
    33bc: 8a           	txa
    33bd: 69 00        	adc	#$0
    33bf: 85 12        	sta	$12                     ; 0x2012 <f256main+0x16e4>
    33c1: a6 2a        	ldx	$2a                     ; 0x202a <f256main+0x16fc>
    33c3: e4 12        	cpx	$12                     ; 0x2012 <f256main+0x16e4>
    33c5: d0 09        	bne	$33d0 <f256main+0x2aa2>
    33c7: a6 27        	ldx	$27                     ; 0x2027 <f256main+0x16f9>
    33c9: e4 15        	cpx	$15                     ; 0x2015 <f256main+0x16e7>
    33cb: b0 0a        	bcs	$33d7 <f256main+0x2aa9>
    33cd: 4c 4f 34     	jmp	$344f <f256main+0x2b21>
    33d0: e4 12        	cpx	$12                     ; 0x2012 <f256main+0x16e4>
    33d2: b0 03        	bcs	$33d7 <f256main+0x2aa9>
    33d4: 4c 4f 34     	jmp	$344f <f256main+0x2b21>
    33d7: 18           	clc
    33d8: a5 13        	lda	$13                     ; 0x2013 <f256main+0x16e5>
    33da: 6d 2b 87     	adc	$872b                   ; 0x872b <dials+0xe7>
    33dd: aa           	tax
    33de: a5 14        	lda	$14                     ; 0x2014 <f256main+0x16e6>
    33e0: 69 00        	adc	#$0
    33e2: c5 29        	cmp	$29                     ; 0x2029 <f256main+0x16fb>
    33e4: d0 07        	bne	$33ed <f256main+0x2abf>
    33e6: e4 28        	cpx	$28                     ; 0x2028 <f256main+0x16fa>
    33e8: b0 0a        	bcs	$33f4 <f256main+0x2ac6>
    33ea: 4c 4f 34     	jmp	$344f <f256main+0x2b21>
    33ed: c5 29        	cmp	$29                     ; 0x2029 <f256main+0x16fb>
    33ef: b0 03        	bcs	$33f4 <f256main+0x2ac6>
    33f1: 4c 4f 34     	jmp	$344f <f256main+0x2b21>
    33f4: ae 1f 87     	ldx	$871f                   ; 0x871f <dials+0xdb>
    33f7: 86 13        	stx	$13                     ; 0x2013 <f256main+0x16e5>
    33f9: ae 20 87     	ldx	$8720                   ; 0x8720 <dials+0xdc>
    33fc: ad 2c 87     	lda	$872c                   ; 0x872c <dials+0xe8>
    33ff: 18           	clc
    3400: 6d 1f 87     	adc	$871f                   ; 0x871f <dials+0xdb>
    3403: 85 14        	sta	$14                     ; 0x2014 <f256main+0x16e6>
    3405: 86 16        	stx	$16                     ; 0x2016 <f256main+0x16e8>
    3407: 8a           	txa
    3408: 69 00        	adc	#$0
    340a: 85 12        	sta	$12                     ; 0x2012 <f256main+0x16e4>
    340c: a6 2d        	ldx	$2d                     ; 0x202d <f256main+0x16ff>
    340e: e4 12        	cpx	$12                     ; 0x2012 <f256main+0x16e4>
    3410: d0 0b        	bne	$341d <f256main+0x2aef>
    3412: a6 14        	ldx	$14                     ; 0x2014 <f256main+0x16e6>
    3414: 86 12        	stx	$12                     ; 0x2012 <f256main+0x16e4>
    3416: 5a           	phy
    3417: a0 03        	ldy	#$3
    3419: b1 10        	lda	($10),y                 ; 0x2010 <f256main+0x16e2>
    341b: 7a           	ply
    341c: aa           	tax
    341d: e4 12        	cpx	$12                     ; 0x2012 <f256main+0x16e4>
    341f: 90 2e        	bcc	$344f <f256main+0x2b21>
    3421: 18           	clc
    3422: a5 13        	lda	$13                     ; 0x2013 <f256main+0x16e5>
    3424: 6d 2d 87     	adc	$872d                   ; 0x872d <dials+0xe9>
    3427: aa           	tax
    3428: a5 16        	lda	$16                     ; 0x2016 <f256main+0x16e8>
    342a: 69 00        	adc	#$0
    342c: c5 2b        	cmp	$2b                     ; 0x202b <f256main+0x16fd>
    342e: f0 03        	beq	$3433 <f256main+0x2b05>
    3430: 4c ab 36     	jmp	$36ab <f256main+0x2d7d>
    3433: 5a           	phy
    3434: a0 01        	ldy	#$1
    3436: b1 10        	lda	($10),y                 ; 0x2010 <f256main+0x16e2>
    3438: 7a           	ply
    3439: 85 12        	sta	$12                     ; 0x2012 <f256main+0x16e4>
    343b: e4 12        	cpx	$12                     ; 0x2012 <f256main+0x16e4>
    343d: 90 10        	bcc	$344f <f256main+0x2b21>
    343f: a2 1c        	ldx	#$1c
    3441: 86 12        	stx	$12                     ; 0x2012 <f256main+0x16e4>
    3443: a2 87        	ldx	#$87
    3445: 86 13        	stx	$13                     ; 0x2013 <f256main+0x16e5>
    3447: 20 d8 36     	jsr	$36d8 <dispatchAction>
    344a: a0 00        	ldy	#$0
    344c: b1 10        	lda	($10),y                 ; 0x2010 <f256main+0x16e2>
    344e: a8           	tay
    344f: ae 65 87     	ldx	$8765                   ; 0x8765 <dials+0x121>
    3452: 86 13        	stx	$13                     ; 0x2013 <f256main+0x16e5>
    3454: ae 66 87     	ldx	$8766                   ; 0x8766 <dials+0x122>
    3457: ad 72 87     	lda	$8772                   ; 0x8772 <dials+0x12e>
    345a: 18           	clc
    345b: 6d 65 87     	adc	$8765                   ; 0x8765 <dials+0x121>
    345e: 85 15        	sta	$15                     ; 0x2015 <f256main+0x16e7>
    3460: 86 14        	stx	$14                     ; 0x2014 <f256main+0x16e6>
    3462: 8a           	txa
    3463: 69 00        	adc	#$0
    3465: 85 12        	sta	$12                     ; 0x2012 <f256main+0x16e4>
    3467: a6 2a        	ldx	$2a                     ; 0x202a <f256main+0x16fc>
    3469: e4 12        	cpx	$12                     ; 0x2012 <f256main+0x16e4>
    346b: d0 09        	bne	$3476 <f256main+0x2b48>
    346d: a6 27        	ldx	$27                     ; 0x2027 <f256main+0x16f9>
    346f: e4 15        	cpx	$15                     ; 0x2015 <f256main+0x16e7>
    3471: b0 0a        	bcs	$347d <f256main+0x2b4f>
    3473: 4c f5 34     	jmp	$34f5 <f256main+0x2bc7>
    3476: e4 12        	cpx	$12                     ; 0x2012 <f256main+0x16e4>
    3478: b0 03        	bcs	$347d <f256main+0x2b4f>
    347a: 4c f5 34     	jmp	$34f5 <f256main+0x2bc7>
    347d: 18           	clc
    347e: a5 13        	lda	$13                     ; 0x2013 <f256main+0x16e5>
    3480: 6d 73 87     	adc	$8773                   ; 0x8773 <dials+0x12f>
    3483: aa           	tax
    3484: a5 14        	lda	$14                     ; 0x2014 <f256main+0x16e6>
    3486: 69 00        	adc	#$0
    3488: c5 29        	cmp	$29                     ; 0x2029 <f256main+0x16fb>
    348a: d0 07        	bne	$3493 <f256main+0x2b65>
    348c: e4 28        	cpx	$28                     ; 0x2028 <f256main+0x16fa>
    348e: b0 0a        	bcs	$349a <f256main+0x2b6c>
    3490: 4c f5 34     	jmp	$34f5 <f256main+0x2bc7>
    3493: c5 29        	cmp	$29                     ; 0x2029 <f256main+0x16fb>
    3495: b0 03        	bcs	$349a <f256main+0x2b6c>
    3497: 4c f5 34     	jmp	$34f5 <f256main+0x2bc7>
    349a: ae 67 87     	ldx	$8767                   ; 0x8767 <dials+0x123>
    349d: 86 13        	stx	$13                     ; 0x2013 <f256main+0x16e5>
    349f: ae 68 87     	ldx	$8768                   ; 0x8768 <dials+0x124>
    34a2: ad 74 87     	lda	$8774                   ; 0x8774 <dials+0x130>
    34a5: 18           	clc
    34a6: 6d 67 87     	adc	$8767                   ; 0x8767 <dials+0x123>
    34a9: 85 14        	sta	$14                     ; 0x2014 <f256main+0x16e6>
    34ab: 86 16        	stx	$16                     ; 0x2016 <f256main+0x16e8>
    34ad: 8a           	txa
    34ae: 69 00        	adc	#$0
    34b0: 85 12        	sta	$12                     ; 0x2012 <f256main+0x16e4>
    34b2: a6 2d        	ldx	$2d                     ; 0x202d <f256main+0x16ff>
    34b4: e4 12        	cpx	$12                     ; 0x2012 <f256main+0x16e4>
    34b6: d0 0b        	bne	$34c3 <f256main+0x2b95>
    34b8: a6 14        	ldx	$14                     ; 0x2014 <f256main+0x16e6>
    34ba: 86 12        	stx	$12                     ; 0x2012 <f256main+0x16e4>
    34bc: 5a           	phy
    34bd: a0 03        	ldy	#$3
    34bf: b1 10        	lda	($10),y                 ; 0x2010 <f256main+0x16e2>
    34c1: 7a           	ply
    34c2: aa           	tax
    34c3: e4 12        	cpx	$12                     ; 0x2012 <f256main+0x16e4>
    34c5: 90 2e        	bcc	$34f5 <f256main+0x2bc7>
    34c7: 18           	clc
    34c8: a5 13        	lda	$13                     ; 0x2013 <f256main+0x16e5>
    34ca: 6d 75 87     	adc	$8775                   ; 0x8775 <dials+0x131>
    34cd: aa           	tax
    34ce: a5 16        	lda	$16                     ; 0x2016 <f256main+0x16e8>
    34d0: 69 00        	adc	#$0
    34d2: c5 2b        	cmp	$2b                     ; 0x202b <f256main+0x16fd>
    34d4: f0 03        	beq	$34d9 <f256main+0x2bab>
    34d6: 4c b5 36     	jmp	$36b5 <f256main+0x2d87>
    34d9: 5a           	phy
    34da: a0 01        	ldy	#$1
    34dc: b1 10        	lda	($10),y                 ; 0x2010 <f256main+0x16e2>
    34de: 7a           	ply
    34df: 85 12        	sta	$12                     ; 0x2012 <f256main+0x16e4>
    34e1: e4 12        	cpx	$12                     ; 0x2012 <f256main+0x16e4>
    34e3: 90 10        	bcc	$34f5 <f256main+0x2bc7>
    34e5: a2 64        	ldx	#$64
    34e7: 86 12        	stx	$12                     ; 0x2012 <f256main+0x16e4>
    34e9: a2 87        	ldx	#$87
    34eb: 86 13        	stx	$13                     ; 0x2013 <f256main+0x16e5>
    34ed: 20 d8 36     	jsr	$36d8 <dispatchAction>
    34f0: a0 00        	ldy	#$0
    34f2: b1 10        	lda	($10),y                 ; 0x2010 <f256main+0x16e2>
    34f4: a8           	tay
    34f5: ae ad 87     	ldx	$87ad                   ; 0x87ad <dials+0x169>
    34f8: 86 13        	stx	$13                     ; 0x2013 <f256main+0x16e5>
    34fa: ae ae 87     	ldx	$87ae                   ; 0x87ae <dials+0x16a>
    34fd: ad ba 87     	lda	$87ba                   ; 0x87ba <dials+0x176>
    3500: 18           	clc
    3501: 6d ad 87     	adc	$87ad                   ; 0x87ad <dials+0x169>
    3504: 85 15        	sta	$15                     ; 0x2015 <f256main+0x16e7>
    3506: 86 14        	stx	$14                     ; 0x2014 <f256main+0x16e6>
    3508: 8a           	txa
    3509: 69 00        	adc	#$0
    350b: 85 12        	sta	$12                     ; 0x2012 <f256main+0x16e4>
    350d: a6 2a        	ldx	$2a                     ; 0x202a <f256main+0x16fc>
    350f: e4 12        	cpx	$12                     ; 0x2012 <f256main+0x16e4>
    3511: d0 09        	bne	$351c <f256main+0x2bee>
    3513: a6 27        	ldx	$27                     ; 0x2027 <f256main+0x16f9>
    3515: e4 15        	cpx	$15                     ; 0x2015 <f256main+0x16e7>
    3517: b0 0a        	bcs	$3523 <f256main+0x2bf5>
    3519: 4c 9b 35     	jmp	$359b <f256main+0x2c6d>
    351c: e4 12        	cpx	$12                     ; 0x2012 <f256main+0x16e4>
    351e: b0 03        	bcs	$3523 <f256main+0x2bf5>
    3520: 4c 9b 35     	jmp	$359b <f256main+0x2c6d>
    3523: 18           	clc
    3524: a5 13        	lda	$13                     ; 0x2013 <f256main+0x16e5>
    3526: 6d bb 87     	adc	$87bb                   ; 0x87bb <dials+0x177>
    3529: aa           	tax
    352a: a5 14        	lda	$14                     ; 0x2014 <f256main+0x16e6>
    352c: 69 00        	adc	#$0
    352e: c5 29        	cmp	$29                     ; 0x2029 <f256main+0x16fb>
    3530: d0 07        	bne	$3539 <f256main+0x2c0b>
    3532: e4 28        	cpx	$28                     ; 0x2028 <f256main+0x16fa>
    3534: b0 0a        	bcs	$3540 <f256main+0x2c12>
    3536: 4c 9b 35     	jmp	$359b <f256main+0x2c6d>
    3539: c5 29        	cmp	$29                     ; 0x2029 <f256main+0x16fb>
    353b: b0 03        	bcs	$3540 <f256main+0x2c12>
    353d: 4c 9b 35     	jmp	$359b <f256main+0x2c6d>
    3540: ae af 87     	ldx	$87af                   ; 0x87af <dials+0x16b>
    3543: 86 13        	stx	$13                     ; 0x2013 <f256main+0x16e5>
    3545: ae b0 87     	ldx	$87b0                   ; 0x87b0 <dials+0x16c>
    3548: ad bc 87     	lda	$87bc                   ; 0x87bc <dials+0x178>
    354b: 18           	clc
    354c: 6d af 87     	adc	$87af                   ; 0x87af <dials+0x16b>
    354f: 85 14        	sta	$14                     ; 0x2014 <f256main+0x16e6>
    3551: 86 16        	stx	$16                     ; 0x2016 <f256main+0x16e8>
    3553: 8a           	txa
    3554: 69 00        	adc	#$0
    3556: 85 12        	sta	$12                     ; 0x2012 <f256main+0x16e4>
    3558: a6 2d        	ldx	$2d                     ; 0x202d <f256main+0x16ff>
    355a: e4 12        	cpx	$12                     ; 0x2012 <f256main+0x16e4>
    355c: d0 0b        	bne	$3569 <f256main+0x2c3b>
    355e: a6 14        	ldx	$14                     ; 0x2014 <f256main+0x16e6>
    3560: 86 12        	stx	$12                     ; 0x2012 <f256main+0x16e4>
    3562: 5a           	phy
    3563: a0 03        	ldy	#$3
    3565: b1 10        	lda	($10),y                 ; 0x2010 <f256main+0x16e2>
    3567: 7a           	ply
    3568: aa           	tax
    3569: e4 12        	cpx	$12                     ; 0x2012 <f256main+0x16e4>
    356b: 90 2e        	bcc	$359b <f256main+0x2c6d>
    356d: 18           	clc
    356e: a5 13        	lda	$13                     ; 0x2013 <f256main+0x16e5>
    3570: 6d bd 87     	adc	$87bd                   ; 0x87bd <dials+0x179>
    3573: aa           	tax
    3574: a5 16        	lda	$16                     ; 0x2016 <f256main+0x16e8>
    3576: 69 00        	adc	#$0
    3578: c5 2b        	cmp	$2b                     ; 0x202b <f256main+0x16fd>
    357a: f0 03        	beq	$357f <f256main+0x2c51>
    357c: 4c bf 36     	jmp	$36bf <f256main+0x2d91>
    357f: 5a           	phy
    3580: a0 01        	ldy	#$1
    3582: b1 10        	lda	($10),y                 ; 0x2010 <f256main+0x16e2>
    3584: 7a           	ply
    3585: 85 12        	sta	$12                     ; 0x2012 <f256main+0x16e4>
    3587: e4 12        	cpx	$12                     ; 0x2012 <f256main+0x16e4>
    3589: 90 10        	bcc	$359b <f256main+0x2c6d>
    358b: a2 ac        	ldx	#$ac
    358d: 86 12        	stx	$12                     ; 0x2012 <f256main+0x16e4>
    358f: a2 87        	ldx	#$87
    3591: 86 13        	stx	$13                     ; 0x2013 <f256main+0x16e5>
    3593: 20 d8 36     	jsr	$36d8 <dispatchAction>
    3596: a0 00        	ldy	#$0
    3598: b1 10        	lda	($10),y                 ; 0x2010 <f256main+0x16e2>
    359a: a8           	tay
    359b: a6 9a        	ldx	$9a                     ; 0x209a <f256main+0x176c>
    359d: 8a           	txa
    359e: 29 01        	and	#$1
    35a0: a2 01        	ldx	#$1
    35a2: c9 00        	cmp	#$0
    35a4: f0 02        	beq	$35a8 <f256main+0x2c7a>
    35a6: a2 00        	ldx	#$0
    35a8: 8a           	txa
    35a9: 5a           	phy
    35aa: a0 01        	ldy	#$1
    35ac: 91 10        	sta	($10),y                 ; 0x2010 <f256main+0x16e2>
    35ae: 7a           	ply
    35af: 8a           	txa
    35b0: d0 03        	bne	$35b5 <f256main+0x2c87>
    35b2: 4c 7a 17     	jmp	$177a <f256main+0xe4c>
    35b5: a5 a0        	lda	$a0                     ; 0x20a0 <f256main+0x1772>
    35b7: c9 ff        	cmp	#$ff
    35b9: d0 03        	bne	$35be <f256main+0x2c90>
    35bb: 4c 15 36     	jmp	$3615 <f256main+0x2ce7>
    35be: 0a           	asl
    35bf: 64 12        	stz	$12                     ; 0x2012 <f256main+0x16e4>
    35c1: 26 12        	rol	$12                     ; 0x2012 <f256main+0x16e4>
    35c3: 0a           	asl
    35c4: 26 12        	rol	$12                     ; 0x2012 <f256main+0x16e4>
    35c6: 0a           	asl
    35c7: 26 12        	rol	$12                     ; 0x2012 <f256main+0x16e4>
    35c9: 0a           	asl
    35ca: 85 13        	sta	$13                     ; 0x2013 <f256main+0x16e5>
    35cc: 26 12        	rol	$12                     ; 0x2012 <f256main+0x16e4>
    35ce: 0a           	asl
    35cf: a6 12        	ldx	$12                     ; 0x2012 <f256main+0x16e4>
    35d1: 86 14        	stx	$14                     ; 0x2014 <f256main+0x16e6>
    35d3: 26 14        	rol	$14                     ; 0x2014 <f256main+0x16e6>
    35d5: 18           	clc
    35d6: 65 13        	adc	$13                     ; 0x2013 <f256main+0x16e5>
    35d8: 85 13        	sta	$13                     ; 0x2013 <f256main+0x16e5>
    35da: a5 14        	lda	$14                     ; 0x2014 <f256main+0x16e6>
    35dc: 65 12        	adc	$12                     ; 0x2012 <f256main+0x16e4>
    35de: 85 12        	sta	$12                     ; 0x2012 <f256main+0x16e4>
    35e0: a9 54        	lda	#$54
    35e2: 18           	clc
    35e3: 65 13        	adc	$13                     ; 0x2013 <f256main+0x16e5>
    35e5: aa           	tax
    35e6: a9 85        	lda	#$85
    35e8: 65 12        	adc	$12                     ; 0x2012 <f256main+0x16e4>
    35ea: 86 12        	stx	$12                     ; 0x2012 <f256main+0x16e4>
    35ec: 85 13        	sta	$13                     ; 0x2013 <f256main+0x16e5>
    35ee: a9 00        	lda	#$0
    35f0: 84 14        	sty	$14                     ; 0x2014 <f256main+0x16e6>
    35f2: a0 06        	ldy	#$6
    35f4: 91 12        	sta	($12),y                 ; 0x2012 <f256main+0x16e4>
    35f6: a2 ff        	ldx	#$ff
    35f8: 86 a0        	stx	$a0                     ; 0x20a0 <f256main+0x1772>
    35fa: a2 01        	ldx	#$1
    35fc: 8e e0 d6     	stx	$d6e0                   ; 0xd6e0 <end_block9+0x4eb6>
    35ff: a6 a6        	ldx	$a6                     ; 0x20a6 <f256main+0x1778>
    3601: a4 a7        	ldy	$a7                     ; 0x20a7 <f256main+0x1779>
    3603: 8e e2 d6     	stx	$d6e2                   ; 0xd6e2 <end_block9+0x4eb8>
    3606: 8c e3 d6     	sty	$d6e3                   ; 0xd6e3 <end_block9+0x4eb9>
    3609: a6 a8        	ldx	$a8                     ; 0x20a8 <f256main+0x177a>
    360b: a4 a9        	ldy	$a9                     ; 0x20a9 <f256main+0x177b>
    360d: 8e e4 d6     	stx	$d6e4                   ; 0xd6e4 <end_block9+0x4eba>
    3610: 8c e5 d6     	sty	$d6e5                   ; 0xd6e5 <end_block9+0x4ebb>
    3613: a4 14        	ldy	$14                     ; 0x2014 <f256main+0x16e6>
    3615: a5 9f        	lda	$9f                     ; 0x209f <f256main+0x1771>
    3617: c9 ff        	cmp	#$ff
    3619: d0 03        	bne	$361e <f256main+0x2cf0>
    361b: 4c 7a 17     	jmp	$177a <f256main+0xe4c>
    361e: 0a           	asl
    361f: 64 12        	stz	$12                     ; 0x2012 <f256main+0x16e4>
    3621: 26 12        	rol	$12                     ; 0x2012 <f256main+0x16e4>
    3623: 0a           	asl
    3624: 26 12        	rol	$12                     ; 0x2012 <f256main+0x16e4>
    3626: 0a           	asl
    3627: 85 13        	sta	$13                     ; 0x2013 <f256main+0x16e5>
    3629: 26 12        	rol	$12                     ; 0x2012 <f256main+0x16e4>
    362b: 0a           	asl
    362c: aa           	tax
    362d: a5 12        	lda	$12                     ; 0x2012 <f256main+0x16e4>
    362f: 2a           	rol
    3630: 86 14        	stx	$14                     ; 0x2014 <f256main+0x16e6>
    3632: 06 14        	asl	$14                     ; 0x2014 <f256main+0x16e6>
    3634: 2a           	rol
    3635: 06 14        	asl	$14                     ; 0x2014 <f256main+0x16e6>
    3637: 2a           	rol
    3638: aa           	tax
    3639: 18           	clc
    363a: a5 14        	lda	$14                     ; 0x2014 <f256main+0x16e6>
    363c: 65 13        	adc	$13                     ; 0x2013 <f256main+0x16e5>
    363e: 85 13        	sta	$13                     ; 0x2013 <f256main+0x16e5>
    3640: 8a           	txa
    3641: 65 12        	adc	$12                     ; 0x2012 <f256main+0x16e4>
    3643: 85 12        	sta	$12                     ; 0x2012 <f256main+0x16e4>
    3645: a9 44        	lda	#$44
    3647: 18           	clc
    3648: 65 13        	adc	$13                     ; 0x2013 <f256main+0x16e5>
    364a: aa           	tax
    364b: a9 86        	lda	#$86
    364d: 65 12        	adc	$12                     ; 0x2012 <f256main+0x16e4>
    364f: 86 12        	stx	$12                     ; 0x2012 <f256main+0x16e4>
    3651: 85 13        	sta	$13                     ; 0x2013 <f256main+0x16e5>
    3653: a9 00        	lda	#$0
    3655: 84 14        	sty	$14                     ; 0x2014 <f256main+0x16e6>
    3657: a0 06        	ldy	#$6
    3659: 91 12        	sta	($12),y                 ; 0x2012 <f256main+0x16e4>
    365b: a2 ff        	ldx	#$ff
    365d: 86 9f        	stx	$9f                     ; 0x209f <f256main+0x1771>
    365f: a2 01        	ldx	#$1
    3661: 8e e0 d6     	stx	$d6e0                   ; 0xd6e0 <end_block9+0x4eb6>
    3664: a6 a6        	ldx	$a6                     ; 0x20a6 <f256main+0x1778>
    3666: a4 a7        	ldy	$a7                     ; 0x20a7 <f256main+0x1779>
    3668: 8e e2 d6     	stx	$d6e2                   ; 0xd6e2 <end_block9+0x4eb8>
    366b: 8c e3 d6     	sty	$d6e3                   ; 0xd6e3 <end_block9+0x4eb9>
    366e: a6 a8        	ldx	$a8                     ; 0x20a8 <f256main+0x177a>
    3670: a4 a9        	ldy	$a9                     ; 0x20a9 <f256main+0x177b>
    3672: 8e e4 d6     	stx	$d6e4                   ; 0xd6e4 <end_block9+0x4eba>
    3675: 8c e5 d6     	sty	$d6e5                   ; 0xd6e5 <end_block9+0x4ebb>
    3678: a4 14        	ldy	$14                     ; 0x2014 <f256main+0x16e6>
    367a: 4c 7a 17     	jmp	$177a <f256main+0xe4c>
    367d: c5 2b        	cmp	$2b                     ; 0x202b <f256main+0x16fd>
    367f: b0 03        	bcs	$3684 <f256main+0x2d56>
    3681: 4c d8 31     	jmp	$31d8 <f256main+0x28aa>
    3684: a2 44        	ldx	#$44
    3686: 86 12        	stx	$12                     ; 0x2012 <f256main+0x16e4>
    3688: a2 86        	ldx	#$86
    368a: 86 13        	stx	$13                     ; 0x2013 <f256main+0x16e5>
    368c: 20 d8 36     	jsr	$36d8 <dispatchAction>
    368f: a0 00        	ldy	#$0
    3691: b1 10        	lda	($10),y                 ; 0x2010 <f256main+0x16e2>
    3693: a8           	tay
    3694: 4c d8 31     	jmp	$31d8 <f256main+0x28aa>
    3697: c5 2b        	cmp	$2b                     ; 0x202b <f256main+0x16fd>
    3699: 90 03        	bcc	$369e <f256main+0x2d70>
    369b: 4c f3 32     	jmp	$32f3 <f256main+0x29c5>
    369e: 4c 03 33     	jmp	$3303 <f256main+0x29d5>
    36a1: c5 2b        	cmp	$2b                     ; 0x202b <f256main+0x16fd>
    36a3: 90 03        	bcc	$36a8 <f256main+0x2d7a>
    36a5: 4c 99 33     	jmp	$3399 <f256main+0x2a6b>
    36a8: 4c a9 33     	jmp	$33a9 <f256main+0x2a7b>
    36ab: c5 2b        	cmp	$2b                     ; 0x202b <f256main+0x16fd>
    36ad: 90 03        	bcc	$36b2 <f256main+0x2d84>
    36af: 4c 3f 34     	jmp	$343f <f256main+0x2b11>
    36b2: 4c 4f 34     	jmp	$344f <f256main+0x2b21>
    36b5: c5 2b        	cmp	$2b                     ; 0x202b <f256main+0x16fd>
    36b7: 90 03        	bcc	$36bc <f256main+0x2d8e>
    36b9: 4c e5 34     	jmp	$34e5 <f256main+0x2bb7>
    36bc: 4c f5 34     	jmp	$34f5 <f256main+0x2bc7>
    36bf: c5 2b        	cmp	$2b                     ; 0x202b <f256main+0x16fd>
    36c1: 90 03        	bcc	$36c6 <f256main+0x2d98>
    36c3: 4c 8b 35     	jmp	$358b <f256main+0x2c5d>
    36c6: 4c 9b 35     	jmp	$359b <f256main+0x2c6d>
    36c9: a2 ff        	ldx	#$ff
    36cb: 86 28        	stx	$28                     ; 0x2028 <f256main+0x16fa>
    36cd: a2 01        	ldx	#$1
    36cf: 86 29        	stx	$29                     ; 0x2029 <f256main+0x16fb>
    36d1: a2 09        	ldx	#$9
    36d3: 86 2b        	stx	$2b                     ; 0x202b <f256main+0x16fd>
    36d5: 4c af 18     	jmp	$18af <f256main+0xf81>

000036d8 <dispatchAction>:
    36d8: 18           	clc
    36d9: a5 10        	lda	$10                     ; 0x2010 <f256main+0x16e2>
    36db: 69 f8        	adc	#$f8
    36dd: 85 10        	sta	$10                     ; 0x2010 <f256main+0x16e2>
    36df: a5 11        	lda	$11                     ; 0x2011 <f256main+0x16e3>
    36e1: 69 ff        	adc	#$ff
    36e3: 85 11        	sta	$11                     ; 0x2011 <f256main+0x16e3>
    36e5: a6 24        	ldx	$24                     ; 0x2024 <f256main+0x16f6>
    36e7: da           	phx
    36e8: a6 25        	ldx	$25                     ; 0x2025 <f256main+0x16f7>
    36ea: da           	phx
    36eb: a6 26        	ldx	$26                     ; 0x2026 <f256main+0x16f8>
    36ed: da           	phx
    36ee: a6 27        	ldx	$27                     ; 0x2027 <f256main+0x16f9>
    36f0: da           	phx
    36f1: a5 28        	lda	$28                     ; 0x2028 <f256main+0x16fa>
    36f3: a0 04        	ldy	#$4
    36f5: 91 10        	sta	($10),y                 ; 0x2010 <f256main+0x16e2>
    36f7: a5 29        	lda	$29                     ; 0x2029 <f256main+0x16fb>
    36f9: 88           	dey
    36fa: 91 10        	sta	($10),y                 ; 0x2010 <f256main+0x16e2>
    36fc: a5 2a        	lda	$2a                     ; 0x202a <f256main+0x16fc>
    36fe: 88           	dey
    36ff: 91 10        	sta	($10),y                 ; 0x2010 <f256main+0x16e2>
    3701: a5 2b        	lda	$2b                     ; 0x202b <f256main+0x16fd>
    3703: 88           	dey
    3704: 91 10        	sta	($10),y                 ; 0x2010 <f256main+0x16e2>
    3706: a5 2c        	lda	$2c                     ; 0x202c <f256main+0x16fe>
    3708: 88           	dey
    3709: 91 10        	sta	($10),y                 ; 0x2010 <f256main+0x16e2>
    370b: a0 12        	ldy	#$12
    370d: b1 12        	lda	($12),y                 ; 0x2012 <f256main+0x16e4>
    370f: c9 35        	cmp	#$35
    3711: 90 03        	bcc	$3716 <dispatchAction+0x3e>
    3713: 4c d0 42     	jmp	$42d0 <dispatchAction+0xbf8>
    3716: a6 12        	ldx	$12                     ; 0x2012 <f256main+0x16e4>
    3718: 86 24        	stx	$24                     ; 0x2024 <f256main+0x16f6>
    371a: a6 13        	ldx	$13                     ; 0x2013 <f256main+0x16e5>
    371c: 86 25        	stx	$25                     ; 0x2025 <f256main+0x16f7>
    371e: 0a           	asl
    371f: aa           	tax
    3720: 7c 3c 7f     	jmp	($7f3c,x)               ; 0x7f3c <__set_v+0x5b>
    3723: a0 06        	ldy	#$6
    3725: b1 24        	lda	($24),y                 ; 0x2024 <f256main+0x16f6>
    3727: a2 01        	ldx	#$1
    3729: c9 00        	cmp	#$0
    372b: f0 02        	beq	$372f <dispatchAction+0x57>
    372d: a2 00        	ldx	#$0
    372f: a9 01        	lda	#$1
    3731: e0 00        	cpx	#$0
    3733: d0 02        	bne	$3737 <dispatchAction+0x5f>
    3735: a9 00        	lda	#$0
    3737: 91 24        	sta	($24),y                 ; 0x2024 <f256main+0x16f6>
    3739: a0 0c        	ldy	#$c
    373b: b1 24        	lda	($24),y                 ; 0x2024 <f256main+0x16f6>
    373d: a2 15        	ldx	#$15
    373f: 86 12        	stx	$12                     ; 0x2012 <f256main+0x16e4>
    3741: 64 13        	stz	$13                     ; 0x2013 <f256main+0x16e5>
    3743: a2 00        	ldx	#$0
    3745: 20 ff 7b     	jsr	$7bff <__mulhi3>
    3748: 85 12        	sta	$12                     ; 0x2012 <f256main+0x16e4>
    374a: 86 13        	stx	$13                     ; 0x2013 <f256main+0x16e5>
    374c: 18           	clc
    374d: a9 75        	lda	#$75
    374f: 65 12        	adc	$12                     ; 0x2012 <f256main+0x16e4>
    3751: 85 2b        	sta	$2b                     ; 0x202b <f256main+0x16fd>
    3753: a9 82        	lda	#$82
    3755: 65 13        	adc	$13                     ; 0x2013 <f256main+0x16e5>
    3757: a6 2b        	ldx	$2b                     ; 0x202b <f256main+0x16fd>
    3759: 86 26        	stx	$26                     ; 0x2026 <f256main+0x16f8>
    375b: 85 27        	sta	$27                     ; 0x2027 <f256main+0x16f9>
    375d: 85 2a        	sta	$2a                     ; 0x202a <f256main+0x16fc>
    375f: a0 06        	ldy	#$6
    3761: b1 26        	lda	($26),y                 ; 0x2026 <f256main+0x16f8>
    3763: 85 29        	sta	$29                     ; 0x2029 <f256main+0x16fb>
    3765: a0 0d        	ldy	#$d
    3767: b1 26        	lda	($26),y                 ; 0x2026 <f256main+0x16f8>
    3769: 85 12        	sta	$12                     ; 0x2012 <f256main+0x16e4>
    376b: 64 13        	stz	$13                     ; 0x2013 <f256main+0x16e5>
    376d: a2 00        	ldx	#$0
    376f: 85 28        	sta	$28                     ; 0x2028 <f256main+0x16fa>
    3771: 20 ff 7b     	jsr	$7bff <__mulhi3>
    3774: 85 13        	sta	$13                     ; 0x2013 <f256main+0x16e5>
    3776: 86 12        	stx	$12                     ; 0x2012 <f256main+0x16e4>
    3778: a6 2b        	ldx	$2b                     ; 0x202b <f256main+0x16fd>
    377a: 86 16        	stx	$16                     ; 0x2016 <f256main+0x16e8>
    377c: a5 2b        	lda	$2b                     ; 0x202b <f256main+0x16fd>
    377e: 18           	clc
    377f: 69 08        	adc	#$8
    3781: 85 14        	sta	$14                     ; 0x2014 <f256main+0x16e6>
    3783: a5 2a        	lda	$2a                     ; 0x202a <f256main+0x16fc>
    3785: 69 00        	adc	#$0
    3787: a0 08        	ldy	#$8
    3789: 85 15        	sta	$15                     ; 0x2015 <f256main+0x16e7>
    378b: b1 26        	lda	($26),y                 ; 0x2026 <f256main+0x16f8>
    378d: 85 1a        	sta	$1a                     ; 0x201a <f256main+0x16ec>
    378f: a0 01        	ldy	#$1
    3791: b1 14        	lda	($14),y                 ; 0x2014 <f256main+0x16e6>
    3793: 85 19        	sta	$19                     ; 0x2019 <f256main+0x16eb>
    3795: c8           	iny
    3796: b1 14        	lda	($14),y                 ; 0x2014 <f256main+0x16e6>
    3798: 85 18        	sta	$18                     ; 0x2018 <f256main+0x16ea>
    379a: c8           	iny
    379b: b1 14        	lda	($14),y                 ; 0x2014 <f256main+0x16e6>
    379d: a8           	tay
    379e: a5 29        	lda	$29                     ; 0x2029 <f256main+0x16fb>
    37a0: f0 34        	beq	$37d6 <dispatchAction+0xfe>
    37a2: 18           	clc
    37a3: a5 1a        	lda	$1a                     ; 0x201a <f256main+0x16ec>
    37a5: 65 13        	adc	$13                     ; 0x2013 <f256main+0x16e5>
    37a7: 85 15        	sta	$15                     ; 0x2015 <f256main+0x16e7>
    37a9: a5 19        	lda	$19                     ; 0x2019 <f256main+0x16eb>
    37ab: 65 12        	adc	$12                     ; 0x2012 <f256main+0x16e4>
    37ad: 85 14        	sta	$14                     ; 0x2014 <f256main+0x16e6>
    37af: a5 18        	lda	$18                     ; 0x2018 <f256main+0x16ea>
    37b1: 69 00        	adc	#$0
    37b3: aa           	tax
    37b4: 98           	tya
    37b5: 69 00        	adc	#$0
    37b7: 80 32        	bra	$37eb <dispatchAction+0x113>
    37b9: a0 06        	ldy	#$6
    37bb: a9 01        	lda	#$1
    37bd: 91 24        	sta	($24),y                 ; 0x2024 <f256main+0x16f6>
    37bf: a6 a2        	ldx	$a2                     ; 0x20a2 <f256main+0x1774>
    37c1: 86 13        	stx	$13                     ; 0x2013 <f256main+0x16e5>
    37c3: a6 a3        	ldx	$a3                     ; 0x20a3 <f256main+0x1775>
    37c5: 86 14        	stx	$14                     ; 0x2014 <f256main+0x16e6>
    37c7: a6 a4        	ldx	$a4                     ; 0x20a4 <f256main+0x1776>
    37c9: a4 a5        	ldy	$a5                     ; 0x20a5 <f256main+0x1777>
    37cb: 84 12        	sty	$12                     ; 0x2012 <f256main+0x16e4>
    37cd: a0 0c        	ldy	#$c
    37cf: b1 24        	lda	($24),y                 ; 0x2024 <f256main+0x16f6>
    37d1: 85 9f        	sta	$9f                     ; 0x209f <f256main+0x1771>
    37d3: 4c a1 3b     	jmp	$3ba1 <dispatchAction+0x4c9>
    37d6: 38           	sec
    37d7: a5 1a        	lda	$1a                     ; 0x201a <f256main+0x16ec>
    37d9: e5 13        	sbc	$13                     ; 0x2013 <f256main+0x16e5>
    37db: 85 15        	sta	$15                     ; 0x2015 <f256main+0x16e7>
    37dd: a5 19        	lda	$19                     ; 0x2019 <f256main+0x16eb>
    37df: e5 12        	sbc	$12                     ; 0x2012 <f256main+0x16e4>
    37e1: 85 14        	sta	$14                     ; 0x2014 <f256main+0x16e6>
    37e3: a5 18        	lda	$18                     ; 0x2018 <f256main+0x16ea>
    37e5: e9 00        	sbc	#$0
    37e7: aa           	tax
    37e8: 98           	tya
    37e9: e9 00        	sbc	#$0
    37eb: 85 18        	sta	$18                     ; 0x2018 <f256main+0x16ea>
    37ed: a0 08        	ldy	#$8
    37ef: 18           	clc
    37f0: a5 16        	lda	$16                     ; 0x2016 <f256main+0x16e8>
    37f2: 69 08        	adc	#$8
    37f4: 85 12        	sta	$12                     ; 0x2012 <f256main+0x16e4>
    37f6: a5 2a        	lda	$2a                     ; 0x202a <f256main+0x16fc>
    37f8: 69 00        	adc	#$0
    37fa: 85 13        	sta	$13                     ; 0x2013 <f256main+0x16e5>
    37fc: a5 15        	lda	$15                     ; 0x2015 <f256main+0x16e7>
    37fe: 85 16        	sta	$16                     ; 0x2016 <f256main+0x16e8>
    3800: 91 26        	sta	($26),y                 ; 0x2026 <f256main+0x16f8>
    3802: a0 01        	ldy	#$1
    3804: a5 14        	lda	$14                     ; 0x2014 <f256main+0x16e6>
    3806: 85 15        	sta	$15                     ; 0x2015 <f256main+0x16e7>
    3808: 91 12        	sta	($12),y                 ; 0x2012 <f256main+0x16e4>
    380a: c8           	iny
    380b: 8a           	txa
    380c: 86 14        	stx	$14                     ; 0x2014 <f256main+0x16e6>
    380e: 91 12        	sta	($12),y                 ; 0x2012 <f256main+0x16e4>
    3810: c8           	iny
    3811: a5 18        	lda	$18                     ; 0x2018 <f256main+0x16ea>
    3813: 91 12        	sta	($12),y                 ; 0x2012 <f256main+0x16e4>
    3815: b2 26        	lda	($26)                   ; 0x2026 <f256main+0x16f8>
    3817: a8           	tay
    3818: aa           	tax
    3819: 18           	clc
    381a: a5 28        	lda	$28                     ; 0x2028 <f256main+0x16fa>
    381c: 69 f8        	adc	#$f8
    381e: 85 12        	sta	$12                     ; 0x2012 <f256main+0x16e4>
    3820: 4a           	lsr
    3821: 66 12        	ror	$12                     ; 0x2012 <f256main+0x16e4>
    3823: a5 12        	lda	$12                     ; 0x2012 <f256main+0x16e4>
    3825: 4a           	lsr
    3826: 66 12        	ror	$12                     ; 0x2012 <f256main+0x16e4>
    3828: a5 12        	lda	$12                     ; 0x2012 <f256main+0x16e4>
    382a: 4a           	lsr
    382b: a5 12        	lda	$12                     ; 0x2012 <f256main+0x16e4>
    382d: 6a           	ror
    382e: c9 03        	cmp	#$3
    3830: 64 12        	stz	$12                     ; 0x2012 <f256main+0x16e4>
    3832: b0 0e        	bcs	$3842 <dispatchAction+0x16a>
    3834: 0a           	asl
    3835: 0a           	asl
    3836: 0a           	asl
    3837: 0a           	asl
    3838: 0a           	asl
    3839: 85 12        	sta	$12                     ; 0x2012 <f256main+0x16e4>
    383b: a9 60        	lda	#$60
    383d: 38           	sec
    383e: e5 12        	sbc	$12                     ; 0x2012 <f256main+0x16e4>
    3840: 85 12        	sta	$12                     ; 0x2012 <f256main+0x16e4>
    3842: a5 12        	lda	$12                     ; 0x2012 <f256main+0x16e4>
    3844: 9d 35 82     	sta	$8235,x                 ; 0x8235 <_spriteCtl>
    3847: 85 18        	sta	$18                     ; 0x2018 <f256main+0x16ea>
    3849: 84 12        	sty	$12                     ; 0x2012 <f256main+0x16e4>
    384b: 06 12        	asl	$12                     ; 0x2012 <f256main+0x16e4>
    384d: 64 17        	stz	$17                     ; 0x2017 <f256main+0x16e9>
    384f: 26 17        	rol	$17                     ; 0x2017 <f256main+0x16e9>
    3851: 06 12        	asl	$12                     ; 0x2012 <f256main+0x16e4>
    3853: 26 17        	rol	$17                     ; 0x2017 <f256main+0x16e9>
    3855: 06 12        	asl	$12                     ; 0x2012 <f256main+0x16e4>
    3857: 26 17        	rol	$17                     ; 0x2017 <f256main+0x16e9>
    3859: a5 12        	lda	$12                     ; 0x2012 <f256main+0x16e4>
    385b: a6 12        	ldx	$12                     ; 0x2012 <f256main+0x16e4>
    385d: 18           	clc
    385e: 69 00        	adc	#$0
    3860: 85 12        	sta	$12                     ; 0x2012 <f256main+0x16e4>
    3862: a5 17        	lda	$17                     ; 0x2017 <f256main+0x16e9>
    3864: 69 d9        	adc	#$d9
    3866: 85 13        	sta	$13                     ; 0x2013 <f256main+0x16e5>
    3868: a5 18        	lda	$18                     ; 0x2018 <f256main+0x16ea>
    386a: 92 12        	sta	($12)                   ; 0x2012 <f256main+0x16e4>
    386c: 8a           	txa
    386d: 18           	clc
    386e: 69 01        	adc	#$1
    3870: 85 12        	sta	$12                     ; 0x2012 <f256main+0x16e4>
    3872: a5 17        	lda	$17                     ; 0x2017 <f256main+0x16e9>
    3874: 69 d9        	adc	#$d9
    3876: 85 13        	sta	$13                     ; 0x2013 <f256main+0x16e5>
    3878: a5 16        	lda	$16                     ; 0x2016 <f256main+0x16e8>
    387a: 92 12        	sta	($12)                   ; 0x2012 <f256main+0x16e4>
    387c: 8a           	txa
    387d: 18           	clc
    387e: 69 02        	adc	#$2
    3880: 85 12        	sta	$12                     ; 0x2012 <f256main+0x16e4>
    3882: a5 17        	lda	$17                     ; 0x2017 <f256main+0x16e9>
    3884: 69 d9        	adc	#$d9
    3886: 85 13        	sta	$13                     ; 0x2013 <f256main+0x16e5>
    3888: a5 15        	lda	$15                     ; 0x2015 <f256main+0x16e7>
    388a: 92 12        	sta	($12)                   ; 0x2012 <f256main+0x16e4>
    388c: 18           	clc
    388d: 8a           	txa
    388e: 69 03        	adc	#$3
    3890: 85 12        	sta	$12                     ; 0x2012 <f256main+0x16e4>
    3892: a5 17        	lda	$17                     ; 0x2017 <f256main+0x16e9>
    3894: 69 d9        	adc	#$d9
    3896: 85 13        	sta	$13                     ; 0x2013 <f256main+0x16e5>
    3898: a5 14        	lda	$14                     ; 0x2014 <f256main+0x16e6>
    389a: 92 12        	sta	($12)                   ; 0x2012 <f256main+0x16e4>
    389c: b2 26        	lda	($26)                   ; 0x2026 <f256main+0x16f8>
    389e: aa           	tax
    389f: 0a           	asl
    38a0: a8           	tay
    38a1: a9 00        	lda	#$0
    38a3: 2a           	rol
    38a4: 84 12        	sty	$12                     ; 0x2012 <f256main+0x16e4>
    38a6: 06 12        	asl	$12                     ; 0x2012 <f256main+0x16e4>
    38a8: 2a           	rol
    38a9: 06 12        	asl	$12                     ; 0x2012 <f256main+0x16e4>
    38ab: 2a           	rol
    38ac: a8           	tay
    38ad: 18           	clc
    38ae: a5 12        	lda	$12                     ; 0x2012 <f256main+0x16e4>
    38b0: 69 00        	adc	#$0
    38b2: 85 12        	sta	$12                     ; 0x2012 <f256main+0x16e4>
    38b4: 98           	tya
    38b5: 69 d9        	adc	#$d9
    38b7: 85 13        	sta	$13                     ; 0x2013 <f256main+0x16e5>
    38b9: a9 01        	lda	#$1
    38bb: 1d 35 82     	ora	$8235,x                 ; 0x8235 <_spriteCtl>
    38be: 92 12        	sta	($12)                   ; 0x2012 <f256main+0x16e4>
    38c0: a0 06        	ldy	#$6
    38c2: b1 24        	lda	($24),y                 ; 0x2024 <f256main+0x16f6>
    38c4: d0 03        	bne	$38c9 <dispatchAction+0x1f1>
    38c6: 4c 74 3a     	jmp	$3a74 <dispatchAction+0x39c>
    38c9: a0 0c        	ldy	#$c
    38cb: b1 24        	lda	($24),y                 ; 0x2024 <f256main+0x16f6>
    38cd: 64 26        	stz	$26                     ; 0x2026 <f256main+0x16f8>
    38cf: a2 15        	ldx	#$15
    38d1: 86 12        	stx	$12                     ; 0x2012 <f256main+0x16e4>
    38d3: 64 13        	stz	$13                     ; 0x2013 <f256main+0x16e5>
    38d5: a2 00        	ldx	#$0
    38d7: 20 ff 7b     	jsr	$7bff <__mulhi3>
    38da: 85 12        	sta	$12                     ; 0x2012 <f256main+0x16e4>
    38dc: 86 13        	stx	$13                     ; 0x2013 <f256main+0x16e5>
    38de: a9 75        	lda	#$75
    38e0: 18           	clc
    38e1: 65 12        	adc	$12                     ; 0x2012 <f256main+0x16e4>
    38e3: 85 12        	sta	$12                     ; 0x2012 <f256main+0x16e4>
    38e5: a9 82        	lda	#$82
    38e7: 65 13        	adc	$13                     ; 0x2013 <f256main+0x16e5>
    38e9: 85 13        	sta	$13                     ; 0x2013 <f256main+0x16e5>
    38eb: a0 13        	ldy	#$13
    38ed: b1 12        	lda	($12),y                 ; 0x2012 <f256main+0x16e4>
    38ef: d0 03        	bne	$38f4 <dispatchAction+0x21c>
    38f1: 4c 74 3a     	jmp	$3a74 <dispatchAction+0x39c>
    38f4: a2 75        	ldx	#$75
    38f6: 86 28        	stx	$28                     ; 0x2028 <f256main+0x16fa>
    38f8: a2 82        	ldx	#$82
    38fa: 86 29        	stx	$29                     ; 0x2029 <f256main+0x16fb>
    38fc: a2 00        	ldx	#$0
    38fe: 4c a4 39     	jmp	$39a4 <dispatchAction+0x2cc>
    3901: a5 13        	lda	$13                     ; 0x2013 <f256main+0x16e5>
    3903: 0a           	asl
    3904: 0a           	asl
    3905: 0a           	asl
    3906: 0a           	asl
    3907: 0a           	asl
    3908: 85 12        	sta	$12                     ; 0x2012 <f256main+0x16e4>
    390a: 38           	sec
    390b: a9 60        	lda	#$60
    390d: e5 12        	sbc	$12                     ; 0x2012 <f256main+0x16e4>
    390f: 85 19        	sta	$19                     ; 0x2019 <f256main+0x16eb>
    3911: 84 17        	sty	$17                     ; 0x2017 <f256main+0x16e9>
    3913: 06 17        	asl	$17                     ; 0x2017 <f256main+0x16e9>
    3915: 64 12        	stz	$12                     ; 0x2012 <f256main+0x16e4>
    3917: 26 12        	rol	$12                     ; 0x2012 <f256main+0x16e4>
    3919: 06 17        	asl	$17                     ; 0x2017 <f256main+0x16e9>
    391b: 26 12        	rol	$12                     ; 0x2012 <f256main+0x16e4>
    391d: 06 17        	asl	$17                     ; 0x2017 <f256main+0x16e9>
    391f: 26 12        	rol	$12                     ; 0x2012 <f256main+0x16e4>
    3921: a5 17        	lda	$17                     ; 0x2017 <f256main+0x16e9>
    3923: 18           	clc
    3924: 69 00        	adc	#$0
    3926: aa           	tax
    3927: a5 12        	lda	$12                     ; 0x2012 <f256main+0x16e4>
    3929: a4 12        	ldy	$12                     ; 0x2012 <f256main+0x16e4>
    392b: 69 d9        	adc	#$d9
    392d: 86 12        	stx	$12                     ; 0x2012 <f256main+0x16e4>
    392f: 85 13        	sta	$13                     ; 0x2013 <f256main+0x16e5>
    3931: a6 18        	ldx	$18                     ; 0x2018 <f256main+0x16ea>
    3933: a5 19        	lda	$19                     ; 0x2019 <f256main+0x16eb>
    3935: 9d 35 82     	sta	$8235,x                 ; 0x8235 <_spriteCtl>
    3938: 92 12        	sta	($12)                   ; 0x2012 <f256main+0x16e4>
    393a: a5 17        	lda	$17                     ; 0x2017 <f256main+0x16e9>
    393c: 18           	clc
    393d: 69 01        	adc	#$1
    393f: aa           	tax
    3940: 98           	tya
    3941: 69 d9        	adc	#$d9
    3943: 86 12        	stx	$12                     ; 0x2012 <f256main+0x16e4>
    3945: 85 13        	sta	$13                     ; 0x2013 <f256main+0x16e5>
    3947: a5 16        	lda	$16                     ; 0x2016 <f256main+0x16e8>
    3949: 92 12        	sta	($12)                   ; 0x2012 <f256main+0x16e4>
    394b: a5 17        	lda	$17                     ; 0x2017 <f256main+0x16e9>
    394d: 18           	clc
    394e: 69 02        	adc	#$2
    3950: aa           	tax
    3951: 98           	tya
    3952: 69 d9        	adc	#$d9
    3954: 86 12        	stx	$12                     ; 0x2012 <f256main+0x16e4>
    3956: 85 13        	sta	$13                     ; 0x2013 <f256main+0x16e5>
    3958: a5 15        	lda	$15                     ; 0x2015 <f256main+0x16e7>
    395a: 92 12        	sta	($12)                   ; 0x2012 <f256main+0x16e4>
    395c: 18           	clc
    395d: a5 17        	lda	$17                     ; 0x2017 <f256main+0x16e9>
    395f: 69 03        	adc	#$3
    3961: 85 12        	sta	$12                     ; 0x2012 <f256main+0x16e4>
    3963: 98           	tya
    3964: 69 d9        	adc	#$d9
    3966: 85 13        	sta	$13                     ; 0x2013 <f256main+0x16e5>
    3968: a5 14        	lda	$14                     ; 0x2014 <f256main+0x16e6>
    396a: 92 12        	sta	($12)                   ; 0x2012 <f256main+0x16e4>
    396c: b2 28        	lda	($28)                   ; 0x2028 <f256main+0x16fa>
    396e: aa           	tax
    396f: 0a           	asl
    3970: 64 12        	stz	$12                     ; 0x2012 <f256main+0x16e4>
    3972: 26 12        	rol	$12                     ; 0x2012 <f256main+0x16e4>
    3974: 0a           	asl
    3975: 26 12        	rol	$12                     ; 0x2012 <f256main+0x16e4>
    3977: 0a           	asl
    3978: 26 12        	rol	$12                     ; 0x2012 <f256main+0x16e4>
    397a: 18           	clc
    397b: 69 00        	adc	#$0
    397d: a8           	tay
    397e: a5 12        	lda	$12                     ; 0x2012 <f256main+0x16e4>
    3980: 69 d9        	adc	#$d9
    3982: 84 12        	sty	$12                     ; 0x2012 <f256main+0x16e4>
    3984: 85 13        	sta	$13                     ; 0x2013 <f256main+0x16e5>
    3986: a9 01        	lda	#$1
    3988: 1d 35 82     	ora	$8235,x                 ; 0x8235 <_spriteCtl>
    398b: 92 12        	sta	($12)                   ; 0x2012 <f256main+0x16e4>
    398d: a6 27        	ldx	$27                     ; 0x2027 <f256main+0x16f9>
    398f: e8           	inx
    3990: a5 28        	lda	$28                     ; 0x2028 <f256main+0x16fa>
    3992: 18           	clc
    3993: 69 15        	adc	#$15
    3995: 85 28        	sta	$28                     ; 0x2028 <f256main+0x16fa>
    3997: a5 29        	lda	$29                     ; 0x2029 <f256main+0x16fb>
    3999: 69 00        	adc	#$0
    399b: 85 29        	sta	$29                     ; 0x2029 <f256main+0x16fb>
    399d: e0 0f        	cpx	#$f
    399f: d0 03        	bne	$39a4 <dispatchAction+0x2cc>
    39a1: 4c 74 3a     	jmp	$3a74 <dispatchAction+0x39c>
    39a4: a0 0c        	ldy	#$c
    39a6: b1 24        	lda	($24),y                 ; 0x2024 <f256main+0x16f6>
    39a8: 85 14        	sta	$14                     ; 0x2014 <f256main+0x16e6>
    39aa: e4 14        	cpx	$14                     ; 0x2014 <f256main+0x16e6>
    39ac: f0 e1        	beq	$398f <dispatchAction+0x2b7>
    39ae: a0 13        	ldy	#$13
    39b0: b1 28        	lda	($28),y                 ; 0x2028 <f256main+0x16fa>
    39b2: f0 db        	beq	$398f <dispatchAction+0x2b7>
    39b4: 86 27        	stx	$27                     ; 0x2027 <f256main+0x16f9>
    39b6: a2 15        	ldx	#$15
    39b8: 86 12        	stx	$12                     ; 0x2012 <f256main+0x16e4>
    39ba: 64 13        	stz	$13                     ; 0x2013 <f256main+0x16e5>
    39bc: a2 00        	ldx	#$0
    39be: a5 14        	lda	$14                     ; 0x2014 <f256main+0x16e6>
    39c0: 20 ff 7b     	jsr	$7bff <__mulhi3>
    39c3: 85 12        	sta	$12                     ; 0x2012 <f256main+0x16e4>
    39c5: 86 13        	stx	$13                     ; 0x2013 <f256main+0x16e5>
    39c7: a6 27        	ldx	$27                     ; 0x2027 <f256main+0x16f9>
    39c9: a9 75        	lda	#$75
    39cb: 18           	clc
    39cc: 65 12        	adc	$12                     ; 0x2012 <f256main+0x16e4>
    39ce: 85 12        	sta	$12                     ; 0x2012 <f256main+0x16e4>
    39d0: a9 82        	lda	#$82
    39d2: 65 13        	adc	$13                     ; 0x2013 <f256main+0x16e5>
    39d4: 85 13        	sta	$13                     ; 0x2013 <f256main+0x16e5>
    39d6: a0 14        	ldy	#$14
    39d8: b1 12        	lda	($12),y                 ; 0x2012 <f256main+0x16e4>
    39da: d1 28        	cmp	($28),y                 ; 0x2028 <f256main+0x16fa>
    39dc: d0 b1        	bne	$398f <dispatchAction+0x2b7>
    39de: a0 06        	ldy	#$6
    39e0: b1 28        	lda	($28),y                 ; 0x2028 <f256main+0x16fa>
    39e2: f0 ab        	beq	$398f <dispatchAction+0x2b7>
    39e4: a5 28        	lda	$28                     ; 0x2028 <f256main+0x16fa>
    39e6: 18           	clc
    39e7: 69 08        	adc	#$8
    39e9: 85 2a        	sta	$2a                     ; 0x202a <f256main+0x16fc>
    39eb: a5 29        	lda	$29                     ; 0x2029 <f256main+0x16fb>
    39ed: 69 00        	adc	#$0
    39ef: 85 2b        	sta	$2b                     ; 0x202b <f256main+0x16fd>
    39f1: a9 00        	lda	#$0
    39f3: 91 28        	sta	($28),y                 ; 0x2028 <f256main+0x16fa>
    39f5: a0 0d        	ldy	#$d
    39f7: b1 28        	lda	($28),y                 ; 0x2028 <f256main+0x16fa>
    39f9: 85 12        	sta	$12                     ; 0x2012 <f256main+0x16e4>
    39fb: 85 2c        	sta	$2c                     ; 0x202c <f256main+0x16fe>
    39fd: 64 13        	stz	$13                     ; 0x2013 <f256main+0x16e5>
    39ff: a2 00        	ldx	#$0
    3a01: 20 ff 7b     	jsr	$7bff <__mulhi3>
    3a04: 85 12        	sta	$12                     ; 0x2012 <f256main+0x16e4>
    3a06: 86 13        	stx	$13                     ; 0x2013 <f256main+0x16e5>
    3a08: a0 08        	ldy	#$8
    3a0a: b1 28        	lda	($28),y                 ; 0x2028 <f256main+0x16fa>
    3a0c: 85 17        	sta	$17                     ; 0x2017 <f256main+0x16e9>
    3a0e: a0 01        	ldy	#$1
    3a10: b1 2a        	lda	($2a),y                 ; 0x202a <f256main+0x16fc>
    3a12: 85 16        	sta	$16                     ; 0x2016 <f256main+0x16e8>
    3a14: c8           	iny
    3a15: b1 2a        	lda	($2a),y                 ; 0x202a <f256main+0x16fc>
    3a17: 85 15        	sta	$15                     ; 0x2015 <f256main+0x16e7>
    3a19: c8           	iny
    3a1a: b1 2a        	lda	($2a),y                 ; 0x202a <f256main+0x16fc>
    3a1c: 85 14        	sta	$14                     ; 0x2014 <f256main+0x16e6>
    3a1e: 38           	sec
    3a1f: a5 17        	lda	$17                     ; 0x2017 <f256main+0x16e9>
    3a21: e5 12        	sbc	$12                     ; 0x2012 <f256main+0x16e4>
    3a23: a8           	tay
    3a24: a5 16        	lda	$16                     ; 0x2016 <f256main+0x16e8>
    3a26: e5 13        	sbc	$13                     ; 0x2013 <f256main+0x16e5>
    3a28: 85 13        	sta	$13                     ; 0x2013 <f256main+0x16e5>
    3a2a: a5 15        	lda	$15                     ; 0x2015 <f256main+0x16e7>
    3a2c: e9 00        	sbc	#$0
    3a2e: aa           	tax
    3a2f: a5 14        	lda	$14                     ; 0x2014 <f256main+0x16e6>
    3a31: e9 00        	sbc	#$0
    3a33: 85 12        	sta	$12                     ; 0x2012 <f256main+0x16e4>
    3a35: 98           	tya
    3a36: 84 16        	sty	$16                     ; 0x2016 <f256main+0x16e8>
    3a38: a0 08        	ldy	#$8
    3a3a: 91 28        	sta	($28),y                 ; 0x2028 <f256main+0x16fa>
    3a3c: a5 13        	lda	$13                     ; 0x2013 <f256main+0x16e5>
    3a3e: 85 15        	sta	$15                     ; 0x2015 <f256main+0x16e7>
    3a40: a0 01        	ldy	#$1
    3a42: 91 2a        	sta	($2a),y                 ; 0x202a <f256main+0x16fc>
    3a44: 8a           	txa
    3a45: 86 14        	stx	$14                     ; 0x2014 <f256main+0x16e6>
    3a47: c8           	iny
    3a48: 91 2a        	sta	($2a),y                 ; 0x202a <f256main+0x16fc>
    3a4a: a5 12        	lda	$12                     ; 0x2012 <f256main+0x16e4>
    3a4c: c8           	iny
    3a4d: 91 2a        	sta	($2a),y                 ; 0x202a <f256main+0x16fc>
    3a4f: b2 28        	lda	($28)                   ; 0x2028 <f256main+0x16fa>
    3a51: a8           	tay
    3a52: 85 18        	sta	$18                     ; 0x2018 <f256main+0x16ea>
    3a54: 18           	clc
    3a55: a5 2c        	lda	$2c                     ; 0x202c <f256main+0x16fe>
    3a57: 69 f8        	adc	#$f8
    3a59: aa           	tax
    3a5a: 4a           	lsr
    3a5b: 8a           	txa
    3a5c: 6a           	ror
    3a5d: aa           	tax
    3a5e: 4a           	lsr
    3a5f: 8a           	txa
    3a60: 6a           	ror
    3a61: 85 13        	sta	$13                     ; 0x2013 <f256main+0x16e5>
    3a63: 4a           	lsr
    3a64: 64 19        	stz	$19                     ; 0x2019 <f256main+0x16eb>
    3a66: 66 13        	ror	$13                     ; 0x2013 <f256main+0x16e5>
    3a68: a6 13        	ldx	$13                     ; 0x2013 <f256main+0x16e5>
    3a6a: e0 03        	cpx	#$3
    3a6c: b0 03        	bcs	$3a71 <dispatchAction+0x399>
    3a6e: 4c 01 39     	jmp	$3901 <dispatchAction+0x229>
    3a71: 4c 11 39     	jmp	$3911 <dispatchAction+0x239>
    3a74: a0 12        	ldy	#$12
    3a76: b1 24        	lda	($24),y                 ; 0x2024 <f256main+0x16f6>
    3a78: c9 04        	cmp	#$4
    3a7a: 90 26        	bcc	$3aa2 <dispatchAction+0x3ca>
    3a7c: c9 18        	cmp	#$18
    3a7e: d0 03        	bne	$3a83 <dispatchAction+0x3ab>
    3a80: 4c 03 3e     	jmp	$3e03 <dispatchAction+0x72b>
    3a83: c9 19        	cmp	#$19
    3a85: d0 03        	bne	$3a8a <dispatchAction+0x3b2>
    3a87: 4c 5c 3e     	jmp	$3e5c <dispatchAction+0x784>
    3a8a: c9 1a        	cmp	#$1a
    3a8c: d0 03        	bne	$3a91 <dispatchAction+0x3b9>
    3a8e: 4c b5 3e     	jmp	$3eb5 <dispatchAction+0x7dd>
    3a91: c9 1b        	cmp	#$1b
    3a93: d0 03        	bne	$3a98 <dispatchAction+0x3c0>
    3a95: 4c 0e 3f     	jmp	$3f0e <dispatchAction+0x836>
    3a98: c9 31        	cmp	#$31
    3a9a: d0 03        	bne	$3a9f <dispatchAction+0x3c7>
    3a9c: 4c 67 3f     	jmp	$3f67 <dispatchAction+0x88f>
    3a9f: 4c 03 40     	jmp	$4003 <dispatchAction+0x92b>
    3aa2: a6 cf        	ldx	$cf                     ; 0x20cf <f256main+0x17a1>
    3aa4: a4 d0        	ldy	$d0                     ; 0x20d0 <f256main+0x17a2>
    3aa6: 86 12        	stx	$12                     ; 0x2012 <f256main+0x16e4>
    3aa8: 84 13        	sty	$13                     ; 0x2013 <f256main+0x16e5>
    3aaa: a0 03        	ldy	#$3
    3aac: d1 12        	cmp	($12),y                 ; 0x2012 <f256main+0x16e4>
    3aae: d0 03        	bne	$3ab3 <dispatchAction+0x3db>
    3ab0: 4c f8 3d     	jmp	$3df8 <dispatchAction+0x720>
    3ab3: 91 12        	sta	($12),y                 ; 0x2012 <f256main+0x16e4>
    3ab5: a2 28        	ldx	#$28
    3ab7: 8a           	txa
    3ab8: a0 07        	ldy	#$7
    3aba: 91 10        	sta	($10),y                 ; 0x2010 <f256main+0x16e2>
    3abc: a0 d9        	ldy	#$d9
    3abe: a2 05        	ldx	#$5
    3ac0: 5a           	phy
    3ac1: a0 07        	ldy	#$7
    3ac3: b1 10        	lda	($10),y                 ; 0x2010 <f256main+0x16e2>
    3ac5: 7a           	ply
    3ac6: 85 12        	sta	$12                     ; 0x2012 <f256main+0x16e4>
    3ac8: 84 14        	sty	$14                     ; 0x2014 <f256main+0x16e6>
    3aca: 84 13        	sty	$13                     ; 0x2013 <f256main+0x16e5>
    3acc: a8           	tay
    3acd: bd 35 82     	lda	$8235,x                 ; 0x8235 <_spriteCtl>
    3ad0: 92 12        	sta	($12)                   ; 0x2012 <f256main+0x16e4>
    3ad2: 98           	tya
    3ad3: e8           	inx
    3ad4: 18           	clc
    3ad5: 69 08        	adc	#$8
    3ad7: a0 07        	ldy	#$7
    3ad9: 91 10        	sta	($10),y                 ; 0x2010 <f256main+0x16e2>
    3adb: a5 14        	lda	$14                     ; 0x2014 <f256main+0x16e6>
    3add: 69 00        	adc	#$0
    3adf: a8           	tay
    3ae0: e0 3f        	cpx	#$3f
    3ae2: d0 dc        	bne	$3ac0 <dispatchAction+0x3e8>
    3ae4: a2 02        	ldx	#$2
    3ae6: 86 01        	stx	$1                      ; 0x2001 <f256main+0x16d3>
    3ae8: a9 50        	lda	#$50
    3aea: 64 12        	stz	$12                     ; 0x2012 <f256main+0x16e4>
    3aec: a0 01        	ldy	#$1
    3aee: aa           	tax
    3aef: 85 14        	sta	$14                     ; 0x2014 <f256main+0x16e6>
    3af1: a9 c0        	lda	#$c0
    3af3: 5a           	phy
    3af4: a0 07        	ldy	#$7
    3af6: 91 10        	sta	($10),y                 ; 0x2010 <f256main+0x16e2>
    3af8: 8a           	txa
    3af9: 88           	dey
    3afa: 91 10        	sta	($10),y                 ; 0x2010 <f256main+0x16e2>
    3afc: 7a           	ply
    3afd: a9 c0        	lda	#$c0
    3aff: 85 15        	sta	$15                     ; 0x2015 <f256main+0x16e7>
    3b01: 80 2d        	bra	$3b30 <dispatchAction+0x458>
    3b03: e6 12        	inc	$12                     ; 0x2012 <f256main+0x16e4>
    3b05: a5 12        	lda	$12                     ; 0x2012 <f256main+0x16e4>
    3b07: f0 3b        	beq	$3b44 <dispatchAction+0x46c>
    3b09: 18           	clc
    3b0a: 5a           	phy
    3b0b: a0 06        	ldy	#$6
    3b0d: b1 10        	lda	($10),y                 ; 0x2010 <f256main+0x16e2>
    3b0f: 69 50        	adc	#$50
    3b11: 85 13        	sta	$13                     ; 0x2013 <f256main+0x16e5>
    3b13: c8           	iny
    3b14: b1 10        	lda	($10),y                 ; 0x2010 <f256main+0x16e2>
    3b16: 69 00        	adc	#$0
    3b18: 48           	pha
    3b19: a5 13        	lda	$13                     ; 0x2013 <f256main+0x16e5>
    3b1b: 88           	dey
    3b1c: 91 10        	sta	($10),y                 ; 0x2010 <f256main+0x16e2>
    3b1e: 68           	pla
    3b1f: a6 13        	ldx	$13                     ; 0x2013 <f256main+0x16e5>
    3b21: 86 14        	stx	$14                     ; 0x2014 <f256main+0x16e6>
    3b23: c8           	iny
    3b24: 91 10        	sta	($10),y                 ; 0x2010 <f256main+0x16e2>
    3b26: 7a           	ply
    3b27: 85 15        	sta	$15                     ; 0x2015 <f256main+0x16e7>
    3b29: a2 50        	ldx	#$50
    3b2b: 80 03        	bra	$3b30 <dispatchAction+0x458>
    3b2d: 8a           	txa
    3b2e: f0 0d        	beq	$3b3d <dispatchAction+0x465>
    3b30: a9 20        	lda	#$20
    3b32: 92 14        	sta	($14)                   ; 0x2014 <f256main+0x16e6>
    3b34: ca           	dex
    3b35: e6 14        	inc	$14                     ; 0x2014 <f256main+0x16e6>
    3b37: d0 f4        	bne	$3b2d <dispatchAction+0x455>
    3b39: e6 15        	inc	$15                     ; 0x2015 <f256main+0x16e7>
    3b3b: 80 f0        	bra	$3b2d <dispatchAction+0x455>
    3b3d: c8           	iny
    3b3e: f0 c3        	beq	$3b03 <dispatchAction+0x42b>
    3b40: a5 12        	lda	$12                     ; 0x2012 <f256main+0x16e4>
    3b42: d0 c5        	bne	$3b09 <dispatchAction+0x431>
    3b44: c0 1e        	cpy	#$1e
    3b46: d0 c1        	bne	$3b09 <dispatchAction+0x431>
    3b48: 64 01        	stz	$1                      ; 0x2001 <f256main+0x16d3>
    3b4a: a6 cf        	ldx	$cf                     ; 0x20cf <f256main+0x17a1>
    3b4c: a4 d0        	ldy	$d0                     ; 0x20d0 <f256main+0x17a2>
    3b4e: 86 12        	stx	$12                     ; 0x2012 <f256main+0x16e4>
    3b50: 84 13        	sty	$13                     ; 0x2013 <f256main+0x16e5>
    3b52: a0 03        	ldy	#$3
    3b54: b1 12        	lda	($12),y                 ; 0x2012 <f256main+0x16e4>
    3b56: c9 04        	cmp	#$4
    3b58: 90 03        	bcc	$3b5d <dispatchAction+0x485>
    3b5a: 4c f8 3d     	jmp	$3df8 <dispatchAction+0x720>
    3b5d: 0a           	asl
    3b5e: aa           	tax
    3b5f: 7c a6 7f     	jmp	($7fa6,x)               ; 0x7fa6 <__set_v+0xc5>
    3b62: 20 04 43     	jsr	$4304 <textLayerGen>
    3b65: a2 0c        	ldx	#$c
    3b67: 86 9b        	stx	$9b                     ; 0x209b <f256main+0x176d>
    3b69: 8e 14 d0     	stx	$d014                   ; 0xd014 <end_block9+0x47ea>
    3b6c: 9c 15 d0     	stz	$d015                   ; 0xd015 <end_block9+0x47eb>
    3b6f: a2 1c        	ldx	#$1c
    3b71: 86 9c        	stx	$9c                     ; 0x209c <f256main+0x176e>
    3b73: 8e 16 d0     	stx	$d016                   ; 0xd016 <end_block9+0x47ec>
    3b76: 9c 17 d0     	stz	$d017                   ; 0xd017 <end_block9+0x47ed>
    3b79: a2 c6        	ldx	#$c6
    3b7b: 86 12        	stx	$12                     ; 0x2012 <f256main+0x16e4>
    3b7d: a2 80        	ldx	#$80
    3b7f: 86 13        	stx	$13                     ; 0x2013 <f256main+0x16e5>
    3b81: 20 db 43     	jsr	$43db <textPrint>
    3b84: 4c f8 3d     	jmp	$3df8 <dispatchAction+0x720>
    3b87: a0 06        	ldy	#$6
    3b89: a9 01        	lda	#$1
    3b8b: 91 24        	sta	($24),y                 ; 0x2024 <f256main+0x16f6>
    3b8d: a6 a2        	ldx	$a2                     ; 0x20a2 <f256main+0x1774>
    3b8f: 86 13        	stx	$13                     ; 0x2013 <f256main+0x16e5>
    3b91: a6 a3        	ldx	$a3                     ; 0x20a3 <f256main+0x1775>
    3b93: 86 14        	stx	$14                     ; 0x2014 <f256main+0x16e6>
    3b95: a6 a4        	ldx	$a4                     ; 0x20a4 <f256main+0x1776>
    3b97: a4 a5        	ldy	$a5                     ; 0x20a5 <f256main+0x1777>
    3b99: 84 12        	sty	$12                     ; 0x2012 <f256main+0x16e4>
    3b9b: a0 0c        	ldy	#$c
    3b9d: b1 24        	lda	($24),y                 ; 0x2024 <f256main+0x16f6>
    3b9f: 85 a0        	sta	$a0                     ; 0x20a0 <f256main+0x1772>
    3ba1: a4 13        	ldy	$13                     ; 0x2013 <f256main+0x16e5>
    3ba3: 84 a6        	sty	$a6                     ; 0x20a6 <f256main+0x1778>
    3ba5: a4 14        	ldy	$14                     ; 0x2014 <f256main+0x16e6>
    3ba7: 84 a7        	sty	$a7                     ; 0x20a7 <f256main+0x1779>
    3ba9: 86 a8        	stx	$a8                     ; 0x20a8 <f256main+0x177a>
    3bab: a6 12        	ldx	$12                     ; 0x2012 <f256main+0x16e4>
    3bad: 86 a9        	stx	$a9                     ; 0x20a9 <f256main+0x177b>
    3baf: 9c e0 d6     	stz	$d6e0                   ; 0xd6e0 <end_block9+0x4eb6>
    3bb2: 4c d0 42     	jmp	$42d0 <dispatchAction+0xbf8>
    3bb5: a5 0f        	lda	$f                      ; 0x200f <f256main+0x16e1>
    3bb7: 78           	sei
    3bb8: a2 0a        	ldx	#$a
    3bba: 86 0f        	stx	$f                      ; 0x200f <f256main+0x16e1>
    3bbc: a0 3f        	ldy	#$3f
    3bbe: 8c 36 f6     	sty	$f636                   ; 0xf636 <end_block9+0x6e0c>
    3bc1: 9c 37 f6     	stz	$f637                   ; 0xf637 <end_block9+0x6e0d>
    3bc4: 85 0f        	sta	$f                      ; 0x200f <f256main+0x16e1>
    3bc6: 58           	cli
    3bc7: a5 0f        	lda	$f                      ; 0x200f <f256main+0x16e1>
    3bc9: 78           	sei
    3bca: 86 0f        	stx	$f                      ; 0x200f <f256main+0x16e1>
    3bcc: 8c 38 f6     	sty	$f638                   ; 0xf638 <end_block9+0x6e0e>
    3bcf: 9c 39 f6     	stz	$f639                   ; 0xf639 <end_block9+0x6e0f>
    3bd2: 85 0f        	sta	$f                      ; 0x200f <f256main+0x16e1>
    3bd4: 58           	cli
    3bd5: a5 0f        	lda	$f                      ; 0x200f <f256main+0x16e1>
    3bd7: 78           	sei
    3bd8: 86 0f        	stx	$f                      ; 0x200f <f256main+0x16e1>
    3bda: 8c 3a f6     	sty	$f63a                   ; 0xf63a <end_block9+0x6e10>
    3bdd: 9c 3b f6     	stz	$f63b                   ; 0xf63b <end_block9+0x6e11>
    3be0: 85 0f        	sta	$f                      ; 0x200f <f256main+0x16e1>
    3be2: 58           	cli
    3be3: a5 0f        	lda	$f                      ; 0x200f <f256main+0x16e1>
    3be5: 78           	sei
    3be6: 86 0f        	stx	$f                      ; 0x200f <f256main+0x16e1>
    3be8: 8c 3c f6     	sty	$f63c                   ; 0xf63c <end_block9+0x6e12>
    3beb: 9c 3d f6     	stz	$f63d                   ; 0xf63d <end_block9+0x6e13>
    3bee: 85 0f        	sta	$f                      ; 0x200f <f256main+0x16e1>
    3bf0: 58           	cli
    3bf1: a5 0f        	lda	$f                      ; 0x200f <f256main+0x16e1>
    3bf3: 78           	sei
    3bf4: 86 0f        	stx	$f                      ; 0x200f <f256main+0x16e1>
    3bf6: 8c 3e f6     	sty	$f63e                   ; 0xf63e <end_block9+0x6e14>
    3bf9: 9c 3f f6     	stz	$f63f                   ; 0xf63f <end_block9+0x6e15>
    3bfc: 85 0f        	sta	$f                      ; 0x200f <f256main+0x16e1>
    3bfe: 58           	cli
    3bff: a5 0f        	lda	$f                      ; 0x200f <f256main+0x16e1>
    3c01: 78           	sei
    3c02: 86 0f        	stx	$f                      ; 0x200f <f256main+0x16e1>
    3c04: 8c 40 f6     	sty	$f640                   ; 0xf640 <end_block9+0x6e16>
    3c07: 9c 41 f6     	stz	$f641                   ; 0xf641 <end_block9+0x6e17>
    3c0a: 85 0f        	sta	$f                      ; 0x200f <f256main+0x16e1>
    3c0c: 58           	cli
    3c0d: a5 0f        	lda	$f                      ; 0x200f <f256main+0x16e1>
    3c0f: 78           	sei
    3c10: 86 0f        	stx	$f                      ; 0x200f <f256main+0x16e1>
    3c12: 8c 42 f6     	sty	$f642                   ; 0xf642 <end_block9+0x6e18>
    3c15: 9c 43 f6     	stz	$f643                   ; 0xf643 <end_block9+0x6e19>
    3c18: 85 0f        	sta	$f                      ; 0x200f <f256main+0x16e1>
    3c1a: 58           	cli
    3c1b: a5 0f        	lda	$f                      ; 0x200f <f256main+0x16e1>
    3c1d: 78           	sei
    3c1e: 86 0f        	stx	$f                      ; 0x200f <f256main+0x16e1>
    3c20: 8c 44 f6     	sty	$f644                   ; 0xf644 <end_block9+0x6e1a>
    3c23: 9c 45 f6     	stz	$f645                   ; 0xf645 <end_block9+0x6e1b>
    3c26: 85 0f        	sta	$f                      ; 0x200f <f256main+0x16e1>
    3c28: 58           	cli
    3c29: a5 0f        	lda	$f                      ; 0x200f <f256main+0x16e1>
    3c2b: 78           	sei
    3c2c: 86 0f        	stx	$f                      ; 0x200f <f256main+0x16e1>
    3c2e: 8c 46 f6     	sty	$f646                   ; 0xf646 <end_block9+0x6e1c>
    3c31: 9c 47 f6     	stz	$f647                   ; 0xf647 <end_block9+0x6e1d>
    3c34: 85 0f        	sta	$f                      ; 0x200f <f256main+0x16e1>
    3c36: 58           	cli
    3c37: 4c f0 3d     	jmp	$3df0 <dispatchAction+0x718>
    3c3a: a2 e2        	ldx	#$e2
    3c3c: a0 36        	ldy	#$36
    3c3e: 98           	tya
    3c3f: a0 07        	ldy	#$7
    3c41: 91 10        	sta	($10),y                 ; 0x2010 <f256main+0x16e2>
    3c43: a0 03        	ldy	#$3
    3c45: 64 15        	stz	$15                     ; 0x2015 <f256main+0x16e7>
    3c47: 5a           	phy
    3c48: a0 07        	ldy	#$7
    3c4a: b1 10        	lda	($10),y                 ; 0x2010 <f256main+0x16e2>
    3c4c: 7a           	ply
    3c4d: 85 17        	sta	$17                     ; 0x2017 <f256main+0x16e9>
    3c4f: 85 12        	sta	$12                     ; 0x2012 <f256main+0x16e4>
    3c51: 86 16        	stx	$16                     ; 0x2016 <f256main+0x16e8>
    3c53: 86 13        	stx	$13                     ; 0x2013 <f256main+0x16e5>
    3c55: 18           	clc
    3c56: 84 14        	sty	$14                     ; 0x2014 <f256main+0x16e6>
    3c58: 98           	tya
    3c59: 69 fd        	adc	#$fd
    3c5b: 85 18        	sta	$18                     ; 0x2018 <f256main+0x16ea>
    3c5d: a6 15        	ldx	$15                     ; 0x2015 <f256main+0x16e7>
    3c5f: 9e b2 83     	stz	$83b2,x                 ; 0x83b2 <lights+0x2>
    3c62: 9e b4 83     	stz	$83b4,x                 ; 0x83b4 <lights+0x4>
    3c65: 9e b5 83     	stz	$83b5,x                 ; 0x83b5 <lights+0x5>
    3c68: 9e b6 83     	stz	$83b6,x                 ; 0x83b6 <lights+0x6>
    3c6b: 9e b7 83     	stz	$83b7,x                 ; 0x83b7 <lights+0x7>
    3c6e: 9e b9 83     	stz	$83b9,x                 ; 0x83b9 <lights+0x9>
    3c71: 9e bb 83     	stz	$83bb,x                 ; 0x83bb <lights+0xb>
    3c74: a4 15        	ldy	$15                     ; 0x2015 <f256main+0x16e7>
    3c76: a9 ff        	lda	#$ff
    3c78: 99 b0 83     	sta	$83b0,y                 ; 0x83b0 <lights>
    3c7b: a5 14        	lda	$14                     ; 0x2014 <f256main+0x16e6>
    3c7d: 99 b1 83     	sta	$83b1,y                 ; 0x83b1 <lights+0x1>
    3c80: a9 0e        	lda	#$e
    3c82: 99 b3 83     	sta	$83b3,y                 ; 0x83b3 <lights+0x3>
    3c85: a9 3a        	lda	#$3a
    3c87: 99 b8 83     	sta	$83b8,y                 ; 0x83b8 <lights+0x8>
    3c8a: a9 01        	lda	#$1
    3c8c: 99 ba 83     	sta	$83ba,y                 ; 0x83ba <lights+0xa>
    3c8f: a5 18        	lda	$18                     ; 0x2018 <f256main+0x16ea>
    3c91: 99 bc 83     	sta	$83bc,y                 ; 0x83bc <lights+0xc>
    3c94: a9 10        	lda	#$10
    3c96: 99 bd 83     	sta	$83bd,y                 ; 0x83bd <lights+0xd>
    3c99: 9e be 83     	stz	$83be,x                 ; 0x83be <lights+0xe>
    3c9c: 9e bf 83     	stz	$83bf,x                 ; 0x83bf <lights+0xf>
    3c9f: 9e c0 83     	stz	$83c0,x                 ; 0x83c0 <lights+0x10>
    3ca2: 9e c1 83     	stz	$83c1,x                 ; 0x83c1 <lights+0x11>
    3ca5: a9 ff        	lda	#$ff
    3ca7: 99 c2 83     	sta	$83c2,y                 ; 0x83c2 <lights+0x12>
    3caa: 9e c3 83     	stz	$83c3,x                 ; 0x83c3 <lights+0x13>
    3cad: a6 0f        	ldx	$f                      ; 0x200f <f256main+0x16e1>
    3caf: 78           	sei
    3cb0: a0 08        	ldy	#$8
    3cb2: 84 0f        	sty	$f                      ; 0x200f <f256main+0x16e1>
    3cb4: 1a           	inc
    3cb5: 92 12        	sta	($12)                   ; 0x2012 <f256main+0x16e4>
    3cb7: a0 01        	ldy	#$1
    3cb9: 91 12        	sta	($12),y                 ; 0x2012 <f256main+0x16e4>
    3cbb: 86 0f        	stx	$f                      ; 0x200f <f256main+0x16e1>
    3cbd: 58           	cli
    3cbe: 18           	clc
    3cbf: a5 15        	lda	$15                     ; 0x2015 <f256main+0x16e7>
    3cc1: 69 14        	adc	#$14
    3cc3: 85 15        	sta	$15                     ; 0x2015 <f256main+0x16e7>
    3cc5: e6 14        	inc	$14                     ; 0x2014 <f256main+0x16e6>
    3cc7: 18           	clc
    3cc8: a5 17        	lda	$17                     ; 0x2017 <f256main+0x16e9>
    3cca: 69 02        	adc	#$2
    3ccc: a0 07        	ldy	#$7
    3cce: 91 10        	sta	($10),y                 ; 0x2010 <f256main+0x16e2>
    3cd0: a5 16        	lda	$16                     ; 0x2016 <f256main+0x16e8>
    3cd2: 69 00        	adc	#$0
    3cd4: aa           	tax
    3cd5: a4 14        	ldy	$14                     ; 0x2014 <f256main+0x16e6>
    3cd7: a5 14        	lda	$14                     ; 0x2014 <f256main+0x16e6>
    3cd9: c9 0c        	cmp	#$c
    3cdb: f0 03        	beq	$3ce0 <dispatchAction+0x608>
    3cdd: 4c 47 3c     	jmp	$3c47 <dispatchAction+0x56f>
    3ce0: a2 09        	ldx	#$9
    3ce2: 8a           	txa
    3ce3: a0 05        	ldy	#$5
    3ce5: 91 10        	sta	($10),y                 ; 0x2010 <f256main+0x16e2>
    3ce7: a2 5e        	ldx	#$5e
    3ce9: 8a           	txa
    3cea: a0 07        	ldy	#$7
    3cec: 91 10        	sta	($10),y                 ; 0x2010 <f256main+0x16e2>
    3cee: a2 e2        	ldx	#$e2
    3cf0: 8a           	txa
    3cf1: 88           	dey
    3cf2: 91 10        	sta	($10),y                 ; 0x2010 <f256main+0x16e2>
    3cf4: a2 b0        	ldx	#$b0
    3cf6: 86 12        	stx	$12                     ; 0x2012 <f256main+0x16e4>
    3cf8: a2 83        	ldx	#$83
    3cfa: 86 13        	stx	$13                     ; 0x2013 <f256main+0x16e5>
    3cfc: a4 12        	ldy	$12                     ; 0x2012 <f256main+0x16e4>
    3cfe: a6 13        	ldx	$13                     ; 0x2013 <f256main+0x16e5>
    3d00: 86 18        	stx	$18                     ; 0x2018 <f256main+0x16ea>
    3d02: 18           	clc
    3d03: a5 12        	lda	$12                     ; 0x2012 <f256main+0x16e4>
    3d05: 84 19        	sty	$19                     ; 0x2019 <f256main+0x16eb>
    3d07: 69 b5        	adc	#$b5
    3d09: 85 14        	sta	$14                     ; 0x2014 <f256main+0x16e6>
    3d0b: a5 13        	lda	$13                     ; 0x2013 <f256main+0x16e5>
    3d0d: 69 00        	adc	#$0
    3d0f: 85 15        	sta	$15                     ; 0x2015 <f256main+0x16e7>
    3d11: a9 00        	lda	#$0
    3d13: a0 01        	ldy	#$1
    3d15: 91 14        	sta	($14),y                 ; 0x2014 <f256main+0x16e6>
    3d17: 18           	clc
    3d18: a5 19        	lda	$19                     ; 0x2019 <f256main+0x16eb>
    3d1a: 69 b7        	adc	#$b7
    3d1c: 85 14        	sta	$14                     ; 0x2014 <f256main+0x16e6>
    3d1e: a5 13        	lda	$13                     ; 0x2013 <f256main+0x16e5>
    3d20: 69 00        	adc	#$0
    3d22: 85 15        	sta	$15                     ; 0x2015 <f256main+0x16e7>
    3d24: a9 00        	lda	#$0
    3d26: 91 14        	sta	($14),y                 ; 0x2014 <f256main+0x16e6>
    3d28: 18           	clc
    3d29: a5 19        	lda	$19                     ; 0x2019 <f256main+0x16eb>
    3d2b: 69 bc        	adc	#$bc
    3d2d: 85 14        	sta	$14                     ; 0x2014 <f256main+0x16e6>
    3d2f: a5 13        	lda	$13                     ; 0x2013 <f256main+0x16e5>
    3d31: 69 00        	adc	#$0
    3d33: 85 15        	sta	$15                     ; 0x2015 <f256main+0x16e7>
    3d35: a9 00        	lda	#$0
    3d37: 91 14        	sta	($14),y                 ; 0x2014 <f256main+0x16e6>
    3d39: 98           	tya
    3d3a: c8           	iny
    3d3b: 91 14        	sta	($14),y                 ; 0x2014 <f256main+0x16e6>
    3d3d: c8           	iny
    3d3e: 3a           	dec
    3d3f: 91 14        	sta	($14),y                 ; 0x2014 <f256main+0x16e6>
    3d41: 18           	clc
    3d42: a5 19        	lda	$19                     ; 0x2019 <f256main+0x16eb>
    3d44: 69 c2        	adc	#$c2
    3d46: 85 14        	sta	$14                     ; 0x2014 <f256main+0x16e6>
    3d48: a5 13        	lda	$13                     ; 0x2013 <f256main+0x16e5>
    3d4a: 69 00        	adc	#$0
    3d4c: 85 15        	sta	$15                     ; 0x2015 <f256main+0x16e7>
    3d4e: a0 05        	ldy	#$5
    3d50: b1 10        	lda	($10),y                 ; 0x2010 <f256main+0x16e2>
    3d52: 85 1a        	sta	$1a                     ; 0x201a <f256main+0x16ec>
    3d54: a0 01        	ldy	#$1
    3d56: a9 00        	lda	#$0
    3d58: 91 14        	sta	($14),y                 ; 0x2014 <f256main+0x16e6>
    3d5a: c8           	iny
    3d5b: 91 14        	sta	($14),y                 ; 0x2014 <f256main+0x16e6>
    3d5d: c8           	iny
    3d5e: 91 14        	sta	($14),y                 ; 0x2014 <f256main+0x16e6>
    3d60: 18           	clc
    3d61: a5 1a        	lda	$1a                     ; 0x201a <f256main+0x16ec>
    3d63: 69 fa        	adc	#$fa
    3d65: aa           	tax
    3d66: a0 b4        	ldy	#$b4
    3d68: a9 ff        	lda	#$ff
    3d6a: 91 12        	sta	($12),y                 ; 0x2012 <f256main+0x16e4>
    3d6c: c8           	iny
    3d6d: 8a           	txa
    3d6e: 91 12        	sta	($12),y                 ; 0x2012 <f256main+0x16e4>
    3d70: a9 0f        	lda	#$f
    3d72: a0 b7        	ldy	#$b7
    3d74: 91 12        	sta	($12),y                 ; 0x2012 <f256main+0x16e4>
    3d76: a0 b9        	ldy	#$b9
    3d78: a9 00        	lda	#$0
    3d7a: 91 12        	sta	($12),y                 ; 0x2012 <f256main+0x16e4>
    3d7c: c8           	iny
    3d7d: 91 12        	sta	($12),y                 ; 0x2012 <f256main+0x16e4>
    3d7f: c8           	iny
    3d80: 91 12        	sta	($12),y                 ; 0x2012 <f256main+0x16e4>
    3d82: a9 3a        	lda	#$3a
    3d84: c8           	iny
    3d85: 91 12        	sta	($12),y                 ; 0x2012 <f256main+0x16e4>
    3d87: a0 c0        	ldy	#$c0
    3d89: a5 1a        	lda	$1a                     ; 0x201a <f256main+0x16ec>
    3d8b: 91 12        	sta	($12),y                 ; 0x2012 <f256main+0x16e4>
    3d8d: a9 10        	lda	#$10
    3d8f: c8           	iny
    3d90: 91 12        	sta	($12),y                 ; 0x2012 <f256main+0x16e4>
    3d92: c8           	iny
    3d93: a9 00        	lda	#$0
    3d95: 91 12        	sta	($12),y                 ; 0x2012 <f256main+0x16e4>
    3d97: a0 c6        	ldy	#$c6
    3d99: 3a           	dec
    3d9a: 91 12        	sta	($12),y                 ; 0x2012 <f256main+0x16e4>
    3d9c: c8           	iny
    3d9d: 1a           	inc
    3d9e: 91 12        	sta	($12),y                 ; 0x2012 <f256main+0x16e4>
    3da0: a0 07        	ldy	#$7
    3da2: b1 10        	lda	($10),y                 ; 0x2010 <f256main+0x16e2>
    3da4: 85 17        	sta	$17                     ; 0x2017 <f256main+0x16e9>
    3da6: 85 12        	sta	$12                     ; 0x2012 <f256main+0x16e4>
    3da8: 88           	dey
    3da9: b1 10        	lda	($10),y                 ; 0x2010 <f256main+0x16e2>
    3dab: 85 16        	sta	$16                     ; 0x2016 <f256main+0x16e8>
    3dad: 85 13        	sta	$13                     ; 0x2013 <f256main+0x16e5>
    3daf: a6 0f        	ldx	$f                      ; 0x200f <f256main+0x16e1>
    3db1: 78           	sei
    3db2: a0 08        	ldy	#$8
    3db4: 84 0f        	sty	$f                      ; 0x200f <f256main+0x16e1>
    3db6: a9 00        	lda	#$0
    3db8: 92 12        	sta	($12)                   ; 0x2012 <f256main+0x16e4>
    3dba: a0 01        	ldy	#$1
    3dbc: 91 12        	sta	($12),y                 ; 0x2012 <f256main+0x16e4>
    3dbe: 86 0f        	stx	$f                      ; 0x200f <f256main+0x16e1>
    3dc0: 18           	clc
    3dc1: a5 17        	lda	$17                     ; 0x2017 <f256main+0x16e9>
    3dc3: 69 02        	adc	#$2
    3dc5: a0 07        	ldy	#$7
    3dc7: 91 10        	sta	($10),y                 ; 0x2010 <f256main+0x16e2>
    3dc9: a5 16        	lda	$16                     ; 0x2016 <f256main+0x16e8>
    3dcb: 69 00        	adc	#$0
    3dcd: 88           	dey
    3dce: 91 10        	sta	($10),y                 ; 0x2010 <f256main+0x16e2>
    3dd0: 18           	clc
    3dd1: a5 19        	lda	$19                     ; 0x2019 <f256main+0x16eb>
    3dd3: 69 14        	adc	#$14
    3dd5: 85 12        	sta	$12                     ; 0x2012 <f256main+0x16e4>
    3dd7: a5 18        	lda	$18                     ; 0x2018 <f256main+0x16ea>
    3dd9: 69 00        	adc	#$0
    3ddb: 58           	cli
    3ddc: e6 1a        	inc	$1a                     ; 0x201a <f256main+0x16ec>
    3dde: 85 13        	sta	$13                     ; 0x2013 <f256main+0x16e5>
    3de0: a4 1a        	ldy	$1a                     ; 0x201a <f256main+0x16ec>
    3de2: 98           	tya
    3de3: 5a           	phy
    3de4: a0 05        	ldy	#$5
    3de6: 91 10        	sta	($10),y                 ; 0x2010 <f256main+0x16e2>
    3de8: 7a           	ply
    3de9: c0 12        	cpy	#$12
    3deb: f0 03        	beq	$3df0 <dispatchAction+0x718>
    3ded: 4c fc 3c     	jmp	$3cfc <dispatchAction+0x624>
    3df0: 20 04 43     	jsr	$4304 <textLayerGen>
    3df3: 80 03        	bra	$3df8 <dispatchAction+0x720>
    3df5: 20 c4 45     	jsr	$45c4 <loadGUISID>
    3df8: a0 12        	ldy	#$12
    3dfa: b1 24        	lda	($24),y                 ; 0x2024 <f256main+0x16f6>
    3dfc: c9 18        	cmp	#$18
    3dfe: f0 03        	beq	$3e03 <dispatchAction+0x72b>
    3e00: 4c 83 3a     	jmp	$3a83 <dispatchAction+0x3ab>
    3e03: a0 06        	ldy	#$6
    3e05: b1 24        	lda	($24),y                 ; 0x2024 <f256main+0x16f6>
    3e07: aa           	tax
    3e08: a5 cf        	lda	$cf                     ; 0x20cf <f256main+0x17a1>
    3e0a: a4 d0        	ldy	$d0                     ; 0x20d0 <f256main+0x17a2>
    3e0c: 84 14        	sty	$14                     ; 0x2014 <f256main+0x16e6>
    3e0e: 85 12        	sta	$12                     ; 0x2012 <f256main+0x16e4>
    3e10: 84 13        	sty	$13                     ; 0x2013 <f256main+0x16e5>
    3e12: a0 04        	ldy	#$4
    3e14: 18           	clc
    3e15: 69 04        	adc	#$4
    3e17: 85 16        	sta	$16                     ; 0x2016 <f256main+0x16e8>
    3e19: a5 14        	lda	$14                     ; 0x2014 <f256main+0x16e6>
    3e1b: 69 00        	adc	#$0
    3e1d: 5a           	phy
    3e1e: a4 16        	ldy	$16                     ; 0x2016 <f256main+0x16e8>
    3e20: 84 14        	sty	$14                     ; 0x2014 <f256main+0x16e6>
    3e22: 7a           	ply
    3e23: 85 15        	sta	$15                     ; 0x2015 <f256main+0x16e7>
    3e25: b1 12        	lda	($12),y                 ; 0x2012 <f256main+0x16e4>
    3e27: 85 12        	sta	$12                     ; 0x2012 <f256main+0x16e4>
    3e29: a0 01        	ldy	#$1
    3e2b: b1 14        	lda	($14),y                 ; 0x2014 <f256main+0x16e6>
    3e2d: 85 13        	sta	$13                     ; 0x2013 <f256main+0x16e5>
    3e2f: a0 05        	ldy	#$5
    3e31: b1 12        	lda	($12),y                 ; 0x2012 <f256main+0x16e4>
    3e33: e0 00        	cpx	#$0
    3e35: f0 04        	beq	$3e3b <dispatchAction+0x763>
    3e37: 09 10        	ora	#$10
    3e39: 80 02        	bra	$3e3d <dispatchAction+0x765>
    3e3b: 49 10        	eor	#$10
    3e3d: 91 12        	sta	($12),y                 ; 0x2012 <f256main+0x16e4>
    3e3f: 8d 04 d4     	sta	$d404                   ; 0xd404 <end_block9+0x4bda>
    3e42: 8d 0b d4     	sta	$d40b                   ; 0xd40b <end_block9+0x4be1>
    3e45: 8d 12 d4     	sta	$d412                   ; 0xd412 <end_block9+0x4be8>
    3e48: 8d 04 d5     	sta	$d504                   ; 0xd504 <end_block9+0x4cda>
    3e4b: 8d 0b d5     	sta	$d50b                   ; 0xd50b <end_block9+0x4ce1>
    3e4e: 8d 12 d5     	sta	$d512                   ; 0xd512 <end_block9+0x4ce8>
    3e51: a0 12        	ldy	#$12
    3e53: b1 24        	lda	($24),y                 ; 0x2024 <f256main+0x16f6>
    3e55: c9 19        	cmp	#$19
    3e57: f0 03        	beq	$3e5c <dispatchAction+0x784>
    3e59: 4c 8a 3a     	jmp	$3a8a <dispatchAction+0x3b2>
    3e5c: a0 06        	ldy	#$6
    3e5e: b1 24        	lda	($24),y                 ; 0x2024 <f256main+0x16f6>
    3e60: aa           	tax
    3e61: a5 cf        	lda	$cf                     ; 0x20cf <f256main+0x17a1>
    3e63: a4 d0        	ldy	$d0                     ; 0x20d0 <f256main+0x17a2>
    3e65: 84 14        	sty	$14                     ; 0x2014 <f256main+0x16e6>
    3e67: 85 12        	sta	$12                     ; 0x2012 <f256main+0x16e4>
    3e69: 84 13        	sty	$13                     ; 0x2013 <f256main+0x16e5>
    3e6b: a0 04        	ldy	#$4
    3e6d: 18           	clc
    3e6e: 69 04        	adc	#$4
    3e70: 85 16        	sta	$16                     ; 0x2016 <f256main+0x16e8>
    3e72: a5 14        	lda	$14                     ; 0x2014 <f256main+0x16e6>
    3e74: 69 00        	adc	#$0
    3e76: 5a           	phy
    3e77: a4 16        	ldy	$16                     ; 0x2016 <f256main+0x16e8>
    3e79: 84 14        	sty	$14                     ; 0x2014 <f256main+0x16e6>
    3e7b: 7a           	ply
    3e7c: 85 15        	sta	$15                     ; 0x2015 <f256main+0x16e7>
    3e7e: b1 12        	lda	($12),y                 ; 0x2012 <f256main+0x16e4>
    3e80: 85 12        	sta	$12                     ; 0x2012 <f256main+0x16e4>
    3e82: a0 01        	ldy	#$1
    3e84: b1 14        	lda	($14),y                 ; 0x2014 <f256main+0x16e6>
    3e86: 85 13        	sta	$13                     ; 0x2013 <f256main+0x16e5>
    3e88: a0 05        	ldy	#$5
    3e8a: b1 12        	lda	($12),y                 ; 0x2012 <f256main+0x16e4>
    3e8c: e0 00        	cpx	#$0
    3e8e: f0 04        	beq	$3e94 <dispatchAction+0x7bc>
    3e90: 09 20        	ora	#$20
    3e92: 80 02        	bra	$3e96 <dispatchAction+0x7be>
    3e94: 49 20        	eor	#$20
    3e96: 91 12        	sta	($12),y                 ; 0x2012 <f256main+0x16e4>
    3e98: 8d 04 d4     	sta	$d404                   ; 0xd404 <end_block9+0x4bda>
    3e9b: 8d 0b d4     	sta	$d40b                   ; 0xd40b <end_block9+0x4be1>
    3e9e: 8d 12 d4     	sta	$d412                   ; 0xd412 <end_block9+0x4be8>
    3ea1: 8d 04 d5     	sta	$d504                   ; 0xd504 <end_block9+0x4cda>
    3ea4: 8d 0b d5     	sta	$d50b                   ; 0xd50b <end_block9+0x4ce1>
    3ea7: 8d 12 d5     	sta	$d512                   ; 0xd512 <end_block9+0x4ce8>
    3eaa: a0 12        	ldy	#$12
    3eac: b1 24        	lda	($24),y                 ; 0x2024 <f256main+0x16f6>
    3eae: c9 1a        	cmp	#$1a
    3eb0: f0 03        	beq	$3eb5 <dispatchAction+0x7dd>
    3eb2: 4c 91 3a     	jmp	$3a91 <dispatchAction+0x3b9>
    3eb5: a0 06        	ldy	#$6
    3eb7: b1 24        	lda	($24),y                 ; 0x2024 <f256main+0x16f6>
    3eb9: aa           	tax
    3eba: a5 cf        	lda	$cf                     ; 0x20cf <f256main+0x17a1>
    3ebc: a4 d0        	ldy	$d0                     ; 0x20d0 <f256main+0x17a2>
    3ebe: 84 14        	sty	$14                     ; 0x2014 <f256main+0x16e6>
    3ec0: 85 12        	sta	$12                     ; 0x2012 <f256main+0x16e4>
    3ec2: 84 13        	sty	$13                     ; 0x2013 <f256main+0x16e5>
    3ec4: a0 04        	ldy	#$4
    3ec6: 18           	clc
    3ec7: 69 04        	adc	#$4
    3ec9: 85 16        	sta	$16                     ; 0x2016 <f256main+0x16e8>
    3ecb: a5 14        	lda	$14                     ; 0x2014 <f256main+0x16e6>
    3ecd: 69 00        	adc	#$0
    3ecf: 5a           	phy
    3ed0: a4 16        	ldy	$16                     ; 0x2016 <f256main+0x16e8>
    3ed2: 84 14        	sty	$14                     ; 0x2014 <f256main+0x16e6>
    3ed4: 7a           	ply
    3ed5: 85 15        	sta	$15                     ; 0x2015 <f256main+0x16e7>
    3ed7: b1 12        	lda	($12),y                 ; 0x2012 <f256main+0x16e4>
    3ed9: 85 12        	sta	$12                     ; 0x2012 <f256main+0x16e4>
    3edb: a0 01        	ldy	#$1
    3edd: b1 14        	lda	($14),y                 ; 0x2014 <f256main+0x16e6>
    3edf: 85 13        	sta	$13                     ; 0x2013 <f256main+0x16e5>
    3ee1: a0 05        	ldy	#$5
    3ee3: b1 12        	lda	($12),y                 ; 0x2012 <f256main+0x16e4>
    3ee5: e0 00        	cpx	#$0
    3ee7: f0 04        	beq	$3eed <dispatchAction+0x815>
    3ee9: 09 40        	ora	#$40
    3eeb: 80 02        	bra	$3eef <dispatchAction+0x817>
    3eed: 49 40        	eor	#$40
    3eef: 91 12        	sta	($12),y                 ; 0x2012 <f256main+0x16e4>
    3ef1: 8d 04 d4     	sta	$d404                   ; 0xd404 <end_block9+0x4bda>
    3ef4: 8d 0b d4     	sta	$d40b                   ; 0xd40b <end_block9+0x4be1>
    3ef7: 8d 12 d4     	sta	$d412                   ; 0xd412 <end_block9+0x4be8>
    3efa: 8d 04 d5     	sta	$d504                   ; 0xd504 <end_block9+0x4cda>
    3efd: 8d 0b d5     	sta	$d50b                   ; 0xd50b <end_block9+0x4ce1>
    3f00: 8d 12 d5     	sta	$d512                   ; 0xd512 <end_block9+0x4ce8>
    3f03: a0 12        	ldy	#$12
    3f05: b1 24        	lda	($24),y                 ; 0x2024 <f256main+0x16f6>
    3f07: c9 1b        	cmp	#$1b
    3f09: f0 03        	beq	$3f0e <dispatchAction+0x836>
    3f0b: 4c 98 3a     	jmp	$3a98 <dispatchAction+0x3c0>
    3f0e: a0 06        	ldy	#$6
    3f10: b1 24        	lda	($24),y                 ; 0x2024 <f256main+0x16f6>
    3f12: aa           	tax
    3f13: a5 cf        	lda	$cf                     ; 0x20cf <f256main+0x17a1>
    3f15: a4 d0        	ldy	$d0                     ; 0x20d0 <f256main+0x17a2>
    3f17: 84 14        	sty	$14                     ; 0x2014 <f256main+0x16e6>
    3f19: 85 12        	sta	$12                     ; 0x2012 <f256main+0x16e4>
    3f1b: 84 13        	sty	$13                     ; 0x2013 <f256main+0x16e5>
    3f1d: a0 04        	ldy	#$4
    3f1f: 18           	clc
    3f20: 69 04        	adc	#$4
    3f22: 85 16        	sta	$16                     ; 0x2016 <f256main+0x16e8>
    3f24: a5 14        	lda	$14                     ; 0x2014 <f256main+0x16e6>
    3f26: 69 00        	adc	#$0
    3f28: 5a           	phy
    3f29: a4 16        	ldy	$16                     ; 0x2016 <f256main+0x16e8>
    3f2b: 84 14        	sty	$14                     ; 0x2014 <f256main+0x16e6>
    3f2d: 7a           	ply
    3f2e: 85 15        	sta	$15                     ; 0x2015 <f256main+0x16e7>
    3f30: b1 12        	lda	($12),y                 ; 0x2012 <f256main+0x16e4>
    3f32: 85 12        	sta	$12                     ; 0x2012 <f256main+0x16e4>
    3f34: a0 01        	ldy	#$1
    3f36: b1 14        	lda	($14),y                 ; 0x2014 <f256main+0x16e6>
    3f38: 85 13        	sta	$13                     ; 0x2013 <f256main+0x16e5>
    3f3a: a0 05        	ldy	#$5
    3f3c: b1 12        	lda	($12),y                 ; 0x2012 <f256main+0x16e4>
    3f3e: e0 00        	cpx	#$0
    3f40: f0 04        	beq	$3f46 <dispatchAction+0x86e>
    3f42: 09 80        	ora	#$80
    3f44: 80 02        	bra	$3f48 <dispatchAction+0x870>
    3f46: 49 80        	eor	#$80
    3f48: 91 12        	sta	($12),y                 ; 0x2012 <f256main+0x16e4>
    3f4a: 8d 04 d4     	sta	$d404                   ; 0xd404 <end_block9+0x4bda>
    3f4d: 8d 0b d4     	sta	$d40b                   ; 0xd40b <end_block9+0x4be1>
    3f50: 8d 12 d4     	sta	$d412                   ; 0xd412 <end_block9+0x4be8>
    3f53: 8d 04 d5     	sta	$d504                   ; 0xd504 <end_block9+0x4cda>
    3f56: 8d 0b d5     	sta	$d50b                   ; 0xd50b <end_block9+0x4ce1>
    3f59: 8d 12 d5     	sta	$d512                   ; 0xd512 <end_block9+0x4ce8>
    3f5c: a0 12        	ldy	#$12
    3f5e: b1 24        	lda	($24),y                 ; 0x2024 <f256main+0x16f6>
    3f60: c9 31        	cmp	#$31
    3f62: f0 03        	beq	$3f67 <dispatchAction+0x88f>
    3f64: 4c 03 40     	jmp	$4003 <dispatchAction+0x92b>
    3f67: a0 06        	ldy	#$6
    3f69: b1 24        	lda	($24),y                 ; 0x2024 <f256main+0x16f6>
    3f6b: aa           	tax
    3f6c: a5 cf        	lda	$cf                     ; 0x20cf <f256main+0x17a1>
    3f6e: a4 d0        	ldy	$d0                     ; 0x20d0 <f256main+0x17a2>
    3f70: 84 14        	sty	$14                     ; 0x2014 <f256main+0x16e6>
    3f72: 85 12        	sta	$12                     ; 0x2012 <f256main+0x16e4>
    3f74: 84 13        	sty	$13                     ; 0x2013 <f256main+0x16e5>
    3f76: a0 04        	ldy	#$4
    3f78: 18           	clc
    3f79: 69 04        	adc	#$4
    3f7b: 85 16        	sta	$16                     ; 0x2016 <f256main+0x16e8>
    3f7d: a5 14        	lda	$14                     ; 0x2014 <f256main+0x16e6>
    3f7f: 69 00        	adc	#$0
    3f81: 5a           	phy
    3f82: a4 16        	ldy	$16                     ; 0x2016 <f256main+0x16e8>
    3f84: 84 14        	sty	$14                     ; 0x2014 <f256main+0x16e6>
    3f86: 7a           	ply
    3f87: 85 15        	sta	$15                     ; 0x2015 <f256main+0x16e7>
    3f89: b1 12        	lda	($12),y                 ; 0x2012 <f256main+0x16e4>
    3f8b: 85 12        	sta	$12                     ; 0x2012 <f256main+0x16e4>
    3f8d: a0 01        	ldy	#$1
    3f8f: b1 14        	lda	($14),y                 ; 0x2014 <f256main+0x16e6>
    3f91: 85 13        	sta	$13                     ; 0x2013 <f256main+0x16e5>
    3f93: a0 05        	ldy	#$5
    3f95: b1 12        	lda	($12),y                 ; 0x2012 <f256main+0x16e4>
    3f97: e0 00        	cpx	#$0
    3f99: f0 04        	beq	$3f9f <dispatchAction+0x8c7>
    3f9b: 09 02        	ora	#$2
    3f9d: 80 02        	bra	$3fa1 <dispatchAction+0x8c9>
    3f9f: 49 02        	eor	#$2
    3fa1: 91 12        	sta	($12),y                 ; 0x2012 <f256main+0x16e4>
    3fa3: 8d 04 d4     	sta	$d404                   ; 0xd404 <end_block9+0x4bda>
    3fa6: 8d 0b d4     	sta	$d40b                   ; 0xd40b <end_block9+0x4be1>
    3fa9: 8d 12 d4     	sta	$d412                   ; 0xd412 <end_block9+0x4be8>
    3fac: 8d 04 d5     	sta	$d504                   ; 0xd504 <end_block9+0x4cda>
    3faf: 8d 0b d5     	sta	$d50b                   ; 0xd50b <end_block9+0x4ce1>
    3fb2: 8d 12 d5     	sta	$d512                   ; 0xd512 <end_block9+0x4ce8>
    3fb5: a0 12        	ldy	#$12
    3fb7: b1 24        	lda	($24),y                 ; 0x2024 <f256main+0x16f6>
    3fb9: c9 31        	cmp	#$31
    3fbb: d0 46        	bne	$4003 <dispatchAction+0x92b>
    3fbd: a0 06        	ldy	#$6
    3fbf: b1 24        	lda	($24),y                 ; 0x2024 <f256main+0x16f6>
    3fc1: aa           	tax
    3fc2: a5 cf        	lda	$cf                     ; 0x20cf <f256main+0x17a1>
    3fc4: a4 d0        	ldy	$d0                     ; 0x20d0 <f256main+0x17a2>
    3fc6: 84 14        	sty	$14                     ; 0x2014 <f256main+0x16e6>
    3fc8: 85 12        	sta	$12                     ; 0x2012 <f256main+0x16e4>
    3fca: 84 13        	sty	$13                     ; 0x2013 <f256main+0x16e5>
    3fcc: a0 04        	ldy	#$4
    3fce: 18           	clc
    3fcf: 69 04        	adc	#$4
    3fd1: 85 16        	sta	$16                     ; 0x2016 <f256main+0x16e8>
    3fd3: a5 14        	lda	$14                     ; 0x2014 <f256main+0x16e6>
    3fd5: 69 00        	adc	#$0
    3fd7: 5a           	phy
    3fd8: a4 16        	ldy	$16                     ; 0x2016 <f256main+0x16e8>
    3fda: 84 14        	sty	$14                     ; 0x2014 <f256main+0x16e6>
    3fdc: 7a           	ply
    3fdd: 85 15        	sta	$15                     ; 0x2015 <f256main+0x16e7>
    3fdf: b1 12        	lda	($12),y                 ; 0x2012 <f256main+0x16e4>
    3fe1: 85 12        	sta	$12                     ; 0x2012 <f256main+0x16e4>
    3fe3: a0 01        	ldy	#$1
    3fe5: b1 14        	lda	($14),y                 ; 0x2014 <f256main+0x16e6>
    3fe7: 85 13        	sta	$13                     ; 0x2013 <f256main+0x16e5>
    3fe9: a0 08        	ldy	#$8
    3feb: b1 12        	lda	($12),y                 ; 0x2012 <f256main+0x16e4>
    3fed: e0 00        	cpx	#$0
    3fef: f0 04        	beq	$3ff5 <dispatchAction+0x91d>
    3ff1: 09 01        	ora	#$1
    3ff3: 80 02        	bra	$3ff7 <dispatchAction+0x91f>
    3ff5: 49 01        	eor	#$1
    3ff7: 91 12        	sta	($12),y                 ; 0x2012 <f256main+0x16e4>
    3ff9: 8d 17 d4     	sta	$d417                   ; 0xd417 <end_block9+0x4bed>
    3ffc: 8d 17 d5     	sta	$d517                   ; 0xd517 <end_block9+0x4ced>
    3fff: a0 12        	ldy	#$12
    4001: b1 24        	lda	($24),y                 ; 0x2024 <f256main+0x16f6>
    4003: c9 2c        	cmp	#$2c
    4005: f0 1f        	beq	$4026 <dispatchAction+0x94e>
    4007: c9 2d        	cmp	#$2d
    4009: d0 03        	bne	$400e <dispatchAction+0x936>
    400b: 4c 71 40     	jmp	$4071 <dispatchAction+0x999>
    400e: c9 2e        	cmp	#$2e
    4010: d0 03        	bne	$4015 <dispatchAction+0x93d>
    4012: 4c bc 40     	jmp	$40bc <dispatchAction+0x9e4>
    4015: c9 2f        	cmp	#$2f
    4017: d0 03        	bne	$401c <dispatchAction+0x944>
    4019: 4c 07 41     	jmp	$4107 <dispatchAction+0xa2f>
    401c: c9 30        	cmp	#$30
    401e: d0 03        	bne	$4023 <dispatchAction+0x94b>
    4020: 4c 76 42     	jmp	$4276 <dispatchAction+0xb9e>
    4023: 4c d0 42     	jmp	$42d0 <dispatchAction+0xbf8>
    4026: a0 06        	ldy	#$6
    4028: b1 24        	lda	($24),y                 ; 0x2024 <f256main+0x16f6>
    402a: aa           	tax
    402b: a5 cf        	lda	$cf                     ; 0x20cf <f256main+0x17a1>
    402d: a4 d0        	ldy	$d0                     ; 0x20d0 <f256main+0x17a2>
    402f: 84 14        	sty	$14                     ; 0x2014 <f256main+0x16e6>
    4031: 85 12        	sta	$12                     ; 0x2012 <f256main+0x16e4>
    4033: 84 13        	sty	$13                     ; 0x2013 <f256main+0x16e5>
    4035: a0 04        	ldy	#$4
    4037: 18           	clc
    4038: 69 04        	adc	#$4
    403a: 85 16        	sta	$16                     ; 0x2016 <f256main+0x16e8>
    403c: a5 14        	lda	$14                     ; 0x2014 <f256main+0x16e6>
    403e: 69 00        	adc	#$0
    4040: 5a           	phy
    4041: a4 16        	ldy	$16                     ; 0x2016 <f256main+0x16e8>
    4043: 84 14        	sty	$14                     ; 0x2014 <f256main+0x16e6>
    4045: 7a           	ply
    4046: 85 15        	sta	$15                     ; 0x2015 <f256main+0x16e7>
    4048: b1 12        	lda	($12),y                 ; 0x2012 <f256main+0x16e4>
    404a: 85 12        	sta	$12                     ; 0x2012 <f256main+0x16e4>
    404c: a0 01        	ldy	#$1
    404e: b1 14        	lda	($14),y                 ; 0x2014 <f256main+0x16e6>
    4050: 85 13        	sta	$13                     ; 0x2013 <f256main+0x16e5>
    4052: b2 12        	lda	($12)                   ; 0x2012 <f256main+0x16e4>
    4054: e0 00        	cpx	#$0
    4056: f0 04        	beq	$405c <dispatchAction+0x984>
    4058: 09 10        	ora	#$10
    405a: 80 02        	bra	$405e <dispatchAction+0x986>
    405c: 49 10        	eor	#$10
    405e: 92 12        	sta	($12)                   ; 0x2012 <f256main+0x16e4>
    4060: 8d 18 d4     	sta	$d418                   ; 0xd418 <end_block9+0x4bee>
    4063: 8d 18 d5     	sta	$d518                   ; 0xd518 <end_block9+0x4cee>
    4066: a0 12        	ldy	#$12
    4068: b1 24        	lda	($24),y                 ; 0x2024 <f256main+0x16f6>
    406a: c9 2d        	cmp	#$2d
    406c: f0 03        	beq	$4071 <dispatchAction+0x999>
    406e: 4c 0e 40     	jmp	$400e <dispatchAction+0x936>
    4071: a0 06        	ldy	#$6
    4073: b1 24        	lda	($24),y                 ; 0x2024 <f256main+0x16f6>
    4075: aa           	tax
    4076: a5 cf        	lda	$cf                     ; 0x20cf <f256main+0x17a1>
    4078: a4 d0        	ldy	$d0                     ; 0x20d0 <f256main+0x17a2>
    407a: 84 14        	sty	$14                     ; 0x2014 <f256main+0x16e6>
    407c: 85 12        	sta	$12                     ; 0x2012 <f256main+0x16e4>
    407e: 84 13        	sty	$13                     ; 0x2013 <f256main+0x16e5>
    4080: a0 04        	ldy	#$4
    4082: 18           	clc
    4083: 69 04        	adc	#$4
    4085: 85 16        	sta	$16                     ; 0x2016 <f256main+0x16e8>
    4087: a5 14        	lda	$14                     ; 0x2014 <f256main+0x16e6>
    4089: 69 00        	adc	#$0
    408b: 5a           	phy
    408c: a4 16        	ldy	$16                     ; 0x2016 <f256main+0x16e8>
    408e: 84 14        	sty	$14                     ; 0x2014 <f256main+0x16e6>
    4090: 7a           	ply
    4091: 85 15        	sta	$15                     ; 0x2015 <f256main+0x16e7>
    4093: b1 12        	lda	($12),y                 ; 0x2012 <f256main+0x16e4>
    4095: 85 12        	sta	$12                     ; 0x2012 <f256main+0x16e4>
    4097: a0 01        	ldy	#$1
    4099: b1 14        	lda	($14),y                 ; 0x2014 <f256main+0x16e6>
    409b: 85 13        	sta	$13                     ; 0x2013 <f256main+0x16e5>
    409d: b2 12        	lda	($12)                   ; 0x2012 <f256main+0x16e4>
    409f: e0 00        	cpx	#$0
    40a1: f0 04        	beq	$40a7 <dispatchAction+0x9cf>
    40a3: 09 20        	ora	#$20
    40a5: 80 02        	bra	$40a9 <dispatchAction+0x9d1>
    40a7: 49 20        	eor	#$20
    40a9: 92 12        	sta	($12)                   ; 0x2012 <f256main+0x16e4>
    40ab: 8d 18 d4     	sta	$d418                   ; 0xd418 <end_block9+0x4bee>
    40ae: 8d 18 d5     	sta	$d518                   ; 0xd518 <end_block9+0x4cee>
    40b1: a0 12        	ldy	#$12
    40b3: b1 24        	lda	($24),y                 ; 0x2024 <f256main+0x16f6>
    40b5: c9 2e        	cmp	#$2e
    40b7: f0 03        	beq	$40bc <dispatchAction+0x9e4>
    40b9: 4c 15 40     	jmp	$4015 <dispatchAction+0x93d>
    40bc: a0 06        	ldy	#$6
    40be: b1 24        	lda	($24),y                 ; 0x2024 <f256main+0x16f6>
    40c0: aa           	tax
    40c1: a5 cf        	lda	$cf                     ; 0x20cf <f256main+0x17a1>
    40c3: a4 d0        	ldy	$d0                     ; 0x20d0 <f256main+0x17a2>
    40c5: 84 14        	sty	$14                     ; 0x2014 <f256main+0x16e6>
    40c7: 85 12        	sta	$12                     ; 0x2012 <f256main+0x16e4>
    40c9: 84 13        	sty	$13                     ; 0x2013 <f256main+0x16e5>
    40cb: a0 04        	ldy	#$4
    40cd: 18           	clc
    40ce: 69 04        	adc	#$4
    40d0: 85 16        	sta	$16                     ; 0x2016 <f256main+0x16e8>
    40d2: a5 14        	lda	$14                     ; 0x2014 <f256main+0x16e6>
    40d4: 69 00        	adc	#$0
    40d6: 5a           	phy
    40d7: a4 16        	ldy	$16                     ; 0x2016 <f256main+0x16e8>
    40d9: 84 14        	sty	$14                     ; 0x2014 <f256main+0x16e6>
    40db: 7a           	ply
    40dc: 85 15        	sta	$15                     ; 0x2015 <f256main+0x16e7>
    40de: b1 12        	lda	($12),y                 ; 0x2012 <f256main+0x16e4>
    40e0: 85 12        	sta	$12                     ; 0x2012 <f256main+0x16e4>
    40e2: a0 01        	ldy	#$1
    40e4: b1 14        	lda	($14),y                 ; 0x2014 <f256main+0x16e6>
    40e6: 85 13        	sta	$13                     ; 0x2013 <f256main+0x16e5>
    40e8: b2 12        	lda	($12)                   ; 0x2012 <f256main+0x16e4>
    40ea: e0 00        	cpx	#$0
    40ec: f0 04        	beq	$40f2 <dispatchAction+0xa1a>
    40ee: 09 40        	ora	#$40
    40f0: 80 02        	bra	$40f4 <dispatchAction+0xa1c>
    40f2: 49 40        	eor	#$40
    40f4: 92 12        	sta	($12)                   ; 0x2012 <f256main+0x16e4>
    40f6: 8d 18 d4     	sta	$d418                   ; 0xd418 <end_block9+0x4bee>
    40f9: 8d 18 d5     	sta	$d518                   ; 0xd518 <end_block9+0x4cee>
    40fc: a0 12        	ldy	#$12
    40fe: b1 24        	lda	($24),y                 ; 0x2024 <f256main+0x16f6>
    4100: c9 2f        	cmp	#$2f
    4102: f0 03        	beq	$4107 <dispatchAction+0xa2f>
    4104: 4c 1c 40     	jmp	$401c <dispatchAction+0x944>
    4107: a0 06        	ldy	#$6
    4109: b1 24        	lda	($24),y                 ; 0x2024 <f256main+0x16f6>
    410b: aa           	tax
    410c: a5 cf        	lda	$cf                     ; 0x20cf <f256main+0x17a1>
    410e: a4 d0        	ldy	$d0                     ; 0x20d0 <f256main+0x17a2>
    4110: 84 14        	sty	$14                     ; 0x2014 <f256main+0x16e6>
    4112: 85 12        	sta	$12                     ; 0x2012 <f256main+0x16e4>
    4114: 84 13        	sty	$13                     ; 0x2013 <f256main+0x16e5>
    4116: a0 04        	ldy	#$4
    4118: 18           	clc
    4119: 69 04        	adc	#$4
    411b: 85 16        	sta	$16                     ; 0x2016 <f256main+0x16e8>
    411d: a5 14        	lda	$14                     ; 0x2014 <f256main+0x16e6>
    411f: 69 00        	adc	#$0
    4121: 5a           	phy
    4122: a4 16        	ldy	$16                     ; 0x2016 <f256main+0x16e8>
    4124: 84 14        	sty	$14                     ; 0x2014 <f256main+0x16e6>
    4126: 7a           	ply
    4127: 85 15        	sta	$15                     ; 0x2015 <f256main+0x16e7>
    4129: b1 12        	lda	($12),y                 ; 0x2012 <f256main+0x16e4>
    412b: 85 12        	sta	$12                     ; 0x2012 <f256main+0x16e4>
    412d: a0 01        	ldy	#$1
    412f: b1 14        	lda	($14),y                 ; 0x2014 <f256main+0x16e6>
    4131: 85 13        	sta	$13                     ; 0x2013 <f256main+0x16e5>
    4133: b2 12        	lda	($12)                   ; 0x2012 <f256main+0x16e4>
    4135: e0 00        	cpx	#$0
    4137: f0 08        	beq	$4141 <dispatchAction+0xa69>
    4139: 09 80        	ora	#$80
    413b: 92 12        	sta	($12)                   ; 0x2012 <f256main+0x16e4>
    413d: a2 3f        	ldx	#$3f
    413f: 80 0e        	bra	$414f <dispatchAction+0xa77>
    4141: 49 80        	eor	#$80
    4143: 92 12        	sta	($12)                   ; 0x2012 <f256main+0x16e4>
    4145: 8d 18 d4     	sta	$d418                   ; 0xd418 <end_block9+0x4bee>
    4148: 8d 18 d5     	sta	$d518                   ; 0xd518 <end_block9+0x4cee>
    414b: a2 3a        	ldx	#$3a
    414d: a0 00        	ldy	#$0
    414f: 84 b6        	sty	$b6                     ; 0x20b6 <f256main+0x1788>
    4151: 84 b5        	sty	$b5                     ; 0x20b5 <f256main+0x1787>
    4153: 86 16        	stx	$16                     ; 0x2016 <f256main+0x16e8>
    4155: 8e 13 84     	stx	$8413                   ; 0x8413 <lights+0x63>
    4158: ad 01 84     	lda	$8401                   ; 0x8401 <lights+0x51>
    415b: ae 02 84     	ldx	$8402                   ; 0x8402 <lights+0x52>
    415e: 0a           	asl
    415f: 85 12        	sta	$12                     ; 0x2012 <f256main+0x16e4>
    4161: 86 13        	stx	$13                     ; 0x2013 <f256main+0x16e5>
    4163: 26 13        	rol	$13                     ; 0x2013 <f256main+0x16e5>
    4165: ad 03 84     	lda	$8403                   ; 0x8403 <lights+0x53>
    4168: ae 04 84     	ldx	$8404                   ; 0x8404 <lights+0x54>
    416b: 86 14        	stx	$14                     ; 0x2014 <f256main+0x16e6>
    416d: 0a           	asl
    416e: 26 14        	rol	$14                     ; 0x2014 <f256main+0x16e6>
    4170: 0a           	asl
    4171: 26 14        	rol	$14                     ; 0x2014 <f256main+0x16e6>
    4173: a6 14        	ldx	$14                     ; 0x2014 <f256main+0x16e6>
    4175: 86 15        	stx	$15                     ; 0x2015 <f256main+0x16e7>
    4177: 0a           	asl
    4178: 85 14        	sta	$14                     ; 0x2014 <f256main+0x16e6>
    417a: 26 15        	rol	$15                     ; 0x2015 <f256main+0x16e7>
    417c: 0a           	asl
    417d: a6 15        	ldx	$15                     ; 0x2015 <f256main+0x16e7>
    417f: 86 17        	stx	$17                     ; 0x2017 <f256main+0x16e9>
    4181: 26 17        	rol	$17                     ; 0x2017 <f256main+0x16e9>
    4183: 0a           	asl
    4184: 26 17        	rol	$17                     ; 0x2017 <f256main+0x16e9>
    4186: 18           	clc
    4187: 65 14        	adc	$14                     ; 0x2014 <f256main+0x16e6>
    4189: a8           	tay
    418a: a5 17        	lda	$17                     ; 0x2017 <f256main+0x16e9>
    418c: 65 15        	adc	$15                     ; 0x2015 <f256main+0x16e7>
    418e: aa           	tax
    418f: 18           	clc
    4190: 98           	tya
    4191: 65 12        	adc	$12                     ; 0x2012 <f256main+0x16e4>
    4193: 85 14        	sta	$14                     ; 0x2014 <f256main+0x16e6>
    4195: 8a           	txa
    4196: 65 13        	adc	$13                     ; 0x2013 <f256main+0x16e5>
    4198: a2 ff        	ldx	#$ff
    419a: 48           	pha
    419b: 8a           	txa
    419c: a0 07        	ldy	#$7
    419e: 91 10        	sta	($10),y                 ; 0x2010 <f256main+0x16e2>
    41a0: 68           	pla
    41a1: a0 ff        	ldy	#$ff
    41a3: aa           	tax
    41a4: 30 02        	bmi	$41a8 <dispatchAction+0xad0>
    41a6: a0 00        	ldy	#$0
    41a8: a5 14        	lda	$14                     ; 0x2014 <f256main+0x16e6>
    41aa: 85 12        	sta	$12                     ; 0x2012 <f256main+0x16e4>
    41ac: a5 14        	lda	$14                     ; 0x2014 <f256main+0x16e6>
    41ae: 18           	clc
    41af: 69 00        	adc	#$0
    41b1: 8a           	txa
    41b2: 86 13        	stx	$13                     ; 0x2013 <f256main+0x16e5>
    41b4: 69 00        	adc	#$0
    41b6: 85 14        	sta	$14                     ; 0x2014 <f256main+0x16e6>
    41b8: 98           	tya
    41b9: 69 01        	adc	#$1
    41bb: 06 14        	asl	$14                     ; 0x2014 <f256main+0x16e6>
    41bd: 2a           	rol
    41be: 06 14        	asl	$14                     ; 0x2014 <f256main+0x16e6>
    41c0: 2a           	rol
    41c1: 06 14        	asl	$14                     ; 0x2014 <f256main+0x16e6>
    41c3: 2a           	rol
    41c4: a6 0f        	ldx	$f                      ; 0x200f <f256main+0x16e1>
    41c6: 86 14        	stx	$14                     ; 0x2014 <f256main+0x16e6>
    41c8: 78           	sei
    41c9: 85 0f        	sta	$f                      ; 0x200f <f256main+0x16e1>
    41cb: a5 13        	lda	$13                     ; 0x2013 <f256main+0x16e5>
    41cd: 09 e0        	ora	#$e0
    41cf: 85 13        	sta	$13                     ; 0x2013 <f256main+0x16e5>
    41d1: a5 16        	lda	$16                     ; 0x2016 <f256main+0x16e8>
    41d3: 92 12        	sta	($12)                   ; 0x2012 <f256main+0x16e4>
    41d5: a6 16        	ldx	$16                     ; 0x2016 <f256main+0x16e8>
    41d7: a9 00        	lda	#$0
    41d9: a0 01        	ldy	#$1
    41db: 91 12        	sta	($12),y                 ; 0x2012 <f256main+0x16e4>
    41dd: a4 14        	ldy	$14                     ; 0x2014 <f256main+0x16e6>
    41df: 84 0f        	sty	$f                      ; 0x200f <f256main+0x16e1>
    41e1: 58           	cli
    41e2: 8e 27 84     	stx	$8427                   ; 0x8427 <lights+0x77>
    41e5: ad 15 84     	lda	$8415                   ; 0x8415 <lights+0x65>
    41e8: ae 16 84     	ldx	$8416                   ; 0x8416 <lights+0x66>
    41eb: 0a           	asl
    41ec: 85 12        	sta	$12                     ; 0x2012 <f256main+0x16e4>
    41ee: 86 13        	stx	$13                     ; 0x2013 <f256main+0x16e5>
    41f0: 26 13        	rol	$13                     ; 0x2013 <f256main+0x16e5>
    41f2: ad 17 84     	lda	$8417                   ; 0x8417 <lights+0x67>
    41f5: ae 18 84     	ldx	$8418                   ; 0x8418 <lights+0x68>
    41f8: 86 14        	stx	$14                     ; 0x2014 <f256main+0x16e6>
    41fa: 0a           	asl
    41fb: 26 14        	rol	$14                     ; 0x2014 <f256main+0x16e6>
    41fd: 0a           	asl
    41fe: 26 14        	rol	$14                     ; 0x2014 <f256main+0x16e6>
    4200: a6 14        	ldx	$14                     ; 0x2014 <f256main+0x16e6>
    4202: 86 15        	stx	$15                     ; 0x2015 <f256main+0x16e7>
    4204: 0a           	asl
    4205: 85 14        	sta	$14                     ; 0x2014 <f256main+0x16e6>
    4207: 26 15        	rol	$15                     ; 0x2015 <f256main+0x16e7>
    4209: 0a           	asl
    420a: aa           	tax
    420b: a5 15        	lda	$15                     ; 0x2015 <f256main+0x16e7>
    420d: 2a           	rol
    420e: 86 17        	stx	$17                     ; 0x2017 <f256main+0x16e9>
    4210: 06 17        	asl	$17                     ; 0x2017 <f256main+0x16e9>
    4212: 2a           	rol
    4213: aa           	tax
    4214: a5 17        	lda	$17                     ; 0x2017 <f256main+0x16e9>
    4216: 18           	clc
    4217: 65 14        	adc	$14                     ; 0x2014 <f256main+0x16e6>
    4219: 85 14        	sta	$14                     ; 0x2014 <f256main+0x16e6>
    421b: 8a           	txa
    421c: 65 15        	adc	$15                     ; 0x2015 <f256main+0x16e7>
    421e: aa           	tax
    421f: a5 14        	lda	$14                     ; 0x2014 <f256main+0x16e6>
    4221: 18           	clc
    4222: 65 12        	adc	$12                     ; 0x2012 <f256main+0x16e4>
    4224: a8           	tay
    4225: 8a           	txa
    4226: 65 13        	adc	$13                     ; 0x2013 <f256main+0x16e5>
    4228: aa           	tax
    4229: 30 0a        	bmi	$4235 <dispatchAction+0xb5d>
    422b: 64 12        	stz	$12                     ; 0x2012 <f256main+0x16e4>
    422d: a9 00        	lda	#$0
    422f: 5a           	phy
    4230: a0 07        	ldy	#$7
    4232: 91 10        	sta	($10),y                 ; 0x2010 <f256main+0x16e2>
    4234: 7a           	ply
    4235: 98           	tya
    4236: 18           	clc
    4237: 69 00        	adc	#$0
    4239: 86 14        	stx	$14                     ; 0x2014 <f256main+0x16e6>
    423b: 8a           	txa
    423c: 69 00        	adc	#$0
    423e: 85 15        	sta	$15                     ; 0x2015 <f256main+0x16e7>
    4240: 5a           	phy
    4241: a0 07        	ldy	#$7
    4243: b1 10        	lda	($10),y                 ; 0x2010 <f256main+0x16e2>
    4245: 7a           	ply
    4246: 69 01        	adc	#$1
    4248: 06 15        	asl	$15                     ; 0x2015 <f256main+0x16e7>
    424a: 2a           	rol
    424b: 06 15        	asl	$15                     ; 0x2015 <f256main+0x16e7>
    424d: 2a           	rol
    424e: 06 15        	asl	$15                     ; 0x2015 <f256main+0x16e7>
    4250: 2a           	rol
    4251: a6 0f        	ldx	$f                      ; 0x200f <f256main+0x16e1>
    4253: 78           	sei
    4254: 85 0f        	sta	$f                      ; 0x200f <f256main+0x16e1>
    4256: 84 12        	sty	$12                     ; 0x2012 <f256main+0x16e4>
    4258: a5 14        	lda	$14                     ; 0x2014 <f256main+0x16e6>
    425a: 09 e0        	ora	#$e0
    425c: 85 13        	sta	$13                     ; 0x2013 <f256main+0x16e5>
    425e: a5 16        	lda	$16                     ; 0x2016 <f256main+0x16e8>
    4260: 92 12        	sta	($12)                   ; 0x2012 <f256main+0x16e4>
    4262: a9 00        	lda	#$0
    4264: a0 01        	ldy	#$1
    4266: 91 12        	sta	($12),y                 ; 0x2012 <f256main+0x16e4>
    4268: 86 0f        	stx	$f                      ; 0x200f <f256main+0x16e1>
    426a: 58           	cli
    426b: a0 12        	ldy	#$12
    426d: b1 24        	lda	($24),y                 ; 0x2024 <f256main+0x16f6>
    426f: c9 30        	cmp	#$30
    4271: f0 03        	beq	$4276 <dispatchAction+0xb9e>
    4273: 4c d0 42     	jmp	$42d0 <dispatchAction+0xbf8>
    4276: a0 06        	ldy	#$6
    4278: b1 24        	lda	($24),y                 ; 0x2024 <f256main+0x16f6>
    427a: aa           	tax
    427b: a5 cf        	lda	$cf                     ; 0x20cf <f256main+0x17a1>
    427d: a4 d0        	ldy	$d0                     ; 0x20d0 <f256main+0x17a2>
    427f: 84 14        	sty	$14                     ; 0x2014 <f256main+0x16e6>
    4281: 85 12        	sta	$12                     ; 0x2012 <f256main+0x16e4>
    4283: 84 13        	sty	$13                     ; 0x2013 <f256main+0x16e5>
    4285: a0 04        	ldy	#$4
    4287: 18           	clc
    4288: 69 04        	adc	#$4
    428a: 85 16        	sta	$16                     ; 0x2016 <f256main+0x16e8>
    428c: a5 14        	lda	$14                     ; 0x2014 <f256main+0x16e6>
    428e: 69 00        	adc	#$0
    4290: 5a           	phy
    4291: a4 16        	ldy	$16                     ; 0x2016 <f256main+0x16e8>
    4293: 84 14        	sty	$14                     ; 0x2014 <f256main+0x16e6>
    4295: 7a           	ply
    4296: 85 15        	sta	$15                     ; 0x2015 <f256main+0x16e7>
    4298: b1 12        	lda	($12),y                 ; 0x2012 <f256main+0x16e4>
    429a: 85 12        	sta	$12                     ; 0x2012 <f256main+0x16e4>
    429c: a0 01        	ldy	#$1
    429e: b1 14        	lda	($14),y                 ; 0x2014 <f256main+0x16e6>
    42a0: 85 13        	sta	$13                     ; 0x2013 <f256main+0x16e5>
    42a2: a0 05        	ldy	#$5
    42a4: b1 12        	lda	($12),y                 ; 0x2012 <f256main+0x16e4>
    42a6: e0 00        	cpx	#$0
    42a8: f0 0c        	beq	$42b6 <dispatchAction+0xbde>
    42aa: 09 04        	ora	#$4
    42ac: 91 12        	sta	($12),y                 ; 0x2012 <f256main+0x16e4>
    42ae: a2 01        	ldx	#$1
    42b0: 86 b5        	stx	$b5                     ; 0x20b5 <f256main+0x1787>
    42b2: 86 b6        	stx	$b6                     ; 0x20b6 <f256main+0x1788>
    42b4: 80 1a        	bra	$42d0 <dispatchAction+0xbf8>
    42b6: 49 04        	eor	#$4
    42b8: 91 12        	sta	($12),y                 ; 0x2012 <f256main+0x16e4>
    42ba: 8d 04 d4     	sta	$d404                   ; 0xd404 <end_block9+0x4bda>
    42bd: 8d 0b d4     	sta	$d40b                   ; 0xd40b <end_block9+0x4be1>
    42c0: 8d 12 d4     	sta	$d412                   ; 0xd412 <end_block9+0x4be8>
    42c3: 8d 04 d5     	sta	$d504                   ; 0xd504 <end_block9+0x4cda>
    42c6: 8d 0b d5     	sta	$d50b                   ; 0xd50b <end_block9+0x4ce1>
    42c9: 8d 12 d5     	sta	$d512                   ; 0xd512 <end_block9+0x4ce8>
    42cc: 64 b5        	stz	$b5                     ; 0x20b5 <f256main+0x1787>
    42ce: 64 b6        	stz	$b6                     ; 0x20b6 <f256main+0x1788>
    42d0: a0 00        	ldy	#$0
    42d2: b1 10        	lda	($10),y                 ; 0x2010 <f256main+0x16e2>
    42d4: 85 2c        	sta	$2c                     ; 0x202c <f256main+0x16fe>
    42d6: c8           	iny
    42d7: b1 10        	lda	($10),y                 ; 0x2010 <f256main+0x16e2>
    42d9: 85 2b        	sta	$2b                     ; 0x202b <f256main+0x16fd>
    42db: c8           	iny
    42dc: b1 10        	lda	($10),y                 ; 0x2010 <f256main+0x16e2>
    42de: 85 2a        	sta	$2a                     ; 0x202a <f256main+0x16fc>
    42e0: c8           	iny
    42e1: b1 10        	lda	($10),y                 ; 0x2010 <f256main+0x16e2>
    42e3: 85 29        	sta	$29                     ; 0x2029 <f256main+0x16fb>
    42e5: c8           	iny
    42e6: b1 10        	lda	($10),y                 ; 0x2010 <f256main+0x16e2>
    42e8: 85 28        	sta	$28                     ; 0x2028 <f256main+0x16fa>
    42ea: fa           	plx
    42eb: 86 27        	stx	$27                     ; 0x2027 <f256main+0x16f9>
    42ed: fa           	plx
    42ee: 86 26        	stx	$26                     ; 0x2026 <f256main+0x16f8>
    42f0: fa           	plx
    42f1: 86 25        	stx	$25                     ; 0x2025 <f256main+0x16f7>
    42f3: fa           	plx
    42f4: 86 24        	stx	$24                     ; 0x2024 <f256main+0x16f6>
    42f6: 18           	clc
    42f7: a5 10        	lda	$10                     ; 0x2010 <f256main+0x16e2>
    42f9: 69 08        	adc	#$8
    42fb: 85 10        	sta	$10                     ; 0x2010 <f256main+0x16e2>
    42fd: a5 11        	lda	$11                     ; 0x2011 <f256main+0x16e3>
    42ff: 69 00        	adc	#$0
    4301: 85 11        	sta	$11                     ; 0x2011 <f256main+0x16e3>
    4303: 60           	rts

00004304 <textLayerGen>:
    4304: 18           	clc
    4305: a5 10        	lda	$10                     ; 0x2010 <f256main+0x16e2>
    4307: 69 fc        	adc	#$fc
    4309: 85 10        	sta	$10                     ; 0x2010 <f256main+0x16e2>
    430b: a5 11        	lda	$11                     ; 0x2011 <f256main+0x16e3>
    430d: 69 ff        	adc	#$ff
    430f: 85 11        	sta	$11                     ; 0x2011 <f256main+0x16e3>
    4311: a9 00        	lda	#$0
    4313: 64 9b        	stz	$9b                     ; 0x209b <f256main+0x176d>
    4315: 9c 14 d0     	stz	$d014                   ; 0xd014 <end_block9+0x47ea>
    4318: 9c 15 d0     	stz	$d015                   ; 0xd015 <end_block9+0x47eb>
    431b: 64 9c        	stz	$9c                     ; 0x209c <f256main+0x176e>
    431d: 9c 16 d0     	stz	$d016                   ; 0xd016 <end_block9+0x47ec>
    4320: 9c 17 d0     	stz	$d017                   ; 0xd017 <end_block9+0x47ed>
    4323: 92 10        	sta	($10)                   ; 0x2010 <f256main+0x16e2>
    4325: a0 01        	ldy	#$1
    4327: 91 10        	sta	($10),y                 ; 0x2010 <f256main+0x16e2>
    4329: c8           	iny
    432a: 1a           	inc
    432b: 91 10        	sta	($10),y                 ; 0x2010 <f256main+0x16e2>
    432d: c8           	iny
    432e: 3a           	dec
    432f: 91 10        	sta	($10),y                 ; 0x2010 <f256main+0x16e2>
    4331: 20 0a 6c     	jsr	$6c0a <printf>
    4334: a2 06        	ldx	#$6
    4336: 86 9b        	stx	$9b                     ; 0x209b <f256main+0x176d>
    4338: 8e 14 d0     	stx	$d014                   ; 0xd014 <end_block9+0x47ea>
    433b: 9c 15 d0     	stz	$d015                   ; 0xd015 <end_block9+0x47eb>
    433e: a2 02        	ldx	#$2
    4340: 86 9c        	stx	$9c                     ; 0x209c <f256main+0x176e>
    4342: 8e 16 d0     	stx	$d016                   ; 0xd016 <end_block9+0x47ec>
    4345: 9c 17 d0     	stz	$d017                   ; 0xd017 <end_block9+0x47ed>
    4348: a2 f0        	ldx	#$f0
    434a: 86 12        	stx	$12                     ; 0x2012 <f256main+0x16e4>
    434c: a2 80        	ldx	#$80
    434e: 86 13        	stx	$13                     ; 0x2013 <f256main+0x16e5>
    4350: 20 db 43     	jsr	$43db <textPrint>
    4353: a2 06        	ldx	#$6
    4355: 86 9b        	stx	$9b                     ; 0x209b <f256main+0x176d>
    4357: 8e 14 d0     	stx	$d014                   ; 0xd014 <end_block9+0x47ea>
    435a: 9c 15 d0     	stz	$d015                   ; 0xd015 <end_block9+0x47eb>
    435d: a2 04        	ldx	#$4
    435f: 86 9c        	stx	$9c                     ; 0x209c <f256main+0x176e>
    4361: 8e 16 d0     	stx	$d016                   ; 0xd016 <end_block9+0x47ec>
    4364: 9c 17 d0     	stz	$d017                   ; 0xd017 <end_block9+0x47ed>
    4367: a2 22        	ldx	#$22
    4369: 86 12        	stx	$12                     ; 0x2012 <f256main+0x16e4>
    436b: a2 80        	ldx	#$80
    436d: 86 13        	stx	$13                     ; 0x2013 <f256main+0x16e5>
    436f: 20 db 43     	jsr	$43db <textPrint>
    4372: a2 06        	ldx	#$6
    4374: 86 9b        	stx	$9b                     ; 0x209b <f256main+0x176d>
    4376: 8e 14 d0     	stx	$d014                   ; 0xd014 <end_block9+0x47ea>
    4379: 9c 15 d0     	stz	$d015                   ; 0xd015 <end_block9+0x47eb>
    437c: 86 9c        	stx	$9c                     ; 0x209c <f256main+0x176e>
    437e: 8e 16 d0     	stx	$d016                   ; 0xd016 <end_block9+0x47ec>
    4381: 9c 17 d0     	stz	$d017                   ; 0xd017 <end_block9+0x47ed>
    4384: a2 18        	ldx	#$18
    4386: 86 12        	stx	$12                     ; 0x2012 <f256main+0x16e4>
    4388: a2 80        	ldx	#$80
    438a: 86 13        	stx	$13                     ; 0x2013 <f256main+0x16e5>
    438c: 20 db 43     	jsr	$43db <textPrint>
    438f: a2 06        	ldx	#$6
    4391: 86 9b        	stx	$9b                     ; 0x209b <f256main+0x176d>
    4393: 8e 14 d0     	stx	$d014                   ; 0xd014 <end_block9+0x47ea>
    4396: 9c 15 d0     	stz	$d015                   ; 0xd015 <end_block9+0x47eb>
    4399: a2 08        	ldx	#$8
    439b: 86 9c        	stx	$9c                     ; 0x209c <f256main+0x176e>
    439d: 8e 16 d0     	stx	$d016                   ; 0xd016 <end_block9+0x47ec>
    43a0: 9c 17 d0     	stz	$d017                   ; 0xd017 <end_block9+0x47ed>
    43a3: a2 c1        	ldx	#$c1
    43a5: 86 12        	stx	$12                     ; 0x2012 <f256main+0x16e4>
    43a7: a2 80        	ldx	#$80
    43a9: 86 13        	stx	$13                     ; 0x2013 <f256main+0x16e5>
    43ab: 20 db 43     	jsr	$43db <textPrint>
    43ae: a2 01        	ldx	#$1
    43b0: 86 9b        	stx	$9b                     ; 0x209b <f256main+0x176d>
    43b2: 8e 14 d0     	stx	$d014                   ; 0xd014 <end_block9+0x47ea>
    43b5: 9c 15 d0     	stz	$d015                   ; 0xd015 <end_block9+0x47eb>
    43b8: a2 1c        	ldx	#$1c
    43ba: 86 9c        	stx	$9c                     ; 0x209c <f256main+0x176e>
    43bc: 8e 16 d0     	stx	$d016                   ; 0xd016 <end_block9+0x47ec>
    43bf: 9c 17 d0     	stz	$d017                   ; 0xd017 <end_block9+0x47ed>
    43c2: a2 19        	ldx	#$19
    43c4: 86 12        	stx	$12                     ; 0x2012 <f256main+0x16e4>
    43c6: a2 81        	ldx	#$81
    43c8: 86 13        	stx	$13                     ; 0x2013 <f256main+0x16e5>
    43ca: 20 db 43     	jsr	$43db <textPrint>
    43cd: 18           	clc
    43ce: a5 10        	lda	$10                     ; 0x2010 <f256main+0x16e2>
    43d0: 69 04        	adc	#$4
    43d2: 85 10        	sta	$10                     ; 0x2010 <f256main+0x16e2>
    43d4: a5 11        	lda	$11                     ; 0x2011 <f256main+0x16e3>
    43d6: 69 00        	adc	#$0
    43d8: 85 11        	sta	$11                     ; 0x2011 <f256main+0x16e3>
    43da: 60           	rts

000043db <textPrint>:
    43db: a6 01        	ldx	$1                      ; 0x2001 <f256main+0x16d3>
    43dd: 86 ef        	stx	$ef                     ; 0x20ef <f256main+0x17c1>
    43df: a6 9c        	ldx	$9c                     ; 0x209c <f256main+0x176e>
    43e1: a0 50        	ldy	#$50
    43e3: 8c 00 de     	sty	$de00                   ; 0xde00 <end_block9+0x55d6>
    43e6: 9c 01 de     	stz	$de01                   ; 0xde01 <end_block9+0x55d7>
    43e9: 8e 02 de     	stx	$de02                   ; 0xde02 <end_block9+0x55d8>
    43ec: 9c 03 de     	stz	$de03                   ; 0xde03 <end_block9+0x55d9>
    43ef: ae 10 de     	ldx	$de10                   ; 0xde10 <end_block9+0x55e6>
    43f2: ac 11 de     	ldy	$de11                   ; 0xde11 <end_block9+0x55e7>
    43f5: 84 15        	sty	$15                     ; 0x2015 <f256main+0x16e7>
    43f7: ad 12 de     	lda	$de12                   ; 0xde12 <end_block9+0x55e8>
    43fa: ac 13 de     	ldy	$de13                   ; 0xde13 <end_block9+0x55e9>
    43fd: 84 1c        	sty	$1c                     ; 0x201c <f256main+0x16ee>
    43ff: 9c 08 de     	stz	$de08                   ; 0xde08 <end_block9+0x55de>
    4402: a0 c0        	ldy	#$c0
    4404: 8c 09 de     	sty	$de09                   ; 0xde09 <end_block9+0x55df>
    4407: 9c 0a de     	stz	$de0a                   ; 0xde0a <end_block9+0x55e0>
    440a: 9c 0b de     	stz	$de0b                   ; 0xde0b <end_block9+0x55e1>
    440d: 8e 0c de     	stx	$de0c                   ; 0xde0c <end_block9+0x55e2>
    4410: 64 14        	stz	$14                     ; 0x2014 <f256main+0x16e6>
    4412: a2 00        	ldx	#$0
    4414: 86 16        	stx	$16                     ; 0x2016 <f256main+0x16e8>
    4416: a2 c0        	ldx	#$c0
    4418: 86 17        	stx	$17                     ; 0x2017 <f256main+0x16e9>
    441a: a2 11        	ldx	#$11
    441c: 86 18        	stx	$18                     ; 0x2018 <f256main+0x16ea>
    441e: a2 c9        	ldx	#$c9
    4420: 86 19        	stx	$19                     ; 0x2019 <f256main+0x16eb>
    4422: a2 10        	ldx	#$10
    4424: 86 1a        	stx	$1a                     ; 0x201a <f256main+0x16ec>
    4426: a2 c9        	ldx	#$c9
    4428: 86 1b        	stx	$1b                     ; 0x201b <f256main+0x16ed>
    442a: a6 15        	ldx	$15                     ; 0x2015 <f256main+0x16e7>
    442c: 8e 0d de     	stx	$de0d                   ; 0xde0d <end_block9+0x55e3>
    442f: 8d 0e de     	sta	$de0e                   ; 0xde0e <end_block9+0x55e4>
    4432: a6 1c        	ldx	$1c                     ; 0x201c <f256main+0x16ee>
    4434: 8e 0f de     	stx	$de0f                   ; 0xde0f <end_block9+0x55e5>
    4437: ac 18 de     	ldy	$de18                   ; 0xde18 <end_block9+0x55ee>
    443a: ad 19 de     	lda	$de19                   ; 0xde19 <end_block9+0x55ef>
    443d: ae 1a de     	ldx	$de1a                   ; 0xde1a <end_block9+0x55f0>
    4440: ae 1b de     	ldx	$de1b                   ; 0xde1b <end_block9+0x55f1>
    4443: 84 1c        	sty	$1c                     ; 0x201c <f256main+0x16ee>
    4445: 85 1d        	sta	$1d                     ; 0x201d <f256main+0x16ef>
    4447: 64 15        	stz	$15                     ; 0x2015 <f256main+0x16e7>
    4449: 4c 50 45     	jmp	$4550 <textPrint+0x175>
    444c: 8a           	txa
    444d: f0 15        	beq	$4464 <textPrint+0x89>
    444f: b1 1c        	lda	($1c),y                 ; 0x201c <f256main+0x16ee>
    4451: 92 1c        	sta	($1c)                   ; 0x201c <f256main+0x16ee>
    4453: a9 ff        	lda	#$ff
    4455: c6 1e        	dec	$1e                     ; 0x201e <f256main+0x16f0>
    4457: c5 1e        	cmp	$1e                     ; 0x201e <f256main+0x16f0>
    4459: d0 01        	bne	$445c <textPrint+0x81>
    445b: ca           	dex
    445c: e6 1c        	inc	$1c                     ; 0x201c <f256main+0x16ee>
    445e: d0 ec        	bne	$444c <textPrint+0x71>
    4460: e6 1d        	inc	$1d                     ; 0x201d <f256main+0x16ef>
    4462: 80 e8        	bra	$444c <textPrint+0x71>
    4464: a5 1e        	lda	$1e                     ; 0x201e <f256main+0x16f0>
    4466: d0 e7        	bne	$444f <textPrint+0x74>
    4468: a2 02        	ldx	#$2
    446a: 86 01        	stx	$1                      ; 0x2001 <f256main+0x16d3>
    446c: a2 09        	ldx	#$9
    446e: a9 10        	lda	#$10
    4470: 5a           	phy
    4471: a0 00        	ldy	#$0
    4473: 84 1c        	sty	$1c                     ; 0x201c <f256main+0x16ee>
    4475: a0 c0        	ldy	#$c0
    4477: 84 1d        	sty	$1d                     ; 0x201d <f256main+0x16ef>
    4479: 7a           	ply
    447a: 85 1e        	sta	$1e                     ; 0x201e <f256main+0x16f0>
    447c: 80 03        	bra	$4481 <textPrint+0xa6>
    447e: 8a           	txa
    447f: f0 15        	beq	$4496 <textPrint+0xbb>
    4481: b1 1c        	lda	($1c),y                 ; 0x201c <f256main+0x16ee>
    4483: 92 1c        	sta	($1c)                   ; 0x201c <f256main+0x16ee>
    4485: a9 ff        	lda	#$ff
    4487: c6 1e        	dec	$1e                     ; 0x201e <f256main+0x16f0>
    4489: c5 1e        	cmp	$1e                     ; 0x201e <f256main+0x16f0>
    448b: d0 01        	bne	$448e <textPrint+0xb3>
    448d: ca           	dex
    448e: e6 1c        	inc	$1c                     ; 0x201c <f256main+0x16ee>
    4490: d0 ec        	bne	$447e <textPrint+0xa3>
    4492: e6 1d        	inc	$1d                     ; 0x201d <f256main+0x16ef>
    4494: 80 e8        	bra	$447e <textPrint+0xa3>
    4496: a5 1e        	lda	$1e                     ; 0x201e <f256main+0x16f0>
    4498: d0 e7        	bne	$4481 <textPrint+0xa6>
    449a: a2 02        	ldx	#$2
    449c: 86 01        	stx	$1                      ; 0x2001 <f256main+0x16d3>
    449e: e8           	inx
    449f: 86 01        	stx	$1                      ; 0x2001 <f256main+0x16d3>
    44a1: a2 50        	ldx	#$50
    44a3: a0 11        	ldy	#$11
    44a5: 84 1c        	sty	$1c                     ; 0x201c <f256main+0x16ee>
    44a7: a0 c9        	ldy	#$c9
    44a9: 84 1d        	sty	$1d                     ; 0x201d <f256main+0x16ef>
    44ab: a0 10        	ldy	#$10
    44ad: 84 1e        	sty	$1e                     ; 0x201e <f256main+0x16f0>
    44af: a0 c9        	ldy	#$c9
    44b1: 84 1f        	sty	$1f                     ; 0x201f <f256main+0x16f1>
    44b3: a9 f0        	lda	#$f0
    44b5: a4 1c        	ldy	$1c                     ; 0x201c <f256main+0x16ee>
    44b7: 84 22        	sty	$22                     ; 0x2022 <f256main+0x16f4>
    44b9: a4 1d        	ldy	$1d                     ; 0x201d <f256main+0x16ef>
    44bb: 84 23        	sty	$23                     ; 0x2023 <f256main+0x16f5>
    44bd: 92 1e        	sta	($1e)                   ; 0x201e <f256main+0x16f0>
    44bf: e6 1c        	inc	$1c                     ; 0x201c <f256main+0x16ee>
    44c1: d0 02        	bne	$44c5 <textPrint+0xea>
    44c3: e6 1d        	inc	$1d                     ; 0x201d <f256main+0x16ef>
    44c5: ca           	dex
    44c6: a4 22        	ldy	$22                     ; 0x2022 <f256main+0x16f4>
    44c8: 84 1e        	sty	$1e                     ; 0x201e <f256main+0x16f0>
    44ca: a4 23        	ldy	$23                     ; 0x2023 <f256main+0x16f5>
    44cc: 84 1f        	sty	$1f                     ; 0x201f <f256main+0x16f1>
    44ce: e0 00        	cpx	#$0
    44d0: d0 e3        	bne	$44b5 <textPrint+0xda>
    44d2: a2 02        	ldx	#$2
    44d4: 86 01        	stx	$1                      ; 0x2001 <f256main+0x16d3>
    44d6: a2 50        	ldx	#$50
    44d8: a0 11        	ldy	#$11
    44da: 84 1c        	sty	$1c                     ; 0x201c <f256main+0x16ee>
    44dc: a0 c9        	ldy	#$c9
    44de: 84 1d        	sty	$1d                     ; 0x201d <f256main+0x16ef>
    44e0: a0 10        	ldy	#$10
    44e2: 84 1e        	sty	$1e                     ; 0x201e <f256main+0x16f0>
    44e4: a0 c9        	ldy	#$c9
    44e6: 84 1f        	sty	$1f                     ; 0x201f <f256main+0x16f1>
    44e8: a9 20        	lda	#$20
    44ea: a4 1c        	ldy	$1c                     ; 0x201c <f256main+0x16ee>
    44ec: 84 22        	sty	$22                     ; 0x2022 <f256main+0x16f4>
    44ee: a4 1d        	ldy	$1d                     ; 0x201d <f256main+0x16ef>
    44f0: 84 23        	sty	$23                     ; 0x2023 <f256main+0x16f5>
    44f2: 92 1e        	sta	($1e)                   ; 0x201e <f256main+0x16f0>
    44f4: e6 1c        	inc	$1c                     ; 0x201c <f256main+0x16ee>
    44f6: d0 02        	bne	$44fa <textPrint+0x11f>
    44f8: e6 1d        	inc	$1d                     ; 0x201d <f256main+0x16ef>
    44fa: ca           	dex
    44fb: a4 22        	ldy	$22                     ; 0x2022 <f256main+0x16f4>
    44fd: 84 1e        	sty	$1e                     ; 0x201e <f256main+0x16f0>
    44ff: a4 23        	ldy	$23                     ; 0x2023 <f256main+0x16f5>
    4501: 84 1f        	sty	$1f                     ; 0x201f <f256main+0x16f1>
    4503: e0 00        	cpx	#$0
    4505: d0 e3        	bne	$44ea <textPrint+0x10f>
    4507: c6 9c        	dec	$9c                     ; 0x209c <f256main+0x176e>
    4509: 9c 08 de     	stz	$de08                   ; 0xde08 <end_block9+0x55de>
    450c: a2 c0        	ldx	#$c0
    450e: 8e 09 de     	stx	$de09                   ; 0xde09 <end_block9+0x55df>
    4511: 9c 0a de     	stz	$de0a                   ; 0xde0a <end_block9+0x55e0>
    4514: 9c 0b de     	stz	$de0b                   ; 0xde0b <end_block9+0x55e1>
    4517: a2 1d        	ldx	#$1d
    4519: 8e 0c de     	stx	$de0c                   ; 0xde0c <end_block9+0x55e2>
    451c: 9c 0d de     	stz	$de0d                   ; 0xde0d <end_block9+0x55e3>
    451f: 9c 0e de     	stz	$de0e                   ; 0xde0e <end_block9+0x55e4>
    4522: 9c 0f de     	stz	$de0f                   ; 0xde0f <end_block9+0x55e5>
    4525: ae 18 de     	ldx	$de18                   ; 0xde18 <end_block9+0x55ee>
    4528: ac 19 de     	ldy	$de19                   ; 0xde19 <end_block9+0x55ef>
    452b: ad 1a de     	lda	$de1a                   ; 0xde1a <end_block9+0x55f0>
    452e: ad 1b de     	lda	$de1b                   ; 0xde1b <end_block9+0x55f1>
    4531: 86 1c        	stx	$1c                     ; 0x201c <f256main+0x16ee>
    4533: 84 1d        	sty	$1d                     ; 0x201d <f256main+0x16ef>
    4535: e6 14        	inc	$14                     ; 0x2014 <f256main+0x16e6>
    4537: d0 02        	bne	$453b <textPrint+0x160>
    4539: e6 15        	inc	$15                     ; 0x2015 <f256main+0x16e7>
    453b: 80 13        	bra	$4550 <textPrint+0x175>
    453d: a5 1c        	lda	$1c                     ; 0x201c <f256main+0x16ee>
    453f: 18           	clc
    4540: 69 50        	adc	#$50
    4542: 85 1c        	sta	$1c                     ; 0x201c <f256main+0x16ee>
    4544: a5 1d        	lda	$1d                     ; 0x201d <f256main+0x16ef>
    4546: 69 00        	adc	#$0
    4548: 85 1d        	sta	$1d                     ; 0x201d <f256main+0x16ef>
    454a: e6 14        	inc	$14                     ; 0x2014 <f256main+0x16e6>
    454c: d0 02        	bne	$4550 <textPrint+0x175>
    454e: e6 15        	inc	$15                     ; 0x2015 <f256main+0x16e7>
    4550: a5 12        	lda	$12                     ; 0x2012 <f256main+0x16e4>
    4552: 18           	clc
    4553: 65 14        	adc	$14                     ; 0x2014 <f256main+0x16e6>
    4555: 85 1e        	sta	$1e                     ; 0x201e <f256main+0x16f0>
    4557: a5 13        	lda	$13                     ; 0x2013 <f256main+0x16e5>
    4559: 65 15        	adc	$15                     ; 0x2015 <f256main+0x16e7>
    455b: 85 1f        	sta	$1f                     ; 0x201f <f256main+0x16f1>
    455d: b2 1e        	lda	($1e)                   ; 0x201e <f256main+0x16f0>
    455f: c9 0a        	cmp	#$a
    4561: f0 23        	beq	$4586 <textPrint+0x1ab>
    4563: c9 0d        	cmp	#$d
    4565: f0 1f        	beq	$4586 <textPrint+0x1ab>
    4567: aa           	tax
    4568: f0 43        	beq	$45ad <textPrint+0x1d2>
    456a: a2 03        	ldx	#$3
    456c: 86 01        	stx	$1                      ; 0x2001 <f256main+0x16d3>
    456e: a4 9b        	ldy	$9b                     ; 0x209b <f256main+0x176d>
    4570: a9 f0        	lda	#$f0
    4572: 91 1c        	sta	($1c),y                 ; 0x201c <f256main+0x16ee>
    4574: ca           	dex
    4575: 86 01        	stx	$1                      ; 0x2001 <f256main+0x16d3>
    4577: b2 1e        	lda	($1e)                   ; 0x201e <f256main+0x16f0>
    4579: a4 9b        	ldy	$9b                     ; 0x209b <f256main+0x176d>
    457b: 91 1c        	sta	($1c),y                 ; 0x201c <f256main+0x16ee>
    457d: a6 9b        	ldx	$9b                     ; 0x209b <f256main+0x176d>
    457f: e8           	inx
    4580: e6 9b        	inc	$9b                     ; 0x209b <f256main+0x176d>
    4582: e0 50        	cpx	#$50
    4584: d0 c4        	bne	$454a <textPrint+0x16f>
    4586: 64 9b        	stz	$9b                     ; 0x209b <f256main+0x176d>
    4588: a6 9c        	ldx	$9c                     ; 0x209c <f256main+0x176e>
    458a: e8           	inx
    458b: e6 9c        	inc	$9c                     ; 0x209c <f256main+0x176e>
    458d: e0 1e        	cpx	#$1e
    458f: f0 03        	beq	$4594 <textPrint+0x1b9>
    4591: 4c 3d 45     	jmp	$453d <textPrint+0x162>
    4594: a2 03        	ldx	#$3
    4596: 86 01        	stx	$1                      ; 0x2001 <f256main+0x16d3>
    4598: a2 09        	ldx	#$9
    459a: a0 50        	ldy	#$50
    459c: a9 10        	lda	#$10
    459e: 5a           	phy
    459f: a0 00        	ldy	#$0
    45a1: 84 1c        	sty	$1c                     ; 0x201c <f256main+0x16ee>
    45a3: a0 c0        	ldy	#$c0
    45a5: 84 1d        	sty	$1d                     ; 0x201d <f256main+0x16ef>
    45a7: 7a           	ply
    45a8: 85 1e        	sta	$1e                     ; 0x201e <f256main+0x16f0>
    45aa: 4c 4f 44     	jmp	$444f <textPrint+0x74>
    45ad: a6 ef        	ldx	$ef                     ; 0x20ef <f256main+0x17c1>
    45af: 86 01        	stx	$1                      ; 0x2001 <f256main+0x16d3>
    45b1: a6 9b        	ldx	$9b                     ; 0x209b <f256main+0x176d>
    45b3: a4 9c        	ldy	$9c                     ; 0x209c <f256main+0x176e>
    45b5: 8e 14 d0     	stx	$d014                   ; 0xd014 <end_block9+0x47ea>
    45b8: 9c 15 d0     	stz	$d015                   ; 0xd015 <end_block9+0x47eb>
    45bb: 84 9c        	sty	$9c                     ; 0x209c <f256main+0x176e>
    45bd: 8c 16 d0     	sty	$d016                   ; 0xd016 <end_block9+0x47ec>
    45c0: 9c 17 d0     	stz	$d017                   ; 0xd017 <end_block9+0x47ed>
    45c3: 60           	rts

000045c4 <loadGUISID>:
    45c4: a6 24        	ldx	$24                     ; 0x2024 <f256main+0x16f6>
    45c6: da           	phx
    45c7: 20 04 43     	jsr	$4304 <textLayerGen>
    45ca: a2 0c        	ldx	#$c
    45cc: 86 9b        	stx	$9b                     ; 0x209b <f256main+0x176d>
    45ce: 8e 14 d0     	stx	$d014                   ; 0xd014 <end_block9+0x47ea>
    45d1: 9c 15 d0     	stz	$d015                   ; 0xd015 <end_block9+0x47eb>
    45d4: a2 02        	ldx	#$2
    45d6: 86 9c        	stx	$9c                     ; 0x209c <f256main+0x176e>
    45d8: 8e 16 d0     	stx	$d016                   ; 0xd016 <end_block9+0x47ec>
    45db: 9c 17 d0     	stz	$d017                   ; 0xd017 <end_block9+0x47ed>
    45de: a2 f5        	ldx	#$f5
    45e0: 86 12        	stx	$12                     ; 0x2012 <f256main+0x16e4>
    45e2: a2 80        	ldx	#$80
    45e4: 86 13        	stx	$13                     ; 0x2013 <f256main+0x16e5>
    45e6: 20 db 43     	jsr	$43db <textPrint>
    45e9: a2 21        	ldx	#$21
    45eb: 86 9b        	stx	$9b                     ; 0x209b <f256main+0x176d>
    45ed: 8e 14 d0     	stx	$d014                   ; 0xd014 <end_block9+0x47ea>
    45f0: 9c 15 d0     	stz	$d015                   ; 0xd015 <end_block9+0x47eb>
    45f3: a2 02        	ldx	#$2
    45f5: 86 9c        	stx	$9c                     ; 0x209c <f256main+0x176e>
    45f7: 8e 16 d0     	stx	$d016                   ; 0xd016 <end_block9+0x47ec>
    45fa: 9c 17 d0     	stz	$d017                   ; 0xd017 <end_block9+0x47ed>
    45fd: a2 38        	ldx	#$38
    45ff: 86 12        	stx	$12                     ; 0x2012 <f256main+0x16e4>
    4601: a2 80        	ldx	#$80
    4603: 86 13        	stx	$13                     ; 0x2013 <f256main+0x16e5>
    4605: 20 db 43     	jsr	$43db <textPrint>
    4608: a2 21        	ldx	#$21
    460a: 86 9b        	stx	$9b                     ; 0x209b <f256main+0x176d>
    460c: 8e 14 d0     	stx	$d014                   ; 0xd014 <end_block9+0x47ea>
    460f: 9c 15 d0     	stz	$d015                   ; 0xd015 <end_block9+0x47eb>
    4612: a2 04        	ldx	#$4
    4614: 86 9c        	stx	$9c                     ; 0x209c <f256main+0x176e>
    4616: 8e 16 d0     	stx	$d016                   ; 0xd016 <end_block9+0x47ec>
    4619: 9c 17 d0     	stz	$d017                   ; 0xd017 <end_block9+0x47ed>
    461c: a2 bd        	ldx	#$bd
    461e: 86 12        	stx	$12                     ; 0x2012 <f256main+0x16e4>
    4620: a2 80        	ldx	#$80
    4622: 86 13        	stx	$13                     ; 0x2013 <f256main+0x16e5>
    4624: 20 db 43     	jsr	$43db <textPrint>
    4627: a2 21        	ldx	#$21
    4629: 86 9b        	stx	$9b                     ; 0x209b <f256main+0x176d>
    462b: 8e 14 d0     	stx	$d014                   ; 0xd014 <end_block9+0x47ea>
    462e: 9c 15 d0     	stz	$d015                   ; 0xd015 <end_block9+0x47eb>
    4631: a2 06        	ldx	#$6
    4633: 86 9c        	stx	$9c                     ; 0x209c <f256main+0x176e>
    4635: 8e 16 d0     	stx	$d016                   ; 0xd016 <end_block9+0x47ec>
    4638: 9c 17 d0     	stz	$d017                   ; 0xd017 <end_block9+0x47ed>
    463b: a2 b9        	ldx	#$b9
    463d: 86 12        	stx	$12                     ; 0x2012 <f256main+0x16e4>
    463f: a2 80        	ldx	#$80
    4641: 86 13        	stx	$13                     ; 0x2013 <f256main+0x16e5>
    4643: 20 db 43     	jsr	$43db <textPrint>
    4646: a2 21        	ldx	#$21
    4648: 86 9b        	stx	$9b                     ; 0x209b <f256main+0x176d>
    464a: 8e 14 d0     	stx	$d014                   ; 0xd014 <end_block9+0x47ea>
    464d: 9c 15 d0     	stz	$d015                   ; 0xd015 <end_block9+0x47eb>
    4650: a2 08        	ldx	#$8
    4652: 86 9c        	stx	$9c                     ; 0x209c <f256main+0x176e>
    4654: 8e 16 d0     	stx	$d016                   ; 0xd016 <end_block9+0x47ec>
    4657: 9c 17 d0     	stz	$d017                   ; 0xd017 <end_block9+0x47ed>
    465a: a2 15        	ldx	#$15
    465c: 86 12        	stx	$12                     ; 0x2012 <f256main+0x16e4>
    465e: a2 81        	ldx	#$81
    4660: 86 13        	stx	$13                     ; 0x2013 <f256main+0x16e5>
    4662: 20 db 43     	jsr	$43db <textPrint>
    4665: a2 0c        	ldx	#$c
    4667: 86 9b        	stx	$9b                     ; 0x209b <f256main+0x176d>
    4669: 8e 14 d0     	stx	$d014                   ; 0xd014 <end_block9+0x47ea>
    466c: 9c 15 d0     	stz	$d015                   ; 0xd015 <end_block9+0x47eb>
    466f: a2 04        	ldx	#$4
    4671: 86 9c        	stx	$9c                     ; 0x209c <f256main+0x176e>
    4673: 8e 16 d0     	stx	$d016                   ; 0xd016 <end_block9+0x47ec>
    4676: 9c 17 d0     	stz	$d017                   ; 0xd017 <end_block9+0x47ed>
    4679: a2 26        	ldx	#$26
    467b: 86 12        	stx	$12                     ; 0x2012 <f256main+0x16e4>
    467d: a2 80        	ldx	#$80
    467f: 86 13        	stx	$13                     ; 0x2013 <f256main+0x16e5>
    4681: 20 db 43     	jsr	$43db <textPrint>
    4684: a2 0d        	ldx	#$d
    4686: 86 9b        	stx	$9b                     ; 0x209b <f256main+0x176d>
    4688: 8e 14 d0     	stx	$d014                   ; 0xd014 <end_block9+0x47ea>
    468b: 9c 15 d0     	stz	$d015                   ; 0xd015 <end_block9+0x47eb>
    468e: a2 08        	ldx	#$8
    4690: 86 9c        	stx	$9c                     ; 0x209c <f256main+0x176e>
    4692: 8e 16 d0     	stx	$d016                   ; 0xd016 <end_block9+0x47ec>
    4695: 9c 17 d0     	stz	$d017                   ; 0xd017 <end_block9+0x47ed>
    4698: a2 d5        	ldx	#$d5
    469a: 86 12        	stx	$12                     ; 0x2012 <f256main+0x16e4>
    469c: a2 80        	ldx	#$80
    469e: 86 13        	stx	$13                     ; 0x2013 <f256main+0x16e5>
    46a0: 20 db 43     	jsr	$43db <textPrint>
    46a3: a2 32        	ldx	#$32
    46a5: 86 9b        	stx	$9b                     ; 0x209b <f256main+0x176d>
    46a7: 8e 14 d0     	stx	$d014                   ; 0xd014 <end_block9+0x47ea>
    46aa: 9c 15 d0     	stz	$d015                   ; 0xd015 <end_block9+0x47eb>
    46ad: a2 0d        	ldx	#$d
    46af: 86 9c        	stx	$9c                     ; 0x209c <f256main+0x176e>
    46b1: 8e 16 d0     	stx	$d016                   ; 0xd016 <end_block9+0x47ec>
    46b4: 9c 17 d0     	stz	$d017                   ; 0xd017 <end_block9+0x47ed>
    46b7: a2 de        	ldx	#$de
    46b9: 86 12        	stx	$12                     ; 0x2012 <f256main+0x16e4>
    46bb: a2 80        	ldx	#$80
    46bd: 86 13        	stx	$13                     ; 0x2013 <f256main+0x16e5>
    46bf: 20 db 43     	jsr	$43db <textPrint>
    46c2: a2 32        	ldx	#$32
    46c4: 86 9b        	stx	$9b                     ; 0x209b <f256main+0x176d>
    46c6: 8e 14 d0     	stx	$d014                   ; 0xd014 <end_block9+0x47ea>
    46c9: 9c 15 d0     	stz	$d015                   ; 0xd015 <end_block9+0x47eb>
    46cc: a2 0f        	ldx	#$f
    46ce: 86 9c        	stx	$9c                     ; 0x209c <f256main+0x176e>
    46d0: 8e 16 d0     	stx	$d016                   ; 0xd016 <end_block9+0x47ec>
    46d3: 9c 17 d0     	stz	$d017                   ; 0xd017 <end_block9+0x47ed>
    46d6: a2 fe        	ldx	#$fe
    46d8: 86 12        	stx	$12                     ; 0x2012 <f256main+0x16e4>
    46da: a2 80        	ldx	#$80
    46dc: 86 13        	stx	$13                     ; 0x2013 <f256main+0x16e5>
    46de: 20 db 43     	jsr	$43db <textPrint>
    46e1: a2 32        	ldx	#$32
    46e3: 86 9b        	stx	$9b                     ; 0x209b <f256main+0x176d>
    46e5: 8e 14 d0     	stx	$d014                   ; 0xd014 <end_block9+0x47ea>
    46e8: 9c 15 d0     	stz	$d015                   ; 0xd015 <end_block9+0x47eb>
    46eb: a2 11        	ldx	#$11
    46ed: 86 9c        	stx	$9c                     ; 0x209c <f256main+0x176e>
    46ef: 8e 16 d0     	stx	$d016                   ; 0xd016 <end_block9+0x47ec>
    46f2: 9c 17 d0     	stz	$d017                   ; 0xd017 <end_block9+0x47ed>
    46f5: a2 d0        	ldx	#$d0
    46f7: 86 12        	stx	$12                     ; 0x2012 <f256main+0x16e4>
    46f9: a2 80        	ldx	#$80
    46fb: 86 13        	stx	$13                     ; 0x2013 <f256main+0x16e5>
    46fd: 20 db 43     	jsr	$43db <textPrint>
    4700: a2 32        	ldx	#$32
    4702: 86 9b        	stx	$9b                     ; 0x209b <f256main+0x176d>
    4704: 8e 14 d0     	stx	$d014                   ; 0xd014 <end_block9+0x47ea>
    4707: 9c 15 d0     	stz	$d015                   ; 0xd015 <end_block9+0x47eb>
    470a: a2 13        	ldx	#$13
    470c: 86 9c        	stx	$9c                     ; 0x209c <f256main+0x176e>
    470e: 8e 16 d0     	stx	$d016                   ; 0xd016 <end_block9+0x47ec>
    4711: 9c 17 d0     	stz	$d017                   ; 0xd017 <end_block9+0x47ed>
    4714: a2 d9        	ldx	#$d9
    4716: 86 12        	stx	$12                     ; 0x2012 <f256main+0x16e4>
    4718: a2 80        	ldx	#$80
    471a: 86 13        	stx	$13                     ; 0x2013 <f256main+0x16e5>
    471c: 20 db 43     	jsr	$43db <textPrint>
    471f: a2 32        	ldx	#$32
    4721: 86 9b        	stx	$9b                     ; 0x209b <f256main+0x176d>
    4723: 8e 14 d0     	stx	$d014                   ; 0xd014 <end_block9+0x47ea>
    4726: 9c 15 d0     	stz	$d015                   ; 0xd015 <end_block9+0x47eb>
    4729: a2 15        	ldx	#$15
    472b: 86 9c        	stx	$9c                     ; 0x209c <f256main+0x176e>
    472d: 8e 16 d0     	stx	$d016                   ; 0xd016 <end_block9+0x47ec>
    4730: 9c 17 d0     	stz	$d017                   ; 0xd017 <end_block9+0x47ed>
    4733: a2 1c        	ldx	#$1c
    4735: 86 12        	stx	$12                     ; 0x2012 <f256main+0x16e4>
    4737: a2 80        	ldx	#$80
    4739: 86 13        	stx	$13                     ; 0x2013 <f256main+0x16e5>
    473b: 20 db 43     	jsr	$43db <textPrint>
    473e: a2 46        	ldx	#$46
    4740: 86 9b        	stx	$9b                     ; 0x209b <f256main+0x176d>
    4742: 8e 14 d0     	stx	$d014                   ; 0xd014 <end_block9+0x47ea>
    4745: 9c 15 d0     	stz	$d015                   ; 0xd015 <end_block9+0x47eb>
    4748: a2 0e        	ldx	#$e
    474a: 86 9c        	stx	$9c                     ; 0x209c <f256main+0x176e>
    474c: 8e 16 d0     	stx	$d016                   ; 0xd016 <end_block9+0x47ec>
    474f: 9c 17 d0     	stz	$d017                   ; 0xd017 <end_block9+0x47ed>
    4752: a2 34        	ldx	#$34
    4754: 86 12        	stx	$12                     ; 0x2012 <f256main+0x16e4>
    4756: a2 80        	ldx	#$80
    4758: 86 13        	stx	$13                     ; 0x2013 <f256main+0x16e5>
    475a: 20 db 43     	jsr	$43db <textPrint>
    475d: a2 43        	ldx	#$43
    475f: 86 9b        	stx	$9b                     ; 0x209b <f256main+0x176d>
    4761: 8e 14 d0     	stx	$d014                   ; 0xd014 <end_block9+0x47ea>
    4764: 9c 15 d0     	stz	$d015                   ; 0xd015 <end_block9+0x47eb>
    4767: a2 11        	ldx	#$11
    4769: 86 9c        	stx	$9c                     ; 0x209c <f256main+0x176e>
    476b: 8e 16 d0     	stx	$d016                   ; 0xd016 <end_block9+0x47ec>
    476e: 9c 17 d0     	stz	$d017                   ; 0xd017 <end_block9+0x47ed>
    4771: a2 10        	ldx	#$10
    4773: 86 12        	stx	$12                     ; 0x2012 <f256main+0x16e4>
    4775: a2 81        	ldx	#$81
    4777: 86 13        	stx	$13                     ; 0x2013 <f256main+0x16e5>
    4779: 20 db 43     	jsr	$43db <textPrint>
    477c: a2 28        	ldx	#$28
    477e: 86 9b        	stx	$9b                     ; 0x209b <f256main+0x176d>
    4780: 8e 14 d0     	stx	$d014                   ; 0xd014 <end_block9+0x47ea>
    4783: 9c 15 d0     	stz	$d015                   ; 0xd015 <end_block9+0x47eb>
    4786: a2 02        	ldx	#$2
    4788: 86 9c        	stx	$9c                     ; 0x209c <f256main+0x176e>
    478a: 8e 16 d0     	stx	$d016                   ; 0xd016 <end_block9+0x47ec>
    478d: 9c 17 d0     	stz	$d017                   ; 0xd017 <end_block9+0x47ed>
    4790: a2 24        	ldx	#$24
    4792: 86 12        	stx	$12                     ; 0x2012 <f256main+0x16e4>
    4794: a2 81        	ldx	#$81
    4796: 86 13        	stx	$13                     ; 0x2013 <f256main+0x16e5>
    4798: 20 db 43     	jsr	$43db <textPrint>
    479b: a2 2e        	ldx	#$2e
    479d: 86 9b        	stx	$9b                     ; 0x209b <f256main+0x176d>
    479f: 8e 14 d0     	stx	$d014                   ; 0xd014 <end_block9+0x47ea>
    47a2: 9c 15 d0     	stz	$d015                   ; 0xd015 <end_block9+0x47eb>
    47a5: a2 04        	ldx	#$4
    47a7: 86 9c        	stx	$9c                     ; 0x209c <f256main+0x176e>
    47a9: 8e 16 d0     	stx	$d016                   ; 0xd016 <end_block9+0x47ec>
    47ac: 9c 17 d0     	stz	$d017                   ; 0xd017 <end_block9+0x47ed>
    47af: a2 3c        	ldx	#$3c
    47b1: 86 12        	stx	$12                     ; 0x2012 <f256main+0x16e4>
    47b3: a2 80        	ldx	#$80
    47b5: 86 13        	stx	$13                     ; 0x2013 <f256main+0x16e5>
    47b7: 20 db 43     	jsr	$43db <textPrint>
    47ba: a2 05        	ldx	#$5
    47bc: 8e c9 82     	stx	$82c9                   ; 0x82c9 <radios+0x54>
    47bf: a2 95        	ldx	#$95
    47c1: 8e ca 82     	stx	$82ca                   ; 0x82ca <radios+0x55>
    47c4: 9c cb 82     	stz	$82cb                   ; 0x82cb <radios+0x56>
    47c7: a2 2c        	ldx	#$2c
    47c9: 8e cc 82     	stx	$82cc                   ; 0x82cc <radios+0x57>
    47cc: 9c cd 82     	stz	$82cd                   ; 0x82cd <radios+0x58>
    47cf: 9c ce 82     	stz	$82ce                   ; 0x82ce <radios+0x59>
    47d2: 9c cf 82     	stz	$82cf                   ; 0x82cf <radios+0x5a>
    47d5: 9c d0 82     	stz	$82d0                   ; 0x82d0 <radios+0x5b>
    47d8: 9c d1 82     	stz	$82d1                   ; 0x82d1 <radios+0x5c>
    47db: a2 38        	ldx	#$38
    47dd: 8e d2 82     	stx	$82d2                   ; 0x82d2 <radios+0x5d>
    47e0: a2 01        	ldx	#$1
    47e2: 8e d3 82     	stx	$82d3                   ; 0x82d3 <radios+0x5e>
    47e5: a0 01        	ldy	#$1
    47e7: 9c d4 82     	stz	$82d4                   ; 0x82d4 <radios+0x5f>
    47ea: a9 04        	lda	#$4
    47ec: 8d d5 82     	sta	$82d5                   ; 0x82d5 <radios+0x60>
    47ef: a2 10        	ldx	#$10
    47f1: 8e d6 82     	stx	$82d6                   ; 0x82d6 <radios+0x61>
    47f4: 9c d7 82     	stz	$82d7                   ; 0x82d7 <radios+0x62>
    47f7: a2 0d        	ldx	#$d
    47f9: 8e d8 82     	stx	$82d8                   ; 0x82d8 <radios+0x63>
    47fc: 8d d9 82     	sta	$82d9                   ; 0x82d9 <radios+0x64>
    47ff: a2 0b        	ldx	#$b
    4801: 8e da 82     	stx	$82da                   ; 0x82da <radios+0x65>
    4804: a2 18        	ldx	#$18
    4806: 8e db 82     	stx	$82db                   ; 0x82db <radios+0x66>
    4809: 9c dc 82     	stz	$82dc                   ; 0x82dc <radios+0x67>
    480c: 8c dd 82     	sty	$82dd                   ; 0x82dd <radios+0x68>
    480f: a2 40        	ldx	#$40
    4811: 8e 3a 82     	stx	$823a                   ; 0x823a <_spriteCtl+0x5>
    4814: 8e 28 d9     	stx	$d928                   ; 0xd928 <end_block9+0x50fe>
    4817: 9c 29 d9     	stz	$d929                   ; 0xd929 <end_block9+0x50ff>
    481a: a2 38        	ldx	#$38
    481c: 8e 2a d9     	stx	$d92a                   ; 0xd92a <end_block9+0x5100>
    481f: 8c 2b d9     	sty	$d92b                   ; 0xd92b <end_block9+0x5101>
    4822: ae c9 82     	ldx	$82c9                   ; 0x82c9 <radios+0x54>
    4825: 8a           	txa
    4826: 0a           	asl
    4827: 85 12        	sta	$12                     ; 0x2012 <f256main+0x16e4>
    4829: 64 15        	stz	$15                     ; 0x2015 <f256main+0x16e7>
    482b: 26 15        	rol	$15                     ; 0x2015 <f256main+0x16e7>
    482d: 06 12        	asl	$12                     ; 0x2012 <f256main+0x16e4>
    482f: 26 15        	rol	$15                     ; 0x2015 <f256main+0x16e7>
    4831: 06 12        	asl	$12                     ; 0x2012 <f256main+0x16e4>
    4833: a4 12        	ldy	$12                     ; 0x2012 <f256main+0x16e4>
    4835: 84 14        	sty	$14                     ; 0x2014 <f256main+0x16e6>
    4837: 26 15        	rol	$15                     ; 0x2015 <f256main+0x16e7>
    4839: 18           	clc
    483a: a5 12        	lda	$12                     ; 0x2012 <f256main+0x16e4>
    483c: 69 04        	adc	#$4
    483e: 85 12        	sta	$12                     ; 0x2012 <f256main+0x16e4>
    4840: a5 15        	lda	$15                     ; 0x2015 <f256main+0x16e7>
    4842: 69 d9        	adc	#$d9
    4844: 85 13        	sta	$13                     ; 0x2013 <f256main+0x16e5>
    4846: ad ca 82     	lda	$82ca                   ; 0x82ca <radios+0x55>
    4849: ac cb 82     	ldy	$82cb                   ; 0x82cb <radios+0x56>
    484c: 84 18        	sty	$18                     ; 0x2018 <f256main+0x16ea>
    484e: ac cc 82     	ldy	$82cc                   ; 0x82cc <radios+0x57>
    4851: 84 17        	sty	$17                     ; 0x2017 <f256main+0x16e9>
    4853: ac cd 82     	ldy	$82cd                   ; 0x82cd <radios+0x58>
    4856: 84 16        	sty	$16                     ; 0x2016 <f256main+0x16e8>
    4858: 92 12        	sta	($12)                   ; 0x2012 <f256main+0x16e4>
    485a: a0 01        	ldy	#$1
    485c: a5 18        	lda	$18                     ; 0x2018 <f256main+0x16ea>
    485e: 91 12        	sta	($12),y                 ; 0x2012 <f256main+0x16e4>
    4860: 18           	clc
    4861: a5 14        	lda	$14                     ; 0x2014 <f256main+0x16e6>
    4863: 69 06        	adc	#$6
    4865: 85 12        	sta	$12                     ; 0x2012 <f256main+0x16e4>
    4867: a5 15        	lda	$15                     ; 0x2015 <f256main+0x16e7>
    4869: 69 d9        	adc	#$d9
    486b: 85 13        	sta	$13                     ; 0x2013 <f256main+0x16e5>
    486d: a5 17        	lda	$17                     ; 0x2017 <f256main+0x16e9>
    486f: 92 12        	sta	($12)                   ; 0x2012 <f256main+0x16e4>
    4871: a5 16        	lda	$16                     ; 0x2016 <f256main+0x16e8>
    4873: 91 12        	sta	($12),y                 ; 0x2012 <f256main+0x16e4>
    4875: 84 24        	sty	$24                     ; 0x2024 <f256main+0x16f6>
    4877: 98           	tya
    4878: 1d 35 82     	ora	$8235,x                 ; 0x8235 <_spriteCtl>
    487b: aa           	tax
    487c: 18           	clc
    487d: a5 14        	lda	$14                     ; 0x2014 <f256main+0x16e6>
    487f: 69 00        	adc	#$0
    4881: 85 12        	sta	$12                     ; 0x2012 <f256main+0x16e4>
    4883: a5 15        	lda	$15                     ; 0x2015 <f256main+0x16e7>
    4885: 69 d9        	adc	#$d9
    4887: 85 13        	sta	$13                     ; 0x2013 <f256main+0x16e5>
    4889: 8a           	txa
    488a: 92 12        	sta	($12)                   ; 0x2012 <f256main+0x16e4>
    488c: a2 06        	ldx	#$6
    488e: 8e de 82     	stx	$82de                   ; 0x82de <radios+0x69>
    4891: a2 95        	ldx	#$95
    4893: 8e df 82     	stx	$82df                   ; 0x82df <radios+0x6a>
    4896: 9c e0 82     	stz	$82e0                   ; 0x82e0 <radios+0x6b>
    4899: a2 3c        	ldx	#$3c
    489b: 8e e1 82     	stx	$82e1                   ; 0x82e1 <radios+0x6c>
    489e: 9c e2 82     	stz	$82e2                   ; 0x82e2 <radios+0x6d>
    48a1: 9c e3 82     	stz	$82e3                   ; 0x82e3 <radios+0x6e>
    48a4: 9c e4 82     	stz	$82e4                   ; 0x82e4 <radios+0x6f>
    48a7: 9c e5 82     	stz	$82e5                   ; 0x82e5 <radios+0x70>
    48aa: 9c e6 82     	stz	$82e6                   ; 0x82e6 <radios+0x71>
    48ad: a2 38        	ldx	#$38
    48af: 8e e7 82     	stx	$82e7                   ; 0x82e7 <radios+0x72>
    48b2: 8c e8 82     	sty	$82e8                   ; 0x82e8 <radios+0x73>
    48b5: 9c e9 82     	stz	$82e9                   ; 0x82e9 <radios+0x74>
    48b8: a2 05        	ldx	#$5
    48ba: 8e ea 82     	stx	$82ea                   ; 0x82ea <radios+0x75>
    48bd: a2 10        	ldx	#$10
    48bf: 8e eb 82     	stx	$82eb                   ; 0x82eb <radios+0x76>
    48c2: 9c ec 82     	stz	$82ec                   ; 0x82ec <radios+0x77>
    48c5: a2 0d        	ldx	#$d
    48c7: 8e ed 82     	stx	$82ed                   ; 0x82ed <radios+0x78>
    48ca: a2 04        	ldx	#$4
    48cc: 8e ee 82     	stx	$82ee                   ; 0x82ee <radios+0x79>
    48cf: a2 0b        	ldx	#$b
    48d1: 8e ef 82     	stx	$82ef                   ; 0x82ef <radios+0x7a>
    48d4: a2 19        	ldx	#$19
    48d6: 8e f0 82     	stx	$82f0                   ; 0x82f0 <radios+0x7b>
    48d9: a2 de        	ldx	#$de
    48db: 86 12        	stx	$12                     ; 0x2012 <f256main+0x16e4>
    48dd: a2 82        	ldx	#$82
    48df: 86 13        	stx	$13                     ; 0x2013 <f256main+0x16e5>
    48e1: 84 14        	sty	$14                     ; 0x2014 <f256main+0x16e6>
    48e3: a2 01        	ldx	#$1
    48e5: a9 00        	lda	#$0
    48e7: 20 54 5f     	jsr	$5f54 <setRadioB>
    48ea: a2 07        	ldx	#$7
    48ec: 8e f3 82     	stx	$82f3                   ; 0x82f3 <radios+0x7e>
    48ef: a2 95        	ldx	#$95
    48f1: 8e f4 82     	stx	$82f4                   ; 0x82f4 <radios+0x7f>
    48f4: 9c f5 82     	stz	$82f5                   ; 0x82f5 <radios+0x80>
    48f7: a2 4c        	ldx	#$4c
    48f9: 8e f6 82     	stx	$82f6                   ; 0x82f6 <radios+0x81>
    48fc: 9c f7 82     	stz	$82f7                   ; 0x82f7 <radios+0x82>
    48ff: 9c f8 82     	stz	$82f8                   ; 0x82f8 <radios+0x83>
    4902: 9c f9 82     	stz	$82f9                   ; 0x82f9 <radios+0x84>
    4905: 9c fa 82     	stz	$82fa                   ; 0x82fa <radios+0x85>
    4908: 9c fb 82     	stz	$82fb                   ; 0x82fb <radios+0x86>
    490b: a0 38        	ldy	#$38
    490d: 8c fc 82     	sty	$82fc                   ; 0x82fc <radios+0x87>
    4910: a9 01        	lda	#$1
    4912: 8d fd 82     	sta	$82fd                   ; 0x82fd <radios+0x88>
    4915: 9c fe 82     	stz	$82fe                   ; 0x82fe <radios+0x89>
    4918: a2 06        	ldx	#$6
    491a: 8e ff 82     	stx	$82ff                   ; 0x82ff <radios+0x8a>
    491d: a2 10        	ldx	#$10
    491f: 8e 00 83     	stx	$8300                   ; 0x8300 <radios+0x8b>
    4922: 9c 01 83     	stz	$8301                   ; 0x8301 <radios+0x8c>
    4925: a2 0d        	ldx	#$d
    4927: 8e 02 83     	stx	$8302                   ; 0x8302 <radios+0x8d>
    492a: a2 04        	ldx	#$4
    492c: 8e 03 83     	stx	$8303                   ; 0x8303 <radios+0x8e>
    492f: a2 0b        	ldx	#$b
    4931: 8e 04 83     	stx	$8304                   ; 0x8304 <radios+0x8f>
    4934: a2 1a        	ldx	#$1a
    4936: 8e 05 83     	stx	$8305                   ; 0x8305 <radios+0x90>
    4939: 9c 06 83     	stz	$8306                   ; 0x8306 <radios+0x91>
    493c: 8d 07 83     	sta	$8307                   ; 0x8307 <radios+0x92>
    493f: a2 40        	ldx	#$40
    4941: 8e 3c 82     	stx	$823c                   ; 0x823c <_spriteCtl+0x7>
    4944: 8e 38 d9     	stx	$d938                   ; 0xd938 <end_block9+0x510e>
    4947: 9c 39 d9     	stz	$d939                   ; 0xd939 <end_block9+0x510f>
    494a: 8c 3a d9     	sty	$d93a                   ; 0xd93a <end_block9+0x5110>
    494d: 8d 3b d9     	sta	$d93b                   ; 0xd93b <end_block9+0x5111>
    4950: ae f3 82     	ldx	$82f3                   ; 0x82f3 <radios+0x7e>
    4953: 8a           	txa
    4954: 0a           	asl
    4955: 85 12        	sta	$12                     ; 0x2012 <f256main+0x16e4>
    4957: 64 15        	stz	$15                     ; 0x2015 <f256main+0x16e7>
    4959: 26 15        	rol	$15                     ; 0x2015 <f256main+0x16e7>
    495b: 06 12        	asl	$12                     ; 0x2012 <f256main+0x16e4>
    495d: 26 15        	rol	$15                     ; 0x2015 <f256main+0x16e7>
    495f: 06 12        	asl	$12                     ; 0x2012 <f256main+0x16e4>
    4961: a4 12        	ldy	$12                     ; 0x2012 <f256main+0x16e4>
    4963: 84 14        	sty	$14                     ; 0x2014 <f256main+0x16e6>
    4965: 26 15        	rol	$15                     ; 0x2015 <f256main+0x16e7>
    4967: a5 12        	lda	$12                     ; 0x2012 <f256main+0x16e4>
    4969: 18           	clc
    496a: 69 04        	adc	#$4
    496c: 85 12        	sta	$12                     ; 0x2012 <f256main+0x16e4>
    496e: a5 15        	lda	$15                     ; 0x2015 <f256main+0x16e7>
    4970: 69 d9        	adc	#$d9
    4972: 85 13        	sta	$13                     ; 0x2013 <f256main+0x16e5>
    4974: ad f4 82     	lda	$82f4                   ; 0x82f4 <radios+0x7f>
    4977: ac f5 82     	ldy	$82f5                   ; 0x82f5 <radios+0x80>
    497a: 84 18        	sty	$18                     ; 0x2018 <f256main+0x16ea>
    497c: ac f6 82     	ldy	$82f6                   ; 0x82f6 <radios+0x81>
    497f: 84 17        	sty	$17                     ; 0x2017 <f256main+0x16e9>
    4981: ac f7 82     	ldy	$82f7                   ; 0x82f7 <radios+0x82>
    4984: 84 16        	sty	$16                     ; 0x2016 <f256main+0x16e8>
    4986: 92 12        	sta	($12)                   ; 0x2012 <f256main+0x16e4>
    4988: a0 01        	ldy	#$1
    498a: a5 18        	lda	$18                     ; 0x2018 <f256main+0x16ea>
    498c: 91 12        	sta	($12),y                 ; 0x2012 <f256main+0x16e4>
    498e: a5 14        	lda	$14                     ; 0x2014 <f256main+0x16e6>
    4990: 18           	clc
    4991: 69 06        	adc	#$6
    4993: 85 12        	sta	$12                     ; 0x2012 <f256main+0x16e4>
    4995: a5 15        	lda	$15                     ; 0x2015 <f256main+0x16e7>
    4997: 69 d9        	adc	#$d9
    4999: 85 13        	sta	$13                     ; 0x2013 <f256main+0x16e5>
    499b: a5 17        	lda	$17                     ; 0x2017 <f256main+0x16e9>
    499d: 92 12        	sta	($12)                   ; 0x2012 <f256main+0x16e4>
    499f: a5 16        	lda	$16                     ; 0x2016 <f256main+0x16e8>
    49a1: 91 12        	sta	($12),y                 ; 0x2012 <f256main+0x16e4>
    49a3: 18           	clc
    49a4: a5 14        	lda	$14                     ; 0x2014 <f256main+0x16e6>
    49a6: 69 00        	adc	#$0
    49a8: 85 12        	sta	$12                     ; 0x2012 <f256main+0x16e4>
    49aa: a5 15        	lda	$15                     ; 0x2015 <f256main+0x16e7>
    49ac: 69 d9        	adc	#$d9
    49ae: 85 13        	sta	$13                     ; 0x2013 <f256main+0x16e5>
    49b0: a5 24        	lda	$24                     ; 0x2024 <f256main+0x16f6>
    49b2: 1d 35 82     	ora	$8235,x                 ; 0x8235 <_spriteCtl>
    49b5: 92 12        	sta	($12)                   ; 0x2012 <f256main+0x16e4>
    49b7: a2 08        	ldx	#$8
    49b9: 8e 08 83     	stx	$8308                   ; 0x8308 <radios+0x93>
    49bc: a2 95        	ldx	#$95
    49be: 8e 09 83     	stx	$8309                   ; 0x8309 <radios+0x94>
    49c1: 9c 0a 83     	stz	$830a                   ; 0x830a <radios+0x95>
    49c4: a2 5c        	ldx	#$5c
    49c6: 8e 0b 83     	stx	$830b                   ; 0x830b <radios+0x96>
    49c9: 9c 0c 83     	stz	$830c                   ; 0x830c <radios+0x97>
    49cc: 9c 0d 83     	stz	$830d                   ; 0x830d <radios+0x98>
    49cf: 9c 0e 83     	stz	$830e                   ; 0x830e <radios+0x99>
    49d2: 9c 0f 83     	stz	$830f                   ; 0x830f <radios+0x9a>
    49d5: 9c 10 83     	stz	$8310                   ; 0x8310 <radios+0x9b>
    49d8: a9 38        	lda	#$38
    49da: 8d 11 83     	sta	$8311                   ; 0x8311 <radios+0x9c>
    49dd: 8c 12 83     	sty	$8312                   ; 0x8312 <radios+0x9d>
    49e0: 9c 13 83     	stz	$8313                   ; 0x8313 <radios+0x9e>
    49e3: a2 07        	ldx	#$7
    49e5: 8e 14 83     	stx	$8314                   ; 0x8314 <radios+0x9f>
    49e8: a2 10        	ldx	#$10
    49ea: 8e 15 83     	stx	$8315                   ; 0x8315 <radios+0xa0>
    49ed: 9c 16 83     	stz	$8316                   ; 0x8316 <radios+0xa1>
    49f0: a2 0d        	ldx	#$d
    49f2: 8e 17 83     	stx	$8317                   ; 0x8317 <radios+0xa2>
    49f5: a2 04        	ldx	#$4
    49f7: 8e 18 83     	stx	$8318                   ; 0x8318 <radios+0xa3>
    49fa: a2 0b        	ldx	#$b
    49fc: 8e 19 83     	stx	$8319                   ; 0x8319 <radios+0xa4>
    49ff: a2 1b        	ldx	#$1b
    4a01: 8e 1a 83     	stx	$831a                   ; 0x831a <radios+0xa5>
    4a04: 9c 1b 83     	stz	$831b                   ; 0x831b <radios+0xa6>
    4a07: 8c 1c 83     	sty	$831c                   ; 0x831c <radios+0xa7>
    4a0a: a2 40        	ldx	#$40
    4a0c: 8e 3d 82     	stx	$823d                   ; 0x823d <_spriteCtl+0x8>
    4a0f: 8e 40 d9     	stx	$d940                   ; 0xd940 <end_block9+0x5116>
    4a12: 9c 41 d9     	stz	$d941                   ; 0xd941 <end_block9+0x5117>
    4a15: 8d 42 d9     	sta	$d942                   ; 0xd942 <end_block9+0x5118>
    4a18: 8c 43 d9     	sty	$d943                   ; 0xd943 <end_block9+0x5119>
    4a1b: ae 08 83     	ldx	$8308                   ; 0x8308 <radios+0x93>
    4a1e: 8a           	txa
    4a1f: 0a           	asl
    4a20: 85 12        	sta	$12                     ; 0x2012 <f256main+0x16e4>
    4a22: 64 15        	stz	$15                     ; 0x2015 <f256main+0x16e7>
    4a24: 26 15        	rol	$15                     ; 0x2015 <f256main+0x16e7>
    4a26: 06 12        	asl	$12                     ; 0x2012 <f256main+0x16e4>
    4a28: 26 15        	rol	$15                     ; 0x2015 <f256main+0x16e7>
    4a2a: 06 12        	asl	$12                     ; 0x2012 <f256main+0x16e4>
    4a2c: a4 12        	ldy	$12                     ; 0x2012 <f256main+0x16e4>
    4a2e: 84 14        	sty	$14                     ; 0x2014 <f256main+0x16e6>
    4a30: 26 15        	rol	$15                     ; 0x2015 <f256main+0x16e7>
    4a32: a5 12        	lda	$12                     ; 0x2012 <f256main+0x16e4>
    4a34: 18           	clc
    4a35: 69 04        	adc	#$4
    4a37: 85 12        	sta	$12                     ; 0x2012 <f256main+0x16e4>
    4a39: a5 15        	lda	$15                     ; 0x2015 <f256main+0x16e7>
    4a3b: 69 d9        	adc	#$d9
    4a3d: 85 13        	sta	$13                     ; 0x2013 <f256main+0x16e5>
    4a3f: ad 09 83     	lda	$8309                   ; 0x8309 <radios+0x94>
    4a42: ac 0a 83     	ldy	$830a                   ; 0x830a <radios+0x95>
    4a45: 84 18        	sty	$18                     ; 0x2018 <f256main+0x16ea>
    4a47: ac 0b 83     	ldy	$830b                   ; 0x830b <radios+0x96>
    4a4a: 84 17        	sty	$17                     ; 0x2017 <f256main+0x16e9>
    4a4c: ac 0c 83     	ldy	$830c                   ; 0x830c <radios+0x97>
    4a4f: 84 16        	sty	$16                     ; 0x2016 <f256main+0x16e8>
    4a51: 92 12        	sta	($12)                   ; 0x2012 <f256main+0x16e4>
    4a53: a0 01        	ldy	#$1
    4a55: a5 18        	lda	$18                     ; 0x2018 <f256main+0x16ea>
    4a57: 91 12        	sta	($12),y                 ; 0x2012 <f256main+0x16e4>
    4a59: a5 14        	lda	$14                     ; 0x2014 <f256main+0x16e6>
    4a5b: 18           	clc
    4a5c: 69 06        	adc	#$6
    4a5e: 85 12        	sta	$12                     ; 0x2012 <f256main+0x16e4>
    4a60: a5 15        	lda	$15                     ; 0x2015 <f256main+0x16e7>
    4a62: 69 d9        	adc	#$d9
    4a64: 85 13        	sta	$13                     ; 0x2013 <f256main+0x16e5>
    4a66: a5 17        	lda	$17                     ; 0x2017 <f256main+0x16e9>
    4a68: 92 12        	sta	($12)                   ; 0x2012 <f256main+0x16e4>
    4a6a: a5 16        	lda	$16                     ; 0x2016 <f256main+0x16e8>
    4a6c: 91 12        	sta	($12),y                 ; 0x2012 <f256main+0x16e4>
    4a6e: 18           	clc
    4a6f: a5 14        	lda	$14                     ; 0x2014 <f256main+0x16e6>
    4a71: 69 00        	adc	#$0
    4a73: 85 12        	sta	$12                     ; 0x2012 <f256main+0x16e4>
    4a75: a5 15        	lda	$15                     ; 0x2015 <f256main+0x16e7>
    4a77: 69 d9        	adc	#$d9
    4a79: 85 13        	sta	$13                     ; 0x2013 <f256main+0x16e5>
    4a7b: a5 24        	lda	$24                     ; 0x2024 <f256main+0x16f6>
    4a7d: 1d 35 82     	ora	$8235,x                 ; 0x8235 <_spriteCtl>
    4a80: 92 12        	sta	($12)                   ; 0x2012 <f256main+0x16e4>
    4a82: a2 09        	ldx	#$9
    4a84: 8e 54 85     	stx	$8554                   ; 0x8554 <sliders>
    4a87: a2 51        	ldx	#$51
    4a89: 8e 55 85     	stx	$8555                   ; 0x8555 <sliders+0x1>
    4a8c: 9c 56 85     	stz	$8556                   ; 0x8556 <sliders+0x2>
    4a8f: a2 61        	ldx	#$61
    4a91: 8e 85 85     	stx	$8585                   ; 0x8585 <sliders+0x31>
    4a94: a2 71        	ldx	#$71
    4a96: 8e b5 85     	stx	$85b5                   ; 0x85b5 <sliders+0x61>
    4a99: a6 cf        	ldx	$cf                     ; 0x20cf <f256main+0x17a1>
    4a9b: a4 d0        	ldy	$d0                     ; 0x20d0 <f256main+0x17a2>
    4a9d: 86 12        	stx	$12                     ; 0x2012 <f256main+0x16e4>
    4a9f: 84 13        	sty	$13                     ; 0x2013 <f256main+0x16e5>
    4aa1: 18           	clc
    4aa2: 8a           	txa
    4aa3: 69 04        	adc	#$4
    4aa5: 85 14        	sta	$14                     ; 0x2014 <f256main+0x16e6>
    4aa7: 98           	tya
    4aa8: 69 00        	adc	#$0
    4aaa: 85 15        	sta	$15                     ; 0x2015 <f256main+0x16e7>
    4aac: a2 31        	ldx	#$31
    4aae: 8e 57 85     	stx	$8557                   ; 0x8557 <sliders+0x3>
    4ab1: 9c 58 85     	stz	$8558                   ; 0x8558 <sliders+0x4>
    4ab4: 9c 59 85     	stz	$8559                   ; 0x8559 <sliders+0x5>
    4ab7: 9c 5a 85     	stz	$855a                   ; 0x855a <sliders+0x6>
    4aba: 9c 5b 85     	stz	$855b                   ; 0x855b <sliders+0x7>
    4abd: 9c 5c 85     	stz	$855c                   ; 0x855c <sliders+0x8>
    4ac0: a2 28        	ldx	#$28
    4ac2: 8e 5d 85     	stx	$855d                   ; 0x855d <sliders+0x9>
    4ac5: a2 01        	ldx	#$1
    4ac7: 8e 5e 85     	stx	$855e                   ; 0x855e <sliders+0xa>
    4aca: 9c 5f 85     	stz	$855f                   ; 0x855f <sliders+0xb>
    4acd: 9c 60 85     	stz	$8560                   ; 0x8560 <sliders+0xc>
    4ad0: a2 10        	ldx	#$10
    4ad2: 8e 61 85     	stx	$8561                   ; 0x8561 <sliders+0xd>
    4ad5: a2 03        	ldx	#$3
    4ad7: 8e 62 85     	stx	$8562                   ; 0x8562 <sliders+0xe>
    4ada: 9c 75 85     	stz	$8575                   ; 0x8575 <sliders+0x21>
    4add: 9c 76 85     	stz	$8576                   ; 0x8576 <sliders+0x22>
    4ae0: 9c 77 85     	stz	$8577                   ; 0x8577 <sliders+0x23>
    4ae3: 9c 78 85     	stz	$8578                   ; 0x8578 <sliders+0x24>
    4ae6: 9c a5 85     	stz	$85a5                   ; 0x85a5 <sliders+0x51>
    4ae9: 9c a6 85     	stz	$85a6                   ; 0x85a6 <sliders+0x52>
    4aec: 9c a7 85     	stz	$85a7                   ; 0x85a7 <sliders+0x53>
    4aef: 9c a8 85     	stz	$85a8                   ; 0x85a8 <sliders+0x54>
    4af2: 9c d5 85     	stz	$85d5                   ; 0x85d5 <sliders+0x81>
    4af5: 9c d6 85     	stz	$85d6                   ; 0x85d6 <sliders+0x82>
    4af8: 9c d7 85     	stz	$85d7                   ; 0x85d7 <sliders+0x83>
    4afb: 9c d8 85     	stz	$85d8                   ; 0x85d8 <sliders+0x84>
    4afe: 9c 05 86     	stz	$8605                   ; 0x8605 <sliders+0xb1>
    4b01: 9c 06 86     	stz	$8606                   ; 0x8606 <sliders+0xb2>
    4b04: 9c 07 86     	stz	$8607                   ; 0x8607 <sliders+0xb3>
    4b07: 9c 08 86     	stz	$8608                   ; 0x8608 <sliders+0xb4>
    4b0a: a0 04        	ldy	#$4
    4b0c: b1 12        	lda	($12),y                 ; 0x2012 <f256main+0x16e4>
    4b0e: 85 12        	sta	$12                     ; 0x2012 <f256main+0x16e4>
    4b10: a0 01        	ldy	#$1
    4b12: b1 14        	lda	($14),y                 ; 0x2014 <f256main+0x16e6>
    4b14: 85 13        	sta	$13                     ; 0x2013 <f256main+0x16e5>
    4b16: a0 03        	ldy	#$3
    4b18: b1 12        	lda	($12),y                 ; 0x2012 <f256main+0x16e4>
    4b1a: 4a           	lsr
    4b1b: 4a           	lsr
    4b1c: 4a           	lsr
    4b1d: 4a           	lsr
    4b1e: 8d 7b 85     	sta	$857b                   ; 0x857b <sliders+0x27>
    4b21: a2 0a        	ldx	#$a
    4b23: 8e 63 85     	stx	$8563                   ; 0x8563 <sliders+0xf>
    4b26: a2 06        	ldx	#$6
    4b28: 8e 64 85     	stx	$8564                   ; 0x8564 <sliders+0x10>
    4b2b: a2 19        	ldx	#$19
    4b2d: 8e 65 85     	stx	$8565                   ; 0x8565 <sliders+0x11>
    4b30: a2 1c        	ldx	#$1c
    4b32: 8e 66 85     	stx	$8566                   ; 0x8566 <sliders+0x12>
    4b35: a2 ff        	ldx	#$ff
    4b37: 8e 67 85     	stx	$8567                   ; 0x8567 <sliders+0x13>
    4b3a: 8a           	txa
    4b3b: 8c 68 85     	sty	$8568                   ; 0x8568 <sliders+0x14>
    4b3e: a2 03        	ldx	#$3
    4b40: 9c 69 85     	stz	$8569                   ; 0x8569 <sliders+0x15>
    4b43: 8e 6a 85     	stx	$856a                   ; 0x856a <sliders+0x16>
    4b46: 9c 6b 85     	stz	$856b                   ; 0x856b <sliders+0x17>
    4b49: 9c 6c 85     	stz	$856c                   ; 0x856c <sliders+0x18>
    4b4c: 9c 6d 85     	stz	$856d                   ; 0x856d <sliders+0x19>
    4b4f: 9c 6e 85     	stz	$856e                   ; 0x856e <sliders+0x1a>
    4b52: 9c 6f 85     	stz	$856f                   ; 0x856f <sliders+0x1b>
    4b55: a2 54        	ldx	#$54
    4b57: 8e 70 85     	stx	$8570                   ; 0x8570 <sliders+0x1c>
    4b5a: a2 01        	ldx	#$1
    4b5c: 8e 71 85     	stx	$8571                   ; 0x8571 <sliders+0x1d>
    4b5f: 9c 72 85     	stz	$8572                   ; 0x8572 <sliders+0x1e>
    4b62: 9c 73 85     	stz	$8573                   ; 0x8573 <sliders+0x1f>
    4b65: a0 10        	ldy	#$10
    4b67: 8c 74 85     	sty	$8574                   ; 0x8574 <sliders+0x20>
    4b6a: 8d 79 85     	sta	$8579                   ; 0x8579 <sliders+0x25>
    4b6d: a2 0b        	ldx	#$b
    4b6f: 8e 84 85     	stx	$8584                   ; 0x8584 <sliders+0x30>
    4b72: 9c 86 85     	stz	$8586                   ; 0x8586 <sliders+0x32>
    4b75: a2 31        	ldx	#$31
    4b77: 8e 87 85     	stx	$8587                   ; 0x8587 <sliders+0x33>
    4b7a: 9c 88 85     	stz	$8588                   ; 0x8588 <sliders+0x34>
    4b7d: 9c 89 85     	stz	$8589                   ; 0x8589 <sliders+0x35>
    4b80: 9c 8a 85     	stz	$858a                   ; 0x858a <sliders+0x36>
    4b83: 9c 8b 85     	stz	$858b                   ; 0x858b <sliders+0x37>
    4b86: 9c 8c 85     	stz	$858c                   ; 0x858c <sliders+0x38>
    4b89: a2 28        	ldx	#$28
    4b8b: 8e 8d 85     	stx	$858d                   ; 0x858d <sliders+0x39>
    4b8e: a2 01        	ldx	#$1
    4b90: 8e 8e 85     	stx	$858e                   ; 0x858e <sliders+0x3a>
    4b93: 9c 8f 85     	stz	$858f                   ; 0x858f <sliders+0x3b>
    4b96: 8e 90 85     	stx	$8590                   ; 0x8590 <sliders+0x3c>
    4b99: 8c 91 85     	sty	$8591                   ; 0x8591 <sliders+0x3d>
    4b9c: a2 03        	ldx	#$3
    4b9e: 8e 92 85     	stx	$8592                   ; 0x8592 <sliders+0x3e>
    4ba1: a0 0a        	ldy	#$a
    4ba3: 8c 93 85     	sty	$8593                   ; 0x8593 <sliders+0x3f>
    4ba6: a0 06        	ldy	#$6
    4ba8: 8c 94 85     	sty	$8594                   ; 0x8594 <sliders+0x40>
    4bab: a0 19        	ldy	#$19
    4bad: 8c 95 85     	sty	$8595                   ; 0x8595 <sliders+0x41>
    4bb0: a9 1d        	lda	#$1d
    4bb2: 8d 96 85     	sta	$8596                   ; 0x8596 <sliders+0x42>
    4bb5: a9 ff        	lda	#$ff
    4bb7: 8d 97 85     	sta	$8597                   ; 0x8597 <sliders+0x43>
    4bba: a0 04        	ldy	#$4
    4bbc: 8c 98 85     	sty	$8598                   ; 0x8598 <sliders+0x44>
    4bbf: 9c 99 85     	stz	$8599                   ; 0x8599 <sliders+0x45>
    4bc2: 8e 9a 85     	stx	$859a                   ; 0x859a <sliders+0x46>
    4bc5: 9c 9b 85     	stz	$859b                   ; 0x859b <sliders+0x47>
    4bc8: 9c 9c 85     	stz	$859c                   ; 0x859c <sliders+0x48>
    4bcb: 9c 9d 85     	stz	$859d                   ; 0x859d <sliders+0x49>
    4bce: 9c 9e 85     	stz	$859e                   ; 0x859e <sliders+0x4a>
    4bd1: 9c 9f 85     	stz	$859f                   ; 0x859f <sliders+0x4b>
    4bd4: a0 54        	ldy	#$54
    4bd6: 8c a0 85     	sty	$85a0                   ; 0x85a0 <sliders+0x4c>
    4bd9: a0 01        	ldy	#$1
    4bdb: 8c a1 85     	sty	$85a1                   ; 0x85a1 <sliders+0x4d>
    4bde: 9c a2 85     	stz	$85a2                   ; 0x85a2 <sliders+0x4e>
    4be1: 8c a3 85     	sty	$85a3                   ; 0x85a3 <sliders+0x4f>
    4be4: a2 10        	ldx	#$10
    4be6: 8e a4 85     	stx	$85a4                   ; 0x85a4 <sliders+0x50>
    4be9: 8d a9 85     	sta	$85a9                   ; 0x85a9 <sliders+0x55>
    4bec: a0 0d        	ldy	#$d
    4bee: 8c b4 85     	sty	$85b4                   ; 0x85b4 <sliders+0x60>
    4bf1: 9c b6 85     	stz	$85b6                   ; 0x85b6 <sliders+0x62>
    4bf4: a0 31        	ldy	#$31
    4bf6: 8c b7 85     	sty	$85b7                   ; 0x85b7 <sliders+0x63>
    4bf9: 9c b8 85     	stz	$85b8                   ; 0x85b8 <sliders+0x64>
    4bfc: 9c b9 85     	stz	$85b9                   ; 0x85b9 <sliders+0x65>
    4bff: 9c ba 85     	stz	$85ba                   ; 0x85ba <sliders+0x66>
    4c02: 9c bb 85     	stz	$85bb                   ; 0x85bb <sliders+0x67>
    4c05: 9c bc 85     	stz	$85bc                   ; 0x85bc <sliders+0x68>
    4c08: a0 28        	ldy	#$28
    4c0a: 8c bd 85     	sty	$85bd                   ; 0x85bd <sliders+0x69>
    4c0d: a9 01        	lda	#$1
    4c0f: 8d be 85     	sta	$85be                   ; 0x85be <sliders+0x6a>
    4c12: 9c bf 85     	stz	$85bf                   ; 0x85bf <sliders+0x6b>
    4c15: a0 02        	ldy	#$2
    4c17: 8c c0 85     	sty	$85c0                   ; 0x85c0 <sliders+0x6c>
    4c1a: 8e c1 85     	stx	$85c1                   ; 0x85c1 <sliders+0x6d>
    4c1d: c8           	iny
    4c1e: 8c c2 85     	sty	$85c2                   ; 0x85c2 <sliders+0x6e>
    4c21: a2 0a        	ldx	#$a
    4c23: 8e c3 85     	stx	$85c3                   ; 0x85c3 <sliders+0x6f>
    4c26: a2 06        	ldx	#$6
    4c28: 8e c4 85     	stx	$85c4                   ; 0x85c4 <sliders+0x70>
    4c2b: a2 19        	ldx	#$19
    4c2d: 8e c5 85     	stx	$85c5                   ; 0x85c5 <sliders+0x71>
    4c30: a2 1e        	ldx	#$1e
    4c32: 8e c6 85     	stx	$85c6                   ; 0x85c6 <sliders+0x72>
    4c35: a2 ff        	ldx	#$ff
    4c37: 8e c7 85     	stx	$85c7                   ; 0x85c7 <sliders+0x73>
    4c3a: a2 05        	ldx	#$5
    4c3c: 8e c8 85     	stx	$85c8                   ; 0x85c8 <sliders+0x74>
    4c3f: 9c c9 85     	stz	$85c9                   ; 0x85c9 <sliders+0x75>
    4c42: 8c ca 85     	sty	$85ca                   ; 0x85ca <sliders+0x76>
    4c45: 9c cb 85     	stz	$85cb                   ; 0x85cb <sliders+0x77>
    4c48: 9c cc 85     	stz	$85cc                   ; 0x85cc <sliders+0x78>
    4c4b: 9c cd 85     	stz	$85cd                   ; 0x85cd <sliders+0x79>
    4c4e: 9c ce 85     	stz	$85ce                   ; 0x85ce <sliders+0x7a>
    4c51: 9c cf 85     	stz	$85cf                   ; 0x85cf <sliders+0x7b>
    4c54: a2 54        	ldx	#$54
    4c56: 8e d0 85     	stx	$85d0                   ; 0x85d0 <sliders+0x7c>
    4c59: 8d d1 85     	sta	$85d1                   ; 0x85d1 <sliders+0x7d>
    4c5c: a8           	tay
    4c5d: 9c d2 85     	stz	$85d2                   ; 0x85d2 <sliders+0x7e>
    4c60: a2 02        	ldx	#$2
    4c62: 8e d3 85     	stx	$85d3                   ; 0x85d3 <sliders+0x7f>
    4c65: a2 10        	ldx	#$10
    4c67: 8e d4 85     	stx	$85d4                   ; 0x85d4 <sliders+0x80>
    4c6a: a2 ff        	ldx	#$ff
    4c6c: 8e d9 85     	stx	$85d9                   ; 0x85d9 <sliders+0x85>
    4c6f: a2 0f        	ldx	#$f
    4c71: 8e e4 85     	stx	$85e4                   ; 0x85e4 <sliders+0x90>
    4c74: a2 81        	ldx	#$81
    4c76: 8e e5 85     	stx	$85e5                   ; 0x85e5 <sliders+0x91>
    4c79: 9c e6 85     	stz	$85e6                   ; 0x85e6 <sliders+0x92>
    4c7c: a2 31        	ldx	#$31
    4c7e: 8e e7 85     	stx	$85e7                   ; 0x85e7 <sliders+0x93>
    4c81: 9c e8 85     	stz	$85e8                   ; 0x85e8 <sliders+0x94>
    4c84: 9c e9 85     	stz	$85e9                   ; 0x85e9 <sliders+0x95>
    4c87: 9c ea 85     	stz	$85ea                   ; 0x85ea <sliders+0x96>
    4c8a: 9c eb 85     	stz	$85eb                   ; 0x85eb <sliders+0x97>
    4c8d: 9c ec 85     	stz	$85ec                   ; 0x85ec <sliders+0x98>
    4c90: a2 28        	ldx	#$28
    4c92: 8e ed 85     	stx	$85ed                   ; 0x85ed <sliders+0x99>
    4c95: 8c ee 85     	sty	$85ee                   ; 0x85ee <sliders+0x9a>
    4c98: 9c ef 85     	stz	$85ef                   ; 0x85ef <sliders+0x9b>
    4c9b: a2 03        	ldx	#$3
    4c9d: 8e f0 85     	stx	$85f0                   ; 0x85f0 <sliders+0x9c>
    4ca0: a0 10        	ldy	#$10
    4ca2: 8c f1 85     	sty	$85f1                   ; 0x85f1 <sliders+0x9d>
    4ca5: 8e f2 85     	stx	$85f2                   ; 0x85f2 <sliders+0x9e>
    4ca8: a0 03        	ldy	#$3
    4caa: a2 0a        	ldx	#$a
    4cac: 8e f3 85     	stx	$85f3                   ; 0x85f3 <sliders+0x9f>
    4caf: a2 06        	ldx	#$6
    4cb1: 8e f4 85     	stx	$85f4                   ; 0x85f4 <sliders+0xa0>
    4cb4: 8a           	txa
    4cb5: a2 19        	ldx	#$19
    4cb7: 8e f5 85     	stx	$85f5                   ; 0x85f5 <sliders+0xa1>
    4cba: a2 1f        	ldx	#$1f
    4cbc: 8e f6 85     	stx	$85f6                   ; 0x85f6 <sliders+0xa2>
    4cbf: a2 ff        	ldx	#$ff
    4cc1: 8e f7 85     	stx	$85f7                   ; 0x85f7 <sliders+0xa3>
    4cc4: 8d f8 85     	sta	$85f8                   ; 0x85f8 <sliders+0xa4>
    4cc7: 9c f9 85     	stz	$85f9                   ; 0x85f9 <sliders+0xa5>
    4cca: 8c fa 85     	sty	$85fa                   ; 0x85fa <sliders+0xa6>
    4ccd: 9c fb 85     	stz	$85fb                   ; 0x85fb <sliders+0xa7>
    4cd0: 9c fc 85     	stz	$85fc                   ; 0x85fc <sliders+0xa8>
    4cd3: 9c fd 85     	stz	$85fd                   ; 0x85fd <sliders+0xa9>
    4cd6: 9c fe 85     	stz	$85fe                   ; 0x85fe <sliders+0xaa>
    4cd9: 9c ff 85     	stz	$85ff                   ; 0x85ff <sliders+0xab>
    4cdc: a9 54        	lda	#$54
    4cde: 8d 00 86     	sta	$8600                   ; 0x8600 <sliders+0xac>
    4ce1: a9 01        	lda	#$1
    4ce3: 8d 01 86     	sta	$8601                   ; 0x8601 <sliders+0xad>
    4ce6: 9c 02 86     	stz	$8602                   ; 0x8602 <sliders+0xae>
    4ce9: 8c 03 86     	sty	$8603                   ; 0x8603 <sliders+0xaf>
    4cec: a0 10        	ldy	#$10
    4cee: 8c 04 86     	sty	$8604                   ; 0x8604 <sliders+0xb0>
    4cf1: 8e 09 86     	stx	$8609                   ; 0x8609 <sliders+0xb5>
    4cf4: 9c 7c 85     	stz	$857c                   ; 0x857c <sliders+0x28>
    4cf7: a2 0f        	ldx	#$f
    4cf9: 8e 7d 85     	stx	$857d                   ; 0x857d <sliders+0x29>
    4cfc: 9c 7e 85     	stz	$857e                   ; 0x857e <sliders+0x2a>
    4cff: 9c 7f 85     	stz	$857f                   ; 0x857f <sliders+0x2b>
    4d02: 9c 80 85     	stz	$8580                   ; 0x8580 <sliders+0x2c>
    4d05: 9c 81 85     	stz	$8581                   ; 0x8581 <sliders+0x2d>
    4d08: 9c 82 85     	stz	$8582                   ; 0x8582 <sliders+0x2e>
    4d0b: 9c 83 85     	stz	$8583                   ; 0x8583 <sliders+0x2f>
    4d0e: a2 54        	ldx	#$54
    4d10: 86 12        	stx	$12                     ; 0x2012 <f256main+0x16e4>
    4d12: a2 85        	ldx	#$85
    4d14: 86 13        	stx	$13                     ; 0x2013 <f256main+0x16e5>
    4d16: 20 78 65     	jsr	$6578 <updateSlider>
    4d19: a5 cf        	lda	$cf                     ; 0x20cf <f256main+0x17a1>
    4d1b: a6 d0        	ldx	$d0                     ; 0x20d0 <f256main+0x17a2>
    4d1d: 85 12        	sta	$12                     ; 0x2012 <f256main+0x16e4>
    4d1f: 86 13        	stx	$13                     ; 0x2013 <f256main+0x16e5>
    4d21: 18           	clc
    4d22: 69 04        	adc	#$4
    4d24: 85 14        	sta	$14                     ; 0x2014 <f256main+0x16e6>
    4d26: 8a           	txa
    4d27: 69 00        	adc	#$0
    4d29: 85 15        	sta	$15                     ; 0x2015 <f256main+0x16e7>
    4d2b: a0 04        	ldy	#$4
    4d2d: b1 12        	lda	($12),y                 ; 0x2012 <f256main+0x16e4>
    4d2f: 85 12        	sta	$12                     ; 0x2012 <f256main+0x16e4>
    4d31: a0 01        	ldy	#$1
    4d33: b1 14        	lda	($14),y                 ; 0x2014 <f256main+0x16e6>
    4d35: 85 13        	sta	$13                     ; 0x2013 <f256main+0x16e5>
    4d37: a9 0f        	lda	#$f
    4d39: a0 03        	ldy	#$3
    4d3b: 31 12        	and	($12),y                 ; 0x2012 <f256main+0x16e4>
    4d3d: 8d ab 85     	sta	$85ab                   ; 0x85ab <sliders+0x57>
    4d40: 9c ac 85     	stz	$85ac                   ; 0x85ac <sliders+0x58>
    4d43: a2 0f        	ldx	#$f
    4d45: 8e ad 85     	stx	$85ad                   ; 0x85ad <sliders+0x59>
    4d48: 9c ae 85     	stz	$85ae                   ; 0x85ae <sliders+0x5a>
    4d4b: 9c af 85     	stz	$85af                   ; 0x85af <sliders+0x5b>
    4d4e: 9c b0 85     	stz	$85b0                   ; 0x85b0 <sliders+0x5c>
    4d51: 9c b1 85     	stz	$85b1                   ; 0x85b1 <sliders+0x5d>
    4d54: 9c b2 85     	stz	$85b2                   ; 0x85b2 <sliders+0x5e>
    4d57: 9c b3 85     	stz	$85b3                   ; 0x85b3 <sliders+0x5f>
    4d5a: a2 84        	ldx	#$84
    4d5c: 86 12        	stx	$12                     ; 0x2012 <f256main+0x16e4>
    4d5e: a2 85        	ldx	#$85
    4d60: 86 13        	stx	$13                     ; 0x2013 <f256main+0x16e5>
    4d62: 20 78 65     	jsr	$6578 <updateSlider>
    4d65: a5 cf        	lda	$cf                     ; 0x20cf <f256main+0x17a1>
    4d67: a6 d0        	ldx	$d0                     ; 0x20d0 <f256main+0x17a2>
    4d69: 85 12        	sta	$12                     ; 0x2012 <f256main+0x16e4>
    4d6b: 86 13        	stx	$13                     ; 0x2013 <f256main+0x16e5>
    4d6d: 18           	clc
    4d6e: 69 04        	adc	#$4
    4d70: 85 14        	sta	$14                     ; 0x2014 <f256main+0x16e6>
    4d72: 8a           	txa
    4d73: 69 00        	adc	#$0
    4d75: 85 15        	sta	$15                     ; 0x2015 <f256main+0x16e7>
    4d77: a0 04        	ldy	#$4
    4d79: b1 12        	lda	($12),y                 ; 0x2012 <f256main+0x16e4>
    4d7b: 85 12        	sta	$12                     ; 0x2012 <f256main+0x16e4>
    4d7d: a0 01        	ldy	#$1
    4d7f: b1 14        	lda	($14),y                 ; 0x2014 <f256main+0x16e6>
    4d81: 85 13        	sta	$13                     ; 0x2013 <f256main+0x16e5>
    4d83: a0 04        	ldy	#$4
    4d85: b1 12        	lda	($12),y                 ; 0x2012 <f256main+0x16e4>
    4d87: 4a           	lsr
    4d88: 4a           	lsr
    4d89: 4a           	lsr
    4d8a: 4a           	lsr
    4d8b: 8d db 85     	sta	$85db                   ; 0x85db <sliders+0x87>
    4d8e: 9c dc 85     	stz	$85dc                   ; 0x85dc <sliders+0x88>
    4d91: a2 0f        	ldx	#$f
    4d93: 8e dd 85     	stx	$85dd                   ; 0x85dd <sliders+0x89>
    4d96: 9c de 85     	stz	$85de                   ; 0x85de <sliders+0x8a>
    4d99: 9c df 85     	stz	$85df                   ; 0x85df <sliders+0x8b>
    4d9c: 9c e0 85     	stz	$85e0                   ; 0x85e0 <sliders+0x8c>
    4d9f: 9c e1 85     	stz	$85e1                   ; 0x85e1 <sliders+0x8d>
    4da2: 9c e2 85     	stz	$85e2                   ; 0x85e2 <sliders+0x8e>
    4da5: 9c e3 85     	stz	$85e3                   ; 0x85e3 <sliders+0x8f>
    4da8: a2 b4        	ldx	#$b4
    4daa: 86 12        	stx	$12                     ; 0x2012 <f256main+0x16e4>
    4dac: a2 85        	ldx	#$85
    4dae: 86 13        	stx	$13                     ; 0x2013 <f256main+0x16e5>
    4db0: 20 78 65     	jsr	$6578 <updateSlider>
    4db3: a5 cf        	lda	$cf                     ; 0x20cf <f256main+0x17a1>
    4db5: a6 d0        	ldx	$d0                     ; 0x20d0 <f256main+0x17a2>
    4db7: 85 12        	sta	$12                     ; 0x2012 <f256main+0x16e4>
    4db9: 86 13        	stx	$13                     ; 0x2013 <f256main+0x16e5>
    4dbb: 18           	clc
    4dbc: 69 04        	adc	#$4
    4dbe: 85 14        	sta	$14                     ; 0x2014 <f256main+0x16e6>
    4dc0: 8a           	txa
    4dc1: 69 00        	adc	#$0
    4dc3: 85 15        	sta	$15                     ; 0x2015 <f256main+0x16e7>
    4dc5: a0 04        	ldy	#$4
    4dc7: b1 12        	lda	($12),y                 ; 0x2012 <f256main+0x16e4>
    4dc9: 85 12        	sta	$12                     ; 0x2012 <f256main+0x16e4>
    4dcb: a0 01        	ldy	#$1
    4dcd: b1 14        	lda	($14),y                 ; 0x2014 <f256main+0x16e6>
    4dcf: 85 13        	sta	$13                     ; 0x2013 <f256main+0x16e5>
    4dd1: a9 0f        	lda	#$f
    4dd3: a0 04        	ldy	#$4
    4dd5: 31 12        	and	($12),y                 ; 0x2012 <f256main+0x16e4>
    4dd7: 8d 0b 86     	sta	$860b                   ; 0x860b <sliders+0xb7>
    4dda: 9c 0c 86     	stz	$860c                   ; 0x860c <sliders+0xb8>
    4ddd: a2 0f        	ldx	#$f
    4ddf: 8e 0d 86     	stx	$860d                   ; 0x860d <sliders+0xb9>
    4de2: 9c 0e 86     	stz	$860e                   ; 0x860e <sliders+0xba>
    4de5: 9c 0f 86     	stz	$860f                   ; 0x860f <sliders+0xbb>
    4de8: 9c 10 86     	stz	$8610                   ; 0x8610 <sliders+0xbc>
    4deb: 9c 11 86     	stz	$8611                   ; 0x8611 <sliders+0xbd>
    4dee: 9c 12 86     	stz	$8612                   ; 0x8612 <sliders+0xbe>
    4df1: 9c 13 86     	stz	$8613                   ; 0x8613 <sliders+0xbf>
    4df4: a2 e4        	ldx	#$e4
    4df6: 86 12        	stx	$12                     ; 0x2012 <f256main+0x16e4>
    4df8: a2 85        	ldx	#$85
    4dfa: 86 13        	stx	$13                     ; 0x2013 <f256main+0x16e5>
    4dfc: 20 78 65     	jsr	$6578 <updateSlider>
    4dff: a2 11        	ldx	#$11
    4e01: 8e 44 86     	stx	$8644                   ; 0x8644 <dials>
    4e04: a2 6a        	ldx	#$6a
    4e06: 8e 45 86     	stx	$8645                   ; 0x8645 <dials+0x1>
    4e09: 9c 46 86     	stz	$8646                   ; 0x8646 <dials+0x2>
    4e0c: a2 5d        	ldx	#$5d
    4e0e: 8e 47 86     	stx	$8647                   ; 0x8647 <dials+0x3>
    4e11: 9c 48 86     	stz	$8648                   ; 0x8648 <dials+0x4>
    4e14: 9c 49 86     	stz	$8649                   ; 0x8649 <dials+0x5>
    4e17: 9c 4a 86     	stz	$864a                   ; 0x864a <dials+0x6>
    4e1a: 9c 4b 86     	stz	$864b                   ; 0x864b <dials+0x7>
    4e1d: 9c 4c 86     	stz	$864c                   ; 0x864c <dials+0x8>
    4e20: a2 20        	ldx	#$20
    4e22: 8e 4d 86     	stx	$864d                   ; 0x864d <dials+0x9>
    4e25: a2 01        	ldx	#$1
    4e27: 8e 4e 86     	stx	$864e                   ; 0x864e <dials+0xa>
    4e2a: 9c 4f 86     	stz	$864f                   ; 0x864f <dials+0xb>
    4e2d: 9c 50 86     	stz	$8650                   ; 0x8650 <dials+0xc>
    4e30: a2 10        	ldx	#$10
    4e32: 8e 51 86     	stx	$8651                   ; 0x8651 <dials+0xd>
    4e35: 9c 52 86     	stz	$8652                   ; 0x8652 <dials+0xe>
    4e38: a2 0d        	ldx	#$d
    4e3a: 8e 53 86     	stx	$8653                   ; 0x8653 <dials+0xf>
    4e3d: 9c 54 86     	stz	$8654                   ; 0x8654 <dials+0x10>
    4e40: 8e 55 86     	stx	$8655                   ; 0x8655 <dials+0x11>
    4e43: a2 24        	ldx	#$24
    4e45: 8e 56 86     	stx	$8656                   ; 0x8656 <dials+0x12>
    4e48: a9 ff        	lda	#$ff
    4e4a: 8d 57 86     	sta	$8657                   ; 0x8657 <dials+0x13>
    4e4d: a2 04        	ldx	#$4
    4e4f: 8e 58 86     	stx	$8658                   ; 0x8658 <dials+0x14>
    4e52: 9c 59 86     	stz	$8659                   ; 0x8659 <dials+0x15>
    4e55: e8           	inx
    4e56: 8e 5a 86     	stx	$865a                   ; 0x865a <dials+0x16>
    4e59: 9c 5b 86     	stz	$865b                   ; 0x865b <dials+0x17>
    4e5c: 9c 5c 86     	stz	$865c                   ; 0x865c <dials+0x18>
    4e5f: 9c 5d 86     	stz	$865d                   ; 0x865d <dials+0x19>
    4e62: 9c 5e 86     	stz	$865e                   ; 0x865e <dials+0x1a>
    4e65: 9c 5f 86     	stz	$865f                   ; 0x865f <dials+0x1b>
    4e68: a0 54        	ldy	#$54
    4e6a: 8c 60 86     	sty	$8660                   ; 0x8660 <dials+0x1c>
    4e6d: a0 01        	ldy	#$1
    4e6f: 8c 61 86     	sty	$8661                   ; 0x8661 <dials+0x1d>
    4e72: 9c 62 86     	stz	$8662                   ; 0x8662 <dials+0x1e>
    4e75: 9c 63 86     	stz	$8663                   ; 0x8663 <dials+0x1f>
    4e78: a0 10        	ldy	#$10
    4e7a: 8c 64 86     	sty	$8664                   ; 0x8664 <dials+0x20>
    4e7d: 9c 65 86     	stz	$8665                   ; 0x8665 <dials+0x21>
    4e80: 9c 66 86     	stz	$8666                   ; 0x8666 <dials+0x22>
    4e83: 9c 67 86     	stz	$8667                   ; 0x8667 <dials+0x23>
    4e86: 9c 68 86     	stz	$8668                   ; 0x8668 <dials+0x24>
    4e89: 8d 69 86     	sta	$8669                   ; 0x8669 <dials+0x25>
    4e8c: 8d 6b 86     	sta	$866b                   ; 0x866b <dials+0x27>
    4e8f: 8e 6c 86     	stx	$866c                   ; 0x866c <dials+0x28>
    4e92: 9c 6d 86     	stz	$866d                   ; 0x866d <dials+0x29>
    4e95: 8e 6e 86     	stx	$866e                   ; 0x866e <dials+0x2a>
    4e98: 9c 6f 86     	stz	$866f                   ; 0x866f <dials+0x2b>
    4e9b: 9c 70 86     	stz	$8670                   ; 0x8670 <dials+0x2c>
    4e9e: 9c 71 86     	stz	$8671                   ; 0x8671 <dials+0x2d>
    4ea1: 9c 72 86     	stz	$8672                   ; 0x8672 <dials+0x2e>
    4ea4: 9c 73 86     	stz	$8673                   ; 0x8673 <dials+0x2f>
    4ea7: a2 54        	ldx	#$54
    4ea9: 8e 74 86     	stx	$8674                   ; 0x8674 <dials+0x30>
    4eac: a2 01        	ldx	#$1
    4eae: 8e 75 86     	stx	$8675                   ; 0x8675 <dials+0x31>
    4eb1: 9c 76 86     	stz	$8676                   ; 0x8676 <dials+0x32>
    4eb4: 9c 77 86     	stz	$8677                   ; 0x8677 <dials+0x33>
    4eb7: 8c 78 86     	sty	$8678                   ; 0x8678 <dials+0x34>
    4eba: 9c 79 86     	stz	$8679                   ; 0x8679 <dials+0x35>
    4ebd: 9c 7a 86     	stz	$867a                   ; 0x867a <dials+0x36>
    4ec0: 9c 7b 86     	stz	$867b                   ; 0x867b <dials+0x37>
    4ec3: 9c 7c 86     	stz	$867c                   ; 0x867c <dials+0x38>
    4ec6: 8d 7d 86     	sta	$867d                   ; 0x867d <dials+0x39>
    4ec9: a5 cf        	lda	$cf                     ; 0x20cf <f256main+0x17a1>
    4ecb: a6 d0        	ldx	$d0                     ; 0x20d0 <f256main+0x17a2>
    4ecd: 85 12        	sta	$12                     ; 0x2012 <f256main+0x16e4>
    4ecf: 86 13        	stx	$13                     ; 0x2013 <f256main+0x16e5>
    4ed1: 18           	clc
    4ed2: 69 04        	adc	#$4
    4ed4: 85 14        	sta	$14                     ; 0x2014 <f256main+0x16e6>
    4ed6: 8a           	txa
    4ed7: 69 00        	adc	#$0
    4ed9: 85 15        	sta	$15                     ; 0x2015 <f256main+0x16e7>
    4edb: a0 04        	ldy	#$4
    4edd: b1 12        	lda	($12),y                 ; 0x2012 <f256main+0x16e4>
    4edf: 85 12        	sta	$12                     ; 0x2012 <f256main+0x16e4>
    4ee1: a2 04        	ldx	#$4
    4ee3: a0 01        	ldy	#$1
    4ee5: b1 14        	lda	($14),y                 ; 0x2014 <f256main+0x16e6>
    4ee7: 85 13        	sta	$13                     ; 0x2013 <f256main+0x16e5>
    4ee9: c8           	iny
    4eea: b1 12        	lda	($12),y                 ; 0x2012 <f256main+0x16e4>
    4eec: 85 14        	sta	$14                     ; 0x2014 <f256main+0x16e6>
    4eee: 88           	dey
    4eef: b1 12        	lda	($12),y                 ; 0x2012 <f256main+0x16e4>
    4ef1: a8           	tay
    4ef2: a5 14        	lda	$14                     ; 0x2014 <f256main+0x16e6>
    4ef4: 0a           	asl
    4ef5: 0a           	asl
    4ef6: 0a           	asl
    4ef7: 0a           	asl
    4ef8: 85 12        	sta	$12                     ; 0x2012 <f256main+0x16e4>
    4efa: 98           	tya
    4efb: 4a           	lsr
    4efc: 4a           	lsr
    4efd: 4a           	lsr
    4efe: 4a           	lsr
    4eff: 05 12        	ora	$12                     ; 0x2012 <f256main+0x16e4>
    4f01: 8d 83 86     	sta	$8683                   ; 0x8683 <dials+0x3f>
    4f04: 9c 84 86     	stz	$8684                   ; 0x8684 <dials+0x40>
    4f07: a0 ff        	ldy	#$ff
    4f09: 8c 85 86     	sty	$8685                   ; 0x8685 <dials+0x41>
    4f0c: 9c 86 86     	stz	$8686                   ; 0x8686 <dials+0x42>
    4f0f: 9c 87 86     	stz	$8687                   ; 0x8687 <dials+0x43>
    4f12: 9c 88 86     	stz	$8688                   ; 0x8688 <dials+0x44>
    4f15: 9c 89 86     	stz	$8689                   ; 0x8689 <dials+0x45>
    4f18: 9c 8a 86     	stz	$868a                   ; 0x868a <dials+0x46>
    4f1b: 9c 8b 86     	stz	$868b                   ; 0x868b <dials+0x47>
    4f1e: a0 f0        	ldy	#$f0
    4f20: 8c 7f 86     	sty	$867f                   ; 0x867f <dials+0x3b>
    4f23: 8e 81 86     	stx	$8681                   ; 0x8681 <dials+0x3d>
    4f26: a2 0f        	ldx	#$f
    4f28: 8e 80 86     	stx	$8680                   ; 0x8680 <dials+0x3c>
    4f2b: 9c 82 86     	stz	$8682                   ; 0x8682 <dials+0x3e>
    4f2e: a2 44        	ldx	#$44
    4f30: 86 12        	stx	$12                     ; 0x2012 <f256main+0x16e4>
    4f32: a2 86        	ldx	#$86
    4f34: 86 13        	stx	$13                     ; 0x2013 <f256main+0x16e5>
    4f36: 20 a9 61     	jsr	$61a9 <updateDial>
    4f39: a2 81        	ldx	#$81
    4f3b: 8e 8d 86     	stx	$868d                   ; 0x868d <dials+0x49>
    4f3e: a2 5d        	ldx	#$5d
    4f40: 8e 8f 86     	stx	$868f                   ; 0x868f <dials+0x4b>
    4f43: a2 25        	ldx	#$25
    4f45: 8e 9e 86     	stx	$869e                   ; 0x869e <dials+0x5a>
    4f48: a5 cf        	lda	$cf                     ; 0x20cf <f256main+0x17a1>
    4f4a: a6 d0        	ldx	$d0                     ; 0x20d0 <f256main+0x17a2>
    4f4c: 85 12        	sta	$12                     ; 0x2012 <f256main+0x16e4>
    4f4e: 86 13        	stx	$13                     ; 0x2013 <f256main+0x16e5>
    4f50: 18           	clc
    4f51: 69 04        	adc	#$4
    4f53: 85 14        	sta	$14                     ; 0x2014 <f256main+0x16e6>
    4f55: 8a           	txa
    4f56: 69 00        	adc	#$0
    4f58: 9c ad 86     	stz	$86ad                   ; 0x86ad <dials+0x69>
    4f5b: 9c ae 86     	stz	$86ae                   ; 0x86ae <dials+0x6a>
    4f5e: 9c af 86     	stz	$86af                   ; 0x86af <dials+0x6b>
    4f61: 9c b0 86     	stz	$86b0                   ; 0x86b0 <dials+0x6c>
    4f64: 85 15        	sta	$15                     ; 0x2015 <f256main+0x16e7>
    4f66: a0 04        	ldy	#$4
    4f68: b1 12        	lda	($12),y                 ; 0x2012 <f256main+0x16e4>
    4f6a: 85 12        	sta	$12                     ; 0x2012 <f256main+0x16e4>
    4f6c: a0 01        	ldy	#$1
    4f6e: b1 14        	lda	($14),y                 ; 0x2014 <f256main+0x16e6>
    4f70: 85 13        	sta	$13                     ; 0x2013 <f256main+0x16e5>
    4f72: a9 0f        	lda	#$f
    4f74: 31 12        	and	($12),y                 ; 0x2012 <f256main+0x16e4>
    4f76: 8d cb 86     	sta	$86cb                   ; 0x86cb <dials+0x87>
    4f79: a2 12        	ldx	#$12
    4f7b: 8e 8c 86     	stx	$868c                   ; 0x868c <dials+0x48>
    4f7e: 9c 8e 86     	stz	$868e                   ; 0x868e <dials+0x4a>
    4f81: 9c 90 86     	stz	$8690                   ; 0x8690 <dials+0x4c>
    4f84: 9c 91 86     	stz	$8691                   ; 0x8691 <dials+0x4d>
    4f87: 9c 92 86     	stz	$8692                   ; 0x8692 <dials+0x4e>
    4f8a: 9c 93 86     	stz	$8693                   ; 0x8693 <dials+0x4f>
    4f8d: 9c 94 86     	stz	$8694                   ; 0x8694 <dials+0x50>
    4f90: a2 20        	ldx	#$20
    4f92: 8e 95 86     	stx	$8695                   ; 0x8695 <dials+0x51>
    4f95: 8c 96 86     	sty	$8696                   ; 0x8696 <dials+0x52>
    4f98: 9c 97 86     	stz	$8697                   ; 0x8697 <dials+0x53>
    4f9b: 8c 98 86     	sty	$8698                   ; 0x8698 <dials+0x54>
    4f9e: a0 10        	ldy	#$10
    4fa0: 8c 99 86     	sty	$8699                   ; 0x8699 <dials+0x55>
    4fa3: 9c 9a 86     	stz	$869a                   ; 0x869a <dials+0x56>
    4fa6: a2 0d        	ldx	#$d
    4fa8: 8e 9b 86     	stx	$869b                   ; 0x869b <dials+0x57>
    4fab: 9c 9c 86     	stz	$869c                   ; 0x869c <dials+0x58>
    4fae: 8e 9d 86     	stx	$869d                   ; 0x869d <dials+0x59>
    4fb1: a9 ff        	lda	#$ff
    4fb3: 8d 9f 86     	sta	$869f                   ; 0x869f <dials+0x5b>
    4fb6: a2 06        	ldx	#$6
    4fb8: 8e a0 86     	stx	$86a0                   ; 0x86a0 <dials+0x5c>
    4fbb: 9c a1 86     	stz	$86a1                   ; 0x86a1 <dials+0x5d>
    4fbe: ca           	dex
    4fbf: 8e a2 86     	stx	$86a2                   ; 0x86a2 <dials+0x5e>
    4fc2: 9c a3 86     	stz	$86a3                   ; 0x86a3 <dials+0x5f>
    4fc5: 9c a4 86     	stz	$86a4                   ; 0x86a4 <dials+0x60>
    4fc8: 9c a5 86     	stz	$86a5                   ; 0x86a5 <dials+0x61>
    4fcb: 9c a6 86     	stz	$86a6                   ; 0x86a6 <dials+0x62>
    4fce: 9c a7 86     	stz	$86a7                   ; 0x86a7 <dials+0x63>
    4fd1: a2 54        	ldx	#$54
    4fd3: 8e a8 86     	stx	$86a8                   ; 0x86a8 <dials+0x64>
    4fd6: a2 01        	ldx	#$1
    4fd8: 8e a9 86     	stx	$86a9                   ; 0x86a9 <dials+0x65>
    4fdb: 9c aa 86     	stz	$86aa                   ; 0x86aa <dials+0x66>
    4fde: 9c ab 86     	stz	$86ab                   ; 0x86ab <dials+0x67>
    4fe1: 8c ac 86     	sty	$86ac                   ; 0x86ac <dials+0x68>
    4fe4: 8d b1 86     	sta	$86b1                   ; 0x86b1 <dials+0x6d>
    4fe7: 9c cc 86     	stz	$86cc                   ; 0x86cc <dials+0x88>
    4fea: a2 0f        	ldx	#$f
    4fec: 8e cd 86     	stx	$86cd                   ; 0x86cd <dials+0x89>
    4fef: 9c ce 86     	stz	$86ce                   ; 0x86ce <dials+0x8a>
    4ff2: 9c cf 86     	stz	$86cf                   ; 0x86cf <dials+0x8b>
    4ff5: 9c d0 86     	stz	$86d0                   ; 0x86d0 <dials+0x8c>
    4ff8: 9c d1 86     	stz	$86d1                   ; 0x86d1 <dials+0x8d>
    4ffb: 9c d2 86     	stz	$86d2                   ; 0x86d2 <dials+0x8e>
    4ffe: 9c d3 86     	stz	$86d3                   ; 0x86d3 <dials+0x8f>
    5001: 8e c7 86     	stx	$86c7                   ; 0x86c7 <dials+0x83>
    5004: 9c c9 86     	stz	$86c9                   ; 0x86c9 <dials+0x85>
    5007: 9c c8 86     	stz	$86c8                   ; 0x86c8 <dials+0x84>
    500a: 9c ca 86     	stz	$86ca                   ; 0x86ca <dials+0x86>
    500d: a2 8c        	ldx	#$8c
    500f: 86 12        	stx	$12                     ; 0x2012 <f256main+0x16e4>
    5011: a2 86        	ldx	#$86
    5013: 86 13        	stx	$13                     ; 0x2013 <f256main+0x16e5>
    5015: 20 a9 61     	jsr	$61a9 <updateDial>
    5018: a0 ff        	ldy	#$ff
    501a: 8c b0 83     	sty	$83b0                   ; 0x83b0 <lights>
    501d: a2 03        	ldx	#$3
    501f: 8e b1 83     	stx	$83b1                   ; 0x83b1 <lights+0x1>
    5022: 9c b2 83     	stz	$83b2                   ; 0x83b2 <lights+0x2>
    5025: a2 0e        	ldx	#$e
    5027: 8e b3 83     	stx	$83b3                   ; 0x83b3 <lights+0x3>
    502a: 9c b4 83     	stz	$83b4                   ; 0x83b4 <lights+0x4>
    502d: 9c b5 83     	stz	$83b5                   ; 0x83b5 <lights+0x5>
    5030: 9c b6 83     	stz	$83b6                   ; 0x83b6 <lights+0x6>
    5033: 9c b7 83     	stz	$83b7                   ; 0x83b7 <lights+0x7>
    5036: a2 3a        	ldx	#$3a
    5038: 8e b8 83     	stx	$83b8                   ; 0x83b8 <lights+0x8>
    503b: 9c b9 83     	stz	$83b9                   ; 0x83b9 <lights+0x9>
    503e: a2 01        	ldx	#$1
    5040: 8e ba 83     	stx	$83ba                   ; 0x83ba <lights+0xa>
    5043: 9c bb 83     	stz	$83bb                   ; 0x83bb <lights+0xb>
    5046: 9c bc 83     	stz	$83bc                   ; 0x83bc <lights+0xc>
    5049: a2 10        	ldx	#$10
    504b: 8e bd 83     	stx	$83bd                   ; 0x83bd <lights+0xd>
    504e: 9c be 83     	stz	$83be                   ; 0x83be <lights+0xe>
    5051: 9c bf 83     	stz	$83bf                   ; 0x83bf <lights+0xf>
    5054: 9c c0 83     	stz	$83c0                   ; 0x83c0 <lights+0x10>
    5057: 9c c1 83     	stz	$83c1                   ; 0x83c1 <lights+0x11>
    505a: 8c c2 83     	sty	$83c2                   ; 0x83c2 <lights+0x12>
    505d: a2 ff        	ldx	#$ff
    505f: 9c c3 83     	stz	$83c3                   ; 0x83c3 <lights+0x13>
    5062: a4 0f        	ldy	$f                      ; 0x200f <f256main+0x16e1>
    5064: 78           	sei
    5065: a9 08        	lda	#$8
    5067: 85 0f        	sta	$f                      ; 0x200f <f256main+0x16e1>
    5069: 9c 36 e2     	stz	$e236                   ; 0xe236 <end_block9+0x5a0c>
    506c: 9c 37 e2     	stz	$e237                   ; 0xe237 <end_block9+0x5a0d>
    506f: 84 0f        	sty	$f                      ; 0x200f <f256main+0x16e1>
    5071: 58           	cli
    5072: 8e c4 83     	stx	$83c4                   ; 0x83c4 <lights+0x14>
    5075: a0 04        	ldy	#$4
    5077: 8c c5 83     	sty	$83c5                   ; 0x83c5 <lights+0x15>
    507a: 9c c6 83     	stz	$83c6                   ; 0x83c6 <lights+0x16>
    507d: a0 0e        	ldy	#$e
    507f: 8c c7 83     	sty	$83c7                   ; 0x83c7 <lights+0x17>
    5082: 9c c8 83     	stz	$83c8                   ; 0x83c8 <lights+0x18>
    5085: 9c c9 83     	stz	$83c9                   ; 0x83c9 <lights+0x19>
    5088: 9c ca 83     	stz	$83ca                   ; 0x83ca <lights+0x1a>
    508b: 9c cb 83     	stz	$83cb                   ; 0x83cb <lights+0x1b>
    508e: a0 3a        	ldy	#$3a
    5090: 8c cc 83     	sty	$83cc                   ; 0x83cc <lights+0x1c>
    5093: 9c cd 83     	stz	$83cd                   ; 0x83cd <lights+0x1d>
    5096: a0 01        	ldy	#$1
    5098: 8c ce 83     	sty	$83ce                   ; 0x83ce <lights+0x1e>
    509b: 9c cf 83     	stz	$83cf                   ; 0x83cf <lights+0x1f>
    509e: 8c d0 83     	sty	$83d0                   ; 0x83d0 <lights+0x20>
    50a1: a0 10        	ldy	#$10
    50a3: 8c d1 83     	sty	$83d1                   ; 0x83d1 <lights+0x21>
    50a6: 9c d2 83     	stz	$83d2                   ; 0x83d2 <lights+0x22>
    50a9: 9c d3 83     	stz	$83d3                   ; 0x83d3 <lights+0x23>
    50ac: 9c d4 83     	stz	$83d4                   ; 0x83d4 <lights+0x24>
    50af: 9c d5 83     	stz	$83d5                   ; 0x83d5 <lights+0x25>
    50b2: 8e d6 83     	stx	$83d6                   ; 0x83d6 <lights+0x26>
    50b5: 9c d7 83     	stz	$83d7                   ; 0x83d7 <lights+0x27>
    50b8: a4 0f        	ldy	$f                      ; 0x200f <f256main+0x16e1>
    50ba: 78           	sei
    50bb: 85 0f        	sta	$f                      ; 0x200f <f256main+0x16e1>
    50bd: 9c 38 e2     	stz	$e238                   ; 0xe238 <end_block9+0x5a0e>
    50c0: 9c 39 e2     	stz	$e239                   ; 0xe239 <end_block9+0x5a0f>
    50c3: 84 0f        	sty	$f                      ; 0x200f <f256main+0x16e1>
    50c5: 58           	cli
    50c6: 8e d8 83     	stx	$83d8                   ; 0x83d8 <lights+0x28>
    50c9: a0 05        	ldy	#$5
    50cb: 8c d9 83     	sty	$83d9                   ; 0x83d9 <lights+0x29>
    50ce: 9c da 83     	stz	$83da                   ; 0x83da <lights+0x2a>
    50d1: a0 0e        	ldy	#$e
    50d3: 8c db 83     	sty	$83db                   ; 0x83db <lights+0x2b>
    50d6: 9c dc 83     	stz	$83dc                   ; 0x83dc <lights+0x2c>
    50d9: 9c dd 83     	stz	$83dd                   ; 0x83dd <lights+0x2d>
    50dc: 9c de 83     	stz	$83de                   ; 0x83de <lights+0x2e>
    50df: 9c df 83     	stz	$83df                   ; 0x83df <lights+0x2f>
    50e2: a0 3a        	ldy	#$3a
    50e4: 8c e0 83     	sty	$83e0                   ; 0x83e0 <lights+0x30>
    50e7: 9c e1 83     	stz	$83e1                   ; 0x83e1 <lights+0x31>
    50ea: a0 01        	ldy	#$1
    50ec: 8c e2 83     	sty	$83e2                   ; 0x83e2 <lights+0x32>
    50ef: 9c e3 83     	stz	$83e3                   ; 0x83e3 <lights+0x33>
    50f2: c8           	iny
    50f3: 8c e4 83     	sty	$83e4                   ; 0x83e4 <lights+0x34>
    50f6: a0 10        	ldy	#$10
    50f8: 8c e5 83     	sty	$83e5                   ; 0x83e5 <lights+0x35>
    50fb: 9c e6 83     	stz	$83e6                   ; 0x83e6 <lights+0x36>
    50fe: 9c e7 83     	stz	$83e7                   ; 0x83e7 <lights+0x37>
    5101: 9c e8 83     	stz	$83e8                   ; 0x83e8 <lights+0x38>
    5104: 9c e9 83     	stz	$83e9                   ; 0x83e9 <lights+0x39>
    5107: 8e ea 83     	stx	$83ea                   ; 0x83ea <lights+0x3a>
    510a: 9c eb 83     	stz	$83eb                   ; 0x83eb <lights+0x3b>
    510d: a4 0f        	ldy	$f                      ; 0x200f <f256main+0x16e1>
    510f: 78           	sei
    5110: 85 0f        	sta	$f                      ; 0x200f <f256main+0x16e1>
    5112: 9c 3a e2     	stz	$e23a                   ; 0xe23a <end_block9+0x5a10>
    5115: 9c 3b e2     	stz	$e23b                   ; 0xe23b <end_block9+0x5a11>
    5118: 84 0f        	sty	$f                      ; 0x200f <f256main+0x16e1>
    511a: 58           	cli
    511b: 8e ec 83     	stx	$83ec                   ; 0x83ec <lights+0x3c>
    511e: a0 06        	ldy	#$6
    5120: 8c ed 83     	sty	$83ed                   ; 0x83ed <lights+0x3d>
    5123: 9c ee 83     	stz	$83ee                   ; 0x83ee <lights+0x3e>
    5126: a0 0e        	ldy	#$e
    5128: 8c ef 83     	sty	$83ef                   ; 0x83ef <lights+0x3f>
    512b: 9c f0 83     	stz	$83f0                   ; 0x83f0 <lights+0x40>
    512e: 9c f1 83     	stz	$83f1                   ; 0x83f1 <lights+0x41>
    5131: 9c f2 83     	stz	$83f2                   ; 0x83f2 <lights+0x42>
    5134: 9c f3 83     	stz	$83f3                   ; 0x83f3 <lights+0x43>
    5137: a0 3a        	ldy	#$3a
    5139: 8c f4 83     	sty	$83f4                   ; 0x83f4 <lights+0x44>
    513c: 9c f5 83     	stz	$83f5                   ; 0x83f5 <lights+0x45>
    513f: a0 01        	ldy	#$1
    5141: 8c f6 83     	sty	$83f6                   ; 0x83f6 <lights+0x46>
    5144: 9c f7 83     	stz	$83f7                   ; 0x83f7 <lights+0x47>
    5147: a0 03        	ldy	#$3
    5149: 8c f8 83     	sty	$83f8                   ; 0x83f8 <lights+0x48>
    514c: a0 10        	ldy	#$10
    514e: 8c f9 83     	sty	$83f9                   ; 0x83f9 <lights+0x49>
    5151: 9c fa 83     	stz	$83fa                   ; 0x83fa <lights+0x4a>
    5154: 9c fb 83     	stz	$83fb                   ; 0x83fb <lights+0x4b>
    5157: 9c fc 83     	stz	$83fc                   ; 0x83fc <lights+0x4c>
    515a: 9c fd 83     	stz	$83fd                   ; 0x83fd <lights+0x4d>
    515d: 8e fe 83     	stx	$83fe                   ; 0x83fe <lights+0x4e>
    5160: 9c ff 83     	stz	$83ff                   ; 0x83ff <lights+0x4f>
    5163: a4 0f        	ldy	$f                      ; 0x200f <f256main+0x16e1>
    5165: 78           	sei
    5166: 85 0f        	sta	$f                      ; 0x200f <f256main+0x16e1>
    5168: 9c 3c e2     	stz	$e23c                   ; 0xe23c <end_block9+0x5a12>
    516b: 9c 3d e2     	stz	$e23d                   ; 0xe23d <end_block9+0x5a13>
    516e: 84 0f        	sty	$f                      ; 0x200f <f256main+0x16e1>
    5170: 58           	cli
    5171: 8e 00 84     	stx	$8400                   ; 0x8400 <lights+0x50>
    5174: a2 07        	ldx	#$7
    5176: 8e 01 84     	stx	$8401                   ; 0x8401 <lights+0x51>
    5179: 9c 02 84     	stz	$8402                   ; 0x8402 <lights+0x52>
    517c: a2 0e        	ldx	#$e
    517e: 8e 03 84     	stx	$8403                   ; 0x8403 <lights+0x53>
    5181: 9c 04 84     	stz	$8404                   ; 0x8404 <lights+0x54>
    5184: 9c 05 84     	stz	$8405                   ; 0x8405 <lights+0x55>
    5187: 9c 06 84     	stz	$8406                   ; 0x8406 <lights+0x56>
    518a: 9c 07 84     	stz	$8407                   ; 0x8407 <lights+0x57>
    518d: a2 3a        	ldx	#$3a
    518f: 8e 08 84     	stx	$8408                   ; 0x8408 <lights+0x58>
    5192: 9c 09 84     	stz	$8409                   ; 0x8409 <lights+0x59>
    5195: a2 01        	ldx	#$1
    5197: 8e 0a 84     	stx	$840a                   ; 0x840a <lights+0x5a>
    519a: 9c 0b 84     	stz	$840b                   ; 0x840b <lights+0x5b>
    519d: a0 04        	ldy	#$4
    519f: 8c 0c 84     	sty	$840c                   ; 0x840c <lights+0x5c>
    51a2: a2 10        	ldx	#$10
    51a4: 8e 0d 84     	stx	$840d                   ; 0x840d <lights+0x5d>
    51a7: 9c 0e 84     	stz	$840e                   ; 0x840e <lights+0x5e>
    51aa: 9c 0f 84     	stz	$840f                   ; 0x840f <lights+0x5f>
    51ad: 9c 10 84     	stz	$8410                   ; 0x8410 <lights+0x60>
    51b0: 9c 11 84     	stz	$8411                   ; 0x8411 <lights+0x61>
    51b3: a2 ff        	ldx	#$ff
    51b5: 8e 12 84     	stx	$8412                   ; 0x8412 <lights+0x62>
    51b8: 9c 13 84     	stz	$8413                   ; 0x8413 <lights+0x63>
    51bb: a4 0f        	ldy	$f                      ; 0x200f <f256main+0x16e1>
    51bd: 78           	sei
    51be: 85 0f        	sta	$f                      ; 0x200f <f256main+0x16e1>
    51c0: 9c 3e e2     	stz	$e23e                   ; 0xe23e <end_block9+0x5a14>
    51c3: 9c 3f e2     	stz	$e23f                   ; 0xe23f <end_block9+0x5a15>
    51c6: 84 0f        	sty	$f                      ; 0x200f <f256main+0x16e1>
    51c8: 58           	cli
    51c9: 8e 14 84     	stx	$8414                   ; 0x8414 <lights+0x64>
    51cc: 8d 15 84     	sta	$8415                   ; 0x8415 <lights+0x65>
    51cf: 9c 16 84     	stz	$8416                   ; 0x8416 <lights+0x66>
    51d2: a2 0e        	ldx	#$e
    51d4: 8e 17 84     	stx	$8417                   ; 0x8417 <lights+0x67>
    51d7: 9c 18 84     	stz	$8418                   ; 0x8418 <lights+0x68>
    51da: 9c 19 84     	stz	$8419                   ; 0x8419 <lights+0x69>
    51dd: 9c 1a 84     	stz	$841a                   ; 0x841a <lights+0x6a>
    51e0: 9c 1b 84     	stz	$841b                   ; 0x841b <lights+0x6b>
    51e3: a2 3a        	ldx	#$3a
    51e5: 8e 1c 84     	stx	$841c                   ; 0x841c <lights+0x6c>
    51e8: 9c 1d 84     	stz	$841d                   ; 0x841d <lights+0x6d>
    51eb: a2 01        	ldx	#$1
    51ed: 8e 1e 84     	stx	$841e                   ; 0x841e <lights+0x6e>
    51f0: 9c 1f 84     	stz	$841f                   ; 0x841f <lights+0x6f>
    51f3: a2 05        	ldx	#$5
    51f5: 8e 20 84     	stx	$8420                   ; 0x8420 <lights+0x70>
    51f8: a0 10        	ldy	#$10
    51fa: 8c 21 84     	sty	$8421                   ; 0x8421 <lights+0x71>
    51fd: 9c 22 84     	stz	$8422                   ; 0x8422 <lights+0x72>
    5200: 9c 23 84     	stz	$8423                   ; 0x8423 <lights+0x73>
    5203: 9c 24 84     	stz	$8424                   ; 0x8424 <lights+0x74>
    5206: 9c 25 84     	stz	$8425                   ; 0x8425 <lights+0x75>
    5209: a2 ff        	ldx	#$ff
    520b: 8e 26 84     	stx	$8426                   ; 0x8426 <lights+0x76>
    520e: 9c 27 84     	stz	$8427                   ; 0x8427 <lights+0x77>
    5211: a6 0f        	ldx	$f                      ; 0x200f <f256main+0x16e1>
    5213: 78           	sei
    5214: 85 0f        	sta	$f                      ; 0x200f <f256main+0x16e1>
    5216: 9c 40 e2     	stz	$e240                   ; 0xe240 <end_block9+0x5a16>
    5219: 9c 41 e2     	stz	$e241                   ; 0xe241 <end_block9+0x5a17>
    521c: 86 0f        	stx	$f                      ; 0x200f <f256main+0x16e1>
    521e: 58           	cli
    521f: a2 13        	ldx	#$13
    5221: 8e 1d 83     	stx	$831d                   ; 0x831d <radios+0xa8>
    5224: a2 d5        	ldx	#$d5
    5226: 8e 1e 83     	stx	$831e                   ; 0x831e <radios+0xa9>
    5229: 9c 1f 83     	stz	$831f                   ; 0x831f <radios+0xaa>
    522c: a2 83        	ldx	#$83
    522e: 8e 20 83     	stx	$8320                   ; 0x8320 <radios+0xab>
    5231: 9c 21 83     	stz	$8321                   ; 0x8321 <radios+0xac>
    5234: 9c 22 83     	stz	$8322                   ; 0x8322 <radios+0xad>
    5237: 9c 23 83     	stz	$8323                   ; 0x8323 <radios+0xae>
    523a: 9c 24 83     	stz	$8324                   ; 0x8324 <radios+0xaf>
    523d: 9c 25 83     	stz	$8325                   ; 0x8325 <radios+0xb0>
    5240: a9 38        	lda	#$38
    5242: 8d 26 83     	sta	$8326                   ; 0x8326 <radios+0xb1>
    5245: a2 01        	ldx	#$1
    5247: 8e 27 83     	stx	$8327                   ; 0x8327 <radios+0xb2>
    524a: 9c 28 83     	stz	$8328                   ; 0x8328 <radios+0xb3>
    524d: a2 08        	ldx	#$8
    524f: 8e 29 83     	stx	$8329                   ; 0x8329 <radios+0xb4>
    5252: 8c 2a 83     	sty	$832a                   ; 0x832a <radios+0xb5>
    5255: 9c 2b 83     	stz	$832b                   ; 0x832b <radios+0xb6>
    5258: a2 0d        	ldx	#$d
    525a: 8e 2c 83     	stx	$832c                   ; 0x832c <radios+0xb7>
    525d: a2 04        	ldx	#$4
    525f: 8e 2d 83     	stx	$832d                   ; 0x832d <radios+0xb8>
    5262: a2 0b        	ldx	#$b
    5264: 8e 2e 83     	stx	$832e                   ; 0x832e <radios+0xb9>
    5267: a2 29        	ldx	#$29
    5269: 8e 2f 83     	stx	$832f                   ; 0x832f <radios+0xba>
    526c: 9c 30 83     	stz	$8330                   ; 0x8330 <radios+0xbb>
    526f: a2 ff        	ldx	#$ff
    5271: 8e 31 83     	stx	$8331                   ; 0x8331 <radios+0xbc>
    5274: a2 40        	ldx	#$40
    5276: 8e 48 82     	stx	$8248                   ; 0x8248 <_spriteCtl+0x13>
    5279: 8e 98 d9     	stx	$d998                   ; 0xd998 <end_block9+0x516e>
    527c: 9c 99 d9     	stz	$d999                   ; 0xd999 <end_block9+0x516f>
    527f: 8d 9a d9     	sta	$d99a                   ; 0xd99a <end_block9+0x5170>
    5282: a2 01        	ldx	#$1
    5284: 8e 9b d9     	stx	$d99b                   ; 0xd99b <end_block9+0x5171>
    5287: ae 1d 83     	ldx	$831d                   ; 0x831d <radios+0xa8>
    528a: 8a           	txa
    528b: 0a           	asl
    528c: 85 12        	sta	$12                     ; 0x2012 <f256main+0x16e4>
    528e: 64 15        	stz	$15                     ; 0x2015 <f256main+0x16e7>
    5290: 26 15        	rol	$15                     ; 0x2015 <f256main+0x16e7>
    5292: 06 12        	asl	$12                     ; 0x2012 <f256main+0x16e4>
    5294: 26 15        	rol	$15                     ; 0x2015 <f256main+0x16e7>
    5296: 06 12        	asl	$12                     ; 0x2012 <f256main+0x16e4>
    5298: a4 12        	ldy	$12                     ; 0x2012 <f256main+0x16e4>
    529a: 84 14        	sty	$14                     ; 0x2014 <f256main+0x16e6>
    529c: 26 15        	rol	$15                     ; 0x2015 <f256main+0x16e7>
    529e: 18           	clc
    529f: a5 12        	lda	$12                     ; 0x2012 <f256main+0x16e4>
    52a1: 69 04        	adc	#$4
    52a3: 85 12        	sta	$12                     ; 0x2012 <f256main+0x16e4>
    52a5: a5 15        	lda	$15                     ; 0x2015 <f256main+0x16e7>
    52a7: 69 d9        	adc	#$d9
    52a9: 85 13        	sta	$13                     ; 0x2013 <f256main+0x16e5>
    52ab: ad 1e 83     	lda	$831e                   ; 0x831e <radios+0xa9>
    52ae: ac 1f 83     	ldy	$831f                   ; 0x831f <radios+0xaa>
    52b1: 84 18        	sty	$18                     ; 0x2018 <f256main+0x16ea>
    52b3: ac 20 83     	ldy	$8320                   ; 0x8320 <radios+0xab>
    52b6: 84 17        	sty	$17                     ; 0x2017 <f256main+0x16e9>
    52b8: ac 21 83     	ldy	$8321                   ; 0x8321 <radios+0xac>
    52bb: 84 16        	sty	$16                     ; 0x2016 <f256main+0x16e8>
    52bd: 92 12        	sta	($12)                   ; 0x2012 <f256main+0x16e4>
    52bf: a0 01        	ldy	#$1
    52c1: a5 18        	lda	$18                     ; 0x2018 <f256main+0x16ea>
    52c3: 91 12        	sta	($12),y                 ; 0x2012 <f256main+0x16e4>
    52c5: 18           	clc
    52c6: a5 14        	lda	$14                     ; 0x2014 <f256main+0x16e6>
    52c8: 69 06        	adc	#$6
    52ca: 85 12        	sta	$12                     ; 0x2012 <f256main+0x16e4>
    52cc: a5 15        	lda	$15                     ; 0x2015 <f256main+0x16e7>
    52ce: 69 d9        	adc	#$d9
    52d0: 85 13        	sta	$13                     ; 0x2013 <f256main+0x16e5>
    52d2: a5 17        	lda	$17                     ; 0x2017 <f256main+0x16e9>
    52d4: 92 12        	sta	($12)                   ; 0x2012 <f256main+0x16e4>
    52d6: a5 16        	lda	$16                     ; 0x2016 <f256main+0x16e8>
    52d8: 91 12        	sta	($12),y                 ; 0x2012 <f256main+0x16e4>
    52da: a5 24        	lda	$24                     ; 0x2024 <f256main+0x16f6>
    52dc: 1d 35 82     	ora	$8235,x                 ; 0x8235 <_spriteCtl>
    52df: aa           	tax
    52e0: 18           	clc
    52e1: a5 14        	lda	$14                     ; 0x2014 <f256main+0x16e6>
    52e3: 69 00        	adc	#$0
    52e5: 85 12        	sta	$12                     ; 0x2012 <f256main+0x16e4>
    52e7: a5 15        	lda	$15                     ; 0x2015 <f256main+0x16e7>
    52e9: 69 d9        	adc	#$d9
    52eb: 85 13        	sta	$13                     ; 0x2013 <f256main+0x16e5>
    52ed: 8a           	txa
    52ee: 92 12        	sta	($12)                   ; 0x2012 <f256main+0x16e4>
    52f0: a2 02        	ldx	#$2
    52f2: 8e e0 86     	stx	$86e0                   ; 0x86e0 <dials+0x9c>
    52f5: a6 cf        	ldx	$cf                     ; 0x20cf <f256main+0x17a1>
    52f7: a4 d0        	ldy	$d0                     ; 0x20d0 <f256main+0x17a2>
    52f9: 86 12        	stx	$12                     ; 0x2012 <f256main+0x16e4>
    52fb: 84 13        	sty	$13                     ; 0x2013 <f256main+0x16e5>
    52fd: 18           	clc
    52fe: 8a           	txa
    52ff: 69 04        	adc	#$4
    5301: 85 14        	sta	$14                     ; 0x2014 <f256main+0x16e6>
    5303: 98           	tya
    5304: 69 00        	adc	#$0
    5306: 85 15        	sta	$15                     ; 0x2015 <f256main+0x16e7>
    5308: 9c f5 86     	stz	$86f5                   ; 0x86f5 <dials+0xb1>
    530b: 9c f6 86     	stz	$86f6                   ; 0x86f6 <dials+0xb2>
    530e: 9c f7 86     	stz	$86f7                   ; 0x86f7 <dials+0xb3>
    5311: 9c f8 86     	stz	$86f8                   ; 0x86f8 <dials+0xb4>
    5314: 9c 09 87     	stz	$8709                   ; 0x8709 <dials+0xc5>
    5317: 9c 0a 87     	stz	$870a                   ; 0x870a <dials+0xc6>
    531a: 9c 0b 87     	stz	$870b                   ; 0x870b <dials+0xc7>
    531d: 9c 0c 87     	stz	$870c                   ; 0x870c <dials+0xc8>
    5320: a0 04        	ldy	#$4
    5322: b1 12        	lda	($12),y                 ; 0x2012 <f256main+0x16e4>
    5324: 85 12        	sta	$12                     ; 0x2012 <f256main+0x16e4>
    5326: a0 01        	ldy	#$1
    5328: b1 14        	lda	($14),y                 ; 0x2014 <f256main+0x16e6>
    532a: 85 13        	sta	$13                     ; 0x2013 <f256main+0x16e5>
    532c: a0 07        	ldy	#$7
    532e: b1 12        	lda	($12),y                 ; 0x2012 <f256main+0x16e4>
    5330: 85 14        	sta	$14                     ; 0x2014 <f256main+0x16e6>
    5332: a2 14        	ldx	#$14
    5334: 8e d4 86     	stx	$86d4                   ; 0x86d4 <dials+0x90>
    5337: a2 05        	ldx	#$5
    5339: 8e d5 86     	stx	$86d5                   ; 0x86d5 <dials+0x91>
    533c: a2 01        	ldx	#$1
    533e: 8e d6 86     	stx	$86d6                   ; 0x86d6 <dials+0x92>
    5341: a2 2a        	ldx	#$2a
    5343: 8e e6 86     	stx	$86e6                   ; 0x86e6 <dials+0xa2>
    5346: 88           	dey
    5347: b1 12        	lda	($12),y                 ; 0x2012 <f256main+0x16e4>
    5349: 06 14        	asl	$14                     ; 0x2014 <f256main+0x16e6>
    534b: a6 14        	ldx	$14                     ; 0x2014 <f256main+0x16e6>
    534d: 86 12        	stx	$12                     ; 0x2012 <f256main+0x16e4>
    534f: 06 12        	asl	$12                     ; 0x2012 <f256main+0x16e4>
    5351: 06 12        	asl	$12                     ; 0x2012 <f256main+0x16e4>
    5353: 06 12        	asl	$12                     ; 0x2012 <f256main+0x16e4>
    5355: 4a           	lsr
    5356: 4a           	lsr
    5357: 4a           	lsr
    5358: 4a           	lsr
    5359: 05 12        	ora	$12                     ; 0x2012 <f256main+0x16e4>
    535b: 8d 13 87     	sta	$8713                   ; 0x8713 <dials+0xcf>
    535e: a2 7f        	ldx	#$7f
    5360: 8e 15 87     	stx	$8715                   ; 0x8715 <dials+0xd1>
    5363: a2 a7        	ldx	#$a7
    5365: 8e d7 86     	stx	$86d7                   ; 0x86d7 <dials+0x93>
    5368: 9c d8 86     	stz	$86d8                   ; 0x86d8 <dials+0x94>
    536b: 9c d9 86     	stz	$86d9                   ; 0x86d9 <dials+0x95>
    536e: 9c da 86     	stz	$86da                   ; 0x86da <dials+0x96>
    5371: 9c db 86     	stz	$86db                   ; 0x86db <dials+0x97>
    5374: 9c dc 86     	stz	$86dc                   ; 0x86dc <dials+0x98>
    5377: a2 20        	ldx	#$20
    5379: 8e dd 86     	stx	$86dd                   ; 0x86dd <dials+0x99>
    537c: a2 01        	ldx	#$1
    537e: 8e de 86     	stx	$86de                   ; 0x86de <dials+0x9a>
    5381: 9c df 86     	stz	$86df                   ; 0x86df <dials+0x9b>
    5384: a2 10        	ldx	#$10
    5386: 8e e1 86     	stx	$86e1                   ; 0x86e1 <dials+0x9d>
    5389: 9c e2 86     	stz	$86e2                   ; 0x86e2 <dials+0x9e>
    538c: a2 0d        	ldx	#$d
    538e: 8e e3 86     	stx	$86e3                   ; 0x86e3 <dials+0x9f>
    5391: 9c e4 86     	stz	$86e4                   ; 0x86e4 <dials+0xa0>
    5394: 8e e5 86     	stx	$86e5                   ; 0x86e5 <dials+0xa1>
    5397: a0 ff        	ldy	#$ff
    5399: 8c e7 86     	sty	$86e7                   ; 0x86e7 <dials+0xa3>
    539c: e8           	inx
    539d: 8e e8 86     	stx	$86e8                   ; 0x86e8 <dials+0xa4>
    53a0: 9c e9 86     	stz	$86e9                   ; 0x86e9 <dials+0xa5>
    53a3: a9 0a        	lda	#$a
    53a5: 8d ea 86     	sta	$86ea                   ; 0x86ea <dials+0xa6>
    53a8: 9c eb 86     	stz	$86eb                   ; 0x86eb <dials+0xa7>
    53ab: 9c ec 86     	stz	$86ec                   ; 0x86ec <dials+0xa8>
    53ae: 9c ed 86     	stz	$86ed                   ; 0x86ed <dials+0xa9>
    53b1: 9c ee 86     	stz	$86ee                   ; 0x86ee <dials+0xaa>
    53b4: 9c ef 86     	stz	$86ef                   ; 0x86ef <dials+0xab>
    53b7: a2 54        	ldx	#$54
    53b9: 8e f0 86     	stx	$86f0                   ; 0x86f0 <dials+0xac>
    53bc: a2 01        	ldx	#$1
    53be: 8e f1 86     	stx	$86f1                   ; 0x86f1 <dials+0xad>
    53c1: 9c f2 86     	stz	$86f2                   ; 0x86f2 <dials+0xae>
    53c4: 9c f3 86     	stz	$86f3                   ; 0x86f3 <dials+0xaf>
    53c7: a2 10        	ldx	#$10
    53c9: 8e f4 86     	stx	$86f4                   ; 0x86f4 <dials+0xb0>
    53cc: 8c f9 86     	sty	$86f9                   ; 0x86f9 <dials+0xb5>
    53cf: 8c fb 86     	sty	$86fb                   ; 0x86fb <dials+0xb7>
    53d2: a0 0f        	ldy	#$f
    53d4: 8c fc 86     	sty	$86fc                   ; 0x86fc <dials+0xb8>
    53d7: 9c fd 86     	stz	$86fd                   ; 0x86fd <dials+0xb9>
    53da: 8d fe 86     	sta	$86fe                   ; 0x86fe <dials+0xba>
    53dd: 9c ff 86     	stz	$86ff                   ; 0x86ff <dials+0xbb>
    53e0: 9c 00 87     	stz	$8700                   ; 0x8700 <dials+0xbc>
    53e3: 9c 01 87     	stz	$8701                   ; 0x8701 <dials+0xbd>
    53e6: 9c 02 87     	stz	$8702                   ; 0x8702 <dials+0xbe>
    53e9: 9c 03 87     	stz	$8703                   ; 0x8703 <dials+0xbf>
    53ec: a2 54        	ldx	#$54
    53ee: 8e 04 87     	stx	$8704                   ; 0x8704 <dials+0xc0>
    53f1: a2 01        	ldx	#$1
    53f3: 8e 05 87     	stx	$8705                   ; 0x8705 <dials+0xc1>
    53f6: 9c 06 87     	stz	$8706                   ; 0x8706 <dials+0xc2>
    53f9: 9c 07 87     	stz	$8707                   ; 0x8707 <dials+0xc3>
    53fc: a2 10        	ldx	#$10
    53fe: 8e 08 87     	stx	$8708                   ; 0x8708 <dials+0xc4>
    5401: a2 ff        	ldx	#$ff
    5403: 8e 0d 87     	stx	$870d                   ; 0x870d <dials+0xc9>
    5406: 9c 14 87     	stz	$8714                   ; 0x8714 <dials+0xd0>
    5409: 9c 16 87     	stz	$8716                   ; 0x8716 <dials+0xd2>
    540c: 9c 17 87     	stz	$8717                   ; 0x8717 <dials+0xd3>
    540f: 9c 18 87     	stz	$8718                   ; 0x8718 <dials+0xd4>
    5412: 9c 19 87     	stz	$8719                   ; 0x8719 <dials+0xd5>
    5415: 9c 1a 87     	stz	$871a                   ; 0x871a <dials+0xd6>
    5418: 9c 1b 87     	stz	$871b                   ; 0x871b <dials+0xd7>
    541b: a2 f0        	ldx	#$f0
    541d: 8e 0f 87     	stx	$870f                   ; 0x870f <dials+0xcb>
    5420: a2 04        	ldx	#$4
    5422: 8e 11 87     	stx	$8711                   ; 0x8711 <dials+0xcd>
    5425: 8c 10 87     	sty	$8710                   ; 0x8710 <dials+0xcc>
    5428: 9c 12 87     	stz	$8712                   ; 0x8712 <dials+0xce>
    542b: a2 d4        	ldx	#$d4
    542d: 86 12        	stx	$12                     ; 0x2012 <f256main+0x16e4>
    542f: a2 86        	ldx	#$86
    5431: 86 13        	stx	$13                     ; 0x2013 <f256main+0x16e5>
    5433: 20 a9 61     	jsr	$61a9 <updateDial>
    5436: a2 15        	ldx	#$15
    5438: 8e 1c 87     	stx	$871c                   ; 0x871c <dials+0xd8>
    543b: a2 a7        	ldx	#$a7
    543d: 8e 1f 87     	stx	$871f                   ; 0x871f <dials+0xdb>
    5440: a2 2b        	ldx	#$2b
    5442: 8e 2e 87     	stx	$872e                   ; 0x872e <dials+0xea>
    5445: a5 cf        	lda	$cf                     ; 0x20cf <f256main+0x17a1>
    5447: a6 d0        	ldx	$d0                     ; 0x20d0 <f256main+0x17a2>
    5449: 85 12        	sta	$12                     ; 0x2012 <f256main+0x16e4>
    544b: 86 13        	stx	$13                     ; 0x2013 <f256main+0x16e5>
    544d: 18           	clc
    544e: 69 04        	adc	#$4
    5450: 85 14        	sta	$14                     ; 0x2014 <f256main+0x16e6>
    5452: 8a           	txa
    5453: 69 00        	adc	#$0
    5455: 9c 3d 87     	stz	$873d                   ; 0x873d <dials+0xf9>
    5458: 9c 3e 87     	stz	$873e                   ; 0x873e <dials+0xfa>
    545b: 9c 3f 87     	stz	$873f                   ; 0x873f <dials+0xfb>
    545e: 9c 40 87     	stz	$8740                   ; 0x8740 <dials+0xfc>
    5461: 85 15        	sta	$15                     ; 0x2015 <f256main+0x16e7>
    5463: a0 04        	ldy	#$4
    5465: b1 12        	lda	($12),y                 ; 0x2012 <f256main+0x16e4>
    5467: 85 12        	sta	$12                     ; 0x2012 <f256main+0x16e4>
    5469: a0 01        	ldy	#$1
    546b: b1 14        	lda	($14),y                 ; 0x2014 <f256main+0x16e6>
    546d: 85 13        	sta	$13                     ; 0x2013 <f256main+0x16e5>
    546f: a9 0f        	lda	#$f
    5471: a0 06        	ldy	#$6
    5473: 31 12        	and	($12),y                 ; 0x2012 <f256main+0x16e4>
    5475: 8d 5b 87     	sta	$875b                   ; 0x875b <dials+0x117>
    5478: a2 1c        	ldx	#$1c
    547a: 8e 1d 87     	stx	$871d                   ; 0x871d <dials+0xd9>
    547d: a0 01        	ldy	#$1
    547f: 8c 1e 87     	sty	$871e                   ; 0x871e <dials+0xda>
    5482: 9c 20 87     	stz	$8720                   ; 0x8720 <dials+0xdc>
    5485: 9c 21 87     	stz	$8721                   ; 0x8721 <dials+0xdd>
    5488: 9c 22 87     	stz	$8722                   ; 0x8722 <dials+0xde>
    548b: 9c 23 87     	stz	$8723                   ; 0x8723 <dials+0xdf>
    548e: 9c 24 87     	stz	$8724                   ; 0x8724 <dials+0xe0>
    5491: a2 20        	ldx	#$20
    5493: 8e 25 87     	stx	$8725                   ; 0x8725 <dials+0xe1>
    5496: 8c 26 87     	sty	$8726                   ; 0x8726 <dials+0xe2>
    5499: 9c 27 87     	stz	$8727                   ; 0x8727 <dials+0xe3>
    549c: a2 03        	ldx	#$3
    549e: 8e 28 87     	stx	$8728                   ; 0x8728 <dials+0xe4>
    54a1: a0 10        	ldy	#$10
    54a3: 8c 29 87     	sty	$8729                   ; 0x8729 <dials+0xe5>
    54a6: 9c 2a 87     	stz	$872a                   ; 0x872a <dials+0xe6>
    54a9: a2 0d        	ldx	#$d
    54ab: 8e 2b 87     	stx	$872b                   ; 0x872b <dials+0xe7>
    54ae: 9c 2c 87     	stz	$872c                   ; 0x872c <dials+0xe8>
    54b1: 8e 2d 87     	stx	$872d                   ; 0x872d <dials+0xe9>
    54b4: a9 ff        	lda	#$ff
    54b6: 8d 2f 87     	sta	$872f                   ; 0x872f <dials+0xeb>
    54b9: 8c 30 87     	sty	$8730                   ; 0x8730 <dials+0xec>
    54bc: a2 10        	ldx	#$10
    54be: 9c 31 87     	stz	$8731                   ; 0x8731 <dials+0xed>
    54c1: a0 0a        	ldy	#$a
    54c3: 8c 32 87     	sty	$8732                   ; 0x8732 <dials+0xee>
    54c6: 9c 33 87     	stz	$8733                   ; 0x8733 <dials+0xef>
    54c9: 9c 34 87     	stz	$8734                   ; 0x8734 <dials+0xf0>
    54cc: 9c 35 87     	stz	$8735                   ; 0x8735 <dials+0xf1>
    54cf: 9c 36 87     	stz	$8736                   ; 0x8736 <dials+0xf2>
    54d2: 9c 37 87     	stz	$8737                   ; 0x8737 <dials+0xf3>
    54d5: a0 54        	ldy	#$54
    54d7: 8c 38 87     	sty	$8738                   ; 0x8738 <dials+0xf4>
    54da: a0 01        	ldy	#$1
    54dc: 8c 39 87     	sty	$8739                   ; 0x8739 <dials+0xf5>
    54df: 9c 3a 87     	stz	$873a                   ; 0x873a <dials+0xf6>
    54e2: 9c 3b 87     	stz	$873b                   ; 0x873b <dials+0xf7>
    54e5: 8e 3c 87     	stx	$873c                   ; 0x873c <dials+0xf8>
    54e8: 8d 41 87     	sta	$8741                   ; 0x8741 <dials+0xfd>
    54eb: 9c 5c 87     	stz	$875c                   ; 0x875c <dials+0x118>
    54ee: ca           	dex
    54ef: 8e 5d 87     	stx	$875d                   ; 0x875d <dials+0x119>
    54f2: 9c 5e 87     	stz	$875e                   ; 0x875e <dials+0x11a>
    54f5: 9c 5f 87     	stz	$875f                   ; 0x875f <dials+0x11b>
    54f8: 9c 60 87     	stz	$8760                   ; 0x8760 <dials+0x11c>
    54fb: 9c 61 87     	stz	$8761                   ; 0x8761 <dials+0x11d>
    54fe: 9c 62 87     	stz	$8762                   ; 0x8762 <dials+0x11e>
    5501: 9c 63 87     	stz	$8763                   ; 0x8763 <dials+0x11f>
    5504: 8e 57 87     	stx	$8757                   ; 0x8757 <dials+0x113>
    5507: 9c 59 87     	stz	$8759                   ; 0x8759 <dials+0x115>
    550a: 9c 58 87     	stz	$8758                   ; 0x8758 <dials+0x114>
    550d: 9c 5a 87     	stz	$875a                   ; 0x875a <dials+0x116>
    5510: a2 1c        	ldx	#$1c
    5512: 86 12        	stx	$12                     ; 0x2012 <f256main+0x16e4>
    5514: a2 87        	ldx	#$87
    5516: 86 13        	stx	$13                     ; 0x2013 <f256main+0x16e5>
    5518: 20 a9 61     	jsr	$61a9 <updateDial>
    551b: a2 2c        	ldx	#$2c
    551d: 8e 44 83     	stx	$8344                   ; 0x8344 <radios+0xcf>
    5520: a2 16        	ldx	#$16
    5522: 8e 32 83     	stx	$8332                   ; 0x8332 <radios+0xbd>
    5525: a2 d5        	ldx	#$d5
    5527: 8e 33 83     	stx	$8333                   ; 0x8333 <radios+0xbe>
    552a: 9c 34 83     	stz	$8334                   ; 0x8334 <radios+0xbf>
    552d: a2 93        	ldx	#$93
    552f: 8e 35 83     	stx	$8335                   ; 0x8335 <radios+0xc0>
    5532: 9c 36 83     	stz	$8336                   ; 0x8336 <radios+0xc1>
    5535: 9c 37 83     	stz	$8337                   ; 0x8337 <radios+0xc2>
    5538: 9c 38 83     	stz	$8338                   ; 0x8338 <radios+0xc3>
    553b: 9c 39 83     	stz	$8339                   ; 0x8339 <radios+0xc4>
    553e: 9c 3a 83     	stz	$833a                   ; 0x833a <radios+0xc5>
    5541: a0 38        	ldy	#$38
    5543: 8c 3b 83     	sty	$833b                   ; 0x833b <radios+0xc6>
    5546: a9 01        	lda	#$1
    5548: 8d 3c 83     	sta	$833c                   ; 0x833c <radios+0xc7>
    554b: 9c 3d 83     	stz	$833d                   ; 0x833d <radios+0xc8>
    554e: a2 09        	ldx	#$9
    5550: 8e 3e 83     	stx	$833e                   ; 0x833e <radios+0xc9>
    5553: a2 10        	ldx	#$10
    5555: 8e 3f 83     	stx	$833f                   ; 0x833f <radios+0xca>
    5558: 9c 40 83     	stz	$8340                   ; 0x8340 <radios+0xcb>
    555b: a2 0d        	ldx	#$d
    555d: 8e 41 83     	stx	$8341                   ; 0x8341 <radios+0xcc>
    5560: a2 04        	ldx	#$4
    5562: 8e 42 83     	stx	$8342                   ; 0x8342 <radios+0xcd>
    5565: a2 0b        	ldx	#$b
    5567: 8e 43 83     	stx	$8343                   ; 0x8343 <radios+0xce>
    556a: 9c 45 83     	stz	$8345                   ; 0x8345 <radios+0xd0>
    556d: a2 ff        	ldx	#$ff
    556f: 8e 46 83     	stx	$8346                   ; 0x8346 <radios+0xd1>
    5572: a2 40        	ldx	#$40
    5574: 8e 4b 82     	stx	$824b                   ; 0x824b <_spriteCtl+0x16>
    5577: 8e b0 d9     	stx	$d9b0                   ; 0xd9b0 <end_block9+0x5186>
    557a: 9c b1 d9     	stz	$d9b1                   ; 0xd9b1 <end_block9+0x5187>
    557d: 8c b2 d9     	sty	$d9b2                   ; 0xd9b2 <end_block9+0x5188>
    5580: 8d b3 d9     	sta	$d9b3                   ; 0xd9b3 <end_block9+0x5189>
    5583: ae 32 83     	ldx	$8332                   ; 0x8332 <radios+0xbd>
    5586: 8a           	txa
    5587: 0a           	asl
    5588: 85 12        	sta	$12                     ; 0x2012 <f256main+0x16e4>
    558a: 64 15        	stz	$15                     ; 0x2015 <f256main+0x16e7>
    558c: 26 15        	rol	$15                     ; 0x2015 <f256main+0x16e7>
    558e: 06 12        	asl	$12                     ; 0x2012 <f256main+0x16e4>
    5590: 26 15        	rol	$15                     ; 0x2015 <f256main+0x16e7>
    5592: 06 12        	asl	$12                     ; 0x2012 <f256main+0x16e4>
    5594: a4 12        	ldy	$12                     ; 0x2012 <f256main+0x16e4>
    5596: 84 14        	sty	$14                     ; 0x2014 <f256main+0x16e6>
    5598: 26 15        	rol	$15                     ; 0x2015 <f256main+0x16e7>
    559a: a5 12        	lda	$12                     ; 0x2012 <f256main+0x16e4>
    559c: 18           	clc
    559d: 69 04        	adc	#$4
    559f: 85 12        	sta	$12                     ; 0x2012 <f256main+0x16e4>
    55a1: a5 15        	lda	$15                     ; 0x2015 <f256main+0x16e7>
    55a3: 69 d9        	adc	#$d9
    55a5: 85 13        	sta	$13                     ; 0x2013 <f256main+0x16e5>
    55a7: ad 33 83     	lda	$8333                   ; 0x8333 <radios+0xbe>
    55aa: ac 34 83     	ldy	$8334                   ; 0x8334 <radios+0xbf>
    55ad: 84 18        	sty	$18                     ; 0x2018 <f256main+0x16ea>
    55af: ac 35 83     	ldy	$8335                   ; 0x8335 <radios+0xc0>
    55b2: 84 17        	sty	$17                     ; 0x2017 <f256main+0x16e9>
    55b4: ac 36 83     	ldy	$8336                   ; 0x8336 <radios+0xc1>
    55b7: 84 16        	sty	$16                     ; 0x2016 <f256main+0x16e8>
    55b9: 92 12        	sta	($12)                   ; 0x2012 <f256main+0x16e4>
    55bb: a0 01        	ldy	#$1
    55bd: a5 18        	lda	$18                     ; 0x2018 <f256main+0x16ea>
    55bf: 91 12        	sta	($12),y                 ; 0x2012 <f256main+0x16e4>
    55c1: a5 14        	lda	$14                     ; 0x2014 <f256main+0x16e6>
    55c3: 18           	clc
    55c4: 69 06        	adc	#$6
    55c6: 85 12        	sta	$12                     ; 0x2012 <f256main+0x16e4>
    55c8: a5 15        	lda	$15                     ; 0x2015 <f256main+0x16e7>
    55ca: 69 d9        	adc	#$d9
    55cc: 85 13        	sta	$13                     ; 0x2013 <f256main+0x16e5>
    55ce: a5 17        	lda	$17                     ; 0x2017 <f256main+0x16e9>
    55d0: 92 12        	sta	($12)                   ; 0x2012 <f256main+0x16e4>
    55d2: a5 16        	lda	$16                     ; 0x2016 <f256main+0x16e8>
    55d4: 91 12        	sta	($12),y                 ; 0x2012 <f256main+0x16e4>
    55d6: 18           	clc
    55d7: a5 14        	lda	$14                     ; 0x2014 <f256main+0x16e6>
    55d9: 69 00        	adc	#$0
    55db: 85 12        	sta	$12                     ; 0x2012 <f256main+0x16e4>
    55dd: a5 15        	lda	$15                     ; 0x2015 <f256main+0x16e7>
    55df: 69 d9        	adc	#$d9
    55e1: 85 13        	sta	$13                     ; 0x2013 <f256main+0x16e5>
    55e3: a5 24        	lda	$24                     ; 0x2024 <f256main+0x16f6>
    55e5: 1d 35 82     	ora	$8235,x                 ; 0x8235 <_spriteCtl>
    55e8: 92 12        	sta	($12)                   ; 0x2012 <f256main+0x16e4>
    55ea: a2 17        	ldx	#$17
    55ec: 8e 47 83     	stx	$8347                   ; 0x8347 <radios+0xd2>
    55ef: a2 a3        	ldx	#$a3
    55f1: 8e 4a 83     	stx	$834a                   ; 0x834a <radios+0xd5>
    55f4: a2 2d        	ldx	#$2d
    55f6: 8e 59 83     	stx	$8359                   ; 0x8359 <radios+0xe4>
    55f9: a2 d5        	ldx	#$d5
    55fb: 8e 48 83     	stx	$8348                   ; 0x8348 <radios+0xd3>
    55fe: 9c 49 83     	stz	$8349                   ; 0x8349 <radios+0xd4>
    5601: 9c 4b 83     	stz	$834b                   ; 0x834b <radios+0xd6>
    5604: 9c 4c 83     	stz	$834c                   ; 0x834c <radios+0xd7>
    5607: 9c 4d 83     	stz	$834d                   ; 0x834d <radios+0xd8>
    560a: 9c 4e 83     	stz	$834e                   ; 0x834e <radios+0xd9>
    560d: 9c 4f 83     	stz	$834f                   ; 0x834f <radios+0xda>
    5610: a9 38        	lda	#$38
    5612: 8d 50 83     	sta	$8350                   ; 0x8350 <radios+0xdb>
    5615: 8c 51 83     	sty	$8351                   ; 0x8351 <radios+0xdc>
    5618: 9c 52 83     	stz	$8352                   ; 0x8352 <radios+0xdd>
    561b: a2 0a        	ldx	#$a
    561d: 8e 53 83     	stx	$8353                   ; 0x8353 <radios+0xde>
    5620: a2 10        	ldx	#$10
    5622: 8e 54 83     	stx	$8354                   ; 0x8354 <radios+0xdf>
    5625: 9c 55 83     	stz	$8355                   ; 0x8355 <radios+0xe0>
    5628: a2 0d        	ldx	#$d
    562a: 8e 56 83     	stx	$8356                   ; 0x8356 <radios+0xe1>
    562d: a2 04        	ldx	#$4
    562f: 8e 57 83     	stx	$8357                   ; 0x8357 <radios+0xe2>
    5632: a2 0b        	ldx	#$b
    5634: 8e 58 83     	stx	$8358                   ; 0x8358 <radios+0xe3>
    5637: 9c 5a 83     	stz	$835a                   ; 0x835a <radios+0xe5>
    563a: a2 ff        	ldx	#$ff
    563c: 8e 5b 83     	stx	$835b                   ; 0x835b <radios+0xe6>
    563f: a2 40        	ldx	#$40
    5641: 8e 4c 82     	stx	$824c                   ; 0x824c <_spriteCtl+0x17>
    5644: 8e b8 d9     	stx	$d9b8                   ; 0xd9b8 <end_block9+0x518e>
    5647: 9c b9 d9     	stz	$d9b9                   ; 0xd9b9 <end_block9+0x518f>
    564a: 8d ba d9     	sta	$d9ba                   ; 0xd9ba <end_block9+0x5190>
    564d: 8c bb d9     	sty	$d9bb                   ; 0xd9bb <end_block9+0x5191>
    5650: ae 47 83     	ldx	$8347                   ; 0x8347 <radios+0xd2>
    5653: 8a           	txa
    5654: 0a           	asl
    5655: 85 12        	sta	$12                     ; 0x2012 <f256main+0x16e4>
    5657: 64 15        	stz	$15                     ; 0x2015 <f256main+0x16e7>
    5659: 26 15        	rol	$15                     ; 0x2015 <f256main+0x16e7>
    565b: 06 12        	asl	$12                     ; 0x2012 <f256main+0x16e4>
    565d: 26 15        	rol	$15                     ; 0x2015 <f256main+0x16e7>
    565f: 06 12        	asl	$12                     ; 0x2012 <f256main+0x16e4>
    5661: a4 12        	ldy	$12                     ; 0x2012 <f256main+0x16e4>
    5663: 84 14        	sty	$14                     ; 0x2014 <f256main+0x16e6>
    5665: 26 15        	rol	$15                     ; 0x2015 <f256main+0x16e7>
    5667: a5 12        	lda	$12                     ; 0x2012 <f256main+0x16e4>
    5669: 18           	clc
    566a: 69 04        	adc	#$4
    566c: 85 12        	sta	$12                     ; 0x2012 <f256main+0x16e4>
    566e: a5 15        	lda	$15                     ; 0x2015 <f256main+0x16e7>
    5670: 69 d9        	adc	#$d9
    5672: 85 13        	sta	$13                     ; 0x2013 <f256main+0x16e5>
    5674: ad 48 83     	lda	$8348                   ; 0x8348 <radios+0xd3>
    5677: ac 49 83     	ldy	$8349                   ; 0x8349 <radios+0xd4>
    567a: 84 18        	sty	$18                     ; 0x2018 <f256main+0x16ea>
    567c: ac 4a 83     	ldy	$834a                   ; 0x834a <radios+0xd5>
    567f: 84 17        	sty	$17                     ; 0x2017 <f256main+0x16e9>
    5681: ac 4b 83     	ldy	$834b                   ; 0x834b <radios+0xd6>
    5684: 84 16        	sty	$16                     ; 0x2016 <f256main+0x16e8>
    5686: 92 12        	sta	($12)                   ; 0x2012 <f256main+0x16e4>
    5688: a0 01        	ldy	#$1
    568a: a5 18        	lda	$18                     ; 0x2018 <f256main+0x16ea>
    568c: 91 12        	sta	($12),y                 ; 0x2012 <f256main+0x16e4>
    568e: a5 14        	lda	$14                     ; 0x2014 <f256main+0x16e6>
    5690: 18           	clc
    5691: 69 06        	adc	#$6
    5693: 85 12        	sta	$12                     ; 0x2012 <f256main+0x16e4>
    5695: a5 15        	lda	$15                     ; 0x2015 <f256main+0x16e7>
    5697: 69 d9        	adc	#$d9
    5699: 85 13        	sta	$13                     ; 0x2013 <f256main+0x16e5>
    569b: a5 17        	lda	$17                     ; 0x2017 <f256main+0x16e9>
    569d: 92 12        	sta	($12)                   ; 0x2012 <f256main+0x16e4>
    569f: a5 16        	lda	$16                     ; 0x2016 <f256main+0x16e8>
    56a1: 91 12        	sta	($12),y                 ; 0x2012 <f256main+0x16e4>
    56a3: 18           	clc
    56a4: a5 14        	lda	$14                     ; 0x2014 <f256main+0x16e6>
    56a6: 69 00        	adc	#$0
    56a8: 85 12        	sta	$12                     ; 0x2012 <f256main+0x16e4>
    56aa: a5 15        	lda	$15                     ; 0x2015 <f256main+0x16e7>
    56ac: 69 d9        	adc	#$d9
    56ae: 85 13        	sta	$13                     ; 0x2013 <f256main+0x16e5>
    56b0: a5 24        	lda	$24                     ; 0x2024 <f256main+0x16f6>
    56b2: 1d 35 82     	ora	$8235,x                 ; 0x8235 <_spriteCtl>
    56b5: 92 12        	sta	($12)                   ; 0x2012 <f256main+0x16e4>
    56b7: a2 18        	ldx	#$18
    56b9: 8e 5c 83     	stx	$835c                   ; 0x835c <radios+0xe7>
    56bc: a2 b3        	ldx	#$b3
    56be: 8e 5f 83     	stx	$835f                   ; 0x835f <radios+0xea>
    56c1: a2 2e        	ldx	#$2e
    56c3: 8e 6e 83     	stx	$836e                   ; 0x836e <radios+0xf9>
    56c6: a2 d5        	ldx	#$d5
    56c8: 8e 5d 83     	stx	$835d                   ; 0x835d <radios+0xe8>
    56cb: 9c 5e 83     	stz	$835e                   ; 0x835e <radios+0xe9>
    56ce: 9c 60 83     	stz	$8360                   ; 0x8360 <radios+0xeb>
    56d1: 9c 61 83     	stz	$8361                   ; 0x8361 <radios+0xec>
    56d4: 9c 62 83     	stz	$8362                   ; 0x8362 <radios+0xed>
    56d7: 9c 63 83     	stz	$8363                   ; 0x8363 <radios+0xee>
    56da: 9c 64 83     	stz	$8364                   ; 0x8364 <radios+0xef>
    56dd: a0 38        	ldy	#$38
    56df: 8c 65 83     	sty	$8365                   ; 0x8365 <radios+0xf0>
    56e2: a2 01        	ldx	#$1
    56e4: 8e 66 83     	stx	$8366                   ; 0x8366 <radios+0xf1>
    56e7: 9c 67 83     	stz	$8367                   ; 0x8367 <radios+0xf2>
    56ea: a2 0b        	ldx	#$b
    56ec: 8e 68 83     	stx	$8368                   ; 0x8368 <radios+0xf3>
    56ef: a9 10        	lda	#$10
    56f1: 8d 69 83     	sta	$8369                   ; 0x8369 <radios+0xf4>
    56f4: 9c 6a 83     	stz	$836a                   ; 0x836a <radios+0xf5>
    56f7: a9 0d        	lda	#$d
    56f9: 8d 6b 83     	sta	$836b                   ; 0x836b <radios+0xf6>
    56fc: a9 04        	lda	#$4
    56fe: 8d 6c 83     	sta	$836c                   ; 0x836c <radios+0xf7>
    5701: 8e 6d 83     	stx	$836d                   ; 0x836d <radios+0xf8>
    5704: 9c 6f 83     	stz	$836f                   ; 0x836f <radios+0xfa>
    5707: a2 ff        	ldx	#$ff
    5709: 8e 70 83     	stx	$8370                   ; 0x8370 <radios+0xfb>
    570c: a2 40        	ldx	#$40
    570e: 8e 4d 82     	stx	$824d                   ; 0x824d <_spriteCtl+0x18>
    5711: 8e c0 d9     	stx	$d9c0                   ; 0xd9c0 <end_block9+0x5196>
    5714: 9c c1 d9     	stz	$d9c1                   ; 0xd9c1 <end_block9+0x5197>
    5717: 8c c2 d9     	sty	$d9c2                   ; 0xd9c2 <end_block9+0x5198>
    571a: a2 01        	ldx	#$1
    571c: 8e c3 d9     	stx	$d9c3                   ; 0xd9c3 <end_block9+0x5199>
    571f: ae 5c 83     	ldx	$835c                   ; 0x835c <radios+0xe7>
    5722: 8a           	txa
    5723: 0a           	asl
    5724: 85 12        	sta	$12                     ; 0x2012 <f256main+0x16e4>
    5726: 64 15        	stz	$15                     ; 0x2015 <f256main+0x16e7>
    5728: 26 15        	rol	$15                     ; 0x2015 <f256main+0x16e7>
    572a: 06 12        	asl	$12                     ; 0x2012 <f256main+0x16e4>
    572c: 26 15        	rol	$15                     ; 0x2015 <f256main+0x16e7>
    572e: 06 12        	asl	$12                     ; 0x2012 <f256main+0x16e4>
    5730: a4 12        	ldy	$12                     ; 0x2012 <f256main+0x16e4>
    5732: 84 14        	sty	$14                     ; 0x2014 <f256main+0x16e6>
    5734: 26 15        	rol	$15                     ; 0x2015 <f256main+0x16e7>
    5736: 18           	clc
    5737: a5 12        	lda	$12                     ; 0x2012 <f256main+0x16e4>
    5739: 69 04        	adc	#$4
    573b: 85 12        	sta	$12                     ; 0x2012 <f256main+0x16e4>
    573d: a5 15        	lda	$15                     ; 0x2015 <f256main+0x16e7>
    573f: 69 d9        	adc	#$d9
    5741: 85 13        	sta	$13                     ; 0x2013 <f256main+0x16e5>
    5743: ad 5d 83     	lda	$835d                   ; 0x835d <radios+0xe8>
    5746: ac 5e 83     	ldy	$835e                   ; 0x835e <radios+0xe9>
    5749: 84 18        	sty	$18                     ; 0x2018 <f256main+0x16ea>
    574b: ac 5f 83     	ldy	$835f                   ; 0x835f <radios+0xea>
    574e: 84 17        	sty	$17                     ; 0x2017 <f256main+0x16e9>
    5750: ac 60 83     	ldy	$8360                   ; 0x8360 <radios+0xeb>
    5753: 84 16        	sty	$16                     ; 0x2016 <f256main+0x16e8>
    5755: 92 12        	sta	($12)                   ; 0x2012 <f256main+0x16e4>
    5757: a0 01        	ldy	#$1
    5759: a5 18        	lda	$18                     ; 0x2018 <f256main+0x16ea>
    575b: 91 12        	sta	($12),y                 ; 0x2012 <f256main+0x16e4>
    575d: 18           	clc
    575e: a5 14        	lda	$14                     ; 0x2014 <f256main+0x16e6>
    5760: 69 06        	adc	#$6
    5762: 85 12        	sta	$12                     ; 0x2012 <f256main+0x16e4>
    5764: a5 15        	lda	$15                     ; 0x2015 <f256main+0x16e7>
    5766: 69 d9        	adc	#$d9
    5768: 85 13        	sta	$13                     ; 0x2013 <f256main+0x16e5>
    576a: a5 17        	lda	$17                     ; 0x2017 <f256main+0x16e9>
    576c: 92 12        	sta	($12)                   ; 0x2012 <f256main+0x16e4>
    576e: a5 16        	lda	$16                     ; 0x2016 <f256main+0x16e8>
    5770: 91 12        	sta	($12),y                 ; 0x2012 <f256main+0x16e4>
    5772: 18           	clc
    5773: a5 14        	lda	$14                     ; 0x2014 <f256main+0x16e6>
    5775: 69 00        	adc	#$0
    5777: 85 12        	sta	$12                     ; 0x2012 <f256main+0x16e4>
    5779: a5 15        	lda	$15                     ; 0x2015 <f256main+0x16e7>
    577b: 69 d9        	adc	#$d9
    577d: 85 13        	sta	$13                     ; 0x2013 <f256main+0x16e5>
    577f: a5 24        	lda	$24                     ; 0x2024 <f256main+0x16f6>
    5781: 1d 35 82     	ora	$8235,x                 ; 0x8235 <_spriteCtl>
    5784: 92 12        	sta	($12)                   ; 0x2012 <f256main+0x16e4>
    5786: a2 d5        	ldx	#$d5
    5788: 8e 72 83     	stx	$8372                   ; 0x8372 <radios+0xfd>
    578b: a2 c3        	ldx	#$c3
    578d: 8e 74 83     	stx	$8374                   ; 0x8374 <radios+0xff>
    5790: a2 2f        	ldx	#$2f
    5792: 8e 83 83     	stx	$8383                   ; 0x8383 <radios+0x10e>
    5795: a2 19        	ldx	#$19
    5797: 8e 71 83     	stx	$8371                   ; 0x8371 <radios+0xfc>
    579a: 9c 73 83     	stz	$8373                   ; 0x8373 <radios+0xfe>
    579d: 9c 75 83     	stz	$8375                   ; 0x8375 <radios+0x100>
    57a0: 9c 76 83     	stz	$8376                   ; 0x8376 <radios+0x101>
    57a3: 9c 77 83     	stz	$8377                   ; 0x8377 <radios+0x102>
    57a6: 9c 78 83     	stz	$8378                   ; 0x8378 <radios+0x103>
    57a9: 9c 79 83     	stz	$8379                   ; 0x8379 <radios+0x104>
    57ac: a9 38        	lda	#$38
    57ae: 8d 7a 83     	sta	$837a                   ; 0x837a <radios+0x105>
    57b1: 8c 7b 83     	sty	$837b                   ; 0x837b <radios+0x106>
    57b4: 9c 7c 83     	stz	$837c                   ; 0x837c <radios+0x107>
    57b7: a2 0c        	ldx	#$c
    57b9: 8e 7d 83     	stx	$837d                   ; 0x837d <radios+0x108>
    57bc: a2 10        	ldx	#$10
    57be: 8e 7e 83     	stx	$837e                   ; 0x837e <radios+0x109>
    57c1: 9c 7f 83     	stz	$837f                   ; 0x837f <radios+0x10a>
    57c4: a2 0d        	ldx	#$d
    57c6: 8e 80 83     	stx	$8380                   ; 0x8380 <radios+0x10b>
    57c9: a2 04        	ldx	#$4
    57cb: 8e 81 83     	stx	$8381                   ; 0x8381 <radios+0x10c>
    57ce: a2 0b        	ldx	#$b
    57d0: 8e 82 83     	stx	$8382                   ; 0x8382 <radios+0x10d>
    57d3: 9c 84 83     	stz	$8384                   ; 0x8384 <radios+0x10f>
    57d6: a2 ff        	ldx	#$ff
    57d8: 8e 85 83     	stx	$8385                   ; 0x8385 <radios+0x110>
    57db: a2 40        	ldx	#$40
    57dd: 8e 4e 82     	stx	$824e                   ; 0x824e <_spriteCtl+0x19>
    57e0: 8e c8 d9     	stx	$d9c8                   ; 0xd9c8 <end_block9+0x519e>
    57e3: 9c c9 d9     	stz	$d9c9                   ; 0xd9c9 <end_block9+0x519f>
    57e6: 8d ca d9     	sta	$d9ca                   ; 0xd9ca <end_block9+0x51a0>
    57e9: 8c cb d9     	sty	$d9cb                   ; 0xd9cb <end_block9+0x51a1>
    57ec: ae 71 83     	ldx	$8371                   ; 0x8371 <radios+0xfc>
    57ef: 8a           	txa
    57f0: 0a           	asl
    57f1: 85 12        	sta	$12                     ; 0x2012 <f256main+0x16e4>
    57f3: 64 15        	stz	$15                     ; 0x2015 <f256main+0x16e7>
    57f5: 26 15        	rol	$15                     ; 0x2015 <f256main+0x16e7>
    57f7: 06 12        	asl	$12                     ; 0x2012 <f256main+0x16e4>
    57f9: 26 15        	rol	$15                     ; 0x2015 <f256main+0x16e7>
    57fb: 06 12        	asl	$12                     ; 0x2012 <f256main+0x16e4>
    57fd: a4 12        	ldy	$12                     ; 0x2012 <f256main+0x16e4>
    57ff: 84 14        	sty	$14                     ; 0x2014 <f256main+0x16e6>
    5801: 26 15        	rol	$15                     ; 0x2015 <f256main+0x16e7>
    5803: a5 12        	lda	$12                     ; 0x2012 <f256main+0x16e4>
    5805: 18           	clc
    5806: 69 04        	adc	#$4
    5808: 85 12        	sta	$12                     ; 0x2012 <f256main+0x16e4>
    580a: a5 15        	lda	$15                     ; 0x2015 <f256main+0x16e7>
    580c: 69 d9        	adc	#$d9
    580e: 85 13        	sta	$13                     ; 0x2013 <f256main+0x16e5>
    5810: ad 72 83     	lda	$8372                   ; 0x8372 <radios+0xfd>
    5813: ac 73 83     	ldy	$8373                   ; 0x8373 <radios+0xfe>
    5816: 84 18        	sty	$18                     ; 0x2018 <f256main+0x16ea>
    5818: ac 74 83     	ldy	$8374                   ; 0x8374 <radios+0xff>
    581b: 84 17        	sty	$17                     ; 0x2017 <f256main+0x16e9>
    581d: ac 75 83     	ldy	$8375                   ; 0x8375 <radios+0x100>
    5820: 84 16        	sty	$16                     ; 0x2016 <f256main+0x16e8>
    5822: 92 12        	sta	($12)                   ; 0x2012 <f256main+0x16e4>
    5824: a0 01        	ldy	#$1
    5826: a5 18        	lda	$18                     ; 0x2018 <f256main+0x16ea>
    5828: 91 12        	sta	($12),y                 ; 0x2012 <f256main+0x16e4>
    582a: a5 14        	lda	$14                     ; 0x2014 <f256main+0x16e6>
    582c: 18           	clc
    582d: 69 06        	adc	#$6
    582f: 85 12        	sta	$12                     ; 0x2012 <f256main+0x16e4>
    5831: a5 15        	lda	$15                     ; 0x2015 <f256main+0x16e7>
    5833: 69 d9        	adc	#$d9
    5835: 85 13        	sta	$13                     ; 0x2013 <f256main+0x16e5>
    5837: a5 17        	lda	$17                     ; 0x2017 <f256main+0x16e9>
    5839: 92 12        	sta	($12)                   ; 0x2012 <f256main+0x16e4>
    583b: a5 16        	lda	$16                     ; 0x2016 <f256main+0x16e8>
    583d: 91 12        	sta	($12),y                 ; 0x2012 <f256main+0x16e4>
    583f: a5 24        	lda	$24                     ; 0x2024 <f256main+0x16f6>
    5841: 1d 35 82     	ora	$8235,x                 ; 0x8235 <_spriteCtl>
    5844: aa           	tax
    5845: 18           	clc
    5846: a5 14        	lda	$14                     ; 0x2014 <f256main+0x16e6>
    5848: 69 00        	adc	#$0
    584a: 85 12        	sta	$12                     ; 0x2012 <f256main+0x16e4>
    584c: a5 15        	lda	$15                     ; 0x2015 <f256main+0x16e7>
    584e: 69 d9        	adc	#$d9
    5850: 85 13        	sta	$13                     ; 0x2013 <f256main+0x16e5>
    5852: 8a           	txa
    5853: 92 12        	sta	($12)                   ; 0x2012 <f256main+0x16e4>
    5855: a2 06        	ldx	#$6
    5857: 8e 24 86     	stx	$8624                   ; 0x8624 <sliders+0xd0>
    585a: a2 1a        	ldx	#$1a
    585c: 8e 14 86     	stx	$8614                   ; 0x8614 <sliders+0xc0>
    585f: a2 8f        	ldx	#$8f
    5861: 8e 17 86     	stx	$8617                   ; 0x8617 <sliders+0xc3>
    5864: a5 cf        	lda	$cf                     ; 0x20cf <f256main+0x17a1>
    5866: 85 12        	sta	$12                     ; 0x2012 <f256main+0x16e4>
    5868: a4 d0        	ldy	$d0                     ; 0x20d0 <f256main+0x17a2>
    586a: 84 13        	sty	$13                     ; 0x2013 <f256main+0x16e5>
    586c: 18           	clc
    586d: 69 04        	adc	#$4
    586f: 85 14        	sta	$14                     ; 0x2014 <f256main+0x16e6>
    5871: 98           	tya
    5872: 69 00        	adc	#$0
    5874: 85 15        	sta	$15                     ; 0x2015 <f256main+0x16e7>
    5876: 9c 35 86     	stz	$8635                   ; 0x8635 <sliders+0xe1>
    5879: 9c 36 86     	stz	$8636                   ; 0x8636 <sliders+0xe2>
    587c: 9c 37 86     	stz	$8637                   ; 0x8637 <sliders+0xe3>
    587f: 9c 38 86     	stz	$8638                   ; 0x8638 <sliders+0xe4>
    5882: a0 04        	ldy	#$4
    5884: b1 12        	lda	($12),y                 ; 0x2012 <f256main+0x16e4>
    5886: 85 12        	sta	$12                     ; 0x2012 <f256main+0x16e4>
    5888: a0 01        	ldy	#$1
    588a: b1 14        	lda	($14),y                 ; 0x2014 <f256main+0x16e6>
    588c: 85 13        	sta	$13                     ; 0x2013 <f256main+0x16e5>
    588e: a0 08        	ldy	#$8
    5890: b1 12        	lda	($12),y                 ; 0x2012 <f256main+0x16e4>
    5892: a2 40        	ldx	#$40
    5894: 8e 15 86     	stx	$8615                   ; 0x8615 <sliders+0xc1>
    5897: a0 01        	ldy	#$1
    5899: 8c 16 86     	sty	$8616                   ; 0x8616 <sliders+0xc2>
    589c: 9c 18 86     	stz	$8618                   ; 0x8618 <sliders+0xc4>
    589f: 9c 19 86     	stz	$8619                   ; 0x8619 <sliders+0xc5>
    58a2: 9c 1a 86     	stz	$861a                   ; 0x861a <sliders+0xc6>
    58a5: 9c 1b 86     	stz	$861b                   ; 0x861b <sliders+0xc7>
    58a8: 9c 1c 86     	stz	$861c                   ; 0x861c <sliders+0xc8>
    58ab: a2 28        	ldx	#$28
    58ad: 8e 1d 86     	stx	$861d                   ; 0x861d <sliders+0xc9>
    58b0: 8c 1e 86     	sty	$861e                   ; 0x861e <sliders+0xca>
    58b3: 9c 1f 86     	stz	$861f                   ; 0x861f <sliders+0xcb>
    58b6: a2 04        	ldx	#$4
    58b8: 8e 20 86     	stx	$8620                   ; 0x8620 <sliders+0xcc>
    58bb: a2 10        	ldx	#$10
    58bd: 8e 21 86     	stx	$8621                   ; 0x8621 <sliders+0xcd>
    58c0: a2 03        	ldx	#$3
    58c2: 8e 22 86     	stx	$8622                   ; 0x8622 <sliders+0xce>
    58c5: a2 0a        	ldx	#$a
    58c7: 8e 23 86     	stx	$8623                   ; 0x8623 <sliders+0xcf>
    58ca: a2 19        	ldx	#$19
    58cc: 8e 25 86     	stx	$8625                   ; 0x8625 <sliders+0xd1>
    58cf: a2 32        	ldx	#$32
    58d1: 8e 26 86     	stx	$8626                   ; 0x8626 <sliders+0xd2>
    58d4: a0 ff        	ldy	#$ff
    58d6: 8c 27 86     	sty	$8627                   ; 0x8627 <sliders+0xd3>
    58d9: a2 12        	ldx	#$12
    58db: 8e 28 86     	stx	$8628                   ; 0x8628 <sliders+0xd4>
    58de: 9c 29 86     	stz	$8629                   ; 0x8629 <sliders+0xd5>
    58e1: a2 09        	ldx	#$9
    58e3: 8e 2a 86     	stx	$862a                   ; 0x862a <sliders+0xd6>
    58e6: 9c 2b 86     	stz	$862b                   ; 0x862b <sliders+0xd7>
    58e9: 9c 2c 86     	stz	$862c                   ; 0x862c <sliders+0xd8>
    58ec: 9c 2d 86     	stz	$862d                   ; 0x862d <sliders+0xd9>
    58ef: 9c 2e 86     	stz	$862e                   ; 0x862e <sliders+0xda>
    58f2: 9c 2f 86     	stz	$862f                   ; 0x862f <sliders+0xdb>
    58f5: a2 54        	ldx	#$54
    58f7: 8e 30 86     	stx	$8630                   ; 0x8630 <sliders+0xdc>
    58fa: a2 01        	ldx	#$1
    58fc: 8e 31 86     	stx	$8631                   ; 0x8631 <sliders+0xdd>
    58ff: 9c 32 86     	stz	$8632                   ; 0x8632 <sliders+0xde>
    5902: a2 04        	ldx	#$4
    5904: 8e 33 86     	stx	$8633                   ; 0x8633 <sliders+0xdf>
    5907: a2 10        	ldx	#$10
    5909: 8e 34 86     	stx	$8634                   ; 0x8634 <sliders+0xe0>
    590c: 8c 39 86     	sty	$8639                   ; 0x8639 <sliders+0xe5>
    590f: 4a           	lsr
    5910: 4a           	lsr
    5911: 4a           	lsr
    5912: 4a           	lsr
    5913: 8d 3b 86     	sta	$863b                   ; 0x863b <sliders+0xe7>
    5916: 9c 3c 86     	stz	$863c                   ; 0x863c <sliders+0xe8>
    5919: ca           	dex
    591a: 8e 3d 86     	stx	$863d                   ; 0x863d <sliders+0xe9>
    591d: 9c 3e 86     	stz	$863e                   ; 0x863e <sliders+0xea>
    5920: 9c 3f 86     	stz	$863f                   ; 0x863f <sliders+0xeb>
    5923: 9c 40 86     	stz	$8640                   ; 0x8640 <sliders+0xec>
    5926: 9c 41 86     	stz	$8641                   ; 0x8641 <sliders+0xed>
    5929: 9c 42 86     	stz	$8642                   ; 0x8642 <sliders+0xee>
    592c: 9c 43 86     	stz	$8643                   ; 0x8643 <sliders+0xef>
    592f: a2 14        	ldx	#$14
    5931: 86 12        	stx	$12                     ; 0x2012 <f256main+0x16e4>
    5933: a2 86        	ldx	#$86
    5935: 86 13        	stx	$13                     ; 0x2013 <f256main+0x16e5>
    5937: 20 78 65     	jsr	$6578 <updateSlider>
    593a: a2 1c        	ldx	#$1c
    593c: 8e 86 83     	stx	$8386                   ; 0x8386 <radios+0x111>
    593f: a2 83        	ldx	#$83
    5941: 8e 89 83     	stx	$8389                   ; 0x8389 <radios+0x114>
    5944: a2 30        	ldx	#$30
    5946: 8e 98 83     	stx	$8398                   ; 0x8398 <radios+0x123>
    5949: a9 0d        	lda	#$d
    594b: 8d 87 83     	sta	$8387                   ; 0x8387 <radios+0x112>
    594e: a0 01        	ldy	#$1
    5950: 8c 88 83     	sty	$8388                   ; 0x8388 <radios+0x113>
    5953: 9c 8a 83     	stz	$838a                   ; 0x838a <radios+0x115>
    5956: 9c 8b 83     	stz	$838b                   ; 0x838b <radios+0x116>
    5959: 9c 8c 83     	stz	$838c                   ; 0x838c <radios+0x117>
    595c: 9c 8d 83     	stz	$838d                   ; 0x838d <radios+0x118>
    595f: 9c 8e 83     	stz	$838e                   ; 0x838e <radios+0x119>
    5962: a2 38        	ldx	#$38
    5964: 8e 8f 83     	stx	$838f                   ; 0x838f <radios+0x11a>
    5967: 8c 90 83     	sty	$8390                   ; 0x8390 <radios+0x11b>
    596a: 9c 91 83     	stz	$8391                   ; 0x8391 <radios+0x11c>
    596d: 8d 92 83     	sta	$8392                   ; 0x8392 <radios+0x11d>
    5970: a0 10        	ldy	#$10
    5972: 8c 93 83     	sty	$8393                   ; 0x8393 <radios+0x11e>
    5975: 9c 94 83     	stz	$8394                   ; 0x8394 <radios+0x11f>
    5978: 8d 95 83     	sta	$8395                   ; 0x8395 <radios+0x120>
    597b: a0 04        	ldy	#$4
    597d: 8c 96 83     	sty	$8396                   ; 0x8396 <radios+0x121>
    5980: a0 0b        	ldy	#$b
    5982: 8c 97 83     	sty	$8397                   ; 0x8397 <radios+0x122>
    5985: 9c 99 83     	stz	$8399                   ; 0x8399 <radios+0x124>
    5988: a0 ff        	ldy	#$ff
    598a: 8c 9a 83     	sty	$839a                   ; 0x839a <radios+0x125>
    598d: a0 40        	ldy	#$40
    598f: 8c 51 82     	sty	$8251                   ; 0x8251 <_spriteCtl+0x1c>
    5992: 8c e0 d9     	sty	$d9e0                   ; 0xd9e0 <end_block9+0x51b6>
    5995: 9c e1 d9     	stz	$d9e1                   ; 0xd9e1 <end_block9+0x51b7>
    5998: 8e e2 d9     	stx	$d9e2                   ; 0xd9e2 <end_block9+0x51b8>
    599b: a2 01        	ldx	#$1
    599d: 8e e3 d9     	stx	$d9e3                   ; 0xd9e3 <end_block9+0x51b9>
    59a0: ae 86 83     	ldx	$8386                   ; 0x8386 <radios+0x111>
    59a3: 8a           	txa
    59a4: 0a           	asl
    59a5: 85 12        	sta	$12                     ; 0x2012 <f256main+0x16e4>
    59a7: 64 15        	stz	$15                     ; 0x2015 <f256main+0x16e7>
    59a9: 26 15        	rol	$15                     ; 0x2015 <f256main+0x16e7>
    59ab: 06 12        	asl	$12                     ; 0x2012 <f256main+0x16e4>
    59ad: 26 15        	rol	$15                     ; 0x2015 <f256main+0x16e7>
    59af: 06 12        	asl	$12                     ; 0x2012 <f256main+0x16e4>
    59b1: a4 12        	ldy	$12                     ; 0x2012 <f256main+0x16e4>
    59b3: 84 14        	sty	$14                     ; 0x2014 <f256main+0x16e6>
    59b5: 26 15        	rol	$15                     ; 0x2015 <f256main+0x16e7>
    59b7: a5 12        	lda	$12                     ; 0x2012 <f256main+0x16e4>
    59b9: 18           	clc
    59ba: 69 04        	adc	#$4
    59bc: 85 12        	sta	$12                     ; 0x2012 <f256main+0x16e4>
    59be: a5 15        	lda	$15                     ; 0x2015 <f256main+0x16e7>
    59c0: 69 d9        	adc	#$d9
    59c2: 85 13        	sta	$13                     ; 0x2013 <f256main+0x16e5>
    59c4: ad 87 83     	lda	$8387                   ; 0x8387 <radios+0x112>
    59c7: ac 88 83     	ldy	$8388                   ; 0x8388 <radios+0x113>
    59ca: 84 18        	sty	$18                     ; 0x2018 <f256main+0x16ea>
    59cc: ac 89 83     	ldy	$8389                   ; 0x8389 <radios+0x114>
    59cf: 84 17        	sty	$17                     ; 0x2017 <f256main+0x16e9>
    59d1: ac 8a 83     	ldy	$838a                   ; 0x838a <radios+0x115>
    59d4: 84 16        	sty	$16                     ; 0x2016 <f256main+0x16e8>
    59d6: 92 12        	sta	($12)                   ; 0x2012 <f256main+0x16e4>
    59d8: a0 01        	ldy	#$1
    59da: a5 18        	lda	$18                     ; 0x2018 <f256main+0x16ea>
    59dc: 91 12        	sta	($12),y                 ; 0x2012 <f256main+0x16e4>
    59de: a5 14        	lda	$14                     ; 0x2014 <f256main+0x16e6>
    59e0: 18           	clc
    59e1: 69 06        	adc	#$6
    59e3: 85 12        	sta	$12                     ; 0x2012 <f256main+0x16e4>
    59e5: a5 15        	lda	$15                     ; 0x2015 <f256main+0x16e7>
    59e7: 69 d9        	adc	#$d9
    59e9: 85 13        	sta	$13                     ; 0x2013 <f256main+0x16e5>
    59eb: a5 17        	lda	$17                     ; 0x2017 <f256main+0x16e9>
    59ed: 92 12        	sta	($12)                   ; 0x2012 <f256main+0x16e4>
    59ef: a5 16        	lda	$16                     ; 0x2016 <f256main+0x16e8>
    59f1: 91 12        	sta	($12),y                 ; 0x2012 <f256main+0x16e4>
    59f3: 18           	clc
    59f4: a5 14        	lda	$14                     ; 0x2014 <f256main+0x16e6>
    59f6: 69 00        	adc	#$0
    59f8: 85 12        	sta	$12                     ; 0x2012 <f256main+0x16e4>
    59fa: a5 15        	lda	$15                     ; 0x2015 <f256main+0x16e7>
    59fc: 69 d9        	adc	#$d9
    59fe: 85 13        	sta	$13                     ; 0x2013 <f256main+0x16e5>
    5a00: a5 24        	lda	$24                     ; 0x2024 <f256main+0x16f6>
    5a02: 1d 35 82     	ora	$8235,x                 ; 0x8235 <_spriteCtl>
    5a05: 92 12        	sta	($12)                   ; 0x2012 <f256main+0x16e4>
    5a07: a2 1d        	ldx	#$1d
    5a09: 8e 9b 83     	stx	$839b                   ; 0x839b <radios+0x126>
    5a0c: a2 93        	ldx	#$93
    5a0e: 8e 9e 83     	stx	$839e                   ; 0x839e <radios+0x129>
    5a11: a2 0e        	ldx	#$e
    5a13: 8e a7 83     	stx	$83a7                   ; 0x83a7 <radios+0x132>
    5a16: a2 31        	ldx	#$31
    5a18: 8e ad 83     	stx	$83ad                   ; 0x83ad <radios+0x138>
    5a1b: a0 0d        	ldy	#$d
    5a1d: 8c 9c 83     	sty	$839c                   ; 0x839c <radios+0x127>
    5a20: a2 01        	ldx	#$1
    5a22: 8e 9d 83     	stx	$839d                   ; 0x839d <radios+0x128>
    5a25: 9c 9f 83     	stz	$839f                   ; 0x839f <radios+0x12a>
    5a28: 9c a0 83     	stz	$83a0                   ; 0x83a0 <radios+0x12b>
    5a2b: 9c a1 83     	stz	$83a1                   ; 0x83a1 <radios+0x12c>
    5a2e: 9c a2 83     	stz	$83a2                   ; 0x83a2 <radios+0x12d>
    5a31: 9c a3 83     	stz	$83a3                   ; 0x83a3 <radios+0x12e>
    5a34: a9 38        	lda	#$38
    5a36: 8d a4 83     	sta	$83a4                   ; 0x83a4 <radios+0x12f>
    5a39: 8e a5 83     	stx	$83a5                   ; 0x83a5 <radios+0x130>
    5a3c: 9c a6 83     	stz	$83a6                   ; 0x83a6 <radios+0x131>
    5a3f: a2 10        	ldx	#$10
    5a41: 8e a8 83     	stx	$83a8                   ; 0x83a8 <radios+0x133>
    5a44: 9c a9 83     	stz	$83a9                   ; 0x83a9 <radios+0x134>
    5a47: 8c aa 83     	sty	$83aa                   ; 0x83aa <radios+0x135>
    5a4a: a2 04        	ldx	#$4
    5a4c: 8e ab 83     	stx	$83ab                   ; 0x83ab <radios+0x136>
    5a4f: a2 0b        	ldx	#$b
    5a51: 8e ac 83     	stx	$83ac                   ; 0x83ac <radios+0x137>
    5a54: 9c ae 83     	stz	$83ae                   ; 0x83ae <radios+0x139>
    5a57: a2 ff        	ldx	#$ff
    5a59: 8e af 83     	stx	$83af                   ; 0x83af <radios+0x13a>
    5a5c: a2 40        	ldx	#$40
    5a5e: 8e 52 82     	stx	$8252                   ; 0x8252 <_spriteCtl+0x1d>
    5a61: 8e e8 d9     	stx	$d9e8                   ; 0xd9e8 <end_block9+0x51be>
    5a64: 9c e9 d9     	stz	$d9e9                   ; 0xd9e9 <end_block9+0x51bf>
    5a67: 8d ea d9     	sta	$d9ea                   ; 0xd9ea <end_block9+0x51c0>
    5a6a: a2 01        	ldx	#$1
    5a6c: 8e eb d9     	stx	$d9eb                   ; 0xd9eb <end_block9+0x51c1>
    5a6f: ae 9b 83     	ldx	$839b                   ; 0x839b <radios+0x126>
    5a72: 8a           	txa
    5a73: 0a           	asl
    5a74: 64 12        	stz	$12                     ; 0x2012 <f256main+0x16e4>
    5a76: 26 12        	rol	$12                     ; 0x2012 <f256main+0x16e4>
    5a78: 0a           	asl
    5a79: 26 12        	rol	$12                     ; 0x2012 <f256main+0x16e4>
    5a7b: 0a           	asl
    5a7c: 26 12        	rol	$12                     ; 0x2012 <f256main+0x16e4>
    5a7e: a4 12        	ldy	$12                     ; 0x2012 <f256main+0x16e4>
    5a80: 84 14        	sty	$14                     ; 0x2014 <f256main+0x16e6>
    5a82: 18           	clc
    5a83: 85 16        	sta	$16                     ; 0x2016 <f256main+0x16e8>
    5a85: 69 04        	adc	#$4
    5a87: 85 12        	sta	$12                     ; 0x2012 <f256main+0x16e4>
    5a89: a5 14        	lda	$14                     ; 0x2014 <f256main+0x16e6>
    5a8b: 69 d9        	adc	#$d9
    5a8d: 85 13        	sta	$13                     ; 0x2013 <f256main+0x16e5>
    5a8f: ad 9c 83     	lda	$839c                   ; 0x839c <radios+0x127>
    5a92: ac 9d 83     	ldy	$839d                   ; 0x839d <radios+0x128>
    5a95: 84 18        	sty	$18                     ; 0x2018 <f256main+0x16ea>
    5a97: ac 9e 83     	ldy	$839e                   ; 0x839e <radios+0x129>
    5a9a: 84 15        	sty	$15                     ; 0x2015 <f256main+0x16e7>
    5a9c: ac 9f 83     	ldy	$839f                   ; 0x839f <radios+0x12a>
    5a9f: 84 17        	sty	$17                     ; 0x2017 <f256main+0x16e9>
    5aa1: 92 12        	sta	($12)                   ; 0x2012 <f256main+0x16e4>
    5aa3: a0 01        	ldy	#$1
    5aa5: a5 18        	lda	$18                     ; 0x2018 <f256main+0x16ea>
    5aa7: 91 12        	sta	($12),y                 ; 0x2012 <f256main+0x16e4>
    5aa9: 18           	clc
    5aaa: a5 16        	lda	$16                     ; 0x2016 <f256main+0x16e8>
    5aac: 69 06        	adc	#$6
    5aae: 85 12        	sta	$12                     ; 0x2012 <f256main+0x16e4>
    5ab0: a5 14        	lda	$14                     ; 0x2014 <f256main+0x16e6>
    5ab2: 69 d9        	adc	#$d9
    5ab4: 85 13        	sta	$13                     ; 0x2013 <f256main+0x16e5>
    5ab6: a5 15        	lda	$15                     ; 0x2015 <f256main+0x16e7>
    5ab8: 92 12        	sta	($12)                   ; 0x2012 <f256main+0x16e4>
    5aba: a5 17        	lda	$17                     ; 0x2017 <f256main+0x16e9>
    5abc: 91 12        	sta	($12),y                 ; 0x2012 <f256main+0x16e4>
    5abe: a5 24        	lda	$24                     ; 0x2024 <f256main+0x16f6>
    5ac0: 1d 35 82     	ora	$8235,x                 ; 0x8235 <_spriteCtl>
    5ac3: 85 15        	sta	$15                     ; 0x2015 <f256main+0x16e7>
    5ac5: 18           	clc
    5ac6: a5 16        	lda	$16                     ; 0x2016 <f256main+0x16e8>
    5ac8: 69 00        	adc	#$0
    5aca: 85 12        	sta	$12                     ; 0x2012 <f256main+0x16e4>
    5acc: a5 14        	lda	$14                     ; 0x2014 <f256main+0x16e6>
    5ace: 69 d9        	adc	#$d9
    5ad0: 85 13        	sta	$13                     ; 0x2013 <f256main+0x16e5>
    5ad2: a5 15        	lda	$15                     ; 0x2015 <f256main+0x16e7>
    5ad4: 92 12        	sta	($12)                   ; 0x2012 <f256main+0x16e4>
    5ad6: a2 0a        	ldx	#$a
    5ad8: 8e 78 87     	stx	$8778                   ; 0x8778 <dials+0x134>
    5adb: 9c 85 87     	stz	$8785                   ; 0x8785 <dials+0x141>
    5ade: 9c 86 87     	stz	$8786                   ; 0x8786 <dials+0x142>
    5ae1: 9c 87 87     	stz	$8787                   ; 0x8787 <dials+0x143>
    5ae4: 9c 88 87     	stz	$8788                   ; 0x8788 <dials+0x144>
    5ae7: 9c 99 87     	stz	$8799                   ; 0x8799 <dials+0x155>
    5aea: 9c 9a 87     	stz	$879a                   ; 0x879a <dials+0x156>
    5aed: 9c 9b 87     	stz	$879b                   ; 0x879b <dials+0x157>
    5af0: 9c 9c 87     	stz	$879c                   ; 0x879c <dials+0x158>
    5af3: a5 cf        	lda	$cf                     ; 0x20cf <f256main+0x17a1>
    5af5: a6 d0        	ldx	$d0                     ; 0x20d0 <f256main+0x17a2>
    5af7: 85 12        	sta	$12                     ; 0x2012 <f256main+0x16e4>
    5af9: 86 13        	stx	$13                     ; 0x2013 <f256main+0x16e5>
    5afb: 18           	clc
    5afc: 69 04        	adc	#$4
    5afe: 85 14        	sta	$14                     ; 0x2014 <f256main+0x16e6>
    5b00: 8a           	txa
    5b01: 69 00        	adc	#$0
    5b03: 85 15        	sta	$15                     ; 0x2015 <f256main+0x16e7>
    5b05: a0 04        	ldy	#$4
    5b07: b1 12        	lda	($12),y                 ; 0x2012 <f256main+0x16e4>
    5b09: 85 12        	sta	$12                     ; 0x2012 <f256main+0x16e4>
    5b0b: a0 01        	ldy	#$1
    5b0d: b1 14        	lda	($14),y                 ; 0x2014 <f256main+0x16e6>
    5b0f: 85 13        	sta	$13                     ; 0x2013 <f256main+0x16e5>
    5b11: a0 0a        	ldy	#$a
    5b13: b1 12        	lda	($12),y                 ; 0x2012 <f256main+0x16e4>
    5b15: 85 12        	sta	$12                     ; 0x2012 <f256main+0x16e4>
    5b17: a2 1e        	ldx	#$1e
    5b19: 8e 64 87     	stx	$8764                   ; 0x8764 <dials+0x120>
    5b1c: a2 ca        	ldx	#$ca
    5b1e: 8e 65 87     	stx	$8765                   ; 0x8765 <dials+0x121>
    5b21: 9c 66 87     	stz	$8766                   ; 0x8766 <dials+0x122>
    5b24: a2 3c        	ldx	#$3c
    5b26: 8e 67 87     	stx	$8767                   ; 0x8767 <dials+0x123>
    5b29: 9c 68 87     	stz	$8768                   ; 0x8768 <dials+0x124>
    5b2c: 9c 69 87     	stz	$8769                   ; 0x8769 <dials+0x125>
    5b2f: 9c 6a 87     	stz	$876a                   ; 0x876a <dials+0x126>
    5b32: 9c 6b 87     	stz	$876b                   ; 0x876b <dials+0x127>
    5b35: 9c 6c 87     	stz	$876c                   ; 0x876c <dials+0x128>
    5b38: a2 20        	ldx	#$20
    5b3a: 8e 6d 87     	stx	$876d                   ; 0x876d <dials+0x129>
    5b3d: a2 01        	ldx	#$1
    5b3f: 8e 6e 87     	stx	$876e                   ; 0x876e <dials+0x12a>
    5b42: 9c 6f 87     	stz	$876f                   ; 0x876f <dials+0x12b>
    5b45: a2 04        	ldx	#$4
    5b47: 8e 70 87     	stx	$8770                   ; 0x8770 <dials+0x12c>
    5b4a: a2 10        	ldx	#$10
    5b4c: 8e 71 87     	stx	$8771                   ; 0x8771 <dials+0x12d>
    5b4f: 9c 72 87     	stz	$8772                   ; 0x8772 <dials+0x12e>
    5b52: a2 0d        	ldx	#$d
    5b54: 8e 73 87     	stx	$8773                   ; 0x8773 <dials+0x12f>
    5b57: 9c 74 87     	stz	$8774                   ; 0x8774 <dials+0x130>
    5b5a: 8e 75 87     	stx	$8775                   ; 0x8775 <dials+0x131>
    5b5d: a2 33        	ldx	#$33
    5b5f: 8e 76 87     	stx	$8776                   ; 0x8776 <dials+0x132>
    5b62: a9 ff        	lda	#$ff
    5b64: 8d 77 87     	sta	$8777                   ; 0x8777 <dials+0x133>
    5b67: 9c 79 87     	stz	$8779                   ; 0x8779 <dials+0x135>
    5b6a: a2 03        	ldx	#$3
    5b6c: 8e 7a 87     	stx	$877a                   ; 0x877a <dials+0x136>
    5b6f: 9c 7b 87     	stz	$877b                   ; 0x877b <dials+0x137>
    5b72: 9c 7c 87     	stz	$877c                   ; 0x877c <dials+0x138>
    5b75: 9c 7d 87     	stz	$877d                   ; 0x877d <dials+0x139>
    5b78: 9c 7e 87     	stz	$877e                   ; 0x877e <dials+0x13a>
    5b7b: 9c 7f 87     	stz	$877f                   ; 0x877f <dials+0x13b>
    5b7e: a0 54        	ldy	#$54
    5b80: 8c 80 87     	sty	$8780                   ; 0x8780 <dials+0x13c>
    5b83: a2 01        	ldx	#$1
    5b85: 8e 81 87     	stx	$8781                   ; 0x8781 <dials+0x13d>
    5b88: 9c 82 87     	stz	$8782                   ; 0x8782 <dials+0x13e>
    5b8b: 9c 83 87     	stz	$8783                   ; 0x8783 <dials+0x13f>
    5b8e: a2 10        	ldx	#$10
    5b90: 8e 84 87     	stx	$8784                   ; 0x8784 <dials+0x140>
    5b93: 8d 89 87     	sta	$8789                   ; 0x8789 <dials+0x145>
    5b96: 8d 8b 87     	sta	$878b                   ; 0x878b <dials+0x147>
    5b99: a9 0b        	lda	#$b
    5b9b: 8d 8c 87     	sta	$878c                   ; 0x878c <dials+0x148>
    5b9e: 9c 8d 87     	stz	$878d                   ; 0x878d <dials+0x149>
    5ba1: a9 03        	lda	#$3
    5ba3: 8d 8e 87     	sta	$878e                   ; 0x878e <dials+0x14a>
    5ba6: 9c 8f 87     	stz	$878f                   ; 0x878f <dials+0x14b>
    5ba9: 9c 90 87     	stz	$8790                   ; 0x8790 <dials+0x14c>
    5bac: 9c 91 87     	stz	$8791                   ; 0x8791 <dials+0x14d>
    5baf: 9c 92 87     	stz	$8792                   ; 0x8792 <dials+0x14e>
    5bb2: 9c 93 87     	stz	$8793                   ; 0x8793 <dials+0x14f>
    5bb5: 8c 94 87     	sty	$8794                   ; 0x8794 <dials+0x150>
    5bb8: a0 01        	ldy	#$1
    5bba: 8c 95 87     	sty	$8795                   ; 0x8795 <dials+0x151>
    5bbd: 9c 96 87     	stz	$8796                   ; 0x8796 <dials+0x152>
    5bc0: 9c 97 87     	stz	$8797                   ; 0x8797 <dials+0x153>
    5bc3: 8e 98 87     	stx	$8798                   ; 0x8798 <dials+0x154>
    5bc6: a0 ff        	ldy	#$ff
    5bc8: 8c 9d 87     	sty	$879d                   ; 0x879d <dials+0x159>
    5bcb: a6 12        	ldx	$12                     ; 0x2012 <f256main+0x16e4>
    5bcd: 8e a3 87     	stx	$87a3                   ; 0x87a3 <dials+0x15f>
    5bd0: 9c a4 87     	stz	$87a4                   ; 0x87a4 <dials+0x160>
    5bd3: 8c a5 87     	sty	$87a5                   ; 0x87a5 <dials+0x161>
    5bd6: 9c a6 87     	stz	$87a6                   ; 0x87a6 <dials+0x162>
    5bd9: 9c a7 87     	stz	$87a7                   ; 0x87a7 <dials+0x163>
    5bdc: 9c a8 87     	stz	$87a8                   ; 0x87a8 <dials+0x164>
    5bdf: 9c a9 87     	stz	$87a9                   ; 0x87a9 <dials+0x165>
    5be2: 9c aa 87     	stz	$87aa                   ; 0x87aa <dials+0x166>
    5be5: 9c ab 87     	stz	$87ab                   ; 0x87ab <dials+0x167>
    5be8: a2 f0        	ldx	#$f0
    5bea: 8e 9f 87     	stx	$879f                   ; 0x879f <dials+0x15b>
    5bed: a2 04        	ldx	#$4
    5bef: 8e a1 87     	stx	$87a1                   ; 0x87a1 <dials+0x15d>
    5bf2: a2 0f        	ldx	#$f
    5bf4: 8e a0 87     	stx	$87a0                   ; 0x87a0 <dials+0x15c>
    5bf7: 9c a2 87     	stz	$87a2                   ; 0x87a2 <dials+0x15e>
    5bfa: a2 64        	ldx	#$64
    5bfc: 86 12        	stx	$12                     ; 0x2012 <f256main+0x16e4>
    5bfe: a2 87        	ldx	#$87
    5c00: 86 13        	stx	$13                     ; 0x2013 <f256main+0x16e5>
    5c02: 20 a9 61     	jsr	$61a9 <updateDial>
    5c05: a2 1f        	ldx	#$1f
    5c07: 8e ac 87     	stx	$87ac                   ; 0x87ac <dials+0x168>
    5c0a: a2 3c        	ldx	#$3c
    5c0c: 8e af 87     	stx	$87af                   ; 0x87af <dials+0x16b>
    5c0f: a2 20        	ldx	#$20
    5c11: 8e b5 87     	stx	$87b5                   ; 0x87b5 <dials+0x171>
    5c14: a2 05        	ldx	#$5
    5c16: 8e b8 87     	stx	$87b8                   ; 0x87b8 <dials+0x174>
    5c19: a2 0c        	ldx	#$c
    5c1b: 8e c0 87     	stx	$87c0                   ; 0x87c0 <dials+0x17c>
    5c1e: a2 f0        	ldx	#$f0
    5c20: 8e e7 87     	stx	$87e7                   ; 0x87e7 <dials+0x1a3>
    5c23: a2 0f        	ldx	#$f
    5c25: 8e e8 87     	stx	$87e8                   ; 0x87e8 <dials+0x1a4>
    5c28: a2 03        	ldx	#$3
    5c2a: 8e c2 87     	stx	$87c2                   ; 0x87c2 <dials+0x17e>
    5c2d: 8e d6 87     	stx	$87d6                   ; 0x87d6 <dials+0x192>
    5c30: a5 cf        	lda	$cf                     ; 0x20cf <f256main+0x17a1>
    5c32: 85 12        	sta	$12                     ; 0x2012 <f256main+0x16e4>
    5c34: a4 d0        	ldy	$d0                     ; 0x20d0 <f256main+0x17a2>
    5c36: 84 13        	sty	$13                     ; 0x2013 <f256main+0x16e5>
    5c38: 18           	clc
    5c39: 69 04        	adc	#$4
    5c3b: 85 14        	sta	$14                     ; 0x2014 <f256main+0x16e6>
    5c3d: 98           	tya
    5c3e: 69 00        	adc	#$0
    5c40: 85 15        	sta	$15                     ; 0x2015 <f256main+0x16e7>
    5c42: 9c cd 87     	stz	$87cd                   ; 0x87cd <dials+0x189>
    5c45: 9c ce 87     	stz	$87ce                   ; 0x87ce <dials+0x18a>
    5c48: 9c cf 87     	stz	$87cf                   ; 0x87cf <dials+0x18b>
    5c4b: 9c d0 87     	stz	$87d0                   ; 0x87d0 <dials+0x18c>
    5c4e: 9c e1 87     	stz	$87e1                   ; 0x87e1 <dials+0x19d>
    5c51: 9c e2 87     	stz	$87e2                   ; 0x87e2 <dials+0x19e>
    5c54: 9c e3 87     	stz	$87e3                   ; 0x87e3 <dials+0x19f>
    5c57: 9c e4 87     	stz	$87e4                   ; 0x87e4 <dials+0x1a0>
    5c5a: a0 04        	ldy	#$4
    5c5c: b1 12        	lda	($12),y                 ; 0x2012 <f256main+0x16e4>
    5c5e: 85 12        	sta	$12                     ; 0x2012 <f256main+0x16e4>
    5c60: a0 01        	ldy	#$1
    5c62: 8c b6 87     	sty	$87b6                   ; 0x87b6 <dials+0x172>
    5c65: 8c c9 87     	sty	$87c9                   ; 0x87c9 <dials+0x185>
    5c68: 8c dd 87     	sty	$87dd                   ; 0x87dd <dials+0x199>
    5c6b: b1 14        	lda	($14),y                 ; 0x2014 <f256main+0x16e6>
    5c6d: 85 13        	sta	$13                     ; 0x2013 <f256main+0x16e5>
    5c6f: a0 09        	ldy	#$9
    5c71: b1 12        	lda	($12),y                 ; 0x2012 <f256main+0x16e4>
    5c73: 85 12        	sta	$12                     ; 0x2012 <f256main+0x16e4>
    5c75: e8           	inx
    5c76: 8e e9 87     	stx	$87e9                   ; 0x87e9 <dials+0x1a5>
    5c79: a2 e8        	ldx	#$e8
    5c7b: 8e ad 87     	stx	$87ad                   ; 0x87ad <dials+0x169>
    5c7e: 9c ae 87     	stz	$87ae                   ; 0x87ae <dials+0x16a>
    5c81: 9c b0 87     	stz	$87b0                   ; 0x87b0 <dials+0x16c>
    5c84: 9c b1 87     	stz	$87b1                   ; 0x87b1 <dials+0x16d>
    5c87: 9c b2 87     	stz	$87b2                   ; 0x87b2 <dials+0x16e>
    5c8a: 9c b3 87     	stz	$87b3                   ; 0x87b3 <dials+0x16f>
    5c8d: 9c b4 87     	stz	$87b4                   ; 0x87b4 <dials+0x170>
    5c90: 9c b7 87     	stz	$87b7                   ; 0x87b7 <dials+0x173>
    5c93: a9 10        	lda	#$10
    5c95: 8d b9 87     	sta	$87b9                   ; 0x87b9 <dials+0x175>
    5c98: 9c ba 87     	stz	$87ba                   ; 0x87ba <dials+0x176>
    5c9b: a2 0d        	ldx	#$d
    5c9d: 8e bb 87     	stx	$87bb                   ; 0x87bb <dials+0x177>
    5ca0: 9c bc 87     	stz	$87bc                   ; 0x87bc <dials+0x178>
    5ca3: 8e bd 87     	stx	$87bd                   ; 0x87bd <dials+0x179>
    5ca6: a2 34        	ldx	#$34
    5ca8: 8e be 87     	stx	$87be                   ; 0x87be <dials+0x17a>
    5cab: a2 ff        	ldx	#$ff
    5cad: 8e bf 87     	stx	$87bf                   ; 0x87bf <dials+0x17b>
    5cb0: 9c c1 87     	stz	$87c1                   ; 0x87c1 <dials+0x17d>
    5cb3: 9c c3 87     	stz	$87c3                   ; 0x87c3 <dials+0x17f>
    5cb6: 9c c4 87     	stz	$87c4                   ; 0x87c4 <dials+0x180>
    5cb9: 9c c5 87     	stz	$87c5                   ; 0x87c5 <dials+0x181>
    5cbc: 9c c6 87     	stz	$87c6                   ; 0x87c6 <dials+0x182>
    5cbf: 9c c7 87     	stz	$87c7                   ; 0x87c7 <dials+0x183>
    5cc2: a0 54        	ldy	#$54
    5cc4: 8c c8 87     	sty	$87c8                   ; 0x87c8 <dials+0x184>
    5cc7: 9c ca 87     	stz	$87ca                   ; 0x87ca <dials+0x186>
    5cca: 9c cb 87     	stz	$87cb                   ; 0x87cb <dials+0x187>
    5ccd: 8d cc 87     	sta	$87cc                   ; 0x87cc <dials+0x188>
    5cd0: 8e d1 87     	stx	$87d1                   ; 0x87d1 <dials+0x18d>
    5cd3: 8e d3 87     	stx	$87d3                   ; 0x87d3 <dials+0x18f>
    5cd6: a9 0d        	lda	#$d
    5cd8: 8d d4 87     	sta	$87d4                   ; 0x87d4 <dials+0x190>
    5cdb: 9c d5 87     	stz	$87d5                   ; 0x87d5 <dials+0x191>
    5cde: 9c d7 87     	stz	$87d7                   ; 0x87d7 <dials+0x193>
    5ce1: 9c d8 87     	stz	$87d8                   ; 0x87d8 <dials+0x194>
    5ce4: 9c d9 87     	stz	$87d9                   ; 0x87d9 <dials+0x195>
    5ce7: 9c da 87     	stz	$87da                   ; 0x87da <dials+0x196>
    5cea: 9c db 87     	stz	$87db                   ; 0x87db <dials+0x197>
    5ced: 8c dc 87     	sty	$87dc                   ; 0x87dc <dials+0x198>
    5cf0: 9c de 87     	stz	$87de                   ; 0x87de <dials+0x19a>
    5cf3: 9c df 87     	stz	$87df                   ; 0x87df <dials+0x19b>
    5cf6: a0 10        	ldy	#$10
    5cf8: 8c e0 87     	sty	$87e0                   ; 0x87e0 <dials+0x19c>
    5cfb: 8e e5 87     	stx	$87e5                   ; 0x87e5 <dials+0x1a1>
    5cfe: a4 12        	ldy	$12                     ; 0x2012 <f256main+0x16e4>
    5d00: 8c eb 87     	sty	$87eb                   ; 0x87eb <dials+0x1a7>
    5d03: 9c ec 87     	stz	$87ec                   ; 0x87ec <dials+0x1a8>
    5d06: 8e ed 87     	stx	$87ed                   ; 0x87ed <dials+0x1a9>
    5d09: 9c ee 87     	stz	$87ee                   ; 0x87ee <dials+0x1aa>
    5d0c: 9c ef 87     	stz	$87ef                   ; 0x87ef <dials+0x1ab>
    5d0f: 9c f0 87     	stz	$87f0                   ; 0x87f0 <dials+0x1ac>
    5d12: 9c f1 87     	stz	$87f1                   ; 0x87f1 <dials+0x1ad>
    5d15: 9c f2 87     	stz	$87f2                   ; 0x87f2 <dials+0x1ae>
    5d18: 9c f3 87     	stz	$87f3                   ; 0x87f3 <dials+0x1af>
    5d1b: 9c ea 87     	stz	$87ea                   ; 0x87ea <dials+0x1a6>
    5d1e: a2 ac        	ldx	#$ac
    5d20: 86 12        	stx	$12                     ; 0x2012 <f256main+0x16e4>
    5d22: a2 87        	ldx	#$87
    5d24: 86 13        	stx	$13                     ; 0x2013 <f256main+0x16e5>
    5d26: 20 a9 61     	jsr	$61a9 <updateDial>
    5d29: fa           	plx
    5d2a: 86 24        	stx	$24                     ; 0x2024 <f256main+0x16f6>
    5d2c: 60           	rts

00005d2d <bitmapClear>:
    5d2d: a0 00        	ldy	#$0
    5d2f: a2 00        	ldx	#$0
    5d31: 86 12        	stx	$12                     ; 0x2012 <f256main+0x16e4>
    5d33: a2 e0        	ldx	#$e0
    5d35: 86 13        	stx	$13                     ; 0x2013 <f256main+0x16e5>
    5d37: a9 01        	lda	#$1
    5d39: 2d 31 82     	and	$8231                   ; 0x8231 <_active>
    5d3c: 0a           	asl
    5d3d: 0a           	asl
    5d3e: aa           	tax
    5d3f: bd 26 82     	lda	$8226,x                 ; 0x8226 <_BITMAP_BASE+0x1>
    5d42: 85 14        	sta	$14                     ; 0x2014 <f256main+0x16e6>
    5d44: bd 27 82     	lda	$8227,x                 ; 0x8227 <_BITMAP_BASE+0x2>
    5d47: 06 14        	asl	$14                     ; 0x2014 <f256main+0x16e6>
    5d49: 2a           	rol
    5d4a: 06 14        	asl	$14                     ; 0x2014 <f256main+0x16e6>
    5d4c: 2a           	rol
    5d4d: 06 14        	asl	$14                     ; 0x2014 <f256main+0x16e6>
    5d4f: 2a           	rol
    5d50: a6 0f        	ldx	$f                      ; 0x200f <f256main+0x16e1>
    5d52: 86 17        	stx	$17                     ; 0x2017 <f256main+0x16e9>
    5d54: 78           	sei
    5d55: 85 18        	sta	$18                     ; 0x2018 <f256main+0x16ea>
    5d57: 85 0f        	sta	$f                      ; 0x200f <f256main+0x16e1>
    5d59: ad 32 82     	lda	$8232                   ; 0x8232 <_color>
    5d5c: a2 20        	ldx	#$20
    5d5e: 5a           	phy
    5d5f: a0 00        	ldy	#$0
    5d61: 84 14        	sty	$14                     ; 0x2014 <f256main+0x16e6>
    5d63: a0 e0        	ldy	#$e0
    5d65: 84 15        	sty	$15                     ; 0x2015 <f256main+0x16e7>
    5d67: 7a           	ply
    5d68: 86 16        	stx	$16                     ; 0x2016 <f256main+0x16e8>
    5d6a: 80 04        	bra	$5d70 <bitmapClear+0x43>
    5d6c: a6 16        	ldx	$16                     ; 0x2016 <f256main+0x16e8>
    5d6e: f0 11        	beq	$5d81 <bitmapClear+0x54>
    5d70: 92 14        	sta	($14)                   ; 0x2014 <f256main+0x16e6>
    5d72: 88           	dey
    5d73: c0 ff        	cpy	#$ff
    5d75: d0 02        	bne	$5d79 <bitmapClear+0x4c>
    5d77: c6 16        	dec	$16                     ; 0x2016 <f256main+0x16e8>
    5d79: e6 14        	inc	$14                     ; 0x2014 <f256main+0x16e6>
    5d7b: d0 ef        	bne	$5d6c <bitmapClear+0x3f>
    5d7d: e6 15        	inc	$15                     ; 0x2015 <f256main+0x16e7>
    5d7f: 80 eb        	bra	$5d6c <bitmapClear+0x3f>
    5d81: c0 00        	cpy	#$0
    5d83: d0 eb        	bne	$5d70 <bitmapClear+0x43>
    5d85: a6 18        	ldx	$18                     ; 0x2018 <f256main+0x16ea>
    5d87: e8           	inx
    5d88: 86 0f        	stx	$f                      ; 0x200f <f256main+0x16e1>
    5d8a: ad 32 82     	lda	$8232                   ; 0x8232 <_color>
    5d8d: a2 20        	ldx	#$20
    5d8f: a0 00        	ldy	#$0
    5d91: 48           	pha
    5d92: 98           	tya
    5d93: 85 14        	sta	$14                     ; 0x2014 <f256main+0x16e6>
    5d95: a9 e0        	lda	#$e0
    5d97: 85 15        	sta	$15                     ; 0x2015 <f256main+0x16e7>
    5d99: 68           	pla
    5d9a: 86 16        	stx	$16                     ; 0x2016 <f256main+0x16e8>
    5d9c: 80 04        	bra	$5da2 <bitmapClear+0x75>
    5d9e: a6 16        	ldx	$16                     ; 0x2016 <f256main+0x16e8>
    5da0: f0 11        	beq	$5db3 <bitmapClear+0x86>
    5da2: 92 14        	sta	($14)                   ; 0x2014 <f256main+0x16e6>
    5da4: 88           	dey
    5da5: c0 ff        	cpy	#$ff
    5da7: d0 02        	bne	$5dab <bitmapClear+0x7e>
    5da9: c6 16        	dec	$16                     ; 0x2016 <f256main+0x16e8>
    5dab: e6 14        	inc	$14                     ; 0x2014 <f256main+0x16e6>
    5dad: d0 ef        	bne	$5d9e <bitmapClear+0x71>
    5daf: e6 15        	inc	$15                     ; 0x2015 <f256main+0x16e7>
    5db1: 80 eb        	bra	$5d9e <bitmapClear+0x71>
    5db3: c0 00        	cpy	#$0
    5db5: d0 eb        	bne	$5da2 <bitmapClear+0x75>
    5db7: 18           	clc
    5db8: a5 18        	lda	$18                     ; 0x2018 <f256main+0x16ea>
    5dba: 69 02        	adc	#$2
    5dbc: 85 0f        	sta	$f                      ; 0x200f <f256main+0x16e1>
    5dbe: ad 32 82     	lda	$8232                   ; 0x8232 <_color>
    5dc1: a2 20        	ldx	#$20
    5dc3: a0 00        	ldy	#$0
    5dc5: 48           	pha
    5dc6: 98           	tya
    5dc7: 85 14        	sta	$14                     ; 0x2014 <f256main+0x16e6>
    5dc9: a9 e0        	lda	#$e0
    5dcb: 85 15        	sta	$15                     ; 0x2015 <f256main+0x16e7>
    5dcd: 68           	pla
    5dce: 86 16        	stx	$16                     ; 0x2016 <f256main+0x16e8>
    5dd0: 80 04        	bra	$5dd6 <bitmapClear+0xa9>
    5dd2: a6 16        	ldx	$16                     ; 0x2016 <f256main+0x16e8>
    5dd4: f0 11        	beq	$5de7 <bitmapClear+0xba>
    5dd6: 92 14        	sta	($14)                   ; 0x2014 <f256main+0x16e6>
    5dd8: 88           	dey
    5dd9: c0 ff        	cpy	#$ff
    5ddb: d0 02        	bne	$5ddf <bitmapClear+0xb2>
    5ddd: c6 16        	dec	$16                     ; 0x2016 <f256main+0x16e8>
    5ddf: e6 14        	inc	$14                     ; 0x2014 <f256main+0x16e6>
    5de1: d0 ef        	bne	$5dd2 <bitmapClear+0xa5>
    5de3: e6 15        	inc	$15                     ; 0x2015 <f256main+0x16e7>
    5de5: 80 eb        	bra	$5dd2 <bitmapClear+0xa5>
    5de7: c0 00        	cpy	#$0
    5de9: d0 eb        	bne	$5dd6 <bitmapClear+0xa9>
    5deb: 18           	clc
    5dec: a5 18        	lda	$18                     ; 0x2018 <f256main+0x16ea>
    5dee: 69 03        	adc	#$3
    5df0: 85 0f        	sta	$f                      ; 0x200f <f256main+0x16e1>
    5df2: ad 32 82     	lda	$8232                   ; 0x8232 <_color>
    5df5: a2 20        	ldx	#$20
    5df7: a0 00        	ldy	#$0
    5df9: 48           	pha
    5dfa: 98           	tya
    5dfb: 85 14        	sta	$14                     ; 0x2014 <f256main+0x16e6>
    5dfd: a9 e0        	lda	#$e0
    5dff: 85 15        	sta	$15                     ; 0x2015 <f256main+0x16e7>
    5e01: 68           	pla
    5e02: 86 16        	stx	$16                     ; 0x2016 <f256main+0x16e8>
    5e04: 80 04        	bra	$5e0a <bitmapClear+0xdd>
    5e06: a6 16        	ldx	$16                     ; 0x2016 <f256main+0x16e8>
    5e08: f0 11        	beq	$5e1b <bitmapClear+0xee>
    5e0a: 92 14        	sta	($14)                   ; 0x2014 <f256main+0x16e6>
    5e0c: 88           	dey
    5e0d: c0 ff        	cpy	#$ff
    5e0f: d0 02        	bne	$5e13 <bitmapClear+0xe6>
    5e11: c6 16        	dec	$16                     ; 0x2016 <f256main+0x16e8>
    5e13: e6 14        	inc	$14                     ; 0x2014 <f256main+0x16e6>
    5e15: d0 ef        	bne	$5e06 <bitmapClear+0xd9>
    5e17: e6 15        	inc	$15                     ; 0x2015 <f256main+0x16e7>
    5e19: 80 eb        	bra	$5e06 <bitmapClear+0xd9>
    5e1b: c0 00        	cpy	#$0
    5e1d: d0 eb        	bne	$5e0a <bitmapClear+0xdd>
    5e1f: 18           	clc
    5e20: a5 18        	lda	$18                     ; 0x2018 <f256main+0x16ea>
    5e22: 69 04        	adc	#$4
    5e24: 85 0f        	sta	$f                      ; 0x200f <f256main+0x16e1>
    5e26: ad 32 82     	lda	$8232                   ; 0x8232 <_color>
    5e29: a2 20        	ldx	#$20
    5e2b: a0 00        	ldy	#$0
    5e2d: 48           	pha
    5e2e: 98           	tya
    5e2f: 85 14        	sta	$14                     ; 0x2014 <f256main+0x16e6>
    5e31: a9 e0        	lda	#$e0
    5e33: 85 15        	sta	$15                     ; 0x2015 <f256main+0x16e7>
    5e35: 68           	pla
    5e36: 86 16        	stx	$16                     ; 0x2016 <f256main+0x16e8>
    5e38: 80 04        	bra	$5e3e <bitmapClear+0x111>
    5e3a: a6 16        	ldx	$16                     ; 0x2016 <f256main+0x16e8>
    5e3c: f0 11        	beq	$5e4f <bitmapClear+0x122>
    5e3e: 92 14        	sta	($14)                   ; 0x2014 <f256main+0x16e6>
    5e40: 88           	dey
    5e41: c0 ff        	cpy	#$ff
    5e43: d0 02        	bne	$5e47 <bitmapClear+0x11a>
    5e45: c6 16        	dec	$16                     ; 0x2016 <f256main+0x16e8>
    5e47: e6 14        	inc	$14                     ; 0x2014 <f256main+0x16e6>
    5e49: d0 ef        	bne	$5e3a <bitmapClear+0x10d>
    5e4b: e6 15        	inc	$15                     ; 0x2015 <f256main+0x16e7>
    5e4d: 80 eb        	bra	$5e3a <bitmapClear+0x10d>
    5e4f: c0 00        	cpy	#$0
    5e51: d0 eb        	bne	$5e3e <bitmapClear+0x111>
    5e53: 18           	clc
    5e54: a5 18        	lda	$18                     ; 0x2018 <f256main+0x16ea>
    5e56: 69 05        	adc	#$5
    5e58: 85 0f        	sta	$f                      ; 0x200f <f256main+0x16e1>
    5e5a: ad 32 82     	lda	$8232                   ; 0x8232 <_color>
    5e5d: a2 20        	ldx	#$20
    5e5f: a0 00        	ldy	#$0
    5e61: 48           	pha
    5e62: 98           	tya
    5e63: 85 14        	sta	$14                     ; 0x2014 <f256main+0x16e6>
    5e65: a9 e0        	lda	#$e0
    5e67: 85 15        	sta	$15                     ; 0x2015 <f256main+0x16e7>
    5e69: 68           	pla
    5e6a: 86 16        	stx	$16                     ; 0x2016 <f256main+0x16e8>
    5e6c: 80 04        	bra	$5e72 <bitmapClear+0x145>
    5e6e: a6 16        	ldx	$16                     ; 0x2016 <f256main+0x16e8>
    5e70: f0 11        	beq	$5e83 <bitmapClear+0x156>
    5e72: 92 14        	sta	($14)                   ; 0x2014 <f256main+0x16e6>
    5e74: 88           	dey
    5e75: c0 ff        	cpy	#$ff
    5e77: d0 02        	bne	$5e7b <bitmapClear+0x14e>
    5e79: c6 16        	dec	$16                     ; 0x2016 <f256main+0x16e8>
    5e7b: e6 14        	inc	$14                     ; 0x2014 <f256main+0x16e6>
    5e7d: d0 ef        	bne	$5e6e <bitmapClear+0x141>
    5e7f: e6 15        	inc	$15                     ; 0x2015 <f256main+0x16e7>
    5e81: 80 eb        	bra	$5e6e <bitmapClear+0x141>
    5e83: c0 00        	cpy	#$0
    5e85: d0 eb        	bne	$5e72 <bitmapClear+0x145>
    5e87: 18           	clc
    5e88: a5 18        	lda	$18                     ; 0x2018 <f256main+0x16ea>
    5e8a: 69 06        	adc	#$6
    5e8c: 85 0f        	sta	$f                      ; 0x200f <f256main+0x16e1>
    5e8e: ad 32 82     	lda	$8232                   ; 0x8232 <_color>
    5e91: a2 20        	ldx	#$20
    5e93: a0 00        	ldy	#$0
    5e95: 48           	pha
    5e96: 98           	tya
    5e97: 85 14        	sta	$14                     ; 0x2014 <f256main+0x16e6>
    5e99: a9 e0        	lda	#$e0
    5e9b: 85 15        	sta	$15                     ; 0x2015 <f256main+0x16e7>
    5e9d: 68           	pla
    5e9e: 86 16        	stx	$16                     ; 0x2016 <f256main+0x16e8>
    5ea0: 80 04        	bra	$5ea6 <bitmapClear+0x179>
    5ea2: a6 16        	ldx	$16                     ; 0x2016 <f256main+0x16e8>
    5ea4: f0 11        	beq	$5eb7 <bitmapClear+0x18a>
    5ea6: 92 14        	sta	($14)                   ; 0x2014 <f256main+0x16e6>
    5ea8: 88           	dey
    5ea9: c0 ff        	cpy	#$ff
    5eab: d0 02        	bne	$5eaf <bitmapClear+0x182>
    5ead: c6 16        	dec	$16                     ; 0x2016 <f256main+0x16e8>
    5eaf: e6 14        	inc	$14                     ; 0x2014 <f256main+0x16e6>
    5eb1: d0 ef        	bne	$5ea2 <bitmapClear+0x175>
    5eb3: e6 15        	inc	$15                     ; 0x2015 <f256main+0x16e7>
    5eb5: 80 eb        	bra	$5ea2 <bitmapClear+0x175>
    5eb7: c0 00        	cpy	#$0
    5eb9: d0 eb        	bne	$5ea6 <bitmapClear+0x179>
    5ebb: 18           	clc
    5ebc: a5 18        	lda	$18                     ; 0x2018 <f256main+0x16ea>
    5ebe: 69 07        	adc	#$7
    5ec0: 85 0f        	sta	$f                      ; 0x200f <f256main+0x16e1>
    5ec2: ad 32 82     	lda	$8232                   ; 0x8232 <_color>
    5ec5: a2 20        	ldx	#$20
    5ec7: a0 00        	ldy	#$0
    5ec9: 48           	pha
    5eca: 98           	tya
    5ecb: 85 14        	sta	$14                     ; 0x2014 <f256main+0x16e6>
    5ecd: a9 e0        	lda	#$e0
    5ecf: 85 15        	sta	$15                     ; 0x2015 <f256main+0x16e7>
    5ed1: 68           	pla
    5ed2: 86 16        	stx	$16                     ; 0x2016 <f256main+0x16e8>
    5ed4: 80 04        	bra	$5eda <bitmapClear+0x1ad>
    5ed6: a6 16        	ldx	$16                     ; 0x2016 <f256main+0x16e8>
    5ed8: f0 11        	beq	$5eeb <bitmapClear+0x1be>
    5eda: 92 14        	sta	($14)                   ; 0x2014 <f256main+0x16e6>
    5edc: 88           	dey
    5edd: c0 ff        	cpy	#$ff
    5edf: d0 02        	bne	$5ee3 <bitmapClear+0x1b6>
    5ee1: c6 16        	dec	$16                     ; 0x2016 <f256main+0x16e8>
    5ee3: e6 14        	inc	$14                     ; 0x2014 <f256main+0x16e6>
    5ee5: d0 ef        	bne	$5ed6 <bitmapClear+0x1a9>
    5ee7: e6 15        	inc	$15                     ; 0x2015 <f256main+0x16e7>
    5ee9: 80 eb        	bra	$5ed6 <bitmapClear+0x1a9>
    5eeb: c0 00        	cpy	#$0
    5eed: d0 eb        	bne	$5eda <bitmapClear+0x1ad>
    5eef: 18           	clc
    5ef0: a5 18        	lda	$18                     ; 0x2018 <f256main+0x16ea>
    5ef2: 69 08        	adc	#$8
    5ef4: 85 0f        	sta	$f                      ; 0x200f <f256main+0x16e1>
    5ef6: ad 32 82     	lda	$8232                   ; 0x8232 <_color>
    5ef9: a2 20        	ldx	#$20
    5efb: a0 00        	ldy	#$0
    5efd: 48           	pha
    5efe: 98           	tya
    5eff: 85 14        	sta	$14                     ; 0x2014 <f256main+0x16e6>
    5f01: a9 e0        	lda	#$e0
    5f03: 85 15        	sta	$15                     ; 0x2015 <f256main+0x16e7>
    5f05: 68           	pla
    5f06: 86 16        	stx	$16                     ; 0x2016 <f256main+0x16e8>
    5f08: 80 04        	bra	$5f0e <bitmapClear+0x1e1>
    5f0a: a6 16        	ldx	$16                     ; 0x2016 <f256main+0x16e8>
    5f0c: f0 11        	beq	$5f1f <bitmapClear+0x1f2>
    5f0e: 92 14        	sta	($14)                   ; 0x2014 <f256main+0x16e6>
    5f10: 88           	dey
    5f11: c0 ff        	cpy	#$ff
    5f13: d0 02        	bne	$5f17 <bitmapClear+0x1ea>
    5f15: c6 16        	dec	$16                     ; 0x2016 <f256main+0x16e8>
    5f17: e6 14        	inc	$14                     ; 0x2014 <f256main+0x16e6>
    5f19: d0 ef        	bne	$5f0a <bitmapClear+0x1dd>
    5f1b: e6 15        	inc	$15                     ; 0x2015 <f256main+0x16e7>
    5f1d: 80 eb        	bra	$5f0a <bitmapClear+0x1dd>
    5f1f: c0 00        	cpy	#$0
    5f21: d0 eb        	bne	$5f0e <bitmapClear+0x1e1>
    5f23: 18           	clc
    5f24: a5 18        	lda	$18                     ; 0x2018 <f256main+0x16ea>
    5f26: 69 09        	adc	#$9
    5f28: 85 0f        	sta	$f                      ; 0x200f <f256main+0x16e1>
    5f2a: ad 32 82     	lda	$8232                   ; 0x8232 <_color>
    5f2d: a2 14        	ldx	#$14
    5f2f: a0 00        	ldy	#$0
    5f31: 86 14        	stx	$14                     ; 0x2014 <f256main+0x16e6>
    5f33: 80 04        	bra	$5f39 <bitmapClear+0x20c>
    5f35: a6 14        	ldx	$14                     ; 0x2014 <f256main+0x16e6>
    5f37: f0 11        	beq	$5f4a <bitmapClear+0x21d>
    5f39: 92 12        	sta	($12)                   ; 0x2012 <f256main+0x16e4>
    5f3b: 88           	dey
    5f3c: c0 ff        	cpy	#$ff
    5f3e: d0 02        	bne	$5f42 <bitmapClear+0x215>
    5f40: c6 14        	dec	$14                     ; 0x2014 <f256main+0x16e6>
    5f42: e6 12        	inc	$12                     ; 0x2012 <f256main+0x16e4>
    5f44: d0 ef        	bne	$5f35 <bitmapClear+0x208>
    5f46: e6 13        	inc	$13                     ; 0x2013 <f256main+0x16e5>
    5f48: 80 eb        	bra	$5f35 <bitmapClear+0x208>
    5f4a: c0 00        	cpy	#$0
    5f4c: d0 eb        	bne	$5f39 <bitmapClear+0x20c>
    5f4e: a6 17        	ldx	$17                     ; 0x2017 <f256main+0x16e9>
    5f50: 86 0f        	stx	$f                      ; 0x200f <f256main+0x16e1>
    5f52: 58           	cli
    5f53: 60           	rts

00005f54 <setRadioB>:
    5f54: a0 13        	ldy	#$13
    5f56: 91 12        	sta	($12),y                 ; 0x2012 <f256main+0x16e4>
    5f58: c8           	iny
    5f59: 8a           	txa
    5f5a: 91 12        	sta	($12),y                 ; 0x2012 <f256main+0x16e4>
    5f5c: b2 12        	lda	($12)                   ; 0x2012 <f256main+0x16e4>
    5f5e: 85 18        	sta	$18                     ; 0x2018 <f256main+0x16ea>
    5f60: aa           	tax
    5f61: a0 0d        	ldy	#$d
    5f63: a9 f8        	lda	#$f8
    5f65: 18           	clc
    5f66: 71 12        	adc	($12),y                 ; 0x2012 <f256main+0x16e4>
    5f68: 85 15        	sta	$15                     ; 0x2015 <f256main+0x16e7>
    5f6a: 18           	clc
    5f6b: a5 12        	lda	$12                     ; 0x2012 <f256main+0x16e4>
    5f6d: 69 08        	adc	#$8
    5f6f: 85 16        	sta	$16                     ; 0x2016 <f256main+0x16e8>
    5f71: a5 13        	lda	$13                     ; 0x2013 <f256main+0x16e5>
    5f73: 69 00        	adc	#$0
    5f75: a0 08        	ldy	#$8
    5f77: 85 17        	sta	$17                     ; 0x2017 <f256main+0x16e9>
    5f79: b1 12        	lda	($12),y                 ; 0x2012 <f256main+0x16e4>
    5f7b: 85 19        	sta	$19                     ; 0x2019 <f256main+0x16eb>
    5f7d: a5 15        	lda	$15                     ; 0x2015 <f256main+0x16e7>
    5f7f: 46 15        	lsr	$15                     ; 0x2015 <f256main+0x16e7>
    5f81: 6a           	ror
    5f82: 85 15        	sta	$15                     ; 0x2015 <f256main+0x16e7>
    5f84: 46 15        	lsr	$15                     ; 0x2015 <f256main+0x16e7>
    5f86: 6a           	ror
    5f87: 85 15        	sta	$15                     ; 0x2015 <f256main+0x16e7>
    5f89: 46 15        	lsr	$15                     ; 0x2015 <f256main+0x16e7>
    5f8b: 6a           	ror
    5f8c: 85 15        	sta	$15                     ; 0x2015 <f256main+0x16e7>
    5f8e: a0 02        	ldy	#$2
    5f90: b1 16        	lda	($16),y                 ; 0x2016 <f256main+0x16e8>
    5f92: 85 1a        	sta	$1a                     ; 0x201a <f256main+0x16ec>
    5f94: 88           	dey
    5f95: b1 16        	lda	($16),y                 ; 0x2016 <f256main+0x16e8>
    5f97: 85 1b        	sta	$1b                     ; 0x201b <f256main+0x16ed>
    5f99: a5 15        	lda	$15                     ; 0x2015 <f256main+0x16e7>
    5f9b: c9 03        	cmp	#$3
    5f9d: 64 15        	stz	$15                     ; 0x2015 <f256main+0x16e7>
    5f9f: b0 0e        	bcs	$5faf <setRadioB+0x5b>
    5fa1: 0a           	asl
    5fa2: 0a           	asl
    5fa3: 0a           	asl
    5fa4: 0a           	asl
    5fa5: 0a           	asl
    5fa6: 85 15        	sta	$15                     ; 0x2015 <f256main+0x16e7>
    5fa8: a9 60        	lda	#$60
    5faa: 38           	sec
    5fab: e5 15        	sbc	$15                     ; 0x2015 <f256main+0x16e7>
    5fad: 85 15        	sta	$15                     ; 0x2015 <f256main+0x16e7>
    5faf: a5 15        	lda	$15                     ; 0x2015 <f256main+0x16e7>
    5fb1: 9d 35 82     	sta	$8235,x                 ; 0x8235 <_spriteCtl>
    5fb4: a6 15        	ldx	$15                     ; 0x2015 <f256main+0x16e7>
    5fb6: 06 18        	asl	$18                     ; 0x2018 <f256main+0x16ea>
    5fb8: 64 15        	stz	$15                     ; 0x2015 <f256main+0x16e7>
    5fba: 26 15        	rol	$15                     ; 0x2015 <f256main+0x16e7>
    5fbc: 06 18        	asl	$18                     ; 0x2018 <f256main+0x16ea>
    5fbe: 26 15        	rol	$15                     ; 0x2015 <f256main+0x16e7>
    5fc0: 06 18        	asl	$18                     ; 0x2018 <f256main+0x16ea>
    5fc2: 26 15        	rol	$15                     ; 0x2015 <f256main+0x16e7>
    5fc4: a5 18        	lda	$18                     ; 0x2018 <f256main+0x16ea>
    5fc6: 18           	clc
    5fc7: 69 00        	adc	#$0
    5fc9: 85 16        	sta	$16                     ; 0x2016 <f256main+0x16e8>
    5fcb: a5 15        	lda	$15                     ; 0x2015 <f256main+0x16e7>
    5fcd: 69 d9        	adc	#$d9
    5fcf: 85 17        	sta	$17                     ; 0x2017 <f256main+0x16e9>
    5fd1: 8a           	txa
    5fd2: 92 16        	sta	($16)                   ; 0x2016 <f256main+0x16e8>
    5fd4: a5 18        	lda	$18                     ; 0x2018 <f256main+0x16ea>
    5fd6: 18           	clc
    5fd7: 69 01        	adc	#$1
    5fd9: 85 16        	sta	$16                     ; 0x2016 <f256main+0x16e8>
    5fdb: a5 15        	lda	$15                     ; 0x2015 <f256main+0x16e7>
    5fdd: 69 d9        	adc	#$d9
    5fdf: 85 17        	sta	$17                     ; 0x2017 <f256main+0x16e9>
    5fe1: a5 19        	lda	$19                     ; 0x2019 <f256main+0x16eb>
    5fe3: 92 16        	sta	($16)                   ; 0x2016 <f256main+0x16e8>
    5fe5: a5 18        	lda	$18                     ; 0x2018 <f256main+0x16ea>
    5fe7: 18           	clc
    5fe8: 69 02        	adc	#$2
    5fea: 85 16        	sta	$16                     ; 0x2016 <f256main+0x16e8>
    5fec: a5 15        	lda	$15                     ; 0x2015 <f256main+0x16e7>
    5fee: 69 d9        	adc	#$d9
    5ff0: 85 17        	sta	$17                     ; 0x2017 <f256main+0x16e9>
    5ff2: a5 1b        	lda	$1b                     ; 0x201b <f256main+0x16ed>
    5ff4: 92 16        	sta	($16)                   ; 0x2016 <f256main+0x16e8>
    5ff6: 18           	clc
    5ff7: a5 18        	lda	$18                     ; 0x2018 <f256main+0x16ea>
    5ff9: 69 03        	adc	#$3
    5ffb: 85 16        	sta	$16                     ; 0x2016 <f256main+0x16e8>
    5ffd: a5 15        	lda	$15                     ; 0x2015 <f256main+0x16e7>
    5fff: 69 d9        	adc	#$d9
    6001: 85 17        	sta	$17                     ; 0x2017 <f256main+0x16e9>
    6003: a5 1a        	lda	$1a                     ; 0x201a <f256main+0x16ec>
    6005: 92 16        	sta	($16)                   ; 0x2016 <f256main+0x16e8>
    6007: b2 12        	lda	($12)                   ; 0x2012 <f256main+0x16e4>
    6009: 85 15        	sta	$15                     ; 0x2015 <f256main+0x16e7>
    600b: a5 12        	lda	$12                     ; 0x2012 <f256main+0x16e4>
    600d: 18           	clc
    600e: 69 03        	adc	#$3
    6010: 85 16        	sta	$16                     ; 0x2016 <f256main+0x16e8>
    6012: a5 13        	lda	$13                     ; 0x2013 <f256main+0x16e5>
    6014: 69 00        	adc	#$0
    6016: a6 15        	ldx	$15                     ; 0x2015 <f256main+0x16e7>
    6018: 85 17        	sta	$17                     ; 0x2017 <f256main+0x16e9>
    601a: a5 15        	lda	$15                     ; 0x2015 <f256main+0x16e7>
    601c: 0a           	asl
    601d: 64 15        	stz	$15                     ; 0x2015 <f256main+0x16e7>
    601f: 26 15        	rol	$15                     ; 0x2015 <f256main+0x16e7>
    6021: 0a           	asl
    6022: 26 15        	rol	$15                     ; 0x2015 <f256main+0x16e7>
    6024: 0a           	asl
    6025: 26 15        	rol	$15                     ; 0x2015 <f256main+0x16e7>
    6027: 85 1c        	sta	$1c                     ; 0x201c <f256main+0x16ee>
    6029: 18           	clc
    602a: 69 04        	adc	#$4
    602c: 85 1a        	sta	$1a                     ; 0x201a <f256main+0x16ec>
    602e: a5 15        	lda	$15                     ; 0x2015 <f256main+0x16e7>
    6030: 69 d9        	adc	#$d9
    6032: 85 1b        	sta	$1b                     ; 0x201b <f256main+0x16ed>
    6034: a5 12        	lda	$12                     ; 0x2012 <f256main+0x16e4>
    6036: 85 18        	sta	$18                     ; 0x2018 <f256main+0x16ea>
    6038: a5 13        	lda	$13                     ; 0x2013 <f256main+0x16e5>
    603a: 85 19        	sta	$19                     ; 0x2019 <f256main+0x16eb>
    603c: e6 18        	inc	$18                     ; 0x2018 <f256main+0x16ea>
    603e: d0 02        	bne	$6042 <setRadioB+0xee>
    6040: e6 19        	inc	$19                     ; 0x2019 <f256main+0x16eb>
    6042: b1 12        	lda	($12),y                 ; 0x2012 <f256main+0x16e4>
    6044: 85 1d        	sta	$1d                     ; 0x201d <f256main+0x16ef>
    6046: b1 18        	lda	($18),y                 ; 0x2018 <f256main+0x16ea>
    6048: 85 1e        	sta	$1e                     ; 0x201e <f256main+0x16f0>
    604a: a0 03        	ldy	#$3
    604c: b1 12        	lda	($12),y                 ; 0x2012 <f256main+0x16e4>
    604e: 85 18        	sta	$18                     ; 0x2018 <f256main+0x16ea>
    6050: a0 01        	ldy	#$1
    6052: b1 16        	lda	($16),y                 ; 0x2016 <f256main+0x16e8>
    6054: 85 19        	sta	$19                     ; 0x2019 <f256main+0x16eb>
    6056: a5 1d        	lda	$1d                     ; 0x201d <f256main+0x16ef>
    6058: 92 1a        	sta	($1a)                   ; 0x201a <f256main+0x16ec>
    605a: a5 1e        	lda	$1e                     ; 0x201e <f256main+0x16f0>
    605c: 91 1a        	sta	($1a),y                 ; 0x201a <f256main+0x16ec>
    605e: a5 1c        	lda	$1c                     ; 0x201c <f256main+0x16ee>
    6060: 85 d4        	sta	$d4                     ; 0x20d4 <f256main+0x17a6>
    6062: 18           	clc
    6063: 69 06        	adc	#$6
    6065: 85 16        	sta	$16                     ; 0x2016 <f256main+0x16e8>
    6067: a5 15        	lda	$15                     ; 0x2015 <f256main+0x16e7>
    6069: 85 d1        	sta	$d1                     ; 0x20d1 <f256main+0x17a3>
    606b: a5 15        	lda	$15                     ; 0x2015 <f256main+0x16e7>
    606d: 69 d9        	adc	#$d9
    606f: 85 17        	sta	$17                     ; 0x2017 <f256main+0x16e9>
    6071: a5 18        	lda	$18                     ; 0x2018 <f256main+0x16ea>
    6073: 92 16        	sta	($16)                   ; 0x2016 <f256main+0x16e8>
    6075: a5 19        	lda	$19                     ; 0x2019 <f256main+0x16eb>
    6077: 91 16        	sta	($16),y                 ; 0x2016 <f256main+0x16e8>
    6079: a5 14        	lda	$14                     ; 0x2014 <f256main+0x16e6>
    607b: d0 03        	bne	$6080 <setRadioB+0x12c>
    607d: 4c 90 61     	jmp	$6190 <setRadioB+0x23c>
    6080: 86 d7        	stx	$d7                     ; 0x20d7 <f256main+0x17a9>
    6082: a0 06        	ldy	#$6
    6084: a9 01        	lda	#$1
    6086: 91 12        	sta	($12),y                 ; 0x2012 <f256main+0x16e4>
    6088: a0 0d        	ldy	#$d
    608a: b1 12        	lda	($12),y                 ; 0x2012 <f256main+0x16e4>
    608c: 64 d2        	stz	$d2                     ; 0x20d2 <f256main+0x17a4>
    608e: a6 12        	ldx	$12                     ; 0x2012 <f256main+0x16e4>
    6090: 86 d5        	stx	$d5                     ; 0x20d5 <f256main+0x17a7>
    6092: a6 13        	ldx	$13                     ; 0x2013 <f256main+0x16e5>
    6094: 86 d6        	stx	$d6                     ; 0x20d6 <f256main+0x17a8>
    6096: 85 12        	sta	$12                     ; 0x2012 <f256main+0x16e4>
    6098: 85 d3        	sta	$d3                     ; 0x20d3 <f256main+0x17a5>
    609a: 64 13        	stz	$13                     ; 0x2013 <f256main+0x16e5>
    609c: a2 00        	ldx	#$0
    609e: 20 ff 7b     	jsr	$7bff <__mulhi3>
    60a1: a4 d5        	ldy	$d5                     ; 0x20d5 <f256main+0x17a7>
    60a3: 84 12        	sty	$12                     ; 0x2012 <f256main+0x16e4>
    60a5: a4 d6        	ldy	$d6                     ; 0x20d6 <f256main+0x17a8>
    60a7: 84 13        	sty	$13                     ; 0x2013 <f256main+0x16e5>
    60a9: 85 16        	sta	$16                     ; 0x2016 <f256main+0x16e8>
    60ab: a5 12        	lda	$12                     ; 0x2012 <f256main+0x16e4>
    60ad: 18           	clc
    60ae: 69 08        	adc	#$8
    60b0: 85 14        	sta	$14                     ; 0x2014 <f256main+0x16e6>
    60b2: 98           	tya
    60b3: 69 00        	adc	#$0
    60b5: 85 15        	sta	$15                     ; 0x2015 <f256main+0x16e7>
    60b7: a0 02        	ldy	#$2
    60b9: b1 14        	lda	($14),y                 ; 0x2014 <f256main+0x16e6>
    60bb: 85 17        	sta	$17                     ; 0x2017 <f256main+0x16e9>
    60bd: c8           	iny
    60be: b1 14        	lda	($14),y                 ; 0x2014 <f256main+0x16e6>
    60c0: 85 19        	sta	$19                     ; 0x2019 <f256main+0x16eb>
    60c2: 18           	clc
    60c3: a5 16        	lda	$16                     ; 0x2016 <f256main+0x16e8>
    60c5: a0 08        	ldy	#$8
    60c7: 71 12        	adc	($12),y                 ; 0x2012 <f256main+0x16e4>
    60c9: 85 16        	sta	$16                     ; 0x2016 <f256main+0x16e8>
    60cb: a0 01        	ldy	#$1
    60cd: 8a           	txa
    60ce: 71 14        	adc	($14),y                 ; 0x2014 <f256main+0x16e6>
    60d0: aa           	tax
    60d1: a5 16        	lda	$16                     ; 0x2016 <f256main+0x16e8>
    60d3: 85 18        	sta	$18                     ; 0x2018 <f256main+0x16ea>
    60d5: a0 08        	ldy	#$8
    60d7: 91 12        	sta	($12),y                 ; 0x2012 <f256main+0x16e4>
    60d9: 86 16        	stx	$16                     ; 0x2016 <f256main+0x16e8>
    60db: 8a           	txa
    60dc: a0 01        	ldy	#$1
    60de: 91 14        	sta	($14),y                 ; 0x2014 <f256main+0x16e6>
    60e0: a5 17        	lda	$17                     ; 0x2017 <f256main+0x16e9>
    60e2: 69 00        	adc	#$0
    60e4: 85 17        	sta	$17                     ; 0x2017 <f256main+0x16e9>
    60e6: c8           	iny
    60e7: 91 14        	sta	($14),y                 ; 0x2014 <f256main+0x16e6>
    60e9: a5 19        	lda	$19                     ; 0x2019 <f256main+0x16eb>
    60eb: 69 00        	adc	#$0
    60ed: c8           	iny
    60ee: 91 14        	sta	($14),y                 ; 0x2014 <f256main+0x16e6>
    60f0: 18           	clc
    60f1: a5 d3        	lda	$d3                     ; 0x20d3 <f256main+0x17a5>
    60f3: 69 f8        	adc	#$f8
    60f5: aa           	tax
    60f6: 4a           	lsr
    60f7: 8a           	txa
    60f8: 6a           	ror
    60f9: aa           	tax
    60fa: 4a           	lsr
    60fb: 8a           	txa
    60fc: 6a           	ror
    60fd: aa           	tax
    60fe: 4a           	lsr
    60ff: 8a           	txa
    6100: 6a           	ror
    6101: c9 03        	cmp	#$3
    6103: 64 14        	stz	$14                     ; 0x2014 <f256main+0x16e6>
    6105: b0 0e        	bcs	$6115 <setRadioB+0x1c1>
    6107: 0a           	asl
    6108: 0a           	asl
    6109: 0a           	asl
    610a: 0a           	asl
    610b: 0a           	asl
    610c: 85 14        	sta	$14                     ; 0x2014 <f256main+0x16e6>
    610e: a9 60        	lda	#$60
    6110: 38           	sec
    6111: e5 14        	sbc	$14                     ; 0x2014 <f256main+0x16e6>
    6113: 85 14        	sta	$14                     ; 0x2014 <f256main+0x16e6>
    6115: a6 d7        	ldx	$d7                     ; 0x20d7 <f256main+0x17a9>
    6117: a5 14        	lda	$14                     ; 0x2014 <f256main+0x16e6>
    6119: 9d 35 82     	sta	$8235,x                 ; 0x8235 <_spriteCtl>
    611c: a4 14        	ldy	$14                     ; 0x2014 <f256main+0x16e6>
    611e: 18           	clc
    611f: a5 d4        	lda	$d4                     ; 0x20d4 <f256main+0x17a6>
    6121: 69 00        	adc	#$0
    6123: 85 14        	sta	$14                     ; 0x2014 <f256main+0x16e6>
    6125: a5 d1        	lda	$d1                     ; 0x20d1 <f256main+0x17a3>
    6127: 69 d9        	adc	#$d9
    6129: 85 15        	sta	$15                     ; 0x2015 <f256main+0x16e7>
    612b: 98           	tya
    612c: 92 14        	sta	($14)                   ; 0x2014 <f256main+0x16e6>
    612e: 18           	clc
    612f: a5 d4        	lda	$d4                     ; 0x20d4 <f256main+0x17a6>
    6131: 69 01        	adc	#$1
    6133: 85 14        	sta	$14                     ; 0x2014 <f256main+0x16e6>
    6135: a5 d1        	lda	$d1                     ; 0x20d1 <f256main+0x17a3>
    6137: 69 d9        	adc	#$d9
    6139: 85 15        	sta	$15                     ; 0x2015 <f256main+0x16e7>
    613b: a5 18        	lda	$18                     ; 0x2018 <f256main+0x16ea>
    613d: 92 14        	sta	($14)                   ; 0x2014 <f256main+0x16e6>
    613f: 18           	clc
    6140: a5 d4        	lda	$d4                     ; 0x20d4 <f256main+0x17a6>
    6142: 69 02        	adc	#$2
    6144: 85 14        	sta	$14                     ; 0x2014 <f256main+0x16e6>
    6146: a5 d1        	lda	$d1                     ; 0x20d1 <f256main+0x17a3>
    6148: 69 d9        	adc	#$d9
    614a: 85 15        	sta	$15                     ; 0x2015 <f256main+0x16e7>
    614c: a5 16        	lda	$16                     ; 0x2016 <f256main+0x16e8>
    614e: 92 14        	sta	($14)                   ; 0x2014 <f256main+0x16e6>
    6150: 18           	clc
    6151: a5 d4        	lda	$d4                     ; 0x20d4 <f256main+0x17a6>
    6153: 69 03        	adc	#$3
    6155: 85 14        	sta	$14                     ; 0x2014 <f256main+0x16e6>
    6157: a5 d1        	lda	$d1                     ; 0x20d1 <f256main+0x17a3>
    6159: 69 d9        	adc	#$d9
    615b: 85 15        	sta	$15                     ; 0x2015 <f256main+0x16e7>
    615d: a5 17        	lda	$17                     ; 0x2017 <f256main+0x16e9>
    615f: 92 14        	sta	($14)                   ; 0x2014 <f256main+0x16e6>
    6161: b2 12        	lda	($12)                   ; 0x2012 <f256main+0x16e4>
    6163: aa           	tax
    6164: 0a           	asl
    6165: 64 14        	stz	$14                     ; 0x2014 <f256main+0x16e6>
    6167: 26 14        	rol	$14                     ; 0x2014 <f256main+0x16e6>
    6169: 0a           	asl
    616a: 26 14        	rol	$14                     ; 0x2014 <f256main+0x16e6>
    616c: 0a           	asl
    616d: 26 14        	rol	$14                     ; 0x2014 <f256main+0x16e6>
    616f: 18           	clc
    6170: 69 00        	adc	#$0
    6172: a8           	tay
    6173: a5 14        	lda	$14                     ; 0x2014 <f256main+0x16e6>
    6175: 69 d9        	adc	#$d9
    6177: 84 14        	sty	$14                     ; 0x2014 <f256main+0x16e6>
    6179: 85 15        	sta	$15                     ; 0x2015 <f256main+0x16e7>
    617b: a9 01        	lda	#$1
    617d: 1d 35 82     	ora	$8235,x                 ; 0x8235 <_spriteCtl>
    6180: 92 14        	sta	($14)                   ; 0x2014 <f256main+0x16e6>
    6182: b2 12        	lda	($12)                   ; 0x2012 <f256main+0x16e4>
    6184: aa           	tax
    6185: 0a           	asl
    6186: 26 d2        	rol	$d2                     ; 0x20d2 <f256main+0x17a4>
    6188: 0a           	asl
    6189: 26 d2        	rol	$d2                     ; 0x20d2 <f256main+0x17a4>
    618b: 0a           	asl
    618c: 26 d2        	rol	$d2                     ; 0x20d2 <f256main+0x17a4>
    618e: 80 06        	bra	$6196 <setRadioB+0x242>
    6190: a4 15        	ldy	$15                     ; 0x2015 <f256main+0x16e7>
    6192: 84 d2        	sty	$d2                     ; 0x20d2 <f256main+0x17a4>
    6194: a5 d4        	lda	$d4                     ; 0x20d4 <f256main+0x17a6>
    6196: 18           	clc
    6197: 69 00        	adc	#$0
    6199: 85 12        	sta	$12                     ; 0x2012 <f256main+0x16e4>
    619b: a5 d2        	lda	$d2                     ; 0x20d2 <f256main+0x17a4>
    619d: 69 d9        	adc	#$d9
    619f: 85 13        	sta	$13                     ; 0x2013 <f256main+0x16e5>
    61a1: a9 01        	lda	#$1
    61a3: 1d 35 82     	ora	$8235,x                 ; 0x8235 <_spriteCtl>
    61a6: 92 12        	sta	($12)                   ; 0x2012 <f256main+0x16e4>
    61a8: 60           	rts

000061a9 <updateDial>:
    61a9: 18           	clc
    61aa: a5 10        	lda	$10                     ; 0x2010 <f256main+0x16e2>
    61ac: 69 ff        	adc	#$ff
    61ae: 85 10        	sta	$10                     ; 0x2010 <f256main+0x16e2>
    61b0: a5 11        	lda	$11                     ; 0x2011 <f256main+0x16e3>
    61b2: 69 ff        	adc	#$ff
    61b4: 85 11        	sta	$11                     ; 0x2011 <f256main+0x16e3>
    61b6: a6 24        	ldx	$24                     ; 0x2024 <f256main+0x16f6>
    61b8: da           	phx
    61b9: a6 25        	ldx	$25                     ; 0x2025 <f256main+0x16f7>
    61bb: da           	phx
    61bc: a6 26        	ldx	$26                     ; 0x2026 <f256main+0x16f8>
    61be: da           	phx
    61bf: a6 12        	ldx	$12                     ; 0x2012 <f256main+0x16e4>
    61c1: 86 24        	stx	$24                     ; 0x2024 <f256main+0x16f6>
    61c3: a6 13        	ldx	$13                     ; 0x2013 <f256main+0x16e5>
    61c5: 86 25        	stx	$25                     ; 0x2025 <f256main+0x16f7>
    61c7: a0 3f        	ldy	#$3f
    61c9: b1 12        	lda	($12),y                 ; 0x2012 <f256main+0x16e4>
    61cb: aa           	tax
    61cc: c8           	iny
    61cd: b1 12        	lda	($12),y                 ; 0x2012 <f256main+0x16e4>
    61cf: 86 26        	stx	$26                     ; 0x2026 <f256main+0x16f8>
    61d1: 86 13        	stx	$13                     ; 0x2013 <f256main+0x16e5>
    61d3: c5 13        	cmp	$13                     ; 0x2013 <f256main+0x16e5>
    61d5: 64 13        	stz	$13                     ; 0x2013 <f256main+0x16e5>
    61d7: 48           	pha
    61d8: a9 00        	lda	#$0
    61da: a8           	tay
    61db: 91 10        	sta	($10),y                 ; 0x2010 <f256main+0x16e2>
    61dd: 68           	pla
    61de: b0 41        	bcs	$6221 <updateDial+0x78>
    61e0: 85 16        	sta	$16                     ; 0x2016 <f256main+0x16e8>
    61e2: a0 41        	ldy	#$41
    61e4: b1 24        	lda	($24),y                 ; 0x2024 <f256main+0x16f6>
    61e6: 85 13        	sta	$13                     ; 0x2013 <f256main+0x16e5>
    61e8: e4 13        	cpx	$13                     ; 0x2013 <f256main+0x16e5>
    61ea: a2 07        	ldx	#$7
    61ec: 48           	pha
    61ed: 8a           	txa
    61ee: a0 00        	ldy	#$0
    61f0: 91 10        	sta	($10),y                 ; 0x2010 <f256main+0x16e2>
    61f2: 68           	pla
    61f3: b0 2c        	bcs	$6221 <updateDial+0x78>
    61f5: 38           	sec
    61f6: e5 16        	sbc	$16                     ; 0x2016 <f256main+0x16e8>
    61f8: 85 12        	sta	$12                     ; 0x2012 <f256main+0x16e4>
    61fa: a9 00        	lda	#$0
    61fc: e9 00        	sbc	#$0
    61fe: e6 12        	inc	$12                     ; 0x2012 <f256main+0x16e4>
    6200: d0 01        	bne	$6203 <updateDial+0x5a>
    6202: 1a           	inc
    6203: 4a           	lsr
    6204: 66 12        	ror	$12                     ; 0x2012 <f256main+0x16e4>
    6206: 4a           	lsr
    6207: 66 12        	ror	$12                     ; 0x2012 <f256main+0x16e4>
    6209: 4a           	lsr
    620a: 66 12        	ror	$12                     ; 0x2012 <f256main+0x16e4>
    620c: a5 26        	lda	$26                     ; 0x2026 <f256main+0x16f8>
    620e: 38           	sec
    620f: e5 16        	sbc	$16                     ; 0x2016 <f256main+0x16e8>
    6211: a8           	tay
    6212: a9 00        	lda	#$0
    6214: e9 00        	sbc	#$0
    6216: 64 13        	stz	$13                     ; 0x2013 <f256main+0x16e5>
    6218: aa           	tax
    6219: 98           	tya
    621a: 20 a1 7c     	jsr	$7ca1 <__udivhi3>
    621d: a0 00        	ldy	#$0
    621f: 91 10        	sta	($10),y                 ; 0x2010 <f256main+0x16e2>
    6221: a6 26        	ldx	$26                     ; 0x2026 <f256main+0x16f8>
    6223: a0 3d        	ldy	#$3d
    6225: b1 24        	lda	($24),y                 ; 0x2024 <f256main+0x16f6>
    6227: 85 12        	sta	$12                     ; 0x2012 <f256main+0x16e4>
    6229: 30 0c        	bmi	$6237 <updateDial+0x8e>
    622b: a0 3b        	ldy	#$3b
    622d: 8a           	txa
    622e: 31 24        	and	($24),y                 ; 0x2024 <f256main+0x16f6>
    6230: a2 00        	ldx	#$0
    6232: 20 ec 7b     	jsr	$7bec <__lshrhi3>
    6235: 80 11        	bra	$6248 <updateDial+0x9f>
    6237: a9 00        	lda	#$0
    6239: 38           	sec
    623a: e5 12        	sbc	$12                     ; 0x2012 <f256main+0x16e4>
    623c: 85 12        	sta	$12                     ; 0x2012 <f256main+0x16e4>
    623e: a0 3b        	ldy	#$3b
    6240: 8a           	txa
    6241: 31 24        	and	($24),y                 ; 0x2024 <f256main+0x16f6>
    6243: a2 00        	ldx	#$0
    6245: 20 d9 7b     	jsr	$7bd9 <__ashlhi3>
    6248: 29 0f        	and	#$f
    624a: a0 26        	ldy	#$26
    624c: 85 16        	sta	$16                     ; 0x2016 <f256main+0x16e8>
    624e: 91 24        	sta	($24),y                 ; 0x2024 <f256main+0x16f6>
    6250: a5 24        	lda	$24                     ; 0x2024 <f256main+0x16f6>
    6252: 18           	clc
    6253: 69 14        	adc	#$14
    6255: 85 14        	sta	$14                     ; 0x2014 <f256main+0x16e6>
    6257: a5 25        	lda	$25                     ; 0x2025 <f256main+0x16f7>
    6259: 69 00        	adc	#$0
    625b: a0 14        	ldy	#$14
    625d: 85 15        	sta	$15                     ; 0x2015 <f256main+0x16e7>
    625f: b1 24        	lda	($24),y                 ; 0x2024 <f256main+0x16f6>
    6261: a0 01        	ldy	#$1
    6263: 0a           	asl
    6264: 85 12        	sta	$12                     ; 0x2012 <f256main+0x16e4>
    6266: b1 14        	lda	($14),y                 ; 0x2014 <f256main+0x16e6>
    6268: 2a           	rol
    6269: 85 13        	sta	$13                     ; 0x2013 <f256main+0x16e5>
    626b: 18           	clc
    626c: a5 24        	lda	$24                     ; 0x2024 <f256main+0x16f6>
    626e: 69 16        	adc	#$16
    6270: 85 14        	sta	$14                     ; 0x2014 <f256main+0x16e6>
    6272: a5 25        	lda	$25                     ; 0x2025 <f256main+0x16f7>
    6274: 69 00        	adc	#$0
    6276: a0 16        	ldy	#$16
    6278: 85 15        	sta	$15                     ; 0x2015 <f256main+0x16e7>
    627a: b1 24        	lda	($24),y                 ; 0x2024 <f256main+0x16f6>
    627c: aa           	tax
    627d: a0 01        	ldy	#$1
    627f: b1 14        	lda	($14),y                 ; 0x2014 <f256main+0x16e6>
    6281: 85 14        	sta	$14                     ; 0x2014 <f256main+0x16e6>
    6283: 8a           	txa
    6284: 0a           	asl
    6285: 26 14        	rol	$14                     ; 0x2014 <f256main+0x16e6>
    6287: 0a           	asl
    6288: 26 14        	rol	$14                     ; 0x2014 <f256main+0x16e6>
    628a: a6 14        	ldx	$14                     ; 0x2014 <f256main+0x16e6>
    628c: 86 15        	stx	$15                     ; 0x2015 <f256main+0x16e7>
    628e: 0a           	asl
    628f: 85 14        	sta	$14                     ; 0x2014 <f256main+0x16e6>
    6291: 26 15        	rol	$15                     ; 0x2015 <f256main+0x16e7>
    6293: 0a           	asl
    6294: aa           	tax
    6295: a5 15        	lda	$15                     ; 0x2015 <f256main+0x16e7>
    6297: 2a           	rol
    6298: 86 17        	stx	$17                     ; 0x2017 <f256main+0x16e9>
    629a: 06 17        	asl	$17                     ; 0x2017 <f256main+0x16e9>
    629c: 2a           	rol
    629d: aa           	tax
    629e: 18           	clc
    629f: a5 17        	lda	$17                     ; 0x2017 <f256main+0x16e9>
    62a1: 65 14        	adc	$14                     ; 0x2014 <f256main+0x16e6>
    62a3: 85 14        	sta	$14                     ; 0x2014 <f256main+0x16e6>
    62a5: 8a           	txa
    62a6: 65 15        	adc	$15                     ; 0x2015 <f256main+0x16e7>
    62a8: aa           	tax
    62a9: 18           	clc
    62aa: a5 14        	lda	$14                     ; 0x2014 <f256main+0x16e6>
    62ac: 65 12        	adc	$12                     ; 0x2012 <f256main+0x16e4>
    62ae: 85 12        	sta	$12                     ; 0x2012 <f256main+0x16e4>
    62b0: 8a           	txa
    62b1: 65 13        	adc	$13                     ; 0x2013 <f256main+0x16e5>
    62b3: 85 13        	sta	$13                     ; 0x2013 <f256main+0x16e5>
    62b5: 10 04        	bpl	$62bb <updateDial+0x112>
    62b7: a2 ff        	ldx	#$ff
    62b9: 80 02        	bra	$62bd <updateDial+0x114>
    62bb: a2 00        	ldx	#$0
    62bd: 18           	clc
    62be: a5 12        	lda	$12                     ; 0x2012 <f256main+0x16e4>
    62c0: 69 00        	adc	#$0
    62c2: 85 14        	sta	$14                     ; 0x2014 <f256main+0x16e6>
    62c4: a5 13        	lda	$13                     ; 0x2013 <f256main+0x16e5>
    62c6: 69 54        	adc	#$54
    62c8: 85 13        	sta	$13                     ; 0x2013 <f256main+0x16e5>
    62ca: 8a           	txa
    62cb: 69 01        	adc	#$1
    62cd: 5a           	phy
    62ce: a6 13        	ldx	$13                     ; 0x2013 <f256main+0x16e5>
    62d0: 86 12        	stx	$12                     ; 0x2012 <f256main+0x16e4>
    62d2: 06 12        	asl	$12                     ; 0x2012 <f256main+0x16e4>
    62d4: 2a           	rol
    62d5: 06 12        	asl	$12                     ; 0x2012 <f256main+0x16e4>
    62d7: 2a           	rol
    62d8: 06 12        	asl	$12                     ; 0x2012 <f256main+0x16e4>
    62da: 2a           	rol
    62db: a6 0f        	ldx	$f                      ; 0x200f <f256main+0x16e1>
    62dd: 78           	sei
    62de: 85 0f        	sta	$f                      ; 0x200f <f256main+0x16e1>
    62e0: a5 13        	lda	$13                     ; 0x2013 <f256main+0x16e5>
    62e2: 09 e0        	ora	#$e0
    62e4: a4 14        	ldy	$14                     ; 0x2014 <f256main+0x16e6>
    62e6: 84 12        	sty	$12                     ; 0x2012 <f256main+0x16e4>
    62e8: 7a           	ply
    62e9: 85 13        	sta	$13                     ; 0x2013 <f256main+0x16e5>
    62eb: a5 16        	lda	$16                     ; 0x2016 <f256main+0x16e8>
    62ed: 92 12        	sta	($12)                   ; 0x2012 <f256main+0x16e4>
    62ef: a9 00        	lda	#$0
    62f1: 91 12        	sta	($12),y                 ; 0x2012 <f256main+0x16e4>
    62f3: 86 0f        	stx	$f                      ; 0x200f <f256main+0x16e1>
    62f5: 58           	cli
    62f6: a0 3c        	ldy	#$3c
    62f8: b1 24        	lda	($24),y                 ; 0x2024 <f256main+0x16f6>
    62fa: d0 03        	bne	$62ff <updateDial+0x156>
    62fc: 4c d3 63     	jmp	$63d3 <updateDial+0x22a>
    62ff: aa           	tax
    6300: a0 3e        	ldy	#$3e
    6302: b1 24        	lda	($24),y                 ; 0x2024 <f256main+0x16f6>
    6304: 85 12        	sta	$12                     ; 0x2012 <f256main+0x16e4>
    6306: 30 0c        	bmi	$6314 <updateDial+0x16b>
    6308: a0 3f        	ldy	#$3f
    630a: 8a           	txa
    630b: 31 24        	and	($24),y                 ; 0x2024 <f256main+0x16f6>
    630d: a2 00        	ldx	#$0
    630f: 20 ec 7b     	jsr	$7bec <__lshrhi3>
    6312: 80 11        	bra	$6325 <updateDial+0x17c>
    6314: a9 00        	lda	#$0
    6316: 38           	sec
    6317: e5 12        	sbc	$12                     ; 0x2012 <f256main+0x16e4>
    6319: 85 12        	sta	$12                     ; 0x2012 <f256main+0x16e4>
    631b: a0 3f        	ldy	#$3f
    631d: 8a           	txa
    631e: 31 24        	and	($24),y                 ; 0x2024 <f256main+0x16f6>
    6320: a2 00        	ldx	#$0
    6322: 20 d9 7b     	jsr	$7bd9 <__ashlhi3>
    6325: 29 0f        	and	#$f
    6327: a0 3a        	ldy	#$3a
    6329: 85 16        	sta	$16                     ; 0x2016 <f256main+0x16e8>
    632b: 91 24        	sta	($24),y                 ; 0x2024 <f256main+0x16f6>
    632d: a5 24        	lda	$24                     ; 0x2024 <f256main+0x16f6>
    632f: 18           	clc
    6330: 69 28        	adc	#$28
    6332: 85 14        	sta	$14                     ; 0x2014 <f256main+0x16e6>
    6334: a5 25        	lda	$25                     ; 0x2025 <f256main+0x16f7>
    6336: 69 00        	adc	#$0
    6338: a0 28        	ldy	#$28
    633a: 85 15        	sta	$15                     ; 0x2015 <f256main+0x16e7>
    633c: b1 24        	lda	($24),y                 ; 0x2024 <f256main+0x16f6>
    633e: a0 01        	ldy	#$1
    6340: 0a           	asl
    6341: 85 12        	sta	$12                     ; 0x2012 <f256main+0x16e4>
    6343: b1 14        	lda	($14),y                 ; 0x2014 <f256main+0x16e6>
    6345: 2a           	rol
    6346: 85 13        	sta	$13                     ; 0x2013 <f256main+0x16e5>
    6348: 18           	clc
    6349: a5 24        	lda	$24                     ; 0x2024 <f256main+0x16f6>
    634b: 69 2a        	adc	#$2a
    634d: 85 14        	sta	$14                     ; 0x2014 <f256main+0x16e6>
    634f: a5 25        	lda	$25                     ; 0x2025 <f256main+0x16f7>
    6351: 69 00        	adc	#$0
    6353: a0 2a        	ldy	#$2a
    6355: 85 15        	sta	$15                     ; 0x2015 <f256main+0x16e7>
    6357: b1 24        	lda	($24),y                 ; 0x2024 <f256main+0x16f6>
    6359: aa           	tax
    635a: a0 01        	ldy	#$1
    635c: b1 14        	lda	($14),y                 ; 0x2014 <f256main+0x16e6>
    635e: 85 14        	sta	$14                     ; 0x2014 <f256main+0x16e6>
    6360: 8a           	txa
    6361: 0a           	asl
    6362: 26 14        	rol	$14                     ; 0x2014 <f256main+0x16e6>
    6364: 0a           	asl
    6365: 26 14        	rol	$14                     ; 0x2014 <f256main+0x16e6>
    6367: a6 14        	ldx	$14                     ; 0x2014 <f256main+0x16e6>
    6369: 86 15        	stx	$15                     ; 0x2015 <f256main+0x16e7>
    636b: 0a           	asl
    636c: 85 14        	sta	$14                     ; 0x2014 <f256main+0x16e6>
    636e: 26 15        	rol	$15                     ; 0x2015 <f256main+0x16e7>
    6370: 0a           	asl
    6371: aa           	tax
    6372: a5 15        	lda	$15                     ; 0x2015 <f256main+0x16e7>
    6374: 2a           	rol
    6375: 86 17        	stx	$17                     ; 0x2017 <f256main+0x16e9>
    6377: 06 17        	asl	$17                     ; 0x2017 <f256main+0x16e9>
    6379: 2a           	rol
    637a: aa           	tax
    637b: 18           	clc
    637c: a5 17        	lda	$17                     ; 0x2017 <f256main+0x16e9>
    637e: 65 14        	adc	$14                     ; 0x2014 <f256main+0x16e6>
    6380: 85 14        	sta	$14                     ; 0x2014 <f256main+0x16e6>
    6382: 8a           	txa
    6383: 65 15        	adc	$15                     ; 0x2015 <f256main+0x16e7>
    6385: aa           	tax
    6386: 18           	clc
    6387: a5 14        	lda	$14                     ; 0x2014 <f256main+0x16e6>
    6389: 65 12        	adc	$12                     ; 0x2012 <f256main+0x16e4>
    638b: 85 12        	sta	$12                     ; 0x2012 <f256main+0x16e4>
    638d: 8a           	txa
    638e: 65 13        	adc	$13                     ; 0x2013 <f256main+0x16e5>
    6390: 85 13        	sta	$13                     ; 0x2013 <f256main+0x16e5>
    6392: 10 04        	bpl	$6398 <updateDial+0x1ef>
    6394: a2 ff        	ldx	#$ff
    6396: 80 02        	bra	$639a <updateDial+0x1f1>
    6398: a2 00        	ldx	#$0
    639a: 18           	clc
    639b: a5 12        	lda	$12                     ; 0x2012 <f256main+0x16e4>
    639d: 69 00        	adc	#$0
    639f: 85 14        	sta	$14                     ; 0x2014 <f256main+0x16e6>
    63a1: a5 13        	lda	$13                     ; 0x2013 <f256main+0x16e5>
    63a3: 69 54        	adc	#$54
    63a5: 85 13        	sta	$13                     ; 0x2013 <f256main+0x16e5>
    63a7: 8a           	txa
    63a8: 69 01        	adc	#$1
    63aa: 5a           	phy
    63ab: a6 13        	ldx	$13                     ; 0x2013 <f256main+0x16e5>
    63ad: 86 12        	stx	$12                     ; 0x2012 <f256main+0x16e4>
    63af: 06 12        	asl	$12                     ; 0x2012 <f256main+0x16e4>
    63b1: 2a           	rol
    63b2: 06 12        	asl	$12                     ; 0x2012 <f256main+0x16e4>
    63b4: 2a           	rol
    63b5: 06 12        	asl	$12                     ; 0x2012 <f256main+0x16e4>
    63b7: 2a           	rol
    63b8: a6 0f        	ldx	$f                      ; 0x200f <f256main+0x16e1>
    63ba: 78           	sei
    63bb: 85 0f        	sta	$f                      ; 0x200f <f256main+0x16e1>
    63bd: a5 13        	lda	$13                     ; 0x2013 <f256main+0x16e5>
    63bf: 09 e0        	ora	#$e0
    63c1: a4 14        	ldy	$14                     ; 0x2014 <f256main+0x16e6>
    63c3: 84 12        	sty	$12                     ; 0x2012 <f256main+0x16e4>
    63c5: 7a           	ply
    63c6: 85 13        	sta	$13                     ; 0x2013 <f256main+0x16e5>
    63c8: a5 16        	lda	$16                     ; 0x2016 <f256main+0x16e8>
    63ca: 92 12        	sta	($12)                   ; 0x2012 <f256main+0x16e4>
    63cc: a9 00        	lda	#$0
    63ce: 91 12        	sta	($12),y                 ; 0x2012 <f256main+0x16e4>
    63d0: 86 0f        	stx	$f                      ; 0x200f <f256main+0x16e1>
    63d2: 58           	cli
    63d3: a0 0d        	ldy	#$d
    63d5: b1 24        	lda	($24),y                 ; 0x2024 <f256main+0x16f6>
    63d7: 85 26        	sta	$26                     ; 0x2026 <f256main+0x16f8>
    63d9: 18           	clc
    63da: a0 00        	ldy	#$0
    63dc: b1 10        	lda	($10),y                 ; 0x2010 <f256main+0x16e2>
    63de: 69 20        	adc	#$20
    63e0: a8           	tay
    63e1: a9 00        	lda	#$0
    63e3: 69 00        	adc	#$0
    63e5: aa           	tax
    63e6: a9 00        	lda	#$0
    63e8: 69 00        	adc	#$0
    63ea: 85 12        	sta	$12                     ; 0x2012 <f256main+0x16e4>
    63ec: a9 00        	lda	#$0
    63ee: 69 00        	adc	#$0
    63f0: 85 13        	sta	$13                     ; 0x2013 <f256main+0x16e5>
    63f2: a5 26        	lda	$26                     ; 0x2026 <f256main+0x16f8>
    63f4: 85 14        	sta	$14                     ; 0x2014 <f256main+0x16e6>
    63f6: 64 15        	stz	$15                     ; 0x2015 <f256main+0x16e7>
    63f8: 64 16        	stz	$16                     ; 0x2016 <f256main+0x16e8>
    63fa: 64 17        	stz	$17                     ; 0x2017 <f256main+0x16e9>
    63fc: 98           	tya
    63fd: 20 31 7c     	jsr	$7c31 <__mulsi3>
    6400: a4 26        	ldy	$26                     ; 0x2026 <f256main+0x16f8>
    6402: 84 14        	sty	$14                     ; 0x2014 <f256main+0x16e6>
    6404: 64 15        	stz	$15                     ; 0x2015 <f256main+0x16e7>
    6406: 64 16        	stz	$16                     ; 0x2016 <f256main+0x16e8>
    6408: 64 17        	stz	$17                     ; 0x2017 <f256main+0x16e9>
    640a: 20 31 7c     	jsr	$7c31 <__mulsi3>
    640d: 18           	clc
    640e: 85 16        	sta	$16                     ; 0x2016 <f256main+0x16e8>
    6410: 69 00        	adc	#$0
    6412: 85 14        	sta	$14                     ; 0x2014 <f256main+0x16e6>
    6414: 86 15        	stx	$15                     ; 0x2015 <f256main+0x16e7>
    6416: 8a           	txa
    6417: 69 00        	adc	#$0
    6419: 85 18        	sta	$18                     ; 0x2018 <f256main+0x16ea>
    641b: a5 12        	lda	$12                     ; 0x2012 <f256main+0x16e4>
    641d: 69 01        	adc	#$1
    641f: aa           	tax
    6420: a5 13        	lda	$13                     ; 0x2013 <f256main+0x16e5>
    6422: 69 00        	adc	#$0
    6424: 85 17        	sta	$17                     ; 0x2017 <f256main+0x16e9>
    6426: a5 24        	lda	$24                     ; 0x2024 <f256main+0x16f6>
    6428: 18           	clc
    6429: 69 08        	adc	#$8
    642b: 85 12        	sta	$12                     ; 0x2012 <f256main+0x16e4>
    642d: a5 25        	lda	$25                     ; 0x2025 <f256main+0x16f7>
    642f: 69 00        	adc	#$0
    6431: a0 08        	ldy	#$8
    6433: 85 13        	sta	$13                     ; 0x2013 <f256main+0x16e5>
    6435: a5 14        	lda	$14                     ; 0x2014 <f256main+0x16e6>
    6437: 91 24        	sta	($24),y                 ; 0x2024 <f256main+0x16f6>
    6439: a0 01        	ldy	#$1
    643b: a5 18        	lda	$18                     ; 0x2018 <f256main+0x16ea>
    643d: 91 12        	sta	($12),y                 ; 0x2012 <f256main+0x16e4>
    643f: c8           	iny
    6440: 8a           	txa
    6441: 86 14        	stx	$14                     ; 0x2014 <f256main+0x16e6>
    6443: 91 12        	sta	($12),y                 ; 0x2012 <f256main+0x16e4>
    6445: c8           	iny
    6446: a5 17        	lda	$17                     ; 0x2017 <f256main+0x16e9>
    6448: 91 12        	sta	($12),y                 ; 0x2012 <f256main+0x16e4>
    644a: b2 24        	lda	($24)                   ; 0x2024 <f256main+0x16f6>
    644c: 85 13        	sta	$13                     ; 0x2013 <f256main+0x16e5>
    644e: aa           	tax
    644f: 18           	clc
    6450: a5 26        	lda	$26                     ; 0x2026 <f256main+0x16f8>
    6452: 69 f8        	adc	#$f8
    6454: 85 12        	sta	$12                     ; 0x2012 <f256main+0x16e4>
    6456: 4a           	lsr
    6457: 66 12        	ror	$12                     ; 0x2012 <f256main+0x16e4>
    6459: a5 12        	lda	$12                     ; 0x2012 <f256main+0x16e4>
    645b: 4a           	lsr
    645c: 66 12        	ror	$12                     ; 0x2012 <f256main+0x16e4>
    645e: a5 12        	lda	$12                     ; 0x2012 <f256main+0x16e4>
    6460: 4a           	lsr
    6461: a5 12        	lda	$12                     ; 0x2012 <f256main+0x16e4>
    6463: 6a           	ror
    6464: c9 03        	cmp	#$3
    6466: 64 12        	stz	$12                     ; 0x2012 <f256main+0x16e4>
    6468: b0 0e        	bcs	$6478 <updateDial+0x2cf>
    646a: 0a           	asl
    646b: 0a           	asl
    646c: 0a           	asl
    646d: 0a           	asl
    646e: 0a           	asl
    646f: 85 12        	sta	$12                     ; 0x2012 <f256main+0x16e4>
    6471: a9 60        	lda	#$60
    6473: 38           	sec
    6474: e5 12        	sbc	$12                     ; 0x2012 <f256main+0x16e4>
    6476: 85 12        	sta	$12                     ; 0x2012 <f256main+0x16e4>
    6478: a5 12        	lda	$12                     ; 0x2012 <f256main+0x16e4>
    647a: 9d 35 82     	sta	$8235,x                 ; 0x8235 <_spriteCtl>
    647d: 85 18        	sta	$18                     ; 0x2018 <f256main+0x16ea>
    647f: 06 13        	asl	$13                     ; 0x2013 <f256main+0x16e5>
    6481: 64 17        	stz	$17                     ; 0x2017 <f256main+0x16e9>
    6483: 26 17        	rol	$17                     ; 0x2017 <f256main+0x16e9>
    6485: 06 13        	asl	$13                     ; 0x2013 <f256main+0x16e5>
    6487: 26 17        	rol	$17                     ; 0x2017 <f256main+0x16e9>
    6489: 06 13        	asl	$13                     ; 0x2013 <f256main+0x16e5>
    648b: 26 17        	rol	$17                     ; 0x2017 <f256main+0x16e9>
    648d: a5 13        	lda	$13                     ; 0x2013 <f256main+0x16e5>
    648f: a6 13        	ldx	$13                     ; 0x2013 <f256main+0x16e5>
    6491: 18           	clc
    6492: 69 00        	adc	#$0
    6494: 85 12        	sta	$12                     ; 0x2012 <f256main+0x16e4>
    6496: a5 17        	lda	$17                     ; 0x2017 <f256main+0x16e9>
    6498: 69 d9        	adc	#$d9
    649a: 85 13        	sta	$13                     ; 0x2013 <f256main+0x16e5>
    649c: a5 18        	lda	$18                     ; 0x2018 <f256main+0x16ea>
    649e: 92 12        	sta	($12)                   ; 0x2012 <f256main+0x16e4>
    64a0: 8a           	txa
    64a1: 18           	clc
    64a2: 69 01        	adc	#$1
    64a4: 85 18        	sta	$18                     ; 0x2018 <f256main+0x16ea>
    64a6: a5 17        	lda	$17                     ; 0x2017 <f256main+0x16e9>
    64a8: 69 d9        	adc	#$d9
    64aa: 5a           	phy
    64ab: a4 18        	ldy	$18                     ; 0x2018 <f256main+0x16ea>
    64ad: 84 12        	sty	$12                     ; 0x2012 <f256main+0x16e4>
    64af: 85 13        	sta	$13                     ; 0x2013 <f256main+0x16e5>
    64b1: a5 16        	lda	$16                     ; 0x2016 <f256main+0x16e8>
    64b3: 92 12        	sta	($12)                   ; 0x2012 <f256main+0x16e4>
    64b5: 8a           	txa
    64b6: 18           	clc
    64b7: 69 02        	adc	#$2
    64b9: 85 16        	sta	$16                     ; 0x2016 <f256main+0x16e8>
    64bb: a5 17        	lda	$17                     ; 0x2017 <f256main+0x16e9>
    64bd: 69 d9        	adc	#$d9
    64bf: a4 16        	ldy	$16                     ; 0x2016 <f256main+0x16e8>
    64c1: 84 12        	sty	$12                     ; 0x2012 <f256main+0x16e4>
    64c3: 7a           	ply
    64c4: 85 13        	sta	$13                     ; 0x2013 <f256main+0x16e5>
    64c6: a5 15        	lda	$15                     ; 0x2015 <f256main+0x16e7>
    64c8: 92 12        	sta	($12)                   ; 0x2012 <f256main+0x16e4>
    64ca: 18           	clc
    64cb: 8a           	txa
    64cc: 69 03        	adc	#$3
    64ce: 85 12        	sta	$12                     ; 0x2012 <f256main+0x16e4>
    64d0: a5 17        	lda	$17                     ; 0x2017 <f256main+0x16e9>
    64d2: 69 d9        	adc	#$d9
    64d4: 85 13        	sta	$13                     ; 0x2013 <f256main+0x16e5>
    64d6: a5 14        	lda	$14                     ; 0x2014 <f256main+0x16e6>
    64d8: 92 12        	sta	($12)                   ; 0x2012 <f256main+0x16e4>
    64da: a5 24        	lda	$24                     ; 0x2024 <f256main+0x16f6>
    64dc: 18           	clc
    64dd: 69 03        	adc	#$3
    64df: 85 12        	sta	$12                     ; 0x2012 <f256main+0x16e4>
    64e1: a5 25        	lda	$25                     ; 0x2025 <f256main+0x16f7>
    64e3: 69 00        	adc	#$0
    64e5: 85 13        	sta	$13                     ; 0x2013 <f256main+0x16e5>
    64e7: b2 24        	lda	($24)                   ; 0x2024 <f256main+0x16f6>
    64e9: aa           	tax
    64ea: 0a           	asl
    64eb: 85 14        	sta	$14                     ; 0x2014 <f256main+0x16e6>
    64ed: 64 19        	stz	$19                     ; 0x2019 <f256main+0x16eb>
    64ef: 26 19        	rol	$19                     ; 0x2019 <f256main+0x16eb>
    64f1: 06 14        	asl	$14                     ; 0x2014 <f256main+0x16e6>
    64f3: 26 19        	rol	$19                     ; 0x2019 <f256main+0x16eb>
    64f5: 06 14        	asl	$14                     ; 0x2014 <f256main+0x16e6>
    64f7: a5 14        	lda	$14                     ; 0x2014 <f256main+0x16e6>
    64f9: 85 18        	sta	$18                     ; 0x2018 <f256main+0x16ea>
    64fb: 26 19        	rol	$19                     ; 0x2019 <f256main+0x16eb>
    64fd: 18           	clc
    64fe: a5 14        	lda	$14                     ; 0x2014 <f256main+0x16e6>
    6500: 69 04        	adc	#$4
    6502: 85 14        	sta	$14                     ; 0x2014 <f256main+0x16e6>
    6504: a5 19        	lda	$19                     ; 0x2019 <f256main+0x16eb>
    6506: 69 d9        	adc	#$d9
    6508: 85 15        	sta	$15                     ; 0x2015 <f256main+0x16e7>
    650a: a5 24        	lda	$24                     ; 0x2024 <f256main+0x16f6>
    650c: 85 16        	sta	$16                     ; 0x2016 <f256main+0x16e8>
    650e: a5 25        	lda	$25                     ; 0x2025 <f256main+0x16f7>
    6510: 85 17        	sta	$17                     ; 0x2017 <f256main+0x16e9>
    6512: e6 16        	inc	$16                     ; 0x2016 <f256main+0x16e8>
    6514: d0 02        	bne	$6518 <updateDial+0x36f>
    6516: e6 17        	inc	$17                     ; 0x2017 <f256main+0x16e9>
    6518: b1 24        	lda	($24),y                 ; 0x2024 <f256main+0x16f6>
    651a: 85 1a        	sta	$1a                     ; 0x201a <f256main+0x16ec>
    651c: a0 01        	ldy	#$1
    651e: b1 24        	lda	($24),y                 ; 0x2024 <f256main+0x16f6>
    6520: 85 1b        	sta	$1b                     ; 0x201b <f256main+0x16ed>
    6522: b1 16        	lda	($16),y                 ; 0x2016 <f256main+0x16e8>
    6524: 85 17        	sta	$17                     ; 0x2017 <f256main+0x16e9>
    6526: b1 12        	lda	($12),y                 ; 0x2012 <f256main+0x16e4>
    6528: 85 16        	sta	$16                     ; 0x2016 <f256main+0x16e8>
    652a: a5 1b        	lda	$1b                     ; 0x201b <f256main+0x16ed>
    652c: 92 14        	sta	($14)                   ; 0x2014 <f256main+0x16e6>
    652e: a5 17        	lda	$17                     ; 0x2017 <f256main+0x16e9>
    6530: 91 14        	sta	($14),y                 ; 0x2014 <f256main+0x16e6>
    6532: 18           	clc
    6533: a5 18        	lda	$18                     ; 0x2018 <f256main+0x16ea>
    6535: 69 06        	adc	#$6
    6537: 85 14        	sta	$14                     ; 0x2014 <f256main+0x16e6>
    6539: a5 19        	lda	$19                     ; 0x2019 <f256main+0x16eb>
    653b: 69 d9        	adc	#$d9
    653d: 5a           	phy
    653e: a4 14        	ldy	$14                     ; 0x2014 <f256main+0x16e6>
    6540: 84 12        	sty	$12                     ; 0x2012 <f256main+0x16e4>
    6542: 7a           	ply
    6543: 85 13        	sta	$13                     ; 0x2013 <f256main+0x16e5>
    6545: a5 1a        	lda	$1a                     ; 0x201a <f256main+0x16ec>
    6547: 92 12        	sta	($12)                   ; 0x2012 <f256main+0x16e4>
    6549: a5 16        	lda	$16                     ; 0x2016 <f256main+0x16e8>
    654b: 91 12        	sta	($12),y                 ; 0x2012 <f256main+0x16e4>
    654d: 18           	clc
    654e: a5 18        	lda	$18                     ; 0x2018 <f256main+0x16ea>
    6550: 69 00        	adc	#$0
    6552: 85 12        	sta	$12                     ; 0x2012 <f256main+0x16e4>
    6554: a5 19        	lda	$19                     ; 0x2019 <f256main+0x16eb>
    6556: 69 d9        	adc	#$d9
    6558: 85 13        	sta	$13                     ; 0x2013 <f256main+0x16e5>
    655a: a9 01        	lda	#$1
    655c: 1d 35 82     	ora	$8235,x                 ; 0x8235 <_spriteCtl>
    655f: 92 12        	sta	($12)                   ; 0x2012 <f256main+0x16e4>
    6561: fa           	plx
    6562: 86 26        	stx	$26                     ; 0x2026 <f256main+0x16f8>
    6564: fa           	plx
    6565: 86 25        	stx	$25                     ; 0x2025 <f256main+0x16f7>
    6567: fa           	plx
    6568: 86 24        	stx	$24                     ; 0x2024 <f256main+0x16f6>
    656a: 18           	clc
    656b: a5 10        	lda	$10                     ; 0x2010 <f256main+0x16e2>
    656d: 69 01        	adc	#$1
    656f: 85 10        	sta	$10                     ; 0x2010 <f256main+0x16e2>
    6571: a5 11        	lda	$11                     ; 0x2011 <f256main+0x16e3>
    6573: 69 00        	adc	#$0
    6575: 85 11        	sta	$11                     ; 0x2011 <f256main+0x16e3>
    6577: 60           	rts

00006578 <updateSlider>:
    6578: 18           	clc
    6579: a5 10        	lda	$10                     ; 0x2010 <f256main+0x16e2>
    657b: 69 fd        	adc	#$fd
    657d: 85 10        	sta	$10                     ; 0x2010 <f256main+0x16e2>
    657f: a5 11        	lda	$11                     ; 0x2011 <f256main+0x16e3>
    6581: 69 ff        	adc	#$ff
    6583: 85 11        	sta	$11                     ; 0x2011 <f256main+0x16e3>
    6585: a6 24        	ldx	$24                     ; 0x2024 <f256main+0x16f6>
    6587: da           	phx
    6588: a6 25        	ldx	$25                     ; 0x2025 <f256main+0x16f7>
    658a: da           	phx
    658b: a6 26        	ldx	$26                     ; 0x2026 <f256main+0x16f8>
    658d: da           	phx
    658e: a6 27        	ldx	$27                     ; 0x2027 <f256main+0x16f9>
    6590: da           	phx
    6591: a5 28        	lda	$28                     ; 0x2028 <f256main+0x16fa>
    6593: a0 02        	ldy	#$2
    6595: 91 10        	sta	($10),y                 ; 0x2010 <f256main+0x16e2>
    6597: a5 29        	lda	$29                     ; 0x2029 <f256main+0x16fb>
    6599: 88           	dey
    659a: 91 10        	sta	($10),y                 ; 0x2010 <f256main+0x16e2>
    659c: a5 2a        	lda	$2a                     ; 0x202a <f256main+0x16fc>
    659e: 88           	dey
    659f: 91 10        	sta	($10),y                 ; 0x2010 <f256main+0x16e2>
    65a1: a6 12        	ldx	$12                     ; 0x2012 <f256main+0x16e4>
    65a3: 86 24        	stx	$24                     ; 0x2024 <f256main+0x16f6>
    65a5: a6 13        	ldx	$13                     ; 0x2013 <f256main+0x16e5>
    65a7: 86 25        	stx	$25                     ; 0x2025 <f256main+0x16f7>
    65a9: a0 27        	ldy	#$27
    65ab: b1 12        	lda	($12),y                 ; 0x2012 <f256main+0x16e4>
    65ad: aa           	tax
    65ae: c8           	iny
    65af: b1 12        	lda	($12),y                 ; 0x2012 <f256main+0x16e4>
    65b1: 85 15        	sta	$15                     ; 0x2015 <f256main+0x16e7>
    65b3: 86 13        	stx	$13                     ; 0x2013 <f256main+0x16e5>
    65b5: c5 13        	cmp	$13                     ; 0x2013 <f256main+0x16e5>
    65b7: a9 00        	lda	#$0
    65b9: b0 35        	bcs	$65f0 <updateSlider+0x78>
    65bb: a0 29        	ldy	#$29
    65bd: b1 24        	lda	($24),y                 ; 0x2024 <f256main+0x16f6>
    65bf: a8           	tay
    65c0: 85 13        	sta	$13                     ; 0x2013 <f256main+0x16e5>
    65c2: e4 13        	cpx	$13                     ; 0x2013 <f256main+0x16e5>
    65c4: a9 07        	lda	#$7
    65c6: b0 28        	bcs	$65f0 <updateSlider+0x78>
    65c8: 38           	sec
    65c9: 98           	tya
    65ca: e5 15        	sbc	$15                     ; 0x2015 <f256main+0x16e7>
    65cc: 85 12        	sta	$12                     ; 0x2012 <f256main+0x16e4>
    65ce: a9 00        	lda	#$0
    65d0: e9 00        	sbc	#$0
    65d2: e6 12        	inc	$12                     ; 0x2012 <f256main+0x16e4>
    65d4: d0 01        	bne	$65d7 <updateSlider+0x5f>
    65d6: 1a           	inc
    65d7: 4a           	lsr
    65d8: 66 12        	ror	$12                     ; 0x2012 <f256main+0x16e4>
    65da: 4a           	lsr
    65db: 66 12        	ror	$12                     ; 0x2012 <f256main+0x16e4>
    65dd: 4a           	lsr
    65de: 66 12        	ror	$12                     ; 0x2012 <f256main+0x16e4>
    65e0: 8a           	txa
    65e1: 38           	sec
    65e2: e5 15        	sbc	$15                     ; 0x2015 <f256main+0x16e7>
    65e4: a8           	tay
    65e5: a9 00        	lda	#$0
    65e7: e9 00        	sbc	#$0
    65e9: 64 13        	stz	$13                     ; 0x2013 <f256main+0x16e5>
    65eb: aa           	tax
    65ec: 98           	tya
    65ed: 20 a1 7c     	jsr	$7ca1 <__udivhi3>
    65f0: a0 0d        	ldy	#$d
    65f2: 85 27        	sta	$27                     ; 0x2027 <f256main+0x16f9>
    65f4: b1 24        	lda	($24),y                 ; 0x2024 <f256main+0x16f6>
    65f6: 85 12        	sta	$12                     ; 0x2012 <f256main+0x16e4>
    65f8: 85 26        	sta	$26                     ; 0x2026 <f256main+0x16f8>
    65fa: 64 13        	stz	$13                     ; 0x2013 <f256main+0x16e5>
    65fc: a2 00        	ldx	#$0
    65fe: 20 ff 7b     	jsr	$7bff <__mulhi3>
    6601: 85 15        	sta	$15                     ; 0x2015 <f256main+0x16e7>
    6603: 86 14        	stx	$14                     ; 0x2014 <f256main+0x16e6>
    6605: 85 12        	sta	$12                     ; 0x2012 <f256main+0x16e4>
    6607: 06 12        	asl	$12                     ; 0x2012 <f256main+0x16e4>
    6609: 86 13        	stx	$13                     ; 0x2013 <f256main+0x16e5>
    660b: 26 13        	rol	$13                     ; 0x2013 <f256main+0x16e5>
    660d: 06 12        	asl	$12                     ; 0x2012 <f256main+0x16e4>
    660f: 26 13        	rol	$13                     ; 0x2013 <f256main+0x16e5>
    6611: 06 12        	asl	$12                     ; 0x2012 <f256main+0x16e4>
    6613: 26 13        	rol	$13                     ; 0x2013 <f256main+0x16e5>
    6615: a5 12        	lda	$12                     ; 0x2012 <f256main+0x16e4>
    6617: 0a           	asl
    6618: a6 13        	ldx	$13                     ; 0x2013 <f256main+0x16e5>
    661a: 86 16        	stx	$16                     ; 0x2016 <f256main+0x16e8>
    661c: 26 16        	rol	$16                     ; 0x2016 <f256main+0x16e8>
    661e: 0a           	asl
    661f: 26 16        	rol	$16                     ; 0x2016 <f256main+0x16e8>
    6621: 18           	clc
    6622: 65 12        	adc	$12                     ; 0x2012 <f256main+0x16e4>
    6624: 85 29        	sta	$29                     ; 0x2029 <f256main+0x16fb>
    6626: a5 16        	lda	$16                     ; 0x2016 <f256main+0x16e8>
    6628: 65 13        	adc	$13                     ; 0x2013 <f256main+0x16e5>
    662a: 85 28        	sta	$28                     ; 0x2028 <f256main+0x16fa>
    662c: a6 27        	ldx	$27                     ; 0x2027 <f256main+0x16f9>
    662e: 86 12        	stx	$12                     ; 0x2012 <f256main+0x16e4>
    6630: 64 13        	stz	$13                     ; 0x2013 <f256main+0x16e5>
    6632: a6 14        	ldx	$14                     ; 0x2014 <f256main+0x16e6>
    6634: a5 15        	lda	$15                     ; 0x2015 <f256main+0x16e7>
    6636: 20 ff 7b     	jsr	$7bff <__mulhi3>
    6639: 85 12        	sta	$12                     ; 0x2012 <f256main+0x16e4>
    663b: 86 13        	stx	$13                     ; 0x2013 <f256main+0x16e5>
    663d: 18           	clc
    663e: a5 29        	lda	$29                     ; 0x2029 <f256main+0x16fb>
    6640: 65 12        	adc	$12                     ; 0x2012 <f256main+0x16e4>
    6642: 85 14        	sta	$14                     ; 0x2014 <f256main+0x16e6>
    6644: a5 28        	lda	$28                     ; 0x2028 <f256main+0x16fa>
    6646: 65 13        	adc	$13                     ; 0x2013 <f256main+0x16e5>
    6648: aa           	tax
    6649: a9 01        	lda	#$1
    664b: 69 00        	adc	#$0
    664d: 85 16        	sta	$16                     ; 0x2016 <f256main+0x16e8>
    664f: a9 00        	lda	#$0
    6651: 69 00        	adc	#$0
    6653: 85 17        	sta	$17                     ; 0x2017 <f256main+0x16e9>
    6655: a5 24        	lda	$24                     ; 0x2024 <f256main+0x16f6>
    6657: 18           	clc
    6658: 69 08        	adc	#$8
    665a: 85 12        	sta	$12                     ; 0x2012 <f256main+0x16e4>
    665c: a5 25        	lda	$25                     ; 0x2025 <f256main+0x16f7>
    665e: 69 00        	adc	#$0
    6660: a0 08        	ldy	#$8
    6662: 85 13        	sta	$13                     ; 0x2013 <f256main+0x16e5>
    6664: a5 14        	lda	$14                     ; 0x2014 <f256main+0x16e6>
    6666: 85 15        	sta	$15                     ; 0x2015 <f256main+0x16e7>
    6668: 91 24        	sta	($24),y                 ; 0x2024 <f256main+0x16f6>
    666a: 8a           	txa
    666b: 86 14        	stx	$14                     ; 0x2014 <f256main+0x16e6>
    666d: a0 01        	ldy	#$1
    666f: 91 12        	sta	($12),y                 ; 0x2012 <f256main+0x16e4>
    6671: a5 16        	lda	$16                     ; 0x2016 <f256main+0x16e8>
    6673: c8           	iny
    6674: 91 12        	sta	($12),y                 ; 0x2012 <f256main+0x16e4>
    6676: a5 17        	lda	$17                     ; 0x2017 <f256main+0x16e9>
    6678: c8           	iny
    6679: 91 12        	sta	($12),y                 ; 0x2012 <f256main+0x16e4>
    667b: b2 24        	lda	($24)                   ; 0x2024 <f256main+0x16f6>
    667d: 85 13        	sta	$13                     ; 0x2013 <f256main+0x16e5>
    667f: aa           	tax
    6680: 18           	clc
    6681: a5 26        	lda	$26                     ; 0x2026 <f256main+0x16f8>
    6683: 69 f8        	adc	#$f8
    6685: 85 12        	sta	$12                     ; 0x2012 <f256main+0x16e4>
    6687: 4a           	lsr
    6688: 66 12        	ror	$12                     ; 0x2012 <f256main+0x16e4>
    668a: a5 12        	lda	$12                     ; 0x2012 <f256main+0x16e4>
    668c: 4a           	lsr
    668d: 66 12        	ror	$12                     ; 0x2012 <f256main+0x16e4>
    668f: a5 12        	lda	$12                     ; 0x2012 <f256main+0x16e4>
    6691: 4a           	lsr
    6692: a5 12        	lda	$12                     ; 0x2012 <f256main+0x16e4>
    6694: 6a           	ror
    6695: c9 03        	cmp	#$3
    6697: a0 00        	ldy	#$0
    6699: b0 0d        	bcs	$66a8 <updateSlider+0x130>
    669b: 0a           	asl
    669c: 0a           	asl
    669d: 0a           	asl
    669e: 0a           	asl
    669f: 0a           	asl
    66a0: 85 12        	sta	$12                     ; 0x2012 <f256main+0x16e4>
    66a2: a9 60        	lda	#$60
    66a4: 38           	sec
    66a5: e5 12        	sbc	$12                     ; 0x2012 <f256main+0x16e4>
    66a7: a8           	tay
    66a8: 98           	tya
    66a9: 9d 35 82     	sta	$8235,x                 ; 0x8235 <_spriteCtl>
    66ac: 06 13        	asl	$13                     ; 0x2013 <f256main+0x16e5>
    66ae: 64 17        	stz	$17                     ; 0x2017 <f256main+0x16e9>
    66b0: 26 17        	rol	$17                     ; 0x2017 <f256main+0x16e9>
    66b2: 06 13        	asl	$13                     ; 0x2013 <f256main+0x16e5>
    66b4: 26 17        	rol	$17                     ; 0x2017 <f256main+0x16e9>
    66b6: 06 13        	asl	$13                     ; 0x2013 <f256main+0x16e5>
    66b8: 26 17        	rol	$17                     ; 0x2017 <f256main+0x16e9>
    66ba: 18           	clc
    66bb: a5 13        	lda	$13                     ; 0x2013 <f256main+0x16e5>
    66bd: a6 13        	ldx	$13                     ; 0x2013 <f256main+0x16e5>
    66bf: 69 00        	adc	#$0
    66c1: 85 12        	sta	$12                     ; 0x2012 <f256main+0x16e4>
    66c3: a5 17        	lda	$17                     ; 0x2017 <f256main+0x16e9>
    66c5: 69 d9        	adc	#$d9
    66c7: 85 13        	sta	$13                     ; 0x2013 <f256main+0x16e5>
    66c9: 98           	tya
    66ca: 92 12        	sta	($12)                   ; 0x2012 <f256main+0x16e4>
    66cc: 18           	clc
    66cd: 8a           	txa
    66ce: 69 01        	adc	#$1
    66d0: 85 12        	sta	$12                     ; 0x2012 <f256main+0x16e4>
    66d2: a5 17        	lda	$17                     ; 0x2017 <f256main+0x16e9>
    66d4: 69 d9        	adc	#$d9
    66d6: 85 13        	sta	$13                     ; 0x2013 <f256main+0x16e5>
    66d8: a5 15        	lda	$15                     ; 0x2015 <f256main+0x16e7>
    66da: 92 12        	sta	($12)                   ; 0x2012 <f256main+0x16e4>
    66dc: 18           	clc
    66dd: 8a           	txa
    66de: 69 02        	adc	#$2
    66e0: 85 12        	sta	$12                     ; 0x2012 <f256main+0x16e4>
    66e2: a5 17        	lda	$17                     ; 0x2017 <f256main+0x16e9>
    66e4: 69 d9        	adc	#$d9
    66e6: 85 13        	sta	$13                     ; 0x2013 <f256main+0x16e5>
    66e8: a5 14        	lda	$14                     ; 0x2014 <f256main+0x16e6>
    66ea: 92 12        	sta	($12)                   ; 0x2012 <f256main+0x16e4>
    66ec: 18           	clc
    66ed: 8a           	txa
    66ee: 69 03        	adc	#$3
    66f0: 85 12        	sta	$12                     ; 0x2012 <f256main+0x16e4>
    66f2: a5 17        	lda	$17                     ; 0x2017 <f256main+0x16e9>
    66f4: 69 d9        	adc	#$d9
    66f6: 85 13        	sta	$13                     ; 0x2013 <f256main+0x16e5>
    66f8: a5 16        	lda	$16                     ; 0x2016 <f256main+0x16e8>
    66fa: 92 12        	sta	($12)                   ; 0x2012 <f256main+0x16e4>
    66fc: a0 03        	ldy	#$3
    66fe: b1 24        	lda	($24),y                 ; 0x2024 <f256main+0x16f6>
    6700: 85 19        	sta	$19                     ; 0x2019 <f256main+0x16eb>
    6702: 18           	clc
    6703: a5 24        	lda	$24                     ; 0x2024 <f256main+0x16f6>
    6705: 69 03        	adc	#$3
    6707: 85 12        	sta	$12                     ; 0x2012 <f256main+0x16e4>
    6709: a5 25        	lda	$25                     ; 0x2025 <f256main+0x16f7>
    670b: 69 00        	adc	#$0
    670d: 85 13        	sta	$13                     ; 0x2013 <f256main+0x16e5>
    670f: b2 24        	lda	($24)                   ; 0x2024 <f256main+0x16f6>
    6711: 85 26        	sta	$26                     ; 0x2026 <f256main+0x16f8>
    6713: 0a           	asl
    6714: 64 1b        	stz	$1b                     ; 0x201b <f256main+0x16ed>
    6716: 26 1b        	rol	$1b                     ; 0x201b <f256main+0x16ed>
    6718: 85 14        	sta	$14                     ; 0x2014 <f256main+0x16e6>
    671a: 06 14        	asl	$14                     ; 0x2014 <f256main+0x16e6>
    671c: 26 1b        	rol	$1b                     ; 0x201b <f256main+0x16ed>
    671e: 06 14        	asl	$14                     ; 0x2014 <f256main+0x16e6>
    6720: a6 14        	ldx	$14                     ; 0x2014 <f256main+0x16e6>
    6722: 86 1a        	stx	$1a                     ; 0x201a <f256main+0x16ec>
    6724: 26 1b        	rol	$1b                     ; 0x201b <f256main+0x16ed>
    6726: 18           	clc
    6727: a5 14        	lda	$14                     ; 0x2014 <f256main+0x16e6>
    6729: 69 04        	adc	#$4
    672b: 85 14        	sta	$14                     ; 0x2014 <f256main+0x16e6>
    672d: a5 1b        	lda	$1b                     ; 0x201b <f256main+0x16ed>
    672f: 69 d9        	adc	#$d9
    6731: 85 15        	sta	$15                     ; 0x2015 <f256main+0x16e7>
    6733: a6 24        	ldx	$24                     ; 0x2024 <f256main+0x16f6>
    6735: 86 16        	stx	$16                     ; 0x2016 <f256main+0x16e8>
    6737: a6 25        	ldx	$25                     ; 0x2025 <f256main+0x16f7>
    6739: 86 17        	stx	$17                     ; 0x2017 <f256main+0x16e9>
    673b: e6 16        	inc	$16                     ; 0x2016 <f256main+0x16e8>
    673d: d0 02        	bne	$6741 <updateSlider+0x1c9>
    673f: e6 17        	inc	$17                     ; 0x2017 <f256main+0x16e9>
    6741: a0 01        	ldy	#$1
    6743: b1 24        	lda	($24),y                 ; 0x2024 <f256main+0x16f6>
    6745: 85 1c        	sta	$1c                     ; 0x201c <f256main+0x16ee>
    6747: b1 16        	lda	($16),y                 ; 0x2016 <f256main+0x16e8>
    6749: 85 17        	sta	$17                     ; 0x2017 <f256main+0x16e9>
    674b: b1 12        	lda	($12),y                 ; 0x2012 <f256main+0x16e4>
    674d: 85 16        	sta	$16                     ; 0x2016 <f256main+0x16e8>
    674f: a5 1c        	lda	$1c                     ; 0x201c <f256main+0x16ee>
    6751: 92 14        	sta	($14)                   ; 0x2014 <f256main+0x16e6>
    6753: a5 17        	lda	$17                     ; 0x2017 <f256main+0x16e9>
    6755: 91 14        	sta	($14),y                 ; 0x2014 <f256main+0x16e6>
    6757: 18           	clc
    6758: a5 1a        	lda	$1a                     ; 0x201a <f256main+0x16ec>
    675a: 69 06        	adc	#$6
    675c: 85 12        	sta	$12                     ; 0x2012 <f256main+0x16e4>
    675e: a5 1b        	lda	$1b                     ; 0x201b <f256main+0x16ed>
    6760: 69 d9        	adc	#$d9
    6762: 85 13        	sta	$13                     ; 0x2013 <f256main+0x16e5>
    6764: a5 19        	lda	$19                     ; 0x2019 <f256main+0x16eb>
    6766: 92 12        	sta	($12)                   ; 0x2012 <f256main+0x16e4>
    6768: a5 16        	lda	$16                     ; 0x2016 <f256main+0x16e8>
    676a: 91 12        	sta	($12),y                 ; 0x2012 <f256main+0x16e4>
    676c: a0 0d        	ldy	#$d
    676e: b1 24        	lda	($24),y                 ; 0x2024 <f256main+0x16f6>
    6770: a8           	tay
    6771: 18           	clc
    6772: a5 24        	lda	$24                     ; 0x2024 <f256main+0x16f6>
    6774: 69 08        	adc	#$8
    6776: 85 12        	sta	$12                     ; 0x2012 <f256main+0x16e4>
    6778: a5 25        	lda	$25                     ; 0x2025 <f256main+0x16f7>
    677a: 69 00        	adc	#$0
    677c: 85 13        	sta	$13                     ; 0x2013 <f256main+0x16e5>
    677e: 98           	tya
    677f: 84 15        	sty	$15                     ; 0x2015 <f256main+0x16e7>
    6781: 18           	clc
    6782: 69 f8        	adc	#$f8
    6784: 85 14        	sta	$14                     ; 0x2014 <f256main+0x16e6>
    6786: 46 14        	lsr	$14                     ; 0x2014 <f256main+0x16e6>
    6788: 6a           	ror
    6789: 85 14        	sta	$14                     ; 0x2014 <f256main+0x16e6>
    678b: 46 14        	lsr	$14                     ; 0x2014 <f256main+0x16e6>
    678d: 6a           	ror
    678e: 85 14        	sta	$14                     ; 0x2014 <f256main+0x16e6>
    6790: 46 14        	lsr	$14                     ; 0x2014 <f256main+0x16e6>
    6792: 6a           	ror
    6793: aa           	tax
    6794: a0 08        	ldy	#$8
    6796: b1 24        	lda	($24),y                 ; 0x2024 <f256main+0x16f6>
    6798: 85 29        	sta	$29                     ; 0x2029 <f256main+0x16fb>
    679a: a0 02        	ldy	#$2
    679c: b1 12        	lda	($12),y                 ; 0x2012 <f256main+0x16e4>
    679e: 85 27        	sta	$27                     ; 0x2027 <f256main+0x16f9>
    67a0: 88           	dey
    67a1: b1 12        	lda	($12),y                 ; 0x2012 <f256main+0x16e4>
    67a3: 85 28        	sta	$28                     ; 0x2028 <f256main+0x16fa>
    67a5: e0 03        	cpx	#$3
    67a7: a9 00        	lda	#$0
    67a9: b0 0d        	bcs	$67b8 <updateSlider+0x240>
    67ab: 8a           	txa
    67ac: 0a           	asl
    67ad: 0a           	asl
    67ae: 0a           	asl
    67af: 0a           	asl
    67b0: 0a           	asl
    67b1: 85 12        	sta	$12                     ; 0x2012 <f256main+0x16e4>
    67b3: a9 60        	lda	#$60
    67b5: 38           	sec
    67b6: e5 12        	sbc	$12                     ; 0x2012 <f256main+0x16e4>
    67b8: 85 2a        	sta	$2a                     ; 0x202a <f256main+0x16fc>
    67ba: a6 15        	ldx	$15                     ; 0x2015 <f256main+0x16e7>
    67bc: 86 12        	stx	$12                     ; 0x2012 <f256main+0x16e4>
    67be: a5 15        	lda	$15                     ; 0x2015 <f256main+0x16e7>
    67c0: 0a           	asl
    67c1: 64 14        	stz	$14                     ; 0x2014 <f256main+0x16e6>
    67c3: 26 14        	rol	$14                     ; 0x2014 <f256main+0x16e6>
    67c5: 0a           	asl
    67c6: 26 14        	rol	$14                     ; 0x2014 <f256main+0x16e6>
    67c8: 0a           	asl
    67c9: 26 14        	rol	$14                     ; 0x2014 <f256main+0x16e6>
    67cb: 64 13        	stz	$13                     ; 0x2013 <f256main+0x16e5>
    67cd: a6 14        	ldx	$14                     ; 0x2014 <f256main+0x16e6>
    67cf: 20 ff 7b     	jsr	$7bff <__mulhi3>
    67d2: 85 12        	sta	$12                     ; 0x2012 <f256main+0x16e4>
    67d4: 86 13        	stx	$13                     ; 0x2013 <f256main+0x16e5>
    67d6: 18           	clc
    67d7: a5 29        	lda	$29                     ; 0x2029 <f256main+0x16fb>
    67d9: 65 12        	adc	$12                     ; 0x2012 <f256main+0x16e4>
    67db: 85 16        	sta	$16                     ; 0x2016 <f256main+0x16e8>
    67dd: a5 28        	lda	$28                     ; 0x2028 <f256main+0x16fa>
    67df: 65 13        	adc	$13                     ; 0x2013 <f256main+0x16e5>
    67e1: 85 14        	sta	$14                     ; 0x2014 <f256main+0x16e6>
    67e3: a5 27        	lda	$27                     ; 0x2027 <f256main+0x16f9>
    67e5: 69 00        	adc	#$0
    67e7: a8           	tay
    67e8: a6 26        	ldx	$26                     ; 0x2026 <f256main+0x16f8>
    67ea: e8           	inx
    67eb: 8a           	txa
    67ec: 0a           	asl
    67ed: 64 15        	stz	$15                     ; 0x2015 <f256main+0x16e7>
    67ef: 26 15        	rol	$15                     ; 0x2015 <f256main+0x16e7>
    67f1: 0a           	asl
    67f2: 26 15        	rol	$15                     ; 0x2015 <f256main+0x16e7>
    67f4: 0a           	asl
    67f5: 26 15        	rol	$15                     ; 0x2015 <f256main+0x16e7>
    67f7: 85 17        	sta	$17                     ; 0x2017 <f256main+0x16e9>
    67f9: 18           	clc
    67fa: 69 00        	adc	#$0
    67fc: 85 18        	sta	$18                     ; 0x2018 <f256main+0x16ea>
    67fe: a5 15        	lda	$15                     ; 0x2015 <f256main+0x16e7>
    6800: 69 d9        	adc	#$d9
    6802: 5a           	phy
    6803: a4 18        	ldy	$18                     ; 0x2018 <f256main+0x16ea>
    6805: 84 12        	sty	$12                     ; 0x2012 <f256main+0x16e4>
    6807: 7a           	ply
    6808: 85 13        	sta	$13                     ; 0x2013 <f256main+0x16e5>
    680a: a5 2a        	lda	$2a                     ; 0x202a <f256main+0x16fc>
    680c: 9d 35 82     	sta	$8235,x                 ; 0x8235 <_spriteCtl>
    680f: 92 12        	sta	($12)                   ; 0x2012 <f256main+0x16e4>
    6811: a5 17        	lda	$17                     ; 0x2017 <f256main+0x16e9>
    6813: 18           	clc
    6814: 69 01        	adc	#$1
    6816: 85 12        	sta	$12                     ; 0x2012 <f256main+0x16e4>
    6818: a5 15        	lda	$15                     ; 0x2015 <f256main+0x16e7>
    681a: 69 d9        	adc	#$d9
    681c: 85 13        	sta	$13                     ; 0x2013 <f256main+0x16e5>
    681e: a5 16        	lda	$16                     ; 0x2016 <f256main+0x16e8>
    6820: 92 12        	sta	($12)                   ; 0x2012 <f256main+0x16e4>
    6822: a5 17        	lda	$17                     ; 0x2017 <f256main+0x16e9>
    6824: 18           	clc
    6825: 69 02        	adc	#$2
    6827: 85 12        	sta	$12                     ; 0x2012 <f256main+0x16e4>
    6829: a5 15        	lda	$15                     ; 0x2015 <f256main+0x16e7>
    682b: 69 d9        	adc	#$d9
    682d: 85 13        	sta	$13                     ; 0x2013 <f256main+0x16e5>
    682f: a5 14        	lda	$14                     ; 0x2014 <f256main+0x16e6>
    6831: 92 12        	sta	($12)                   ; 0x2012 <f256main+0x16e4>
    6833: 18           	clc
    6834: a5 17        	lda	$17                     ; 0x2017 <f256main+0x16e9>
    6836: 69 03        	adc	#$3
    6838: 85 12        	sta	$12                     ; 0x2012 <f256main+0x16e4>
    683a: a5 15        	lda	$15                     ; 0x2015 <f256main+0x16e7>
    683c: 69 d9        	adc	#$d9
    683e: 85 13        	sta	$13                     ; 0x2013 <f256main+0x16e5>
    6840: 98           	tya
    6841: 92 12        	sta	($12)                   ; 0x2012 <f256main+0x16e4>
    6843: b2 24        	lda	($24)                   ; 0x2024 <f256main+0x16f6>
    6845: 85 18        	sta	$18                     ; 0x2018 <f256main+0x16ea>
    6847: a6 24        	ldx	$24                     ; 0x2024 <f256main+0x16f6>
    6849: 86 12        	stx	$12                     ; 0x2012 <f256main+0x16e4>
    684b: a6 25        	ldx	$25                     ; 0x2025 <f256main+0x16f7>
    684d: 86 13        	stx	$13                     ; 0x2013 <f256main+0x16e5>
    684f: e6 12        	inc	$12                     ; 0x2012 <f256main+0x16e4>
    6851: d0 02        	bne	$6855 <updateSlider+0x2dd>
    6853: e6 13        	inc	$13                     ; 0x2013 <f256main+0x16e5>
    6855: 18           	clc
    6856: a5 24        	lda	$24                     ; 0x2024 <f256main+0x16f6>
    6858: 69 03        	adc	#$3
    685a: 85 14        	sta	$14                     ; 0x2014 <f256main+0x16e6>
    685c: a5 25        	lda	$25                     ; 0x2025 <f256main+0x16f7>
    685e: 69 00        	adc	#$0
    6860: 85 15        	sta	$15                     ; 0x2015 <f256main+0x16e7>
    6862: a0 01        	ldy	#$1
    6864: b1 24        	lda	($24),y                 ; 0x2024 <f256main+0x16f6>
    6866: 85 19        	sta	$19                     ; 0x2019 <f256main+0x16eb>
    6868: b1 12        	lda	($12),y                 ; 0x2012 <f256main+0x16e4>
    686a: 85 1a        	sta	$1a                     ; 0x201a <f256main+0x16ec>
    686c: a0 0d        	ldy	#$d
    686e: b1 24        	lda	($24),y                 ; 0x2024 <f256main+0x16f6>
    6870: 85 13        	sta	$13                     ; 0x2013 <f256main+0x16e5>
    6872: a0 01        	ldy	#$1
    6874: b1 14        	lda	($14),y                 ; 0x2014 <f256main+0x16e6>
    6876: 85 12        	sta	$12                     ; 0x2012 <f256main+0x16e4>
    6878: 18           	clc
    6879: a5 13        	lda	$13                     ; 0x2013 <f256main+0x16e5>
    687b: a0 03        	ldy	#$3
    687d: 71 24        	adc	($24),y                 ; 0x2024 <f256main+0x16f6>
    687f: 85 15        	sta	$15                     ; 0x2015 <f256main+0x16e7>
    6881: a5 12        	lda	$12                     ; 0x2012 <f256main+0x16e4>
    6883: 69 00        	adc	#$0
    6885: 85 14        	sta	$14                     ; 0x2014 <f256main+0x16e6>
    6887: a6 18        	ldx	$18                     ; 0x2018 <f256main+0x16ea>
    6889: a5 18        	lda	$18                     ; 0x2018 <f256main+0x16ea>
    688b: 1a           	inc
    688c: 0a           	asl
    688d: 64 1b        	stz	$1b                     ; 0x201b <f256main+0x16ed>
    688f: 26 1b        	rol	$1b                     ; 0x201b <f256main+0x16ed>
    6891: 0a           	asl
    6892: 26 1b        	rol	$1b                     ; 0x201b <f256main+0x16ed>
    6894: 0a           	asl
    6895: 26 1b        	rol	$1b                     ; 0x201b <f256main+0x16ed>
    6897: 85 1c        	sta	$1c                     ; 0x201c <f256main+0x16ee>
    6899: 18           	clc
    689a: 69 04        	adc	#$4
    689c: 85 12        	sta	$12                     ; 0x2012 <f256main+0x16e4>
    689e: a5 1b        	lda	$1b                     ; 0x201b <f256main+0x16ed>
    68a0: 69 d9        	adc	#$d9
    68a2: 85 13        	sta	$13                     ; 0x2013 <f256main+0x16e5>
    68a4: a5 19        	lda	$19                     ; 0x2019 <f256main+0x16eb>
    68a6: 92 12        	sta	($12)                   ; 0x2012 <f256main+0x16e4>
    68a8: a0 01        	ldy	#$1
    68aa: a5 1a        	lda	$1a                     ; 0x201a <f256main+0x16ec>
    68ac: 91 12        	sta	($12),y                 ; 0x2012 <f256main+0x16e4>
    68ae: 18           	clc
    68af: a5 1c        	lda	$1c                     ; 0x201c <f256main+0x16ee>
    68b1: 69 06        	adc	#$6
    68b3: 85 12        	sta	$12                     ; 0x2012 <f256main+0x16e4>
    68b5: a5 1b        	lda	$1b                     ; 0x201b <f256main+0x16ed>
    68b7: 69 d9        	adc	#$d9
    68b9: 85 13        	sta	$13                     ; 0x2013 <f256main+0x16e5>
    68bb: a5 15        	lda	$15                     ; 0x2015 <f256main+0x16e7>
    68bd: 92 12        	sta	($12)                   ; 0x2012 <f256main+0x16e4>
    68bf: a5 14        	lda	$14                     ; 0x2014 <f256main+0x16e6>
    68c1: 91 12        	sta	($12),y                 ; 0x2012 <f256main+0x16e4>
    68c3: a5 18        	lda	$18                     ; 0x2018 <f256main+0x16ea>
    68c5: 0a           	asl
    68c6: 85 12        	sta	$12                     ; 0x2012 <f256main+0x16e4>
    68c8: a9 00        	lda	#$0
    68ca: 2a           	rol
    68cb: 06 12        	asl	$12                     ; 0x2012 <f256main+0x16e4>
    68cd: 2a           	rol
    68ce: 06 12        	asl	$12                     ; 0x2012 <f256main+0x16e4>
    68d0: 2a           	rol
    68d1: a8           	tay
    68d2: 18           	clc
    68d3: a5 12        	lda	$12                     ; 0x2012 <f256main+0x16e4>
    68d5: 69 00        	adc	#$0
    68d7: 85 12        	sta	$12                     ; 0x2012 <f256main+0x16e4>
    68d9: 98           	tya
    68da: 69 d9        	adc	#$d9
    68dc: 85 13        	sta	$13                     ; 0x2013 <f256main+0x16e5>
    68de: a9 01        	lda	#$1
    68e0: 1d 35 82     	ora	$8235,x                 ; 0x8235 <_spriteCtl>
    68e3: 92 12        	sta	($12)                   ; 0x2012 <f256main+0x16e4>
    68e5: b2 24        	lda	($24)                   ; 0x2024 <f256main+0x16f6>
    68e7: 1a           	inc
    68e8: aa           	tax
    68e9: 0a           	asl
    68ea: a8           	tay
    68eb: a9 00        	lda	#$0
    68ed: 2a           	rol
    68ee: 84 12        	sty	$12                     ; 0x2012 <f256main+0x16e4>
    68f0: 06 12        	asl	$12                     ; 0x2012 <f256main+0x16e4>
    68f2: 2a           	rol
    68f3: 06 12        	asl	$12                     ; 0x2012 <f256main+0x16e4>
    68f5: 2a           	rol
    68f6: a8           	tay
    68f7: 18           	clc
    68f8: a5 12        	lda	$12                     ; 0x2012 <f256main+0x16e4>
    68fa: 69 00        	adc	#$0
    68fc: 85 12        	sta	$12                     ; 0x2012 <f256main+0x16e4>
    68fe: 98           	tya
    68ff: 69 d9        	adc	#$d9
    6901: 85 13        	sta	$13                     ; 0x2013 <f256main+0x16e5>
    6903: a9 01        	lda	#$1
    6905: 1d 35 82     	ora	$8235,x                 ; 0x8235 <_spriteCtl>
    6908: 92 12        	sta	($12)                   ; 0x2012 <f256main+0x16e4>
    690a: a0 27        	ldy	#$27
    690c: a9 0f        	lda	#$f
    690e: 31 24        	and	($24),y                 ; 0x2024 <f256main+0x16f6>
    6910: 88           	dey
    6911: 85 18        	sta	$18                     ; 0x2018 <f256main+0x16ea>
    6913: 91 24        	sta	($24),y                 ; 0x2024 <f256main+0x16f6>
    6915: 18           	clc
    6916: a5 24        	lda	$24                     ; 0x2024 <f256main+0x16f6>
    6918: 69 14        	adc	#$14
    691a: 85 12        	sta	$12                     ; 0x2012 <f256main+0x16e4>
    691c: a5 25        	lda	$25                     ; 0x2025 <f256main+0x16f7>
    691e: 69 00        	adc	#$0
    6920: 85 13        	sta	$13                     ; 0x2013 <f256main+0x16e5>
    6922: a0 14        	ldy	#$14
    6924: b1 24        	lda	($24),y                 ; 0x2024 <f256main+0x16f6>
    6926: 85 14        	sta	$14                     ; 0x2014 <f256main+0x16e6>
    6928: a0 16        	ldy	#$16
    692a: b1 24        	lda	($24),y                 ; 0x2024 <f256main+0x16f6>
    692c: 85 15        	sta	$15                     ; 0x2015 <f256main+0x16e7>
    692e: 06 14        	asl	$14                     ; 0x2014 <f256main+0x16e6>
    6930: a0 01        	ldy	#$1
    6932: b1 12        	lda	($12),y                 ; 0x2012 <f256main+0x16e4>
    6934: 2a           	rol
    6935: 85 12        	sta	$12                     ; 0x2012 <f256main+0x16e4>
    6937: 18           	clc
    6938: a5 24        	lda	$24                     ; 0x2024 <f256main+0x16f6>
    693a: 69 16        	adc	#$16
    693c: 85 16        	sta	$16                     ; 0x2016 <f256main+0x16e8>
    693e: a5 25        	lda	$25                     ; 0x2025 <f256main+0x16f7>
    6940: 69 00        	adc	#$0
    6942: 85 17        	sta	$17                     ; 0x2017 <f256main+0x16e9>
    6944: b1 16        	lda	($16),y                 ; 0x2016 <f256main+0x16e8>
    6946: a6 15        	ldx	$15                     ; 0x2015 <f256main+0x16e7>
    6948: 86 13        	stx	$13                     ; 0x2013 <f256main+0x16e5>
    694a: 06 13        	asl	$13                     ; 0x2013 <f256main+0x16e5>
    694c: 2a           	rol
    694d: 06 13        	asl	$13                     ; 0x2013 <f256main+0x16e5>
    694f: 2a           	rol
    6950: 06 13        	asl	$13                     ; 0x2013 <f256main+0x16e5>
    6952: 2a           	rol
    6953: 85 15        	sta	$15                     ; 0x2015 <f256main+0x16e7>
    6955: a5 13        	lda	$13                     ; 0x2013 <f256main+0x16e5>
    6957: 0a           	asl
    6958: aa           	tax
    6959: a5 15        	lda	$15                     ; 0x2015 <f256main+0x16e7>
    695b: 2a           	rol
    695c: 86 16        	stx	$16                     ; 0x2016 <f256main+0x16e8>
    695e: 06 16        	asl	$16                     ; 0x2016 <f256main+0x16e8>
    6960: 2a           	rol
    6961: aa           	tax
    6962: 18           	clc
    6963: a5 16        	lda	$16                     ; 0x2016 <f256main+0x16e8>
    6965: 65 13        	adc	$13                     ; 0x2013 <f256main+0x16e5>
    6967: 85 13        	sta	$13                     ; 0x2013 <f256main+0x16e5>
    6969: 8a           	txa
    696a: 65 15        	adc	$15                     ; 0x2015 <f256main+0x16e7>
    696c: aa           	tax
    696d: 18           	clc
    696e: a5 13        	lda	$13                     ; 0x2013 <f256main+0x16e5>
    6970: 65 14        	adc	$14                     ; 0x2014 <f256main+0x16e6>
    6972: 85 13        	sta	$13                     ; 0x2013 <f256main+0x16e5>
    6974: 8a           	txa
    6975: 65 12        	adc	$12                     ; 0x2012 <f256main+0x16e4>
    6977: a8           	tay
    6978: 10 04        	bpl	$697e <updateSlider+0x406>
    697a: a2 ff        	ldx	#$ff
    697c: 80 02        	bra	$6980 <updateSlider+0x408>
    697e: a2 00        	ldx	#$0
    6980: 18           	clc
    6981: a5 13        	lda	$13                     ; 0x2013 <f256main+0x16e5>
    6983: 69 00        	adc	#$0
    6985: 85 13        	sta	$13                     ; 0x2013 <f256main+0x16e5>
    6987: 98           	tya
    6988: 69 54        	adc	#$54
    698a: a8           	tay
    698b: 8a           	txa
    698c: 69 01        	adc	#$1
    698e: 84 12        	sty	$12                     ; 0x2012 <f256main+0x16e4>
    6990: 06 12        	asl	$12                     ; 0x2012 <f256main+0x16e4>
    6992: 2a           	rol
    6993: 06 12        	asl	$12                     ; 0x2012 <f256main+0x16e4>
    6995: 2a           	rol
    6996: 06 12        	asl	$12                     ; 0x2012 <f256main+0x16e4>
    6998: 2a           	rol
    6999: a6 0f        	ldx	$f                      ; 0x200f <f256main+0x16e1>
    699b: 78           	sei
    699c: 85 0f        	sta	$f                      ; 0x200f <f256main+0x16e1>
    699e: 98           	tya
    699f: 09 e0        	ora	#$e0
    69a1: a4 13        	ldy	$13                     ; 0x2013 <f256main+0x16e5>
    69a3: 84 12        	sty	$12                     ; 0x2012 <f256main+0x16e4>
    69a5: 85 13        	sta	$13                     ; 0x2013 <f256main+0x16e5>
    69a7: a5 18        	lda	$18                     ; 0x2018 <f256main+0x16ea>
    69a9: 92 12        	sta	($12)                   ; 0x2012 <f256main+0x16e4>
    69ab: a0 01        	ldy	#$1
    69ad: a9 00        	lda	#$0
    69af: 91 12        	sta	($12),y                 ; 0x2012 <f256main+0x16e4>
    69b1: 86 0f        	stx	$f                      ; 0x200f <f256main+0x16e1>
    69b3: 58           	cli
    69b4: a8           	tay
    69b5: b1 10        	lda	($10),y                 ; 0x2010 <f256main+0x16e2>
    69b7: 85 2a        	sta	$2a                     ; 0x202a <f256main+0x16fc>
    69b9: c8           	iny
    69ba: b1 10        	lda	($10),y                 ; 0x2010 <f256main+0x16e2>
    69bc: 85 29        	sta	$29                     ; 0x2029 <f256main+0x16fb>
    69be: c8           	iny
    69bf: b1 10        	lda	($10),y                 ; 0x2010 <f256main+0x16e2>
    69c1: 85 28        	sta	$28                     ; 0x2028 <f256main+0x16fa>
    69c3: fa           	plx
    69c4: 86 27        	stx	$27                     ; 0x2027 <f256main+0x16f9>
    69c6: fa           	plx
    69c7: 86 26        	stx	$26                     ; 0x2026 <f256main+0x16f8>
    69c9: fa           	plx
    69ca: 86 25        	stx	$25                     ; 0x2025 <f256main+0x16f7>
    69cc: fa           	plx
    69cd: 86 24        	stx	$24                     ; 0x2024 <f256main+0x16f6>
    69cf: 18           	clc
    69d0: a5 10        	lda	$10                     ; 0x2010 <f256main+0x16e2>
    69d2: 69 03        	adc	#$3
    69d4: 85 10        	sta	$10                     ; 0x2010 <f256main+0x16e2>
    69d6: a5 11        	lda	$11                     ; 0x2011 <f256main+0x16e3>
    69d8: 69 00        	adc	#$0
    69da: 85 11        	sta	$11                     ; 0x2011 <f256main+0x16e3>
    69dc: 60           	rts

000069dd <exit>:
    69dd: 20 7b 03     	jsr	$37b <_fini>
    69e0: 80 fe        	bra	$69e0 <exit+0x3>

000069e2 <_ZN12_GLOBAL__N_13putEcP6Status>:
    69e2: 85 18        	sta	$18                     ; 0x2018 <f256main+0x16ea>
    69e4: a6 13        	ldx	$13                     ; 0x2013 <f256main+0x16e5>
    69e6: 18           	clc
    69e7: a5 12        	lda	$12                     ; 0x2012 <f256main+0x16e4>
    69e9: 69 05        	adc	#$5
    69eb: a8           	tay
    69ec: a5 13        	lda	$13                     ; 0x2013 <f256main+0x16e5>
    69ee: 86 15        	stx	$15                     ; 0x2015 <f256main+0x16e7>
    69f0: 69 00        	adc	#$0
    69f2: 18           	clc
    69f3: 84 16        	sty	$16                     ; 0x2016 <f256main+0x16e8>
    69f5: a0 05        	ldy	#$5
    69f7: 85 17        	sta	$17                     ; 0x2017 <f256main+0x16e9>
    69f9: b1 12        	lda	($12),y                 ; 0x2012 <f256main+0x16e4>
    69fb: aa           	tax
    69fc: a5 12        	lda	$12                     ; 0x2012 <f256main+0x16e4>
    69fe: 69 03        	adc	#$3
    6a00: 85 14        	sta	$14                     ; 0x2014 <f256main+0x16e6>
    6a02: a5 15        	lda	$15                     ; 0x2015 <f256main+0x16e7>
    6a04: 69 00        	adc	#$0
    6a06: 85 15        	sta	$15                     ; 0x2015 <f256main+0x16e7>
    6a08: a0 01        	ldy	#$1
    6a0a: b1 16        	lda	($16),y                 ; 0x2016 <f256main+0x16e8>
    6a0c: d1 14        	cmp	($14),y                 ; 0x2014 <f256main+0x16e6>
    6a0e: d0 11        	bne	$6a21 <_ZN12_GLOBAL__N_13putEcP6Status+0x3f>
    6a10: a0 03        	ldy	#$3
    6a12: 85 17        	sta	$17                     ; 0x2017 <f256main+0x16e9>
    6a14: b1 12        	lda	($12),y                 ; 0x2012 <f256main+0x16e4>
    6a16: 85 14        	sta	$14                     ; 0x2014 <f256main+0x16e6>
    6a18: 86 16        	stx	$16                     ; 0x2016 <f256main+0x16e8>
    6a1a: e4 14        	cpx	$14                     ; 0x2014 <f256main+0x16e6>
    6a1c: 90 0e        	bcc	$6a2c <_ZN12_GLOBAL__N_13putEcP6Status+0x4a>
    6a1e: 4c 99 6a     	jmp	$6a99 <_ZN12_GLOBAL__N_13putEcP6Status+0xb7>
    6a21: 86 16        	stx	$16                     ; 0x2016 <f256main+0x16e8>
    6a23: d1 14        	cmp	($14),y                 ; 0x2014 <f256main+0x16e6>
    6a25: 85 17        	sta	$17                     ; 0x2017 <f256main+0x16e9>
    6a27: 90 03        	bcc	$6a2c <_ZN12_GLOBAL__N_13putEcP6Status+0x4a>
    6a29: 4c 99 6a     	jmp	$6a99 <_ZN12_GLOBAL__N_13putEcP6Status+0xb7>
    6a2c: a5 12        	lda	$12                     ; 0x2012 <f256main+0x16e4>
    6a2e: 18           	clc
    6a2f: 69 0f        	adc	#$f
    6a31: 85 14        	sta	$14                     ; 0x2014 <f256main+0x16e6>
    6a33: a5 13        	lda	$13                     ; 0x2013 <f256main+0x16e5>
    6a35: 69 00        	adc	#$0
    6a37: 85 15        	sta	$15                     ; 0x2015 <f256main+0x16e7>
    6a39: a0 01        	ldy	#$1
    6a3b: b1 14        	lda	($14),y                 ; 0x2014 <f256main+0x16e6>
    6a3d: a2 00        	ldx	#$0
    6a3f: 86 14        	stx	$14                     ; 0x2014 <f256main+0x16e6>
    6a41: a2 00        	ldx	#$0
    6a43: 86 15        	stx	$15                     ; 0x2015 <f256main+0x16e7>
    6a45: c5 15        	cmp	$15                     ; 0x2015 <f256main+0x16e7>
    6a47: d0 2d        	bne	$6a76 <_ZN12_GLOBAL__N_13putEcP6Status+0x94>
    6a49: a0 0f        	ldy	#$f
    6a4b: b1 12        	lda	($12),y                 ; 0x2012 <f256main+0x16e4>
    6a4d: c5 14        	cmp	$14                     ; 0x2014 <f256main+0x16e6>
    6a4f: d0 25        	bne	$6a76 <_ZN12_GLOBAL__N_13putEcP6Status+0x94>
    6a51: a5 12        	lda	$12                     ; 0x2012 <f256main+0x16e4>
    6a53: 18           	clc
    6a54: 69 09        	adc	#$9
    6a56: 85 14        	sta	$14                     ; 0x2014 <f256main+0x16e6>
    6a58: a5 13        	lda	$13                     ; 0x2013 <f256main+0x16e5>
    6a5a: 69 00        	adc	#$0
    6a5c: a0 09        	ldy	#$9
    6a5e: 85 15        	sta	$15                     ; 0x2015 <f256main+0x16e7>
    6a60: 18           	clc
    6a61: a5 16        	lda	$16                     ; 0x2016 <f256main+0x16e8>
    6a63: 71 12        	adc	($12),y                 ; 0x2012 <f256main+0x16e4>
    6a65: aa           	tax
    6a66: a0 01        	ldy	#$1
    6a68: a5 17        	lda	$17                     ; 0x2017 <f256main+0x16e9>
    6a6a: 71 14        	adc	($14),y                 ; 0x2014 <f256main+0x16e6>
    6a6c: 86 14        	stx	$14                     ; 0x2014 <f256main+0x16e6>
    6a6e: 85 15        	sta	$15                     ; 0x2015 <f256main+0x16e7>
    6a70: a5 18        	lda	$18                     ; 0x2018 <f256main+0x16ea>
    6a72: 92 14        	sta	($14)                   ; 0x2014 <f256main+0x16e6>
    6a74: 80 23        	bra	$6a99 <_ZN12_GLOBAL__N_13putEcP6Status+0xb7>
    6a76: a6 12        	ldx	$12                     ; 0x2012 <f256main+0x16e4>
    6a78: 8e 28 88     	stx	$8828                   ; 0x8828 <__data_load_start+0x604>
    6a7b: a6 13        	ldx	$13                     ; 0x2013 <f256main+0x16e5>
    6a7d: 8e 29 88     	stx	$8829                   ; 0x8829 <__data_load_start+0x605>
    6a80: a5 18        	lda	$18                     ; 0x2018 <f256main+0x16ea>
    6a82: 85 9d        	sta	$9d                     ; 0x209d <f256main+0x176f>
    6a84: a2 9d        	ldx	#$9d
    6a86: 86 12        	stx	$12                     ; 0x2012 <f256main+0x16e4>
    6a88: a2 00        	ldx	#$0
    6a8a: 86 13        	stx	$13                     ; 0x2013 <f256main+0x16e5>
    6a8c: 20 db 43     	jsr	$43db <textPrint>
    6a8f: ae 28 88     	ldx	$8828                   ; 0x8828 <__data_load_start+0x604>
    6a92: 86 12        	stx	$12                     ; 0x2012 <f256main+0x16e4>
    6a94: ae 29 88     	ldx	$8829                   ; 0x8829 <__data_load_start+0x605>
    6a97: 86 13        	stx	$13                     ; 0x2013 <f256main+0x16e5>
    6a99: a0 05        	ldy	#$5
    6a9b: a5 12        	lda	$12                     ; 0x2012 <f256main+0x16e4>
    6a9d: 18           	clc
    6a9e: 69 05        	adc	#$5
    6aa0: 85 14        	sta	$14                     ; 0x2014 <f256main+0x16e6>
    6aa2: a5 13        	lda	$13                     ; 0x2013 <f256main+0x16e5>
    6aa4: 69 00        	adc	#$0
    6aa6: 85 15        	sta	$15                     ; 0x2015 <f256main+0x16e7>
    6aa8: b1 12        	lda	($12),y                 ; 0x2012 <f256main+0x16e4>
    6aaa: aa           	tax
    6aab: a0 01        	ldy	#$1
    6aad: b1 14        	lda	($14),y                 ; 0x2014 <f256main+0x16e6>
    6aaf: e8           	inx
    6ab0: d0 01        	bne	$6ab3 <_ZN12_GLOBAL__N_13putEcP6Status+0xd1>
    6ab2: 1a           	inc
    6ab3: 85 16        	sta	$16                     ; 0x2016 <f256main+0x16e8>
    6ab5: 8a           	txa
    6ab6: a0 05        	ldy	#$5
    6ab8: 91 12        	sta	($12),y                 ; 0x2012 <f256main+0x16e4>
    6aba: a0 01        	ldy	#$1
    6abc: a5 16        	lda	$16                     ; 0x2016 <f256main+0x16e8>
    6abe: 91 14        	sta	($14),y                 ; 0x2014 <f256main+0x16e6>
    6ac0: 60           	rts

00006ac1 <_ZN12_GLOBAL__N_112print_stringEPKcP6Status>:
    6ac1: a6 24        	ldx	$24                     ; 0x2024 <f256main+0x16f6>
    6ac3: da           	phx
    6ac4: a6 25        	ldx	$25                     ; 0x2025 <f256main+0x16f7>
    6ac6: da           	phx
    6ac7: a6 26        	ldx	$26                     ; 0x2026 <f256main+0x16f8>
    6ac9: da           	phx
    6aca: a6 27        	ldx	$27                     ; 0x2027 <f256main+0x16f9>
    6acc: da           	phx
    6acd: a6 28        	ldx	$28                     ; 0x2028 <f256main+0x16fa>
    6acf: 8e 25 88     	stx	$8825                   ; 0x8825 <__data_load_start+0x601>
    6ad2: a6 29        	ldx	$29                     ; 0x2029 <f256main+0x16fb>
    6ad4: 8e 26 88     	stx	$8826                   ; 0x8826 <__data_load_start+0x602>
    6ad7: a6 2a        	ldx	$2a                     ; 0x202a <f256main+0x16fc>
    6ad9: 8e 27 88     	stx	$8827                   ; 0x8827 <__data_load_start+0x603>
    6adc: a6 12        	ldx	$12                     ; 0x2012 <f256main+0x16e4>
    6ade: 86 24        	stx	$24                     ; 0x2024 <f256main+0x16f6>
    6ae0: a6 13        	ldx	$13                     ; 0x2013 <f256main+0x16e5>
    6ae2: 86 25        	stx	$25                     ; 0x2025 <f256main+0x16f7>
    6ae4: a6 14        	ldx	$14                     ; 0x2014 <f256main+0x16e6>
    6ae6: 86 26        	stx	$26                     ; 0x2026 <f256main+0x16f8>
    6ae8: a6 15        	ldx	$15                     ; 0x2015 <f256main+0x16e7>
    6aea: 86 27        	stx	$27                     ; 0x2027 <f256main+0x16f9>
    6aec: a5 26        	lda	$26                     ; 0x2026 <f256main+0x16f8>
    6aee: 18           	clc
    6aef: 69 0d        	adc	#$d
    6af1: 85 12        	sta	$12                     ; 0x2012 <f256main+0x16e4>
    6af3: a5 27        	lda	$27                     ; 0x2027 <f256main+0x16f9>
    6af5: 69 00        	adc	#$0
    6af7: 85 13        	sta	$13                     ; 0x2013 <f256main+0x16e5>
    6af9: a0 01        	ldy	#$1
    6afb: b1 12        	lda	($12),y                 ; 0x2012 <f256main+0x16e4>
    6afd: 30 17        	bmi	$6b16 <_ZN12_GLOBAL__N_112print_stringEPKcP6Status+0x55>
    6aff: a0 0d        	ldy	#$d
    6b01: 85 12        	sta	$12                     ; 0x2012 <f256main+0x16e4>
    6b03: b1 26        	lda	($26),y                 ; 0x2026 <f256main+0x16f8>
    6b05: a6 12        	ldx	$12                     ; 0x2012 <f256main+0x16e4>
    6b07: 8e 24 88     	stx	$8824                   ; 0x8824 <__data_load_start+0x600>
    6b0a: d0 10        	bne	$6b1c <_ZN12_GLOBAL__N_112print_stringEPKcP6Status+0x5b>
    6b0c: aa           	tax
    6b0d: d0 0d        	bne	$6b1c <_ZN12_GLOBAL__N_112print_stringEPKcP6Status+0x5b>
    6b0f: 64 28        	stz	$28                     ; 0x2028 <f256main+0x16fa>
    6b11: a2 00        	ldx	#$0
    6b13: 4c 04 6c     	jmp	$6c04 <_ZN12_GLOBAL__N_112print_stringEPKcP6Status+0x143>
    6b16: a9 ff        	lda	#$ff
    6b18: aa           	tax
    6b19: 8e 24 88     	stx	$8824                   ; 0x8824 <__data_load_start+0x600>
    6b1c: 85 28        	sta	$28                     ; 0x2028 <f256main+0x16fa>
    6b1e: 64 12        	stz	$12                     ; 0x2012 <f256main+0x16e4>
    6b20: a4 24        	ldy	$24                     ; 0x2024 <f256main+0x16f6>
    6b22: a6 25        	ldx	$25                     ; 0x2025 <f256main+0x16f7>
    6b24: 86 16        	stx	$16                     ; 0x2016 <f256main+0x16e8>
    6b26: 64 13        	stz	$13                     ; 0x2013 <f256main+0x16e5>
    6b28: 98           	tya
    6b29: 18           	clc
    6b2a: 65 12        	adc	$12                     ; 0x2012 <f256main+0x16e4>
    6b2c: 85 14        	sta	$14                     ; 0x2014 <f256main+0x16e6>
    6b2e: a5 25        	lda	$25                     ; 0x2025 <f256main+0x16f7>
    6b30: 65 13        	adc	$13                     ; 0x2013 <f256main+0x16e5>
    6b32: 85 15        	sta	$15                     ; 0x2015 <f256main+0x16e7>
    6b34: b2 14        	lda	($14)                   ; 0x2014 <f256main+0x16e6>
    6b36: d0 03        	bne	$6b3b <_ZN12_GLOBAL__N_112print_stringEPKcP6Status+0x7a>
    6b38: 4c fe 6b     	jmp	$6bfe <_ZN12_GLOBAL__N_112print_stringEPKcP6Status+0x13d>
    6b3b: e6 12        	inc	$12                     ; 0x2012 <f256main+0x16e4>
    6b3d: d0 02        	bne	$6b41 <_ZN12_GLOBAL__N_112print_stringEPKcP6Status+0x80>
    6b3f: e6 13        	inc	$13                     ; 0x2013 <f256main+0x16e5>
    6b41: ae 24 88     	ldx	$8824                   ; 0x8824 <__data_load_start+0x600>
    6b44: e4 13        	cpx	$13                     ; 0x2013 <f256main+0x16e5>
    6b46: d0 e0        	bne	$6b28 <_ZN12_GLOBAL__N_112print_stringEPKcP6Status+0x67>
    6b48: a6 28        	ldx	$28                     ; 0x2028 <f256main+0x16fa>
    6b4a: e4 12        	cpx	$12                     ; 0x2012 <f256main+0x16e4>
    6b4c: d0 da        	bne	$6b28 <_ZN12_GLOBAL__N_112print_stringEPKcP6Status+0x67>
    6b4e: a0 01        	ldy	#$1
    6b50: b1 26        	lda	($26),y                 ; 0x2026 <f256main+0x16f8>
    6b52: 29 01        	and	#$1
    6b54: f0 03        	beq	$6b59 <_ZN12_GLOBAL__N_112print_stringEPKcP6Status+0x98>
    6b56: 4c b3 6b     	jmp	$6bb3 <_ZN12_GLOBAL__N_112print_stringEPKcP6Status+0xf2>
    6b59: a5 26        	lda	$26                     ; 0x2026 <f256main+0x16f8>
    6b5b: 18           	clc
    6b5c: 69 0b        	adc	#$b
    6b5e: 85 14        	sta	$14                     ; 0x2014 <f256main+0x16e6>
    6b60: a5 27        	lda	$27                     ; 0x2027 <f256main+0x16f9>
    6b62: 69 00        	adc	#$0
    6b64: 85 15        	sta	$15                     ; 0x2015 <f256main+0x16e7>
    6b66: a0 0b        	ldy	#$b
    6b68: b1 26        	lda	($26),y                 ; 0x2026 <f256main+0x16f8>
    6b6a: 85 13        	sta	$13                     ; 0x2013 <f256main+0x16e5>
    6b6c: a0 01        	ldy	#$1
    6b6e: b1 14        	lda	($14),y                 ; 0x2014 <f256main+0x16e6>
    6b70: 85 12        	sta	$12                     ; 0x2012 <f256main+0x16e4>
    6b72: ae 24 88     	ldx	$8824                   ; 0x8824 <__data_load_start+0x600>
    6b75: e4 12        	cpx	$12                     ; 0x2012 <f256main+0x16e4>
    6b77: d0 08        	bne	$6b81 <_ZN12_GLOBAL__N_112print_stringEPKcP6Status+0xc0>
    6b79: a6 28        	ldx	$28                     ; 0x2028 <f256main+0x16fa>
    6b7b: e4 13        	cpx	$13                     ; 0x2013 <f256main+0x16e5>
    6b7d: 90 06        	bcc	$6b85 <_ZN12_GLOBAL__N_112print_stringEPKcP6Status+0xc4>
    6b7f: 80 32        	bra	$6bb3 <_ZN12_GLOBAL__N_112print_stringEPKcP6Status+0xf2>
    6b81: e4 12        	cpx	$12                     ; 0x2012 <f256main+0x16e4>
    6b83: b0 2e        	bcs	$6bb3 <_ZN12_GLOBAL__N_112print_stringEPKcP6Status+0xf2>
    6b85: 38           	sec
    6b86: a5 28        	lda	$28                     ; 0x2028 <f256main+0x16fa>
    6b88: e5 13        	sbc	$13                     ; 0x2013 <f256main+0x16e5>
    6b8a: a8           	tay
    6b8b: ad 24 88     	lda	$8824                   ; 0x8824 <__data_load_start+0x600>
    6b8e: e5 12        	sbc	$12                     ; 0x2012 <f256main+0x16e4>
    6b90: 85 2a        	sta	$2a                     ; 0x202a <f256main+0x16fc>
    6b92: a6 26        	ldx	$26                     ; 0x2026 <f256main+0x16f8>
    6b94: 86 12        	stx	$12                     ; 0x2012 <f256main+0x16e4>
    6b96: a6 27        	ldx	$27                     ; 0x2027 <f256main+0x16f9>
    6b98: 86 13        	stx	$13                     ; 0x2013 <f256main+0x16e5>
    6b9a: 84 29        	sty	$29                     ; 0x2029 <f256main+0x16fb>
    6b9c: a9 20        	lda	#$20
    6b9e: 20 e2 69     	jsr	$69e2 <_ZN12_GLOBAL__N_13putEcP6Status>
    6ba1: a6 2a        	ldx	$2a                     ; 0x202a <f256main+0x16fc>
    6ba3: e6 29        	inc	$29                     ; 0x2029 <f256main+0x16fb>
    6ba5: d0 01        	bne	$6ba8 <_ZN12_GLOBAL__N_112print_stringEPKcP6Status+0xe7>
    6ba7: e8           	inx
    6ba8: 86 2a        	stx	$2a                     ; 0x202a <f256main+0x16fc>
    6baa: a4 29        	ldy	$29                     ; 0x2029 <f256main+0x16fb>
    6bac: 8a           	txa
    6bad: d0 e3        	bne	$6b92 <_ZN12_GLOBAL__N_112print_stringEPKcP6Status+0xd1>
    6baf: a5 29        	lda	$29                     ; 0x2029 <f256main+0x16fb>
    6bb1: d0 df        	bne	$6b92 <_ZN12_GLOBAL__N_112print_stringEPKcP6Status+0xd1>
    6bb3: ac 24 88     	ldy	$8824                   ; 0x8824 <__data_load_start+0x600>
    6bb6: d0 04        	bne	$6bbc <_ZN12_GLOBAL__N_112print_stringEPKcP6Status+0xfb>
    6bb8: a5 28        	lda	$28                     ; 0x2028 <f256main+0x16fa>
    6bba: f0 26        	beq	$6be2 <_ZN12_GLOBAL__N_112print_stringEPKcP6Status+0x121>
    6bbc: a2 ff        	ldx	#$ff
    6bbe: c6 28        	dec	$28                     ; 0x2028 <f256main+0x16fa>
    6bc0: e4 28        	cpx	$28                     ; 0x2028 <f256main+0x16fa>
    6bc2: d0 01        	bne	$6bc5 <_ZN12_GLOBAL__N_112print_stringEPKcP6Status+0x104>
    6bc4: 88           	dey
    6bc5: 84 29        	sty	$29                     ; 0x2029 <f256main+0x16fb>
    6bc7: b2 24        	lda	($24)                   ; 0x2024 <f256main+0x16f6>
    6bc9: e6 24        	inc	$24                     ; 0x2024 <f256main+0x16f6>
    6bcb: d0 02        	bne	$6bcf <_ZN12_GLOBAL__N_112print_stringEPKcP6Status+0x10e>
    6bcd: e6 25        	inc	$25                     ; 0x2025 <f256main+0x16f7>
    6bcf: a6 26        	ldx	$26                     ; 0x2026 <f256main+0x16f8>
    6bd1: 86 12        	stx	$12                     ; 0x2012 <f256main+0x16e4>
    6bd3: a6 27        	ldx	$27                     ; 0x2027 <f256main+0x16f9>
    6bd5: 86 13        	stx	$13                     ; 0x2013 <f256main+0x16e5>
    6bd7: 20 e2 69     	jsr	$69e2 <_ZN12_GLOBAL__N_13putEcP6Status>
    6bda: a4 29        	ldy	$29                     ; 0x2029 <f256main+0x16fb>
    6bdc: d0 de        	bne	$6bbc <_ZN12_GLOBAL__N_112print_stringEPKcP6Status+0xfb>
    6bde: a5 28        	lda	$28                     ; 0x2028 <f256main+0x16fa>
    6be0: d0 da        	bne	$6bbc <_ZN12_GLOBAL__N_112print_stringEPKcP6Status+0xfb>
    6be2: ae 27 88     	ldx	$8827                   ; 0x8827 <__data_load_start+0x603>
    6be5: 86 2a        	stx	$2a                     ; 0x202a <f256main+0x16fc>
    6be7: ae 26 88     	ldx	$8826                   ; 0x8826 <__data_load_start+0x602>
    6bea: 86 29        	stx	$29                     ; 0x2029 <f256main+0x16fb>
    6bec: ae 25 88     	ldx	$8825                   ; 0x8825 <__data_load_start+0x601>
    6bef: 86 28        	stx	$28                     ; 0x2028 <f256main+0x16fa>
    6bf1: fa           	plx
    6bf2: 86 27        	stx	$27                     ; 0x2027 <f256main+0x16f9>
    6bf4: fa           	plx
    6bf5: 86 26        	stx	$26                     ; 0x2026 <f256main+0x16f8>
    6bf7: fa           	plx
    6bf8: 86 25        	stx	$25                     ; 0x2025 <f256main+0x16f7>
    6bfa: fa           	plx
    6bfb: 86 24        	stx	$24                     ; 0x2024 <f256main+0x16f6>
    6bfd: 60           	rts
    6bfe: a6 12        	ldx	$12                     ; 0x2012 <f256main+0x16e4>
    6c00: 86 28        	stx	$28                     ; 0x2028 <f256main+0x16fa>
    6c02: a6 13        	ldx	$13                     ; 0x2013 <f256main+0x16e5>
    6c04: 8e 24 88     	stx	$8824                   ; 0x8824 <__data_load_start+0x600>
    6c07: 4c 4e 6b     	jmp	$6b4e <_ZN12_GLOBAL__N_112print_stringEPKcP6Status+0x8d>

00006c0a <printf>:
    6c0a: a6 24        	ldx	$24                     ; 0x2024 <f256main+0x16f6>
    6c0c: da           	phx
    6c0d: a6 25        	ldx	$25                     ; 0x2025 <f256main+0x16f7>
    6c0f: da           	phx
    6c10: a6 26        	ldx	$26                     ; 0x2026 <f256main+0x16f8>
    6c12: da           	phx
    6c13: a6 27        	ldx	$27                     ; 0x2027 <f256main+0x16f9>
    6c15: da           	phx
    6c16: a6 28        	ldx	$28                     ; 0x2028 <f256main+0x16fa>
    6c18: 8e 1c 88     	stx	$881c                   ; 0x881c <__data_load_start+0x5f8>
    6c1b: a6 29        	ldx	$29                     ; 0x2029 <f256main+0x16fb>
    6c1d: 8e 1d 88     	stx	$881d                   ; 0x881d <__data_load_start+0x5f9>
    6c20: a6 2a        	ldx	$2a                     ; 0x202a <f256main+0x16fc>
    6c22: 8e 1e 88     	stx	$881e                   ; 0x881e <__data_load_start+0x5fa>
    6c25: a6 2b        	ldx	$2b                     ; 0x202b <f256main+0x16fd>
    6c27: 8e 1f 88     	stx	$881f                   ; 0x881f <__data_load_start+0x5fb>
    6c2a: a6 2c        	ldx	$2c                     ; 0x202c <f256main+0x16fe>
    6c2c: 8e 20 88     	stx	$8820                   ; 0x8820 <__data_load_start+0x5fc>
    6c2f: a6 2d        	ldx	$2d                     ; 0x202d <f256main+0x16ff>
    6c31: 8e 21 88     	stx	$8821                   ; 0x8821 <__data_load_start+0x5fd>
    6c34: a6 2e        	ldx	$2e                     ; 0x202e <f256main+0x1700>
    6c36: 8e 22 88     	stx	$8822                   ; 0x8822 <__data_load_start+0x5fe>
    6c39: a6 2f        	ldx	$2f                     ; 0x202f <f256main+0x1701>
    6c3b: 8e 23 88     	stx	$8823                   ; 0x8823 <__data_load_start+0x5ff>
    6c3e: 18           	clc
    6c3f: a6 10        	ldx	$10                     ; 0x2010 <f256main+0x16e2>
    6c41: a4 11        	ldy	$11                     ; 0x2011 <f256main+0x16e3>
    6c43: 8e 14 88     	stx	$8814                   ; 0x8814 <__data_load_start+0x5f0>
    6c46: 8c 15 88     	sty	$8815                   ; 0x8815 <__data_load_start+0x5f1>
    6c49: ae 14 88     	ldx	$8814                   ; 0x8814 <__data_load_start+0x5f0>
    6c4c: ac 15 88     	ldy	$8815                   ; 0x8815 <__data_load_start+0x5f1>
    6c4f: 8e 12 88     	stx	$8812                   ; 0x8812 <__data_load_start+0x5ee>
    6c52: 8c 13 88     	sty	$8813                   ; 0x8813 <__data_load_start+0x5ef>
    6c55: a2 ff        	ldx	#$ff
    6c57: 86 dd        	stx	$dd                     ; 0x20dd <f256main+0x17af>
    6c59: 86 de        	stx	$de                     ; 0x20de <f256main+0x17b0>
    6c5b: 64 df        	stz	$df                     ; 0x20df <f256main+0x17b1>
    6c5d: 64 e0        	stz	$e0                     ; 0x20e0 <f256main+0x17b2>
    6c5f: e8           	inx
    6c60: 86 26        	stx	$26                     ; 0x2026 <f256main+0x16f8>
    6c62: a2 00        	ldx	#$0
    6c64: 86 27        	stx	$27                     ; 0x2027 <f256main+0x16f9>
    6c66: a6 26        	ldx	$26                     ; 0x2026 <f256main+0x16f8>
    6c68: a4 27        	ldy	$27                     ; 0x2027 <f256main+0x16f9>
    6c6a: 86 e3        	stx	$e3                     ; 0x20e3 <f256main+0x17b5>
    6c6c: 84 e4        	sty	$e4                     ; 0x20e4 <f256main+0x17b6>
    6c6e: a2 02        	ldx	#$2
    6c70: 86 e9        	stx	$e9                     ; 0x20e9 <f256main+0x17bb>
    6c72: 64 ea        	stz	$ea                     ; 0x20ea <f256main+0x17bc>
    6c74: ae 12 88     	ldx	$8812                   ; 0x8812 <__data_load_start+0x5ee>
    6c77: ac 13 88     	ldy	$8813                   ; 0x8813 <__data_load_start+0x5ef>
    6c7a: 86 eb        	stx	$eb                     ; 0x20eb <f256main+0x17bd>
    6c7c: 84 ec        	sty	$ec                     ; 0x20ec <f256main+0x17be>
    6c7e: a2 d1        	ldx	#$d1
    6c80: a0 00        	ldy	#$0
    6c82: 86 12        	stx	$12                     ; 0x2012 <f256main+0x16e4>
    6c84: 84 13        	sty	$13                     ; 0x2013 <f256main+0x16e5>
    6c86: a0 01        	ldy	#$1
    6c88: a9 f9        	lda	#$f9
    6c8a: 18           	clc
    6c8b: 69 02        	adc	#$2
    6c8d: 8d 1a 88     	sta	$881a                   ; 0x881a <__data_load_start+0x5f6>
    6c90: a9 87        	lda	#$87
    6c92: 69 00        	adc	#$0
    6c94: 8d 1b 88     	sta	$881b                   ; 0x881b <__data_load_start+0x5f7>
    6c97: e6 12        	inc	$12                     ; 0x2012 <f256main+0x16e4>
    6c99: d0 02        	bne	$6c9d <printf+0x93>
    6c9b: e6 13        	inc	$13                     ; 0x2013 <f256main+0x16e5>
    6c9d: a6 12        	ldx	$12                     ; 0x2012 <f256main+0x16e4>
    6c9f: 8e 16 88     	stx	$8816                   ; 0x8816 <__data_load_start+0x5f2>
    6ca2: a6 13        	ldx	$13                     ; 0x2013 <f256main+0x16e5>
    6ca4: 8e 17 88     	stx	$8817                   ; 0x8817 <__data_load_start+0x5f3>
    6ca7: a2 40        	ldx	#$40
    6ca9: 86 2a        	stx	$2a                     ; 0x202a <f256main+0x16fc>
    6cab: a2 80        	ldx	#$80
    6cad: 86 2b        	stx	$2b                     ; 0x202b <f256main+0x16fd>
    6caf: a6 2a        	ldx	$2a                     ; 0x202a <f256main+0x16fc>
    6cb1: 86 28        	stx	$28                     ; 0x2028 <f256main+0x16fa>
    6cb3: a6 2b        	ldx	$2b                     ; 0x202b <f256main+0x16fd>
    6cb5: 86 29        	stx	$29                     ; 0x2029 <f256main+0x16fb>
    6cb7: b2 2a        	lda	($2a)                   ; 0x202a <f256main+0x16fc>
    6cb9: c9 25        	cmp	#$25
    6cbb: f0 2b        	beq	$6ce8 <printf+0xde>
    6cbd: aa           	tax
    6cbe: d0 03        	bne	$6cc3 <printf+0xb9>
    6cc0: 4c 9a 78     	jmp	$789a <printf+0xc90>
    6cc3: 85 9d        	sta	$9d                     ; 0x209d <f256main+0x176f>
    6cc5: a2 9d        	ldx	#$9d
    6cc7: 86 12        	stx	$12                     ; 0x2012 <f256main+0x16e4>
    6cc9: a2 00        	ldx	#$0
    6ccb: 86 13        	stx	$13                     ; 0x2013 <f256main+0x16e5>
    6ccd: 20 db 43     	jsr	$43db <textPrint>
    6cd0: a0 01        	ldy	#$1
    6cd2: e6 28        	inc	$28                     ; 0x2028 <f256main+0x16fa>
    6cd4: d0 02        	bne	$6cd8 <printf+0xce>
    6cd6: e6 29        	inc	$29                     ; 0x2029 <f256main+0x16fb>
    6cd8: e6 df        	inc	$df                     ; 0x20df <f256main+0x17b1>
    6cda: d0 02        	bne	$6cde <printf+0xd4>
    6cdc: e6 e0        	inc	$e0                     ; 0x20e0 <f256main+0x17b2>
    6cde: a6 28        	ldx	$28                     ; 0x2028 <f256main+0x16fa>
    6ce0: 86 2a        	stx	$2a                     ; 0x202a <f256main+0x16fc>
    6ce2: a6 29        	ldx	$29                     ; 0x2029 <f256main+0x16fb>
    6ce4: 86 2b        	stx	$2b                     ; 0x202b <f256main+0x16fd>
    6ce6: 80 c7        	bra	$6caf <printf+0xa5>
    6ce8: a6 2a        	ldx	$2a                     ; 0x202a <f256main+0x16fc>
    6cea: 86 12        	stx	$12                     ; 0x2012 <f256main+0x16e4>
    6cec: a6 2b        	ldx	$2b                     ; 0x202b <f256main+0x16fd>
    6cee: 86 13        	stx	$13                     ; 0x2013 <f256main+0x16e5>
    6cf0: e6 12        	inc	$12                     ; 0x2012 <f256main+0x16e4>
    6cf2: d0 02        	bne	$6cf6 <printf+0xec>
    6cf4: e6 13        	inc	$13                     ; 0x2013 <f256main+0x16e5>
    6cf6: b1 28        	lda	($28),y                 ; 0x2028 <f256main+0x16fa>
    6cf8: c9 25        	cmp	#$25
    6cfa: d0 16        	bne	$6d12 <printf+0x108>
    6cfc: a4 df        	ldy	$df                     ; 0x20df <f256main+0x17b1>
    6cfe: a5 e0        	lda	$e0                     ; 0x20e0 <f256main+0x17b2>
    6d00: c5 de        	cmp	$de                     ; 0x20de <f256main+0x17b0>
    6d02: f0 03        	beq	$6d07 <printf+0xfd>
    6d04: 4c 19 6e     	jmp	$6e19 <printf+0x20f>
    6d07: a6 dd        	ldx	$dd                     ; 0x20dd <f256main+0x17af>
    6d09: 86 12        	stx	$12                     ; 0x2012 <f256main+0x16e4>
    6d0b: 84 13        	sty	$13                     ; 0x2013 <f256main+0x16e5>
    6d0d: c4 12        	cpy	$12                     ; 0x2012 <f256main+0x16e4>
    6d0f: 4c 1d 6e     	jmp	$6e1d <printf+0x213>
    6d12: 64 db        	stz	$db                     ; 0x20db <f256main+0x17ad>
    6d14: 64 dc        	stz	$dc                     ; 0x20dc <f256main+0x17ae>
    6d16: 64 da        	stz	$da                     ; 0x20da <f256main+0x17ac>
    6d18: 64 e5        	stz	$e5                     ; 0x20e5 <f256main+0x17b7>
    6d1a: 64 e6        	stz	$e6                     ; 0x20e6 <f256main+0x17b8>
    6d1c: a2 ff        	ldx	#$ff
    6d1e: 86 e7        	stx	$e7                     ; 0x20e7 <f256main+0x17b9>
    6d20: 86 e8        	stx	$e8                     ; 0x20e8 <f256main+0x17ba>
    6d22: 64 25        	stz	$25                     ; 0x2025 <f256main+0x16f7>
    6d24: 80 33        	bra	$6d59 <printf+0x14f>
    6d26: a2 02        	ldx	#$2
    6d28: 80 15        	bra	$6d3f <printf+0x135>
    6d2a: e0 20        	cpx	#$20
    6d2c: f0 15        	beq	$6d43 <printf+0x139>
    6d2e: 86 15        	stx	$15                     ; 0x2015 <f256main+0x16e7>
    6d30: e0 23        	cpx	#$23
    6d32: f0 03        	beq	$6d37 <printf+0x12d>
    6d34: 4c b6 6d     	jmp	$6db6 <printf+0x1ac>
    6d37: a5 25        	lda	$25                     ; 0x2025 <f256main+0x16f7>
    6d39: a2 04        	ldx	#$4
    6d3b: 80 02        	bra	$6d3f <printf+0x135>
    6d3d: a2 10        	ldx	#$10
    6d3f: 86 14        	stx	$14                     ; 0x2014 <f256main+0x16e6>
    6d41: 80 06        	bra	$6d49 <printf+0x13f>
    6d43: a2 08        	ldx	#$8
    6d45: 86 14        	stx	$14                     ; 0x2014 <f256main+0x16e6>
    6d47: a5 25        	lda	$25                     ; 0x2025 <f256main+0x16f7>
    6d49: 05 14        	ora	$14                     ; 0x2014 <f256main+0x16e6>
    6d4b: 85 25        	sta	$25                     ; 0x2025 <f256main+0x16f7>
    6d4d: 85 db        	sta	$db                     ; 0x20db <f256main+0x17ad>
    6d4f: a2 00        	ldx	#$0
    6d51: 86 dc        	stx	$dc                     ; 0x20dc <f256main+0x17ae>
    6d53: e6 12        	inc	$12                     ; 0x2012 <f256main+0x16e4>
    6d55: d0 02        	bne	$6d59 <printf+0x14f>
    6d57: e6 13        	inc	$13                     ; 0x2013 <f256main+0x16e5>
    6d59: b2 12        	lda	($12)                   ; 0x2012 <f256main+0x16e4>
    6d5b: aa           	tax
    6d5c: 18           	clc
    6d5d: 69 d6        	adc	#$d6
    6d5f: c9 07        	cmp	#$7
    6d61: b0 c7        	bcs	$6d2a <printf+0x120>
    6d63: 86 15        	stx	$15                     ; 0x2015 <f256main+0x16e7>
    6d65: 0a           	asl
    6d66: aa           	tax
    6d67: a0 01        	ldy	#$1
    6d69: 84 14        	sty	$14                     ; 0x2014 <f256main+0x16e6>
    6d6b: a5 25        	lda	$25                     ; 0x2025 <f256main+0x16f7>
    6d6d: 7c ae 7f     	jmp	($7fae,x)               ; 0x7fae <__set_v+0xcd>
    6d70: a5 eb        	lda	$eb                     ; 0x20eb <f256main+0x17bd>
    6d72: a6 ec        	ldx	$ec                     ; 0x20ec <f256main+0x17be>
    6d74: 85 16        	sta	$16                     ; 0x2016 <f256main+0x16e8>
    6d76: 86 17        	stx	$17                     ; 0x2017 <f256main+0x16e9>
    6d78: 18           	clc
    6d79: 69 02        	adc	#$2
    6d7b: a8           	tay
    6d7c: 8a           	txa
    6d7d: 69 00        	adc	#$0
    6d7f: 84 eb        	sty	$eb                     ; 0x20eb <f256main+0x17bd>
    6d81: 85 ec        	sta	$ec                     ; 0x20ec <f256main+0x17be>
    6d83: b2 16        	lda	($16)                   ; 0x2016 <f256main+0x16e8>
    6d85: 85 15        	sta	$15                     ; 0x2015 <f256main+0x16e7>
    6d87: a0 01        	ldy	#$1
    6d89: b1 16        	lda	($16),y                 ; 0x2016 <f256main+0x16e8>
    6d8b: 85 14        	sta	$14                     ; 0x2014 <f256main+0x16e6>
    6d8d: 10 15        	bpl	$6da4 <printf+0x19a>
    6d8f: a5 25        	lda	$25                     ; 0x2025 <f256main+0x16f7>
    6d91: 09 01        	ora	#$1
    6d93: 85 25        	sta	$25                     ; 0x2025 <f256main+0x16f7>
    6d95: 85 db        	sta	$db                     ; 0x20db <f256main+0x17ad>
    6d97: a2 00        	ldx	#$0
    6d99: 86 dc        	stx	$dc                     ; 0x20dc <f256main+0x17ae>
    6d9b: 8a           	txa
    6d9c: 38           	sec
    6d9d: e5 15        	sbc	$15                     ; 0x2015 <f256main+0x16e7>
    6d9f: 85 15        	sta	$15                     ; 0x2015 <f256main+0x16e7>
    6da1: 8a           	txa
    6da2: e5 14        	sbc	$14                     ; 0x2014 <f256main+0x16e6>
    6da4: a6 15        	ldx	$15                     ; 0x2015 <f256main+0x16e7>
    6da6: 86 e5        	stx	$e5                     ; 0x20e5 <f256main+0x17b7>
    6da8: 85 e6        	sta	$e6                     ; 0x20e6 <f256main+0x17b8>
    6daa: e6 12        	inc	$12                     ; 0x2012 <f256main+0x16e4>
    6dac: f0 03        	beq	$6db1 <printf+0x1a7>
    6dae: 4c 75 6e     	jmp	$6e75 <printf+0x26b>
    6db1: e6 13        	inc	$13                     ; 0x2013 <f256main+0x16e5>
    6db3: 4c 75 6e     	jmp	$6e75 <printf+0x26b>
    6db6: a5 15        	lda	$15                     ; 0x2015 <f256main+0x16e7>
    6db8: 18           	clc
    6db9: 69 d0        	adc	#$d0
    6dbb: c9 0a        	cmp	#$a
    6dbd: 90 03        	bcc	$6dc2 <printf+0x1b8>
    6dbf: 4c 67 6e     	jmp	$6e67 <printf+0x25d>
    6dc2: a6 15        	ldx	$15                     ; 0x2015 <f256main+0x16e7>
    6dc4: 86 14        	stx	$14                     ; 0x2014 <f256main+0x16e6>
    6dc6: 64 16        	stz	$16                     ; 0x2016 <f256main+0x16e8>
    6dc8: 64 15        	stz	$15                     ; 0x2015 <f256main+0x16e7>
    6dca: 64 17        	stz	$17                     ; 0x2017 <f256main+0x16e9>
    6dcc: a0 01        	ldy	#$1
    6dce: 06 16        	asl	$16                     ; 0x2016 <f256main+0x16e8>
    6dd0: 26 17        	rol	$17                     ; 0x2017 <f256main+0x16e9>
    6dd2: a5 16        	lda	$16                     ; 0x2016 <f256main+0x16e8>
    6dd4: 0a           	asl
    6dd5: aa           	tax
    6dd6: a5 17        	lda	$17                     ; 0x2017 <f256main+0x16e9>
    6dd8: 2a           	rol
    6dd9: 86 18        	stx	$18                     ; 0x2018 <f256main+0x16ea>
    6ddb: 06 18        	asl	$18                     ; 0x2018 <f256main+0x16ea>
    6ddd: 2a           	rol
    6dde: aa           	tax
    6ddf: a5 18        	lda	$18                     ; 0x2018 <f256main+0x16ea>
    6de1: 18           	clc
    6de2: 65 16        	adc	$16                     ; 0x2016 <f256main+0x16e8>
    6de4: 85 16        	sta	$16                     ; 0x2016 <f256main+0x16e8>
    6de6: 8a           	txa
    6de7: 65 17        	adc	$17                     ; 0x2017 <f256main+0x16e9>
    6de9: 85 17        	sta	$17                     ; 0x2017 <f256main+0x16e9>
    6deb: a5 16        	lda	$16                     ; 0x2016 <f256main+0x16e8>
    6ded: 18           	clc
    6dee: 65 14        	adc	$14                     ; 0x2014 <f256main+0x16e6>
    6df0: 85 14        	sta	$14                     ; 0x2014 <f256main+0x16e6>
    6df2: a5 17        	lda	$17                     ; 0x2017 <f256main+0x16e9>
    6df4: 65 15        	adc	$15                     ; 0x2015 <f256main+0x16e7>
    6df6: aa           	tax
    6df7: 18           	clc
    6df8: a5 14        	lda	$14                     ; 0x2014 <f256main+0x16e6>
    6dfa: 69 d0        	adc	#$d0
    6dfc: 85 16        	sta	$16                     ; 0x2016 <f256main+0x16e8>
    6dfe: 8a           	txa
    6dff: 69 ff        	adc	#$ff
    6e01: 85 17        	sta	$17                     ; 0x2017 <f256main+0x16e9>
    6e03: b1 12        	lda	($12),y                 ; 0x2012 <f256main+0x16e4>
    6e05: 85 14        	sta	$14                     ; 0x2014 <f256main+0x16e6>
    6e07: 18           	clc
    6e08: 69 d0        	adc	#$d0
    6e0a: e6 12        	inc	$12                     ; 0x2012 <f256main+0x16e4>
    6e0c: d0 02        	bne	$6e10 <printf+0x206>
    6e0e: e6 13        	inc	$13                     ; 0x2013 <f256main+0x16e5>
    6e10: c9 0a        	cmp	#$a
    6e12: 64 15        	stz	$15                     ; 0x2015 <f256main+0x16e7>
    6e14: 90 b8        	bcc	$6dce <printf+0x1c4>
    6e16: 4c 6d 6e     	jmp	$6e6d <printf+0x263>
    6e19: 84 13        	sty	$13                     ; 0x2013 <f256main+0x16e5>
    6e1b: c5 de        	cmp	$de                     ; 0x20de <f256main+0x17b0>
    6e1d: a0 01        	ldy	#$1
    6e1f: b0 30        	bcs	$6e51 <printf+0x247>
    6e21: a6 ea        	ldx	$ea                     ; 0x20ea <f256main+0x17bc>
    6e23: e4 27        	cpx	$27                     ; 0x2027 <f256main+0x16f9>
    6e25: d0 19        	bne	$6e40 <printf+0x236>
    6e27: a6 e9        	ldx	$e9                     ; 0x20e9 <f256main+0x17bb>
    6e29: e4 26        	cpx	$26                     ; 0x2026 <f256main+0x16f8>
    6e2b: d0 13        	bne	$6e40 <printf+0x236>
    6e2d: 18           	clc
    6e2e: aa           	tax
    6e2f: a5 13        	lda	$13                     ; 0x2013 <f256main+0x16e5>
    6e31: 65 e3        	adc	$e3                     ; 0x20e3 <f256main+0x17b5>
    6e33: 85 12        	sta	$12                     ; 0x2012 <f256main+0x16e4>
    6e35: 8a           	txa
    6e36: 65 e4        	adc	$e4                     ; 0x20e4 <f256main+0x17b6>
    6e38: 85 13        	sta	$13                     ; 0x2013 <f256main+0x16e5>
    6e3a: a9 25        	lda	#$25
    6e3c: 92 12        	sta	($12)                   ; 0x2012 <f256main+0x16e4>
    6e3e: 80 11        	bra	$6e51 <printf+0x247>
    6e40: a2 25        	ldx	#$25
    6e42: 86 9d        	stx	$9d                     ; 0x209d <f256main+0x176f>
    6e44: a2 9d        	ldx	#$9d
    6e46: 86 12        	stx	$12                     ; 0x2012 <f256main+0x16e4>
    6e48: a2 00        	ldx	#$0
    6e4a: 86 13        	stx	$13                     ; 0x2013 <f256main+0x16e5>
    6e4c: 20 db 43     	jsr	$43db <textPrint>
    6e4f: a0 01        	ldy	#$1
    6e51: e6 df        	inc	$df                     ; 0x20df <f256main+0x17b1>
    6e53: d0 02        	bne	$6e57 <printf+0x24d>
    6e55: e6 e0        	inc	$e0                     ; 0x20e0 <f256main+0x17b2>
    6e57: a5 28        	lda	$28                     ; 0x2028 <f256main+0x16fa>
    6e59: 18           	clc
    6e5a: 69 02        	adc	#$2
    6e5c: 85 2a        	sta	$2a                     ; 0x202a <f256main+0x16fc>
    6e5e: a5 29        	lda	$29                     ; 0x2029 <f256main+0x16fb>
    6e60: 69 00        	adc	#$0
    6e62: 85 2b        	sta	$2b                     ; 0x202b <f256main+0x16fd>
    6e64: 4c af 6c     	jmp	$6caf <printf+0xa5>
    6e67: 64 16        	stz	$16                     ; 0x2016 <f256main+0x16e8>
    6e69: 64 17        	stz	$17                     ; 0x2017 <f256main+0x16e9>
    6e6b: a0 01        	ldy	#$1
    6e6d: a6 16        	ldx	$16                     ; 0x2016 <f256main+0x16e8>
    6e6f: 86 e5        	stx	$e5                     ; 0x20e5 <f256main+0x17b7>
    6e71: a5 17        	lda	$17                     ; 0x2017 <f256main+0x16e9>
    6e73: 85 e6        	sta	$e6                     ; 0x20e6 <f256main+0x17b8>
    6e75: 86 2e        	stx	$2e                     ; 0x202e <f256main+0x1700>
    6e77: 85 2c        	sta	$2c                     ; 0x202c <f256main+0x16fe>
    6e79: b2 12        	lda	($12)                   ; 0x2012 <f256main+0x16e4>
    6e7b: a2 ff        	ldx	#$ff
    6e7d: c9 2e        	cmp	#$2e
    6e7f: d0 39        	bne	$6eba <printf+0x2b0>
    6e81: b1 12        	lda	($12),y                 ; 0x2012 <f256main+0x16e4>
    6e83: c9 2a        	cmp	#$2a
    6e85: d0 38        	bne	$6ebf <printf+0x2b5>
    6e87: a5 eb        	lda	$eb                     ; 0x20eb <f256main+0x17bd>
    6e89: a6 ec        	ldx	$ec                     ; 0x20ec <f256main+0x17be>
    6e8b: 85 14        	sta	$14                     ; 0x2014 <f256main+0x16e6>
    6e8d: 86 15        	stx	$15                     ; 0x2015 <f256main+0x16e7>
    6e8f: 18           	clc
    6e90: 69 02        	adc	#$2
    6e92: 85 16        	sta	$16                     ; 0x2016 <f256main+0x16e8>
    6e94: 8a           	txa
    6e95: 69 00        	adc	#$0
    6e97: a6 16        	ldx	$16                     ; 0x2016 <f256main+0x16e8>
    6e99: 86 eb        	stx	$eb                     ; 0x20eb <f256main+0x17bd>
    6e9b: 85 ec        	sta	$ec                     ; 0x20ec <f256main+0x17be>
    6e9d: a5 12        	lda	$12                     ; 0x2012 <f256main+0x16e4>
    6e9f: 18           	clc
    6ea0: 69 02        	adc	#$2
    6ea2: 85 12        	sta	$12                     ; 0x2012 <f256main+0x16e4>
    6ea4: a5 13        	lda	$13                     ; 0x2013 <f256main+0x16e5>
    6ea6: 69 00        	adc	#$0
    6ea8: 85 13        	sta	$13                     ; 0x2013 <f256main+0x16e5>
    6eaa: b2 14        	lda	($14)                   ; 0x2014 <f256main+0x16e6>
    6eac: aa           	tax
    6ead: b1 14        	lda	($14),y                 ; 0x2014 <f256main+0x16e6>
    6eaf: 86 18        	stx	$18                     ; 0x2018 <f256main+0x16ea>
    6eb1: 86 e7        	stx	$e7                     ; 0x20e7 <f256main+0x17b9>
    6eb3: 85 19        	sta	$19                     ; 0x2019 <f256main+0x16eb>
    6eb5: 85 e8        	sta	$e8                     ; 0x20e8 <f256main+0x17ba>
    6eb7: 4c 6a 6f     	jmp	$6f6a <printf+0x360>
    6eba: 86 18        	stx	$18                     ; 0x2018 <f256main+0x16ea>
    6ebc: 4c 7a 6f     	jmp	$6f7a <printf+0x370>
    6ebf: 85 17        	sta	$17                     ; 0x2017 <f256main+0x16e9>
    6ec1: 18           	clc
    6ec2: 69 d0        	adc	#$d0
    6ec4: c9 0a        	cmp	#$a
    6ec6: 90 03        	bcc	$6ecb <printf+0x2c1>
    6ec8: 4c 5c 6f     	jmp	$6f5c <printf+0x352>
    6ecb: 64 16        	stz	$16                     ; 0x2016 <f256main+0x16e8>
    6ecd: a2 01        	ldx	#$1
    6ecf: 64 18        	stz	$18                     ; 0x2018 <f256main+0x16ea>
    6ed1: 64 19        	stz	$19                     ; 0x2019 <f256main+0x16eb>
    6ed3: a0 01        	ldy	#$1
    6ed5: 64 1a        	stz	$1a                     ; 0x201a <f256main+0x16ec>
    6ed7: 5a           	phy
    6ed8: a4 1a        	ldy	$1a                     ; 0x201a <f256main+0x16ec>
    6eda: 84 14        	sty	$14                     ; 0x2014 <f256main+0x16e6>
    6edc: 86 15        	stx	$15                     ; 0x2015 <f256main+0x16e7>
    6ede: 06 18        	asl	$18                     ; 0x2018 <f256main+0x16ea>
    6ee0: 26 19        	rol	$19                     ; 0x2019 <f256main+0x16eb>
    6ee2: a5 18        	lda	$18                     ; 0x2018 <f256main+0x16ea>
    6ee4: 0a           	asl
    6ee5: 85 1d        	sta	$1d                     ; 0x201d <f256main+0x16ef>
    6ee7: a5 19        	lda	$19                     ; 0x2019 <f256main+0x16eb>
    6ee9: 2a           	rol
    6eea: 06 1d        	asl	$1d                     ; 0x201d <f256main+0x16ef>
    6eec: 2a           	rol
    6eed: 85 1e        	sta	$1e                     ; 0x201e <f256main+0x16f0>
    6eef: a5 1d        	lda	$1d                     ; 0x201d <f256main+0x16ef>
    6ef1: 18           	clc
    6ef2: 65 18        	adc	$18                     ; 0x2018 <f256main+0x16ea>
    6ef4: 85 18        	sta	$18                     ; 0x2018 <f256main+0x16ea>
    6ef6: a5 1e        	lda	$1e                     ; 0x201e <f256main+0x16f0>
    6ef8: 65 19        	adc	$19                     ; 0x2019 <f256main+0x16eb>
    6efa: 85 19        	sta	$19                     ; 0x2019 <f256main+0x16eb>
    6efc: a5 18        	lda	$18                     ; 0x2018 <f256main+0x16ea>
    6efe: 18           	clc
    6eff: 65 17        	adc	$17                     ; 0x2017 <f256main+0x16e9>
    6f01: 85 17        	sta	$17                     ; 0x2017 <f256main+0x16e9>
    6f03: a5 19        	lda	$19                     ; 0x2019 <f256main+0x16eb>
    6f05: 65 16        	adc	$16                     ; 0x2016 <f256main+0x16e8>
    6f07: 85 16        	sta	$16                     ; 0x2016 <f256main+0x16e8>
    6f09: 18           	clc
    6f0a: a5 17        	lda	$17                     ; 0x2017 <f256main+0x16e9>
    6f0c: 69 d0        	adc	#$d0
    6f0e: 85 18        	sta	$18                     ; 0x2018 <f256main+0x16ea>
    6f10: a5 16        	lda	$16                     ; 0x2016 <f256main+0x16e8>
    6f12: 69 ff        	adc	#$ff
    6f14: 85 19        	sta	$19                     ; 0x2019 <f256main+0x16eb>
    6f16: e8           	inx
    6f17: d0 02        	bne	$6f1b <printf+0x311>
    6f19: e6 1a        	inc	$1a                     ; 0x201a <f256main+0x16ec>
    6f1b: a5 12        	lda	$12                     ; 0x2012 <f256main+0x16e4>
    6f1d: 18           	clc
    6f1e: 65 15        	adc	$15                     ; 0x2015 <f256main+0x16e7>
    6f20: 85 1d        	sta	$1d                     ; 0x201d <f256main+0x16ef>
    6f22: a5 13        	lda	$13                     ; 0x2013 <f256main+0x16e5>
    6f24: 65 14        	adc	$14                     ; 0x2014 <f256main+0x16e6>
    6f26: a4 1d        	ldy	$1d                     ; 0x201d <f256main+0x16ef>
    6f28: 84 16        	sty	$16                     ; 0x2016 <f256main+0x16e8>
    6f2a: 7a           	ply
    6f2b: 85 17        	sta	$17                     ; 0x2017 <f256main+0x16e9>
    6f2d: b1 16        	lda	($16),y                 ; 0x2016 <f256main+0x16e8>
    6f2f: 85 17        	sta	$17                     ; 0x2017 <f256main+0x16e9>
    6f31: 18           	clc
    6f32: 69 d0        	adc	#$d0
    6f34: c9 0a        	cmp	#$a
    6f36: 64 16        	stz	$16                     ; 0x2016 <f256main+0x16e8>
    6f38: b0 03        	bcs	$6f3d <printf+0x333>
    6f3a: 4c d7 6e     	jmp	$6ed7 <printf+0x2cd>
    6f3d: a5 12        	lda	$12                     ; 0x2012 <f256main+0x16e4>
    6f3f: 18           	clc
    6f40: 65 15        	adc	$15                     ; 0x2015 <f256main+0x16e7>
    6f42: 85 12        	sta	$12                     ; 0x2012 <f256main+0x16e4>
    6f44: a5 13        	lda	$13                     ; 0x2013 <f256main+0x16e5>
    6f46: 65 14        	adc	$14                     ; 0x2014 <f256main+0x16e6>
    6f48: 85 13        	sta	$13                     ; 0x2013 <f256main+0x16e5>
    6f4a: e6 12        	inc	$12                     ; 0x2012 <f256main+0x16e4>
    6f4c: d0 02        	bne	$6f50 <printf+0x346>
    6f4e: e6 13        	inc	$13                     ; 0x2013 <f256main+0x16e5>
    6f50: a6 18        	ldx	$18                     ; 0x2018 <f256main+0x16ea>
    6f52: 86 e7        	stx	$e7                     ; 0x20e7 <f256main+0x17b9>
    6f54: a6 19        	ldx	$19                     ; 0x2019 <f256main+0x16eb>
    6f56: 86 e8        	stx	$e8                     ; 0x20e8 <f256main+0x17ba>
    6f58: a0 01        	ldy	#$1
    6f5a: 80 0e        	bra	$6f6a <printf+0x360>
    6f5c: e6 12        	inc	$12                     ; 0x2012 <f256main+0x16e4>
    6f5e: d0 02        	bne	$6f62 <printf+0x358>
    6f60: e6 13        	inc	$13                     ; 0x2013 <f256main+0x16e5>
    6f62: 64 18        	stz	$18                     ; 0x2018 <f256main+0x16ea>
    6f64: 64 e7        	stz	$e7                     ; 0x20e7 <f256main+0x17b9>
    6f66: 64 e8        	stz	$e8                     ; 0x20e8 <f256main+0x17ba>
    6f68: 64 19        	stz	$19                     ; 0x2019 <f256main+0x16eb>
    6f6a: a5 25        	lda	$25                     ; 0x2025 <f256main+0x16f7>
    6f6c: 29 ef        	and	#$ef
    6f6e: 85 25        	sta	$25                     ; 0x2025 <f256main+0x16f7>
    6f70: 85 db        	sta	$db                     ; 0x20db <f256main+0x17ad>
    6f72: a2 00        	ldx	#$0
    6f74: 86 dc        	stx	$dc                     ; 0x20dc <f256main+0x17ae>
    6f76: b2 12        	lda	($12)                   ; 0x2012 <f256main+0x16e4>
    6f78: a6 19        	ldx	$19                     ; 0x2019 <f256main+0x16eb>
    6f7a: 86 15        	stx	$15                     ; 0x2015 <f256main+0x16e7>
    6f7c: a6 12        	ldx	$12                     ; 0x2012 <f256main+0x16e4>
    6f7e: 86 2a        	stx	$2a                     ; 0x202a <f256main+0x16fc>
    6f80: a6 13        	ldx	$13                     ; 0x2013 <f256main+0x16e5>
    6f82: 86 2b        	stx	$2b                     ; 0x202b <f256main+0x16fd>
    6f84: e6 2a        	inc	$2a                     ; 0x202a <f256main+0x16fc>
    6f86: d0 02        	bne	$6f8a <printf+0x380>
    6f88: e6 2b        	inc	$2b                     ; 0x202b <f256main+0x16fd>
    6f8a: 85 14        	sta	$14                     ; 0x2014 <f256main+0x16e6>
    6f8c: 38           	sec
    6f8d: e9 6c        	sbc	#$6c
    6f8f: 50 02        	bvc	$6f93 <printf+0x389>
    6f91: 49 80        	eor	#$80
    6f93: aa           	tax
    6f94: 10 1d        	bpl	$6fb3 <printf+0x3a9>
    6f96: a5 14        	lda	$14                     ; 0x2014 <f256main+0x16e6>
    6f98: c9 4c        	cmp	#$4c
    6f9a: f0 27        	beq	$6fc3 <printf+0x3b9>
    6f9c: c9 68        	cmp	#$68
    6f9e: d0 03        	bne	$6fa3 <printf+0x399>
    6fa0: 4c 2c 70     	jmp	$702c <printf+0x422>
    6fa3: a2 08        	ldx	#$8
    6fa5: c9 6a        	cmp	#$6a
    6fa7: d0 2e        	bne	$6fd7 <printf+0x3cd>
    6fa9: a5 2a        	lda	$2a                     ; 0x202a <f256main+0x16fc>
    6fab: 85 12        	sta	$12                     ; 0x2012 <f256main+0x16e4>
    6fad: a5 2b        	lda	$2b                     ; 0x202b <f256main+0x16fd>
    6faf: 85 13        	sta	$13                     ; 0x2013 <f256main+0x16e5>
    6fb1: 80 43        	bra	$6ff6 <printf+0x3ec>
    6fb3: a6 14        	ldx	$14                     ; 0x2014 <f256main+0x16e6>
    6fb5: e0 6c        	cpx	#$6c
    6fb7: f0 23        	beq	$6fdc <printf+0x3d2>
    6fb9: e0 74        	cpx	#$74
    6fbb: f0 12        	beq	$6fcf <printf+0x3c5>
    6fbd: e0 7a        	cpx	#$7a
    6fbf: f0 0e        	beq	$6fcf <printf+0x3c5>
    6fc1: 80 14        	bra	$6fd7 <printf+0x3cd>
    6fc3: a5 25        	lda	$25                     ; 0x2025 <f256main+0x16f7>
    6fc5: 09 40        	ora	#$40
    6fc7: 85 25        	sta	$25                     ; 0x2025 <f256main+0x16f7>
    6fc9: 85 db        	sta	$db                     ; 0x20db <f256main+0x17ad>
    6fcb: a2 00        	ldx	#$0
    6fcd: 86 dc        	stx	$dc                     ; 0x20dc <f256main+0x17ae>
    6fcf: a6 2a        	ldx	$2a                     ; 0x202a <f256main+0x16fc>
    6fd1: 86 12        	stx	$12                     ; 0x2012 <f256main+0x16e4>
    6fd3: a6 2b        	ldx	$2b                     ; 0x202b <f256main+0x16fd>
    6fd5: 86 13        	stx	$13                     ; 0x2013 <f256main+0x16e5>
    6fd7: a2 02        	ldx	#$2
    6fd9: 8a           	txa
    6fda: 80 1c        	bra	$6ff8 <printf+0x3ee>
    6fdc: b1 12        	lda	($12),y                 ; 0x2012 <f256main+0x16e4>
    6fde: a2 04        	ldx	#$4
    6fe0: c9 6c        	cmp	#$6c
    6fe2: f0 03        	beq	$6fe7 <printf+0x3dd>
    6fe4: 4c 51 73     	jmp	$7351 <printf+0x747>
    6fe7: a5 12        	lda	$12                     ; 0x2012 <f256main+0x16e4>
    6fe9: 18           	clc
    6fea: 69 02        	adc	#$2
    6fec: 85 12        	sta	$12                     ; 0x2012 <f256main+0x16e4>
    6fee: a5 13        	lda	$13                     ; 0x2013 <f256main+0x16e5>
    6ff0: 69 00        	adc	#$0
    6ff2: 85 13        	sta	$13                     ; 0x2013 <f256main+0x16e5>
    6ff4: a2 08        	ldx	#$8
    6ff6: a9 08        	lda	#$8
    6ff8: 85 ee        	sta	$ee                     ; 0x20ee <f256main+0x17c0>
    6ffa: b2 12        	lda	($12)                   ; 0x2012 <f256main+0x16e4>
    6ffc: 5a           	phy
    6ffd: a4 12        	ldy	$12                     ; 0x2012 <f256main+0x16e4>
    6fff: 84 2a        	sty	$2a                     ; 0x202a <f256main+0x16fc>
    7001: a4 13        	ldy	$13                     ; 0x2013 <f256main+0x16e5>
    7003: 84 2b        	sty	$2b                     ; 0x202b <f256main+0x16fd>
    7005: 7a           	ply
    7006: 86 26        	stx	$26                     ; 0x2026 <f256main+0x16f8>
    7008: aa           	tax
    7009: 18           	clc
    700a: 69 9d        	adc	#$9d
    700c: c9 16        	cmp	#$16
    700e: b0 3b        	bcs	$704b <printf+0x441>
    7010: 0a           	asl
    7011: aa           	tax
    7012: 7c bc 7f     	jmp	($7fbc,x)               ; 0x7fbc <__set_v+0xdb>
    7015: a6 15        	ldx	$15                     ; 0x2015 <f256main+0x16e7>
    7017: 8e 18 88     	stx	$8818                   ; 0x8818 <__data_load_start+0x5f4>
    701a: a6 18        	ldx	$18                     ; 0x2018 <f256main+0x16ea>
    701c: 8e 19 88     	stx	$8819                   ; 0x8819 <__data_load_start+0x5f5>
    701f: a0 0a        	ldy	#$a
    7021: a2 0a        	ldx	#$a
    7023: 86 ed        	stx	$ed                     ; 0x20ed <f256main+0x17bf>
    7025: 84 da        	sty	$da                     ; 0x20da <f256main+0x17ac>
    7027: 64 2f        	stz	$2f                     ; 0x202f <f256main+0x1701>
    7029: 4c 57 71     	jmp	$7157 <printf+0x54d>
    702c: b1 12        	lda	($12),y                 ; 0x2012 <f256main+0x16e4>
    702e: a2 02        	ldx	#$2
    7030: c9 68        	cmp	#$68
    7032: f0 03        	beq	$7037 <printf+0x42d>
    7034: 4c 57 73     	jmp	$7357 <printf+0x74d>
    7037: a5 12        	lda	$12                     ; 0x2012 <f256main+0x16e4>
    7039: 18           	clc
    703a: 69 02        	adc	#$2
    703c: 85 12        	sta	$12                     ; 0x2012 <f256main+0x16e4>
    703e: a5 13        	lda	$13                     ; 0x2013 <f256main+0x16e5>
    7040: 69 00        	adc	#$0
    7042: 85 13        	sta	$13                     ; 0x2013 <f256main+0x16e5>
    7044: a2 01        	ldx	#$1
    7046: 86 ee        	stx	$ee                     ; 0x20ee <f256main+0x17c0>
    7048: e8           	inx
    7049: 80 af        	bra	$6ffa <printf+0x3f0>
    704b: e0 58        	cpx	#$58
    704d: f0 03        	beq	$7052 <printf+0x448>
    704f: 4c 54 78     	jmp	$7854 <printf+0xc4a>
    7052: a6 15        	ldx	$15                     ; 0x2015 <f256main+0x16e7>
    7054: 8e 18 88     	stx	$8818                   ; 0x8818 <__data_load_start+0x5f4>
    7057: a6 18        	ldx	$18                     ; 0x2018 <f256main+0x16ea>
    7059: 8e 19 88     	stx	$8819                   ; 0x8819 <__data_load_start+0x5f5>
    705c: a2 10        	ldx	#$10
    705e: 86 da        	stx	$da                     ; 0x20da <f256main+0x17ac>
    7060: a9 00        	lda	#$0
    7062: 09 01        	ora	#$1
    7064: a6 25        	ldx	$25                     ; 0x2025 <f256main+0x16f7>
    7066: 80 2d        	bra	$7095 <printf+0x48b>
    7068: a6 15        	ldx	$15                     ; 0x2015 <f256main+0x16e7>
    706a: 8e 18 88     	stx	$8818                   ; 0x8818 <__data_load_start+0x5f4>
    706d: a6 18        	ldx	$18                     ; 0x2018 <f256main+0x16ea>
    706f: 8e 19 88     	stx	$8819                   ; 0x8819 <__data_load_start+0x5f5>
    7072: a2 10        	ldx	#$10
    7074: 86 da        	stx	$da                     ; 0x20da <f256main+0x17ac>
    7076: a5 25        	lda	$25                     ; 0x2025 <f256main+0x16f7>
    7078: 09 84        	ora	#$84
    707a: 80 12        	bra	$708e <printf+0x484>
    707c: a6 15        	ldx	$15                     ; 0x2015 <f256main+0x16e7>
    707e: 8e 18 88     	stx	$8818                   ; 0x8818 <__data_load_start+0x5f4>
    7081: a6 18        	ldx	$18                     ; 0x2018 <f256main+0x16ea>
    7083: 8e 19 88     	stx	$8819                   ; 0x8819 <__data_load_start+0x5f5>
    7086: a2 10        	ldx	#$10
    7088: 86 da        	stx	$da                     ; 0x20da <f256main+0x17ac>
    708a: a5 25        	lda	$25                     ; 0x2025 <f256main+0x16f7>
    708c: 09 80        	ora	#$80
    708e: aa           	tax
    708f: a9 00        	lda	#$0
    7091: 09 01        	ora	#$1
    7093: 86 25        	stx	$25                     ; 0x2025 <f256main+0x16f7>
    7095: 86 db        	stx	$db                     ; 0x20db <f256main+0x17ad>
    7097: 85 2f        	sta	$2f                     ; 0x202f <f256main+0x1701>
    7099: 85 dc        	sta	$dc                     ; 0x20dc <f256main+0x17ae>
    709b: a2 10        	ldx	#$10
    709d: 86 ed        	stx	$ed                     ; 0x20ed <f256main+0x17bf>
    709f: 4c 57 71     	jmp	$7157 <printf+0x54d>
    70a2: a5 eb        	lda	$eb                     ; 0x20eb <f256main+0x17bd>
    70a4: a6 ec        	ldx	$ec                     ; 0x20ec <f256main+0x17be>
    70a6: 85 12        	sta	$12                     ; 0x2012 <f256main+0x16e4>
    70a8: 86 13        	stx	$13                     ; 0x2013 <f256main+0x16e5>
    70aa: 18           	clc
    70ab: 69 02        	adc	#$2
    70ad: 85 14        	sta	$14                     ; 0x2014 <f256main+0x16e6>
    70af: 8a           	txa
    70b0: 69 00        	adc	#$0
    70b2: a6 14        	ldx	$14                     ; 0x2014 <f256main+0x16e6>
    70b4: 86 eb        	stx	$eb                     ; 0x20eb <f256main+0x17bd>
    70b6: 85 ec        	sta	$ec                     ; 0x20ec <f256main+0x17be>
    70b8: b2 12        	lda	($12)                   ; 0x2012 <f256main+0x16e4>
    70ba: aa           	tax
    70bb: b1 12        	lda	($12),y                 ; 0x2012 <f256main+0x16e4>
    70bd: 86 12        	stx	$12                     ; 0x2012 <f256main+0x16e4>
    70bf: 85 13        	sta	$13                     ; 0x2013 <f256main+0x16e5>
    70c1: a5 df        	lda	$df                     ; 0x20df <f256main+0x17b1>
    70c3: a6 e0        	ldx	$e0                     ; 0x20e0 <f256main+0x17b2>
    70c5: 92 12        	sta	($12)                   ; 0x2012 <f256main+0x16e4>
    70c7: 8a           	txa
    70c8: 91 12        	sta	($12),y                 ; 0x2012 <f256main+0x16e4>
    70ca: 4c 2e 71     	jmp	$712e <printf+0x524>
    70cd: a5 eb        	lda	$eb                     ; 0x20eb <f256main+0x17bd>
    70cf: a6 ec        	ldx	$ec                     ; 0x20ec <f256main+0x17be>
    70d1: 85 12        	sta	$12                     ; 0x2012 <f256main+0x16e4>
    70d3: 86 13        	stx	$13                     ; 0x2013 <f256main+0x16e5>
    70d5: 18           	clc
    70d6: 69 02        	adc	#$2
    70d8: 85 14        	sta	$14                     ; 0x2014 <f256main+0x16e6>
    70da: 8a           	txa
    70db: 69 00        	adc	#$0
    70dd: a6 14        	ldx	$14                     ; 0x2014 <f256main+0x16e6>
    70df: 86 eb        	stx	$eb                     ; 0x20eb <f256main+0x17bd>
    70e1: 85 ec        	sta	$ec                     ; 0x20ec <f256main+0x17be>
    70e3: b2 12        	lda	($12)                   ; 0x2012 <f256main+0x16e4>
    70e5: aa           	tax
    70e6: b1 12        	lda	($12),y                 ; 0x2012 <f256main+0x16e4>
    70e8: 86 12        	stx	$12                     ; 0x2012 <f256main+0x16e4>
    70ea: 85 13        	sta	$13                     ; 0x2013 <f256main+0x16e5>
    70ec: 80 33        	bra	$7121 <printf+0x517>
    70ee: a6 15        	ldx	$15                     ; 0x2015 <f256main+0x16e7>
    70f0: 8e 18 88     	stx	$8818                   ; 0x8818 <__data_load_start+0x5f4>
    70f3: a6 18        	ldx	$18                     ; 0x2018 <f256main+0x16ea>
    70f5: 8e 19 88     	stx	$8819                   ; 0x8819 <__data_load_start+0x5f5>
    70f8: a0 08        	ldy	#$8
    70fa: a2 08        	ldx	#$8
    70fc: 80 49        	bra	$7147 <printf+0x53d>
    70fe: a5 eb        	lda	$eb                     ; 0x20eb <f256main+0x17bd>
    7100: a6 ec        	ldx	$ec                     ; 0x20ec <f256main+0x17be>
    7102: 85 12        	sta	$12                     ; 0x2012 <f256main+0x16e4>
    7104: 86 13        	stx	$13                     ; 0x2013 <f256main+0x16e5>
    7106: 18           	clc
    7107: 69 02        	adc	#$2
    7109: a8           	tay
    710a: 8a           	txa
    710b: 69 00        	adc	#$0
    710d: 84 eb        	sty	$eb                     ; 0x20eb <f256main+0x17bd>
    710f: 85 ec        	sta	$ec                     ; 0x20ec <f256main+0x17be>
    7111: b2 12        	lda	($12)                   ; 0x2012 <f256main+0x16e4>
    7113: 8d 10 88     	sta	$8810                   ; 0x8810 <__data_load_start+0x5ec>
    7116: 9c 11 88     	stz	$8811                   ; 0x8811 <__data_load_start+0x5ed>
    7119: a2 10        	ldx	#$10
    711b: 86 12        	stx	$12                     ; 0x2012 <f256main+0x16e4>
    711d: a2 88        	ldx	#$88
    711f: 86 13        	stx	$13                     ; 0x2013 <f256main+0x16e5>
    7121: a2 da        	ldx	#$da
    7123: 86 14        	stx	$14                     ; 0x2014 <f256main+0x16e6>
    7125: a2 00        	ldx	#$0
    7127: 86 15        	stx	$15                     ; 0x2015 <f256main+0x16e7>
    7129: 20 c1 6a     	jsr	$6ac1 <_ZN12_GLOBAL__N_112print_stringEPKcP6Status>
    712c: a0 01        	ldy	#$1
    712e: a2 00        	ldx	#$0
    7130: 86 26        	stx	$26                     ; 0x2026 <f256main+0x16f8>
    7132: a2 00        	ldx	#$0
    7134: 86 27        	stx	$27                     ; 0x2027 <f256main+0x16f9>
    7136: 4c 3c 78     	jmp	$783c <printf+0xc32>
    7139: a6 15        	ldx	$15                     ; 0x2015 <f256main+0x16e7>
    713b: 8e 18 88     	stx	$8818                   ; 0x8818 <__data_load_start+0x5f4>
    713e: a6 18        	ldx	$18                     ; 0x2018 <f256main+0x16ea>
    7140: 8e 19 88     	stx	$8819                   ; 0x8819 <__data_load_start+0x5f5>
    7143: a0 0a        	ldy	#$a
    7145: a2 0a        	ldx	#$a
    7147: 86 ed        	stx	$ed                     ; 0x20ed <f256main+0x17bf>
    7149: 84 da        	sty	$da                     ; 0x20da <f256main+0x17ac>
    714b: a9 00        	lda	#$0
    714d: 09 01        	ora	#$1
    714f: a6 25        	ldx	$25                     ; 0x2025 <f256main+0x16f7>
    7151: 86 db        	stx	$db                     ; 0x20db <f256main+0x17ad>
    7153: 85 2f        	sta	$2f                     ; 0x202f <f256main+0x1701>
    7155: 85 dc        	sta	$dc                     ; 0x20dc <f256main+0x17ae>
    7157: a5 ee        	lda	$ee                     ; 0x20ee <f256main+0x17c0>
    7159: 85 d1        	sta	$d1                     ; 0x20d1 <f256main+0x17a3>
    715b: a4 eb        	ldy	$eb                     ; 0x20eb <f256main+0x17bd>
    715d: a6 ec        	ldx	$ec                     ; 0x20ec <f256main+0x17be>
    715f: 86 2d        	stx	$2d                     ; 0x202d <f256main+0x16ff>
    7161: 84 14        	sty	$14                     ; 0x2014 <f256main+0x16e6>
    7163: 84 24        	sty	$24                     ; 0x2024 <f256main+0x16f6>
    7165: 86 15        	stx	$15                     ; 0x2015 <f256main+0x16e7>
    7167: ae 16 88     	ldx	$8816                   ; 0x8816 <__data_load_start+0x5f2>
    716a: 86 12        	stx	$12                     ; 0x2012 <f256main+0x16e4>
    716c: ae 17 88     	ldx	$8817                   ; 0x8817 <__data_load_start+0x5f3>
    716f: 86 13        	stx	$13                     ; 0x2013 <f256main+0x16e5>
    7171: a2 00        	ldx	#$0
    7173: 85 27        	sta	$27                     ; 0x2027 <f256main+0x16f9>
    7175: 20 8d 7b     	jsr	$7b8d <memcpy>
    7178: 18           	clc
    7179: a5 24        	lda	$24                     ; 0x2024 <f256main+0x16f6>
    717b: 65 26        	adc	$26                     ; 0x2026 <f256main+0x16f8>
    717d: aa           	tax
    717e: a5 2d        	lda	$2d                     ; 0x202d <f256main+0x16ff>
    7180: 69 00        	adc	#$0
    7182: 86 eb        	stx	$eb                     ; 0x20eb <f256main+0x17bd>
    7184: 85 ec        	sta	$ec                     ; 0x20ec <f256main+0x17be>
    7186: a5 2f        	lda	$2f                     ; 0x202f <f256main+0x1701>
    7188: 29 01        	and	#$1
    718a: b8           	clv
    718b: f0 03        	beq	$7190 <printf+0x586>
    718d: 4c e6 71     	jmp	$71e6 <printf+0x5dc>
    7190: a6 27        	ldx	$27                     ; 0x2027 <f256main+0x16f9>
    7192: b5 d1        	lda	$d1,x                   ; 0x20d1 <f256main+0x17a3>
    7194: aa           	tax
    7195: a0 01        	ldy	#$1
    7197: a5 2c        	lda	$2c                     ; 0x202c <f256main+0x16fe>
    7199: 85 1a        	sta	$1a                     ; 0x201a <f256main+0x16ec>
    719b: ad 19 88     	lda	$8819                   ; 0x8819 <__data_load_start+0x5f5>
    719e: 85 2c        	sta	$2c                     ; 0x202c <f256main+0x16fe>
    71a0: a9 00        	lda	#$0
    71a2: 85 26        	sta	$26                     ; 0x2026 <f256main+0x16f8>
    71a4: a9 00        	lda	#$0
    71a6: 85 27        	sta	$27                     ; 0x2027 <f256main+0x16f9>
    71a8: ad 18 88     	lda	$8818                   ; 0x8818 <__data_load_start+0x5f4>
    71ab: 85 2d        	sta	$2d                     ; 0x202d <f256main+0x16ff>
    71ad: 8a           	txa
    71ae: 10 4e        	bpl	$71fe <printf+0x5f4>
    71b0: a2 00        	ldx	#$0
    71b2: 64 12        	stz	$12                     ; 0x2012 <f256main+0x16e4>
    71b4: a9 00        	lda	#$0
    71b6: 38           	sec
    71b7: f5 d2        	sbc	$d2,x                   ; 0x20d2 <f256main+0x17a4>
    71b9: a0 00        	ldy	#$0
    71bb: b0 02        	bcs	$71bf <printf+0x5b5>
    71bd: a0 01        	ldy	#$1
    71bf: 38           	sec
    71c0: e5 12        	sbc	$12                     ; 0x2012 <f256main+0x16e4>
    71c2: 85 13        	sta	$13                     ; 0x2013 <f256main+0x16e5>
    71c4: 64 12        	stz	$12                     ; 0x2012 <f256main+0x16e4>
    71c6: b0 04        	bcs	$71cc <printf+0x5c2>
    71c8: a9 01        	lda	#$1
    71ca: 85 12        	sta	$12                     ; 0x2012 <f256main+0x16e4>
    71cc: 98           	tya
    71cd: 05 12        	ora	$12                     ; 0x2012 <f256main+0x16e4>
    71cf: 85 12        	sta	$12                     ; 0x2012 <f256main+0x16e4>
    71d1: a5 13        	lda	$13                     ; 0x2013 <f256main+0x16e5>
    71d3: 9d d2 00     	sta	$d2,x                   ; 0xd2 <__zp_data_size+0x6e>
    71d6: e8           	inx
    71d7: 86 13        	stx	$13                     ; 0x2013 <f256main+0x16e5>
    71d9: a4 ee        	ldy	$ee                     ; 0x20ee <f256main+0x17c0>
    71db: c4 13        	cpy	$13                     ; 0x2013 <f256main+0x16e5>
    71dd: d0 d5        	bne	$71b4 <printf+0x5aa>
    71df: 2c e1 7e     	bit	$7ee1                   ; 0x7ee1 <__set_v>
    71e2: a0 01        	ldy	#$1
    71e4: 80 18        	bra	$71fe <printf+0x5f4>
    71e6: a0 01        	ldy	#$1
    71e8: a6 2c        	ldx	$2c                     ; 0x202c <f256main+0x16fe>
    71ea: 86 1a        	stx	$1a                     ; 0x201a <f256main+0x16ec>
    71ec: ae 19 88     	ldx	$8819                   ; 0x8819 <__data_load_start+0x5f5>
    71ef: 86 2c        	stx	$2c                     ; 0x202c <f256main+0x16fe>
    71f1: a2 00        	ldx	#$0
    71f3: 86 26        	stx	$26                     ; 0x2026 <f256main+0x16f8>
    71f5: a2 00        	ldx	#$0
    71f7: 86 27        	stx	$27                     ; 0x2027 <f256main+0x16f9>
    71f9: ae 18 88     	ldx	$8818                   ; 0x8818 <__data_load_start+0x5f4>
    71fc: 86 2d        	stx	$2d                     ; 0x202d <f256main+0x16ff>
    71fe: a2 01        	ldx	#$1
    7200: 70 02        	bvs	$7204 <printf+0x5fa>
    7202: a2 00        	ldx	#$0
    7204: 86 16        	stx	$16                     ; 0x2016 <f256main+0x16e8>
    7206: a5 ee        	lda	$ee                     ; 0x20ee <f256main+0x17c0>
    7208: 0a           	asl
    7209: 0a           	asl
    720a: 0a           	asl
    720b: 85 12        	sta	$12                     ; 0x2012 <f256main+0x16e4>
    720d: a2 00        	ldx	#$0
    720f: 8a           	txa
    7210: e0 00        	cpx	#$0
    7212: d0 03        	bne	$7217 <printf+0x60d>
    7214: 4c 9e 72     	jmp	$729e <printf+0x694>
    7217: 85 17        	sta	$17                     ; 0x2017 <f256main+0x16e9>
    7219: 86 24        	stx	$24                     ; 0x2024 <f256main+0x16f6>
    721b: ca           	dex
    721c: 86 15        	stx	$15                     ; 0x2015 <f256main+0x16e7>
    721e: a2 00        	ldx	#$0
    7220: 64 13        	stz	$13                     ; 0x2013 <f256main+0x16e5>
    7222: 80 0d        	bra	$7231 <printf+0x627>
    7224: a4 13        	ldy	$13                     ; 0x2013 <f256main+0x16e5>
    7226: 99 fb 87     	sta	$87fb,y                 ; 0x87fb <__data_load_start+0x5d7>
    7229: a4 15        	ldy	$15                     ; 0x2015 <f256main+0x16e7>
    722b: c4 13        	cpy	$13                     ; 0x2013 <f256main+0x16e5>
    722d: f0 38        	beq	$7267 <printf+0x65d>
    722f: e6 13        	inc	$13                     ; 0x2013 <f256main+0x16e5>
    7231: a4 13        	ldy	$13                     ; 0x2013 <f256main+0x16e5>
    7233: b9 fb 87     	lda	$87fb,y                 ; 0x87fb <__data_load_start+0x5d7>
    7236: 0a           	asl
    7237: e0 00        	cpx	#$0
    7239: f0 02        	beq	$723d <printf+0x633>
    723b: 09 01        	ora	#$1
    723d: a4 ed        	ldy	$ed                     ; 0x20ed <f256main+0x17bf>
    723f: 84 14        	sty	$14                     ; 0x2014 <f256main+0x16e6>
    7241: c5 14        	cmp	$14                     ; 0x2014 <f256main+0x16e6>
    7243: a2 01        	ldx	#$1
    7245: b0 02        	bcs	$7249 <printf+0x63f>
    7247: a2 00        	ldx	#$0
    7249: 90 d9        	bcc	$7224 <printf+0x61a>
    724b: 84 14        	sty	$14                     ; 0x2014 <f256main+0x16e6>
    724d: 38           	sec
    724e: e5 14        	sbc	$14                     ; 0x2014 <f256main+0x16e6>
    7250: a4 13        	ldy	$13                     ; 0x2013 <f256main+0x16e5>
    7252: 99 fb 87     	sta	$87fb,y                 ; 0x87fb <__data_load_start+0x5d7>
    7255: a4 15        	ldy	$15                     ; 0x2015 <f256main+0x16e7>
    7257: c4 13        	cpy	$13                     ; 0x2013 <f256main+0x16e5>
    7259: d0 d4        	bne	$722f <printf+0x625>
    725b: a4 24        	ldy	$24                     ; 0x2024 <f256main+0x16f6>
    725d: a6 24        	ldx	$24                     ; 0x2024 <f256main+0x16f6>
    725f: e8           	inx
    7260: a9 01        	lda	#$1
    7262: 99 fb 87     	sta	$87fb,y                 ; 0x87fb <__data_load_start+0x5d7>
    7265: 86 24        	stx	$24                     ; 0x2024 <f256main+0x16f6>
    7267: a6 ee        	ldx	$ee                     ; 0x20ee <f256main+0x17c0>
    7269: b5 d1        	lda	$d1,x                   ; 0x20d1 <f256main+0x17a3>
    726b: aa           	tax
    726c: a0 01        	ldy	#$1
    726e: 8a           	txa
    726f: 10 49        	bpl	$72ba <printf+0x6b0>
    7271: a5 24        	lda	$24                     ; 0x2024 <f256main+0x16f6>
    7273: f0 36        	beq	$72ab <printf+0x6a1>
    7275: a2 00        	ldx	#$0
    7277: a4 ed        	ldy	$ed                     ; 0x20ed <f256main+0x17bf>
    7279: 84 14        	sty	$14                     ; 0x2014 <f256main+0x16e6>
    727b: bd fb 87     	lda	$87fb,x                 ; 0x87fb <__data_load_start+0x5d7>
    727e: 1a           	inc
    727f: fe fb 87     	inc	$87fb,x                 ; 0x87fb <__data_load_start+0x5d7>
    7282: c5 14        	cmp	$14                     ; 0x2014 <f256main+0x16e6>
    7284: b0 03        	bcs	$7289 <printf+0x67f>
    7286: 4c e5 72     	jmp	$72e5 <printf+0x6db>
    7289: a4 14        	ldy	$14                     ; 0x2014 <f256main+0x16e6>
    728b: 84 13        	sty	$13                     ; 0x2013 <f256main+0x16e5>
    728d: 38           	sec
    728e: e5 13        	sbc	$13                     ; 0x2013 <f256main+0x16e5>
    7290: 9d fb 87     	sta	$87fb,x                 ; 0x87fb <__data_load_start+0x5d7>
    7293: e8           	inx
    7294: 86 13        	stx	$13                     ; 0x2013 <f256main+0x16e5>
    7296: a4 24        	ldy	$24                     ; 0x2024 <f256main+0x16f6>
    7298: c4 13        	cpy	$13                     ; 0x2013 <f256main+0x16e5>
    729a: d0 df        	bne	$727b <printf+0x671>
    729c: 80 0f        	bra	$72ad <printf+0x6a3>
    729e: 85 17        	sta	$17                     ; 0x2017 <f256main+0x16e9>
    72a0: a6 ee        	ldx	$ee                     ; 0x20ee <f256main+0x17c0>
    72a2: b5 d1        	lda	$d1,x                   ; 0x20d1 <f256main+0x17a3>
    72a4: aa           	tax
    72a5: 64 24        	stz	$24                     ; 0x2024 <f256main+0x16f6>
    72a7: 30 04        	bmi	$72ad <printf+0x6a3>
    72a9: 80 0f        	bra	$72ba <printf+0x6b0>
    72ab: 64 24        	stz	$24                     ; 0x2024 <f256main+0x16f6>
    72ad: a4 24        	ldy	$24                     ; 0x2024 <f256main+0x16f6>
    72af: a6 24        	ldx	$24                     ; 0x2024 <f256main+0x16f6>
    72b1: e8           	inx
    72b2: a9 01        	lda	#$1
    72b4: 99 fb 87     	sta	$87fb,y                 ; 0x87fb <__data_load_start+0x5d7>
    72b7: a8           	tay
    72b8: 86 24        	stx	$24                     ; 0x2024 <f256main+0x16f6>
    72ba: a2 01        	ldx	#$1
    72bc: 64 13        	stz	$13                     ; 0x2013 <f256main+0x16e5>
    72be: a5 ee        	lda	$ee                     ; 0x20ee <f256main+0x17c0>
    72c0: 85 14        	sta	$14                     ; 0x2014 <f256main+0x16e6>
    72c2: b5 d1        	lda	$d1,x                   ; 0x20d1 <f256main+0x17a3>
    72c4: 0a           	asl
    72c5: 64 15        	stz	$15                     ; 0x2015 <f256main+0x16e7>
    72c7: 26 15        	rol	$15                     ; 0x2015 <f256main+0x16e7>
    72c9: 05 13        	ora	$13                     ; 0x2013 <f256main+0x16e5>
    72cb: 9d d1 00     	sta	$d1,x                   ; 0xd1 <__zp_data_size+0x6d>
    72ce: e8           	inx
    72cf: c6 14        	dec	$14                     ; 0x2014 <f256main+0x16e6>
    72d1: a5 15        	lda	$15                     ; 0x2015 <f256main+0x16e7>
    72d3: 85 13        	sta	$13                     ; 0x2013 <f256main+0x16e5>
    72d5: a5 14        	lda	$14                     ; 0x2014 <f256main+0x16e6>
    72d7: d0 e9        	bne	$72c2 <printf+0x6b8>
    72d9: a5 17        	lda	$17                     ; 0x2017 <f256main+0x16e9>
    72db: 1a           	inc
    72dc: c5 12        	cmp	$12                     ; 0x2012 <f256main+0x16e4>
    72de: a6 24        	ldx	$24                     ; 0x2024 <f256main+0x16f6>
    72e0: b0 07        	bcs	$72e9 <printf+0x6df>
    72e2: 4c 10 72     	jmp	$7210 <printf+0x606>
    72e5: a0 01        	ldy	#$1
    72e7: 80 d1        	bra	$72ba <printf+0x6b0>
    72e9: a5 25        	lda	$25                     ; 0x2025 <f256main+0x16f7>
    72eb: e6 2d        	inc	$2d                     ; 0x202d <f256main+0x16ff>
    72ed: c6 2d        	dec	$2d                     ; 0x202d <f256main+0x16ff>
    72ef: 10 08        	bpl	$72f9 <printf+0x6ef>
    72f1: a2 01        	ldx	#$1
    72f3: 64 2d        	stz	$2d                     ; 0x202d <f256main+0x16ff>
    72f5: 86 2c        	stx	$2c                     ; 0x202c <f256main+0x16fe>
    72f7: a6 24        	ldx	$24                     ; 0x2024 <f256main+0x16f6>
    72f9: 29 04        	and	#$4
    72fb: f0 2b        	beq	$7328 <printf+0x71e>
    72fd: a5 ed        	lda	$ed                     ; 0x20ed <f256main+0x17bf>
    72ff: c9 10        	cmp	#$10
    7301: f0 14        	beq	$7317 <printf+0x70d>
    7303: c9 08        	cmp	#$8
    7305: d0 21        	bne	$7328 <printf+0x71e>
    7307: a2 00        	ldx	#$0
    7309: e4 2d        	cpx	$2d                     ; 0x202d <f256main+0x16ff>
    730b: f0 03        	beq	$7310 <printf+0x706>
    730d: 4c 61 78     	jmp	$7861 <printf+0xc57>
    7310: a6 24        	ldx	$24                     ; 0x2024 <f256main+0x16f6>
    7312: e4 2c        	cpx	$2c                     ; 0x202c <f256main+0x16fe>
    7314: 4c 63 78     	jmp	$7863 <printf+0xc59>
    7317: 8a           	txa
    7318: f0 0e        	beq	$7328 <printf+0x71e>
    731a: a5 25        	lda	$25                     ; 0x2025 <f256main+0x16f7>
    731c: 29 80        	and	#$80
    731e: d0 03        	bne	$7323 <printf+0x719>
    7320: 4c 7c 78     	jmp	$787c <printf+0xc72>
    7323: a2 78        	ldx	#$78
    7325: 4c 7e 78     	jmp	$787e <printf+0xc74>
    7328: a6 25        	ldx	$25                     ; 0x2025 <f256main+0x16f7>
    732a: a9 2d        	lda	#$2d
    732c: 8d 18 88     	sta	$8818                   ; 0x8818 <__data_load_start+0x5f4>
    732f: a5 16        	lda	$16                     ; 0x2016 <f256main+0x16e8>
    7331: d0 34        	bne	$7367 <printf+0x75d>
    7333: 86 12        	stx	$12                     ; 0x2012 <f256main+0x16e4>
    7335: 8a           	txa
    7336: 29 02        	and	#$2
    7338: a2 2b        	ldx	#$2b
    733a: 8e 18 88     	stx	$8818                   ; 0x8818 <__data_load_start+0x5f4>
    733d: aa           	tax
    733e: d0 27        	bne	$7367 <printf+0x75d>
    7340: a5 12        	lda	$12                     ; 0x2012 <f256main+0x16e4>
    7342: 29 08        	and	#$8
    7344: d0 1c        	bne	$7362 <printf+0x758>
    7346: a2 01        	ldx	#$1
    7348: 86 ee        	stx	$ee                     ; 0x20ee <f256main+0x17c0>
    734a: a9 00        	lda	#$0
    734c: aa           	tax
    734d: 86 ed        	stx	$ed                     ; 0x20ed <f256main+0x17bf>
    734f: 80 1d        	bra	$736e <printf+0x764>
    7351: 85 12        	sta	$12                     ; 0x2012 <f256main+0x16e4>
    7353: a9 04        	lda	#$4
    7355: 80 04        	bra	$735b <printf+0x751>
    7357: 85 12        	sta	$12                     ; 0x2012 <f256main+0x16e4>
    7359: a9 02        	lda	#$2
    735b: 85 ee        	sta	$ee                     ; 0x20ee <f256main+0x17c0>
    735d: a5 12        	lda	$12                     ; 0x2012 <f256main+0x16e4>
    735f: 4c 06 70     	jmp	$7006 <printf+0x3fc>
    7362: a2 20        	ldx	#$20
    7364: 8e 18 88     	stx	$8818                   ; 0x8818 <__data_load_start+0x5f4>
    7367: a2 00        	ldx	#$0
    7369: 86 ee        	stx	$ee                     ; 0x20ee <f256main+0x17c0>
    736b: 86 ed        	stx	$ed                     ; 0x20ed <f256main+0x17bf>
    736d: 98           	tya
    736e: a6 2d        	ldx	$2d                     ; 0x202d <f256main+0x16ff>
    7370: d0 35        	bne	$73a7 <printf+0x79d>
    7372: a6 2c        	ldx	$2c                     ; 0x202c <f256main+0x16fe>
    7374: a4 24        	ldy	$24                     ; 0x2024 <f256main+0x16f6>
    7376: 84 12        	sty	$12                     ; 0x2012 <f256main+0x16e4>
    7378: e4 12        	cpx	$12                     ; 0x2012 <f256main+0x16e4>
    737a: a6 2c        	ldx	$2c                     ; 0x202c <f256main+0x16fe>
    737c: 86 12        	stx	$12                     ; 0x2012 <f256main+0x16e4>
    737e: a6 2d        	ldx	$2d                     ; 0x202d <f256main+0x16ff>
    7380: 86 13        	stx	$13                     ; 0x2013 <f256main+0x16e5>
    7382: b0 04        	bcs	$7388 <printf+0x77e>
    7384: 84 12        	sty	$12                     ; 0x2012 <f256main+0x16e4>
    7386: 64 13        	stz	$13                     ; 0x2013 <f256main+0x16e5>
    7388: 85 18        	sta	$18                     ; 0x2018 <f256main+0x16ea>
    738a: 18           	clc
    738b: 65 12        	adc	$12                     ; 0x2012 <f256main+0x16e4>
    738d: 85 16        	sta	$16                     ; 0x2016 <f256main+0x16e8>
    738f: 85 14        	sta	$14                     ; 0x2014 <f256main+0x16e6>
    7391: a5 13        	lda	$13                     ; 0x2013 <f256main+0x16e5>
    7393: 69 00        	adc	#$0
    7395: 85 15        	sta	$15                     ; 0x2015 <f256main+0x16e7>
    7397: c5 1a        	cmp	$1a                     ; 0x201a <f256main+0x16ec>
    7399: d0 1e        	bne	$73b9 <printf+0x7af>
    739b: a6 1a        	ldx	$1a                     ; 0x201a <f256main+0x16ec>
    739d: 86 17        	stx	$17                     ; 0x2017 <f256main+0x16e9>
    739f: a6 2e        	ldx	$2e                     ; 0x202e <f256main+0x1700>
    73a1: a5 16        	lda	$16                     ; 0x2016 <f256main+0x16e8>
    73a3: c5 2e        	cmp	$2e                     ; 0x202e <f256main+0x1700>
    73a5: 80 1c        	bra	$73c3 <printf+0x7b9>
    73a7: a6 2d        	ldx	$2d                     ; 0x202d <f256main+0x16ff>
    73a9: e0 00        	cpx	#$0
    73ab: a6 2c        	ldx	$2c                     ; 0x202c <f256main+0x16fe>
    73ad: 86 12        	stx	$12                     ; 0x2012 <f256main+0x16e4>
    73af: a6 2d        	ldx	$2d                     ; 0x202d <f256main+0x16ff>
    73b1: 86 13        	stx	$13                     ; 0x2013 <f256main+0x16e5>
    73b3: a4 24        	ldy	$24                     ; 0x2024 <f256main+0x16f6>
    73b5: 90 cd        	bcc	$7384 <printf+0x77a>
    73b7: 80 cf        	bra	$7388 <printf+0x77e>
    73b9: a6 2e        	ldx	$2e                     ; 0x202e <f256main+0x1700>
    73bb: 5a           	phy
    73bc: a4 1a        	ldy	$1a                     ; 0x201a <f256main+0x16ec>
    73be: 84 17        	sty	$17                     ; 0x2017 <f256main+0x16e9>
    73c0: 7a           	ply
    73c1: c5 1a        	cmp	$1a                     ; 0x201a <f256main+0x16ec>
    73c3: 64 2f        	stz	$2f                     ; 0x202f <f256main+0x1701>
    73c5: 64 2e        	stz	$2e                     ; 0x202e <f256main+0x1700>
    73c7: 90 03        	bcc	$73cc <printf+0x7c2>
    73c9: 4c 70 74     	jmp	$7470 <printf+0x866>
    73cc: a5 25        	lda	$25                     ; 0x2025 <f256main+0x16f7>
    73ce: 29 11        	and	#$11
    73d0: 86 16        	stx	$16                     ; 0x2016 <f256main+0x16e8>
    73d2: f0 0f        	beq	$73e3 <printf+0x7d9>
    73d4: 8a           	txa
    73d5: 38           	sec
    73d6: e5 14        	sbc	$14                     ; 0x2014 <f256main+0x16e6>
    73d8: 85 2f        	sta	$2f                     ; 0x202f <f256main+0x1701>
    73da: a5 1a        	lda	$1a                     ; 0x201a <f256main+0x16ec>
    73dc: e5 15        	sbc	$15                     ; 0x2015 <f256main+0x16e7>
    73de: 85 2e        	sta	$2e                     ; 0x202e <f256main+0x1700>
    73e0: 4c 70 74     	jmp	$7470 <printf+0x866>
    73e3: a6 df        	ldx	$df                     ; 0x20df <f256main+0x17b1>
    73e5: 86 14        	stx	$14                     ; 0x2014 <f256main+0x16e6>
    73e7: 38           	sec
    73e8: a5 18        	lda	$18                     ; 0x2018 <f256main+0x16ea>
    73ea: e5 16        	sbc	$16                     ; 0x2016 <f256main+0x16e8>
    73ec: a8           	tay
    73ed: a9 00        	lda	#$0
    73ef: e5 17        	sbc	$17                     ; 0x2017 <f256main+0x16e9>
    73f1: aa           	tax
    73f2: 18           	clc
    73f3: 98           	tya
    73f4: 65 12        	adc	$12                     ; 0x2012 <f256main+0x16e4>
    73f6: 85 25        	sta	$25                     ; 0x2025 <f256main+0x16f7>
    73f8: 8a           	txa
    73f9: 65 13        	adc	$13                     ; 0x2013 <f256main+0x16e5>
    73fb: 85 2e        	sta	$2e                     ; 0x202e <f256main+0x1700>
    73fd: a5 e0        	lda	$e0                     ; 0x20e0 <f256main+0x17b2>
    73ff: 4c 58 74     	jmp	$7458 <printf+0x84e>
    7402: c5 de        	cmp	$de                     ; 0x20de <f256main+0x17b0>
    7404: a4 2e        	ldy	$2e                     ; 0x202e <f256main+0x1700>
    7406: b0 30        	bcs	$7438 <printf+0x82e>
    7408: a6 ea        	ldx	$ea                     ; 0x20ea <f256main+0x17bc>
    740a: e4 27        	cpx	$27                     ; 0x2027 <f256main+0x16f9>
    740c: d0 19        	bne	$7427 <printf+0x81d>
    740e: a6 e9        	ldx	$e9                     ; 0x20e9 <f256main+0x17bb>
    7410: e4 26        	cpx	$26                     ; 0x2026 <f256main+0x16f8>
    7412: d0 13        	bne	$7427 <printf+0x81d>
    7414: 18           	clc
    7415: aa           	tax
    7416: a5 14        	lda	$14                     ; 0x2014 <f256main+0x16e6>
    7418: 65 e3        	adc	$e3                     ; 0x20e3 <f256main+0x17b5>
    741a: 85 12        	sta	$12                     ; 0x2012 <f256main+0x16e4>
    741c: 8a           	txa
    741d: 65 e4        	adc	$e4                     ; 0x20e4 <f256main+0x17b6>
    741f: 85 13        	sta	$13                     ; 0x2013 <f256main+0x16e5>
    7421: a9 20        	lda	#$20
    7423: 92 12        	sta	($12)                   ; 0x2012 <f256main+0x16e4>
    7425: 80 0f        	bra	$7436 <printf+0x82c>
    7427: a2 20        	ldx	#$20
    7429: 86 9d        	stx	$9d                     ; 0x209d <f256main+0x176f>
    742b: a2 9d        	ldx	#$9d
    742d: 86 12        	stx	$12                     ; 0x2012 <f256main+0x16e4>
    742f: a2 00        	ldx	#$0
    7431: 86 13        	stx	$13                     ; 0x2013 <f256main+0x16e5>
    7433: 20 db 43     	jsr	$43db <textPrint>
    7436: a4 2e        	ldy	$2e                     ; 0x202e <f256main+0x1700>
    7438: a6 df        	ldx	$df                     ; 0x20df <f256main+0x17b1>
    743a: a5 e0        	lda	$e0                     ; 0x20e0 <f256main+0x17b2>
    743c: e8           	inx
    743d: d0 01        	bne	$7440 <printf+0x836>
    743f: 1a           	inc
    7440: 86 14        	stx	$14                     ; 0x2014 <f256main+0x16e6>
    7442: 86 df        	stx	$df                     ; 0x20df <f256main+0x17b1>
    7444: 85 e0        	sta	$e0                     ; 0x20e0 <f256main+0x17b2>
    7446: a6 25        	ldx	$25                     ; 0x2025 <f256main+0x16f7>
    7448: e8           	inx
    7449: d0 01        	bne	$744c <printf+0x842>
    744b: c8           	iny
    744c: 86 25        	stx	$25                     ; 0x2025 <f256main+0x16f7>
    744e: 84 2e        	sty	$2e                     ; 0x202e <f256main+0x1700>
    7450: c0 00        	cpy	#$0
    7452: d0 04        	bne	$7458 <printf+0x84e>
    7454: e0 00        	cpx	#$0
    7456: f0 12        	beq	$746a <printf+0x860>
    7458: c5 de        	cmp	$de                     ; 0x20de <f256main+0x17b0>
    745a: f0 03        	beq	$745f <printf+0x855>
    745c: 4c 02 74     	jmp	$7402 <printf+0x7f8>
    745f: a6 dd        	ldx	$dd                     ; 0x20dd <f256main+0x17af>
    7461: 86 12        	stx	$12                     ; 0x2012 <f256main+0x16e4>
    7463: a6 14        	ldx	$14                     ; 0x2014 <f256main+0x16e6>
    7465: e4 12        	cpx	$12                     ; 0x2012 <f256main+0x16e4>
    7467: 4c 04 74     	jmp	$7404 <printf+0x7fa>
    746a: 64 2f        	stz	$2f                     ; 0x202f <f256main+0x1701>
    746c: 64 2e        	stz	$2e                     ; 0x202e <f256main+0x1700>
    746e: a4 24        	ldy	$24                     ; 0x2024 <f256main+0x16f6>
    7470: a6 ee        	ldx	$ee                     ; 0x20ee <f256main+0x17c0>
    7472: f0 03        	beq	$7477 <printf+0x86d>
    7474: 4c d0 74     	jmp	$74d0 <printf+0x8c6>
    7477: a6 df        	ldx	$df                     ; 0x20df <f256main+0x17b1>
    7479: a5 e0        	lda	$e0                     ; 0x20e0 <f256main+0x17b2>
    747b: c5 de        	cmp	$de                     ; 0x20de <f256main+0x17b0>
    747d: d0 10        	bne	$748f <printf+0x885>
    747f: 86 13        	stx	$13                     ; 0x2013 <f256main+0x16e5>
    7481: a6 dd        	ldx	$dd                     ; 0x20dd <f256main+0x17af>
    7483: 86 12        	stx	$12                     ; 0x2012 <f256main+0x16e4>
    7485: a4 24        	ldy	$24                     ; 0x2024 <f256main+0x16f6>
    7487: a6 13        	ldx	$13                     ; 0x2013 <f256main+0x16e5>
    7489: e4 12        	cpx	$12                     ; 0x2012 <f256main+0x16e4>
    748b: 90 08        	bcc	$7495 <printf+0x88b>
    748d: 80 3b        	bra	$74ca <printf+0x8c0>
    748f: 86 13        	stx	$13                     ; 0x2013 <f256main+0x16e5>
    7491: c5 de        	cmp	$de                     ; 0x20de <f256main+0x17b0>
    7493: b0 35        	bcs	$74ca <printf+0x8c0>
    7495: a6 ea        	ldx	$ea                     ; 0x20ea <f256main+0x17bc>
    7497: e4 27        	cpx	$27                     ; 0x2027 <f256main+0x16f9>
    7499: d0 1d        	bne	$74b8 <printf+0x8ae>
    749b: a6 e9        	ldx	$e9                     ; 0x20e9 <f256main+0x17bb>
    749d: e4 26        	cpx	$26                     ; 0x2026 <f256main+0x16f8>
    749f: d0 17        	bne	$74b8 <printf+0x8ae>
    74a1: 18           	clc
    74a2: 85 12        	sta	$12                     ; 0x2012 <f256main+0x16e4>
    74a4: a5 13        	lda	$13                     ; 0x2013 <f256main+0x16e5>
    74a6: 65 e3        	adc	$e3                     ; 0x20e3 <f256main+0x17b5>
    74a8: aa           	tax
    74a9: a5 12        	lda	$12                     ; 0x2012 <f256main+0x16e4>
    74ab: 65 e4        	adc	$e4                     ; 0x20e4 <f256main+0x17b6>
    74ad: 86 12        	stx	$12                     ; 0x2012 <f256main+0x16e4>
    74af: 85 13        	sta	$13                     ; 0x2013 <f256main+0x16e5>
    74b1: ad 18 88     	lda	$8818                   ; 0x8818 <__data_load_start+0x5f4>
    74b4: 92 12        	sta	($12)                   ; 0x2012 <f256main+0x16e4>
    74b6: 80 10        	bra	$74c8 <printf+0x8be>
    74b8: ae 18 88     	ldx	$8818                   ; 0x8818 <__data_load_start+0x5f4>
    74bb: 86 9d        	stx	$9d                     ; 0x209d <f256main+0x176f>
    74bd: a2 9d        	ldx	#$9d
    74bf: 86 12        	stx	$12                     ; 0x2012 <f256main+0x16e4>
    74c1: a2 00        	ldx	#$0
    74c3: 86 13        	stx	$13                     ; 0x2013 <f256main+0x16e5>
    74c5: 20 db 43     	jsr	$43db <textPrint>
    74c8: a4 24        	ldy	$24                     ; 0x2024 <f256main+0x16f6>
    74ca: e6 df        	inc	$df                     ; 0x20df <f256main+0x17b1>
    74cc: d0 02        	bne	$74d0 <printf+0x8c6>
    74ce: e6 e0        	inc	$e0                     ; 0x20e0 <f256main+0x17b2>
    74d0: a6 ed        	ldx	$ed                     ; 0x20ed <f256main+0x17bf>
    74d2: d0 03        	bne	$74d7 <printf+0x8cd>
    74d4: 4c 30 75     	jmp	$7530 <printf+0x926>
    74d7: a6 df        	ldx	$df                     ; 0x20df <f256main+0x17b1>
    74d9: a5 e0        	lda	$e0                     ; 0x20e0 <f256main+0x17b2>
    74db: c5 de        	cmp	$de                     ; 0x20de <f256main+0x17b0>
    74dd: d0 10        	bne	$74ef <printf+0x8e5>
    74df: 86 13        	stx	$13                     ; 0x2013 <f256main+0x16e5>
    74e1: a6 dd        	ldx	$dd                     ; 0x20dd <f256main+0x17af>
    74e3: 86 12        	stx	$12                     ; 0x2012 <f256main+0x16e4>
    74e5: a4 24        	ldy	$24                     ; 0x2024 <f256main+0x16f6>
    74e7: a6 13        	ldx	$13                     ; 0x2013 <f256main+0x16e5>
    74e9: e4 12        	cpx	$12                     ; 0x2012 <f256main+0x16e4>
    74eb: 90 08        	bcc	$74f5 <printf+0x8eb>
    74ed: 80 3b        	bra	$752a <printf+0x920>
    74ef: 86 13        	stx	$13                     ; 0x2013 <f256main+0x16e5>
    74f1: c5 de        	cmp	$de                     ; 0x20de <f256main+0x17b0>
    74f3: b0 35        	bcs	$752a <printf+0x920>
    74f5: a6 ea        	ldx	$ea                     ; 0x20ea <f256main+0x17bc>
    74f7: e4 27        	cpx	$27                     ; 0x2027 <f256main+0x16f9>
    74f9: d0 1d        	bne	$7518 <printf+0x90e>
    74fb: a6 e9        	ldx	$e9                     ; 0x20e9 <f256main+0x17bb>
    74fd: e4 26        	cpx	$26                     ; 0x2026 <f256main+0x16f8>
    74ff: d0 17        	bne	$7518 <printf+0x90e>
    7501: 18           	clc
    7502: 85 12        	sta	$12                     ; 0x2012 <f256main+0x16e4>
    7504: a5 13        	lda	$13                     ; 0x2013 <f256main+0x16e5>
    7506: 65 e3        	adc	$e3                     ; 0x20e3 <f256main+0x17b5>
    7508: aa           	tax
    7509: a5 12        	lda	$12                     ; 0x2012 <f256main+0x16e4>
    750b: 65 e4        	adc	$e4                     ; 0x20e4 <f256main+0x17b6>
    750d: 86 12        	stx	$12                     ; 0x2012 <f256main+0x16e4>
    750f: 85 13        	sta	$13                     ; 0x2013 <f256main+0x16e5>
    7511: ad 19 88     	lda	$8819                   ; 0x8819 <__data_load_start+0x5f5>
    7514: 92 12        	sta	($12)                   ; 0x2012 <f256main+0x16e4>
    7516: 80 10        	bra	$7528 <printf+0x91e>
    7518: ae 19 88     	ldx	$8819                   ; 0x8819 <__data_load_start+0x5f5>
    751b: 86 9d        	stx	$9d                     ; 0x209d <f256main+0x176f>
    751d: a2 9d        	ldx	#$9d
    751f: 86 12        	stx	$12                     ; 0x2012 <f256main+0x16e4>
    7521: a2 00        	ldx	#$0
    7523: 86 13        	stx	$13                     ; 0x2013 <f256main+0x16e5>
    7525: 20 db 43     	jsr	$43db <textPrint>
    7528: a4 24        	ldy	$24                     ; 0x2024 <f256main+0x16f6>
    752a: e6 df        	inc	$df                     ; 0x20df <f256main+0x17b1>
    752c: d0 02        	bne	$7530 <printf+0x926>
    752e: e6 e0        	inc	$e0                     ; 0x20e0 <f256main+0x17b2>
    7530: a9 10        	lda	#$10
    7532: 25 db        	and	$db                     ; 0x20db <f256main+0x17ad>
    7534: d0 03        	bne	$7539 <printf+0x92f>
    7536: 4c ca 75     	jmp	$75ca <printf+0x9c0>
    7539: a5 db        	lda	$db                     ; 0x20db <f256main+0x17ad>
    753b: 29 01        	and	#$1
    753d: f0 03        	beq	$7542 <printf+0x938>
    753f: 4c ca 75     	jmp	$75ca <printf+0x9c0>
    7542: a6 2f        	ldx	$2f                     ; 0x202f <f256main+0x1701>
    7544: a5 2e        	lda	$2e                     ; 0x202e <f256main+0x1700>
    7546: d0 06        	bne	$754e <printf+0x944>
    7548: 8a           	txa
    7549: d0 03        	bne	$754e <printf+0x944>
    754b: 4c 93 78     	jmp	$7893 <printf+0xc89>
    754e: a6 df        	ldx	$df                     ; 0x20df <f256main+0x17b1>
    7550: 86 13        	stx	$13                     ; 0x2013 <f256main+0x16e5>
    7552: a5 e0        	lda	$e0                     ; 0x20e0 <f256main+0x17b2>
    7554: 4c b0 75     	jmp	$75b0 <printf+0x9a6>
    7557: c5 de        	cmp	$de                     ; 0x20de <f256main+0x17b0>
    7559: b0 2e        	bcs	$7589 <printf+0x97f>
    755b: a6 ea        	ldx	$ea                     ; 0x20ea <f256main+0x17bc>
    755d: e4 27        	cpx	$27                     ; 0x2027 <f256main+0x16f9>
    755f: d0 19        	bne	$757a <printf+0x970>
    7561: a6 e9        	ldx	$e9                     ; 0x20e9 <f256main+0x17bb>
    7563: e4 26        	cpx	$26                     ; 0x2026 <f256main+0x16f8>
    7565: d0 13        	bne	$757a <printf+0x970>
    7567: 18           	clc
    7568: aa           	tax
    7569: a5 13        	lda	$13                     ; 0x2013 <f256main+0x16e5>
    756b: 65 e3        	adc	$e3                     ; 0x20e3 <f256main+0x17b5>
    756d: 85 12        	sta	$12                     ; 0x2012 <f256main+0x16e4>
    756f: 8a           	txa
    7570: 65 e4        	adc	$e4                     ; 0x20e4 <f256main+0x17b6>
    7572: 85 13        	sta	$13                     ; 0x2013 <f256main+0x16e5>
    7574: a9 30        	lda	#$30
    7576: 92 12        	sta	($12)                   ; 0x2012 <f256main+0x16e4>
    7578: 80 0f        	bra	$7589 <printf+0x97f>
    757a: a2 30        	ldx	#$30
    757c: 86 9d        	stx	$9d                     ; 0x209d <f256main+0x176f>
    757e: a2 9d        	ldx	#$9d
    7580: 86 12        	stx	$12                     ; 0x2012 <f256main+0x16e4>
    7582: a2 00        	ldx	#$0
    7584: 86 13        	stx	$13                     ; 0x2013 <f256main+0x16e5>
    7586: 20 db 43     	jsr	$43db <textPrint>
    7589: a6 df        	ldx	$df                     ; 0x20df <f256main+0x17b1>
    758b: a5 e0        	lda	$e0                     ; 0x20e0 <f256main+0x17b2>
    758d: e8           	inx
    758e: d0 01        	bne	$7591 <printf+0x987>
    7590: 1a           	inc
    7591: 86 13        	stx	$13                     ; 0x2013 <f256main+0x16e5>
    7593: 86 df        	stx	$df                     ; 0x20df <f256main+0x17b1>
    7595: 85 e0        	sta	$e0                     ; 0x20e0 <f256main+0x17b2>
    7597: a4 2f        	ldy	$2f                     ; 0x202f <f256main+0x1701>
    7599: a6 2e        	ldx	$2e                     ; 0x202e <f256main+0x1700>
    759b: 86 12        	stx	$12                     ; 0x2012 <f256main+0x16e4>
    759d: 88           	dey
    759e: c0 ff        	cpy	#$ff
    75a0: d0 02        	bne	$75a4 <printf+0x99a>
    75a2: c6 12        	dec	$12                     ; 0x2012 <f256main+0x16e4>
    75a4: 84 2f        	sty	$2f                     ; 0x202f <f256main+0x1701>
    75a6: a6 12        	ldx	$12                     ; 0x2012 <f256main+0x16e4>
    75a8: 86 2e        	stx	$2e                     ; 0x202e <f256main+0x1700>
    75aa: d0 04        	bne	$75b0 <printf+0x9a6>
    75ac: c0 00        	cpy	#$0
    75ae: f0 14        	beq	$75c4 <printf+0x9ba>
    75b0: c5 de        	cmp	$de                     ; 0x20de <f256main+0x17b0>
    75b2: f0 03        	beq	$75b7 <printf+0x9ad>
    75b4: 4c 57 75     	jmp	$7557 <printf+0x94d>
    75b7: a6 dd        	ldx	$dd                     ; 0x20dd <f256main+0x17af>
    75b9: 86 12        	stx	$12                     ; 0x2012 <f256main+0x16e4>
    75bb: a6 13        	ldx	$13                     ; 0x2013 <f256main+0x16e5>
    75bd: e4 12        	cpx	$12                     ; 0x2012 <f256main+0x16e4>
    75bf: b0 c8        	bcs	$7589 <printf+0x97f>
    75c1: 4c 5b 75     	jmp	$755b <printf+0x951>
    75c4: 64 2f        	stz	$2f                     ; 0x202f <f256main+0x1701>
    75c6: 64 2e        	stz	$2e                     ; 0x202e <f256main+0x1700>
    75c8: a4 24        	ldy	$24                     ; 0x2024 <f256main+0x16f6>
    75ca: a2 00        	ldx	#$0
    75cc: e4 2d        	cpx	$2d                     ; 0x202d <f256main+0x16ff>
    75ce: d0 07        	bne	$75d7 <printf+0x9cd>
    75d0: c4 2c        	cpy	$2c                     ; 0x202c <f256main+0x16fe>
    75d2: 90 0a        	bcc	$75de <printf+0x9d4>
    75d4: 4c 56 76     	jmp	$7656 <printf+0xa4c>
    75d7: e4 2d        	cpx	$2d                     ; 0x202d <f256main+0x16ff>
    75d9: 90 03        	bcc	$75de <printf+0x9d4>
    75db: 4c 56 76     	jmp	$7656 <printf+0xa4c>
    75de: a6 df        	ldx	$df                     ; 0x20df <f256main+0x17b1>
    75e0: 86 13        	stx	$13                     ; 0x2013 <f256main+0x16e5>
    75e2: a5 e0        	lda	$e0                     ; 0x20e0 <f256main+0x17b2>
    75e4: a2 ff        	ldx	#$ff
    75e6: c6 2c        	dec	$2c                     ; 0x202c <f256main+0x16fe>
    75e8: e4 2c        	cpx	$2c                     ; 0x202c <f256main+0x16fe>
    75ea: d0 02        	bne	$75ee <printf+0x9e4>
    75ec: c6 2d        	dec	$2d                     ; 0x202d <f256main+0x16ff>
    75ee: c5 de        	cmp	$de                     ; 0x20de <f256main+0x17b0>
    75f0: d0 0c        	bne	$75fe <printf+0x9f4>
    75f2: a6 dd        	ldx	$dd                     ; 0x20dd <f256main+0x17af>
    75f4: 86 12        	stx	$12                     ; 0x2012 <f256main+0x16e4>
    75f6: a6 13        	ldx	$13                     ; 0x2013 <f256main+0x16e5>
    75f8: e4 12        	cpx	$12                     ; 0x2012 <f256main+0x16e4>
    75fa: 90 06        	bcc	$7602 <printf+0x9f8>
    75fc: 80 32        	bra	$7630 <printf+0xa26>
    75fe: c5 de        	cmp	$de                     ; 0x20de <f256main+0x17b0>
    7600: b0 2e        	bcs	$7630 <printf+0xa26>
    7602: a6 ea        	ldx	$ea                     ; 0x20ea <f256main+0x17bc>
    7604: e4 27        	cpx	$27                     ; 0x2027 <f256main+0x16f9>
    7606: d0 19        	bne	$7621 <printf+0xa17>
    7608: a6 e9        	ldx	$e9                     ; 0x20e9 <f256main+0x17bb>
    760a: e4 26        	cpx	$26                     ; 0x2026 <f256main+0x16f8>
    760c: d0 13        	bne	$7621 <printf+0xa17>
    760e: 18           	clc
    760f: aa           	tax
    7610: a5 13        	lda	$13                     ; 0x2013 <f256main+0x16e5>
    7612: 65 e3        	adc	$e3                     ; 0x20e3 <f256main+0x17b5>
    7614: 85 12        	sta	$12                     ; 0x2012 <f256main+0x16e4>
    7616: 8a           	txa
    7617: 65 e4        	adc	$e4                     ; 0x20e4 <f256main+0x17b6>
    7619: 85 13        	sta	$13                     ; 0x2013 <f256main+0x16e5>
    761b: a9 30        	lda	#$30
    761d: 92 12        	sta	($12)                   ; 0x2012 <f256main+0x16e4>
    761f: 80 0f        	bra	$7630 <printf+0xa26>
    7621: a2 30        	ldx	#$30
    7623: 86 9d        	stx	$9d                     ; 0x209d <f256main+0x176f>
    7625: a2 9d        	ldx	#$9d
    7627: 86 12        	stx	$12                     ; 0x2012 <f256main+0x16e4>
    7629: a2 00        	ldx	#$0
    762b: 86 13        	stx	$13                     ; 0x2013 <f256main+0x16e5>
    762d: 20 db 43     	jsr	$43db <textPrint>
    7630: a6 df        	ldx	$df                     ; 0x20df <f256main+0x17b1>
    7632: a5 e0        	lda	$e0                     ; 0x20e0 <f256main+0x17b2>
    7634: e8           	inx
    7635: d0 01        	bne	$7638 <printf+0xa2e>
    7637: 1a           	inc
    7638: 86 13        	stx	$13                     ; 0x2013 <f256main+0x16e5>
    763a: 86 df        	stx	$df                     ; 0x20df <f256main+0x17b1>
    763c: 85 e0        	sta	$e0                     ; 0x20e0 <f256main+0x17b2>
    763e: a2 00        	ldx	#$0
    7640: e4 2d        	cpx	$2d                     ; 0x202d <f256main+0x16ff>
    7642: d0 09        	bne	$764d <printf+0xa43>
    7644: a4 24        	ldy	$24                     ; 0x2024 <f256main+0x16f6>
    7646: c4 2c        	cpy	$2c                     ; 0x202c <f256main+0x16fe>
    7648: b0 0c        	bcs	$7656 <printf+0xa4c>
    764a: 4c e4 75     	jmp	$75e4 <printf+0x9da>
    764d: e4 2d        	cpx	$2d                     ; 0x202d <f256main+0x16ff>
    764f: a4 24        	ldy	$24                     ; 0x2024 <f256main+0x16f6>
    7651: b0 03        	bcs	$7656 <printf+0xa4c>
    7653: 4c e4 75     	jmp	$75e4 <printf+0x9da>
    7656: 98           	tya
    7657: d0 03        	bne	$765c <printf+0xa52>
    7659: 4c 62 77     	jmp	$7762 <printf+0xb58>
    765c: 88           	dey
    765d: d0 03        	bne	$7662 <printf+0xa58>
    765f: 4c f6 76     	jmp	$76f6 <printf+0xaec>
    7662: 84 2c        	sty	$2c                     ; 0x202c <f256main+0x16fe>
    7664: ae 1a 88     	ldx	$881a                   ; 0x881a <__data_load_start+0x5f6>
    7667: 8a           	txa
    7668: 18           	clc
    7669: 65 2c        	adc	$2c                     ; 0x202c <f256main+0x16fe>
    766b: 85 24        	sta	$24                     ; 0x2024 <f256main+0x16f6>
    766d: ad 1b 88     	lda	$881b                   ; 0x881b <__data_load_start+0x5f7>
    7670: 69 00        	adc	#$0
    7672: 85 25        	sta	$25                     ; 0x2025 <f256main+0x16f7>
    7674: 4c e8 76     	jmp	$76e8 <printf+0xade>
    7677: a8           	tay
    7678: a9 80        	lda	#$80
    767a: 25 db        	and	$db                     ; 0x20db <f256main+0x17ad>
    767c: f0 04        	beq	$7682 <printf+0xa78>
    767e: a2 61        	ldx	#$61
    7680: 80 02        	bra	$7684 <printf+0xa7a>
    7682: a2 41        	ldx	#$41
    7684: 86 12        	stx	$12                     ; 0x2012 <f256main+0x16e4>
    7686: 18           	clc
    7687: 98           	tya
    7688: 65 12        	adc	$12                     ; 0x2012 <f256main+0x16e4>
    768a: 18           	clc
    768b: 69 f6        	adc	#$f6
    768d: a4 df        	ldy	$df                     ; 0x20df <f256main+0x17b1>
    768f: a6 e0        	ldx	$e0                     ; 0x20e0 <f256main+0x17b2>
    7691: e4 de        	cpx	$de                     ; 0x20de <f256main+0x17b0>
    7693: d0 0c        	bne	$76a1 <printf+0xa97>
    7695: 86 14        	stx	$14                     ; 0x2014 <f256main+0x16e6>
    7697: a6 dd        	ldx	$dd                     ; 0x20dd <f256main+0x17af>
    7699: 86 12        	stx	$12                     ; 0x2012 <f256main+0x16e4>
    769b: c4 12        	cpy	$12                     ; 0x2012 <f256main+0x16e4>
    769d: 90 08        	bcc	$76a7 <printf+0xa9d>
    769f: 80 31        	bra	$76d2 <printf+0xac8>
    76a1: 86 14        	stx	$14                     ; 0x2014 <f256main+0x16e6>
    76a3: e4 de        	cpx	$de                     ; 0x20de <f256main+0x17b0>
    76a5: b0 2b        	bcs	$76d2 <printf+0xac8>
    76a7: a6 ea        	ldx	$ea                     ; 0x20ea <f256main+0x17bc>
    76a9: e4 27        	cpx	$27                     ; 0x2027 <f256main+0x16f9>
    76ab: d0 18        	bne	$76c5 <printf+0xabb>
    76ad: a6 e9        	ldx	$e9                     ; 0x20e9 <f256main+0x17bb>
    76af: e4 26        	cpx	$26                     ; 0x2026 <f256main+0x16f8>
    76b1: d0 12        	bne	$76c5 <printf+0xabb>
    76b3: 18           	clc
    76b4: aa           	tax
    76b5: 98           	tya
    76b6: 65 e3        	adc	$e3                     ; 0x20e3 <f256main+0x17b5>
    76b8: 85 12        	sta	$12                     ; 0x2012 <f256main+0x16e4>
    76ba: a5 14        	lda	$14                     ; 0x2014 <f256main+0x16e6>
    76bc: 65 e4        	adc	$e4                     ; 0x20e4 <f256main+0x17b6>
    76be: 85 13        	sta	$13                     ; 0x2013 <f256main+0x16e5>
    76c0: 8a           	txa
    76c1: 92 12        	sta	($12)                   ; 0x2012 <f256main+0x16e4>
    76c3: 80 0d        	bra	$76d2 <printf+0xac8>
    76c5: 85 9d        	sta	$9d                     ; 0x209d <f256main+0x176f>
    76c7: a2 9d        	ldx	#$9d
    76c9: 86 12        	stx	$12                     ; 0x2012 <f256main+0x16e4>
    76cb: a2 00        	ldx	#$0
    76cd: 86 13        	stx	$13                     ; 0x2013 <f256main+0x16e5>
    76cf: 20 db 43     	jsr	$43db <textPrint>
    76d2: e6 df        	inc	$df                     ; 0x20df <f256main+0x17b1>
    76d4: d0 02        	bne	$76d8 <printf+0xace>
    76d6: e6 e0        	inc	$e0                     ; 0x20e0 <f256main+0x17b2>
    76d8: c6 2c        	dec	$2c                     ; 0x202c <f256main+0x16fe>
    76da: a2 ff        	ldx	#$ff
    76dc: c6 24        	dec	$24                     ; 0x2024 <f256main+0x16f6>
    76de: e4 24        	cpx	$24                     ; 0x2024 <f256main+0x16f6>
    76e0: d0 02        	bne	$76e4 <printf+0xada>
    76e2: c6 25        	dec	$25                     ; 0x2025 <f256main+0x16f7>
    76e4: a5 2c        	lda	$2c                     ; 0x202c <f256main+0x16fe>
    76e6: f0 0e        	beq	$76f6 <printf+0xaec>
    76e8: b2 24        	lda	($24)                   ; 0x2024 <f256main+0x16f6>
    76ea: c9 0a        	cmp	#$a
    76ec: 90 03        	bcc	$76f1 <printf+0xae7>
    76ee: 4c 77 76     	jmp	$7677 <printf+0xa6d>
    76f1: 09 30        	ora	#$30
    76f3: 4c 8d 76     	jmp	$768d <printf+0xa83>
    76f6: ad fb 87     	lda	$87fb                   ; 0x87fb <__data_load_start+0x5d7>
    76f9: c9 0a        	cmp	#$a
    76fb: b0 04        	bcs	$7701 <printf+0xaf7>
    76fd: 09 30        	ora	#$30
    76ff: 80 16        	bra	$7717 <printf+0xb0d>
    7701: a8           	tay
    7702: a9 80        	lda	#$80
    7704: 25 db        	and	$db                     ; 0x20db <f256main+0x17ad>
    7706: f0 04        	beq	$770c <printf+0xb02>
    7708: a2 61        	ldx	#$61
    770a: 80 02        	bra	$770e <printf+0xb04>
    770c: a2 41        	ldx	#$41
    770e: 86 12        	stx	$12                     ; 0x2012 <f256main+0x16e4>
    7710: 18           	clc
    7711: 98           	tya
    7712: 65 12        	adc	$12                     ; 0x2012 <f256main+0x16e4>
    7714: 18           	clc
    7715: 69 f6        	adc	#$f6
    7717: a4 df        	ldy	$df                     ; 0x20df <f256main+0x17b1>
    7719: a6 e0        	ldx	$e0                     ; 0x20e0 <f256main+0x17b2>
    771b: e4 de        	cpx	$de                     ; 0x20de <f256main+0x17b0>
    771d: d0 0c        	bne	$772b <printf+0xb21>
    771f: 86 14        	stx	$14                     ; 0x2014 <f256main+0x16e6>
    7721: a6 dd        	ldx	$dd                     ; 0x20dd <f256main+0x17af>
    7723: 86 12        	stx	$12                     ; 0x2012 <f256main+0x16e4>
    7725: c4 12        	cpy	$12                     ; 0x2012 <f256main+0x16e4>
    7727: 90 08        	bcc	$7731 <printf+0xb27>
    7729: 80 31        	bra	$775c <printf+0xb52>
    772b: 86 14        	stx	$14                     ; 0x2014 <f256main+0x16e6>
    772d: e4 de        	cpx	$de                     ; 0x20de <f256main+0x17b0>
    772f: b0 2b        	bcs	$775c <printf+0xb52>
    7731: a6 ea        	ldx	$ea                     ; 0x20ea <f256main+0x17bc>
    7733: e4 27        	cpx	$27                     ; 0x2027 <f256main+0x16f9>
    7735: d0 18        	bne	$774f <printf+0xb45>
    7737: a6 e9        	ldx	$e9                     ; 0x20e9 <f256main+0x17bb>
    7739: e4 26        	cpx	$26                     ; 0x2026 <f256main+0x16f8>
    773b: d0 12        	bne	$774f <printf+0xb45>
    773d: 18           	clc
    773e: aa           	tax
    773f: 98           	tya
    7740: 65 e3        	adc	$e3                     ; 0x20e3 <f256main+0x17b5>
    7742: 85 12        	sta	$12                     ; 0x2012 <f256main+0x16e4>
    7744: a5 14        	lda	$14                     ; 0x2014 <f256main+0x16e6>
    7746: 65 e4        	adc	$e4                     ; 0x20e4 <f256main+0x17b6>
    7748: 85 13        	sta	$13                     ; 0x2013 <f256main+0x16e5>
    774a: 8a           	txa
    774b: 92 12        	sta	($12)                   ; 0x2012 <f256main+0x16e4>
    774d: 80 0d        	bra	$775c <printf+0xb52>
    774f: 85 9d        	sta	$9d                     ; 0x209d <f256main+0x176f>
    7751: a2 9d        	ldx	#$9d
    7753: 86 12        	stx	$12                     ; 0x2012 <f256main+0x16e4>
    7755: a2 00        	ldx	#$0
    7757: 86 13        	stx	$13                     ; 0x2013 <f256main+0x16e5>
    7759: 20 db 43     	jsr	$43db <textPrint>
    775c: e6 df        	inc	$df                     ; 0x20df <f256main+0x17b1>
    775e: d0 02        	bne	$7762 <printf+0xb58>
    7760: e6 e0        	inc	$e0                     ; 0x20e0 <f256main+0x17b2>
    7762: a5 db        	lda	$db                     ; 0x20db <f256main+0x17ad>
    7764: 29 01        	and	#$1
    7766: d0 1e        	bne	$7786 <printf+0xb7c>
    7768: a6 df        	ldx	$df                     ; 0x20df <f256main+0x17b1>
    776a: 86 14        	stx	$14                     ; 0x2014 <f256main+0x16e6>
    776c: a5 e0        	lda	$e0                     ; 0x20e0 <f256main+0x17b2>
    776e: a4 dd        	ldy	$dd                     ; 0x20dd <f256main+0x17af>
    7770: a6 de        	ldx	$de                     ; 0x20de <f256main+0x17b0>
    7772: 86 12        	stx	$12                     ; 0x2012 <f256main+0x16e4>
    7774: 86 13        	stx	$13                     ; 0x2013 <f256main+0x16e5>
    7776: c5 12        	cmp	$12                     ; 0x2012 <f256main+0x16e4>
    7778: f0 03        	beq	$777d <printf+0xb73>
    777a: 4c 13 78     	jmp	$7813 <printf+0xc09>
    777d: 84 12        	sty	$12                     ; 0x2012 <f256main+0x16e4>
    777f: a6 14        	ldx	$14                     ; 0x2014 <f256main+0x16e6>
    7781: e4 12        	cpx	$12                     ; 0x2012 <f256main+0x16e4>
    7783: 4c 17 78     	jmp	$7817 <printf+0xc0d>
    7786: a6 df        	ldx	$df                     ; 0x20df <f256main+0x17b1>
    7788: 86 14        	stx	$14                     ; 0x2014 <f256main+0x16e6>
    778a: a5 e0        	lda	$e0                     ; 0x20e0 <f256main+0x17b2>
    778c: a6 2f        	ldx	$2f                     ; 0x202f <f256main+0x1701>
    778e: a4 2e        	ldy	$2e                     ; 0x202e <f256main+0x1700>
    7790: f0 03        	beq	$7795 <printf+0xb8b>
    7792: 4c ff 77     	jmp	$77ff <printf+0xbf5>
    7795: e0 00        	cpx	#$0
    7797: f0 d5        	beq	$776e <printf+0xb64>
    7799: 4c ff 77     	jmp	$77ff <printf+0xbf5>
    779c: c5 de        	cmp	$de                     ; 0x20de <f256main+0x17b0>
    779e: b0 2e        	bcs	$77ce <printf+0xbc4>
    77a0: a6 ea        	ldx	$ea                     ; 0x20ea <f256main+0x17bc>
    77a2: e4 27        	cpx	$27                     ; 0x2027 <f256main+0x16f9>
    77a4: d0 19        	bne	$77bf <printf+0xbb5>
    77a6: a6 e9        	ldx	$e9                     ; 0x20e9 <f256main+0x17bb>
    77a8: e4 26        	cpx	$26                     ; 0x2026 <f256main+0x16f8>
    77aa: d0 13        	bne	$77bf <printf+0xbb5>
    77ac: 18           	clc
    77ad: aa           	tax
    77ae: a5 14        	lda	$14                     ; 0x2014 <f256main+0x16e6>
    77b0: 65 e3        	adc	$e3                     ; 0x20e3 <f256main+0x17b5>
    77b2: 85 12        	sta	$12                     ; 0x2012 <f256main+0x16e4>
    77b4: 8a           	txa
    77b5: 65 e4        	adc	$e4                     ; 0x20e4 <f256main+0x17b6>
    77b7: 85 13        	sta	$13                     ; 0x2013 <f256main+0x16e5>
    77b9: a9 20        	lda	#$20
    77bb: 92 12        	sta	($12)                   ; 0x2012 <f256main+0x16e4>
    77bd: 80 0f        	bra	$77ce <printf+0xbc4>
    77bf: a2 20        	ldx	#$20
    77c1: 86 9d        	stx	$9d                     ; 0x209d <f256main+0x176f>
    77c3: a2 9d        	ldx	#$9d
    77c5: 86 12        	stx	$12                     ; 0x2012 <f256main+0x16e4>
    77c7: a2 00        	ldx	#$0
    77c9: 86 13        	stx	$13                     ; 0x2013 <f256main+0x16e5>
    77cb: 20 db 43     	jsr	$43db <textPrint>
    77ce: a6 df        	ldx	$df                     ; 0x20df <f256main+0x17b1>
    77d0: a5 e0        	lda	$e0                     ; 0x20e0 <f256main+0x17b2>
    77d2: e8           	inx
    77d3: d0 01        	bne	$77d6 <printf+0xbcc>
    77d5: 1a           	inc
    77d6: 86 14        	stx	$14                     ; 0x2014 <f256main+0x16e6>
    77d8: 86 df        	stx	$df                     ; 0x20df <f256main+0x17b1>
    77da: 85 e0        	sta	$e0                     ; 0x20e0 <f256main+0x17b2>
    77dc: a6 2f        	ldx	$2f                     ; 0x202f <f256main+0x1701>
    77de: 86 12        	stx	$12                     ; 0x2012 <f256main+0x16e4>
    77e0: a6 2e        	ldx	$2e                     ; 0x202e <f256main+0x1700>
    77e2: 86 13        	stx	$13                     ; 0x2013 <f256main+0x16e5>
    77e4: a2 ff        	ldx	#$ff
    77e6: c6 12        	dec	$12                     ; 0x2012 <f256main+0x16e4>
    77e8: e4 12        	cpx	$12                     ; 0x2012 <f256main+0x16e4>
    77ea: d0 02        	bne	$77ee <printf+0xbe4>
    77ec: c6 13        	dec	$13                     ; 0x2013 <f256main+0x16e5>
    77ee: a6 12        	ldx	$12                     ; 0x2012 <f256main+0x16e4>
    77f0: 86 2f        	stx	$2f                     ; 0x202f <f256main+0x1701>
    77f2: a6 13        	ldx	$13                     ; 0x2013 <f256main+0x16e5>
    77f4: 86 2e        	stx	$2e                     ; 0x202e <f256main+0x1700>
    77f6: d0 07        	bne	$77ff <printf+0xbf5>
    77f8: a6 12        	ldx	$12                     ; 0x2012 <f256main+0x16e4>
    77fa: d0 03        	bne	$77ff <printf+0xbf5>
    77fc: 4c 6e 77     	jmp	$776e <printf+0xb64>
    77ff: c5 de        	cmp	$de                     ; 0x20de <f256main+0x17b0>
    7801: f0 03        	beq	$7806 <printf+0xbfc>
    7803: 4c 9c 77     	jmp	$779c <printf+0xb92>
    7806: a6 dd        	ldx	$dd                     ; 0x20dd <f256main+0x17af>
    7808: 86 12        	stx	$12                     ; 0x2012 <f256main+0x16e4>
    780a: a6 14        	ldx	$14                     ; 0x2014 <f256main+0x16e6>
    780c: e4 12        	cpx	$12                     ; 0x2012 <f256main+0x16e4>
    780e: b0 be        	bcs	$77ce <printf+0xbc4>
    7810: 4c a0 77     	jmp	$77a0 <printf+0xb96>
    7813: 86 12        	stx	$12                     ; 0x2012 <f256main+0x16e4>
    7815: c5 12        	cmp	$12                     ; 0x2012 <f256main+0x16e4>
    7817: 98           	tya
    7818: a0 01        	ldy	#$1
    781a: 90 20        	bcc	$783c <printf+0xc32>
    781c: a6 13        	ldx	$13                     ; 0x2013 <f256main+0x16e5>
    781e: d0 03        	bne	$7823 <printf+0xc19>
    7820: aa           	tax
    7821: f0 19        	beq	$783c <printf+0xc32>
    7823: 18           	clc
    7824: 65 e3        	adc	$e3                     ; 0x20e3 <f256main+0x17b5>
    7826: 85 12        	sta	$12                     ; 0x2012 <f256main+0x16e4>
    7828: a5 13        	lda	$13                     ; 0x2013 <f256main+0x16e5>
    782a: 65 e4        	adc	$e4                     ; 0x20e4 <f256main+0x17b6>
    782c: 85 13        	sta	$13                     ; 0x2013 <f256main+0x16e5>
    782e: a2 ff        	ldx	#$ff
    7830: c6 12        	dec	$12                     ; 0x2012 <f256main+0x16e4>
    7832: e4 12        	cpx	$12                     ; 0x2012 <f256main+0x16e4>
    7834: d0 02        	bne	$7838 <printf+0xc2e>
    7836: c6 13        	dec	$13                     ; 0x2013 <f256main+0x16e5>
    7838: a9 00        	lda	#$0
    783a: 92 12        	sta	($12)                   ; 0x2012 <f256main+0x16e4>
    783c: e6 2a        	inc	$2a                     ; 0x202a <f256main+0x16fc>
    783e: d0 02        	bne	$7842 <printf+0xc38>
    7840: e6 2b        	inc	$2b                     ; 0x202b <f256main+0x16fd>
    7842: a6 2b        	ldx	$2b                     ; 0x202b <f256main+0x16fd>
    7844: e4 29        	cpx	$29                     ; 0x2029 <f256main+0x16fb>
    7846: f0 03        	beq	$784b <printf+0xc41>
    7848: 4c af 6c     	jmp	$6caf <printf+0xa5>
    784b: a6 2a        	ldx	$2a                     ; 0x202a <f256main+0x16fc>
    784d: e4 28        	cpx	$28                     ; 0x2028 <f256main+0x16fa>
    784f: f0 03        	beq	$7854 <printf+0xc4a>
    7851: 4c af 6c     	jmp	$6caf <printf+0xa5>
    7854: b2 28        	lda	($28)                   ; 0x2028 <f256main+0x16fa>
    7856: a2 00        	ldx	#$0
    7858: 86 26        	stx	$26                     ; 0x2026 <f256main+0x16f8>
    785a: a2 00        	ldx	#$0
    785c: 86 27        	stx	$27                     ; 0x2027 <f256main+0x16f9>
    785e: 4c c3 6c     	jmp	$6cc3 <printf+0xb9>
    7861: e4 2d        	cpx	$2d                     ; 0x202d <f256main+0x16ff>
    7863: a6 25        	ldx	$25                     ; 0x2025 <f256main+0x16f7>
    7865: b0 03        	bcs	$786a <printf+0xc60>
    7867: 4c 2a 73     	jmp	$732a <printf+0x720>
    786a: a5 24        	lda	$24                     ; 0x2024 <f256main+0x16f6>
    786c: 85 2c        	sta	$2c                     ; 0x202c <f256main+0x16fe>
    786e: 64 2d        	stz	$2d                     ; 0x202d <f256main+0x16ff>
    7870: e6 2c        	inc	$2c                     ; 0x202c <f256main+0x16fe>
    7872: f0 03        	beq	$7877 <printf+0xc6d>
    7874: 4c 2a 73     	jmp	$732a <printf+0x720>
    7877: e6 2d        	inc	$2d                     ; 0x202d <f256main+0x16ff>
    7879: 4c 2a 73     	jmp	$732a <printf+0x720>
    787c: a2 58        	ldx	#$58
    787e: 8e 19 88     	stx	$8819                   ; 0x8819 <__data_load_start+0x5f5>
    7881: a2 01        	ldx	#$1
    7883: 86 ed        	stx	$ed                     ; 0x20ed <f256main+0x17bf>
    7885: a2 30        	ldx	#$30
    7887: 8e 18 88     	stx	$8818                   ; 0x8818 <__data_load_start+0x5f4>
    788a: a9 02        	lda	#$2
    788c: a2 00        	ldx	#$0
    788e: 86 ee        	stx	$ee                     ; 0x20ee <f256main+0x17c0>
    7890: 4c 6e 73     	jmp	$736e <printf+0x764>
    7893: 64 2f        	stz	$2f                     ; 0x202f <f256main+0x1701>
    7895: 64 2e        	stz	$2e                     ; 0x202e <f256main+0x1700>
    7897: 4c ca 75     	jmp	$75ca <printf+0x9c0>
    789a: ae 23 88     	ldx	$8823                   ; 0x8823 <__data_load_start+0x5ff>
    789d: 86 2f        	stx	$2f                     ; 0x202f <f256main+0x1701>
    789f: ae 22 88     	ldx	$8822                   ; 0x8822 <__data_load_start+0x5fe>
    78a2: 86 2e        	stx	$2e                     ; 0x202e <f256main+0x1700>
    78a4: ae 21 88     	ldx	$8821                   ; 0x8821 <__data_load_start+0x5fd>
    78a7: 86 2d        	stx	$2d                     ; 0x202d <f256main+0x16ff>
    78a9: ae 20 88     	ldx	$8820                   ; 0x8820 <__data_load_start+0x5fc>
    78ac: 86 2c        	stx	$2c                     ; 0x202c <f256main+0x16fe>
    78ae: ae 1f 88     	ldx	$881f                   ; 0x881f <__data_load_start+0x5fb>
    78b1: 86 2b        	stx	$2b                     ; 0x202b <f256main+0x16fd>
    78b3: ae 1e 88     	ldx	$881e                   ; 0x881e <__data_load_start+0x5fa>
    78b6: 86 2a        	stx	$2a                     ; 0x202a <f256main+0x16fc>
    78b8: ae 1d 88     	ldx	$881d                   ; 0x881d <__data_load_start+0x5f9>
    78bb: 86 29        	stx	$29                     ; 0x2029 <f256main+0x16fb>
    78bd: ae 1c 88     	ldx	$881c                   ; 0x881c <__data_load_start+0x5f8>
    78c0: 86 28        	stx	$28                     ; 0x2028 <f256main+0x16fa>
    78c2: fa           	plx
    78c3: 86 27        	stx	$27                     ; 0x2027 <f256main+0x16f9>
    78c5: fa           	plx
    78c6: 86 26        	stx	$26                     ; 0x2026 <f256main+0x16f8>
    78c8: fa           	plx
    78c9: 86 25        	stx	$25                     ; 0x2025 <f256main+0x16f7>
    78cb: fa           	plx
    78cc: 86 24        	stx	$24                     ; 0x2024 <f256main+0x16f6>
    78ce: 60           	rts

000078cf <malloc>:
    78cf: a8           	tay
    78d0: 8a           	txa
    78d1: a2 00        	ldx	#$0
    78d3: 86 12        	stx	$12                     ; 0x2012 <f256main+0x16e4>
    78d5: a2 00        	ldx	#$0
    78d7: 86 13        	stx	$13                     ; 0x2013 <f256main+0x16e5>
    78d9: aa           	tax
    78da: d0 07        	bne	$78e3 <malloc+0x14>
    78dc: c0 00        	cpy	#$0
    78de: d0 03        	bne	$78e3 <malloc+0x14>
    78e0: 4c df 79     	jmp	$79df <malloc+0x110>
    78e3: 84 16        	sty	$16                     ; 0x2016 <f256main+0x16e8>
    78e5: aa           	tax
    78e6: d0 0e        	bne	$78f6 <malloc+0x27>
    78e8: a6 16        	ldx	$16                     ; 0x2016 <f256main+0x16e8>
    78ea: e0 07        	cpx	#$7
    78ec: b0 0c        	bcs	$78fa <malloc+0x2b>
    78ee: a2 08        	ldx	#$8
    78f0: 86 d1        	stx	$d1                     ; 0x20d1 <f256main+0x17a3>
    78f2: a9 00        	lda	#$0
    78f4: 80 2f        	bra	$7925 <malloc+0x56>
    78f6: c9 00        	cmp	#$0
    78f8: 90 f4        	bcc	$78ee <malloc+0x1f>
    78fa: a8           	tay
    78fb: a5 16        	lda	$16                     ; 0x2016 <f256main+0x16e8>
    78fd: 29 01        	and	#$1
    78ff: a2 02        	ldx	#$2
    7901: 64 14        	stz	$14                     ; 0x2014 <f256main+0x16e6>
    7903: c9 00        	cmp	#$0
    7905: f0 02        	beq	$7909 <malloc+0x3a>
    7907: a2 03        	ldx	#$3
    7909: 86 15        	stx	$15                     ; 0x2015 <f256main+0x16e7>
    790b: 18           	clc
    790c: a5 16        	lda	$16                     ; 0x2016 <f256main+0x16e8>
    790e: 65 15        	adc	$15                     ; 0x2015 <f256main+0x16e7>
    7910: aa           	tax
    7911: 98           	tya
    7912: 65 14        	adc	$14                     ; 0x2014 <f256main+0x16e6>
    7914: 90 03        	bcc	$7919 <malloc+0x4a>
    7916: 4c df 79     	jmp	$79df <malloc+0x110>
    7919: 86 d1        	stx	$d1                     ; 0x20d1 <f256main+0x17a3>
    791b: a8           	tay
    791c: d0 07        	bne	$7925 <malloc+0x56>
    791e: e0 00        	cpx	#$0
    7920: d0 03        	bne	$7925 <malloc+0x56>
    7922: 4c df 79     	jmp	$79df <malloc+0x110>
    7925: 85 d2        	sta	$d2                     ; 0x20d2 <f256main+0x17a4>
    7927: ad f4 87     	lda	$87f4                   ; 0x87f4 <_ZN12_GLOBAL__N_111initializedE>
    792a: 29 01        	and	#$1
    792c: d0 2a        	bne	$7958 <malloc+0x89>
    792e: a9 00        	lda	#$0
    7930: a2 10        	ldx	#$10
    7932: a0 2a        	ldy	#$2a
    7934: 84 12        	sty	$12                     ; 0x2012 <f256main+0x16e4>
    7936: a0 88        	ldy	#$88
    7938: 84 13        	sty	$13                     ; 0x2013 <f256main+0x16e5>
    793a: 20 7c 03     	jsr	$37c <_ZN12_GLOBAL__N_19FreeChunk6insertEPvj>
    793d: a2 00        	ldx	#$0
    793f: 86 12        	stx	$12                     ; 0x2012 <f256main+0x16e4>
    7941: a2 00        	ldx	#$0
    7943: 86 13        	stx	$13                     ; 0x2013 <f256main+0x16e5>
    7945: ae 2b 88     	ldx	$882b                   ; 0x882b <end_block9+0x1>
    7948: a9 fe        	lda	#$fe
    794a: 2d 2a 88     	and	$882a                   ; 0x882a <end_block9>
    794d: 8d 2a 88     	sta	$882a                   ; 0x882a <end_block9>
    7950: 8e 2b 88     	stx	$882b                   ; 0x882b <end_block9+0x1>
    7953: a2 01        	ldx	#$1
    7955: 8e f4 87     	stx	$87f4                   ; 0x87f4 <_ZN12_GLOBAL__N_111initializedE>
    7958: ad f7 87     	lda	$87f7                   ; 0x87f7 <_ZN12_GLOBAL__N_19free_listE>
    795b: ae f8 87     	ldx	$87f8                   ; 0x87f8 <_ZN12_GLOBAL__N_19free_listE+0x1>
    795e: a0 00        	ldy	#$0
    7960: 84 14        	sty	$14                     ; 0x2014 <f256main+0x16e6>
    7962: a0 00        	ldy	#$0
    7964: 84 15        	sty	$15                     ; 0x2015 <f256main+0x16e7>
    7966: 86 1d        	stx	$1d                     ; 0x201d <f256main+0x16ef>
    7968: e4 15        	cpx	$15                     ; 0x2015 <f256main+0x16e7>
    796a: d0 07        	bne	$7973 <malloc+0xa4>
    796c: c5 14        	cmp	$14                     ; 0x2014 <f256main+0x16e6>
    796e: d0 03        	bne	$7973 <malloc+0xa4>
    7970: 4c df 79     	jmp	$79df <malloc+0x110>
    7973: a0 00        	ldy	#$0
    7975: a2 10        	ldx	#$10
    7977: 85 18        	sta	$18                     ; 0x2018 <f256main+0x16ea>
    7979: 84 14        	sty	$14                     ; 0x2014 <f256main+0x16e6>
    797b: 86 15        	stx	$15                     ; 0x2015 <f256main+0x16e7>
    797d: 18           	clc
    797e: a9 2a        	lda	#$2a
    7980: 65 14        	adc	$14                     ; 0x2014 <f256main+0x16e6>
    7982: 85 14        	sta	$14                     ; 0x2014 <f256main+0x16e6>
    7984: a9 88        	lda	#$88
    7986: 65 15        	adc	$15                     ; 0x2015 <f256main+0x16e7>
    7988: a6 14        	ldx	$14                     ; 0x2014 <f256main+0x16e6>
    798a: 86 d3        	stx	$d3                     ; 0x20d3 <f256main+0x17a5>
    798c: 85 17        	sta	$17                     ; 0x2017 <f256main+0x16e9>
    798e: a6 18        	ldx	$18                     ; 0x2018 <f256main+0x16ea>
    7990: 86 1c        	stx	$1c                     ; 0x201c <f256main+0x16ee>
    7992: a6 18        	ldx	$18                     ; 0x2018 <f256main+0x16ea>
    7994: 86 14        	stx	$14                     ; 0x2014 <f256main+0x16e6>
    7996: a6 1d        	ldx	$1d                     ; 0x201d <f256main+0x16ef>
    7998: 86 15        	stx	$15                     ; 0x2015 <f256main+0x16e7>
    799a: a0 01        	ldy	#$1
    799c: a6 d2        	ldx	$d2                     ; 0x20d2 <f256main+0x17a4>
    799e: 86 18        	stx	$18                     ; 0x2018 <f256main+0x16ea>
    79a0: b1 14        	lda	($14),y                 ; 0x2014 <f256main+0x16e6>
    79a2: 85 19        	sta	$19                     ; 0x2019 <f256main+0x16eb>
    79a4: aa           	tax
    79a5: a9 fe        	lda	#$fe
    79a7: 32 14        	and	($14)                   ; 0x2014 <f256main+0x16e6>
    79a9: 85 1a        	sta	$1a                     ; 0x201a <f256main+0x16ec>
    79ab: e4 18        	cpx	$18                     ; 0x2018 <f256main+0x16ea>
    79ad: d0 0a        	bne	$79b9 <malloc+0xea>
    79af: a6 d1        	ldx	$d1                     ; 0x20d1 <f256main+0x17a3>
    79b1: 86 1b        	stx	$1b                     ; 0x201b <f256main+0x16ed>
    79b3: c5 1b        	cmp	$1b                     ; 0x201b <f256main+0x16ed>
    79b5: b0 29        	bcs	$79e0 <malloc+0x111>
    79b7: 80 04        	bra	$79bd <malloc+0xee>
    79b9: e4 18        	cpx	$18                     ; 0x2018 <f256main+0x16ea>
    79bb: b0 23        	bcs	$79e0 <malloc+0x111>
    79bd: a5 14        	lda	$14                     ; 0x2014 <f256main+0x16e6>
    79bf: 18           	clc
    79c0: 69 02        	adc	#$2
    79c2: 85 1a        	sta	$1a                     ; 0x201a <f256main+0x16ec>
    79c4: a5 15        	lda	$15                     ; 0x2015 <f256main+0x16e7>
    79c6: 69 00        	adc	#$0
    79c8: 85 1b        	sta	$1b                     ; 0x201b <f256main+0x16ed>
    79ca: a0 02        	ldy	#$2
    79cc: b1 14        	lda	($14),y                 ; 0x2014 <f256main+0x16e6>
    79ce: 85 14        	sta	$14                     ; 0x2014 <f256main+0x16e6>
    79d0: 88           	dey
    79d1: b1 1a        	lda	($1a),y                 ; 0x201a <f256main+0x16ec>
    79d3: 85 15        	sta	$15                     ; 0x2015 <f256main+0x16e7>
    79d5: c5 1d        	cmp	$1d                     ; 0x201d <f256main+0x16ef>
    79d7: d0 c7        	bne	$79a0 <malloc+0xd1>
    79d9: a5 14        	lda	$14                     ; 0x2014 <f256main+0x16e6>
    79db: c5 1c        	cmp	$1c                     ; 0x201c <f256main+0x16ee>
    79dd: d0 c1        	bne	$79a0 <malloc+0xd1>
    79df: 60           	rts
    79e0: ad f5 87     	lda	$87f5                   ; 0x87f5 <_ZN12_GLOBAL__N_19free_sizeE>
    79e3: ae f6 87     	ldx	$87f6                   ; 0x87f6 <_ZN12_GLOBAL__N_19free_sizeE+0x1>
    79e6: 86 12        	stx	$12                     ; 0x2012 <f256main+0x16e4>
    79e8: 38           	sec
    79e9: e5 1a        	sbc	$1a                     ; 0x201a <f256main+0x16ec>
    79eb: aa           	tax
    79ec: a5 12        	lda	$12                     ; 0x2012 <f256main+0x16e4>
    79ee: e5 19        	sbc	$19                     ; 0x2019 <f256main+0x16eb>
    79f0: 85 12        	sta	$12                     ; 0x2012 <f256main+0x16e4>
    79f2: 18           	clc
    79f3: 8a           	txa
    79f4: 69 02        	adc	#$2
    79f6: 85 13        	sta	$13                     ; 0x2013 <f256main+0x16e5>
    79f8: a5 12        	lda	$12                     ; 0x2012 <f256main+0x16e4>
    79fa: 69 00        	adc	#$0
    79fc: a6 13        	ldx	$13                     ; 0x2013 <f256main+0x16e5>
    79fe: 8e f5 87     	stx	$87f5                   ; 0x87f5 <_ZN12_GLOBAL__N_19free_sizeE>
    7a01: 8d f6 87     	sta	$87f6                   ; 0x87f6 <_ZN12_GLOBAL__N_19free_sizeE+0x1>
    7a04: a0 02        	ldy	#$2
    7a06: a5 14        	lda	$14                     ; 0x2014 <f256main+0x16e6>
    7a08: 18           	clc
    7a09: 69 02        	adc	#$2
    7a0b: 85 12        	sta	$12                     ; 0x2012 <f256main+0x16e4>
    7a0d: a5 15        	lda	$15                     ; 0x2015 <f256main+0x16e7>
    7a0f: 69 00        	adc	#$0
    7a11: 85 13        	sta	$13                     ; 0x2013 <f256main+0x16e5>
    7a13: b1 14        	lda	($14),y                 ; 0x2014 <f256main+0x16e6>
    7a15: 85 1e        	sta	$1e                     ; 0x201e <f256main+0x16f0>
    7a17: 88           	dey
    7a18: b1 12        	lda	($12),y                 ; 0x2012 <f256main+0x16e4>
    7a1a: 85 1f        	sta	$1f                     ; 0x201f <f256main+0x16f1>
    7a1c: c5 15        	cmp	$15                     ; 0x2015 <f256main+0x16e7>
    7a1e: d0 15        	bne	$7a35 <malloc+0x166>
    7a20: a5 d2        	lda	$d2                     ; 0x20d2 <f256main+0x17a4>
    7a22: a6 1e        	ldx	$1e                     ; 0x201e <f256main+0x16f0>
    7a24: e4 14        	cpx	$14                     ; 0x2014 <f256main+0x16e6>
    7a26: d0 0d        	bne	$7a35 <malloc+0x166>
    7a28: 85 1a        	sta	$1a                     ; 0x201a <f256main+0x16ec>
    7a2a: a2 00        	ldx	#$0
    7a2c: 86 18        	stx	$18                     ; 0x2018 <f256main+0x16ea>
    7a2e: a2 00        	ldx	#$0
    7a30: 86 19        	stx	$19                     ; 0x2019 <f256main+0x16eb>
    7a32: 4c af 7a     	jmp	$7aaf <malloc+0x1e0>
    7a35: 18           	clc
    7a36: a5 14        	lda	$14                     ; 0x2014 <f256main+0x16e6>
    7a38: 69 04        	adc	#$4
    7a3a: 85 18        	sta	$18                     ; 0x2018 <f256main+0x16ea>
    7a3c: a5 15        	lda	$15                     ; 0x2015 <f256main+0x16e7>
    7a3e: 69 00        	adc	#$0
    7a40: 85 19        	sta	$19                     ; 0x2019 <f256main+0x16eb>
    7a42: a0 04        	ldy	#$4
    7a44: b1 14        	lda	($14),y                 ; 0x2014 <f256main+0x16e6>
    7a46: 85 23        	sta	$23                     ; 0x2023 <f256main+0x16f5>
    7a48: 18           	clc
    7a49: 69 02        	adc	#$2
    7a4b: 85 1a        	sta	$1a                     ; 0x201a <f256main+0x16ec>
    7a4d: a0 01        	ldy	#$1
    7a4f: b1 18        	lda	($18),y                 ; 0x2018 <f256main+0x16ea>
    7a51: 85 22        	sta	$22                     ; 0x2022 <f256main+0x16f4>
    7a53: 69 00        	adc	#$0
    7a55: a6 1a        	ldx	$1a                     ; 0x201a <f256main+0x16ec>
    7a57: 86 18        	stx	$18                     ; 0x2018 <f256main+0x16ea>
    7a59: 85 19        	sta	$19                     ; 0x2019 <f256main+0x16eb>
    7a5b: a6 23        	ldx	$23                     ; 0x2023 <f256main+0x16f5>
    7a5d: 86 1a        	stx	$1a                     ; 0x201a <f256main+0x16ec>
    7a5f: a6 22        	ldx	$22                     ; 0x2022 <f256main+0x16f4>
    7a61: 86 1b        	stx	$1b                     ; 0x201b <f256main+0x16ed>
    7a63: c8           	iny
    7a64: a5 1e        	lda	$1e                     ; 0x201e <f256main+0x16f0>
    7a66: 91 1a        	sta	($1a),y                 ; 0x201a <f256main+0x16ec>
    7a68: a5 1f        	lda	$1f                     ; 0x201f <f256main+0x16f1>
    7a6a: 88           	dey
    7a6b: 91 18        	sta	($18),y                 ; 0x2018 <f256main+0x16ea>
    7a6d: 18           	clc
    7a6e: a5 14        	lda	$14                     ; 0x2014 <f256main+0x16e6>
    7a70: 69 02        	adc	#$2
    7a72: 85 1a        	sta	$1a                     ; 0x201a <f256main+0x16ec>
    7a74: a5 15        	lda	$15                     ; 0x2015 <f256main+0x16e7>
    7a76: 69 00        	adc	#$0
    7a78: 85 1b        	sta	$1b                     ; 0x201b <f256main+0x16ed>
    7a7a: c8           	iny
    7a7b: b1 14        	lda	($14),y                 ; 0x2014 <f256main+0x16e6>
    7a7d: 85 18        	sta	$18                     ; 0x2018 <f256main+0x16ea>
    7a7f: aa           	tax
    7a80: 88           	dey
    7a81: b1 1a        	lda	($1a),y                 ; 0x201a <f256main+0x16ec>
    7a83: 85 19        	sta	$19                     ; 0x2019 <f256main+0x16eb>
    7a85: 85 16        	sta	$16                     ; 0x2016 <f256main+0x16e8>
    7a87: a0 04        	ldy	#$4
    7a89: a5 23        	lda	$23                     ; 0x2023 <f256main+0x16f5>
    7a8b: 91 18        	sta	($18),y                 ; 0x2018 <f256main+0x16ea>
    7a8d: 18           	clc
    7a8e: 8a           	txa
    7a8f: 69 04        	adc	#$4
    7a91: 85 1a        	sta	$1a                     ; 0x201a <f256main+0x16ec>
    7a93: a5 16        	lda	$16                     ; 0x2016 <f256main+0x16e8>
    7a95: 69 00        	adc	#$0
    7a97: 85 1b        	sta	$1b                     ; 0x201b <f256main+0x16ed>
    7a99: a5 22        	lda	$22                     ; 0x2022 <f256main+0x16f4>
    7a9b: a0 01        	ldy	#$1
    7a9d: 91 1a        	sta	($1a),y                 ; 0x201a <f256main+0x16ec>
    7a9f: a5 d2        	lda	$d2                     ; 0x20d2 <f256main+0x17a4>
    7aa1: 85 1a        	sta	$1a                     ; 0x201a <f256main+0x16ec>
    7aa3: a6 1d        	ldx	$1d                     ; 0x201d <f256main+0x16ef>
    7aa5: e4 15        	cpx	$15                     ; 0x2015 <f256main+0x16e7>
    7aa7: d0 10        	bne	$7ab9 <malloc+0x1ea>
    7aa9: a6 1c        	ldx	$1c                     ; 0x201c <f256main+0x16ee>
    7aab: e4 14        	cpx	$14                     ; 0x2014 <f256main+0x16e6>
    7aad: d0 0a        	bne	$7ab9 <malloc+0x1ea>
    7aaf: a6 18        	ldx	$18                     ; 0x2018 <f256main+0x16ea>
    7ab1: a4 19        	ldy	$19                     ; 0x2019 <f256main+0x16eb>
    7ab3: 8e f7 87     	stx	$87f7                   ; 0x87f7 <_ZN12_GLOBAL__N_19free_listE>
    7ab6: 8c f8 87     	sty	$87f8                   ; 0x87f8 <_ZN12_GLOBAL__N_19free_listE+0x1>
    7ab9: a0 01        	ldy	#$1
    7abb: b1 14        	lda	($14),y                 ; 0x2014 <f256main+0x16e6>
    7abd: 85 16        	sta	$16                     ; 0x2016 <f256main+0x16e8>
    7abf: a9 fe        	lda	#$fe
    7ac1: 32 14        	and	($14)                   ; 0x2014 <f256main+0x16e6>
    7ac3: 38           	sec
    7ac4: a6 d1        	ldx	$d1                     ; 0x20d1 <f256main+0x17a3>
    7ac6: 86 18        	stx	$18                     ; 0x2018 <f256main+0x16ea>
    7ac8: a8           	tay
    7ac9: e5 18        	sbc	$18                     ; 0x2018 <f256main+0x16ea>
    7acb: 85 19        	sta	$19                     ; 0x2019 <f256main+0x16eb>
    7acd: a5 16        	lda	$16                     ; 0x2016 <f256main+0x16e8>
    7acf: a6 16        	ldx	$16                     ; 0x2016 <f256main+0x16e8>
    7ad1: e5 1a        	sbc	$1a                     ; 0x201a <f256main+0x16ec>
    7ad3: f0 03        	beq	$7ad8 <malloc+0x209>
    7ad5: 4c 6b 7b     	jmp	$7b6b <malloc+0x29c>
    7ad8: 85 16        	sta	$16                     ; 0x2016 <f256main+0x16e8>
    7ada: a5 19        	lda	$19                     ; 0x2019 <f256main+0x16eb>
    7adc: c9 08        	cmp	#$8
    7ade: 86 18        	stx	$18                     ; 0x2018 <f256main+0x16ea>
    7ae0: b0 03        	bcs	$7ae5 <malloc+0x216>
    7ae2: 4c 4e 7b     	jmp	$7b4e <malloc+0x27f>
    7ae5: a6 17        	ldx	$17                     ; 0x2017 <f256main+0x16e9>
    7ae7: 86 d4        	stx	$d4                     ; 0x20d4 <f256main+0x17a6>
    7ae9: a6 d3        	ldx	$d3                     ; 0x20d3 <f256main+0x17a5>
    7aeb: 86 d3        	stx	$d3                     ; 0x20d3 <f256main+0x17a5>
    7aed: a6 12        	ldx	$12                     ; 0x2012 <f256main+0x16e4>
    7aef: 8e f9 87     	stx	$87f9                   ; 0x87f9 <__data_load_start+0x5d5>
    7af2: a6 13        	ldx	$13                     ; 0x2013 <f256main+0x16e5>
    7af4: 8e fa 87     	stx	$87fa                   ; 0x87fa <__data_load_start+0x5d6>
    7af7: a8           	tay
    7af8: 18           	clc
    7af9: a5 d1        	lda	$d1                     ; 0x20d1 <f256main+0x17a3>
    7afb: 85 d1        	sta	$d1                     ; 0x20d1 <f256main+0x17a3>
    7afd: 65 14        	adc	$14                     ; 0x2014 <f256main+0x16e6>
    7aff: 85 12        	sta	$12                     ; 0x2012 <f256main+0x16e4>
    7b01: a5 1a        	lda	$1a                     ; 0x201a <f256main+0x16ec>
    7b03: a6 1a        	ldx	$1a                     ; 0x201a <f256main+0x16ec>
    7b05: 86 d2        	stx	$d2                     ; 0x20d2 <f256main+0x17a4>
    7b07: 65 15        	adc	$15                     ; 0x2015 <f256main+0x16e7>
    7b09: 85 13        	sta	$13                     ; 0x2013 <f256main+0x16e5>
    7b0b: a6 16        	ldx	$16                     ; 0x2016 <f256main+0x16e8>
    7b0d: 98           	tya
    7b0e: a4 14        	ldy	$14                     ; 0x2014 <f256main+0x16e6>
    7b10: 8c fb 87     	sty	$87fb                   ; 0x87fb <__data_load_start+0x5d7>
    7b13: a4 15        	ldy	$15                     ; 0x2015 <f256main+0x16e7>
    7b15: 8c fc 87     	sty	$87fc                   ; 0x87fc <__data_load_start+0x5d8>
    7b18: 20 7c 03     	jsr	$37c <_ZN12_GLOBAL__N_19FreeChunk6insertEPvj>
    7b1b: ae fb 87     	ldx	$87fb                   ; 0x87fb <__data_load_start+0x5d7>
    7b1e: 86 14        	stx	$14                     ; 0x2014 <f256main+0x16e6>
    7b20: ae fc 87     	ldx	$87fc                   ; 0x87fc <__data_load_start+0x5d8>
    7b23: 86 15        	stx	$15                     ; 0x2015 <f256main+0x16e7>
    7b25: a5 d1        	lda	$d1                     ; 0x20d1 <f256main+0x17a3>
    7b27: 29 fe        	and	#$fe
    7b29: 85 12        	sta	$12                     ; 0x2012 <f256main+0x16e4>
    7b2b: a0 01        	ldy	#$1
    7b2d: 98           	tya
    7b2e: 32 14        	and	($14)                   ; 0x2014 <f256main+0x16e6>
    7b30: 05 12        	ora	$12                     ; 0x2012 <f256main+0x16e4>
    7b32: 92 14        	sta	($14)                   ; 0x2014 <f256main+0x16e6>
    7b34: a5 d2        	lda	$d2                     ; 0x20d2 <f256main+0x17a4>
    7b36: 91 14        	sta	($14),y                 ; 0x2014 <f256main+0x16e6>
    7b38: a4 12        	ldy	$12                     ; 0x2012 <f256main+0x16e4>
    7b3a: 85 18        	sta	$18                     ; 0x2018 <f256main+0x16ea>
    7b3c: ae f9 87     	ldx	$87f9                   ; 0x87f9 <__data_load_start+0x5d5>
    7b3f: 86 12        	stx	$12                     ; 0x2012 <f256main+0x16e4>
    7b41: ae fa 87     	ldx	$87fa                   ; 0x87fa <__data_load_start+0x5d6>
    7b44: 86 13        	stx	$13                     ; 0x2013 <f256main+0x16e5>
    7b46: a6 d3        	ldx	$d3                     ; 0x20d3 <f256main+0x17a5>
    7b48: 86 d3        	stx	$d3                     ; 0x20d3 <f256main+0x17a5>
    7b4a: a6 d4        	ldx	$d4                     ; 0x20d4 <f256main+0x17a6>
    7b4c: 86 17        	stx	$17                     ; 0x2017 <f256main+0x16e9>
    7b4e: 18           	clc
    7b4f: 98           	tya
    7b50: 65 14        	adc	$14                     ; 0x2014 <f256main+0x16e6>
    7b52: 85 16        	sta	$16                     ; 0x2016 <f256main+0x16e8>
    7b54: a5 15        	lda	$15                     ; 0x2015 <f256main+0x16e7>
    7b56: 65 18        	adc	$18                     ; 0x2018 <f256main+0x16ea>
    7b58: 85 15        	sta	$15                     ; 0x2015 <f256main+0x16e7>
    7b5a: c5 17        	cmp	$17                     ; 0x2017 <f256main+0x16e9>
    7b5c: d0 1a        	bne	$7b78 <malloc+0x2a9>
    7b5e: a6 d3        	ldx	$d3                     ; 0x20d3 <f256main+0x17a5>
    7b60: 86 14        	stx	$14                     ; 0x2014 <f256main+0x16e6>
    7b62: a6 16        	ldx	$16                     ; 0x2016 <f256main+0x16e8>
    7b64: e4 14        	cpx	$14                     ; 0x2014 <f256main+0x16e6>
    7b66: d0 12        	bne	$7b7a <malloc+0x2ab>
    7b68: 4c df 79     	jmp	$79df <malloc+0x110>
    7b6b: 85 16        	sta	$16                     ; 0x2016 <f256main+0x16e8>
    7b6d: c9 00        	cmp	#$0
    7b6f: 86 18        	stx	$18                     ; 0x2018 <f256main+0x16ea>
    7b71: a5 19        	lda	$19                     ; 0x2019 <f256main+0x16eb>
    7b73: 90 d9        	bcc	$7b4e <malloc+0x27f>
    7b75: 4c e5 7a     	jmp	$7ae5 <malloc+0x216>
    7b78: a6 16        	ldx	$16                     ; 0x2016 <f256main+0x16e8>
    7b7a: 86 14        	stx	$14                     ; 0x2014 <f256main+0x16e6>
    7b7c: a0 01        	ldy	#$1
    7b7e: b1 14        	lda	($14),y                 ; 0x2014 <f256main+0x16e6>
    7b80: 85 16        	sta	$16                     ; 0x2016 <f256main+0x16e8>
    7b82: a9 fe        	lda	#$fe
    7b84: 32 14        	and	($14)                   ; 0x2014 <f256main+0x16e6>
    7b86: 92 14        	sta	($14)                   ; 0x2014 <f256main+0x16e6>
    7b88: a5 16        	lda	$16                     ; 0x2016 <f256main+0x16e8>
    7b8a: 91 14        	sta	($14),y                 ; 0x2014 <f256main+0x16e6>
    7b8c: 60           	rts

00007b8d <memcpy>:
    7b8d: a8           	tay
    7b8e: 8a           	txa
    7b8f: d0 03        	bne	$7b94 <memcpy+0x7>
    7b91: 98           	tya
    7b92: f0 24        	beq	$7bb8 <memcpy+0x2b>
    7b94: a5 12        	lda	$12                     ; 0x2012 <f256main+0x16e4>
    7b96: 85 16        	sta	$16                     ; 0x2016 <f256main+0x16e8>
    7b98: a5 13        	lda	$13                     ; 0x2013 <f256main+0x16e5>
    7b9a: 85 17        	sta	$17                     ; 0x2017 <f256main+0x16e9>
    7b9c: b2 14        	lda	($14)                   ; 0x2014 <f256main+0x16e6>
    7b9e: 92 16        	sta	($16)                   ; 0x2016 <f256main+0x16e8>
    7ba0: e6 16        	inc	$16                     ; 0x2016 <f256main+0x16e8>
    7ba2: d0 02        	bne	$7ba6 <memcpy+0x19>
    7ba4: e6 17        	inc	$17                     ; 0x2017 <f256main+0x16e9>
    7ba6: e6 14        	inc	$14                     ; 0x2014 <f256main+0x16e6>
    7ba8: d0 02        	bne	$7bac <memcpy+0x1f>
    7baa: e6 15        	inc	$15                     ; 0x2015 <f256main+0x16e7>
    7bac: 88           	dey
    7bad: c0 ff        	cpy	#$ff
    7baf: d0 01        	bne	$7bb2 <memcpy+0x25>
    7bb1: ca           	dex
    7bb2: 8a           	txa
    7bb3: d0 e7        	bne	$7b9c <memcpy+0xf>
    7bb5: 98           	tya
    7bb6: d0 e4        	bne	$7b9c <memcpy+0xf>
    7bb8: 60           	rts

00007bb9 <__memset>:
    7bb9: a4 14        	ldy	$14                     ; 0x2014 <f256main+0x16e6>
    7bbb: d0 04        	bne	$7bc1 <__memset+0x8>
    7bbd: e0 00        	cpx	#$0
    7bbf: f0 17        	beq	$7bd8 <__memset+0x1f>
    7bc1: 92 12        	sta	($12)                   ; 0x2012 <f256main+0x16e4>
    7bc3: e6 12        	inc	$12                     ; 0x2012 <f256main+0x16e4>
    7bc5: d0 02        	bne	$7bc9 <__memset+0x10>
    7bc7: e6 13        	inc	$13                     ; 0x2013 <f256main+0x16e5>
    7bc9: ca           	dex
    7bca: e0 ff        	cpx	#$ff
    7bcc: d0 02        	bne	$7bd0 <__memset+0x17>
    7bce: c6 14        	dec	$14                     ; 0x2014 <f256main+0x16e6>
    7bd0: a4 14        	ldy	$14                     ; 0x2014 <f256main+0x16e6>
    7bd2: d0 ed        	bne	$7bc1 <__memset+0x8>
    7bd4: e0 00        	cpx	#$0
    7bd6: d0 e9        	bne	$7bc1 <__memset+0x8>
    7bd8: 60           	rts

00007bd9 <__ashlhi3>:
    7bd9: 86 13        	stx	$13                     ; 0x2013 <f256main+0x16e5>
    7bdb: a6 12        	ldx	$12                     ; 0x2012 <f256main+0x16e4>
    7bdd: f0 0a        	beq	$7be9 <__ashlhi3+0x10>
    7bdf: a6 12        	ldx	$12                     ; 0x2012 <f256main+0x16e4>
    7be1: ca           	dex
    7be2: 0a           	asl
    7be3: 26 13        	rol	$13                     ; 0x2013 <f256main+0x16e5>
    7be5: e0 00        	cpx	#$0
    7be7: d0 f8        	bne	$7be1 <__ashlhi3+0x8>
    7be9: a6 13        	ldx	$13                     ; 0x2013 <f256main+0x16e5>
    7beb: 60           	rts

00007bec <__lshrhi3>:
    7bec: 86 13        	stx	$13                     ; 0x2013 <f256main+0x16e5>
    7bee: a6 12        	ldx	$12                     ; 0x2012 <f256main+0x16e4>
    7bf0: f0 0a        	beq	$7bfc <__lshrhi3+0x10>
    7bf2: a6 12        	ldx	$12                     ; 0x2012 <f256main+0x16e4>
    7bf4: ca           	dex
    7bf5: 46 13        	lsr	$13                     ; 0x2013 <f256main+0x16e5>
    7bf7: 6a           	ror
    7bf8: e0 00        	cpx	#$0
    7bfa: d0 f8        	bne	$7bf4 <__lshrhi3+0x8>
    7bfc: a6 13        	ldx	$13                     ; 0x2013 <f256main+0x16e5>
    7bfe: 60           	rts

00007bff <__mulhi3>:
    7bff: a4 13        	ldy	$13                     ; 0x2013 <f256main+0x16e5>
    7c01: d0 04        	bne	$7c07 <__mulhi3+0x8>
    7c03: a4 12        	ldy	$12                     ; 0x2012 <f256main+0x16e4>
    7c05: f0 25        	beq	$7c2c <__mulhi3+0x2d>
    7c07: 85 14        	sta	$14                     ; 0x2014 <f256main+0x16e6>
    7c09: 86 15        	stx	$15                     ; 0x2015 <f256main+0x16e7>
    7c0b: a0 00        	ldy	#$0
    7c0d: 98           	tya
    7c0e: 46 13        	lsr	$13                     ; 0x2013 <f256main+0x16e5>
    7c10: 66 12        	ror	$12                     ; 0x2012 <f256main+0x16e4>
    7c12: 90 09        	bcc	$7c1d <__mulhi3+0x1e>
    7c14: aa           	tax
    7c15: 98           	tya
    7c16: 18           	clc
    7c17: 65 14        	adc	$14                     ; 0x2014 <f256main+0x16e6>
    7c19: a8           	tay
    7c1a: 8a           	txa
    7c1b: 65 15        	adc	$15                     ; 0x2015 <f256main+0x16e7>
    7c1d: 06 14        	asl	$14                     ; 0x2014 <f256main+0x16e6>
    7c1f: 26 15        	rol	$15                     ; 0x2015 <f256main+0x16e7>
    7c21: a6 13        	ldx	$13                     ; 0x2013 <f256main+0x16e5>
    7c23: d0 e9        	bne	$7c0e <__mulhi3+0xf>
    7c25: a6 12        	ldx	$12                     ; 0x2012 <f256main+0x16e4>
    7c27: d0 e5        	bne	$7c0e <__mulhi3+0xf>
    7c29: aa           	tax
    7c2a: 98           	tya
    7c2b: 60           	rts
    7c2c: a0 00        	ldy	#$0
    7c2e: 98           	tya
    7c2f: 80 f8        	bra	$7c29 <__mulhi3+0x2a>

00007c31 <__mulsi3>:
    7c31: a4 17        	ldy	$17                     ; 0x2017 <f256main+0x16e9>
    7c33: d0 0f        	bne	$7c44 <__mulsi3+0x13>
    7c35: a4 16        	ldy	$16                     ; 0x2016 <f256main+0x16e8>
    7c37: d0 0b        	bne	$7c44 <__mulsi3+0x13>
    7c39: a4 15        	ldy	$15                     ; 0x2015 <f256main+0x16e7>
    7c3b: d0 07        	bne	$7c44 <__mulsi3+0x13>
    7c3d: a4 14        	ldy	$14                     ; 0x2014 <f256main+0x16e6>
    7c3f: d0 03        	bne	$7c44 <__mulsi3+0x13>
    7c41: 4c 98 7c     	jmp	$7c98 <__mulsi3+0x67>
    7c44: 85 18        	sta	$18                     ; 0x2018 <f256main+0x16ea>
    7c46: 86 19        	stx	$19                     ; 0x2019 <f256main+0x16eb>
    7c48: a0 00        	ldy	#$0
    7c4a: a2 00        	ldx	#$0
    7c4c: 64 1a        	stz	$1a                     ; 0x201a <f256main+0x16ec>
    7c4e: 98           	tya
    7c4f: 46 17        	lsr	$17                     ; 0x2017 <f256main+0x16e9>
    7c51: 66 16        	ror	$16                     ; 0x2016 <f256main+0x16e8>
    7c53: 66 15        	ror	$15                     ; 0x2015 <f256main+0x16e7>
    7c55: 66 14        	ror	$14                     ; 0x2014 <f256main+0x16e6>
    7c57: 90 15        	bcc	$7c6e <__mulsi3+0x3d>
    7c59: 85 1b        	sta	$1b                     ; 0x201b <f256main+0x16ed>
    7c5b: 98           	tya
    7c5c: 18           	clc
    7c5d: 65 18        	adc	$18                     ; 0x2018 <f256main+0x16ea>
    7c5f: a8           	tay
    7c60: 8a           	txa
    7c61: 65 19        	adc	$19                     ; 0x2019 <f256main+0x16eb>
    7c63: aa           	tax
    7c64: a5 1a        	lda	$1a                     ; 0x201a <f256main+0x16ec>
    7c66: 65 12        	adc	$12                     ; 0x2012 <f256main+0x16e4>
    7c68: 85 1a        	sta	$1a                     ; 0x201a <f256main+0x16ec>
    7c6a: a5 1b        	lda	$1b                     ; 0x201b <f256main+0x16ed>
    7c6c: 65 13        	adc	$13                     ; 0x2013 <f256main+0x16e5>
    7c6e: 06 18        	asl	$18                     ; 0x2018 <f256main+0x16ea>
    7c70: 26 19        	rol	$19                     ; 0x2019 <f256main+0x16eb>
    7c72: 26 12        	rol	$12                     ; 0x2012 <f256main+0x16e4>
    7c74: 26 13        	rol	$13                     ; 0x2013 <f256main+0x16e5>
    7c76: e6 17        	inc	$17                     ; 0x2017 <f256main+0x16e9>
    7c78: c6 17        	dec	$17                     ; 0x2017 <f256main+0x16e9>
    7c7a: d0 d3        	bne	$7c4f <__mulsi3+0x1e>
    7c7c: e6 16        	inc	$16                     ; 0x2016 <f256main+0x16e8>
    7c7e: c6 16        	dec	$16                     ; 0x2016 <f256main+0x16e8>
    7c80: d0 cd        	bne	$7c4f <__mulsi3+0x1e>
    7c82: e6 15        	inc	$15                     ; 0x2015 <f256main+0x16e7>
    7c84: c6 15        	dec	$15                     ; 0x2015 <f256main+0x16e7>
    7c86: d0 c7        	bne	$7c4f <__mulsi3+0x1e>
    7c88: e6 14        	inc	$14                     ; 0x2014 <f256main+0x16e6>
    7c8a: c6 14        	dec	$14                     ; 0x2014 <f256main+0x16e6>
    7c8c: d0 c1        	bne	$7c4f <__mulsi3+0x1e>
    7c8e: 5a           	phy
    7c8f: a4 1a        	ldy	$1a                     ; 0x201a <f256main+0x16ec>
    7c91: 84 12        	sty	$12                     ; 0x2012 <f256main+0x16e4>
    7c93: 7a           	ply
    7c94: 85 13        	sta	$13                     ; 0x2013 <f256main+0x16e5>
    7c96: 98           	tya
    7c97: 60           	rts
    7c98: a0 00        	ldy	#$0
    7c9a: a2 00        	ldx	#$0
    7c9c: 64 1a        	stz	$1a                     ; 0x201a <f256main+0x16ec>
    7c9e: 98           	tya
    7c9f: 80 ed        	bra	$7c8e <__mulsi3+0x5d>

00007ca1 <__udivhi3>:
    7ca1: 64 14        	stz	$14                     ; 0x2014 <f256main+0x16e6>
    7ca3: a4 13        	ldy	$13                     ; 0x2013 <f256main+0x16e5>
    7ca5: d0 04        	bne	$7cab <__udivhi3+0xa>
    7ca7: a4 12        	ldy	$12                     ; 0x2012 <f256main+0x16e4>
    7ca9: f0 0e        	beq	$7cb9 <__udivhi3+0x18>
    7cab: 85 17        	sta	$17                     ; 0x2017 <f256main+0x16e9>
    7cad: 8a           	txa
    7cae: e4 13        	cpx	$13                     ; 0x2013 <f256main+0x16e5>
    7cb0: d0 0e        	bne	$7cc0 <__udivhi3+0x1f>
    7cb2: a5 17        	lda	$17                     ; 0x2017 <f256main+0x16e9>
    7cb4: c5 12        	cmp	$12                     ; 0x2012 <f256main+0x16e4>
    7cb6: 8a           	txa
    7cb7: b0 0b        	bcs	$7cc4 <__udivhi3+0x23>
    7cb9: a2 00        	ldx	#$0
    7cbb: 86 d1        	stx	$d1                     ; 0x20d1 <f256main+0x17a3>
    7cbd: 4c 5c 7d     	jmp	$7d5c <__udivhi3+0xbb>
    7cc0: c5 13        	cmp	$13                     ; 0x2013 <f256main+0x16e5>
    7cc2: 90 f5        	bcc	$7cb9 <__udivhi3+0x18>
    7cc4: a2 01        	ldx	#$1
    7cc6: 86 d1        	stx	$d1                     ; 0x20d1 <f256main+0x17a3>
    7cc8: a6 13        	ldx	$13                     ; 0x2013 <f256main+0x16e5>
    7cca: 10 03        	bpl	$7ccf <__udivhi3+0x2e>
    7ccc: 4c 5c 7d     	jmp	$7d5c <__udivhi3+0xbb>
    7ccf: a2 00        	ldx	#$0
    7cd1: a4 12        	ldy	$12                     ; 0x2012 <f256main+0x16e4>
    7cd3: 84 15        	sty	$15                     ; 0x2015 <f256main+0x16e7>
    7cd5: a4 13        	ldy	$13                     ; 0x2013 <f256main+0x16e5>
    7cd7: 84 16        	sty	$16                     ; 0x2016 <f256main+0x16e8>
    7cd9: 06 15        	asl	$15                     ; 0x2015 <f256main+0x16e7>
    7cdb: 26 16        	rol	$16                     ; 0x2016 <f256main+0x16e8>
    7cdd: c5 16        	cmp	$16                     ; 0x2016 <f256main+0x16e8>
    7cdf: d0 08        	bne	$7ce9 <__udivhi3+0x48>
    7ce1: a4 17        	ldy	$17                     ; 0x2017 <f256main+0x16e9>
    7ce3: c4 15        	cpy	$15                     ; 0x2015 <f256main+0x16e7>
    7ce5: 90 13        	bcc	$7cfa <__udivhi3+0x59>
    7ce7: 80 04        	bra	$7ced <__udivhi3+0x4c>
    7ce9: c5 16        	cmp	$16                     ; 0x2016 <f256main+0x16e8>
    7ceb: 90 0d        	bcc	$7cfa <__udivhi3+0x59>
    7ced: e8           	inx
    7cee: a4 15        	ldy	$15                     ; 0x2015 <f256main+0x16e7>
    7cf0: 84 12        	sty	$12                     ; 0x2012 <f256main+0x16e4>
    7cf2: a4 16        	ldy	$16                     ; 0x2016 <f256main+0x16e8>
    7cf4: 84 13        	sty	$13                     ; 0x2013 <f256main+0x16e5>
    7cf6: 10 e1        	bpl	$7cd9 <__udivhi3+0x38>
    7cf8: 80 08        	bra	$7d02 <__udivhi3+0x61>
    7cfa: a4 12        	ldy	$12                     ; 0x2012 <f256main+0x16e4>
    7cfc: 84 15        	sty	$15                     ; 0x2015 <f256main+0x16e7>
    7cfe: a4 13        	ldy	$13                     ; 0x2013 <f256main+0x16e5>
    7d00: 84 16        	sty	$16                     ; 0x2016 <f256main+0x16e8>
    7d02: e0 00        	cpx	#$0
    7d04: d0 03        	bne	$7d09 <__udivhi3+0x68>
    7d06: 4c 5c 7d     	jmp	$7d5c <__udivhi3+0xbb>
    7d09: 38           	sec
    7d0a: a8           	tay
    7d0b: a5 17        	lda	$17                     ; 0x2017 <f256main+0x16e9>
    7d0d: e5 15        	sbc	$15                     ; 0x2015 <f256main+0x16e7>
    7d0f: 85 12        	sta	$12                     ; 0x2012 <f256main+0x16e4>
    7d11: 98           	tya
    7d12: e5 16        	sbc	$16                     ; 0x2016 <f256main+0x16e8>
    7d14: a0 01        	ldy	#$1
    7d16: 84 d1        	sty	$d1                     ; 0x20d1 <f256main+0x17a3>
    7d18: 64 14        	stz	$14                     ; 0x2014 <f256main+0x16e6>
    7d1a: 46 16        	lsr	$16                     ; 0x2016 <f256main+0x16e8>
    7d1c: 66 15        	ror	$15                     ; 0x2015 <f256main+0x16e7>
    7d1e: a4 d1        	ldy	$d1                     ; 0x20d1 <f256main+0x17a3>
    7d20: 84 13        	sty	$13                     ; 0x2013 <f256main+0x16e5>
    7d22: 06 13        	asl	$13                     ; 0x2013 <f256main+0x16e5>
    7d24: a0 01        	ldy	#$1
    7d26: b0 02        	bcs	$7d2a <__udivhi3+0x89>
    7d28: a0 00        	ldy	#$0
    7d2a: 84 17        	sty	$17                     ; 0x2017 <f256main+0x16e9>
    7d2c: a4 13        	ldy	$13                     ; 0x2013 <f256main+0x16e5>
    7d2e: 84 d1        	sty	$d1                     ; 0x20d1 <f256main+0x17a3>
    7d30: c5 16        	cmp	$16                     ; 0x2016 <f256main+0x16e8>
    7d32: d0 22        	bne	$7d56 <__udivhi3+0xb5>
    7d34: a4 12        	ldy	$12                     ; 0x2012 <f256main+0x16e4>
    7d36: c4 15        	cpy	$15                     ; 0x2015 <f256main+0x16e7>
    7d38: 90 11        	bcc	$7d4b <__udivhi3+0xaa>
    7d3a: a8           	tay
    7d3b: a5 d1        	lda	$d1                     ; 0x20d1 <f256main+0x17a3>
    7d3d: 09 01        	ora	#$1
    7d3f: 85 d1        	sta	$d1                     ; 0x20d1 <f256main+0x17a3>
    7d41: 38           	sec
    7d42: a5 12        	lda	$12                     ; 0x2012 <f256main+0x16e4>
    7d44: e5 15        	sbc	$15                     ; 0x2015 <f256main+0x16e7>
    7d46: 85 12        	sta	$12                     ; 0x2012 <f256main+0x16e4>
    7d48: 98           	tya
    7d49: e5 16        	sbc	$16                     ; 0x2016 <f256main+0x16e8>
    7d4b: a4 17        	ldy	$17                     ; 0x2017 <f256main+0x16e9>
    7d4d: c0 01        	cpy	#$1
    7d4f: 26 14        	rol	$14                     ; 0x2014 <f256main+0x16e6>
    7d51: ca           	dex
    7d52: d0 c6        	bne	$7d1a <__udivhi3+0x79>
    7d54: 80 06        	bra	$7d5c <__udivhi3+0xbb>
    7d56: c5 16        	cmp	$16                     ; 0x2016 <f256main+0x16e8>
    7d58: b0 e0        	bcs	$7d3a <__udivhi3+0x99>
    7d5a: 80 ef        	bra	$7d4b <__udivhi3+0xaa>
    7d5c: a6 14        	ldx	$14                     ; 0x2014 <f256main+0x16e6>
    7d5e: a5 d1        	lda	$d1                     ; 0x20d1 <f256main+0x17a3>
    7d60: 60           	rts

00007d61 <__umodhi3>:
    7d61: a8           	tay
    7d62: 8a           	txa
    7d63: e6 13        	inc	$13                     ; 0x2013 <f256main+0x16e5>
    7d65: c6 13        	dec	$13                     ; 0x2013 <f256main+0x16e5>
    7d67: d0 09        	bne	$7d72 <__umodhi3+0x11>
    7d69: e6 12        	inc	$12                     ; 0x2012 <f256main+0x16e4>
    7d6b: c6 12        	dec	$12                     ; 0x2012 <f256main+0x16e4>
    7d6d: d0 03        	bne	$7d72 <__umodhi3+0x11>
    7d6f: 4c 03 7e     	jmp	$7e03 <__umodhi3+0xa2>
    7d72: c5 13        	cmp	$13                     ; 0x2013 <f256main+0x16e5>
    7d74: d0 07        	bne	$7d7d <__umodhi3+0x1c>
    7d76: c4 12        	cpy	$12                     ; 0x2012 <f256main+0x16e4>
    7d78: b0 0a        	bcs	$7d84 <__umodhi3+0x23>
    7d7a: 4c 03 7e     	jmp	$7e03 <__umodhi3+0xa2>
    7d7d: c5 13        	cmp	$13                     ; 0x2013 <f256main+0x16e5>
    7d7f: b0 03        	bcs	$7d84 <__umodhi3+0x23>
    7d81: 4c 03 7e     	jmp	$7e03 <__umodhi3+0xa2>
    7d84: 86 16        	stx	$16                     ; 0x2016 <f256main+0x16e8>
    7d86: e6 13        	inc	$13                     ; 0x2013 <f256main+0x16e5>
    7d88: c6 13        	dec	$13                     ; 0x2013 <f256main+0x16e5>
    7d8a: 10 03        	bpl	$7d8f <__umodhi3+0x2e>
    7d8c: 4c fb 7d     	jmp	$7dfb <__umodhi3+0x9a>
    7d8f: a2 00        	ldx	#$0
    7d91: 5a           	phy
    7d92: a4 12        	ldy	$12                     ; 0x2012 <f256main+0x16e4>
    7d94: 84 14        	sty	$14                     ; 0x2014 <f256main+0x16e6>
    7d96: a4 13        	ldy	$13                     ; 0x2013 <f256main+0x16e5>
    7d98: 84 15        	sty	$15                     ; 0x2015 <f256main+0x16e7>
    7d9a: 7a           	ply
    7d9b: 06 14        	asl	$14                     ; 0x2014 <f256main+0x16e6>
    7d9d: 26 15        	rol	$15                     ; 0x2015 <f256main+0x16e7>
    7d9f: c5 15        	cmp	$15                     ; 0x2015 <f256main+0x16e7>
    7da1: d0 08        	bne	$7dab <__umodhi3+0x4a>
    7da3: c4 14        	cpy	$14                     ; 0x2014 <f256main+0x16e6>
    7da5: a5 16        	lda	$16                     ; 0x2016 <f256main+0x16e8>
    7da7: 90 19        	bcc	$7dc2 <__umodhi3+0x61>
    7da9: 80 04        	bra	$7daf <__umodhi3+0x4e>
    7dab: c5 15        	cmp	$15                     ; 0x2015 <f256main+0x16e7>
    7dad: 90 13        	bcc	$7dc2 <__umodhi3+0x61>
    7daf: e8           	inx
    7db0: 5a           	phy
    7db1: a4 14        	ldy	$14                     ; 0x2014 <f256main+0x16e6>
    7db3: 84 12        	sty	$12                     ; 0x2012 <f256main+0x16e4>
    7db5: a4 15        	ldy	$15                     ; 0x2015 <f256main+0x16e7>
    7db7: 84 13        	sty	$13                     ; 0x2013 <f256main+0x16e5>
    7db9: 7a           	ply
    7dba: e6 15        	inc	$15                     ; 0x2015 <f256main+0x16e7>
    7dbc: c6 15        	dec	$15                     ; 0x2015 <f256main+0x16e7>
    7dbe: 10 db        	bpl	$7d9b <__umodhi3+0x3a>
    7dc0: 80 08        	bra	$7dca <__umodhi3+0x69>
    7dc2: a5 12        	lda	$12                     ; 0x2012 <f256main+0x16e4>
    7dc4: 85 14        	sta	$14                     ; 0x2014 <f256main+0x16e6>
    7dc6: a5 13        	lda	$13                     ; 0x2013 <f256main+0x16e5>
    7dc8: 85 15        	sta	$15                     ; 0x2015 <f256main+0x16e7>
    7dca: 38           	sec
    7dcb: 98           	tya
    7dcc: e5 14        	sbc	$14                     ; 0x2014 <f256main+0x16e6>
    7dce: a8           	tay
    7dcf: a5 16        	lda	$16                     ; 0x2016 <f256main+0x16e8>
    7dd1: e5 15        	sbc	$15                     ; 0x2015 <f256main+0x16e7>
    7dd3: e0 00        	cpx	#$0
    7dd5: d0 08        	bne	$7ddf <__umodhi3+0x7e>
    7dd7: 80 2a        	bra	$7e03 <__umodhi3+0xa2>
    7dd9: c5 15        	cmp	$15                     ; 0x2015 <f256main+0x16e7>
    7ddb: b0 0e        	bcs	$7deb <__umodhi3+0x8a>
    7ddd: 80 17        	bra	$7df6 <__umodhi3+0x95>
    7ddf: 46 15        	lsr	$15                     ; 0x2015 <f256main+0x16e7>
    7de1: 66 14        	ror	$14                     ; 0x2014 <f256main+0x16e6>
    7de3: c5 15        	cmp	$15                     ; 0x2015 <f256main+0x16e7>
    7de5: d0 f2        	bne	$7dd9 <__umodhi3+0x78>
    7de7: c4 14        	cpy	$14                     ; 0x2014 <f256main+0x16e6>
    7de9: 90 0b        	bcc	$7df6 <__umodhi3+0x95>
    7deb: 85 12        	sta	$12                     ; 0x2012 <f256main+0x16e4>
    7ded: 38           	sec
    7dee: 98           	tya
    7def: e5 14        	sbc	$14                     ; 0x2014 <f256main+0x16e6>
    7df1: a8           	tay
    7df2: a5 12        	lda	$12                     ; 0x2012 <f256main+0x16e4>
    7df4: e5 15        	sbc	$15                     ; 0x2015 <f256main+0x16e7>
    7df6: ca           	dex
    7df7: d0 e6        	bne	$7ddf <__umodhi3+0x7e>
    7df9: 80 08        	bra	$7e03 <__umodhi3+0xa2>
    7dfb: 38           	sec
    7dfc: 98           	tya
    7dfd: e5 12        	sbc	$12                     ; 0x2012 <f256main+0x16e4>
    7dff: a8           	tay
    7e00: 8a           	txa
    7e01: e5 13        	sbc	$13                     ; 0x2013 <f256main+0x16e5>
    7e03: aa           	tax
    7e04: 98           	tya
    7e05: 60           	rts

00007e06 <__udivmodhi4>:
    7e06: 86 1a        	stx	$1a                     ; 0x201a <f256main+0x16ec>
    7e08: 64 16        	stz	$16                     ; 0x2016 <f256main+0x16e8>
    7e0a: a4 13        	ldy	$13                     ; 0x2013 <f256main+0x16e5>
    7e0c: d0 04        	bne	$7e12 <__udivmodhi4+0xc>
    7e0e: a4 12        	ldy	$12                     ; 0x2012 <f256main+0x16e4>
    7e10: f0 08        	beq	$7e1a <__udivmodhi4+0x14>
    7e12: e4 13        	cpx	$13                     ; 0x2013 <f256main+0x16e5>
    7e14: d0 0d        	bne	$7e23 <__udivmodhi4+0x1d>
    7e16: c5 12        	cmp	$12                     ; 0x2012 <f256main+0x16e4>
    7e18: b0 0d        	bcs	$7e27 <__udivmodhi4+0x21>
    7e1a: a6 1a        	ldx	$1a                     ; 0x201a <f256main+0x16ec>
    7e1c: 86 12        	stx	$12                     ; 0x2012 <f256main+0x16e4>
    7e1e: a2 00        	ldx	#$0
    7e20: 4c cb 7e     	jmp	$7ecb <__udivmodhi4+0xc5>
    7e23: e4 13        	cpx	$13                     ; 0x2013 <f256main+0x16e5>
    7e25: 90 f3        	bcc	$7e1a <__udivmodhi4+0x14>
    7e27: a6 13        	ldx	$13                     ; 0x2013 <f256main+0x16e5>
    7e29: 10 03        	bpl	$7e2e <__udivmodhi4+0x28>
    7e2b: 4c be 7e     	jmp	$7ebe <__udivmodhi4+0xb8>
    7e2e: a2 00        	ldx	#$0
    7e30: a4 12        	ldy	$12                     ; 0x2012 <f256main+0x16e4>
    7e32: 84 17        	sty	$17                     ; 0x2017 <f256main+0x16e9>
    7e34: a4 13        	ldy	$13                     ; 0x2013 <f256main+0x16e5>
    7e36: 84 18        	sty	$18                     ; 0x2018 <f256main+0x16ea>
    7e38: 06 17        	asl	$17                     ; 0x2017 <f256main+0x16e9>
    7e3a: 26 18        	rol	$18                     ; 0x2018 <f256main+0x16ea>
    7e3c: a4 1a        	ldy	$1a                     ; 0x201a <f256main+0x16ec>
    7e3e: c4 18        	cpy	$18                     ; 0x2018 <f256main+0x16ea>
    7e40: d0 06        	bne	$7e48 <__udivmodhi4+0x42>
    7e42: c5 17        	cmp	$17                     ; 0x2017 <f256main+0x16e9>
    7e44: b0 08        	bcs	$7e4e <__udivmodhi4+0x48>
    7e46: 80 13        	bra	$7e5b <__udivmodhi4+0x55>
    7e48: a4 1a        	ldy	$1a                     ; 0x201a <f256main+0x16ec>
    7e4a: c4 18        	cpy	$18                     ; 0x2018 <f256main+0x16ea>
    7e4c: 90 0d        	bcc	$7e5b <__udivmodhi4+0x55>
    7e4e: e8           	inx
    7e4f: a4 17        	ldy	$17                     ; 0x2017 <f256main+0x16e9>
    7e51: 84 12        	sty	$12                     ; 0x2012 <f256main+0x16e4>
    7e53: a4 18        	ldy	$18                     ; 0x2018 <f256main+0x16ea>
    7e55: 84 13        	sty	$13                     ; 0x2013 <f256main+0x16e5>
    7e57: 10 df        	bpl	$7e38 <__udivmodhi4+0x32>
    7e59: 80 08        	bra	$7e63 <__udivmodhi4+0x5d>
    7e5b: a4 12        	ldy	$12                     ; 0x2012 <f256main+0x16e4>
    7e5d: 84 17        	sty	$17                     ; 0x2017 <f256main+0x16e9>
    7e5f: a4 13        	ldy	$13                     ; 0x2013 <f256main+0x16e5>
    7e61: 84 18        	sty	$18                     ; 0x2018 <f256main+0x16ea>
    7e63: 38           	sec
    7e64: e5 17        	sbc	$17                     ; 0x2017 <f256main+0x16e9>
    7e66: a8           	tay
    7e67: a5 1a        	lda	$1a                     ; 0x201a <f256main+0x16ec>
    7e69: e5 18        	sbc	$18                     ; 0x2018 <f256main+0x16ea>
    7e6b: 85 12        	sta	$12                     ; 0x2012 <f256main+0x16e4>
    7e6d: 8a           	txa
    7e6e: d0 03        	bne	$7e73 <__udivmodhi4+0x6d>
    7e70: 4c da 7e     	jmp	$7eda <__udivmodhi4+0xd4>
    7e73: a9 01        	lda	#$1
    7e75: 85 d1        	sta	$d1                     ; 0x20d1 <f256main+0x17a3>
    7e77: 64 16        	stz	$16                     ; 0x2016 <f256main+0x16e8>
    7e79: 98           	tya
    7e7a: 46 18        	lsr	$18                     ; 0x2018 <f256main+0x16ea>
    7e7c: 66 17        	ror	$17                     ; 0x2017 <f256main+0x16e9>
    7e7e: a4 d1        	ldy	$d1                     ; 0x20d1 <f256main+0x17a3>
    7e80: 84 13        	sty	$13                     ; 0x2013 <f256main+0x16e5>
    7e82: 06 13        	asl	$13                     ; 0x2013 <f256main+0x16e5>
    7e84: a0 01        	ldy	#$1
    7e86: b0 02        	bcs	$7e8a <__udivmodhi4+0x84>
    7e88: a0 00        	ldy	#$0
    7e8a: 84 19        	sty	$19                     ; 0x2019 <f256main+0x16eb>
    7e8c: a4 13        	ldy	$13                     ; 0x2013 <f256main+0x16e5>
    7e8e: 84 d1        	sty	$d1                     ; 0x20d1 <f256main+0x17a3>
    7e90: a4 12        	ldy	$12                     ; 0x2012 <f256main+0x16e4>
    7e92: c4 18        	cpy	$18                     ; 0x2018 <f256main+0x16ea>
    7e94: d0 22        	bne	$7eb8 <__udivmodhi4+0xb2>
    7e96: c5 17        	cmp	$17                     ; 0x2017 <f256main+0x16e9>
    7e98: 90 13        	bcc	$7ead <__udivmodhi4+0xa7>
    7e9a: a8           	tay
    7e9b: a5 d1        	lda	$d1                     ; 0x20d1 <f256main+0x17a3>
    7e9d: 09 01        	ora	#$1
    7e9f: 85 d1        	sta	$d1                     ; 0x20d1 <f256main+0x17a3>
    7ea1: 38           	sec
    7ea2: 98           	tya
    7ea3: e5 17        	sbc	$17                     ; 0x2017 <f256main+0x16e9>
    7ea5: a8           	tay
    7ea6: a5 12        	lda	$12                     ; 0x2012 <f256main+0x16e4>
    7ea8: e5 18        	sbc	$18                     ; 0x2018 <f256main+0x16ea>
    7eaa: 85 12        	sta	$12                     ; 0x2012 <f256main+0x16e4>
    7eac: 98           	tya
    7ead: a4 19        	ldy	$19                     ; 0x2019 <f256main+0x16eb>
    7eaf: c0 01        	cpy	#$1
    7eb1: 26 16        	rol	$16                     ; 0x2016 <f256main+0x16e8>
    7eb3: ca           	dex
    7eb4: d0 c4        	bne	$7e7a <__udivmodhi4+0x74>
    7eb6: 80 15        	bra	$7ecd <__udivmodhi4+0xc7>
    7eb8: c4 18        	cpy	$18                     ; 0x2018 <f256main+0x16ea>
    7eba: b0 de        	bcs	$7e9a <__udivmodhi4+0x94>
    7ebc: 80 ef        	bra	$7ead <__udivmodhi4+0xa7>
    7ebe: 38           	sec
    7ebf: e5 12        	sbc	$12                     ; 0x2012 <f256main+0x16e4>
    7ec1: aa           	tax
    7ec2: a5 1a        	lda	$1a                     ; 0x201a <f256main+0x16ec>
    7ec4: e5 13        	sbc	$13                     ; 0x2013 <f256main+0x16e5>
    7ec6: 85 12        	sta	$12                     ; 0x2012 <f256main+0x16e4>
    7ec8: 8a           	txa
    7ec9: a2 01        	ldx	#$1
    7ecb: 86 d1        	stx	$d1                     ; 0x20d1 <f256main+0x17a3>
    7ecd: 92 14        	sta	($14)                   ; 0x2014 <f256main+0x16e6>
    7ecf: a0 01        	ldy	#$1
    7ed1: a5 12        	lda	$12                     ; 0x2012 <f256main+0x16e4>
    7ed3: 91 14        	sta	($14),y                 ; 0x2014 <f256main+0x16e6>
    7ed5: a6 16        	ldx	$16                     ; 0x2016 <f256main+0x16e8>
    7ed7: a5 d1        	lda	$d1                     ; 0x20d1 <f256main+0x17a3>
    7ed9: 60           	rts
    7eda: a2 01        	ldx	#$1
    7edc: 86 d1        	stx	$d1                     ; 0x20d1 <f256main+0x17a3>
    7ede: 98           	tya
    7edf: 80 ec        	bra	$7ecd <__udivmodhi4+0xc7>
