
modu.elf:	file format elf32-mos

SYMBOL TABLE:
00000000 l    df *ABS*	00000000 zero-bss.c
00000000 l    df *ABS*	00000000 zero-zp-bss.c
00000000 l    df *ABS*	00000000 copy-zp-data.c
00000000 l    df *ABS*	00000000 ld-temp.o
000004f6 l     F .text	000003e1 f256Init
00000094 l     O .zp.bss	00000007 kernelEventData
00005cc9 l     O .rodata	00000030 textColors
0000009b l     O .zp.bss	00000001 _col
0000009c l     O .zp.bss	00000001 _row
00005f95 l     O .bss	00000001 _active
00005f96 l     O .bss	00000001 _color
00005f89 l     O .bss	0000000c _BITMAP_BASE
00005f97 l     O .bss	00000001 _BITMAP_CLUT.1
00005f98 l     O .bss	00000001 _tileSize.0
00005f99 l     O .bss	00000040 _spriteCtl
00005f88 l     O .bss	00000001 kernelError
000008dd l     F .text	000018b6 f256main
00003c5f l     F .text	0000008d bitmapClear
00005ee5 l     O .rodata	00000037 sid_instrument_defs
0000465f l     F .text	00000088 sid_setInstrument
0000568d l     F .text	000002be malloc
000000ca l     O .zp.bss	00000002 gPtr
00005f7c l     O .rodata	0000000c chipMap
0000008e l     O .zp.data	00000006 voiceMap
00005fd9 l     O .bss	0000013b radios
00005cf9 l     O .rodata	00000040 sidSpriteAction
00003e43 l     F .text	000000fa setRadioB
00002c7b l     F .text	00000fe4 loadGUISID
0000009f l     O .zp.bss	00000001 diaAct.0
000000a0 l     O .zp.bss	00000001 sliAct.0
000000a1 l     O .zp.bss	00000001 polyTimer.1
000000b5 l     O .zp.bss	00000006 reservedSID
000000af l     O .zp.bss	00000006 polySIDBuffer
000000c1 l     O .zp.bss	00000009 polyOPL3Buffer
000000bb l     O .zp.bss	00000006 polyPSGBuffer
00000030 l     O .zp.data	00000058 noteColors
000000ad l     O .zp.bss	00000001 chipAct.3
000063b4 l     O .bss	000001a4 lights
000000ae l     O .zp.bss	00000001 chipAct.4
000000ac l     O .zp.bss	00000001 chipAct.2
000000a2 l     O .zp.bss	00000002 mX
000000a4 l     O .zp.bss	00000002 mY
00006114 l     O .bss	000000f0 sliders
00004295 l     F .text	000003ca updateSlider
000000ab l     O .zp.bss	00000001 chipAct.1
00006204 l     O .bss	000001b0 dials
00003f3d l     F .text	00000358 updateDial
000000aa l     O .zp.bss	00000001 chipAct.0
00005b1f l     F .text	000000db __udivmodhi4
00005e4d l     O .rodata	00000018 opl3_fnums
00000088 l     O .zp.data	00000006 polyPSGChanBits
00005e65 l     O .rodata	00000040 psgLow
00005ea5 l     O .rodata	00000040 psgHigh
00005f1c l     O .rodata	00000060 sidLow
00005d7a l     O .rodata	00000060 sidHigh
00002193 l     F .text	00000859 checkUIEClick
000000a6 l     O .zp.bss	00000002 oldMX
000000a8 l     O .zp.bss	00000002 oldMY
000059bd l     F .text	00000032 __mulhi3
00003d72 l     F .text	000000d1 updateRadioB
000029ec l     F .text	000000d7 textLayerGen
00002ac3 l     F .text	000001b8 textPrint
0000490d l     F .text	00000d80 printf
00003cec l     F .text	00000086 spriteDefine
00005a5f l     F .text	000000c0 __udivhi3
000059aa l     F .text	00000013 __lshrhi3
00005997 l     F .text	00000013 __ashlhi3
000059ef l     F .text	00000070 __mulsi3
000046ec l     F .text	000000df _ZN12_GLOBAL__N_13putEcP6Status
0000009d l     O .zp.bss	00000002 __putchar.s
000047cb l     F .text	00000142 _ZN12_GLOBAL__N_112print_stringEPKcP6Status
00006558 l     O .bss	00000001 _ZN12_GLOBAL__N_111initializedE
0000037c l     F .text	0000013d _ZN12_GLOBAL__N_19FreeChunk6insertEPvj
0000655b l     O .bss	00000002 _ZN12_GLOBAL__N_19free_listE
00006559 l     O .bss	00000002 _ZN12_GLOBAL__N_19free_sizeE
000008d7 g     F .text	00000006 main
00014000 g       .gui8	00000000 gui8_start
000303fc g       .pianopal	00000000 pianopal_end
00043000 g       .keys	00000000 keys_end
00015400 g       .pal	00000000 pal_end
00015000 g       .pal	00000000 pal_start
00030400 g       .keys	00000000 keys_start
00015000 g       .gui8	00000000 gui8_end
00014000 g       .gui16	00000000 gui16_end
00030000 g       .pianopal	00000000 pianopal_start
00010000 g       .gui16	00000000 gui16_start
00000378 g       .text	00000000 __after_main
00000364 g       .text	00000000 __do_init_stack
00000372 g       .text	00000000 __do_copy_zp_data
000004df g     F .text	00000017 __copy_zp_data
0000036c g       .text	00000000 __do_zero_bss
000004b9 g     F .text	00000013 __zero_bss
0000036f g       .text	00000000 __do_zero_zp_bss
000004cc g     F .text	00000013 __zero_zp_bss
000046e7 g     F .text	00000005 exit
0000037b g       .text	00000000 _fini
00005bfa g       .rodata	00000000 __set_v
00005977  w    F .text	00000020 __memset
00001000  w      *ABS*	00000000 __heap_default_limit
0000658a g       .noinit	00000000 __heap_start
0000594b  w    F .text	0000002c memcpy
00000010 g       *ABS*	00000000 __rc0
00000012 g       *ABS*	00000000 __rc2
00000014 g       *ABS*	00000000 __rc4
00000016 g       *ABS*	00000000 __rc6
00000018 g       *ABS*	00000000 __rc8
0000001a g       *ABS*	00000000 __rc10
0000001c g       *ABS*	00000000 __rc12
0000001e g       *ABS*	00000000 __rc14
00000020 g       *ABS*	00000000 __rc16
00000022 g       *ABS*	00000000 __rc18
00000024 g       *ABS*	00000000 __rc20
00000026 g       *ABS*	00000000 __rc22
00000028 g       *ABS*	00000000 __rc24
0000002a g       *ABS*	00000000 __rc26
0000002c g       *ABS*	00000000 __rc28
0000002e g       *ABS*	00000000 __rc30
0000002f g       *ABS*	00000000 __rc31
00000300 g       *ABS*	00000000 __f256_start
0000c000 g       *ABS*	00000000 __stack
0000c000 g       *ABS*	00000000 __SLOT_ADDR
0800c000 g       *ABS*	00000000 __block8_lma
00002000 g       *ABS*	00000000 __BLOCK_SIZE
0900c000 g       *ABS*	00000000 __block9_lma
0a00c000 g       *ABS*	00000000 __block10_lma
0b00c000 g       *ABS*	00000000 __block11_lma
0c00c000 g       *ABS*	00000000 __block12_lma
0d00c000 g       *ABS*	00000000 __block13_lma
0e00c000 g       *ABS*	00000000 __block14_lma
0f00c000 g       *ABS*	00000000 __block15_lma
1000c000 g       *ABS*	00000000 __block16_lma
1100c000 g       *ABS*	00000000 __block17_lma
1200c000 g       *ABS*	00000000 __block18_lma
1300c000 g       *ABS*	00000000 __block19_lma
1400c000 g       *ABS*	00000000 __block20_lma
1500c000 g       *ABS*	00000000 __block21_lma
1600c000 g       *ABS*	00000000 __block22_lma
1700c000 g       *ABS*	00000000 __block23_lma
00010000 g       *ABS*	00000000 __gui16_lma
00004000 g       *ABS*	00000000 __gui16_size
00014000 g       *ABS*	00000000 __gui8_lma
00001000 g       *ABS*	00000000 __gui8_size
00015000 g       *ABS*	00000000 __pal_lma
00000400 g       *ABS*	00000000 __pal_size
00030000 g       *ABS*	00000000 __pianopal_lma
000003fc g       *ABS*	00000000 __pianopal_size
00030400 g       *ABS*	00000000 __keys_lma
00012c00 g       *ABS*	00000000 __keys_size
00005f88 g       .bss	00000000 __bss_start
00014000 g       .gui16	00000000 end_gui16
00015000 g       .gui8	00000000 end_gui8
00015400 g       .pal	00000000 end_pal
000303fc g       .pianopal	00000000 end_pianopal
00043000 g       .keys	00000000 end_keys
00000364 g       .text	00000000 _start
0000002d g       *ABS*	00000000 __rc29
0000002b g       *ABS*	00000000 __rc27
00000029 g       *ABS*	00000000 __rc25
00000027 g       *ABS*	00000000 __rc23
00000025 g       *ABS*	00000000 __rc21
00000023 g       *ABS*	00000000 __rc19
00000021 g       *ABS*	00000000 __rc17
0000001f g       *ABS*	00000000 __rc15
0000001d g       *ABS*	00000000 __rc13
0000001b g       *ABS*	00000000 __rc11
00000019 g       *ABS*	00000000 __rc9
00000017 g       *ABS*	00000000 __rc7
00000015 g       *ABS*	00000000 __rc5
00000013 g       *ABS*	00000000 __rc3
00000011 g       *ABS*	00000000 __rc1
00000030 g       .zp.data	00000000 __zp_data_start
00000300 g       *ABS*	00000000 __zp_data_load_start
00000064 g       *ABS*	00000000 __zp_data_size
00000094 g       .zp.bss	00000000 __zp_bss_start
00000038 g       *ABS*	00000000 __zp_bss_size
00000364 g       .text	00000000 _init
00005bfa g       .text	00000000 __init_array_start
00005bfa g       .text	00000000 __init_array_end
00005bfa g       .text	00000000 __fini_array_start
00005bfa g       .text	00000000 __fini_array_end
00005f88 g       .data	00000000 __data_start
00005f88 g       .data	00000000 __data_end
00005f88 g       *ABS*	00000000 __data_load_start
00000000 g       *ABS*	00000000 __data_size
0000655d g       .bss	00000000 __bss_end
000005d5 g       *ABS*	00000000 __bss_size
00006589 g       .noinit	00000000 end_block8
00006589 g       .noinit	00000000 end_block9
00006589 g       .noinit	00000000 end_block10
00006589 g       .noinit	00000000 end_block11
00006589 g       .noinit	00000000 end_block12
00006589 g       .noinit	00000000 end_block13
00006589 g       .noinit	00000000 end_block14
00006589 g       .noinit	00000000 end_block15
00006589 g       .noinit	00000000 end_block16
00006589 g       .noinit	00000000 end_block17
00006589 g       .noinit	00000000 end_block18
00006589 g       .noinit	00000000 end_block19
00006589 g       .noinit	00000000 end_block20
00006589 g       .noinit	00000000 end_block21
00006589 g       .noinit	00000000 end_block22
00006589 g       .noinit	00000000 end_block23

Disassembly of section .text:

00000364 <_start>:
     364: a9 00        	lda	#$0
     366: 85 10        	sta	$10                     ; 0x2010 <f256main+0x1733>
     368: a9 c0        	lda	#$c0
     36a: 85 11        	sta	$11                     ; 0x2011 <f256main+0x1734>

0000036c <__do_zero_bss>:
     36c: 20 b9 04     	jsr	$4b9 <__zero_bss>

0000036f <__do_zero_zp_bss>:
     36f: 20 cc 04     	jsr	$4cc <__zero_zp_bss>

00000372 <__do_copy_zp_data>:
     372: 20 df 04     	jsr	$4df <__copy_zp_data>
     375: 20 d7 08     	jsr	$8d7 <main>

00000378 <__after_main>:
     378: 4c e7 46     	jmp	$46e7 <exit>

0000037b <_fini>:
     37b: 60           	rts

0000037c <_ZN12_GLOBAL__N_19FreeChunk6insertEPvj>:
     37c: 85 16        	sta	$16                     ; 0x2016 <f256main+0x1739>
     37e: 29 fe        	and	#$fe
     380: 85 14        	sta	$14                     ; 0x2014 <f256main+0x1737>
     382: a0 01        	ldy	#$1
     384: 98           	tya
     385: 32 12        	and	($12)                   ; 0x2012 <f256main+0x1735>
     387: 05 14        	ora	$14                     ; 0x2014 <f256main+0x1737>
     389: 92 12        	sta	($12)                   ; 0x2012 <f256main+0x1735>
     38b: a5 12        	lda	$12                     ; 0x2012 <f256main+0x1735>
     38d: 18           	clc
     38e: 65 14        	adc	$14                     ; 0x2014 <f256main+0x1737>
     390: 85 15        	sta	$15                     ; 0x2015 <f256main+0x1738>
     392: 8a           	txa
     393: 65 13        	adc	$13                     ; 0x2013 <f256main+0x1736>
     395: 85 14        	sta	$14                     ; 0x2014 <f256main+0x1737>
     397: 18           	clc
     398: a5 15        	lda	$15                     ; 0x2015 <f256main+0x1738>
     39a: 69 fe        	adc	#$fe
     39c: 85 17        	sta	$17                     ; 0x2017 <f256main+0x173a>
     39e: a5 14        	lda	$14                     ; 0x2014 <f256main+0x1737>
     3a0: 69 ff        	adc	#$ff
     3a2: 85 15        	sta	$15                     ; 0x2015 <f256main+0x1738>
     3a4: a5 17        	lda	$17                     ; 0x2017 <f256main+0x173a>
     3a6: 85 14        	sta	$14                     ; 0x2014 <f256main+0x1737>
     3a8: 8a           	txa
     3a9: 91 12        	sta	($12),y                 ; 0x2012 <f256main+0x1735>
     3ab: a5 16        	lda	$16                     ; 0x2016 <f256main+0x1739>
     3ad: 92 14        	sta	($14)                   ; 0x2014 <f256main+0x1737>
     3af: 8a           	txa
     3b0: 91 14        	sta	($14),y                 ; 0x2014 <f256main+0x1737>
     3b2: b1 12        	lda	($12),y                 ; 0x2012 <f256main+0x1735>
     3b4: 85 14        	sta	$14                     ; 0x2014 <f256main+0x1737>
     3b6: a9 fe        	lda	#$fe
     3b8: 32 12        	and	($12)                   ; 0x2012 <f256main+0x1735>
     3ba: 18           	clc
     3bb: 6d 59 65     	adc	$6559                   ; 0x6559 <_ZN12_GLOBAL__N_19free_sizeE>
     3be: aa           	tax
     3bf: a5 14        	lda	$14                     ; 0x2014 <f256main+0x1737>
     3c1: 6d 5a 65     	adc	$655a                   ; 0x655a <_ZN12_GLOBAL__N_19free_sizeE+0x1>
     3c4: a8           	tay
     3c5: 18           	clc
     3c6: 8a           	txa
     3c7: 69 fe        	adc	#$fe
     3c9: aa           	tax
     3ca: 98           	tya
     3cb: 69 ff        	adc	#$ff
     3cd: 8e 59 65     	stx	$6559                   ; 0x6559 <_ZN12_GLOBAL__N_19free_sizeE>
     3d0: 8d 5a 65     	sta	$655a                   ; 0x655a <_ZN12_GLOBAL__N_19free_sizeE+0x1>
     3d3: ae 5b 65     	ldx	$655b                   ; 0x655b <_ZN12_GLOBAL__N_19free_listE>
     3d6: 86 16        	stx	$16                     ; 0x2016 <f256main+0x1739>
     3d8: ac 5c 65     	ldy	$655c                   ; 0x655c <_ZN12_GLOBAL__N_19free_listE+0x1>
     3db: a2 00        	ldx	#$0
     3dd: 86 14        	stx	$14                     ; 0x2014 <f256main+0x1737>
     3df: a2 00        	ldx	#$0
     3e1: 86 15        	stx	$15                     ; 0x2015 <f256main+0x1738>
     3e3: c4 15        	cpy	$15                     ; 0x2015 <f256main+0x1738>
     3e5: d0 3e        	bne	$425 <_ZN12_GLOBAL__N_19FreeChunk6insertEPvj+0xa9>
     3e7: a6 16        	ldx	$16                     ; 0x2016 <f256main+0x1739>
     3e9: e4 14        	cpx	$14                     ; 0x2014 <f256main+0x1737>
     3eb: d0 38        	bne	$425 <_ZN12_GLOBAL__N_19FreeChunk6insertEPvj+0xa9>
     3ed: a0 04        	ldy	#$4
     3ef: a5 12        	lda	$12                     ; 0x2012 <f256main+0x1735>
     3f1: 18           	clc
     3f2: 69 04        	adc	#$4
     3f4: 85 14        	sta	$14                     ; 0x2014 <f256main+0x1737>
     3f6: a5 13        	lda	$13                     ; 0x2013 <f256main+0x1736>
     3f8: 69 00        	adc	#$0
     3fa: 18           	clc
     3fb: 85 15        	sta	$15                     ; 0x2015 <f256main+0x1738>
     3fd: a5 12        	lda	$12                     ; 0x2012 <f256main+0x1735>
     3ff: 91 12        	sta	($12),y                 ; 0x2012 <f256main+0x1735>
     401: a0 02        	ldy	#$2
     403: 85 17        	sta	$17                     ; 0x2017 <f256main+0x173a>
     405: 69 02        	adc	#$2
     407: 85 16        	sta	$16                     ; 0x2016 <f256main+0x1739>
     409: a5 17        	lda	$17                     ; 0x2017 <f256main+0x173a>
     40b: 91 12        	sta	($12),y                 ; 0x2012 <f256main+0x1735>
     40d: a5 13        	lda	$13                     ; 0x2013 <f256main+0x1736>
     40f: 69 00        	adc	#$0
     411: 85 17        	sta	$17                     ; 0x2017 <f256main+0x173a>
     413: 88           	dey
     414: a5 13        	lda	$13                     ; 0x2013 <f256main+0x1736>
     416: 91 14        	sta	($14),y                 ; 0x2014 <f256main+0x1737>
     418: 91 16        	sta	($16),y                 ; 0x2016 <f256main+0x1739>
     41a: a6 12        	ldx	$12                     ; 0x2012 <f256main+0x1735>
     41c: 8e 5b 65     	stx	$655b                   ; 0x655b <_ZN12_GLOBAL__N_19free_listE>
     41f: a6 13        	ldx	$13                     ; 0x2013 <f256main+0x1736>
     421: 8e 5c 65     	stx	$655c                   ; 0x655c <_ZN12_GLOBAL__N_19free_listE+0x1>
     424: 60           	rts
     425: a6 12        	ldx	$12                     ; 0x2012 <f256main+0x1735>
     427: a5 12        	lda	$12                     ; 0x2012 <f256main+0x1735>
     429: 18           	clc
     42a: 69 02        	adc	#$2
     42c: 85 14        	sta	$14                     ; 0x2014 <f256main+0x1737>
     42e: 84 18        	sty	$18                     ; 0x2018 <f256main+0x173b>
     430: a5 13        	lda	$13                     ; 0x2013 <f256main+0x1736>
     432: 69 00        	adc	#$0
     434: 85 15        	sta	$15                     ; 0x2015 <f256main+0x1738>
     436: a5 16        	lda	$16                     ; 0x2016 <f256main+0x1739>
     438: 84 17        	sty	$17                     ; 0x2017 <f256main+0x173a>
     43a: a0 02        	ldy	#$2
     43c: 91 12        	sta	($12),y                 ; 0x2012 <f256main+0x1735>
     43e: 85 19        	sta	$19                     ; 0x2019 <f256main+0x173c>
     440: 88           	dey
     441: a5 18        	lda	$18                     ; 0x2018 <f256main+0x173b>
     443: 91 14        	sta	($14),y                 ; 0x2014 <f256main+0x1737>
     445: 18           	clc
     446: a5 19        	lda	$19                     ; 0x2019 <f256main+0x173c>
     448: 69 04        	adc	#$4
     44a: a8           	tay
     44b: a5 18        	lda	$18                     ; 0x2018 <f256main+0x173b>
     44d: 69 00        	adc	#$0
     44f: 85 19        	sta	$19                     ; 0x2019 <f256main+0x173c>
     451: 84 18        	sty	$18                     ; 0x2018 <f256main+0x173b>
     453: 8a           	txa
     454: 18           	clc
     455: 69 04        	adc	#$4
     457: 85 1a        	sta	$1a                     ; 0x201a <f256main+0x173d>
     459: a5 13        	lda	$13                     ; 0x2013 <f256main+0x1736>
     45b: 69 00        	adc	#$0
     45d: 85 1b        	sta	$1b                     ; 0x201b <f256main+0x173e>
     45f: a0 04        	ldy	#$4
     461: b1 16        	lda	($16),y                 ; 0x2016 <f256main+0x1739>
     463: 85 16        	sta	$16                     ; 0x2016 <f256main+0x1739>
     465: 85 1d        	sta	$1d                     ; 0x201d <f256main+0x1740>
     467: a0 01        	ldy	#$1
     469: b1 18        	lda	($18),y                 ; 0x2018 <f256main+0x173b>
     46b: 85 17        	sta	$17                     ; 0x2017 <f256main+0x173a>
     46d: 85 19        	sta	$19                     ; 0x2019 <f256main+0x173c>
     46f: a0 04        	ldy	#$4
     471: a5 1d        	lda	$1d                     ; 0x201d <f256main+0x1740>
     473: 91 12        	sta	($12),y                 ; 0x2012 <f256main+0x1735>
     475: a5 19        	lda	$19                     ; 0x2019 <f256main+0x173c>
     477: a0 01        	ldy	#$1
     479: 91 1a        	sta	($1a),y                 ; 0x201a <f256main+0x173d>
     47b: 18           	clc
     47c: a5 1d        	lda	$1d                     ; 0x201d <f256main+0x1740>
     47e: 69 02        	adc	#$2
     480: 85 18        	sta	$18                     ; 0x2018 <f256main+0x173b>
     482: a5 19        	lda	$19                     ; 0x2019 <f256main+0x173c>
     484: 69 00        	adc	#$0
     486: 85 19        	sta	$19                     ; 0x2019 <f256main+0x173c>
     488: 8a           	txa
     489: c8           	iny
     48a: 91 16        	sta	($16),y                 ; 0x2016 <f256main+0x1739>
     48c: a5 13        	lda	$13                     ; 0x2013 <f256main+0x1736>
     48e: 88           	dey
     48f: 91 18        	sta	($18),y                 ; 0x2018 <f256main+0x173b>
     491: c8           	iny
     492: b1 12        	lda	($12),y                 ; 0x2012 <f256main+0x1735>
     494: 85 16        	sta	$16                     ; 0x2016 <f256main+0x1739>
     496: 85 18        	sta	$18                     ; 0x2018 <f256main+0x173b>
     498: 88           	dey
     499: b1 14        	lda	($14),y                 ; 0x2014 <f256main+0x1737>
     49b: 85 17        	sta	$17                     ; 0x2017 <f256main+0x173a>
     49d: 85 14        	sta	$14                     ; 0x2014 <f256main+0x1737>
     49f: 8a           	txa
     4a0: a0 04        	ldy	#$4
     4a2: 91 16        	sta	($16),y                 ; 0x2016 <f256main+0x1739>
     4a4: 18           	clc
     4a5: a5 18        	lda	$18                     ; 0x2018 <f256main+0x173b>
     4a7: 69 04        	adc	#$4
     4a9: a8           	tay
     4aa: a5 14        	lda	$14                     ; 0x2014 <f256main+0x1737>
     4ac: 69 00        	adc	#$0
     4ae: 84 14        	sty	$14                     ; 0x2014 <f256main+0x1737>
     4b0: 85 15        	sta	$15                     ; 0x2015 <f256main+0x1738>
     4b2: a5 13        	lda	$13                     ; 0x2013 <f256main+0x1736>
     4b4: a0 01        	ldy	#$1
     4b6: 91 14        	sta	($14),y                 ; 0x2014 <f256main+0x1737>
     4b8: 60           	rts

000004b9 <__zero_bss>:
     4b9: a2 d5        	ldx	#$d5
     4bb: a0 05        	ldy	#$5
     4bd: a9 88        	lda	#$88
     4bf: 85 12        	sta	$12                     ; 0x2012 <f256main+0x1735>
     4c1: a9 5f        	lda	#$5f
     4c3: 85 13        	sta	$13                     ; 0x2013 <f256main+0x1736>
     4c5: a9 00        	lda	#$0
     4c7: 84 14        	sty	$14                     ; 0x2014 <f256main+0x1737>
     4c9: 4c 77 59     	jmp	$5977 <__memset>

000004cc <__zero_zp_bss>:
     4cc: a2 38        	ldx	#$38
     4ce: a0 00        	ldy	#$0
     4d0: a9 94        	lda	#$94
     4d2: 85 12        	sta	$12                     ; 0x2012 <f256main+0x1735>
     4d4: a9 00        	lda	#$0
     4d6: 85 13        	sta	$13                     ; 0x2013 <f256main+0x1736>
     4d8: a9 00        	lda	#$0
     4da: 84 14        	sty	$14                     ; 0x2014 <f256main+0x1737>
     4dc: 4c 77 59     	jmp	$5977 <__memset>

000004df <__copy_zp_data>:
     4df: a9 64        	lda	#$64
     4e1: a2 00        	ldx	#$0
     4e3: a0 30        	ldy	#$30
     4e5: 84 12        	sty	$12                     ; 0x2012 <f256main+0x1735>
     4e7: a0 00        	ldy	#$0
     4e9: 84 13        	sty	$13                     ; 0x2013 <f256main+0x1736>
     4eb: a0 00        	ldy	#$0
     4ed: 84 14        	sty	$14                     ; 0x2014 <f256main+0x1737>
     4ef: a0 03        	ldy	#$3
     4f1: 84 15        	sty	$15                     ; 0x2015 <f256main+0x1738>
     4f3: 4c 4b 59     	jmp	$594b <memcpy>

000004f6 <f256Init>:
     4f6: 64 14        	stz	$14                     ; 0x2014 <f256main+0x1737>
     4f8: a2 00        	ldx	#$0
     4fa: 86 12        	stx	$12                     ; 0x2012 <f256main+0x1735>
     4fc: a2 c0        	ldx	#$c0
     4fe: 86 13        	stx	$13                     ; 0x2013 <f256main+0x1736>
     500: 64 01        	stz	$1                      ; 0x2001 <f256main+0x1724>
     502: a2 3f        	ldx	#$3f
     504: 8e 00 d0     	stx	$d000                   ; 0xd000 <__heap_start+0x6a76>
     507: a2 b3        	ldx	#$b3
     509: 86 00        	stx	$0                      ; 0x2000 <f256main+0x1723>
     50b: 64 08        	stz	$8                      ; 0x2008 <f256main+0x172b>
     50d: a2 01        	ldx	#$1
     50f: 86 09        	stx	$9                      ; 0x2009 <f256main+0x172c>
     511: e8           	inx
     512: 86 0a        	stx	$a                      ; 0x200a <f256main+0x172d>
     514: e8           	inx
     515: 86 0b        	stx	$b                      ; 0x200b <f256main+0x172e>
     517: e8           	inx
     518: 86 0c        	stx	$c                      ; 0x200c <f256main+0x172f>
     51a: e8           	inx
     51b: 86 0d        	stx	$d                      ; 0x200d <f256main+0x1730>
     51d: a2 94        	ldx	#$94
     51f: a0 00        	ldy	#$0
     521: 86 f0        	stx	$f0                     ; 0x20f0 <f256main+0x1813>
     523: 84 f1        	sty	$f1                     ; 0x20f1 <f256main+0x1814>
     525: a2 00        	ldx	#$0
     527: 86 18        	stx	$18                     ; 0x2018 <f256main+0x173b>
     529: ca           	dex
     52a: 86 19        	stx	$19                     ; 0x2019 <f256main+0x173c>
     52c: 8a           	txa
     52d: 0a           	asl
     52e: 0a           	asl
     52f: 18           	clc
     530: 69 d4        	adc	#$d4
     532: 85 1a        	sta	$1a                     ; 0x201a <f256main+0x173d>
     534: a0 00        	ldy	#$0
     536: 64 17        	stz	$17                     ; 0x2017 <f256main+0x173a>
     538: 64 16        	stz	$16                     ; 0x2016 <f256main+0x1739>
     53a: a6 19        	ldx	$19                     ; 0x2019 <f256main+0x173c>
     53c: e0 03        	cpx	#$3
     53e: a6 01        	ldx	$1                      ; 0x2001 <f256main+0x1724>
     540: 86 1c        	stx	$1c                     ; 0x201c <f256main+0x173f>
     542: a2 d0        	ldx	#$d0
     544: 84 1b        	sty	$1b                     ; 0x201b <f256main+0x173e>
     546: b0 02        	bcs	$54a <f256Init+0x54>
     548: a6 1a        	ldx	$1a                     ; 0x201a <f256main+0x173d>
     54a: 86 15        	stx	$15                     ; 0x2015 <f256main+0x1738>
     54c: a5 17        	lda	$17                     ; 0x2017 <f256main+0x173a>
     54e: 18           	clc
     54f: 65 14        	adc	$14                     ; 0x2014 <f256main+0x1737>
     551: a8           	tay
     552: a6 17        	ldx	$17                     ; 0x2017 <f256main+0x173a>
     554: a5 16        	lda	$16                     ; 0x2016 <f256main+0x1739>
     556: 85 1d        	sta	$1d                     ; 0x201d <f256main+0x1740>
     558: a5 16        	lda	$16                     ; 0x2016 <f256main+0x1739>
     55a: 65 15        	adc	$15                     ; 0x2015 <f256main+0x1738>
     55c: 84 16        	sty	$16                     ; 0x2016 <f256main+0x1739>
     55e: a0 01        	ldy	#$1
     560: 84 01        	sty	$1                      ; 0x2001 <f256main+0x1724>
     562: 85 17        	sta	$17                     ; 0x2017 <f256main+0x173a>
     564: a5 1b        	lda	$1b                     ; 0x201b <f256main+0x173e>
     566: 92 16        	sta	($16)                   ; 0x2016 <f256main+0x1739>
     568: 91 16        	sta	($16),y                 ; 0x2016 <f256main+0x1739>
     56a: c8           	iny
     56b: 91 16        	sta	($16),y                 ; 0x2016 <f256main+0x1739>
     56d: 85 15        	sta	$15                     ; 0x2015 <f256main+0x1738>
     56f: c8           	iny
     570: a9 ff        	lda	#$ff
     572: 91 16        	sta	($16),y                 ; 0x2016 <f256main+0x1739>
     574: 8a           	txa
     575: a6 1c        	ldx	$1c                     ; 0x201c <f256main+0x173f>
     577: 86 01        	stx	$1                      ; 0x2001 <f256main+0x1724>
     579: 18           	clc
     57a: 69 04        	adc	#$4
     57c: 85 17        	sta	$17                     ; 0x2017 <f256main+0x173a>
     57e: a5 1d        	lda	$1d                     ; 0x201d <f256main+0x1740>
     580: 69 00        	adc	#$0
     582: e6 15        	inc	$15                     ; 0x2015 <f256main+0x1738>
     584: a4 15        	ldy	$15                     ; 0x2015 <f256main+0x1738>
     586: 85 16        	sta	$16                     ; 0x2016 <f256main+0x1739>
     588: c9 04        	cmp	#$4
     58a: f0 03        	beq	$58f <f256Init+0x99>
     58c: 4c 3a 05     	jmp	$53a <f256Init+0x44>
     58f: a5 17        	lda	$17                     ; 0x2017 <f256main+0x173a>
     591: f0 03        	beq	$596 <f256Init+0xa0>
     593: 4c 3a 05     	jmp	$53a <f256Init+0x44>
     596: a6 18        	ldx	$18                     ; 0x2018 <f256main+0x173b>
     598: e8           	inx
     599: e0 04        	cpx	#$4
     59b: f0 03        	beq	$5a0 <f256Init+0xaa>
     59d: 4c 27 05     	jmp	$527 <f256Init+0x31>
     5a0: ad 02 d0     	lda	$d002                   ; 0xd002 <__heap_start+0x6a78>
     5a3: 29 f0        	and	#$f0
     5a5: 8d 02 d0     	sta	$d002                   ; 0xd002 <__heap_start+0x6a78>
     5a8: ad 02 d0     	lda	$d002                   ; 0xd002 <__heap_start+0x6a78>
     5ab: 29 0f        	and	#$f
     5ad: 09 10        	ora	#$10
     5af: 8d 02 d0     	sta	$d002                   ; 0xd002 <__heap_start+0x6a78>
     5b2: a2 02        	ldx	#$2
     5b4: 8e 03 d0     	stx	$d003                   ; 0xd003 <__heap_start+0x6a79>
     5b7: ad 01 d0     	lda	$d001                   ; 0xd001 <__heap_start+0x6a77>
     5ba: 29 f9        	and	#$f9
     5bc: 09 04        	ora	#$4
     5be: 8d 01 d0     	sta	$d001                   ; 0xd001 <__heap_start+0x6a77>
     5c1: 64 14        	stz	$14                     ; 0x2014 <f256main+0x1737>
     5c3: 9c 10 d0     	stz	$d010                   ; 0xd010 <__heap_start+0x6a86>
     5c6: a2 00        	ldx	#$0
     5c8: 64 15        	stz	$15                     ; 0x2015 <f256main+0x1738>
     5ca: 86 18        	stx	$18                     ; 0x2018 <f256main+0x173b>
     5cc: a4 18        	ldy	$18                     ; 0x2018 <f256main+0x173b>
     5ce: be c9 5c     	ldx	$5cc9,y                 ; 0x5cc9 <textColors>
     5d1: 86 19        	stx	$19                     ; 0x2019 <f256main+0x173c>
     5d3: be ca 5c     	ldx	$5cca,y                 ; 0x5cca <textColors+0x1>
     5d6: 86 1a        	stx	$1a                     ; 0x201a <f256main+0x173d>
     5d8: be cb 5c     	ldx	$5ccb,y                 ; 0x5ccb <textColors+0x2>
     5db: 86 1b        	stx	$1b                     ; 0x201b <f256main+0x173e>
     5dd: a6 15        	ldx	$15                     ; 0x2015 <f256main+0x1738>
     5df: 8e 00 de     	stx	$de00                   ; 0xde00 <__heap_start+0x7876>
     5e2: 86 17        	stx	$17                     ; 0x2017 <f256main+0x173a>
     5e4: 9c 01 de     	stz	$de01                   ; 0xde01 <__heap_start+0x7877>
     5e7: a2 04        	ldx	#$4
     5e9: 8e 02 de     	stx	$de02                   ; 0xde02 <__heap_start+0x7878>
     5ec: 9c 03 de     	stz	$de03                   ; 0xde03 <__heap_start+0x7879>
     5ef: ad 10 de     	lda	$de10                   ; 0xde10 <__heap_start+0x7886>
     5f2: ac 11 de     	ldy	$de11                   ; 0xde11 <__heap_start+0x7887>
     5f5: 84 15        	sty	$15                     ; 0x2015 <f256main+0x1738>
     5f7: ac 12 de     	ldy	$de12                   ; 0xde12 <__heap_start+0x7888>
     5fa: ac 13 de     	ldy	$de13                   ; 0xde13 <__heap_start+0x7889>
     5fd: 18           	clc
     5fe: 65 14        	adc	$14                     ; 0x2014 <f256main+0x1737>
     600: 85 16        	sta	$16                     ; 0x2016 <f256main+0x1739>
     602: a6 17        	ldx	$17                     ; 0x2017 <f256main+0x173a>
     604: a9 d8        	lda	#$d8
     606: 65 15        	adc	$15                     ; 0x2015 <f256main+0x1738>
     608: 85 17        	sta	$17                     ; 0x2017 <f256main+0x173a>
     60a: a5 1b        	lda	$1b                     ; 0x201b <f256main+0x173e>
     60c: 92 16        	sta	($16)                   ; 0x2016 <f256main+0x1739>
     60e: a0 01        	ldy	#$1
     610: a5 1a        	lda	$1a                     ; 0x201a <f256main+0x173d>
     612: 91 16        	sta	($16),y                 ; 0x2016 <f256main+0x1739>
     614: c8           	iny
     615: a5 19        	lda	$19                     ; 0x2019 <f256main+0x173c>
     617: 91 16        	sta	($16),y                 ; 0x2016 <f256main+0x1739>
     619: c8           	iny
     61a: a9 ff        	lda	#$ff
     61c: 91 16        	sta	($16),y                 ; 0x2016 <f256main+0x1739>
     61e: 8e 00 de     	stx	$de00                   ; 0xde00 <__heap_start+0x7876>
     621: 9c 01 de     	stz	$de01                   ; 0xde01 <__heap_start+0x7877>
     624: c8           	iny
     625: 8c 02 de     	sty	$de02                   ; 0xde02 <__heap_start+0x7878>
     628: 9c 03 de     	stz	$de03                   ; 0xde03 <__heap_start+0x7879>
     62b: ad 10 de     	lda	$de10                   ; 0xde10 <__heap_start+0x7886>
     62e: 85 15        	sta	$15                     ; 0x2015 <f256main+0x1738>
     630: ad 11 de     	lda	$de11                   ; 0xde11 <__heap_start+0x7887>
     633: 85 16        	sta	$16                     ; 0x2016 <f256main+0x1739>
     635: a9 40        	lda	#$40
     637: 18           	clc
     638: 65 15        	adc	$15                     ; 0x2015 <f256main+0x1738>
     63a: a8           	tay
     63b: a9 d8        	lda	#$d8
     63d: 65 16        	adc	$16                     ; 0x2016 <f256main+0x1739>
     63f: 85 17        	sta	$17                     ; 0x2017 <f256main+0x173a>
     641: 84 16        	sty	$16                     ; 0x2016 <f256main+0x1739>
     643: ad 12 de     	lda	$de12                   ; 0xde12 <__heap_start+0x7888>
     646: ad 13 de     	lda	$de13                   ; 0xde13 <__heap_start+0x7889>
     649: a5 1b        	lda	$1b                     ; 0x201b <f256main+0x173e>
     64b: 92 16        	sta	($16)                   ; 0x2016 <f256main+0x1739>
     64d: a5 1a        	lda	$1a                     ; 0x201a <f256main+0x173d>
     64f: a0 01        	ldy	#$1
     651: 91 16        	sta	($16),y                 ; 0x2016 <f256main+0x1739>
     653: a5 19        	lda	$19                     ; 0x2019 <f256main+0x173c>
     655: c8           	iny
     656: 91 16        	sta	($16),y                 ; 0x2016 <f256main+0x1739>
     658: c8           	iny
     659: a9 ff        	lda	#$ff
     65b: 91 16        	sta	($16),y                 ; 0x2016 <f256main+0x1739>
     65d: e8           	inx
     65e: 86 15        	stx	$15                     ; 0x2015 <f256main+0x1738>
     660: 18           	clc
     661: a5 18        	lda	$18                     ; 0x2018 <f256main+0x173b>
     663: 69 03        	adc	#$3
     665: aa           	tax
     666: c9 30        	cmp	#$30
     668: f0 03        	beq	$66d <f256Init+0x177>
     66a: 4c ca 05     	jmp	$5ca <f256Init+0xd4>
     66d: a6 01        	ldx	$1                      ; 0x2001 <f256main+0x1724>
     66f: 86 18        	stx	$18                     ; 0x2018 <f256main+0x173b>
     671: a2 50        	ldx	#$50
     673: 8e 00 de     	stx	$de00                   ; 0xde00 <__heap_start+0x7876>
     676: 9c 01 de     	stz	$de01                   ; 0xde01 <__heap_start+0x7877>
     679: a2 1e        	ldx	#$1e
     67b: 8e 02 de     	stx	$de02                   ; 0xde02 <__heap_start+0x7878>
     67e: 9c 03 de     	stz	$de03                   ; 0xde03 <__heap_start+0x7879>
     681: ae 10 de     	ldx	$de10                   ; 0xde10 <__heap_start+0x7886>
     684: ac 11 de     	ldy	$de11                   ; 0xde11 <__heap_start+0x7887>
     687: ad 12 de     	lda	$de12                   ; 0xde12 <__heap_start+0x7888>
     68a: ad 13 de     	lda	$de13                   ; 0xde13 <__heap_start+0x7889>
     68d: a9 02        	lda	#$2
     68f: 85 01        	sta	$1                      ; 0x2001 <f256main+0x1724>
     691: e0 01        	cpx	#$1
     693: 98           	tya
     694: e9 00        	sbc	#$0
     696: 50 02        	bvc	$69a <f256Init+0x1a4>
     698: 49 80        	eor	#$80
     69a: c9 00        	cmp	#$0
     69c: 30 48        	bmi	$6e6 <f256Init+0x1f0>
     69e: a9 20        	lda	#$20
     6a0: 86 19        	stx	$19                     ; 0x2019 <f256main+0x173c>
     6a2: 86 14        	stx	$14                     ; 0x2014 <f256main+0x1737>
     6a4: 84 15        	sty	$15                     ; 0x2015 <f256main+0x1738>
     6a6: a2 00        	ldx	#$0
     6a8: 86 16        	stx	$16                     ; 0x2016 <f256main+0x1739>
     6aa: a2 c0        	ldx	#$c0
     6ac: 86 17        	stx	$17                     ; 0x2017 <f256main+0x173a>
     6ae: 92 16        	sta	($16)                   ; 0x2016 <f256main+0x1739>
     6b0: e6 16        	inc	$16                     ; 0x2016 <f256main+0x1739>
     6b2: d0 02        	bne	$6b6 <f256Init+0x1c0>
     6b4: e6 17        	inc	$17                     ; 0x2017 <f256main+0x173a>
     6b6: a2 ff        	ldx	#$ff
     6b8: c6 14        	dec	$14                     ; 0x2014 <f256main+0x1737>
     6ba: e4 14        	cpx	$14                     ; 0x2014 <f256main+0x1737>
     6bc: d0 02        	bne	$6c0 <f256Init+0x1ca>
     6be: c6 15        	dec	$15                     ; 0x2015 <f256main+0x1738>
     6c0: a6 15        	ldx	$15                     ; 0x2015 <f256main+0x1738>
     6c2: d0 ea        	bne	$6ae <f256Init+0x1b8>
     6c4: a6 14        	ldx	$14                     ; 0x2014 <f256main+0x1737>
     6c6: d0 e6        	bne	$6ae <f256Init+0x1b8>
     6c8: a2 03        	ldx	#$3
     6ca: 86 01        	stx	$1                      ; 0x2001 <f256main+0x1724>
     6cc: a6 19        	ldx	$19                     ; 0x2019 <f256main+0x173c>
     6ce: a9 f0        	lda	#$f0
     6d0: 92 12        	sta	($12)                   ; 0x2012 <f256main+0x1735>
     6d2: e6 12        	inc	$12                     ; 0x2012 <f256main+0x1735>
     6d4: d0 02        	bne	$6d8 <f256Init+0x1e2>
     6d6: e6 13        	inc	$13                     ; 0x2013 <f256main+0x1736>
     6d8: ca           	dex
     6d9: e0 ff        	cpx	#$ff
     6db: d0 01        	bne	$6de <f256Init+0x1e8>
     6dd: 88           	dey
     6de: 98           	tya
     6df: d0 ed        	bne	$6ce <f256Init+0x1d8>
     6e1: 8a           	txa
     6e2: d0 ea        	bne	$6ce <f256Init+0x1d8>
     6e4: 80 04        	bra	$6ea <f256Init+0x1f4>
     6e6: a2 03        	ldx	#$3
     6e8: 86 01        	stx	$1                      ; 0x2001 <f256main+0x1724>
     6ea: a6 18        	ldx	$18                     ; 0x2018 <f256main+0x173b>
     6ec: 86 01        	stx	$1                      ; 0x2001 <f256main+0x1724>
     6ee: 64 9b        	stz	$9b                     ; 0x209b <f256main+0x17be>
     6f0: 9c 14 d0     	stz	$d014                   ; 0xd014 <__heap_start+0x6a8a>
     6f3: 9c 15 d0     	stz	$d015                   ; 0xd015 <__heap_start+0x6a8b>
     6f6: 64 9c        	stz	$9c                     ; 0x209c <f256main+0x17bf>
     6f8: 9c 16 d0     	stz	$d016                   ; 0xd016 <__heap_start+0x6a8c>
     6fb: 9c 17 d0     	stz	$d017                   ; 0xd017 <__heap_start+0x6a8d>
     6fe: a2 40        	ldx	#$40
     700: 8e 00 de     	stx	$de00                   ; 0xde00 <__heap_start+0x7876>
     703: a2 01        	ldx	#$1
     705: 8e 01 de     	stx	$de01                   ; 0xde01 <__heap_start+0x7877>
     708: a2 f0        	ldx	#$f0
     70a: 8e 02 de     	stx	$de02                   ; 0xde02 <__heap_start+0x7878>
     70d: 9c 03 de     	stz	$de03                   ; 0xde03 <__heap_start+0x7879>
     710: ae 10 de     	ldx	$de10                   ; 0xde10 <__heap_start+0x7886>
     713: 86 17        	stx	$17                     ; 0x2017 <f256main+0x173a>
     715: ae 11 de     	ldx	$de11                   ; 0xde11 <__heap_start+0x7887>
     718: 86 12        	stx	$12                     ; 0x2012 <f256main+0x1735>
     71a: ae 12 de     	ldx	$de12                   ; 0xde12 <__heap_start+0x7888>
     71d: 86 13        	stx	$13                     ; 0x2013 <f256main+0x1736>
     71f: ae 13 de     	ldx	$de13                   ; 0xde13 <__heap_start+0x7889>
     722: 86 14        	stx	$14                     ; 0x2014 <f256main+0x1737>
     724: 9c 95 5f     	stz	$5f95                   ; 0x5f95 <_active>
     727: a2 ff        	ldx	#$ff
     729: 8e 96 5f     	stx	$5f96                   ; 0x5f96 <_color>
     72c: a6 12        	ldx	$12                     ; 0x2012 <f256main+0x1735>
     72e: 86 15        	stx	$15                     ; 0x2015 <f256main+0x1738>
     730: 06 15        	asl	$15                     ; 0x2015 <f256main+0x1738>
     732: a5 13        	lda	$13                     ; 0x2013 <f256main+0x1736>
     734: 2a           	rol
     735: a6 14        	ldx	$14                     ; 0x2014 <f256main+0x1737>
     737: 86 16        	stx	$16                     ; 0x2016 <f256main+0x1739>
     739: 26 16        	rol	$16                     ; 0x2016 <f256main+0x1739>
     73b: 06 15        	asl	$15                     ; 0x2015 <f256main+0x1738>
     73d: 2a           	rol
     73e: 26 16        	rol	$16                     ; 0x2016 <f256main+0x1739>
     740: 06 15        	asl	$15                     ; 0x2015 <f256main+0x1738>
     742: 2a           	rol
     743: 26 16        	rol	$16                     ; 0x2016 <f256main+0x1739>
     745: 85 15        	sta	$15                     ; 0x2015 <f256main+0x1738>
     747: 8d 00 de     	sta	$de00                   ; 0xde00 <__heap_start+0x7876>
     74a: a5 16        	lda	$16                     ; 0x2016 <f256main+0x1739>
     74c: 8d 01 de     	sta	$de01                   ; 0xde01 <__heap_start+0x7877>
     74f: 9c 02 de     	stz	$de02                   ; 0xde02 <__heap_start+0x7878>
     752: a2 20        	ldx	#$20
     754: 8e 03 de     	stx	$de03                   ; 0xde03 <__heap_start+0x7879>
     757: ae 10 de     	ldx	$de10                   ; 0xde10 <__heap_start+0x7886>
     75a: 86 16        	stx	$16                     ; 0x2016 <f256main+0x1739>
     75c: ae 11 de     	ldx	$de11                   ; 0xde11 <__heap_start+0x7887>
     75f: 86 18        	stx	$18                     ; 0x2018 <f256main+0x173b>
     761: ac 12 de     	ldy	$de12                   ; 0xde12 <__heap_start+0x7888>
     764: ae 13 de     	ldx	$de13                   ; 0xde13 <__heap_start+0x7889>
     767: e4 14        	cpx	$14                     ; 0x2014 <f256main+0x1737>
     769: d0 14        	bne	$77f <f256Init+0x289>
     76b: c4 13        	cpy	$13                     ; 0x2013 <f256main+0x1736>
     76d: d0 10        	bne	$77f <f256Init+0x289>
     76f: a6 18        	ldx	$18                     ; 0x2018 <f256main+0x173b>
     771: e4 12        	cpx	$12                     ; 0x2012 <f256main+0x1735>
     773: d0 0a        	bne	$77f <f256Init+0x289>
     775: a6 16        	ldx	$16                     ; 0x2016 <f256main+0x1739>
     777: e4 17        	cpx	$17                     ; 0x2017 <f256main+0x173a>
     779: d0 04        	bne	$77f <f256Init+0x289>
     77b: a6 15        	ldx	$15                     ; 0x2015 <f256main+0x1738>
     77d: 80 06        	bra	$785 <f256Init+0x28f>
     77f: a6 15        	ldx	$15                     ; 0x2015 <f256main+0x1738>
     781: e8           	inx
     782: d0 01        	bne	$785 <f256Init+0x28f>
     784: 1a           	inc
     785: 8e 00 de     	stx	$de00                   ; 0xde00 <__heap_start+0x7876>
     788: 8d 01 de     	sta	$de01                   ; 0xde01 <__heap_start+0x7877>
     78b: 9c 02 de     	stz	$de02                   ; 0xde02 <__heap_start+0x7878>
     78e: a2 20        	ldx	#$20
     790: 8e 03 de     	stx	$de03                   ; 0xde03 <__heap_start+0x7879>
     793: ae 10 de     	ldx	$de10                   ; 0xde10 <__heap_start+0x7886>
     796: 86 12        	stx	$12                     ; 0x2012 <f256main+0x1735>
     798: ae 11 de     	ldx	$de11                   ; 0xde11 <__heap_start+0x7887>
     79b: 86 13        	stx	$13                     ; 0x2013 <f256main+0x1736>
     79d: ae 12 de     	ldx	$de12                   ; 0xde12 <__heap_start+0x7888>
     7a0: 86 14        	stx	$14                     ; 0x2014 <f256main+0x1737>
     7a2: ae 13 de     	ldx	$de13                   ; 0xde13 <__heap_start+0x7889>
     7a5: 86 15        	stx	$15                     ; 0x2015 <f256main+0x1738>
     7a7: a9 00        	lda	#$0
     7a9: 38           	sec
     7aa: e5 12        	sbc	$12                     ; 0x2012 <f256main+0x1735>
     7ac: 85 19        	sta	$19                     ; 0x2019 <f256main+0x173c>
     7ae: a9 00        	lda	#$0
     7b0: e5 13        	sbc	$13                     ; 0x2013 <f256main+0x1736>
     7b2: a8           	tay
     7b3: a9 08        	lda	#$8
     7b5: e5 14        	sbc	$14                     ; 0x2014 <f256main+0x1737>
     7b7: 85 17        	sta	$17                     ; 0x2017 <f256main+0x173a>
     7b9: a9 00        	lda	#$0
     7bb: e5 15        	sbc	$15                     ; 0x2015 <f256main+0x1738>
     7bd: aa           	tax
     7be: 8c 8a 5f     	sty	$5f8a                   ; 0x5f8a <_BITMAP_BASE+0x1>
     7c1: a5 17        	lda	$17                     ; 0x2017 <f256main+0x173a>
     7c3: 8d 8b 5f     	sta	$5f8b                   ; 0x5f8b <_BITMAP_BASE+0x2>
     7c6: 8e 8c 5f     	stx	$5f8c                   ; 0x5f8c <_BITMAP_BASE+0x3>
     7c9: 38           	sec
     7ca: a5 19        	lda	$19                     ; 0x2019 <f256main+0x173c>
     7cc: e5 12        	sbc	$12                     ; 0x2012 <f256main+0x1735>
     7ce: 85 18        	sta	$18                     ; 0x2018 <f256main+0x173b>
     7d0: 98           	tya
     7d1: e5 13        	sbc	$13                     ; 0x2013 <f256main+0x1736>
     7d3: 85 16        	sta	$16                     ; 0x2016 <f256main+0x1739>
     7d5: a5 17        	lda	$17                     ; 0x2017 <f256main+0x173a>
     7d7: e5 14        	sbc	$14                     ; 0x2014 <f256main+0x1737>
     7d9: 85 17        	sta	$17                     ; 0x2017 <f256main+0x173a>
     7db: 8a           	txa
     7dc: e5 15        	sbc	$15                     ; 0x2015 <f256main+0x1738>
     7de: 38           	sec
     7df: a4 18        	ldy	$18                     ; 0x2018 <f256main+0x173b>
     7e1: 8c 8d 5f     	sty	$5f8d                   ; 0x5f8d <_BITMAP_BASE+0x4>
     7e4: a4 16        	ldy	$16                     ; 0x2016 <f256main+0x1739>
     7e6: 8c 8e 5f     	sty	$5f8e                   ; 0x5f8e <_BITMAP_BASE+0x5>
     7e9: a4 17        	ldy	$17                     ; 0x2017 <f256main+0x173a>
     7eb: 8c 8f 5f     	sty	$5f8f                   ; 0x5f8f <_BITMAP_BASE+0x6>
     7ee: 8d 90 5f     	sta	$5f90                   ; 0x5f90 <_BITMAP_BASE+0x7>
     7f1: a8           	tay
     7f2: a5 18        	lda	$18                     ; 0x2018 <f256main+0x173b>
     7f4: e5 12        	sbc	$12                     ; 0x2012 <f256main+0x1735>
     7f6: 85 18        	sta	$18                     ; 0x2018 <f256main+0x173b>
     7f8: a5 16        	lda	$16                     ; 0x2016 <f256main+0x1739>
     7fa: e5 13        	sbc	$13                     ; 0x2013 <f256main+0x1736>
     7fc: 85 12        	sta	$12                     ; 0x2012 <f256main+0x1735>
     7fe: a5 17        	lda	$17                     ; 0x2017 <f256main+0x173a>
     800: e5 14        	sbc	$14                     ; 0x2014 <f256main+0x1737>
     802: aa           	tax
     803: 98           	tya
     804: e5 15        	sbc	$15                     ; 0x2015 <f256main+0x1738>
     806: a4 18        	ldy	$18                     ; 0x2018 <f256main+0x173b>
     808: 8c 91 5f     	sty	$5f91                   ; 0x5f91 <_BITMAP_BASE+0x8>
     80b: a4 12        	ldy	$12                     ; 0x2012 <f256main+0x1735>
     80d: 8c 92 5f     	sty	$5f92                   ; 0x5f92 <_BITMAP_BASE+0x9>
     810: 8e 93 5f     	stx	$5f93                   ; 0x5f93 <_BITMAP_BASE+0xa>
     813: 8d 94 5f     	sta	$5f94                   ; 0x5f94 <_BITMAP_BASE+0xb>
     816: a9 08        	lda	#$8
     818: a6 19        	ldx	$19                     ; 0x2019 <f256main+0x173c>
     81a: 8e 89 5f     	stx	$5f89                   ; 0x5f89 <_BITMAP_BASE>
     81d: 9c 97 5f     	stz	$5f97                   ; 0x5f97 <_BITMAP_CLUT.1>
     820: 8e 01 d1     	stx	$d101                   ; 0xd101 <__heap_start+0x6b77>
     823: ae 8a 5f     	ldx	$5f8a                   ; 0x5f8a <_BITMAP_BASE+0x1>
     826: 8e 02 d1     	stx	$d102                   ; 0xd102 <__heap_start+0x6b78>
     829: ae 8b 5f     	ldx	$5f8b                   ; 0x5f8b <_BITMAP_BASE+0x2>
     82c: 8e 03 d1     	stx	$d103                   ; 0xd103 <__heap_start+0x6b79>
     82f: ae 8d 5f     	ldx	$5f8d                   ; 0x5f8d <_BITMAP_BASE+0x4>
     832: 8e 09 d1     	stx	$d109                   ; 0xd109 <__heap_start+0x6b7f>
     835: ae 8e 5f     	ldx	$5f8e                   ; 0x5f8e <_BITMAP_BASE+0x5>
     838: 8e 0a d1     	stx	$d10a                   ; 0xd10a <__heap_start+0x6b80>
     83b: ae 8f 5f     	ldx	$5f8f                   ; 0x5f8f <_BITMAP_BASE+0x6>
     83e: 8e 0b d1     	stx	$d10b                   ; 0xd10b <__heap_start+0x6b81>
     841: ae 91 5f     	ldx	$5f91                   ; 0x5f91 <_BITMAP_BASE+0x8>
     844: 8e 11 d1     	stx	$d111                   ; 0xd111 <__heap_start+0x6b87>
     847: ae 92 5f     	ldx	$5f92                   ; 0x5f92 <_BITMAP_BASE+0x9>
     84a: 8e 12 d1     	stx	$d112                   ; 0xd112 <__heap_start+0x6b88>
     84d: ae 93 5f     	ldx	$5f93                   ; 0x5f93 <_BITMAP_BASE+0xa>
     850: 8e 13 d1     	stx	$d113                   ; 0xd113 <__heap_start+0x6b89>
     853: 9c 00 d1     	stz	$d100                   ; 0xd100 <__heap_start+0x6b76>
     856: 9c 08 d1     	stz	$d108                   ; 0xd108 <__heap_start+0x6b7e>
     859: 9c 10 d1     	stz	$d110                   ; 0xd110 <__heap_start+0x6b86>
     85c: 8d 98 5f     	sta	$5f98                   ; 0x5f98 <_tileSize.0>
     85f: a2 10        	ldx	#$10
     861: 8e 00 d2     	stx	$d200                   ; 0xd200 <__heap_start+0x6c76>
     864: 8e 0c d2     	stx	$d20c                   ; 0xd20c <__heap_start+0x6c82>
     867: 8e 18 d2     	stx	$d218                   ; 0xd218 <__heap_start+0x6c8e>
     86a: a0 d9        	ldy	#$d9
     86c: 64 12        	stz	$12                     ; 0x2012 <f256main+0x1735>
     86e: a2 00        	ldx	#$0
     870: 84 13        	sty	$13                     ; 0x2013 <f256main+0x1736>
     872: bd 99 5f     	lda	$5f99,x                 ; 0x5f99 <_spriteCtl>
     875: 92 12        	sta	($12)                   ; 0x2012 <f256main+0x1735>
     877: e8           	inx
     878: 18           	clc
     879: a5 12        	lda	$12                     ; 0x2012 <f256main+0x1735>
     87b: 69 08        	adc	#$8
     87d: 85 12        	sta	$12                     ; 0x2012 <f256main+0x1735>
     87f: 98           	tya
     880: 69 00        	adc	#$0
     882: a8           	tay
     883: e0 40        	cpx	#$40
     885: d0 e9        	bne	$870 <f256Init+0x37a>
     887: a2 5d        	ldx	#$5d
     889: a0 65        	ldy	#$65
     88b: 86 fb        	stx	$fb                     ; 0x20fb <f256main+0x181e>
     88d: 84 fc        	sty	$fc                     ; 0x20fc <f256main+0x181f>
     88f: a2 08        	ldx	#$8
     891: 86 fd        	stx	$fd                     ; 0x20fd <f256main+0x1820>
     893: a2 cc        	ldx	#$cc
     895: a0 00        	ldy	#$0
     897: 86 12        	stx	$12                     ; 0x2012 <f256main+0x1735>
     899: 84 13        	sty	$13                     ; 0x2013 <f256main+0x1736>
     89b: a2 88        	ldx	#$88
     89d: 86 14        	stx	$14                     ; 0x2014 <f256main+0x1737>
     89f: a2 5f        	ldx	#$5f
     8a1: 86 15        	stx	$15                     ; 0x2015 <f256main+0x1738>
     8a3: 20 dc ff     	jsr	$ffdc <__heap_start+0x9a52>
     8a6: 92 12        	sta	($12)                   ; 0x2012 <f256main+0x1735>
     8a8: a9 00        	lda	#$0
     8aa: 6a           	ror
     8ab: 85 14        	sta	$14                     ; 0x2014 <f256main+0x1737>
     8ad: ae 63 65     	ldx	$6563                   ; 0x6563 <__data_load_start+0x5db>
     8b0: ac 64 65     	ldy	$6564                   ; 0x6564 <__data_load_start+0x5dc>
     8b3: 8e 00 de     	stx	$de00                   ; 0xde00 <__heap_start+0x7876>
     8b6: 9c 01 de     	stz	$de01                   ; 0xde01 <__heap_start+0x7877>
     8b9: 8c 02 de     	sty	$de02                   ; 0xde02 <__heap_start+0x7878>
     8bc: 9c 03 de     	stz	$de03                   ; 0xde03 <__heap_start+0x7879>
     8bf: ae 10 de     	ldx	$de10                   ; 0xde10 <__heap_start+0x7886>
     8c2: ac 11 de     	ldy	$de11                   ; 0xde11 <__heap_start+0x7887>
     8c5: ad 12 de     	lda	$de12                   ; 0xde12 <__heap_start+0x7888>
     8c8: ad 13 de     	lda	$de13                   ; 0xde13 <__heap_start+0x7889>
     8cb: 8e a4 d6     	stx	$d6a4                   ; 0xd6a4 <__heap_start+0x711a>
     8ce: 8c a5 d6     	sty	$d6a5                   ; 0xd6a5 <__heap_start+0x711b>
     8d1: a2 03        	ldx	#$3
     8d3: 8e a6 d6     	stx	$d6a6                   ; 0xd6a6 <__heap_start+0x711c>
     8d6: 60           	rts

000008d7 <main>:
     8d7: 20 f6 04     	jsr	$4f6 <f256Init>
     8da: 20 dd 08     	jsr	$8dd <f256main>

000008dd <f256main>:
     8dd: 18           	clc
     8de: a5 10        	lda	$10                     ; 0x2010 <f256main+0x1733>
     8e0: 69 f0        	adc	#$f0
     8e2: 85 10        	sta	$10                     ; 0x2010 <f256main+0x1733>
     8e4: a5 11        	lda	$11                     ; 0x2011 <f256main+0x1734>
     8e6: 69 ff        	adc	#$ff
     8e8: 85 11        	sta	$11                     ; 0x2011 <f256main+0x1734>
     8ea: a2 80        	ldx	#$80
     8ec: 86 24        	stx	$24                     ; 0x2024 <f256main+0x1747>
     8ee: a2 d5        	ldx	#$d5
     8f0: 86 25        	stx	$25                     ; 0x2025 <f256main+0x1748>
     8f2: a2 82        	ldx	#$82
     8f4: 86 2a        	stx	$2a                     ; 0x202a <f256main+0x174d>
     8f6: a2 d5        	ldx	#$d5
     8f8: 86 2b        	stx	$2b                     ; 0x202b <f256main+0x174e>
     8fa: a2 00        	ldx	#$0
     8fc: 64 01        	stz	$1                      ; 0x2001 <f256main+0x1724>
     8fe: a0 3f        	ldy	#$3f
     900: 8c 00 d0     	sty	$d000                   ; 0xd000 <__heap_start+0x6a76>
     903: a0 04        	ldy	#$4
     905: 8c 01 d0     	sty	$d001                   ; 0xd001 <__heap_start+0x6a77>
     908: a0 14        	ldy	#$14
     90a: 8c 02 d0     	sty	$d002                   ; 0xd002 <__heap_start+0x6a78>
     90d: 9c 03 d0     	stz	$d003                   ; 0xd003 <__heap_start+0x6a79>
     910: 9c 0d d0     	stz	$d00d                   ; 0xd00d <__heap_start+0x6a83>
     913: 9c 0e d0     	stz	$d00e                   ; 0xd00e <__heap_start+0x6a84>
     916: 9c 0f d0     	stz	$d00f                   ; 0xd00f <__heap_start+0x6a85>
     919: a0 01        	ldy	#$1
     91b: 84 01        	sty	$1                      ; 0x2001 <f256main+0x1724>
     91d: a0 f0        	ldy	#$f0
     91f: 86 12        	stx	$12                     ; 0x2012 <f256main+0x1735>
     921: 84 13        	sty	$13                     ; 0x2013 <f256main+0x1736>
     923: a5 0f        	lda	$f                      ; 0x200f <f256main+0x1732>
     925: 85 15        	sta	$15                     ; 0x2015 <f256main+0x1738>
     927: 78           	sei
     928: 86 14        	stx	$14                     ; 0x2014 <f256main+0x1737>
     92a: a2 0a        	ldx	#$a
     92c: 86 0f        	stx	$f                      ; 0x200f <f256main+0x1732>
     92e: a6 14        	ldx	$14                     ; 0x2014 <f256main+0x1737>
     930: b2 12        	lda	($12)                   ; 0x2012 <f256main+0x1735>
     932: 85 14        	sta	$14                     ; 0x2014 <f256main+0x1737>
     934: a5 15        	lda	$15                     ; 0x2015 <f256main+0x1738>
     936: 85 0f        	sta	$f                      ; 0x200f <f256main+0x1732>
     938: 8a           	txa
     939: 18           	clc
     93a: 69 00        	adc	#$0
     93c: 85 12        	sta	$12                     ; 0x2012 <f256main+0x1735>
     93e: 98           	tya
     93f: 69 e0        	adc	#$e0
     941: 58           	cli
     942: 85 13        	sta	$13                     ; 0x2013 <f256main+0x1736>
     944: a5 14        	lda	$14                     ; 0x2014 <f256main+0x1737>
     946: 92 12        	sta	($12)                   ; 0x2012 <f256main+0x1735>
     948: e8           	inx
     949: d0 01        	bne	$94c <f256main+0x6f>
     94b: c8           	iny
     94c: c0 f3        	cpy	#$f3
     94e: d0 cf        	bne	$91f <f256main+0x42>
     950: e0 ff        	cpx	#$ff
     952: d0 cb        	bne	$91f <f256main+0x42>
     954: a2 d4        	ldx	#$d4
     956: a0 00        	ldy	#$0
     958: 18           	clc
     959: 84 17        	sty	$17                     ; 0x2017 <f256main+0x173a>
     95b: 98           	tya
     95c: 69 00        	adc	#$0
     95e: 85 14        	sta	$14                     ; 0x2014 <f256main+0x1737>
     960: 8a           	txa
     961: 69 0c        	adc	#$c
     963: 85 15        	sta	$15                     ; 0x2015 <f256main+0x1738>
     965: 84 12        	sty	$12                     ; 0x2012 <f256main+0x1735>
     967: 86 13        	stx	$13                     ; 0x2013 <f256main+0x1736>
     969: a4 0f        	ldy	$f                      ; 0x200f <f256main+0x1732>
     96b: 78           	sei
     96c: a9 18        	lda	#$18
     96e: 85 0f        	sta	$f                      ; 0x200f <f256main+0x1732>
     970: b2 14        	lda	($14)                   ; 0x2014 <f256main+0x1737>
     972: 84 0f        	sty	$f                      ; 0x200f <f256main+0x1732>
     974: 58           	cli
     975: 92 12        	sta	($12)                   ; 0x2012 <f256main+0x1735>
     977: a4 17        	ldy	$17                     ; 0x2017 <f256main+0x173a>
     979: c8           	iny
     97a: d0 01        	bne	$97d <f256main+0xa0>
     97c: e8           	inx
     97d: e0 d7        	cpx	#$d7
     97f: d0 d7        	bne	$958 <f256main+0x7b>
     981: c0 ff        	cpy	#$ff
     983: d0 d3        	bne	$958 <f256main+0x7b>
     985: 64 01        	stz	$1                      ; 0x2001 <f256main+0x1724>
     987: 9c 95 5f     	stz	$5f95                   ; 0x5f95 <_active>
     98a: ad 00 d1     	lda	$d100                   ; 0xd100 <__heap_start+0x6b76>
     98d: 29 f9        	and	#$f9
     98f: 8d 00 d1     	sta	$d100                   ; 0xd100 <__heap_start+0x6b76>
     992: a2 03        	ldx	#$3
     994: 8e 96 5f     	stx	$5f96                   ; 0x5f96 <_color>
     997: 20 5f 3c     	jsr	$3c5f <bitmapClear>
     99a: a2 01        	ldx	#$1
     99c: 8e 95 5f     	stx	$5f95                   ; 0x5f95 <_active>
     99f: 8e 97 5f     	stx	$5f97                   ; 0x5f97 <_BITMAP_CLUT.1>
     9a2: ad 08 d1     	lda	$d108                   ; 0xd108 <__heap_start+0x6b7e>
     9a5: 29 f9        	and	#$f9
     9a7: 09 02        	ora	#$2
     9a9: 8d 08 d1     	sta	$d108                   ; 0xd108 <__heap_start+0x6b7e>
     9ac: 20 5f 3c     	jsr	$3c5f <bitmapClear>
     9af: 9c 8d 5f     	stz	$5f8d                   ; 0x5f8d <_BITMAP_BASE+0x4>
     9b2: a2 04        	ldx	#$4
     9b4: 8e 8e 5f     	stx	$5f8e                   ; 0x5f8e <_BITMAP_BASE+0x5>
     9b7: a0 03        	ldy	#$3
     9b9: 8c 8f 5f     	sty	$5f8f                   ; 0x5f8f <_BITMAP_BASE+0x6>
     9bc: 9c 90 5f     	stz	$5f90                   ; 0x5f90 <_BITMAP_BASE+0x7>
     9bf: 9c 09 d1     	stz	$d109                   ; 0xd109 <__heap_start+0x6b7f>
     9c2: 8e 0a d1     	stx	$d10a                   ; 0xd10a <__heap_start+0x6b80>
     9c5: ca           	dex
     9c6: 8e 0b d1     	stx	$d10b                   ; 0xd10b <__heap_start+0x6b81>
     9c9: a0 01        	ldy	#$1
     9cb: 8c 00 d1     	sty	$d100                   ; 0xd100 <__heap_start+0x6b76>
     9ce: ad 97 5f     	lda	$5f97                   ; 0x5f97 <_BITMAP_CLUT.1>
     9d1: 29 01        	and	#$1
     9d3: d0 02        	bne	$9d7 <f256main+0xfa>
     9d5: a2 01        	ldx	#$1
     9d7: 8e 08 d1     	stx	$d108                   ; 0xd108 <__heap_start+0x6b7e>
     9da: 9c 10 d1     	stz	$d110                   ; 0xd110 <__heap_start+0x6b86>
     9dd: a2 10        	ldx	#$10
     9df: 8e 98 5f     	stx	$5f98                   ; 0x5f98 <_tileSize.0>
     9e2: 9c 01 d2     	stz	$d201                   ; 0xd201 <__heap_start+0x6c77>
     9e5: a0 54        	ldy	#$54
     9e7: 8c 02 d2     	sty	$d202                   ; 0xd202 <__heap_start+0x6c78>
     9ea: a9 01        	lda	#$1
     9ec: 8d 03 d2     	sta	$d203                   ; 0xd203 <__heap_start+0x6c79>
     9ef: a0 14        	ldy	#$14
     9f1: 8c 04 d2     	sty	$d204                   ; 0xd204 <__heap_start+0x6c7a>
     9f4: 9c 05 d2     	stz	$d205                   ; 0xd205 <__heap_start+0x6c7b>
     9f7: 8e 06 d2     	stx	$d206                   ; 0xd206 <__heap_start+0x6c7c>
     9fa: 9c 07 d2     	stz	$d207                   ; 0xd207 <__heap_start+0x6c7d>
     9fd: 9c 08 d2     	stz	$d208                   ; 0xd208 <__heap_start+0x6c7e>
     a00: 9c 09 d2     	stz	$d209                   ; 0xd209 <__heap_start+0x6c7f>
     a03: 9c 0a d2     	stz	$d20a                   ; 0xd20a <__heap_start+0x6c80>
     a06: 9c 0b d2     	stz	$d20b                   ; 0xd20b <__heap_start+0x6c81>
     a09: 9c 80 d2     	stz	$d280                   ; 0xd280 <__heap_start+0x6cf6>
     a0c: 9c 81 d2     	stz	$d281                   ; 0xd281 <__heap_start+0x6cf7>
     a0f: 8d 82 d2     	sta	$d282                   ; 0xd282 <__heap_start+0x6cf8>
     a12: 9c 83 d2     	stz	$d283                   ; 0xd283 <__heap_start+0x6cf9>
     a15: ac 98 5f     	ldy	$5f98                   ; 0x5f98 <_tileSize.0>
     a18: e8           	inx
     a19: c0 08        	cpy	#$8
     a1b: f0 02        	beq	$a1f <f256main+0x142>
     a1d: a2 01        	ldx	#$1
     a1f: 8e 00 d2     	stx	$d200                   ; 0xd200 <__heap_start+0x6c76>
     a22: 9c 08 d2     	stz	$d208                   ; 0xd208 <__heap_start+0x6c7e>
     a25: 9c 09 d2     	stz	$d209                   ; 0xd209 <__heap_start+0x6c7f>
     a28: a2 04        	ldx	#$4
     a2a: 8e 0a d2     	stx	$d20a                   ; 0xd20a <__heap_start+0x6c80>
     a2d: 9c 0b d2     	stz	$d20b                   ; 0xd20b <__heap_start+0x6c81>
     a30: a0 00        	ldy	#$0
     a32: 98           	tya
     a33: aa           	tax
     a34: 86 16        	stx	$16                     ; 0x2016 <f256main+0x1739>
     a36: a2 14        	ldx	#$14
     a38: 84 14        	sty	$14                     ; 0x2014 <f256main+0x1737>
     a3a: 84 12        	sty	$12                     ; 0x2012 <f256main+0x1735>
     a3c: 85 15        	sta	$15                     ; 0x2015 <f256main+0x1738>
     a3e: 85 17        	sta	$17                     ; 0x2017 <f256main+0x173a>
     a40: a4 12        	ldy	$12                     ; 0x2012 <f256main+0x1735>
     a42: 84 18        	sty	$18                     ; 0x2018 <f256main+0x173b>
     a44: a5 12        	lda	$12                     ; 0x2012 <f256main+0x1735>
     a46: 18           	clc
     a47: 69 00        	adc	#$0
     a49: 85 1a        	sta	$1a                     ; 0x201a <f256main+0x173d>
     a4b: a5 17        	lda	$17                     ; 0x2017 <f256main+0x173a>
     a4d: 69 54        	adc	#$54
     a4f: 85 13        	sta	$13                     ; 0x2013 <f256main+0x1736>
     a51: a9 00        	lda	#$0
     a53: 69 01        	adc	#$1
     a55: a4 13        	ldy	$13                     ; 0x2013 <f256main+0x1736>
     a57: 84 12        	sty	$12                     ; 0x2012 <f256main+0x1735>
     a59: 06 12        	asl	$12                     ; 0x2012 <f256main+0x1735>
     a5b: 2a           	rol
     a5c: 06 12        	asl	$12                     ; 0x2012 <f256main+0x1735>
     a5e: 2a           	rol
     a5f: 06 12        	asl	$12                     ; 0x2012 <f256main+0x1735>
     a61: 2a           	rol
     a62: a4 0f        	ldy	$f                      ; 0x200f <f256main+0x1732>
     a64: 84 19        	sty	$19                     ; 0x2019 <f256main+0x173c>
     a66: 78           	sei
     a67: 85 0f        	sta	$f                      ; 0x200f <f256main+0x1732>
     a69: a4 1a        	ldy	$1a                     ; 0x201a <f256main+0x173d>
     a6b: 84 12        	sty	$12                     ; 0x2012 <f256main+0x1735>
     a6d: a5 13        	lda	$13                     ; 0x2013 <f256main+0x1736>
     a6f: 09 e0        	ora	#$e0
     a71: 85 13        	sta	$13                     ; 0x2013 <f256main+0x1736>
     a73: a9 3f        	lda	#$3f
     a75: 92 12        	sta	($12)                   ; 0x2012 <f256main+0x1735>
     a77: a0 01        	ldy	#$1
     a79: a9 00        	lda	#$0
     a7b: 91 12        	sta	($12),y                 ; 0x2012 <f256main+0x1735>
     a7d: a4 19        	ldy	$19                     ; 0x2019 <f256main+0x173c>
     a7f: 84 0f        	sty	$f                      ; 0x200f <f256main+0x1732>
     a81: 58           	cli
     a82: 18           	clc
     a83: a5 18        	lda	$18                     ; 0x2018 <f256main+0x173b>
     a85: 69 02        	adc	#$2
     a87: 85 12        	sta	$12                     ; 0x2012 <f256main+0x1735>
     a89: a5 17        	lda	$17                     ; 0x2017 <f256main+0x173a>
     a8b: 69 00        	adc	#$0
     a8d: 85 17        	sta	$17                     ; 0x2017 <f256main+0x173a>
     a8f: ca           	dex
     a90: f0 03        	beq	$a95 <f256main+0x1b8>
     a92: 4c 40 0a     	jmp	$a40 <f256main+0x163>
     a95: a6 16        	ldx	$16                     ; 0x2016 <f256main+0x1739>
     a97: e8           	inx
     a98: 18           	clc
     a99: a5 14        	lda	$14                     ; 0x2014 <f256main+0x1737>
     a9b: 69 28        	adc	#$28
     a9d: a8           	tay
     a9e: a5 15        	lda	$15                     ; 0x2015 <f256main+0x1738>
     aa0: 69 00        	adc	#$0
     aa2: e0 10        	cpx	#$10
     aa4: f0 03        	beq	$aa9 <f256main+0x1cc>
     aa6: 4c 34 0a     	jmp	$a34 <f256main+0x157>
     aa9: a2 d4        	ldx	#$d4
     aab: a0 00        	ldy	#$0
     aad: 18           	clc
     aae: 98           	tya
     aaf: 69 00        	adc	#$0
     ab1: 85 14        	sta	$14                     ; 0x2014 <f256main+0x1737>
     ab3: 8a           	txa
     ab4: 69 01        	adc	#$1
     ab6: 85 15        	sta	$15                     ; 0x2015 <f256main+0x1738>
     ab8: 84 12        	sty	$12                     ; 0x2012 <f256main+0x1735>
     aba: 86 13        	stx	$13                     ; 0x2013 <f256main+0x1736>
     abc: a9 00        	lda	#$0
     abe: 92 12        	sta	($12)                   ; 0x2012 <f256main+0x1735>
     ac0: 5a           	phy
     ac1: a4 14        	ldy	$14                     ; 0x2014 <f256main+0x1737>
     ac3: 84 12        	sty	$12                     ; 0x2012 <f256main+0x1735>
     ac5: a4 15        	ldy	$15                     ; 0x2015 <f256main+0x1738>
     ac7: 84 13        	sty	$13                     ; 0x2013 <f256main+0x1736>
     ac9: 7a           	ply
     aca: 92 12        	sta	($12)                   ; 0x2012 <f256main+0x1735>
     acc: c8           	iny
     acd: d0 01        	bne	$ad0 <f256main+0x1f3>
     acf: e8           	inx
     ad0: c0 19        	cpy	#$19
     ad2: d0 d9        	bne	$aad <f256main+0x1d0>
     ad4: a2 00        	ldx	#$0
     ad6: a0 e5        	ldy	#$e5
     ad8: 84 12        	sty	$12                     ; 0x2012 <f256main+0x1735>
     ada: a0 5e        	ldy	#$5e
     adc: 84 13        	sty	$13                     ; 0x2013 <f256main+0x1736>
     ade: a5 12        	lda	$12                     ; 0x2012 <f256main+0x1735>
     ae0: a0 05        	ldy	#$5
     ae2: 91 10        	sta	($10),y                 ; 0x2010 <f256main+0x1733>
     ae4: a5 13        	lda	$13                     ; 0x2013 <f256main+0x1736>
     ae6: c8           	iny
     ae7: 91 10        	sta	($10),y                 ; 0x2010 <f256main+0x1733>
     ae9: 88           	dey
     aea: b1 10        	lda	($10),y                 ; 0x2010 <f256main+0x1733>
     aec: 85 12        	sta	$12                     ; 0x2012 <f256main+0x1735>
     aee: c8           	iny
     aef: b1 10        	lda	($10),y                 ; 0x2010 <f256main+0x1733>
     af1: 85 13        	sta	$13                     ; 0x2013 <f256main+0x1736>
     af3: 86 26        	stx	$26                     ; 0x2026 <f256main+0x1749>
     af5: a9 00        	lda	#$0
     af7: 20 5f 46     	jsr	$465f <sid_setInstrument>
     afa: a0 05        	ldy	#$5
     afc: b1 10        	lda	($10),y                 ; 0x2010 <f256main+0x1733>
     afe: 85 12        	sta	$12                     ; 0x2012 <f256main+0x1735>
     b00: c8           	iny
     b01: b1 10        	lda	($10),y                 ; 0x2010 <f256main+0x1733>
     b03: 85 13        	sta	$13                     ; 0x2013 <f256main+0x1736>
     b05: a6 26        	ldx	$26                     ; 0x2026 <f256main+0x1749>
     b07: a9 01        	lda	#$1
     b09: 20 5f 46     	jsr	$465f <sid_setInstrument>
     b0c: a6 26        	ldx	$26                     ; 0x2026 <f256main+0x1749>
     b0e: e8           	inx
     b0f: e0 03        	cpx	#$3
     b11: d0 c3        	bne	$ad6 <f256main+0x1f9>
     b13: 9c 14 d4     	stz	$d414                   ; 0xd414 <__heap_start+0x6e8a>
     b16: 9c 15 d4     	stz	$d415                   ; 0xd415 <__heap_start+0x6e8b>
     b19: 9c 17 d4     	stz	$d417                   ; 0xd417 <__heap_start+0x6e8d>
     b1c: a2 0f        	ldx	#$f
     b1e: 8e 18 d4     	stx	$d418                   ; 0xd418 <__heap_start+0x6e8e>
     b21: 9c 14 d5     	stz	$d514                   ; 0xd514 <__heap_start+0x6f8a>
     b24: 9c 15 d5     	stz	$d515                   ; 0xd515 <__heap_start+0x6f8b>
     b27: 9c 17 d5     	stz	$d517                   ; 0xd517 <__heap_start+0x6f8d>
     b2a: 8e 18 d5     	stx	$d518                   ; 0xd518 <__heap_start+0x6f8e>
     b2d: ad a1 d6     	lda	$d6a1                   ; 0xd6a1 <__heap_start+0x7117>
     b30: 29 f7        	and	#$f7
     b32: 8d a1 d6     	sta	$d6a1                   ; 0xd6a1 <__heap_start+0x7117>
     b35: ad a1 d6     	lda	$d6a1                   ; 0xd6a1 <__heap_start+0x7117>
     b38: 29 fb        	and	#$fb
     b3a: 8d a1 d6     	sta	$d6a1                   ; 0xd6a1 <__heap_start+0x7117>
     b3d: a2 01        	ldx	#$1
     b3f: 8e 80 d5     	stx	$d580                   ; 0xd580 <__heap_start+0x6ff6>
     b42: a0 20        	ldy	#$20
     b44: 8c 81 d5     	sty	$d581                   ; 0xd581 <__heap_start+0x6ff7>
     b47: a0 02        	ldy	#$2
     b49: 8c 80 d5     	sty	$d580                   ; 0xd580 <__heap_start+0x6ff6>
     b4c: 9c 81 d5     	stz	$d581                   ; 0xd581 <__heap_start+0x6ff7>
     b4f: c8           	iny
     b50: 8c 80 d5     	sty	$d580                   ; 0xd580 <__heap_start+0x6ff6>
     b53: 9c 81 d5     	stz	$d581                   ; 0xd581 <__heap_start+0x6ff7>
     b56: c8           	iny
     b57: 8c 82 d5     	sty	$d582                   ; 0xd582 <__heap_start+0x6ff8>
     b5a: 9c 81 d5     	stz	$d581                   ; 0xd581 <__heap_start+0x6ff7>
     b5d: c8           	iny
     b5e: 8c 82 d5     	sty	$d582                   ; 0xd582 <__heap_start+0x6ff8>
     b61: 8e 81 d5     	stx	$d581                   ; 0xd581 <__heap_start+0x6ff7>
     b64: a2 08        	ldx	#$8
     b66: 8e 80 d5     	stx	$d580                   ; 0xd580 <__heap_start+0x6ff6>
     b69: 9c 81 d5     	stz	$d581                   ; 0xd581 <__heap_start+0x6ff7>
     b6c: a2 c0        	ldx	#$c0
     b6e: a0 30        	ldy	#$30
     b70: 8e 80 d5     	stx	$d580                   ; 0xd580 <__heap_start+0x6ff6>
     b73: 8c 81 d5     	sty	$d581                   ; 0xd581 <__heap_start+0x6ff7>
     b76: e8           	inx
     b77: e0 c9        	cpx	#$c9
     b79: d0 f5        	bne	$b70 <f256main+0x293>
     b7b: a2 b0        	ldx	#$b0
     b7d: 8e 80 d5     	stx	$d580                   ; 0xd580 <__heap_start+0x6ff6>
     b80: 9c 81 d5     	stz	$d581                   ; 0xd581 <__heap_start+0x6ff7>
     b83: e8           	inx
     b84: e0 b9        	cpx	#$b9
     b86: d0 f5        	bne	$b7d <f256main+0x2a0>
     b88: a2 00        	ldx	#$0
     b8a: 4c 2b 0c     	jmp	$c2b <f256main+0x34e>
     b8d: 18           	clc
     b8e: 69 05        	adc	#$5
     b90: a8           	tay
     b91: 09 20        	ora	#$20
     b93: 8d 80 d5     	sta	$d580                   ; 0xd580 <__heap_start+0x6ff6>
     b96: a9 c0        	lda	#$c0
     b98: 8d 81 d5     	sta	$d581                   ; 0xd581 <__heap_start+0x6ff7>
     b9b: 18           	clc
     b9c: 98           	tya
     b9d: 69 03        	adc	#$3
     b9f: c0 fd        	cpy	#$fd
     ba1: 85 15        	sta	$15                     ; 0x2015 <f256main+0x1738>
     ba3: 09 20        	ora	#$20
     ba5: 5a           	phy
     ba6: a0 80        	ldy	#$80
     ba8: 84 12        	sty	$12                     ; 0x2012 <f256main+0x1735>
     baa: a0 d5        	ldy	#$d5
     bac: 84 13        	sty	$13                     ; 0x2013 <f256main+0x1736>
     bae: 7a           	ply
     baf: 90 0a        	bcc	$bbb <f256main+0x2de>
     bb1: 5a           	phy
     bb2: a0 82        	ldy	#$82
     bb4: 84 12        	sty	$12                     ; 0x2012 <f256main+0x1735>
     bb6: a0 d5        	ldy	#$d5
     bb8: 84 13        	sty	$13                     ; 0x2013 <f256main+0x1736>
     bba: 7a           	ply
     bbb: 92 12        	sta	($12)                   ; 0x2012 <f256main+0x1735>
     bbd: a9 21        	lda	#$21
     bbf: 8d 81 d5     	sta	$d581                   ; 0xd581 <__heap_start+0x6ff7>
     bc2: 98           	tya
     bc3: 09 40        	ora	#$40
     bc5: 8d 80 d5     	sta	$d580                   ; 0xd580 <__heap_start+0x6ff6>
     bc8: a9 15        	lda	#$15
     bca: 8d 81 d5     	sta	$d581                   ; 0xd581 <__heap_start+0x6ff7>
     bcd: a5 15        	lda	$15                     ; 0x2015 <f256main+0x1738>
     bcf: 09 40        	ora	#$40
     bd1: 92 12        	sta	($12)                   ; 0x2012 <f256main+0x1735>
     bd3: a9 01        	lda	#$1
     bd5: 8d 81 d5     	sta	$d581                   ; 0xd581 <__heap_start+0x6ff7>
     bd8: 98           	tya
     bd9: 09 60        	ora	#$60
     bdb: 8d 80 d5     	sta	$d580                   ; 0xd580 <__heap_start+0x6ff6>
     bde: a9 f2        	lda	#$f2
     be0: 8d 81 d5     	sta	$d581                   ; 0xd581 <__heap_start+0x6ff7>
     be3: a5 15        	lda	$15                     ; 0x2015 <f256main+0x1738>
     be5: 09 60        	ora	#$60
     be7: 92 12        	sta	($12)                   ; 0x2012 <f256main+0x1735>
     be9: a9 f4        	lda	#$f4
     beb: 8d 81 d5     	sta	$d581                   ; 0xd581 <__heap_start+0x6ff7>
     bee: 98           	tya
     bef: 09 80        	ora	#$80
     bf1: 8d 80 d5     	sta	$d580                   ; 0xd580 <__heap_start+0x6ff6>
     bf4: a9 40        	lda	#$40
     bf6: 8d 81 d5     	sta	$d581                   ; 0xd581 <__heap_start+0x6ff7>
     bf9: a5 15        	lda	$15                     ; 0x2015 <f256main+0x1738>
     bfb: 09 80        	ora	#$80
     bfd: 92 12        	sta	($12)                   ; 0x2012 <f256main+0x1735>
     bff: a9 25        	lda	#$25
     c01: 8d 81 d5     	sta	$d581                   ; 0xd581 <__heap_start+0x6ff7>
     c04: 98           	tya
     c05: 09 e0        	ora	#$e0
     c07: 8d 80 d5     	sta	$d580                   ; 0xd580 <__heap_start+0x6ff6>
     c0a: a9 07        	lda	#$7
     c0c: 8d 81 d5     	sta	$d581                   ; 0xd581 <__heap_start+0x6ff7>
     c0f: a5 15        	lda	$15                     ; 0x2015 <f256main+0x1738>
     c11: 09 e0        	ora	#$e0
     c13: 92 12        	sta	($12)                   ; 0x2012 <f256main+0x1735>
     c15: 8a           	txa
     c16: 18           	clc
     c17: 69 c0        	adc	#$c0
     c19: a0 04        	ldy	#$4
     c1b: 8c 81 d5     	sty	$d581                   ; 0xd581 <__heap_start+0x6ff7>
     c1e: 8d 80 d5     	sta	$d580                   ; 0xd580 <__heap_start+0x6ff6>
     c21: a0 30        	ldy	#$30
     c23: 8c 81 d5     	sty	$d581                   ; 0xd581 <__heap_start+0x6ff7>
     c26: e8           	inx
     c27: e0 09        	cpx	#$9
     c29: f0 16        	beq	$c41 <f256main+0x364>
     c2b: e0 03        	cpx	#$3
     c2d: 8a           	txa
     c2e: b0 03        	bcs	$c33 <f256main+0x356>
     c30: 4c 90 0b     	jmp	$b90 <f256main+0x2b3>
     c33: 8a           	txa
     c34: e0 06        	cpx	#$6
     c36: b0 03        	bcs	$c3b <f256main+0x35e>
     c38: 4c 8d 0b     	jmp	$b8d <f256main+0x2b0>
     c3b: 18           	clc
     c3c: 69 0a        	adc	#$a
     c3e: 4c 90 0b     	jmp	$b90 <f256main+0x2b3>
     c41: a2 01        	ldx	#$1
     c43: 8e e0 d6     	stx	$d6e0                   ; 0xd6e0 <__heap_start+0x7156>
     c46: 64 24        	stz	$24                     ; 0x2024 <f256main+0x1747>
     c48: 9c e2 d6     	stz	$d6e2                   ; 0xd6e2 <__heap_start+0x7158>
     c4b: 8e e3 d6     	stx	$d6e3                   ; 0xd6e3 <__heap_start+0x7159>
     c4e: 9c e4 d6     	stz	$d6e4                   ; 0xd6e4 <__heap_start+0x715a>
     c51: 8e e5 d6     	stx	$d6e5                   ; 0xd6e5 <__heap_start+0x715b>
     c54: a9 11        	lda	#$11
     c56: ca           	dex
     c57: 20 8d 56     	jsr	$568d <malloc>
     c5a: a6 12        	ldx	$12                     ; 0x2012 <f256main+0x1735>
     c5c: a4 13        	ldy	$13                     ; 0x2013 <f256main+0x1736>
     c5e: 86 ca        	stx	$ca                     ; 0x20ca <f256main+0x17ed>
     c60: 84 cb        	sty	$cb                     ; 0x20cb <f256main+0x17ee>
     c62: a9 00        	lda	#$0
     c64: 92 12        	sta	($12)                   ; 0x2012 <f256main+0x1735>
     c66: a0 01        	ldy	#$1
     c68: 91 12        	sta	($12),y                 ; 0x2012 <f256main+0x1735>
     c6a: c8           	iny
     c6b: 91 12        	sta	($12),y                 ; 0x2012 <f256main+0x1735>
     c6d: c8           	iny
     c6e: 91 12        	sta	($12),y                 ; 0x2012 <f256main+0x1735>
     c70: aa           	tax
     c71: a9 0b        	lda	#$b
     c73: 20 8d 56     	jsr	$568d <malloc>
     c76: a5 ca        	lda	$ca                     ; 0x20ca <f256main+0x17ed>
     c78: 85 14        	sta	$14                     ; 0x2014 <f256main+0x1737>
     c7a: a4 cb        	ldy	$cb                     ; 0x20cb <f256main+0x17ee>
     c7c: 84 15        	sty	$15                     ; 0x2015 <f256main+0x1738>
     c7e: 18           	clc
     c7f: 69 04        	adc	#$4
     c81: 85 16        	sta	$16                     ; 0x2016 <f256main+0x1739>
     c83: 98           	tya
     c84: 69 00        	adc	#$0
     c86: 85 17        	sta	$17                     ; 0x2017 <f256main+0x173a>
     c88: a5 13        	lda	$13                     ; 0x2013 <f256main+0x1736>
     c8a: a0 01        	ldy	#$1
     c8c: 91 16        	sta	($16),y                 ; 0x2016 <f256main+0x1739>
     c8e: a9 8b        	lda	#$8b
     c90: 91 12        	sta	($12),y                 ; 0x2012 <f256main+0x1735>
     c92: a9 34        	lda	#$34
     c94: a0 06        	ldy	#$6
     c96: 91 12        	sta	($12),y                 ; 0x2012 <f256main+0x1735>
     c98: a9 55        	lda	#$55
     c9a: a0 09        	ldy	#$9
     c9c: 91 12        	sta	($12),y                 ; 0x2012 <f256main+0x1735>
     c9e: a9 02        	lda	#$2
     ca0: a8           	tay
     ca1: 91 12        	sta	($12),y                 ; 0x2012 <f256main+0x1735>
     ca3: 3a           	dec
     ca4: c8           	iny
     ca5: 91 14        	sta	($14),y                 ; 0x2014 <f256main+0x1737>
     ca7: a9 19        	lda	#$19
     ca9: 91 12        	sta	($12),y                 ; 0x2012 <f256main+0x1735>
     cab: a5 12        	lda	$12                     ; 0x2012 <f256main+0x1735>
     cad: c8           	iny
     cae: 91 14        	sta	($14),y                 ; 0x2014 <f256main+0x1737>
     cb0: a9 23        	lda	#$23
     cb2: 91 12        	sta	($12),y                 ; 0x2012 <f256main+0x1735>
     cb4: a0 07        	ldy	#$7
     cb6: a9 01        	lda	#$1
     cb8: 91 12        	sta	($12),y                 ; 0x2012 <f256main+0x1735>
     cba: a0 0a        	ldy	#$a
     cbc: 91 12        	sta	($12),y                 ; 0x2012 <f256main+0x1735>
     cbe: a0 05        	ldy	#$5
     cc0: a9 20        	lda	#$20
     cc2: 91 12        	sta	($12),y                 ; 0x2012 <f256main+0x1735>
     cc4: a0 08        	ldy	#$8
     cc6: 91 12        	sta	($12),y                 ; 0x2012 <f256main+0x1735>
     cc8: a9 0f        	lda	#$f
     cca: 92 12        	sta	($12)                   ; 0x2012 <f256main+0x1735>
     ccc: 64 12        	stz	$12                     ; 0x2012 <f256main+0x1735>
     cce: a2 00        	ldx	#$0
     cd0: a4 12        	ldy	$12                     ; 0x2012 <f256main+0x1735>
     cd2: 84 1c        	sty	$1c                     ; 0x201c <f256main+0x173f>
     cd4: 8a           	txa
     cd5: 25 24        	and	$24                     ; 0x2024 <f256main+0x1747>
     cd7: d0 03        	bne	$cdc <f256main+0x3ff>
     cd9: 4c 40 0d     	jmp	$d40 <f256main+0x463>
     cdc: a4 12        	ldy	$12                     ; 0x2012 <f256main+0x1735>
     cde: b9 7d 5f     	lda	$5f7d,y                 ; 0x5f7d <chipMap+0x1>
     ce1: 85 12        	sta	$12                     ; 0x2012 <f256main+0x1735>
     ce3: b5 8e        	lda	$8e,x                   ; 0x208e <f256main+0x17b1>
     ce5: 18           	clc
     ce6: 79 7c 5f     	adc	$5f7c,y                 ; 0x5f7c <chipMap>
     ce9: 85 1a        	sta	$1a                     ; 0x201a <f256main+0x173d>
     ceb: a5 12        	lda	$12                     ; 0x2012 <f256main+0x1735>
     ced: 69 00        	adc	#$0
     cef: a8           	tay
     cf0: a5 1a        	lda	$1a                     ; 0x201a <f256main+0x173d>
     cf2: 18           	clc
     cf3: 69 05        	adc	#$5
     cf5: 85 12        	sta	$12                     ; 0x2012 <f256main+0x1735>
     cf7: 98           	tya
     cf8: 69 00        	adc	#$0
     cfa: 85 13        	sta	$13                     ; 0x2013 <f256main+0x1736>
     cfc: a5 1a        	lda	$1a                     ; 0x201a <f256main+0x173d>
     cfe: 18           	clc
     cff: 69 06        	adc	#$6
     d01: 85 14        	sta	$14                     ; 0x2014 <f256main+0x1737>
     d03: 98           	tya
     d04: 69 00        	adc	#$0
     d06: 85 15        	sta	$15                     ; 0x2015 <f256main+0x1738>
     d08: a5 1a        	lda	$1a                     ; 0x201a <f256main+0x173d>
     d0a: 18           	clc
     d0b: 69 04        	adc	#$4
     d0d: 85 16        	sta	$16                     ; 0x2016 <f256main+0x1739>
     d0f: 98           	tya
     d10: 69 00        	adc	#$0
     d12: 85 17        	sta	$17                     ; 0x2017 <f256main+0x173a>
     d14: a5 1a        	lda	$1a                     ; 0x201a <f256main+0x173d>
     d16: 18           	clc
     d17: 69 02        	adc	#$2
     d19: 85 18        	sta	$18                     ; 0x2018 <f256main+0x173b>
     d1b: 98           	tya
     d1c: 69 00        	adc	#$0
     d1e: 85 19        	sta	$19                     ; 0x2019 <f256main+0x173c>
     d20: 18           	clc
     d21: a5 1a        	lda	$1a                     ; 0x201a <f256main+0x173d>
     d23: 69 03        	adc	#$3
     d25: 85 1a        	sta	$1a                     ; 0x201a <f256main+0x173d>
     d27: 98           	tya
     d28: 69 00        	adc	#$0
     d2a: 85 1b        	sta	$1b                     ; 0x201b <f256main+0x173e>
     d2c: a9 19        	lda	#$19
     d2e: 92 12        	sta	($12)                   ; 0x2012 <f256main+0x1735>
     d30: a9 23        	lda	#$23
     d32: 92 14        	sta	($14)                   ; 0x2014 <f256main+0x1737>
     d34: a9 20        	lda	#$20
     d36: 92 16        	sta	($16)                   ; 0x2016 <f256main+0x1739>
     d38: a9 8b        	lda	#$8b
     d3a: 92 18        	sta	($18)                   ; 0x2018 <f256main+0x173b>
     d3c: a9 02        	lda	#$2
     d3e: 92 1a        	sta	($1a)                   ; 0x201a <f256main+0x173d>
     d40: e8           	inx
     d41: 18           	clc
     d42: a5 1c        	lda	$1c                     ; 0x201c <f256main+0x173f>
     d44: 69 02        	adc	#$2
     d46: 85 12        	sta	$12                     ; 0x2012 <f256main+0x1735>
     d48: e0 06        	cpx	#$6
     d4a: f0 03        	beq	$d4f <f256main+0x472>
     d4c: 4c d0 0c     	jmp	$cd0 <f256main+0x3f3>
     d4f: a6 24        	ldx	$24                     ; 0x2024 <f256main+0x1747>
     d51: e8           	inx
     d52: 86 24        	stx	$24                     ; 0x2024 <f256main+0x1747>
     d54: e0 06        	cpx	#$6
     d56: f0 03        	beq	$d5b <f256main+0x47e>
     d58: 4c cc 0c     	jmp	$ccc <f256main+0x3ef>
     d5b: a2 34        	ldx	#$34
     d5d: 8e 14 d5     	stx	$d514                   ; 0xd514 <__heap_start+0x6f8a>
     d60: a2 01        	ldx	#$1
     d62: 8e 15 d5     	stx	$d515                   ; 0xd515 <__heap_start+0x6f8b>
     d65: a2 20        	ldx	#$20
     d67: 8e 17 d5     	stx	$d517                   ; 0xd517 <__heap_start+0x6f8d>
     d6a: a2 0f        	ldx	#$f
     d6c: 8e 18 d5     	stx	$d518                   ; 0xd518 <__heap_start+0x6f8e>
     d6f: a2 2c        	ldx	#$2c
     d71: 8a           	txa
     d72: a0 05        	ldy	#$5
     d74: 91 10        	sta	($10),y                 ; 0x2010 <f256main+0x1733>
     d76: 64 12        	stz	$12                     ; 0x2012 <f256main+0x1735>
     d78: a9 00        	lda	#$0
     d7a: a2 01        	ldx	#$1
     d7c: a4 12        	ldy	$12                     ; 0x2012 <f256main+0x1735>
     d7e: 84 1a        	sty	$1a                     ; 0x201a <f256main+0x173d>
     d80: 18           	clc
     d81: 85 13        	sta	$13                     ; 0x2013 <f256main+0x1736>
     d83: a9 d9        	lda	#$d9
     d85: 65 12        	adc	$12                     ; 0x2012 <f256main+0x1735>
     d87: 85 16        	sta	$16                     ; 0x2016 <f256main+0x1739>
     d89: a4 13        	ldy	$13                     ; 0x2013 <f256main+0x1736>
     d8b: 84 26        	sty	$26                     ; 0x2026 <f256main+0x1749>
     d8d: a9 5f        	lda	#$5f
     d8f: 65 13        	adc	$13                     ; 0x2013 <f256main+0x1736>
     d91: 85 12        	sta	$12                     ; 0x2012 <f256main+0x1735>
     d93: a5 16        	lda	$16                     ; 0x2016 <f256main+0x1739>
     d95: 18           	clc
     d96: 69 03        	adc	#$3
     d98: 85 14        	sta	$14                     ; 0x2014 <f256main+0x1737>
     d9a: a4 12        	ldy	$12                     ; 0x2012 <f256main+0x1735>
     d9c: 84 17        	sty	$17                     ; 0x2017 <f256main+0x173a>
     d9e: a5 12        	lda	$12                     ; 0x2012 <f256main+0x1735>
     da0: 69 00        	adc	#$0
     da2: 86 1c        	stx	$1c                     ; 0x201c <f256main+0x173f>
     da4: 86 1e        	stx	$1e                     ; 0x201e <f256main+0x1741>
     da6: c6 1e        	dec	$1e                     ; 0x201e <f256main+0x1741>
     da8: a4 16        	ldy	$16                     ; 0x2016 <f256main+0x1739>
     daa: 84 12        	sty	$12                     ; 0x2012 <f256main+0x1735>
     dac: a4 17        	ldy	$17                     ; 0x2017 <f256main+0x173a>
     dae: 84 13        	sty	$13                     ; 0x2013 <f256main+0x1736>
     db0: 85 15        	sta	$15                     ; 0x2015 <f256main+0x1738>
     db2: 18           	clc
     db3: a5 16        	lda	$16                     ; 0x2016 <f256main+0x1739>
     db5: 69 08        	adc	#$8
     db7: 85 18        	sta	$18                     ; 0x2018 <f256main+0x173b>
     db9: a5 17        	lda	$17                     ; 0x2017 <f256main+0x173a>
     dbb: 69 00        	adc	#$0
     dbd: 48           	pha
     dbe: bd f9 5c     	lda	$5cf9,x                 ; 0x5cf9 <sidSpriteAction>
     dc1: aa           	tax
     dc2: 68           	pla
     dc3: 86 1d        	stx	$1d                     ; 0x201d <f256main+0x1740>
     dc5: a6 12        	ldx	$12                     ; 0x2012 <f256main+0x1735>
     dc7: 86 16        	stx	$16                     ; 0x2016 <f256main+0x1739>
     dc9: a6 13        	ldx	$13                     ; 0x2013 <f256main+0x1736>
     dcb: 86 17        	stx	$17                     ; 0x2017 <f256main+0x173a>
     dcd: 85 19        	sta	$19                     ; 0x2019 <f256main+0x173c>
     dcf: e6 16        	inc	$16                     ; 0x2016 <f256main+0x1739>
     dd1: d0 02        	bne	$dd5 <f256main+0x4f8>
     dd3: e6 17        	inc	$17                     ; 0x2017 <f256main+0x173a>
     dd5: a0 0c        	ldy	#$c
     dd7: a5 1e        	lda	$1e                     ; 0x201e <f256main+0x1741>
     dd9: 91 12        	sta	($12),y                 ; 0x2012 <f256main+0x1735>
     ddb: a0 01        	ldy	#$1
     ddd: a9 00        	lda	#$0
     ddf: 91 16        	sta	($16),y                 ; 0x2016 <f256main+0x1739>
     de1: 91 14        	sta	($14),y                 ; 0x2014 <f256main+0x1737>
     de3: a9 38        	lda	#$38
     de5: 91 18        	sta	($18),y                 ; 0x2018 <f256main+0x173b>
     de7: 98           	tya
     de8: c8           	iny
     de9: 91 18        	sta	($18),y                 ; 0x2018 <f256main+0x173b>
     deb: c8           	iny
     dec: 3a           	dec
     ded: 91 18        	sta	($18),y                 ; 0x2018 <f256main+0x173b>
     def: a5 1c        	lda	$1c                     ; 0x201c <f256main+0x173f>
     df1: 85 27        	sta	$27                     ; 0x2027 <f256main+0x174a>
     df3: 92 12        	sta	($12)                   ; 0x2012 <f256main+0x1735>
     df5: a9 28        	lda	#$28
     df7: a2 01        	ldx	#$1
     df9: a0 01        	ldy	#$1
     dfb: 91 12        	sta	($12),y                 ; 0x2012 <f256main+0x1735>
     dfd: a0 05        	ldy	#$5
     dff: b1 10        	lda	($10),y                 ; 0x2010 <f256main+0x1733>
     e01: 85 24        	sta	$24                     ; 0x2024 <f256main+0x1747>
     e03: a0 03        	ldy	#$3
     e05: 91 12        	sta	($12),y                 ; 0x2012 <f256main+0x1735>
     e07: a0 05        	ldy	#$5
     e09: a9 00        	lda	#$0
     e0b: 91 12        	sta	($12),y                 ; 0x2012 <f256main+0x1735>
     e0d: c8           	iny
     e0e: 91 12        	sta	($12),y                 ; 0x2012 <f256main+0x1735>
     e10: c8           	iny
     e11: 91 12        	sta	($12),y                 ; 0x2012 <f256main+0x1735>
     e13: c8           	iny
     e14: 91 12        	sta	($12),y                 ; 0x2012 <f256main+0x1735>
     e16: a9 10        	lda	#$10
     e18: a0 0d        	ldy	#$d
     e1a: 91 12        	sta	($12),y                 ; 0x2012 <f256main+0x1735>
     e1c: c8           	iny
     e1d: a9 00        	lda	#$0
     e1f: 91 12        	sta	($12),y                 ; 0x2012 <f256main+0x1735>
     e21: c8           	iny
     e22: a9 0d        	lda	#$d
     e24: 91 12        	sta	($12),y                 ; 0x2012 <f256main+0x1735>
     e26: a9 04        	lda	#$4
     e28: c8           	iny
     e29: 91 12        	sta	($12),y                 ; 0x2012 <f256main+0x1735>
     e2b: a9 0b        	lda	#$b
     e2d: c8           	iny
     e2e: 91 12        	sta	($12),y                 ; 0x2012 <f256main+0x1735>
     e30: c8           	iny
     e31: a5 1d        	lda	$1d                     ; 0x201d <f256main+0x1740>
     e33: 91 12        	sta	($12),y                 ; 0x2012 <f256main+0x1735>
     e35: a4 1a        	ldy	$1a                     ; 0x201a <f256main+0x173d>
     e37: 84 25        	sty	$25                     ; 0x2025 <f256main+0x1748>
     e39: c0 15        	cpy	#$15
     e3b: f0 02        	beq	$e3f <f256main+0x562>
     e3d: a2 00        	ldx	#$0
     e3f: 86 14        	stx	$14                     ; 0x2014 <f256main+0x1737>
     e41: a2 00        	ldx	#$0
     e43: a9 01        	lda	#$1
     e45: 20 43 3e     	jsr	$3e43 <setRadioB>
     e48: e6 27        	inc	$27                     ; 0x2027 <f256main+0x174a>
     e4a: a6 27        	ldx	$27                     ; 0x2027 <f256main+0x174a>
     e4c: 18           	clc
     e4d: a5 24        	lda	$24                     ; 0x2024 <f256main+0x1747>
     e4f: 69 10        	adc	#$10
     e51: a0 05        	ldy	#$5
     e53: 91 10        	sta	($10),y                 ; 0x2010 <f256main+0x1733>
     e55: 18           	clc
     e56: a5 25        	lda	$25                     ; 0x2025 <f256main+0x1748>
     e58: 69 15        	adc	#$15
     e5a: a8           	tay
     e5b: a5 26        	lda	$26                     ; 0x2026 <f256main+0x1749>
     e5d: 69 00        	adc	#$0
     e5f: 84 12        	sty	$12                     ; 0x2012 <f256main+0x1735>
     e61: c0 54        	cpy	#$54
     e63: f0 03        	beq	$e68 <f256main+0x58b>
     e65: 4c 7c 0d     	jmp	$d7c <f256main+0x49f>
     e68: 20 7b 2c     	jsr	$2c7b <loadGUISID>
     e6b: a2 ff        	ldx	#$ff
     e6d: 86 9f        	stx	$9f                     ; 0x209f <f256main+0x17c2>
     e6f: 86 a0        	stx	$a0                     ; 0x20a0 <f256main+0x17c3>
     e71: a2 80        	ldx	#$80
     e73: 86 f3        	stx	$f3                     ; 0x20f3 <f256main+0x1816>
     e75: 18           	clc
     e76: a5 10        	lda	$10                     ; 0x2010 <f256main+0x1733>
     e78: 69 0c        	adc	#$c
     e7a: 85 12        	sta	$12                     ; 0x2012 <f256main+0x1735>
     e7c: a5 11        	lda	$11                     ; 0x2011 <f256main+0x1734>
     e7e: 69 00        	adc	#$0
     e80: 85 13        	sta	$13                     ; 0x2013 <f256main+0x1736>
     e82: a2 88        	ldx	#$88
     e84: 86 2e        	stx	$2e                     ; 0x202e <f256main+0x1751>
     e86: a2 5f        	ldx	#$5f
     e88: 86 2f        	stx	$2f                     ; 0x202f <f256main+0x1752>
     e8a: 20 f0 ff     	jsr	$fff0 <__heap_start+0x9a66>
     e8d: 92 12        	sta	($12)                   ; 0x2012 <f256main+0x1735>
     e8f: a9 00        	lda	#$0
     e91: 6a           	ror
     e92: 85 2e        	sta	$2e                     ; 0x202e <f256main+0x1751>
     e94: b2 12        	lda	($12)                   ; 0x2012 <f256main+0x1735>
     e96: a0 01        	ldy	#$1
     e98: 1a           	inc
     e99: 85 a1        	sta	$a1                     ; 0x20a1 <f256main+0x17c4>
     e9b: 64 f3        	stz	$f3                     ; 0x20f3 <f256main+0x1816>
     e9d: a6 a1        	ldx	$a1                     ; 0x20a1 <f256main+0x17c4>
     e9f: 86 f4        	stx	$f4                     ; 0x20f4 <f256main+0x1817>
     ea1: 84 f5        	sty	$f5                     ; 0x20f5 <f256main+0x1818>
     ea3: 18           	clc
     ea4: a5 10        	lda	$10                     ; 0x2010 <f256main+0x1733>
     ea6: 69 0d        	adc	#$d
     ea8: 85 12        	sta	$12                     ; 0x2012 <f256main+0x1735>
     eaa: a5 11        	lda	$11                     ; 0x2011 <f256main+0x1734>
     eac: 69 00        	adc	#$0
     eae: 85 13        	sta	$13                     ; 0x2013 <f256main+0x1736>
     eb0: 38           	sec
     eb1: 98           	tya
     eb2: 91 10        	sta	($10),y                 ; 0x2010 <f256main+0x1733>
     eb4: 64 14        	stz	$14                     ; 0x2014 <f256main+0x1737>
     eb6: 3a           	dec
     eb7: a0 03        	ldy	#$3
     eb9: 91 10        	sta	($10),y                 ; 0x2010 <f256main+0x1733>
     ebb: c8           	iny
     ebc: 91 10        	sta	($10),y                 ; 0x2010 <f256main+0x1733>
     ebe: a0 02        	ldy	#$2
     ec0: 91 10        	sta	($10),y                 ; 0x2010 <f256main+0x1733>
     ec2: a2 90        	ldx	#$90
     ec4: 8a           	txa
     ec5: a0 00        	ldy	#$0
     ec7: 91 10        	sta	($10),y                 ; 0x2010 <f256main+0x1733>
     ec9: 20 f0 ff     	jsr	$fff0 <__heap_start+0x9a66>
     ecc: 92 12        	sta	($12)                   ; 0x2012 <f256main+0x1735>
     ece: a9 00        	lda	#$0
     ed0: 6a           	ror
     ed1: 85 2e        	sta	$2e                     ; 0x202e <f256main+0x1751>
     ed3: ad a0 dd     	lda	$dda0                   ; 0xdda0 <__heap_start+0x7816>
     ed6: 29 02        	and	#$2
     ed8: f0 03        	beq	$edd <f256main+0x600>
     eda: 4c 0f 11     	jmp	$110f <f256main+0x832>
     edd: ae a2 dd     	ldx	$dda2                   ; 0xdda2 <__heap_start+0x7818>
     ee0: 86 2a        	stx	$2a                     ; 0x202a <f256main+0x174d>
     ee2: ad a3 dd     	lda	$dda3                   ; 0xdda3 <__heap_start+0x7819>
     ee5: 29 0f        	and	#$f
     ee7: 85 2b        	sta	$2b                     ; 0x202b <f256main+0x174e>
     ee9: a5 2b        	lda	$2b                     ; 0x202b <f256main+0x174e>
     eeb: d0 07        	bne	$ef4 <f256main+0x617>
     eed: a5 2a        	lda	$2a                     ; 0x202a <f256main+0x174d>
     eef: d0 03        	bne	$ef4 <f256main+0x617>
     ef1: 4c 0f 11     	jmp	$110f <f256main+0x832>
     ef4: a2 00        	ldx	#$0
     ef6: a0 00        	ldy	#$0
     ef8: ad a1 dd     	lda	$dda1                   ; 0xdda1 <__heap_start+0x7817>
     efb: c9 fe        	cmp	#$fe
     efd: d0 03        	bne	$f02 <f256main+0x625>
     eff: 4c d4 10     	jmp	$10d4 <f256main+0x7f7>
     f02: 86 26        	stx	$26                     ; 0x2026 <f256main+0x1749>
     f04: 48           	pha
     f05: 5a           	phy
     f06: a0 04        	ldy	#$4
     f08: b1 10        	lda	($10),y                 ; 0x2010 <f256main+0x1733>
     f0a: 7a           	ply
     f0b: aa           	tax
     f0c: 68           	pla
     f0d: e0 00        	cpx	#$0
     f0f: d0 03        	bne	$f14 <f256main+0x637>
     f11: 4c e3 0f     	jmp	$fe3 <f256main+0x706>
     f14: 84 27        	sty	$27                     ; 0x2027 <f256main+0x174a>
     f16: a6 ca        	ldx	$ca                     ; 0x20ca <f256main+0x17ed>
     f18: a4 cb        	ldy	$cb                     ; 0x20cb <f256main+0x17ee>
     f1a: 5a           	phy
     f1b: a0 03        	ldy	#$3
     f1d: b1 10        	lda	($10),y                 ; 0x2010 <f256main+0x1733>
     f1f: 7a           	ply
     f20: c9 00        	cmp	#$0
     f22: f0 07        	beq	$f2b <f256main+0x64e>
     f24: a5 2c        	lda	$2c                     ; 0x202c <f256main+0x174f>
     f26: d0 03        	bne	$f2b <f256main+0x64e>
     f28: 4c 4a 10     	jmp	$104a <f256main+0x76d>
     f2b: 86 12        	stx	$12                     ; 0x2012 <f256main+0x1735>
     f2d: 84 13        	sty	$13                     ; 0x2013 <f256main+0x1736>
     f2f: a0 03        	ldy	#$3
     f31: b1 12        	lda	($12),y                 ; 0x2012 <f256main+0x1735>
     f33: c9 05        	cmp	#$5
     f35: 90 03        	bcc	$f3a <f256main+0x65d>
     f37: 4c 4c 10     	jmp	$104c <f256main+0x76f>
     f3a: 85 14        	sta	$14                     ; 0x2014 <f256main+0x1737>
     f3c: 06 14        	asl	$14                     ; 0x2014 <f256main+0x1737>
     f3e: a6 14        	ldx	$14                     ; 0x2014 <f256main+0x1737>
     f40: 7c fb 5b     	jmp	($5bfb,x)               ; 0x5bfb <__set_v+0x1>
     f43: 48           	pha
     f44: b1 10        	lda	($10),y                 ; 0x2010 <f256main+0x1733>
     f46: aa           	tax
     f47: 68           	pla
     f48: e0 00        	cpx	#$0
     f4a: d0 03        	bne	$f4f <f256main+0x672>
     f4c: 4c 21 18     	jmp	$1821 <f256main+0xf44>
     f4f: a2 b1        	ldx	#$b1
     f51: 86 14        	stx	$14                     ; 0x2014 <f256main+0x1737>
     f53: a2 dd        	ldx	#$dd
     f55: 86 15        	stx	$15                     ; 0x2015 <f256main+0x1738>
     f57: a4 27        	ldy	$27                     ; 0x2027 <f256main+0x174a>
     f59: c9 04        	cmp	#$4
     f5b: f0 03        	beq	$f60 <f256main+0x683>
     f5d: 4c 5c 18     	jmp	$185c <f256main+0xf7f>
     f60: a9 90        	lda	#$90
     f62: 92 14        	sta	($14)                   ; 0x2014 <f256main+0x1737>
     f64: a5 2c        	lda	$2c                     ; 0x202c <f256main+0x174f>
     f66: 92 14        	sta	($14)                   ; 0x2014 <f256main+0x1737>
     f68: a9 7f        	lda	#$7f
     f6a: 92 14        	sta	($14)                   ; 0x2014 <f256main+0x1737>
     f6c: b2 12        	lda	($12)                   ; 0x2012 <f256main+0x1735>
     f6e: a6 26        	ldx	$26                     ; 0x2026 <f256main+0x1749>
     f70: c9 00        	cmp	#$0
     f72: d0 03        	bne	$f77 <f256main+0x69a>
     f74: 4c 6b 1c     	jmp	$1c6b <f256main+0x138e>
     f77: 4c 1c 18     	jmp	$181c <f256main+0xf3f>
     f7a: e8           	inx
     f7b: e0 06        	cpx	#$6
     f7d: d0 03        	bne	$f82 <f256main+0x6a5>
     f7f: 4c 34 1f     	jmp	$1f34 <f256main+0x1657>
     f82: b4 b5        	ldy	$b5,x                   ; 0x20b5 <f256main+0x17d8>
     f84: d0 f4        	bne	$f7a <f256main+0x69d>
     f86: b4 af        	ldy	$af,x                   ; 0x20af <f256main+0x17d2>
     f88: d0 f0        	bne	$f7a <f256main+0x69d>
     f8a: 4c c5 1e     	jmp	$1ec5 <f256main+0x15e8>
     f8d: 86 28        	stx	$28                     ; 0x2028 <f256main+0x174b>
     f8f: b5 c1        	lda	$c1,x                   ; 0x20c1 <f256main+0x17e4>
     f91: aa           	tax
     f92: d0 03        	bne	$f97 <f256main+0x6ba>
     f94: 4c db 1c     	jmp	$1cdb <f256main+0x13fe>
     f97: a6 28        	ldx	$28                     ; 0x2028 <f256main+0x174b>
     f99: e8           	inx
     f9a: e0 09        	cpx	#$9
     f9c: d0 ef        	bne	$f8d <f256main+0x6b0>
     f9e: 4c 63 1d     	jmp	$1d63 <f256main+0x1486>
     fa1: b4 bb        	ldy	$bb,x                   ; 0x20bb <f256main+0x17de>
     fa3: d0 03        	bne	$fa8 <f256main+0x6cb>
     fa5: 4c 6d 1d     	jmp	$1d6d <f256main+0x1490>
     fa8: e8           	inx
     fa9: e0 06        	cpx	#$6
     fab: d0 f4        	bne	$fa1 <f256main+0x6c4>
     fad: 4c ad 1d     	jmp	$1dad <f256main+0x14d0>
     fb0: b4 c1        	ldy	$c1,x                   ; 0x20c1 <f256main+0x17e4>
     fb2: c4 12        	cpy	$12                     ; 0x2012 <f256main+0x1735>
     fb4: d0 03        	bne	$fb9 <f256main+0x6dc>
     fb6: 4c f7 1d     	jmp	$1df7 <f256main+0x151a>
     fb9: e8           	inx
     fba: e0 09        	cpx	#$9
     fbc: d0 f2        	bne	$fb0 <f256main+0x6d3>
     fbe: 4c f5 1d     	jmp	$1df5 <f256main+0x1518>
     fc1: b4 af        	ldy	$af,x                   ; 0x20af <f256main+0x17d2>
     fc3: c4 12        	cpy	$12                     ; 0x2012 <f256main+0x1735>
     fc5: d0 03        	bne	$fca <f256main+0x6ed>
     fc7: 4c cf 1d     	jmp	$1dcf <f256main+0x14f2>
     fca: e8           	inx
     fcb: e0 06        	cpx	#$6
     fcd: d0 f2        	bne	$fc1 <f256main+0x6e4>
     fcf: 4c 9f 1e     	jmp	$1e9f <f256main+0x15c2>
     fd2: b4 bb        	ldy	$bb,x                   ; 0x20bb <f256main+0x17de>
     fd4: c4 12        	cpy	$12                     ; 0x2012 <f256main+0x1735>
     fd6: d0 03        	bne	$fdb <f256main+0x6fe>
     fd8: 4c df 1d     	jmp	$1ddf <f256main+0x1502>
     fdb: e8           	inx
     fdc: e0 06        	cpx	#$6
     fde: d0 f2        	bne	$fd2 <f256main+0x6f5>
     fe0: 4c aa 1e     	jmp	$1eaa <f256main+0x15cd>
     fe3: 85 17        	sta	$17                     ; 0x2017 <f256main+0x173a>
     fe5: 5a           	phy
     fe6: a0 02        	ldy	#$2
     fe8: b1 10        	lda	($10),y                 ; 0x2010 <f256main+0x1733>
     fea: 7a           	ply
     feb: aa           	tax
     fec: d0 03        	bne	$ff1 <f256main+0x714>
     fee: 4c 5b 10     	jmp	$105b <f256main+0x77e>
     ff1: 84 16        	sty	$16                     ; 0x2016 <f256main+0x1739>
     ff3: 18           	clc
     ff4: a5 17        	lda	$17                     ; 0x2017 <f256main+0x173a>
     ff6: 69 ec        	adc	#$ec
     ff8: 48           	pha
     ff9: a0 03        	ldy	#$3
     ffb: b1 10        	lda	($10),y                 ; 0x2010 <f256main+0x1733>
     ffd: aa           	tax
     ffe: 68           	pla
     fff: e0 00        	cpx	#$0
    1001: d0 03        	bne	$1006 <f256main+0x729>
    1003: 4c e6 10     	jmp	$10e6 <f256main+0x809>
    1006: a6 17        	ldx	$17                     ; 0x2017 <f256main+0x173a>
    1008: 86 2c        	stx	$2c                     ; 0x202c <f256main+0x174f>
    100a: 0a           	asl
    100b: 64 12        	stz	$12                     ; 0x2012 <f256main+0x1735>
    100d: 26 12        	rol	$12                     ; 0x2012 <f256main+0x1735>
    100f: 0a           	asl
    1010: 85 13        	sta	$13                     ; 0x2013 <f256main+0x1736>
    1012: 26 12        	rol	$12                     ; 0x2012 <f256main+0x1735>
    1014: a9 00        	lda	#$0
    1016: 18           	clc
    1017: 65 13        	adc	$13                     ; 0x2013 <f256main+0x1736>
    1019: 85 14        	sta	$14                     ; 0x2014 <f256main+0x1737>
    101b: a9 d4        	lda	#$d4
    101d: 65 12        	adc	$12                     ; 0x2012 <f256main+0x1735>
    101f: a6 01        	ldx	$1                      ; 0x2001 <f256main+0x1724>
    1021: a0 01        	ldy	#$1
    1023: 84 01        	sty	$1                      ; 0x2001 <f256main+0x1724>
    1025: 48           	pha
    1026: a5 14        	lda	$14                     ; 0x2014 <f256main+0x1737>
    1028: 85 12        	sta	$12                     ; 0x2012 <f256main+0x1735>
    102a: 68           	pla
    102b: 85 13        	sta	$13                     ; 0x2013 <f256main+0x1736>
    102d: a9 ff        	lda	#$ff
    102f: 92 12        	sta	($12)                   ; 0x2012 <f256main+0x1735>
    1031: 1a           	inc
    1032: 91 12        	sta	($12),y                 ; 0x2012 <f256main+0x1735>
    1034: c8           	iny
    1035: 3a           	dec
    1036: 91 12        	sta	($12),y                 ; 0x2012 <f256main+0x1735>
    1038: c8           	iny
    1039: 91 12        	sta	($12),y                 ; 0x2012 <f256main+0x1735>
    103b: 86 01        	stx	$1                      ; 0x2001 <f256main+0x1724>
    103d: a2 01        	ldx	#$1
    103f: 8a           	txa
    1040: 91 10        	sta	($10),y                 ; 0x2010 <f256main+0x1733>
    1042: c8           	iny
    1043: 91 10        	sta	($10),y                 ; 0x2010 <f256main+0x1733>
    1045: 64 12        	stz	$12                     ; 0x2012 <f256main+0x1735>
    1047: 4c ca 10     	jmp	$10ca <f256main+0x7ed>
    104a: 64 2c        	stz	$2c                     ; 0x202c <f256main+0x174f>
    104c: 64 12        	stz	$12                     ; 0x2012 <f256main+0x1735>
    104e: a9 00        	lda	#$0
    1050: a0 04        	ldy	#$4
    1052: 91 10        	sta	($10),y                 ; 0x2010 <f256main+0x1733>
    1054: a6 26        	ldx	$26                     ; 0x2026 <f256main+0x1749>
    1056: a4 27        	ldy	$27                     ; 0x2027 <f256main+0x174a>
    1058: 4c d4 10     	jmp	$10d4 <f256main+0x7f7>
    105b: a5 17        	lda	$17                     ; 0x2017 <f256main+0x173a>
    105d: 29 f0        	and	#$f0
    105f: c9 90        	cmp	#$90
    1061: f0 03        	beq	$1066 <f256main+0x789>
    1063: 4c b2 12     	jmp	$12b2 <f256main+0x9d5>
    1066: 4c 07 1b     	jmp	$1b07 <f256main+0x122a>
    1069: 64 12        	stz	$12                     ; 0x2012 <f256main+0x1735>
    106b: 5a           	phy
    106c: a9 00        	lda	#$0
    106e: a0 03        	ldy	#$3
    1070: 91 10        	sta	($10),y                 ; 0x2010 <f256main+0x1733>
    1072: a0 04        	ldy	#$4
    1074: 91 10        	sta	($10),y                 ; 0x2010 <f256main+0x1733>
    1076: 7a           	ply
    1077: a6 26        	ldx	$26                     ; 0x2026 <f256main+0x1749>
    1079: 4c d4 10     	jmp	$10d4 <f256main+0x7f7>
    107c: 64 12        	stz	$12                     ; 0x2012 <f256main+0x1735>
    107e: a9 00        	lda	#$0
    1080: 5a           	phy
    1081: a0 04        	ldy	#$4
    1083: 91 10        	sta	($10),y                 ; 0x2010 <f256main+0x1733>
    1085: 7a           	ply
    1086: 80 4c        	bra	$10d4 <f256main+0x7f7>
    1088: 06 13        	asl	$13                     ; 0x2013 <f256main+0x1736>
    108a: 86 14        	stx	$14                     ; 0x2014 <f256main+0x1737>
    108c: 26 14        	rol	$14                     ; 0x2014 <f256main+0x1737>
    108e: 0a           	asl
    108f: 26 12        	rol	$12                     ; 0x2012 <f256main+0x1735>
    1091: 0a           	asl
    1092: 85 13        	sta	$13                     ; 0x2013 <f256main+0x1736>
    1094: 26 12        	rol	$12                     ; 0x2012 <f256main+0x1735>
    1096: a9 00        	lda	#$0
    1098: 18           	clc
    1099: 65 13        	adc	$13                     ; 0x2013 <f256main+0x1736>
    109b: aa           	tax
    109c: a9 d4        	lda	#$d4
    109e: 65 12        	adc	$12                     ; 0x2012 <f256main+0x1735>
    10a0: 86 12        	stx	$12                     ; 0x2012 <f256main+0x1735>
    10a2: 85 13        	sta	$13                     ; 0x2013 <f256main+0x1736>
    10a4: a6 01        	ldx	$1                      ; 0x2001 <f256main+0x1724>
    10a6: a9 01        	lda	#$1
    10a8: 85 01        	sta	$1                      ; 0x2001 <f256main+0x1724>
    10aa: a5 14        	lda	$14                     ; 0x2014 <f256main+0x1737>
    10ac: 91 12        	sta	($12),y                 ; 0x2012 <f256main+0x1735>
    10ae: 92 12        	sta	($12)                   ; 0x2012 <f256main+0x1735>
    10b0: a0 02        	ldy	#$2
    10b2: 91 12        	sta	($12),y                 ; 0x2012 <f256main+0x1735>
    10b4: a9 ff        	lda	#$ff
    10b6: c8           	iny
    10b7: 91 12        	sta	($12),y                 ; 0x2012 <f256main+0x1735>
    10b9: 86 01        	stx	$1                      ; 0x2001 <f256main+0x1724>
    10bb: 64 12        	stz	$12                     ; 0x2012 <f256main+0x1735>
    10bd: 1a           	inc
    10be: 91 10        	sta	($10),y                 ; 0x2010 <f256main+0x1733>
    10c0: a6 17        	ldx	$17                     ; 0x2017 <f256main+0x173a>
    10c2: 86 2c        	stx	$2c                     ; 0x202c <f256main+0x174f>
    10c4: a2 01        	ldx	#$1
    10c6: 8a           	txa
    10c7: c8           	iny
    10c8: 91 10        	sta	($10),y                 ; 0x2010 <f256main+0x1733>
    10ca: a9 00        	lda	#$0
    10cc: a0 02        	ldy	#$2
    10ce: 91 10        	sta	($10),y                 ; 0x2010 <f256main+0x1733>
    10d0: a6 26        	ldx	$26                     ; 0x2026 <f256main+0x1749>
    10d2: a4 16        	ldy	$16                     ; 0x2016 <f256main+0x1739>
    10d4: e8           	inx
    10d5: d0 01        	bne	$10d8 <f256main+0x7fb>
    10d7: c8           	iny
    10d8: c4 2b        	cpy	$2b                     ; 0x202b <f256main+0x174e>
    10da: f0 03        	beq	$10df <f256main+0x802>
    10dc: 4c f8 0e     	jmp	$ef8 <f256main+0x61b>
    10df: e4 2a        	cpx	$2a                     ; 0x202a <f256main+0x174d>
    10e1: f0 2c        	beq	$110f <f256main+0x832>
    10e3: 4c f8 0e     	jmp	$ef8 <f256main+0x61b>
    10e6: aa           	tax
    10e7: b4 2f        	ldy	$2f,x                   ; 0x202f <f256main+0x1752>
    10e9: a2 01        	ldx	#$1
    10eb: c0 00        	cpy	#$0
    10ed: f0 03        	beq	$10f2 <f256main+0x815>
    10ef: 4c 6e 18     	jmp	$186e <f256main+0xf91>
    10f2: 64 12        	stz	$12                     ; 0x2012 <f256main+0x1735>
    10f4: a0 01        	ldy	#$1
    10f6: 64 13        	stz	$13                     ; 0x2013 <f256main+0x1736>
    10f8: e0 00        	cpx	#$0
    10fa: d0 03        	bne	$10ff <f256main+0x822>
    10fc: 4c 73 18     	jmp	$1873 <f256main+0xf96>
    10ff: 46 13        	lsr	$13                     ; 0x2013 <f256main+0x1736>
    1101: 64 13        	stz	$13                     ; 0x2013 <f256main+0x1736>
    1103: 66 13        	ror	$13                     ; 0x2013 <f256main+0x1736>
    1105: 30 03        	bmi	$110a <f256main+0x82d>
    1107: 4c 78 18     	jmp	$1878 <f256main+0xf9b>
    110a: a2 ff        	ldx	#$ff
    110c: 4c 88 10     	jmp	$1088 <f256main+0x7ab>
    110f: 64 94        	stz	$94                     ; 0x2094 <f256main+0x17b7>
    1111: 18           	clc
    1112: a5 10        	lda	$10                     ; 0x2010 <f256main+0x1733>
    1114: 69 0b        	adc	#$b
    1116: 85 12        	sta	$12                     ; 0x2012 <f256main+0x1735>
    1118: a5 11        	lda	$11                     ; 0x2011 <f256main+0x1734>
    111a: 69 00        	adc	#$0
    111c: 85 13        	sta	$13                     ; 0x2013 <f256main+0x1736>
    111e: 20 00 ff     	jsr	$ff00 <__heap_start+0x9976>
    1121: 92 12        	sta	($12)                   ; 0x2012 <f256main+0x1735>
    1123: a9 00        	lda	#$0
    1125: 6a           	ror
    1126: 85 2e        	sta	$2e                     ; 0x202e <f256main+0x1751>
    1128: a6 94        	ldx	$94                     ; 0x2094 <f256main+0x17b7>
    112a: e0 52        	cpx	#$52
    112c: f0 03        	beq	$1131 <f256main+0x854>
    112e: 4c b4 15     	jmp	$15b4 <f256main+0xcd7>
    1131: a6 98        	ldx	$98                     ; 0x2098 <f256main+0x17bb>
    1133: e0 01        	cpx	#$1
    1135: f0 03        	beq	$113a <f256main+0x85d>
    1137: 4c d3 0e     	jmp	$ed3 <f256main+0x5f6>
    113a: a6 ca        	ldx	$ca                     ; 0x20ca <f256main+0x17ed>
    113c: a4 cb        	ldy	$cb                     ; 0x20cb <f256main+0x17ee>
    113e: 86 12        	stx	$12                     ; 0x2012 <f256main+0x1735>
    1140: 84 13        	sty	$13                     ; 0x2013 <f256main+0x1736>
    1142: a0 03        	ldy	#$3
    1144: b1 12        	lda	($12),y                 ; 0x2012 <f256main+0x1735>
    1146: c9 01        	cmp	#$1
    1148: d0 03        	bne	$114d <f256main+0x870>
    114a: 4c 68 14     	jmp	$1468 <f256main+0xb8b>
    114d: c9 03        	cmp	#$3
    114f: d0 03        	bne	$1154 <f256main+0x877>
    1151: 4c f1 12     	jmp	$12f1 <f256main+0xa14>
    1154: c9 02        	cmp	#$2
    1156: f0 03        	beq	$115b <f256main+0x87e>
    1158: 4c 71 15     	jmp	$1571 <f256main+0xc94>
    115b: a6 ad        	ldx	$ad                     ; 0x20ad <f256main+0x17d0>
    115d: 8a           	txa
    115e: 18           	clc
    115f: 69 0f        	adc	#$f
    1161: a0 01        	ldy	#$1
    1163: b0 02        	bcs	$1167 <f256main+0x88a>
    1165: a0 00        	ldy	#$0
    1167: 84 12        	sty	$12                     ; 0x2012 <f256main+0x1735>
    1169: 85 16        	sta	$16                     ; 0x2016 <f256main+0x1739>
    116b: 8a           	txa
    116c: d0 03        	bne	$1171 <f256main+0x894>
    116e: 4c c2 11     	jmp	$11c2 <f256main+0x8e5>
    1171: a9 00        	lda	#$0
    1173: a6 12        	ldx	$12                     ; 0x2012 <f256main+0x1735>
    1175: e0 01        	cpx	#$1
    1177: 69 00        	adc	#$0
    1179: 85 12        	sta	$12                     ; 0x2012 <f256main+0x1735>
    117b: a2 10        	ldx	#$10
    117d: 8a           	txa
    117e: 3a           	dec
    117f: 0a           	asl
    1180: 64 13        	stz	$13                     ; 0x2013 <f256main+0x1736>
    1182: 26 13        	rol	$13                     ; 0x2013 <f256main+0x1736>
    1184: 0a           	asl
    1185: 85 14        	sta	$14                     ; 0x2014 <f256main+0x1737>
    1187: 26 13        	rol	$13                     ; 0x2013 <f256main+0x1736>
    1189: 0a           	asl
    118a: a4 13        	ldy	$13                     ; 0x2013 <f256main+0x1736>
    118c: 84 15        	sty	$15                     ; 0x2015 <f256main+0x1738>
    118e: 26 15        	rol	$15                     ; 0x2015 <f256main+0x1738>
    1190: 0a           	asl
    1191: 26 15        	rol	$15                     ; 0x2015 <f256main+0x1738>
    1193: 18           	clc
    1194: 65 14        	adc	$14                     ; 0x2014 <f256main+0x1737>
    1196: 85 14        	sta	$14                     ; 0x2014 <f256main+0x1737>
    1198: a5 15        	lda	$15                     ; 0x2015 <f256main+0x1738>
    119a: 65 13        	adc	$13                     ; 0x2013 <f256main+0x1736>
    119c: 85 13        	sta	$13                     ; 0x2013 <f256main+0x1736>
    119e: a9 b4        	lda	#$b4
    11a0: 18           	clc
    11a1: 65 14        	adc	$14                     ; 0x2014 <f256main+0x1737>
    11a3: 85 14        	sta	$14                     ; 0x2014 <f256main+0x1737>
    11a5: a9 63        	lda	#$63
    11a7: 65 13        	adc	$13                     ; 0x2013 <f256main+0x1736>
    11a9: 85 15        	sta	$15                     ; 0x2015 <f256main+0x1738>
    11ab: a9 3b        	lda	#$3b
    11ad: a0 13        	ldy	#$13
    11af: 91 14        	sta	($14),y                 ; 0x2014 <f256main+0x1737>
    11b1: 8a           	txa
    11b2: 1a           	inc
    11b3: a0 00        	ldy	#$0
    11b5: c4 12        	cpy	$12                     ; 0x2012 <f256main+0x1735>
    11b7: d0 04        	bne	$11bd <f256main+0x8e0>
    11b9: e4 16        	cpx	$16                     ; 0x2016 <f256main+0x1739>
    11bb: 80 02        	bra	$11bf <f256main+0x8e2>
    11bd: c4 12        	cpy	$12                     ; 0x2012 <f256main+0x1735>
    11bf: aa           	tax
    11c0: 90 bb        	bcc	$117d <f256main+0x8a0>
    11c2: a6 16        	ldx	$16                     ; 0x2016 <f256main+0x1739>
    11c4: e0 15        	cpx	#$15
    11c6: a0 13        	ldy	#$13
    11c8: b0 3c        	bcs	$1206 <f256main+0x929>
    11ca: 8a           	txa
    11cb: 0a           	asl
    11cc: 64 12        	stz	$12                     ; 0x2012 <f256main+0x1735>
    11ce: 26 12        	rol	$12                     ; 0x2012 <f256main+0x1735>
    11d0: 0a           	asl
    11d1: 85 13        	sta	$13                     ; 0x2013 <f256main+0x1736>
    11d3: 26 12        	rol	$12                     ; 0x2012 <f256main+0x1735>
    11d5: 0a           	asl
    11d6: 5a           	phy
    11d7: a4 12        	ldy	$12                     ; 0x2012 <f256main+0x1735>
    11d9: 84 14        	sty	$14                     ; 0x2014 <f256main+0x1737>
    11db: 26 14        	rol	$14                     ; 0x2014 <f256main+0x1737>
    11dd: 0a           	asl
    11de: 26 14        	rol	$14                     ; 0x2014 <f256main+0x1737>
    11e0: 18           	clc
    11e1: 65 13        	adc	$13                     ; 0x2013 <f256main+0x1736>
    11e3: 85 13        	sta	$13                     ; 0x2013 <f256main+0x1736>
    11e5: a5 14        	lda	$14                     ; 0x2014 <f256main+0x1737>
    11e7: 65 12        	adc	$12                     ; 0x2012 <f256main+0x1735>
    11e9: 85 12        	sta	$12                     ; 0x2012 <f256main+0x1735>
    11eb: a9 b4        	lda	#$b4
    11ed: 18           	clc
    11ee: 65 13        	adc	$13                     ; 0x2013 <f256main+0x1736>
    11f0: 85 13        	sta	$13                     ; 0x2013 <f256main+0x1736>
    11f2: a9 63        	lda	#$63
    11f4: 65 12        	adc	$12                     ; 0x2012 <f256main+0x1735>
    11f6: a4 13        	ldy	$13                     ; 0x2013 <f256main+0x1736>
    11f8: 84 12        	sty	$12                     ; 0x2012 <f256main+0x1735>
    11fa: 7a           	ply
    11fb: 85 13        	sta	$13                     ; 0x2013 <f256main+0x1736>
    11fd: a9 3a        	lda	#$3a
    11ff: 91 12        	sta	($12),y                 ; 0x2012 <f256main+0x1735>
    1201: e8           	inx
    1202: e0 15        	cpx	#$15
    1204: d0 c4        	bne	$11ca <f256main+0x8ed>
    1206: a9 00        	lda	#$0
    1208: 4c 5c 12     	jmp	$125c <f256main+0x97f>
    120b: a2 00        	ldx	#$0
    120d: 18           	clc
    120e: a5 12        	lda	$12                     ; 0x2012 <f256main+0x1735>
    1210: 69 00        	adc	#$0
    1212: 85 15        	sta	$15                     ; 0x2015 <f256main+0x1738>
    1214: a5 13        	lda	$13                     ; 0x2013 <f256main+0x1736>
    1216: 69 54        	adc	#$54
    1218: 85 13        	sta	$13                     ; 0x2013 <f256main+0x1736>
    121a: 8a           	txa
    121b: 69 01        	adc	#$1
    121d: a6 17        	ldx	$17                     ; 0x2017 <f256main+0x173a>
    121f: 48           	pha
    1220: bd f3 64     	lda	$64f3,x                 ; 0x64f3 <lights+0x13f>
    1223: aa           	tax
    1224: 68           	pla
    1225: 86 16        	stx	$16                     ; 0x2016 <f256main+0x1739>
    1227: a6 13        	ldx	$13                     ; 0x2013 <f256main+0x1736>
    1229: 86 12        	stx	$12                     ; 0x2012 <f256main+0x1735>
    122b: 06 12        	asl	$12                     ; 0x2012 <f256main+0x1735>
    122d: 2a           	rol
    122e: 06 12        	asl	$12                     ; 0x2012 <f256main+0x1735>
    1230: 2a           	rol
    1231: 06 12        	asl	$12                     ; 0x2012 <f256main+0x1735>
    1233: 2a           	rol
    1234: a6 0f        	ldx	$f                      ; 0x200f <f256main+0x1732>
    1236: 78           	sei
    1237: 85 0f        	sta	$f                      ; 0x200f <f256main+0x1732>
    1239: a4 15        	ldy	$15                     ; 0x2015 <f256main+0x1738>
    123b: 84 12        	sty	$12                     ; 0x2012 <f256main+0x1735>
    123d: a5 13        	lda	$13                     ; 0x2013 <f256main+0x1736>
    123f: 09 e0        	ora	#$e0
    1241: 85 13        	sta	$13                     ; 0x2013 <f256main+0x1736>
    1243: a5 16        	lda	$16                     ; 0x2016 <f256main+0x1739>
    1245: 92 12        	sta	($12)                   ; 0x2012 <f256main+0x1735>
    1247: a0 01        	ldy	#$1
    1249: a9 00        	lda	#$0
    124b: 91 12        	sta	($12),y                 ; 0x2012 <f256main+0x1735>
    124d: a5 17        	lda	$17                     ; 0x2017 <f256main+0x173a>
    124f: 86 0f        	stx	$f                      ; 0x200f <f256main+0x1732>
    1251: 58           	cli
    1252: 18           	clc
    1253: 69 14        	adc	#$14
    1255: c9 78        	cmp	#$78
    1257: d0 03        	bne	$125c <f256main+0x97f>
    1259: 4c 71 15     	jmp	$1571 <f256main+0xc94>
    125c: 85 17        	sta	$17                     ; 0x2017 <f256main+0x173a>
    125e: aa           	tax
    125f: bd e1 64     	lda	$64e1,x                 ; 0x64e1 <lights+0x12d>
    1262: bc e2 64     	ldy	$64e2,x                 ; 0x64e2 <lights+0x12e>
    1265: 0a           	asl
    1266: 85 12        	sta	$12                     ; 0x2012 <f256main+0x1735>
    1268: 84 13        	sty	$13                     ; 0x2013 <f256main+0x1736>
    126a: 26 13        	rol	$13                     ; 0x2013 <f256main+0x1736>
    126c: bd e3 64     	lda	$64e3,x                 ; 0x64e3 <lights+0x12f>
    126f: 48           	pha
    1270: bd e4 64     	lda	$64e4,x                 ; 0x64e4 <lights+0x130>
    1273: aa           	tax
    1274: 68           	pla
    1275: 86 14        	stx	$14                     ; 0x2014 <f256main+0x1737>
    1277: 0a           	asl
    1278: 26 14        	rol	$14                     ; 0x2014 <f256main+0x1737>
    127a: 0a           	asl
    127b: 26 14        	rol	$14                     ; 0x2014 <f256main+0x1737>
    127d: a6 14        	ldx	$14                     ; 0x2014 <f256main+0x1737>
    127f: 86 15        	stx	$15                     ; 0x2015 <f256main+0x1738>
    1281: 0a           	asl
    1282: 85 14        	sta	$14                     ; 0x2014 <f256main+0x1737>
    1284: 26 15        	rol	$15                     ; 0x2015 <f256main+0x1738>
    1286: 0a           	asl
    1287: aa           	tax
    1288: a5 15        	lda	$15                     ; 0x2015 <f256main+0x1738>
    128a: 2a           	rol
    128b: 86 16        	stx	$16                     ; 0x2016 <f256main+0x1739>
    128d: 06 16        	asl	$16                     ; 0x2016 <f256main+0x1739>
    128f: 2a           	rol
    1290: aa           	tax
    1291: a5 16        	lda	$16                     ; 0x2016 <f256main+0x1739>
    1293: 18           	clc
    1294: 65 14        	adc	$14                     ; 0x2014 <f256main+0x1737>
    1296: 85 14        	sta	$14                     ; 0x2014 <f256main+0x1737>
    1298: 8a           	txa
    1299: 65 15        	adc	$15                     ; 0x2015 <f256main+0x1738>
    129b: aa           	tax
    129c: a5 14        	lda	$14                     ; 0x2014 <f256main+0x1737>
    129e: 18           	clc
    129f: 65 12        	adc	$12                     ; 0x2012 <f256main+0x1735>
    12a1: 85 12        	sta	$12                     ; 0x2012 <f256main+0x1735>
    12a3: 8a           	txa
    12a4: 65 13        	adc	$13                     ; 0x2013 <f256main+0x1736>
    12a6: 85 13        	sta	$13                     ; 0x2013 <f256main+0x1736>
    12a8: 30 03        	bmi	$12ad <f256main+0x9d0>
    12aa: 4c 0b 12     	jmp	$120b <f256main+0x92e>
    12ad: a2 ff        	ldx	#$ff
    12af: 4c 0d 12     	jmp	$120d <f256main+0x930>
    12b2: c9 80        	cmp	#$80
    12b4: f0 03        	beq	$12b9 <f256main+0x9dc>
    12b6: 4c 21 1b     	jmp	$1b21 <f256main+0x1244>
    12b9: a2 01        	ldx	#$1
    12bb: 5a           	phy
    12bc: 8a           	txa
    12bd: a0 02        	ldy	#$2
    12bf: 91 10        	sta	($10),y                 ; 0x2010 <f256main+0x1733>
    12c1: 64 12        	stz	$12                     ; 0x2012 <f256main+0x1735>
    12c3: a9 00        	lda	#$0
    12c5: c8           	iny
    12c6: 91 10        	sta	($10),y                 ; 0x2010 <f256main+0x1733>
    12c8: 4c 14 1b     	jmp	$1b14 <f256main+0x1237>
    12cb: b1 10        	lda	($10),y                 ; 0x2010 <f256main+0x1733>
    12cd: d0 03        	bne	$12d2 <f256main+0x9f5>
    12cf: 4c c0 1c     	jmp	$1cc0 <f256main+0x13e3>
    12d2: a2 00        	ldx	#$0
    12d4: a4 27        	ldy	$27                     ; 0x2027 <f256main+0x174a>
    12d6: 4c 8d 0f     	jmp	$f8d <f256main+0x6b0>
    12d9: b1 10        	lda	($10),y                 ; 0x2010 <f256main+0x1733>
    12db: d0 03        	bne	$12e0 <f256main+0xa03>
    12dd: 4c c9 1c     	jmp	$1cc9 <f256main+0x13ec>
    12e0: a2 00        	ldx	#$0
    12e2: 4c 82 0f     	jmp	$f82 <f256main+0x6a5>
    12e5: b1 10        	lda	($10),y                 ; 0x2010 <f256main+0x1733>
    12e7: d0 03        	bne	$12ec <f256main+0xa0f>
    12e9: 4c d2 1c     	jmp	$1cd2 <f256main+0x13f5>
    12ec: a2 00        	ldx	#$0
    12ee: 4c a1 0f     	jmp	$fa1 <f256main+0x6c4>
    12f1: a6 ae        	ldx	$ae                     ; 0x20ae <f256main+0x17d1>
    12f3: 8a           	txa
    12f4: 18           	clc
    12f5: 69 06        	adc	#$6
    12f7: a0 01        	ldy	#$1
    12f9: b0 02        	bcs	$12fd <f256main+0xa20>
    12fb: a0 00        	ldy	#$0
    12fd: 84 12        	sty	$12                     ; 0x2012 <f256main+0x1735>
    12ff: 85 16        	sta	$16                     ; 0x2016 <f256main+0x1739>
    1301: 8a           	txa
    1302: d0 03        	bne	$1307 <f256main+0xa2a>
    1304: 4c 58 13     	jmp	$1358 <f256main+0xa7b>
    1307: a9 00        	lda	#$0
    1309: a6 12        	ldx	$12                     ; 0x2012 <f256main+0x1735>
    130b: e0 01        	cpx	#$1
    130d: 69 00        	adc	#$0
    130f: 85 12        	sta	$12                     ; 0x2012 <f256main+0x1735>
    1311: a2 07        	ldx	#$7
    1313: 8a           	txa
    1314: 3a           	dec
    1315: 0a           	asl
    1316: 64 13        	stz	$13                     ; 0x2013 <f256main+0x1736>
    1318: 26 13        	rol	$13                     ; 0x2013 <f256main+0x1736>
    131a: 0a           	asl
    131b: 85 14        	sta	$14                     ; 0x2014 <f256main+0x1737>
    131d: 26 13        	rol	$13                     ; 0x2013 <f256main+0x1736>
    131f: 0a           	asl
    1320: a4 13        	ldy	$13                     ; 0x2013 <f256main+0x1736>
    1322: 84 15        	sty	$15                     ; 0x2015 <f256main+0x1738>
    1324: 26 15        	rol	$15                     ; 0x2015 <f256main+0x1738>
    1326: 0a           	asl
    1327: 26 15        	rol	$15                     ; 0x2015 <f256main+0x1738>
    1329: 18           	clc
    132a: 65 14        	adc	$14                     ; 0x2014 <f256main+0x1737>
    132c: 85 14        	sta	$14                     ; 0x2014 <f256main+0x1737>
    132e: a5 15        	lda	$15                     ; 0x2015 <f256main+0x1738>
    1330: 65 13        	adc	$13                     ; 0x2013 <f256main+0x1736>
    1332: 85 13        	sta	$13                     ; 0x2013 <f256main+0x1736>
    1334: a9 b4        	lda	#$b4
    1336: 18           	clc
    1337: 65 14        	adc	$14                     ; 0x2014 <f256main+0x1737>
    1339: 85 14        	sta	$14                     ; 0x2014 <f256main+0x1737>
    133b: a9 63        	lda	#$63
    133d: 65 13        	adc	$13                     ; 0x2013 <f256main+0x1736>
    133f: 85 15        	sta	$15                     ; 0x2015 <f256main+0x1738>
    1341: a9 3b        	lda	#$3b
    1343: a0 13        	ldy	#$13
    1345: 91 14        	sta	($14),y                 ; 0x2014 <f256main+0x1737>
    1347: 8a           	txa
    1348: 1a           	inc
    1349: a0 00        	ldy	#$0
    134b: c4 12        	cpy	$12                     ; 0x2012 <f256main+0x1735>
    134d: d0 04        	bne	$1353 <f256main+0xa76>
    134f: e4 16        	cpx	$16                     ; 0x2016 <f256main+0x1739>
    1351: 80 02        	bra	$1355 <f256main+0xa78>
    1353: c4 12        	cpy	$12                     ; 0x2012 <f256main+0x1735>
    1355: aa           	tax
    1356: 90 bb        	bcc	$1313 <f256main+0xa36>
    1358: a6 16        	ldx	$16                     ; 0x2016 <f256main+0x1739>
    135a: e0 0f        	cpx	#$f
    135c: a0 13        	ldy	#$13
    135e: b0 3f        	bcs	$139f <f256main+0xac2>
    1360: 8a           	txa
    1361: 0a           	asl
    1362: 64 12        	stz	$12                     ; 0x2012 <f256main+0x1735>
    1364: 26 12        	rol	$12                     ; 0x2012 <f256main+0x1735>
    1366: 0a           	asl
    1367: 85 13        	sta	$13                     ; 0x2013 <f256main+0x1736>
    1369: 26 12        	rol	$12                     ; 0x2012 <f256main+0x1735>
    136b: 0a           	asl
    136c: 85 14        	sta	$14                     ; 0x2014 <f256main+0x1737>
    136e: a5 12        	lda	$12                     ; 0x2012 <f256main+0x1735>
    1370: 2a           	rol
    1371: 06 14        	asl	$14                     ; 0x2014 <f256main+0x1737>
    1373: 2a           	rol
    1374: 85 15        	sta	$15                     ; 0x2015 <f256main+0x1738>
    1376: 18           	clc
    1377: a5 14        	lda	$14                     ; 0x2014 <f256main+0x1737>
    1379: 65 13        	adc	$13                     ; 0x2013 <f256main+0x1736>
    137b: 85 13        	sta	$13                     ; 0x2013 <f256main+0x1736>
    137d: a5 15        	lda	$15                     ; 0x2015 <f256main+0x1738>
    137f: 65 12        	adc	$12                     ; 0x2012 <f256main+0x1735>
    1381: 85 12        	sta	$12                     ; 0x2012 <f256main+0x1735>
    1383: a9 b4        	lda	#$b4
    1385: 18           	clc
    1386: 65 13        	adc	$13                     ; 0x2013 <f256main+0x1736>
    1388: 85 13        	sta	$13                     ; 0x2013 <f256main+0x1736>
    138a: a9 63        	lda	#$63
    138c: 65 12        	adc	$12                     ; 0x2012 <f256main+0x1735>
    138e: 5a           	phy
    138f: a4 13        	ldy	$13                     ; 0x2013 <f256main+0x1736>
    1391: 84 12        	sty	$12                     ; 0x2012 <f256main+0x1735>
    1393: 7a           	ply
    1394: 85 13        	sta	$13                     ; 0x2013 <f256main+0x1736>
    1396: a9 3a        	lda	#$3a
    1398: 91 12        	sta	($12),y                 ; 0x2012 <f256main+0x1735>
    139a: e8           	inx
    139b: e0 0f        	cpx	#$f
    139d: d0 c1        	bne	$1360 <f256main+0xa83>
    139f: a2 09        	ldx	#$9
    13a1: 8a           	txa
    13a2: a0 05        	ldy	#$5
    13a4: 91 10        	sta	($10),y                 ; 0x2010 <f256main+0x1733>
    13a6: a9 00        	lda	#$0
    13a8: 4c 12 14     	jmp	$1412 <f256main+0xb35>
    13ab: a0 00        	ldy	#$0
    13ad: 5a           	phy
    13ae: a0 05        	ldy	#$5
    13b0: b1 10        	lda	($10),y                 ; 0x2010 <f256main+0x1733>
    13b2: 7a           	ply
    13b3: 85 14        	sta	$14                     ; 0x2014 <f256main+0x1737>
    13b5: 18           	clc
    13b6: a5 12        	lda	$12                     ; 0x2012 <f256main+0x1735>
    13b8: 69 00        	adc	#$0
    13ba: 85 17        	sta	$17                     ; 0x2017 <f256main+0x173a>
    13bc: a5 13        	lda	$13                     ; 0x2013 <f256main+0x1736>
    13be: 69 54        	adc	#$54
    13c0: 85 13        	sta	$13                     ; 0x2013 <f256main+0x1736>
    13c2: 98           	tya
    13c3: 69 01        	adc	#$1
    13c5: a6 16        	ldx	$16                     ; 0x2016 <f256main+0x1739>
    13c7: 86 15        	stx	$15                     ; 0x2015 <f256main+0x1738>
    13c9: a4 16        	ldy	$16                     ; 0x2016 <f256main+0x1739>
    13cb: be 3f 64     	ldx	$643f,y                 ; 0x643f <lights+0x8b>
    13ce: 86 16        	stx	$16                     ; 0x2016 <f256main+0x1739>
    13d0: a6 13        	ldx	$13                     ; 0x2013 <f256main+0x1736>
    13d2: 86 12        	stx	$12                     ; 0x2012 <f256main+0x1735>
    13d4: 06 12        	asl	$12                     ; 0x2012 <f256main+0x1735>
    13d6: 2a           	rol
    13d7: 06 12        	asl	$12                     ; 0x2012 <f256main+0x1735>
    13d9: 2a           	rol
    13da: 06 12        	asl	$12                     ; 0x2012 <f256main+0x1735>
    13dc: 2a           	rol
    13dd: a6 0f        	ldx	$f                      ; 0x200f <f256main+0x1732>
    13df: 78           	sei
    13e0: 85 0f        	sta	$f                      ; 0x200f <f256main+0x1732>
    13e2: a4 17        	ldy	$17                     ; 0x2017 <f256main+0x173a>
    13e4: 84 12        	sty	$12                     ; 0x2012 <f256main+0x1735>
    13e6: a5 13        	lda	$13                     ; 0x2013 <f256main+0x1736>
    13e8: 09 e0        	ora	#$e0
    13ea: 85 13        	sta	$13                     ; 0x2013 <f256main+0x1736>
    13ec: a5 16        	lda	$16                     ; 0x2016 <f256main+0x1739>
    13ee: 92 12        	sta	($12)                   ; 0x2012 <f256main+0x1735>
    13f0: a0 01        	ldy	#$1
    13f2: a9 00        	lda	#$0
    13f4: 91 12        	sta	($12),y                 ; 0x2012 <f256main+0x1735>
    13f6: a5 15        	lda	$15                     ; 0x2015 <f256main+0x1738>
    13f8: 86 0f        	stx	$f                      ; 0x200f <f256main+0x1732>
    13fa: 58           	cli
    13fb: 18           	clc
    13fc: 69 14        	adc	#$14
    13fe: c6 14        	dec	$14                     ; 0x2014 <f256main+0x1737>
    1400: 48           	pha
    1401: a5 14        	lda	$14                     ; 0x2014 <f256main+0x1737>
    1403: a0 05        	ldy	#$5
    1405: 91 10        	sta	($10),y                 ; 0x2010 <f256main+0x1733>
    1407: b1 10        	lda	($10),y                 ; 0x2010 <f256main+0x1733>
    1409: aa           	tax
    140a: 68           	pla
    140b: e0 00        	cpx	#$0
    140d: d0 03        	bne	$1412 <f256main+0xb35>
    140f: 4c 71 15     	jmp	$1571 <f256main+0xc94>
    1412: 85 16        	sta	$16                     ; 0x2016 <f256main+0x1739>
    1414: a8           	tay
    1415: b9 2d 64     	lda	$642d,y                 ; 0x642d <lights+0x79>
    1418: be 2e 64     	ldx	$642e,y                 ; 0x642e <lights+0x7a>
    141b: 0a           	asl
    141c: 85 12        	sta	$12                     ; 0x2012 <f256main+0x1735>
    141e: 86 13        	stx	$13                     ; 0x2013 <f256main+0x1736>
    1420: 26 13        	rol	$13                     ; 0x2013 <f256main+0x1736>
    1422: b9 2f 64     	lda	$642f,y                 ; 0x642f <lights+0x7b>
    1425: 48           	pha
    1426: b9 30 64     	lda	$6430,y                 ; 0x6430 <lights+0x7c>
    1429: a8           	tay
    142a: 68           	pla
    142b: 84 14        	sty	$14                     ; 0x2014 <f256main+0x1737>
    142d: 0a           	asl
    142e: 26 14        	rol	$14                     ; 0x2014 <f256main+0x1737>
    1430: 0a           	asl
    1431: 26 14        	rol	$14                     ; 0x2014 <f256main+0x1737>
    1433: a6 14        	ldx	$14                     ; 0x2014 <f256main+0x1737>
    1435: 86 15        	stx	$15                     ; 0x2015 <f256main+0x1738>
    1437: 0a           	asl
    1438: 85 14        	sta	$14                     ; 0x2014 <f256main+0x1737>
    143a: 26 15        	rol	$15                     ; 0x2015 <f256main+0x1738>
    143c: 0a           	asl
    143d: a8           	tay
    143e: a5 15        	lda	$15                     ; 0x2015 <f256main+0x1738>
    1440: 2a           	rol
    1441: 84 17        	sty	$17                     ; 0x2017 <f256main+0x173a>
    1443: 06 17        	asl	$17                     ; 0x2017 <f256main+0x173a>
    1445: 2a           	rol
    1446: aa           	tax
    1447: a5 17        	lda	$17                     ; 0x2017 <f256main+0x173a>
    1449: 18           	clc
    144a: 65 14        	adc	$14                     ; 0x2014 <f256main+0x1737>
    144c: 85 14        	sta	$14                     ; 0x2014 <f256main+0x1737>
    144e: 8a           	txa
    144f: 65 15        	adc	$15                     ; 0x2015 <f256main+0x1738>
    1451: aa           	tax
    1452: a5 14        	lda	$14                     ; 0x2014 <f256main+0x1737>
    1454: 18           	clc
    1455: 65 12        	adc	$12                     ; 0x2012 <f256main+0x1735>
    1457: 85 12        	sta	$12                     ; 0x2012 <f256main+0x1735>
    1459: 8a           	txa
    145a: 65 13        	adc	$13                     ; 0x2013 <f256main+0x1736>
    145c: 85 13        	sta	$13                     ; 0x2013 <f256main+0x1736>
    145e: 30 03        	bmi	$1463 <f256main+0xb86>
    1460: 4c ab 13     	jmp	$13ab <f256main+0xace>
    1463: a0 ff        	ldy	#$ff
    1465: 4c ad 13     	jmp	$13ad <f256main+0xad0>
    1468: a5 ac        	lda	$ac                     ; 0x20ac <f256main+0x17cf>
    146a: f0 26        	beq	$1492 <f256main+0xbb5>
    146c: a2 c7        	ldx	#$c7
    146e: 86 12        	stx	$12                     ; 0x2012 <f256main+0x1735>
    1470: a2 63        	ldx	#$63
    1472: 86 13        	stx	$13                     ; 0x2013 <f256main+0x1736>
    1474: 85 14        	sta	$14                     ; 0x2014 <f256main+0x1737>
    1476: aa           	tax
    1477: a9 3b        	lda	#$3b
    1479: 92 12        	sta	($12)                   ; 0x2012 <f256main+0x1735>
    147b: ca           	dex
    147c: a5 12        	lda	$12                     ; 0x2012 <f256main+0x1735>
    147e: 18           	clc
    147f: 69 14        	adc	#$14
    1481: 85 12        	sta	$12                     ; 0x2012 <f256main+0x1735>
    1483: a5 13        	lda	$13                     ; 0x2013 <f256main+0x1736>
    1485: 69 00        	adc	#$0
    1487: 85 13        	sta	$13                     ; 0x2013 <f256main+0x1736>
    1489: 8a           	txa
    148a: d0 eb        	bne	$1477 <f256main+0xb9a>
    148c: a5 14        	lda	$14                     ; 0x2014 <f256main+0x1737>
    148e: c9 06        	cmp	#$6
    1490: b0 33        	bcs	$14c5 <f256main+0xbe8>
    1492: aa           	tax
    1493: 0a           	asl
    1494: 0a           	asl
    1495: 85 12        	sta	$12                     ; 0x2012 <f256main+0x1735>
    1497: 0a           	asl
    1498: 0a           	asl
    1499: 18           	clc
    149a: 65 12        	adc	$12                     ; 0x2012 <f256main+0x1735>
    149c: 85 12        	sta	$12                     ; 0x2012 <f256main+0x1735>
    149e: a9 c7        	lda	#$c7
    14a0: 18           	clc
    14a1: 65 12        	adc	$12                     ; 0x2012 <f256main+0x1735>
    14a3: 85 12        	sta	$12                     ; 0x2012 <f256main+0x1735>
    14a5: a9 63        	lda	#$63
    14a7: 69 00        	adc	#$0
    14a9: 85 13        	sta	$13                     ; 0x2013 <f256main+0x1736>
    14ab: 8a           	txa
    14ac: 18           	clc
    14ad: 69 fa        	adc	#$fa
    14af: aa           	tax
    14b0: a9 3a        	lda	#$3a
    14b2: 92 12        	sta	($12)                   ; 0x2012 <f256main+0x1735>
    14b4: a5 12        	lda	$12                     ; 0x2012 <f256main+0x1735>
    14b6: 18           	clc
    14b7: 69 14        	adc	#$14
    14b9: 85 12        	sta	$12                     ; 0x2012 <f256main+0x1735>
    14bb: a5 13        	lda	$13                     ; 0x2013 <f256main+0x1736>
    14bd: 69 00        	adc	#$0
    14bf: 85 13        	sta	$13                     ; 0x2013 <f256main+0x1736>
    14c1: 8a           	txa
    14c2: 1a           	inc
    14c3: d0 ea        	bne	$14af <f256main+0xbd2>
    14c5: a9 00        	lda	#$0
    14c7: 4c 1b 15     	jmp	$151b <f256main+0xc3e>
    14ca: a2 00        	ldx	#$0
    14cc: 18           	clc
    14cd: a5 12        	lda	$12                     ; 0x2012 <f256main+0x1735>
    14cf: 69 00        	adc	#$0
    14d1: 85 15        	sta	$15                     ; 0x2015 <f256main+0x1738>
    14d3: a5 13        	lda	$13                     ; 0x2013 <f256main+0x1736>
    14d5: 69 54        	adc	#$54
    14d7: 85 13        	sta	$13                     ; 0x2013 <f256main+0x1736>
    14d9: 8a           	txa
    14da: 69 01        	adc	#$1
    14dc: a6 17        	ldx	$17                     ; 0x2017 <f256main+0x173a>
    14de: 48           	pha
    14df: bd c7 63     	lda	$63c7,x                 ; 0x63c7 <lights+0x13>
    14e2: aa           	tax
    14e3: 68           	pla
    14e4: 86 16        	stx	$16                     ; 0x2016 <f256main+0x1739>
    14e6: a6 13        	ldx	$13                     ; 0x2013 <f256main+0x1736>
    14e8: 86 12        	stx	$12                     ; 0x2012 <f256main+0x1735>
    14ea: 06 12        	asl	$12                     ; 0x2012 <f256main+0x1735>
    14ec: 2a           	rol
    14ed: 06 12        	asl	$12                     ; 0x2012 <f256main+0x1735>
    14ef: 2a           	rol
    14f0: 06 12        	asl	$12                     ; 0x2012 <f256main+0x1735>
    14f2: 2a           	rol
    14f3: a6 0f        	ldx	$f                      ; 0x200f <f256main+0x1732>
    14f5: 78           	sei
    14f6: 85 0f        	sta	$f                      ; 0x200f <f256main+0x1732>
    14f8: a4 15        	ldy	$15                     ; 0x2015 <f256main+0x1738>
    14fa: 84 12        	sty	$12                     ; 0x2012 <f256main+0x1735>
    14fc: a5 13        	lda	$13                     ; 0x2013 <f256main+0x1736>
    14fe: 09 e0        	ora	#$e0
    1500: 85 13        	sta	$13                     ; 0x2013 <f256main+0x1736>
    1502: a5 16        	lda	$16                     ; 0x2016 <f256main+0x1739>
    1504: 92 12        	sta	($12)                   ; 0x2012 <f256main+0x1735>
    1506: a0 01        	ldy	#$1
    1508: a9 00        	lda	#$0
    150a: 91 12        	sta	($12),y                 ; 0x2012 <f256main+0x1735>
    150c: a5 17        	lda	$17                     ; 0x2017 <f256main+0x173a>
    150e: 86 0f        	stx	$f                      ; 0x200f <f256main+0x1732>
    1510: 58           	cli
    1511: 18           	clc
    1512: 69 14        	adc	#$14
    1514: c9 78        	cmp	#$78
    1516: d0 03        	bne	$151b <f256main+0xc3e>
    1518: 4c 71 15     	jmp	$1571 <f256main+0xc94>
    151b: 85 17        	sta	$17                     ; 0x2017 <f256main+0x173a>
    151d: aa           	tax
    151e: bd b5 63     	lda	$63b5,x                 ; 0x63b5 <lights+0x1>
    1521: bc b6 63     	ldy	$63b6,x                 ; 0x63b6 <lights+0x2>
    1524: 0a           	asl
    1525: 85 12        	sta	$12                     ; 0x2012 <f256main+0x1735>
    1527: 84 13        	sty	$13                     ; 0x2013 <f256main+0x1736>
    1529: 26 13        	rol	$13                     ; 0x2013 <f256main+0x1736>
    152b: bd b7 63     	lda	$63b7,x                 ; 0x63b7 <lights+0x3>
    152e: 48           	pha
    152f: bd b8 63     	lda	$63b8,x                 ; 0x63b8 <lights+0x4>
    1532: aa           	tax
    1533: 68           	pla
    1534: 86 14        	stx	$14                     ; 0x2014 <f256main+0x1737>
    1536: 0a           	asl
    1537: 26 14        	rol	$14                     ; 0x2014 <f256main+0x1737>
    1539: 0a           	asl
    153a: 26 14        	rol	$14                     ; 0x2014 <f256main+0x1737>
    153c: a6 14        	ldx	$14                     ; 0x2014 <f256main+0x1737>
    153e: 86 15        	stx	$15                     ; 0x2015 <f256main+0x1738>
    1540: 0a           	asl
    1541: 85 14        	sta	$14                     ; 0x2014 <f256main+0x1737>
    1543: 26 15        	rol	$15                     ; 0x2015 <f256main+0x1738>
    1545: 0a           	asl
    1546: aa           	tax
    1547: a5 15        	lda	$15                     ; 0x2015 <f256main+0x1738>
    1549: 2a           	rol
    154a: 86 16        	stx	$16                     ; 0x2016 <f256main+0x1739>
    154c: 06 16        	asl	$16                     ; 0x2016 <f256main+0x1739>
    154e: 2a           	rol
    154f: aa           	tax
    1550: a5 16        	lda	$16                     ; 0x2016 <f256main+0x1739>
    1552: 18           	clc
    1553: 65 14        	adc	$14                     ; 0x2014 <f256main+0x1737>
    1555: 85 14        	sta	$14                     ; 0x2014 <f256main+0x1737>
    1557: 8a           	txa
    1558: 65 15        	adc	$15                     ; 0x2015 <f256main+0x1738>
    155a: aa           	tax
    155b: a5 14        	lda	$14                     ; 0x2014 <f256main+0x1737>
    155d: 18           	clc
    155e: 65 12        	adc	$12                     ; 0x2012 <f256main+0x1735>
    1560: 85 12        	sta	$12                     ; 0x2012 <f256main+0x1735>
    1562: 8a           	txa
    1563: 65 13        	adc	$13                     ; 0x2013 <f256main+0x1736>
    1565: 85 13        	sta	$13                     ; 0x2013 <f256main+0x1736>
    1567: 30 03        	bmi	$156c <f256main+0xc8f>
    1569: 4c ca 14     	jmp	$14ca <f256main+0xbed>
    156c: a2 ff        	ldx	#$ff
    156e: 4c cc 14     	jmp	$14cc <f256main+0xbef>
    1571: a2 80        	ldx	#$80
    1573: 86 f3        	stx	$f3                     ; 0x20f3 <f256main+0x1816>
    1575: 18           	clc
    1576: a5 10        	lda	$10                     ; 0x2010 <f256main+0x1733>
    1578: 69 0e        	adc	#$e
    157a: 85 12        	sta	$12                     ; 0x2012 <f256main+0x1735>
    157c: a5 11        	lda	$11                     ; 0x2011 <f256main+0x1734>
    157e: 69 00        	adc	#$0
    1580: 85 13        	sta	$13                     ; 0x2013 <f256main+0x1736>
    1582: 20 f0 ff     	jsr	$fff0 <__heap_start+0x9a66>
    1585: 92 12        	sta	($12)                   ; 0x2012 <f256main+0x1735>
    1587: a9 00        	lda	#$0
    1589: 6a           	ror
    158a: 85 2e        	sta	$2e                     ; 0x202e <f256main+0x1751>
    158c: b2 12        	lda	($12)                   ; 0x2012 <f256main+0x1735>
    158e: 1a           	inc
    158f: 85 a1        	sta	$a1                     ; 0x20a1 <f256main+0x17c4>
    1591: 64 f3        	stz	$f3                     ; 0x20f3 <f256main+0x1816>
    1593: a6 a1        	ldx	$a1                     ; 0x20a1 <f256main+0x17c4>
    1595: 86 f4        	stx	$f4                     ; 0x20f4 <f256main+0x1817>
    1597: a2 01        	ldx	#$1
    1599: 86 f5        	stx	$f5                     ; 0x20f5 <f256main+0x1818>
    159b: 18           	clc
    159c: a5 10        	lda	$10                     ; 0x2010 <f256main+0x1733>
    159e: 69 0f        	adc	#$f
    15a0: 85 12        	sta	$12                     ; 0x2012 <f256main+0x1735>
    15a2: a5 11        	lda	$11                     ; 0x2011 <f256main+0x1734>
    15a4: 69 00        	adc	#$0
    15a6: 85 13        	sta	$13                     ; 0x2013 <f256main+0x1736>
    15a8: 20 f0 ff     	jsr	$fff0 <__heap_start+0x9a66>
    15ab: 92 12        	sta	($12)                   ; 0x2012 <f256main+0x1735>
    15ad: a9 00        	lda	#$0
    15af: 6a           	ror
    15b0: 85 2e        	sta	$2e                     ; 0x202e <f256main+0x1751>
    15b2: a6 94        	ldx	$94                     ; 0x2094 <f256main+0x17b7>
    15b4: e0 0c        	cpx	#$c
    15b6: f0 03        	beq	$15bb <f256main+0xcde>
    15b8: 4c d3 0e     	jmp	$ed3 <f256main+0x5f6>
    15bb: a5 97        	lda	$97                     ; 0x2097 <f256main+0x17ba>
    15bd: 18           	clc
    15be: 48           	pha
    15bf: a9 00        	lda	#$0
    15c1: a0 05        	ldy	#$5
    15c3: 91 10        	sta	($10),y                 ; 0x2010 <f256main+0x1733>
    15c5: 68           	pla
    15c6: b8           	clv
    15c7: f0 08        	beq	$15d1 <f256main+0xcf4>
    15c9: c9 11        	cmp	#$11
    15cb: 2c fa 5b     	bit	$5bfa                   ; 0x5bfa <__set_v>
    15ce: b0 01        	bcs	$15d1 <f256main+0xcf4>
    15d0: b8           	clv
    15d1: a6 98        	ldx	$98                     ; 0x2098 <f256main+0x17bb>
    15d3: f0 0c        	beq	$15e1 <f256main+0xd04>
    15d5: e0 11        	cpx	#$11
    15d7: 48           	pha
    15d8: a9 01        	lda	#$1
    15da: b0 02        	bcs	$15de <f256main+0xd01>
    15dc: a9 00        	lda	#$0
    15de: 91 10        	sta	($10),y                 ; 0x2010 <f256main+0x1733>
    15e0: 68           	pla
    15e1: 86 18        	stx	$18                     ; 0x2018 <f256main+0x173b>
    15e3: ae e2 d6     	ldx	$d6e2                   ; 0xd6e2 <__heap_start+0x7158>
    15e6: ac e3 d6     	ldy	$d6e3                   ; 0xd6e3 <__heap_start+0x7159>
    15e9: 84 14        	sty	$14                     ; 0x2014 <f256main+0x1737>
    15eb: 50 01        	bvc	$15ee <f256main+0xd11>
    15ed: 0a           	asl
    15ee: 85 12        	sta	$12                     ; 0x2012 <f256main+0x1735>
    15f0: 8a           	txa
    15f1: a6 12        	ldx	$12                     ; 0x2012 <f256main+0x1735>
    15f3: 10 06        	bpl	$15fb <f256main+0xd1e>
    15f5: a2 ff        	ldx	#$ff
    15f7: 86 13        	stx	$13                     ; 0x2013 <f256main+0x1736>
    15f9: 80 02        	bra	$15fd <f256main+0xd20>
    15fb: 64 13        	stz	$13                     ; 0x2013 <f256main+0x1736>
    15fd: 18           	clc
    15fe: 65 12        	adc	$12                     ; 0x2012 <f256main+0x1735>
    1600: a8           	tay
    1601: a5 14        	lda	$14                     ; 0x2014 <f256main+0x1737>
    1603: 65 13        	adc	$13                     ; 0x2013 <f256main+0x1736>
    1605: 5a           	phy
    1606: fa           	plx
    1607: 84 a2        	sty	$a2                     ; 0x20a2 <f256main+0x17c5>
    1609: 85 14        	sta	$14                     ; 0x2014 <f256main+0x1737>
    160b: 85 a3        	sta	$a3                     ; 0x20a3 <f256main+0x17c6>
    160d: ac e4 d6     	ldy	$d6e4                   ; 0xd6e4 <__heap_start+0x715a>
    1610: 84 15        	sty	$15                     ; 0x2015 <f256main+0x1738>
    1612: ad e5 d6     	lda	$d6e5                   ; 0xd6e5 <__heap_start+0x715b>
    1615: 48           	pha
    1616: a0 05        	ldy	#$5
    1618: b1 10        	lda	($10),y                 ; 0x2010 <f256main+0x1733>
    161a: 85 12        	sta	$12                     ; 0x2012 <f256main+0x1735>
    161c: 68           	pla
    161d: a4 12        	ldy	$12                     ; 0x2012 <f256main+0x1735>
    161f: f0 08        	beq	$1629 <f256main+0xd4c>
    1621: a4 18        	ldy	$18                     ; 0x2018 <f256main+0x173b>
    1623: 84 12        	sty	$12                     ; 0x2012 <f256main+0x1735>
    1625: 06 12        	asl	$12                     ; 0x2012 <f256main+0x1735>
    1627: 80 04        	bra	$162d <f256main+0xd50>
    1629: a4 18        	ldy	$18                     ; 0x2018 <f256main+0x173b>
    162b: 84 12        	sty	$12                     ; 0x2012 <f256main+0x1735>
    162d: da           	phx
    162e: 7a           	ply
    162f: a6 12        	ldx	$12                     ; 0x2012 <f256main+0x1735>
    1631: 10 08        	bpl	$163b <f256main+0xd5e>
    1633: 85 16        	sta	$16                     ; 0x2016 <f256main+0x1739>
    1635: a2 ff        	ldx	#$ff
    1637: 86 13        	stx	$13                     ; 0x2013 <f256main+0x1736>
    1639: 80 04        	bra	$163f <f256main+0xd62>
    163b: 85 16        	sta	$16                     ; 0x2016 <f256main+0x1739>
    163d: 64 13        	stz	$13                     ; 0x2013 <f256main+0x1736>
    163f: 18           	clc
    1640: a5 15        	lda	$15                     ; 0x2015 <f256main+0x1738>
    1642: 65 12        	adc	$12                     ; 0x2012 <f256main+0x1735>
    1644: 85 12        	sta	$12                     ; 0x2012 <f256main+0x1735>
    1646: a5 16        	lda	$16                     ; 0x2016 <f256main+0x1739>
    1648: 65 13        	adc	$13                     ; 0x2013 <f256main+0x1736>
    164a: aa           	tax
    164b: a5 12        	lda	$12                     ; 0x2012 <f256main+0x1735>
    164d: 85 a4        	sta	$a4                     ; 0x20a4 <f256main+0x17c7>
    164f: 8a           	txa
    1650: 86 a5        	stx	$a5                     ; 0x20a5 <f256main+0x17c8>
    1652: a6 14        	ldx	$14                     ; 0x2014 <f256main+0x1737>
    1654: 30 0c        	bmi	$1662 <f256main+0xd85>
    1656: a6 14        	ldx	$14                     ; 0x2014 <f256main+0x1737>
    1658: e0 02        	cpx	#$2
    165a: d0 0c        	bne	$1668 <f256main+0xd8b>
    165c: c0 71        	cpy	#$71
    165e: b0 0c        	bcs	$166c <f256main+0xd8f>
    1660: 80 14        	bra	$1676 <f256main+0xd99>
    1662: a0 00        	ldy	#$0
    1664: a2 00        	ldx	#$0
    1666: 80 08        	bra	$1670 <f256main+0xd93>
    1668: e0 02        	cpx	#$2
    166a: 90 0a        	bcc	$1676 <f256main+0xd99>
    166c: a0 70        	ldy	#$70
    166e: a2 02        	ldx	#$2
    1670: 84 a2        	sty	$a2                     ; 0x20a2 <f256main+0x17c5>
    1672: 86 14        	stx	$14                     ; 0x2014 <f256main+0x1737>
    1674: 86 a3        	stx	$a3                     ; 0x20a3 <f256main+0x17c6>
    1676: aa           	tax
    1677: 30 0c        	bmi	$1685 <f256main+0xda8>
    1679: c9 01        	cmp	#$1
    167b: d0 0f        	bne	$168c <f256main+0xdaf>
    167d: a6 12        	ldx	$12                     ; 0x2012 <f256main+0x1735>
    167f: e0 d1        	cpx	#$d1
    1681: b0 0d        	bcs	$1690 <f256main+0xdb3>
    1683: 80 15        	bra	$169a <f256main+0xdbd>
    1685: 98           	tya
    1686: a2 00        	ldx	#$0
    1688: a0 00        	ldy	#$0
    168a: 80 09        	bra	$1695 <f256main+0xdb8>
    168c: c9 01        	cmp	#$1
    168e: 90 0a        	bcc	$169a <f256main+0xdbd>
    1690: 98           	tya
    1691: a2 d0        	ldx	#$d0
    1693: a0 01        	ldy	#$1
    1695: 86 a4        	stx	$a4                     ; 0x20a4 <f256main+0x17c7>
    1697: 84 a5        	sty	$a5                     ; 0x20a5 <f256main+0x17c8>
    1699: a8           	tay
    169a: 8c e2 d6     	sty	$d6e2                   ; 0xd6e2 <__heap_start+0x7158>
    169d: a6 14        	ldx	$14                     ; 0x2014 <f256main+0x1737>
    169f: 8e e3 d6     	stx	$d6e3                   ; 0xd6e3 <__heap_start+0x7159>
    16a2: a6 a4        	ldx	$a4                     ; 0x20a4 <f256main+0x17c7>
    16a4: a4 a5        	ldy	$a5                     ; 0x20a5 <f256main+0x17c8>
    16a6: 8e e4 d6     	stx	$d6e4                   ; 0xd6e4 <__heap_start+0x715a>
    16a9: 8c e5 d6     	sty	$d6e5                   ; 0xd6e5 <__heap_start+0x715b>
    16ac: a5 a0        	lda	$a0                     ; 0x20a0 <f256main+0x17c3>
    16ae: c9 ff        	cmp	#$ff
    16b0: d0 03        	bne	$16b5 <f256main+0xdd8>
    16b2: 4c 5f 19     	jmp	$195f <f256main+0x1082>
    16b5: 0a           	asl
    16b6: 64 12        	stz	$12                     ; 0x2012 <f256main+0x1735>
    16b8: 26 12        	rol	$12                     ; 0x2012 <f256main+0x1735>
    16ba: 0a           	asl
    16bb: 26 12        	rol	$12                     ; 0x2012 <f256main+0x1735>
    16bd: 0a           	asl
    16be: 26 12        	rol	$12                     ; 0x2012 <f256main+0x1735>
    16c0: 0a           	asl
    16c1: 85 13        	sta	$13                     ; 0x2013 <f256main+0x1736>
    16c3: 26 12        	rol	$12                     ; 0x2012 <f256main+0x1735>
    16c5: 0a           	asl
    16c6: a6 12        	ldx	$12                     ; 0x2012 <f256main+0x1735>
    16c8: 86 14        	stx	$14                     ; 0x2014 <f256main+0x1737>
    16ca: 26 14        	rol	$14                     ; 0x2014 <f256main+0x1737>
    16cc: 18           	clc
    16cd: 65 13        	adc	$13                     ; 0x2013 <f256main+0x1736>
    16cf: 85 1a        	sta	$1a                     ; 0x201a <f256main+0x173d>
    16d1: 85 13        	sta	$13                     ; 0x2013 <f256main+0x1736>
    16d3: a5 14        	lda	$14                     ; 0x2014 <f256main+0x1737>
    16d5: 65 12        	adc	$12                     ; 0x2012 <f256main+0x1735>
    16d7: 85 1b        	sta	$1b                     ; 0x201b <f256main+0x173e>
    16d9: 85 12        	sta	$12                     ; 0x2012 <f256main+0x1735>
    16db: a9 14        	lda	#$14
    16dd: 18           	clc
    16de: 65 13        	adc	$13                     ; 0x2013 <f256main+0x1736>
    16e0: aa           	tax
    16e1: a9 61        	lda	#$61
    16e3: 65 12        	adc	$12                     ; 0x2012 <f256main+0x1735>
    16e5: 86 12        	stx	$12                     ; 0x2012 <f256main+0x1735>
    16e7: 64 15        	stz	$15                     ; 0x2015 <f256main+0x1738>
    16e9: 85 13        	sta	$13                     ; 0x2013 <f256main+0x1736>
    16eb: a6 98        	ldx	$98                     ; 0x2098 <f256main+0x17bb>
    16ed: 86 14        	stx	$14                     ; 0x2014 <f256main+0x1737>
    16ef: 10 08        	bpl	$16f9 <f256main+0xe1c>
    16f1: 64 17        	stz	$17                     ; 0x2017 <f256main+0x173a>
    16f3: a2 ff        	ldx	#$ff
    16f5: 86 15        	stx	$15                     ; 0x2015 <f256main+0x1738>
    16f7: 80 02        	bra	$16fb <f256main+0xe1e>
    16f9: 64 17        	stz	$17                     ; 0x2017 <f256main+0x173a>
    16fb: a0 27        	ldy	#$27
    16fd: b1 12        	lda	($12),y                 ; 0x2012 <f256main+0x1735>
    16ff: 38           	sec
    1700: e5 14        	sbc	$14                     ; 0x2014 <f256main+0x1737>
    1702: aa           	tax
    1703: a9 00        	lda	#$0
    1705: e5 15        	sbc	$15                     ; 0x2015 <f256main+0x1738>
    1707: 85 16        	sta	$16                     ; 0x2016 <f256main+0x1739>
    1709: c8           	iny
    170a: b1 12        	lda	($12),y                 ; 0x2012 <f256main+0x1735>
    170c: 85 15        	sta	$15                     ; 0x2015 <f256main+0x1738>
    170e: 86 14        	stx	$14                     ; 0x2014 <f256main+0x1737>
    1710: e4 15        	cpx	$15                     ; 0x2015 <f256main+0x1738>
    1712: a5 16        	lda	$16                     ; 0x2016 <f256main+0x1739>
    1714: e9 00        	sbc	#$0
    1716: 50 02        	bvc	$171a <f256main+0xe3d>
    1718: 49 80        	eor	#$80
    171a: aa           	tax
    171b: 10 06        	bpl	$1723 <f256main+0xe46>
    171d: a6 15        	ldx	$15                     ; 0x2015 <f256main+0x1738>
    171f: 86 14        	stx	$14                     ; 0x2014 <f256main+0x1737>
    1721: 64 16        	stz	$16                     ; 0x2016 <f256main+0x1739>
    1723: a6 1a        	ldx	$1a                     ; 0x201a <f256main+0x173d>
    1725: 86 15        	stx	$15                     ; 0x2015 <f256main+0x1738>
    1727: a6 1b        	ldx	$1b                     ; 0x201b <f256main+0x173e>
    1729: 86 17        	stx	$17                     ; 0x2017 <f256main+0x173a>
    172b: a9 14        	lda	#$14
    172d: 18           	clc
    172e: 65 15        	adc	$15                     ; 0x2015 <f256main+0x1738>
    1730: 85 18        	sta	$18                     ; 0x2018 <f256main+0x173b>
    1732: a9 61        	lda	#$61
    1734: 65 17        	adc	$17                     ; 0x2017 <f256main+0x173a>
    1736: 85 19        	sta	$19                     ; 0x2019 <f256main+0x173c>
    1738: a0 29        	ldy	#$29
    173a: b1 18        	lda	($18),y                 ; 0x2018 <f256main+0x173b>
    173c: a2 00        	ldx	#$0
    173e: e4 16        	cpx	$16                     ; 0x2016 <f256main+0x1739>
    1740: d0 04        	bne	$1746 <f256main+0xe69>
    1742: c5 14        	cmp	$14                     ; 0x2014 <f256main+0x1737>
    1744: 80 02        	bra	$1748 <f256main+0xe6b>
    1746: e4 16        	cpx	$16                     ; 0x2016 <f256main+0x1739>
    1748: a6 14        	ldx	$14                     ; 0x2014 <f256main+0x1737>
    174a: b0 01        	bcs	$174d <f256main+0xe70>
    174c: aa           	tax
    174d: a9 14        	lda	#$14
    174f: 18           	clc
    1750: 65 1a        	adc	$1a                     ; 0x201a <f256main+0x173d>
    1752: 85 14        	sta	$14                     ; 0x2014 <f256main+0x1737>
    1754: a9 61        	lda	#$61
    1756: 65 1b        	adc	$1b                     ; 0x201b <f256main+0x173e>
    1758: 85 15        	sta	$15                     ; 0x2015 <f256main+0x1738>
    175a: a0 27        	ldy	#$27
    175c: 8a           	txa
    175d: 91 14        	sta	($14),y                 ; 0x2014 <f256main+0x1737>
    175f: 20 95 42     	jsr	$4295 <updateSlider>
    1762: a5 a0        	lda	$a0                     ; 0x20a0 <f256main+0x17c3>
    1764: 0a           	asl
    1765: 64 12        	stz	$12                     ; 0x2012 <f256main+0x1735>
    1767: 26 12        	rol	$12                     ; 0x2012 <f256main+0x1735>
    1769: 0a           	asl
    176a: 26 12        	rol	$12                     ; 0x2012 <f256main+0x1735>
    176c: 0a           	asl
    176d: 26 12        	rol	$12                     ; 0x2012 <f256main+0x1735>
    176f: 0a           	asl
    1770: 85 13        	sta	$13                     ; 0x2013 <f256main+0x1736>
    1772: 26 12        	rol	$12                     ; 0x2012 <f256main+0x1735>
    1774: 0a           	asl
    1775: a6 12        	ldx	$12                     ; 0x2012 <f256main+0x1735>
    1777: 86 14        	stx	$14                     ; 0x2014 <f256main+0x1737>
    1779: 26 14        	rol	$14                     ; 0x2014 <f256main+0x1737>
    177b: 18           	clc
    177c: 65 13        	adc	$13                     ; 0x2013 <f256main+0x1736>
    177e: 85 13        	sta	$13                     ; 0x2013 <f256main+0x1736>
    1780: a5 14        	lda	$14                     ; 0x2014 <f256main+0x1737>
    1782: 65 12        	adc	$12                     ; 0x2012 <f256main+0x1735>
    1784: 85 12        	sta	$12                     ; 0x2012 <f256main+0x1735>
    1786: a9 14        	lda	#$14
    1788: 18           	clc
    1789: 65 13        	adc	$13                     ; 0x2013 <f256main+0x1736>
    178b: aa           	tax
    178c: a9 61        	lda	#$61
    178e: 65 12        	adc	$12                     ; 0x2012 <f256main+0x1735>
    1790: 86 12        	stx	$12                     ; 0x2012 <f256main+0x1735>
    1792: 85 13        	sta	$13                     ; 0x2013 <f256main+0x1736>
    1794: a0 12        	ldy	#$12
    1796: b1 12        	lda	($12),y                 ; 0x2012 <f256main+0x1735>
    1798: aa           	tax
    1799: 18           	clc
    179a: 69 e4        	adc	#$e4
    179c: c9 04        	cmp	#$4
    179e: b0 38        	bcs	$17d8 <f256main+0xefb>
    17a0: 0a           	asl
    17a1: aa           	tax
    17a2: 7c 05 5c     	jmp	($5c05,x)               ; 0x5c05 <__set_v+0xb>
    17a5: a5 ca        	lda	$ca                     ; 0x20ca <f256main+0x17ed>
    17a7: a6 cb        	ldx	$cb                     ; 0x20cb <f256main+0x17ee>
    17a9: 85 14        	sta	$14                     ; 0x2014 <f256main+0x1737>
    17ab: 86 15        	stx	$15                     ; 0x2015 <f256main+0x1738>
    17ad: 18           	clc
    17ae: 69 04        	adc	#$4
    17b0: 85 16        	sta	$16                     ; 0x2016 <f256main+0x1739>
    17b2: 8a           	txa
    17b3: 69 00        	adc	#$0
    17b5: 85 17        	sta	$17                     ; 0x2017 <f256main+0x173a>
    17b7: a0 04        	ldy	#$4
    17b9: b1 14        	lda	($14),y                 ; 0x2014 <f256main+0x1737>
    17bb: 85 14        	sta	$14                     ; 0x2014 <f256main+0x1737>
    17bd: a0 01        	ldy	#$1
    17bf: b1 16        	lda	($16),y                 ; 0x2016 <f256main+0x1739>
    17c1: 85 15        	sta	$15                     ; 0x2015 <f256main+0x1738>
    17c3: a9 0f        	lda	#$f
    17c5: a0 03        	ldy	#$3
    17c7: 31 14        	and	($14),y                 ; 0x2014 <f256main+0x1737>
    17c9: 85 16        	sta	$16                     ; 0x2016 <f256main+0x1739>
    17cb: a0 27        	ldy	#$27
    17cd: b1 12        	lda	($12),y                 ; 0x2012 <f256main+0x1735>
    17cf: 0a           	asl
    17d0: 0a           	asl
    17d1: 0a           	asl
    17d2: 0a           	asl
    17d3: 05 16        	ora	$16                     ; 0x2016 <f256main+0x1739>
    17d5: 4c 30 19     	jmp	$1930 <f256main+0x1053>
    17d8: e0 32        	cpx	#$32
    17da: f0 03        	beq	$17df <f256main+0xf02>
    17dc: 4c 5f 19     	jmp	$195f <f256main+0x1082>
    17df: a5 ca        	lda	$ca                     ; 0x20ca <f256main+0x17ed>
    17e1: a6 cb        	ldx	$cb                     ; 0x20cb <f256main+0x17ee>
    17e3: 85 14        	sta	$14                     ; 0x2014 <f256main+0x1737>
    17e5: 86 15        	stx	$15                     ; 0x2015 <f256main+0x1738>
    17e7: 18           	clc
    17e8: 69 04        	adc	#$4
    17ea: 85 16        	sta	$16                     ; 0x2016 <f256main+0x1739>
    17ec: 8a           	txa
    17ed: 69 00        	adc	#$0
    17ef: 85 17        	sta	$17                     ; 0x2017 <f256main+0x173a>
    17f1: a0 04        	ldy	#$4
    17f3: b1 14        	lda	($14),y                 ; 0x2014 <f256main+0x1737>
    17f5: 85 14        	sta	$14                     ; 0x2014 <f256main+0x1737>
    17f7: a0 01        	ldy	#$1
    17f9: b1 16        	lda	($16),y                 ; 0x2016 <f256main+0x1739>
    17fb: 85 15        	sta	$15                     ; 0x2015 <f256main+0x1738>
    17fd: a9 0f        	lda	#$f
    17ff: a0 08        	ldy	#$8
    1801: 31 14        	and	($14),y                 ; 0x2014 <f256main+0x1737>
    1803: 85 16        	sta	$16                     ; 0x2016 <f256main+0x1739>
    1805: a0 27        	ldy	#$27
    1807: b1 12        	lda	($12),y                 ; 0x2012 <f256main+0x1735>
    1809: 0a           	asl
    180a: 0a           	asl
    180b: 0a           	asl
    180c: 0a           	asl
    180d: 05 16        	ora	$16                     ; 0x2016 <f256main+0x1739>
    180f: a0 08        	ldy	#$8
    1811: 91 14        	sta	($14),y                 ; 0x2014 <f256main+0x1737>
    1813: 8d 17 d4     	sta	$d417                   ; 0xd417 <__heap_start+0x6e8d>
    1816: 8d 17 d5     	sta	$d517                   ; 0xd517 <__heap_start+0x6f8d>
    1819: 4c 5f 19     	jmp	$195f <f256main+0x1082>
    181c: e6 ab        	inc	$ab                     ; 0x20ab <f256main+0x17ce>
    181e: 4c 7c 10     	jmp	$107c <f256main+0x79f>
    1821: a2 b1        	ldx	#$b1
    1823: 86 14        	stx	$14                     ; 0x2014 <f256main+0x1737>
    1825: a2 dd        	ldx	#$dd
    1827: 86 15        	stx	$15                     ; 0x2015 <f256main+0x1738>
    1829: c9 04        	cmp	#$4
    182b: f0 0c        	beq	$1839 <f256main+0xf5c>
    182d: b2 12        	lda	($12)                   ; 0x2012 <f256main+0x1735>
    182f: d0 08        	bne	$1839 <f256main+0xf5c>
    1831: a2 a1        	ldx	#$a1
    1833: 86 14        	stx	$14                     ; 0x2014 <f256main+0x1737>
    1835: a2 dd        	ldx	#$dd
    1837: 86 15        	stx	$15                     ; 0x2015 <f256main+0x1738>
    1839: a9 80        	lda	#$80
    183b: 92 14        	sta	($14)                   ; 0x2014 <f256main+0x1737>
    183d: a5 2c        	lda	$2c                     ; 0x202c <f256main+0x174f>
    183f: 92 14        	sta	($14)                   ; 0x2014 <f256main+0x1737>
    1841: a9 7f        	lda	#$7f
    1843: 92 14        	sta	($14)                   ; 0x2014 <f256main+0x1737>
    1845: b2 12        	lda	($12)                   ; 0x2012 <f256main+0x1735>
    1847: a4 27        	ldy	$27                     ; 0x2027 <f256main+0x174a>
    1849: aa           	tax
    184a: d0 03        	bne	$184f <f256main+0xf72>
    184c: 4c b2 1d     	jmp	$1db2 <f256main+0x14d5>
    184f: a6 ab        	ldx	$ab                     ; 0x20ab <f256main+0x17ce>
    1851: d0 03        	bne	$1856 <f256main+0xf79>
    1853: 4c 69 10     	jmp	$1069 <f256main+0x78c>
    1856: ca           	dex
    1857: 86 ab        	stx	$ab                     ; 0x20ab <f256main+0x17ce>
    1859: 4c 69 10     	jmp	$1069 <f256main+0x78c>
    185c: b2 12        	lda	($12)                   ; 0x2012 <f256main+0x1735>
    185e: f0 03        	beq	$1863 <f256main+0xf86>
    1860: 4c 60 0f     	jmp	$f60 <f256main+0x683>
    1863: a2 a1        	ldx	#$a1
    1865: 86 14        	stx	$14                     ; 0x2014 <f256main+0x1737>
    1867: a2 dd        	ldx	#$dd
    1869: 86 15        	stx	$15                     ; 0x2015 <f256main+0x1738>
    186b: 4c 60 0f     	jmp	$f60 <f256main+0x683>
    186e: a2 00        	ldx	#$0
    1870: 4c f2 10     	jmp	$10f2 <f256main+0x815>
    1873: 84 13        	sty	$13                     ; 0x2013 <f256main+0x1736>
    1875: 4c ff 10     	jmp	$10ff <f256main+0x822>
    1878: a2 00        	ldx	#$0
    187a: 4c 88 10     	jmp	$1088 <f256main+0x7ab>
    187d: a5 ca        	lda	$ca                     ; 0x20ca <f256main+0x17ed>
    187f: a6 cb        	ldx	$cb                     ; 0x20cb <f256main+0x17ee>
    1881: 85 14        	sta	$14                     ; 0x2014 <f256main+0x1737>
    1883: 86 15        	stx	$15                     ; 0x2015 <f256main+0x1738>
    1885: 18           	clc
    1886: 69 04        	adc	#$4
    1888: 85 16        	sta	$16                     ; 0x2016 <f256main+0x1739>
    188a: 8a           	txa
    188b: 69 00        	adc	#$0
    188d: 85 17        	sta	$17                     ; 0x2017 <f256main+0x173a>
    188f: a0 04        	ldy	#$4
    1891: b1 14        	lda	($14),y                 ; 0x2014 <f256main+0x1737>
    1893: 85 14        	sta	$14                     ; 0x2014 <f256main+0x1737>
    1895: a0 01        	ldy	#$1
    1897: b1 16        	lda	($16),y                 ; 0x2016 <f256main+0x1739>
    1899: 85 15        	sta	$15                     ; 0x2015 <f256main+0x1738>
    189b: a9 0f        	lda	#$f
    189d: a0 04        	ldy	#$4
    189f: 31 14        	and	($14),y                 ; 0x2014 <f256main+0x1737>
    18a1: 85 16        	sta	$16                     ; 0x2016 <f256main+0x1739>
    18a3: a0 27        	ldy	#$27
    18a5: b1 12        	lda	($12),y                 ; 0x2012 <f256main+0x1735>
    18a7: 0a           	asl
    18a8: 0a           	asl
    18a9: 0a           	asl
    18aa: 0a           	asl
    18ab: 05 16        	ora	$16                     ; 0x2016 <f256main+0x1739>
    18ad: 80 28        	bra	$18d7 <f256main+0xffa>
    18af: a5 ca        	lda	$ca                     ; 0x20ca <f256main+0x17ed>
    18b1: a6 cb        	ldx	$cb                     ; 0x20cb <f256main+0x17ee>
    18b3: 85 14        	sta	$14                     ; 0x2014 <f256main+0x1737>
    18b5: 86 15        	stx	$15                     ; 0x2015 <f256main+0x1738>
    18b7: 18           	clc
    18b8: 69 04        	adc	#$4
    18ba: 85 16        	sta	$16                     ; 0x2016 <f256main+0x1739>
    18bc: 8a           	txa
    18bd: 69 00        	adc	#$0
    18bf: 85 17        	sta	$17                     ; 0x2017 <f256main+0x173a>
    18c1: a0 04        	ldy	#$4
    18c3: b1 14        	lda	($14),y                 ; 0x2014 <f256main+0x1737>
    18c5: 85 14        	sta	$14                     ; 0x2014 <f256main+0x1737>
    18c7: a0 01        	ldy	#$1
    18c9: b1 16        	lda	($16),y                 ; 0x2016 <f256main+0x1739>
    18cb: 85 15        	sta	$15                     ; 0x2015 <f256main+0x1738>
    18cd: a9 f0        	lda	#$f0
    18cf: a0 04        	ldy	#$4
    18d1: 31 14        	and	($14),y                 ; 0x2014 <f256main+0x1737>
    18d3: a0 27        	ldy	#$27
    18d5: 11 12        	ora	($12),y                 ; 0x2012 <f256main+0x1735>
    18d7: a0 04        	ldy	#$4
    18d9: 91 14        	sta	($14),y                 ; 0x2014 <f256main+0x1737>
    18db: 85 13        	sta	$13                     ; 0x2013 <f256main+0x1736>
    18dd: 88           	dey
    18de: b1 14        	lda	($14),y                 ; 0x2014 <f256main+0x1737>
    18e0: 8d 05 d4     	sta	$d405                   ; 0xd405 <__heap_start+0x6e7b>
    18e3: 8d 0c d4     	sta	$d40c                   ; 0xd40c <__heap_start+0x6e82>
    18e6: 8d 13 d4     	sta	$d413                   ; 0xd413 <__heap_start+0x6e89>
    18e9: 8d 05 d5     	sta	$d505                   ; 0xd505 <__heap_start+0x6f7b>
    18ec: 8d 0c d5     	sta	$d50c                   ; 0xd50c <__heap_start+0x6f82>
    18ef: 8d 13 d5     	sta	$d513                   ; 0xd513 <__heap_start+0x6f89>
    18f2: a6 13        	ldx	$13                     ; 0x2013 <f256main+0x1736>
    18f4: 8e 06 d4     	stx	$d406                   ; 0xd406 <__heap_start+0x6e7c>
    18f7: 8e 0d d4     	stx	$d40d                   ; 0xd40d <__heap_start+0x6e83>
    18fa: 8e 14 d4     	stx	$d414                   ; 0xd414 <__heap_start+0x6e8a>
    18fd: 8e 06 d5     	stx	$d506                   ; 0xd506 <__heap_start+0x6f7c>
    1900: 8e 0d d5     	stx	$d50d                   ; 0xd50d <__heap_start+0x6f83>
    1903: 8e 14 d5     	stx	$d514                   ; 0xd514 <__heap_start+0x6f8a>
    1906: 80 57        	bra	$195f <f256main+0x1082>
    1908: a5 ca        	lda	$ca                     ; 0x20ca <f256main+0x17ed>
    190a: a6 cb        	ldx	$cb                     ; 0x20cb <f256main+0x17ee>
    190c: 85 14        	sta	$14                     ; 0x2014 <f256main+0x1737>
    190e: 86 15        	stx	$15                     ; 0x2015 <f256main+0x1738>
    1910: 18           	clc
    1911: 69 04        	adc	#$4
    1913: 85 16        	sta	$16                     ; 0x2016 <f256main+0x1739>
    1915: 8a           	txa
    1916: 69 00        	adc	#$0
    1918: 85 17        	sta	$17                     ; 0x2017 <f256main+0x173a>
    191a: a0 04        	ldy	#$4
    191c: b1 14        	lda	($14),y                 ; 0x2014 <f256main+0x1737>
    191e: 85 14        	sta	$14                     ; 0x2014 <f256main+0x1737>
    1920: a0 01        	ldy	#$1
    1922: b1 16        	lda	($16),y                 ; 0x2016 <f256main+0x1739>
    1924: 85 15        	sta	$15                     ; 0x2015 <f256main+0x1738>
    1926: a9 f0        	lda	#$f0
    1928: a0 03        	ldy	#$3
    192a: 31 14        	and	($14),y                 ; 0x2014 <f256main+0x1737>
    192c: a0 27        	ldy	#$27
    192e: 11 12        	ora	($12),y                 ; 0x2012 <f256main+0x1735>
    1930: a0 03        	ldy	#$3
    1932: 91 14        	sta	($14),y                 ; 0x2014 <f256main+0x1737>
    1934: 85 12        	sta	$12                     ; 0x2012 <f256main+0x1735>
    1936: c8           	iny
    1937: b1 14        	lda	($14),y                 ; 0x2014 <f256main+0x1737>
    1939: a4 12        	ldy	$12                     ; 0x2012 <f256main+0x1735>
    193b: 8c 05 d4     	sty	$d405                   ; 0xd405 <__heap_start+0x6e7b>
    193e: 8c 0c d4     	sty	$d40c                   ; 0xd40c <__heap_start+0x6e82>
    1941: 8c 13 d4     	sty	$d413                   ; 0xd413 <__heap_start+0x6e89>
    1944: 8c 05 d5     	sty	$d505                   ; 0xd505 <__heap_start+0x6f7b>
    1947: 8c 0c d5     	sty	$d50c                   ; 0xd50c <__heap_start+0x6f82>
    194a: 8c 13 d5     	sty	$d513                   ; 0xd513 <__heap_start+0x6f89>
    194d: 8d 06 d4     	sta	$d406                   ; 0xd406 <__heap_start+0x6e7c>
    1950: 8d 0d d4     	sta	$d40d                   ; 0xd40d <__heap_start+0x6e83>
    1953: 8d 14 d4     	sta	$d414                   ; 0xd414 <__heap_start+0x6e8a>
    1956: 8d 06 d5     	sta	$d506                   ; 0xd506 <__heap_start+0x6f7c>
    1959: 8d 0d d5     	sta	$d50d                   ; 0xd50d <__heap_start+0x6f83>
    195c: 8d 14 d5     	sta	$d514                   ; 0xd514 <__heap_start+0x6f8a>
    195f: a5 9f        	lda	$9f                     ; 0x209f <f256main+0x17c2>
    1961: c9 ff        	cmp	#$ff
    1963: d0 03        	bne	$1968 <f256main+0x108b>
    1965: 4c a5 1c     	jmp	$1ca5 <f256main+0x13c8>
    1968: 0a           	asl
    1969: 64 12        	stz	$12                     ; 0x2012 <f256main+0x1735>
    196b: 26 12        	rol	$12                     ; 0x2012 <f256main+0x1735>
    196d: 0a           	asl
    196e: 26 12        	rol	$12                     ; 0x2012 <f256main+0x1735>
    1970: 0a           	asl
    1971: 85 13        	sta	$13                     ; 0x2013 <f256main+0x1736>
    1973: 26 12        	rol	$12                     ; 0x2012 <f256main+0x1735>
    1975: 0a           	asl
    1976: a6 12        	ldx	$12                     ; 0x2012 <f256main+0x1735>
    1978: 86 14        	stx	$14                     ; 0x2014 <f256main+0x1737>
    197a: 26 14        	rol	$14                     ; 0x2014 <f256main+0x1737>
    197c: 0a           	asl
    197d: 26 14        	rol	$14                     ; 0x2014 <f256main+0x1737>
    197f: 0a           	asl
    1980: 26 14        	rol	$14                     ; 0x2014 <f256main+0x1737>
    1982: 18           	clc
    1983: 65 13        	adc	$13                     ; 0x2013 <f256main+0x1736>
    1985: 85 1a        	sta	$1a                     ; 0x201a <f256main+0x173d>
    1987: 85 13        	sta	$13                     ; 0x2013 <f256main+0x1736>
    1989: a5 14        	lda	$14                     ; 0x2014 <f256main+0x1737>
    198b: 65 12        	adc	$12                     ; 0x2012 <f256main+0x1735>
    198d: 85 1b        	sta	$1b                     ; 0x201b <f256main+0x173e>
    198f: 85 12        	sta	$12                     ; 0x2012 <f256main+0x1735>
    1991: a9 04        	lda	#$4
    1993: 18           	clc
    1994: 65 13        	adc	$13                     ; 0x2013 <f256main+0x1736>
    1996: aa           	tax
    1997: a9 62        	lda	#$62
    1999: 65 12        	adc	$12                     ; 0x2012 <f256main+0x1735>
    199b: 86 12        	stx	$12                     ; 0x2012 <f256main+0x1735>
    199d: 85 13        	sta	$13                     ; 0x2013 <f256main+0x1736>
    199f: a0 3f        	ldy	#$3f
    19a1: b1 12        	lda	($12),y                 ; 0x2012 <f256main+0x1735>
    19a3: 85 14        	sta	$14                     ; 0x2014 <f256main+0x1737>
    19a5: a5 97        	lda	$97                     ; 0x2097 <f256main+0x17ba>
    19a7: 10 04        	bpl	$19ad <f256main+0x10d0>
    19a9: a2 ff        	ldx	#$ff
    19ab: 80 02        	bra	$19af <f256main+0x10d2>
    19ad: a2 00        	ldx	#$0
    19af: 18           	clc
    19b0: 65 14        	adc	$14                     ; 0x2014 <f256main+0x1737>
    19b2: 85 14        	sta	$14                     ; 0x2014 <f256main+0x1737>
    19b4: 8a           	txa
    19b5: 69 00        	adc	#$0
    19b7: 85 16        	sta	$16                     ; 0x2016 <f256main+0x1739>
    19b9: a0 40        	ldy	#$40
    19bb: a6 14        	ldx	$14                     ; 0x2014 <f256main+0x1737>
    19bd: b1 12        	lda	($12),y                 ; 0x2012 <f256main+0x1735>
    19bf: 85 15        	sta	$15                     ; 0x2015 <f256main+0x1738>
    19c1: e4 15        	cpx	$15                     ; 0x2015 <f256main+0x1738>
    19c3: a5 16        	lda	$16                     ; 0x2016 <f256main+0x1739>
    19c5: e9 00        	sbc	#$0
    19c7: 50 02        	bvc	$19cb <f256main+0x10ee>
    19c9: 49 80        	eor	#$80
    19cb: aa           	tax
    19cc: 10 06        	bpl	$19d4 <f256main+0x10f7>
    19ce: a6 15        	ldx	$15                     ; 0x2015 <f256main+0x1738>
    19d0: 86 14        	stx	$14                     ; 0x2014 <f256main+0x1737>
    19d2: 64 16        	stz	$16                     ; 0x2016 <f256main+0x1739>
    19d4: a6 1a        	ldx	$1a                     ; 0x201a <f256main+0x173d>
    19d6: 86 15        	stx	$15                     ; 0x2015 <f256main+0x1738>
    19d8: a6 1b        	ldx	$1b                     ; 0x201b <f256main+0x173e>
    19da: 86 17        	stx	$17                     ; 0x2017 <f256main+0x173a>
    19dc: a9 04        	lda	#$4
    19de: 18           	clc
    19df: 65 15        	adc	$15                     ; 0x2015 <f256main+0x1738>
    19e1: 85 18        	sta	$18                     ; 0x2018 <f256main+0x173b>
    19e3: a9 62        	lda	#$62
    19e5: 65 17        	adc	$17                     ; 0x2017 <f256main+0x173a>
    19e7: 85 19        	sta	$19                     ; 0x2019 <f256main+0x173c>
    19e9: a0 41        	ldy	#$41
    19eb: b1 18        	lda	($18),y                 ; 0x2018 <f256main+0x173b>
    19ed: a2 00        	ldx	#$0
    19ef: e4 16        	cpx	$16                     ; 0x2016 <f256main+0x1739>
    19f1: d0 04        	bne	$19f7 <f256main+0x111a>
    19f3: c5 14        	cmp	$14                     ; 0x2014 <f256main+0x1737>
    19f5: 80 02        	bra	$19f9 <f256main+0x111c>
    19f7: e4 16        	cpx	$16                     ; 0x2016 <f256main+0x1739>
    19f9: a6 14        	ldx	$14                     ; 0x2014 <f256main+0x1737>
    19fb: b0 01        	bcs	$19fe <f256main+0x1121>
    19fd: aa           	tax
    19fe: a9 04        	lda	#$4
    1a00: 18           	clc
    1a01: 65 1a        	adc	$1a                     ; 0x201a <f256main+0x173d>
    1a03: 85 14        	sta	$14                     ; 0x2014 <f256main+0x1737>
    1a05: a9 62        	lda	#$62
    1a07: 65 1b        	adc	$1b                     ; 0x201b <f256main+0x173e>
    1a09: 85 15        	sta	$15                     ; 0x2015 <f256main+0x1738>
    1a0b: a0 3f        	ldy	#$3f
    1a0d: 8a           	txa
    1a0e: 91 14        	sta	($14),y                 ; 0x2014 <f256main+0x1737>
    1a10: 20 3d 3f     	jsr	$3f3d <updateDial>
    1a13: a5 9f        	lda	$9f                     ; 0x209f <f256main+0x17c2>
    1a15: 0a           	asl
    1a16: 64 12        	stz	$12                     ; 0x2012 <f256main+0x1735>
    1a18: 26 12        	rol	$12                     ; 0x2012 <f256main+0x1735>
    1a1a: 0a           	asl
    1a1b: 26 12        	rol	$12                     ; 0x2012 <f256main+0x1735>
    1a1d: 0a           	asl
    1a1e: 85 13        	sta	$13                     ; 0x2013 <f256main+0x1736>
    1a20: 26 12        	rol	$12                     ; 0x2012 <f256main+0x1735>
    1a22: 0a           	asl
    1a23: a6 12        	ldx	$12                     ; 0x2012 <f256main+0x1735>
    1a25: 86 14        	stx	$14                     ; 0x2014 <f256main+0x1737>
    1a27: 26 14        	rol	$14                     ; 0x2014 <f256main+0x1737>
    1a29: 0a           	asl
    1a2a: 26 14        	rol	$14                     ; 0x2014 <f256main+0x1737>
    1a2c: 0a           	asl
    1a2d: 26 14        	rol	$14                     ; 0x2014 <f256main+0x1737>
    1a2f: 18           	clc
    1a30: 65 13        	adc	$13                     ; 0x2013 <f256main+0x1736>
    1a32: 85 13        	sta	$13                     ; 0x2013 <f256main+0x1736>
    1a34: a5 14        	lda	$14                     ; 0x2014 <f256main+0x1737>
    1a36: 65 12        	adc	$12                     ; 0x2012 <f256main+0x1735>
    1a38: 85 12        	sta	$12                     ; 0x2012 <f256main+0x1735>
    1a3a: a9 04        	lda	#$4
    1a3c: 18           	clc
    1a3d: 65 13        	adc	$13                     ; 0x2013 <f256main+0x1736>
    1a3f: aa           	tax
    1a40: a9 62        	lda	#$62
    1a42: 65 12        	adc	$12                     ; 0x2012 <f256main+0x1735>
    1a44: 86 12        	stx	$12                     ; 0x2012 <f256main+0x1735>
    1a46: 85 13        	sta	$13                     ; 0x2013 <f256main+0x1736>
    1a48: a0 12        	ldy	#$12
    1a4a: b1 12        	lda	($12),y                 ; 0x2012 <f256main+0x1735>
    1a4c: 18           	clc
    1a4d: aa           	tax
    1a4e: 69 dc        	adc	#$dc
    1a50: c9 08        	cmp	#$8
    1a52: 90 03        	bcc	$1a57 <f256main+0x117a>
    1a54: 4c c5 1a     	jmp	$1ac5 <f256main+0x11e8>
    1a57: 0a           	asl
    1a58: aa           	tax
    1a59: 7c 0d 5c     	jmp	($5c0d,x)               ; 0x5c0d <__set_v+0x13>
    1a5c: a0 3f        	ldy	#$3f
    1a5e: b1 12        	lda	($12),y                 ; 0x2012 <f256main+0x1735>
    1a60: aa           	tax
    1a61: 4a           	lsr
    1a62: 4a           	lsr
    1a63: 85 16        	sta	$16                     ; 0x2016 <f256main+0x1739>
    1a65: a5 ca        	lda	$ca                     ; 0x20ca <f256main+0x17ed>
    1a67: a4 cb        	ldy	$cb                     ; 0x20cb <f256main+0x17ee>
    1a69: 85 12        	sta	$12                     ; 0x2012 <f256main+0x1735>
    1a6b: 84 13        	sty	$13                     ; 0x2013 <f256main+0x1736>
    1a6d: 18           	clc
    1a6e: 69 04        	adc	#$4
    1a70: 85 14        	sta	$14                     ; 0x2014 <f256main+0x1737>
    1a72: 98           	tya
    1a73: 69 00        	adc	#$0
    1a75: 46 16        	lsr	$16                     ; 0x2016 <f256main+0x1739>
    1a77: 46 16        	lsr	$16                     ; 0x2016 <f256main+0x1739>
    1a79: 85 15        	sta	$15                     ; 0x2015 <f256main+0x1738>
    1a7b: a0 04        	ldy	#$4
    1a7d: b1 12        	lda	($12),y                 ; 0x2012 <f256main+0x1735>
    1a7f: 85 12        	sta	$12                     ; 0x2012 <f256main+0x1735>
    1a81: a0 01        	ldy	#$1
    1a83: b1 14        	lda	($14),y                 ; 0x2014 <f256main+0x1737>
    1a85: 85 13        	sta	$13                     ; 0x2013 <f256main+0x1736>
    1a87: c8           	iny
    1a88: a5 16        	lda	$16                     ; 0x2016 <f256main+0x1739>
    1a8a: 91 12        	sta	($12),y                 ; 0x2012 <f256main+0x1735>
    1a8c: 8a           	txa
    1a8d: 0a           	asl
    1a8e: 0a           	asl
    1a8f: 0a           	asl
    1a90: 0a           	asl
    1a91: 85 14        	sta	$14                     ; 0x2014 <f256main+0x1737>
    1a93: a9 0f        	lda	#$f
    1a95: 88           	dey
    1a96: 31 12        	and	($12),y                 ; 0x2012 <f256main+0x1735>
    1a98: 05 14        	ora	$14                     ; 0x2014 <f256main+0x1737>
    1a9a: 91 12        	sta	($12),y                 ; 0x2012 <f256main+0x1735>
    1a9c: 8d 02 d4     	sta	$d402                   ; 0xd402 <__heap_start+0x6e78>
    1a9f: 8d 09 d4     	sta	$d409                   ; 0xd409 <__heap_start+0x6e7f>
    1aa2: 8d 10 d4     	sta	$d410                   ; 0xd410 <__heap_start+0x6e86>
    1aa5: 8d 02 d5     	sta	$d502                   ; 0xd502 <__heap_start+0x6f78>
    1aa8: 8d 09 d5     	sta	$d509                   ; 0xd509 <__heap_start+0x6f7f>
    1aab: 8d 10 d5     	sta	$d510                   ; 0xd510 <__heap_start+0x6f86>
    1aae: a6 16        	ldx	$16                     ; 0x2016 <f256main+0x1739>
    1ab0: 8e 03 d4     	stx	$d403                   ; 0xd403 <__heap_start+0x6e79>
    1ab3: 8e 0a d4     	stx	$d40a                   ; 0xd40a <__heap_start+0x6e80>
    1ab6: 8e 11 d4     	stx	$d411                   ; 0xd411 <__heap_start+0x6e87>
    1ab9: 8e 03 d5     	stx	$d503                   ; 0xd503 <__heap_start+0x6f79>
    1abc: 8e 0a d5     	stx	$d50a                   ; 0xd50a <__heap_start+0x6f80>
    1abf: 8e 11 d5     	stx	$d511                   ; 0xd511 <__heap_start+0x6f87>
    1ac2: 4c a5 1c     	jmp	$1ca5 <f256main+0x13c8>
    1ac5: e0 33        	cpx	#$33
    1ac7: d0 03        	bne	$1acc <f256main+0x11ef>
    1ac9: 4c 70 1c     	jmp	$1c70 <f256main+0x1393>
    1acc: e0 34        	cpx	#$34
    1ace: f0 03        	beq	$1ad3 <f256main+0x11f6>
    1ad0: 4c a5 1c     	jmp	$1ca5 <f256main+0x13c8>
    1ad3: a5 ca        	lda	$ca                     ; 0x20ca <f256main+0x17ed>
    1ad5: a6 cb        	ldx	$cb                     ; 0x20cb <f256main+0x17ee>
    1ad7: 85 14        	sta	$14                     ; 0x2014 <f256main+0x1737>
    1ad9: 86 15        	stx	$15                     ; 0x2015 <f256main+0x1738>
    1adb: 18           	clc
    1adc: 69 04        	adc	#$4
    1ade: 85 16        	sta	$16                     ; 0x2016 <f256main+0x1739>
    1ae0: 8a           	txa
    1ae1: 69 00        	adc	#$0
    1ae3: 85 17        	sta	$17                     ; 0x2017 <f256main+0x173a>
    1ae5: a0 3f        	ldy	#$3f
    1ae7: b1 12        	lda	($12),y                 ; 0x2012 <f256main+0x1735>
    1ae9: aa           	tax
    1aea: a0 04        	ldy	#$4
    1aec: b1 14        	lda	($14),y                 ; 0x2014 <f256main+0x1737>
    1aee: 85 12        	sta	$12                     ; 0x2012 <f256main+0x1735>
    1af0: a0 01        	ldy	#$1
    1af2: b1 16        	lda	($16),y                 ; 0x2016 <f256main+0x1739>
    1af4: 85 13        	sta	$13                     ; 0x2013 <f256main+0x1736>
    1af6: a0 09        	ldy	#$9
    1af8: 8a           	txa
    1af9: 91 12        	sta	($12),y                 ; 0x2012 <f256main+0x1735>
    1afb: c8           	iny
    1afc: b1 12        	lda	($12),y                 ; 0x2012 <f256main+0x1735>
    1afe: 8e 0e d5     	stx	$d50e                   ; 0xd50e <__heap_start+0x6f84>
    1b01: 8d 0f d5     	sta	$d50f                   ; 0xd50f <__heap_start+0x6f85>
    1b04: 4c a5 1c     	jmp	$1ca5 <f256main+0x13c8>
    1b07: a2 01        	ldx	#$1
    1b09: 5a           	phy
    1b0a: 8a           	txa
    1b0b: a0 02        	ldy	#$2
    1b0d: 91 10        	sta	($10),y                 ; 0x2010 <f256main+0x1733>
    1b0f: c8           	iny
    1b10: 91 10        	sta	($10),y                 ; 0x2010 <f256main+0x1733>
    1b12: 64 12        	stz	$12                     ; 0x2012 <f256main+0x1735>
    1b14: a9 00        	lda	#$0
    1b16: a0 04        	ldy	#$4
    1b18: 91 10        	sta	($10),y                 ; 0x2010 <f256main+0x1733>
    1b1a: a5 17        	lda	$17                     ; 0x2017 <f256main+0x173a>
    1b1c: a0 00        	ldy	#$0
    1b1e: 4c 74 10     	jmp	$1074 <f256main+0x797>
    1b21: a5 17        	lda	$17                     ; 0x2017 <f256main+0x173a>
    1b23: 10 03        	bpl	$1b28 <f256main+0x124b>
    1b25: 4c bf 1d     	jmp	$1dbf <f256main+0x14e2>
    1b28: 5a           	phy
    1b29: a0 00        	ldy	#$0
    1b2b: b1 10        	lda	($10),y                 ; 0x2010 <f256main+0x1733>
    1b2d: 7a           	ply
    1b2e: 29 f0        	and	#$f0
    1b30: c9 80        	cmp	#$80
    1b32: f0 07        	beq	$1b3b <f256main+0x125e>
    1b34: c9 90        	cmp	#$90
    1b36: f0 03        	beq	$1b3b <f256main+0x125e>
    1b38: 4c ed 20     	jmp	$20ed <f256main+0x1810>
    1b3b: a2 01        	ldx	#$1
    1b3d: 5a           	phy
    1b3e: 8a           	txa
    1b3f: a0 03        	ldy	#$3
    1b41: 91 10        	sta	($10),y                 ; 0x2010 <f256main+0x1733>
    1b43: a4 17        	ldy	$17                     ; 0x2017 <f256main+0x173a>
    1b45: 84 2c        	sty	$2c                     ; 0x202c <f256main+0x174f>
    1b47: 4c f4 20     	jmp	$20f4 <f256main+0x1817>
    1b4a: a5 ca        	lda	$ca                     ; 0x20ca <f256main+0x17ed>
    1b4c: a6 cb        	ldx	$cb                     ; 0x20cb <f256main+0x17ee>
    1b4e: 85 14        	sta	$14                     ; 0x2014 <f256main+0x1737>
    1b50: 86 15        	stx	$15                     ; 0x2015 <f256main+0x1738>
    1b52: 18           	clc
    1b53: 69 04        	adc	#$4
    1b55: 85 16        	sta	$16                     ; 0x2016 <f256main+0x1739>
    1b57: 8a           	txa
    1b58: 69 00        	adc	#$0
    1b5a: 85 17        	sta	$17                     ; 0x2017 <f256main+0x173a>
    1b5c: a0 04        	ldy	#$4
    1b5e: b1 14        	lda	($14),y                 ; 0x2014 <f256main+0x1737>
    1b60: 85 14        	sta	$14                     ; 0x2014 <f256main+0x1737>
    1b62: a0 01        	ldy	#$1
    1b64: b1 16        	lda	($16),y                 ; 0x2016 <f256main+0x1739>
    1b66: 85 15        	sta	$15                     ; 0x2015 <f256main+0x1738>
    1b68: a9 f0        	lda	#$f0
    1b6a: a0 06        	ldy	#$6
    1b6c: 31 14        	and	($14),y                 ; 0x2014 <f256main+0x1737>
    1b6e: a0 3f        	ldy	#$3f
    1b70: 11 12        	ora	($12),y                 ; 0x2012 <f256main+0x1735>
    1b72: a0 06        	ldy	#$6
    1b74: 91 14        	sta	($14),y                 ; 0x2014 <f256main+0x1737>
    1b76: 85 12        	sta	$12                     ; 0x2012 <f256main+0x1735>
    1b78: c8           	iny
    1b79: b1 14        	lda	($14),y                 ; 0x2014 <f256main+0x1737>
    1b7b: a4 12        	ldy	$12                     ; 0x2012 <f256main+0x1735>
    1b7d: 8c 14 d4     	sty	$d414                   ; 0xd414 <__heap_start+0x6e8a>
    1b80: 8c 1b d4     	sty	$d41b                   ; 0xd41b <__heap_start+0x6e91>
    1b83: 8c 22 d4     	sty	$d422                   ; 0xd422 <__heap_start+0x6e98>
    1b86: 8c 14 d5     	sty	$d514                   ; 0xd514 <__heap_start+0x6f8a>
    1b89: 8c 1b d5     	sty	$d51b                   ; 0xd51b <__heap_start+0x6f91>
    1b8c: 8c 22 d5     	sty	$d522                   ; 0xd522 <__heap_start+0x6f98>
    1b8f: 8d 15 d4     	sta	$d415                   ; 0xd415 <__heap_start+0x6e8b>
    1b92: 8d 1c d4     	sta	$d41c                   ; 0xd41c <__heap_start+0x6e92>
    1b95: 8d 23 d4     	sta	$d423                   ; 0xd423 <__heap_start+0x6e99>
    1b98: 8d 15 d5     	sta	$d515                   ; 0xd515 <__heap_start+0x6f8b>
    1b9b: 8d 1c d5     	sta	$d51c                   ; 0xd51c <__heap_start+0x6f92>
    1b9e: 8d 23 d5     	sta	$d523                   ; 0xd523 <__heap_start+0x6f99>
    1ba1: 4c a5 1c     	jmp	$1ca5 <f256main+0x13c8>
    1ba4: a5 ca        	lda	$ca                     ; 0x20ca <f256main+0x17ed>
    1ba6: a6 cb        	ldx	$cb                     ; 0x20cb <f256main+0x17ee>
    1ba8: 85 14        	sta	$14                     ; 0x2014 <f256main+0x1737>
    1baa: 86 15        	stx	$15                     ; 0x2015 <f256main+0x1738>
    1bac: 18           	clc
    1bad: 69 04        	adc	#$4
    1baf: 85 16        	sta	$16                     ; 0x2016 <f256main+0x1739>
    1bb1: 8a           	txa
    1bb2: 69 00        	adc	#$0
    1bb4: 85 17        	sta	$17                     ; 0x2017 <f256main+0x173a>
    1bb6: a0 04        	ldy	#$4
    1bb8: b1 14        	lda	($14),y                 ; 0x2014 <f256main+0x1737>
    1bba: 85 14        	sta	$14                     ; 0x2014 <f256main+0x1737>
    1bbc: a0 01        	ldy	#$1
    1bbe: b1 16        	lda	($16),y                 ; 0x2016 <f256main+0x1739>
    1bc0: 85 15        	sta	$15                     ; 0x2015 <f256main+0x1738>
    1bc2: a9 f0        	lda	#$f0
    1bc4: 31 14        	and	($14),y                 ; 0x2014 <f256main+0x1737>
    1bc6: 85 16        	sta	$16                     ; 0x2016 <f256main+0x1739>
    1bc8: a9 0f        	lda	#$f
    1bca: a0 3f        	ldy	#$3f
    1bcc: 31 12        	and	($12),y                 ; 0x2012 <f256main+0x1735>
    1bce: 05 16        	ora	$16                     ; 0x2016 <f256main+0x1739>
    1bd0: a0 01        	ldy	#$1
    1bd2: 91 14        	sta	($14),y                 ; 0x2014 <f256main+0x1737>
    1bd4: 85 12        	sta	$12                     ; 0x2012 <f256main+0x1735>
    1bd6: c8           	iny
    1bd7: b1 14        	lda	($14),y                 ; 0x2014 <f256main+0x1737>
    1bd9: a4 12        	ldy	$12                     ; 0x2012 <f256main+0x1735>
    1bdb: 8c 02 d4     	sty	$d402                   ; 0xd402 <__heap_start+0x6e78>
    1bde: 8c 09 d4     	sty	$d409                   ; 0xd409 <__heap_start+0x6e7f>
    1be1: 8c 10 d4     	sty	$d410                   ; 0xd410 <__heap_start+0x6e86>
    1be4: 8c 02 d5     	sty	$d502                   ; 0xd502 <__heap_start+0x6f78>
    1be7: 8c 09 d5     	sty	$d509                   ; 0xd509 <__heap_start+0x6f7f>
    1bea: 8c 10 d5     	sty	$d510                   ; 0xd510 <__heap_start+0x6f86>
    1bed: 8d 03 d4     	sta	$d403                   ; 0xd403 <__heap_start+0x6e79>
    1bf0: 8d 0a d4     	sta	$d40a                   ; 0xd40a <__heap_start+0x6e80>
    1bf3: 8d 11 d4     	sta	$d411                   ; 0xd411 <__heap_start+0x6e87>
    1bf6: 8d 03 d5     	sta	$d503                   ; 0xd503 <__heap_start+0x6f79>
    1bf9: 8d 0a d5     	sta	$d50a                   ; 0xd50a <__heap_start+0x6f80>
    1bfc: 8d 11 d5     	sta	$d511                   ; 0xd511 <__heap_start+0x6f87>
    1bff: 4c a5 1c     	jmp	$1ca5 <f256main+0x13c8>
    1c02: a0 3f        	ldy	#$3f
    1c04: b1 12        	lda	($12),y                 ; 0x2012 <f256main+0x1735>
    1c06: aa           	tax
    1c07: 4a           	lsr
    1c08: 4a           	lsr
    1c09: 85 16        	sta	$16                     ; 0x2016 <f256main+0x1739>
    1c0b: a5 ca        	lda	$ca                     ; 0x20ca <f256main+0x17ed>
    1c0d: a4 cb        	ldy	$cb                     ; 0x20cb <f256main+0x17ee>
    1c0f: 85 12        	sta	$12                     ; 0x2012 <f256main+0x1735>
    1c11: 84 13        	sty	$13                     ; 0x2013 <f256main+0x1736>
    1c13: 18           	clc
    1c14: 69 04        	adc	#$4
    1c16: 85 14        	sta	$14                     ; 0x2014 <f256main+0x1737>
    1c18: 98           	tya
    1c19: 69 00        	adc	#$0
    1c1b: 46 16        	lsr	$16                     ; 0x2016 <f256main+0x1739>
    1c1d: 46 16        	lsr	$16                     ; 0x2016 <f256main+0x1739>
    1c1f: 85 15        	sta	$15                     ; 0x2015 <f256main+0x1738>
    1c21: a0 04        	ldy	#$4
    1c23: b1 12        	lda	($12),y                 ; 0x2012 <f256main+0x1735>
    1c25: 85 12        	sta	$12                     ; 0x2012 <f256main+0x1735>
    1c27: a0 01        	ldy	#$1
    1c29: b1 14        	lda	($14),y                 ; 0x2014 <f256main+0x1737>
    1c2b: 85 13        	sta	$13                     ; 0x2013 <f256main+0x1736>
    1c2d: a0 07        	ldy	#$7
    1c2f: a5 16        	lda	$16                     ; 0x2016 <f256main+0x1739>
    1c31: 91 12        	sta	($12),y                 ; 0x2012 <f256main+0x1735>
    1c33: 8a           	txa
    1c34: 0a           	asl
    1c35: 0a           	asl
    1c36: 0a           	asl
    1c37: 0a           	asl
    1c38: 85 14        	sta	$14                     ; 0x2014 <f256main+0x1737>
    1c3a: a9 0f        	lda	#$f
    1c3c: 88           	dey
    1c3d: 31 12        	and	($12),y                 ; 0x2012 <f256main+0x1735>
    1c3f: 05 14        	ora	$14                     ; 0x2014 <f256main+0x1737>
    1c41: 91 12        	sta	($12),y                 ; 0x2012 <f256main+0x1735>
    1c43: 8d 14 d4     	sta	$d414                   ; 0xd414 <__heap_start+0x6e8a>
    1c46: 8d 1b d4     	sta	$d41b                   ; 0xd41b <__heap_start+0x6e91>
    1c49: 8d 22 d4     	sta	$d422                   ; 0xd422 <__heap_start+0x6e98>
    1c4c: 8d 14 d5     	sta	$d514                   ; 0xd514 <__heap_start+0x6f8a>
    1c4f: 8d 1b d5     	sta	$d51b                   ; 0xd51b <__heap_start+0x6f91>
    1c52: 8d 22 d5     	sta	$d522                   ; 0xd522 <__heap_start+0x6f98>
    1c55: a6 16        	ldx	$16                     ; 0x2016 <f256main+0x1739>
    1c57: 8e 15 d4     	stx	$d415                   ; 0xd415 <__heap_start+0x6e8b>
    1c5a: 8e 1c d4     	stx	$d41c                   ; 0xd41c <__heap_start+0x6e92>
    1c5d: 8e 23 d4     	stx	$d423                   ; 0xd423 <__heap_start+0x6e99>
    1c60: 8e 15 d5     	stx	$d515                   ; 0xd515 <__heap_start+0x6f8b>
    1c63: 8e 1c d5     	stx	$d51c                   ; 0xd51c <__heap_start+0x6f92>
    1c66: 8e 23 d5     	stx	$d523                   ; 0xd523 <__heap_start+0x6f99>
    1c69: 80 3a        	bra	$1ca5 <f256main+0x13c8>
    1c6b: e6 aa        	inc	$aa                     ; 0x20aa <f256main+0x17cd>
    1c6d: 4c 7c 10     	jmp	$107c <f256main+0x79f>
    1c70: a5 ca        	lda	$ca                     ; 0x20ca <f256main+0x17ed>
    1c72: a6 cb        	ldx	$cb                     ; 0x20cb <f256main+0x17ee>
    1c74: 85 14        	sta	$14                     ; 0x2014 <f256main+0x1737>
    1c76: 86 15        	stx	$15                     ; 0x2015 <f256main+0x1738>
    1c78: 18           	clc
    1c79: 69 04        	adc	#$4
    1c7b: 85 16        	sta	$16                     ; 0x2016 <f256main+0x1739>
    1c7d: 8a           	txa
    1c7e: 69 00        	adc	#$0
    1c80: 85 17        	sta	$17                     ; 0x2017 <f256main+0x173a>
    1c82: a0 3f        	ldy	#$3f
    1c84: b1 12        	lda	($12),y                 ; 0x2012 <f256main+0x1735>
    1c86: 85 18        	sta	$18                     ; 0x2018 <f256main+0x173b>
    1c88: a0 04        	ldy	#$4
    1c8a: b1 14        	lda	($14),y                 ; 0x2014 <f256main+0x1737>
    1c8c: 85 12        	sta	$12                     ; 0x2012 <f256main+0x1735>
    1c8e: a0 01        	ldy	#$1
    1c90: b1 16        	lda	($16),y                 ; 0x2016 <f256main+0x1739>
    1c92: 85 13        	sta	$13                     ; 0x2013 <f256main+0x1736>
    1c94: a0 0a        	ldy	#$a
    1c96: a5 18        	lda	$18                     ; 0x2018 <f256main+0x173b>
    1c98: 91 12        	sta	($12),y                 ; 0x2012 <f256main+0x1735>
    1c9a: 88           	dey
    1c9b: b1 12        	lda	($12),y                 ; 0x2012 <f256main+0x1735>
    1c9d: 8d 0e d5     	sta	$d50e                   ; 0xd50e <__heap_start+0x6f84>
    1ca0: a6 18        	ldx	$18                     ; 0x2018 <f256main+0x173b>
    1ca2: 8e 0f d5     	stx	$d50f                   ; 0xd50f <__heap_start+0x6f85>
    1ca5: a6 9a        	ldx	$9a                     ; 0x209a <f256main+0x17bd>
    1ca7: a9 01        	lda	#$1
    1ca9: 25 9a        	and	$9a                     ; 0x209a <f256main+0x17bd>
    1cab: f0 03        	beq	$1cb0 <f256main+0x13d3>
    1cad: 4c 39 1f     	jmp	$1f39 <f256main+0x165c>
    1cb0: a0 01        	ldy	#$1
    1cb2: b1 10        	lda	($10),y                 ; 0x2010 <f256main+0x1733>
    1cb4: 85 12        	sta	$12                     ; 0x2012 <f256main+0x1735>
    1cb6: a5 12        	lda	$12                     ; 0x2012 <f256main+0x1735>
    1cb8: f0 03        	beq	$1cbd <f256main+0x13e0>
    1cba: 4c d3 0e     	jmp	$ed3 <f256main+0x5f6>
    1cbd: 4c 18 20     	jmp	$2018 <f256main+0x173b>
    1cc0: a2 00        	ldx	#$0
    1cc2: a4 2c        	ldy	$2c                     ; 0x202c <f256main+0x174f>
    1cc4: 84 12        	sty	$12                     ; 0x2012 <f256main+0x1735>
    1cc6: 4c b0 0f     	jmp	$fb0 <f256main+0x6d3>
    1cc9: a2 00        	ldx	#$0
    1ccb: a4 2c        	ldy	$2c                     ; 0x202c <f256main+0x174f>
    1ccd: 84 12        	sty	$12                     ; 0x2012 <f256main+0x1735>
    1ccf: 4c c1 0f     	jmp	$fc1 <f256main+0x6e4>
    1cd2: a2 00        	ldx	#$0
    1cd4: a4 2c        	ldy	$2c                     ; 0x202c <f256main+0x174f>
    1cd6: 84 12        	sty	$12                     ; 0x2012 <f256main+0x1735>
    1cd8: 4c d2 0f     	jmp	$fd2 <f256main+0x6f5>
    1cdb: a5 2c        	lda	$2c                     ; 0x202c <f256main+0x174f>
    1cdd: 18           	clc
    1cde: 69 05        	adc	#$5
    1ce0: a8           	tay
    1ce1: 64 13        	stz	$13                     ; 0x2013 <f256main+0x1736>
    1ce3: a9 00        	lda	#$0
    1ce5: 69 00        	adc	#$0
    1ce7: 18           	clc
    1ce8: 48           	pha
    1ce9: a5 10        	lda	$10                     ; 0x2010 <f256main+0x1733>
    1ceb: 69 07        	adc	#$7
    1ced: 85 24        	sta	$24                     ; 0x2024 <f256main+0x1747>
    1cef: a5 11        	lda	$11                     ; 0x2011 <f256main+0x1734>
    1cf1: 69 00        	adc	#$0
    1cf3: 85 25        	sta	$25                     ; 0x2025 <f256main+0x1748>
    1cf5: 68           	pla
    1cf6: a6 24        	ldx	$24                     ; 0x2024 <f256main+0x1747>
    1cf8: 86 14        	stx	$14                     ; 0x2014 <f256main+0x1737>
    1cfa: a6 25        	ldx	$25                     ; 0x2025 <f256main+0x1748>
    1cfc: 86 15        	stx	$15                     ; 0x2015 <f256main+0x1738>
    1cfe: a2 0c        	ldx	#$c
    1d00: 86 12        	stx	$12                     ; 0x2012 <f256main+0x1735>
    1d02: aa           	tax
    1d03: 98           	tya
    1d04: 20 1f 5b     	jsr	$5b1f <__udivmodhi4>
    1d07: aa           	tax
    1d08: b2 24        	lda	($24)                   ; 0x2024 <f256main+0x1747>
    1d0a: 85 12        	sta	$12                     ; 0x2012 <f256main+0x1735>
    1d0c: a0 01        	ldy	#$1
    1d0e: b1 24        	lda	($24),y                 ; 0x2024 <f256main+0x1747>
    1d10: 06 12        	asl	$12                     ; 0x2012 <f256main+0x1735>
    1d12: 2a           	rol
    1d13: 85 13        	sta	$13                     ; 0x2013 <f256main+0x1736>
    1d15: a9 4d        	lda	#$4d
    1d17: 18           	clc
    1d18: 65 12        	adc	$12                     ; 0x2012 <f256main+0x1735>
    1d1a: 85 12        	sta	$12                     ; 0x2012 <f256main+0x1735>
    1d1c: a9 5e        	lda	#$5e
    1d1e: 65 13        	adc	$13                     ; 0x2013 <f256main+0x1736>
    1d20: 85 13        	sta	$13                     ; 0x2013 <f256main+0x1736>
    1d22: b2 12        	lda	($12)                   ; 0x2012 <f256main+0x1735>
    1d24: 85 14        	sta	$14                     ; 0x2014 <f256main+0x1737>
    1d26: b1 12        	lda	($12),y                 ; 0x2012 <f256main+0x1735>
    1d28: 85 16        	sta	$16                     ; 0x2016 <f256main+0x1739>
    1d2a: a4 27        	ldy	$27                     ; 0x2027 <f256main+0x174a>
    1d2c: 18           	clc
    1d2d: 8a           	txa
    1d2e: 69 3e        	adc	#$3e
    1d30: 85 13        	sta	$13                     ; 0x2013 <f256main+0x1736>
    1d32: a6 28        	ldx	$28                     ; 0x2028 <f256main+0x174b>
    1d34: 86 12        	stx	$12                     ; 0x2012 <f256main+0x1735>
    1d36: 86 15        	stx	$15                     ; 0x2015 <f256main+0x1738>
    1d38: 8a           	txa
    1d39: 09 a0        	ora	#$a0
    1d3b: 8d 80 d5     	sta	$d580                   ; 0xd580 <__heap_start+0x6ff6>
    1d3e: a6 14        	ldx	$14                     ; 0x2014 <f256main+0x1737>
    1d40: 8e 81 d5     	stx	$d581                   ; 0xd581 <__heap_start+0x6ff7>
    1d43: a5 12        	lda	$12                     ; 0x2012 <f256main+0x1735>
    1d45: 09 b0        	ora	#$b0
    1d47: aa           	tax
    1d48: a5 16        	lda	$16                     ; 0x2016 <f256main+0x1739>
    1d4a: 29 03        	and	#$3
    1d4c: 85 12        	sta	$12                     ; 0x2012 <f256main+0x1735>
    1d4e: a5 13        	lda	$13                     ; 0x2013 <f256main+0x1736>
    1d50: 0a           	asl
    1d51: 8e 80 d5     	stx	$d580                   ; 0xd580 <__heap_start+0x6ff6>
    1d54: 0a           	asl
    1d55: 05 12        	ora	$12                     ; 0x2012 <f256main+0x1735>
    1d57: 09 20        	ora	#$20
    1d59: 8d 81 d5     	sta	$d581                   ; 0xd581 <__heap_start+0x6ff7>
    1d5c: a5 2c        	lda	$2c                     ; 0x202c <f256main+0x174f>
    1d5e: a6 15        	ldx	$15                     ; 0x2015 <f256main+0x1738>
    1d60: 9d c1 00     	sta	$c1,x                   ; 0xc1 <polyOPL3Buffer>
    1d63: e6 ae        	inc	$ae                     ; 0x20ae <f256main+0x17d1>
    1d65: 64 12        	stz	$12                     ; 0x2012 <f256main+0x1735>
    1d67: a9 00        	lda	#$0
    1d69: 5a           	phy
    1d6a: 4c 72 10     	jmp	$1072 <f256main+0x795>
    1d6d: b5 88        	lda	$88,x                   ; 0x2088 <f256main+0x17ab>
    1d6f: 85 12        	sta	$12                     ; 0x2012 <f256main+0x1735>
    1d71: e0 03        	cpx	#$3
    1d73: a4 2c        	ldy	$2c                     ; 0x202c <f256main+0x174f>
    1d75: 84 13        	sty	$13                     ; 0x2013 <f256main+0x1736>
    1d77: 48           	pha
    1d78: b9 38 5e     	lda	$5e38,y                 ; 0x5e38 <sidHigh+0xbe>
    1d7b: a8           	tay
    1d7c: 84 16        	sty	$16                     ; 0x2016 <f256main+0x1739>
    1d7e: a4 13        	ldy	$13                     ; 0x2013 <f256main+0x1736>
    1d80: b9 78 5e     	lda	$5e78,y                 ; 0x5e78 <psgLow+0x13>
    1d83: a8           	tay
    1d84: 68           	pla
    1d85: 09 90        	ora	#$90
    1d87: 5a           	phy
    1d88: a0 10        	ldy	#$10
    1d8a: 84 14        	sty	$14                     ; 0x2014 <f256main+0x1737>
    1d8c: a0 d6        	ldy	#$d6
    1d8e: 84 15        	sty	$15                     ; 0x2015 <f256main+0x1738>
    1d90: 7a           	ply
    1d91: b0 0a        	bcs	$1d9d <f256main+0x14c0>
    1d93: 5a           	phy
    1d94: a0 00        	ldy	#$0
    1d96: 84 14        	sty	$14                     ; 0x2014 <f256main+0x1737>
    1d98: a0 d6        	ldy	#$d6
    1d9a: 84 15        	sty	$15                     ; 0x2015 <f256main+0x1738>
    1d9c: 7a           	ply
    1d9d: 92 14        	sta	($14)                   ; 0x2014 <f256main+0x1737>
    1d9f: a5 16        	lda	$16                     ; 0x2016 <f256main+0x1739>
    1da1: 05 12        	ora	$12                     ; 0x2012 <f256main+0x1735>
    1da3: 92 14        	sta	($14)                   ; 0x2014 <f256main+0x1737>
    1da5: 98           	tya
    1da6: 92 14        	sta	($14)                   ; 0x2014 <f256main+0x1737>
    1da8: a5 2c        	lda	$2c                     ; 0x202c <f256main+0x174f>
    1daa: 9d bb 00     	sta	$bb,x                   ; 0xbb <polyPSGBuffer>
    1dad: e6 ad        	inc	$ad                     ; 0x20ad <f256main+0x17d0>
    1daf: 4c 4c 10     	jmp	$104c <f256main+0x76f>
    1db2: a6 aa        	ldx	$aa                     ; 0x20aa <f256main+0x17cd>
    1db4: d0 03        	bne	$1db9 <f256main+0x14dc>
    1db6: 4c 69 10     	jmp	$1069 <f256main+0x78c>
    1db9: ca           	dex
    1dba: 86 aa        	stx	$aa                     ; 0x20aa <f256main+0x17cd>
    1dbc: 4c 69 10     	jmp	$1069 <f256main+0x78c>
    1dbf: a6 26        	ldx	$26                     ; 0x2026 <f256main+0x1749>
    1dc1: 64 12        	stz	$12                     ; 0x2012 <f256main+0x1735>
    1dc3: 5a           	phy
    1dc4: a9 00        	lda	#$0
    1dc6: a0 04        	ldy	#$4
    1dc8: 91 10        	sta	($10),y                 ; 0x2010 <f256main+0x1733>
    1dca: a0 02        	ldy	#$2
    1dcc: 4c 83 10     	jmp	$1083 <f256main+0x7a6>
    1dcf: 64 12        	stz	$12                     ; 0x2012 <f256main+0x1735>
    1dd1: e0 03        	cpx	#$3
    1dd3: b0 03        	bcs	$1dd8 <f256main+0x14fb>
    1dd5: 4c 02 21     	jmp	$2102 <f256main+0x1825>
    1dd8: a0 d5        	ldy	#$d5
    1dda: 86 13        	stx	$13                     ; 0x2013 <f256main+0x1736>
    1ddc: 4c 06 21     	jmp	$2106 <f256main+0x1829>
    1ddf: 64 12        	stz	$12                     ; 0x2012 <f256main+0x1735>
    1de1: 74 bb        	stz	$bb,x                   ; 0x20bb <f256main+0x17de>
    1de3: b5 88        	lda	$88,x                   ; 0x2088 <f256main+0x17ab>
    1de5: e0 03        	cpx	#$3
    1de7: a4 27        	ldy	$27                     ; 0x2027 <f256main+0x174a>
    1de9: b0 03        	bcs	$1dee <f256main+0x1511>
    1deb: 4c b0 1e     	jmp	$1eb0 <f256main+0x15d3>
    1dee: a2 10        	ldx	#$10
    1df0: 86 12        	stx	$12                     ; 0x2012 <f256main+0x1735>
    1df2: 4c b0 1e     	jmp	$1eb0 <f256main+0x15d3>
    1df5: a2 ff        	ldx	#$ff
    1df7: 86 28        	stx	$28                     ; 0x2028 <f256main+0x174b>
    1df9: a5 2c        	lda	$2c                     ; 0x202c <f256main+0x174f>
    1dfb: 18           	clc
    1dfc: 69 05        	adc	#$5
    1dfe: a8           	tay
    1dff: a9 00        	lda	#$0
    1e01: 69 00        	adc	#$0
    1e03: 18           	clc
    1e04: 48           	pha
    1e05: a5 10        	lda	$10                     ; 0x2010 <f256main+0x1733>
    1e07: 69 09        	adc	#$9
    1e09: 85 24        	sta	$24                     ; 0x2024 <f256main+0x1747>
    1e0b: a5 11        	lda	$11                     ; 0x2011 <f256main+0x1734>
    1e0d: 69 00        	adc	#$0
    1e0f: 85 25        	sta	$25                     ; 0x2025 <f256main+0x1748>
    1e11: 68           	pla
    1e12: a6 24        	ldx	$24                     ; 0x2024 <f256main+0x1747>
    1e14: 86 14        	stx	$14                     ; 0x2014 <f256main+0x1737>
    1e16: a6 25        	ldx	$25                     ; 0x2025 <f256main+0x1748>
    1e18: 86 15        	stx	$15                     ; 0x2015 <f256main+0x1738>
    1e1a: a2 0c        	ldx	#$c
    1e1c: 86 12        	stx	$12                     ; 0x2012 <f256main+0x1735>
    1e1e: 64 13        	stz	$13                     ; 0x2013 <f256main+0x1736>
    1e20: aa           	tax
    1e21: 98           	tya
    1e22: 20 1f 5b     	jsr	$5b1f <__udivmodhi4>
    1e25: aa           	tax
    1e26: b2 24        	lda	($24)                   ; 0x2024 <f256main+0x1747>
    1e28: 85 12        	sta	$12                     ; 0x2012 <f256main+0x1735>
    1e2a: a0 01        	ldy	#$1
    1e2c: b1 24        	lda	($24),y                 ; 0x2024 <f256main+0x1747>
    1e2e: 06 12        	asl	$12                     ; 0x2012 <f256main+0x1735>
    1e30: 2a           	rol
    1e31: 85 13        	sta	$13                     ; 0x2013 <f256main+0x1736>
    1e33: a9 4d        	lda	#$4d
    1e35: 18           	clc
    1e36: 65 12        	adc	$12                     ; 0x2012 <f256main+0x1735>
    1e38: 85 12        	sta	$12                     ; 0x2012 <f256main+0x1735>
    1e3a: a9 5e        	lda	#$5e
    1e3c: 65 13        	adc	$13                     ; 0x2013 <f256main+0x1736>
    1e3e: 85 13        	sta	$13                     ; 0x2013 <f256main+0x1736>
    1e40: b2 12        	lda	($12)                   ; 0x2012 <f256main+0x1735>
    1e42: 85 14        	sta	$14                     ; 0x2014 <f256main+0x1737>
    1e44: b1 12        	lda	($12),y                 ; 0x2012 <f256main+0x1735>
    1e46: 85 12        	sta	$12                     ; 0x2012 <f256main+0x1735>
    1e48: 18           	clc
    1e49: 8a           	txa
    1e4a: 69 3e        	adc	#$3e
    1e4c: aa           	tax
    1e4d: a5 28        	lda	$28                     ; 0x2028 <f256main+0x174b>
    1e4f: 09 a0        	ora	#$a0
    1e51: 8d 80 d5     	sta	$d580                   ; 0xd580 <__heap_start+0x6ff6>
    1e54: a5 14        	lda	$14                     ; 0x2014 <f256main+0x1737>
    1e56: 8d 81 d5     	sta	$d581                   ; 0xd581 <__heap_start+0x6ff7>
    1e59: a5 28        	lda	$28                     ; 0x2028 <f256main+0x174b>
    1e5b: 09 b0        	ora	#$b0
    1e5d: 85 13        	sta	$13                     ; 0x2013 <f256main+0x1736>
    1e5f: a5 12        	lda	$12                     ; 0x2012 <f256main+0x1735>
    1e61: 29 03        	and	#$3
    1e63: 85 12        	sta	$12                     ; 0x2012 <f256main+0x1735>
    1e65: 8a           	txa
    1e66: 0a           	asl
    1e67: a6 13        	ldx	$13                     ; 0x2013 <f256main+0x1736>
    1e69: 8e 80 d5     	stx	$d580                   ; 0xd580 <__heap_start+0x6ff6>
    1e6c: 0a           	asl
    1e6d: 05 12        	ora	$12                     ; 0x2012 <f256main+0x1735>
    1e6f: 8d 81 d5     	sta	$d581                   ; 0xd581 <__heap_start+0x6ff7>
    1e72: a5 28        	lda	$28                     ; 0x2028 <f256main+0x174b>
    1e74: 10 06        	bpl	$1e7c <f256main+0x159f>
    1e76: a2 ff        	ldx	#$ff
    1e78: 86 12        	stx	$12                     ; 0x2012 <f256main+0x1735>
    1e7a: 80 02        	bra	$1e7e <f256main+0x15a1>
    1e7c: 64 12        	stz	$12                     ; 0x2012 <f256main+0x1735>
    1e7e: a4 27        	ldy	$27                     ; 0x2027 <f256main+0x174a>
    1e80: a9 c1        	lda	#$c1
    1e82: 18           	clc
    1e83: 65 28        	adc	$28                     ; 0x2028 <f256main+0x174b>
    1e85: aa           	tax
    1e86: a9 00        	lda	#$0
    1e88: 65 12        	adc	$12                     ; 0x2012 <f256main+0x1735>
    1e8a: 86 12        	stx	$12                     ; 0x2012 <f256main+0x1735>
    1e8c: 85 13        	sta	$13                     ; 0x2013 <f256main+0x1736>
    1e8e: a9 00        	lda	#$0
    1e90: 92 12        	sta	($12)                   ; 0x2012 <f256main+0x1735>
    1e92: a6 ae        	ldx	$ae                     ; 0x20ae <f256main+0x17d1>
    1e94: d0 03        	bne	$1e99 <f256main+0x15bc>
    1e96: 4c 69 10     	jmp	$1069 <f256main+0x78c>
    1e99: ca           	dex
    1e9a: 86 ae        	stx	$ae                     ; 0x20ae <f256main+0x17d1>
    1e9c: 4c 69 10     	jmp	$1069 <f256main+0x78c>
    1e9f: a0 d4        	ldy	#$d4
    1ea1: a2 ff        	ldx	#$ff
    1ea3: 86 13        	stx	$13                     ; 0x2013 <f256main+0x1736>
    1ea5: 86 12        	stx	$12                     ; 0x2012 <f256main+0x1735>
    1ea7: 4c 06 21     	jmp	$2106 <f256main+0x1829>
    1eaa: 64 12        	stz	$12                     ; 0x2012 <f256main+0x1735>
    1eac: 64 ba        	stz	$ba                     ; 0x20ba <f256main+0x17dd>
    1eae: a4 27        	ldy	$27                     ; 0x2027 <f256main+0x174a>
    1eb0: a2 d6        	ldx	#$d6
    1eb2: 86 13        	stx	$13                     ; 0x2013 <f256main+0x1736>
    1eb4: 09 9f        	ora	#$9f
    1eb6: 92 12        	sta	($12)                   ; 0x2012 <f256main+0x1735>
    1eb8: a6 ad        	ldx	$ad                     ; 0x20ad <f256main+0x17d0>
    1eba: d0 03        	bne	$1ebf <f256main+0x15e2>
    1ebc: 4c 69 10     	jmp	$1069 <f256main+0x78c>
    1ebf: ca           	dex
    1ec0: 86 ad        	stx	$ad                     ; 0x20ad <f256main+0x17d0>
    1ec2: 4c 69 10     	jmp	$1069 <f256main+0x78c>
    1ec5: e0 03        	cpx	#$3
    1ec7: a0 d5        	ldy	#$d5
    1ec9: b0 02        	bcs	$1ecd <f256main+0x15f0>
    1ecb: a0 d4        	ldy	#$d4
    1ecd: 84 14        	sty	$14                     ; 0x2014 <f256main+0x1737>
    1ecf: b5 8e        	lda	$8e,x                   ; 0x208e <f256main+0x17b1>
    1ed1: a4 2c        	ldy	$2c                     ; 0x202c <f256main+0x174f>
    1ed3: 48           	pha
    1ed4: b9 11 5f     	lda	$5f11,y                 ; 0x5f11 <sid_instrument_defs+0x2c>
    1ed7: a8           	tay
    1ed8: 68           	pla
    1ed9: 85 12        	sta	$12                     ; 0x2012 <f256main+0x1735>
    1edb: 85 16        	sta	$16                     ; 0x2016 <f256main+0x1739>
    1edd: a5 14        	lda	$14                     ; 0x2014 <f256main+0x1737>
    1edf: 85 13        	sta	$13                     ; 0x2013 <f256main+0x1736>
    1ee1: 98           	tya
    1ee2: 92 12        	sta	($12)                   ; 0x2012 <f256main+0x1735>
    1ee4: a4 2c        	ldy	$2c                     ; 0x202c <f256main+0x174f>
    1ee6: b9 6f 5d     	lda	$5d6f,y                 ; 0x5d6f <sidSpriteAction+0x76>
    1ee9: a8           	tay
    1eea: 84 15        	sty	$15                     ; 0x2015 <f256main+0x1738>
    1eec: a4 14        	ldy	$14                     ; 0x2014 <f256main+0x1737>
    1eee: a5 16        	lda	$16                     ; 0x2016 <f256main+0x1739>
    1ef0: 85 12        	sta	$12                     ; 0x2012 <f256main+0x1735>
    1ef2: e6 12        	inc	$12                     ; 0x2012 <f256main+0x1735>
    1ef4: d0 01        	bne	$1ef7 <f256main+0x161a>
    1ef6: c8           	iny
    1ef7: 84 13        	sty	$13                     ; 0x2013 <f256main+0x1736>
    1ef9: a5 15        	lda	$15                     ; 0x2015 <f256main+0x1738>
    1efb: 92 12        	sta	($12)                   ; 0x2012 <f256main+0x1735>
    1efd: 18           	clc
    1efe: a5 16        	lda	$16                     ; 0x2016 <f256main+0x1739>
    1f00: 69 04        	adc	#$4
    1f02: 85 12        	sta	$12                     ; 0x2012 <f256main+0x1735>
    1f04: a5 14        	lda	$14                     ; 0x2014 <f256main+0x1737>
    1f06: 69 00        	adc	#$0
    1f08: 85 13        	sta	$13                     ; 0x2013 <f256main+0x1736>
    1f0a: a5 ca        	lda	$ca                     ; 0x20ca <f256main+0x17ed>
    1f0c: a4 cb        	ldy	$cb                     ; 0x20cb <f256main+0x17ee>
    1f0e: 85 14        	sta	$14                     ; 0x2014 <f256main+0x1737>
    1f10: 84 15        	sty	$15                     ; 0x2015 <f256main+0x1738>
    1f12: 18           	clc
    1f13: 69 04        	adc	#$4
    1f15: 85 16        	sta	$16                     ; 0x2016 <f256main+0x1739>
    1f17: 98           	tya
    1f18: 69 00        	adc	#$0
    1f1a: 85 17        	sta	$17                     ; 0x2017 <f256main+0x173a>
    1f1c: a0 04        	ldy	#$4
    1f1e: b1 14        	lda	($14),y                 ; 0x2014 <f256main+0x1737>
    1f20: 85 14        	sta	$14                     ; 0x2014 <f256main+0x1737>
    1f22: a0 01        	ldy	#$1
    1f24: b1 16        	lda	($16),y                 ; 0x2016 <f256main+0x1739>
    1f26: 85 15        	sta	$15                     ; 0x2015 <f256main+0x1738>
    1f28: 98           	tya
    1f29: a0 05        	ldy	#$5
    1f2b: 11 14        	ora	($14),y                 ; 0x2014 <f256main+0x1737>
    1f2d: 92 12        	sta	($12)                   ; 0x2012 <f256main+0x1735>
    1f2f: a5 2c        	lda	$2c                     ; 0x202c <f256main+0x174f>
    1f31: 9d af 00     	sta	$af,x                   ; 0xaf <polySIDBuffer>
    1f34: e6 ac        	inc	$ac                     ; 0x20ac <f256main+0x17cf>
    1f36: 4c 4c 10     	jmp	$104c <f256main+0x76f>
    1f39: a0 01        	ldy	#$1
    1f3b: b1 10        	lda	($10),y                 ; 0x2010 <f256main+0x1733>
    1f3d: 85 12        	sta	$12                     ; 0x2012 <f256main+0x1735>
    1f3f: a5 12        	lda	$12                     ; 0x2012 <f256main+0x1735>
    1f41: d0 03        	bne	$1f46 <f256main+0x1669>
    1f43: 4c 18 20     	jmp	$2018 <f256main+0x173b>
    1f46: a5 a2        	lda	$a2                     ; 0x20a2 <f256main+0x17c5>
    1f48: a6 a3        	ldx	$a3                     ; 0x20a3 <f256main+0x17c6>
    1f4a: 86 12        	stx	$12                     ; 0x2012 <f256main+0x1735>
    1f4c: e0 80        	cpx	#$80
    1f4e: 66 12        	ror	$12                     ; 0x2012 <f256main+0x1735>
    1f50: 6a           	ror
    1f51: 18           	clc
    1f52: 69 20        	adc	#$20
    1f54: a8           	tay
    1f55: a5 12        	lda	$12                     ; 0x2012 <f256main+0x1735>
    1f57: 69 00        	adc	#$0
    1f59: 85 27        	sta	$27                     ; 0x2027 <f256main+0x174a>
    1f5b: a6 a4        	ldx	$a4                     ; 0x20a4 <f256main+0x17c7>
    1f5d: 86 12        	stx	$12                     ; 0x2012 <f256main+0x1735>
    1f5f: a5 a5        	lda	$a5                     ; 0x20a5 <f256main+0x17c8>
    1f61: c9 80        	cmp	#$80
    1f63: 6a           	ror
    1f64: aa           	tax
    1f65: a5 12        	lda	$12                     ; 0x2012 <f256main+0x1735>
    1f67: 6a           	ror
    1f68: 18           	clc
    1f69: 69 20        	adc	#$20
    1f6b: 85 28        	sta	$28                     ; 0x2028 <f256main+0x174b>
    1f6d: 8a           	txa
    1f6e: 69 00        	adc	#$0
    1f70: 85 2a        	sta	$2a                     ; 0x202a <f256main+0x174d>
    1f72: a2 d9        	ldx	#$d9
    1f74: 86 24        	stx	$24                     ; 0x2024 <f256main+0x1747>
    1f76: a2 5f        	ldx	#$5f
    1f78: 86 25        	stx	$25                     ; 0x2025 <f256main+0x1748>
    1f7a: a2 0f        	ldx	#$f
    1f7c: a5 24        	lda	$24                     ; 0x2024 <f256main+0x1747>
    1f7e: 85 14        	sta	$14                     ; 0x2014 <f256main+0x1737>
    1f80: a5 25        	lda	$25                     ; 0x2025 <f256main+0x1748>
    1f82: 85 15        	sta	$15                     ; 0x2015 <f256main+0x1738>
    1f84: a5 28        	lda	$28                     ; 0x2028 <f256main+0x174b>
    1f86: 85 12        	sta	$12                     ; 0x2012 <f256main+0x1735>
    1f88: a5 2a        	lda	$2a                     ; 0x202a <f256main+0x174d>
    1f8a: 85 13        	sta	$13                     ; 0x2013 <f256main+0x1736>
    1f8c: 86 29        	stx	$29                     ; 0x2029 <f256main+0x174c>
    1f8e: a6 27        	ldx	$27                     ; 0x2027 <f256main+0x174a>
    1f90: 84 26        	sty	$26                     ; 0x2026 <f256main+0x1749>
    1f92: 98           	tya
    1f93: 20 93 21     	jsr	$2193 <checkUIEClick>
    1f96: a6 29        	ldx	$29                     ; 0x2029 <f256main+0x174c>
    1f98: ca           	dex
    1f99: a5 24        	lda	$24                     ; 0x2024 <f256main+0x1747>
    1f9b: 18           	clc
    1f9c: 69 15        	adc	#$15
    1f9e: 85 24        	sta	$24                     ; 0x2024 <f256main+0x1747>
    1fa0: a5 25        	lda	$25                     ; 0x2025 <f256main+0x1748>
    1fa2: 69 00        	adc	#$0
    1fa4: a4 26        	ldy	$26                     ; 0x2026 <f256main+0x1749>
    1fa6: 85 25        	sta	$25                     ; 0x2025 <f256main+0x1748>
    1fa8: 8a           	txa
    1fa9: d0 d1        	bne	$1f7c <f256main+0x169f>
    1fab: a2 14        	ldx	#$14
    1fad: 86 24        	stx	$24                     ; 0x2024 <f256main+0x1747>
    1faf: a2 61        	ldx	#$61
    1fb1: 86 25        	stx	$25                     ; 0x2025 <f256main+0x1748>
    1fb3: a2 05        	ldx	#$5
    1fb5: a4 24        	ldy	$24                     ; 0x2024 <f256main+0x1747>
    1fb7: 84 14        	sty	$14                     ; 0x2014 <f256main+0x1737>
    1fb9: a4 25        	ldy	$25                     ; 0x2025 <f256main+0x1748>
    1fbb: 84 15        	sty	$15                     ; 0x2015 <f256main+0x1738>
    1fbd: a4 28        	ldy	$28                     ; 0x2028 <f256main+0x174b>
    1fbf: 84 12        	sty	$12                     ; 0x2012 <f256main+0x1735>
    1fc1: a4 2a        	ldy	$2a                     ; 0x202a <f256main+0x174d>
    1fc3: 84 13        	sty	$13                     ; 0x2013 <f256main+0x1736>
    1fc5: 86 29        	stx	$29                     ; 0x2029 <f256main+0x174c>
    1fc7: a6 27        	ldx	$27                     ; 0x2027 <f256main+0x174a>
    1fc9: a5 26        	lda	$26                     ; 0x2026 <f256main+0x1749>
    1fcb: 20 93 21     	jsr	$2193 <checkUIEClick>
    1fce: a6 29        	ldx	$29                     ; 0x2029 <f256main+0x174c>
    1fd0: a5 24        	lda	$24                     ; 0x2024 <f256main+0x1747>
    1fd2: 18           	clc
    1fd3: 69 30        	adc	#$30
    1fd5: 85 24        	sta	$24                     ; 0x2024 <f256main+0x1747>
    1fd7: a5 25        	lda	$25                     ; 0x2025 <f256main+0x1748>
    1fd9: 69 00        	adc	#$0
    1fdb: 85 25        	sta	$25                     ; 0x2025 <f256main+0x1748>
    1fdd: ca           	dex
    1fde: d0 d5        	bne	$1fb5 <f256main+0x16d8>
    1fe0: a2 04        	ldx	#$4
    1fe2: 86 24        	stx	$24                     ; 0x2024 <f256main+0x1747>
    1fe4: a2 62        	ldx	#$62
    1fe6: 86 25        	stx	$25                     ; 0x2025 <f256main+0x1748>
    1fe8: a2 06        	ldx	#$6
    1fea: a4 24        	ldy	$24                     ; 0x2024 <f256main+0x1747>
    1fec: 84 14        	sty	$14                     ; 0x2014 <f256main+0x1737>
    1fee: a4 25        	ldy	$25                     ; 0x2025 <f256main+0x1748>
    1ff0: 84 15        	sty	$15                     ; 0x2015 <f256main+0x1738>
    1ff2: a4 28        	ldy	$28                     ; 0x2028 <f256main+0x174b>
    1ff4: 84 12        	sty	$12                     ; 0x2012 <f256main+0x1735>
    1ff6: a4 2a        	ldy	$2a                     ; 0x202a <f256main+0x174d>
    1ff8: 84 13        	sty	$13                     ; 0x2013 <f256main+0x1736>
    1ffa: 86 29        	stx	$29                     ; 0x2029 <f256main+0x174c>
    1ffc: a6 27        	ldx	$27                     ; 0x2027 <f256main+0x174a>
    1ffe: a5 26        	lda	$26                     ; 0x2026 <f256main+0x1749>
    2000: 20 93 21     	jsr	$2193 <checkUIEClick>
    2003: a6 29        	ldx	$29                     ; 0x2029 <f256main+0x174c>
    2005: ca           	dex
    2006: a5 24        	lda	$24                     ; 0x2024 <f256main+0x1747>
    2008: 18           	clc
    2009: 69 48        	adc	#$48
    200b: 85 24        	sta	$24                     ; 0x2024 <f256main+0x1747>
    200d: a5 25        	lda	$25                     ; 0x2025 <f256main+0x1748>
    200f: 69 00        	adc	#$0
    2011: 85 25        	sta	$25                     ; 0x2025 <f256main+0x1748>
    2013: 8a           	txa
    2014: d0 d4        	bne	$1fea <f256main+0x170d>
    2016: a6 9a        	ldx	$9a                     ; 0x209a <f256main+0x17bd>
    2018: 8a           	txa
    2019: 29 01        	and	#$1
    201b: a2 01        	ldx	#$1
    201d: a8           	tay
    201e: f0 02        	beq	$2022 <f256main+0x1745>
    2020: a2 00        	ldx	#$0
    2022: 8a           	txa
    2023: a0 01        	ldy	#$1
    2025: 91 10        	sta	($10),y                 ; 0x2010 <f256main+0x1733>
    2027: 8a           	txa
    2028: d0 03        	bne	$202d <f256main+0x1750>
    202a: 4c d3 0e     	jmp	$ed3 <f256main+0x5f6>
    202d: a5 a0        	lda	$a0                     ; 0x20a0 <f256main+0x17c3>
    202f: c9 ff        	cmp	#$ff
    2031: d0 03        	bne	$2036 <f256main+0x1759>
    2033: 4c 89 20     	jmp	$2089 <f256main+0x17ac>
    2036: 0a           	asl
    2037: 64 12        	stz	$12                     ; 0x2012 <f256main+0x1735>
    2039: 26 12        	rol	$12                     ; 0x2012 <f256main+0x1735>
    203b: 0a           	asl
    203c: 26 12        	rol	$12                     ; 0x2012 <f256main+0x1735>
    203e: 0a           	asl
    203f: 26 12        	rol	$12                     ; 0x2012 <f256main+0x1735>
    2041: 0a           	asl
    2042: 85 13        	sta	$13                     ; 0x2013 <f256main+0x1736>
    2044: 26 12        	rol	$12                     ; 0x2012 <f256main+0x1735>
    2046: 0a           	asl
    2047: a6 12        	ldx	$12                     ; 0x2012 <f256main+0x1735>
    2049: 86 14        	stx	$14                     ; 0x2014 <f256main+0x1737>
    204b: 26 14        	rol	$14                     ; 0x2014 <f256main+0x1737>
    204d: 18           	clc
    204e: 65 13        	adc	$13                     ; 0x2013 <f256main+0x1736>
    2050: 85 13        	sta	$13                     ; 0x2013 <f256main+0x1736>
    2052: a5 14        	lda	$14                     ; 0x2014 <f256main+0x1737>
    2054: 65 12        	adc	$12                     ; 0x2012 <f256main+0x1735>
    2056: 85 12        	sta	$12                     ; 0x2012 <f256main+0x1735>
    2058: a9 14        	lda	#$14
    205a: 18           	clc
    205b: 65 13        	adc	$13                     ; 0x2013 <f256main+0x1736>
    205d: aa           	tax
    205e: a9 61        	lda	#$61
    2060: 65 12        	adc	$12                     ; 0x2012 <f256main+0x1735>
    2062: 86 12        	stx	$12                     ; 0x2012 <f256main+0x1735>
    2064: 85 13        	sta	$13                     ; 0x2013 <f256main+0x1736>
    2066: a9 00        	lda	#$0
    2068: a0 06        	ldy	#$6
    206a: 91 12        	sta	($12),y                 ; 0x2012 <f256main+0x1735>
    206c: a2 ff        	ldx	#$ff
    206e: 86 a0        	stx	$a0                     ; 0x20a0 <f256main+0x17c3>
    2070: a2 01        	ldx	#$1
    2072: 8e e0 d6     	stx	$d6e0                   ; 0xd6e0 <__heap_start+0x7156>
    2075: a6 a6        	ldx	$a6                     ; 0x20a6 <f256main+0x17c9>
    2077: a4 a7        	ldy	$a7                     ; 0x20a7 <f256main+0x17ca>
    2079: 8e e2 d6     	stx	$d6e2                   ; 0xd6e2 <__heap_start+0x7158>
    207c: 8c e3 d6     	sty	$d6e3                   ; 0xd6e3 <__heap_start+0x7159>
    207f: a6 a8        	ldx	$a8                     ; 0x20a8 <f256main+0x17cb>
    2081: a4 a9        	ldy	$a9                     ; 0x20a9 <f256main+0x17cc>
    2083: 8e e4 d6     	stx	$d6e4                   ; 0xd6e4 <__heap_start+0x715a>
    2086: 8c e5 d6     	sty	$d6e5                   ; 0xd6e5 <__heap_start+0x715b>
    2089: a5 9f        	lda	$9f                     ; 0x209f <f256main+0x17c2>
    208b: c9 ff        	cmp	#$ff
    208d: d0 03        	bne	$2092 <f256main+0x17b5>
    208f: 4c d3 0e     	jmp	$ed3 <f256main+0x5f6>
    2092: 0a           	asl
    2093: 64 12        	stz	$12                     ; 0x2012 <f256main+0x1735>
    2095: 26 12        	rol	$12                     ; 0x2012 <f256main+0x1735>
    2097: 0a           	asl
    2098: 26 12        	rol	$12                     ; 0x2012 <f256main+0x1735>
    209a: 0a           	asl
    209b: 85 13        	sta	$13                     ; 0x2013 <f256main+0x1736>
    209d: 26 12        	rol	$12                     ; 0x2012 <f256main+0x1735>
    209f: 0a           	asl
    20a0: aa           	tax
    20a1: a5 12        	lda	$12                     ; 0x2012 <f256main+0x1735>
    20a3: 2a           	rol
    20a4: 86 14        	stx	$14                     ; 0x2014 <f256main+0x1737>
    20a6: 06 14        	asl	$14                     ; 0x2014 <f256main+0x1737>
    20a8: 2a           	rol
    20a9: 06 14        	asl	$14                     ; 0x2014 <f256main+0x1737>
    20ab: 2a           	rol
    20ac: aa           	tax
    20ad: 18           	clc
    20ae: a5 14        	lda	$14                     ; 0x2014 <f256main+0x1737>
    20b0: 65 13        	adc	$13                     ; 0x2013 <f256main+0x1736>
    20b2: 85 13        	sta	$13                     ; 0x2013 <f256main+0x1736>
    20b4: 8a           	txa
    20b5: 65 12        	adc	$12                     ; 0x2012 <f256main+0x1735>
    20b7: 85 12        	sta	$12                     ; 0x2012 <f256main+0x1735>
    20b9: a9 04        	lda	#$4
    20bb: 18           	clc
    20bc: 65 13        	adc	$13                     ; 0x2013 <f256main+0x1736>
    20be: aa           	tax
    20bf: a9 62        	lda	#$62
    20c1: 65 12        	adc	$12                     ; 0x2012 <f256main+0x1735>
    20c3: 86 12        	stx	$12                     ; 0x2012 <f256main+0x1735>
    20c5: 85 13        	sta	$13                     ; 0x2013 <f256main+0x1736>
    20c7: a9 00        	lda	#$0
    20c9: a0 06        	ldy	#$6
    20cb: 91 12        	sta	($12),y                 ; 0x2012 <f256main+0x1735>
    20cd: a2 ff        	ldx	#$ff
    20cf: 86 9f        	stx	$9f                     ; 0x209f <f256main+0x17c2>
    20d1: a2 01        	ldx	#$1
    20d3: 8e e0 d6     	stx	$d6e0                   ; 0xd6e0 <__heap_start+0x7156>
    20d6: a6 a6        	ldx	$a6                     ; 0x20a6 <f256main+0x17c9>
    20d8: a4 a7        	ldy	$a7                     ; 0x20a7 <f256main+0x17ca>
    20da: 8e e2 d6     	stx	$d6e2                   ; 0xd6e2 <__heap_start+0x7158>
    20dd: 8c e3 d6     	sty	$d6e3                   ; 0xd6e3 <__heap_start+0x7159>
    20e0: a6 a8        	ldx	$a8                     ; 0x20a8 <f256main+0x17cb>
    20e2: a4 a9        	ldy	$a9                     ; 0x20a9 <f256main+0x17cc>
    20e4: 8e e4 d6     	stx	$d6e4                   ; 0xd6e4 <__heap_start+0x715a>
    20e7: 8c e5 d6     	sty	$d6e5                   ; 0xd6e5 <__heap_start+0x715b>
    20ea: 4c d3 0e     	jmp	$ed3 <f256main+0x5f6>
    20ed: a6 17        	ldx	$17                     ; 0x2017 <f256main+0x173a>
    20ef: 86 2c        	stx	$2c                     ; 0x202c <f256main+0x174f>
    20f1: a2 01        	ldx	#$1
    20f3: 5a           	phy
    20f4: 8a           	txa
    20f5: a0 04        	ldy	#$4
    20f7: 91 10        	sta	($10),y                 ; 0x2010 <f256main+0x1733>
    20f9: 64 12        	stz	$12                     ; 0x2012 <f256main+0x1735>
    20fb: a9 00        	lda	#$0
    20fd: a0 02        	ldy	#$2
    20ff: 4c 74 10     	jmp	$1074 <f256main+0x797>
    2102: 86 13        	stx	$13                     ; 0x2013 <f256main+0x1736>
    2104: a0 d4        	ldy	#$d4
    2106: a9 8e        	lda	#$8e
    2108: 18           	clc
    2109: 65 13        	adc	$13                     ; 0x2013 <f256main+0x1736>
    210b: 85 14        	sta	$14                     ; 0x2014 <f256main+0x1737>
    210d: a9 00        	lda	#$0
    210f: 65 12        	adc	$12                     ; 0x2012 <f256main+0x1735>
    2111: 85 15        	sta	$15                     ; 0x2015 <f256main+0x1738>
    2113: b2 14        	lda	($14)                   ; 0x2014 <f256main+0x1737>
    2115: 85 14        	sta	$14                     ; 0x2014 <f256main+0x1737>
    2117: a9 af        	lda	#$af
    2119: 18           	clc
    211a: 65 13        	adc	$13                     ; 0x2013 <f256main+0x1736>
    211c: aa           	tax
    211d: a9 00        	lda	#$0
    211f: 65 12        	adc	$12                     ; 0x2012 <f256main+0x1735>
    2121: 86 12        	stx	$12                     ; 0x2012 <f256main+0x1735>
    2123: 85 13        	sta	$13                     ; 0x2013 <f256main+0x1736>
    2125: a9 00        	lda	#$0
    2127: 92 12        	sta	($12)                   ; 0x2012 <f256main+0x1735>
    2129: a6 2c        	ldx	$2c                     ; 0x202c <f256main+0x174f>
    212b: bd 11 5f     	lda	$5f11,x                 ; 0x5f11 <sid_instrument_defs+0x2c>
    212e: 5a           	phy
    212f: a4 14        	ldy	$14                     ; 0x2014 <f256main+0x1737>
    2131: 84 12        	sty	$12                     ; 0x2012 <f256main+0x1735>
    2133: 7a           	ply
    2134: 84 13        	sty	$13                     ; 0x2013 <f256main+0x1736>
    2136: 92 12        	sta	($12)                   ; 0x2012 <f256main+0x1735>
    2138: bd 6f 5d     	lda	$5d6f,x                 ; 0x5d6f <sidSpriteAction+0x76>
    213b: aa           	tax
    213c: 86 16        	stx	$16                     ; 0x2016 <f256main+0x1739>
    213e: a6 14        	ldx	$14                     ; 0x2014 <f256main+0x1737>
    2140: 84 15        	sty	$15                     ; 0x2015 <f256main+0x1738>
    2142: e8           	inx
    2143: d0 01        	bne	$2146 <f256main+0x1869>
    2145: c8           	iny
    2146: 86 12        	stx	$12                     ; 0x2012 <f256main+0x1735>
    2148: 84 13        	sty	$13                     ; 0x2013 <f256main+0x1736>
    214a: a5 16        	lda	$16                     ; 0x2016 <f256main+0x1739>
    214c: 92 12        	sta	($12)                   ; 0x2012 <f256main+0x1735>
    214e: 18           	clc
    214f: a5 14        	lda	$14                     ; 0x2014 <f256main+0x1737>
    2151: 69 04        	adc	#$4
    2153: 85 12        	sta	$12                     ; 0x2012 <f256main+0x1735>
    2155: a5 15        	lda	$15                     ; 0x2015 <f256main+0x1738>
    2157: 69 00        	adc	#$0
    2159: 85 13        	sta	$13                     ; 0x2013 <f256main+0x1736>
    215b: a5 ca        	lda	$ca                     ; 0x20ca <f256main+0x17ed>
    215d: a6 cb        	ldx	$cb                     ; 0x20cb <f256main+0x17ee>
    215f: 85 14        	sta	$14                     ; 0x2014 <f256main+0x1737>
    2161: 86 15        	stx	$15                     ; 0x2015 <f256main+0x1738>
    2163: 18           	clc
    2164: 69 04        	adc	#$4
    2166: 85 16        	sta	$16                     ; 0x2016 <f256main+0x1739>
    2168: 8a           	txa
    2169: 69 00        	adc	#$0
    216b: 85 17        	sta	$17                     ; 0x2017 <f256main+0x173a>
    216d: a0 04        	ldy	#$4
    216f: b1 14        	lda	($14),y                 ; 0x2014 <f256main+0x1737>
    2171: 85 14        	sta	$14                     ; 0x2014 <f256main+0x1737>
    2173: a0 01        	ldy	#$1
    2175: b1 16        	lda	($16),y                 ; 0x2016 <f256main+0x1739>
    2177: 85 15        	sta	$15                     ; 0x2015 <f256main+0x1738>
    2179: a9 fe        	lda	#$fe
    217b: a0 05        	ldy	#$5
    217d: 31 14        	and	($14),y                 ; 0x2014 <f256main+0x1737>
    217f: 92 12        	sta	($12)                   ; 0x2012 <f256main+0x1735>
    2181: a6 ac        	ldx	$ac                     ; 0x20ac <f256main+0x17cf>
    2183: f0 03        	beq	$2188 <f256main+0x18ab>
    2185: ca           	dex
    2186: 86 ac        	stx	$ac                     ; 0x20ac <f256main+0x17cf>
    2188: 64 12        	stz	$12                     ; 0x2012 <f256main+0x1735>
    218a: a9 00        	lda	#$0
    218c: a0 03        	ldy	#$3
    218e: 91 10        	sta	($10),y                 ; 0x2010 <f256main+0x1733>
    2190: 4c 4e 10     	jmp	$104e <f256main+0x771>

00002193 <checkUIEClick>:
    2193: 48           	pha
    2194: 18           	clc
    2195: a5 10        	lda	$10                     ; 0x2010 <f256main+0x1733>
    2197: 69 fb        	adc	#$fb
    2199: 85 10        	sta	$10                     ; 0x2010 <f256main+0x1733>
    219b: a5 11        	lda	$11                     ; 0x2011 <f256main+0x1734>
    219d: 69 ff        	adc	#$ff
    219f: 85 11        	sta	$11                     ; 0x2011 <f256main+0x1734>
    21a1: 68           	pla
    21a2: 85 16        	sta	$16                     ; 0x2016 <f256main+0x1739>
    21a4: 86 17        	stx	$17                     ; 0x2017 <f256main+0x173a>
    21a6: a6 14        	ldx	$14                     ; 0x2014 <f256main+0x1737>
    21a8: 86 18        	stx	$18                     ; 0x2018 <f256main+0x173b>
    21aa: a6 15        	ldx	$15                     ; 0x2015 <f256main+0x1738>
    21ac: 86 19        	stx	$19                     ; 0x2019 <f256main+0x173c>
    21ae: e6 18        	inc	$18                     ; 0x2018 <f256main+0x173b>
    21b0: d0 02        	bne	$21b4 <checkUIEClick+0x21>
    21b2: e6 19        	inc	$19                     ; 0x2019 <f256main+0x173c>
    21b4: a0 01        	ldy	#$1
    21b6: b1 14        	lda	($14),y                 ; 0x2014 <f256main+0x1737>
    21b8: 85 1a        	sta	$1a                     ; 0x201a <f256main+0x173d>
    21ba: b1 18        	lda	($18),y                 ; 0x2018 <f256main+0x173b>
    21bc: aa           	tax
    21bd: a0 0e        	ldy	#$e
    21bf: 18           	clc
    21c0: a5 1a        	lda	$1a                     ; 0x201a <f256main+0x173d>
    21c2: 85 19        	sta	$19                     ; 0x2019 <f256main+0x173c>
    21c4: 71 14        	adc	($14),y                 ; 0x2014 <f256main+0x1737>
    21c6: a8           	tay
    21c7: 8a           	txa
    21c8: 86 1a        	stx	$1a                     ; 0x201a <f256main+0x173d>
    21ca: 69 00        	adc	#$0
    21cc: 85 18        	sta	$18                     ; 0x2018 <f256main+0x173b>
    21ce: a6 17        	ldx	$17                     ; 0x2017 <f256main+0x173a>
    21d0: e4 18        	cpx	$18                     ; 0x2018 <f256main+0x173b>
    21d2: d0 06        	bne	$21da <checkUIEClick+0x47>
    21d4: 84 18        	sty	$18                     ; 0x2018 <f256main+0x173b>
    21d6: a6 16        	ldx	$16                     ; 0x2016 <f256main+0x1739>
    21d8: 80 02        	bra	$21dc <checkUIEClick+0x49>
    21da: a6 17        	ldx	$17                     ; 0x2017 <f256main+0x173a>
    21dc: e4 18        	cpx	$18                     ; 0x2018 <f256main+0x173b>
    21de: b0 0e        	bcs	$21ee <checkUIEClick+0x5b>
    21e0: 18           	clc
    21e1: a5 10        	lda	$10                     ; 0x2010 <f256main+0x1733>
    21e3: 69 05        	adc	#$5
    21e5: 85 10        	sta	$10                     ; 0x2010 <f256main+0x1733>
    21e7: a5 11        	lda	$11                     ; 0x2011 <f256main+0x1734>
    21e9: 69 00        	adc	#$0
    21eb: 85 11        	sta	$11                     ; 0x2011 <f256main+0x1734>
    21ed: 60           	rts
    21ee: a0 0f        	ldy	#$f
    21f0: 18           	clc
    21f1: a5 19        	lda	$19                     ; 0x2019 <f256main+0x173c>
    21f3: 71 14        	adc	($14),y                 ; 0x2014 <f256main+0x1737>
    21f5: aa           	tax
    21f6: a5 1a        	lda	$1a                     ; 0x201a <f256main+0x173d>
    21f8: 69 00        	adc	#$0
    21fa: c5 17        	cmp	$17                     ; 0x2017 <f256main+0x173a>
    21fc: d0 06        	bne	$2204 <checkUIEClick+0x71>
    21fe: e4 16        	cpx	$16                     ; 0x2016 <f256main+0x1739>
    2200: 90 de        	bcc	$21e0 <checkUIEClick+0x4d>
    2202: 80 04        	bra	$2208 <checkUIEClick+0x75>
    2204: c5 17        	cmp	$17                     ; 0x2017 <f256main+0x173a>
    2206: 90 d8        	bcc	$21e0 <checkUIEClick+0x4d>
    2208: a0 03        	ldy	#$3
    220a: a5 14        	lda	$14                     ; 0x2014 <f256main+0x1737>
    220c: 18           	clc
    220d: 69 03        	adc	#$3
    220f: 85 16        	sta	$16                     ; 0x2016 <f256main+0x1739>
    2211: a5 15        	lda	$15                     ; 0x2015 <f256main+0x1738>
    2213: 69 00        	adc	#$0
    2215: 85 17        	sta	$17                     ; 0x2017 <f256main+0x173a>
    2217: b1 14        	lda	($14),y                 ; 0x2014 <f256main+0x1737>
    2219: 85 18        	sta	$18                     ; 0x2018 <f256main+0x173b>
    221b: a0 01        	ldy	#$1
    221d: b1 16        	lda	($16),y                 ; 0x2016 <f256main+0x1739>
    221f: aa           	tax
    2220: a0 10        	ldy	#$10
    2222: a5 18        	lda	$18                     ; 0x2018 <f256main+0x173b>
    2224: 85 17        	sta	$17                     ; 0x2017 <f256main+0x173a>
    2226: 18           	clc
    2227: 71 14        	adc	($14),y                 ; 0x2014 <f256main+0x1737>
    2229: a8           	tay
    222a: 8a           	txa
    222b: 86 18        	stx	$18                     ; 0x2018 <f256main+0x173b>
    222d: 69 00        	adc	#$0
    222f: 85 16        	sta	$16                     ; 0x2016 <f256main+0x1739>
    2231: a6 13        	ldx	$13                     ; 0x2013 <f256main+0x1736>
    2233: e4 16        	cpx	$16                     ; 0x2016 <f256main+0x1739>
    2235: d0 06        	bne	$223d <checkUIEClick+0xaa>
    2237: 84 16        	sty	$16                     ; 0x2016 <f256main+0x1739>
    2239: a6 12        	ldx	$12                     ; 0x2012 <f256main+0x1735>
    223b: 80 02        	bra	$223f <checkUIEClick+0xac>
    223d: a6 13        	ldx	$13                     ; 0x2013 <f256main+0x1736>
    223f: e4 16        	cpx	$16                     ; 0x2016 <f256main+0x1739>
    2241: b0 03        	bcs	$2246 <checkUIEClick+0xb3>
    2243: 4c e0 21     	jmp	$21e0 <checkUIEClick+0x4d>
    2246: a0 11        	ldy	#$11
    2248: 18           	clc
    2249: a5 17        	lda	$17                     ; 0x2017 <f256main+0x173a>
    224b: 71 14        	adc	($14),y                 ; 0x2014 <f256main+0x1737>
    224d: aa           	tax
    224e: a5 18        	lda	$18                     ; 0x2018 <f256main+0x173b>
    2250: 69 00        	adc	#$0
    2252: c5 13        	cmp	$13                     ; 0x2013 <f256main+0x1736>
    2254: d0 07        	bne	$225d <checkUIEClick+0xca>
    2256: e4 12        	cpx	$12                     ; 0x2012 <f256main+0x1735>
    2258: b0 0a        	bcs	$2264 <checkUIEClick+0xd1>
    225a: 4c e0 21     	jmp	$21e0 <checkUIEClick+0x4d>
    225d: c5 13        	cmp	$13                     ; 0x2013 <f256main+0x1736>
    225f: b0 03        	bcs	$2264 <checkUIEClick+0xd1>
    2261: 4c e0 21     	jmp	$21e0 <checkUIEClick+0x4d>
    2264: a0 12        	ldy	#$12
    2266: b1 14        	lda	($14),y                 ; 0x2014 <f256main+0x1737>
    2268: c9 35        	cmp	#$35
    226a: 90 03        	bcc	$226f <checkUIEClick+0xdc>
    226c: 4c e0 21     	jmp	$21e0 <checkUIEClick+0x4d>
    226f: 0a           	asl
    2270: aa           	tax
    2271: 7c 1d 5c     	jmp	($5c1d,x)               ; 0x5c1d <__set_v+0x23>
    2274: a0 06        	ldy	#$6
    2276: b1 14        	lda	($14),y                 ; 0x2014 <f256main+0x1737>
    2278: a2 01        	ldx	#$1
    227a: c9 00        	cmp	#$0
    227c: f0 02        	beq	$2280 <checkUIEClick+0xed>
    227e: a2 00        	ldx	#$0
    2280: 8a           	txa
    2281: f0 04        	beq	$2287 <checkUIEClick+0xf4>
    2283: a9 01        	lda	#$1
    2285: 80 02        	bra	$2289 <checkUIEClick+0xf6>
    2287: a9 00        	lda	#$0
    2289: 91 14        	sta	($14),y                 ; 0x2014 <f256main+0x1737>
    228b: a0 0c        	ldy	#$c
    228d: b1 14        	lda	($14),y                 ; 0x2014 <f256main+0x1737>
    228f: a2 15        	ldx	#$15
    2291: 86 12        	stx	$12                     ; 0x2012 <f256main+0x1735>
    2293: 64 13        	stz	$13                     ; 0x2013 <f256main+0x1736>
    2295: a2 00        	ldx	#$0
    2297: 48           	pha
    2298: a5 14        	lda	$14                     ; 0x2014 <f256main+0x1737>
    229a: a0 00        	ldy	#$0
    229c: 91 10        	sta	($10),y                 ; 0x2010 <f256main+0x1733>
    229e: a5 15        	lda	$15                     ; 0x2015 <f256main+0x1738>
    22a0: c8           	iny
    22a1: 91 10        	sta	($10),y                 ; 0x2010 <f256main+0x1733>
    22a3: 68           	pla
    22a4: 20 bd 59     	jsr	$59bd <__mulhi3>
    22a7: 85 12        	sta	$12                     ; 0x2012 <f256main+0x1735>
    22a9: 86 13        	stx	$13                     ; 0x2013 <f256main+0x1736>
    22ab: a9 d9        	lda	#$d9
    22ad: 18           	clc
    22ae: 65 12        	adc	$12                     ; 0x2012 <f256main+0x1735>
    22b0: 85 12        	sta	$12                     ; 0x2012 <f256main+0x1735>
    22b2: a9 5f        	lda	#$5f
    22b4: 65 13        	adc	$13                     ; 0x2013 <f256main+0x1736>
    22b6: 85 13        	sta	$13                     ; 0x2013 <f256main+0x1736>
    22b8: 20 72 3d     	jsr	$3d72 <updateRadioB>
    22bb: a0 00        	ldy	#$0
    22bd: b1 10        	lda	($10),y                 ; 0x2010 <f256main+0x1733>
    22bf: 85 12        	sta	$12                     ; 0x2012 <f256main+0x1735>
    22c1: c8           	iny
    22c2: b1 10        	lda	($10),y                 ; 0x2010 <f256main+0x1733>
    22c4: 85 13        	sta	$13                     ; 0x2013 <f256main+0x1736>
    22c6: a0 06        	ldy	#$6
    22c8: b1 12        	lda	($12),y                 ; 0x2012 <f256main+0x1735>
    22ca: d0 03        	bne	$22cf <checkUIEClick+0x13c>
    22cc: 4c c3 23     	jmp	$23c3 <checkUIEClick+0x230>
    22cf: a0 0c        	ldy	#$c
    22d1: b1 12        	lda	($12),y                 ; 0x2012 <f256main+0x1735>
    22d3: a2 15        	ldx	#$15
    22d5: 86 12        	stx	$12                     ; 0x2012 <f256main+0x1735>
    22d7: 64 13        	stz	$13                     ; 0x2013 <f256main+0x1736>
    22d9: a2 00        	ldx	#$0
    22db: 20 bd 59     	jsr	$59bd <__mulhi3>
    22de: 48           	pha
    22df: a0 00        	ldy	#$0
    22e1: b1 10        	lda	($10),y                 ; 0x2010 <f256main+0x1733>
    22e3: 85 12        	sta	$12                     ; 0x2012 <f256main+0x1735>
    22e5: c8           	iny
    22e6: b1 10        	lda	($10),y                 ; 0x2010 <f256main+0x1733>
    22e8: 85 13        	sta	$13                     ; 0x2013 <f256main+0x1736>
    22ea: 68           	pla
    22eb: 85 14        	sta	$14                     ; 0x2014 <f256main+0x1737>
    22ed: 86 15        	stx	$15                     ; 0x2015 <f256main+0x1738>
    22ef: a9 d9        	lda	#$d9
    22f1: 18           	clc
    22f2: 65 14        	adc	$14                     ; 0x2014 <f256main+0x1737>
    22f4: 85 14        	sta	$14                     ; 0x2014 <f256main+0x1737>
    22f6: a9 5f        	lda	#$5f
    22f8: 65 15        	adc	$15                     ; 0x2015 <f256main+0x1738>
    22fa: 85 15        	sta	$15                     ; 0x2015 <f256main+0x1738>
    22fc: a0 13        	ldy	#$13
    22fe: b1 14        	lda	($14),y                 ; 0x2014 <f256main+0x1737>
    2300: d0 03        	bne	$2305 <checkUIEClick+0x172>
    2302: 4c c3 23     	jmp	$23c3 <checkUIEClick+0x230>
    2305: a2 d9        	ldx	#$d9
    2307: 86 14        	stx	$14                     ; 0x2014 <f256main+0x1737>
    2309: a2 5f        	ldx	#$5f
    230b: 86 15        	stx	$15                     ; 0x2015 <f256main+0x1738>
    230d: a2 00        	ldx	#$0
    230f: 80 41        	bra	$2352 <checkUIEClick+0x1bf>
    2311: a9 00        	lda	#$0
    2313: 91 14        	sta	($14),y                 ; 0x2014 <f256main+0x1737>
    2315: a0 03        	ldy	#$3
    2317: b1 10        	lda	($10),y                 ; 0x2010 <f256main+0x1733>
    2319: 85 12        	sta	$12                     ; 0x2012 <f256main+0x1735>
    231b: c8           	iny
    231c: b1 10        	lda	($10),y                 ; 0x2010 <f256main+0x1733>
    231e: 85 13        	sta	$13                     ; 0x2013 <f256main+0x1736>
    2320: 20 72 3d     	jsr	$3d72 <updateRadioB>
    2323: a0 02        	ldy	#$2
    2325: b1 10        	lda	($10),y                 ; 0x2010 <f256main+0x1733>
    2327: aa           	tax
    2328: c8           	iny
    2329: b1 10        	lda	($10),y                 ; 0x2010 <f256main+0x1733>
    232b: 85 14        	sta	$14                     ; 0x2014 <f256main+0x1737>
    232d: c8           	iny
    232e: b1 10        	lda	($10),y                 ; 0x2010 <f256main+0x1733>
    2330: 85 15        	sta	$15                     ; 0x2015 <f256main+0x1738>
    2332: a0 00        	ldy	#$0
    2334: b1 10        	lda	($10),y                 ; 0x2010 <f256main+0x1733>
    2336: 85 12        	sta	$12                     ; 0x2012 <f256main+0x1735>
    2338: c8           	iny
    2339: b1 10        	lda	($10),y                 ; 0x2010 <f256main+0x1733>
    233b: 85 13        	sta	$13                     ; 0x2013 <f256main+0x1736>
    233d: e8           	inx
    233e: a5 14        	lda	$14                     ; 0x2014 <f256main+0x1737>
    2340: 18           	clc
    2341: 69 15        	adc	#$15
    2343: 85 14        	sta	$14                     ; 0x2014 <f256main+0x1737>
    2345: a5 15        	lda	$15                     ; 0x2015 <f256main+0x1738>
    2347: 69 00        	adc	#$0
    2349: 85 15        	sta	$15                     ; 0x2015 <f256main+0x1738>
    234b: e0 0f        	cpx	#$f
    234d: d0 03        	bne	$2352 <checkUIEClick+0x1bf>
    234f: 4c c3 23     	jmp	$23c3 <checkUIEClick+0x230>
    2352: a0 0c        	ldy	#$c
    2354: b1 12        	lda	($12),y                 ; 0x2012 <f256main+0x1735>
    2356: 85 16        	sta	$16                     ; 0x2016 <f256main+0x1739>
    2358: e4 16        	cpx	$16                     ; 0x2016 <f256main+0x1739>
    235a: f0 e1        	beq	$233d <checkUIEClick+0x1aa>
    235c: a0 13        	ldy	#$13
    235e: b1 14        	lda	($14),y                 ; 0x2014 <f256main+0x1737>
    2360: f0 db        	beq	$233d <checkUIEClick+0x1aa>
    2362: a5 14        	lda	$14                     ; 0x2014 <f256main+0x1737>
    2364: a0 03        	ldy	#$3
    2366: 91 10        	sta	($10),y                 ; 0x2010 <f256main+0x1733>
    2368: a5 15        	lda	$15                     ; 0x2015 <f256main+0x1738>
    236a: c8           	iny
    236b: 91 10        	sta	($10),y                 ; 0x2010 <f256main+0x1733>
    236d: 8a           	txa
    236e: a0 02        	ldy	#$2
    2370: 91 10        	sta	($10),y                 ; 0x2010 <f256main+0x1733>
    2372: a2 15        	ldx	#$15
    2374: 86 12        	stx	$12                     ; 0x2012 <f256main+0x1735>
    2376: 64 13        	stz	$13                     ; 0x2013 <f256main+0x1736>
    2378: a2 00        	ldx	#$0
    237a: a5 16        	lda	$16                     ; 0x2016 <f256main+0x1739>
    237c: 20 bd 59     	jsr	$59bd <__mulhi3>
    237f: 48           	pha
    2380: a0 03        	ldy	#$3
    2382: b1 10        	lda	($10),y                 ; 0x2010 <f256main+0x1733>
    2384: 85 14        	sta	$14                     ; 0x2014 <f256main+0x1737>
    2386: c8           	iny
    2387: b1 10        	lda	($10),y                 ; 0x2010 <f256main+0x1733>
    2389: 85 15        	sta	$15                     ; 0x2015 <f256main+0x1738>
    238b: a0 00        	ldy	#$0
    238d: b1 10        	lda	($10),y                 ; 0x2010 <f256main+0x1733>
    238f: 85 12        	sta	$12                     ; 0x2012 <f256main+0x1735>
    2391: c8           	iny
    2392: b1 10        	lda	($10),y                 ; 0x2010 <f256main+0x1733>
    2394: 85 13        	sta	$13                     ; 0x2013 <f256main+0x1736>
    2396: 68           	pla
    2397: 85 16        	sta	$16                     ; 0x2016 <f256main+0x1739>
    2399: 86 17        	stx	$17                     ; 0x2017 <f256main+0x173a>
    239b: c8           	iny
    239c: b1 10        	lda	($10),y                 ; 0x2010 <f256main+0x1733>
    239e: aa           	tax
    239f: a9 d9        	lda	#$d9
    23a1: 18           	clc
    23a2: 65 16        	adc	$16                     ; 0x2016 <f256main+0x1739>
    23a4: 85 16        	sta	$16                     ; 0x2016 <f256main+0x1739>
    23a6: a9 5f        	lda	#$5f
    23a8: 65 17        	adc	$17                     ; 0x2017 <f256main+0x173a>
    23aa: 85 17        	sta	$17                     ; 0x2017 <f256main+0x173a>
    23ac: a0 14        	ldy	#$14
    23ae: b1 16        	lda	($16),y                 ; 0x2016 <f256main+0x1739>
    23b0: d1 14        	cmp	($14),y                 ; 0x2014 <f256main+0x1737>
    23b2: f0 03        	beq	$23b7 <checkUIEClick+0x224>
    23b4: 4c 3d 23     	jmp	$233d <checkUIEClick+0x1aa>
    23b7: a0 06        	ldy	#$6
    23b9: b1 14        	lda	($14),y                 ; 0x2014 <f256main+0x1737>
    23bb: f0 03        	beq	$23c0 <checkUIEClick+0x22d>
    23bd: 4c 11 23     	jmp	$2311 <checkUIEClick+0x17e>
    23c0: 4c 3d 23     	jmp	$233d <checkUIEClick+0x1aa>
    23c3: a0 12        	ldy	#$12
    23c5: b1 12        	lda	($12),y                 ; 0x2012 <f256main+0x1735>
    23c7: c9 04        	cmp	#$4
    23c9: 90 03        	bcc	$23ce <checkUIEClick+0x23b>
    23cb: 4c 45 25     	jmp	$2545 <checkUIEClick+0x3b2>
    23ce: a6 ca        	ldx	$ca                     ; 0x20ca <f256main+0x17ed>
    23d0: a4 cb        	ldy	$cb                     ; 0x20cb <f256main+0x17ee>
    23d2: 86 14        	stx	$14                     ; 0x2014 <f256main+0x1737>
    23d4: 84 15        	sty	$15                     ; 0x2015 <f256main+0x1738>
    23d6: a0 03        	ldy	#$3
    23d8: d1 14        	cmp	($14),y                 ; 0x2014 <f256main+0x1737>
    23da: d0 03        	bne	$23df <checkUIEClick+0x24c>
    23dc: 4c 41 25     	jmp	$2541 <checkUIEClick+0x3ae>
    23df: 91 14        	sta	($14),y                 ; 0x2014 <f256main+0x1737>
    23e1: a2 05        	ldx	#$5
    23e3: a9 d9        	lda	#$d9
    23e5: a0 28        	ldy	#$28
    23e7: 84 16        	sty	$16                     ; 0x2016 <f256main+0x1739>
    23e9: 84 14        	sty	$14                     ; 0x2014 <f256main+0x1737>
    23eb: a8           	tay
    23ec: 85 15        	sta	$15                     ; 0x2015 <f256main+0x1738>
    23ee: bd 99 5f     	lda	$5f99,x                 ; 0x5f99 <_spriteCtl>
    23f1: 92 14        	sta	($14)                   ; 0x2014 <f256main+0x1737>
    23f3: 84 14        	sty	$14                     ; 0x2014 <f256main+0x1737>
    23f5: e8           	inx
    23f6: 18           	clc
    23f7: a5 16        	lda	$16                     ; 0x2016 <f256main+0x1739>
    23f9: 69 08        	adc	#$8
    23fb: a8           	tay
    23fc: a5 14        	lda	$14                     ; 0x2014 <f256main+0x1737>
    23fe: 69 00        	adc	#$0
    2400: e0 3f        	cpx	#$3f
    2402: d0 e3        	bne	$23e7 <checkUIEClick+0x254>
    2404: a2 02        	ldx	#$2
    2406: 86 01        	stx	$1                      ; 0x2001 <f256main+0x1724>
    2408: a9 c0        	lda	#$c0
    240a: a2 50        	ldx	#$50
    240c: 64 16        	stz	$16                     ; 0x2016 <f256main+0x1739>
    240e: a0 01        	ldy	#$1
    2410: 86 18        	stx	$18                     ; 0x2018 <f256main+0x173b>
    2412: 86 14        	stx	$14                     ; 0x2014 <f256main+0x1737>
    2414: 85 17        	sta	$17                     ; 0x2017 <f256main+0x173a>
    2416: 85 15        	sta	$15                     ; 0x2015 <f256main+0x1738>
    2418: a2 50        	ldx	#$50
    241a: a9 20        	lda	#$20
    241c: 92 14        	sta	($14)                   ; 0x2014 <f256main+0x1737>
    241e: ca           	dex
    241f: e6 14        	inc	$14                     ; 0x2014 <f256main+0x1737>
    2421: d0 02        	bne	$2425 <checkUIEClick+0x292>
    2423: e6 15        	inc	$15                     ; 0x2015 <f256main+0x1738>
    2425: 8a           	txa
    2426: d0 f2        	bne	$241a <checkUIEClick+0x287>
    2428: c8           	iny
    2429: d0 02        	bne	$242d <checkUIEClick+0x29a>
    242b: e6 16        	inc	$16                     ; 0x2016 <f256main+0x1739>
    242d: 18           	clc
    242e: a5 18        	lda	$18                     ; 0x2018 <f256main+0x173b>
    2430: 69 50        	adc	#$50
    2432: aa           	tax
    2433: a5 17        	lda	$17                     ; 0x2017 <f256main+0x173a>
    2435: 69 00        	adc	#$0
    2437: e6 16        	inc	$16                     ; 0x2016 <f256main+0x1739>
    2439: c6 16        	dec	$16                     ; 0x2016 <f256main+0x1739>
    243b: d0 d3        	bne	$2410 <checkUIEClick+0x27d>
    243d: c0 1e        	cpy	#$1e
    243f: d0 cf        	bne	$2410 <checkUIEClick+0x27d>
    2441: 64 01        	stz	$1                      ; 0x2001 <f256main+0x1724>
    2443: a6 ca        	ldx	$ca                     ; 0x20ca <f256main+0x17ed>
    2445: a4 cb        	ldy	$cb                     ; 0x20cb <f256main+0x17ee>
    2447: 86 14        	stx	$14                     ; 0x2014 <f256main+0x1737>
    2449: 84 15        	sty	$15                     ; 0x2015 <f256main+0x1738>
    244b: a0 03        	ldy	#$3
    244d: b1 14        	lda	($14),y                 ; 0x2014 <f256main+0x1737>
    244f: c9 04        	cmp	#$4
    2451: 90 03        	bcc	$2456 <checkUIEClick+0x2c3>
    2453: 4c 41 25     	jmp	$2541 <checkUIEClick+0x3ae>
    2456: 0a           	asl
    2457: aa           	tax
    2458: 7c 87 5c     	jmp	($5c87,x)               ; 0x5c87 <__set_v+0x8d>
    245b: 20 ec 29     	jsr	$29ec <textLayerGen>
    245e: a2 0c        	ldx	#$c
    2460: 86 9b        	stx	$9b                     ; 0x209b <f256main+0x17be>
    2462: 8e 14 d0     	stx	$d014                   ; 0xd014 <__heap_start+0x6a8a>
    2465: 9c 15 d0     	stz	$d015                   ; 0xd015 <__heap_start+0x6a8b>
    2468: a2 1c        	ldx	#$1c
    246a: 86 9c        	stx	$9c                     ; 0x209c <f256main+0x17bf>
    246c: 8e 16 d0     	stx	$d016                   ; 0xd016 <__heap_start+0x6a8c>
    246f: 9c 17 d0     	stz	$d017                   ; 0xd017 <__heap_start+0x6a8d>
    2472: a2 e7        	ldx	#$e7
    2474: 86 12        	stx	$12                     ; 0x2012 <f256main+0x1735>
    2476: a2 5d        	ldx	#$5d
    2478: 86 13        	stx	$13                     ; 0x2013 <f256main+0x1736>
    247a: 20 c3 2a     	jsr	$2ac3 <textPrint>
    247d: 4c 36 25     	jmp	$2536 <checkUIEClick+0x3a3>
    2480: a0 06        	ldy	#$6
    2482: a9 01        	lda	#$1
    2484: 91 14        	sta	($14),y                 ; 0x2014 <f256main+0x1737>
    2486: a6 a2        	ldx	$a2                     ; 0x20a2 <f256main+0x17c5>
    2488: 86 13        	stx	$13                     ; 0x2013 <f256main+0x1736>
    248a: a6 a3        	ldx	$a3                     ; 0x20a3 <f256main+0x17c6>
    248c: 86 16        	stx	$16                     ; 0x2016 <f256main+0x1739>
    248e: a6 a4        	ldx	$a4                     ; 0x20a4 <f256main+0x17c7>
    2490: a4 a5        	ldy	$a5                     ; 0x20a5 <f256main+0x17c8>
    2492: 84 12        	sty	$12                     ; 0x2012 <f256main+0x1735>
    2494: a0 0c        	ldy	#$c
    2496: b1 14        	lda	($14),y                 ; 0x2014 <f256main+0x1737>
    2498: 85 9f        	sta	$9f                     ; 0x209f <f256main+0x17c2>
    249a: 80 1a        	bra	$24b6 <checkUIEClick+0x323>
    249c: a0 06        	ldy	#$6
    249e: a9 01        	lda	#$1
    24a0: 91 14        	sta	($14),y                 ; 0x2014 <f256main+0x1737>
    24a2: a6 a2        	ldx	$a2                     ; 0x20a2 <f256main+0x17c5>
    24a4: 86 13        	stx	$13                     ; 0x2013 <f256main+0x1736>
    24a6: a6 a3        	ldx	$a3                     ; 0x20a3 <f256main+0x17c6>
    24a8: 86 16        	stx	$16                     ; 0x2016 <f256main+0x1739>
    24aa: a6 a4        	ldx	$a4                     ; 0x20a4 <f256main+0x17c7>
    24ac: a4 a5        	ldy	$a5                     ; 0x20a5 <f256main+0x17c8>
    24ae: 84 12        	sty	$12                     ; 0x2012 <f256main+0x1735>
    24b0: a0 0c        	ldy	#$c
    24b2: b1 14        	lda	($14),y                 ; 0x2014 <f256main+0x1737>
    24b4: 85 a0        	sta	$a0                     ; 0x20a0 <f256main+0x17c3>
    24b6: a4 13        	ldy	$13                     ; 0x2013 <f256main+0x1736>
    24b8: 84 a6        	sty	$a6                     ; 0x20a6 <f256main+0x17c9>
    24ba: a4 16        	ldy	$16                     ; 0x2016 <f256main+0x1739>
    24bc: 84 a7        	sty	$a7                     ; 0x20a7 <f256main+0x17ca>
    24be: 86 a8        	stx	$a8                     ; 0x20a8 <f256main+0x17cb>
    24c0: a6 12        	ldx	$12                     ; 0x2012 <f256main+0x1735>
    24c2: 86 a9        	stx	$a9                     ; 0x20a9 <f256main+0x17cc>
    24c4: 9c e0 d6     	stz	$d6e0                   ; 0xd6e0 <__heap_start+0x7156>
    24c7: 4c e0 21     	jmp	$21e0 <checkUIEClick+0x4d>
    24ca: a2 f6        	ldx	#$f6
    24cc: a9 36        	lda	#$36
    24ce: 85 12        	sta	$12                     ; 0x2012 <f256main+0x1735>
    24d0: 86 14        	stx	$14                     ; 0x2014 <f256main+0x1737>
    24d2: 86 13        	stx	$13                     ; 0x2013 <f256main+0x1736>
    24d4: a6 0f        	ldx	$f                      ; 0x200f <f256main+0x1732>
    24d6: 78           	sei
    24d7: a0 0a        	ldy	#$a
    24d9: 84 0f        	sty	$f                      ; 0x200f <f256main+0x1732>
    24db: a8           	tay
    24dc: a9 3f        	lda	#$3f
    24de: 92 12        	sta	($12)                   ; 0x2012 <f256main+0x1735>
    24e0: 84 15        	sty	$15                     ; 0x2015 <f256main+0x1738>
    24e2: a0 01        	ldy	#$1
    24e4: a9 00        	lda	#$0
    24e6: 91 12        	sta	($12),y                 ; 0x2012 <f256main+0x1735>
    24e8: 86 0f        	stx	$f                      ; 0x200f <f256main+0x1732>
    24ea: 58           	cli
    24eb: 18           	clc
    24ec: a5 15        	lda	$15                     ; 0x2015 <f256main+0x1738>
    24ee: 69 02        	adc	#$2
    24f0: a8           	tay
    24f1: a5 14        	lda	$14                     ; 0x2014 <f256main+0x1737>
    24f3: 69 00        	adc	#$0
    24f5: aa           	tax
    24f6: 98           	tya
    24f7: c0 48        	cpy	#$48
    24f9: d0 d3        	bne	$24ce <checkUIEClick+0x33b>
    24fb: 80 31        	bra	$252e <checkUIEClick+0x39b>
    24fd: a2 f6        	ldx	#$f6
    24ff: a9 36        	lda	#$36
    2501: 85 12        	sta	$12                     ; 0x2012 <f256main+0x1735>
    2503: 86 14        	stx	$14                     ; 0x2014 <f256main+0x1737>
    2505: 86 13        	stx	$13                     ; 0x2013 <f256main+0x1736>
    2507: a6 0f        	ldx	$f                      ; 0x200f <f256main+0x1732>
    2509: 78           	sei
    250a: a0 0a        	ldy	#$a
    250c: 84 0f        	sty	$f                      ; 0x200f <f256main+0x1732>
    250e: a8           	tay
    250f: a9 3f        	lda	#$3f
    2511: 92 12        	sta	($12)                   ; 0x2012 <f256main+0x1735>
    2513: 84 15        	sty	$15                     ; 0x2015 <f256main+0x1738>
    2515: a0 01        	ldy	#$1
    2517: a9 00        	lda	#$0
    2519: 91 12        	sta	($12),y                 ; 0x2012 <f256main+0x1735>
    251b: 86 0f        	stx	$f                      ; 0x200f <f256main+0x1732>
    251d: 58           	cli
    251e: 18           	clc
    251f: a5 15        	lda	$15                     ; 0x2015 <f256main+0x1738>
    2521: 69 02        	adc	#$2
    2523: a8           	tay
    2524: a5 14        	lda	$14                     ; 0x2014 <f256main+0x1737>
    2526: 69 00        	adc	#$0
    2528: aa           	tax
    2529: 98           	tya
    252a: c0 48        	cpy	#$48
    252c: d0 d3        	bne	$2501 <checkUIEClick+0x36e>
    252e: 20 ec 29     	jsr	$29ec <textLayerGen>
    2531: 80 03        	bra	$2536 <checkUIEClick+0x3a3>
    2533: 20 7b 2c     	jsr	$2c7b <loadGUISID>
    2536: a0 00        	ldy	#$0
    2538: b1 10        	lda	($10),y                 ; 0x2010 <f256main+0x1733>
    253a: 85 12        	sta	$12                     ; 0x2012 <f256main+0x1735>
    253c: c8           	iny
    253d: b1 10        	lda	($10),y                 ; 0x2010 <f256main+0x1733>
    253f: 85 13        	sta	$13                     ; 0x2013 <f256main+0x1736>
    2541: a0 12        	ldy	#$12
    2543: b1 12        	lda	($12),y                 ; 0x2012 <f256main+0x1735>
    2545: c9 18        	cmp	#$18
    2547: d0 52        	bne	$259b <checkUIEClick+0x408>
    2549: a0 06        	ldy	#$6
    254b: b1 12        	lda	($12),y                 ; 0x2012 <f256main+0x1735>
    254d: aa           	tax
    254e: a5 ca        	lda	$ca                     ; 0x20ca <f256main+0x17ed>
    2550: a4 cb        	ldy	$cb                     ; 0x20cb <f256main+0x17ee>
    2552: 84 16        	sty	$16                     ; 0x2016 <f256main+0x1739>
    2554: 85 14        	sta	$14                     ; 0x2014 <f256main+0x1737>
    2556: 84 15        	sty	$15                     ; 0x2015 <f256main+0x1738>
    2558: a0 04        	ldy	#$4
    255a: 18           	clc
    255b: 69 04        	adc	#$4
    255d: 85 18        	sta	$18                     ; 0x2018 <f256main+0x173b>
    255f: a5 16        	lda	$16                     ; 0x2016 <f256main+0x1739>
    2561: 69 00        	adc	#$0
    2563: 5a           	phy
    2564: a4 18        	ldy	$18                     ; 0x2018 <f256main+0x173b>
    2566: 84 16        	sty	$16                     ; 0x2016 <f256main+0x1739>
    2568: 7a           	ply
    2569: 85 17        	sta	$17                     ; 0x2017 <f256main+0x173a>
    256b: b1 14        	lda	($14),y                 ; 0x2014 <f256main+0x1737>
    256d: 85 14        	sta	$14                     ; 0x2014 <f256main+0x1737>
    256f: a0 01        	ldy	#$1
    2571: b1 16        	lda	($16),y                 ; 0x2016 <f256main+0x1739>
    2573: 85 15        	sta	$15                     ; 0x2015 <f256main+0x1738>
    2575: a0 05        	ldy	#$5
    2577: b1 14        	lda	($14),y                 ; 0x2014 <f256main+0x1737>
    2579: e0 00        	cpx	#$0
    257b: f0 04        	beq	$2581 <checkUIEClick+0x3ee>
    257d: 09 10        	ora	#$10
    257f: 80 02        	bra	$2583 <checkUIEClick+0x3f0>
    2581: 49 10        	eor	#$10
    2583: 91 14        	sta	($14),y                 ; 0x2014 <f256main+0x1737>
    2585: 8d 04 d4     	sta	$d404                   ; 0xd404 <__heap_start+0x6e7a>
    2588: 8d 0b d4     	sta	$d40b                   ; 0xd40b <__heap_start+0x6e81>
    258b: 8d 12 d4     	sta	$d412                   ; 0xd412 <__heap_start+0x6e88>
    258e: 8d 04 d5     	sta	$d504                   ; 0xd504 <__heap_start+0x6f7a>
    2591: 8d 0b d5     	sta	$d50b                   ; 0xd50b <__heap_start+0x6f81>
    2594: 8d 12 d5     	sta	$d512                   ; 0xd512 <__heap_start+0x6f88>
    2597: a0 12        	ldy	#$12
    2599: b1 12        	lda	($12),y                 ; 0x2012 <f256main+0x1735>
    259b: c9 19        	cmp	#$19
    259d: d0 52        	bne	$25f1 <checkUIEClick+0x45e>
    259f: a0 06        	ldy	#$6
    25a1: b1 12        	lda	($12),y                 ; 0x2012 <f256main+0x1735>
    25a3: aa           	tax
    25a4: a5 ca        	lda	$ca                     ; 0x20ca <f256main+0x17ed>
    25a6: a4 cb        	ldy	$cb                     ; 0x20cb <f256main+0x17ee>
    25a8: 84 16        	sty	$16                     ; 0x2016 <f256main+0x1739>
    25aa: 85 14        	sta	$14                     ; 0x2014 <f256main+0x1737>
    25ac: 84 15        	sty	$15                     ; 0x2015 <f256main+0x1738>
    25ae: a0 04        	ldy	#$4
    25b0: 18           	clc
    25b1: 69 04        	adc	#$4
    25b3: 85 18        	sta	$18                     ; 0x2018 <f256main+0x173b>
    25b5: a5 16        	lda	$16                     ; 0x2016 <f256main+0x1739>
    25b7: 69 00        	adc	#$0
    25b9: 5a           	phy
    25ba: a4 18        	ldy	$18                     ; 0x2018 <f256main+0x173b>
    25bc: 84 16        	sty	$16                     ; 0x2016 <f256main+0x1739>
    25be: 7a           	ply
    25bf: 85 17        	sta	$17                     ; 0x2017 <f256main+0x173a>
    25c1: b1 14        	lda	($14),y                 ; 0x2014 <f256main+0x1737>
    25c3: 85 14        	sta	$14                     ; 0x2014 <f256main+0x1737>
    25c5: a0 01        	ldy	#$1
    25c7: b1 16        	lda	($16),y                 ; 0x2016 <f256main+0x1739>
    25c9: 85 15        	sta	$15                     ; 0x2015 <f256main+0x1738>
    25cb: a0 05        	ldy	#$5
    25cd: b1 14        	lda	($14),y                 ; 0x2014 <f256main+0x1737>
    25cf: e0 00        	cpx	#$0
    25d1: f0 04        	beq	$25d7 <checkUIEClick+0x444>
    25d3: 09 20        	ora	#$20
    25d5: 80 02        	bra	$25d9 <checkUIEClick+0x446>
    25d7: 49 20        	eor	#$20
    25d9: 91 14        	sta	($14),y                 ; 0x2014 <f256main+0x1737>
    25db: 8d 04 d4     	sta	$d404                   ; 0xd404 <__heap_start+0x6e7a>
    25de: 8d 0b d4     	sta	$d40b                   ; 0xd40b <__heap_start+0x6e81>
    25e1: 8d 12 d4     	sta	$d412                   ; 0xd412 <__heap_start+0x6e88>
    25e4: 8d 04 d5     	sta	$d504                   ; 0xd504 <__heap_start+0x6f7a>
    25e7: 8d 0b d5     	sta	$d50b                   ; 0xd50b <__heap_start+0x6f81>
    25ea: 8d 12 d5     	sta	$d512                   ; 0xd512 <__heap_start+0x6f88>
    25ed: a0 12        	ldy	#$12
    25ef: b1 12        	lda	($12),y                 ; 0x2012 <f256main+0x1735>
    25f1: c9 1a        	cmp	#$1a
    25f3: d0 52        	bne	$2647 <checkUIEClick+0x4b4>
    25f5: a0 06        	ldy	#$6
    25f7: b1 12        	lda	($12),y                 ; 0x2012 <f256main+0x1735>
    25f9: aa           	tax
    25fa: a5 ca        	lda	$ca                     ; 0x20ca <f256main+0x17ed>
    25fc: a4 cb        	ldy	$cb                     ; 0x20cb <f256main+0x17ee>
    25fe: 84 16        	sty	$16                     ; 0x2016 <f256main+0x1739>
    2600: 85 14        	sta	$14                     ; 0x2014 <f256main+0x1737>
    2602: 84 15        	sty	$15                     ; 0x2015 <f256main+0x1738>
    2604: a0 04        	ldy	#$4
    2606: 18           	clc
    2607: 69 04        	adc	#$4
    2609: 85 18        	sta	$18                     ; 0x2018 <f256main+0x173b>
    260b: a5 16        	lda	$16                     ; 0x2016 <f256main+0x1739>
    260d: 69 00        	adc	#$0
    260f: 5a           	phy
    2610: a4 18        	ldy	$18                     ; 0x2018 <f256main+0x173b>
    2612: 84 16        	sty	$16                     ; 0x2016 <f256main+0x1739>
    2614: 7a           	ply
    2615: 85 17        	sta	$17                     ; 0x2017 <f256main+0x173a>
    2617: b1 14        	lda	($14),y                 ; 0x2014 <f256main+0x1737>
    2619: 85 14        	sta	$14                     ; 0x2014 <f256main+0x1737>
    261b: a0 01        	ldy	#$1
    261d: b1 16        	lda	($16),y                 ; 0x2016 <f256main+0x1739>
    261f: 85 15        	sta	$15                     ; 0x2015 <f256main+0x1738>
    2621: a0 05        	ldy	#$5
    2623: b1 14        	lda	($14),y                 ; 0x2014 <f256main+0x1737>
    2625: e0 00        	cpx	#$0
    2627: f0 04        	beq	$262d <checkUIEClick+0x49a>
    2629: 09 40        	ora	#$40
    262b: 80 02        	bra	$262f <checkUIEClick+0x49c>
    262d: 49 40        	eor	#$40
    262f: 91 14        	sta	($14),y                 ; 0x2014 <f256main+0x1737>
    2631: 8d 04 d4     	sta	$d404                   ; 0xd404 <__heap_start+0x6e7a>
    2634: 8d 0b d4     	sta	$d40b                   ; 0xd40b <__heap_start+0x6e81>
    2637: 8d 12 d4     	sta	$d412                   ; 0xd412 <__heap_start+0x6e88>
    263a: 8d 04 d5     	sta	$d504                   ; 0xd504 <__heap_start+0x6f7a>
    263d: 8d 0b d5     	sta	$d50b                   ; 0xd50b <__heap_start+0x6f81>
    2640: 8d 12 d5     	sta	$d512                   ; 0xd512 <__heap_start+0x6f88>
    2643: a0 12        	ldy	#$12
    2645: b1 12        	lda	($12),y                 ; 0x2012 <f256main+0x1735>
    2647: c9 1b        	cmp	#$1b
    2649: d0 52        	bne	$269d <checkUIEClick+0x50a>
    264b: a0 06        	ldy	#$6
    264d: b1 12        	lda	($12),y                 ; 0x2012 <f256main+0x1735>
    264f: aa           	tax
    2650: a5 ca        	lda	$ca                     ; 0x20ca <f256main+0x17ed>
    2652: a4 cb        	ldy	$cb                     ; 0x20cb <f256main+0x17ee>
    2654: 84 16        	sty	$16                     ; 0x2016 <f256main+0x1739>
    2656: 85 14        	sta	$14                     ; 0x2014 <f256main+0x1737>
    2658: 84 15        	sty	$15                     ; 0x2015 <f256main+0x1738>
    265a: a0 04        	ldy	#$4
    265c: 18           	clc
    265d: 69 04        	adc	#$4
    265f: 85 18        	sta	$18                     ; 0x2018 <f256main+0x173b>
    2661: a5 16        	lda	$16                     ; 0x2016 <f256main+0x1739>
    2663: 69 00        	adc	#$0
    2665: 5a           	phy
    2666: a4 18        	ldy	$18                     ; 0x2018 <f256main+0x173b>
    2668: 84 16        	sty	$16                     ; 0x2016 <f256main+0x1739>
    266a: 7a           	ply
    266b: 85 17        	sta	$17                     ; 0x2017 <f256main+0x173a>
    266d: b1 14        	lda	($14),y                 ; 0x2014 <f256main+0x1737>
    266f: 85 14        	sta	$14                     ; 0x2014 <f256main+0x1737>
    2671: a0 01        	ldy	#$1
    2673: b1 16        	lda	($16),y                 ; 0x2016 <f256main+0x1739>
    2675: 85 15        	sta	$15                     ; 0x2015 <f256main+0x1738>
    2677: a0 05        	ldy	#$5
    2679: b1 14        	lda	($14),y                 ; 0x2014 <f256main+0x1737>
    267b: e0 00        	cpx	#$0
    267d: f0 04        	beq	$2683 <checkUIEClick+0x4f0>
    267f: 09 80        	ora	#$80
    2681: 80 02        	bra	$2685 <checkUIEClick+0x4f2>
    2683: 49 80        	eor	#$80
    2685: 91 14        	sta	($14),y                 ; 0x2014 <f256main+0x1737>
    2687: 8d 04 d4     	sta	$d404                   ; 0xd404 <__heap_start+0x6e7a>
    268a: 8d 0b d4     	sta	$d40b                   ; 0xd40b <__heap_start+0x6e81>
    268d: 8d 12 d4     	sta	$d412                   ; 0xd412 <__heap_start+0x6e88>
    2690: 8d 04 d5     	sta	$d504                   ; 0xd504 <__heap_start+0x6f7a>
    2693: 8d 0b d5     	sta	$d50b                   ; 0xd50b <__heap_start+0x6f81>
    2696: 8d 12 d5     	sta	$d512                   ; 0xd512 <__heap_start+0x6f88>
    2699: a0 12        	ldy	#$12
    269b: b1 12        	lda	($12),y                 ; 0x2012 <f256main+0x1735>
    269d: c9 31        	cmp	#$31
    269f: f0 03        	beq	$26a4 <checkUIEClick+0x511>
    26a1: 4c 40 27     	jmp	$2740 <checkUIEClick+0x5ad>
    26a4: a0 06        	ldy	#$6
    26a6: b1 12        	lda	($12),y                 ; 0x2012 <f256main+0x1735>
    26a8: aa           	tax
    26a9: a5 ca        	lda	$ca                     ; 0x20ca <f256main+0x17ed>
    26ab: a4 cb        	ldy	$cb                     ; 0x20cb <f256main+0x17ee>
    26ad: 84 16        	sty	$16                     ; 0x2016 <f256main+0x1739>
    26af: 85 14        	sta	$14                     ; 0x2014 <f256main+0x1737>
    26b1: 84 15        	sty	$15                     ; 0x2015 <f256main+0x1738>
    26b3: a0 04        	ldy	#$4
    26b5: 18           	clc
    26b6: 69 04        	adc	#$4
    26b8: 85 18        	sta	$18                     ; 0x2018 <f256main+0x173b>
    26ba: a5 16        	lda	$16                     ; 0x2016 <f256main+0x1739>
    26bc: 69 00        	adc	#$0
    26be: 5a           	phy
    26bf: a4 18        	ldy	$18                     ; 0x2018 <f256main+0x173b>
    26c1: 84 16        	sty	$16                     ; 0x2016 <f256main+0x1739>
    26c3: 7a           	ply
    26c4: 85 17        	sta	$17                     ; 0x2017 <f256main+0x173a>
    26c6: b1 14        	lda	($14),y                 ; 0x2014 <f256main+0x1737>
    26c8: 85 14        	sta	$14                     ; 0x2014 <f256main+0x1737>
    26ca: a0 01        	ldy	#$1
    26cc: b1 16        	lda	($16),y                 ; 0x2016 <f256main+0x1739>
    26ce: 85 15        	sta	$15                     ; 0x2015 <f256main+0x1738>
    26d0: a0 05        	ldy	#$5
    26d2: b1 14        	lda	($14),y                 ; 0x2014 <f256main+0x1737>
    26d4: e0 00        	cpx	#$0
    26d6: f0 04        	beq	$26dc <checkUIEClick+0x549>
    26d8: 09 02        	ora	#$2
    26da: 80 02        	bra	$26de <checkUIEClick+0x54b>
    26dc: 49 02        	eor	#$2
    26de: 91 14        	sta	($14),y                 ; 0x2014 <f256main+0x1737>
    26e0: 8d 04 d4     	sta	$d404                   ; 0xd404 <__heap_start+0x6e7a>
    26e3: 8d 0b d4     	sta	$d40b                   ; 0xd40b <__heap_start+0x6e81>
    26e6: 8d 12 d4     	sta	$d412                   ; 0xd412 <__heap_start+0x6e88>
    26e9: 8d 04 d5     	sta	$d504                   ; 0xd504 <__heap_start+0x6f7a>
    26ec: 8d 0b d5     	sta	$d50b                   ; 0xd50b <__heap_start+0x6f81>
    26ef: 8d 12 d5     	sta	$d512                   ; 0xd512 <__heap_start+0x6f88>
    26f2: a0 12        	ldy	#$12
    26f4: b1 12        	lda	($12),y                 ; 0x2012 <f256main+0x1735>
    26f6: c9 31        	cmp	#$31
    26f8: d0 46        	bne	$2740 <checkUIEClick+0x5ad>
    26fa: a0 06        	ldy	#$6
    26fc: b1 12        	lda	($12),y                 ; 0x2012 <f256main+0x1735>
    26fe: aa           	tax
    26ff: a5 ca        	lda	$ca                     ; 0x20ca <f256main+0x17ed>
    2701: a4 cb        	ldy	$cb                     ; 0x20cb <f256main+0x17ee>
    2703: 84 16        	sty	$16                     ; 0x2016 <f256main+0x1739>
    2705: 85 14        	sta	$14                     ; 0x2014 <f256main+0x1737>
    2707: 84 15        	sty	$15                     ; 0x2015 <f256main+0x1738>
    2709: a0 04        	ldy	#$4
    270b: 18           	clc
    270c: 69 04        	adc	#$4
    270e: 85 18        	sta	$18                     ; 0x2018 <f256main+0x173b>
    2710: a5 16        	lda	$16                     ; 0x2016 <f256main+0x1739>
    2712: 69 00        	adc	#$0
    2714: 5a           	phy
    2715: a4 18        	ldy	$18                     ; 0x2018 <f256main+0x173b>
    2717: 84 16        	sty	$16                     ; 0x2016 <f256main+0x1739>
    2719: 7a           	ply
    271a: 85 17        	sta	$17                     ; 0x2017 <f256main+0x173a>
    271c: b1 14        	lda	($14),y                 ; 0x2014 <f256main+0x1737>
    271e: 85 14        	sta	$14                     ; 0x2014 <f256main+0x1737>
    2720: a0 01        	ldy	#$1
    2722: b1 16        	lda	($16),y                 ; 0x2016 <f256main+0x1739>
    2724: 85 15        	sta	$15                     ; 0x2015 <f256main+0x1738>
    2726: a0 08        	ldy	#$8
    2728: b1 14        	lda	($14),y                 ; 0x2014 <f256main+0x1737>
    272a: e0 00        	cpx	#$0
    272c: f0 04        	beq	$2732 <checkUIEClick+0x59f>
    272e: 09 01        	ora	#$1
    2730: 80 02        	bra	$2734 <checkUIEClick+0x5a1>
    2732: 49 01        	eor	#$1
    2734: 91 14        	sta	($14),y                 ; 0x2014 <f256main+0x1737>
    2736: 8d 17 d4     	sta	$d417                   ; 0xd417 <__heap_start+0x6e8d>
    2739: 8d 17 d5     	sta	$d517                   ; 0xd517 <__heap_start+0x6f8d>
    273c: a0 12        	ldy	#$12
    273e: b1 12        	lda	($12),y                 ; 0x2012 <f256main+0x1735>
    2740: c9 2c        	cmp	#$2c
    2742: d0 44        	bne	$2788 <checkUIEClick+0x5f5>
    2744: a0 06        	ldy	#$6
    2746: b1 12        	lda	($12),y                 ; 0x2012 <f256main+0x1735>
    2748: aa           	tax
    2749: a5 ca        	lda	$ca                     ; 0x20ca <f256main+0x17ed>
    274b: a4 cb        	ldy	$cb                     ; 0x20cb <f256main+0x17ee>
    274d: 84 16        	sty	$16                     ; 0x2016 <f256main+0x1739>
    274f: 85 14        	sta	$14                     ; 0x2014 <f256main+0x1737>
    2751: 84 15        	sty	$15                     ; 0x2015 <f256main+0x1738>
    2753: a0 04        	ldy	#$4
    2755: 18           	clc
    2756: 69 04        	adc	#$4
    2758: 85 18        	sta	$18                     ; 0x2018 <f256main+0x173b>
    275a: a5 16        	lda	$16                     ; 0x2016 <f256main+0x1739>
    275c: 69 00        	adc	#$0
    275e: 5a           	phy
    275f: a4 18        	ldy	$18                     ; 0x2018 <f256main+0x173b>
    2761: 84 16        	sty	$16                     ; 0x2016 <f256main+0x1739>
    2763: 7a           	ply
    2764: 85 17        	sta	$17                     ; 0x2017 <f256main+0x173a>
    2766: b1 14        	lda	($14),y                 ; 0x2014 <f256main+0x1737>
    2768: 85 14        	sta	$14                     ; 0x2014 <f256main+0x1737>
    276a: a0 01        	ldy	#$1
    276c: b1 16        	lda	($16),y                 ; 0x2016 <f256main+0x1739>
    276e: 85 15        	sta	$15                     ; 0x2015 <f256main+0x1738>
    2770: b2 14        	lda	($14)                   ; 0x2014 <f256main+0x1737>
    2772: e0 00        	cpx	#$0
    2774: f0 04        	beq	$277a <checkUIEClick+0x5e7>
    2776: 09 10        	ora	#$10
    2778: 80 02        	bra	$277c <checkUIEClick+0x5e9>
    277a: 49 10        	eor	#$10
    277c: 92 14        	sta	($14)                   ; 0x2014 <f256main+0x1737>
    277e: 8d 18 d4     	sta	$d418                   ; 0xd418 <__heap_start+0x6e8e>
    2781: 8d 18 d5     	sta	$d518                   ; 0xd518 <__heap_start+0x6f8e>
    2784: a0 12        	ldy	#$12
    2786: b1 12        	lda	($12),y                 ; 0x2012 <f256main+0x1735>
    2788: c9 2d        	cmp	#$2d
    278a: d0 44        	bne	$27d0 <checkUIEClick+0x63d>
    278c: a0 06        	ldy	#$6
    278e: b1 12        	lda	($12),y                 ; 0x2012 <f256main+0x1735>
    2790: aa           	tax
    2791: a5 ca        	lda	$ca                     ; 0x20ca <f256main+0x17ed>
    2793: a4 cb        	ldy	$cb                     ; 0x20cb <f256main+0x17ee>
    2795: 84 16        	sty	$16                     ; 0x2016 <f256main+0x1739>
    2797: 85 14        	sta	$14                     ; 0x2014 <f256main+0x1737>
    2799: 84 15        	sty	$15                     ; 0x2015 <f256main+0x1738>
    279b: a0 04        	ldy	#$4
    279d: 18           	clc
    279e: 69 04        	adc	#$4
    27a0: 85 18        	sta	$18                     ; 0x2018 <f256main+0x173b>
    27a2: a5 16        	lda	$16                     ; 0x2016 <f256main+0x1739>
    27a4: 69 00        	adc	#$0
    27a6: 5a           	phy
    27a7: a4 18        	ldy	$18                     ; 0x2018 <f256main+0x173b>
    27a9: 84 16        	sty	$16                     ; 0x2016 <f256main+0x1739>
    27ab: 7a           	ply
    27ac: 85 17        	sta	$17                     ; 0x2017 <f256main+0x173a>
    27ae: b1 14        	lda	($14),y                 ; 0x2014 <f256main+0x1737>
    27b0: 85 14        	sta	$14                     ; 0x2014 <f256main+0x1737>
    27b2: a0 01        	ldy	#$1
    27b4: b1 16        	lda	($16),y                 ; 0x2016 <f256main+0x1739>
    27b6: 85 15        	sta	$15                     ; 0x2015 <f256main+0x1738>
    27b8: b2 14        	lda	($14)                   ; 0x2014 <f256main+0x1737>
    27ba: e0 00        	cpx	#$0
    27bc: f0 04        	beq	$27c2 <checkUIEClick+0x62f>
    27be: 09 20        	ora	#$20
    27c0: 80 02        	bra	$27c4 <checkUIEClick+0x631>
    27c2: 49 20        	eor	#$20
    27c4: 92 14        	sta	($14)                   ; 0x2014 <f256main+0x1737>
    27c6: 8d 18 d4     	sta	$d418                   ; 0xd418 <__heap_start+0x6e8e>
    27c9: 8d 18 d5     	sta	$d518                   ; 0xd518 <__heap_start+0x6f8e>
    27cc: a0 12        	ldy	#$12
    27ce: b1 12        	lda	($12),y                 ; 0x2012 <f256main+0x1735>
    27d0: c9 2e        	cmp	#$2e
    27d2: d0 44        	bne	$2818 <checkUIEClick+0x685>
    27d4: a0 06        	ldy	#$6
    27d6: b1 12        	lda	($12),y                 ; 0x2012 <f256main+0x1735>
    27d8: aa           	tax
    27d9: a5 ca        	lda	$ca                     ; 0x20ca <f256main+0x17ed>
    27db: a4 cb        	ldy	$cb                     ; 0x20cb <f256main+0x17ee>
    27dd: 84 16        	sty	$16                     ; 0x2016 <f256main+0x1739>
    27df: 85 14        	sta	$14                     ; 0x2014 <f256main+0x1737>
    27e1: 84 15        	sty	$15                     ; 0x2015 <f256main+0x1738>
    27e3: a0 04        	ldy	#$4
    27e5: 18           	clc
    27e6: 69 04        	adc	#$4
    27e8: 85 18        	sta	$18                     ; 0x2018 <f256main+0x173b>
    27ea: a5 16        	lda	$16                     ; 0x2016 <f256main+0x1739>
    27ec: 69 00        	adc	#$0
    27ee: 5a           	phy
    27ef: a4 18        	ldy	$18                     ; 0x2018 <f256main+0x173b>
    27f1: 84 16        	sty	$16                     ; 0x2016 <f256main+0x1739>
    27f3: 7a           	ply
    27f4: 85 17        	sta	$17                     ; 0x2017 <f256main+0x173a>
    27f6: b1 14        	lda	($14),y                 ; 0x2014 <f256main+0x1737>
    27f8: 85 14        	sta	$14                     ; 0x2014 <f256main+0x1737>
    27fa: a0 01        	ldy	#$1
    27fc: b1 16        	lda	($16),y                 ; 0x2016 <f256main+0x1739>
    27fe: 85 15        	sta	$15                     ; 0x2015 <f256main+0x1738>
    2800: b2 14        	lda	($14)                   ; 0x2014 <f256main+0x1737>
    2802: e0 00        	cpx	#$0
    2804: f0 04        	beq	$280a <checkUIEClick+0x677>
    2806: 09 40        	ora	#$40
    2808: 80 02        	bra	$280c <checkUIEClick+0x679>
    280a: 49 40        	eor	#$40
    280c: 92 14        	sta	($14)                   ; 0x2014 <f256main+0x1737>
    280e: 8d 18 d4     	sta	$d418                   ; 0xd418 <__heap_start+0x6e8e>
    2811: 8d 18 d5     	sta	$d518                   ; 0xd518 <__heap_start+0x6f8e>
    2814: a0 12        	ldy	#$12
    2816: b1 12        	lda	($12),y                 ; 0x2012 <f256main+0x1735>
    2818: c9 2f        	cmp	#$2f
    281a: f0 03        	beq	$281f <checkUIEClick+0x68c>
    281c: 4c 87 29     	jmp	$2987 <checkUIEClick+0x7f4>
    281f: a0 06        	ldy	#$6
    2821: b1 12        	lda	($12),y                 ; 0x2012 <f256main+0x1735>
    2823: aa           	tax
    2824: a5 ca        	lda	$ca                     ; 0x20ca <f256main+0x17ed>
    2826: a4 cb        	ldy	$cb                     ; 0x20cb <f256main+0x17ee>
    2828: 84 16        	sty	$16                     ; 0x2016 <f256main+0x1739>
    282a: 85 14        	sta	$14                     ; 0x2014 <f256main+0x1737>
    282c: 84 15        	sty	$15                     ; 0x2015 <f256main+0x1738>
    282e: a0 04        	ldy	#$4
    2830: 18           	clc
    2831: 69 04        	adc	#$4
    2833: 85 18        	sta	$18                     ; 0x2018 <f256main+0x173b>
    2835: a5 16        	lda	$16                     ; 0x2016 <f256main+0x1739>
    2837: 69 00        	adc	#$0
    2839: 5a           	phy
    283a: a4 18        	ldy	$18                     ; 0x2018 <f256main+0x173b>
    283c: 84 16        	sty	$16                     ; 0x2016 <f256main+0x1739>
    283e: 7a           	ply
    283f: 85 17        	sta	$17                     ; 0x2017 <f256main+0x173a>
    2841: b1 14        	lda	($14),y                 ; 0x2014 <f256main+0x1737>
    2843: 85 14        	sta	$14                     ; 0x2014 <f256main+0x1737>
    2845: a0 01        	ldy	#$1
    2847: b1 16        	lda	($16),y                 ; 0x2016 <f256main+0x1739>
    2849: 85 15        	sta	$15                     ; 0x2015 <f256main+0x1738>
    284b: b2 14        	lda	($14)                   ; 0x2014 <f256main+0x1737>
    284d: e0 00        	cpx	#$0
    284f: f0 08        	beq	$2859 <checkUIEClick+0x6c6>
    2851: 09 80        	ora	#$80
    2853: 92 14        	sta	($14)                   ; 0x2014 <f256main+0x1737>
    2855: a2 3f        	ldx	#$3f
    2857: 80 0e        	bra	$2867 <checkUIEClick+0x6d4>
    2859: 49 80        	eor	#$80
    285b: 92 14        	sta	($14)                   ; 0x2014 <f256main+0x1737>
    285d: 8d 18 d4     	sta	$d418                   ; 0xd418 <__heap_start+0x6e8e>
    2860: 8d 18 d5     	sta	$d518                   ; 0xd518 <__heap_start+0x6f8e>
    2863: a2 3a        	ldx	#$3a
    2865: a0 00        	ldy	#$0
    2867: 84 ba        	sty	$ba                     ; 0x20ba <f256main+0x17dd>
    2869: 84 b7        	sty	$b7                     ; 0x20b7 <f256main+0x17da>
    286b: 86 18        	stx	$18                     ; 0x2018 <f256main+0x173b>
    286d: 8e 17 64     	stx	$6417                   ; 0x6417 <lights+0x63>
    2870: ad 05 64     	lda	$6405                   ; 0x6405 <lights+0x51>
    2873: ae 06 64     	ldx	$6406                   ; 0x6406 <lights+0x52>
    2876: 0a           	asl
    2877: 85 14        	sta	$14                     ; 0x2014 <f256main+0x1737>
    2879: 86 15        	stx	$15                     ; 0x2015 <f256main+0x1738>
    287b: 26 15        	rol	$15                     ; 0x2015 <f256main+0x1738>
    287d: ad 07 64     	lda	$6407                   ; 0x6407 <lights+0x53>
    2880: ae 08 64     	ldx	$6408                   ; 0x6408 <lights+0x54>
    2883: 86 16        	stx	$16                     ; 0x2016 <f256main+0x1739>
    2885: 0a           	asl
    2886: 26 16        	rol	$16                     ; 0x2016 <f256main+0x1739>
    2888: 0a           	asl
    2889: 26 16        	rol	$16                     ; 0x2016 <f256main+0x1739>
    288b: a6 16        	ldx	$16                     ; 0x2016 <f256main+0x1739>
    288d: 86 17        	stx	$17                     ; 0x2017 <f256main+0x173a>
    288f: 0a           	asl
    2890: 85 16        	sta	$16                     ; 0x2016 <f256main+0x1739>
    2892: 26 17        	rol	$17                     ; 0x2017 <f256main+0x173a>
    2894: 0a           	asl
    2895: a6 17        	ldx	$17                     ; 0x2017 <f256main+0x173a>
    2897: 86 19        	stx	$19                     ; 0x2019 <f256main+0x173c>
    2899: 26 19        	rol	$19                     ; 0x2019 <f256main+0x173c>
    289b: 0a           	asl
    289c: 26 19        	rol	$19                     ; 0x2019 <f256main+0x173c>
    289e: 18           	clc
    289f: 65 16        	adc	$16                     ; 0x2016 <f256main+0x1739>
    28a1: a8           	tay
    28a2: a5 19        	lda	$19                     ; 0x2019 <f256main+0x173c>
    28a4: 65 17        	adc	$17                     ; 0x2017 <f256main+0x173a>
    28a6: aa           	tax
    28a7: 18           	clc
    28a8: 98           	tya
    28a9: 65 14        	adc	$14                     ; 0x2014 <f256main+0x1737>
    28ab: 85 16        	sta	$16                     ; 0x2016 <f256main+0x1739>
    28ad: 8a           	txa
    28ae: 65 15        	adc	$15                     ; 0x2015 <f256main+0x1738>
    28b0: a2 ff        	ldx	#$ff
    28b2: 48           	pha
    28b3: 8a           	txa
    28b4: a0 03        	ldy	#$3
    28b6: 91 10        	sta	($10),y                 ; 0x2010 <f256main+0x1733>
    28b8: 68           	pla
    28b9: a0 ff        	ldy	#$ff
    28bb: aa           	tax
    28bc: 30 02        	bmi	$28c0 <checkUIEClick+0x72d>
    28be: a0 00        	ldy	#$0
    28c0: 18           	clc
    28c1: a5 16        	lda	$16                     ; 0x2016 <f256main+0x1739>
    28c3: 85 14        	sta	$14                     ; 0x2014 <f256main+0x1737>
    28c5: a5 16        	lda	$16                     ; 0x2016 <f256main+0x1739>
    28c7: 69 00        	adc	#$0
    28c9: 8a           	txa
    28ca: 86 15        	stx	$15                     ; 0x2015 <f256main+0x1738>
    28cc: 69 00        	adc	#$0
    28ce: 85 16        	sta	$16                     ; 0x2016 <f256main+0x1739>
    28d0: 98           	tya
    28d1: 69 01        	adc	#$1
    28d3: 06 16        	asl	$16                     ; 0x2016 <f256main+0x1739>
    28d5: 2a           	rol
    28d6: 06 16        	asl	$16                     ; 0x2016 <f256main+0x1739>
    28d8: 2a           	rol
    28d9: 06 16        	asl	$16                     ; 0x2016 <f256main+0x1739>
    28db: 2a           	rol
    28dc: a6 0f        	ldx	$f                      ; 0x200f <f256main+0x1732>
    28de: 86 16        	stx	$16                     ; 0x2016 <f256main+0x1739>
    28e0: 78           	sei
    28e1: 85 0f        	sta	$f                      ; 0x200f <f256main+0x1732>
    28e3: a5 15        	lda	$15                     ; 0x2015 <f256main+0x1738>
    28e5: 09 e0        	ora	#$e0
    28e7: 85 15        	sta	$15                     ; 0x2015 <f256main+0x1738>
    28e9: a5 18        	lda	$18                     ; 0x2018 <f256main+0x173b>
    28eb: 92 14        	sta	($14)                   ; 0x2014 <f256main+0x1737>
    28ed: a6 18        	ldx	$18                     ; 0x2018 <f256main+0x173b>
    28ef: a9 00        	lda	#$0
    28f1: a0 01        	ldy	#$1
    28f3: 91 14        	sta	($14),y                 ; 0x2014 <f256main+0x1737>
    28f5: a4 16        	ldy	$16                     ; 0x2016 <f256main+0x1739>
    28f7: 84 0f        	sty	$f                      ; 0x200f <f256main+0x1732>
    28f9: 58           	cli
    28fa: 8e 2b 64     	stx	$642b                   ; 0x642b <lights+0x77>
    28fd: ad 19 64     	lda	$6419                   ; 0x6419 <lights+0x65>
    2900: ae 1a 64     	ldx	$641a                   ; 0x641a <lights+0x66>
    2903: 0a           	asl
    2904: 85 14        	sta	$14                     ; 0x2014 <f256main+0x1737>
    2906: 86 15        	stx	$15                     ; 0x2015 <f256main+0x1738>
    2908: 26 15        	rol	$15                     ; 0x2015 <f256main+0x1738>
    290a: ad 1b 64     	lda	$641b                   ; 0x641b <lights+0x67>
    290d: ae 1c 64     	ldx	$641c                   ; 0x641c <lights+0x68>
    2910: 86 16        	stx	$16                     ; 0x2016 <f256main+0x1739>
    2912: 0a           	asl
    2913: 26 16        	rol	$16                     ; 0x2016 <f256main+0x1739>
    2915: 0a           	asl
    2916: 26 16        	rol	$16                     ; 0x2016 <f256main+0x1739>
    2918: a6 16        	ldx	$16                     ; 0x2016 <f256main+0x1739>
    291a: 86 17        	stx	$17                     ; 0x2017 <f256main+0x173a>
    291c: 0a           	asl
    291d: 85 16        	sta	$16                     ; 0x2016 <f256main+0x1739>
    291f: 26 17        	rol	$17                     ; 0x2017 <f256main+0x173a>
    2921: 0a           	asl
    2922: aa           	tax
    2923: a5 17        	lda	$17                     ; 0x2017 <f256main+0x173a>
    2925: 2a           	rol
    2926: 86 19        	stx	$19                     ; 0x2019 <f256main+0x173c>
    2928: 06 19        	asl	$19                     ; 0x2019 <f256main+0x173c>
    292a: 2a           	rol
    292b: aa           	tax
    292c: a5 19        	lda	$19                     ; 0x2019 <f256main+0x173c>
    292e: 18           	clc
    292f: 65 16        	adc	$16                     ; 0x2016 <f256main+0x1739>
    2931: 85 16        	sta	$16                     ; 0x2016 <f256main+0x1739>
    2933: 8a           	txa
    2934: 65 17        	adc	$17                     ; 0x2017 <f256main+0x173a>
    2936: aa           	tax
    2937: a5 16        	lda	$16                     ; 0x2016 <f256main+0x1739>
    2939: 18           	clc
    293a: 65 14        	adc	$14                     ; 0x2014 <f256main+0x1737>
    293c: a8           	tay
    293d: 8a           	txa
    293e: 65 15        	adc	$15                     ; 0x2015 <f256main+0x1738>
    2940: aa           	tax
    2941: 30 0a        	bmi	$294d <checkUIEClick+0x7ba>
    2943: 64 14        	stz	$14                     ; 0x2014 <f256main+0x1737>
    2945: a9 00        	lda	#$0
    2947: 5a           	phy
    2948: a0 03        	ldy	#$3
    294a: 91 10        	sta	($10),y                 ; 0x2010 <f256main+0x1733>
    294c: 7a           	ply
    294d: 98           	tya
    294e: 18           	clc
    294f: 69 00        	adc	#$0
    2951: 86 16        	stx	$16                     ; 0x2016 <f256main+0x1739>
    2953: 8a           	txa
    2954: 69 00        	adc	#$0
    2956: 85 17        	sta	$17                     ; 0x2017 <f256main+0x173a>
    2958: 5a           	phy
    2959: a0 03        	ldy	#$3
    295b: b1 10        	lda	($10),y                 ; 0x2010 <f256main+0x1733>
    295d: 7a           	ply
    295e: 69 01        	adc	#$1
    2960: 06 17        	asl	$17                     ; 0x2017 <f256main+0x173a>
    2962: 2a           	rol
    2963: 06 17        	asl	$17                     ; 0x2017 <f256main+0x173a>
    2965: 2a           	rol
    2966: 06 17        	asl	$17                     ; 0x2017 <f256main+0x173a>
    2968: 2a           	rol
    2969: a6 0f        	ldx	$f                      ; 0x200f <f256main+0x1732>
    296b: 78           	sei
    296c: 85 0f        	sta	$f                      ; 0x200f <f256main+0x1732>
    296e: 84 14        	sty	$14                     ; 0x2014 <f256main+0x1737>
    2970: a5 16        	lda	$16                     ; 0x2016 <f256main+0x1739>
    2972: 09 e0        	ora	#$e0
    2974: 85 15        	sta	$15                     ; 0x2015 <f256main+0x1738>
    2976: a5 18        	lda	$18                     ; 0x2018 <f256main+0x173b>
    2978: 92 14        	sta	($14)                   ; 0x2014 <f256main+0x1737>
    297a: a9 00        	lda	#$0
    297c: a0 01        	ldy	#$1
    297e: 91 14        	sta	($14),y                 ; 0x2014 <f256main+0x1737>
    2980: 86 0f        	stx	$f                      ; 0x200f <f256main+0x1732>
    2982: 58           	cli
    2983: a0 12        	ldy	#$12
    2985: b1 12        	lda	($12),y                 ; 0x2012 <f256main+0x1735>
    2987: c9 30        	cmp	#$30
    2989: f0 03        	beq	$298e <checkUIEClick+0x7fb>
    298b: 4c e0 21     	jmp	$21e0 <checkUIEClick+0x4d>
    298e: a0 06        	ldy	#$6
    2990: b1 12        	lda	($12),y                 ; 0x2012 <f256main+0x1735>
    2992: aa           	tax
    2993: a5 ca        	lda	$ca                     ; 0x20ca <f256main+0x17ed>
    2995: a4 cb        	ldy	$cb                     ; 0x20cb <f256main+0x17ee>
    2997: 84 14        	sty	$14                     ; 0x2014 <f256main+0x1737>
    2999: 85 12        	sta	$12                     ; 0x2012 <f256main+0x1735>
    299b: 84 13        	sty	$13                     ; 0x2013 <f256main+0x1736>
    299d: a0 04        	ldy	#$4
    299f: 18           	clc
    29a0: 69 04        	adc	#$4
    29a2: 85 16        	sta	$16                     ; 0x2016 <f256main+0x1739>
    29a4: a5 14        	lda	$14                     ; 0x2014 <f256main+0x1737>
    29a6: 69 00        	adc	#$0
    29a8: 5a           	phy
    29a9: a4 16        	ldy	$16                     ; 0x2016 <f256main+0x1739>
    29ab: 84 14        	sty	$14                     ; 0x2014 <f256main+0x1737>
    29ad: 7a           	ply
    29ae: 85 15        	sta	$15                     ; 0x2015 <f256main+0x1738>
    29b0: b1 12        	lda	($12),y                 ; 0x2012 <f256main+0x1735>
    29b2: 85 12        	sta	$12                     ; 0x2012 <f256main+0x1735>
    29b4: a0 01        	ldy	#$1
    29b6: b1 14        	lda	($14),y                 ; 0x2014 <f256main+0x1737>
    29b8: 85 13        	sta	$13                     ; 0x2013 <f256main+0x1736>
    29ba: a0 05        	ldy	#$5
    29bc: b1 12        	lda	($12),y                 ; 0x2012 <f256main+0x1735>
    29be: e0 00        	cpx	#$0
    29c0: f0 0d        	beq	$29cf <checkUIEClick+0x83c>
    29c2: 09 04        	ora	#$4
    29c4: 91 12        	sta	($12),y                 ; 0x2012 <f256main+0x1735>
    29c6: a2 01        	ldx	#$1
    29c8: 86 b7        	stx	$b7                     ; 0x20b7 <f256main+0x17da>
    29ca: 86 ba        	stx	$ba                     ; 0x20ba <f256main+0x17dd>
    29cc: 4c e0 21     	jmp	$21e0 <checkUIEClick+0x4d>
    29cf: 49 04        	eor	#$4
    29d1: 91 12        	sta	($12),y                 ; 0x2012 <f256main+0x1735>
    29d3: 8d 04 d4     	sta	$d404                   ; 0xd404 <__heap_start+0x6e7a>
    29d6: 8d 0b d4     	sta	$d40b                   ; 0xd40b <__heap_start+0x6e81>
    29d9: 8d 12 d4     	sta	$d412                   ; 0xd412 <__heap_start+0x6e88>
    29dc: 8d 04 d5     	sta	$d504                   ; 0xd504 <__heap_start+0x6f7a>
    29df: 8d 0b d5     	sta	$d50b                   ; 0xd50b <__heap_start+0x6f81>
    29e2: 8d 12 d5     	sta	$d512                   ; 0xd512 <__heap_start+0x6f88>
    29e5: 64 b7        	stz	$b7                     ; 0x20b7 <f256main+0x17da>
    29e7: 64 ba        	stz	$ba                     ; 0x20ba <f256main+0x17dd>
    29e9: 4c e0 21     	jmp	$21e0 <checkUIEClick+0x4d>

000029ec <textLayerGen>:
    29ec: 18           	clc
    29ed: a5 10        	lda	$10                     ; 0x2010 <f256main+0x1733>
    29ef: 69 fc        	adc	#$fc
    29f1: 85 10        	sta	$10                     ; 0x2010 <f256main+0x1733>
    29f3: a5 11        	lda	$11                     ; 0x2011 <f256main+0x1734>
    29f5: 69 ff        	adc	#$ff
    29f7: 85 11        	sta	$11                     ; 0x2011 <f256main+0x1734>
    29f9: a9 00        	lda	#$0
    29fb: 64 9b        	stz	$9b                     ; 0x209b <f256main+0x17be>
    29fd: 9c 14 d0     	stz	$d014                   ; 0xd014 <__heap_start+0x6a8a>
    2a00: 9c 15 d0     	stz	$d015                   ; 0xd015 <__heap_start+0x6a8b>
    2a03: 64 9c        	stz	$9c                     ; 0x209c <f256main+0x17bf>
    2a05: 9c 16 d0     	stz	$d016                   ; 0xd016 <__heap_start+0x6a8c>
    2a08: 9c 17 d0     	stz	$d017                   ; 0xd017 <__heap_start+0x6a8d>
    2a0b: 92 10        	sta	($10)                   ; 0x2010 <f256main+0x1733>
    2a0d: a0 01        	ldy	#$1
    2a0f: 91 10        	sta	($10),y                 ; 0x2010 <f256main+0x1733>
    2a11: c8           	iny
    2a12: 1a           	inc
    2a13: 91 10        	sta	($10),y                 ; 0x2010 <f256main+0x1733>
    2a15: c8           	iny
    2a16: 3a           	dec
    2a17: 91 10        	sta	($10),y                 ; 0x2010 <f256main+0x1733>
    2a19: 20 0d 49     	jsr	$490d <printf>
    2a1c: a2 06        	ldx	#$6
    2a1e: 86 9b        	stx	$9b                     ; 0x209b <f256main+0x17be>
    2a20: 8e 14 d0     	stx	$d014                   ; 0xd014 <__heap_start+0x6a8a>
    2a23: 9c 15 d0     	stz	$d015                   ; 0xd015 <__heap_start+0x6a8b>
    2a26: a2 02        	ldx	#$2
    2a28: 86 9c        	stx	$9c                     ; 0x209c <f256main+0x17bf>
    2a2a: 8e 16 d0     	stx	$d016                   ; 0xd016 <__heap_start+0x6a8c>
    2a2d: 9c 17 d0     	stz	$d017                   ; 0xd017 <__heap_start+0x6a8d>
    2a30: a2 11        	ldx	#$11
    2a32: 86 12        	stx	$12                     ; 0x2012 <f256main+0x1735>
    2a34: a2 5e        	ldx	#$5e
    2a36: 86 13        	stx	$13                     ; 0x2013 <f256main+0x1736>
    2a38: 20 c3 2a     	jsr	$2ac3 <textPrint>
    2a3b: a2 06        	ldx	#$6
    2a3d: 86 9b        	stx	$9b                     ; 0x209b <f256main+0x17be>
    2a3f: 8e 14 d0     	stx	$d014                   ; 0xd014 <__heap_start+0x6a8a>
    2a42: 9c 15 d0     	stz	$d015                   ; 0xd015 <__heap_start+0x6a8b>
    2a45: a2 04        	ldx	#$4
    2a47: 86 9c        	stx	$9c                     ; 0x209c <f256main+0x17bf>
    2a49: 8e 16 d0     	stx	$d016                   ; 0xd016 <__heap_start+0x6a8c>
    2a4c: 9c 17 d0     	stz	$d017                   ; 0xd017 <__heap_start+0x6a8d>
    2a4f: a2 43        	ldx	#$43
    2a51: 86 12        	stx	$12                     ; 0x2012 <f256main+0x1735>
    2a53: a2 5d        	ldx	#$5d
    2a55: 86 13        	stx	$13                     ; 0x2013 <f256main+0x1736>
    2a57: 20 c3 2a     	jsr	$2ac3 <textPrint>
    2a5a: a2 06        	ldx	#$6
    2a5c: 86 9b        	stx	$9b                     ; 0x209b <f256main+0x17be>
    2a5e: 8e 14 d0     	stx	$d014                   ; 0xd014 <__heap_start+0x6a8a>
    2a61: 9c 15 d0     	stz	$d015                   ; 0xd015 <__heap_start+0x6a8b>
    2a64: 86 9c        	stx	$9c                     ; 0x209c <f256main+0x17bf>
    2a66: 8e 16 d0     	stx	$d016                   ; 0xd016 <__heap_start+0x6a8c>
    2a69: 9c 17 d0     	stz	$d017                   ; 0xd017 <__heap_start+0x6a8d>
    2a6c: a2 39        	ldx	#$39
    2a6e: 86 12        	stx	$12                     ; 0x2012 <f256main+0x1735>
    2a70: a2 5d        	ldx	#$5d
    2a72: 86 13        	stx	$13                     ; 0x2013 <f256main+0x1736>
    2a74: 20 c3 2a     	jsr	$2ac3 <textPrint>
    2a77: a2 06        	ldx	#$6
    2a79: 86 9b        	stx	$9b                     ; 0x209b <f256main+0x17be>
    2a7b: 8e 14 d0     	stx	$d014                   ; 0xd014 <__heap_start+0x6a8a>
    2a7e: 9c 15 d0     	stz	$d015                   ; 0xd015 <__heap_start+0x6a8b>
    2a81: a2 08        	ldx	#$8
    2a83: 86 9c        	stx	$9c                     ; 0x209c <f256main+0x17bf>
    2a85: 8e 16 d0     	stx	$d016                   ; 0xd016 <__heap_start+0x6a8c>
    2a88: 9c 17 d0     	stz	$d017                   ; 0xd017 <__heap_start+0x6a8d>
    2a8b: a2 e2        	ldx	#$e2
    2a8d: 86 12        	stx	$12                     ; 0x2012 <f256main+0x1735>
    2a8f: a2 5d        	ldx	#$5d
    2a91: 86 13        	stx	$13                     ; 0x2013 <f256main+0x1736>
    2a93: 20 c3 2a     	jsr	$2ac3 <textPrint>
    2a96: a2 01        	ldx	#$1
    2a98: 86 9b        	stx	$9b                     ; 0x209b <f256main+0x17be>
    2a9a: 8e 14 d0     	stx	$d014                   ; 0xd014 <__heap_start+0x6a8a>
    2a9d: 9c 15 d0     	stz	$d015                   ; 0xd015 <__heap_start+0x6a8b>
    2aa0: a2 1c        	ldx	#$1c
    2aa2: 86 9c        	stx	$9c                     ; 0x209c <f256main+0x17bf>
    2aa4: 8e 16 d0     	stx	$d016                   ; 0xd016 <__heap_start+0x6a8c>
    2aa7: 9c 17 d0     	stz	$d017                   ; 0xd017 <__heap_start+0x6a8d>
    2aaa: a2 3a        	ldx	#$3a
    2aac: 86 12        	stx	$12                     ; 0x2012 <f256main+0x1735>
    2aae: a2 5e        	ldx	#$5e
    2ab0: 86 13        	stx	$13                     ; 0x2013 <f256main+0x1736>
    2ab2: 20 c3 2a     	jsr	$2ac3 <textPrint>
    2ab5: 18           	clc
    2ab6: a5 10        	lda	$10                     ; 0x2010 <f256main+0x1733>
    2ab8: 69 04        	adc	#$4
    2aba: 85 10        	sta	$10                     ; 0x2010 <f256main+0x1733>
    2abc: a5 11        	lda	$11                     ; 0x2011 <f256main+0x1734>
    2abe: 69 00        	adc	#$0
    2ac0: 85 11        	sta	$11                     ; 0x2011 <f256main+0x1734>
    2ac2: 60           	rts

00002ac3 <textPrint>:
    2ac3: a6 01        	ldx	$1                      ; 0x2001 <f256main+0x1724>
    2ac5: 86 ef        	stx	$ef                     ; 0x20ef <f256main+0x1812>
    2ac7: a6 9c        	ldx	$9c                     ; 0x209c <f256main+0x17bf>
    2ac9: a0 50        	ldy	#$50
    2acb: 8c 00 de     	sty	$de00                   ; 0xde00 <__heap_start+0x7876>
    2ace: 9c 01 de     	stz	$de01                   ; 0xde01 <__heap_start+0x7877>
    2ad1: 8e 02 de     	stx	$de02                   ; 0xde02 <__heap_start+0x7878>
    2ad4: 9c 03 de     	stz	$de03                   ; 0xde03 <__heap_start+0x7879>
    2ad7: ae 10 de     	ldx	$de10                   ; 0xde10 <__heap_start+0x7886>
    2ada: ac 11 de     	ldy	$de11                   ; 0xde11 <__heap_start+0x7887>
    2add: 84 15        	sty	$15                     ; 0x2015 <f256main+0x1738>
    2adf: ad 12 de     	lda	$de12                   ; 0xde12 <__heap_start+0x7888>
    2ae2: ac 13 de     	ldy	$de13                   ; 0xde13 <__heap_start+0x7889>
    2ae5: 84 1c        	sty	$1c                     ; 0x201c <f256main+0x173f>
    2ae7: 9c 08 de     	stz	$de08                   ; 0xde08 <__heap_start+0x787e>
    2aea: a0 c0        	ldy	#$c0
    2aec: 8c 09 de     	sty	$de09                   ; 0xde09 <__heap_start+0x787f>
    2aef: 9c 0a de     	stz	$de0a                   ; 0xde0a <__heap_start+0x7880>
    2af2: 9c 0b de     	stz	$de0b                   ; 0xde0b <__heap_start+0x7881>
    2af5: 8e 0c de     	stx	$de0c                   ; 0xde0c <__heap_start+0x7882>
    2af8: 64 14        	stz	$14                     ; 0x2014 <f256main+0x1737>
    2afa: a2 00        	ldx	#$0
    2afc: 86 16        	stx	$16                     ; 0x2016 <f256main+0x1739>
    2afe: a2 c0        	ldx	#$c0
    2b00: 86 17        	stx	$17                     ; 0x2017 <f256main+0x173a>
    2b02: a2 11        	ldx	#$11
    2b04: 86 18        	stx	$18                     ; 0x2018 <f256main+0x173b>
    2b06: a2 c9        	ldx	#$c9
    2b08: 86 19        	stx	$19                     ; 0x2019 <f256main+0x173c>
    2b0a: a2 10        	ldx	#$10
    2b0c: 86 1a        	stx	$1a                     ; 0x201a <f256main+0x173d>
    2b0e: a2 c9        	ldx	#$c9
    2b10: 86 1b        	stx	$1b                     ; 0x201b <f256main+0x173e>
    2b12: a6 15        	ldx	$15                     ; 0x2015 <f256main+0x1738>
    2b14: 8e 0d de     	stx	$de0d                   ; 0xde0d <__heap_start+0x7883>
    2b17: 8d 0e de     	sta	$de0e                   ; 0xde0e <__heap_start+0x7884>
    2b1a: a6 1c        	ldx	$1c                     ; 0x201c <f256main+0x173f>
    2b1c: 8e 0f de     	stx	$de0f                   ; 0xde0f <__heap_start+0x7885>
    2b1f: ac 18 de     	ldy	$de18                   ; 0xde18 <__heap_start+0x788e>
    2b22: ad 19 de     	lda	$de19                   ; 0xde19 <__heap_start+0x788f>
    2b25: ae 1a de     	ldx	$de1a                   ; 0xde1a <__heap_start+0x7890>
    2b28: ae 1b de     	ldx	$de1b                   ; 0xde1b <__heap_start+0x7891>
    2b2b: 84 1c        	sty	$1c                     ; 0x201c <f256main+0x173f>
    2b2d: 85 1d        	sta	$1d                     ; 0x201d <f256main+0x1740>
    2b2f: 64 15        	stz	$15                     ; 0x2015 <f256main+0x1738>
    2b31: 80 13        	bra	$2b46 <textPrint+0x83>
    2b33: a5 1c        	lda	$1c                     ; 0x201c <f256main+0x173f>
    2b35: 18           	clc
    2b36: 69 50        	adc	#$50
    2b38: 85 1c        	sta	$1c                     ; 0x201c <f256main+0x173f>
    2b3a: a5 1d        	lda	$1d                     ; 0x201d <f256main+0x1740>
    2b3c: 69 00        	adc	#$0
    2b3e: 85 1d        	sta	$1d                     ; 0x201d <f256main+0x1740>
    2b40: e6 14        	inc	$14                     ; 0x2014 <f256main+0x1737>
    2b42: d0 02        	bne	$2b46 <textPrint+0x83>
    2b44: e6 15        	inc	$15                     ; 0x2015 <f256main+0x1738>
    2b46: a5 12        	lda	$12                     ; 0x2012 <f256main+0x1735>
    2b48: 18           	clc
    2b49: 65 14        	adc	$14                     ; 0x2014 <f256main+0x1737>
    2b4b: 85 1e        	sta	$1e                     ; 0x201e <f256main+0x1741>
    2b4d: a5 13        	lda	$13                     ; 0x2013 <f256main+0x1736>
    2b4f: 65 15        	adc	$15                     ; 0x2015 <f256main+0x1738>
    2b51: 85 1f        	sta	$1f                     ; 0x201f <f256main+0x1742>
    2b53: b2 1e        	lda	($1e)                   ; 0x201e <f256main+0x1741>
    2b55: c9 0a        	cmp	#$a
    2b57: f0 26        	beq	$2b7f <textPrint+0xbc>
    2b59: c9 0d        	cmp	#$d
    2b5b: f0 22        	beq	$2b7f <textPrint+0xbc>
    2b5d: aa           	tax
    2b5e: d0 03        	bne	$2b63 <textPrint+0xa0>
    2b60: 4c 64 2c     	jmp	$2c64 <textPrint+0x1a1>
    2b63: a2 03        	ldx	#$3
    2b65: 86 01        	stx	$1                      ; 0x2001 <f256main+0x1724>
    2b67: a4 9b        	ldy	$9b                     ; 0x209b <f256main+0x17be>
    2b69: a9 f0        	lda	#$f0
    2b6b: 91 1c        	sta	($1c),y                 ; 0x201c <f256main+0x173f>
    2b6d: ca           	dex
    2b6e: 86 01        	stx	$1                      ; 0x2001 <f256main+0x1724>
    2b70: b2 1e        	lda	($1e)                   ; 0x201e <f256main+0x1741>
    2b72: a4 9b        	ldy	$9b                     ; 0x209b <f256main+0x17be>
    2b74: 91 1c        	sta	($1c),y                 ; 0x201c <f256main+0x173f>
    2b76: a6 9b        	ldx	$9b                     ; 0x209b <f256main+0x17be>
    2b78: e8           	inx
    2b79: e6 9b        	inc	$9b                     ; 0x209b <f256main+0x17be>
    2b7b: e0 50        	cpx	#$50
    2b7d: d0 c1        	bne	$2b40 <textPrint+0x7d>
    2b7f: 64 9b        	stz	$9b                     ; 0x209b <f256main+0x17be>
    2b81: a6 9c        	ldx	$9c                     ; 0x209c <f256main+0x17bf>
    2b83: e8           	inx
    2b84: e6 9c        	inc	$9c                     ; 0x209c <f256main+0x17bf>
    2b86: e0 1e        	cpx	#$1e
    2b88: f0 03        	beq	$2b8d <textPrint+0xca>
    2b8a: 4c 33 2b     	jmp	$2b33 <textPrint+0x70>
    2b8d: a2 03        	ldx	#$3
    2b8f: 86 01        	stx	$1                      ; 0x2001 <f256main+0x1724>
    2b91: a2 01        	ldx	#$1
    2b93: 86 1c        	stx	$1c                     ; 0x201c <f256main+0x173f>
    2b95: a2 09        	ldx	#$9
    2b97: a0 10        	ldy	#$10
    2b99: a9 00        	lda	#$0
    2b9b: 85 1e        	sta	$1e                     ; 0x201e <f256main+0x1741>
    2b9d: a9 c0        	lda	#$c0
    2b9f: 85 1f        	sta	$1f                     ; 0x201f <f256main+0x1742>
    2ba1: 84 1d        	sty	$1d                     ; 0x201d <f256main+0x1740>
    2ba3: a0 50        	ldy	#$50
    2ba5: b1 1e        	lda	($1e),y                 ; 0x201e <f256main+0x1741>
    2ba7: 92 1e        	sta	($1e)                   ; 0x201e <f256main+0x1741>
    2ba9: a9 ff        	lda	#$ff
    2bab: c6 1d        	dec	$1d                     ; 0x201d <f256main+0x1740>
    2bad: c5 1d        	cmp	$1d                     ; 0x201d <f256main+0x1740>
    2baf: d0 01        	bne	$2bb2 <textPrint+0xef>
    2bb1: ca           	dex
    2bb2: e6 1e        	inc	$1e                     ; 0x201e <f256main+0x1741>
    2bb4: d0 02        	bne	$2bb8 <textPrint+0xf5>
    2bb6: e6 1f        	inc	$1f                     ; 0x201f <f256main+0x1742>
    2bb8: 8a           	txa
    2bb9: d0 ea        	bne	$2ba5 <textPrint+0xe2>
    2bbb: a5 1d        	lda	$1d                     ; 0x201d <f256main+0x1740>
    2bbd: d0 e6        	bne	$2ba5 <textPrint+0xe2>
    2bbf: a2 02        	ldx	#$2
    2bc1: 86 01        	stx	$1                      ; 0x2001 <f256main+0x1724>
    2bc3: a2 00        	ldx	#$0
    2bc5: a5 1c        	lda	$1c                     ; 0x201c <f256main+0x173f>
    2bc7: d0 ca        	bne	$2b93 <textPrint+0xd0>
    2bc9: a2 03        	ldx	#$3
    2bcb: 86 01        	stx	$1                      ; 0x2001 <f256main+0x1724>
    2bcd: a2 50        	ldx	#$50
    2bcf: a0 11        	ldy	#$11
    2bd1: 84 1c        	sty	$1c                     ; 0x201c <f256main+0x173f>
    2bd3: a0 c9        	ldy	#$c9
    2bd5: 84 1d        	sty	$1d                     ; 0x201d <f256main+0x1740>
    2bd7: a0 10        	ldy	#$10
    2bd9: 84 1e        	sty	$1e                     ; 0x201e <f256main+0x1741>
    2bdb: a0 c9        	ldy	#$c9
    2bdd: 84 1f        	sty	$1f                     ; 0x201f <f256main+0x1742>
    2bdf: a9 f0        	lda	#$f0
    2be1: a4 1c        	ldy	$1c                     ; 0x201c <f256main+0x173f>
    2be3: 84 22        	sty	$22                     ; 0x2022 <f256main+0x1745>
    2be5: a4 1d        	ldy	$1d                     ; 0x201d <f256main+0x1740>
    2be7: 84 23        	sty	$23                     ; 0x2023 <f256main+0x1746>
    2be9: 92 1e        	sta	($1e)                   ; 0x201e <f256main+0x1741>
    2beb: e6 1c        	inc	$1c                     ; 0x201c <f256main+0x173f>
    2bed: d0 02        	bne	$2bf1 <textPrint+0x12e>
    2bef: e6 1d        	inc	$1d                     ; 0x201d <f256main+0x1740>
    2bf1: ca           	dex
    2bf2: a4 22        	ldy	$22                     ; 0x2022 <f256main+0x1745>
    2bf4: 84 1e        	sty	$1e                     ; 0x201e <f256main+0x1741>
    2bf6: a4 23        	ldy	$23                     ; 0x2023 <f256main+0x1746>
    2bf8: 84 1f        	sty	$1f                     ; 0x201f <f256main+0x1742>
    2bfa: e0 00        	cpx	#$0
    2bfc: d0 e3        	bne	$2be1 <textPrint+0x11e>
    2bfe: a2 02        	ldx	#$2
    2c00: 86 01        	stx	$1                      ; 0x2001 <f256main+0x1724>
    2c02: a2 50        	ldx	#$50
    2c04: a0 11        	ldy	#$11
    2c06: 84 1c        	sty	$1c                     ; 0x201c <f256main+0x173f>
    2c08: a0 c9        	ldy	#$c9
    2c0a: 84 1d        	sty	$1d                     ; 0x201d <f256main+0x1740>
    2c0c: a0 10        	ldy	#$10
    2c0e: 84 1e        	sty	$1e                     ; 0x201e <f256main+0x1741>
    2c10: a0 c9        	ldy	#$c9
    2c12: 84 1f        	sty	$1f                     ; 0x201f <f256main+0x1742>
    2c14: a9 20        	lda	#$20
    2c16: a4 1c        	ldy	$1c                     ; 0x201c <f256main+0x173f>
    2c18: 84 22        	sty	$22                     ; 0x2022 <f256main+0x1745>
    2c1a: a4 1d        	ldy	$1d                     ; 0x201d <f256main+0x1740>
    2c1c: 84 23        	sty	$23                     ; 0x2023 <f256main+0x1746>
    2c1e: 92 1e        	sta	($1e)                   ; 0x201e <f256main+0x1741>
    2c20: e6 1c        	inc	$1c                     ; 0x201c <f256main+0x173f>
    2c22: d0 02        	bne	$2c26 <textPrint+0x163>
    2c24: e6 1d        	inc	$1d                     ; 0x201d <f256main+0x1740>
    2c26: ca           	dex
    2c27: a4 22        	ldy	$22                     ; 0x2022 <f256main+0x1745>
    2c29: 84 1e        	sty	$1e                     ; 0x201e <f256main+0x1741>
    2c2b: a4 23        	ldy	$23                     ; 0x2023 <f256main+0x1746>
    2c2d: 84 1f        	sty	$1f                     ; 0x201f <f256main+0x1742>
    2c2f: e0 00        	cpx	#$0
    2c31: d0 e3        	bne	$2c16 <textPrint+0x153>
    2c33: c6 9c        	dec	$9c                     ; 0x209c <f256main+0x17bf>
    2c35: 9c 08 de     	stz	$de08                   ; 0xde08 <__heap_start+0x787e>
    2c38: a2 c0        	ldx	#$c0
    2c3a: 8e 09 de     	stx	$de09                   ; 0xde09 <__heap_start+0x787f>
    2c3d: 9c 0a de     	stz	$de0a                   ; 0xde0a <__heap_start+0x7880>
    2c40: 9c 0b de     	stz	$de0b                   ; 0xde0b <__heap_start+0x7881>
    2c43: a2 1d        	ldx	#$1d
    2c45: 8e 0c de     	stx	$de0c                   ; 0xde0c <__heap_start+0x7882>
    2c48: 9c 0d de     	stz	$de0d                   ; 0xde0d <__heap_start+0x7883>
    2c4b: 9c 0e de     	stz	$de0e                   ; 0xde0e <__heap_start+0x7884>
    2c4e: 9c 0f de     	stz	$de0f                   ; 0xde0f <__heap_start+0x7885>
    2c51: ae 18 de     	ldx	$de18                   ; 0xde18 <__heap_start+0x788e>
    2c54: ac 19 de     	ldy	$de19                   ; 0xde19 <__heap_start+0x788f>
    2c57: ad 1a de     	lda	$de1a                   ; 0xde1a <__heap_start+0x7890>
    2c5a: ad 1b de     	lda	$de1b                   ; 0xde1b <__heap_start+0x7891>
    2c5d: 86 1c        	stx	$1c                     ; 0x201c <f256main+0x173f>
    2c5f: 84 1d        	sty	$1d                     ; 0x201d <f256main+0x1740>
    2c61: 4c 40 2b     	jmp	$2b40 <textPrint+0x7d>
    2c64: a6 ef        	ldx	$ef                     ; 0x20ef <f256main+0x1812>
    2c66: 86 01        	stx	$1                      ; 0x2001 <f256main+0x1724>
    2c68: a6 9b        	ldx	$9b                     ; 0x209b <f256main+0x17be>
    2c6a: a4 9c        	ldy	$9c                     ; 0x209c <f256main+0x17bf>
    2c6c: 8e 14 d0     	stx	$d014                   ; 0xd014 <__heap_start+0x6a8a>
    2c6f: 9c 15 d0     	stz	$d015                   ; 0xd015 <__heap_start+0x6a8b>
    2c72: 84 9c        	sty	$9c                     ; 0x209c <f256main+0x17bf>
    2c74: 8c 16 d0     	sty	$d016                   ; 0xd016 <__heap_start+0x6a8c>
    2c77: 9c 17 d0     	stz	$d017                   ; 0xd017 <__heap_start+0x6a8d>
    2c7a: 60           	rts

00002c7b <loadGUISID>:
    2c7b: 18           	clc
    2c7c: a5 10        	lda	$10                     ; 0x2010 <f256main+0x1733>
    2c7e: 69 fe        	adc	#$fe
    2c80: 85 10        	sta	$10                     ; 0x2010 <f256main+0x1733>
    2c82: a5 11        	lda	$11                     ; 0x2011 <f256main+0x1734>
    2c84: 69 ff        	adc	#$ff
    2c86: 85 11        	sta	$11                     ; 0x2011 <f256main+0x1734>
    2c88: a6 24        	ldx	$24                     ; 0x2024 <f256main+0x1747>
    2c8a: da           	phx
    2c8b: a6 25        	ldx	$25                     ; 0x2025 <f256main+0x1748>
    2c8d: da           	phx
    2c8e: a6 26        	ldx	$26                     ; 0x2026 <f256main+0x1749>
    2c90: da           	phx
    2c91: a6 27        	ldx	$27                     ; 0x2027 <f256main+0x174a>
    2c93: da           	phx
    2c94: a5 29        	lda	$29                     ; 0x2029 <f256main+0x174c>
    2c96: a0 00        	ldy	#$0
    2c98: 91 10        	sta	($10),y                 ; 0x2010 <f256main+0x1733>
    2c9a: 20 ec 29     	jsr	$29ec <textLayerGen>
    2c9d: a2 0c        	ldx	#$c
    2c9f: 86 9b        	stx	$9b                     ; 0x209b <f256main+0x17be>
    2ca1: 8e 14 d0     	stx	$d014                   ; 0xd014 <__heap_start+0x6a8a>
    2ca4: 9c 15 d0     	stz	$d015                   ; 0xd015 <__heap_start+0x6a8b>
    2ca7: a2 02        	ldx	#$2
    2ca9: 86 9c        	stx	$9c                     ; 0x209c <f256main+0x17bf>
    2cab: 8e 16 d0     	stx	$d016                   ; 0xd016 <__heap_start+0x6a8c>
    2cae: 9c 17 d0     	stz	$d017                   ; 0xd017 <__heap_start+0x6a8d>
    2cb1: a2 16        	ldx	#$16
    2cb3: 86 12        	stx	$12                     ; 0x2012 <f256main+0x1735>
    2cb5: a2 5e        	ldx	#$5e
    2cb7: 86 13        	stx	$13                     ; 0x2013 <f256main+0x1736>
    2cb9: 20 c3 2a     	jsr	$2ac3 <textPrint>
    2cbc: a2 21        	ldx	#$21
    2cbe: 86 9b        	stx	$9b                     ; 0x209b <f256main+0x17be>
    2cc0: 8e 14 d0     	stx	$d014                   ; 0xd014 <__heap_start+0x6a8a>
    2cc3: 9c 15 d0     	stz	$d015                   ; 0xd015 <__heap_start+0x6a8b>
    2cc6: a2 02        	ldx	#$2
    2cc8: 86 9c        	stx	$9c                     ; 0x209c <f256main+0x17bf>
    2cca: 8e 16 d0     	stx	$d016                   ; 0xd016 <__heap_start+0x6a8c>
    2ccd: 9c 17 d0     	stz	$d017                   ; 0xd017 <__heap_start+0x6a8d>
    2cd0: a2 59        	ldx	#$59
    2cd2: 86 12        	stx	$12                     ; 0x2012 <f256main+0x1735>
    2cd4: a2 5d        	ldx	#$5d
    2cd6: 86 13        	stx	$13                     ; 0x2013 <f256main+0x1736>
    2cd8: 20 c3 2a     	jsr	$2ac3 <textPrint>
    2cdb: a2 21        	ldx	#$21
    2cdd: 86 9b        	stx	$9b                     ; 0x209b <f256main+0x17be>
    2cdf: 8e 14 d0     	stx	$d014                   ; 0xd014 <__heap_start+0x6a8a>
    2ce2: 9c 15 d0     	stz	$d015                   ; 0xd015 <__heap_start+0x6a8b>
    2ce5: a2 04        	ldx	#$4
    2ce7: 86 9c        	stx	$9c                     ; 0x209c <f256main+0x17bf>
    2ce9: 8e 16 d0     	stx	$d016                   ; 0xd016 <__heap_start+0x6a8c>
    2cec: 9c 17 d0     	stz	$d017                   ; 0xd017 <__heap_start+0x6a8d>
    2cef: a2 de        	ldx	#$de
    2cf1: 86 12        	stx	$12                     ; 0x2012 <f256main+0x1735>
    2cf3: a2 5d        	ldx	#$5d
    2cf5: 86 13        	stx	$13                     ; 0x2013 <f256main+0x1736>
    2cf7: 20 c3 2a     	jsr	$2ac3 <textPrint>
    2cfa: a2 21        	ldx	#$21
    2cfc: 86 9b        	stx	$9b                     ; 0x209b <f256main+0x17be>
    2cfe: 8e 14 d0     	stx	$d014                   ; 0xd014 <__heap_start+0x6a8a>
    2d01: 9c 15 d0     	stz	$d015                   ; 0xd015 <__heap_start+0x6a8b>
    2d04: a2 06        	ldx	#$6
    2d06: 86 9c        	stx	$9c                     ; 0x209c <f256main+0x17bf>
    2d08: 8e 16 d0     	stx	$d016                   ; 0xd016 <__heap_start+0x6a8c>
    2d0b: 9c 17 d0     	stz	$d017                   ; 0xd017 <__heap_start+0x6a8d>
    2d0e: a2 da        	ldx	#$da
    2d10: 86 12        	stx	$12                     ; 0x2012 <f256main+0x1735>
    2d12: a2 5d        	ldx	#$5d
    2d14: 86 13        	stx	$13                     ; 0x2013 <f256main+0x1736>
    2d16: 20 c3 2a     	jsr	$2ac3 <textPrint>
    2d19: a2 21        	ldx	#$21
    2d1b: 86 9b        	stx	$9b                     ; 0x209b <f256main+0x17be>
    2d1d: 8e 14 d0     	stx	$d014                   ; 0xd014 <__heap_start+0x6a8a>
    2d20: 9c 15 d0     	stz	$d015                   ; 0xd015 <__heap_start+0x6a8b>
    2d23: a2 08        	ldx	#$8
    2d25: 86 9c        	stx	$9c                     ; 0x209c <f256main+0x17bf>
    2d27: 8e 16 d0     	stx	$d016                   ; 0xd016 <__heap_start+0x6a8c>
    2d2a: 9c 17 d0     	stz	$d017                   ; 0xd017 <__heap_start+0x6a8d>
    2d2d: a2 36        	ldx	#$36
    2d2f: 86 12        	stx	$12                     ; 0x2012 <f256main+0x1735>
    2d31: a2 5e        	ldx	#$5e
    2d33: 86 13        	stx	$13                     ; 0x2013 <f256main+0x1736>
    2d35: 20 c3 2a     	jsr	$2ac3 <textPrint>
    2d38: a2 0c        	ldx	#$c
    2d3a: 86 9b        	stx	$9b                     ; 0x209b <f256main+0x17be>
    2d3c: 8e 14 d0     	stx	$d014                   ; 0xd014 <__heap_start+0x6a8a>
    2d3f: 9c 15 d0     	stz	$d015                   ; 0xd015 <__heap_start+0x6a8b>
    2d42: a2 04        	ldx	#$4
    2d44: 86 9c        	stx	$9c                     ; 0x209c <f256main+0x17bf>
    2d46: 8e 16 d0     	stx	$d016                   ; 0xd016 <__heap_start+0x6a8c>
    2d49: 9c 17 d0     	stz	$d017                   ; 0xd017 <__heap_start+0x6a8d>
    2d4c: a2 47        	ldx	#$47
    2d4e: 86 12        	stx	$12                     ; 0x2012 <f256main+0x1735>
    2d50: a2 5d        	ldx	#$5d
    2d52: 86 13        	stx	$13                     ; 0x2013 <f256main+0x1736>
    2d54: 20 c3 2a     	jsr	$2ac3 <textPrint>
    2d57: a2 0d        	ldx	#$d
    2d59: 86 9b        	stx	$9b                     ; 0x209b <f256main+0x17be>
    2d5b: 8e 14 d0     	stx	$d014                   ; 0xd014 <__heap_start+0x6a8a>
    2d5e: 9c 15 d0     	stz	$d015                   ; 0xd015 <__heap_start+0x6a8b>
    2d61: a2 08        	ldx	#$8
    2d63: 86 9c        	stx	$9c                     ; 0x209c <f256main+0x17bf>
    2d65: 8e 16 d0     	stx	$d016                   ; 0xd016 <__heap_start+0x6a8c>
    2d68: 9c 17 d0     	stz	$d017                   ; 0xd017 <__heap_start+0x6a8d>
    2d6b: a2 f6        	ldx	#$f6
    2d6d: 86 12        	stx	$12                     ; 0x2012 <f256main+0x1735>
    2d6f: a2 5d        	ldx	#$5d
    2d71: 86 13        	stx	$13                     ; 0x2013 <f256main+0x1736>
    2d73: 20 c3 2a     	jsr	$2ac3 <textPrint>
    2d76: a2 32        	ldx	#$32
    2d78: 86 9b        	stx	$9b                     ; 0x209b <f256main+0x17be>
    2d7a: 8e 14 d0     	stx	$d014                   ; 0xd014 <__heap_start+0x6a8a>
    2d7d: 9c 15 d0     	stz	$d015                   ; 0xd015 <__heap_start+0x6a8b>
    2d80: a2 0d        	ldx	#$d
    2d82: 86 9c        	stx	$9c                     ; 0x209c <f256main+0x17bf>
    2d84: 8e 16 d0     	stx	$d016                   ; 0xd016 <__heap_start+0x6a8c>
    2d87: 9c 17 d0     	stz	$d017                   ; 0xd017 <__heap_start+0x6a8d>
    2d8a: a2 ff        	ldx	#$ff
    2d8c: 86 12        	stx	$12                     ; 0x2012 <f256main+0x1735>
    2d8e: a2 5d        	ldx	#$5d
    2d90: 86 13        	stx	$13                     ; 0x2013 <f256main+0x1736>
    2d92: 20 c3 2a     	jsr	$2ac3 <textPrint>
    2d95: a2 32        	ldx	#$32
    2d97: 86 9b        	stx	$9b                     ; 0x209b <f256main+0x17be>
    2d99: 8e 14 d0     	stx	$d014                   ; 0xd014 <__heap_start+0x6a8a>
    2d9c: 9c 15 d0     	stz	$d015                   ; 0xd015 <__heap_start+0x6a8b>
    2d9f: a2 0f        	ldx	#$f
    2da1: 86 9c        	stx	$9c                     ; 0x209c <f256main+0x17bf>
    2da3: 8e 16 d0     	stx	$d016                   ; 0xd016 <__heap_start+0x6a8c>
    2da6: 9c 17 d0     	stz	$d017                   ; 0xd017 <__heap_start+0x6a8d>
    2da9: a2 1f        	ldx	#$1f
    2dab: 86 12        	stx	$12                     ; 0x2012 <f256main+0x1735>
    2dad: a2 5e        	ldx	#$5e
    2daf: 86 13        	stx	$13                     ; 0x2013 <f256main+0x1736>
    2db1: 20 c3 2a     	jsr	$2ac3 <textPrint>
    2db4: a2 32        	ldx	#$32
    2db6: 86 9b        	stx	$9b                     ; 0x209b <f256main+0x17be>
    2db8: 8e 14 d0     	stx	$d014                   ; 0xd014 <__heap_start+0x6a8a>
    2dbb: 9c 15 d0     	stz	$d015                   ; 0xd015 <__heap_start+0x6a8b>
    2dbe: a2 11        	ldx	#$11
    2dc0: 86 9c        	stx	$9c                     ; 0x209c <f256main+0x17bf>
    2dc2: 8e 16 d0     	stx	$d016                   ; 0xd016 <__heap_start+0x6a8c>
    2dc5: 9c 17 d0     	stz	$d017                   ; 0xd017 <__heap_start+0x6a8d>
    2dc8: a2 f1        	ldx	#$f1
    2dca: 86 12        	stx	$12                     ; 0x2012 <f256main+0x1735>
    2dcc: a2 5d        	ldx	#$5d
    2dce: 86 13        	stx	$13                     ; 0x2013 <f256main+0x1736>
    2dd0: 20 c3 2a     	jsr	$2ac3 <textPrint>
    2dd3: a2 32        	ldx	#$32
    2dd5: 86 9b        	stx	$9b                     ; 0x209b <f256main+0x17be>
    2dd7: 8e 14 d0     	stx	$d014                   ; 0xd014 <__heap_start+0x6a8a>
    2dda: 9c 15 d0     	stz	$d015                   ; 0xd015 <__heap_start+0x6a8b>
    2ddd: a2 13        	ldx	#$13
    2ddf: 86 9c        	stx	$9c                     ; 0x209c <f256main+0x17bf>
    2de1: 8e 16 d0     	stx	$d016                   ; 0xd016 <__heap_start+0x6a8c>
    2de4: 9c 17 d0     	stz	$d017                   ; 0xd017 <__heap_start+0x6a8d>
    2de7: a2 fa        	ldx	#$fa
    2de9: 86 12        	stx	$12                     ; 0x2012 <f256main+0x1735>
    2deb: a2 5d        	ldx	#$5d
    2ded: 86 13        	stx	$13                     ; 0x2013 <f256main+0x1736>
    2def: 20 c3 2a     	jsr	$2ac3 <textPrint>
    2df2: a2 32        	ldx	#$32
    2df4: 86 9b        	stx	$9b                     ; 0x209b <f256main+0x17be>
    2df6: 8e 14 d0     	stx	$d014                   ; 0xd014 <__heap_start+0x6a8a>
    2df9: 9c 15 d0     	stz	$d015                   ; 0xd015 <__heap_start+0x6a8b>
    2dfc: a2 15        	ldx	#$15
    2dfe: 86 9c        	stx	$9c                     ; 0x209c <f256main+0x17bf>
    2e00: 8e 16 d0     	stx	$d016                   ; 0xd016 <__heap_start+0x6a8c>
    2e03: 9c 17 d0     	stz	$d017                   ; 0xd017 <__heap_start+0x6a8d>
    2e06: a2 3d        	ldx	#$3d
    2e08: 86 12        	stx	$12                     ; 0x2012 <f256main+0x1735>
    2e0a: a2 5d        	ldx	#$5d
    2e0c: 86 13        	stx	$13                     ; 0x2013 <f256main+0x1736>
    2e0e: 20 c3 2a     	jsr	$2ac3 <textPrint>
    2e11: a2 46        	ldx	#$46
    2e13: 86 9b        	stx	$9b                     ; 0x209b <f256main+0x17be>
    2e15: 8e 14 d0     	stx	$d014                   ; 0xd014 <__heap_start+0x6a8a>
    2e18: 9c 15 d0     	stz	$d015                   ; 0xd015 <__heap_start+0x6a8b>
    2e1b: a2 0e        	ldx	#$e
    2e1d: 86 9c        	stx	$9c                     ; 0x209c <f256main+0x17bf>
    2e1f: 8e 16 d0     	stx	$d016                   ; 0xd016 <__heap_start+0x6a8c>
    2e22: 9c 17 d0     	stz	$d017                   ; 0xd017 <__heap_start+0x6a8d>
    2e25: a2 55        	ldx	#$55
    2e27: 86 12        	stx	$12                     ; 0x2012 <f256main+0x1735>
    2e29: a2 5d        	ldx	#$5d
    2e2b: 86 13        	stx	$13                     ; 0x2013 <f256main+0x1736>
    2e2d: 20 c3 2a     	jsr	$2ac3 <textPrint>
    2e30: a2 43        	ldx	#$43
    2e32: 86 9b        	stx	$9b                     ; 0x209b <f256main+0x17be>
    2e34: 8e 14 d0     	stx	$d014                   ; 0xd014 <__heap_start+0x6a8a>
    2e37: 9c 15 d0     	stz	$d015                   ; 0xd015 <__heap_start+0x6a8b>
    2e3a: a2 11        	ldx	#$11
    2e3c: 86 9c        	stx	$9c                     ; 0x209c <f256main+0x17bf>
    2e3e: 8e 16 d0     	stx	$d016                   ; 0xd016 <__heap_start+0x6a8c>
    2e41: 9c 17 d0     	stz	$d017                   ; 0xd017 <__heap_start+0x6a8d>
    2e44: a2 31        	ldx	#$31
    2e46: 86 12        	stx	$12                     ; 0x2012 <f256main+0x1735>
    2e48: a2 5e        	ldx	#$5e
    2e4a: 86 13        	stx	$13                     ; 0x2013 <f256main+0x1736>
    2e4c: 20 c3 2a     	jsr	$2ac3 <textPrint>
    2e4f: a2 28        	ldx	#$28
    2e51: 86 9b        	stx	$9b                     ; 0x209b <f256main+0x17be>
    2e53: 8e 14 d0     	stx	$d014                   ; 0xd014 <__heap_start+0x6a8a>
    2e56: 9c 15 d0     	stz	$d015                   ; 0xd015 <__heap_start+0x6a8b>
    2e59: a2 02        	ldx	#$2
    2e5b: 86 9c        	stx	$9c                     ; 0x209c <f256main+0x17bf>
    2e5d: 8e 16 d0     	stx	$d016                   ; 0xd016 <__heap_start+0x6a8c>
    2e60: 9c 17 d0     	stz	$d017                   ; 0xd017 <__heap_start+0x6a8d>
    2e63: a2 45        	ldx	#$45
    2e65: 86 12        	stx	$12                     ; 0x2012 <f256main+0x1735>
    2e67: a2 5e        	ldx	#$5e
    2e69: 86 13        	stx	$13                     ; 0x2013 <f256main+0x1736>
    2e6b: 20 c3 2a     	jsr	$2ac3 <textPrint>
    2e6e: a2 2e        	ldx	#$2e
    2e70: 86 9b        	stx	$9b                     ; 0x209b <f256main+0x17be>
    2e72: 8e 14 d0     	stx	$d014                   ; 0xd014 <__heap_start+0x6a8a>
    2e75: 9c 15 d0     	stz	$d015                   ; 0xd015 <__heap_start+0x6a8b>
    2e78: a2 04        	ldx	#$4
    2e7a: 86 9c        	stx	$9c                     ; 0x209c <f256main+0x17bf>
    2e7c: 8e 16 d0     	stx	$d016                   ; 0xd016 <__heap_start+0x6a8c>
    2e7f: 9c 17 d0     	stz	$d017                   ; 0xd017 <__heap_start+0x6a8d>
    2e82: a2 5d        	ldx	#$5d
    2e84: 86 12        	stx	$12                     ; 0x2012 <f256main+0x1735>
    2e86: a2 5d        	ldx	#$5d
    2e88: 86 13        	stx	$13                     ; 0x2013 <f256main+0x1736>
    2e8a: 20 c3 2a     	jsr	$2ac3 <textPrint>
    2e8d: a2 2c        	ldx	#$2c
    2e8f: a0 05        	ldy	#$5
    2e91: 98           	tya
    2e92: a0 01        	ldy	#$1
    2e94: 91 10        	sta	($10),y                 ; 0x2010 <f256main+0x1733>
    2e96: 64 12        	stz	$12                     ; 0x2012 <f256main+0x1735>
    2e98: a9 00        	lda	#$0
    2e9a: a4 12        	ldy	$12                     ; 0x2012 <f256main+0x1735>
    2e9c: 84 1c        	sty	$1c                     ; 0x201c <f256main+0x173f>
    2e9e: 18           	clc
    2e9f: a8           	tay
    2ea0: a9 d9        	lda	#$d9
    2ea2: 65 12        	adc	$12                     ; 0x2012 <f256main+0x1735>
    2ea4: 85 14        	sta	$14                     ; 0x2014 <f256main+0x1737>
    2ea6: 84 27        	sty	$27                     ; 0x2027 <f256main+0x174a>
    2ea8: 84 12        	sty	$12                     ; 0x2012 <f256main+0x1735>
    2eaa: a9 5f        	lda	#$5f
    2eac: 65 12        	adc	$12                     ; 0x2012 <f256main+0x1735>
    2eae: a8           	tay
    2eaf: 18           	clc
    2eb0: a5 14        	lda	$14                     ; 0x2014 <f256main+0x1737>
    2eb2: 69 54        	adc	#$54
    2eb4: 85 12        	sta	$12                     ; 0x2012 <f256main+0x1735>
    2eb6: 98           	tya
    2eb7: 69 00        	adc	#$0
    2eb9: 85 13        	sta	$13                     ; 0x2013 <f256main+0x1736>
    2ebb: 18           	clc
    2ebc: a5 14        	lda	$14                     ; 0x2014 <f256main+0x1737>
    2ebe: 69 55        	adc	#$55
    2ec0: 85 16        	sta	$16                     ; 0x2016 <f256main+0x1739>
    2ec2: 86 1d        	stx	$1d                     ; 0x201d <f256main+0x1740>
    2ec4: 98           	tya
    2ec5: 69 00        	adc	#$0
    2ec7: 85 17        	sta	$17                     ; 0x2017 <f256main+0x173a>
    2ec9: 18           	clc
    2eca: a5 14        	lda	$14                     ; 0x2014 <f256main+0x1737>
    2ecc: 69 57        	adc	#$57
    2ece: 85 18        	sta	$18                     ; 0x2018 <f256main+0x173b>
    2ed0: 98           	tya
    2ed1: 69 00        	adc	#$0
    2ed3: 85 19        	sta	$19                     ; 0x2019 <f256main+0x173c>
    2ed5: a5 14        	lda	$14                     ; 0x2014 <f256main+0x1737>
    2ed7: 84 15        	sty	$15                     ; 0x2015 <f256main+0x1738>
    2ed9: 18           	clc
    2eda: 69 5c        	adc	#$5c
    2edc: 85 1a        	sta	$1a                     ; 0x201a <f256main+0x173d>
    2ede: 98           	tya
    2edf: 69 00        	adc	#$0
    2ee1: 85 1b        	sta	$1b                     ; 0x201b <f256main+0x173e>
    2ee3: a0 01        	ldy	#$1
    2ee5: b1 10        	lda	($10),y                 ; 0x2010 <f256main+0x1733>
    2ee7: 85 22        	sta	$22                     ; 0x2022 <f256main+0x1745>
    2ee9: 3a           	dec
    2eea: a0 60        	ldy	#$60
    2eec: 91 14        	sta	($14),y                 ; 0x2014 <f256main+0x1737>
    2eee: a6 22        	ldx	$22                     ; 0x2022 <f256main+0x1745>
    2ef0: bd f9 5c     	lda	$5cf9,x                 ; 0x5cf9 <sidSpriteAction>
    2ef3: a0 66        	ldy	#$66
    2ef5: 91 14        	sta	($14),y                 ; 0x2014 <f256main+0x1737>
    2ef7: a0 01        	ldy	#$1
    2ef9: a9 00        	lda	#$0
    2efb: 91 16        	sta	($16),y                 ; 0x2016 <f256main+0x1739>
    2efd: 91 18        	sta	($18),y                 ; 0x2018 <f256main+0x173b>
    2eff: a9 38        	lda	#$38
    2f01: 91 1a        	sta	($1a),y                 ; 0x201a <f256main+0x173d>
    2f03: c8           	iny
    2f04: a9 01        	lda	#$1
    2f06: 91 1a        	sta	($1a),y                 ; 0x201a <f256main+0x173d>
    2f08: c8           	iny
    2f09: 3a           	dec
    2f0a: 91 1a        	sta	($1a),y                 ; 0x201a <f256main+0x173d>
    2f0c: a5 22        	lda	$22                     ; 0x2022 <f256main+0x1745>
    2f0e: 85 25        	sta	$25                     ; 0x2025 <f256main+0x1748>
    2f10: a0 54        	ldy	#$54
    2f12: 91 14        	sta	($14),y                 ; 0x2014 <f256main+0x1737>
    2f14: c8           	iny
    2f15: a9 95        	lda	#$95
    2f17: 91 14        	sta	($14),y                 ; 0x2014 <f256main+0x1737>
    2f19: a5 1d        	lda	$1d                     ; 0x201d <f256main+0x1740>
    2f1b: 85 24        	sta	$24                     ; 0x2024 <f256main+0x1747>
    2f1d: a0 57        	ldy	#$57
    2f1f: 91 14        	sta	($14),y                 ; 0x2014 <f256main+0x1737>
    2f21: a0 59        	ldy	#$59
    2f23: a9 00        	lda	#$0
    2f25: 91 14        	sta	($14),y                 ; 0x2014 <f256main+0x1737>
    2f27: c8           	iny
    2f28: 91 14        	sta	($14),y                 ; 0x2014 <f256main+0x1737>
    2f2a: c8           	iny
    2f2b: 91 14        	sta	($14),y                 ; 0x2014 <f256main+0x1737>
    2f2d: c8           	iny
    2f2e: 91 14        	sta	($14),y                 ; 0x2014 <f256main+0x1737>
    2f30: a9 10        	lda	#$10
    2f32: a0 61        	ldy	#$61
    2f34: 91 14        	sta	($14),y                 ; 0x2014 <f256main+0x1737>
    2f36: c8           	iny
    2f37: a9 00        	lda	#$0
    2f39: 91 14        	sta	($14),y                 ; 0x2014 <f256main+0x1737>
    2f3b: a9 0d        	lda	#$d
    2f3d: c8           	iny
    2f3e: 91 14        	sta	($14),y                 ; 0x2014 <f256main+0x1737>
    2f40: a9 04        	lda	#$4
    2f42: c8           	iny
    2f43: 91 14        	sta	($14),y                 ; 0x2014 <f256main+0x1737>
    2f45: a9 0b        	lda	#$b
    2f47: c8           	iny
    2f48: 91 14        	sta	($14),y                 ; 0x2014 <f256main+0x1737>
    2f4a: a0 01        	ldy	#$1
    2f4c: a6 1c        	ldx	$1c                     ; 0x201c <f256main+0x173f>
    2f4e: 86 26        	stx	$26                     ; 0x2026 <f256main+0x1749>
    2f50: e0 15        	cpx	#$15
    2f52: f0 02        	beq	$2f56 <loadGUISID+0x2db>
    2f54: a0 00        	ldy	#$0
    2f56: 84 14        	sty	$14                     ; 0x2014 <f256main+0x1737>
    2f58: a2 01        	ldx	#$1
    2f5a: a9 00        	lda	#$0
    2f5c: 20 43 3e     	jsr	$3e43 <setRadioB>
    2f5f: e6 25        	inc	$25                     ; 0x2025 <f256main+0x1748>
    2f61: a5 25        	lda	$25                     ; 0x2025 <f256main+0x1748>
    2f63: a0 01        	ldy	#$1
    2f65: 91 10        	sta	($10),y                 ; 0x2010 <f256main+0x1733>
    2f67: 18           	clc
    2f68: a5 24        	lda	$24                     ; 0x2024 <f256main+0x1747>
    2f6a: 69 10        	adc	#$10
    2f6c: aa           	tax
    2f6d: 18           	clc
    2f6e: a5 26        	lda	$26                     ; 0x2026 <f256main+0x1749>
    2f70: 69 15        	adc	#$15
    2f72: a8           	tay
    2f73: a5 27        	lda	$27                     ; 0x2027 <f256main+0x174a>
    2f75: 69 00        	adc	#$0
    2f77: 84 12        	sty	$12                     ; 0x2012 <f256main+0x1735>
    2f79: c0 54        	cpy	#$54
    2f7b: f0 03        	beq	$2f80 <loadGUISID+0x305>
    2f7d: 4c 9a 2e     	jmp	$2e9a <loadGUISID+0x21f>
    2f80: a0 51        	ldy	#$51
    2f82: a2 09        	ldx	#$9
    2f84: 8a           	txa
    2f85: 5a           	phy
    2f86: a0 01        	ldy	#$1
    2f88: 91 10        	sta	($10),y                 ; 0x2010 <f256main+0x1733>
    2f8a: 7a           	ply
    2f8b: a2 14        	ldx	#$14
    2f8d: 86 12        	stx	$12                     ; 0x2012 <f256main+0x1735>
    2f8f: a2 61        	ldx	#$61
    2f91: 86 13        	stx	$13                     ; 0x2013 <f256main+0x1736>
    2f93: a2 03        	ldx	#$3
    2f95: 8a           	txa
    2f96: 18           	clc
    2f97: 69 fd        	adc	#$fd
    2f99: 85 1e        	sta	$1e                     ; 0x201e <f256main+0x1741>
    2f9b: a5 12        	lda	$12                     ; 0x2012 <f256main+0x1735>
    2f9d: 85 27        	sta	$27                     ; 0x2027 <f256main+0x174a>
    2f9f: 18           	clc
    2fa0: 69 03        	adc	#$3
    2fa2: 85 14        	sta	$14                     ; 0x2014 <f256main+0x1737>
    2fa4: 84 24        	sty	$24                     ; 0x2024 <f256main+0x1747>
    2fa6: 86 26        	stx	$26                     ; 0x2026 <f256main+0x1749>
    2fa8: a5 13        	lda	$13                     ; 0x2013 <f256main+0x1736>
    2faa: 69 00        	adc	#$0
    2fac: 85 15        	sta	$15                     ; 0x2015 <f256main+0x1738>
    2fae: a5 27        	lda	$27                     ; 0x2027 <f256main+0x174a>
    2fb0: 18           	clc
    2fb1: 69 08        	adc	#$8
    2fb3: a8           	tay
    2fb4: a5 13        	lda	$13                     ; 0x2013 <f256main+0x1736>
    2fb6: 69 00        	adc	#$0
    2fb8: 48           	pha
    2fb9: 5a           	phy
    2fba: a0 01        	ldy	#$1
    2fbc: b1 10        	lda	($10),y                 ; 0x2010 <f256main+0x1733>
    2fbe: 7a           	ply
    2fbf: 85 25        	sta	$25                     ; 0x2025 <f256main+0x1748>
    2fc1: 68           	pla
    2fc2: a6 25        	ldx	$25                     ; 0x2025 <f256main+0x1748>
    2fc4: 48           	pha
    2fc5: bd f9 5c     	lda	$5cf9,x                 ; 0x5cf9 <sidSpriteAction>
    2fc8: aa           	tax
    2fc9: 68           	pla
    2fca: 84 16        	sty	$16                     ; 0x2016 <f256main+0x1739>
    2fcc: 85 17        	sta	$17                     ; 0x2017 <f256main+0x173a>
    2fce: a0 0c        	ldy	#$c
    2fd0: a5 1e        	lda	$1e                     ; 0x201e <f256main+0x1741>
    2fd2: 91 12        	sta	($12),y                 ; 0x2012 <f256main+0x1735>
    2fd4: a0 12        	ldy	#$12
    2fd6: 8a           	txa
    2fd7: 91 12        	sta	($12),y                 ; 0x2012 <f256main+0x1735>
    2fd9: a5 27        	lda	$27                     ; 0x2027 <f256main+0x174a>
    2fdb: 18           	clc
    2fdc: 69 14        	adc	#$14
    2fde: 85 18        	sta	$18                     ; 0x2018 <f256main+0x173b>
    2fe0: a5 13        	lda	$13                     ; 0x2013 <f256main+0x1736>
    2fe2: 69 00        	adc	#$0
    2fe4: 85 19        	sta	$19                     ; 0x2019 <f256main+0x173c>
    2fe6: a5 27        	lda	$27                     ; 0x2027 <f256main+0x174a>
    2fe8: 18           	clc
    2fe9: 69 16        	adc	#$16
    2feb: 85 1a        	sta	$1a                     ; 0x201a <f256main+0x173d>
    2fed: a5 13        	lda	$13                     ; 0x2013 <f256main+0x1736>
    2fef: 69 00        	adc	#$0
    2ff1: 85 1b        	sta	$1b                     ; 0x201b <f256main+0x173e>
    2ff3: a5 27        	lda	$27                     ; 0x2027 <f256main+0x174a>
    2ff5: 18           	clc
    2ff6: 69 1b        	adc	#$1b
    2ff8: 85 1c        	sta	$1c                     ; 0x201c <f256main+0x173f>
    2ffa: a5 13        	lda	$13                     ; 0x2013 <f256main+0x1736>
    2ffc: 69 00        	adc	#$0
    2ffe: 85 1d        	sta	$1d                     ; 0x201d <f256main+0x1740>
    3000: a0 1f        	ldy	#$1f
    3002: a5 1e        	lda	$1e                     ; 0x201e <f256main+0x1741>
    3004: 91 12        	sta	($12),y                 ; 0x2012 <f256main+0x1735>
    3006: a5 27        	lda	$27                     ; 0x2027 <f256main+0x174a>
    3008: 18           	clc
    3009: 69 21        	adc	#$21
    300b: 85 1e        	sta	$1e                     ; 0x201e <f256main+0x1741>
    300d: a5 13        	lda	$13                     ; 0x2013 <f256main+0x1736>
    300f: 69 00        	adc	#$0
    3011: 85 1f        	sta	$1f                     ; 0x201f <f256main+0x1742>
    3013: a5 25        	lda	$25                     ; 0x2025 <f256main+0x1748>
    3015: 92 12        	sta	($12)                   ; 0x2012 <f256main+0x1735>
    3017: a6 12        	ldx	$12                     ; 0x2012 <f256main+0x1735>
    3019: 86 22        	stx	$22                     ; 0x2022 <f256main+0x1745>
    301b: a6 13        	ldx	$13                     ; 0x2013 <f256main+0x1736>
    301d: 86 23        	stx	$23                     ; 0x2023 <f256main+0x1746>
    301f: a6 24        	ldx	$24                     ; 0x2024 <f256main+0x1747>
    3021: 86 29        	stx	$29                     ; 0x2029 <f256main+0x174c>
    3023: 18           	clc
    3024: 69 02        	adc	#$2
    3026: a0 01        	ldy	#$1
    3028: 91 10        	sta	($10),y                 ; 0x2010 <f256main+0x1733>
    302a: 18           	clc
    302b: a5 27        	lda	$27                     ; 0x2027 <f256main+0x174a>
    302d: 69 30        	adc	#$30
    302f: 85 24        	sta	$24                     ; 0x2024 <f256main+0x1747>
    3031: a5 13        	lda	$13                     ; 0x2013 <f256main+0x1736>
    3033: 69 00        	adc	#$0
    3035: 85 25        	sta	$25                     ; 0x2025 <f256main+0x1748>
    3037: e6 22        	inc	$22                     ; 0x2022 <f256main+0x1745>
    3039: d0 02        	bne	$303d <loadGUISID+0x3c2>
    303b: e6 23        	inc	$23                     ; 0x2023 <f256main+0x1746>
    303d: a9 00        	lda	#$0
    303f: 91 22        	sta	($22),y                 ; 0x2022 <f256main+0x1745>
    3041: 91 14        	sta	($14),y                 ; 0x2014 <f256main+0x1737>
    3043: a9 28        	lda	#$28
    3045: 91 16        	sta	($16),y                 ; 0x2016 <f256main+0x1739>
    3047: a9 01        	lda	#$1
    3049: a0 02        	ldy	#$2
    304b: 91 16        	sta	($16),y                 ; 0x2016 <f256main+0x1739>
    304d: c8           	iny
    304e: 3a           	dec
    304f: 91 16        	sta	($16),y                 ; 0x2016 <f256main+0x1739>
    3051: a0 01        	ldy	#$1
    3053: 91 18        	sta	($18),y                 ; 0x2018 <f256main+0x173b>
    3055: 91 1a        	sta	($1a),y                 ; 0x201a <f256main+0x173d>
    3057: a9 54        	lda	#$54
    3059: 91 1c        	sta	($1c),y                 ; 0x201c <f256main+0x173f>
    305b: c8           	iny
    305c: a9 01        	lda	#$1
    305e: 91 1c        	sta	($1c),y                 ; 0x201c <f256main+0x173f>
    3060: 3a           	dec
    3061: c8           	iny
    3062: 91 1c        	sta	($1c),y                 ; 0x201c <f256main+0x173f>
    3064: a0 01        	ldy	#$1
    3066: 91 1e        	sta	($1e),y                 ; 0x201e <f256main+0x1741>
    3068: c8           	iny
    3069: 91 1e        	sta	($1e),y                 ; 0x201e <f256main+0x1741>
    306b: c8           	iny
    306c: 91 1e        	sta	($1e),y                 ; 0x201e <f256main+0x1741>
    306e: a5 29        	lda	$29                     ; 0x2029 <f256main+0x174c>
    3070: a0 01        	ldy	#$1
    3072: 91 12        	sta	($12),y                 ; 0x2012 <f256main+0x1735>
    3074: a9 31        	lda	#$31
    3076: a0 03        	ldy	#$3
    3078: 91 12        	sta	($12),y                 ; 0x2012 <f256main+0x1735>
    307a: a0 05        	ldy	#$5
    307c: a9 00        	lda	#$0
    307e: 91 12        	sta	($12),y                 ; 0x2012 <f256main+0x1735>
    3080: c8           	iny
    3081: 91 12        	sta	($12),y                 ; 0x2012 <f256main+0x1735>
    3083: c8           	iny
    3084: 91 12        	sta	($12),y                 ; 0x2012 <f256main+0x1735>
    3086: c8           	iny
    3087: 91 12        	sta	($12),y                 ; 0x2012 <f256main+0x1735>
    3089: a9 10        	lda	#$10
    308b: a0 0d        	ldy	#$d
    308d: 91 12        	sta	($12),y                 ; 0x2012 <f256main+0x1735>
    308f: a9 03        	lda	#$3
    3091: c8           	iny
    3092: 91 12        	sta	($12),y                 ; 0x2012 <f256main+0x1735>
    3094: a9 0a        	lda	#$a
    3096: c8           	iny
    3097: 91 12        	sta	($12),y                 ; 0x2012 <f256main+0x1735>
    3099: a9 06        	lda	#$6
    309b: c8           	iny
    309c: 91 12        	sta	($12),y                 ; 0x2012 <f256main+0x1735>
    309e: a9 19        	lda	#$19
    30a0: c8           	iny
    30a1: 91 12        	sta	($12),y                 ; 0x2012 <f256main+0x1735>
    30a3: a9 ff        	lda	#$ff
    30a5: a0 13        	ldy	#$13
    30a7: 91 12        	sta	($12),y                 ; 0x2012 <f256main+0x1735>
    30a9: a5 26        	lda	$26                     ; 0x2026 <f256main+0x1749>
    30ab: c8           	iny
    30ac: 91 12        	sta	($12),y                 ; 0x2012 <f256main+0x1735>
    30ae: a0 16        	ldy	#$16
    30b0: a9 03        	lda	#$3
    30b2: 91 12        	sta	($12),y                 ; 0x2012 <f256main+0x1735>
    30b4: a0 18        	ldy	#$18
    30b6: a9 00        	lda	#$0
    30b8: 91 12        	sta	($12),y                 ; 0x2012 <f256main+0x1735>
    30ba: c8           	iny
    30bb: 91 12        	sta	($12),y                 ; 0x2012 <f256main+0x1735>
    30bd: c8           	iny
    30be: 91 12        	sta	($12),y                 ; 0x2012 <f256main+0x1735>
    30c0: c8           	iny
    30c1: 91 12        	sta	($12),y                 ; 0x2012 <f256main+0x1735>
    30c3: a0 20        	ldy	#$20
    30c5: a9 10        	lda	#$10
    30c7: 91 12        	sta	($12),y                 ; 0x2012 <f256main+0x1735>
    30c9: c8           	iny
    30ca: a9 00        	lda	#$0
    30cc: 91 12        	sta	($12),y                 ; 0x2012 <f256main+0x1735>
    30ce: a0 25        	ldy	#$25
    30d0: 3a           	dec
    30d1: 91 12        	sta	($12),y                 ; 0x2012 <f256main+0x1735>
    30d3: a6 26        	ldx	$26                     ; 0x2026 <f256main+0x1749>
    30d5: a4 24        	ldy	$24                     ; 0x2024 <f256main+0x1747>
    30d7: 84 12        	sty	$12                     ; 0x2012 <f256main+0x1735>
    30d9: a4 25        	ldy	$25                     ; 0x2025 <f256main+0x1748>
    30db: 84 13        	sty	$13                     ; 0x2013 <f256main+0x1736>
    30dd: 18           	clc
    30de: a5 29        	lda	$29                     ; 0x2029 <f256main+0x174c>
    30e0: 69 10        	adc	#$10
    30e2: a8           	tay
    30e3: e8           	inx
    30e4: e0 07        	cpx	#$7
    30e6: f0 03        	beq	$30eb <loadGUISID+0x470>
    30e8: 4c 95 2f     	jmp	$2f95 <loadGUISID+0x31a>
    30eb: a5 ca        	lda	$ca                     ; 0x20ca <f256main+0x17ed>
    30ed: a6 cb        	ldx	$cb                     ; 0x20cb <f256main+0x17ee>
    30ef: 85 12        	sta	$12                     ; 0x2012 <f256main+0x1735>
    30f1: 86 13        	stx	$13                     ; 0x2013 <f256main+0x1736>
    30f3: a0 04        	ldy	#$4
    30f5: 18           	clc
    30f6: 69 04        	adc	#$4
    30f8: 85 14        	sta	$14                     ; 0x2014 <f256main+0x1737>
    30fa: 8a           	txa
    30fb: 69 00        	adc	#$0
    30fd: 85 15        	sta	$15                     ; 0x2015 <f256main+0x1738>
    30ff: b1 12        	lda	($12),y                 ; 0x2012 <f256main+0x1735>
    3101: 85 12        	sta	$12                     ; 0x2012 <f256main+0x1735>
    3103: a0 01        	ldy	#$1
    3105: b1 14        	lda	($14),y                 ; 0x2014 <f256main+0x1737>
    3107: 85 13        	sta	$13                     ; 0x2013 <f256main+0x1736>
    3109: a0 03        	ldy	#$3
    310b: b1 12        	lda	($12),y                 ; 0x2012 <f256main+0x1735>
    310d: 4a           	lsr
    310e: 4a           	lsr
    310f: 4a           	lsr
    3110: 4a           	lsr
    3111: 8d 3b 61     	sta	$613b                   ; 0x613b <sliders+0x27>
    3114: 9c 3c 61     	stz	$613c                   ; 0x613c <sliders+0x28>
    3117: a2 0f        	ldx	#$f
    3119: 8e 3d 61     	stx	$613d                   ; 0x613d <sliders+0x29>
    311c: 9c 3e 61     	stz	$613e                   ; 0x613e <sliders+0x2a>
    311f: 9c 3f 61     	stz	$613f                   ; 0x613f <sliders+0x2b>
    3122: 9c 40 61     	stz	$6140                   ; 0x6140 <sliders+0x2c>
    3125: 9c 41 61     	stz	$6141                   ; 0x6141 <sliders+0x2d>
    3128: 9c 42 61     	stz	$6142                   ; 0x6142 <sliders+0x2e>
    312b: 9c 43 61     	stz	$6143                   ; 0x6143 <sliders+0x2f>
    312e: a2 14        	ldx	#$14
    3130: 86 12        	stx	$12                     ; 0x2012 <f256main+0x1735>
    3132: a2 61        	ldx	#$61
    3134: 86 13        	stx	$13                     ; 0x2013 <f256main+0x1736>
    3136: 20 95 42     	jsr	$4295 <updateSlider>
    3139: a5 ca        	lda	$ca                     ; 0x20ca <f256main+0x17ed>
    313b: a6 cb        	ldx	$cb                     ; 0x20cb <f256main+0x17ee>
    313d: 85 12        	sta	$12                     ; 0x2012 <f256main+0x1735>
    313f: 86 13        	stx	$13                     ; 0x2013 <f256main+0x1736>
    3141: 18           	clc
    3142: 69 04        	adc	#$4
    3144: 85 14        	sta	$14                     ; 0x2014 <f256main+0x1737>
    3146: 8a           	txa
    3147: 69 00        	adc	#$0
    3149: 85 15        	sta	$15                     ; 0x2015 <f256main+0x1738>
    314b: a0 04        	ldy	#$4
    314d: b1 12        	lda	($12),y                 ; 0x2012 <f256main+0x1735>
    314f: 85 12        	sta	$12                     ; 0x2012 <f256main+0x1735>
    3151: a0 01        	ldy	#$1
    3153: b1 14        	lda	($14),y                 ; 0x2014 <f256main+0x1737>
    3155: 85 13        	sta	$13                     ; 0x2013 <f256main+0x1736>
    3157: a9 0f        	lda	#$f
    3159: a0 03        	ldy	#$3
    315b: 31 12        	and	($12),y                 ; 0x2012 <f256main+0x1735>
    315d: 8d 6b 61     	sta	$616b                   ; 0x616b <sliders+0x57>
    3160: 9c 6c 61     	stz	$616c                   ; 0x616c <sliders+0x58>
    3163: a2 0f        	ldx	#$f
    3165: 8e 6d 61     	stx	$616d                   ; 0x616d <sliders+0x59>
    3168: 9c 6e 61     	stz	$616e                   ; 0x616e <sliders+0x5a>
    316b: 9c 6f 61     	stz	$616f                   ; 0x616f <sliders+0x5b>
    316e: 9c 70 61     	stz	$6170                   ; 0x6170 <sliders+0x5c>
    3171: 9c 71 61     	stz	$6171                   ; 0x6171 <sliders+0x5d>
    3174: 9c 72 61     	stz	$6172                   ; 0x6172 <sliders+0x5e>
    3177: 9c 73 61     	stz	$6173                   ; 0x6173 <sliders+0x5f>
    317a: a2 44        	ldx	#$44
    317c: 86 12        	stx	$12                     ; 0x2012 <f256main+0x1735>
    317e: a2 61        	ldx	#$61
    3180: 86 13        	stx	$13                     ; 0x2013 <f256main+0x1736>
    3182: 20 95 42     	jsr	$4295 <updateSlider>
    3185: a5 ca        	lda	$ca                     ; 0x20ca <f256main+0x17ed>
    3187: a6 cb        	ldx	$cb                     ; 0x20cb <f256main+0x17ee>
    3189: 85 12        	sta	$12                     ; 0x2012 <f256main+0x1735>
    318b: 86 13        	stx	$13                     ; 0x2013 <f256main+0x1736>
    318d: 18           	clc
    318e: 69 04        	adc	#$4
    3190: 85 14        	sta	$14                     ; 0x2014 <f256main+0x1737>
    3192: 8a           	txa
    3193: 69 00        	adc	#$0
    3195: 85 15        	sta	$15                     ; 0x2015 <f256main+0x1738>
    3197: a0 04        	ldy	#$4
    3199: b1 12        	lda	($12),y                 ; 0x2012 <f256main+0x1735>
    319b: 85 12        	sta	$12                     ; 0x2012 <f256main+0x1735>
    319d: a0 01        	ldy	#$1
    319f: b1 14        	lda	($14),y                 ; 0x2014 <f256main+0x1737>
    31a1: 85 13        	sta	$13                     ; 0x2013 <f256main+0x1736>
    31a3: a0 04        	ldy	#$4
    31a5: b1 12        	lda	($12),y                 ; 0x2012 <f256main+0x1735>
    31a7: 4a           	lsr
    31a8: 4a           	lsr
    31a9: 4a           	lsr
    31aa: 4a           	lsr
    31ab: 8d 9b 61     	sta	$619b                   ; 0x619b <sliders+0x87>
    31ae: 9c 9c 61     	stz	$619c                   ; 0x619c <sliders+0x88>
    31b1: a2 0f        	ldx	#$f
    31b3: 8e 9d 61     	stx	$619d                   ; 0x619d <sliders+0x89>
    31b6: 9c 9e 61     	stz	$619e                   ; 0x619e <sliders+0x8a>
    31b9: 9c 9f 61     	stz	$619f                   ; 0x619f <sliders+0x8b>
    31bc: 9c a0 61     	stz	$61a0                   ; 0x61a0 <sliders+0x8c>
    31bf: 9c a1 61     	stz	$61a1                   ; 0x61a1 <sliders+0x8d>
    31c2: 9c a2 61     	stz	$61a2                   ; 0x61a2 <sliders+0x8e>
    31c5: 9c a3 61     	stz	$61a3                   ; 0x61a3 <sliders+0x8f>
    31c8: a2 74        	ldx	#$74
    31ca: 86 12        	stx	$12                     ; 0x2012 <f256main+0x1735>
    31cc: a2 61        	ldx	#$61
    31ce: 86 13        	stx	$13                     ; 0x2013 <f256main+0x1736>
    31d0: 20 95 42     	jsr	$4295 <updateSlider>
    31d3: a5 ca        	lda	$ca                     ; 0x20ca <f256main+0x17ed>
    31d5: a6 cb        	ldx	$cb                     ; 0x20cb <f256main+0x17ee>
    31d7: 85 12        	sta	$12                     ; 0x2012 <f256main+0x1735>
    31d9: 86 13        	stx	$13                     ; 0x2013 <f256main+0x1736>
    31db: 18           	clc
    31dc: 69 04        	adc	#$4
    31de: 85 14        	sta	$14                     ; 0x2014 <f256main+0x1737>
    31e0: 8a           	txa
    31e1: 69 00        	adc	#$0
    31e3: 85 15        	sta	$15                     ; 0x2015 <f256main+0x1738>
    31e5: a0 04        	ldy	#$4
    31e7: b1 12        	lda	($12),y                 ; 0x2012 <f256main+0x1735>
    31e9: 85 12        	sta	$12                     ; 0x2012 <f256main+0x1735>
    31eb: a0 01        	ldy	#$1
    31ed: b1 14        	lda	($14),y                 ; 0x2014 <f256main+0x1737>
    31ef: 85 13        	sta	$13                     ; 0x2013 <f256main+0x1736>
    31f1: a9 0f        	lda	#$f
    31f3: a0 04        	ldy	#$4
    31f5: 31 12        	and	($12),y                 ; 0x2012 <f256main+0x1735>
    31f7: 8d cb 61     	sta	$61cb                   ; 0x61cb <sliders+0xb7>
    31fa: 9c cc 61     	stz	$61cc                   ; 0x61cc <sliders+0xb8>
    31fd: a2 0f        	ldx	#$f
    31ff: 8e cd 61     	stx	$61cd                   ; 0x61cd <sliders+0xb9>
    3202: 9c ce 61     	stz	$61ce                   ; 0x61ce <sliders+0xba>
    3205: 9c cf 61     	stz	$61cf                   ; 0x61cf <sliders+0xbb>
    3208: 9c d0 61     	stz	$61d0                   ; 0x61d0 <sliders+0xbc>
    320b: 9c d1 61     	stz	$61d1                   ; 0x61d1 <sliders+0xbd>
    320e: 9c d2 61     	stz	$61d2                   ; 0x61d2 <sliders+0xbe>
    3211: 9c d3 61     	stz	$61d3                   ; 0x61d3 <sliders+0xbf>
    3214: a2 a4        	ldx	#$a4
    3216: 86 12        	stx	$12                     ; 0x2012 <f256main+0x1735>
    3218: a2 61        	ldx	#$61
    321a: 86 13        	stx	$13                     ; 0x2013 <f256main+0x1736>
    321c: 20 95 42     	jsr	$4295 <updateSlider>
    321f: a2 11        	ldx	#$11
    3221: 8e 04 62     	stx	$6204                   ; 0x6204 <dials>
    3224: a2 6a        	ldx	#$6a
    3226: 8e 05 62     	stx	$6205                   ; 0x6205 <dials+0x1>
    3229: 9c 06 62     	stz	$6206                   ; 0x6206 <dials+0x2>
    322c: a2 5d        	ldx	#$5d
    322e: 8e 07 62     	stx	$6207                   ; 0x6207 <dials+0x3>
    3231: 9c 08 62     	stz	$6208                   ; 0x6208 <dials+0x4>
    3234: 9c 09 62     	stz	$6209                   ; 0x6209 <dials+0x5>
    3237: 9c 0a 62     	stz	$620a                   ; 0x620a <dials+0x6>
    323a: 9c 0b 62     	stz	$620b                   ; 0x620b <dials+0x7>
    323d: 9c 0c 62     	stz	$620c                   ; 0x620c <dials+0x8>
    3240: a2 20        	ldx	#$20
    3242: 8e 0d 62     	stx	$620d                   ; 0x620d <dials+0x9>
    3245: a2 01        	ldx	#$1
    3247: 8e 0e 62     	stx	$620e                   ; 0x620e <dials+0xa>
    324a: 9c 0f 62     	stz	$620f                   ; 0x620f <dials+0xb>
    324d: 9c 10 62     	stz	$6210                   ; 0x6210 <dials+0xc>
    3250: a2 24        	ldx	#$24
    3252: 8e 16 62     	stx	$6216                   ; 0x6216 <dials+0x12>
    3255: a5 ca        	lda	$ca                     ; 0x20ca <f256main+0x17ed>
    3257: a6 cb        	ldx	$cb                     ; 0x20cb <f256main+0x17ee>
    3259: 85 12        	sta	$12                     ; 0x2012 <f256main+0x1735>
    325b: 86 13        	stx	$13                     ; 0x2013 <f256main+0x1736>
    325d: 18           	clc
    325e: 69 04        	adc	#$4
    3260: 85 14        	sta	$14                     ; 0x2014 <f256main+0x1737>
    3262: 8a           	txa
    3263: 69 00        	adc	#$0
    3265: a2 10        	ldx	#$10
    3267: 8e 11 62     	stx	$6211                   ; 0x6211 <dials+0xd>
    326a: 9c 12 62     	stz	$6212                   ; 0x6212 <dials+0xe>
    326d: a2 0d        	ldx	#$d
    326f: 8e 13 62     	stx	$6213                   ; 0x6213 <dials+0xf>
    3272: 9c 14 62     	stz	$6214                   ; 0x6214 <dials+0x10>
    3275: 8e 15 62     	stx	$6215                   ; 0x6215 <dials+0x11>
    3278: 9c 25 62     	stz	$6225                   ; 0x6225 <dials+0x21>
    327b: 9c 26 62     	stz	$6226                   ; 0x6226 <dials+0x22>
    327e: 9c 27 62     	stz	$6227                   ; 0x6227 <dials+0x23>
    3281: 9c 28 62     	stz	$6228                   ; 0x6228 <dials+0x24>
    3284: 9c 39 62     	stz	$6239                   ; 0x6239 <dials+0x35>
    3287: 9c 3a 62     	stz	$623a                   ; 0x623a <dials+0x36>
    328a: 9c 3b 62     	stz	$623b                   ; 0x623b <dials+0x37>
    328d: 9c 3c 62     	stz	$623c                   ; 0x623c <dials+0x38>
    3290: 85 15        	sta	$15                     ; 0x2015 <f256main+0x1738>
    3292: a0 04        	ldy	#$4
    3294: b1 12        	lda	($12),y                 ; 0x2012 <f256main+0x1735>
    3296: 85 12        	sta	$12                     ; 0x2012 <f256main+0x1735>
    3298: a0 01        	ldy	#$1
    329a: b1 14        	lda	($14),y                 ; 0x2014 <f256main+0x1737>
    329c: 85 13        	sta	$13                     ; 0x2013 <f256main+0x1736>
    329e: a2 ff        	ldx	#$ff
    32a0: 8e 17 62     	stx	$6217                   ; 0x6217 <dials+0x13>
    32a3: a2 04        	ldx	#$4
    32a5: 8e 18 62     	stx	$6218                   ; 0x6218 <dials+0x14>
    32a8: 9c 19 62     	stz	$6219                   ; 0x6219 <dials+0x15>
    32ab: c8           	iny
    32ac: b1 12        	lda	($12),y                 ; 0x2012 <f256main+0x1735>
    32ae: 0a           	asl
    32af: 0a           	asl
    32b0: 0a           	asl
    32b1: 0a           	asl
    32b2: 85 14        	sta	$14                     ; 0x2014 <f256main+0x1737>
    32b4: 88           	dey
    32b5: b1 12        	lda	($12),y                 ; 0x2012 <f256main+0x1735>
    32b7: 4a           	lsr
    32b8: 4a           	lsr
    32b9: 4a           	lsr
    32ba: 4a           	lsr
    32bb: 05 14        	ora	$14                     ; 0x2014 <f256main+0x1737>
    32bd: 8d 43 62     	sta	$6243                   ; 0x6243 <dials+0x3f>
    32c0: a2 f0        	ldx	#$f0
    32c2: 8e 3f 62     	stx	$623f                   ; 0x623f <dials+0x3b>
    32c5: a2 05        	ldx	#$5
    32c7: 8e 1a 62     	stx	$621a                   ; 0x621a <dials+0x16>
    32ca: 9c 1b 62     	stz	$621b                   ; 0x621b <dials+0x17>
    32cd: 9c 1c 62     	stz	$621c                   ; 0x621c <dials+0x18>
    32d0: 9c 1d 62     	stz	$621d                   ; 0x621d <dials+0x19>
    32d3: 9c 1e 62     	stz	$621e                   ; 0x621e <dials+0x1a>
    32d6: 9c 1f 62     	stz	$621f                   ; 0x621f <dials+0x1b>
    32d9: a2 54        	ldx	#$54
    32db: 8e 20 62     	stx	$6220                   ; 0x6220 <dials+0x1c>
    32de: 8c 21 62     	sty	$6221                   ; 0x6221 <dials+0x1d>
    32e1: 9c 22 62     	stz	$6222                   ; 0x6222 <dials+0x1e>
    32e4: 9c 23 62     	stz	$6223                   ; 0x6223 <dials+0x1f>
    32e7: a0 10        	ldy	#$10
    32e9: 8c 24 62     	sty	$6224                   ; 0x6224 <dials+0x20>
    32ec: a9 ff        	lda	#$ff
    32ee: 8d 29 62     	sta	$6229                   ; 0x6229 <dials+0x25>
    32f1: 8d 2b 62     	sta	$622b                   ; 0x622b <dials+0x27>
    32f4: a2 05        	ldx	#$5
    32f6: 8e 2c 62     	stx	$622c                   ; 0x622c <dials+0x28>
    32f9: 9c 2d 62     	stz	$622d                   ; 0x622d <dials+0x29>
    32fc: 8e 2e 62     	stx	$622e                   ; 0x622e <dials+0x2a>
    32ff: 9c 2f 62     	stz	$622f                   ; 0x622f <dials+0x2b>
    3302: 9c 30 62     	stz	$6230                   ; 0x6230 <dials+0x2c>
    3305: 9c 31 62     	stz	$6231                   ; 0x6231 <dials+0x2d>
    3308: 9c 32 62     	stz	$6232                   ; 0x6232 <dials+0x2e>
    330b: 9c 33 62     	stz	$6233                   ; 0x6233 <dials+0x2f>
    330e: a2 54        	ldx	#$54
    3310: 8e 34 62     	stx	$6234                   ; 0x6234 <dials+0x30>
    3313: a2 01        	ldx	#$1
    3315: 8e 35 62     	stx	$6235                   ; 0x6235 <dials+0x31>
    3318: 9c 36 62     	stz	$6236                   ; 0x6236 <dials+0x32>
    331b: 9c 37 62     	stz	$6237                   ; 0x6237 <dials+0x33>
    331e: 8c 38 62     	sty	$6238                   ; 0x6238 <dials+0x34>
    3321: 8d 3d 62     	sta	$623d                   ; 0x623d <dials+0x39>
    3324: 9c 44 62     	stz	$6244                   ; 0x6244 <dials+0x40>
    3327: 8d 45 62     	sta	$6245                   ; 0x6245 <dials+0x41>
    332a: 9c 46 62     	stz	$6246                   ; 0x6246 <dials+0x42>
    332d: 9c 47 62     	stz	$6247                   ; 0x6247 <dials+0x43>
    3330: 9c 48 62     	stz	$6248                   ; 0x6248 <dials+0x44>
    3333: 9c 49 62     	stz	$6249                   ; 0x6249 <dials+0x45>
    3336: 9c 4a 62     	stz	$624a                   ; 0x624a <dials+0x46>
    3339: 9c 4b 62     	stz	$624b                   ; 0x624b <dials+0x47>
    333c: a2 04        	ldx	#$4
    333e: 8e 41 62     	stx	$6241                   ; 0x6241 <dials+0x3d>
    3341: a2 0f        	ldx	#$f
    3343: 8e 40 62     	stx	$6240                   ; 0x6240 <dials+0x3c>
    3346: 9c 42 62     	stz	$6242                   ; 0x6242 <dials+0x3e>
    3349: a2 04        	ldx	#$4
    334b: 86 12        	stx	$12                     ; 0x2012 <f256main+0x1735>
    334d: a2 62        	ldx	#$62
    334f: 86 13        	stx	$13                     ; 0x2013 <f256main+0x1736>
    3351: 20 3d 3f     	jsr	$3f3d <updateDial>
    3354: a2 5d        	ldx	#$5d
    3356: 8e 4f 62     	stx	$624f                   ; 0x624f <dials+0x4b>
    3359: a2 20        	ldx	#$20
    335b: 8e 55 62     	stx	$6255                   ; 0x6255 <dials+0x51>
    335e: a2 12        	ldx	#$12
    3360: 8e 4c 62     	stx	$624c                   ; 0x624c <dials+0x48>
    3363: a2 81        	ldx	#$81
    3365: 8e 4d 62     	stx	$624d                   ; 0x624d <dials+0x49>
    3368: 9c 4e 62     	stz	$624e                   ; 0x624e <dials+0x4a>
    336b: 9c 50 62     	stz	$6250                   ; 0x6250 <dials+0x4c>
    336e: 9c 51 62     	stz	$6251                   ; 0x6251 <dials+0x4d>
    3371: 9c 52 62     	stz	$6252                   ; 0x6252 <dials+0x4e>
    3374: 9c 53 62     	stz	$6253                   ; 0x6253 <dials+0x4f>
    3377: 9c 54 62     	stz	$6254                   ; 0x6254 <dials+0x50>
    337a: a2 01        	ldx	#$1
    337c: 8e 56 62     	stx	$6256                   ; 0x6256 <dials+0x52>
    337f: 9c 57 62     	stz	$6257                   ; 0x6257 <dials+0x53>
    3382: 8e 58 62     	stx	$6258                   ; 0x6258 <dials+0x54>
    3385: a9 10        	lda	#$10
    3387: 8d 59 62     	sta	$6259                   ; 0x6259 <dials+0x55>
    338a: 9c 5a 62     	stz	$625a                   ; 0x625a <dials+0x56>
    338d: a2 0d        	ldx	#$d
    338f: 8e 5b 62     	stx	$625b                   ; 0x625b <dials+0x57>
    3392: 9c 5c 62     	stz	$625c                   ; 0x625c <dials+0x58>
    3395: 8e 5d 62     	stx	$625d                   ; 0x625d <dials+0x59>
    3398: a2 25        	ldx	#$25
    339a: 8e 5e 62     	stx	$625e                   ; 0x625e <dials+0x5a>
    339d: a0 ff        	ldy	#$ff
    339f: 8c 5f 62     	sty	$625f                   ; 0x625f <dials+0x5b>
    33a2: a2 06        	ldx	#$6
    33a4: 8e 60 62     	stx	$6260                   ; 0x6260 <dials+0x5c>
    33a7: 9c 61 62     	stz	$6261                   ; 0x6261 <dials+0x5d>
    33aa: ca           	dex
    33ab: 8e 62 62     	stx	$6262                   ; 0x6262 <dials+0x5e>
    33ae: 9c 63 62     	stz	$6263                   ; 0x6263 <dials+0x5f>
    33b1: 9c 64 62     	stz	$6264                   ; 0x6264 <dials+0x60>
    33b4: 9c 65 62     	stz	$6265                   ; 0x6265 <dials+0x61>
    33b7: 9c 66 62     	stz	$6266                   ; 0x6266 <dials+0x62>
    33ba: 9c 67 62     	stz	$6267                   ; 0x6267 <dials+0x63>
    33bd: a2 54        	ldx	#$54
    33bf: 8e 68 62     	stx	$6268                   ; 0x6268 <dials+0x64>
    33c2: a2 01        	ldx	#$1
    33c4: 8e 69 62     	stx	$6269                   ; 0x6269 <dials+0x65>
    33c7: 9c 6a 62     	stz	$626a                   ; 0x626a <dials+0x66>
    33ca: 9c 6b 62     	stz	$626b                   ; 0x626b <dials+0x67>
    33cd: 8d 6c 62     	sta	$626c                   ; 0x626c <dials+0x68>
    33d0: 9c 6d 62     	stz	$626d                   ; 0x626d <dials+0x69>
    33d3: 9c 6e 62     	stz	$626e                   ; 0x626e <dials+0x6a>
    33d6: 9c 6f 62     	stz	$626f                   ; 0x626f <dials+0x6b>
    33d9: 9c 70 62     	stz	$6270                   ; 0x6270 <dials+0x6c>
    33dc: 8c 71 62     	sty	$6271                   ; 0x6271 <dials+0x6d>
    33df: a5 ca        	lda	$ca                     ; 0x20ca <f256main+0x17ed>
    33e1: a6 cb        	ldx	$cb                     ; 0x20cb <f256main+0x17ee>
    33e3: 85 12        	sta	$12                     ; 0x2012 <f256main+0x1735>
    33e5: 86 13        	stx	$13                     ; 0x2013 <f256main+0x1736>
    33e7: 18           	clc
    33e8: 69 04        	adc	#$4
    33ea: 85 14        	sta	$14                     ; 0x2014 <f256main+0x1737>
    33ec: 8a           	txa
    33ed: 69 00        	adc	#$0
    33ef: 85 15        	sta	$15                     ; 0x2015 <f256main+0x1738>
    33f1: a0 04        	ldy	#$4
    33f3: b1 12        	lda	($12),y                 ; 0x2012 <f256main+0x1735>
    33f5: 85 12        	sta	$12                     ; 0x2012 <f256main+0x1735>
    33f7: a0 01        	ldy	#$1
    33f9: b1 14        	lda	($14),y                 ; 0x2014 <f256main+0x1737>
    33fb: 85 13        	sta	$13                     ; 0x2013 <f256main+0x1736>
    33fd: a9 0f        	lda	#$f
    33ff: 31 12        	and	($12),y                 ; 0x2012 <f256main+0x1735>
    3401: 8d 8b 62     	sta	$628b                   ; 0x628b <dials+0x87>
    3404: 9c 8c 62     	stz	$628c                   ; 0x628c <dials+0x88>
    3407: a2 0f        	ldx	#$f
    3409: 8e 8d 62     	stx	$628d                   ; 0x628d <dials+0x89>
    340c: 9c 8e 62     	stz	$628e                   ; 0x628e <dials+0x8a>
    340f: 9c 8f 62     	stz	$628f                   ; 0x628f <dials+0x8b>
    3412: 9c 90 62     	stz	$6290                   ; 0x6290 <dials+0x8c>
    3415: 9c 91 62     	stz	$6291                   ; 0x6291 <dials+0x8d>
    3418: 9c 92 62     	stz	$6292                   ; 0x6292 <dials+0x8e>
    341b: 9c 93 62     	stz	$6293                   ; 0x6293 <dials+0x8f>
    341e: 8e 87 62     	stx	$6287                   ; 0x6287 <dials+0x83>
    3421: 9c 89 62     	stz	$6289                   ; 0x6289 <dials+0x85>
    3424: 9c 88 62     	stz	$6288                   ; 0x6288 <dials+0x84>
    3427: 9c 8a 62     	stz	$628a                   ; 0x628a <dials+0x86>
    342a: a2 4c        	ldx	#$4c
    342c: 86 12        	stx	$12                     ; 0x2012 <f256main+0x1735>
    342e: a2 62        	ldx	#$62
    3430: 86 13        	stx	$13                     ; 0x2013 <f256main+0x1736>
    3432: 20 3d 3f     	jsr	$3f3d <updateDial>
    3435: a9 e2        	lda	#$e2
    3437: a2 36        	ldx	#$36
    3439: 48           	pha
    343a: 8a           	txa
    343b: a0 01        	ldy	#$1
    343d: 91 10        	sta	($10),y                 ; 0x2010 <f256main+0x1733>
    343f: 68           	pla
    3440: a2 03        	ldx	#$3
    3442: 64 15        	stz	$15                     ; 0x2015 <f256main+0x1738>
    3444: 48           	pha
    3445: a0 01        	ldy	#$1
    3447: b1 10        	lda	($10),y                 ; 0x2010 <f256main+0x1733>
    3449: 85 16        	sta	$16                     ; 0x2016 <f256main+0x1739>
    344b: 68           	pla
    344c: a4 16        	ldy	$16                     ; 0x2016 <f256main+0x1739>
    344e: 84 12        	sty	$12                     ; 0x2012 <f256main+0x1735>
    3450: 85 14        	sta	$14                     ; 0x2014 <f256main+0x1737>
    3452: 85 13        	sta	$13                     ; 0x2013 <f256main+0x1736>
    3454: 8a           	txa
    3455: 86 17        	stx	$17                     ; 0x2017 <f256main+0x173a>
    3457: 18           	clc
    3458: 69 fd        	adc	#$fd
    345a: 85 18        	sta	$18                     ; 0x2018 <f256main+0x173b>
    345c: a6 15        	ldx	$15                     ; 0x2015 <f256main+0x1738>
    345e: 9e b6 63     	stz	$63b6,x                 ; 0x63b6 <lights+0x2>
    3461: 9e b8 63     	stz	$63b8,x                 ; 0x63b8 <lights+0x4>
    3464: 9e b9 63     	stz	$63b9,x                 ; 0x63b9 <lights+0x5>
    3467: 9e ba 63     	stz	$63ba,x                 ; 0x63ba <lights+0x6>
    346a: 9e bb 63     	stz	$63bb,x                 ; 0x63bb <lights+0x7>
    346d: 9e bd 63     	stz	$63bd,x                 ; 0x63bd <lights+0x9>
    3470: 9e bf 63     	stz	$63bf,x                 ; 0x63bf <lights+0xb>
    3473: a4 15        	ldy	$15                     ; 0x2015 <f256main+0x1738>
    3475: a9 ff        	lda	#$ff
    3477: 99 b4 63     	sta	$63b4,y                 ; 0x63b4 <lights>
    347a: a5 17        	lda	$17                     ; 0x2017 <f256main+0x173a>
    347c: 99 b5 63     	sta	$63b5,y                 ; 0x63b5 <lights+0x1>
    347f: a9 0e        	lda	#$e
    3481: 99 b7 63     	sta	$63b7,y                 ; 0x63b7 <lights+0x3>
    3484: a9 3a        	lda	#$3a
    3486: 99 bc 63     	sta	$63bc,y                 ; 0x63bc <lights+0x8>
    3489: a9 01        	lda	#$1
    348b: 99 be 63     	sta	$63be,y                 ; 0x63be <lights+0xa>
    348e: a5 18        	lda	$18                     ; 0x2018 <f256main+0x173b>
    3490: 99 c0 63     	sta	$63c0,y                 ; 0x63c0 <lights+0xc>
    3493: a9 10        	lda	#$10
    3495: 99 c1 63     	sta	$63c1,y                 ; 0x63c1 <lights+0xd>
    3498: 9e c2 63     	stz	$63c2,x                 ; 0x63c2 <lights+0xe>
    349b: 9e c3 63     	stz	$63c3,x                 ; 0x63c3 <lights+0xf>
    349e: 9e c4 63     	stz	$63c4,x                 ; 0x63c4 <lights+0x10>
    34a1: 9e c5 63     	stz	$63c5,x                 ; 0x63c5 <lights+0x11>
    34a4: a9 ff        	lda	#$ff
    34a6: 99 c6 63     	sta	$63c6,y                 ; 0x63c6 <lights+0x12>
    34a9: 9e c7 63     	stz	$63c7,x                 ; 0x63c7 <lights+0x13>
    34ac: a6 0f        	ldx	$f                      ; 0x200f <f256main+0x1732>
    34ae: 78           	sei
    34af: a0 08        	ldy	#$8
    34b1: 84 0f        	sty	$f                      ; 0x200f <f256main+0x1732>
    34b3: 1a           	inc
    34b4: 92 12        	sta	($12)                   ; 0x2012 <f256main+0x1735>
    34b6: a0 01        	ldy	#$1
    34b8: 91 12        	sta	($12),y                 ; 0x2012 <f256main+0x1735>
    34ba: 86 0f        	stx	$f                      ; 0x200f <f256main+0x1732>
    34bc: 58           	cli
    34bd: 18           	clc
    34be: a5 15        	lda	$15                     ; 0x2015 <f256main+0x1738>
    34c0: 69 14        	adc	#$14
    34c2: 85 15        	sta	$15                     ; 0x2015 <f256main+0x1738>
    34c4: a4 17        	ldy	$17                     ; 0x2017 <f256main+0x173a>
    34c6: c8           	iny
    34c7: 18           	clc
    34c8: a5 16        	lda	$16                     ; 0x2016 <f256main+0x1739>
    34ca: 69 02        	adc	#$2
    34cc: 5a           	phy
    34cd: a0 01        	ldy	#$1
    34cf: 91 10        	sta	($10),y                 ; 0x2010 <f256main+0x1733>
    34d1: 7a           	ply
    34d2: a5 14        	lda	$14                     ; 0x2014 <f256main+0x1737>
    34d4: 69 00        	adc	#$0
    34d6: 5a           	phy
    34d7: fa           	plx
    34d8: c0 09        	cpy	#$9
    34da: f0 03        	beq	$34df <loadGUISID+0x864>
    34dc: 4c 44 34     	jmp	$3444 <loadGUISID+0x7c9>
    34df: a2 13        	ldx	#$13
    34e1: 8e 81 60     	stx	$6081                   ; 0x6081 <radios+0xa8>
    34e4: a2 d5        	ldx	#$d5
    34e6: 8e 82 60     	stx	$6082                   ; 0x6082 <radios+0xa9>
    34e9: 9c 83 60     	stz	$6083                   ; 0x6083 <radios+0xaa>
    34ec: a2 83        	ldx	#$83
    34ee: 8e 84 60     	stx	$6084                   ; 0x6084 <radios+0xab>
    34f1: 9c 85 60     	stz	$6085                   ; 0x6085 <radios+0xac>
    34f4: 9c 86 60     	stz	$6086                   ; 0x6086 <radios+0xad>
    34f7: 9c 87 60     	stz	$6087                   ; 0x6087 <radios+0xae>
    34fa: 9c 88 60     	stz	$6088                   ; 0x6088 <radios+0xaf>
    34fd: 9c 89 60     	stz	$6089                   ; 0x6089 <radios+0xb0>
    3500: a2 38        	ldx	#$38
    3502: 8e 8a 60     	stx	$608a                   ; 0x608a <radios+0xb1>
    3505: a2 01        	ldx	#$1
    3507: 8e 8b 60     	stx	$608b                   ; 0x608b <radios+0xb2>
    350a: 9c 8c 60     	stz	$608c                   ; 0x608c <radios+0xb3>
    350d: a2 08        	ldx	#$8
    350f: 8e 8d 60     	stx	$608d                   ; 0x608d <radios+0xb4>
    3512: a2 10        	ldx	#$10
    3514: 8e 8e 60     	stx	$608e                   ; 0x608e <radios+0xb5>
    3517: 9c 8f 60     	stz	$608f                   ; 0x608f <radios+0xb6>
    351a: a2 0d        	ldx	#$d
    351c: 8e 90 60     	stx	$6090                   ; 0x6090 <radios+0xb7>
    351f: a2 29        	ldx	#$29
    3521: 8e 93 60     	stx	$6093                   ; 0x6093 <radios+0xba>
    3524: a2 04        	ldx	#$4
    3526: 8e 91 60     	stx	$6091                   ; 0x6091 <radios+0xb8>
    3529: a2 0b        	ldx	#$b
    352b: 8e 92 60     	stx	$6092                   ; 0x6092 <radios+0xb9>
    352e: a2 81        	ldx	#$81
    3530: 86 12        	stx	$12                     ; 0x2012 <f256main+0x1735>
    3532: a2 60        	ldx	#$60
    3534: 86 13        	stx	$13                     ; 0x2013 <f256main+0x1736>
    3536: a2 ff        	ldx	#$ff
    3538: 64 14        	stz	$14                     ; 0x2014 <f256main+0x1737>
    353a: a9 00        	lda	#$0
    353c: 20 43 3e     	jsr	$3e43 <setRadioB>
    353f: a2 14        	ldx	#$14
    3541: 8e 94 62     	stx	$6294                   ; 0x6294 <dials+0x90>
    3544: a2 05        	ldx	#$5
    3546: 8e 95 62     	stx	$6295                   ; 0x6295 <dials+0x91>
    3549: a2 01        	ldx	#$1
    354b: 8e 96 62     	stx	$6296                   ; 0x6296 <dials+0x92>
    354e: a0 a7        	ldy	#$a7
    3550: 8c 97 62     	sty	$6297                   ; 0x6297 <dials+0x93>
    3553: 9c 98 62     	stz	$6298                   ; 0x6298 <dials+0x94>
    3556: 9c 99 62     	stz	$6299                   ; 0x6299 <dials+0x95>
    3559: 9c 9a 62     	stz	$629a                   ; 0x629a <dials+0x96>
    355c: 9c 9b 62     	stz	$629b                   ; 0x629b <dials+0x97>
    355f: 9c 9c 62     	stz	$629c                   ; 0x629c <dials+0x98>
    3562: a0 20        	ldy	#$20
    3564: 8c 9d 62     	sty	$629d                   ; 0x629d <dials+0x99>
    3567: 8e 9e 62     	stx	$629e                   ; 0x629e <dials+0x9a>
    356a: 9c 9f 62     	stz	$629f                   ; 0x629f <dials+0x9b>
    356d: e8           	inx
    356e: 8e a0 62     	stx	$62a0                   ; 0x62a0 <dials+0x9c>
    3571: a2 10        	ldx	#$10
    3573: 8e a1 62     	stx	$62a1                   ; 0x62a1 <dials+0x9d>
    3576: 9c a2 62     	stz	$62a2                   ; 0x62a2 <dials+0x9e>
    3579: a2 0d        	ldx	#$d
    357b: 8e a3 62     	stx	$62a3                   ; 0x62a3 <dials+0x9f>
    357e: 9c a4 62     	stz	$62a4                   ; 0x62a4 <dials+0xa0>
    3581: 8e a5 62     	stx	$62a5                   ; 0x62a5 <dials+0xa1>
    3584: a2 2a        	ldx	#$2a
    3586: 8e a6 62     	stx	$62a6                   ; 0x62a6 <dials+0xa2>
    3589: a2 ff        	ldx	#$ff
    358b: 8e a7 62     	stx	$62a7                   ; 0x62a7 <dials+0xa3>
    358e: a2 0e        	ldx	#$e
    3590: 8e a8 62     	stx	$62a8                   ; 0x62a8 <dials+0xa4>
    3593: 9c a9 62     	stz	$62a9                   ; 0x62a9 <dials+0xa5>
    3596: a6 ca        	ldx	$ca                     ; 0x20ca <f256main+0x17ed>
    3598: a4 cb        	ldy	$cb                     ; 0x20cb <f256main+0x17ee>
    359a: 86 12        	stx	$12                     ; 0x2012 <f256main+0x1735>
    359c: 84 13        	sty	$13                     ; 0x2013 <f256main+0x1736>
    359e: 18           	clc
    359f: 8a           	txa
    35a0: 69 04        	adc	#$4
    35a2: 85 14        	sta	$14                     ; 0x2014 <f256main+0x1737>
    35a4: 98           	tya
    35a5: 69 00        	adc	#$0
    35a7: 85 15        	sta	$15                     ; 0x2015 <f256main+0x1738>
    35a9: a0 04        	ldy	#$4
    35ab: 9c b5 62     	stz	$62b5                   ; 0x62b5 <dials+0xb1>
    35ae: 9c b6 62     	stz	$62b6                   ; 0x62b6 <dials+0xb2>
    35b1: 9c b7 62     	stz	$62b7                   ; 0x62b7 <dials+0xb3>
    35b4: 9c b8 62     	stz	$62b8                   ; 0x62b8 <dials+0xb4>
    35b7: 9c c9 62     	stz	$62c9                   ; 0x62c9 <dials+0xc5>
    35ba: 9c ca 62     	stz	$62ca                   ; 0x62ca <dials+0xc6>
    35bd: 9c cb 62     	stz	$62cb                   ; 0x62cb <dials+0xc7>
    35c0: 9c cc 62     	stz	$62cc                   ; 0x62cc <dials+0xc8>
    35c3: b1 12        	lda	($12),y                 ; 0x2012 <f256main+0x1735>
    35c5: 85 12        	sta	$12                     ; 0x2012 <f256main+0x1735>
    35c7: a0 01        	ldy	#$1
    35c9: b1 14        	lda	($14),y                 ; 0x2014 <f256main+0x1737>
    35cb: 85 13        	sta	$13                     ; 0x2013 <f256main+0x1736>
    35cd: a0 07        	ldy	#$7
    35cf: b1 12        	lda	($12),y                 ; 0x2012 <f256main+0x1735>
    35d1: 88           	dey
    35d2: 0a           	asl
    35d3: 0a           	asl
    35d4: 0a           	asl
    35d5: 0a           	asl
    35d6: 85 14        	sta	$14                     ; 0x2014 <f256main+0x1737>
    35d8: b1 12        	lda	($12),y                 ; 0x2012 <f256main+0x1735>
    35da: 4a           	lsr
    35db: 4a           	lsr
    35dc: 4a           	lsr
    35dd: 4a           	lsr
    35de: 05 14        	ora	$14                     ; 0x2014 <f256main+0x1737>
    35e0: 8d d3 62     	sta	$62d3                   ; 0x62d3 <dials+0xcf>
    35e3: a2 7f        	ldx	#$7f
    35e5: 8e d5 62     	stx	$62d5                   ; 0x62d5 <dials+0xd1>
    35e8: a2 f0        	ldx	#$f0
    35ea: 8e cf 62     	stx	$62cf                   ; 0x62cf <dials+0xcb>
    35ed: a2 0a        	ldx	#$a
    35ef: 8e aa 62     	stx	$62aa                   ; 0x62aa <dials+0xa6>
    35f2: 9c ab 62     	stz	$62ab                   ; 0x62ab <dials+0xa7>
    35f5: 9c ac 62     	stz	$62ac                   ; 0x62ac <dials+0xa8>
    35f8: 9c ad 62     	stz	$62ad                   ; 0x62ad <dials+0xa9>
    35fb: 9c ae 62     	stz	$62ae                   ; 0x62ae <dials+0xaa>
    35fe: 9c af 62     	stz	$62af                   ; 0x62af <dials+0xab>
    3601: a2 54        	ldx	#$54
    3603: 8e b0 62     	stx	$62b0                   ; 0x62b0 <dials+0xac>
    3606: a9 01        	lda	#$1
    3608: 8d b1 62     	sta	$62b1                   ; 0x62b1 <dials+0xad>
    360b: 9c b2 62     	stz	$62b2                   ; 0x62b2 <dials+0xae>
    360e: 9c b3 62     	stz	$62b3                   ; 0x62b3 <dials+0xaf>
    3611: a2 10        	ldx	#$10
    3613: 8e b4 62     	stx	$62b4                   ; 0x62b4 <dials+0xb0>
    3616: a0 ff        	ldy	#$ff
    3618: 8c b9 62     	sty	$62b9                   ; 0x62b9 <dials+0xb5>
    361b: 8c bb 62     	sty	$62bb                   ; 0x62bb <dials+0xb7>
    361e: a0 0f        	ldy	#$f
    3620: 8c bc 62     	sty	$62bc                   ; 0x62bc <dials+0xb8>
    3623: 9c bd 62     	stz	$62bd                   ; 0x62bd <dials+0xb9>
    3626: a0 0a        	ldy	#$a
    3628: 8c be 62     	sty	$62be                   ; 0x62be <dials+0xba>
    362b: 9c bf 62     	stz	$62bf                   ; 0x62bf <dials+0xbb>
    362e: 9c c0 62     	stz	$62c0                   ; 0x62c0 <dials+0xbc>
    3631: 9c c1 62     	stz	$62c1                   ; 0x62c1 <dials+0xbd>
    3634: 9c c2 62     	stz	$62c2                   ; 0x62c2 <dials+0xbe>
    3637: 9c c3 62     	stz	$62c3                   ; 0x62c3 <dials+0xbf>
    363a: a0 54        	ldy	#$54
    363c: 8c c4 62     	sty	$62c4                   ; 0x62c4 <dials+0xc0>
    363f: 8d c5 62     	sta	$62c5                   ; 0x62c5 <dials+0xc1>
    3642: 9c c6 62     	stz	$62c6                   ; 0x62c6 <dials+0xc2>
    3645: 9c c7 62     	stz	$62c7                   ; 0x62c7 <dials+0xc3>
    3648: 8e c8 62     	stx	$62c8                   ; 0x62c8 <dials+0xc4>
    364b: a2 ff        	ldx	#$ff
    364d: 8e cd 62     	stx	$62cd                   ; 0x62cd <dials+0xc9>
    3650: 9c d4 62     	stz	$62d4                   ; 0x62d4 <dials+0xd0>
    3653: 9c d6 62     	stz	$62d6                   ; 0x62d6 <dials+0xd2>
    3656: 9c d7 62     	stz	$62d7                   ; 0x62d7 <dials+0xd3>
    3659: 9c d8 62     	stz	$62d8                   ; 0x62d8 <dials+0xd4>
    365c: 9c d9 62     	stz	$62d9                   ; 0x62d9 <dials+0xd5>
    365f: 9c da 62     	stz	$62da                   ; 0x62da <dials+0xd6>
    3662: 9c db 62     	stz	$62db                   ; 0x62db <dials+0xd7>
    3665: a2 04        	ldx	#$4
    3667: 8e d1 62     	stx	$62d1                   ; 0x62d1 <dials+0xcd>
    366a: a2 0f        	ldx	#$f
    366c: 8e d0 62     	stx	$62d0                   ; 0x62d0 <dials+0xcc>
    366f: 9c d2 62     	stz	$62d2                   ; 0x62d2 <dials+0xce>
    3672: a2 94        	ldx	#$94
    3674: 86 12        	stx	$12                     ; 0x2012 <f256main+0x1735>
    3676: a2 62        	ldx	#$62
    3678: 86 13        	stx	$13                     ; 0x2013 <f256main+0x1736>
    367a: 20 3d 3f     	jsr	$3f3d <updateDial>
    367d: a2 a7        	ldx	#$a7
    367f: 8e df 62     	stx	$62df                   ; 0x62df <dials+0xdb>
    3682: a2 15        	ldx	#$15
    3684: 8e dc 62     	stx	$62dc                   ; 0x62dc <dials+0xd8>
    3687: a2 1c        	ldx	#$1c
    3689: 8e dd 62     	stx	$62dd                   ; 0x62dd <dials+0xd9>
    368c: a2 20        	ldx	#$20
    368e: 8e e5 62     	stx	$62e5                   ; 0x62e5 <dials+0xe1>
    3691: a5 ca        	lda	$ca                     ; 0x20ca <f256main+0x17ed>
    3693: 85 12        	sta	$12                     ; 0x2012 <f256main+0x1735>
    3695: a6 cb        	ldx	$cb                     ; 0x20cb <f256main+0x17ee>
    3697: 86 13        	stx	$13                     ; 0x2013 <f256main+0x1736>
    3699: 18           	clc
    369a: 69 04        	adc	#$4
    369c: 85 14        	sta	$14                     ; 0x2014 <f256main+0x1737>
    369e: 8a           	txa
    369f: 69 00        	adc	#$0
    36a1: 85 15        	sta	$15                     ; 0x2015 <f256main+0x1738>
    36a3: 9c fd 62     	stz	$62fd                   ; 0x62fd <dials+0xf9>
    36a6: 9c fe 62     	stz	$62fe                   ; 0x62fe <dials+0xfa>
    36a9: 9c ff 62     	stz	$62ff                   ; 0x62ff <dials+0xfb>
    36ac: 9c 00 63     	stz	$6300                   ; 0x6300 <dials+0xfc>
    36af: a0 04        	ldy	#$4
    36b1: b1 12        	lda	($12),y                 ; 0x2012 <f256main+0x1735>
    36b3: 85 12        	sta	$12                     ; 0x2012 <f256main+0x1735>
    36b5: a0 01        	ldy	#$1
    36b7: 8c de 62     	sty	$62de                   ; 0x62de <dials+0xda>
    36ba: 9c e0 62     	stz	$62e0                   ; 0x62e0 <dials+0xdc>
    36bd: 9c e1 62     	stz	$62e1                   ; 0x62e1 <dials+0xdd>
    36c0: 9c e2 62     	stz	$62e2                   ; 0x62e2 <dials+0xde>
    36c3: 9c e3 62     	stz	$62e3                   ; 0x62e3 <dials+0xdf>
    36c6: 9c e4 62     	stz	$62e4                   ; 0x62e4 <dials+0xe0>
    36c9: 8c e6 62     	sty	$62e6                   ; 0x62e6 <dials+0xe2>
    36cc: 9c e7 62     	stz	$62e7                   ; 0x62e7 <dials+0xe3>
    36cf: b1 14        	lda	($14),y                 ; 0x2014 <f256main+0x1737>
    36d1: 85 13        	sta	$13                     ; 0x2013 <f256main+0x1736>
    36d3: a9 0f        	lda	#$f
    36d5: a0 06        	ldy	#$6
    36d7: 31 12        	and	($12),y                 ; 0x2012 <f256main+0x1735>
    36d9: a2 03        	ldx	#$3
    36db: 8e e8 62     	stx	$62e8                   ; 0x62e8 <dials+0xe4>
    36de: a0 10        	ldy	#$10
    36e0: 8c e9 62     	sty	$62e9                   ; 0x62e9 <dials+0xe5>
    36e3: 9c ea 62     	stz	$62ea                   ; 0x62ea <dials+0xe6>
    36e6: a2 0d        	ldx	#$d
    36e8: 8e eb 62     	stx	$62eb                   ; 0x62eb <dials+0xe7>
    36eb: 9c ec 62     	stz	$62ec                   ; 0x62ec <dials+0xe8>
    36ee: 8e ed 62     	stx	$62ed                   ; 0x62ed <dials+0xe9>
    36f1: a2 2b        	ldx	#$2b
    36f3: 8e ee 62     	stx	$62ee                   ; 0x62ee <dials+0xea>
    36f6: a2 ff        	ldx	#$ff
    36f8: 8e ef 62     	stx	$62ef                   ; 0x62ef <dials+0xeb>
    36fb: 8c f0 62     	sty	$62f0                   ; 0x62f0 <dials+0xec>
    36fe: 9c f1 62     	stz	$62f1                   ; 0x62f1 <dials+0xed>
    3701: a0 0a        	ldy	#$a
    3703: 8c f2 62     	sty	$62f2                   ; 0x62f2 <dials+0xee>
    3706: 9c f3 62     	stz	$62f3                   ; 0x62f3 <dials+0xef>
    3709: 9c f4 62     	stz	$62f4                   ; 0x62f4 <dials+0xf0>
    370c: 9c f5 62     	stz	$62f5                   ; 0x62f5 <dials+0xf1>
    370f: 9c f6 62     	stz	$62f6                   ; 0x62f6 <dials+0xf2>
    3712: 9c f7 62     	stz	$62f7                   ; 0x62f7 <dials+0xf3>
    3715: a0 54        	ldy	#$54
    3717: 8c f8 62     	sty	$62f8                   ; 0x62f8 <dials+0xf4>
    371a: a0 01        	ldy	#$1
    371c: 8c f9 62     	sty	$62f9                   ; 0x62f9 <dials+0xf5>
    371f: 9c fa 62     	stz	$62fa                   ; 0x62fa <dials+0xf6>
    3722: 9c fb 62     	stz	$62fb                   ; 0x62fb <dials+0xf7>
    3725: a0 10        	ldy	#$10
    3727: 8c fc 62     	sty	$62fc                   ; 0x62fc <dials+0xf8>
    372a: 8e 01 63     	stx	$6301                   ; 0x6301 <dials+0xfd>
    372d: 8d 1b 63     	sta	$631b                   ; 0x631b <dials+0x117>
    3730: 9c 1c 63     	stz	$631c                   ; 0x631c <dials+0x118>
    3733: a2 0f        	ldx	#$f
    3735: 8e 1d 63     	stx	$631d                   ; 0x631d <dials+0x119>
    3738: 9c 1e 63     	stz	$631e                   ; 0x631e <dials+0x11a>
    373b: 9c 1f 63     	stz	$631f                   ; 0x631f <dials+0x11b>
    373e: 9c 20 63     	stz	$6320                   ; 0x6320 <dials+0x11c>
    3741: 9c 21 63     	stz	$6321                   ; 0x6321 <dials+0x11d>
    3744: 9c 22 63     	stz	$6322                   ; 0x6322 <dials+0x11e>
    3747: 9c 23 63     	stz	$6323                   ; 0x6323 <dials+0x11f>
    374a: 8e 17 63     	stx	$6317                   ; 0x6317 <dials+0x113>
    374d: 9c 19 63     	stz	$6319                   ; 0x6319 <dials+0x115>
    3750: 9c 18 63     	stz	$6318                   ; 0x6318 <dials+0x114>
    3753: 9c 1a 63     	stz	$631a                   ; 0x631a <dials+0x116>
    3756: a2 dc        	ldx	#$dc
    3758: 86 12        	stx	$12                     ; 0x2012 <f256main+0x1735>
    375a: a2 62        	ldx	#$62
    375c: 86 13        	stx	$13                     ; 0x2013 <f256main+0x1736>
    375e: 20 3d 3f     	jsr	$3f3d <updateDial>
    3761: a2 16        	ldx	#$16
    3763: a0 93        	ldy	#$93
    3765: 98           	tya
    3766: a0 01        	ldy	#$1
    3768: 91 10        	sta	($10),y                 ; 0x2010 <f256main+0x1733>
    376a: 88           	dey
    376b: 64 13        	stz	$13                     ; 0x2013 <f256main+0x1736>
    376d: 18           	clc
    376e: 8a           	txa
    376f: 69 f3        	adc	#$f3
    3771: 85 1c        	sta	$1c                     ; 0x201c <f256main+0x173f>
    3773: 84 12        	sty	$12                     ; 0x2012 <f256main+0x1735>
    3775: a9 d9        	lda	#$d9
    3777: 18           	clc
    3778: 65 12        	adc	$12                     ; 0x2012 <f256main+0x1735>
    377a: 85 1a        	sta	$1a                     ; 0x201a <f256main+0x173d>
    377c: a5 13        	lda	$13                     ; 0x2013 <f256main+0x1736>
    377e: 85 26        	sta	$26                     ; 0x2026 <f256main+0x1749>
    3780: a9 5f        	lda	#$5f
    3782: 65 13        	adc	$13                     ; 0x2013 <f256main+0x1736>
    3784: 85 14        	sta	$14                     ; 0x2014 <f256main+0x1737>
    3786: a5 1a        	lda	$1a                     ; 0x201a <f256main+0x173d>
    3788: 18           	clc
    3789: 69 bd        	adc	#$bd
    378b: 85 12        	sta	$12                     ; 0x2012 <f256main+0x1735>
    378d: 86 24        	stx	$24                     ; 0x2024 <f256main+0x1747>
    378f: 84 25        	sty	$25                     ; 0x2025 <f256main+0x1748>
    3791: a5 14        	lda	$14                     ; 0x2014 <f256main+0x1737>
    3793: 69 00        	adc	#$0
    3795: 85 13        	sta	$13                     ; 0x2013 <f256main+0x1736>
    3797: a5 1a        	lda	$1a                     ; 0x201a <f256main+0x173d>
    3799: 18           	clc
    379a: 69 be        	adc	#$be
    379c: 85 16        	sta	$16                     ; 0x2016 <f256main+0x1739>
    379e: a5 14        	lda	$14                     ; 0x2014 <f256main+0x1737>
    37a0: 69 00        	adc	#$0
    37a2: 85 17        	sta	$17                     ; 0x2017 <f256main+0x173a>
    37a4: a5 1a        	lda	$1a                     ; 0x201a <f256main+0x173d>
    37a6: 18           	clc
    37a7: 69 c0        	adc	#$c0
    37a9: 85 18        	sta	$18                     ; 0x2018 <f256main+0x173b>
    37ab: a4 14        	ldy	$14                     ; 0x2014 <f256main+0x1737>
    37ad: a5 14        	lda	$14                     ; 0x2014 <f256main+0x1737>
    37af: 69 00        	adc	#$0
    37b1: 5a           	phy
    37b2: 48           	pha
    37b3: bd f9 5c     	lda	$5cf9,x                 ; 0x5cf9 <sidSpriteAction>
    37b6: aa           	tax
    37b7: 68           	pla
    37b8: a4 1a        	ldy	$1a                     ; 0x201a <f256main+0x173d>
    37ba: 84 14        	sty	$14                     ; 0x2014 <f256main+0x1737>
    37bc: 7a           	ply
    37bd: 84 15        	sty	$15                     ; 0x2015 <f256main+0x1738>
    37bf: 85 19        	sta	$19                     ; 0x2019 <f256main+0x173c>
    37c1: 18           	clc
    37c2: a5 1a        	lda	$1a                     ; 0x201a <f256main+0x173d>
    37c4: 69 c5        	adc	#$c5
    37c6: 85 1a        	sta	$1a                     ; 0x201a <f256main+0x173d>
    37c8: 98           	tya
    37c9: 69 00        	adc	#$0
    37cb: 85 1b        	sta	$1b                     ; 0x201b <f256main+0x173e>
    37cd: a0 c9        	ldy	#$c9
    37cf: a5 1c        	lda	$1c                     ; 0x201c <f256main+0x173f>
    37d1: 91 14        	sta	($14),y                 ; 0x2014 <f256main+0x1737>
    37d3: a0 cf        	ldy	#$cf
    37d5: 8a           	txa
    37d6: 91 14        	sta	($14),y                 ; 0x2014 <f256main+0x1737>
    37d8: a0 01        	ldy	#$1
    37da: a9 00        	lda	#$0
    37dc: 91 16        	sta	($16),y                 ; 0x2016 <f256main+0x1739>
    37de: 91 18        	sta	($18),y                 ; 0x2018 <f256main+0x173b>
    37e0: a9 38        	lda	#$38
    37e2: 91 1a        	sta	($1a),y                 ; 0x201a <f256main+0x173d>
    37e4: c8           	iny
    37e5: a9 01        	lda	#$1
    37e7: 91 1a        	sta	($1a),y                 ; 0x201a <f256main+0x173d>
    37e9: c8           	iny
    37ea: 3a           	dec
    37eb: 91 1a        	sta	($1a),y                 ; 0x201a <f256main+0x173d>
    37ed: a5 24        	lda	$24                     ; 0x2024 <f256main+0x1747>
    37ef: a0 bd        	ldy	#$bd
    37f1: 91 14        	sta	($14),y                 ; 0x2014 <f256main+0x1737>
    37f3: a9 d5        	lda	#$d5
    37f5: c8           	iny
    37f6: 91 14        	sta	($14),y                 ; 0x2014 <f256main+0x1737>
    37f8: a0 01        	ldy	#$1
    37fa: b1 10        	lda	($10),y                 ; 0x2010 <f256main+0x1733>
    37fc: a0 c0        	ldy	#$c0
    37fe: 91 14        	sta	($14),y                 ; 0x2014 <f256main+0x1737>
    3800: 85 27        	sta	$27                     ; 0x2027 <f256main+0x174a>
    3802: a0 c2        	ldy	#$c2
    3804: a9 00        	lda	#$0
    3806: 91 14        	sta	($14),y                 ; 0x2014 <f256main+0x1737>
    3808: c8           	iny
    3809: 91 14        	sta	($14),y                 ; 0x2014 <f256main+0x1737>
    380b: c8           	iny
    380c: 91 14        	sta	($14),y                 ; 0x2014 <f256main+0x1737>
    380e: c8           	iny
    380f: 91 14        	sta	($14),y                 ; 0x2014 <f256main+0x1737>
    3811: a9 10        	lda	#$10
    3813: a0 ca        	ldy	#$ca
    3815: 91 14        	sta	($14),y                 ; 0x2014 <f256main+0x1737>
    3817: c8           	iny
    3818: a9 00        	lda	#$0
    381a: 91 14        	sta	($14),y                 ; 0x2014 <f256main+0x1737>
    381c: a9 0d        	lda	#$d
    381e: c8           	iny
    381f: 91 14        	sta	($14),y                 ; 0x2014 <f256main+0x1737>
    3821: a9 04        	lda	#$4
    3823: c8           	iny
    3824: 91 14        	sta	($14),y                 ; 0x2014 <f256main+0x1737>
    3826: a9 0b        	lda	#$b
    3828: c8           	iny
    3829: 91 14        	sta	($14),y                 ; 0x2014 <f256main+0x1737>
    382b: 64 14        	stz	$14                     ; 0x2014 <f256main+0x1737>
    382d: a2 ff        	ldx	#$ff
    382f: a9 00        	lda	#$0
    3831: 20 43 3e     	jsr	$3e43 <setRadioB>
    3834: a6 24        	ldx	$24                     ; 0x2024 <f256main+0x1747>
    3836: e8           	inx
    3837: 18           	clc
    3838: a5 27        	lda	$27                     ; 0x2027 <f256main+0x174a>
    383a: 69 10        	adc	#$10
    383c: a0 01        	ldy	#$1
    383e: 91 10        	sta	($10),y                 ; 0x2010 <f256main+0x1733>
    3840: 18           	clc
    3841: a5 25        	lda	$25                     ; 0x2025 <f256main+0x1748>
    3843: 69 15        	adc	#$15
    3845: a8           	tay
    3846: a5 26        	lda	$26                     ; 0x2026 <f256main+0x1749>
    3848: 69 00        	adc	#$0
    384a: 85 13        	sta	$13                     ; 0x2013 <f256main+0x1736>
    384c: c0 54        	cpy	#$54
    384e: f0 03        	beq	$3853 <loadGUISID+0xbd8>
    3850: 4c 6d 37     	jmp	$376d <loadGUISID+0xaf2>
    3853: a2 1a        	ldx	#$1a
    3855: 8e d4 61     	stx	$61d4                   ; 0x61d4 <sliders+0xc0>
    3858: a2 40        	ldx	#$40
    385a: 8e d5 61     	stx	$61d5                   ; 0x61d5 <sliders+0xc1>
    385d: a2 01        	ldx	#$1
    385f: 8e d6 61     	stx	$61d6                   ; 0x61d6 <sliders+0xc2>
    3862: a0 01        	ldy	#$1
    3864: a2 8f        	ldx	#$8f
    3866: 8e d7 61     	stx	$61d7                   ; 0x61d7 <sliders+0xc3>
    3869: 9c d8 61     	stz	$61d8                   ; 0x61d8 <sliders+0xc4>
    386c: 9c d9 61     	stz	$61d9                   ; 0x61d9 <sliders+0xc5>
    386f: 9c da 61     	stz	$61da                   ; 0x61da <sliders+0xc6>
    3872: 9c db 61     	stz	$61db                   ; 0x61db <sliders+0xc7>
    3875: 9c dc 61     	stz	$61dc                   ; 0x61dc <sliders+0xc8>
    3878: a2 28        	ldx	#$28
    387a: 8e dd 61     	stx	$61dd                   ; 0x61dd <sliders+0xc9>
    387d: 8c de 61     	sty	$61de                   ; 0x61de <sliders+0xca>
    3880: 9c df 61     	stz	$61df                   ; 0x61df <sliders+0xcb>
    3883: a2 04        	ldx	#$4
    3885: 8e e0 61     	stx	$61e0                   ; 0x61e0 <sliders+0xcc>
    3888: a0 04        	ldy	#$4
    388a: a2 10        	ldx	#$10
    388c: 8e e1 61     	stx	$61e1                   ; 0x61e1 <sliders+0xcd>
    388f: a2 06        	ldx	#$6
    3891: 8e e4 61     	stx	$61e4                   ; 0x61e4 <sliders+0xd0>
    3894: a2 19        	ldx	#$19
    3896: 8e e5 61     	stx	$61e5                   ; 0x61e5 <sliders+0xd1>
    3899: a2 32        	ldx	#$32
    389b: 8e e6 61     	stx	$61e6                   ; 0x61e6 <sliders+0xd2>
    389e: a2 12        	ldx	#$12
    38a0: 8e e8 61     	stx	$61e8                   ; 0x61e8 <sliders+0xd4>
    38a3: a5 ca        	lda	$ca                     ; 0x20ca <f256main+0x17ed>
    38a5: a6 cb        	ldx	$cb                     ; 0x20cb <f256main+0x17ee>
    38a7: 85 12        	sta	$12                     ; 0x2012 <f256main+0x1735>
    38a9: 86 13        	stx	$13                     ; 0x2013 <f256main+0x1736>
    38ab: 18           	clc
    38ac: 69 04        	adc	#$4
    38ae: 85 14        	sta	$14                     ; 0x2014 <f256main+0x1737>
    38b0: 8a           	txa
    38b1: 69 00        	adc	#$0
    38b3: a2 03        	ldx	#$3
    38b5: 8e e2 61     	stx	$61e2                   ; 0x61e2 <sliders+0xce>
    38b8: 9c f5 61     	stz	$61f5                   ; 0x61f5 <sliders+0xe1>
    38bb: 9c f6 61     	stz	$61f6                   ; 0x61f6 <sliders+0xe2>
    38be: 9c f7 61     	stz	$61f7                   ; 0x61f7 <sliders+0xe3>
    38c1: 9c f8 61     	stz	$61f8                   ; 0x61f8 <sliders+0xe4>
    38c4: 85 15        	sta	$15                     ; 0x2015 <f256main+0x1738>
    38c6: b1 12        	lda	($12),y                 ; 0x2012 <f256main+0x1735>
    38c8: 85 12        	sta	$12                     ; 0x2012 <f256main+0x1735>
    38ca: a0 01        	ldy	#$1
    38cc: b1 14        	lda	($14),y                 ; 0x2014 <f256main+0x1737>
    38ce: 85 13        	sta	$13                     ; 0x2013 <f256main+0x1736>
    38d0: a0 08        	ldy	#$8
    38d2: b1 12        	lda	($12),y                 ; 0x2012 <f256main+0x1735>
    38d4: a2 0a        	ldx	#$a
    38d6: 8e e3 61     	stx	$61e3                   ; 0x61e3 <sliders+0xcf>
    38d9: 4a           	lsr
    38da: 4a           	lsr
    38db: 4a           	lsr
    38dc: 4a           	lsr
    38dd: 8d fb 61     	sta	$61fb                   ; 0x61fb <sliders+0xe7>
    38e0: a2 ff        	ldx	#$ff
    38e2: 8e e7 61     	stx	$61e7                   ; 0x61e7 <sliders+0xd3>
    38e5: a0 ff        	ldy	#$ff
    38e7: 9c e9 61     	stz	$61e9                   ; 0x61e9 <sliders+0xd5>
    38ea: a2 09        	ldx	#$9
    38ec: 8e ea 61     	stx	$61ea                   ; 0x61ea <sliders+0xd6>
    38ef: 9c eb 61     	stz	$61eb                   ; 0x61eb <sliders+0xd7>
    38f2: 9c ec 61     	stz	$61ec                   ; 0x61ec <sliders+0xd8>
    38f5: 9c ed 61     	stz	$61ed                   ; 0x61ed <sliders+0xd9>
    38f8: 9c ee 61     	stz	$61ee                   ; 0x61ee <sliders+0xda>
    38fb: 9c ef 61     	stz	$61ef                   ; 0x61ef <sliders+0xdb>
    38fe: a2 54        	ldx	#$54
    3900: 8e f0 61     	stx	$61f0                   ; 0x61f0 <sliders+0xdc>
    3903: a2 01        	ldx	#$1
    3905: 8e f1 61     	stx	$61f1                   ; 0x61f1 <sliders+0xdd>
    3908: 9c f2 61     	stz	$61f2                   ; 0x61f2 <sliders+0xde>
    390b: a2 04        	ldx	#$4
    390d: 8e f3 61     	stx	$61f3                   ; 0x61f3 <sliders+0xdf>
    3910: a2 10        	ldx	#$10
    3912: 8e f4 61     	stx	$61f4                   ; 0x61f4 <sliders+0xe0>
    3915: 8c f9 61     	sty	$61f9                   ; 0x61f9 <sliders+0xe5>
    3918: 9c fc 61     	stz	$61fc                   ; 0x61fc <sliders+0xe8>
    391b: ca           	dex
    391c: 8e fd 61     	stx	$61fd                   ; 0x61fd <sliders+0xe9>
    391f: 9c fe 61     	stz	$61fe                   ; 0x61fe <sliders+0xea>
    3922: 9c ff 61     	stz	$61ff                   ; 0x61ff <sliders+0xeb>
    3925: 9c 00 62     	stz	$6200                   ; 0x6200 <sliders+0xec>
    3928: 9c 01 62     	stz	$6201                   ; 0x6201 <sliders+0xed>
    392b: 9c 02 62     	stz	$6202                   ; 0x6202 <sliders+0xee>
    392e: 9c 03 62     	stz	$6203                   ; 0x6203 <sliders+0xef>
    3931: a2 d4        	ldx	#$d4
    3933: 86 12        	stx	$12                     ; 0x2012 <f256main+0x1735>
    3935: a2 61        	ldx	#$61
    3937: 86 13        	stx	$13                     ; 0x2013 <f256main+0x1736>
    3939: 20 95 42     	jsr	$4295 <updateSlider>
    393c: a2 1c        	ldx	#$1c
    393e: 8e ea 60     	stx	$60ea                   ; 0x60ea <radios+0x111>
    3941: a2 0d        	ldx	#$d
    3943: 8e eb 60     	stx	$60eb                   ; 0x60eb <radios+0x112>
    3946: a0 01        	ldy	#$1
    3948: 8c ec 60     	sty	$60ec                   ; 0x60ec <radios+0x113>
    394b: a2 83        	ldx	#$83
    394d: 8e ed 60     	stx	$60ed                   ; 0x60ed <radios+0x114>
    3950: 9c ee 60     	stz	$60ee                   ; 0x60ee <radios+0x115>
    3953: 9c ef 60     	stz	$60ef                   ; 0x60ef <radios+0x116>
    3956: 9c f0 60     	stz	$60f0                   ; 0x60f0 <radios+0x117>
    3959: 9c f1 60     	stz	$60f1                   ; 0x60f1 <radios+0x118>
    395c: 9c f2 60     	stz	$60f2                   ; 0x60f2 <radios+0x119>
    395f: a2 38        	ldx	#$38
    3961: 8e f3 60     	stx	$60f3                   ; 0x60f3 <radios+0x11a>
    3964: 8c f4 60     	sty	$60f4                   ; 0x60f4 <radios+0x11b>
    3967: 9c f5 60     	stz	$60f5                   ; 0x60f5 <radios+0x11c>
    396a: a2 0d        	ldx	#$d
    396c: 8e f6 60     	stx	$60f6                   ; 0x60f6 <radios+0x11d>
    396f: a0 10        	ldy	#$10
    3971: 8c f7 60     	sty	$60f7                   ; 0x60f7 <radios+0x11e>
    3974: 9c f8 60     	stz	$60f8                   ; 0x60f8 <radios+0x11f>
    3977: 8e f9 60     	stx	$60f9                   ; 0x60f9 <radios+0x120>
    397a: a2 04        	ldx	#$4
    397c: 8e fa 60     	stx	$60fa                   ; 0x60fa <radios+0x121>
    397f: a2 30        	ldx	#$30
    3981: 8e fc 60     	stx	$60fc                   ; 0x60fc <radios+0x123>
    3984: a2 0b        	ldx	#$b
    3986: 8e fb 60     	stx	$60fb                   ; 0x60fb <radios+0x122>
    3989: a2 ea        	ldx	#$ea
    398b: 86 12        	stx	$12                     ; 0x2012 <f256main+0x1735>
    398d: a2 60        	ldx	#$60
    398f: 86 13        	stx	$13                     ; 0x2013 <f256main+0x1736>
    3991: 64 14        	stz	$14                     ; 0x2014 <f256main+0x1737>
    3993: a2 ff        	ldx	#$ff
    3995: a9 00        	lda	#$0
    3997: 20 43 3e     	jsr	$3e43 <setRadioB>
    399a: a2 1d        	ldx	#$1d
    399c: 8e ff 60     	stx	$60ff                   ; 0x60ff <radios+0x126>
    399f: a2 93        	ldx	#$93
    39a1: 8e 02 61     	stx	$6102                   ; 0x6102 <radios+0x129>
    39a4: a2 38        	ldx	#$38
    39a6: 8e 08 61     	stx	$6108                   ; 0x6108 <radios+0x12f>
    39a9: a2 0e        	ldx	#$e
    39ab: 8e 0b 61     	stx	$610b                   ; 0x610b <radios+0x132>
    39ae: a2 31        	ldx	#$31
    39b0: 8e 11 61     	stx	$6111                   ; 0x6111 <radios+0x138>
    39b3: a0 0d        	ldy	#$d
    39b5: 8c 00 61     	sty	$6100                   ; 0x6100 <radios+0x127>
    39b8: a2 01        	ldx	#$1
    39ba: 8e 01 61     	stx	$6101                   ; 0x6101 <radios+0x128>
    39bd: 9c 03 61     	stz	$6103                   ; 0x6103 <radios+0x12a>
    39c0: 9c 04 61     	stz	$6104                   ; 0x6104 <radios+0x12b>
    39c3: 9c 05 61     	stz	$6105                   ; 0x6105 <radios+0x12c>
    39c6: 9c 06 61     	stz	$6106                   ; 0x6106 <radios+0x12d>
    39c9: 9c 07 61     	stz	$6107                   ; 0x6107 <radios+0x12e>
    39cc: 8e 09 61     	stx	$6109                   ; 0x6109 <radios+0x130>
    39cf: 9c 0a 61     	stz	$610a                   ; 0x610a <radios+0x131>
    39d2: a2 10        	ldx	#$10
    39d4: 8e 0c 61     	stx	$610c                   ; 0x610c <radios+0x133>
    39d7: 9c 0d 61     	stz	$610d                   ; 0x610d <radios+0x134>
    39da: 8c 0e 61     	sty	$610e                   ; 0x610e <radios+0x135>
    39dd: a2 04        	ldx	#$4
    39df: 8e 0f 61     	stx	$610f                   ; 0x610f <radios+0x136>
    39e2: a2 0b        	ldx	#$b
    39e4: 8e 10 61     	stx	$6110                   ; 0x6110 <radios+0x137>
    39e7: a2 ff        	ldx	#$ff
    39e9: 86 12        	stx	$12                     ; 0x2012 <f256main+0x1735>
    39eb: a2 60        	ldx	#$60
    39ed: 86 13        	stx	$13                     ; 0x2013 <f256main+0x1736>
    39ef: 64 14        	stz	$14                     ; 0x2014 <f256main+0x1737>
    39f1: a2 ff        	ldx	#$ff
    39f3: a9 00        	lda	#$0
    39f5: 20 43 3e     	jsr	$3e43 <setRadioB>
    39f8: a2 1e        	ldx	#$1e
    39fa: 8e 24 63     	stx	$6324                   ; 0x6324 <dials+0x120>
    39fd: a2 ca        	ldx	#$ca
    39ff: 8e 25 63     	stx	$6325                   ; 0x6325 <dials+0x121>
    3a02: a2 33        	ldx	#$33
    3a04: 8e 36 63     	stx	$6336                   ; 0x6336 <dials+0x132>
    3a07: a2 0b        	ldx	#$b
    3a09: 8e 4c 63     	stx	$634c                   ; 0x634c <dials+0x148>
    3a0c: a5 ca        	lda	$ca                     ; 0x20ca <f256main+0x17ed>
    3a0e: a6 cb        	ldx	$cb                     ; 0x20cb <f256main+0x17ee>
    3a10: 85 12        	sta	$12                     ; 0x2012 <f256main+0x1735>
    3a12: 86 13        	stx	$13                     ; 0x2013 <f256main+0x1736>
    3a14: 18           	clc
    3a15: 69 04        	adc	#$4
    3a17: 85 14        	sta	$14                     ; 0x2014 <f256main+0x1737>
    3a19: 8a           	txa
    3a1a: 69 00        	adc	#$0
    3a1c: 9c 26 63     	stz	$6326                   ; 0x6326 <dials+0x122>
    3a1f: a2 3c        	ldx	#$3c
    3a21: 8e 27 63     	stx	$6327                   ; 0x6327 <dials+0x123>
    3a24: 9c 28 63     	stz	$6328                   ; 0x6328 <dials+0x124>
    3a27: 9c 29 63     	stz	$6329                   ; 0x6329 <dials+0x125>
    3a2a: 9c 2a 63     	stz	$632a                   ; 0x632a <dials+0x126>
    3a2d: 9c 2b 63     	stz	$632b                   ; 0x632b <dials+0x127>
    3a30: 9c 2c 63     	stz	$632c                   ; 0x632c <dials+0x128>
    3a33: 9c 45 63     	stz	$6345                   ; 0x6345 <dials+0x141>
    3a36: 9c 46 63     	stz	$6346                   ; 0x6346 <dials+0x142>
    3a39: 9c 47 63     	stz	$6347                   ; 0x6347 <dials+0x143>
    3a3c: 9c 48 63     	stz	$6348                   ; 0x6348 <dials+0x144>
    3a3f: 9c 59 63     	stz	$6359                   ; 0x6359 <dials+0x155>
    3a42: 9c 5a 63     	stz	$635a                   ; 0x635a <dials+0x156>
    3a45: 9c 5b 63     	stz	$635b                   ; 0x635b <dials+0x157>
    3a48: 9c 5c 63     	stz	$635c                   ; 0x635c <dials+0x158>
    3a4b: 85 15        	sta	$15                     ; 0x2015 <f256main+0x1738>
    3a4d: a0 04        	ldy	#$4
    3a4f: b1 12        	lda	($12),y                 ; 0x2012 <f256main+0x1735>
    3a51: 85 12        	sta	$12                     ; 0x2012 <f256main+0x1735>
    3a53: a0 01        	ldy	#$1
    3a55: b1 14        	lda	($14),y                 ; 0x2014 <f256main+0x1737>
    3a57: 85 13        	sta	$13                     ; 0x2013 <f256main+0x1736>
    3a59: a2 20        	ldx	#$20
    3a5b: 8e 2d 63     	stx	$632d                   ; 0x632d <dials+0x129>
    3a5e: 8c 2e 63     	sty	$632e                   ; 0x632e <dials+0x12a>
    3a61: 9c 2f 63     	stz	$632f                   ; 0x632f <dials+0x12b>
    3a64: a2 04        	ldx	#$4
    3a66: 8e 30 63     	stx	$6330                   ; 0x6330 <dials+0x12c>
    3a69: a2 10        	ldx	#$10
    3a6b: 8e 31 63     	stx	$6331                   ; 0x6331 <dials+0x12d>
    3a6e: 9c 32 63     	stz	$6332                   ; 0x6332 <dials+0x12e>
    3a71: a2 0d        	ldx	#$d
    3a73: 8e 33 63     	stx	$6333                   ; 0x6333 <dials+0x12f>
    3a76: 9c 34 63     	stz	$6334                   ; 0x6334 <dials+0x130>
    3a79: 8e 35 63     	stx	$6335                   ; 0x6335 <dials+0x131>
    3a7c: a2 ff        	ldx	#$ff
    3a7e: 8e 37 63     	stx	$6337                   ; 0x6337 <dials+0x133>
    3a81: a2 0a        	ldx	#$a
    3a83: 8e 38 63     	stx	$6338                   ; 0x6338 <dials+0x134>
    3a86: 9c 39 63     	stz	$6339                   ; 0x6339 <dials+0x135>
    3a89: a0 03        	ldy	#$3
    3a8b: 8c 3a 63     	sty	$633a                   ; 0x633a <dials+0x136>
    3a8e: 9c 3b 63     	stz	$633b                   ; 0x633b <dials+0x137>
    3a91: 9c 3c 63     	stz	$633c                   ; 0x633c <dials+0x138>
    3a94: 9c 3d 63     	stz	$633d                   ; 0x633d <dials+0x139>
    3a97: 9c 3e 63     	stz	$633e                   ; 0x633e <dials+0x13a>
    3a9a: 9c 3f 63     	stz	$633f                   ; 0x633f <dials+0x13b>
    3a9d: a9 54        	lda	#$54
    3a9f: 8d 40 63     	sta	$6340                   ; 0x6340 <dials+0x13c>
    3aa2: a2 01        	ldx	#$1
    3aa4: 8e 41 63     	stx	$6341                   ; 0x6341 <dials+0x13d>
    3aa7: 9c 42 63     	stz	$6342                   ; 0x6342 <dials+0x13e>
    3aaa: 9c 43 63     	stz	$6343                   ; 0x6343 <dials+0x13f>
    3aad: a2 10        	ldx	#$10
    3aaf: 8e 44 63     	stx	$6344                   ; 0x6344 <dials+0x140>
    3ab2: a2 ff        	ldx	#$ff
    3ab4: 8e 49 63     	stx	$6349                   ; 0x6349 <dials+0x145>
    3ab7: 8e 4b 63     	stx	$634b                   ; 0x634b <dials+0x147>
    3aba: 9c 4d 63     	stz	$634d                   ; 0x634d <dials+0x149>
    3abd: 8c 4e 63     	sty	$634e                   ; 0x634e <dials+0x14a>
    3ac0: 9c 4f 63     	stz	$634f                   ; 0x634f <dials+0x14b>
    3ac3: 9c 50 63     	stz	$6350                   ; 0x6350 <dials+0x14c>
    3ac6: 9c 51 63     	stz	$6351                   ; 0x6351 <dials+0x14d>
    3ac9: 9c 52 63     	stz	$6352                   ; 0x6352 <dials+0x14e>
    3acc: 9c 53 63     	stz	$6353                   ; 0x6353 <dials+0x14f>
    3acf: 8d 54 63     	sta	$6354                   ; 0x6354 <dials+0x150>
    3ad2: a0 01        	ldy	#$1
    3ad4: 8c 55 63     	sty	$6355                   ; 0x6355 <dials+0x151>
    3ad7: 9c 56 63     	stz	$6356                   ; 0x6356 <dials+0x152>
    3ada: 9c 57 63     	stz	$6357                   ; 0x6357 <dials+0x153>
    3add: a0 10        	ldy	#$10
    3adf: 8c 58 63     	sty	$6358                   ; 0x6358 <dials+0x154>
    3ae2: 8e 5d 63     	stx	$635d                   ; 0x635d <dials+0x159>
    3ae5: a0 0a        	ldy	#$a
    3ae7: b1 12        	lda	($12),y                 ; 0x2012 <f256main+0x1735>
    3ae9: 8d 63 63     	sta	$6363                   ; 0x6363 <dials+0x15f>
    3aec: 9c 64 63     	stz	$6364                   ; 0x6364 <dials+0x160>
    3aef: 8e 65 63     	stx	$6365                   ; 0x6365 <dials+0x161>
    3af2: 9c 66 63     	stz	$6366                   ; 0x6366 <dials+0x162>
    3af5: 9c 67 63     	stz	$6367                   ; 0x6367 <dials+0x163>
    3af8: 9c 68 63     	stz	$6368                   ; 0x6368 <dials+0x164>
    3afb: 9c 69 63     	stz	$6369                   ; 0x6369 <dials+0x165>
    3afe: 9c 6a 63     	stz	$636a                   ; 0x636a <dials+0x166>
    3b01: 9c 6b 63     	stz	$636b                   ; 0x636b <dials+0x167>
    3b04: a2 f0        	ldx	#$f0
    3b06: 8e 5f 63     	stx	$635f                   ; 0x635f <dials+0x15b>
    3b09: a2 04        	ldx	#$4
    3b0b: 8e 61 63     	stx	$6361                   ; 0x6361 <dials+0x15d>
    3b0e: a2 0f        	ldx	#$f
    3b10: 8e 60 63     	stx	$6360                   ; 0x6360 <dials+0x15c>
    3b13: 9c 62 63     	stz	$6362                   ; 0x6362 <dials+0x15e>
    3b16: a2 24        	ldx	#$24
    3b18: 86 12        	stx	$12                     ; 0x2012 <f256main+0x1735>
    3b1a: a2 63        	ldx	#$63
    3b1c: 86 13        	stx	$13                     ; 0x2013 <f256main+0x1736>
    3b1e: 20 3d 3f     	jsr	$3f3d <updateDial>
    3b21: a2 3c        	ldx	#$3c
    3b23: 8e 6f 63     	stx	$636f                   ; 0x636f <dials+0x16b>
    3b26: a2 20        	ldx	#$20
    3b28: 8e 75 63     	stx	$6375                   ; 0x6375 <dials+0x171>
    3b2b: a2 f0        	ldx	#$f0
    3b2d: 8e a7 63     	stx	$63a7                   ; 0x63a7 <dials+0x1a3>
    3b30: a2 0f        	ldx	#$f
    3b32: 8e a8 63     	stx	$63a8                   ; 0x63a8 <dials+0x1a4>
    3b35: a2 1f        	ldx	#$1f
    3b37: 8e 6c 63     	stx	$636c                   ; 0x636c <dials+0x168>
    3b3a: a2 e8        	ldx	#$e8
    3b3c: 8e 6d 63     	stx	$636d                   ; 0x636d <dials+0x169>
    3b3f: a2 05        	ldx	#$5
    3b41: 8e 78 63     	stx	$6378                   ; 0x6378 <dials+0x174>
    3b44: a2 34        	ldx	#$34
    3b46: 8e 7e 63     	stx	$637e                   ; 0x637e <dials+0x17a>
    3b49: a2 0c        	ldx	#$c
    3b4b: 8e 80 63     	stx	$6380                   ; 0x6380 <dials+0x17c>
    3b4e: e8           	inx
    3b4f: 8e 7b 63     	stx	$637b                   ; 0x637b <dials+0x177>
    3b52: 8e 7d 63     	stx	$637d                   ; 0x637d <dials+0x179>
    3b55: 8e 94 63     	stx	$6394                   ; 0x6394 <dials+0x190>
    3b58: a2 03        	ldx	#$3
    3b5a: 8e 82 63     	stx	$6382                   ; 0x6382 <dials+0x17e>
    3b5d: 8e 96 63     	stx	$6396                   ; 0x6396 <dials+0x192>
    3b60: a2 54        	ldx	#$54
    3b62: 8e 88 63     	stx	$6388                   ; 0x6388 <dials+0x184>
    3b65: 8e 9c 63     	stx	$639c                   ; 0x639c <dials+0x198>
    3b68: a2 10        	ldx	#$10
    3b6a: 8e 79 63     	stx	$6379                   ; 0x6379 <dials+0x175>
    3b6d: 8e 8c 63     	stx	$638c                   ; 0x638c <dials+0x188>
    3b70: 8e a0 63     	stx	$63a0                   ; 0x63a0 <dials+0x19c>
    3b73: a5 ca        	lda	$ca                     ; 0x20ca <f256main+0x17ed>
    3b75: 85 12        	sta	$12                     ; 0x2012 <f256main+0x1735>
    3b77: a6 cb        	ldx	$cb                     ; 0x20cb <f256main+0x17ee>
    3b79: 86 13        	stx	$13                     ; 0x2013 <f256main+0x1736>
    3b7b: 18           	clc
    3b7c: 69 04        	adc	#$4
    3b7e: 85 14        	sta	$14                     ; 0x2014 <f256main+0x1737>
    3b80: 8a           	txa
    3b81: 69 00        	adc	#$0
    3b83: 9c 6e 63     	stz	$636e                   ; 0x636e <dials+0x16a>
    3b86: 9c 70 63     	stz	$6370                   ; 0x6370 <dials+0x16c>
    3b89: 9c 71 63     	stz	$6371                   ; 0x6371 <dials+0x16d>
    3b8c: 9c 72 63     	stz	$6372                   ; 0x6372 <dials+0x16e>
    3b8f: 9c 73 63     	stz	$6373                   ; 0x6373 <dials+0x16f>
    3b92: 9c 74 63     	stz	$6374                   ; 0x6374 <dials+0x170>
    3b95: a0 01        	ldy	#$1
    3b97: 8c 76 63     	sty	$6376                   ; 0x6376 <dials+0x172>
    3b9a: 9c 77 63     	stz	$6377                   ; 0x6377 <dials+0x173>
    3b9d: 9c 7a 63     	stz	$637a                   ; 0x637a <dials+0x176>
    3ba0: 9c 7c 63     	stz	$637c                   ; 0x637c <dials+0x178>
    3ba3: a2 ff        	ldx	#$ff
    3ba5: 8e 7f 63     	stx	$637f                   ; 0x637f <dials+0x17b>
    3ba8: 9c 81 63     	stz	$6381                   ; 0x6381 <dials+0x17d>
    3bab: 9c 83 63     	stz	$6383                   ; 0x6383 <dials+0x17f>
    3bae: 9c 84 63     	stz	$6384                   ; 0x6384 <dials+0x180>
    3bb1: 9c 85 63     	stz	$6385                   ; 0x6385 <dials+0x181>
    3bb4: 9c 86 63     	stz	$6386                   ; 0x6386 <dials+0x182>
    3bb7: 9c 87 63     	stz	$6387                   ; 0x6387 <dials+0x183>
    3bba: 8c 89 63     	sty	$6389                   ; 0x6389 <dials+0x185>
    3bbd: 9c 8a 63     	stz	$638a                   ; 0x638a <dials+0x186>
    3bc0: 9c 8b 63     	stz	$638b                   ; 0x638b <dials+0x187>
    3bc3: 9c 8d 63     	stz	$638d                   ; 0x638d <dials+0x189>
    3bc6: 9c 8e 63     	stz	$638e                   ; 0x638e <dials+0x18a>
    3bc9: 9c 8f 63     	stz	$638f                   ; 0x638f <dials+0x18b>
    3bcc: 9c 90 63     	stz	$6390                   ; 0x6390 <dials+0x18c>
    3bcf: 8e 91 63     	stx	$6391                   ; 0x6391 <dials+0x18d>
    3bd2: 8e 93 63     	stx	$6393                   ; 0x6393 <dials+0x18f>
    3bd5: 9c 95 63     	stz	$6395                   ; 0x6395 <dials+0x191>
    3bd8: 9c 97 63     	stz	$6397                   ; 0x6397 <dials+0x193>
    3bdb: 9c 98 63     	stz	$6398                   ; 0x6398 <dials+0x194>
    3bde: 9c 99 63     	stz	$6399                   ; 0x6399 <dials+0x195>
    3be1: 9c 9a 63     	stz	$639a                   ; 0x639a <dials+0x196>
    3be4: 9c 9b 63     	stz	$639b                   ; 0x639b <dials+0x197>
    3be7: 8c 9d 63     	sty	$639d                   ; 0x639d <dials+0x199>
    3bea: 9c 9e 63     	stz	$639e                   ; 0x639e <dials+0x19a>
    3bed: 9c 9f 63     	stz	$639f                   ; 0x639f <dials+0x19b>
    3bf0: 9c a1 63     	stz	$63a1                   ; 0x63a1 <dials+0x19d>
    3bf3: 9c a2 63     	stz	$63a2                   ; 0x63a2 <dials+0x19e>
    3bf6: 9c a3 63     	stz	$63a3                   ; 0x63a3 <dials+0x19f>
    3bf9: 9c a4 63     	stz	$63a4                   ; 0x63a4 <dials+0x1a0>
    3bfc: 8e a5 63     	stx	$63a5                   ; 0x63a5 <dials+0x1a1>
    3bff: 85 15        	sta	$15                     ; 0x2015 <f256main+0x1738>
    3c01: a0 04        	ldy	#$4
    3c03: b1 12        	lda	($12),y                 ; 0x2012 <f256main+0x1735>
    3c05: 85 12        	sta	$12                     ; 0x2012 <f256main+0x1735>
    3c07: a0 01        	ldy	#$1
    3c09: b1 14        	lda	($14),y                 ; 0x2014 <f256main+0x1737>
    3c0b: 85 13        	sta	$13                     ; 0x2013 <f256main+0x1736>
    3c0d: a0 09        	ldy	#$9
    3c0f: b1 12        	lda	($12),y                 ; 0x2012 <f256main+0x1735>
    3c11: 8d ab 63     	sta	$63ab                   ; 0x63ab <dials+0x1a7>
    3c14: 9c ac 63     	stz	$63ac                   ; 0x63ac <dials+0x1a8>
    3c17: 8e ad 63     	stx	$63ad                   ; 0x63ad <dials+0x1a9>
    3c1a: 9c ae 63     	stz	$63ae                   ; 0x63ae <dials+0x1aa>
    3c1d: 9c af 63     	stz	$63af                   ; 0x63af <dials+0x1ab>
    3c20: 9c b0 63     	stz	$63b0                   ; 0x63b0 <dials+0x1ac>
    3c23: 9c b1 63     	stz	$63b1                   ; 0x63b1 <dials+0x1ad>
    3c26: 9c b2 63     	stz	$63b2                   ; 0x63b2 <dials+0x1ae>
    3c29: 9c b3 63     	stz	$63b3                   ; 0x63b3 <dials+0x1af>
    3c2c: a2 04        	ldx	#$4
    3c2e: 8e a9 63     	stx	$63a9                   ; 0x63a9 <dials+0x1a5>
    3c31: 9c aa 63     	stz	$63aa                   ; 0x63aa <dials+0x1a6>
    3c34: a2 6c        	ldx	#$6c
    3c36: 86 12        	stx	$12                     ; 0x2012 <f256main+0x1735>
    3c38: a2 63        	ldx	#$63
    3c3a: 86 13        	stx	$13                     ; 0x2013 <f256main+0x1736>
    3c3c: 20 3d 3f     	jsr	$3f3d <updateDial>
    3c3f: a0 00        	ldy	#$0
    3c41: b1 10        	lda	($10),y                 ; 0x2010 <f256main+0x1733>
    3c43: 85 29        	sta	$29                     ; 0x2029 <f256main+0x174c>
    3c45: fa           	plx
    3c46: 86 27        	stx	$27                     ; 0x2027 <f256main+0x174a>
    3c48: fa           	plx
    3c49: 86 26        	stx	$26                     ; 0x2026 <f256main+0x1749>
    3c4b: fa           	plx
    3c4c: 86 25        	stx	$25                     ; 0x2025 <f256main+0x1748>
    3c4e: fa           	plx
    3c4f: 86 24        	stx	$24                     ; 0x2024 <f256main+0x1747>
    3c51: 18           	clc
    3c52: a5 10        	lda	$10                     ; 0x2010 <f256main+0x1733>
    3c54: 69 02        	adc	#$2
    3c56: 85 10        	sta	$10                     ; 0x2010 <f256main+0x1733>
    3c58: a5 11        	lda	$11                     ; 0x2011 <f256main+0x1734>
    3c5a: 69 00        	adc	#$0
    3c5c: 85 11        	sta	$11                     ; 0x2011 <f256main+0x1734>
    3c5e: 60           	rts

00003c5f <bitmapClear>:
    3c5f: a2 00        	ldx	#$0
    3c61: a0 00        	ldy	#$0
    3c63: 84 12        	sty	$12                     ; 0x2012 <f256main+0x1735>
    3c65: a0 e0        	ldy	#$e0
    3c67: 84 13        	sty	$13                     ; 0x2013 <f256main+0x1736>
    3c69: a9 01        	lda	#$1
    3c6b: 2d 95 5f     	and	$5f95                   ; 0x5f95 <_active>
    3c6e: 0a           	asl
    3c6f: 0a           	asl
    3c70: a8           	tay
    3c71: b9 8a 5f     	lda	$5f8a,y                 ; 0x5f8a <_BITMAP_BASE+0x1>
    3c74: 48           	pha
    3c75: b9 8b 5f     	lda	$5f8b,y                 ; 0x5f8b <_BITMAP_BASE+0x2>
    3c78: a8           	tay
    3c79: 68           	pla
    3c7a: 84 14        	sty	$14                     ; 0x2014 <f256main+0x1737>
    3c7c: 0a           	asl
    3c7d: 26 14        	rol	$14                     ; 0x2014 <f256main+0x1737>
    3c7f: 0a           	asl
    3c80: 26 14        	rol	$14                     ; 0x2014 <f256main+0x1737>
    3c82: 0a           	asl
    3c83: a5 14        	lda	$14                     ; 0x2014 <f256main+0x1737>
    3c85: 2a           	rol
    3c86: a4 0f        	ldy	$f                      ; 0x200f <f256main+0x1732>
    3c88: 84 18        	sty	$18                     ; 0x2018 <f256main+0x173b>
    3c8a: 78           	sei
    3c8b: 85 19        	sta	$19                     ; 0x2019 <f256main+0x173c>
    3c8d: 85 0f        	sta	$f                      ; 0x200f <f256main+0x1732>
    3c8f: ad 96 5f     	lda	$5f96                   ; 0x5f96 <_color>
    3c92: a0 20        	ldy	#$20
    3c94: 48           	pha
    3c95: a9 00        	lda	#$0
    3c97: 85 14        	sta	$14                     ; 0x2014 <f256main+0x1737>
    3c99: a9 e0        	lda	#$e0
    3c9b: 85 15        	sta	$15                     ; 0x2015 <f256main+0x1738>
    3c9d: 68           	pla
    3c9e: 64 16        	stz	$16                     ; 0x2016 <f256main+0x1739>
    3ca0: 84 17        	sty	$17                     ; 0x2017 <f256main+0x173a>
    3ca2: 92 14        	sta	($14)                   ; 0x2014 <f256main+0x1737>
    3ca4: a0 ff        	ldy	#$ff
    3ca6: c6 16        	dec	$16                     ; 0x2016 <f256main+0x1739>
    3ca8: c4 16        	cpy	$16                     ; 0x2016 <f256main+0x1739>
    3caa: d0 02        	bne	$3cae <bitmapClear+0x4f>
    3cac: c6 17        	dec	$17                     ; 0x2017 <f256main+0x173a>
    3cae: e6 14        	inc	$14                     ; 0x2014 <f256main+0x1737>
    3cb0: d0 02        	bne	$3cb4 <bitmapClear+0x55>
    3cb2: e6 15        	inc	$15                     ; 0x2015 <f256main+0x1738>
    3cb4: a4 17        	ldy	$17                     ; 0x2017 <f256main+0x173a>
    3cb6: d0 ea        	bne	$3ca2 <bitmapClear+0x43>
    3cb8: a4 16        	ldy	$16                     ; 0x2016 <f256main+0x1739>
    3cba: d0 e6        	bne	$3ca2 <bitmapClear+0x43>
    3cbc: a5 19        	lda	$19                     ; 0x2019 <f256main+0x173c>
    3cbe: 1a           	inc
    3cbf: e8           	inx
    3cc0: e0 09        	cpx	#$9
    3cc2: d0 c7        	bne	$3c8b <bitmapClear+0x2c>
    3cc4: 85 0f        	sta	$f                      ; 0x200f <f256main+0x1732>
    3cc6: ad 96 5f     	lda	$5f96                   ; 0x5f96 <_color>
    3cc9: a0 14        	ldy	#$14
    3ccb: a2 00        	ldx	#$0
    3ccd: 84 14        	sty	$14                     ; 0x2014 <f256main+0x1737>
    3ccf: 92 12        	sta	($12)                   ; 0x2012 <f256main+0x1735>
    3cd1: ca           	dex
    3cd2: e0 ff        	cpx	#$ff
    3cd4: d0 02        	bne	$3cd8 <bitmapClear+0x79>
    3cd6: c6 14        	dec	$14                     ; 0x2014 <f256main+0x1737>
    3cd8: e6 12        	inc	$12                     ; 0x2012 <f256main+0x1735>
    3cda: d0 02        	bne	$3cde <bitmapClear+0x7f>
    3cdc: e6 13        	inc	$13                     ; 0x2013 <f256main+0x1736>
    3cde: a4 14        	ldy	$14                     ; 0x2014 <f256main+0x1737>
    3ce0: d0 ed        	bne	$3ccf <bitmapClear+0x70>
    3ce2: e0 00        	cpx	#$0
    3ce4: d0 e9        	bne	$3ccf <bitmapClear+0x70>
    3ce6: a6 18        	ldx	$18                     ; 0x2018 <f256main+0x173b>
    3ce8: 86 0f        	stx	$f                      ; 0x200f <f256main+0x1732>
    3cea: 58           	cli
    3ceb: 60           	rts

00003cec <spriteDefine>:
    3cec: a8           	tay
    3ced: 86 16        	stx	$16                     ; 0x2016 <f256main+0x1739>
    3cef: a6 13        	ldx	$13                     ; 0x2013 <f256main+0x1736>
    3cf1: a5 15        	lda	$15                     ; 0x2015 <f256main+0x1738>
    3cf3: 18           	clc
    3cf4: 69 f8        	adc	#$f8
    3cf6: 85 13        	sta	$13                     ; 0x2013 <f256main+0x1736>
    3cf8: 46 13        	lsr	$13                     ; 0x2013 <f256main+0x1736>
    3cfa: 6a           	ror
    3cfb: 85 13        	sta	$13                     ; 0x2013 <f256main+0x1736>
    3cfd: 46 13        	lsr	$13                     ; 0x2013 <f256main+0x1736>
    3cff: 6a           	ror
    3d00: 85 13        	sta	$13                     ; 0x2013 <f256main+0x1736>
    3d02: 46 13        	lsr	$13                     ; 0x2013 <f256main+0x1736>
    3d04: 6a           	ror
    3d05: c9 03        	cmp	#$3
    3d07: 64 17        	stz	$17                     ; 0x2017 <f256main+0x173a>
    3d09: b0 0e        	bcs	$3d19 <spriteDefine+0x2d>
    3d0b: 0a           	asl
    3d0c: 0a           	asl
    3d0d: 0a           	asl
    3d0e: 0a           	asl
    3d0f: 0a           	asl
    3d10: 85 13        	sta	$13                     ; 0x2013 <f256main+0x1736>
    3d12: a9 60        	lda	#$60
    3d14: 38           	sec
    3d15: e5 13        	sbc	$13                     ; 0x2013 <f256main+0x1736>
    3d17: 85 17        	sta	$17                     ; 0x2017 <f256main+0x173a>
    3d19: 98           	tya
    3d1a: 0a           	asl
    3d1b: 64 13        	stz	$13                     ; 0x2013 <f256main+0x1736>
    3d1d: 26 13        	rol	$13                     ; 0x2013 <f256main+0x1736>
    3d1f: 0a           	asl
    3d20: 26 13        	rol	$13                     ; 0x2013 <f256main+0x1736>
    3d22: 0a           	asl
    3d23: 26 13        	rol	$13                     ; 0x2013 <f256main+0x1736>
    3d25: 85 18        	sta	$18                     ; 0x2018 <f256main+0x173b>
    3d27: 18           	clc
    3d28: 69 00        	adc	#$0
    3d2a: 85 19        	sta	$19                     ; 0x2019 <f256main+0x173c>
    3d2c: a5 13        	lda	$13                     ; 0x2013 <f256main+0x1736>
    3d2e: 69 d9        	adc	#$d9
    3d30: 5a           	phy
    3d31: a4 19        	ldy	$19                     ; 0x2019 <f256main+0x173c>
    3d33: 84 14        	sty	$14                     ; 0x2014 <f256main+0x1737>
    3d35: 7a           	ply
    3d36: 85 15        	sta	$15                     ; 0x2015 <f256main+0x1738>
    3d38: a5 17        	lda	$17                     ; 0x2017 <f256main+0x173a>
    3d3a: 99 99 5f     	sta	$5f99,y                 ; 0x5f99 <_spriteCtl>
    3d3d: 92 14        	sta	($14)                   ; 0x2014 <f256main+0x1737>
    3d3f: a5 18        	lda	$18                     ; 0x2018 <f256main+0x173b>
    3d41: 18           	clc
    3d42: 69 01        	adc	#$1
    3d44: 85 14        	sta	$14                     ; 0x2014 <f256main+0x1737>
    3d46: a5 13        	lda	$13                     ; 0x2013 <f256main+0x1736>
    3d48: 69 d9        	adc	#$d9
    3d4a: 85 15        	sta	$15                     ; 0x2015 <f256main+0x1738>
    3d4c: a5 16        	lda	$16                     ; 0x2016 <f256main+0x1739>
    3d4e: 92 14        	sta	($14)                   ; 0x2014 <f256main+0x1737>
    3d50: a5 18        	lda	$18                     ; 0x2018 <f256main+0x173b>
    3d52: 18           	clc
    3d53: 69 02        	adc	#$2
    3d55: 85 14        	sta	$14                     ; 0x2014 <f256main+0x1737>
    3d57: a5 13        	lda	$13                     ; 0x2013 <f256main+0x1736>
    3d59: 69 d9        	adc	#$d9
    3d5b: 85 15        	sta	$15                     ; 0x2015 <f256main+0x1738>
    3d5d: 18           	clc
    3d5e: a5 12        	lda	$12                     ; 0x2012 <f256main+0x1735>
    3d60: 92 14        	sta	($14)                   ; 0x2014 <f256main+0x1737>
    3d62: a5 18        	lda	$18                     ; 0x2018 <f256main+0x173b>
    3d64: 69 03        	adc	#$3
    3d66: 85 12        	sta	$12                     ; 0x2012 <f256main+0x1735>
    3d68: a5 13        	lda	$13                     ; 0x2013 <f256main+0x1736>
    3d6a: 69 d9        	adc	#$d9
    3d6c: 85 13        	sta	$13                     ; 0x2013 <f256main+0x1736>
    3d6e: 8a           	txa
    3d6f: 92 12        	sta	($12)                   ; 0x2012 <f256main+0x1735>
    3d71: 60           	rts

00003d72 <updateRadioB>:
    3d72: a6 12        	ldx	$12                     ; 0x2012 <f256main+0x1735>
    3d74: 86 d0        	stx	$d0                     ; 0x20d0 <f256main+0x17f3>
    3d76: a6 13        	ldx	$13                     ; 0x2013 <f256main+0x1736>
    3d78: 86 d1        	stx	$d1                     ; 0x20d1 <f256main+0x17f4>
    3d7a: a0 06        	ldy	#$6
    3d7c: b1 12        	lda	($12),y                 ; 0x2012 <f256main+0x1735>
    3d7e: 85 d2        	sta	$d2                     ; 0x20d2 <f256main+0x17f5>
    3d80: a0 0d        	ldy	#$d
    3d82: b1 12        	lda	($12),y                 ; 0x2012 <f256main+0x1735>
    3d84: 85 12        	sta	$12                     ; 0x2012 <f256main+0x1735>
    3d86: 64 13        	stz	$13                     ; 0x2013 <f256main+0x1736>
    3d88: a2 00        	ldx	#$0
    3d8a: 85 d3        	sta	$d3                     ; 0x20d3 <f256main+0x17f6>
    3d8c: 20 bd 59     	jsr	$59bd <__mulhi3>
    3d8f: 85 13        	sta	$13                     ; 0x2013 <f256main+0x1736>
    3d91: 86 12        	stx	$12                     ; 0x2012 <f256main+0x1735>
    3d93: a5 d0        	lda	$d0                     ; 0x20d0 <f256main+0x17f3>
    3d95: a0 08        	ldy	#$8
    3d97: 18           	clc
    3d98: 69 08        	adc	#$8
    3d9a: 85 14        	sta	$14                     ; 0x2014 <f256main+0x1737>
    3d9c: a5 d1        	lda	$d1                     ; 0x20d1 <f256main+0x17f4>
    3d9e: 69 00        	adc	#$0
    3da0: 85 15        	sta	$15                     ; 0x2015 <f256main+0x1738>
    3da2: b1 d0        	lda	($d0),y                 ; 0x20d0 <f256main+0x17f3>
    3da4: aa           	tax
    3da5: a0 01        	ldy	#$1
    3da7: b1 14        	lda	($14),y                 ; 0x2014 <f256main+0x1737>
    3da9: 85 16        	sta	$16                     ; 0x2016 <f256main+0x1739>
    3dab: c8           	iny
    3dac: b1 14        	lda	($14),y                 ; 0x2014 <f256main+0x1737>
    3dae: 85 17        	sta	$17                     ; 0x2017 <f256main+0x173a>
    3db0: c8           	iny
    3db1: b1 14        	lda	($14),y                 ; 0x2014 <f256main+0x1737>
    3db3: 85 18        	sta	$18                     ; 0x2018 <f256main+0x173b>
    3db5: a5 d2        	lda	$d2                     ; 0x20d2 <f256main+0x17f5>
    3db7: f0 18        	beq	$3dd1 <updateRadioB+0x5f>
    3db9: 18           	clc
    3dba: 8a           	txa
    3dbb: 65 13        	adc	$13                     ; 0x2013 <f256main+0x1736>
    3dbd: 85 14        	sta	$14                     ; 0x2014 <f256main+0x1737>
    3dbf: a5 16        	lda	$16                     ; 0x2016 <f256main+0x1739>
    3dc1: 65 12        	adc	$12                     ; 0x2012 <f256main+0x1735>
    3dc3: 85 15        	sta	$15                     ; 0x2015 <f256main+0x1738>
    3dc5: a5 17        	lda	$17                     ; 0x2017 <f256main+0x173a>
    3dc7: 69 00        	adc	#$0
    3dc9: 85 16        	sta	$16                     ; 0x2016 <f256main+0x1739>
    3dcb: a5 18        	lda	$18                     ; 0x2018 <f256main+0x173b>
    3dcd: 69 00        	adc	#$0
    3dcf: 80 16        	bra	$3de7 <updateRadioB+0x75>
    3dd1: 38           	sec
    3dd2: 8a           	txa
    3dd3: e5 13        	sbc	$13                     ; 0x2013 <f256main+0x1736>
    3dd5: 85 14        	sta	$14                     ; 0x2014 <f256main+0x1737>
    3dd7: a5 16        	lda	$16                     ; 0x2016 <f256main+0x1739>
    3dd9: e5 12        	sbc	$12                     ; 0x2012 <f256main+0x1735>
    3ddb: 85 15        	sta	$15                     ; 0x2015 <f256main+0x1738>
    3ddd: a5 17        	lda	$17                     ; 0x2017 <f256main+0x173a>
    3ddf: e9 00        	sbc	#$0
    3de1: 85 16        	sta	$16                     ; 0x2016 <f256main+0x1739>
    3de3: a5 18        	lda	$18                     ; 0x2018 <f256main+0x173b>
    3de5: e9 00        	sbc	#$0
    3de7: 85 17        	sta	$17                     ; 0x2017 <f256main+0x173a>
    3de9: a5 d0        	lda	$d0                     ; 0x20d0 <f256main+0x17f3>
    3deb: 18           	clc
    3dec: 69 08        	adc	#$8
    3dee: 85 12        	sta	$12                     ; 0x2012 <f256main+0x1735>
    3df0: a5 d1        	lda	$d1                     ; 0x20d1 <f256main+0x17f4>
    3df2: 69 00        	adc	#$0
    3df4: a0 08        	ldy	#$8
    3df6: a6 12        	ldx	$12                     ; 0x2012 <f256main+0x1735>
    3df8: 86 18        	stx	$18                     ; 0x2018 <f256main+0x173b>
    3dfa: 85 19        	sta	$19                     ; 0x2019 <f256main+0x173c>
    3dfc: a5 14        	lda	$14                     ; 0x2014 <f256main+0x1737>
    3dfe: 91 d0        	sta	($d0),y                 ; 0x20d0 <f256main+0x17f3>
    3e00: a6 14        	ldx	$14                     ; 0x2014 <f256main+0x1737>
    3e02: a0 01        	ldy	#$1
    3e04: a5 15        	lda	$15                     ; 0x2015 <f256main+0x1738>
    3e06: 91 18        	sta	($18),y                 ; 0x2018 <f256main+0x173b>
    3e08: 85 12        	sta	$12                     ; 0x2012 <f256main+0x1735>
    3e0a: c8           	iny
    3e0b: a5 16        	lda	$16                     ; 0x2016 <f256main+0x1739>
    3e0d: 91 18        	sta	($18),y                 ; 0x2018 <f256main+0x173b>
    3e0f: 85 13        	sta	$13                     ; 0x2013 <f256main+0x1736>
    3e11: c8           	iny
    3e12: a5 17        	lda	$17                     ; 0x2017 <f256main+0x173a>
    3e14: 91 18        	sta	($18),y                 ; 0x2018 <f256main+0x173b>
    3e16: 85 14        	sta	$14                     ; 0x2014 <f256main+0x1737>
    3e18: b2 d0        	lda	($d0)                   ; 0x20d0 <f256main+0x17f3>
    3e1a: a4 d3        	ldy	$d3                     ; 0x20d3 <f256main+0x17f6>
    3e1c: 84 15        	sty	$15                     ; 0x2015 <f256main+0x1738>
    3e1e: 20 ec 3c     	jsr	$3cec <spriteDefine>
    3e21: b2 d0        	lda	($d0)                   ; 0x20d0 <f256main+0x17f3>
    3e23: aa           	tax
    3e24: 0a           	asl
    3e25: 64 12        	stz	$12                     ; 0x2012 <f256main+0x1735>
    3e27: 26 12        	rol	$12                     ; 0x2012 <f256main+0x1735>
    3e29: 0a           	asl
    3e2a: 26 12        	rol	$12                     ; 0x2012 <f256main+0x1735>
    3e2c: 0a           	asl
    3e2d: 26 12        	rol	$12                     ; 0x2012 <f256main+0x1735>
    3e2f: 18           	clc
    3e30: 69 00        	adc	#$0
    3e32: a8           	tay
    3e33: a5 12        	lda	$12                     ; 0x2012 <f256main+0x1735>
    3e35: 69 d9        	adc	#$d9
    3e37: 84 12        	sty	$12                     ; 0x2012 <f256main+0x1735>
    3e39: 85 13        	sta	$13                     ; 0x2013 <f256main+0x1736>
    3e3b: a9 01        	lda	#$1
    3e3d: 1d 99 5f     	ora	$5f99,x                 ; 0x5f99 <_spriteCtl>
    3e40: 92 12        	sta	($12)                   ; 0x2012 <f256main+0x1735>
    3e42: 60           	rts

00003e43 <setRadioB>:
    3e43: 86 15        	stx	$15                     ; 0x2015 <f256main+0x1738>
    3e45: a6 14        	ldx	$14                     ; 0x2014 <f256main+0x1737>
    3e47: 86 cf        	stx	$cf                     ; 0x20cf <f256main+0x17f2>
    3e49: a6 12        	ldx	$12                     ; 0x2012 <f256main+0x1735>
    3e4b: 86 cc        	stx	$cc                     ; 0x20cc <f256main+0x17ef>
    3e4d: a6 13        	ldx	$13                     ; 0x2013 <f256main+0x1736>
    3e4f: 86 cd        	stx	$cd                     ; 0x20cd <f256main+0x17f0>
    3e51: a0 13        	ldy	#$13
    3e53: 91 12        	sta	($12),y                 ; 0x2012 <f256main+0x1735>
    3e55: c8           	iny
    3e56: a5 15        	lda	$15                     ; 0x2015 <f256main+0x1738>
    3e58: 91 12        	sta	($12),y                 ; 0x2012 <f256main+0x1735>
    3e5a: b2 12        	lda	($12)                   ; 0x2012 <f256main+0x1735>
    3e5c: 85 16        	sta	$16                     ; 0x2016 <f256main+0x1739>
    3e5e: 18           	clc
    3e5f: a5 cc        	lda	$cc                     ; 0x20cc <f256main+0x17ef>
    3e61: 69 08        	adc	#$8
    3e63: 85 18        	sta	$18                     ; 0x2018 <f256main+0x173b>
    3e65: a5 cd        	lda	$cd                     ; 0x20cd <f256main+0x17f0>
    3e67: 69 00        	adc	#$0
    3e69: a0 08        	ldy	#$8
    3e6b: 64 ce        	stz	$ce                     ; 0x20ce <f256main+0x17f1>
    3e6d: 85 19        	sta	$19                     ; 0x2019 <f256main+0x173c>
    3e6f: b1 12        	lda	($12),y                 ; 0x2012 <f256main+0x1735>
    3e71: aa           	tax
    3e72: a0 02        	ldy	#$2
    3e74: b1 18        	lda	($18),y                 ; 0x2018 <f256main+0x173b>
    3e76: 85 13        	sta	$13                     ; 0x2013 <f256main+0x1736>
    3e78: a0 0d        	ldy	#$d
    3e7a: b1 cc        	lda	($cc),y                 ; 0x20cc <f256main+0x17ef>
    3e7c: 85 15        	sta	$15                     ; 0x2015 <f256main+0x1738>
    3e7e: a0 01        	ldy	#$1
    3e80: b1 18        	lda	($18),y                 ; 0x2018 <f256main+0x173b>
    3e82: 85 12        	sta	$12                     ; 0x2012 <f256main+0x1735>
    3e84: a0 03        	ldy	#$3
    3e86: b1 18        	lda	($18),y                 ; 0x2018 <f256main+0x173b>
    3e88: 85 14        	sta	$14                     ; 0x2014 <f256main+0x1737>
    3e8a: a5 16        	lda	$16                     ; 0x2016 <f256main+0x1739>
    3e8c: 20 ec 3c     	jsr	$3cec <spriteDefine>
    3e8f: b2 cc        	lda	($cc)                   ; 0x20cc <f256main+0x17ef>
    3e91: aa           	tax
    3e92: 18           	clc
    3e93: a5 cc        	lda	$cc                     ; 0x20cc <f256main+0x17ef>
    3e95: 69 03        	adc	#$3
    3e97: 85 12        	sta	$12                     ; 0x2012 <f256main+0x1735>
    3e99: a5 cd        	lda	$cd                     ; 0x20cd <f256main+0x17f0>
    3e9b: 69 00        	adc	#$0
    3e9d: 85 13        	sta	$13                     ; 0x2013 <f256main+0x1736>
    3e9f: 86 1a        	stx	$1a                     ; 0x201a <f256main+0x173d>
    3ea1: 06 1a        	asl	$1a                     ; 0x201a <f256main+0x173d>
    3ea3: 64 18        	stz	$18                     ; 0x2018 <f256main+0x173b>
    3ea5: 26 18        	rol	$18                     ; 0x2018 <f256main+0x173b>
    3ea7: 06 1a        	asl	$1a                     ; 0x201a <f256main+0x173d>
    3ea9: 26 18        	rol	$18                     ; 0x2018 <f256main+0x173b>
    3eab: 06 1a        	asl	$1a                     ; 0x201a <f256main+0x173d>
    3ead: 26 18        	rol	$18                     ; 0x2018 <f256main+0x173b>
    3eaf: a5 1a        	lda	$1a                     ; 0x201a <f256main+0x173d>
    3eb1: 18           	clc
    3eb2: 69 04        	adc	#$4
    3eb4: 85 14        	sta	$14                     ; 0x2014 <f256main+0x1737>
    3eb6: a5 18        	lda	$18                     ; 0x2018 <f256main+0x173b>
    3eb8: 69 d9        	adc	#$d9
    3eba: a4 cc        	ldy	$cc                     ; 0x20cc <f256main+0x17ef>
    3ebc: 84 16        	sty	$16                     ; 0x2016 <f256main+0x1739>
    3ebe: a4 cd        	ldy	$cd                     ; 0x20cd <f256main+0x17f0>
    3ec0: 84 17        	sty	$17                     ; 0x2017 <f256main+0x173a>
    3ec2: e6 16        	inc	$16                     ; 0x2016 <f256main+0x1739>
    3ec4: d0 02        	bne	$3ec8 <setRadioB+0x85>
    3ec6: e6 17        	inc	$17                     ; 0x2017 <f256main+0x173a>
    3ec8: 85 15        	sta	$15                     ; 0x2015 <f256main+0x1738>
    3eca: a0 01        	ldy	#$1
    3ecc: b1 cc        	lda	($cc),y                 ; 0x20cc <f256main+0x17ef>
    3ece: 85 1b        	sta	$1b                     ; 0x201b <f256main+0x173e>
    3ed0: a0 03        	ldy	#$3
    3ed2: b1 cc        	lda	($cc),y                 ; 0x20cc <f256main+0x17ef>
    3ed4: 85 19        	sta	$19                     ; 0x2019 <f256main+0x173c>
    3ed6: a0 01        	ldy	#$1
    3ed8: b1 16        	lda	($16),y                 ; 0x2016 <f256main+0x1739>
    3eda: 85 17        	sta	$17                     ; 0x2017 <f256main+0x173a>
    3edc: b1 12        	lda	($12),y                 ; 0x2012 <f256main+0x1735>
    3ede: 85 16        	sta	$16                     ; 0x2016 <f256main+0x1739>
    3ee0: a5 1b        	lda	$1b                     ; 0x201b <f256main+0x173e>
    3ee2: 92 14        	sta	($14)                   ; 0x2014 <f256main+0x1737>
    3ee4: a5 17        	lda	$17                     ; 0x2017 <f256main+0x173a>
    3ee6: 91 14        	sta	($14),y                 ; 0x2014 <f256main+0x1737>
    3ee8: a5 1a        	lda	$1a                     ; 0x201a <f256main+0x173d>
    3eea: 18           	clc
    3eeb: 69 06        	adc	#$6
    3eed: 85 12        	sta	$12                     ; 0x2012 <f256main+0x1735>
    3eef: a5 18        	lda	$18                     ; 0x2018 <f256main+0x173b>
    3ef1: 85 14        	sta	$14                     ; 0x2014 <f256main+0x1737>
    3ef3: a5 18        	lda	$18                     ; 0x2018 <f256main+0x173b>
    3ef5: 69 d9        	adc	#$d9
    3ef7: 85 13        	sta	$13                     ; 0x2013 <f256main+0x1736>
    3ef9: a5 19        	lda	$19                     ; 0x2019 <f256main+0x173c>
    3efb: 92 12        	sta	($12)                   ; 0x2012 <f256main+0x1735>
    3efd: a5 16        	lda	$16                     ; 0x2016 <f256main+0x1739>
    3eff: 91 12        	sta	($12),y                 ; 0x2012 <f256main+0x1735>
    3f01: a4 cf        	ldy	$cf                     ; 0x20cf <f256main+0x17f2>
    3f03: f0 23        	beq	$3f28 <setRadioB+0xe5>
    3f05: a0 06        	ldy	#$6
    3f07: a9 01        	lda	#$1
    3f09: 91 cc        	sta	($cc),y                 ; 0x20cc <f256main+0x17ef>
    3f0b: a6 cc        	ldx	$cc                     ; 0x20cc <f256main+0x17ef>
    3f0d: 86 12        	stx	$12                     ; 0x2012 <f256main+0x1735>
    3f0f: a6 cd        	ldx	$cd                     ; 0x20cd <f256main+0x17f0>
    3f11: 86 13        	stx	$13                     ; 0x2013 <f256main+0x1736>
    3f13: 20 72 3d     	jsr	$3d72 <updateRadioB>
    3f16: b2 cc        	lda	($cc)                   ; 0x20cc <f256main+0x17ef>
    3f18: aa           	tax
    3f19: 0a           	asl
    3f1a: 26 ce        	rol	$ce                     ; 0x20ce <f256main+0x17f1>
    3f1c: 0a           	asl
    3f1d: 26 ce        	rol	$ce                     ; 0x20ce <f256main+0x17f1>
    3f1f: 0a           	asl
    3f20: 85 1a        	sta	$1a                     ; 0x201a <f256main+0x173d>
    3f22: 26 ce        	rol	$ce                     ; 0x20ce <f256main+0x17f1>
    3f24: a4 ce        	ldy	$ce                     ; 0x20ce <f256main+0x17f1>
    3f26: 84 14        	sty	$14                     ; 0x2014 <f256main+0x1737>
    3f28: 18           	clc
    3f29: a5 1a        	lda	$1a                     ; 0x201a <f256main+0x173d>
    3f2b: 69 00        	adc	#$0
    3f2d: 85 12        	sta	$12                     ; 0x2012 <f256main+0x1735>
    3f2f: a5 14        	lda	$14                     ; 0x2014 <f256main+0x1737>
    3f31: 69 d9        	adc	#$d9
    3f33: 85 13        	sta	$13                     ; 0x2013 <f256main+0x1736>
    3f35: a9 01        	lda	#$1
    3f37: 1d 99 5f     	ora	$5f99,x                 ; 0x5f99 <_spriteCtl>
    3f3a: 92 12        	sta	($12)                   ; 0x2012 <f256main+0x1735>
    3f3c: 60           	rts

00003f3d <updateDial>:
    3f3d: 18           	clc
    3f3e: a5 10        	lda	$10                     ; 0x2010 <f256main+0x1733>
    3f40: 69 ff        	adc	#$ff
    3f42: 85 10        	sta	$10                     ; 0x2010 <f256main+0x1733>
    3f44: a5 11        	lda	$11                     ; 0x2011 <f256main+0x1734>
    3f46: 69 ff        	adc	#$ff
    3f48: 85 11        	sta	$11                     ; 0x2011 <f256main+0x1734>
    3f4a: a6 24        	ldx	$24                     ; 0x2024 <f256main+0x1747>
    3f4c: da           	phx
    3f4d: a6 25        	ldx	$25                     ; 0x2025 <f256main+0x1748>
    3f4f: da           	phx
    3f50: a6 26        	ldx	$26                     ; 0x2026 <f256main+0x1749>
    3f52: da           	phx
    3f53: a6 28        	ldx	$28                     ; 0x2028 <f256main+0x174b>
    3f55: da           	phx
    3f56: a6 12        	ldx	$12                     ; 0x2012 <f256main+0x1735>
    3f58: 86 24        	stx	$24                     ; 0x2024 <f256main+0x1747>
    3f5a: a6 13        	ldx	$13                     ; 0x2013 <f256main+0x1736>
    3f5c: 86 25        	stx	$25                     ; 0x2025 <f256main+0x1748>
    3f5e: a0 3f        	ldy	#$3f
    3f60: b1 12        	lda	($12),y                 ; 0x2012 <f256main+0x1735>
    3f62: aa           	tax
    3f63: c8           	iny
    3f64: b1 12        	lda	($12),y                 ; 0x2012 <f256main+0x1735>
    3f66: 86 26        	stx	$26                     ; 0x2026 <f256main+0x1749>
    3f68: 86 13        	stx	$13                     ; 0x2013 <f256main+0x1736>
    3f6a: c5 13        	cmp	$13                     ; 0x2013 <f256main+0x1736>
    3f6c: 64 13        	stz	$13                     ; 0x2013 <f256main+0x1736>
    3f6e: 48           	pha
    3f6f: a9 00        	lda	#$0
    3f71: a8           	tay
    3f72: 91 10        	sta	($10),y                 ; 0x2010 <f256main+0x1733>
    3f74: 68           	pla
    3f75: b0 41        	bcs	$3fb8 <updateDial+0x7b>
    3f77: 85 16        	sta	$16                     ; 0x2016 <f256main+0x1739>
    3f79: a0 41        	ldy	#$41
    3f7b: b1 24        	lda	($24),y                 ; 0x2024 <f256main+0x1747>
    3f7d: 85 13        	sta	$13                     ; 0x2013 <f256main+0x1736>
    3f7f: e4 13        	cpx	$13                     ; 0x2013 <f256main+0x1736>
    3f81: a2 07        	ldx	#$7
    3f83: 48           	pha
    3f84: 8a           	txa
    3f85: a0 00        	ldy	#$0
    3f87: 91 10        	sta	($10),y                 ; 0x2010 <f256main+0x1733>
    3f89: 68           	pla
    3f8a: b0 2c        	bcs	$3fb8 <updateDial+0x7b>
    3f8c: 38           	sec
    3f8d: e5 16        	sbc	$16                     ; 0x2016 <f256main+0x1739>
    3f8f: 85 12        	sta	$12                     ; 0x2012 <f256main+0x1735>
    3f91: a9 00        	lda	#$0
    3f93: e9 00        	sbc	#$0
    3f95: e6 12        	inc	$12                     ; 0x2012 <f256main+0x1735>
    3f97: d0 01        	bne	$3f9a <updateDial+0x5d>
    3f99: 1a           	inc
    3f9a: 4a           	lsr
    3f9b: 66 12        	ror	$12                     ; 0x2012 <f256main+0x1735>
    3f9d: 4a           	lsr
    3f9e: 66 12        	ror	$12                     ; 0x2012 <f256main+0x1735>
    3fa0: 4a           	lsr
    3fa1: 66 12        	ror	$12                     ; 0x2012 <f256main+0x1735>
    3fa3: a5 26        	lda	$26                     ; 0x2026 <f256main+0x1749>
    3fa5: 38           	sec
    3fa6: e5 16        	sbc	$16                     ; 0x2016 <f256main+0x1739>
    3fa8: a8           	tay
    3fa9: a9 00        	lda	#$0
    3fab: e9 00        	sbc	#$0
    3fad: 64 13        	stz	$13                     ; 0x2013 <f256main+0x1736>
    3faf: aa           	tax
    3fb0: 98           	tya
    3fb1: 20 5f 5a     	jsr	$5a5f <__udivhi3>
    3fb4: a0 00        	ldy	#$0
    3fb6: 91 10        	sta	($10),y                 ; 0x2010 <f256main+0x1733>
    3fb8: a6 26        	ldx	$26                     ; 0x2026 <f256main+0x1749>
    3fba: a0 3d        	ldy	#$3d
    3fbc: b1 24        	lda	($24),y                 ; 0x2024 <f256main+0x1747>
    3fbe: 85 12        	sta	$12                     ; 0x2012 <f256main+0x1735>
    3fc0: 30 0c        	bmi	$3fce <updateDial+0x91>
    3fc2: a0 3b        	ldy	#$3b
    3fc4: 8a           	txa
    3fc5: 31 24        	and	($24),y                 ; 0x2024 <f256main+0x1747>
    3fc7: a2 00        	ldx	#$0
    3fc9: 20 aa 59     	jsr	$59aa <__lshrhi3>
    3fcc: 80 11        	bra	$3fdf <updateDial+0xa2>
    3fce: a9 00        	lda	#$0
    3fd0: 38           	sec
    3fd1: e5 12        	sbc	$12                     ; 0x2012 <f256main+0x1735>
    3fd3: 85 12        	sta	$12                     ; 0x2012 <f256main+0x1735>
    3fd5: a0 3b        	ldy	#$3b
    3fd7: 8a           	txa
    3fd8: 31 24        	and	($24),y                 ; 0x2024 <f256main+0x1747>
    3fda: a2 00        	ldx	#$0
    3fdc: 20 97 59     	jsr	$5997 <__ashlhi3>
    3fdf: 29 0f        	and	#$f
    3fe1: a0 26        	ldy	#$26
    3fe3: 85 16        	sta	$16                     ; 0x2016 <f256main+0x1739>
    3fe5: 91 24        	sta	($24),y                 ; 0x2024 <f256main+0x1747>
    3fe7: a5 24        	lda	$24                     ; 0x2024 <f256main+0x1747>
    3fe9: 18           	clc
    3fea: 69 14        	adc	#$14
    3fec: 85 14        	sta	$14                     ; 0x2014 <f256main+0x1737>
    3fee: a5 25        	lda	$25                     ; 0x2025 <f256main+0x1748>
    3ff0: 69 00        	adc	#$0
    3ff2: a0 14        	ldy	#$14
    3ff4: 85 15        	sta	$15                     ; 0x2015 <f256main+0x1738>
    3ff6: b1 24        	lda	($24),y                 ; 0x2024 <f256main+0x1747>
    3ff8: a0 01        	ldy	#$1
    3ffa: 0a           	asl
    3ffb: 85 12        	sta	$12                     ; 0x2012 <f256main+0x1735>
    3ffd: b1 14        	lda	($14),y                 ; 0x2014 <f256main+0x1737>
    3fff: 2a           	rol
    4000: 85 13        	sta	$13                     ; 0x2013 <f256main+0x1736>
    4002: 18           	clc
    4003: a5 24        	lda	$24                     ; 0x2024 <f256main+0x1747>
    4005: 69 16        	adc	#$16
    4007: 85 14        	sta	$14                     ; 0x2014 <f256main+0x1737>
    4009: a5 25        	lda	$25                     ; 0x2025 <f256main+0x1748>
    400b: 69 00        	adc	#$0
    400d: a0 16        	ldy	#$16
    400f: 85 15        	sta	$15                     ; 0x2015 <f256main+0x1738>
    4011: b1 24        	lda	($24),y                 ; 0x2024 <f256main+0x1747>
    4013: aa           	tax
    4014: a0 01        	ldy	#$1
    4016: b1 14        	lda	($14),y                 ; 0x2014 <f256main+0x1737>
    4018: 85 14        	sta	$14                     ; 0x2014 <f256main+0x1737>
    401a: 8a           	txa
    401b: 0a           	asl
    401c: 26 14        	rol	$14                     ; 0x2014 <f256main+0x1737>
    401e: 0a           	asl
    401f: 26 14        	rol	$14                     ; 0x2014 <f256main+0x1737>
    4021: a6 14        	ldx	$14                     ; 0x2014 <f256main+0x1737>
    4023: 86 15        	stx	$15                     ; 0x2015 <f256main+0x1738>
    4025: 0a           	asl
    4026: 85 14        	sta	$14                     ; 0x2014 <f256main+0x1737>
    4028: 26 15        	rol	$15                     ; 0x2015 <f256main+0x1738>
    402a: 0a           	asl
    402b: aa           	tax
    402c: a5 15        	lda	$15                     ; 0x2015 <f256main+0x1738>
    402e: 2a           	rol
    402f: 86 17        	stx	$17                     ; 0x2017 <f256main+0x173a>
    4031: 06 17        	asl	$17                     ; 0x2017 <f256main+0x173a>
    4033: 2a           	rol
    4034: aa           	tax
    4035: 18           	clc
    4036: a5 17        	lda	$17                     ; 0x2017 <f256main+0x173a>
    4038: 65 14        	adc	$14                     ; 0x2014 <f256main+0x1737>
    403a: 85 14        	sta	$14                     ; 0x2014 <f256main+0x1737>
    403c: 8a           	txa
    403d: 65 15        	adc	$15                     ; 0x2015 <f256main+0x1738>
    403f: aa           	tax
    4040: 18           	clc
    4041: a5 14        	lda	$14                     ; 0x2014 <f256main+0x1737>
    4043: 65 12        	adc	$12                     ; 0x2012 <f256main+0x1735>
    4045: 85 12        	sta	$12                     ; 0x2012 <f256main+0x1735>
    4047: 8a           	txa
    4048: 65 13        	adc	$13                     ; 0x2013 <f256main+0x1736>
    404a: 85 13        	sta	$13                     ; 0x2013 <f256main+0x1736>
    404c: 10 04        	bpl	$4052 <updateDial+0x115>
    404e: a2 ff        	ldx	#$ff
    4050: 80 02        	bra	$4054 <updateDial+0x117>
    4052: a2 00        	ldx	#$0
    4054: 18           	clc
    4055: a5 12        	lda	$12                     ; 0x2012 <f256main+0x1735>
    4057: 69 00        	adc	#$0
    4059: 85 14        	sta	$14                     ; 0x2014 <f256main+0x1737>
    405b: a5 13        	lda	$13                     ; 0x2013 <f256main+0x1736>
    405d: 69 54        	adc	#$54
    405f: 85 13        	sta	$13                     ; 0x2013 <f256main+0x1736>
    4061: 8a           	txa
    4062: 69 01        	adc	#$1
    4064: 5a           	phy
    4065: a6 13        	ldx	$13                     ; 0x2013 <f256main+0x1736>
    4067: 86 12        	stx	$12                     ; 0x2012 <f256main+0x1735>
    4069: 06 12        	asl	$12                     ; 0x2012 <f256main+0x1735>
    406b: 2a           	rol
    406c: 06 12        	asl	$12                     ; 0x2012 <f256main+0x1735>
    406e: 2a           	rol
    406f: 06 12        	asl	$12                     ; 0x2012 <f256main+0x1735>
    4071: 2a           	rol
    4072: a6 0f        	ldx	$f                      ; 0x200f <f256main+0x1732>
    4074: 78           	sei
    4075: 85 0f        	sta	$f                      ; 0x200f <f256main+0x1732>
    4077: a5 13        	lda	$13                     ; 0x2013 <f256main+0x1736>
    4079: 09 e0        	ora	#$e0
    407b: a4 14        	ldy	$14                     ; 0x2014 <f256main+0x1737>
    407d: 84 12        	sty	$12                     ; 0x2012 <f256main+0x1735>
    407f: 7a           	ply
    4080: 85 13        	sta	$13                     ; 0x2013 <f256main+0x1736>
    4082: a5 16        	lda	$16                     ; 0x2016 <f256main+0x1739>
    4084: 92 12        	sta	($12)                   ; 0x2012 <f256main+0x1735>
    4086: a9 00        	lda	#$0
    4088: 91 12        	sta	($12),y                 ; 0x2012 <f256main+0x1735>
    408a: 86 0f        	stx	$f                      ; 0x200f <f256main+0x1732>
    408c: 58           	cli
    408d: a0 3c        	ldy	#$3c
    408f: b1 24        	lda	($24),y                 ; 0x2024 <f256main+0x1747>
    4091: d0 03        	bne	$4096 <updateDial+0x159>
    4093: 4c 6a 41     	jmp	$416a <updateDial+0x22d>
    4096: aa           	tax
    4097: a0 3e        	ldy	#$3e
    4099: b1 24        	lda	($24),y                 ; 0x2024 <f256main+0x1747>
    409b: 85 12        	sta	$12                     ; 0x2012 <f256main+0x1735>
    409d: 30 0c        	bmi	$40ab <updateDial+0x16e>
    409f: a0 3f        	ldy	#$3f
    40a1: 8a           	txa
    40a2: 31 24        	and	($24),y                 ; 0x2024 <f256main+0x1747>
    40a4: a2 00        	ldx	#$0
    40a6: 20 aa 59     	jsr	$59aa <__lshrhi3>
    40a9: 80 11        	bra	$40bc <updateDial+0x17f>
    40ab: a9 00        	lda	#$0
    40ad: 38           	sec
    40ae: e5 12        	sbc	$12                     ; 0x2012 <f256main+0x1735>
    40b0: 85 12        	sta	$12                     ; 0x2012 <f256main+0x1735>
    40b2: a0 3f        	ldy	#$3f
    40b4: 8a           	txa
    40b5: 31 24        	and	($24),y                 ; 0x2024 <f256main+0x1747>
    40b7: a2 00        	ldx	#$0
    40b9: 20 97 59     	jsr	$5997 <__ashlhi3>
    40bc: 29 0f        	and	#$f
    40be: a0 3a        	ldy	#$3a
    40c0: 85 16        	sta	$16                     ; 0x2016 <f256main+0x1739>
    40c2: 91 24        	sta	($24),y                 ; 0x2024 <f256main+0x1747>
    40c4: 18           	clc
    40c5: a5 24        	lda	$24                     ; 0x2024 <f256main+0x1747>
    40c7: 69 28        	adc	#$28
    40c9: 85 14        	sta	$14                     ; 0x2014 <f256main+0x1737>
    40cb: a5 25        	lda	$25                     ; 0x2025 <f256main+0x1748>
    40cd: 69 00        	adc	#$0
    40cf: a0 28        	ldy	#$28
    40d1: 85 15        	sta	$15                     ; 0x2015 <f256main+0x1738>
    40d3: b1 24        	lda	($24),y                 ; 0x2024 <f256main+0x1747>
    40d5: a0 01        	ldy	#$1
    40d7: 0a           	asl
    40d8: 85 12        	sta	$12                     ; 0x2012 <f256main+0x1735>
    40da: b1 14        	lda	($14),y                 ; 0x2014 <f256main+0x1737>
    40dc: 2a           	rol
    40dd: 85 13        	sta	$13                     ; 0x2013 <f256main+0x1736>
    40df: 18           	clc
    40e0: a5 24        	lda	$24                     ; 0x2024 <f256main+0x1747>
    40e2: 69 2a        	adc	#$2a
    40e4: 85 14        	sta	$14                     ; 0x2014 <f256main+0x1737>
    40e6: a5 25        	lda	$25                     ; 0x2025 <f256main+0x1748>
    40e8: 69 00        	adc	#$0
    40ea: a0 2a        	ldy	#$2a
    40ec: 85 15        	sta	$15                     ; 0x2015 <f256main+0x1738>
    40ee: b1 24        	lda	($24),y                 ; 0x2024 <f256main+0x1747>
    40f0: aa           	tax
    40f1: a0 01        	ldy	#$1
    40f3: b1 14        	lda	($14),y                 ; 0x2014 <f256main+0x1737>
    40f5: 85 14        	sta	$14                     ; 0x2014 <f256main+0x1737>
    40f7: 8a           	txa
    40f8: 0a           	asl
    40f9: 26 14        	rol	$14                     ; 0x2014 <f256main+0x1737>
    40fb: 0a           	asl
    40fc: 26 14        	rol	$14                     ; 0x2014 <f256main+0x1737>
    40fe: a6 14        	ldx	$14                     ; 0x2014 <f256main+0x1737>
    4100: 86 15        	stx	$15                     ; 0x2015 <f256main+0x1738>
    4102: 0a           	asl
    4103: 85 14        	sta	$14                     ; 0x2014 <f256main+0x1737>
    4105: 26 15        	rol	$15                     ; 0x2015 <f256main+0x1738>
    4107: 0a           	asl
    4108: aa           	tax
    4109: a5 15        	lda	$15                     ; 0x2015 <f256main+0x1738>
    410b: 2a           	rol
    410c: 86 17        	stx	$17                     ; 0x2017 <f256main+0x173a>
    410e: 06 17        	asl	$17                     ; 0x2017 <f256main+0x173a>
    4110: 2a           	rol
    4111: aa           	tax
    4112: 18           	clc
    4113: a5 17        	lda	$17                     ; 0x2017 <f256main+0x173a>
    4115: 65 14        	adc	$14                     ; 0x2014 <f256main+0x1737>
    4117: 85 14        	sta	$14                     ; 0x2014 <f256main+0x1737>
    4119: 8a           	txa
    411a: 65 15        	adc	$15                     ; 0x2015 <f256main+0x1738>
    411c: aa           	tax
    411d: 18           	clc
    411e: a5 14        	lda	$14                     ; 0x2014 <f256main+0x1737>
    4120: 65 12        	adc	$12                     ; 0x2012 <f256main+0x1735>
    4122: 85 12        	sta	$12                     ; 0x2012 <f256main+0x1735>
    4124: 8a           	txa
    4125: 65 13        	adc	$13                     ; 0x2013 <f256main+0x1736>
    4127: 85 13        	sta	$13                     ; 0x2013 <f256main+0x1736>
    4129: 10 04        	bpl	$412f <updateDial+0x1f2>
    412b: a2 ff        	ldx	#$ff
    412d: 80 02        	bra	$4131 <updateDial+0x1f4>
    412f: a2 00        	ldx	#$0
    4131: 18           	clc
    4132: a5 12        	lda	$12                     ; 0x2012 <f256main+0x1735>
    4134: 69 00        	adc	#$0
    4136: 85 14        	sta	$14                     ; 0x2014 <f256main+0x1737>
    4138: a5 13        	lda	$13                     ; 0x2013 <f256main+0x1736>
    413a: 69 54        	adc	#$54
    413c: 85 13        	sta	$13                     ; 0x2013 <f256main+0x1736>
    413e: 8a           	txa
    413f: 69 01        	adc	#$1
    4141: 5a           	phy
    4142: a6 13        	ldx	$13                     ; 0x2013 <f256main+0x1736>
    4144: 86 12        	stx	$12                     ; 0x2012 <f256main+0x1735>
    4146: 06 12        	asl	$12                     ; 0x2012 <f256main+0x1735>
    4148: 2a           	rol
    4149: 06 12        	asl	$12                     ; 0x2012 <f256main+0x1735>
    414b: 2a           	rol
    414c: 06 12        	asl	$12                     ; 0x2012 <f256main+0x1735>
    414e: 2a           	rol
    414f: a6 0f        	ldx	$f                      ; 0x200f <f256main+0x1732>
    4151: 78           	sei
    4152: 85 0f        	sta	$f                      ; 0x200f <f256main+0x1732>
    4154: a5 13        	lda	$13                     ; 0x2013 <f256main+0x1736>
    4156: 09 e0        	ora	#$e0
    4158: a4 14        	ldy	$14                     ; 0x2014 <f256main+0x1737>
    415a: 84 12        	sty	$12                     ; 0x2012 <f256main+0x1735>
    415c: 7a           	ply
    415d: 85 13        	sta	$13                     ; 0x2013 <f256main+0x1736>
    415f: a5 16        	lda	$16                     ; 0x2016 <f256main+0x1739>
    4161: 92 12        	sta	($12)                   ; 0x2012 <f256main+0x1735>
    4163: a9 00        	lda	#$0
    4165: 91 12        	sta	($12),y                 ; 0x2012 <f256main+0x1735>
    4167: 86 0f        	stx	$f                      ; 0x200f <f256main+0x1732>
    4169: 58           	cli
    416a: a0 0d        	ldy	#$d
    416c: b1 24        	lda	($24),y                 ; 0x2024 <f256main+0x1747>
    416e: 85 26        	sta	$26                     ; 0x2026 <f256main+0x1749>
    4170: 18           	clc
    4171: a0 00        	ldy	#$0
    4173: b1 10        	lda	($10),y                 ; 0x2010 <f256main+0x1733>
    4175: 69 20        	adc	#$20
    4177: a8           	tay
    4178: a9 00        	lda	#$0
    417a: 69 00        	adc	#$0
    417c: aa           	tax
    417d: a9 00        	lda	#$0
    417f: 69 00        	adc	#$0
    4181: 85 12        	sta	$12                     ; 0x2012 <f256main+0x1735>
    4183: a9 00        	lda	#$0
    4185: 69 00        	adc	#$0
    4187: 85 13        	sta	$13                     ; 0x2013 <f256main+0x1736>
    4189: a5 26        	lda	$26                     ; 0x2026 <f256main+0x1749>
    418b: 85 14        	sta	$14                     ; 0x2014 <f256main+0x1737>
    418d: 64 15        	stz	$15                     ; 0x2015 <f256main+0x1738>
    418f: 64 16        	stz	$16                     ; 0x2016 <f256main+0x1739>
    4191: 64 17        	stz	$17                     ; 0x2017 <f256main+0x173a>
    4193: 98           	tya
    4194: 20 ef 59     	jsr	$59ef <__mulsi3>
    4197: a4 26        	ldy	$26                     ; 0x2026 <f256main+0x1749>
    4199: 84 14        	sty	$14                     ; 0x2014 <f256main+0x1737>
    419b: 64 15        	stz	$15                     ; 0x2015 <f256main+0x1738>
    419d: 64 16        	stz	$16                     ; 0x2016 <f256main+0x1739>
    419f: 64 17        	stz	$17                     ; 0x2017 <f256main+0x173a>
    41a1: 20 ef 59     	jsr	$59ef <__mulsi3>
    41a4: 86 14        	stx	$14                     ; 0x2014 <f256main+0x1737>
    41a6: a6 13        	ldx	$13                     ; 0x2013 <f256main+0x1736>
    41a8: 18           	clc
    41a9: 69 00        	adc	#$0
    41ab: 85 16        	sta	$16                     ; 0x2016 <f256main+0x1739>
    41ad: a5 14        	lda	$14                     ; 0x2014 <f256main+0x1737>
    41af: 69 00        	adc	#$0
    41b1: 85 17        	sta	$17                     ; 0x2017 <f256main+0x173a>
    41b3: a5 12        	lda	$12                     ; 0x2012 <f256main+0x1735>
    41b5: 69 01        	adc	#$1
    41b7: 85 13        	sta	$13                     ; 0x2013 <f256main+0x1736>
    41b9: 8a           	txa
    41ba: 69 00        	adc	#$0
    41bc: 85 12        	sta	$12                     ; 0x2012 <f256main+0x1735>
    41be: a6 24        	ldx	$24                     ; 0x2024 <f256main+0x1747>
    41c0: a5 24        	lda	$24                     ; 0x2024 <f256main+0x1747>
    41c2: 86 28        	stx	$28                     ; 0x2028 <f256main+0x174b>
    41c4: 18           	clc
    41c5: 69 08        	adc	#$8
    41c7: 85 14        	sta	$14                     ; 0x2014 <f256main+0x1737>
    41c9: a5 25        	lda	$25                     ; 0x2025 <f256main+0x1748>
    41cb: 69 00        	adc	#$0
    41cd: a0 08        	ldy	#$8
    41cf: 85 15        	sta	$15                     ; 0x2015 <f256main+0x1738>
    41d1: a5 16        	lda	$16                     ; 0x2016 <f256main+0x1739>
    41d3: 91 24        	sta	($24),y                 ; 0x2024 <f256main+0x1747>
    41d5: a0 01        	ldy	#$1
    41d7: a5 17        	lda	$17                     ; 0x2017 <f256main+0x173a>
    41d9: 91 14        	sta	($14),y                 ; 0x2014 <f256main+0x1737>
    41db: a6 17        	ldx	$17                     ; 0x2017 <f256main+0x173a>
    41dd: c8           	iny
    41de: a5 13        	lda	$13                     ; 0x2013 <f256main+0x1736>
    41e0: 91 14        	sta	($14),y                 ; 0x2014 <f256main+0x1737>
    41e2: c8           	iny
    41e3: a5 12        	lda	$12                     ; 0x2012 <f256main+0x1735>
    41e5: 91 14        	sta	($14),y                 ; 0x2014 <f256main+0x1737>
    41e7: 85 14        	sta	$14                     ; 0x2014 <f256main+0x1737>
    41e9: b2 24        	lda	($24)                   ; 0x2024 <f256main+0x1747>
    41eb: 86 12        	stx	$12                     ; 0x2012 <f256main+0x1735>
    41ed: a6 26        	ldx	$26                     ; 0x2026 <f256main+0x1749>
    41ef: 86 15        	stx	$15                     ; 0x2015 <f256main+0x1738>
    41f1: a6 16        	ldx	$16                     ; 0x2016 <f256main+0x1739>
    41f3: 20 ec 3c     	jsr	$3cec <spriteDefine>
    41f6: 18           	clc
    41f7: a5 28        	lda	$28                     ; 0x2028 <f256main+0x174b>
    41f9: 69 03        	adc	#$3
    41fb: 85 12        	sta	$12                     ; 0x2012 <f256main+0x1735>
    41fd: a5 25        	lda	$25                     ; 0x2025 <f256main+0x1748>
    41ff: 69 00        	adc	#$0
    4201: 85 13        	sta	$13                     ; 0x2013 <f256main+0x1736>
    4203: b2 24        	lda	($24)                   ; 0x2024 <f256main+0x1747>
    4205: aa           	tax
    4206: 0a           	asl
    4207: 64 14        	stz	$14                     ; 0x2014 <f256main+0x1737>
    4209: 26 14        	rol	$14                     ; 0x2014 <f256main+0x1737>
    420b: 0a           	asl
    420c: 26 14        	rol	$14                     ; 0x2014 <f256main+0x1737>
    420e: 0a           	asl
    420f: 26 14        	rol	$14                     ; 0x2014 <f256main+0x1737>
    4211: a4 14        	ldy	$14                     ; 0x2014 <f256main+0x1737>
    4213: 84 18        	sty	$18                     ; 0x2018 <f256main+0x173b>
    4215: 18           	clc
    4216: 85 1a        	sta	$1a                     ; 0x201a <f256main+0x173d>
    4218: 69 04        	adc	#$4
    421a: 85 14        	sta	$14                     ; 0x2014 <f256main+0x1737>
    421c: a5 18        	lda	$18                     ; 0x2018 <f256main+0x173b>
    421e: 69 d9        	adc	#$d9
    4220: 85 15        	sta	$15                     ; 0x2015 <f256main+0x1738>
    4222: a4 24        	ldy	$24                     ; 0x2024 <f256main+0x1747>
    4224: 84 16        	sty	$16                     ; 0x2016 <f256main+0x1739>
    4226: a4 25        	ldy	$25                     ; 0x2025 <f256main+0x1748>
    4228: 84 17        	sty	$17                     ; 0x2017 <f256main+0x173a>
    422a: e6 16        	inc	$16                     ; 0x2016 <f256main+0x1739>
    422c: d0 02        	bne	$4230 <updateDial+0x2f3>
    422e: e6 17        	inc	$17                     ; 0x2017 <f256main+0x173a>
    4230: a0 03        	ldy	#$3
    4232: b1 24        	lda	($24),y                 ; 0x2024 <f256main+0x1747>
    4234: 85 19        	sta	$19                     ; 0x2019 <f256main+0x173c>
    4236: a0 01        	ldy	#$1
    4238: b1 24        	lda	($24),y                 ; 0x2024 <f256main+0x1747>
    423a: 85 1b        	sta	$1b                     ; 0x201b <f256main+0x173e>
    423c: b1 16        	lda	($16),y                 ; 0x2016 <f256main+0x1739>
    423e: 85 17        	sta	$17                     ; 0x2017 <f256main+0x173a>
    4240: b1 12        	lda	($12),y                 ; 0x2012 <f256main+0x1735>
    4242: 85 16        	sta	$16                     ; 0x2016 <f256main+0x1739>
    4244: a5 1b        	lda	$1b                     ; 0x201b <f256main+0x173e>
    4246: 92 14        	sta	($14)                   ; 0x2014 <f256main+0x1737>
    4248: a5 17        	lda	$17                     ; 0x2017 <f256main+0x173a>
    424a: 91 14        	sta	($14),y                 ; 0x2014 <f256main+0x1737>
    424c: 18           	clc
    424d: a5 1a        	lda	$1a                     ; 0x201a <f256main+0x173d>
    424f: 69 06        	adc	#$6
    4251: 85 14        	sta	$14                     ; 0x2014 <f256main+0x1737>
    4253: a5 18        	lda	$18                     ; 0x2018 <f256main+0x173b>
    4255: 69 d9        	adc	#$d9
    4257: 5a           	phy
    4258: a4 14        	ldy	$14                     ; 0x2014 <f256main+0x1737>
    425a: 84 12        	sty	$12                     ; 0x2012 <f256main+0x1735>
    425c: 7a           	ply
    425d: 85 13        	sta	$13                     ; 0x2013 <f256main+0x1736>
    425f: a5 19        	lda	$19                     ; 0x2019 <f256main+0x173c>
    4261: 92 12        	sta	($12)                   ; 0x2012 <f256main+0x1735>
    4263: a5 16        	lda	$16                     ; 0x2016 <f256main+0x1739>
    4265: 91 12        	sta	($12),y                 ; 0x2012 <f256main+0x1735>
    4267: 18           	clc
    4268: a5 1a        	lda	$1a                     ; 0x201a <f256main+0x173d>
    426a: 69 00        	adc	#$0
    426c: 85 12        	sta	$12                     ; 0x2012 <f256main+0x1735>
    426e: a5 18        	lda	$18                     ; 0x2018 <f256main+0x173b>
    4270: 69 d9        	adc	#$d9
    4272: 85 13        	sta	$13                     ; 0x2013 <f256main+0x1736>
    4274: a9 01        	lda	#$1
    4276: 1d 99 5f     	ora	$5f99,x                 ; 0x5f99 <_spriteCtl>
    4279: 92 12        	sta	($12)                   ; 0x2012 <f256main+0x1735>
    427b: fa           	plx
    427c: 86 28        	stx	$28                     ; 0x2028 <f256main+0x174b>
    427e: fa           	plx
    427f: 86 26        	stx	$26                     ; 0x2026 <f256main+0x1749>
    4281: fa           	plx
    4282: 86 25        	stx	$25                     ; 0x2025 <f256main+0x1748>
    4284: fa           	plx
    4285: 86 24        	stx	$24                     ; 0x2024 <f256main+0x1747>
    4287: 18           	clc
    4288: a5 10        	lda	$10                     ; 0x2010 <f256main+0x1733>
    428a: 69 01        	adc	#$1
    428c: 85 10        	sta	$10                     ; 0x2010 <f256main+0x1733>
    428e: a5 11        	lda	$11                     ; 0x2011 <f256main+0x1734>
    4290: 69 00        	adc	#$0
    4292: 85 11        	sta	$11                     ; 0x2011 <f256main+0x1734>
    4294: 60           	rts

00004295 <updateSlider>:
    4295: 18           	clc
    4296: a5 10        	lda	$10                     ; 0x2010 <f256main+0x1733>
    4298: 69 f5        	adc	#$f5
    429a: 85 10        	sta	$10                     ; 0x2010 <f256main+0x1733>
    429c: a5 11        	lda	$11                     ; 0x2011 <f256main+0x1734>
    429e: 69 ff        	adc	#$ff
    42a0: 85 11        	sta	$11                     ; 0x2011 <f256main+0x1734>
    42a2: a6 24        	ldx	$24                     ; 0x2024 <f256main+0x1747>
    42a4: da           	phx
    42a5: a6 25        	ldx	$25                     ; 0x2025 <f256main+0x1748>
    42a7: da           	phx
    42a8: a6 26        	ldx	$26                     ; 0x2026 <f256main+0x1749>
    42aa: da           	phx
    42ab: a6 27        	ldx	$27                     ; 0x2027 <f256main+0x174a>
    42ad: da           	phx
    42ae: a5 28        	lda	$28                     ; 0x2028 <f256main+0x174b>
    42b0: a0 07        	ldy	#$7
    42b2: 91 10        	sta	($10),y                 ; 0x2010 <f256main+0x1733>
    42b4: a5 29        	lda	$29                     ; 0x2029 <f256main+0x174c>
    42b6: 88           	dey
    42b7: 91 10        	sta	($10),y                 ; 0x2010 <f256main+0x1733>
    42b9: a5 2a        	lda	$2a                     ; 0x202a <f256main+0x174d>
    42bb: 88           	dey
    42bc: 91 10        	sta	($10),y                 ; 0x2010 <f256main+0x1733>
    42be: a5 2b        	lda	$2b                     ; 0x202b <f256main+0x174e>
    42c0: 88           	dey
    42c1: 91 10        	sta	($10),y                 ; 0x2010 <f256main+0x1733>
    42c3: a5 2c        	lda	$2c                     ; 0x202c <f256main+0x174f>
    42c5: 88           	dey
    42c6: 91 10        	sta	($10),y                 ; 0x2010 <f256main+0x1733>
    42c8: a5 2d        	lda	$2d                     ; 0x202d <f256main+0x1750>
    42ca: 88           	dey
    42cb: 91 10        	sta	($10),y                 ; 0x2010 <f256main+0x1733>
    42cd: a5 2e        	lda	$2e                     ; 0x202e <f256main+0x1751>
    42cf: 88           	dey
    42d0: 91 10        	sta	($10),y                 ; 0x2010 <f256main+0x1733>
    42d2: a5 2f        	lda	$2f                     ; 0x202f <f256main+0x1752>
    42d4: 88           	dey
    42d5: 91 10        	sta	($10),y                 ; 0x2010 <f256main+0x1733>
    42d7: a6 12        	ldx	$12                     ; 0x2012 <f256main+0x1735>
    42d9: 86 24        	stx	$24                     ; 0x2024 <f256main+0x1747>
    42db: a6 13        	ldx	$13                     ; 0x2013 <f256main+0x1736>
    42dd: 86 25        	stx	$25                     ; 0x2025 <f256main+0x1748>
    42df: a0 27        	ldy	#$27
    42e1: b1 12        	lda	($12),y                 ; 0x2012 <f256main+0x1735>
    42e3: aa           	tax
    42e4: c8           	iny
    42e5: b1 12        	lda	($12),y                 ; 0x2012 <f256main+0x1735>
    42e7: 85 15        	sta	$15                     ; 0x2015 <f256main+0x1738>
    42e9: 86 13        	stx	$13                     ; 0x2013 <f256main+0x1736>
    42eb: c5 13        	cmp	$13                     ; 0x2013 <f256main+0x1736>
    42ed: a9 00        	lda	#$0
    42ef: b0 35        	bcs	$4326 <updateSlider+0x91>
    42f1: a0 29        	ldy	#$29
    42f3: b1 24        	lda	($24),y                 ; 0x2024 <f256main+0x1747>
    42f5: a8           	tay
    42f6: 85 13        	sta	$13                     ; 0x2013 <f256main+0x1736>
    42f8: e4 13        	cpx	$13                     ; 0x2013 <f256main+0x1736>
    42fa: a9 07        	lda	#$7
    42fc: b0 28        	bcs	$4326 <updateSlider+0x91>
    42fe: 38           	sec
    42ff: 98           	tya
    4300: e5 15        	sbc	$15                     ; 0x2015 <f256main+0x1738>
    4302: 85 12        	sta	$12                     ; 0x2012 <f256main+0x1735>
    4304: a9 00        	lda	#$0
    4306: e9 00        	sbc	#$0
    4308: e6 12        	inc	$12                     ; 0x2012 <f256main+0x1735>
    430a: d0 01        	bne	$430d <updateSlider+0x78>
    430c: 1a           	inc
    430d: 4a           	lsr
    430e: 66 12        	ror	$12                     ; 0x2012 <f256main+0x1735>
    4310: 4a           	lsr
    4311: 66 12        	ror	$12                     ; 0x2012 <f256main+0x1735>
    4313: 4a           	lsr
    4314: 66 12        	ror	$12                     ; 0x2012 <f256main+0x1735>
    4316: 8a           	txa
    4317: 38           	sec
    4318: e5 15        	sbc	$15                     ; 0x2015 <f256main+0x1738>
    431a: a8           	tay
    431b: a9 00        	lda	#$0
    431d: e9 00        	sbc	#$0
    431f: 64 13        	stz	$13                     ; 0x2013 <f256main+0x1736>
    4321: aa           	tax
    4322: 98           	tya
    4323: 20 5f 5a     	jsr	$5a5f <__udivhi3>
    4326: a0 0d        	ldy	#$d
    4328: 85 27        	sta	$27                     ; 0x2027 <f256main+0x174a>
    432a: b1 24        	lda	($24),y                 ; 0x2024 <f256main+0x1747>
    432c: 85 12        	sta	$12                     ; 0x2012 <f256main+0x1735>
    432e: 85 26        	sta	$26                     ; 0x2026 <f256main+0x1749>
    4330: 64 13        	stz	$13                     ; 0x2013 <f256main+0x1736>
    4332: a2 00        	ldx	#$0
    4334: 20 bd 59     	jsr	$59bd <__mulhi3>
    4337: 85 15        	sta	$15                     ; 0x2015 <f256main+0x1738>
    4339: 86 14        	stx	$14                     ; 0x2014 <f256main+0x1737>
    433b: 85 12        	sta	$12                     ; 0x2012 <f256main+0x1735>
    433d: 06 12        	asl	$12                     ; 0x2012 <f256main+0x1735>
    433f: 86 13        	stx	$13                     ; 0x2013 <f256main+0x1736>
    4341: 26 13        	rol	$13                     ; 0x2013 <f256main+0x1736>
    4343: 06 12        	asl	$12                     ; 0x2012 <f256main+0x1735>
    4345: 26 13        	rol	$13                     ; 0x2013 <f256main+0x1736>
    4347: 06 12        	asl	$12                     ; 0x2012 <f256main+0x1735>
    4349: 26 13        	rol	$13                     ; 0x2013 <f256main+0x1736>
    434b: a5 12        	lda	$12                     ; 0x2012 <f256main+0x1735>
    434d: 0a           	asl
    434e: a6 13        	ldx	$13                     ; 0x2013 <f256main+0x1736>
    4350: 86 16        	stx	$16                     ; 0x2016 <f256main+0x1739>
    4352: 26 16        	rol	$16                     ; 0x2016 <f256main+0x1739>
    4354: 0a           	asl
    4355: 26 16        	rol	$16                     ; 0x2016 <f256main+0x1739>
    4357: 18           	clc
    4358: 65 12        	adc	$12                     ; 0x2012 <f256main+0x1735>
    435a: 85 29        	sta	$29                     ; 0x2029 <f256main+0x174c>
    435c: a5 16        	lda	$16                     ; 0x2016 <f256main+0x1739>
    435e: 65 13        	adc	$13                     ; 0x2013 <f256main+0x1736>
    4360: 85 28        	sta	$28                     ; 0x2028 <f256main+0x174b>
    4362: a6 27        	ldx	$27                     ; 0x2027 <f256main+0x174a>
    4364: 86 12        	stx	$12                     ; 0x2012 <f256main+0x1735>
    4366: 64 13        	stz	$13                     ; 0x2013 <f256main+0x1736>
    4368: a6 14        	ldx	$14                     ; 0x2014 <f256main+0x1737>
    436a: a5 15        	lda	$15                     ; 0x2015 <f256main+0x1738>
    436c: 20 bd 59     	jsr	$59bd <__mulhi3>
    436f: 85 12        	sta	$12                     ; 0x2012 <f256main+0x1735>
    4371: 86 13        	stx	$13                     ; 0x2013 <f256main+0x1736>
    4373: 18           	clc
    4374: a5 29        	lda	$29                     ; 0x2029 <f256main+0x174c>
    4376: 65 12        	adc	$12                     ; 0x2012 <f256main+0x1735>
    4378: 85 16        	sta	$16                     ; 0x2016 <f256main+0x1739>
    437a: a5 28        	lda	$28                     ; 0x2028 <f256main+0x174b>
    437c: 65 13        	adc	$13                     ; 0x2013 <f256main+0x1736>
    437e: aa           	tax
    437f: a9 01        	lda	#$1
    4381: 69 00        	adc	#$0
    4383: 85 14        	sta	$14                     ; 0x2014 <f256main+0x1737>
    4385: a9 00        	lda	#$0
    4387: 69 00        	adc	#$0
    4389: 85 15        	sta	$15                     ; 0x2015 <f256main+0x1738>
    438b: a4 24        	ldy	$24                     ; 0x2024 <f256main+0x1747>
    438d: a5 25        	lda	$25                     ; 0x2025 <f256main+0x1748>
    438f: 5a           	phy
    4390: a0 0a        	ldy	#$a
    4392: 91 10        	sta	($10),y                 ; 0x2010 <f256main+0x1733>
    4394: 7a           	ply
    4395: a5 24        	lda	$24                     ; 0x2024 <f256main+0x1747>
    4397: 84 27        	sty	$27                     ; 0x2027 <f256main+0x174a>
    4399: 48           	pha
    439a: 98           	tya
    439b: a0 09        	ldy	#$9
    439d: 91 10        	sta	($10),y                 ; 0x2010 <f256main+0x1733>
    439f: 68           	pla
    43a0: 18           	clc
    43a1: 69 08        	adc	#$8
    43a3: 85 28        	sta	$28                     ; 0x2028 <f256main+0x174b>
    43a5: c8           	iny
    43a6: b1 10        	lda	($10),y                 ; 0x2010 <f256main+0x1733>
    43a8: 69 00        	adc	#$0
    43aa: 85 29        	sta	$29                     ; 0x2029 <f256main+0x174c>
    43ac: a0 08        	ldy	#$8
    43ae: a5 16        	lda	$16                     ; 0x2016 <f256main+0x1739>
    43b0: 91 24        	sta	($24),y                 ; 0x2024 <f256main+0x1747>
    43b2: 8a           	txa
    43b3: a0 01        	ldy	#$1
    43b5: 91 28        	sta	($28),y                 ; 0x2028 <f256main+0x174b>
    43b7: 86 12        	stx	$12                     ; 0x2012 <f256main+0x1735>
    43b9: c8           	iny
    43ba: a5 14        	lda	$14                     ; 0x2014 <f256main+0x1737>
    43bc: 91 28        	sta	($28),y                 ; 0x2028 <f256main+0x174b>
    43be: c8           	iny
    43bf: a6 15        	ldx	$15                     ; 0x2015 <f256main+0x1738>
    43c1: a5 15        	lda	$15                     ; 0x2015 <f256main+0x1738>
    43c3: 91 28        	sta	($28),y                 ; 0x2028 <f256main+0x174b>
    43c5: b2 24        	lda	($24)                   ; 0x2024 <f256main+0x1747>
    43c7: a4 14        	ldy	$14                     ; 0x2014 <f256main+0x1737>
    43c9: 84 13        	sty	$13                     ; 0x2013 <f256main+0x1736>
    43cb: 86 14        	stx	$14                     ; 0x2014 <f256main+0x1737>
    43cd: a6 26        	ldx	$26                     ; 0x2026 <f256main+0x1749>
    43cf: 86 15        	stx	$15                     ; 0x2015 <f256main+0x1738>
    43d1: a6 16        	ldx	$16                     ; 0x2016 <f256main+0x1739>
    43d3: 20 ec 3c     	jsr	$3cec <spriteDefine>
    43d6: b2 24        	lda	($24)                   ; 0x2024 <f256main+0x1747>
    43d8: 85 2e        	sta	$2e                     ; 0x202e <f256main+0x1751>
    43da: a5 27        	lda	$27                     ; 0x2027 <f256main+0x174a>
    43dc: 18           	clc
    43dd: 69 03        	adc	#$3
    43df: 85 26        	sta	$26                     ; 0x2026 <f256main+0x1749>
    43e1: a0 0a        	ldy	#$a
    43e3: b1 10        	lda	($10),y                 ; 0x2010 <f256main+0x1733>
    43e5: 69 00        	adc	#$0
    43e7: 85 27        	sta	$27                     ; 0x2027 <f256main+0x174a>
    43e9: a5 2e        	lda	$2e                     ; 0x202e <f256main+0x1751>
    43eb: 0a           	asl
    43ec: 64 13        	stz	$13                     ; 0x2013 <f256main+0x1736>
    43ee: 26 13        	rol	$13                     ; 0x2013 <f256main+0x1736>
    43f0: 85 12        	sta	$12                     ; 0x2012 <f256main+0x1735>
    43f2: 06 12        	asl	$12                     ; 0x2012 <f256main+0x1735>
    43f4: 26 13        	rol	$13                     ; 0x2013 <f256main+0x1736>
    43f6: 06 12        	asl	$12                     ; 0x2012 <f256main+0x1735>
    43f8: a6 12        	ldx	$12                     ; 0x2012 <f256main+0x1735>
    43fa: 86 14        	stx	$14                     ; 0x2014 <f256main+0x1737>
    43fc: 26 13        	rol	$13                     ; 0x2013 <f256main+0x1736>
    43fe: a5 12        	lda	$12                     ; 0x2012 <f256main+0x1735>
    4400: 18           	clc
    4401: 69 04        	adc	#$4
    4403: 85 12        	sta	$12                     ; 0x2012 <f256main+0x1735>
    4405: a5 13        	lda	$13                     ; 0x2013 <f256main+0x1736>
    4407: a6 13        	ldx	$13                     ; 0x2013 <f256main+0x1736>
    4409: 69 d9        	adc	#$d9
    440b: a4 24        	ldy	$24                     ; 0x2024 <f256main+0x1747>
    440d: 84 2a        	sty	$2a                     ; 0x202a <f256main+0x174d>
    440f: a4 25        	ldy	$25                     ; 0x2025 <f256main+0x1748>
    4411: 84 2b        	sty	$2b                     ; 0x202b <f256main+0x174e>
    4413: e6 2a        	inc	$2a                     ; 0x202a <f256main+0x174d>
    4415: d0 02        	bne	$4419 <updateSlider+0x184>
    4417: e6 2b        	inc	$2b                     ; 0x202b <f256main+0x174e>
    4419: 85 13        	sta	$13                     ; 0x2013 <f256main+0x1736>
    441b: a0 01        	ldy	#$1
    441d: b1 24        	lda	($24),y                 ; 0x2024 <f256main+0x1747>
    441f: 85 17        	sta	$17                     ; 0x2017 <f256main+0x173a>
    4421: b1 2a        	lda	($2a),y                 ; 0x202a <f256main+0x174d>
    4423: 85 18        	sta	$18                     ; 0x2018 <f256main+0x173b>
    4425: a0 03        	ldy	#$3
    4427: b1 24        	lda	($24),y                 ; 0x2024 <f256main+0x1747>
    4429: 85 15        	sta	$15                     ; 0x2015 <f256main+0x1738>
    442b: a0 01        	ldy	#$1
    442d: b1 26        	lda	($26),y                 ; 0x2026 <f256main+0x1749>
    442f: 85 16        	sta	$16                     ; 0x2016 <f256main+0x1739>
    4431: a5 17        	lda	$17                     ; 0x2017 <f256main+0x173a>
    4433: 92 12        	sta	($12)                   ; 0x2012 <f256main+0x1735>
    4435: a5 18        	lda	$18                     ; 0x2018 <f256main+0x173b>
    4437: 91 12        	sta	($12),y                 ; 0x2012 <f256main+0x1735>
    4439: 18           	clc
    443a: a5 14        	lda	$14                     ; 0x2014 <f256main+0x1737>
    443c: 69 06        	adc	#$6
    443e: 85 12        	sta	$12                     ; 0x2012 <f256main+0x1735>
    4440: 8a           	txa
    4441: 69 d9        	adc	#$d9
    4443: 85 13        	sta	$13                     ; 0x2013 <f256main+0x1736>
    4445: a5 15        	lda	$15                     ; 0x2015 <f256main+0x1738>
    4447: 92 12        	sta	($12)                   ; 0x2012 <f256main+0x1735>
    4449: a5 16        	lda	$16                     ; 0x2016 <f256main+0x1739>
    444b: 91 12        	sta	($12),y                 ; 0x2012 <f256main+0x1735>
    444d: a0 08        	ldy	#$8
    444f: b1 24        	lda	($24),y                 ; 0x2024 <f256main+0x1747>
    4451: 85 2f        	sta	$2f                     ; 0x202f <f256main+0x1752>
    4453: a0 02        	ldy	#$2
    4455: b1 28        	lda	($28),y                 ; 0x2028 <f256main+0x174b>
    4457: a0 08        	ldy	#$8
    4459: 91 10        	sta	($10),y                 ; 0x2010 <f256main+0x1733>
    445b: e6 2e        	inc	$2e                     ; 0x202e <f256main+0x1751>
    445d: a0 01        	ldy	#$1
    445f: b1 28        	lda	($28),y                 ; 0x2028 <f256main+0x174b>
    4461: 85 2d        	sta	$2d                     ; 0x202d <f256main+0x1750>
    4463: a0 0d        	ldy	#$d
    4465: b1 24        	lda	($24),y                 ; 0x2024 <f256main+0x1747>
    4467: 85 2c        	sta	$2c                     ; 0x202c <f256main+0x174f>
    4469: 85 15        	sta	$15                     ; 0x2015 <f256main+0x1738>
    446b: 06 15        	asl	$15                     ; 0x2015 <f256main+0x1738>
    446d: 64 14        	stz	$14                     ; 0x2014 <f256main+0x1737>
    446f: 26 14        	rol	$14                     ; 0x2014 <f256main+0x1737>
    4471: 06 15        	asl	$15                     ; 0x2015 <f256main+0x1738>
    4473: 26 14        	rol	$14                     ; 0x2014 <f256main+0x1737>
    4475: 06 15        	asl	$15                     ; 0x2015 <f256main+0x1738>
    4477: 26 14        	rol	$14                     ; 0x2014 <f256main+0x1737>
    4479: a0 03        	ldy	#$3
    447b: b1 28        	lda	($28),y                 ; 0x2028 <f256main+0x174b>
    447d: 85 28        	sta	$28                     ; 0x2028 <f256main+0x174b>
    447f: a6 2c        	ldx	$2c                     ; 0x202c <f256main+0x174f>
    4481: 86 12        	stx	$12                     ; 0x2012 <f256main+0x1735>
    4483: 64 13        	stz	$13                     ; 0x2013 <f256main+0x1736>
    4485: a6 14        	ldx	$14                     ; 0x2014 <f256main+0x1737>
    4487: a5 15        	lda	$15                     ; 0x2015 <f256main+0x1738>
    4489: 20 bd 59     	jsr	$59bd <__mulhi3>
    448c: 85 12        	sta	$12                     ; 0x2012 <f256main+0x1735>
    448e: 86 13        	stx	$13                     ; 0x2013 <f256main+0x1736>
    4490: 18           	clc
    4491: a5 2f        	lda	$2f                     ; 0x202f <f256main+0x1752>
    4493: 65 12        	adc	$12                     ; 0x2012 <f256main+0x1735>
    4495: aa           	tax
    4496: a5 2d        	lda	$2d                     ; 0x202d <f256main+0x1750>
    4498: 65 13        	adc	$13                     ; 0x2013 <f256main+0x1736>
    449a: 85 12        	sta	$12                     ; 0x2012 <f256main+0x1735>
    449c: a0 08        	ldy	#$8
    449e: b1 10        	lda	($10),y                 ; 0x2010 <f256main+0x1733>
    44a0: 69 00        	adc	#$0
    44a2: 85 13        	sta	$13                     ; 0x2013 <f256main+0x1736>
    44a4: a5 28        	lda	$28                     ; 0x2028 <f256main+0x174b>
    44a6: 69 00        	adc	#$0
    44a8: 85 14        	sta	$14                     ; 0x2014 <f256main+0x1737>
    44aa: a4 2c        	ldy	$2c                     ; 0x202c <f256main+0x174f>
    44ac: 84 15        	sty	$15                     ; 0x2015 <f256main+0x1738>
    44ae: a5 2e        	lda	$2e                     ; 0x202e <f256main+0x1751>
    44b0: 20 ec 3c     	jsr	$3cec <spriteDefine>
    44b3: a0 0d        	ldy	#$d
    44b5: b1 24        	lda	($24),y                 ; 0x2024 <f256main+0x1747>
    44b7: 85 13        	sta	$13                     ; 0x2013 <f256main+0x1736>
    44b9: b2 24        	lda	($24)                   ; 0x2024 <f256main+0x1747>
    44bb: 85 15        	sta	$15                     ; 0x2015 <f256main+0x1738>
    44bd: a0 01        	ldy	#$1
    44bf: b1 24        	lda	($24),y                 ; 0x2024 <f256main+0x1747>
    44c1: 85 17        	sta	$17                     ; 0x2017 <f256main+0x173a>
    44c3: b1 2a        	lda	($2a),y                 ; 0x202a <f256main+0x174d>
    44c5: 85 18        	sta	$18                     ; 0x2018 <f256main+0x173b>
    44c7: b1 26        	lda	($26),y                 ; 0x2026 <f256main+0x1749>
    44c9: 85 12        	sta	$12                     ; 0x2012 <f256main+0x1735>
    44cb: 18           	clc
    44cc: a0 03        	ldy	#$3
    44ce: a5 13        	lda	$13                     ; 0x2013 <f256main+0x1736>
    44d0: 71 24        	adc	($24),y                 ; 0x2024 <f256main+0x1747>
    44d2: 85 16        	sta	$16                     ; 0x2016 <f256main+0x1739>
    44d4: a5 12        	lda	$12                     ; 0x2012 <f256main+0x1735>
    44d6: 69 00        	adc	#$0
    44d8: 85 14        	sta	$14                     ; 0x2014 <f256main+0x1737>
    44da: a6 15        	ldx	$15                     ; 0x2015 <f256main+0x1738>
    44dc: a5 15        	lda	$15                     ; 0x2015 <f256main+0x1738>
    44de: 1a           	inc
    44df: 0a           	asl
    44e0: 64 19        	stz	$19                     ; 0x2019 <f256main+0x173c>
    44e2: 26 19        	rol	$19                     ; 0x2019 <f256main+0x173c>
    44e4: 0a           	asl
    44e5: 26 19        	rol	$19                     ; 0x2019 <f256main+0x173c>
    44e7: 0a           	asl
    44e8: 26 19        	rol	$19                     ; 0x2019 <f256main+0x173c>
    44ea: 18           	clc
    44eb: 85 1a        	sta	$1a                     ; 0x201a <f256main+0x173d>
    44ed: 69 04        	adc	#$4
    44ef: 85 12        	sta	$12                     ; 0x2012 <f256main+0x1735>
    44f1: a5 19        	lda	$19                     ; 0x2019 <f256main+0x173c>
    44f3: 69 d9        	adc	#$d9
    44f5: 85 13        	sta	$13                     ; 0x2013 <f256main+0x1736>
    44f7: a5 17        	lda	$17                     ; 0x2017 <f256main+0x173a>
    44f9: 92 12        	sta	($12)                   ; 0x2012 <f256main+0x1735>
    44fb: a0 01        	ldy	#$1
    44fd: a5 18        	lda	$18                     ; 0x2018 <f256main+0x173b>
    44ff: 91 12        	sta	($12),y                 ; 0x2012 <f256main+0x1735>
    4501: 18           	clc
    4502: a5 1a        	lda	$1a                     ; 0x201a <f256main+0x173d>
    4504: 69 06        	adc	#$6
    4506: 85 12        	sta	$12                     ; 0x2012 <f256main+0x1735>
    4508: a5 19        	lda	$19                     ; 0x2019 <f256main+0x173c>
    450a: 69 d9        	adc	#$d9
    450c: 85 13        	sta	$13                     ; 0x2013 <f256main+0x1736>
    450e: a5 16        	lda	$16                     ; 0x2016 <f256main+0x1739>
    4510: 92 12        	sta	($12)                   ; 0x2012 <f256main+0x1735>
    4512: a5 14        	lda	$14                     ; 0x2014 <f256main+0x1737>
    4514: 91 12        	sta	($12),y                 ; 0x2012 <f256main+0x1735>
    4516: a5 15        	lda	$15                     ; 0x2015 <f256main+0x1738>
    4518: 0a           	asl
    4519: 85 12        	sta	$12                     ; 0x2012 <f256main+0x1735>
    451b: a9 00        	lda	#$0
    451d: 2a           	rol
    451e: 06 12        	asl	$12                     ; 0x2012 <f256main+0x1735>
    4520: 2a           	rol
    4521: 06 12        	asl	$12                     ; 0x2012 <f256main+0x1735>
    4523: 2a           	rol
    4524: a8           	tay
    4525: 18           	clc
    4526: a5 12        	lda	$12                     ; 0x2012 <f256main+0x1735>
    4528: 69 00        	adc	#$0
    452a: 85 12        	sta	$12                     ; 0x2012 <f256main+0x1735>
    452c: 98           	tya
    452d: 69 d9        	adc	#$d9
    452f: 85 13        	sta	$13                     ; 0x2013 <f256main+0x1736>
    4531: a9 01        	lda	#$1
    4533: 1d 99 5f     	ora	$5f99,x                 ; 0x5f99 <_spriteCtl>
    4536: 92 12        	sta	($12)                   ; 0x2012 <f256main+0x1735>
    4538: b2 24        	lda	($24)                   ; 0x2024 <f256main+0x1747>
    453a: 1a           	inc
    453b: aa           	tax
    453c: 85 12        	sta	$12                     ; 0x2012 <f256main+0x1735>
    453e: a9 01        	lda	#$1
    4540: 1d 99 5f     	ora	$5f99,x                 ; 0x5f99 <_spriteCtl>
    4543: 85 14        	sta	$14                     ; 0x2014 <f256main+0x1737>
    4545: 06 12        	asl	$12                     ; 0x2012 <f256main+0x1735>
    4547: a9 00        	lda	#$0
    4549: 2a           	rol
    454a: 06 12        	asl	$12                     ; 0x2012 <f256main+0x1735>
    454c: 2a           	rol
    454d: 06 12        	asl	$12                     ; 0x2012 <f256main+0x1735>
    454f: 2a           	rol
    4550: aa           	tax
    4551: 18           	clc
    4552: a5 12        	lda	$12                     ; 0x2012 <f256main+0x1735>
    4554: 69 00        	adc	#$0
    4556: 85 12        	sta	$12                     ; 0x2012 <f256main+0x1735>
    4558: 8a           	txa
    4559: 69 d9        	adc	#$d9
    455b: 85 13        	sta	$13                     ; 0x2013 <f256main+0x1736>
    455d: a5 14        	lda	$14                     ; 0x2014 <f256main+0x1737>
    455f: 92 12        	sta	($12)                   ; 0x2012 <f256main+0x1735>
    4561: a9 0f        	lda	#$f
    4563: a0 27        	ldy	#$27
    4565: 31 24        	and	($24),y                 ; 0x2024 <f256main+0x1747>
    4567: 88           	dey
    4568: 85 18        	sta	$18                     ; 0x2018 <f256main+0x173b>
    456a: 91 24        	sta	($24),y                 ; 0x2024 <f256main+0x1747>
    456c: a0 09        	ldy	#$9
    456e: b1 10        	lda	($10),y                 ; 0x2010 <f256main+0x1733>
    4570: aa           	tax
    4571: 18           	clc
    4572: 69 14        	adc	#$14
    4574: 85 14        	sta	$14                     ; 0x2014 <f256main+0x1737>
    4576: c8           	iny
    4577: b1 10        	lda	($10),y                 ; 0x2010 <f256main+0x1733>
    4579: 69 00        	adc	#$0
    457b: 85 13        	sta	$13                     ; 0x2013 <f256main+0x1736>
    457d: a0 14        	ldy	#$14
    457f: a5 14        	lda	$14                     ; 0x2014 <f256main+0x1737>
    4581: 85 12        	sta	$12                     ; 0x2012 <f256main+0x1735>
    4583: b1 24        	lda	($24),y                 ; 0x2024 <f256main+0x1747>
    4585: 85 14        	sta	$14                     ; 0x2014 <f256main+0x1737>
    4587: a0 16        	ldy	#$16
    4589: b1 24        	lda	($24),y                 ; 0x2024 <f256main+0x1747>
    458b: 85 15        	sta	$15                     ; 0x2015 <f256main+0x1738>
    458d: a0 01        	ldy	#$1
    458f: 06 14        	asl	$14                     ; 0x2014 <f256main+0x1737>
    4591: b1 12        	lda	($12),y                 ; 0x2012 <f256main+0x1735>
    4593: 2a           	rol
    4594: 85 12        	sta	$12                     ; 0x2012 <f256main+0x1735>
    4596: 18           	clc
    4597: 8a           	txa
    4598: 69 16        	adc	#$16
    459a: aa           	tax
    459b: 5a           	phy
    459c: a0 0a        	ldy	#$a
    459e: b1 10        	lda	($10),y                 ; 0x2010 <f256main+0x1733>
    45a0: 7a           	ply
    45a1: 69 00        	adc	#$0
    45a3: 86 16        	stx	$16                     ; 0x2016 <f256main+0x1739>
    45a5: 85 17        	sta	$17                     ; 0x2017 <f256main+0x173a>
    45a7: b1 16        	lda	($16),y                 ; 0x2016 <f256main+0x1739>
    45a9: a6 15        	ldx	$15                     ; 0x2015 <f256main+0x1738>
    45ab: 86 13        	stx	$13                     ; 0x2013 <f256main+0x1736>
    45ad: 06 13        	asl	$13                     ; 0x2013 <f256main+0x1736>
    45af: 2a           	rol
    45b0: 06 13        	asl	$13                     ; 0x2013 <f256main+0x1736>
    45b2: 2a           	rol
    45b3: 06 13        	asl	$13                     ; 0x2013 <f256main+0x1736>
    45b5: 2a           	rol
    45b6: 85 15        	sta	$15                     ; 0x2015 <f256main+0x1738>
    45b8: a5 13        	lda	$13                     ; 0x2013 <f256main+0x1736>
    45ba: 0a           	asl
    45bb: aa           	tax
    45bc: a5 15        	lda	$15                     ; 0x2015 <f256main+0x1738>
    45be: 2a           	rol
    45bf: 86 16        	stx	$16                     ; 0x2016 <f256main+0x1739>
    45c1: 06 16        	asl	$16                     ; 0x2016 <f256main+0x1739>
    45c3: 2a           	rol
    45c4: aa           	tax
    45c5: 18           	clc
    45c6: a5 16        	lda	$16                     ; 0x2016 <f256main+0x1739>
    45c8: 65 13        	adc	$13                     ; 0x2013 <f256main+0x1736>
    45ca: 85 13        	sta	$13                     ; 0x2013 <f256main+0x1736>
    45cc: 8a           	txa
    45cd: 65 15        	adc	$15                     ; 0x2015 <f256main+0x1738>
    45cf: aa           	tax
    45d0: 18           	clc
    45d1: a5 13        	lda	$13                     ; 0x2013 <f256main+0x1736>
    45d3: 65 14        	adc	$14                     ; 0x2014 <f256main+0x1737>
    45d5: 85 13        	sta	$13                     ; 0x2013 <f256main+0x1736>
    45d7: 8a           	txa
    45d8: 65 12        	adc	$12                     ; 0x2012 <f256main+0x1735>
    45da: 85 12        	sta	$12                     ; 0x2012 <f256main+0x1735>
    45dc: 10 04        	bpl	$45e2 <updateSlider+0x34d>
    45de: a2 ff        	ldx	#$ff
    45e0: 80 02        	bra	$45e4 <updateSlider+0x34f>
    45e2: a2 00        	ldx	#$0
    45e4: 18           	clc
    45e5: a5 13        	lda	$13                     ; 0x2013 <f256main+0x1736>
    45e7: 69 00        	adc	#$0
    45e9: 85 13        	sta	$13                     ; 0x2013 <f256main+0x1736>
    45eb: a5 12        	lda	$12                     ; 0x2012 <f256main+0x1735>
    45ed: 69 54        	adc	#$54
    45ef: 85 14        	sta	$14                     ; 0x2014 <f256main+0x1737>
    45f1: 8a           	txa
    45f2: 69 01        	adc	#$1
    45f4: 5a           	phy
    45f5: a6 14        	ldx	$14                     ; 0x2014 <f256main+0x1737>
    45f7: 86 12        	stx	$12                     ; 0x2012 <f256main+0x1735>
    45f9: 06 12        	asl	$12                     ; 0x2012 <f256main+0x1735>
    45fb: 2a           	rol
    45fc: 06 12        	asl	$12                     ; 0x2012 <f256main+0x1735>
    45fe: 2a           	rol
    45ff: 06 12        	asl	$12                     ; 0x2012 <f256main+0x1735>
    4601: 2a           	rol
    4602: a6 0f        	ldx	$f                      ; 0x200f <f256main+0x1732>
    4604: 78           	sei
    4605: 85 0f        	sta	$f                      ; 0x200f <f256main+0x1732>
    4607: a5 14        	lda	$14                     ; 0x2014 <f256main+0x1737>
    4609: 09 e0        	ora	#$e0
    460b: a4 13        	ldy	$13                     ; 0x2013 <f256main+0x1736>
    460d: 84 12        	sty	$12                     ; 0x2012 <f256main+0x1735>
    460f: 7a           	ply
    4610: 85 13        	sta	$13                     ; 0x2013 <f256main+0x1736>
    4612: a5 18        	lda	$18                     ; 0x2018 <f256main+0x173b>
    4614: 92 12        	sta	($12)                   ; 0x2012 <f256main+0x1735>
    4616: a9 00        	lda	#$0
    4618: 91 12        	sta	($12),y                 ; 0x2012 <f256main+0x1735>
    461a: 86 0f        	stx	$f                      ; 0x200f <f256main+0x1732>
    461c: 58           	cli
    461d: a8           	tay
    461e: b1 10        	lda	($10),y                 ; 0x2010 <f256main+0x1733>
    4620: 85 2f        	sta	$2f                     ; 0x202f <f256main+0x1752>
    4622: c8           	iny
    4623: b1 10        	lda	($10),y                 ; 0x2010 <f256main+0x1733>
    4625: 85 2e        	sta	$2e                     ; 0x202e <f256main+0x1751>
    4627: c8           	iny
    4628: b1 10        	lda	($10),y                 ; 0x2010 <f256main+0x1733>
    462a: 85 2d        	sta	$2d                     ; 0x202d <f256main+0x1750>
    462c: c8           	iny
    462d: b1 10        	lda	($10),y                 ; 0x2010 <f256main+0x1733>
    462f: 85 2c        	sta	$2c                     ; 0x202c <f256main+0x174f>
    4631: c8           	iny
    4632: b1 10        	lda	($10),y                 ; 0x2010 <f256main+0x1733>
    4634: 85 2b        	sta	$2b                     ; 0x202b <f256main+0x174e>
    4636: c8           	iny
    4637: b1 10        	lda	($10),y                 ; 0x2010 <f256main+0x1733>
    4639: 85 2a        	sta	$2a                     ; 0x202a <f256main+0x174d>
    463b: c8           	iny
    463c: b1 10        	lda	($10),y                 ; 0x2010 <f256main+0x1733>
    463e: 85 29        	sta	$29                     ; 0x2029 <f256main+0x174c>
    4640: c8           	iny
    4641: b1 10        	lda	($10),y                 ; 0x2010 <f256main+0x1733>
    4643: 85 28        	sta	$28                     ; 0x2028 <f256main+0x174b>
    4645: fa           	plx
    4646: 86 27        	stx	$27                     ; 0x2027 <f256main+0x174a>
    4648: fa           	plx
    4649: 86 26        	stx	$26                     ; 0x2026 <f256main+0x1749>
    464b: fa           	plx
    464c: 86 25        	stx	$25                     ; 0x2025 <f256main+0x1748>
    464e: fa           	plx
    464f: 86 24        	stx	$24                     ; 0x2024 <f256main+0x1747>
    4651: 18           	clc
    4652: a5 10        	lda	$10                     ; 0x2010 <f256main+0x1733>
    4654: 69 0b        	adc	#$b
    4656: 85 10        	sta	$10                     ; 0x2010 <f256main+0x1733>
    4658: a5 11        	lda	$11                     ; 0x2011 <f256main+0x1734>
    465a: 69 00        	adc	#$0
    465c: 85 11        	sta	$11                     ; 0x2011 <f256main+0x1734>
    465e: 60           	rts

0000465f <sid_setInstrument>:
    465f: a8           	tay
    4660: a9 00        	lda	#$0
    4662: 85 cc        	sta	$cc                     ; 0x20cc <f256main+0x17ef>
    4664: 98           	tya
    4665: f0 04        	beq	$466b <sid_setInstrument+0xc>
    4667: a0 d5        	ldy	#$d5
    4669: 80 02        	bra	$466d <sid_setInstrument+0xe>
    466b: a0 d4        	ldy	#$d4
    466d: 84 cd        	sty	$cd                     ; 0x20cd <f256main+0x17f0>
    466f: e0 02        	cpx	#$2
    4671: f0 08        	beq	$467b <sid_setInstrument+0x1c>
    4673: e0 01        	cpx	#$1
    4675: d0 08        	bne	$467f <sid_setInstrument+0x20>
    4677: a2 07        	ldx	#$7
    4679: 80 02        	bra	$467d <sid_setInstrument+0x1e>
    467b: a2 0e        	ldx	#$e
    467d: 86 cc        	stx	$cc                     ; 0x20cc <f256main+0x17ef>
    467f: a0 01        	ldy	#$1
    4681: b1 12        	lda	($12),y                 ; 0x2012 <f256main+0x1735>
    4683: 85 17        	sta	$17                     ; 0x2017 <f256main+0x173a>
    4685: a6 cc        	ldx	$cc                     ; 0x20cc <f256main+0x17ef>
    4687: 86 16        	stx	$16                     ; 0x2016 <f256main+0x1739>
    4689: 8a           	txa
    468a: 18           	clc
    468b: 69 02        	adc	#$2
    468d: 85 14        	sta	$14                     ; 0x2014 <f256main+0x1737>
    468f: a6 cd        	ldx	$cd                     ; 0x20cd <f256main+0x17f0>
    4691: 8a           	txa
    4692: 69 00        	adc	#$0
    4694: 85 15        	sta	$15                     ; 0x2015 <f256main+0x1738>
    4696: a5 17        	lda	$17                     ; 0x2017 <f256main+0x173a>
    4698: 92 14        	sta	($14)                   ; 0x2014 <f256main+0x1737>
    469a: c8           	iny
    469b: b1 12        	lda	($12),y                 ; 0x2012 <f256main+0x1735>
    469d: 85 17        	sta	$17                     ; 0x2017 <f256main+0x173a>
    469f: a5 16        	lda	$16                     ; 0x2016 <f256main+0x1739>
    46a1: 18           	clc
    46a2: 69 03        	adc	#$3
    46a4: 85 14        	sta	$14                     ; 0x2014 <f256main+0x1737>
    46a6: 8a           	txa
    46a7: 69 00        	adc	#$0
    46a9: 85 15        	sta	$15                     ; 0x2015 <f256main+0x1738>
    46ab: a5 17        	lda	$17                     ; 0x2017 <f256main+0x173a>
    46ad: 92 14        	sta	($14)                   ; 0x2014 <f256main+0x1737>
    46af: c8           	iny
    46b0: b1 12        	lda	($12),y                 ; 0x2012 <f256main+0x1735>
    46b2: 85 17        	sta	$17                     ; 0x2017 <f256main+0x173a>
    46b4: a5 16        	lda	$16                     ; 0x2016 <f256main+0x1739>
    46b6: 18           	clc
    46b7: 69 05        	adc	#$5
    46b9: 85 14        	sta	$14                     ; 0x2014 <f256main+0x1737>
    46bb: 8a           	txa
    46bc: 69 00        	adc	#$0
    46be: 85 15        	sta	$15                     ; 0x2015 <f256main+0x1738>
    46c0: a5 17        	lda	$17                     ; 0x2017 <f256main+0x173a>
    46c2: 92 14        	sta	($14)                   ; 0x2014 <f256main+0x1737>
    46c4: a5 16        	lda	$16                     ; 0x2016 <f256main+0x1739>
    46c6: 18           	clc
    46c7: 69 06        	adc	#$6
    46c9: 85 14        	sta	$14                     ; 0x2014 <f256main+0x1737>
    46cb: 8a           	txa
    46cc: 69 00        	adc	#$0
    46ce: 18           	clc
    46cf: 85 15        	sta	$15                     ; 0x2015 <f256main+0x1738>
    46d1: c8           	iny
    46d2: b1 12        	lda	($12),y                 ; 0x2012 <f256main+0x1735>
    46d4: 92 14        	sta	($14)                   ; 0x2014 <f256main+0x1737>
    46d6: a5 16        	lda	$16                     ; 0x2016 <f256main+0x1739>
    46d8: 69 04        	adc	#$4
    46da: 85 14        	sta	$14                     ; 0x2014 <f256main+0x1737>
    46dc: 8a           	txa
    46dd: 69 00        	adc	#$0
    46df: 85 15        	sta	$15                     ; 0x2015 <f256main+0x1738>
    46e1: c8           	iny
    46e2: b1 12        	lda	($12),y                 ; 0x2012 <f256main+0x1735>
    46e4: 92 14        	sta	($14)                   ; 0x2014 <f256main+0x1737>
    46e6: 60           	rts

000046e7 <exit>:
    46e7: 20 7b 03     	jsr	$37b <_fini>
    46ea: 80 fe        	bra	$46ea <exit+0x3>

000046ec <_ZN12_GLOBAL__N_13putEcP6Status>:
    46ec: 85 18        	sta	$18                     ; 0x2018 <f256main+0x173b>
    46ee: a6 13        	ldx	$13                     ; 0x2013 <f256main+0x1736>
    46f0: 18           	clc
    46f1: a5 12        	lda	$12                     ; 0x2012 <f256main+0x1735>
    46f3: 69 05        	adc	#$5
    46f5: a8           	tay
    46f6: a5 13        	lda	$13                     ; 0x2013 <f256main+0x1736>
    46f8: 86 15        	stx	$15                     ; 0x2015 <f256main+0x1738>
    46fa: 69 00        	adc	#$0
    46fc: 18           	clc
    46fd: 84 16        	sty	$16                     ; 0x2016 <f256main+0x1739>
    46ff: a0 05        	ldy	#$5
    4701: 85 17        	sta	$17                     ; 0x2017 <f256main+0x173a>
    4703: b1 12        	lda	($12),y                 ; 0x2012 <f256main+0x1735>
    4705: aa           	tax
    4706: a5 12        	lda	$12                     ; 0x2012 <f256main+0x1735>
    4708: 69 03        	adc	#$3
    470a: 85 14        	sta	$14                     ; 0x2014 <f256main+0x1737>
    470c: a5 15        	lda	$15                     ; 0x2015 <f256main+0x1738>
    470e: 69 00        	adc	#$0
    4710: 85 15        	sta	$15                     ; 0x2015 <f256main+0x1738>
    4712: a0 01        	ldy	#$1
    4714: b1 16        	lda	($16),y                 ; 0x2016 <f256main+0x1739>
    4716: d1 14        	cmp	($14),y                 ; 0x2014 <f256main+0x1737>
    4718: d0 11        	bne	$472b <_ZN12_GLOBAL__N_13putEcP6Status+0x3f>
    471a: a0 03        	ldy	#$3
    471c: 85 17        	sta	$17                     ; 0x2017 <f256main+0x173a>
    471e: b1 12        	lda	($12),y                 ; 0x2012 <f256main+0x1735>
    4720: 85 14        	sta	$14                     ; 0x2014 <f256main+0x1737>
    4722: 86 16        	stx	$16                     ; 0x2016 <f256main+0x1739>
    4724: e4 14        	cpx	$14                     ; 0x2014 <f256main+0x1737>
    4726: 90 0e        	bcc	$4736 <_ZN12_GLOBAL__N_13putEcP6Status+0x4a>
    4728: 4c a3 47     	jmp	$47a3 <_ZN12_GLOBAL__N_13putEcP6Status+0xb7>
    472b: 86 16        	stx	$16                     ; 0x2016 <f256main+0x1739>
    472d: d1 14        	cmp	($14),y                 ; 0x2014 <f256main+0x1737>
    472f: 85 17        	sta	$17                     ; 0x2017 <f256main+0x173a>
    4731: 90 03        	bcc	$4736 <_ZN12_GLOBAL__N_13putEcP6Status+0x4a>
    4733: 4c a3 47     	jmp	$47a3 <_ZN12_GLOBAL__N_13putEcP6Status+0xb7>
    4736: a5 12        	lda	$12                     ; 0x2012 <f256main+0x1735>
    4738: 18           	clc
    4739: 69 0f        	adc	#$f
    473b: 85 14        	sta	$14                     ; 0x2014 <f256main+0x1737>
    473d: a5 13        	lda	$13                     ; 0x2013 <f256main+0x1736>
    473f: 69 00        	adc	#$0
    4741: 85 15        	sta	$15                     ; 0x2015 <f256main+0x1738>
    4743: a0 01        	ldy	#$1
    4745: b1 14        	lda	($14),y                 ; 0x2014 <f256main+0x1737>
    4747: a2 00        	ldx	#$0
    4749: 86 14        	stx	$14                     ; 0x2014 <f256main+0x1737>
    474b: a2 00        	ldx	#$0
    474d: 86 15        	stx	$15                     ; 0x2015 <f256main+0x1738>
    474f: c5 15        	cmp	$15                     ; 0x2015 <f256main+0x1738>
    4751: d0 2d        	bne	$4780 <_ZN12_GLOBAL__N_13putEcP6Status+0x94>
    4753: a0 0f        	ldy	#$f
    4755: b1 12        	lda	($12),y                 ; 0x2012 <f256main+0x1735>
    4757: c5 14        	cmp	$14                     ; 0x2014 <f256main+0x1737>
    4759: d0 25        	bne	$4780 <_ZN12_GLOBAL__N_13putEcP6Status+0x94>
    475b: a5 12        	lda	$12                     ; 0x2012 <f256main+0x1735>
    475d: 18           	clc
    475e: 69 09        	adc	#$9
    4760: 85 14        	sta	$14                     ; 0x2014 <f256main+0x1737>
    4762: a5 13        	lda	$13                     ; 0x2013 <f256main+0x1736>
    4764: 69 00        	adc	#$0
    4766: a0 09        	ldy	#$9
    4768: 85 15        	sta	$15                     ; 0x2015 <f256main+0x1738>
    476a: 18           	clc
    476b: a5 16        	lda	$16                     ; 0x2016 <f256main+0x1739>
    476d: 71 12        	adc	($12),y                 ; 0x2012 <f256main+0x1735>
    476f: aa           	tax
    4770: a0 01        	ldy	#$1
    4772: a5 17        	lda	$17                     ; 0x2017 <f256main+0x173a>
    4774: 71 14        	adc	($14),y                 ; 0x2014 <f256main+0x1737>
    4776: 86 14        	stx	$14                     ; 0x2014 <f256main+0x1737>
    4778: 85 15        	sta	$15                     ; 0x2015 <f256main+0x1738>
    477a: a5 18        	lda	$18                     ; 0x2018 <f256main+0x173b>
    477c: 92 14        	sta	($14)                   ; 0x2014 <f256main+0x1737>
    477e: 80 23        	bra	$47a3 <_ZN12_GLOBAL__N_13putEcP6Status+0xb7>
    4780: a6 12        	ldx	$12                     ; 0x2012 <f256main+0x1735>
    4782: 8e 87 65     	stx	$6587                   ; 0x6587 <__data_load_start+0x5ff>
    4785: a6 13        	ldx	$13                     ; 0x2013 <f256main+0x1736>
    4787: 8e 88 65     	stx	$6588                   ; 0x6588 <__data_load_start+0x600>
    478a: a5 18        	lda	$18                     ; 0x2018 <f256main+0x173b>
    478c: 85 9d        	sta	$9d                     ; 0x209d <f256main+0x17c0>
    478e: a2 9d        	ldx	#$9d
    4790: 86 12        	stx	$12                     ; 0x2012 <f256main+0x1735>
    4792: a2 00        	ldx	#$0
    4794: 86 13        	stx	$13                     ; 0x2013 <f256main+0x1736>
    4796: 20 c3 2a     	jsr	$2ac3 <textPrint>
    4799: ae 87 65     	ldx	$6587                   ; 0x6587 <__data_load_start+0x5ff>
    479c: 86 12        	stx	$12                     ; 0x2012 <f256main+0x1735>
    479e: ae 88 65     	ldx	$6588                   ; 0x6588 <__data_load_start+0x600>
    47a1: 86 13        	stx	$13                     ; 0x2013 <f256main+0x1736>
    47a3: a0 05        	ldy	#$5
    47a5: a5 12        	lda	$12                     ; 0x2012 <f256main+0x1735>
    47a7: 18           	clc
    47a8: 69 05        	adc	#$5
    47aa: 85 14        	sta	$14                     ; 0x2014 <f256main+0x1737>
    47ac: a5 13        	lda	$13                     ; 0x2013 <f256main+0x1736>
    47ae: 69 00        	adc	#$0
    47b0: 85 15        	sta	$15                     ; 0x2015 <f256main+0x1738>
    47b2: b1 12        	lda	($12),y                 ; 0x2012 <f256main+0x1735>
    47b4: aa           	tax
    47b5: a0 01        	ldy	#$1
    47b7: b1 14        	lda	($14),y                 ; 0x2014 <f256main+0x1737>
    47b9: e8           	inx
    47ba: d0 01        	bne	$47bd <_ZN12_GLOBAL__N_13putEcP6Status+0xd1>
    47bc: 1a           	inc
    47bd: 85 16        	sta	$16                     ; 0x2016 <f256main+0x1739>
    47bf: 8a           	txa
    47c0: a0 05        	ldy	#$5
    47c2: 91 12        	sta	($12),y                 ; 0x2012 <f256main+0x1735>
    47c4: a0 01        	ldy	#$1
    47c6: a5 16        	lda	$16                     ; 0x2016 <f256main+0x1739>
    47c8: 91 14        	sta	($14),y                 ; 0x2014 <f256main+0x1737>
    47ca: 60           	rts

000047cb <_ZN12_GLOBAL__N_112print_stringEPKcP6Status>:
    47cb: a6 24        	ldx	$24                     ; 0x2024 <f256main+0x1747>
    47cd: da           	phx
    47ce: a6 25        	ldx	$25                     ; 0x2025 <f256main+0x1748>
    47d0: da           	phx
    47d1: a6 26        	ldx	$26                     ; 0x2026 <f256main+0x1749>
    47d3: da           	phx
    47d4: a6 27        	ldx	$27                     ; 0x2027 <f256main+0x174a>
    47d6: da           	phx
    47d7: a6 28        	ldx	$28                     ; 0x2028 <f256main+0x174b>
    47d9: 8e 84 65     	stx	$6584                   ; 0x6584 <__data_load_start+0x5fc>
    47dc: a6 29        	ldx	$29                     ; 0x2029 <f256main+0x174c>
    47de: 8e 85 65     	stx	$6585                   ; 0x6585 <__data_load_start+0x5fd>
    47e1: a6 2a        	ldx	$2a                     ; 0x202a <f256main+0x174d>
    47e3: 8e 86 65     	stx	$6586                   ; 0x6586 <__data_load_start+0x5fe>
    47e6: a6 12        	ldx	$12                     ; 0x2012 <f256main+0x1735>
    47e8: 86 24        	stx	$24                     ; 0x2024 <f256main+0x1747>
    47ea: a6 13        	ldx	$13                     ; 0x2013 <f256main+0x1736>
    47ec: 86 25        	stx	$25                     ; 0x2025 <f256main+0x1748>
    47ee: a6 14        	ldx	$14                     ; 0x2014 <f256main+0x1737>
    47f0: 86 26        	stx	$26                     ; 0x2026 <f256main+0x1749>
    47f2: a6 15        	ldx	$15                     ; 0x2015 <f256main+0x1738>
    47f4: 86 27        	stx	$27                     ; 0x2027 <f256main+0x174a>
    47f6: a5 26        	lda	$26                     ; 0x2026 <f256main+0x1749>
    47f8: 18           	clc
    47f9: 69 0d        	adc	#$d
    47fb: 85 12        	sta	$12                     ; 0x2012 <f256main+0x1735>
    47fd: a5 27        	lda	$27                     ; 0x2027 <f256main+0x174a>
    47ff: 69 00        	adc	#$0
    4801: 85 13        	sta	$13                     ; 0x2013 <f256main+0x1736>
    4803: a0 01        	ldy	#$1
    4805: b1 12        	lda	($12),y                 ; 0x2012 <f256main+0x1735>
    4807: 30 16        	bmi	$481f <_ZN12_GLOBAL__N_112print_stringEPKcP6Status+0x54>
    4809: a0 0d        	ldy	#$d
    480b: 85 12        	sta	$12                     ; 0x2012 <f256main+0x1735>
    480d: b1 26        	lda	($26),y                 ; 0x2026 <f256main+0x1749>
    480f: a6 12        	ldx	$12                     ; 0x2012 <f256main+0x1735>
    4811: 86 ee        	stx	$ee                     ; 0x20ee <f256main+0x1811>
    4813: d0 0f        	bne	$4824 <_ZN12_GLOBAL__N_112print_stringEPKcP6Status+0x59>
    4815: aa           	tax
    4816: d0 0c        	bne	$4824 <_ZN12_GLOBAL__N_112print_stringEPKcP6Status+0x59>
    4818: 64 28        	stz	$28                     ; 0x2028 <f256main+0x174b>
    481a: a2 00        	ldx	#$0
    481c: 4c 08 49     	jmp	$4908 <_ZN12_GLOBAL__N_112print_stringEPKcP6Status+0x13d>
    481f: a9 ff        	lda	#$ff
    4821: aa           	tax
    4822: 86 ee        	stx	$ee                     ; 0x20ee <f256main+0x1811>
    4824: 85 28        	sta	$28                     ; 0x2028 <f256main+0x174b>
    4826: 64 12        	stz	$12                     ; 0x2012 <f256main+0x1735>
    4828: a4 24        	ldy	$24                     ; 0x2024 <f256main+0x1747>
    482a: a6 25        	ldx	$25                     ; 0x2025 <f256main+0x1748>
    482c: 86 16        	stx	$16                     ; 0x2016 <f256main+0x1739>
    482e: 64 13        	stz	$13                     ; 0x2013 <f256main+0x1736>
    4830: 98           	tya
    4831: 18           	clc
    4832: 65 12        	adc	$12                     ; 0x2012 <f256main+0x1735>
    4834: 85 14        	sta	$14                     ; 0x2014 <f256main+0x1737>
    4836: a5 25        	lda	$25                     ; 0x2025 <f256main+0x1748>
    4838: 65 13        	adc	$13                     ; 0x2013 <f256main+0x1736>
    483a: 85 15        	sta	$15                     ; 0x2015 <f256main+0x1738>
    483c: b2 14        	lda	($14)                   ; 0x2014 <f256main+0x1737>
    483e: d0 03        	bne	$4843 <_ZN12_GLOBAL__N_112print_stringEPKcP6Status+0x78>
    4840: 4c 02 49     	jmp	$4902 <_ZN12_GLOBAL__N_112print_stringEPKcP6Status+0x137>
    4843: e6 12        	inc	$12                     ; 0x2012 <f256main+0x1735>
    4845: d0 02        	bne	$4849 <_ZN12_GLOBAL__N_112print_stringEPKcP6Status+0x7e>
    4847: e6 13        	inc	$13                     ; 0x2013 <f256main+0x1736>
    4849: a6 ee        	ldx	$ee                     ; 0x20ee <f256main+0x1811>
    484b: e4 13        	cpx	$13                     ; 0x2013 <f256main+0x1736>
    484d: d0 e1        	bne	$4830 <_ZN12_GLOBAL__N_112print_stringEPKcP6Status+0x65>
    484f: a6 28        	ldx	$28                     ; 0x2028 <f256main+0x174b>
    4851: e4 12        	cpx	$12                     ; 0x2012 <f256main+0x1735>
    4853: d0 db        	bne	$4830 <_ZN12_GLOBAL__N_112print_stringEPKcP6Status+0x65>
    4855: a0 01        	ldy	#$1
    4857: b1 26        	lda	($26),y                 ; 0x2026 <f256main+0x1749>
    4859: 29 01        	and	#$1
    485b: f0 03        	beq	$4860 <_ZN12_GLOBAL__N_112print_stringEPKcP6Status+0x95>
    485d: 4c b8 48     	jmp	$48b8 <_ZN12_GLOBAL__N_112print_stringEPKcP6Status+0xed>
    4860: a5 26        	lda	$26                     ; 0x2026 <f256main+0x1749>
    4862: 18           	clc
    4863: 69 0b        	adc	#$b
    4865: 85 14        	sta	$14                     ; 0x2014 <f256main+0x1737>
    4867: a5 27        	lda	$27                     ; 0x2027 <f256main+0x174a>
    4869: 69 00        	adc	#$0
    486b: 85 15        	sta	$15                     ; 0x2015 <f256main+0x1738>
    486d: a0 0b        	ldy	#$b
    486f: b1 26        	lda	($26),y                 ; 0x2026 <f256main+0x1749>
    4871: 85 13        	sta	$13                     ; 0x2013 <f256main+0x1736>
    4873: a0 01        	ldy	#$1
    4875: b1 14        	lda	($14),y                 ; 0x2014 <f256main+0x1737>
    4877: 85 12        	sta	$12                     ; 0x2012 <f256main+0x1735>
    4879: a6 ee        	ldx	$ee                     ; 0x20ee <f256main+0x1811>
    487b: e4 12        	cpx	$12                     ; 0x2012 <f256main+0x1735>
    487d: d0 08        	bne	$4887 <_ZN12_GLOBAL__N_112print_stringEPKcP6Status+0xbc>
    487f: a6 28        	ldx	$28                     ; 0x2028 <f256main+0x174b>
    4881: e4 13        	cpx	$13                     ; 0x2013 <f256main+0x1736>
    4883: 90 06        	bcc	$488b <_ZN12_GLOBAL__N_112print_stringEPKcP6Status+0xc0>
    4885: 80 31        	bra	$48b8 <_ZN12_GLOBAL__N_112print_stringEPKcP6Status+0xed>
    4887: e4 12        	cpx	$12                     ; 0x2012 <f256main+0x1735>
    4889: b0 2d        	bcs	$48b8 <_ZN12_GLOBAL__N_112print_stringEPKcP6Status+0xed>
    488b: 38           	sec
    488c: a5 28        	lda	$28                     ; 0x2028 <f256main+0x174b>
    488e: e5 13        	sbc	$13                     ; 0x2013 <f256main+0x1736>
    4890: a8           	tay
    4891: a5 ee        	lda	$ee                     ; 0x20ee <f256main+0x1811>
    4893: e5 12        	sbc	$12                     ; 0x2012 <f256main+0x1735>
    4895: 85 2a        	sta	$2a                     ; 0x202a <f256main+0x174d>
    4897: a6 26        	ldx	$26                     ; 0x2026 <f256main+0x1749>
    4899: 86 12        	stx	$12                     ; 0x2012 <f256main+0x1735>
    489b: a6 27        	ldx	$27                     ; 0x2027 <f256main+0x174a>
    489d: 86 13        	stx	$13                     ; 0x2013 <f256main+0x1736>
    489f: 84 29        	sty	$29                     ; 0x2029 <f256main+0x174c>
    48a1: a9 20        	lda	#$20
    48a3: 20 ec 46     	jsr	$46ec <_ZN12_GLOBAL__N_13putEcP6Status>
    48a6: a6 2a        	ldx	$2a                     ; 0x202a <f256main+0x174d>
    48a8: e6 29        	inc	$29                     ; 0x2029 <f256main+0x174c>
    48aa: d0 01        	bne	$48ad <_ZN12_GLOBAL__N_112print_stringEPKcP6Status+0xe2>
    48ac: e8           	inx
    48ad: 86 2a        	stx	$2a                     ; 0x202a <f256main+0x174d>
    48af: a4 29        	ldy	$29                     ; 0x2029 <f256main+0x174c>
    48b1: 8a           	txa
    48b2: d0 e3        	bne	$4897 <_ZN12_GLOBAL__N_112print_stringEPKcP6Status+0xcc>
    48b4: a5 29        	lda	$29                     ; 0x2029 <f256main+0x174c>
    48b6: d0 df        	bne	$4897 <_ZN12_GLOBAL__N_112print_stringEPKcP6Status+0xcc>
    48b8: a4 ee        	ldy	$ee                     ; 0x20ee <f256main+0x1811>
    48ba: d0 04        	bne	$48c0 <_ZN12_GLOBAL__N_112print_stringEPKcP6Status+0xf5>
    48bc: a5 28        	lda	$28                     ; 0x2028 <f256main+0x174b>
    48be: f0 26        	beq	$48e6 <_ZN12_GLOBAL__N_112print_stringEPKcP6Status+0x11b>
    48c0: a2 ff        	ldx	#$ff
    48c2: c6 28        	dec	$28                     ; 0x2028 <f256main+0x174b>
    48c4: e4 28        	cpx	$28                     ; 0x2028 <f256main+0x174b>
    48c6: d0 01        	bne	$48c9 <_ZN12_GLOBAL__N_112print_stringEPKcP6Status+0xfe>
    48c8: 88           	dey
    48c9: 84 29        	sty	$29                     ; 0x2029 <f256main+0x174c>
    48cb: b2 24        	lda	($24)                   ; 0x2024 <f256main+0x1747>
    48cd: e6 24        	inc	$24                     ; 0x2024 <f256main+0x1747>
    48cf: d0 02        	bne	$48d3 <_ZN12_GLOBAL__N_112print_stringEPKcP6Status+0x108>
    48d1: e6 25        	inc	$25                     ; 0x2025 <f256main+0x1748>
    48d3: a6 26        	ldx	$26                     ; 0x2026 <f256main+0x1749>
    48d5: 86 12        	stx	$12                     ; 0x2012 <f256main+0x1735>
    48d7: a6 27        	ldx	$27                     ; 0x2027 <f256main+0x174a>
    48d9: 86 13        	stx	$13                     ; 0x2013 <f256main+0x1736>
    48db: 20 ec 46     	jsr	$46ec <_ZN12_GLOBAL__N_13putEcP6Status>
    48de: a4 29        	ldy	$29                     ; 0x2029 <f256main+0x174c>
    48e0: d0 de        	bne	$48c0 <_ZN12_GLOBAL__N_112print_stringEPKcP6Status+0xf5>
    48e2: a5 28        	lda	$28                     ; 0x2028 <f256main+0x174b>
    48e4: d0 da        	bne	$48c0 <_ZN12_GLOBAL__N_112print_stringEPKcP6Status+0xf5>
    48e6: ae 86 65     	ldx	$6586                   ; 0x6586 <__data_load_start+0x5fe>
    48e9: 86 2a        	stx	$2a                     ; 0x202a <f256main+0x174d>
    48eb: ae 85 65     	ldx	$6585                   ; 0x6585 <__data_load_start+0x5fd>
    48ee: 86 29        	stx	$29                     ; 0x2029 <f256main+0x174c>
    48f0: ae 84 65     	ldx	$6584                   ; 0x6584 <__data_load_start+0x5fc>
    48f3: 86 28        	stx	$28                     ; 0x2028 <f256main+0x174b>
    48f5: fa           	plx
    48f6: 86 27        	stx	$27                     ; 0x2027 <f256main+0x174a>
    48f8: fa           	plx
    48f9: 86 26        	stx	$26                     ; 0x2026 <f256main+0x1749>
    48fb: fa           	plx
    48fc: 86 25        	stx	$25                     ; 0x2025 <f256main+0x1748>
    48fe: fa           	plx
    48ff: 86 24        	stx	$24                     ; 0x2024 <f256main+0x1747>
    4901: 60           	rts
    4902: a6 12        	ldx	$12                     ; 0x2012 <f256main+0x1735>
    4904: 86 28        	stx	$28                     ; 0x2028 <f256main+0x174b>
    4906: a6 13        	ldx	$13                     ; 0x2013 <f256main+0x1736>
    4908: 86 ee        	stx	$ee                     ; 0x20ee <f256main+0x1811>
    490a: 4c 55 48     	jmp	$4855 <_ZN12_GLOBAL__N_112print_stringEPKcP6Status+0x8a>

0000490d <printf>:
    490d: a6 24        	ldx	$24                     ; 0x2024 <f256main+0x1747>
    490f: da           	phx
    4910: a6 25        	ldx	$25                     ; 0x2025 <f256main+0x1748>
    4912: da           	phx
    4913: a6 26        	ldx	$26                     ; 0x2026 <f256main+0x1749>
    4915: da           	phx
    4916: a6 27        	ldx	$27                     ; 0x2027 <f256main+0x174a>
    4918: da           	phx
    4919: a6 28        	ldx	$28                     ; 0x2028 <f256main+0x174b>
    491b: 8e 7c 65     	stx	$657c                   ; 0x657c <__data_load_start+0x5f4>
    491e: a6 29        	ldx	$29                     ; 0x2029 <f256main+0x174c>
    4920: 8e 7d 65     	stx	$657d                   ; 0x657d <__data_load_start+0x5f5>
    4923: a6 2a        	ldx	$2a                     ; 0x202a <f256main+0x174d>
    4925: 8e 7e 65     	stx	$657e                   ; 0x657e <__data_load_start+0x5f6>
    4928: a6 2b        	ldx	$2b                     ; 0x202b <f256main+0x174e>
    492a: 8e 7f 65     	stx	$657f                   ; 0x657f <__data_load_start+0x5f7>
    492d: a6 2c        	ldx	$2c                     ; 0x202c <f256main+0x174f>
    492f: 8e 80 65     	stx	$6580                   ; 0x6580 <__data_load_start+0x5f8>
    4932: a6 2d        	ldx	$2d                     ; 0x202d <f256main+0x1750>
    4934: 8e 81 65     	stx	$6581                   ; 0x6581 <__data_load_start+0x5f9>
    4937: a6 2e        	ldx	$2e                     ; 0x202e <f256main+0x1751>
    4939: 8e 82 65     	stx	$6582                   ; 0x6582 <__data_load_start+0x5fa>
    493c: a6 2f        	ldx	$2f                     ; 0x202f <f256main+0x1752>
    493e: 8e 83 65     	stx	$6583                   ; 0x6583 <__data_load_start+0x5fb>
    4941: 18           	clc
    4942: a6 10        	ldx	$10                     ; 0x2010 <f256main+0x1733>
    4944: a4 11        	ldy	$11                     ; 0x2011 <f256main+0x1734>
    4946: 8e 74 65     	stx	$6574                   ; 0x6574 <__data_load_start+0x5ec>
    4949: 8c 75 65     	sty	$6575                   ; 0x6575 <__data_load_start+0x5ed>
    494c: ae 74 65     	ldx	$6574                   ; 0x6574 <__data_load_start+0x5ec>
    494f: ac 75 65     	ldy	$6575                   ; 0x6575 <__data_load_start+0x5ed>
    4952: 8e 5f 65     	stx	$655f                   ; 0x655f <__data_load_start+0x5d7>
    4955: 8c 60 65     	sty	$6560                   ; 0x6560 <__data_load_start+0x5d8>
    4958: a2 ff        	ldx	#$ff
    495a: 8e 64 65     	stx	$6564                   ; 0x6564 <__data_load_start+0x5dc>
    495d: 8e 65 65     	stx	$6565                   ; 0x6565 <__data_load_start+0x5dd>
    4960: 9c 66 65     	stz	$6566                   ; 0x6566 <__data_load_start+0x5de>
    4963: 9c 67 65     	stz	$6567                   ; 0x6567 <__data_load_start+0x5df>
    4966: e8           	inx
    4967: 86 26        	stx	$26                     ; 0x2026 <f256main+0x1749>
    4969: a2 00        	ldx	#$0
    496b: 86 27        	stx	$27                     ; 0x2027 <f256main+0x174a>
    496d: a6 26        	ldx	$26                     ; 0x2026 <f256main+0x1749>
    496f: a4 27        	ldy	$27                     ; 0x2027 <f256main+0x174a>
    4971: 8e 6a 65     	stx	$656a                   ; 0x656a <__data_load_start+0x5e2>
    4974: 8c 6b 65     	sty	$656b                   ; 0x656b <__data_load_start+0x5e3>
    4977: a2 02        	ldx	#$2
    4979: 8e 70 65     	stx	$6570                   ; 0x6570 <__data_load_start+0x5e8>
    497c: 9c 71 65     	stz	$6571                   ; 0x6571 <__data_load_start+0x5e9>
    497f: ae 5f 65     	ldx	$655f                   ; 0x655f <__data_load_start+0x5d7>
    4982: ac 60 65     	ldy	$6560                   ; 0x6560 <__data_load_start+0x5d8>
    4985: 8e 72 65     	stx	$6572                   ; 0x6572 <__data_load_start+0x5ea>
    4988: 8c 73 65     	sty	$6573                   ; 0x6573 <__data_load_start+0x5eb>
    498b: a2 e3        	ldx	#$e3
    498d: a0 00        	ldy	#$0
    498f: 86 12        	stx	$12                     ; 0x2012 <f256main+0x1735>
    4991: 84 13        	sty	$13                     ; 0x2013 <f256main+0x1736>
    4993: a0 01        	ldy	#$1
    4995: a9 cc        	lda	#$cc
    4997: 18           	clc
    4998: 69 02        	adc	#$2
    499a: 8d 7a 65     	sta	$657a                   ; 0x657a <__data_load_start+0x5f2>
    499d: a9 00        	lda	#$0
    499f: 69 00        	adc	#$0
    49a1: 8d 7b 65     	sta	$657b                   ; 0x657b <__data_load_start+0x5f3>
    49a4: e6 12        	inc	$12                     ; 0x2012 <f256main+0x1735>
    49a6: d0 02        	bne	$49aa <printf+0x9d>
    49a8: e6 13        	inc	$13                     ; 0x2013 <f256main+0x1736>
    49aa: a6 12        	ldx	$12                     ; 0x2012 <f256main+0x1735>
    49ac: 8e 76 65     	stx	$6576                   ; 0x6576 <__data_load_start+0x5ee>
    49af: a6 13        	ldx	$13                     ; 0x2013 <f256main+0x1736>
    49b1: 8e 77 65     	stx	$6577                   ; 0x6577 <__data_load_start+0x5ef>
    49b4: a2 61        	ldx	#$61
    49b6: 86 2a        	stx	$2a                     ; 0x202a <f256main+0x174d>
    49b8: a2 5d        	ldx	#$5d
    49ba: 86 2b        	stx	$2b                     ; 0x202b <f256main+0x174e>
    49bc: a6 2a        	ldx	$2a                     ; 0x202a <f256main+0x174d>
    49be: 86 28        	stx	$28                     ; 0x2028 <f256main+0x174b>
    49c0: a6 2b        	ldx	$2b                     ; 0x202b <f256main+0x174e>
    49c2: 86 29        	stx	$29                     ; 0x2029 <f256main+0x174c>
    49c4: b2 2a        	lda	($2a)                   ; 0x202a <f256main+0x174d>
    49c6: c9 25        	cmp	#$25
    49c8: f0 2d        	beq	$49f7 <printf+0xea>
    49ca: aa           	tax
    49cb: d0 03        	bne	$49d0 <printf+0xc3>
    49cd: 4c 58 56     	jmp	$5658 <printf+0xd4b>
    49d0: 85 9d        	sta	$9d                     ; 0x209d <f256main+0x17c0>
    49d2: a2 9d        	ldx	#$9d
    49d4: 86 12        	stx	$12                     ; 0x2012 <f256main+0x1735>
    49d6: a2 00        	ldx	#$0
    49d8: 86 13        	stx	$13                     ; 0x2013 <f256main+0x1736>
    49da: 20 c3 2a     	jsr	$2ac3 <textPrint>
    49dd: a0 01        	ldy	#$1
    49df: e6 28        	inc	$28                     ; 0x2028 <f256main+0x174b>
    49e1: d0 02        	bne	$49e5 <printf+0xd8>
    49e3: e6 29        	inc	$29                     ; 0x2029 <f256main+0x174c>
    49e5: ee 66 65     	inc	$6566                   ; 0x6566 <__data_load_start+0x5de>
    49e8: d0 03        	bne	$49ed <printf+0xe0>
    49ea: ee 67 65     	inc	$6567                   ; 0x6567 <__data_load_start+0x5df>
    49ed: a6 28        	ldx	$28                     ; 0x2028 <f256main+0x174b>
    49ef: 86 2a        	stx	$2a                     ; 0x202a <f256main+0x174d>
    49f1: a6 29        	ldx	$29                     ; 0x2029 <f256main+0x174c>
    49f3: 86 2b        	stx	$2b                     ; 0x202b <f256main+0x174e>
    49f5: 80 c5        	bra	$49bc <printf+0xaf>
    49f7: a6 2a        	ldx	$2a                     ; 0x202a <f256main+0x174d>
    49f9: 86 12        	stx	$12                     ; 0x2012 <f256main+0x1735>
    49fb: a6 2b        	ldx	$2b                     ; 0x202b <f256main+0x174e>
    49fd: 86 13        	stx	$13                     ; 0x2013 <f256main+0x1736>
    49ff: e6 12        	inc	$12                     ; 0x2012 <f256main+0x1735>
    4a01: d0 02        	bne	$4a05 <printf+0xf8>
    4a03: e6 13        	inc	$13                     ; 0x2013 <f256main+0x1736>
    4a05: b1 28        	lda	($28),y                 ; 0x2028 <f256main+0x174b>
    4a07: c9 25        	cmp	#$25
    4a09: d0 1a        	bne	$4a25 <printf+0x118>
    4a0b: ac 66 65     	ldy	$6566                   ; 0x6566 <__data_load_start+0x5de>
    4a0e: ad 67 65     	lda	$6567                   ; 0x6567 <__data_load_start+0x5df>
    4a11: cd 65 65     	cmp	$6565                   ; 0x6565 <__data_load_start+0x5dd>
    4a14: f0 03        	beq	$4a19 <printf+0x10c>
    4a16: 4c 3d 4b     	jmp	$4b3d <printf+0x230>
    4a19: ae 64 65     	ldx	$6564                   ; 0x6564 <__data_load_start+0x5dc>
    4a1c: 86 12        	stx	$12                     ; 0x2012 <f256main+0x1735>
    4a1e: 84 13        	sty	$13                     ; 0x2013 <f256main+0x1736>
    4a20: c4 12        	cpy	$12                     ; 0x2012 <f256main+0x1735>
    4a22: 4c 42 4b     	jmp	$4b42 <printf+0x235>
    4a25: 9c 62 65     	stz	$6562                   ; 0x6562 <__data_load_start+0x5da>
    4a28: 9c 63 65     	stz	$6563                   ; 0x6563 <__data_load_start+0x5db>
    4a2b: 9c 61 65     	stz	$6561                   ; 0x6561 <__data_load_start+0x5d9>
    4a2e: 9c 6c 65     	stz	$656c                   ; 0x656c <__data_load_start+0x5e4>
    4a31: 9c 6d 65     	stz	$656d                   ; 0x656d <__data_load_start+0x5e5>
    4a34: a2 ff        	ldx	#$ff
    4a36: 8e 6e 65     	stx	$656e                   ; 0x656e <__data_load_start+0x5e6>
    4a39: 8e 6f 65     	stx	$656f                   ; 0x656f <__data_load_start+0x5e7>
    4a3c: 64 25        	stz	$25                     ; 0x2025 <f256main+0x1748>
    4a3e: 80 35        	bra	$4a75 <printf+0x168>
    4a40: a2 02        	ldx	#$2
    4a42: 80 15        	bra	$4a59 <printf+0x14c>
    4a44: e0 20        	cpx	#$20
    4a46: f0 15        	beq	$4a5d <printf+0x150>
    4a48: 86 15        	stx	$15                     ; 0x2015 <f256main+0x1738>
    4a4a: e0 23        	cpx	#$23
    4a4c: f0 03        	beq	$4a51 <printf+0x144>
    4a4e: 4c da 4a     	jmp	$4ada <printf+0x1cd>
    4a51: a5 25        	lda	$25                     ; 0x2025 <f256main+0x1748>
    4a53: a2 04        	ldx	#$4
    4a55: 80 02        	bra	$4a59 <printf+0x14c>
    4a57: a2 10        	ldx	#$10
    4a59: 86 14        	stx	$14                     ; 0x2014 <f256main+0x1737>
    4a5b: 80 06        	bra	$4a63 <printf+0x156>
    4a5d: a2 08        	ldx	#$8
    4a5f: 86 14        	stx	$14                     ; 0x2014 <f256main+0x1737>
    4a61: a5 25        	lda	$25                     ; 0x2025 <f256main+0x1748>
    4a63: 05 14        	ora	$14                     ; 0x2014 <f256main+0x1737>
    4a65: 85 25        	sta	$25                     ; 0x2025 <f256main+0x1748>
    4a67: 8d 62 65     	sta	$6562                   ; 0x6562 <__data_load_start+0x5da>
    4a6a: a2 00        	ldx	#$0
    4a6c: 8e 63 65     	stx	$6563                   ; 0x6563 <__data_load_start+0x5db>
    4a6f: e6 12        	inc	$12                     ; 0x2012 <f256main+0x1735>
    4a71: d0 02        	bne	$4a75 <printf+0x168>
    4a73: e6 13        	inc	$13                     ; 0x2013 <f256main+0x1736>
    4a75: b2 12        	lda	($12)                   ; 0x2012 <f256main+0x1735>
    4a77: aa           	tax
    4a78: 18           	clc
    4a79: 69 d6        	adc	#$d6
    4a7b: c9 07        	cmp	#$7
    4a7d: b0 c5        	bcs	$4a44 <printf+0x137>
    4a7f: 86 15        	stx	$15                     ; 0x2015 <f256main+0x1738>
    4a81: 0a           	asl
    4a82: aa           	tax
    4a83: a0 01        	ldy	#$1
    4a85: 84 14        	sty	$14                     ; 0x2014 <f256main+0x1737>
    4a87: a5 25        	lda	$25                     ; 0x2025 <f256main+0x1748>
    4a89: 7c 8f 5c     	jmp	($5c8f,x)               ; 0x5c8f <__set_v+0x95>
    4a8c: ad 72 65     	lda	$6572                   ; 0x6572 <__data_load_start+0x5ea>
    4a8f: ae 73 65     	ldx	$6573                   ; 0x6573 <__data_load_start+0x5eb>
    4a92: 85 16        	sta	$16                     ; 0x2016 <f256main+0x1739>
    4a94: 86 17        	stx	$17                     ; 0x2017 <f256main+0x173a>
    4a96: 18           	clc
    4a97: 69 02        	adc	#$2
    4a99: a8           	tay
    4a9a: 8a           	txa
    4a9b: 69 00        	adc	#$0
    4a9d: 8c 72 65     	sty	$6572                   ; 0x6572 <__data_load_start+0x5ea>
    4aa0: 8d 73 65     	sta	$6573                   ; 0x6573 <__data_load_start+0x5eb>
    4aa3: b2 16        	lda	($16)                   ; 0x2016 <f256main+0x1739>
    4aa5: 85 15        	sta	$15                     ; 0x2015 <f256main+0x1738>
    4aa7: a0 01        	ldy	#$1
    4aa9: b1 16        	lda	($16),y                 ; 0x2016 <f256main+0x1739>
    4aab: 85 14        	sta	$14                     ; 0x2014 <f256main+0x1737>
    4aad: 10 17        	bpl	$4ac6 <printf+0x1b9>
    4aaf: a5 25        	lda	$25                     ; 0x2025 <f256main+0x1748>
    4ab1: 09 01        	ora	#$1
    4ab3: 85 25        	sta	$25                     ; 0x2025 <f256main+0x1748>
    4ab5: 8d 62 65     	sta	$6562                   ; 0x6562 <__data_load_start+0x5da>
    4ab8: a2 00        	ldx	#$0
    4aba: 8e 63 65     	stx	$6563                   ; 0x6563 <__data_load_start+0x5db>
    4abd: 8a           	txa
    4abe: 38           	sec
    4abf: e5 15        	sbc	$15                     ; 0x2015 <f256main+0x1738>
    4ac1: 85 15        	sta	$15                     ; 0x2015 <f256main+0x1738>
    4ac3: 8a           	txa
    4ac4: e5 14        	sbc	$14                     ; 0x2014 <f256main+0x1737>
    4ac6: a6 15        	ldx	$15                     ; 0x2015 <f256main+0x1738>
    4ac8: 8e 6c 65     	stx	$656c                   ; 0x656c <__data_load_start+0x5e4>
    4acb: 8d 6d 65     	sta	$656d                   ; 0x656d <__data_load_start+0x5e5>
    4ace: e6 12        	inc	$12                     ; 0x2012 <f256main+0x1735>
    4ad0: f0 03        	beq	$4ad5 <printf+0x1c8>
    4ad2: 4c a2 4b     	jmp	$4ba2 <printf+0x295>
    4ad5: e6 13        	inc	$13                     ; 0x2013 <f256main+0x1736>
    4ad7: 4c a2 4b     	jmp	$4ba2 <printf+0x295>
    4ada: a5 15        	lda	$15                     ; 0x2015 <f256main+0x1738>
    4adc: 18           	clc
    4add: 69 d0        	adc	#$d0
    4adf: c9 0a        	cmp	#$a
    4ae1: 90 03        	bcc	$4ae6 <printf+0x1d9>
    4ae3: 4c 92 4b     	jmp	$4b92 <printf+0x285>
    4ae6: a6 15        	ldx	$15                     ; 0x2015 <f256main+0x1738>
    4ae8: 86 14        	stx	$14                     ; 0x2014 <f256main+0x1737>
    4aea: 64 16        	stz	$16                     ; 0x2016 <f256main+0x1739>
    4aec: 64 15        	stz	$15                     ; 0x2015 <f256main+0x1738>
    4aee: 64 17        	stz	$17                     ; 0x2017 <f256main+0x173a>
    4af0: a0 01        	ldy	#$1
    4af2: 06 16        	asl	$16                     ; 0x2016 <f256main+0x1739>
    4af4: 26 17        	rol	$17                     ; 0x2017 <f256main+0x173a>
    4af6: a5 16        	lda	$16                     ; 0x2016 <f256main+0x1739>
    4af8: 0a           	asl
    4af9: aa           	tax
    4afa: a5 17        	lda	$17                     ; 0x2017 <f256main+0x173a>
    4afc: 2a           	rol
    4afd: 86 18        	stx	$18                     ; 0x2018 <f256main+0x173b>
    4aff: 06 18        	asl	$18                     ; 0x2018 <f256main+0x173b>
    4b01: 2a           	rol
    4b02: aa           	tax
    4b03: a5 18        	lda	$18                     ; 0x2018 <f256main+0x173b>
    4b05: 18           	clc
    4b06: 65 16        	adc	$16                     ; 0x2016 <f256main+0x1739>
    4b08: 85 16        	sta	$16                     ; 0x2016 <f256main+0x1739>
    4b0a: 8a           	txa
    4b0b: 65 17        	adc	$17                     ; 0x2017 <f256main+0x173a>
    4b0d: 85 17        	sta	$17                     ; 0x2017 <f256main+0x173a>
    4b0f: a5 16        	lda	$16                     ; 0x2016 <f256main+0x1739>
    4b11: 18           	clc
    4b12: 65 14        	adc	$14                     ; 0x2014 <f256main+0x1737>
    4b14: 85 14        	sta	$14                     ; 0x2014 <f256main+0x1737>
    4b16: a5 17        	lda	$17                     ; 0x2017 <f256main+0x173a>
    4b18: 65 15        	adc	$15                     ; 0x2015 <f256main+0x1738>
    4b1a: aa           	tax
    4b1b: 18           	clc
    4b1c: a5 14        	lda	$14                     ; 0x2014 <f256main+0x1737>
    4b1e: 69 d0        	adc	#$d0
    4b20: 85 16        	sta	$16                     ; 0x2016 <f256main+0x1739>
    4b22: 8a           	txa
    4b23: 69 ff        	adc	#$ff
    4b25: 85 17        	sta	$17                     ; 0x2017 <f256main+0x173a>
    4b27: b1 12        	lda	($12),y                 ; 0x2012 <f256main+0x1735>
    4b29: 85 14        	sta	$14                     ; 0x2014 <f256main+0x1737>
    4b2b: 18           	clc
    4b2c: 69 d0        	adc	#$d0
    4b2e: e6 12        	inc	$12                     ; 0x2012 <f256main+0x1735>
    4b30: d0 02        	bne	$4b34 <printf+0x227>
    4b32: e6 13        	inc	$13                     ; 0x2013 <f256main+0x1736>
    4b34: c9 0a        	cmp	#$a
    4b36: 64 15        	stz	$15                     ; 0x2015 <f256main+0x1738>
    4b38: 90 b8        	bcc	$4af2 <printf+0x1e5>
    4b3a: 4c 98 4b     	jmp	$4b98 <printf+0x28b>
    4b3d: 84 13        	sty	$13                     ; 0x2013 <f256main+0x1736>
    4b3f: cd 65 65     	cmp	$6565                   ; 0x6565 <__data_load_start+0x5dd>
    4b42: a0 01        	ldy	#$1
    4b44: b0 34        	bcs	$4b7a <printf+0x26d>
    4b46: ae 71 65     	ldx	$6571                   ; 0x6571 <__data_load_start+0x5e9>
    4b49: e4 27        	cpx	$27                     ; 0x2027 <f256main+0x174a>
    4b4b: d0 1c        	bne	$4b69 <printf+0x25c>
    4b4d: ae 70 65     	ldx	$6570                   ; 0x6570 <__data_load_start+0x5e8>
    4b50: e4 26        	cpx	$26                     ; 0x2026 <f256main+0x1749>
    4b52: d0 15        	bne	$4b69 <printf+0x25c>
    4b54: 18           	clc
    4b55: aa           	tax
    4b56: a5 13        	lda	$13                     ; 0x2013 <f256main+0x1736>
    4b58: 6d 6a 65     	adc	$656a                   ; 0x656a <__data_load_start+0x5e2>
    4b5b: 85 12        	sta	$12                     ; 0x2012 <f256main+0x1735>
    4b5d: 8a           	txa
    4b5e: 6d 6b 65     	adc	$656b                   ; 0x656b <__data_load_start+0x5e3>
    4b61: 85 13        	sta	$13                     ; 0x2013 <f256main+0x1736>
    4b63: a9 25        	lda	#$25
    4b65: 92 12        	sta	($12)                   ; 0x2012 <f256main+0x1735>
    4b67: 80 11        	bra	$4b7a <printf+0x26d>
    4b69: a2 25        	ldx	#$25
    4b6b: 86 9d        	stx	$9d                     ; 0x209d <f256main+0x17c0>
    4b6d: a2 9d        	ldx	#$9d
    4b6f: 86 12        	stx	$12                     ; 0x2012 <f256main+0x1735>
    4b71: a2 00        	ldx	#$0
    4b73: 86 13        	stx	$13                     ; 0x2013 <f256main+0x1736>
    4b75: 20 c3 2a     	jsr	$2ac3 <textPrint>
    4b78: a0 01        	ldy	#$1
    4b7a: ee 66 65     	inc	$6566                   ; 0x6566 <__data_load_start+0x5de>
    4b7d: d0 03        	bne	$4b82 <printf+0x275>
    4b7f: ee 67 65     	inc	$6567                   ; 0x6567 <__data_load_start+0x5df>
    4b82: a5 28        	lda	$28                     ; 0x2028 <f256main+0x174b>
    4b84: 18           	clc
    4b85: 69 02        	adc	#$2
    4b87: 85 2a        	sta	$2a                     ; 0x202a <f256main+0x174d>
    4b89: a5 29        	lda	$29                     ; 0x2029 <f256main+0x174c>
    4b8b: 69 00        	adc	#$0
    4b8d: 85 2b        	sta	$2b                     ; 0x202b <f256main+0x174e>
    4b8f: 4c bc 49     	jmp	$49bc <printf+0xaf>
    4b92: 64 16        	stz	$16                     ; 0x2016 <f256main+0x1739>
    4b94: 64 17        	stz	$17                     ; 0x2017 <f256main+0x173a>
    4b96: a0 01        	ldy	#$1
    4b98: a6 16        	ldx	$16                     ; 0x2016 <f256main+0x1739>
    4b9a: 8e 6c 65     	stx	$656c                   ; 0x656c <__data_load_start+0x5e4>
    4b9d: a5 17        	lda	$17                     ; 0x2017 <f256main+0x173a>
    4b9f: 8d 6d 65     	sta	$656d                   ; 0x656d <__data_load_start+0x5e5>
    4ba2: 86 2e        	stx	$2e                     ; 0x202e <f256main+0x1751>
    4ba4: 85 2c        	sta	$2c                     ; 0x202c <f256main+0x174f>
    4ba6: b2 12        	lda	($12)                   ; 0x2012 <f256main+0x1735>
    4ba8: a2 ff        	ldx	#$ff
    4baa: c9 2e        	cmp	#$2e
    4bac: d0 3f        	bne	$4bed <printf+0x2e0>
    4bae: b1 12        	lda	($12),y                 ; 0x2012 <f256main+0x1735>
    4bb0: c9 2a        	cmp	#$2a
    4bb2: d0 3e        	bne	$4bf2 <printf+0x2e5>
    4bb4: ad 72 65     	lda	$6572                   ; 0x6572 <__data_load_start+0x5ea>
    4bb7: ae 73 65     	ldx	$6573                   ; 0x6573 <__data_load_start+0x5eb>
    4bba: 85 14        	sta	$14                     ; 0x2014 <f256main+0x1737>
    4bbc: 86 15        	stx	$15                     ; 0x2015 <f256main+0x1738>
    4bbe: 18           	clc
    4bbf: 69 02        	adc	#$2
    4bc1: 85 16        	sta	$16                     ; 0x2016 <f256main+0x1739>
    4bc3: 8a           	txa
    4bc4: 69 00        	adc	#$0
    4bc6: a6 16        	ldx	$16                     ; 0x2016 <f256main+0x1739>
    4bc8: 8e 72 65     	stx	$6572                   ; 0x6572 <__data_load_start+0x5ea>
    4bcb: 8d 73 65     	sta	$6573                   ; 0x6573 <__data_load_start+0x5eb>
    4bce: a5 12        	lda	$12                     ; 0x2012 <f256main+0x1735>
    4bd0: 18           	clc
    4bd1: 69 02        	adc	#$2
    4bd3: 85 12        	sta	$12                     ; 0x2012 <f256main+0x1735>
    4bd5: a5 13        	lda	$13                     ; 0x2013 <f256main+0x1736>
    4bd7: 69 00        	adc	#$0
    4bd9: 85 13        	sta	$13                     ; 0x2013 <f256main+0x1736>
    4bdb: b2 14        	lda	($14)                   ; 0x2014 <f256main+0x1737>
    4bdd: aa           	tax
    4bde: b1 14        	lda	($14),y                 ; 0x2014 <f256main+0x1737>
    4be0: 86 18        	stx	$18                     ; 0x2018 <f256main+0x173b>
    4be2: 8e 6e 65     	stx	$656e                   ; 0x656e <__data_load_start+0x5e6>
    4be5: 85 19        	sta	$19                     ; 0x2019 <f256main+0x173c>
    4be7: 8d 6f 65     	sta	$656f                   ; 0x656f <__data_load_start+0x5e7>
    4bea: 4c a1 4c     	jmp	$4ca1 <printf+0x394>
    4bed: 86 18        	stx	$18                     ; 0x2018 <f256main+0x173b>
    4bef: 4c b3 4c     	jmp	$4cb3 <printf+0x3a6>
    4bf2: 85 17        	sta	$17                     ; 0x2017 <f256main+0x173a>
    4bf4: 18           	clc
    4bf5: 69 d0        	adc	#$d0
    4bf7: c9 0a        	cmp	#$a
    4bf9: 90 03        	bcc	$4bfe <printf+0x2f1>
    4bfb: 4c 91 4c     	jmp	$4c91 <printf+0x384>
    4bfe: 64 16        	stz	$16                     ; 0x2016 <f256main+0x1739>
    4c00: a2 01        	ldx	#$1
    4c02: 64 18        	stz	$18                     ; 0x2018 <f256main+0x173b>
    4c04: 64 19        	stz	$19                     ; 0x2019 <f256main+0x173c>
    4c06: a0 01        	ldy	#$1
    4c08: 64 1a        	stz	$1a                     ; 0x201a <f256main+0x173d>
    4c0a: 5a           	phy
    4c0b: a4 1a        	ldy	$1a                     ; 0x201a <f256main+0x173d>
    4c0d: 84 14        	sty	$14                     ; 0x2014 <f256main+0x1737>
    4c0f: 86 15        	stx	$15                     ; 0x2015 <f256main+0x1738>
    4c11: 06 18        	asl	$18                     ; 0x2018 <f256main+0x173b>
    4c13: 26 19        	rol	$19                     ; 0x2019 <f256main+0x173c>
    4c15: a5 18        	lda	$18                     ; 0x2018 <f256main+0x173b>
    4c17: 0a           	asl
    4c18: 85 1d        	sta	$1d                     ; 0x201d <f256main+0x1740>
    4c1a: a5 19        	lda	$19                     ; 0x2019 <f256main+0x173c>
    4c1c: 2a           	rol
    4c1d: 06 1d        	asl	$1d                     ; 0x201d <f256main+0x1740>
    4c1f: 2a           	rol
    4c20: 85 1e        	sta	$1e                     ; 0x201e <f256main+0x1741>
    4c22: a5 1d        	lda	$1d                     ; 0x201d <f256main+0x1740>
    4c24: 18           	clc
    4c25: 65 18        	adc	$18                     ; 0x2018 <f256main+0x173b>
    4c27: 85 18        	sta	$18                     ; 0x2018 <f256main+0x173b>
    4c29: a5 1e        	lda	$1e                     ; 0x201e <f256main+0x1741>
    4c2b: 65 19        	adc	$19                     ; 0x2019 <f256main+0x173c>
    4c2d: 85 19        	sta	$19                     ; 0x2019 <f256main+0x173c>
    4c2f: a5 18        	lda	$18                     ; 0x2018 <f256main+0x173b>
    4c31: 18           	clc
    4c32: 65 17        	adc	$17                     ; 0x2017 <f256main+0x173a>
    4c34: 85 17        	sta	$17                     ; 0x2017 <f256main+0x173a>
    4c36: a5 19        	lda	$19                     ; 0x2019 <f256main+0x173c>
    4c38: 65 16        	adc	$16                     ; 0x2016 <f256main+0x1739>
    4c3a: 85 16        	sta	$16                     ; 0x2016 <f256main+0x1739>
    4c3c: 18           	clc
    4c3d: a5 17        	lda	$17                     ; 0x2017 <f256main+0x173a>
    4c3f: 69 d0        	adc	#$d0
    4c41: 85 18        	sta	$18                     ; 0x2018 <f256main+0x173b>
    4c43: a5 16        	lda	$16                     ; 0x2016 <f256main+0x1739>
    4c45: 69 ff        	adc	#$ff
    4c47: 85 19        	sta	$19                     ; 0x2019 <f256main+0x173c>
    4c49: e8           	inx
    4c4a: d0 02        	bne	$4c4e <printf+0x341>
    4c4c: e6 1a        	inc	$1a                     ; 0x201a <f256main+0x173d>
    4c4e: a5 12        	lda	$12                     ; 0x2012 <f256main+0x1735>
    4c50: 18           	clc
    4c51: 65 15        	adc	$15                     ; 0x2015 <f256main+0x1738>
    4c53: 85 1d        	sta	$1d                     ; 0x201d <f256main+0x1740>
    4c55: a5 13        	lda	$13                     ; 0x2013 <f256main+0x1736>
    4c57: 65 14        	adc	$14                     ; 0x2014 <f256main+0x1737>
    4c59: a4 1d        	ldy	$1d                     ; 0x201d <f256main+0x1740>
    4c5b: 84 16        	sty	$16                     ; 0x2016 <f256main+0x1739>
    4c5d: 7a           	ply
    4c5e: 85 17        	sta	$17                     ; 0x2017 <f256main+0x173a>
    4c60: b1 16        	lda	($16),y                 ; 0x2016 <f256main+0x1739>
    4c62: 85 17        	sta	$17                     ; 0x2017 <f256main+0x173a>
    4c64: 18           	clc
    4c65: 69 d0        	adc	#$d0
    4c67: c9 0a        	cmp	#$a
    4c69: 64 16        	stz	$16                     ; 0x2016 <f256main+0x1739>
    4c6b: b0 03        	bcs	$4c70 <printf+0x363>
    4c6d: 4c 0a 4c     	jmp	$4c0a <printf+0x2fd>
    4c70: a5 12        	lda	$12                     ; 0x2012 <f256main+0x1735>
    4c72: 18           	clc
    4c73: 65 15        	adc	$15                     ; 0x2015 <f256main+0x1738>
    4c75: 85 12        	sta	$12                     ; 0x2012 <f256main+0x1735>
    4c77: a5 13        	lda	$13                     ; 0x2013 <f256main+0x1736>
    4c79: 65 14        	adc	$14                     ; 0x2014 <f256main+0x1737>
    4c7b: 85 13        	sta	$13                     ; 0x2013 <f256main+0x1736>
    4c7d: e6 12        	inc	$12                     ; 0x2012 <f256main+0x1735>
    4c7f: d0 02        	bne	$4c83 <printf+0x376>
    4c81: e6 13        	inc	$13                     ; 0x2013 <f256main+0x1736>
    4c83: a6 18        	ldx	$18                     ; 0x2018 <f256main+0x173b>
    4c85: 8e 6e 65     	stx	$656e                   ; 0x656e <__data_load_start+0x5e6>
    4c88: a6 19        	ldx	$19                     ; 0x2019 <f256main+0x173c>
    4c8a: 8e 6f 65     	stx	$656f                   ; 0x656f <__data_load_start+0x5e7>
    4c8d: a0 01        	ldy	#$1
    4c8f: 80 10        	bra	$4ca1 <printf+0x394>
    4c91: e6 12        	inc	$12                     ; 0x2012 <f256main+0x1735>
    4c93: d0 02        	bne	$4c97 <printf+0x38a>
    4c95: e6 13        	inc	$13                     ; 0x2013 <f256main+0x1736>
    4c97: 64 18        	stz	$18                     ; 0x2018 <f256main+0x173b>
    4c99: 9c 6e 65     	stz	$656e                   ; 0x656e <__data_load_start+0x5e6>
    4c9c: 9c 6f 65     	stz	$656f                   ; 0x656f <__data_load_start+0x5e7>
    4c9f: 64 19        	stz	$19                     ; 0x2019 <f256main+0x173c>
    4ca1: a5 25        	lda	$25                     ; 0x2025 <f256main+0x1748>
    4ca3: 29 ef        	and	#$ef
    4ca5: 85 25        	sta	$25                     ; 0x2025 <f256main+0x1748>
    4ca7: 8d 62 65     	sta	$6562                   ; 0x6562 <__data_load_start+0x5da>
    4caa: a2 00        	ldx	#$0
    4cac: 8e 63 65     	stx	$6563                   ; 0x6563 <__data_load_start+0x5db>
    4caf: b2 12        	lda	($12)                   ; 0x2012 <f256main+0x1735>
    4cb1: a6 19        	ldx	$19                     ; 0x2019 <f256main+0x173c>
    4cb3: 86 15        	stx	$15                     ; 0x2015 <f256main+0x1738>
    4cb5: a6 12        	ldx	$12                     ; 0x2012 <f256main+0x1735>
    4cb7: 86 2a        	stx	$2a                     ; 0x202a <f256main+0x174d>
    4cb9: a6 13        	ldx	$13                     ; 0x2013 <f256main+0x1736>
    4cbb: 86 2b        	stx	$2b                     ; 0x202b <f256main+0x174e>
    4cbd: e6 2a        	inc	$2a                     ; 0x202a <f256main+0x174d>
    4cbf: d0 02        	bne	$4cc3 <printf+0x3b6>
    4cc1: e6 2b        	inc	$2b                     ; 0x202b <f256main+0x174e>
    4cc3: 85 14        	sta	$14                     ; 0x2014 <f256main+0x1737>
    4cc5: 38           	sec
    4cc6: e9 6c        	sbc	#$6c
    4cc8: 50 02        	bvc	$4ccc <printf+0x3bf>
    4cca: 49 80        	eor	#$80
    4ccc: aa           	tax
    4ccd: 10 1d        	bpl	$4cec <printf+0x3df>
    4ccf: a5 14        	lda	$14                     ; 0x2014 <f256main+0x1737>
    4cd1: c9 4c        	cmp	#$4c
    4cd3: f0 27        	beq	$4cfc <printf+0x3ef>
    4cd5: c9 68        	cmp	#$68
    4cd7: d0 03        	bne	$4cdc <printf+0x3cf>
    4cd9: 4c 68 4d     	jmp	$4d68 <printf+0x45b>
    4cdc: a2 08        	ldx	#$8
    4cde: c9 6a        	cmp	#$6a
    4ce0: d0 30        	bne	$4d12 <printf+0x405>
    4ce2: a5 2a        	lda	$2a                     ; 0x202a <f256main+0x174d>
    4ce4: 85 12        	sta	$12                     ; 0x2012 <f256main+0x1735>
    4ce6: a5 2b        	lda	$2b                     ; 0x202b <f256main+0x174e>
    4ce8: 85 13        	sta	$13                     ; 0x2013 <f256main+0x1736>
    4cea: 80 45        	bra	$4d31 <printf+0x424>
    4cec: a6 14        	ldx	$14                     ; 0x2014 <f256main+0x1737>
    4cee: e0 6c        	cpx	#$6c
    4cf0: f0 25        	beq	$4d17 <printf+0x40a>
    4cf2: e0 74        	cpx	#$74
    4cf4: f0 14        	beq	$4d0a <printf+0x3fd>
    4cf6: e0 7a        	cpx	#$7a
    4cf8: f0 10        	beq	$4d0a <printf+0x3fd>
    4cfa: 80 16        	bra	$4d12 <printf+0x405>
    4cfc: a5 25        	lda	$25                     ; 0x2025 <f256main+0x1748>
    4cfe: 09 40        	ora	#$40
    4d00: 85 25        	sta	$25                     ; 0x2025 <f256main+0x1748>
    4d02: 8d 62 65     	sta	$6562                   ; 0x6562 <__data_load_start+0x5da>
    4d05: a2 00        	ldx	#$0
    4d07: 8e 63 65     	stx	$6563                   ; 0x6563 <__data_load_start+0x5db>
    4d0a: a6 2a        	ldx	$2a                     ; 0x202a <f256main+0x174d>
    4d0c: 86 12        	stx	$12                     ; 0x2012 <f256main+0x1735>
    4d0e: a6 2b        	ldx	$2b                     ; 0x202b <f256main+0x174e>
    4d10: 86 13        	stx	$13                     ; 0x2013 <f256main+0x1736>
    4d12: a2 02        	ldx	#$2
    4d14: 8a           	txa
    4d15: 80 1c        	bra	$4d33 <printf+0x426>
    4d17: b1 12        	lda	($12),y                 ; 0x2012 <f256main+0x1735>
    4d19: a2 04        	ldx	#$4
    4d1b: c9 6c        	cmp	#$6c
    4d1d: f0 03        	beq	$4d22 <printf+0x415>
    4d1f: 4c a5 50     	jmp	$50a5 <printf+0x798>
    4d22: a5 12        	lda	$12                     ; 0x2012 <f256main+0x1735>
    4d24: 18           	clc
    4d25: 69 02        	adc	#$2
    4d27: 85 12        	sta	$12                     ; 0x2012 <f256main+0x1735>
    4d29: a5 13        	lda	$13                     ; 0x2013 <f256main+0x1736>
    4d2b: 69 00        	adc	#$0
    4d2d: 85 13        	sta	$13                     ; 0x2013 <f256main+0x1736>
    4d2f: a2 08        	ldx	#$8
    4d31: a9 08        	lda	#$8
    4d33: 85 ed        	sta	$ed                     ; 0x20ed <f256main+0x1810>
    4d35: b2 12        	lda	($12)                   ; 0x2012 <f256main+0x1735>
    4d37: 5a           	phy
    4d38: a4 12        	ldy	$12                     ; 0x2012 <f256main+0x1735>
    4d3a: 84 2a        	sty	$2a                     ; 0x202a <f256main+0x174d>
    4d3c: a4 13        	ldy	$13                     ; 0x2013 <f256main+0x1736>
    4d3e: 84 2b        	sty	$2b                     ; 0x202b <f256main+0x174e>
    4d40: 7a           	ply
    4d41: 86 26        	stx	$26                     ; 0x2026 <f256main+0x1749>
    4d43: aa           	tax
    4d44: 18           	clc
    4d45: 69 9d        	adc	#$9d
    4d47: c9 16        	cmp	#$16
    4d49: b0 3c        	bcs	$4d87 <printf+0x47a>
    4d4b: 0a           	asl
    4d4c: aa           	tax
    4d4d: 7c 9d 5c     	jmp	($5c9d,x)               ; 0x5c9d <__set_v+0xa3>
    4d50: a6 15        	ldx	$15                     ; 0x2015 <f256main+0x1738>
    4d52: 8e 78 65     	stx	$6578                   ; 0x6578 <__data_load_start+0x5f0>
    4d55: a6 18        	ldx	$18                     ; 0x2018 <f256main+0x173b>
    4d57: 8e 79 65     	stx	$6579                   ; 0x6579 <__data_load_start+0x5f1>
    4d5a: a0 0a        	ldy	#$a
    4d5c: a2 0a        	ldx	#$a
    4d5e: 86 ec        	stx	$ec                     ; 0x20ec <f256main+0x180f>
    4d60: 8c 61 65     	sty	$6561                   ; 0x6561 <__data_load_start+0x5d9>
    4d63: 64 2f        	stz	$2f                     ; 0x202f <f256main+0x1752>
    4d65: 4c a9 4e     	jmp	$4ea9 <printf+0x59c>
    4d68: b1 12        	lda	($12),y                 ; 0x2012 <f256main+0x1735>
    4d6a: a2 02        	ldx	#$2
    4d6c: c9 68        	cmp	#$68
    4d6e: f0 03        	beq	$4d73 <printf+0x466>
    4d70: 4c ab 50     	jmp	$50ab <printf+0x79e>
    4d73: a5 12        	lda	$12                     ; 0x2012 <f256main+0x1735>
    4d75: 18           	clc
    4d76: 69 02        	adc	#$2
    4d78: 85 12        	sta	$12                     ; 0x2012 <f256main+0x1735>
    4d7a: a5 13        	lda	$13                     ; 0x2013 <f256main+0x1736>
    4d7c: 69 00        	adc	#$0
    4d7e: 85 13        	sta	$13                     ; 0x2013 <f256main+0x1736>
    4d80: a2 01        	ldx	#$1
    4d82: 86 ed        	stx	$ed                     ; 0x20ed <f256main+0x1810>
    4d84: e8           	inx
    4d85: 80 ae        	bra	$4d35 <printf+0x428>
    4d87: e0 58        	cpx	#$58
    4d89: f0 03        	beq	$4d8e <printf+0x481>
    4d8b: 4c 12 56     	jmp	$5612 <printf+0xd05>
    4d8e: a6 15        	ldx	$15                     ; 0x2015 <f256main+0x1738>
    4d90: 8e 78 65     	stx	$6578                   ; 0x6578 <__data_load_start+0x5f0>
    4d93: a6 18        	ldx	$18                     ; 0x2018 <f256main+0x173b>
    4d95: 8e 79 65     	stx	$6579                   ; 0x6579 <__data_load_start+0x5f1>
    4d98: a2 10        	ldx	#$10
    4d9a: 8e 61 65     	stx	$6561                   ; 0x6561 <__data_load_start+0x5d9>
    4d9d: a9 00        	lda	#$0
    4d9f: 09 01        	ora	#$1
    4da1: a6 25        	ldx	$25                     ; 0x2025 <f256main+0x1748>
    4da3: 80 2f        	bra	$4dd4 <printf+0x4c7>
    4da5: a6 15        	ldx	$15                     ; 0x2015 <f256main+0x1738>
    4da7: 8e 78 65     	stx	$6578                   ; 0x6578 <__data_load_start+0x5f0>
    4daa: a6 18        	ldx	$18                     ; 0x2018 <f256main+0x173b>
    4dac: 8e 79 65     	stx	$6579                   ; 0x6579 <__data_load_start+0x5f1>
    4daf: a2 10        	ldx	#$10
    4db1: 8e 61 65     	stx	$6561                   ; 0x6561 <__data_load_start+0x5d9>
    4db4: a5 25        	lda	$25                     ; 0x2025 <f256main+0x1748>
    4db6: 09 84        	ora	#$84
    4db8: 80 13        	bra	$4dcd <printf+0x4c0>
    4dba: a6 15        	ldx	$15                     ; 0x2015 <f256main+0x1738>
    4dbc: 8e 78 65     	stx	$6578                   ; 0x6578 <__data_load_start+0x5f0>
    4dbf: a6 18        	ldx	$18                     ; 0x2018 <f256main+0x173b>
    4dc1: 8e 79 65     	stx	$6579                   ; 0x6579 <__data_load_start+0x5f1>
    4dc4: a2 10        	ldx	#$10
    4dc6: 8e 61 65     	stx	$6561                   ; 0x6561 <__data_load_start+0x5d9>
    4dc9: a5 25        	lda	$25                     ; 0x2025 <f256main+0x1748>
    4dcb: 09 80        	ora	#$80
    4dcd: aa           	tax
    4dce: a9 00        	lda	#$0
    4dd0: 09 01        	ora	#$1
    4dd2: 86 25        	stx	$25                     ; 0x2025 <f256main+0x1748>
    4dd4: 8e 62 65     	stx	$6562                   ; 0x6562 <__data_load_start+0x5da>
    4dd7: 85 2f        	sta	$2f                     ; 0x202f <f256main+0x1752>
    4dd9: 8d 63 65     	sta	$6563                   ; 0x6563 <__data_load_start+0x5db>
    4ddc: a2 10        	ldx	#$10
    4dde: 86 ec        	stx	$ec                     ; 0x20ec <f256main+0x180f>
    4de0: 4c a9 4e     	jmp	$4ea9 <printf+0x59c>
    4de3: ad 72 65     	lda	$6572                   ; 0x6572 <__data_load_start+0x5ea>
    4de6: ae 73 65     	ldx	$6573                   ; 0x6573 <__data_load_start+0x5eb>
    4de9: 85 12        	sta	$12                     ; 0x2012 <f256main+0x1735>
    4deb: 86 13        	stx	$13                     ; 0x2013 <f256main+0x1736>
    4ded: 18           	clc
    4dee: 69 02        	adc	#$2
    4df0: 85 14        	sta	$14                     ; 0x2014 <f256main+0x1737>
    4df2: 8a           	txa
    4df3: 69 00        	adc	#$0
    4df5: a6 14        	ldx	$14                     ; 0x2014 <f256main+0x1737>
    4df7: 8e 72 65     	stx	$6572                   ; 0x6572 <__data_load_start+0x5ea>
    4dfa: 8d 73 65     	sta	$6573                   ; 0x6573 <__data_load_start+0x5eb>
    4dfd: b2 12        	lda	($12)                   ; 0x2012 <f256main+0x1735>
    4dff: aa           	tax
    4e00: b1 12        	lda	($12),y                 ; 0x2012 <f256main+0x1735>
    4e02: 86 12        	stx	$12                     ; 0x2012 <f256main+0x1735>
    4e04: 85 13        	sta	$13                     ; 0x2013 <f256main+0x1736>
    4e06: ad 66 65     	lda	$6566                   ; 0x6566 <__data_load_start+0x5de>
    4e09: ae 67 65     	ldx	$6567                   ; 0x6567 <__data_load_start+0x5df>
    4e0c: 92 12        	sta	($12)                   ; 0x2012 <f256main+0x1735>
    4e0e: 8a           	txa
    4e0f: 91 12        	sta	($12),y                 ; 0x2012 <f256main+0x1735>
    4e11: 4c 7d 4e     	jmp	$4e7d <printf+0x570>
    4e14: ad 72 65     	lda	$6572                   ; 0x6572 <__data_load_start+0x5ea>
    4e17: ae 73 65     	ldx	$6573                   ; 0x6573 <__data_load_start+0x5eb>
    4e1a: 85 12        	sta	$12                     ; 0x2012 <f256main+0x1735>
    4e1c: 86 13        	stx	$13                     ; 0x2013 <f256main+0x1736>
    4e1e: 18           	clc
    4e1f: 69 02        	adc	#$2
    4e21: 85 14        	sta	$14                     ; 0x2014 <f256main+0x1737>
    4e23: 8a           	txa
    4e24: 69 00        	adc	#$0
    4e26: a6 14        	ldx	$14                     ; 0x2014 <f256main+0x1737>
    4e28: 8e 72 65     	stx	$6572                   ; 0x6572 <__data_load_start+0x5ea>
    4e2b: 8d 73 65     	sta	$6573                   ; 0x6573 <__data_load_start+0x5eb>
    4e2e: b2 12        	lda	($12)                   ; 0x2012 <f256main+0x1735>
    4e30: aa           	tax
    4e31: b1 12        	lda	($12),y                 ; 0x2012 <f256main+0x1735>
    4e33: 86 12        	stx	$12                     ; 0x2012 <f256main+0x1735>
    4e35: 85 13        	sta	$13                     ; 0x2013 <f256main+0x1736>
    4e37: 80 37        	bra	$4e70 <printf+0x563>
    4e39: a6 15        	ldx	$15                     ; 0x2015 <f256main+0x1738>
    4e3b: 8e 78 65     	stx	$6578                   ; 0x6578 <__data_load_start+0x5f0>
    4e3e: a6 18        	ldx	$18                     ; 0x2018 <f256main+0x173b>
    4e40: 8e 79 65     	stx	$6579                   ; 0x6579 <__data_load_start+0x5f1>
    4e43: a0 08        	ldy	#$8
    4e45: a2 08        	ldx	#$8
    4e47: 80 4d        	bra	$4e96 <printf+0x589>
    4e49: ad 72 65     	lda	$6572                   ; 0x6572 <__data_load_start+0x5ea>
    4e4c: ae 73 65     	ldx	$6573                   ; 0x6573 <__data_load_start+0x5eb>
    4e4f: 85 12        	sta	$12                     ; 0x2012 <f256main+0x1735>
    4e51: 86 13        	stx	$13                     ; 0x2013 <f256main+0x1736>
    4e53: 18           	clc
    4e54: 69 02        	adc	#$2
    4e56: a8           	tay
    4e57: 8a           	txa
    4e58: 69 00        	adc	#$0
    4e5a: 8c 72 65     	sty	$6572                   ; 0x6572 <__data_load_start+0x5ea>
    4e5d: 8d 73 65     	sta	$6573                   ; 0x6573 <__data_load_start+0x5eb>
    4e60: b2 12        	lda	($12)                   ; 0x2012 <f256main+0x1735>
    4e62: 8d 5d 65     	sta	$655d                   ; 0x655d <__data_load_start+0x5d5>
    4e65: 9c 5e 65     	stz	$655e                   ; 0x655e <__data_load_start+0x5d6>
    4e68: a2 5d        	ldx	#$5d
    4e6a: 86 12        	stx	$12                     ; 0x2012 <f256main+0x1735>
    4e6c: a2 65        	ldx	#$65
    4e6e: 86 13        	stx	$13                     ; 0x2013 <f256main+0x1736>
    4e70: a2 61        	ldx	#$61
    4e72: 86 14        	stx	$14                     ; 0x2014 <f256main+0x1737>
    4e74: a2 65        	ldx	#$65
    4e76: 86 15        	stx	$15                     ; 0x2015 <f256main+0x1738>
    4e78: 20 cb 47     	jsr	$47cb <_ZN12_GLOBAL__N_112print_stringEPKcP6Status>
    4e7b: a0 01        	ldy	#$1
    4e7d: a2 00        	ldx	#$0
    4e7f: 86 26        	stx	$26                     ; 0x2026 <f256main+0x1749>
    4e81: a2 00        	ldx	#$0
    4e83: 86 27        	stx	$27                     ; 0x2027 <f256main+0x174a>
    4e85: 4c fa 55     	jmp	$55fa <printf+0xced>
    4e88: a6 15        	ldx	$15                     ; 0x2015 <f256main+0x1738>
    4e8a: 8e 78 65     	stx	$6578                   ; 0x6578 <__data_load_start+0x5f0>
    4e8d: a6 18        	ldx	$18                     ; 0x2018 <f256main+0x173b>
    4e8f: 8e 79 65     	stx	$6579                   ; 0x6579 <__data_load_start+0x5f1>
    4e92: a0 0a        	ldy	#$a
    4e94: a2 0a        	ldx	#$a
    4e96: 86 ec        	stx	$ec                     ; 0x20ec <f256main+0x180f>
    4e98: 8c 61 65     	sty	$6561                   ; 0x6561 <__data_load_start+0x5d9>
    4e9b: a9 00        	lda	#$0
    4e9d: 09 01        	ora	#$1
    4e9f: a6 25        	ldx	$25                     ; 0x2025 <f256main+0x1748>
    4ea1: 8e 62 65     	stx	$6562                   ; 0x6562 <__data_load_start+0x5da>
    4ea4: 85 2f        	sta	$2f                     ; 0x202f <f256main+0x1752>
    4ea6: 8d 63 65     	sta	$6563                   ; 0x6563 <__data_load_start+0x5db>
    4ea9: a5 ed        	lda	$ed                     ; 0x20ed <f256main+0x1810>
    4eab: 85 e3        	sta	$e3                     ; 0x20e3 <f256main+0x1806>
    4ead: ac 72 65     	ldy	$6572                   ; 0x6572 <__data_load_start+0x5ea>
    4eb0: ae 73 65     	ldx	$6573                   ; 0x6573 <__data_load_start+0x5eb>
    4eb3: 86 2d        	stx	$2d                     ; 0x202d <f256main+0x1750>
    4eb5: 84 14        	sty	$14                     ; 0x2014 <f256main+0x1737>
    4eb7: 84 24        	sty	$24                     ; 0x2024 <f256main+0x1747>
    4eb9: 86 15        	stx	$15                     ; 0x2015 <f256main+0x1738>
    4ebb: ae 76 65     	ldx	$6576                   ; 0x6576 <__data_load_start+0x5ee>
    4ebe: 86 12        	stx	$12                     ; 0x2012 <f256main+0x1735>
    4ec0: ae 77 65     	ldx	$6577                   ; 0x6577 <__data_load_start+0x5ef>
    4ec3: 86 13        	stx	$13                     ; 0x2013 <f256main+0x1736>
    4ec5: a2 00        	ldx	#$0
    4ec7: 85 27        	sta	$27                     ; 0x2027 <f256main+0x174a>
    4ec9: 20 4b 59     	jsr	$594b <memcpy>
    4ecc: 18           	clc
    4ecd: a5 24        	lda	$24                     ; 0x2024 <f256main+0x1747>
    4ecf: 65 26        	adc	$26                     ; 0x2026 <f256main+0x1749>
    4ed1: aa           	tax
    4ed2: a5 2d        	lda	$2d                     ; 0x202d <f256main+0x1750>
    4ed4: 69 00        	adc	#$0
    4ed6: 8e 72 65     	stx	$6572                   ; 0x6572 <__data_load_start+0x5ea>
    4ed9: 8d 73 65     	sta	$6573                   ; 0x6573 <__data_load_start+0x5eb>
    4edc: a5 2f        	lda	$2f                     ; 0x202f <f256main+0x1752>
    4ede: 29 01        	and	#$1
    4ee0: b8           	clv
    4ee1: f0 03        	beq	$4ee6 <printf+0x5d9>
    4ee3: 4c 3c 4f     	jmp	$4f3c <printf+0x62f>
    4ee6: a6 27        	ldx	$27                     ; 0x2027 <f256main+0x174a>
    4ee8: b5 e3        	lda	$e3,x                   ; 0x20e3 <f256main+0x1806>
    4eea: aa           	tax
    4eeb: a0 01        	ldy	#$1
    4eed: a5 2c        	lda	$2c                     ; 0x202c <f256main+0x174f>
    4eef: 85 1a        	sta	$1a                     ; 0x201a <f256main+0x173d>
    4ef1: ad 79 65     	lda	$6579                   ; 0x6579 <__data_load_start+0x5f1>
    4ef4: 85 2c        	sta	$2c                     ; 0x202c <f256main+0x174f>
    4ef6: a9 00        	lda	#$0
    4ef8: 85 26        	sta	$26                     ; 0x2026 <f256main+0x1749>
    4efa: a9 00        	lda	#$0
    4efc: 85 27        	sta	$27                     ; 0x2027 <f256main+0x174a>
    4efe: ad 78 65     	lda	$6578                   ; 0x6578 <__data_load_start+0x5f0>
    4f01: 85 2d        	sta	$2d                     ; 0x202d <f256main+0x1750>
    4f03: 8a           	txa
    4f04: 10 4e        	bpl	$4f54 <printf+0x647>
    4f06: a2 00        	ldx	#$0
    4f08: 64 12        	stz	$12                     ; 0x2012 <f256main+0x1735>
    4f0a: a9 00        	lda	#$0
    4f0c: 38           	sec
    4f0d: f5 e4        	sbc	$e4,x                   ; 0x20e4 <f256main+0x1807>
    4f0f: a0 00        	ldy	#$0
    4f11: b0 02        	bcs	$4f15 <printf+0x608>
    4f13: a0 01        	ldy	#$1
    4f15: 38           	sec
    4f16: e5 12        	sbc	$12                     ; 0x2012 <f256main+0x1735>
    4f18: 85 13        	sta	$13                     ; 0x2013 <f256main+0x1736>
    4f1a: 64 12        	stz	$12                     ; 0x2012 <f256main+0x1735>
    4f1c: b0 04        	bcs	$4f22 <printf+0x615>
    4f1e: a9 01        	lda	#$1
    4f20: 85 12        	sta	$12                     ; 0x2012 <f256main+0x1735>
    4f22: 98           	tya
    4f23: 05 12        	ora	$12                     ; 0x2012 <f256main+0x1735>
    4f25: 85 12        	sta	$12                     ; 0x2012 <f256main+0x1735>
    4f27: a5 13        	lda	$13                     ; 0x2013 <f256main+0x1736>
    4f29: 9d e4 00     	sta	$e4,x                   ; 0xe4 <__zp_data_size+0x80>
    4f2c: e8           	inx
    4f2d: 86 13        	stx	$13                     ; 0x2013 <f256main+0x1736>
    4f2f: a4 ed        	ldy	$ed                     ; 0x20ed <f256main+0x1810>
    4f31: c4 13        	cpy	$13                     ; 0x2013 <f256main+0x1736>
    4f33: d0 d5        	bne	$4f0a <printf+0x5fd>
    4f35: 2c fa 5b     	bit	$5bfa                   ; 0x5bfa <__set_v>
    4f38: a0 01        	ldy	#$1
    4f3a: 80 18        	bra	$4f54 <printf+0x647>
    4f3c: a0 01        	ldy	#$1
    4f3e: a6 2c        	ldx	$2c                     ; 0x202c <f256main+0x174f>
    4f40: 86 1a        	stx	$1a                     ; 0x201a <f256main+0x173d>
    4f42: ae 79 65     	ldx	$6579                   ; 0x6579 <__data_load_start+0x5f1>
    4f45: 86 2c        	stx	$2c                     ; 0x202c <f256main+0x174f>
    4f47: a2 00        	ldx	#$0
    4f49: 86 26        	stx	$26                     ; 0x2026 <f256main+0x1749>
    4f4b: a2 00        	ldx	#$0
    4f4d: 86 27        	stx	$27                     ; 0x2027 <f256main+0x174a>
    4f4f: ae 78 65     	ldx	$6578                   ; 0x6578 <__data_load_start+0x5f0>
    4f52: 86 2d        	stx	$2d                     ; 0x202d <f256main+0x1750>
    4f54: a2 01        	ldx	#$1
    4f56: 70 02        	bvs	$4f5a <printf+0x64d>
    4f58: a2 00        	ldx	#$0
    4f5a: 86 16        	stx	$16                     ; 0x2016 <f256main+0x1739>
    4f5c: a5 ed        	lda	$ed                     ; 0x20ed <f256main+0x1810>
    4f5e: 0a           	asl
    4f5f: 0a           	asl
    4f60: 0a           	asl
    4f61: 85 12        	sta	$12                     ; 0x2012 <f256main+0x1735>
    4f63: a2 00        	ldx	#$0
    4f65: 8a           	txa
    4f66: e0 00        	cpx	#$0
    4f68: d0 03        	bne	$4f6d <printf+0x660>
    4f6a: 4c f2 4f     	jmp	$4ff2 <printf+0x6e5>
    4f6d: 85 17        	sta	$17                     ; 0x2017 <f256main+0x173a>
    4f6f: 86 24        	stx	$24                     ; 0x2024 <f256main+0x1747>
    4f71: ca           	dex
    4f72: 86 15        	stx	$15                     ; 0x2015 <f256main+0x1738>
    4f74: a2 00        	ldx	#$0
    4f76: 64 13        	stz	$13                     ; 0x2013 <f256main+0x1736>
    4f78: 80 0d        	bra	$4f87 <printf+0x67a>
    4f7a: a4 13        	ldy	$13                     ; 0x2013 <f256main+0x1736>
    4f7c: 99 ce 00     	sta	$ce,y                   ; 0xce <__zp_data_size+0x6a>
    4f7f: a4 15        	ldy	$15                     ; 0x2015 <f256main+0x1738>
    4f81: c4 13        	cpy	$13                     ; 0x2013 <f256main+0x1736>
    4f83: f0 38        	beq	$4fbd <printf+0x6b0>
    4f85: e6 13        	inc	$13                     ; 0x2013 <f256main+0x1736>
    4f87: a4 13        	ldy	$13                     ; 0x2013 <f256main+0x1736>
    4f89: b9 ce 00     	lda	$ce,y                   ; 0xce <__zp_data_size+0x6a>
    4f8c: 0a           	asl
    4f8d: e0 00        	cpx	#$0
    4f8f: f0 02        	beq	$4f93 <printf+0x686>
    4f91: 09 01        	ora	#$1
    4f93: a4 ec        	ldy	$ec                     ; 0x20ec <f256main+0x180f>
    4f95: 84 14        	sty	$14                     ; 0x2014 <f256main+0x1737>
    4f97: c5 14        	cmp	$14                     ; 0x2014 <f256main+0x1737>
    4f99: a2 01        	ldx	#$1
    4f9b: b0 02        	bcs	$4f9f <printf+0x692>
    4f9d: a2 00        	ldx	#$0
    4f9f: 90 d9        	bcc	$4f7a <printf+0x66d>
    4fa1: 84 14        	sty	$14                     ; 0x2014 <f256main+0x1737>
    4fa3: 38           	sec
    4fa4: e5 14        	sbc	$14                     ; 0x2014 <f256main+0x1737>
    4fa6: a4 13        	ldy	$13                     ; 0x2013 <f256main+0x1736>
    4fa8: 99 ce 00     	sta	$ce,y                   ; 0xce <__zp_data_size+0x6a>
    4fab: a4 15        	ldy	$15                     ; 0x2015 <f256main+0x1738>
    4fad: c4 13        	cpy	$13                     ; 0x2013 <f256main+0x1736>
    4faf: d0 d4        	bne	$4f85 <printf+0x678>
    4fb1: a4 24        	ldy	$24                     ; 0x2024 <f256main+0x1747>
    4fb3: a6 24        	ldx	$24                     ; 0x2024 <f256main+0x1747>
    4fb5: e8           	inx
    4fb6: a9 01        	lda	#$1
    4fb8: 99 ce 00     	sta	$ce,y                   ; 0xce <__zp_data_size+0x6a>
    4fbb: 86 24        	stx	$24                     ; 0x2024 <f256main+0x1747>
    4fbd: a6 ed        	ldx	$ed                     ; 0x20ed <f256main+0x1810>
    4fbf: b5 e3        	lda	$e3,x                   ; 0x20e3 <f256main+0x1806>
    4fc1: aa           	tax
    4fc2: a0 01        	ldy	#$1
    4fc4: 8a           	txa
    4fc5: 10 47        	bpl	$500e <printf+0x701>
    4fc7: a5 24        	lda	$24                     ; 0x2024 <f256main+0x1747>
    4fc9: f0 34        	beq	$4fff <printf+0x6f2>
    4fcb: a2 00        	ldx	#$0
    4fcd: a4 ec        	ldy	$ec                     ; 0x20ec <f256main+0x180f>
    4fcf: 84 14        	sty	$14                     ; 0x2014 <f256main+0x1737>
    4fd1: b5 ce        	lda	$ce,x                   ; 0x20ce <f256main+0x17f1>
    4fd3: 1a           	inc
    4fd4: f6 ce        	inc	$ce,x                   ; 0x20ce <f256main+0x17f1>
    4fd6: c5 14        	cmp	$14                     ; 0x2014 <f256main+0x1737>
    4fd8: b0 03        	bcs	$4fdd <printf+0x6d0>
    4fda: 4c 39 50     	jmp	$5039 <printf+0x72c>
    4fdd: a4 14        	ldy	$14                     ; 0x2014 <f256main+0x1737>
    4fdf: 84 13        	sty	$13                     ; 0x2013 <f256main+0x1736>
    4fe1: 38           	sec
    4fe2: e5 13        	sbc	$13                     ; 0x2013 <f256main+0x1736>
    4fe4: 9d ce 00     	sta	$ce,x                   ; 0xce <__zp_data_size+0x6a>
    4fe7: e8           	inx
    4fe8: 86 13        	stx	$13                     ; 0x2013 <f256main+0x1736>
    4fea: a4 24        	ldy	$24                     ; 0x2024 <f256main+0x1747>
    4fec: c4 13        	cpy	$13                     ; 0x2013 <f256main+0x1736>
    4fee: d0 e1        	bne	$4fd1 <printf+0x6c4>
    4ff0: 80 0f        	bra	$5001 <printf+0x6f4>
    4ff2: 85 17        	sta	$17                     ; 0x2017 <f256main+0x173a>
    4ff4: a6 ed        	ldx	$ed                     ; 0x20ed <f256main+0x1810>
    4ff6: b5 e3        	lda	$e3,x                   ; 0x20e3 <f256main+0x1806>
    4ff8: aa           	tax
    4ff9: 64 24        	stz	$24                     ; 0x2024 <f256main+0x1747>
    4ffb: 30 04        	bmi	$5001 <printf+0x6f4>
    4ffd: 80 0f        	bra	$500e <printf+0x701>
    4fff: 64 24        	stz	$24                     ; 0x2024 <f256main+0x1747>
    5001: a4 24        	ldy	$24                     ; 0x2024 <f256main+0x1747>
    5003: a6 24        	ldx	$24                     ; 0x2024 <f256main+0x1747>
    5005: e8           	inx
    5006: a9 01        	lda	#$1
    5008: 99 ce 00     	sta	$ce,y                   ; 0xce <__zp_data_size+0x6a>
    500b: a8           	tay
    500c: 86 24        	stx	$24                     ; 0x2024 <f256main+0x1747>
    500e: a2 01        	ldx	#$1
    5010: 64 13        	stz	$13                     ; 0x2013 <f256main+0x1736>
    5012: a5 ed        	lda	$ed                     ; 0x20ed <f256main+0x1810>
    5014: 85 14        	sta	$14                     ; 0x2014 <f256main+0x1737>
    5016: b5 e3        	lda	$e3,x                   ; 0x20e3 <f256main+0x1806>
    5018: 0a           	asl
    5019: 64 15        	stz	$15                     ; 0x2015 <f256main+0x1738>
    501b: 26 15        	rol	$15                     ; 0x2015 <f256main+0x1738>
    501d: 05 13        	ora	$13                     ; 0x2013 <f256main+0x1736>
    501f: 9d e3 00     	sta	$e3,x                   ; 0xe3 <__zp_data_size+0x7f>
    5022: e8           	inx
    5023: c6 14        	dec	$14                     ; 0x2014 <f256main+0x1737>
    5025: a5 15        	lda	$15                     ; 0x2015 <f256main+0x1738>
    5027: 85 13        	sta	$13                     ; 0x2013 <f256main+0x1736>
    5029: a5 14        	lda	$14                     ; 0x2014 <f256main+0x1737>
    502b: d0 e9        	bne	$5016 <printf+0x709>
    502d: a5 17        	lda	$17                     ; 0x2017 <f256main+0x173a>
    502f: 1a           	inc
    5030: c5 12        	cmp	$12                     ; 0x2012 <f256main+0x1735>
    5032: a6 24        	ldx	$24                     ; 0x2024 <f256main+0x1747>
    5034: b0 07        	bcs	$503d <printf+0x730>
    5036: 4c 66 4f     	jmp	$4f66 <printf+0x659>
    5039: a0 01        	ldy	#$1
    503b: 80 d1        	bra	$500e <printf+0x701>
    503d: a5 25        	lda	$25                     ; 0x2025 <f256main+0x1748>
    503f: e6 2d        	inc	$2d                     ; 0x202d <f256main+0x1750>
    5041: c6 2d        	dec	$2d                     ; 0x202d <f256main+0x1750>
    5043: 10 08        	bpl	$504d <printf+0x740>
    5045: a2 01        	ldx	#$1
    5047: 64 2d        	stz	$2d                     ; 0x202d <f256main+0x1750>
    5049: 86 2c        	stx	$2c                     ; 0x202c <f256main+0x174f>
    504b: a6 24        	ldx	$24                     ; 0x2024 <f256main+0x1747>
    504d: 29 04        	and	#$4
    504f: f0 2b        	beq	$507c <printf+0x76f>
    5051: a5 ec        	lda	$ec                     ; 0x20ec <f256main+0x180f>
    5053: c9 10        	cmp	#$10
    5055: f0 14        	beq	$506b <printf+0x75e>
    5057: c9 08        	cmp	#$8
    5059: d0 21        	bne	$507c <printf+0x76f>
    505b: a2 00        	ldx	#$0
    505d: e4 2d        	cpx	$2d                     ; 0x202d <f256main+0x1750>
    505f: f0 03        	beq	$5064 <printf+0x757>
    5061: 4c 1f 56     	jmp	$561f <printf+0xd12>
    5064: a6 24        	ldx	$24                     ; 0x2024 <f256main+0x1747>
    5066: e4 2c        	cpx	$2c                     ; 0x202c <f256main+0x174f>
    5068: 4c 21 56     	jmp	$5621 <printf+0xd14>
    506b: 8a           	txa
    506c: f0 0e        	beq	$507c <printf+0x76f>
    506e: a5 25        	lda	$25                     ; 0x2025 <f256main+0x1748>
    5070: 29 80        	and	#$80
    5072: d0 03        	bne	$5077 <printf+0x76a>
    5074: 4c 3a 56     	jmp	$563a <printf+0xd2d>
    5077: a2 78        	ldx	#$78
    5079: 4c 3c 56     	jmp	$563c <printf+0xd2f>
    507c: a6 25        	ldx	$25                     ; 0x2025 <f256main+0x1748>
    507e: a9 2d        	lda	#$2d
    5080: 8d 78 65     	sta	$6578                   ; 0x6578 <__data_load_start+0x5f0>
    5083: a5 16        	lda	$16                     ; 0x2016 <f256main+0x1739>
    5085: d0 34        	bne	$50bb <printf+0x7ae>
    5087: 86 12        	stx	$12                     ; 0x2012 <f256main+0x1735>
    5089: 8a           	txa
    508a: 29 02        	and	#$2
    508c: a2 2b        	ldx	#$2b
    508e: 8e 78 65     	stx	$6578                   ; 0x6578 <__data_load_start+0x5f0>
    5091: aa           	tax
    5092: d0 27        	bne	$50bb <printf+0x7ae>
    5094: a5 12        	lda	$12                     ; 0x2012 <f256main+0x1735>
    5096: 29 08        	and	#$8
    5098: d0 1c        	bne	$50b6 <printf+0x7a9>
    509a: a2 01        	ldx	#$1
    509c: 86 ed        	stx	$ed                     ; 0x20ed <f256main+0x1810>
    509e: a9 00        	lda	#$0
    50a0: aa           	tax
    50a1: 86 ec        	stx	$ec                     ; 0x20ec <f256main+0x180f>
    50a3: 80 1d        	bra	$50c2 <printf+0x7b5>
    50a5: 85 12        	sta	$12                     ; 0x2012 <f256main+0x1735>
    50a7: a9 04        	lda	#$4
    50a9: 80 04        	bra	$50af <printf+0x7a2>
    50ab: 85 12        	sta	$12                     ; 0x2012 <f256main+0x1735>
    50ad: a9 02        	lda	#$2
    50af: 85 ed        	sta	$ed                     ; 0x20ed <f256main+0x1810>
    50b1: a5 12        	lda	$12                     ; 0x2012 <f256main+0x1735>
    50b3: 4c 41 4d     	jmp	$4d41 <printf+0x434>
    50b6: a2 20        	ldx	#$20
    50b8: 8e 78 65     	stx	$6578                   ; 0x6578 <__data_load_start+0x5f0>
    50bb: a2 00        	ldx	#$0
    50bd: 86 ed        	stx	$ed                     ; 0x20ed <f256main+0x1810>
    50bf: 86 ec        	stx	$ec                     ; 0x20ec <f256main+0x180f>
    50c1: 98           	tya
    50c2: a6 2d        	ldx	$2d                     ; 0x202d <f256main+0x1750>
    50c4: d0 35        	bne	$50fb <printf+0x7ee>
    50c6: a6 2c        	ldx	$2c                     ; 0x202c <f256main+0x174f>
    50c8: a4 24        	ldy	$24                     ; 0x2024 <f256main+0x1747>
    50ca: 84 12        	sty	$12                     ; 0x2012 <f256main+0x1735>
    50cc: e4 12        	cpx	$12                     ; 0x2012 <f256main+0x1735>
    50ce: a6 2c        	ldx	$2c                     ; 0x202c <f256main+0x174f>
    50d0: 86 12        	stx	$12                     ; 0x2012 <f256main+0x1735>
    50d2: a6 2d        	ldx	$2d                     ; 0x202d <f256main+0x1750>
    50d4: 86 13        	stx	$13                     ; 0x2013 <f256main+0x1736>
    50d6: b0 04        	bcs	$50dc <printf+0x7cf>
    50d8: 84 12        	sty	$12                     ; 0x2012 <f256main+0x1735>
    50da: 64 13        	stz	$13                     ; 0x2013 <f256main+0x1736>
    50dc: 85 18        	sta	$18                     ; 0x2018 <f256main+0x173b>
    50de: 18           	clc
    50df: 65 12        	adc	$12                     ; 0x2012 <f256main+0x1735>
    50e1: 85 16        	sta	$16                     ; 0x2016 <f256main+0x1739>
    50e3: 85 14        	sta	$14                     ; 0x2014 <f256main+0x1737>
    50e5: a5 13        	lda	$13                     ; 0x2013 <f256main+0x1736>
    50e7: 69 00        	adc	#$0
    50e9: 85 15        	sta	$15                     ; 0x2015 <f256main+0x1738>
    50eb: c5 1a        	cmp	$1a                     ; 0x201a <f256main+0x173d>
    50ed: d0 1e        	bne	$510d <printf+0x800>
    50ef: a6 1a        	ldx	$1a                     ; 0x201a <f256main+0x173d>
    50f1: 86 17        	stx	$17                     ; 0x2017 <f256main+0x173a>
    50f3: a6 2e        	ldx	$2e                     ; 0x202e <f256main+0x1751>
    50f5: a5 16        	lda	$16                     ; 0x2016 <f256main+0x1739>
    50f7: c5 2e        	cmp	$2e                     ; 0x202e <f256main+0x1751>
    50f9: 80 1c        	bra	$5117 <printf+0x80a>
    50fb: a6 2d        	ldx	$2d                     ; 0x202d <f256main+0x1750>
    50fd: e0 00        	cpx	#$0
    50ff: a6 2c        	ldx	$2c                     ; 0x202c <f256main+0x174f>
    5101: 86 12        	stx	$12                     ; 0x2012 <f256main+0x1735>
    5103: a6 2d        	ldx	$2d                     ; 0x202d <f256main+0x1750>
    5105: 86 13        	stx	$13                     ; 0x2013 <f256main+0x1736>
    5107: a4 24        	ldy	$24                     ; 0x2024 <f256main+0x1747>
    5109: 90 cd        	bcc	$50d8 <printf+0x7cb>
    510b: 80 cf        	bra	$50dc <printf+0x7cf>
    510d: a6 2e        	ldx	$2e                     ; 0x202e <f256main+0x1751>
    510f: 5a           	phy
    5110: a4 1a        	ldy	$1a                     ; 0x201a <f256main+0x173d>
    5112: 84 17        	sty	$17                     ; 0x2017 <f256main+0x173a>
    5114: 7a           	ply
    5115: c5 1a        	cmp	$1a                     ; 0x201a <f256main+0x173d>
    5117: 64 2f        	stz	$2f                     ; 0x202f <f256main+0x1752>
    5119: 64 2e        	stz	$2e                     ; 0x202e <f256main+0x1751>
    511b: 90 03        	bcc	$5120 <printf+0x813>
    511d: 4c d1 51     	jmp	$51d1 <printf+0x8c4>
    5120: a5 25        	lda	$25                     ; 0x2025 <f256main+0x1748>
    5122: 29 11        	and	#$11
    5124: 86 16        	stx	$16                     ; 0x2016 <f256main+0x1739>
    5126: f0 0f        	beq	$5137 <printf+0x82a>
    5128: 8a           	txa
    5129: 38           	sec
    512a: e5 14        	sbc	$14                     ; 0x2014 <f256main+0x1737>
    512c: 85 2f        	sta	$2f                     ; 0x202f <f256main+0x1752>
    512e: a5 1a        	lda	$1a                     ; 0x201a <f256main+0x173d>
    5130: e5 15        	sbc	$15                     ; 0x2015 <f256main+0x1738>
    5132: 85 2e        	sta	$2e                     ; 0x202e <f256main+0x1751>
    5134: 4c d1 51     	jmp	$51d1 <printf+0x8c4>
    5137: ae 66 65     	ldx	$6566                   ; 0x6566 <__data_load_start+0x5de>
    513a: 86 14        	stx	$14                     ; 0x2014 <f256main+0x1737>
    513c: 38           	sec
    513d: a5 18        	lda	$18                     ; 0x2018 <f256main+0x173b>
    513f: e5 16        	sbc	$16                     ; 0x2016 <f256main+0x1739>
    5141: a8           	tay
    5142: a9 00        	lda	#$0
    5144: e5 17        	sbc	$17                     ; 0x2017 <f256main+0x173a>
    5146: aa           	tax
    5147: 18           	clc
    5148: 98           	tya
    5149: 65 12        	adc	$12                     ; 0x2012 <f256main+0x1735>
    514b: 85 25        	sta	$25                     ; 0x2025 <f256main+0x1748>
    514d: 8a           	txa
    514e: 65 13        	adc	$13                     ; 0x2013 <f256main+0x1736>
    5150: 85 2e        	sta	$2e                     ; 0x202e <f256main+0x1751>
    5152: ad 67 65     	lda	$6567                   ; 0x6567 <__data_load_start+0x5df>
    5155: 4c b7 51     	jmp	$51b7 <printf+0x8aa>
    5158: cd 65 65     	cmp	$6565                   ; 0x6565 <__data_load_start+0x5dd>
    515b: a4 2e        	ldy	$2e                     ; 0x202e <f256main+0x1751>
    515d: b0 34        	bcs	$5193 <printf+0x886>
    515f: ae 71 65     	ldx	$6571                   ; 0x6571 <__data_load_start+0x5e9>
    5162: e4 27        	cpx	$27                     ; 0x2027 <f256main+0x174a>
    5164: d0 1c        	bne	$5182 <printf+0x875>
    5166: ae 70 65     	ldx	$6570                   ; 0x6570 <__data_load_start+0x5e8>
    5169: e4 26        	cpx	$26                     ; 0x2026 <f256main+0x1749>
    516b: d0 15        	bne	$5182 <printf+0x875>
    516d: 18           	clc
    516e: aa           	tax
    516f: a5 14        	lda	$14                     ; 0x2014 <f256main+0x1737>
    5171: 6d 6a 65     	adc	$656a                   ; 0x656a <__data_load_start+0x5e2>
    5174: 85 12        	sta	$12                     ; 0x2012 <f256main+0x1735>
    5176: 8a           	txa
    5177: 6d 6b 65     	adc	$656b                   ; 0x656b <__data_load_start+0x5e3>
    517a: 85 13        	sta	$13                     ; 0x2013 <f256main+0x1736>
    517c: a9 20        	lda	#$20
    517e: 92 12        	sta	($12)                   ; 0x2012 <f256main+0x1735>
    5180: 80 0f        	bra	$5191 <printf+0x884>
    5182: a2 20        	ldx	#$20
    5184: 86 9d        	stx	$9d                     ; 0x209d <f256main+0x17c0>
    5186: a2 9d        	ldx	#$9d
    5188: 86 12        	stx	$12                     ; 0x2012 <f256main+0x1735>
    518a: a2 00        	ldx	#$0
    518c: 86 13        	stx	$13                     ; 0x2013 <f256main+0x1736>
    518e: 20 c3 2a     	jsr	$2ac3 <textPrint>
    5191: a4 2e        	ldy	$2e                     ; 0x202e <f256main+0x1751>
    5193: ae 66 65     	ldx	$6566                   ; 0x6566 <__data_load_start+0x5de>
    5196: ad 67 65     	lda	$6567                   ; 0x6567 <__data_load_start+0x5df>
    5199: e8           	inx
    519a: d0 01        	bne	$519d <printf+0x890>
    519c: 1a           	inc
    519d: 86 14        	stx	$14                     ; 0x2014 <f256main+0x1737>
    519f: 8e 66 65     	stx	$6566                   ; 0x6566 <__data_load_start+0x5de>
    51a2: 8d 67 65     	sta	$6567                   ; 0x6567 <__data_load_start+0x5df>
    51a5: a6 25        	ldx	$25                     ; 0x2025 <f256main+0x1748>
    51a7: e8           	inx
    51a8: d0 01        	bne	$51ab <printf+0x89e>
    51aa: c8           	iny
    51ab: 86 25        	stx	$25                     ; 0x2025 <f256main+0x1748>
    51ad: 84 2e        	sty	$2e                     ; 0x202e <f256main+0x1751>
    51af: c0 00        	cpy	#$0
    51b1: d0 04        	bne	$51b7 <printf+0x8aa>
    51b3: e0 00        	cpx	#$0
    51b5: f0 14        	beq	$51cb <printf+0x8be>
    51b7: cd 65 65     	cmp	$6565                   ; 0x6565 <__data_load_start+0x5dd>
    51ba: f0 03        	beq	$51bf <printf+0x8b2>
    51bc: 4c 58 51     	jmp	$5158 <printf+0x84b>
    51bf: ae 64 65     	ldx	$6564                   ; 0x6564 <__data_load_start+0x5dc>
    51c2: 86 12        	stx	$12                     ; 0x2012 <f256main+0x1735>
    51c4: a6 14        	ldx	$14                     ; 0x2014 <f256main+0x1737>
    51c6: e4 12        	cpx	$12                     ; 0x2012 <f256main+0x1735>
    51c8: 4c 5b 51     	jmp	$515b <printf+0x84e>
    51cb: 64 2f        	stz	$2f                     ; 0x202f <f256main+0x1752>
    51cd: 64 2e        	stz	$2e                     ; 0x202e <f256main+0x1751>
    51cf: a4 24        	ldy	$24                     ; 0x2024 <f256main+0x1747>
    51d1: a6 ed        	ldx	$ed                     ; 0x20ed <f256main+0x1810>
    51d3: f0 03        	beq	$51d8 <printf+0x8cb>
    51d5: 4c 3c 52     	jmp	$523c <printf+0x92f>
    51d8: ae 66 65     	ldx	$6566                   ; 0x6566 <__data_load_start+0x5de>
    51db: ad 67 65     	lda	$6567                   ; 0x6567 <__data_load_start+0x5df>
    51de: cd 65 65     	cmp	$6565                   ; 0x6565 <__data_load_start+0x5dd>
    51e1: d0 11        	bne	$51f4 <printf+0x8e7>
    51e3: 86 13        	stx	$13                     ; 0x2013 <f256main+0x1736>
    51e5: ae 64 65     	ldx	$6564                   ; 0x6564 <__data_load_start+0x5dc>
    51e8: 86 12        	stx	$12                     ; 0x2012 <f256main+0x1735>
    51ea: a4 24        	ldy	$24                     ; 0x2024 <f256main+0x1747>
    51ec: a6 13        	ldx	$13                     ; 0x2013 <f256main+0x1736>
    51ee: e4 12        	cpx	$12                     ; 0x2012 <f256main+0x1735>
    51f0: 90 09        	bcc	$51fb <printf+0x8ee>
    51f2: 80 40        	bra	$5234 <printf+0x927>
    51f4: 86 13        	stx	$13                     ; 0x2013 <f256main+0x1736>
    51f6: cd 65 65     	cmp	$6565                   ; 0x6565 <__data_load_start+0x5dd>
    51f9: b0 39        	bcs	$5234 <printf+0x927>
    51fb: ae 71 65     	ldx	$6571                   ; 0x6571 <__data_load_start+0x5e9>
    51fe: e4 27        	cpx	$27                     ; 0x2027 <f256main+0x174a>
    5200: d0 20        	bne	$5222 <printf+0x915>
    5202: ae 70 65     	ldx	$6570                   ; 0x6570 <__data_load_start+0x5e8>
    5205: e4 26        	cpx	$26                     ; 0x2026 <f256main+0x1749>
    5207: d0 19        	bne	$5222 <printf+0x915>
    5209: 18           	clc
    520a: 85 12        	sta	$12                     ; 0x2012 <f256main+0x1735>
    520c: a5 13        	lda	$13                     ; 0x2013 <f256main+0x1736>
    520e: 6d 6a 65     	adc	$656a                   ; 0x656a <__data_load_start+0x5e2>
    5211: aa           	tax
    5212: a5 12        	lda	$12                     ; 0x2012 <f256main+0x1735>
    5214: 6d 6b 65     	adc	$656b                   ; 0x656b <__data_load_start+0x5e3>
    5217: 86 12        	stx	$12                     ; 0x2012 <f256main+0x1735>
    5219: 85 13        	sta	$13                     ; 0x2013 <f256main+0x1736>
    521b: ad 78 65     	lda	$6578                   ; 0x6578 <__data_load_start+0x5f0>
    521e: 92 12        	sta	($12)                   ; 0x2012 <f256main+0x1735>
    5220: 80 10        	bra	$5232 <printf+0x925>
    5222: ae 78 65     	ldx	$6578                   ; 0x6578 <__data_load_start+0x5f0>
    5225: 86 9d        	stx	$9d                     ; 0x209d <f256main+0x17c0>
    5227: a2 9d        	ldx	#$9d
    5229: 86 12        	stx	$12                     ; 0x2012 <f256main+0x1735>
    522b: a2 00        	ldx	#$0
    522d: 86 13        	stx	$13                     ; 0x2013 <f256main+0x1736>
    522f: 20 c3 2a     	jsr	$2ac3 <textPrint>
    5232: a4 24        	ldy	$24                     ; 0x2024 <f256main+0x1747>
    5234: ee 66 65     	inc	$6566                   ; 0x6566 <__data_load_start+0x5de>
    5237: d0 03        	bne	$523c <printf+0x92f>
    5239: ee 67 65     	inc	$6567                   ; 0x6567 <__data_load_start+0x5df>
    523c: a6 ec        	ldx	$ec                     ; 0x20ec <f256main+0x180f>
    523e: d0 03        	bne	$5243 <printf+0x936>
    5240: 4c a7 52     	jmp	$52a7 <printf+0x99a>
    5243: ae 66 65     	ldx	$6566                   ; 0x6566 <__data_load_start+0x5de>
    5246: ad 67 65     	lda	$6567                   ; 0x6567 <__data_load_start+0x5df>
    5249: cd 65 65     	cmp	$6565                   ; 0x6565 <__data_load_start+0x5dd>
    524c: d0 11        	bne	$525f <printf+0x952>
    524e: 86 13        	stx	$13                     ; 0x2013 <f256main+0x1736>
    5250: ae 64 65     	ldx	$6564                   ; 0x6564 <__data_load_start+0x5dc>
    5253: 86 12        	stx	$12                     ; 0x2012 <f256main+0x1735>
    5255: a4 24        	ldy	$24                     ; 0x2024 <f256main+0x1747>
    5257: a6 13        	ldx	$13                     ; 0x2013 <f256main+0x1736>
    5259: e4 12        	cpx	$12                     ; 0x2012 <f256main+0x1735>
    525b: 90 09        	bcc	$5266 <printf+0x959>
    525d: 80 40        	bra	$529f <printf+0x992>
    525f: 86 13        	stx	$13                     ; 0x2013 <f256main+0x1736>
    5261: cd 65 65     	cmp	$6565                   ; 0x6565 <__data_load_start+0x5dd>
    5264: b0 39        	bcs	$529f <printf+0x992>
    5266: ae 71 65     	ldx	$6571                   ; 0x6571 <__data_load_start+0x5e9>
    5269: e4 27        	cpx	$27                     ; 0x2027 <f256main+0x174a>
    526b: d0 20        	bne	$528d <printf+0x980>
    526d: ae 70 65     	ldx	$6570                   ; 0x6570 <__data_load_start+0x5e8>
    5270: e4 26        	cpx	$26                     ; 0x2026 <f256main+0x1749>
    5272: d0 19        	bne	$528d <printf+0x980>
    5274: 18           	clc
    5275: 85 12        	sta	$12                     ; 0x2012 <f256main+0x1735>
    5277: a5 13        	lda	$13                     ; 0x2013 <f256main+0x1736>
    5279: 6d 6a 65     	adc	$656a                   ; 0x656a <__data_load_start+0x5e2>
    527c: aa           	tax
    527d: a5 12        	lda	$12                     ; 0x2012 <f256main+0x1735>
    527f: 6d 6b 65     	adc	$656b                   ; 0x656b <__data_load_start+0x5e3>
    5282: 86 12        	stx	$12                     ; 0x2012 <f256main+0x1735>
    5284: 85 13        	sta	$13                     ; 0x2013 <f256main+0x1736>
    5286: ad 79 65     	lda	$6579                   ; 0x6579 <__data_load_start+0x5f1>
    5289: 92 12        	sta	($12)                   ; 0x2012 <f256main+0x1735>
    528b: 80 10        	bra	$529d <printf+0x990>
    528d: ae 79 65     	ldx	$6579                   ; 0x6579 <__data_load_start+0x5f1>
    5290: 86 9d        	stx	$9d                     ; 0x209d <f256main+0x17c0>
    5292: a2 9d        	ldx	#$9d
    5294: 86 12        	stx	$12                     ; 0x2012 <f256main+0x1735>
    5296: a2 00        	ldx	#$0
    5298: 86 13        	stx	$13                     ; 0x2013 <f256main+0x1736>
    529a: 20 c3 2a     	jsr	$2ac3 <textPrint>
    529d: a4 24        	ldy	$24                     ; 0x2024 <f256main+0x1747>
    529f: ee 66 65     	inc	$6566                   ; 0x6566 <__data_load_start+0x5de>
    52a2: d0 03        	bne	$52a7 <printf+0x99a>
    52a4: ee 67 65     	inc	$6567                   ; 0x6567 <__data_load_start+0x5df>
    52a7: a9 10        	lda	#$10
    52a9: 2d 62 65     	and	$6562                   ; 0x6562 <__data_load_start+0x5da>
    52ac: d0 03        	bne	$52b1 <printf+0x9a4>
    52ae: 4c 50 53     	jmp	$5350 <printf+0xa43>
    52b1: ad 62 65     	lda	$6562                   ; 0x6562 <__data_load_start+0x5da>
    52b4: 29 01        	and	#$1
    52b6: f0 03        	beq	$52bb <printf+0x9ae>
    52b8: 4c 50 53     	jmp	$5350 <printf+0xa43>
    52bb: a6 2f        	ldx	$2f                     ; 0x202f <f256main+0x1752>
    52bd: a5 2e        	lda	$2e                     ; 0x202e <f256main+0x1751>
    52bf: d0 06        	bne	$52c7 <printf+0x9ba>
    52c1: 8a           	txa
    52c2: d0 03        	bne	$52c7 <printf+0x9ba>
    52c4: 4c 51 56     	jmp	$5651 <printf+0xd44>
    52c7: ae 66 65     	ldx	$6566                   ; 0x6566 <__data_load_start+0x5de>
    52ca: 86 13        	stx	$13                     ; 0x2013 <f256main+0x1736>
    52cc: ad 67 65     	lda	$6567                   ; 0x6567 <__data_load_start+0x5df>
    52cf: 4c 34 53     	jmp	$5334 <printf+0xa27>
    52d2: cd 65 65     	cmp	$6565                   ; 0x6565 <__data_load_start+0x5dd>
    52d5: b0 32        	bcs	$5309 <printf+0x9fc>
    52d7: ae 71 65     	ldx	$6571                   ; 0x6571 <__data_load_start+0x5e9>
    52da: e4 27        	cpx	$27                     ; 0x2027 <f256main+0x174a>
    52dc: d0 1c        	bne	$52fa <printf+0x9ed>
    52de: ae 70 65     	ldx	$6570                   ; 0x6570 <__data_load_start+0x5e8>
    52e1: e4 26        	cpx	$26                     ; 0x2026 <f256main+0x1749>
    52e3: d0 15        	bne	$52fa <printf+0x9ed>
    52e5: 18           	clc
    52e6: aa           	tax
    52e7: a5 13        	lda	$13                     ; 0x2013 <f256main+0x1736>
    52e9: 6d 6a 65     	adc	$656a                   ; 0x656a <__data_load_start+0x5e2>
    52ec: 85 12        	sta	$12                     ; 0x2012 <f256main+0x1735>
    52ee: 8a           	txa
    52ef: 6d 6b 65     	adc	$656b                   ; 0x656b <__data_load_start+0x5e3>
    52f2: 85 13        	sta	$13                     ; 0x2013 <f256main+0x1736>
    52f4: a9 30        	lda	#$30
    52f6: 92 12        	sta	($12)                   ; 0x2012 <f256main+0x1735>
    52f8: 80 0f        	bra	$5309 <printf+0x9fc>
    52fa: a2 30        	ldx	#$30
    52fc: 86 9d        	stx	$9d                     ; 0x209d <f256main+0x17c0>
    52fe: a2 9d        	ldx	#$9d
    5300: 86 12        	stx	$12                     ; 0x2012 <f256main+0x1735>
    5302: a2 00        	ldx	#$0
    5304: 86 13        	stx	$13                     ; 0x2013 <f256main+0x1736>
    5306: 20 c3 2a     	jsr	$2ac3 <textPrint>
    5309: ae 66 65     	ldx	$6566                   ; 0x6566 <__data_load_start+0x5de>
    530c: ad 67 65     	lda	$6567                   ; 0x6567 <__data_load_start+0x5df>
    530f: e8           	inx
    5310: d0 01        	bne	$5313 <printf+0xa06>
    5312: 1a           	inc
    5313: 86 13        	stx	$13                     ; 0x2013 <f256main+0x1736>
    5315: 8e 66 65     	stx	$6566                   ; 0x6566 <__data_load_start+0x5de>
    5318: 8d 67 65     	sta	$6567                   ; 0x6567 <__data_load_start+0x5df>
    531b: a4 2f        	ldy	$2f                     ; 0x202f <f256main+0x1752>
    531d: a6 2e        	ldx	$2e                     ; 0x202e <f256main+0x1751>
    531f: 86 12        	stx	$12                     ; 0x2012 <f256main+0x1735>
    5321: 88           	dey
    5322: c0 ff        	cpy	#$ff
    5324: d0 02        	bne	$5328 <printf+0xa1b>
    5326: c6 12        	dec	$12                     ; 0x2012 <f256main+0x1735>
    5328: 84 2f        	sty	$2f                     ; 0x202f <f256main+0x1752>
    532a: a6 12        	ldx	$12                     ; 0x2012 <f256main+0x1735>
    532c: 86 2e        	stx	$2e                     ; 0x202e <f256main+0x1751>
    532e: d0 04        	bne	$5334 <printf+0xa27>
    5330: c0 00        	cpy	#$0
    5332: f0 16        	beq	$534a <printf+0xa3d>
    5334: cd 65 65     	cmp	$6565                   ; 0x6565 <__data_load_start+0x5dd>
    5337: f0 03        	beq	$533c <printf+0xa2f>
    5339: 4c d2 52     	jmp	$52d2 <printf+0x9c5>
    533c: ae 64 65     	ldx	$6564                   ; 0x6564 <__data_load_start+0x5dc>
    533f: 86 12        	stx	$12                     ; 0x2012 <f256main+0x1735>
    5341: a6 13        	ldx	$13                     ; 0x2013 <f256main+0x1736>
    5343: e4 12        	cpx	$12                     ; 0x2012 <f256main+0x1735>
    5345: b0 c2        	bcs	$5309 <printf+0x9fc>
    5347: 4c d7 52     	jmp	$52d7 <printf+0x9ca>
    534a: 64 2f        	stz	$2f                     ; 0x202f <f256main+0x1752>
    534c: 64 2e        	stz	$2e                     ; 0x202e <f256main+0x1751>
    534e: a4 24        	ldy	$24                     ; 0x2024 <f256main+0x1747>
    5350: a2 00        	ldx	#$0
    5352: e4 2d        	cpx	$2d                     ; 0x202d <f256main+0x1750>
    5354: d0 07        	bne	$535d <printf+0xa50>
    5356: c4 2c        	cpy	$2c                     ; 0x202c <f256main+0x174f>
    5358: 90 0a        	bcc	$5364 <printf+0xa57>
    535a: 4c e9 53     	jmp	$53e9 <printf+0xadc>
    535d: e4 2d        	cpx	$2d                     ; 0x202d <f256main+0x1750>
    535f: 90 03        	bcc	$5364 <printf+0xa57>
    5361: 4c e9 53     	jmp	$53e9 <printf+0xadc>
    5364: ae 66 65     	ldx	$6566                   ; 0x6566 <__data_load_start+0x5de>
    5367: 86 13        	stx	$13                     ; 0x2013 <f256main+0x1736>
    5369: ad 67 65     	lda	$6567                   ; 0x6567 <__data_load_start+0x5df>
    536c: a2 ff        	ldx	#$ff
    536e: c6 2c        	dec	$2c                     ; 0x202c <f256main+0x174f>
    5370: e4 2c        	cpx	$2c                     ; 0x202c <f256main+0x174f>
    5372: d0 02        	bne	$5376 <printf+0xa69>
    5374: c6 2d        	dec	$2d                     ; 0x202d <f256main+0x1750>
    5376: cd 65 65     	cmp	$6565                   ; 0x6565 <__data_load_start+0x5dd>
    5379: d0 0d        	bne	$5388 <printf+0xa7b>
    537b: ae 64 65     	ldx	$6564                   ; 0x6564 <__data_load_start+0x5dc>
    537e: 86 12        	stx	$12                     ; 0x2012 <f256main+0x1735>
    5380: a6 13        	ldx	$13                     ; 0x2013 <f256main+0x1736>
    5382: e4 12        	cpx	$12                     ; 0x2012 <f256main+0x1735>
    5384: 90 07        	bcc	$538d <printf+0xa80>
    5386: 80 37        	bra	$53bf <printf+0xab2>
    5388: cd 65 65     	cmp	$6565                   ; 0x6565 <__data_load_start+0x5dd>
    538b: b0 32        	bcs	$53bf <printf+0xab2>
    538d: ae 71 65     	ldx	$6571                   ; 0x6571 <__data_load_start+0x5e9>
    5390: e4 27        	cpx	$27                     ; 0x2027 <f256main+0x174a>
    5392: d0 1c        	bne	$53b0 <printf+0xaa3>
    5394: ae 70 65     	ldx	$6570                   ; 0x6570 <__data_load_start+0x5e8>
    5397: e4 26        	cpx	$26                     ; 0x2026 <f256main+0x1749>
    5399: d0 15        	bne	$53b0 <printf+0xaa3>
    539b: 18           	clc
    539c: aa           	tax
    539d: a5 13        	lda	$13                     ; 0x2013 <f256main+0x1736>
    539f: 6d 6a 65     	adc	$656a                   ; 0x656a <__data_load_start+0x5e2>
    53a2: 85 12        	sta	$12                     ; 0x2012 <f256main+0x1735>
    53a4: 8a           	txa
    53a5: 6d 6b 65     	adc	$656b                   ; 0x656b <__data_load_start+0x5e3>
    53a8: 85 13        	sta	$13                     ; 0x2013 <f256main+0x1736>
    53aa: a9 30        	lda	#$30
    53ac: 92 12        	sta	($12)                   ; 0x2012 <f256main+0x1735>
    53ae: 80 0f        	bra	$53bf <printf+0xab2>
    53b0: a2 30        	ldx	#$30
    53b2: 86 9d        	stx	$9d                     ; 0x209d <f256main+0x17c0>
    53b4: a2 9d        	ldx	#$9d
    53b6: 86 12        	stx	$12                     ; 0x2012 <f256main+0x1735>
    53b8: a2 00        	ldx	#$0
    53ba: 86 13        	stx	$13                     ; 0x2013 <f256main+0x1736>
    53bc: 20 c3 2a     	jsr	$2ac3 <textPrint>
    53bf: ae 66 65     	ldx	$6566                   ; 0x6566 <__data_load_start+0x5de>
    53c2: ad 67 65     	lda	$6567                   ; 0x6567 <__data_load_start+0x5df>
    53c5: e8           	inx
    53c6: d0 01        	bne	$53c9 <printf+0xabc>
    53c8: 1a           	inc
    53c9: 86 13        	stx	$13                     ; 0x2013 <f256main+0x1736>
    53cb: 8e 66 65     	stx	$6566                   ; 0x6566 <__data_load_start+0x5de>
    53ce: 8d 67 65     	sta	$6567                   ; 0x6567 <__data_load_start+0x5df>
    53d1: a2 00        	ldx	#$0
    53d3: e4 2d        	cpx	$2d                     ; 0x202d <f256main+0x1750>
    53d5: d0 09        	bne	$53e0 <printf+0xad3>
    53d7: a4 24        	ldy	$24                     ; 0x2024 <f256main+0x1747>
    53d9: c4 2c        	cpy	$2c                     ; 0x202c <f256main+0x174f>
    53db: b0 0c        	bcs	$53e9 <printf+0xadc>
    53dd: 4c 6c 53     	jmp	$536c <printf+0xa5f>
    53e0: e4 2d        	cpx	$2d                     ; 0x202d <f256main+0x1750>
    53e2: a4 24        	ldy	$24                     ; 0x2024 <f256main+0x1747>
    53e4: b0 03        	bcs	$53e9 <printf+0xadc>
    53e6: 4c 6c 53     	jmp	$536c <printf+0xa5f>
    53e9: 98           	tya
    53ea: d0 03        	bne	$53ef <printf+0xae2>
    53ec: 4c 0c 55     	jmp	$550c <printf+0xbff>
    53ef: 88           	dey
    53f0: d0 03        	bne	$53f5 <printf+0xae8>
    53f2: 4c 95 54     	jmp	$5495 <printf+0xb88>
    53f5: 84 2c        	sty	$2c                     ; 0x202c <f256main+0x174f>
    53f7: ae 7a 65     	ldx	$657a                   ; 0x657a <__data_load_start+0x5f2>
    53fa: 8a           	txa
    53fb: 18           	clc
    53fc: 65 2c        	adc	$2c                     ; 0x202c <f256main+0x174f>
    53fe: 85 24        	sta	$24                     ; 0x2024 <f256main+0x1747>
    5400: ad 7b 65     	lda	$657b                   ; 0x657b <__data_load_start+0x5f3>
    5403: 69 00        	adc	#$0
    5405: 85 25        	sta	$25                     ; 0x2025 <f256main+0x1748>
    5407: 4c 87 54     	jmp	$5487 <printf+0xb7a>
    540a: a8           	tay
    540b: a9 80        	lda	#$80
    540d: 2d 62 65     	and	$6562                   ; 0x6562 <__data_load_start+0x5da>
    5410: f0 04        	beq	$5416 <printf+0xb09>
    5412: a2 61        	ldx	#$61
    5414: 80 02        	bra	$5418 <printf+0xb0b>
    5416: a2 41        	ldx	#$41
    5418: 86 12        	stx	$12                     ; 0x2012 <f256main+0x1735>
    541a: 18           	clc
    541b: 98           	tya
    541c: 65 12        	adc	$12                     ; 0x2012 <f256main+0x1735>
    541e: 18           	clc
    541f: 69 f6        	adc	#$f6
    5421: ac 66 65     	ldy	$6566                   ; 0x6566 <__data_load_start+0x5de>
    5424: ae 67 65     	ldx	$6567                   ; 0x6567 <__data_load_start+0x5df>
    5427: ec 65 65     	cpx	$6565                   ; 0x6565 <__data_load_start+0x5dd>
    542a: d0 0d        	bne	$5439 <printf+0xb2c>
    542c: 86 14        	stx	$14                     ; 0x2014 <f256main+0x1737>
    542e: ae 64 65     	ldx	$6564                   ; 0x6564 <__data_load_start+0x5dc>
    5431: 86 12        	stx	$12                     ; 0x2012 <f256main+0x1735>
    5433: c4 12        	cpy	$12                     ; 0x2012 <f256main+0x1735>
    5435: 90 09        	bcc	$5440 <printf+0xb33>
    5437: 80 36        	bra	$546f <printf+0xb62>
    5439: 86 14        	stx	$14                     ; 0x2014 <f256main+0x1737>
    543b: ec 65 65     	cpx	$6565                   ; 0x6565 <__data_load_start+0x5dd>
    543e: b0 2f        	bcs	$546f <printf+0xb62>
    5440: ae 71 65     	ldx	$6571                   ; 0x6571 <__data_load_start+0x5e9>
    5443: e4 27        	cpx	$27                     ; 0x2027 <f256main+0x174a>
    5445: d0 1b        	bne	$5462 <printf+0xb55>
    5447: ae 70 65     	ldx	$6570                   ; 0x6570 <__data_load_start+0x5e8>
    544a: e4 26        	cpx	$26                     ; 0x2026 <f256main+0x1749>
    544c: d0 14        	bne	$5462 <printf+0xb55>
    544e: 18           	clc
    544f: aa           	tax
    5450: 98           	tya
    5451: 6d 6a 65     	adc	$656a                   ; 0x656a <__data_load_start+0x5e2>
    5454: 85 12        	sta	$12                     ; 0x2012 <f256main+0x1735>
    5456: a5 14        	lda	$14                     ; 0x2014 <f256main+0x1737>
    5458: 6d 6b 65     	adc	$656b                   ; 0x656b <__data_load_start+0x5e3>
    545b: 85 13        	sta	$13                     ; 0x2013 <f256main+0x1736>
    545d: 8a           	txa
    545e: 92 12        	sta	($12)                   ; 0x2012 <f256main+0x1735>
    5460: 80 0d        	bra	$546f <printf+0xb62>
    5462: 85 9d        	sta	$9d                     ; 0x209d <f256main+0x17c0>
    5464: a2 9d        	ldx	#$9d
    5466: 86 12        	stx	$12                     ; 0x2012 <f256main+0x1735>
    5468: a2 00        	ldx	#$0
    546a: 86 13        	stx	$13                     ; 0x2013 <f256main+0x1736>
    546c: 20 c3 2a     	jsr	$2ac3 <textPrint>
    546f: ee 66 65     	inc	$6566                   ; 0x6566 <__data_load_start+0x5de>
    5472: d0 03        	bne	$5477 <printf+0xb6a>
    5474: ee 67 65     	inc	$6567                   ; 0x6567 <__data_load_start+0x5df>
    5477: c6 2c        	dec	$2c                     ; 0x202c <f256main+0x174f>
    5479: a2 ff        	ldx	#$ff
    547b: c6 24        	dec	$24                     ; 0x2024 <f256main+0x1747>
    547d: e4 24        	cpx	$24                     ; 0x2024 <f256main+0x1747>
    547f: d0 02        	bne	$5483 <printf+0xb76>
    5481: c6 25        	dec	$25                     ; 0x2025 <f256main+0x1748>
    5483: a5 2c        	lda	$2c                     ; 0x202c <f256main+0x174f>
    5485: f0 0e        	beq	$5495 <printf+0xb88>
    5487: b2 24        	lda	($24)                   ; 0x2024 <f256main+0x1747>
    5489: c9 0a        	cmp	#$a
    548b: 90 03        	bcc	$5490 <printf+0xb83>
    548d: 4c 0a 54     	jmp	$540a <printf+0xafd>
    5490: 09 30        	ora	#$30
    5492: 4c 21 54     	jmp	$5421 <printf+0xb14>
    5495: a5 ce        	lda	$ce                     ; 0x20ce <f256main+0x17f1>
    5497: c9 0a        	cmp	#$a
    5499: b0 04        	bcs	$549f <printf+0xb92>
    549b: 09 30        	ora	#$30
    549d: 80 17        	bra	$54b6 <printf+0xba9>
    549f: a8           	tay
    54a0: a9 80        	lda	#$80
    54a2: 2d 62 65     	and	$6562                   ; 0x6562 <__data_load_start+0x5da>
    54a5: f0 04        	beq	$54ab <printf+0xb9e>
    54a7: a2 61        	ldx	#$61
    54a9: 80 02        	bra	$54ad <printf+0xba0>
    54ab: a2 41        	ldx	#$41
    54ad: 86 12        	stx	$12                     ; 0x2012 <f256main+0x1735>
    54af: 18           	clc
    54b0: 98           	tya
    54b1: 65 12        	adc	$12                     ; 0x2012 <f256main+0x1735>
    54b3: 18           	clc
    54b4: 69 f6        	adc	#$f6
    54b6: ac 66 65     	ldy	$6566                   ; 0x6566 <__data_load_start+0x5de>
    54b9: ae 67 65     	ldx	$6567                   ; 0x6567 <__data_load_start+0x5df>
    54bc: ec 65 65     	cpx	$6565                   ; 0x6565 <__data_load_start+0x5dd>
    54bf: d0 0d        	bne	$54ce <printf+0xbc1>
    54c1: 86 14        	stx	$14                     ; 0x2014 <f256main+0x1737>
    54c3: ae 64 65     	ldx	$6564                   ; 0x6564 <__data_load_start+0x5dc>
    54c6: 86 12        	stx	$12                     ; 0x2012 <f256main+0x1735>
    54c8: c4 12        	cpy	$12                     ; 0x2012 <f256main+0x1735>
    54ca: 90 09        	bcc	$54d5 <printf+0xbc8>
    54cc: 80 36        	bra	$5504 <printf+0xbf7>
    54ce: 86 14        	stx	$14                     ; 0x2014 <f256main+0x1737>
    54d0: ec 65 65     	cpx	$6565                   ; 0x6565 <__data_load_start+0x5dd>
    54d3: b0 2f        	bcs	$5504 <printf+0xbf7>
    54d5: ae 71 65     	ldx	$6571                   ; 0x6571 <__data_load_start+0x5e9>
    54d8: e4 27        	cpx	$27                     ; 0x2027 <f256main+0x174a>
    54da: d0 1b        	bne	$54f7 <printf+0xbea>
    54dc: ae 70 65     	ldx	$6570                   ; 0x6570 <__data_load_start+0x5e8>
    54df: e4 26        	cpx	$26                     ; 0x2026 <f256main+0x1749>
    54e1: d0 14        	bne	$54f7 <printf+0xbea>
    54e3: 18           	clc
    54e4: aa           	tax
    54e5: 98           	tya
    54e6: 6d 6a 65     	adc	$656a                   ; 0x656a <__data_load_start+0x5e2>
    54e9: 85 12        	sta	$12                     ; 0x2012 <f256main+0x1735>
    54eb: a5 14        	lda	$14                     ; 0x2014 <f256main+0x1737>
    54ed: 6d 6b 65     	adc	$656b                   ; 0x656b <__data_load_start+0x5e3>
    54f0: 85 13        	sta	$13                     ; 0x2013 <f256main+0x1736>
    54f2: 8a           	txa
    54f3: 92 12        	sta	($12)                   ; 0x2012 <f256main+0x1735>
    54f5: 80 0d        	bra	$5504 <printf+0xbf7>
    54f7: 85 9d        	sta	$9d                     ; 0x209d <f256main+0x17c0>
    54f9: a2 9d        	ldx	#$9d
    54fb: 86 12        	stx	$12                     ; 0x2012 <f256main+0x1735>
    54fd: a2 00        	ldx	#$0
    54ff: 86 13        	stx	$13                     ; 0x2013 <f256main+0x1736>
    5501: 20 c3 2a     	jsr	$2ac3 <textPrint>
    5504: ee 66 65     	inc	$6566                   ; 0x6566 <__data_load_start+0x5de>
    5507: d0 03        	bne	$550c <printf+0xbff>
    5509: ee 67 65     	inc	$6567                   ; 0x6567 <__data_load_start+0x5df>
    550c: ad 62 65     	lda	$6562                   ; 0x6562 <__data_load_start+0x5da>
    550f: 29 01        	and	#$1
    5511: d0 22        	bne	$5535 <printf+0xc28>
    5513: ae 66 65     	ldx	$6566                   ; 0x6566 <__data_load_start+0x5de>
    5516: 86 14        	stx	$14                     ; 0x2014 <f256main+0x1737>
    5518: ad 67 65     	lda	$6567                   ; 0x6567 <__data_load_start+0x5df>
    551b: ac 64 65     	ldy	$6564                   ; 0x6564 <__data_load_start+0x5dc>
    551e: ae 65 65     	ldx	$6565                   ; 0x6565 <__data_load_start+0x5dd>
    5521: 86 12        	stx	$12                     ; 0x2012 <f256main+0x1735>
    5523: 86 13        	stx	$13                     ; 0x2013 <f256main+0x1736>
    5525: c5 12        	cmp	$12                     ; 0x2012 <f256main+0x1735>
    5527: f0 03        	beq	$552c <printf+0xc1f>
    5529: 4c cf 55     	jmp	$55cf <printf+0xcc2>
    552c: 84 12        	sty	$12                     ; 0x2012 <f256main+0x1735>
    552e: a6 14        	ldx	$14                     ; 0x2014 <f256main+0x1737>
    5530: e4 12        	cpx	$12                     ; 0x2012 <f256main+0x1735>
    5532: 4c d3 55     	jmp	$55d3 <printf+0xcc6>
    5535: ae 66 65     	ldx	$6566                   ; 0x6566 <__data_load_start+0x5de>
    5538: 86 14        	stx	$14                     ; 0x2014 <f256main+0x1737>
    553a: ad 67 65     	lda	$6567                   ; 0x6567 <__data_load_start+0x5df>
    553d: a6 2f        	ldx	$2f                     ; 0x202f <f256main+0x1752>
    553f: a4 2e        	ldy	$2e                     ; 0x202e <f256main+0x1751>
    5541: f0 03        	beq	$5546 <printf+0xc39>
    5543: 4c b9 55     	jmp	$55b9 <printf+0xcac>
    5546: e0 00        	cpx	#$0
    5548: f0 d1        	beq	$551b <printf+0xc0e>
    554a: 4c b9 55     	jmp	$55b9 <printf+0xcac>
    554d: cd 65 65     	cmp	$6565                   ; 0x6565 <__data_load_start+0x5dd>
    5550: b0 32        	bcs	$5584 <printf+0xc77>
    5552: ae 71 65     	ldx	$6571                   ; 0x6571 <__data_load_start+0x5e9>
    5555: e4 27        	cpx	$27                     ; 0x2027 <f256main+0x174a>
    5557: d0 1c        	bne	$5575 <printf+0xc68>
    5559: ae 70 65     	ldx	$6570                   ; 0x6570 <__data_load_start+0x5e8>
    555c: e4 26        	cpx	$26                     ; 0x2026 <f256main+0x1749>
    555e: d0 15        	bne	$5575 <printf+0xc68>
    5560: 18           	clc
    5561: aa           	tax
    5562: a5 14        	lda	$14                     ; 0x2014 <f256main+0x1737>
    5564: 6d 6a 65     	adc	$656a                   ; 0x656a <__data_load_start+0x5e2>
    5567: 85 12        	sta	$12                     ; 0x2012 <f256main+0x1735>
    5569: 8a           	txa
    556a: 6d 6b 65     	adc	$656b                   ; 0x656b <__data_load_start+0x5e3>
    556d: 85 13        	sta	$13                     ; 0x2013 <f256main+0x1736>
    556f: a9 20        	lda	#$20
    5571: 92 12        	sta	($12)                   ; 0x2012 <f256main+0x1735>
    5573: 80 0f        	bra	$5584 <printf+0xc77>
    5575: a2 20        	ldx	#$20
    5577: 86 9d        	stx	$9d                     ; 0x209d <f256main+0x17c0>
    5579: a2 9d        	ldx	#$9d
    557b: 86 12        	stx	$12                     ; 0x2012 <f256main+0x1735>
    557d: a2 00        	ldx	#$0
    557f: 86 13        	stx	$13                     ; 0x2013 <f256main+0x1736>
    5581: 20 c3 2a     	jsr	$2ac3 <textPrint>
    5584: ae 66 65     	ldx	$6566                   ; 0x6566 <__data_load_start+0x5de>
    5587: ad 67 65     	lda	$6567                   ; 0x6567 <__data_load_start+0x5df>
    558a: e8           	inx
    558b: d0 01        	bne	$558e <printf+0xc81>
    558d: 1a           	inc
    558e: 86 14        	stx	$14                     ; 0x2014 <f256main+0x1737>
    5590: 8e 66 65     	stx	$6566                   ; 0x6566 <__data_load_start+0x5de>
    5593: 8d 67 65     	sta	$6567                   ; 0x6567 <__data_load_start+0x5df>
    5596: a6 2f        	ldx	$2f                     ; 0x202f <f256main+0x1752>
    5598: 86 12        	stx	$12                     ; 0x2012 <f256main+0x1735>
    559a: a6 2e        	ldx	$2e                     ; 0x202e <f256main+0x1751>
    559c: 86 13        	stx	$13                     ; 0x2013 <f256main+0x1736>
    559e: a2 ff        	ldx	#$ff
    55a0: c6 12        	dec	$12                     ; 0x2012 <f256main+0x1735>
    55a2: e4 12        	cpx	$12                     ; 0x2012 <f256main+0x1735>
    55a4: d0 02        	bne	$55a8 <printf+0xc9b>
    55a6: c6 13        	dec	$13                     ; 0x2013 <f256main+0x1736>
    55a8: a6 12        	ldx	$12                     ; 0x2012 <f256main+0x1735>
    55aa: 86 2f        	stx	$2f                     ; 0x202f <f256main+0x1752>
    55ac: a6 13        	ldx	$13                     ; 0x2013 <f256main+0x1736>
    55ae: 86 2e        	stx	$2e                     ; 0x202e <f256main+0x1751>
    55b0: d0 07        	bne	$55b9 <printf+0xcac>
    55b2: a6 12        	ldx	$12                     ; 0x2012 <f256main+0x1735>
    55b4: d0 03        	bne	$55b9 <printf+0xcac>
    55b6: 4c 1b 55     	jmp	$551b <printf+0xc0e>
    55b9: cd 65 65     	cmp	$6565                   ; 0x6565 <__data_load_start+0x5dd>
    55bc: f0 03        	beq	$55c1 <printf+0xcb4>
    55be: 4c 4d 55     	jmp	$554d <printf+0xc40>
    55c1: ae 64 65     	ldx	$6564                   ; 0x6564 <__data_load_start+0x5dc>
    55c4: 86 12        	stx	$12                     ; 0x2012 <f256main+0x1735>
    55c6: a6 14        	ldx	$14                     ; 0x2014 <f256main+0x1737>
    55c8: e4 12        	cpx	$12                     ; 0x2012 <f256main+0x1735>
    55ca: b0 b8        	bcs	$5584 <printf+0xc77>
    55cc: 4c 52 55     	jmp	$5552 <printf+0xc45>
    55cf: 86 12        	stx	$12                     ; 0x2012 <f256main+0x1735>
    55d1: c5 12        	cmp	$12                     ; 0x2012 <f256main+0x1735>
    55d3: 98           	tya
    55d4: a0 01        	ldy	#$1
    55d6: 90 22        	bcc	$55fa <printf+0xced>
    55d8: a6 13        	ldx	$13                     ; 0x2013 <f256main+0x1736>
    55da: d0 03        	bne	$55df <printf+0xcd2>
    55dc: aa           	tax
    55dd: f0 1b        	beq	$55fa <printf+0xced>
    55df: 18           	clc
    55e0: 6d 6a 65     	adc	$656a                   ; 0x656a <__data_load_start+0x5e2>
    55e3: 85 12        	sta	$12                     ; 0x2012 <f256main+0x1735>
    55e5: a5 13        	lda	$13                     ; 0x2013 <f256main+0x1736>
    55e7: 6d 6b 65     	adc	$656b                   ; 0x656b <__data_load_start+0x5e3>
    55ea: 85 13        	sta	$13                     ; 0x2013 <f256main+0x1736>
    55ec: a2 ff        	ldx	#$ff
    55ee: c6 12        	dec	$12                     ; 0x2012 <f256main+0x1735>
    55f0: e4 12        	cpx	$12                     ; 0x2012 <f256main+0x1735>
    55f2: d0 02        	bne	$55f6 <printf+0xce9>
    55f4: c6 13        	dec	$13                     ; 0x2013 <f256main+0x1736>
    55f6: a9 00        	lda	#$0
    55f8: 92 12        	sta	($12)                   ; 0x2012 <f256main+0x1735>
    55fa: e6 2a        	inc	$2a                     ; 0x202a <f256main+0x174d>
    55fc: d0 02        	bne	$5600 <printf+0xcf3>
    55fe: e6 2b        	inc	$2b                     ; 0x202b <f256main+0x174e>
    5600: a6 2b        	ldx	$2b                     ; 0x202b <f256main+0x174e>
    5602: e4 29        	cpx	$29                     ; 0x2029 <f256main+0x174c>
    5604: f0 03        	beq	$5609 <printf+0xcfc>
    5606: 4c bc 49     	jmp	$49bc <printf+0xaf>
    5609: a6 2a        	ldx	$2a                     ; 0x202a <f256main+0x174d>
    560b: e4 28        	cpx	$28                     ; 0x2028 <f256main+0x174b>
    560d: f0 03        	beq	$5612 <printf+0xd05>
    560f: 4c bc 49     	jmp	$49bc <printf+0xaf>
    5612: b2 28        	lda	($28)                   ; 0x2028 <f256main+0x174b>
    5614: a2 00        	ldx	#$0
    5616: 86 26        	stx	$26                     ; 0x2026 <f256main+0x1749>
    5618: a2 00        	ldx	#$0
    561a: 86 27        	stx	$27                     ; 0x2027 <f256main+0x174a>
    561c: 4c d0 49     	jmp	$49d0 <printf+0xc3>
    561f: e4 2d        	cpx	$2d                     ; 0x202d <f256main+0x1750>
    5621: a6 25        	ldx	$25                     ; 0x2025 <f256main+0x1748>
    5623: b0 03        	bcs	$5628 <printf+0xd1b>
    5625: 4c 7e 50     	jmp	$507e <printf+0x771>
    5628: a5 24        	lda	$24                     ; 0x2024 <f256main+0x1747>
    562a: 85 2c        	sta	$2c                     ; 0x202c <f256main+0x174f>
    562c: 64 2d        	stz	$2d                     ; 0x202d <f256main+0x1750>
    562e: e6 2c        	inc	$2c                     ; 0x202c <f256main+0x174f>
    5630: f0 03        	beq	$5635 <printf+0xd28>
    5632: 4c 7e 50     	jmp	$507e <printf+0x771>
    5635: e6 2d        	inc	$2d                     ; 0x202d <f256main+0x1750>
    5637: 4c 7e 50     	jmp	$507e <printf+0x771>
    563a: a2 58        	ldx	#$58
    563c: 8e 79 65     	stx	$6579                   ; 0x6579 <__data_load_start+0x5f1>
    563f: a2 01        	ldx	#$1
    5641: 86 ec        	stx	$ec                     ; 0x20ec <f256main+0x180f>
    5643: a2 30        	ldx	#$30
    5645: 8e 78 65     	stx	$6578                   ; 0x6578 <__data_load_start+0x5f0>
    5648: a9 02        	lda	#$2
    564a: a2 00        	ldx	#$0
    564c: 86 ed        	stx	$ed                     ; 0x20ed <f256main+0x1810>
    564e: 4c c2 50     	jmp	$50c2 <printf+0x7b5>
    5651: 64 2f        	stz	$2f                     ; 0x202f <f256main+0x1752>
    5653: 64 2e        	stz	$2e                     ; 0x202e <f256main+0x1751>
    5655: 4c 50 53     	jmp	$5350 <printf+0xa43>
    5658: ae 83 65     	ldx	$6583                   ; 0x6583 <__data_load_start+0x5fb>
    565b: 86 2f        	stx	$2f                     ; 0x202f <f256main+0x1752>
    565d: ae 82 65     	ldx	$6582                   ; 0x6582 <__data_load_start+0x5fa>
    5660: 86 2e        	stx	$2e                     ; 0x202e <f256main+0x1751>
    5662: ae 81 65     	ldx	$6581                   ; 0x6581 <__data_load_start+0x5f9>
    5665: 86 2d        	stx	$2d                     ; 0x202d <f256main+0x1750>
    5667: ae 80 65     	ldx	$6580                   ; 0x6580 <__data_load_start+0x5f8>
    566a: 86 2c        	stx	$2c                     ; 0x202c <f256main+0x174f>
    566c: ae 7f 65     	ldx	$657f                   ; 0x657f <__data_load_start+0x5f7>
    566f: 86 2b        	stx	$2b                     ; 0x202b <f256main+0x174e>
    5671: ae 7e 65     	ldx	$657e                   ; 0x657e <__data_load_start+0x5f6>
    5674: 86 2a        	stx	$2a                     ; 0x202a <f256main+0x174d>
    5676: ae 7d 65     	ldx	$657d                   ; 0x657d <__data_load_start+0x5f5>
    5679: 86 29        	stx	$29                     ; 0x2029 <f256main+0x174c>
    567b: ae 7c 65     	ldx	$657c                   ; 0x657c <__data_load_start+0x5f4>
    567e: 86 28        	stx	$28                     ; 0x2028 <f256main+0x174b>
    5680: fa           	plx
    5681: 86 27        	stx	$27                     ; 0x2027 <f256main+0x174a>
    5683: fa           	plx
    5684: 86 26        	stx	$26                     ; 0x2026 <f256main+0x1749>
    5686: fa           	plx
    5687: 86 25        	stx	$25                     ; 0x2025 <f256main+0x1748>
    5689: fa           	plx
    568a: 86 24        	stx	$24                     ; 0x2024 <f256main+0x1747>
    568c: 60           	rts

0000568d <malloc>:
    568d: a8           	tay
    568e: 8a           	txa
    568f: a2 00        	ldx	#$0
    5691: 86 12        	stx	$12                     ; 0x2012 <f256main+0x1735>
    5693: a2 00        	ldx	#$0
    5695: 86 13        	stx	$13                     ; 0x2013 <f256main+0x1736>
    5697: aa           	tax
    5698: d0 07        	bne	$56a1 <malloc+0x14>
    569a: c0 00        	cpy	#$0
    569c: d0 03        	bne	$56a1 <malloc+0x14>
    569e: 4c 9d 57     	jmp	$579d <malloc+0x110>
    56a1: 84 16        	sty	$16                     ; 0x2016 <f256main+0x1739>
    56a3: aa           	tax
    56a4: d0 0e        	bne	$56b4 <malloc+0x27>
    56a6: a6 16        	ldx	$16                     ; 0x2016 <f256main+0x1739>
    56a8: e0 07        	cpx	#$7
    56aa: b0 0c        	bcs	$56b8 <malloc+0x2b>
    56ac: a2 08        	ldx	#$8
    56ae: 86 cc        	stx	$cc                     ; 0x20cc <f256main+0x17ef>
    56b0: a9 00        	lda	#$0
    56b2: 80 2f        	bra	$56e3 <malloc+0x56>
    56b4: c9 00        	cmp	#$0
    56b6: 90 f4        	bcc	$56ac <malloc+0x1f>
    56b8: a8           	tay
    56b9: a5 16        	lda	$16                     ; 0x2016 <f256main+0x1739>
    56bb: 29 01        	and	#$1
    56bd: a2 02        	ldx	#$2
    56bf: 64 14        	stz	$14                     ; 0x2014 <f256main+0x1737>
    56c1: c9 00        	cmp	#$0
    56c3: f0 02        	beq	$56c7 <malloc+0x3a>
    56c5: a2 03        	ldx	#$3
    56c7: 86 15        	stx	$15                     ; 0x2015 <f256main+0x1738>
    56c9: 18           	clc
    56ca: a5 16        	lda	$16                     ; 0x2016 <f256main+0x1739>
    56cc: 65 15        	adc	$15                     ; 0x2015 <f256main+0x1738>
    56ce: aa           	tax
    56cf: 98           	tya
    56d0: 65 14        	adc	$14                     ; 0x2014 <f256main+0x1737>
    56d2: 90 03        	bcc	$56d7 <malloc+0x4a>
    56d4: 4c 9d 57     	jmp	$579d <malloc+0x110>
    56d7: 86 cc        	stx	$cc                     ; 0x20cc <f256main+0x17ef>
    56d9: a8           	tay
    56da: d0 07        	bne	$56e3 <malloc+0x56>
    56dc: e0 00        	cpx	#$0
    56de: d0 03        	bne	$56e3 <malloc+0x56>
    56e0: 4c 9d 57     	jmp	$579d <malloc+0x110>
    56e3: 85 cd        	sta	$cd                     ; 0x20cd <f256main+0x17f0>
    56e5: ad 58 65     	lda	$6558                   ; 0x6558 <_ZN12_GLOBAL__N_111initializedE>
    56e8: 29 01        	and	#$1
    56ea: d0 2a        	bne	$5716 <malloc+0x89>
    56ec: a9 00        	lda	#$0
    56ee: a2 10        	ldx	#$10
    56f0: a0 8a        	ldy	#$8a
    56f2: 84 12        	sty	$12                     ; 0x2012 <f256main+0x1735>
    56f4: a0 65        	ldy	#$65
    56f6: 84 13        	sty	$13                     ; 0x2013 <f256main+0x1736>
    56f8: 20 7c 03     	jsr	$37c <_ZN12_GLOBAL__N_19FreeChunk6insertEPvj>
    56fb: a2 00        	ldx	#$0
    56fd: 86 12        	stx	$12                     ; 0x2012 <f256main+0x1735>
    56ff: a2 00        	ldx	#$0
    5701: 86 13        	stx	$13                     ; 0x2013 <f256main+0x1736>
    5703: ae 8b 65     	ldx	$658b                   ; 0x658b <__heap_start+0x1>
    5706: a9 fe        	lda	#$fe
    5708: 2d 8a 65     	and	$658a                   ; 0x658a <__heap_start>
    570b: 8d 8a 65     	sta	$658a                   ; 0x658a <__heap_start>
    570e: 8e 8b 65     	stx	$658b                   ; 0x658b <__heap_start+0x1>
    5711: a2 01        	ldx	#$1
    5713: 8e 58 65     	stx	$6558                   ; 0x6558 <_ZN12_GLOBAL__N_111initializedE>
    5716: ad 5b 65     	lda	$655b                   ; 0x655b <_ZN12_GLOBAL__N_19free_listE>
    5719: ae 5c 65     	ldx	$655c                   ; 0x655c <_ZN12_GLOBAL__N_19free_listE+0x1>
    571c: a0 00        	ldy	#$0
    571e: 84 14        	sty	$14                     ; 0x2014 <f256main+0x1737>
    5720: a0 00        	ldy	#$0
    5722: 84 15        	sty	$15                     ; 0x2015 <f256main+0x1738>
    5724: 86 1d        	stx	$1d                     ; 0x201d <f256main+0x1740>
    5726: e4 15        	cpx	$15                     ; 0x2015 <f256main+0x1738>
    5728: d0 07        	bne	$5731 <malloc+0xa4>
    572a: c5 14        	cmp	$14                     ; 0x2014 <f256main+0x1737>
    572c: d0 03        	bne	$5731 <malloc+0xa4>
    572e: 4c 9d 57     	jmp	$579d <malloc+0x110>
    5731: a0 00        	ldy	#$0
    5733: a2 10        	ldx	#$10
    5735: 85 18        	sta	$18                     ; 0x2018 <f256main+0x173b>
    5737: 84 14        	sty	$14                     ; 0x2014 <f256main+0x1737>
    5739: 86 15        	stx	$15                     ; 0x2015 <f256main+0x1738>
    573b: 18           	clc
    573c: a9 8a        	lda	#$8a
    573e: 65 14        	adc	$14                     ; 0x2014 <f256main+0x1737>
    5740: 85 14        	sta	$14                     ; 0x2014 <f256main+0x1737>
    5742: a9 65        	lda	#$65
    5744: 65 15        	adc	$15                     ; 0x2015 <f256main+0x1738>
    5746: a6 14        	ldx	$14                     ; 0x2014 <f256main+0x1737>
    5748: 86 ce        	stx	$ce                     ; 0x20ce <f256main+0x17f1>
    574a: 85 17        	sta	$17                     ; 0x2017 <f256main+0x173a>
    574c: a6 18        	ldx	$18                     ; 0x2018 <f256main+0x173b>
    574e: 86 1c        	stx	$1c                     ; 0x201c <f256main+0x173f>
    5750: a6 18        	ldx	$18                     ; 0x2018 <f256main+0x173b>
    5752: 86 14        	stx	$14                     ; 0x2014 <f256main+0x1737>
    5754: a6 1d        	ldx	$1d                     ; 0x201d <f256main+0x1740>
    5756: 86 15        	stx	$15                     ; 0x2015 <f256main+0x1738>
    5758: a0 01        	ldy	#$1
    575a: a6 cd        	ldx	$cd                     ; 0x20cd <f256main+0x17f0>
    575c: 86 18        	stx	$18                     ; 0x2018 <f256main+0x173b>
    575e: b1 14        	lda	($14),y                 ; 0x2014 <f256main+0x1737>
    5760: 85 19        	sta	$19                     ; 0x2019 <f256main+0x173c>
    5762: aa           	tax
    5763: a9 fe        	lda	#$fe
    5765: 32 14        	and	($14)                   ; 0x2014 <f256main+0x1737>
    5767: 85 1a        	sta	$1a                     ; 0x201a <f256main+0x173d>
    5769: e4 18        	cpx	$18                     ; 0x2018 <f256main+0x173b>
    576b: d0 0a        	bne	$5777 <malloc+0xea>
    576d: a6 cc        	ldx	$cc                     ; 0x20cc <f256main+0x17ef>
    576f: 86 1b        	stx	$1b                     ; 0x201b <f256main+0x173e>
    5771: c5 1b        	cmp	$1b                     ; 0x201b <f256main+0x173e>
    5773: b0 29        	bcs	$579e <malloc+0x111>
    5775: 80 04        	bra	$577b <malloc+0xee>
    5777: e4 18        	cpx	$18                     ; 0x2018 <f256main+0x173b>
    5779: b0 23        	bcs	$579e <malloc+0x111>
    577b: a5 14        	lda	$14                     ; 0x2014 <f256main+0x1737>
    577d: 18           	clc
    577e: 69 02        	adc	#$2
    5780: 85 1a        	sta	$1a                     ; 0x201a <f256main+0x173d>
    5782: a5 15        	lda	$15                     ; 0x2015 <f256main+0x1738>
    5784: 69 00        	adc	#$0
    5786: 85 1b        	sta	$1b                     ; 0x201b <f256main+0x173e>
    5788: a0 02        	ldy	#$2
    578a: b1 14        	lda	($14),y                 ; 0x2014 <f256main+0x1737>
    578c: 85 14        	sta	$14                     ; 0x2014 <f256main+0x1737>
    578e: 88           	dey
    578f: b1 1a        	lda	($1a),y                 ; 0x201a <f256main+0x173d>
    5791: 85 15        	sta	$15                     ; 0x2015 <f256main+0x1738>
    5793: c5 1d        	cmp	$1d                     ; 0x201d <f256main+0x1740>
    5795: d0 c7        	bne	$575e <malloc+0xd1>
    5797: a5 14        	lda	$14                     ; 0x2014 <f256main+0x1737>
    5799: c5 1c        	cmp	$1c                     ; 0x201c <f256main+0x173f>
    579b: d0 c1        	bne	$575e <malloc+0xd1>
    579d: 60           	rts
    579e: ad 59 65     	lda	$6559                   ; 0x6559 <_ZN12_GLOBAL__N_19free_sizeE>
    57a1: ae 5a 65     	ldx	$655a                   ; 0x655a <_ZN12_GLOBAL__N_19free_sizeE+0x1>
    57a4: 86 12        	stx	$12                     ; 0x2012 <f256main+0x1735>
    57a6: 38           	sec
    57a7: e5 1a        	sbc	$1a                     ; 0x201a <f256main+0x173d>
    57a9: aa           	tax
    57aa: a5 12        	lda	$12                     ; 0x2012 <f256main+0x1735>
    57ac: e5 19        	sbc	$19                     ; 0x2019 <f256main+0x173c>
    57ae: 85 12        	sta	$12                     ; 0x2012 <f256main+0x1735>
    57b0: 18           	clc
    57b1: 8a           	txa
    57b2: 69 02        	adc	#$2
    57b4: 85 13        	sta	$13                     ; 0x2013 <f256main+0x1736>
    57b6: a5 12        	lda	$12                     ; 0x2012 <f256main+0x1735>
    57b8: 69 00        	adc	#$0
    57ba: a6 13        	ldx	$13                     ; 0x2013 <f256main+0x1736>
    57bc: 8e 59 65     	stx	$6559                   ; 0x6559 <_ZN12_GLOBAL__N_19free_sizeE>
    57bf: 8d 5a 65     	sta	$655a                   ; 0x655a <_ZN12_GLOBAL__N_19free_sizeE+0x1>
    57c2: a0 02        	ldy	#$2
    57c4: a5 14        	lda	$14                     ; 0x2014 <f256main+0x1737>
    57c6: 18           	clc
    57c7: 69 02        	adc	#$2
    57c9: 85 12        	sta	$12                     ; 0x2012 <f256main+0x1735>
    57cb: a5 15        	lda	$15                     ; 0x2015 <f256main+0x1738>
    57cd: 69 00        	adc	#$0
    57cf: 85 13        	sta	$13                     ; 0x2013 <f256main+0x1736>
    57d1: b1 14        	lda	($14),y                 ; 0x2014 <f256main+0x1737>
    57d3: 85 1e        	sta	$1e                     ; 0x201e <f256main+0x1741>
    57d5: 88           	dey
    57d6: b1 12        	lda	($12),y                 ; 0x2012 <f256main+0x1735>
    57d8: 85 1f        	sta	$1f                     ; 0x201f <f256main+0x1742>
    57da: c5 15        	cmp	$15                     ; 0x2015 <f256main+0x1738>
    57dc: d0 15        	bne	$57f3 <malloc+0x166>
    57de: a5 cd        	lda	$cd                     ; 0x20cd <f256main+0x17f0>
    57e0: a6 1e        	ldx	$1e                     ; 0x201e <f256main+0x1741>
    57e2: e4 14        	cpx	$14                     ; 0x2014 <f256main+0x1737>
    57e4: d0 0d        	bne	$57f3 <malloc+0x166>
    57e6: 85 1a        	sta	$1a                     ; 0x201a <f256main+0x173d>
    57e8: a2 00        	ldx	#$0
    57ea: 86 18        	stx	$18                     ; 0x2018 <f256main+0x173b>
    57ec: a2 00        	ldx	#$0
    57ee: 86 19        	stx	$19                     ; 0x2019 <f256main+0x173c>
    57f0: 4c 6d 58     	jmp	$586d <malloc+0x1e0>
    57f3: 18           	clc
    57f4: a5 14        	lda	$14                     ; 0x2014 <f256main+0x1737>
    57f6: 69 04        	adc	#$4
    57f8: 85 18        	sta	$18                     ; 0x2018 <f256main+0x173b>
    57fa: a5 15        	lda	$15                     ; 0x2015 <f256main+0x1738>
    57fc: 69 00        	adc	#$0
    57fe: 85 19        	sta	$19                     ; 0x2019 <f256main+0x173c>
    5800: a0 04        	ldy	#$4
    5802: b1 14        	lda	($14),y                 ; 0x2014 <f256main+0x1737>
    5804: 85 23        	sta	$23                     ; 0x2023 <f256main+0x1746>
    5806: 18           	clc
    5807: 69 02        	adc	#$2
    5809: 85 1a        	sta	$1a                     ; 0x201a <f256main+0x173d>
    580b: a0 01        	ldy	#$1
    580d: b1 18        	lda	($18),y                 ; 0x2018 <f256main+0x173b>
    580f: 85 22        	sta	$22                     ; 0x2022 <f256main+0x1745>
    5811: 69 00        	adc	#$0
    5813: a6 1a        	ldx	$1a                     ; 0x201a <f256main+0x173d>
    5815: 86 18        	stx	$18                     ; 0x2018 <f256main+0x173b>
    5817: 85 19        	sta	$19                     ; 0x2019 <f256main+0x173c>
    5819: a6 23        	ldx	$23                     ; 0x2023 <f256main+0x1746>
    581b: 86 1a        	stx	$1a                     ; 0x201a <f256main+0x173d>
    581d: a6 22        	ldx	$22                     ; 0x2022 <f256main+0x1745>
    581f: 86 1b        	stx	$1b                     ; 0x201b <f256main+0x173e>
    5821: c8           	iny
    5822: a5 1e        	lda	$1e                     ; 0x201e <f256main+0x1741>
    5824: 91 1a        	sta	($1a),y                 ; 0x201a <f256main+0x173d>
    5826: a5 1f        	lda	$1f                     ; 0x201f <f256main+0x1742>
    5828: 88           	dey
    5829: 91 18        	sta	($18),y                 ; 0x2018 <f256main+0x173b>
    582b: 18           	clc
    582c: a5 14        	lda	$14                     ; 0x2014 <f256main+0x1737>
    582e: 69 02        	adc	#$2
    5830: 85 1a        	sta	$1a                     ; 0x201a <f256main+0x173d>
    5832: a5 15        	lda	$15                     ; 0x2015 <f256main+0x1738>
    5834: 69 00        	adc	#$0
    5836: 85 1b        	sta	$1b                     ; 0x201b <f256main+0x173e>
    5838: c8           	iny
    5839: b1 14        	lda	($14),y                 ; 0x2014 <f256main+0x1737>
    583b: 85 18        	sta	$18                     ; 0x2018 <f256main+0x173b>
    583d: aa           	tax
    583e: 88           	dey
    583f: b1 1a        	lda	($1a),y                 ; 0x201a <f256main+0x173d>
    5841: 85 19        	sta	$19                     ; 0x2019 <f256main+0x173c>
    5843: 85 16        	sta	$16                     ; 0x2016 <f256main+0x1739>
    5845: a0 04        	ldy	#$4
    5847: a5 23        	lda	$23                     ; 0x2023 <f256main+0x1746>
    5849: 91 18        	sta	($18),y                 ; 0x2018 <f256main+0x173b>
    584b: 18           	clc
    584c: 8a           	txa
    584d: 69 04        	adc	#$4
    584f: 85 1a        	sta	$1a                     ; 0x201a <f256main+0x173d>
    5851: a5 16        	lda	$16                     ; 0x2016 <f256main+0x1739>
    5853: 69 00        	adc	#$0
    5855: 85 1b        	sta	$1b                     ; 0x201b <f256main+0x173e>
    5857: a5 22        	lda	$22                     ; 0x2022 <f256main+0x1745>
    5859: a0 01        	ldy	#$1
    585b: 91 1a        	sta	($1a),y                 ; 0x201a <f256main+0x173d>
    585d: a5 cd        	lda	$cd                     ; 0x20cd <f256main+0x17f0>
    585f: 85 1a        	sta	$1a                     ; 0x201a <f256main+0x173d>
    5861: a6 1d        	ldx	$1d                     ; 0x201d <f256main+0x1740>
    5863: e4 15        	cpx	$15                     ; 0x2015 <f256main+0x1738>
    5865: d0 10        	bne	$5877 <malloc+0x1ea>
    5867: a6 1c        	ldx	$1c                     ; 0x201c <f256main+0x173f>
    5869: e4 14        	cpx	$14                     ; 0x2014 <f256main+0x1737>
    586b: d0 0a        	bne	$5877 <malloc+0x1ea>
    586d: a6 18        	ldx	$18                     ; 0x2018 <f256main+0x173b>
    586f: a4 19        	ldy	$19                     ; 0x2019 <f256main+0x173c>
    5871: 8e 5b 65     	stx	$655b                   ; 0x655b <_ZN12_GLOBAL__N_19free_listE>
    5874: 8c 5c 65     	sty	$655c                   ; 0x655c <_ZN12_GLOBAL__N_19free_listE+0x1>
    5877: a0 01        	ldy	#$1
    5879: b1 14        	lda	($14),y                 ; 0x2014 <f256main+0x1737>
    587b: 85 16        	sta	$16                     ; 0x2016 <f256main+0x1739>
    587d: a9 fe        	lda	#$fe
    587f: 32 14        	and	($14)                   ; 0x2014 <f256main+0x1737>
    5881: 38           	sec
    5882: a6 cc        	ldx	$cc                     ; 0x20cc <f256main+0x17ef>
    5884: 86 18        	stx	$18                     ; 0x2018 <f256main+0x173b>
    5886: a8           	tay
    5887: e5 18        	sbc	$18                     ; 0x2018 <f256main+0x173b>
    5889: 85 19        	sta	$19                     ; 0x2019 <f256main+0x173c>
    588b: a5 16        	lda	$16                     ; 0x2016 <f256main+0x1739>
    588d: a6 16        	ldx	$16                     ; 0x2016 <f256main+0x1739>
    588f: e5 1a        	sbc	$1a                     ; 0x201a <f256main+0x173d>
    5891: f0 03        	beq	$5896 <malloc+0x209>
    5893: 4c 29 59     	jmp	$5929 <malloc+0x29c>
    5896: 85 16        	sta	$16                     ; 0x2016 <f256main+0x1739>
    5898: a5 19        	lda	$19                     ; 0x2019 <f256main+0x173c>
    589a: c9 08        	cmp	#$8
    589c: 86 18        	stx	$18                     ; 0x2018 <f256main+0x173b>
    589e: b0 03        	bcs	$58a3 <malloc+0x216>
    58a0: 4c 0c 59     	jmp	$590c <malloc+0x27f>
    58a3: a6 17        	ldx	$17                     ; 0x2017 <f256main+0x173a>
    58a5: 86 cf        	stx	$cf                     ; 0x20cf <f256main+0x17f2>
    58a7: a6 ce        	ldx	$ce                     ; 0x20ce <f256main+0x17f1>
    58a9: 86 ce        	stx	$ce                     ; 0x20ce <f256main+0x17f1>
    58ab: a6 12        	ldx	$12                     ; 0x2012 <f256main+0x1735>
    58ad: 8e 5d 65     	stx	$655d                   ; 0x655d <__data_load_start+0x5d5>
    58b0: a6 13        	ldx	$13                     ; 0x2013 <f256main+0x1736>
    58b2: 8e 5e 65     	stx	$655e                   ; 0x655e <__data_load_start+0x5d6>
    58b5: a8           	tay
    58b6: 18           	clc
    58b7: a5 cc        	lda	$cc                     ; 0x20cc <f256main+0x17ef>
    58b9: 85 cc        	sta	$cc                     ; 0x20cc <f256main+0x17ef>
    58bb: 65 14        	adc	$14                     ; 0x2014 <f256main+0x1737>
    58bd: 85 12        	sta	$12                     ; 0x2012 <f256main+0x1735>
    58bf: a5 1a        	lda	$1a                     ; 0x201a <f256main+0x173d>
    58c1: a6 1a        	ldx	$1a                     ; 0x201a <f256main+0x173d>
    58c3: 86 cd        	stx	$cd                     ; 0x20cd <f256main+0x17f0>
    58c5: 65 15        	adc	$15                     ; 0x2015 <f256main+0x1738>
    58c7: 85 13        	sta	$13                     ; 0x2013 <f256main+0x1736>
    58c9: a6 16        	ldx	$16                     ; 0x2016 <f256main+0x1739>
    58cb: 98           	tya
    58cc: a4 14        	ldy	$14                     ; 0x2014 <f256main+0x1737>
    58ce: 8c 5f 65     	sty	$655f                   ; 0x655f <__data_load_start+0x5d7>
    58d1: a4 15        	ldy	$15                     ; 0x2015 <f256main+0x1738>
    58d3: 8c 60 65     	sty	$6560                   ; 0x6560 <__data_load_start+0x5d8>
    58d6: 20 7c 03     	jsr	$37c <_ZN12_GLOBAL__N_19FreeChunk6insertEPvj>
    58d9: ae 5f 65     	ldx	$655f                   ; 0x655f <__data_load_start+0x5d7>
    58dc: 86 14        	stx	$14                     ; 0x2014 <f256main+0x1737>
    58de: ae 60 65     	ldx	$6560                   ; 0x6560 <__data_load_start+0x5d8>
    58e1: 86 15        	stx	$15                     ; 0x2015 <f256main+0x1738>
    58e3: a5 cc        	lda	$cc                     ; 0x20cc <f256main+0x17ef>
    58e5: 29 fe        	and	#$fe
    58e7: 85 12        	sta	$12                     ; 0x2012 <f256main+0x1735>
    58e9: a0 01        	ldy	#$1
    58eb: 98           	tya
    58ec: 32 14        	and	($14)                   ; 0x2014 <f256main+0x1737>
    58ee: 05 12        	ora	$12                     ; 0x2012 <f256main+0x1735>
    58f0: 92 14        	sta	($14)                   ; 0x2014 <f256main+0x1737>
    58f2: a5 cd        	lda	$cd                     ; 0x20cd <f256main+0x17f0>
    58f4: 91 14        	sta	($14),y                 ; 0x2014 <f256main+0x1737>
    58f6: a4 12        	ldy	$12                     ; 0x2012 <f256main+0x1735>
    58f8: 85 18        	sta	$18                     ; 0x2018 <f256main+0x173b>
    58fa: ae 5d 65     	ldx	$655d                   ; 0x655d <__data_load_start+0x5d5>
    58fd: 86 12        	stx	$12                     ; 0x2012 <f256main+0x1735>
    58ff: ae 5e 65     	ldx	$655e                   ; 0x655e <__data_load_start+0x5d6>
    5902: 86 13        	stx	$13                     ; 0x2013 <f256main+0x1736>
    5904: a6 ce        	ldx	$ce                     ; 0x20ce <f256main+0x17f1>
    5906: 86 ce        	stx	$ce                     ; 0x20ce <f256main+0x17f1>
    5908: a6 cf        	ldx	$cf                     ; 0x20cf <f256main+0x17f2>
    590a: 86 17        	stx	$17                     ; 0x2017 <f256main+0x173a>
    590c: 18           	clc
    590d: 98           	tya
    590e: 65 14        	adc	$14                     ; 0x2014 <f256main+0x1737>
    5910: 85 16        	sta	$16                     ; 0x2016 <f256main+0x1739>
    5912: a5 15        	lda	$15                     ; 0x2015 <f256main+0x1738>
    5914: 65 18        	adc	$18                     ; 0x2018 <f256main+0x173b>
    5916: 85 15        	sta	$15                     ; 0x2015 <f256main+0x1738>
    5918: c5 17        	cmp	$17                     ; 0x2017 <f256main+0x173a>
    591a: d0 1a        	bne	$5936 <malloc+0x2a9>
    591c: a6 ce        	ldx	$ce                     ; 0x20ce <f256main+0x17f1>
    591e: 86 14        	stx	$14                     ; 0x2014 <f256main+0x1737>
    5920: a6 16        	ldx	$16                     ; 0x2016 <f256main+0x1739>
    5922: e4 14        	cpx	$14                     ; 0x2014 <f256main+0x1737>
    5924: d0 12        	bne	$5938 <malloc+0x2ab>
    5926: 4c 9d 57     	jmp	$579d <malloc+0x110>
    5929: 85 16        	sta	$16                     ; 0x2016 <f256main+0x1739>
    592b: c9 00        	cmp	#$0
    592d: 86 18        	stx	$18                     ; 0x2018 <f256main+0x173b>
    592f: a5 19        	lda	$19                     ; 0x2019 <f256main+0x173c>
    5931: 90 d9        	bcc	$590c <malloc+0x27f>
    5933: 4c a3 58     	jmp	$58a3 <malloc+0x216>
    5936: a6 16        	ldx	$16                     ; 0x2016 <f256main+0x1739>
    5938: 86 14        	stx	$14                     ; 0x2014 <f256main+0x1737>
    593a: a0 01        	ldy	#$1
    593c: b1 14        	lda	($14),y                 ; 0x2014 <f256main+0x1737>
    593e: 85 16        	sta	$16                     ; 0x2016 <f256main+0x1739>
    5940: a9 fe        	lda	#$fe
    5942: 32 14        	and	($14)                   ; 0x2014 <f256main+0x1737>
    5944: 92 14        	sta	($14)                   ; 0x2014 <f256main+0x1737>
    5946: a5 16        	lda	$16                     ; 0x2016 <f256main+0x1739>
    5948: 91 14        	sta	($14),y                 ; 0x2014 <f256main+0x1737>
    594a: 60           	rts

0000594b <memcpy>:
    594b: a8           	tay
    594c: 8a           	txa
    594d: d0 03        	bne	$5952 <memcpy+0x7>
    594f: 98           	tya
    5950: f0 24        	beq	$5976 <memcpy+0x2b>
    5952: a5 12        	lda	$12                     ; 0x2012 <f256main+0x1735>
    5954: 85 16        	sta	$16                     ; 0x2016 <f256main+0x1739>
    5956: a5 13        	lda	$13                     ; 0x2013 <f256main+0x1736>
    5958: 85 17        	sta	$17                     ; 0x2017 <f256main+0x173a>
    595a: b2 14        	lda	($14)                   ; 0x2014 <f256main+0x1737>
    595c: 92 16        	sta	($16)                   ; 0x2016 <f256main+0x1739>
    595e: e6 16        	inc	$16                     ; 0x2016 <f256main+0x1739>
    5960: d0 02        	bne	$5964 <memcpy+0x19>
    5962: e6 17        	inc	$17                     ; 0x2017 <f256main+0x173a>
    5964: e6 14        	inc	$14                     ; 0x2014 <f256main+0x1737>
    5966: d0 02        	bne	$596a <memcpy+0x1f>
    5968: e6 15        	inc	$15                     ; 0x2015 <f256main+0x1738>
    596a: 88           	dey
    596b: c0 ff        	cpy	#$ff
    596d: d0 01        	bne	$5970 <memcpy+0x25>
    596f: ca           	dex
    5970: 8a           	txa
    5971: d0 e7        	bne	$595a <memcpy+0xf>
    5973: 98           	tya
    5974: d0 e4        	bne	$595a <memcpy+0xf>
    5976: 60           	rts

00005977 <__memset>:
    5977: a4 14        	ldy	$14                     ; 0x2014 <f256main+0x1737>
    5979: d0 04        	bne	$597f <__memset+0x8>
    597b: e0 00        	cpx	#$0
    597d: f0 17        	beq	$5996 <__memset+0x1f>
    597f: 92 12        	sta	($12)                   ; 0x2012 <f256main+0x1735>
    5981: e6 12        	inc	$12                     ; 0x2012 <f256main+0x1735>
    5983: d0 02        	bne	$5987 <__memset+0x10>
    5985: e6 13        	inc	$13                     ; 0x2013 <f256main+0x1736>
    5987: ca           	dex
    5988: e0 ff        	cpx	#$ff
    598a: d0 02        	bne	$598e <__memset+0x17>
    598c: c6 14        	dec	$14                     ; 0x2014 <f256main+0x1737>
    598e: a4 14        	ldy	$14                     ; 0x2014 <f256main+0x1737>
    5990: d0 ed        	bne	$597f <__memset+0x8>
    5992: e0 00        	cpx	#$0
    5994: d0 e9        	bne	$597f <__memset+0x8>
    5996: 60           	rts

00005997 <__ashlhi3>:
    5997: 86 13        	stx	$13                     ; 0x2013 <f256main+0x1736>
    5999: a6 12        	ldx	$12                     ; 0x2012 <f256main+0x1735>
    599b: f0 0a        	beq	$59a7 <__ashlhi3+0x10>
    599d: a6 12        	ldx	$12                     ; 0x2012 <f256main+0x1735>
    599f: ca           	dex
    59a0: 0a           	asl
    59a1: 26 13        	rol	$13                     ; 0x2013 <f256main+0x1736>
    59a3: e0 00        	cpx	#$0
    59a5: d0 f8        	bne	$599f <__ashlhi3+0x8>
    59a7: a6 13        	ldx	$13                     ; 0x2013 <f256main+0x1736>
    59a9: 60           	rts

000059aa <__lshrhi3>:
    59aa: 86 13        	stx	$13                     ; 0x2013 <f256main+0x1736>
    59ac: a6 12        	ldx	$12                     ; 0x2012 <f256main+0x1735>
    59ae: f0 0a        	beq	$59ba <__lshrhi3+0x10>
    59b0: a6 12        	ldx	$12                     ; 0x2012 <f256main+0x1735>
    59b2: ca           	dex
    59b3: 46 13        	lsr	$13                     ; 0x2013 <f256main+0x1736>
    59b5: 6a           	ror
    59b6: e0 00        	cpx	#$0
    59b8: d0 f8        	bne	$59b2 <__lshrhi3+0x8>
    59ba: a6 13        	ldx	$13                     ; 0x2013 <f256main+0x1736>
    59bc: 60           	rts

000059bd <__mulhi3>:
    59bd: a4 13        	ldy	$13                     ; 0x2013 <f256main+0x1736>
    59bf: d0 04        	bne	$59c5 <__mulhi3+0x8>
    59c1: a4 12        	ldy	$12                     ; 0x2012 <f256main+0x1735>
    59c3: f0 25        	beq	$59ea <__mulhi3+0x2d>
    59c5: 85 14        	sta	$14                     ; 0x2014 <f256main+0x1737>
    59c7: 86 15        	stx	$15                     ; 0x2015 <f256main+0x1738>
    59c9: a0 00        	ldy	#$0
    59cb: 98           	tya
    59cc: 46 13        	lsr	$13                     ; 0x2013 <f256main+0x1736>
    59ce: 66 12        	ror	$12                     ; 0x2012 <f256main+0x1735>
    59d0: 90 09        	bcc	$59db <__mulhi3+0x1e>
    59d2: aa           	tax
    59d3: 98           	tya
    59d4: 18           	clc
    59d5: 65 14        	adc	$14                     ; 0x2014 <f256main+0x1737>
    59d7: a8           	tay
    59d8: 8a           	txa
    59d9: 65 15        	adc	$15                     ; 0x2015 <f256main+0x1738>
    59db: 06 14        	asl	$14                     ; 0x2014 <f256main+0x1737>
    59dd: 26 15        	rol	$15                     ; 0x2015 <f256main+0x1738>
    59df: a6 13        	ldx	$13                     ; 0x2013 <f256main+0x1736>
    59e1: d0 e9        	bne	$59cc <__mulhi3+0xf>
    59e3: a6 12        	ldx	$12                     ; 0x2012 <f256main+0x1735>
    59e5: d0 e5        	bne	$59cc <__mulhi3+0xf>
    59e7: aa           	tax
    59e8: 98           	tya
    59e9: 60           	rts
    59ea: a0 00        	ldy	#$0
    59ec: 98           	tya
    59ed: 80 f8        	bra	$59e7 <__mulhi3+0x2a>

000059ef <__mulsi3>:
    59ef: a4 17        	ldy	$17                     ; 0x2017 <f256main+0x173a>
    59f1: d0 0f        	bne	$5a02 <__mulsi3+0x13>
    59f3: a4 16        	ldy	$16                     ; 0x2016 <f256main+0x1739>
    59f5: d0 0b        	bne	$5a02 <__mulsi3+0x13>
    59f7: a4 15        	ldy	$15                     ; 0x2015 <f256main+0x1738>
    59f9: d0 07        	bne	$5a02 <__mulsi3+0x13>
    59fb: a4 14        	ldy	$14                     ; 0x2014 <f256main+0x1737>
    59fd: d0 03        	bne	$5a02 <__mulsi3+0x13>
    59ff: 4c 56 5a     	jmp	$5a56 <__mulsi3+0x67>
    5a02: 85 18        	sta	$18                     ; 0x2018 <f256main+0x173b>
    5a04: 86 19        	stx	$19                     ; 0x2019 <f256main+0x173c>
    5a06: a0 00        	ldy	#$0
    5a08: a2 00        	ldx	#$0
    5a0a: 64 1a        	stz	$1a                     ; 0x201a <f256main+0x173d>
    5a0c: 98           	tya
    5a0d: 46 17        	lsr	$17                     ; 0x2017 <f256main+0x173a>
    5a0f: 66 16        	ror	$16                     ; 0x2016 <f256main+0x1739>
    5a11: 66 15        	ror	$15                     ; 0x2015 <f256main+0x1738>
    5a13: 66 14        	ror	$14                     ; 0x2014 <f256main+0x1737>
    5a15: 90 15        	bcc	$5a2c <__mulsi3+0x3d>
    5a17: 85 1b        	sta	$1b                     ; 0x201b <f256main+0x173e>
    5a19: 98           	tya
    5a1a: 18           	clc
    5a1b: 65 18        	adc	$18                     ; 0x2018 <f256main+0x173b>
    5a1d: a8           	tay
    5a1e: 8a           	txa
    5a1f: 65 19        	adc	$19                     ; 0x2019 <f256main+0x173c>
    5a21: aa           	tax
    5a22: a5 1a        	lda	$1a                     ; 0x201a <f256main+0x173d>
    5a24: 65 12        	adc	$12                     ; 0x2012 <f256main+0x1735>
    5a26: 85 1a        	sta	$1a                     ; 0x201a <f256main+0x173d>
    5a28: a5 1b        	lda	$1b                     ; 0x201b <f256main+0x173e>
    5a2a: 65 13        	adc	$13                     ; 0x2013 <f256main+0x1736>
    5a2c: 06 18        	asl	$18                     ; 0x2018 <f256main+0x173b>
    5a2e: 26 19        	rol	$19                     ; 0x2019 <f256main+0x173c>
    5a30: 26 12        	rol	$12                     ; 0x2012 <f256main+0x1735>
    5a32: 26 13        	rol	$13                     ; 0x2013 <f256main+0x1736>
    5a34: e6 17        	inc	$17                     ; 0x2017 <f256main+0x173a>
    5a36: c6 17        	dec	$17                     ; 0x2017 <f256main+0x173a>
    5a38: d0 d3        	bne	$5a0d <__mulsi3+0x1e>
    5a3a: e6 16        	inc	$16                     ; 0x2016 <f256main+0x1739>
    5a3c: c6 16        	dec	$16                     ; 0x2016 <f256main+0x1739>
    5a3e: d0 cd        	bne	$5a0d <__mulsi3+0x1e>
    5a40: e6 15        	inc	$15                     ; 0x2015 <f256main+0x1738>
    5a42: c6 15        	dec	$15                     ; 0x2015 <f256main+0x1738>
    5a44: d0 c7        	bne	$5a0d <__mulsi3+0x1e>
    5a46: e6 14        	inc	$14                     ; 0x2014 <f256main+0x1737>
    5a48: c6 14        	dec	$14                     ; 0x2014 <f256main+0x1737>
    5a4a: d0 c1        	bne	$5a0d <__mulsi3+0x1e>
    5a4c: 5a           	phy
    5a4d: a4 1a        	ldy	$1a                     ; 0x201a <f256main+0x173d>
    5a4f: 84 12        	sty	$12                     ; 0x2012 <f256main+0x1735>
    5a51: 7a           	ply
    5a52: 85 13        	sta	$13                     ; 0x2013 <f256main+0x1736>
    5a54: 98           	tya
    5a55: 60           	rts
    5a56: a0 00        	ldy	#$0
    5a58: a2 00        	ldx	#$0
    5a5a: 64 1a        	stz	$1a                     ; 0x201a <f256main+0x173d>
    5a5c: 98           	tya
    5a5d: 80 ed        	bra	$5a4c <__mulsi3+0x5d>

00005a5f <__udivhi3>:
    5a5f: 64 14        	stz	$14                     ; 0x2014 <f256main+0x1737>
    5a61: a4 13        	ldy	$13                     ; 0x2013 <f256main+0x1736>
    5a63: d0 04        	bne	$5a69 <__udivhi3+0xa>
    5a65: a4 12        	ldy	$12                     ; 0x2012 <f256main+0x1735>
    5a67: f0 0e        	beq	$5a77 <__udivhi3+0x18>
    5a69: 85 17        	sta	$17                     ; 0x2017 <f256main+0x173a>
    5a6b: 8a           	txa
    5a6c: e4 13        	cpx	$13                     ; 0x2013 <f256main+0x1736>
    5a6e: d0 0e        	bne	$5a7e <__udivhi3+0x1f>
    5a70: a5 17        	lda	$17                     ; 0x2017 <f256main+0x173a>
    5a72: c5 12        	cmp	$12                     ; 0x2012 <f256main+0x1735>
    5a74: 8a           	txa
    5a75: b0 0b        	bcs	$5a82 <__udivhi3+0x23>
    5a77: a2 00        	ldx	#$0
    5a79: 86 cc        	stx	$cc                     ; 0x20cc <f256main+0x17ef>
    5a7b: 4c 1a 5b     	jmp	$5b1a <__udivhi3+0xbb>
    5a7e: c5 13        	cmp	$13                     ; 0x2013 <f256main+0x1736>
    5a80: 90 f5        	bcc	$5a77 <__udivhi3+0x18>
    5a82: a2 01        	ldx	#$1
    5a84: 86 cc        	stx	$cc                     ; 0x20cc <f256main+0x17ef>
    5a86: a6 13        	ldx	$13                     ; 0x2013 <f256main+0x1736>
    5a88: 10 03        	bpl	$5a8d <__udivhi3+0x2e>
    5a8a: 4c 1a 5b     	jmp	$5b1a <__udivhi3+0xbb>
    5a8d: a2 00        	ldx	#$0
    5a8f: a4 12        	ldy	$12                     ; 0x2012 <f256main+0x1735>
    5a91: 84 15        	sty	$15                     ; 0x2015 <f256main+0x1738>
    5a93: a4 13        	ldy	$13                     ; 0x2013 <f256main+0x1736>
    5a95: 84 16        	sty	$16                     ; 0x2016 <f256main+0x1739>
    5a97: 06 15        	asl	$15                     ; 0x2015 <f256main+0x1738>
    5a99: 26 16        	rol	$16                     ; 0x2016 <f256main+0x1739>
    5a9b: c5 16        	cmp	$16                     ; 0x2016 <f256main+0x1739>
    5a9d: d0 08        	bne	$5aa7 <__udivhi3+0x48>
    5a9f: a4 17        	ldy	$17                     ; 0x2017 <f256main+0x173a>
    5aa1: c4 15        	cpy	$15                     ; 0x2015 <f256main+0x1738>
    5aa3: 90 13        	bcc	$5ab8 <__udivhi3+0x59>
    5aa5: 80 04        	bra	$5aab <__udivhi3+0x4c>
    5aa7: c5 16        	cmp	$16                     ; 0x2016 <f256main+0x1739>
    5aa9: 90 0d        	bcc	$5ab8 <__udivhi3+0x59>
    5aab: e8           	inx
    5aac: a4 15        	ldy	$15                     ; 0x2015 <f256main+0x1738>
    5aae: 84 12        	sty	$12                     ; 0x2012 <f256main+0x1735>
    5ab0: a4 16        	ldy	$16                     ; 0x2016 <f256main+0x1739>
    5ab2: 84 13        	sty	$13                     ; 0x2013 <f256main+0x1736>
    5ab4: 10 e1        	bpl	$5a97 <__udivhi3+0x38>
    5ab6: 80 08        	bra	$5ac0 <__udivhi3+0x61>
    5ab8: a4 12        	ldy	$12                     ; 0x2012 <f256main+0x1735>
    5aba: 84 15        	sty	$15                     ; 0x2015 <f256main+0x1738>
    5abc: a4 13        	ldy	$13                     ; 0x2013 <f256main+0x1736>
    5abe: 84 16        	sty	$16                     ; 0x2016 <f256main+0x1739>
    5ac0: e0 00        	cpx	#$0
    5ac2: d0 03        	bne	$5ac7 <__udivhi3+0x68>
    5ac4: 4c 1a 5b     	jmp	$5b1a <__udivhi3+0xbb>
    5ac7: 38           	sec
    5ac8: a8           	tay
    5ac9: a5 17        	lda	$17                     ; 0x2017 <f256main+0x173a>
    5acb: e5 15        	sbc	$15                     ; 0x2015 <f256main+0x1738>
    5acd: 85 12        	sta	$12                     ; 0x2012 <f256main+0x1735>
    5acf: 98           	tya
    5ad0: e5 16        	sbc	$16                     ; 0x2016 <f256main+0x1739>
    5ad2: a0 01        	ldy	#$1
    5ad4: 84 cc        	sty	$cc                     ; 0x20cc <f256main+0x17ef>
    5ad6: 64 14        	stz	$14                     ; 0x2014 <f256main+0x1737>
    5ad8: 46 16        	lsr	$16                     ; 0x2016 <f256main+0x1739>
    5ada: 66 15        	ror	$15                     ; 0x2015 <f256main+0x1738>
    5adc: a4 cc        	ldy	$cc                     ; 0x20cc <f256main+0x17ef>
    5ade: 84 13        	sty	$13                     ; 0x2013 <f256main+0x1736>
    5ae0: 06 13        	asl	$13                     ; 0x2013 <f256main+0x1736>
    5ae2: a0 01        	ldy	#$1
    5ae4: b0 02        	bcs	$5ae8 <__udivhi3+0x89>
    5ae6: a0 00        	ldy	#$0
    5ae8: 84 17        	sty	$17                     ; 0x2017 <f256main+0x173a>
    5aea: a4 13        	ldy	$13                     ; 0x2013 <f256main+0x1736>
    5aec: 84 cc        	sty	$cc                     ; 0x20cc <f256main+0x17ef>
    5aee: c5 16        	cmp	$16                     ; 0x2016 <f256main+0x1739>
    5af0: d0 22        	bne	$5b14 <__udivhi3+0xb5>
    5af2: a4 12        	ldy	$12                     ; 0x2012 <f256main+0x1735>
    5af4: c4 15        	cpy	$15                     ; 0x2015 <f256main+0x1738>
    5af6: 90 11        	bcc	$5b09 <__udivhi3+0xaa>
    5af8: a8           	tay
    5af9: a5 cc        	lda	$cc                     ; 0x20cc <f256main+0x17ef>
    5afb: 09 01        	ora	#$1
    5afd: 85 cc        	sta	$cc                     ; 0x20cc <f256main+0x17ef>
    5aff: 38           	sec
    5b00: a5 12        	lda	$12                     ; 0x2012 <f256main+0x1735>
    5b02: e5 15        	sbc	$15                     ; 0x2015 <f256main+0x1738>
    5b04: 85 12        	sta	$12                     ; 0x2012 <f256main+0x1735>
    5b06: 98           	tya
    5b07: e5 16        	sbc	$16                     ; 0x2016 <f256main+0x1739>
    5b09: a4 17        	ldy	$17                     ; 0x2017 <f256main+0x173a>
    5b0b: c0 01        	cpy	#$1
    5b0d: 26 14        	rol	$14                     ; 0x2014 <f256main+0x1737>
    5b0f: ca           	dex
    5b10: d0 c6        	bne	$5ad8 <__udivhi3+0x79>
    5b12: 80 06        	bra	$5b1a <__udivhi3+0xbb>
    5b14: c5 16        	cmp	$16                     ; 0x2016 <f256main+0x1739>
    5b16: b0 e0        	bcs	$5af8 <__udivhi3+0x99>
    5b18: 80 ef        	bra	$5b09 <__udivhi3+0xaa>
    5b1a: a6 14        	ldx	$14                     ; 0x2014 <f256main+0x1737>
    5b1c: a5 cc        	lda	$cc                     ; 0x20cc <f256main+0x17ef>
    5b1e: 60           	rts

00005b1f <__udivmodhi4>:
    5b1f: 86 1a        	stx	$1a                     ; 0x201a <f256main+0x173d>
    5b21: 64 16        	stz	$16                     ; 0x2016 <f256main+0x1739>
    5b23: a4 13        	ldy	$13                     ; 0x2013 <f256main+0x1736>
    5b25: d0 04        	bne	$5b2b <__udivmodhi4+0xc>
    5b27: a4 12        	ldy	$12                     ; 0x2012 <f256main+0x1735>
    5b29: f0 08        	beq	$5b33 <__udivmodhi4+0x14>
    5b2b: e4 13        	cpx	$13                     ; 0x2013 <f256main+0x1736>
    5b2d: d0 0d        	bne	$5b3c <__udivmodhi4+0x1d>
    5b2f: c5 12        	cmp	$12                     ; 0x2012 <f256main+0x1735>
    5b31: b0 0d        	bcs	$5b40 <__udivmodhi4+0x21>
    5b33: a6 1a        	ldx	$1a                     ; 0x201a <f256main+0x173d>
    5b35: 86 12        	stx	$12                     ; 0x2012 <f256main+0x1735>
    5b37: a2 00        	ldx	#$0
    5b39: 4c e4 5b     	jmp	$5be4 <__udivmodhi4+0xc5>
    5b3c: e4 13        	cpx	$13                     ; 0x2013 <f256main+0x1736>
    5b3e: 90 f3        	bcc	$5b33 <__udivmodhi4+0x14>
    5b40: a6 13        	ldx	$13                     ; 0x2013 <f256main+0x1736>
    5b42: 10 03        	bpl	$5b47 <__udivmodhi4+0x28>
    5b44: 4c d7 5b     	jmp	$5bd7 <__udivmodhi4+0xb8>
    5b47: a2 00        	ldx	#$0
    5b49: a4 12        	ldy	$12                     ; 0x2012 <f256main+0x1735>
    5b4b: 84 17        	sty	$17                     ; 0x2017 <f256main+0x173a>
    5b4d: a4 13        	ldy	$13                     ; 0x2013 <f256main+0x1736>
    5b4f: 84 18        	sty	$18                     ; 0x2018 <f256main+0x173b>
    5b51: 06 17        	asl	$17                     ; 0x2017 <f256main+0x173a>
    5b53: 26 18        	rol	$18                     ; 0x2018 <f256main+0x173b>
    5b55: a4 1a        	ldy	$1a                     ; 0x201a <f256main+0x173d>
    5b57: c4 18        	cpy	$18                     ; 0x2018 <f256main+0x173b>
    5b59: d0 06        	bne	$5b61 <__udivmodhi4+0x42>
    5b5b: c5 17        	cmp	$17                     ; 0x2017 <f256main+0x173a>
    5b5d: b0 08        	bcs	$5b67 <__udivmodhi4+0x48>
    5b5f: 80 13        	bra	$5b74 <__udivmodhi4+0x55>
    5b61: a4 1a        	ldy	$1a                     ; 0x201a <f256main+0x173d>
    5b63: c4 18        	cpy	$18                     ; 0x2018 <f256main+0x173b>
    5b65: 90 0d        	bcc	$5b74 <__udivmodhi4+0x55>
    5b67: e8           	inx
    5b68: a4 17        	ldy	$17                     ; 0x2017 <f256main+0x173a>
    5b6a: 84 12        	sty	$12                     ; 0x2012 <f256main+0x1735>
    5b6c: a4 18        	ldy	$18                     ; 0x2018 <f256main+0x173b>
    5b6e: 84 13        	sty	$13                     ; 0x2013 <f256main+0x1736>
    5b70: 10 df        	bpl	$5b51 <__udivmodhi4+0x32>
    5b72: 80 08        	bra	$5b7c <__udivmodhi4+0x5d>
    5b74: a4 12        	ldy	$12                     ; 0x2012 <f256main+0x1735>
    5b76: 84 17        	sty	$17                     ; 0x2017 <f256main+0x173a>
    5b78: a4 13        	ldy	$13                     ; 0x2013 <f256main+0x1736>
    5b7a: 84 18        	sty	$18                     ; 0x2018 <f256main+0x173b>
    5b7c: 38           	sec
    5b7d: e5 17        	sbc	$17                     ; 0x2017 <f256main+0x173a>
    5b7f: a8           	tay
    5b80: a5 1a        	lda	$1a                     ; 0x201a <f256main+0x173d>
    5b82: e5 18        	sbc	$18                     ; 0x2018 <f256main+0x173b>
    5b84: 85 12        	sta	$12                     ; 0x2012 <f256main+0x1735>
    5b86: 8a           	txa
    5b87: d0 03        	bne	$5b8c <__udivmodhi4+0x6d>
    5b89: 4c f3 5b     	jmp	$5bf3 <__udivmodhi4+0xd4>
    5b8c: a9 01        	lda	#$1
    5b8e: 85 cc        	sta	$cc                     ; 0x20cc <f256main+0x17ef>
    5b90: 64 16        	stz	$16                     ; 0x2016 <f256main+0x1739>
    5b92: 98           	tya
    5b93: 46 18        	lsr	$18                     ; 0x2018 <f256main+0x173b>
    5b95: 66 17        	ror	$17                     ; 0x2017 <f256main+0x173a>
    5b97: a4 cc        	ldy	$cc                     ; 0x20cc <f256main+0x17ef>
    5b99: 84 13        	sty	$13                     ; 0x2013 <f256main+0x1736>
    5b9b: 06 13        	asl	$13                     ; 0x2013 <f256main+0x1736>
    5b9d: a0 01        	ldy	#$1
    5b9f: b0 02        	bcs	$5ba3 <__udivmodhi4+0x84>
    5ba1: a0 00        	ldy	#$0
    5ba3: 84 19        	sty	$19                     ; 0x2019 <f256main+0x173c>
    5ba5: a4 13        	ldy	$13                     ; 0x2013 <f256main+0x1736>
    5ba7: 84 cc        	sty	$cc                     ; 0x20cc <f256main+0x17ef>
    5ba9: a4 12        	ldy	$12                     ; 0x2012 <f256main+0x1735>
    5bab: c4 18        	cpy	$18                     ; 0x2018 <f256main+0x173b>
    5bad: d0 22        	bne	$5bd1 <__udivmodhi4+0xb2>
    5baf: c5 17        	cmp	$17                     ; 0x2017 <f256main+0x173a>
    5bb1: 90 13        	bcc	$5bc6 <__udivmodhi4+0xa7>
    5bb3: a8           	tay
    5bb4: a5 cc        	lda	$cc                     ; 0x20cc <f256main+0x17ef>
    5bb6: 09 01        	ora	#$1
    5bb8: 85 cc        	sta	$cc                     ; 0x20cc <f256main+0x17ef>
    5bba: 38           	sec
    5bbb: 98           	tya
    5bbc: e5 17        	sbc	$17                     ; 0x2017 <f256main+0x173a>
    5bbe: a8           	tay
    5bbf: a5 12        	lda	$12                     ; 0x2012 <f256main+0x1735>
    5bc1: e5 18        	sbc	$18                     ; 0x2018 <f256main+0x173b>
    5bc3: 85 12        	sta	$12                     ; 0x2012 <f256main+0x1735>
    5bc5: 98           	tya
    5bc6: a4 19        	ldy	$19                     ; 0x2019 <f256main+0x173c>
    5bc8: c0 01        	cpy	#$1
    5bca: 26 16        	rol	$16                     ; 0x2016 <f256main+0x1739>
    5bcc: ca           	dex
    5bcd: d0 c4        	bne	$5b93 <__udivmodhi4+0x74>
    5bcf: 80 15        	bra	$5be6 <__udivmodhi4+0xc7>
    5bd1: c4 18        	cpy	$18                     ; 0x2018 <f256main+0x173b>
    5bd3: b0 de        	bcs	$5bb3 <__udivmodhi4+0x94>
    5bd5: 80 ef        	bra	$5bc6 <__udivmodhi4+0xa7>
    5bd7: 38           	sec
    5bd8: e5 12        	sbc	$12                     ; 0x2012 <f256main+0x1735>
    5bda: aa           	tax
    5bdb: a5 1a        	lda	$1a                     ; 0x201a <f256main+0x173d>
    5bdd: e5 13        	sbc	$13                     ; 0x2013 <f256main+0x1736>
    5bdf: 85 12        	sta	$12                     ; 0x2012 <f256main+0x1735>
    5be1: 8a           	txa
    5be2: a2 01        	ldx	#$1
    5be4: 86 cc        	stx	$cc                     ; 0x20cc <f256main+0x17ef>
    5be6: 92 14        	sta	($14)                   ; 0x2014 <f256main+0x1737>
    5be8: a0 01        	ldy	#$1
    5bea: a5 12        	lda	$12                     ; 0x2012 <f256main+0x1735>
    5bec: 91 14        	sta	($14),y                 ; 0x2014 <f256main+0x1737>
    5bee: a6 16        	ldx	$16                     ; 0x2016 <f256main+0x1739>
    5bf0: a5 cc        	lda	$cc                     ; 0x20cc <f256main+0x17ef>
    5bf2: 60           	rts
    5bf3: a2 01        	ldx	#$1
    5bf5: 86 cc        	stx	$cc                     ; 0x20cc <f256main+0x17ef>
    5bf7: 98           	tya
    5bf8: 80 ec        	bra	$5be6 <__udivmodhi4+0xc7>
