
modu.elf:	file format elf32-mos

SYMBOL TABLE:
00000000 l    df *ABS*	00000000 zero-bss.c
00000000 l    df *ABS*	00000000 zero-zp-bss.c
00000000 l    df *ABS*	00000000 copy-zp-data.c
00000000 l    df *ABS*	00000000 ld-temp.o
000004a2 l     F .text	000003d4 f256Init
00000040 l     O .zp.bss	00000007 kernelEventData
000034c7 l     O .rodata	00000030 textColors
00000047 l     O .zp.bss	00000001 _col
00000048 l     O .zp.bss	00000001 _row
00000049 l     O .zp.bss	00000001 _active
0000004a l     O .zp.bss	00000001 _color
00003743 l     O .bss	0000000c _BITMAP_BASE
0000004b l     O .zp.bss	00000001 _BITMAP_CLUT.1
0000004c l     O .zp.bss	00000040 _spriteCtl
00003742 l     O .bss	00000001 kernelError
0000087c l     F .text	00001a42 f256main
00002808 l     F .text	0000008a bitmapClear
00002fd3 l     F .text	000002b6 malloc
000000e4 l     O .zp.bss	00000002 gPtr
000036b5 l     O .rodata	0000002d sid_instrument_defs
00002f46 l     F .text	00000088 sid_setInstrument
00002650 l     F .text	000001b8 textPrint
000034f7 l     O .rodata	00000040 sidSpriteAction
0000374f l     O .bss	000000a8 radios
00002abe l     F .text	000000f9 setRadioB
000037f7 l     O .bss	00000070 sliders
00002cf3 l     F .text	00000253 updateSlider
00003867 l     O .bss	00000085 sliders_labels
00002918 l     F .text	000000dd showGeneric
00002892 l     F .text	00000086 spriteDefine
0000008c l     O .zp.bss	00000038 dials
00002bb7 l     F .text	0000013c updateDial
000000c4 l     O .zp.bss	00000001 diaAct.0
000000c5 l     O .zp.bss	00000001 sliAct.0
000000db l     O .zp.bss	00000009 polyOPL3Buffer
000000cf l     O .zp.bss	00000006 polySIDBuffer
000000d5 l     O .zp.bss	00000006 polyPSGBuffer
00003537 l     O .rodata	00000058 noteColors
000000c6 l     O .zp.bss	00000002 mX
000000c8 l     O .zp.bss	00000002 mY
000032e8 l     F .text	00000032 __mulhi3
000000cb l     O .zp.bss	00000001 chipAct.1
000033da l     F .text	000000db __udivmodhi4
0000361d l     O .rodata	00000018 opl3_fnums
000000ce l     O .zp.bss	00000001 chipAct.4
00000034 l     O .zp.data	00000006 sidChoiceToVoice
000036e2 l     O .rodata	00000060 sidLow
0000359b l     O .rodata	00000060 sidHigh
000000cc l     O .zp.bss	00000001 chipAct.2
0000003a l     O .zp.data	00000006 polyPSGChanBits
00003635 l     O .rodata	00000040 psgLow
00003675 l     O .rodata	00000040 psgHigh
000000cd l     O .zp.bss	00000001 chipAct.3
000000ca l     O .zp.bss	00000001 chipAct.0
000022be l     F .text	00000392 checkUIEClick
000032d5 l     F .text	00000013 __ashlhi3
000029f5 l     F .text	000000c9 updateRadioB
0000331a l     F .text	000000c0 __udivhi3
000038ec l     O .bss	00000001 _ZN12_GLOBAL__N_111initializedE
00000328 l     F .text	0000013d _ZN12_GLOBAL__N_19FreeChunk6insertEPvj
000038ef l     O .bss	00000002 _ZN12_GLOBAL__N_19free_listE
000038ed l     O .bss	00000002 _ZN12_GLOBAL__N_19free_sizeE
00000876 g     F .text	00000006 main
000303fc g       .pianopal	00000000 pianopal_end
00043000 g       .keys	00000000 keys_end
00011400 g       .pal	00000000 pal_end
00011000 g       .gui	00000000 gui_end
00011000 g       .pal	00000000 pal_start
00010000 g       .gui	00000000 gui_start
00030000 g       .pianopal	00000000 pianopal_start
00030400 g       .keys	00000000 keys_start
00000324 g       .text	00000000 __after_main
00000310 g       .text	00000000 __do_init_stack
0000031e g       .text	00000000 __do_copy_zp_data
0000048b g     F .text	00000017 __copy_zp_data
00000318 g       .text	00000000 __do_zero_bss
00000465 g     F .text	00000013 __zero_bss
0000031b g       .text	00000000 __do_zero_zp_bss
00000478 g     F .text	00000013 __zero_zp_bss
00002fce g     F .text	00000005 exit
00000327 g       .text	00000000 _fini
000032b5  w    F .text	00000020 __memset
00001000  w      *ABS*	00000000 __heap_default_limit
000038fa g       .noinit	00000000 __heap_start
00003289  w    F .text	0000002c memcpy
00000010 g       *ABS*	00000000 __rc0
00000012 g       *ABS*	00000000 __rc2
00000014 g       *ABS*	00000000 __rc4
00000016 g       *ABS*	00000000 __rc6
00000018 g       *ABS*	00000000 __rc8
0000001a g       *ABS*	00000000 __rc10
0000001c g       *ABS*	00000000 __rc12
0000001e g       *ABS*	00000000 __rc14
00000020 g       *ABS*	00000000 __rc16
00000022 g       *ABS*	00000000 __rc18
00000024 g       *ABS*	00000000 __rc20
00000026 g       *ABS*	00000000 __rc22
00000028 g       *ABS*	00000000 __rc24
0000002a g       *ABS*	00000000 __rc26
0000002c g       *ABS*	00000000 __rc28
0000002e g       *ABS*	00000000 __rc30
0000002f g       *ABS*	00000000 __rc31
00000300 g       *ABS*	00000000 __f256_start
0000c000 g       *ABS*	00000000 __stack
0000c000 g       *ABS*	00000000 __SLOT_ADDR
0800c000 g       *ABS*	00000000 __block8_lma
00002000 g       *ABS*	00000000 __BLOCK_SIZE
0900c000 g       *ABS*	00000000 __block9_lma
0a00c000 g       *ABS*	00000000 __block10_lma
0b00c000 g       *ABS*	00000000 __block11_lma
0c00c000 g       *ABS*	00000000 __block12_lma
0d00c000 g       *ABS*	00000000 __block13_lma
0e00c000 g       *ABS*	00000000 __block14_lma
0f00c000 g       *ABS*	00000000 __block15_lma
1000c000 g       *ABS*	00000000 __block16_lma
1100c000 g       *ABS*	00000000 __block17_lma
1200c000 g       *ABS*	00000000 __block18_lma
1300c000 g       *ABS*	00000000 __block19_lma
1400c000 g       *ABS*	00000000 __block20_lma
1500c000 g       *ABS*	00000000 __block21_lma
1600c000 g       *ABS*	00000000 __block22_lma
1700c000 g       *ABS*	00000000 __block23_lma
00010000 g       *ABS*	00000000 __gui_lma
00001000 g       *ABS*	00000000 __gui_size
00011000 g       *ABS*	00000000 __pal_lma
00000400 g       *ABS*	00000000 __pal_size
00030000 g       *ABS*	00000000 __pianopal_lma
000003fc g       *ABS*	00000000 __pianopal_size
00030400 g       *ABS*	00000000 __keys_lma
00012c00 g       *ABS*	00000000 __keys_size
00003742 g       .bss	00000000 __bss_start
00011000 g       .gui	00000000 end_gui
00011400 g       .pal	00000000 end_pal
000303fc g       .pianopal	00000000 end_pianopal
00043000 g       .keys	00000000 end_keys
00000310 g       .text	00000000 _start
0000002d g       *ABS*	00000000 __rc29
0000002b g       *ABS*	00000000 __rc27
00000029 g       *ABS*	00000000 __rc25
00000027 g       *ABS*	00000000 __rc23
00000025 g       *ABS*	00000000 __rc21
00000023 g       *ABS*	00000000 __rc19
00000021 g       *ABS*	00000000 __rc17
0000001f g       *ABS*	00000000 __rc15
0000001d g       *ABS*	00000000 __rc13
0000001b g       *ABS*	00000000 __rc11
00000019 g       *ABS*	00000000 __rc9
00000017 g       *ABS*	00000000 __rc7
00000015 g       *ABS*	00000000 __rc5
00000013 g       *ABS*	00000000 __rc3
00000011 g       *ABS*	00000000 __rc1
00000030 g       .zp.data	00000000 __zp_data_start
00000300 g       *ABS*	00000000 __zp_data_load_start
00000010 g       *ABS*	00000000 __zp_data_size
00000040 g       .zp.bss	00000000 __zp_bss_start
000000a6 g       *ABS*	00000000 __zp_bss_size
00000310 g       .text	00000000 _init
000034b5 g       .text	00000000 __init_array_start
000034b5 g       .text	00000000 __init_array_end
000034b5 g       .text	00000000 __fini_array_start
000034b5 g       .text	00000000 __fini_array_end
00003742 g       .data	00000000 __data_start
00003742 g       .data	00000000 __data_end
00003742 g       *ABS*	00000000 __data_load_start
00000000 g       *ABS*	00000000 __data_size
000038f1 g       .bss	00000000 __bss_end
000001af g       *ABS*	00000000 __bss_size
000038fa g       .noinit	00000000 end_block8
000038fa g       .noinit	00000000 end_block9
000038fa g       .noinit	00000000 end_block10
000038fa g       .noinit	00000000 end_block11
000038fa g       .noinit	00000000 end_block12
000038fa g       .noinit	00000000 end_block13
000038fa g       .noinit	00000000 end_block14
000038fa g       .noinit	00000000 end_block15
000038fa g       .noinit	00000000 end_block16
000038fa g       .noinit	00000000 end_block17
000038fa g       .noinit	00000000 end_block18
000038fa g       .noinit	00000000 end_block19
000038fa g       .noinit	00000000 end_block20
000038fa g       .noinit	00000000 end_block21
000038fa g       .noinit	00000000 end_block22
000038fa g       .noinit	00000000 end_block23

Disassembly of section .text:

00000310 <_start>:
     310: a9 00        	lda	#$0
     312: 85 10        	sta	$10                     ; 0x10 <__zp_data_size>
     314: a9 c0        	lda	#$c0
     316: 85 11        	sta	$11                     ; 0x11 <__rc1>

00000318 <__do_zero_bss>:
     318: 20 65 04     	jsr	$465 <__zero_bss>

0000031b <__do_zero_zp_bss>:
     31b: 20 78 04     	jsr	$478 <__zero_zp_bss>

0000031e <__do_copy_zp_data>:
     31e: 20 8b 04     	jsr	$48b <__copy_zp_data>
     321: 20 76 08     	jsr	$876 <main>

00000324 <__after_main>:
     324: 4c ce 2f     	jmp	$2fce <exit>

00000327 <_fini>:
     327: 60           	rts

00000328 <_ZN12_GLOBAL__N_19FreeChunk6insertEPvj>:
     328: 85 16        	sta	$16                     ; 0x16 <__rc6>
     32a: 29 fe        	and	#$fe
     32c: 85 14        	sta	$14                     ; 0x14 <__rc4>
     32e: a0 01        	ldy	#$1
     330: 98           	tya
     331: 32 12        	and	($12)                   ; 0x12 <__rc2>
     333: 05 14        	ora	$14                     ; 0x14 <__rc4>
     335: 92 12        	sta	($12)                   ; 0x12 <__rc2>
     337: a5 12        	lda	$12                     ; 0x12 <__rc2>
     339: 18           	clc
     33a: 65 14        	adc	$14                     ; 0x14 <__rc4>
     33c: 85 15        	sta	$15                     ; 0x15 <__rc5>
     33e: 8a           	txa
     33f: 65 13        	adc	$13                     ; 0x13 <__rc3>
     341: 85 14        	sta	$14                     ; 0x14 <__rc4>
     343: 18           	clc
     344: a5 15        	lda	$15                     ; 0x15 <__rc5>
     346: 69 fe        	adc	#$fe
     348: 85 17        	sta	$17                     ; 0x17 <__rc7>
     34a: a5 14        	lda	$14                     ; 0x14 <__rc4>
     34c: 69 ff        	adc	#$ff
     34e: 85 15        	sta	$15                     ; 0x15 <__rc5>
     350: a5 17        	lda	$17                     ; 0x17 <__rc7>
     352: 85 14        	sta	$14                     ; 0x14 <__rc4>
     354: 8a           	txa
     355: 91 12        	sta	($12),y                 ; 0x12 <__rc2>
     357: a5 16        	lda	$16                     ; 0x16 <__rc6>
     359: 92 14        	sta	($14)                   ; 0x14 <__rc4>
     35b: 8a           	txa
     35c: 91 14        	sta	($14),y                 ; 0x14 <__rc4>
     35e: b1 12        	lda	($12),y                 ; 0x12 <__rc2>
     360: 85 14        	sta	$14                     ; 0x14 <__rc4>
     362: a9 fe        	lda	#$fe
     364: 32 12        	and	($12)                   ; 0x12 <__rc2>
     366: 18           	clc
     367: 6d ed 38     	adc	$38ed                   ; 0x38ed <_ZN12_GLOBAL__N_19free_sizeE>
     36a: aa           	tax
     36b: a5 14        	lda	$14                     ; 0x14 <__rc4>
     36d: 6d ee 38     	adc	$38ee                   ; 0x38ee <_ZN12_GLOBAL__N_19free_sizeE+0x1>
     370: a8           	tay
     371: 18           	clc
     372: 8a           	txa
     373: 69 fe        	adc	#$fe
     375: aa           	tax
     376: 98           	tya
     377: 69 ff        	adc	#$ff
     379: 8e ed 38     	stx	$38ed                   ; 0x38ed <_ZN12_GLOBAL__N_19free_sizeE>
     37c: 8d ee 38     	sta	$38ee                   ; 0x38ee <_ZN12_GLOBAL__N_19free_sizeE+0x1>
     37f: ae ef 38     	ldx	$38ef                   ; 0x38ef <_ZN12_GLOBAL__N_19free_listE>
     382: 86 16        	stx	$16                     ; 0x16 <__rc6>
     384: ac f0 38     	ldy	$38f0                   ; 0x38f0 <_ZN12_GLOBAL__N_19free_listE+0x1>
     387: a2 00        	ldx	#$0
     389: 86 14        	stx	$14                     ; 0x14 <__rc4>
     38b: a2 00        	ldx	#$0
     38d: 86 15        	stx	$15                     ; 0x15 <__rc5>
     38f: c4 15        	cpy	$15                     ; 0x15 <__rc5>
     391: d0 3e        	bne	$3d1 <_ZN12_GLOBAL__N_19FreeChunk6insertEPvj+0xa9>
     393: a6 16        	ldx	$16                     ; 0x16 <__rc6>
     395: e4 14        	cpx	$14                     ; 0x14 <__rc4>
     397: d0 38        	bne	$3d1 <_ZN12_GLOBAL__N_19FreeChunk6insertEPvj+0xa9>
     399: a0 04        	ldy	#$4
     39b: a5 12        	lda	$12                     ; 0x12 <__rc2>
     39d: 18           	clc
     39e: 69 04        	adc	#$4
     3a0: 85 14        	sta	$14                     ; 0x14 <__rc4>
     3a2: a5 13        	lda	$13                     ; 0x13 <__rc3>
     3a4: 69 00        	adc	#$0
     3a6: 18           	clc
     3a7: 85 15        	sta	$15                     ; 0x15 <__rc5>
     3a9: a5 12        	lda	$12                     ; 0x12 <__rc2>
     3ab: 91 12        	sta	($12),y                 ; 0x12 <__rc2>
     3ad: a0 02        	ldy	#$2
     3af: 85 17        	sta	$17                     ; 0x17 <__rc7>
     3b1: 69 02        	adc	#$2
     3b3: 85 16        	sta	$16                     ; 0x16 <__rc6>
     3b5: a5 17        	lda	$17                     ; 0x17 <__rc7>
     3b7: 91 12        	sta	($12),y                 ; 0x12 <__rc2>
     3b9: a5 13        	lda	$13                     ; 0x13 <__rc3>
     3bb: 69 00        	adc	#$0
     3bd: 85 17        	sta	$17                     ; 0x17 <__rc7>
     3bf: 88           	dey
     3c0: a5 13        	lda	$13                     ; 0x13 <__rc3>
     3c2: 91 14        	sta	($14),y                 ; 0x14 <__rc4>
     3c4: 91 16        	sta	($16),y                 ; 0x16 <__rc6>
     3c6: a6 12        	ldx	$12                     ; 0x12 <__rc2>
     3c8: 8e ef 38     	stx	$38ef                   ; 0x38ef <_ZN12_GLOBAL__N_19free_listE>
     3cb: a6 13        	ldx	$13                     ; 0x13 <__rc3>
     3cd: 8e f0 38     	stx	$38f0                   ; 0x38f0 <_ZN12_GLOBAL__N_19free_listE+0x1>
     3d0: 60           	rts
     3d1: a6 12        	ldx	$12                     ; 0x12 <__rc2>
     3d3: a5 12        	lda	$12                     ; 0x12 <__rc2>
     3d5: 18           	clc
     3d6: 69 02        	adc	#$2
     3d8: 85 14        	sta	$14                     ; 0x14 <__rc4>
     3da: 84 18        	sty	$18                     ; 0x18 <__rc8>
     3dc: a5 13        	lda	$13                     ; 0x13 <__rc3>
     3de: 69 00        	adc	#$0
     3e0: 85 15        	sta	$15                     ; 0x15 <__rc5>
     3e2: a5 16        	lda	$16                     ; 0x16 <__rc6>
     3e4: 84 17        	sty	$17                     ; 0x17 <__rc7>
     3e6: a0 02        	ldy	#$2
     3e8: 91 12        	sta	($12),y                 ; 0x12 <__rc2>
     3ea: 85 19        	sta	$19                     ; 0x19 <__rc9>
     3ec: 88           	dey
     3ed: a5 18        	lda	$18                     ; 0x18 <__rc8>
     3ef: 91 14        	sta	($14),y                 ; 0x14 <__rc4>
     3f1: 18           	clc
     3f2: a5 19        	lda	$19                     ; 0x19 <__rc9>
     3f4: 69 04        	adc	#$4
     3f6: a8           	tay
     3f7: a5 18        	lda	$18                     ; 0x18 <__rc8>
     3f9: 69 00        	adc	#$0
     3fb: 85 19        	sta	$19                     ; 0x19 <__rc9>
     3fd: 84 18        	sty	$18                     ; 0x18 <__rc8>
     3ff: 8a           	txa
     400: 18           	clc
     401: 69 04        	adc	#$4
     403: 85 1a        	sta	$1a                     ; 0x1a <__rc10>
     405: a5 13        	lda	$13                     ; 0x13 <__rc3>
     407: 69 00        	adc	#$0
     409: 85 1b        	sta	$1b                     ; 0x1b <__rc11>
     40b: a0 04        	ldy	#$4
     40d: b1 16        	lda	($16),y                 ; 0x16 <__rc6>
     40f: 85 16        	sta	$16                     ; 0x16 <__rc6>
     411: 85 1d        	sta	$1d                     ; 0x1d <__rc13>
     413: a0 01        	ldy	#$1
     415: b1 18        	lda	($18),y                 ; 0x18 <__rc8>
     417: 85 17        	sta	$17                     ; 0x17 <__rc7>
     419: 85 19        	sta	$19                     ; 0x19 <__rc9>
     41b: a0 04        	ldy	#$4
     41d: a5 1d        	lda	$1d                     ; 0x1d <__rc13>
     41f: 91 12        	sta	($12),y                 ; 0x12 <__rc2>
     421: a5 19        	lda	$19                     ; 0x19 <__rc9>
     423: a0 01        	ldy	#$1
     425: 91 1a        	sta	($1a),y                 ; 0x1a <__rc10>
     427: 18           	clc
     428: a5 1d        	lda	$1d                     ; 0x1d <__rc13>
     42a: 69 02        	adc	#$2
     42c: 85 18        	sta	$18                     ; 0x18 <__rc8>
     42e: a5 19        	lda	$19                     ; 0x19 <__rc9>
     430: 69 00        	adc	#$0
     432: 85 19        	sta	$19                     ; 0x19 <__rc9>
     434: 8a           	txa
     435: c8           	iny
     436: 91 16        	sta	($16),y                 ; 0x16 <__rc6>
     438: a5 13        	lda	$13                     ; 0x13 <__rc3>
     43a: 88           	dey
     43b: 91 18        	sta	($18),y                 ; 0x18 <__rc8>
     43d: c8           	iny
     43e: b1 12        	lda	($12),y                 ; 0x12 <__rc2>
     440: 85 16        	sta	$16                     ; 0x16 <__rc6>
     442: 85 18        	sta	$18                     ; 0x18 <__rc8>
     444: 88           	dey
     445: b1 14        	lda	($14),y                 ; 0x14 <__rc4>
     447: 85 17        	sta	$17                     ; 0x17 <__rc7>
     449: 85 14        	sta	$14                     ; 0x14 <__rc4>
     44b: 8a           	txa
     44c: a0 04        	ldy	#$4
     44e: 91 16        	sta	($16),y                 ; 0x16 <__rc6>
     450: 18           	clc
     451: a5 18        	lda	$18                     ; 0x18 <__rc8>
     453: 69 04        	adc	#$4
     455: a8           	tay
     456: a5 14        	lda	$14                     ; 0x14 <__rc4>
     458: 69 00        	adc	#$0
     45a: 84 14        	sty	$14                     ; 0x14 <__rc4>
     45c: 85 15        	sta	$15                     ; 0x15 <__rc5>
     45e: a5 13        	lda	$13                     ; 0x13 <__rc3>
     460: a0 01        	ldy	#$1
     462: 91 14        	sta	($14),y                 ; 0x14 <__rc4>
     464: 60           	rts

00000465 <__zero_bss>:
     465: a2 af        	ldx	#$af
     467: a0 01        	ldy	#$1
     469: a9 42        	lda	#$42
     46b: 85 12        	sta	$12                     ; 0x12 <__rc2>
     46d: a9 37        	lda	#$37
     46f: 85 13        	sta	$13                     ; 0x13 <__rc3>
     471: a9 00        	lda	#$0
     473: 84 14        	sty	$14                     ; 0x14 <__rc4>
     475: 4c b5 32     	jmp	$32b5 <__memset>

00000478 <__zero_zp_bss>:
     478: a2 a6        	ldx	#$a6
     47a: a0 00        	ldy	#$0
     47c: a9 40        	lda	#$40
     47e: 85 12        	sta	$12                     ; 0x12 <__rc2>
     480: a9 00        	lda	#$0
     482: 85 13        	sta	$13                     ; 0x13 <__rc3>
     484: a9 00        	lda	#$0
     486: 84 14        	sty	$14                     ; 0x14 <__rc4>
     488: 4c b5 32     	jmp	$32b5 <__memset>

0000048b <__copy_zp_data>:
     48b: a9 10        	lda	#$10
     48d: a2 00        	ldx	#$0
     48f: a0 30        	ldy	#$30
     491: 84 12        	sty	$12                     ; 0x12 <__rc2>
     493: a0 00        	ldy	#$0
     495: 84 13        	sty	$13                     ; 0x13 <__rc3>
     497: a0 00        	ldy	#$0
     499: 84 14        	sty	$14                     ; 0x14 <__rc4>
     49b: a0 03        	ldy	#$3
     49d: 84 15        	sty	$15                     ; 0x15 <__rc5>
     49f: 4c 89 32     	jmp	$3289 <memcpy>

000004a2 <f256Init>:
     4a2: 64 14        	stz	$14                     ; 0x14 <__rc4>
     4a4: a2 00        	ldx	#$0
     4a6: 86 12        	stx	$12                     ; 0x12 <__rc2>
     4a8: a2 c0        	ldx	#$c0
     4aa: 86 13        	stx	$13                     ; 0x13 <__rc3>
     4ac: 64 01        	stz	$1                      ; 0x1 <__data_size+0x1>
     4ae: a2 3f        	ldx	#$3f
     4b0: 8e 00 d0     	stx	$d000                   ; 0xd000 <end_block9+0x9706>
     4b3: a2 b3        	ldx	#$b3
     4b5: 86 00        	stx	$0                      ; 0x0 <__data_size>
     4b7: 64 08        	stz	$8                      ; 0x8 <__data_size+0x8>
     4b9: a2 01        	ldx	#$1
     4bb: 86 09        	stx	$9                      ; 0x9 <__data_size+0x9>
     4bd: e8           	inx
     4be: 86 0a        	stx	$a                      ; 0xa <__data_size+0xa>
     4c0: e8           	inx
     4c1: 86 0b        	stx	$b                      ; 0xb <__data_size+0xb>
     4c3: e8           	inx
     4c4: 86 0c        	stx	$c                      ; 0xc <__data_size+0xc>
     4c6: e8           	inx
     4c7: 86 0d        	stx	$d                      ; 0xd <__data_size+0xd>
     4c9: a2 40        	ldx	#$40
     4cb: a0 00        	ldy	#$0
     4cd: 86 f0        	stx	$f0                     ; 0xf0 <__zp_bss_size+0x4a>
     4cf: 84 f1        	sty	$f1                     ; 0xf1 <__zp_bss_size+0x4b>
     4d1: a2 00        	ldx	#$0
     4d3: 86 18        	stx	$18                     ; 0x18 <__rc8>
     4d5: ca           	dex
     4d6: 86 19        	stx	$19                     ; 0x19 <__rc9>
     4d8: 8a           	txa
     4d9: 0a           	asl
     4da: 0a           	asl
     4db: 18           	clc
     4dc: 69 d4        	adc	#$d4
     4de: 85 1a        	sta	$1a                     ; 0x1a <__rc10>
     4e0: a0 00        	ldy	#$0
     4e2: 64 17        	stz	$17                     ; 0x17 <__rc7>
     4e4: 64 16        	stz	$16                     ; 0x16 <__rc6>
     4e6: a6 19        	ldx	$19                     ; 0x19 <__rc9>
     4e8: e0 03        	cpx	#$3
     4ea: a6 01        	ldx	$1                      ; 0x1 <__data_size+0x1>
     4ec: 86 1c        	stx	$1c                     ; 0x1c <__rc12>
     4ee: a2 d0        	ldx	#$d0
     4f0: 84 1b        	sty	$1b                     ; 0x1b <__rc11>
     4f2: b0 02        	bcs	$4f6 <f256Init+0x54>
     4f4: a6 1a        	ldx	$1a                     ; 0x1a <__rc10>
     4f6: 86 15        	stx	$15                     ; 0x15 <__rc5>
     4f8: a5 17        	lda	$17                     ; 0x17 <__rc7>
     4fa: 18           	clc
     4fb: 65 14        	adc	$14                     ; 0x14 <__rc4>
     4fd: a8           	tay
     4fe: a6 17        	ldx	$17                     ; 0x17 <__rc7>
     500: a5 16        	lda	$16                     ; 0x16 <__rc6>
     502: 85 1d        	sta	$1d                     ; 0x1d <__rc13>
     504: a5 16        	lda	$16                     ; 0x16 <__rc6>
     506: 65 15        	adc	$15                     ; 0x15 <__rc5>
     508: 84 16        	sty	$16                     ; 0x16 <__rc6>
     50a: a0 01        	ldy	#$1
     50c: 84 01        	sty	$1                      ; 0x1 <__data_size+0x1>
     50e: 85 17        	sta	$17                     ; 0x17 <__rc7>
     510: a5 1b        	lda	$1b                     ; 0x1b <__rc11>
     512: 92 16        	sta	($16)                   ; 0x16 <__rc6>
     514: 91 16        	sta	($16),y                 ; 0x16 <__rc6>
     516: c8           	iny
     517: 91 16        	sta	($16),y                 ; 0x16 <__rc6>
     519: 85 15        	sta	$15                     ; 0x15 <__rc5>
     51b: c8           	iny
     51c: a9 ff        	lda	#$ff
     51e: 91 16        	sta	($16),y                 ; 0x16 <__rc6>
     520: 8a           	txa
     521: a6 1c        	ldx	$1c                     ; 0x1c <__rc12>
     523: 86 01        	stx	$1                      ; 0x1 <__data_size+0x1>
     525: 18           	clc
     526: 69 04        	adc	#$4
     528: 85 17        	sta	$17                     ; 0x17 <__rc7>
     52a: a5 1d        	lda	$1d                     ; 0x1d <__rc13>
     52c: 69 00        	adc	#$0
     52e: e6 15        	inc	$15                     ; 0x15 <__rc5>
     530: a4 15        	ldy	$15                     ; 0x15 <__rc5>
     532: 85 16        	sta	$16                     ; 0x16 <__rc6>
     534: c9 04        	cmp	#$4
     536: f0 03        	beq	$53b <f256Init+0x99>
     538: 4c e6 04     	jmp	$4e6 <f256Init+0x44>
     53b: a5 17        	lda	$17                     ; 0x17 <__rc7>
     53d: f0 03        	beq	$542 <f256Init+0xa0>
     53f: 4c e6 04     	jmp	$4e6 <f256Init+0x44>
     542: a6 18        	ldx	$18                     ; 0x18 <__rc8>
     544: e8           	inx
     545: e0 04        	cpx	#$4
     547: f0 03        	beq	$54c <f256Init+0xaa>
     549: 4c d3 04     	jmp	$4d3 <f256Init+0x31>
     54c: ad 02 d0     	lda	$d002                   ; 0xd002 <end_block9+0x9708>
     54f: 29 f0        	and	#$f0
     551: 8d 02 d0     	sta	$d002                   ; 0xd002 <end_block9+0x9708>
     554: ad 02 d0     	lda	$d002                   ; 0xd002 <end_block9+0x9708>
     557: 29 0f        	and	#$f
     559: 09 10        	ora	#$10
     55b: 8d 02 d0     	sta	$d002                   ; 0xd002 <end_block9+0x9708>
     55e: a2 02        	ldx	#$2
     560: 8e 03 d0     	stx	$d003                   ; 0xd003 <end_block9+0x9709>
     563: ad 01 d0     	lda	$d001                   ; 0xd001 <end_block9+0x9707>
     566: 29 f9        	and	#$f9
     568: 09 04        	ora	#$4
     56a: 8d 01 d0     	sta	$d001                   ; 0xd001 <end_block9+0x9707>
     56d: 64 14        	stz	$14                     ; 0x14 <__rc4>
     56f: 9c 10 d0     	stz	$d010                   ; 0xd010 <end_block9+0x9716>
     572: a2 00        	ldx	#$0
     574: 64 15        	stz	$15                     ; 0x15 <__rc5>
     576: 86 18        	stx	$18                     ; 0x18 <__rc8>
     578: a4 18        	ldy	$18                     ; 0x18 <__rc8>
     57a: be c7 34     	ldx	$34c7,y                 ; 0x34c7 <textColors>
     57d: 86 19        	stx	$19                     ; 0x19 <__rc9>
     57f: be c8 34     	ldx	$34c8,y                 ; 0x34c8 <textColors+0x1>
     582: 86 1a        	stx	$1a                     ; 0x1a <__rc10>
     584: be c9 34     	ldx	$34c9,y                 ; 0x34c9 <textColors+0x2>
     587: 86 1b        	stx	$1b                     ; 0x1b <__rc11>
     589: a6 15        	ldx	$15                     ; 0x15 <__rc5>
     58b: 8e 00 de     	stx	$de00                   ; 0xde00 <end_block9+0xa506>
     58e: 86 17        	stx	$17                     ; 0x17 <__rc7>
     590: 9c 01 de     	stz	$de01                   ; 0xde01 <end_block9+0xa507>
     593: a2 04        	ldx	#$4
     595: 8e 02 de     	stx	$de02                   ; 0xde02 <end_block9+0xa508>
     598: 9c 03 de     	stz	$de03                   ; 0xde03 <end_block9+0xa509>
     59b: ad 10 de     	lda	$de10                   ; 0xde10 <end_block9+0xa516>
     59e: ac 11 de     	ldy	$de11                   ; 0xde11 <end_block9+0xa517>
     5a1: 84 15        	sty	$15                     ; 0x15 <__rc5>
     5a3: ac 12 de     	ldy	$de12                   ; 0xde12 <end_block9+0xa518>
     5a6: ac 13 de     	ldy	$de13                   ; 0xde13 <end_block9+0xa519>
     5a9: 18           	clc
     5aa: 65 14        	adc	$14                     ; 0x14 <__rc4>
     5ac: 85 16        	sta	$16                     ; 0x16 <__rc6>
     5ae: a6 17        	ldx	$17                     ; 0x17 <__rc7>
     5b0: a9 d8        	lda	#$d8
     5b2: 65 15        	adc	$15                     ; 0x15 <__rc5>
     5b4: 85 17        	sta	$17                     ; 0x17 <__rc7>
     5b6: a5 1b        	lda	$1b                     ; 0x1b <__rc11>
     5b8: 92 16        	sta	($16)                   ; 0x16 <__rc6>
     5ba: a0 01        	ldy	#$1
     5bc: a5 1a        	lda	$1a                     ; 0x1a <__rc10>
     5be: 91 16        	sta	($16),y                 ; 0x16 <__rc6>
     5c0: c8           	iny
     5c1: a5 19        	lda	$19                     ; 0x19 <__rc9>
     5c3: 91 16        	sta	($16),y                 ; 0x16 <__rc6>
     5c5: c8           	iny
     5c6: a9 ff        	lda	#$ff
     5c8: 91 16        	sta	($16),y                 ; 0x16 <__rc6>
     5ca: 8e 00 de     	stx	$de00                   ; 0xde00 <end_block9+0xa506>
     5cd: 9c 01 de     	stz	$de01                   ; 0xde01 <end_block9+0xa507>
     5d0: c8           	iny
     5d1: 8c 02 de     	sty	$de02                   ; 0xde02 <end_block9+0xa508>
     5d4: 9c 03 de     	stz	$de03                   ; 0xde03 <end_block9+0xa509>
     5d7: ad 10 de     	lda	$de10                   ; 0xde10 <end_block9+0xa516>
     5da: 85 15        	sta	$15                     ; 0x15 <__rc5>
     5dc: ad 11 de     	lda	$de11                   ; 0xde11 <end_block9+0xa517>
     5df: 85 16        	sta	$16                     ; 0x16 <__rc6>
     5e1: a9 40        	lda	#$40
     5e3: 18           	clc
     5e4: 65 15        	adc	$15                     ; 0x15 <__rc5>
     5e6: a8           	tay
     5e7: a9 d8        	lda	#$d8
     5e9: 65 16        	adc	$16                     ; 0x16 <__rc6>
     5eb: 85 17        	sta	$17                     ; 0x17 <__rc7>
     5ed: 84 16        	sty	$16                     ; 0x16 <__rc6>
     5ef: ad 12 de     	lda	$de12                   ; 0xde12 <end_block9+0xa518>
     5f2: ad 13 de     	lda	$de13                   ; 0xde13 <end_block9+0xa519>
     5f5: a5 1b        	lda	$1b                     ; 0x1b <__rc11>
     5f7: 92 16        	sta	($16)                   ; 0x16 <__rc6>
     5f9: a5 1a        	lda	$1a                     ; 0x1a <__rc10>
     5fb: a0 01        	ldy	#$1
     5fd: 91 16        	sta	($16),y                 ; 0x16 <__rc6>
     5ff: a5 19        	lda	$19                     ; 0x19 <__rc9>
     601: c8           	iny
     602: 91 16        	sta	($16),y                 ; 0x16 <__rc6>
     604: c8           	iny
     605: a9 ff        	lda	#$ff
     607: 91 16        	sta	($16),y                 ; 0x16 <__rc6>
     609: e8           	inx
     60a: 86 15        	stx	$15                     ; 0x15 <__rc5>
     60c: 18           	clc
     60d: a5 18        	lda	$18                     ; 0x18 <__rc8>
     60f: 69 03        	adc	#$3
     611: aa           	tax
     612: c9 30        	cmp	#$30
     614: f0 03        	beq	$619 <f256Init+0x177>
     616: 4c 76 05     	jmp	$576 <f256Init+0xd4>
     619: a6 01        	ldx	$1                      ; 0x1 <__data_size+0x1>
     61b: 86 18        	stx	$18                     ; 0x18 <__rc8>
     61d: a2 50        	ldx	#$50
     61f: 8e 00 de     	stx	$de00                   ; 0xde00 <end_block9+0xa506>
     622: 9c 01 de     	stz	$de01                   ; 0xde01 <end_block9+0xa507>
     625: a2 1e        	ldx	#$1e
     627: 8e 02 de     	stx	$de02                   ; 0xde02 <end_block9+0xa508>
     62a: 9c 03 de     	stz	$de03                   ; 0xde03 <end_block9+0xa509>
     62d: ae 10 de     	ldx	$de10                   ; 0xde10 <end_block9+0xa516>
     630: ac 11 de     	ldy	$de11                   ; 0xde11 <end_block9+0xa517>
     633: ad 12 de     	lda	$de12                   ; 0xde12 <end_block9+0xa518>
     636: ad 13 de     	lda	$de13                   ; 0xde13 <end_block9+0xa519>
     639: a9 02        	lda	#$2
     63b: 85 01        	sta	$1                      ; 0x1 <__data_size+0x1>
     63d: e0 01        	cpx	#$1
     63f: 98           	tya
     640: e9 00        	sbc	#$0
     642: 50 02        	bvc	$646 <f256Init+0x1a4>
     644: 49 80        	eor	#$80
     646: c9 00        	cmp	#$0
     648: 30 48        	bmi	$692 <f256Init+0x1f0>
     64a: a9 20        	lda	#$20
     64c: 86 19        	stx	$19                     ; 0x19 <__rc9>
     64e: 86 14        	stx	$14                     ; 0x14 <__rc4>
     650: 84 15        	sty	$15                     ; 0x15 <__rc5>
     652: a2 00        	ldx	#$0
     654: 86 16        	stx	$16                     ; 0x16 <__rc6>
     656: a2 c0        	ldx	#$c0
     658: 86 17        	stx	$17                     ; 0x17 <__rc7>
     65a: 92 16        	sta	($16)                   ; 0x16 <__rc6>
     65c: e6 16        	inc	$16                     ; 0x16 <__rc6>
     65e: d0 02        	bne	$662 <f256Init+0x1c0>
     660: e6 17        	inc	$17                     ; 0x17 <__rc7>
     662: a2 ff        	ldx	#$ff
     664: c6 14        	dec	$14                     ; 0x14 <__rc4>
     666: e4 14        	cpx	$14                     ; 0x14 <__rc4>
     668: d0 02        	bne	$66c <f256Init+0x1ca>
     66a: c6 15        	dec	$15                     ; 0x15 <__rc5>
     66c: a6 15        	ldx	$15                     ; 0x15 <__rc5>
     66e: d0 ea        	bne	$65a <f256Init+0x1b8>
     670: a6 14        	ldx	$14                     ; 0x14 <__rc4>
     672: d0 e6        	bne	$65a <f256Init+0x1b8>
     674: a2 03        	ldx	#$3
     676: 86 01        	stx	$1                      ; 0x1 <__data_size+0x1>
     678: a6 19        	ldx	$19                     ; 0x19 <__rc9>
     67a: a9 f0        	lda	#$f0
     67c: 92 12        	sta	($12)                   ; 0x12 <__rc2>
     67e: e6 12        	inc	$12                     ; 0x12 <__rc2>
     680: d0 02        	bne	$684 <f256Init+0x1e2>
     682: e6 13        	inc	$13                     ; 0x13 <__rc3>
     684: ca           	dex
     685: e0 ff        	cpx	#$ff
     687: d0 01        	bne	$68a <f256Init+0x1e8>
     689: 88           	dey
     68a: 98           	tya
     68b: d0 ed        	bne	$67a <f256Init+0x1d8>
     68d: 8a           	txa
     68e: d0 ea        	bne	$67a <f256Init+0x1d8>
     690: 80 04        	bra	$696 <f256Init+0x1f4>
     692: a2 03        	ldx	#$3
     694: 86 01        	stx	$1                      ; 0x1 <__data_size+0x1>
     696: a6 18        	ldx	$18                     ; 0x18 <__rc8>
     698: 86 01        	stx	$1                      ; 0x1 <__data_size+0x1>
     69a: 64 47        	stz	$47                     ; 0x47 <_col>
     69c: 9c 14 d0     	stz	$d014                   ; 0xd014 <end_block9+0x971a>
     69f: 9c 15 d0     	stz	$d015                   ; 0xd015 <end_block9+0x971b>
     6a2: 64 48        	stz	$48                     ; 0x48 <_row>
     6a4: 9c 16 d0     	stz	$d016                   ; 0xd016 <end_block9+0x971c>
     6a7: 9c 17 d0     	stz	$d017                   ; 0xd017 <end_block9+0x971d>
     6aa: a2 40        	ldx	#$40
     6ac: 8e 00 de     	stx	$de00                   ; 0xde00 <end_block9+0xa506>
     6af: a2 01        	ldx	#$1
     6b1: 8e 01 de     	stx	$de01                   ; 0xde01 <end_block9+0xa507>
     6b4: a2 f0        	ldx	#$f0
     6b6: 8e 02 de     	stx	$de02                   ; 0xde02 <end_block9+0xa508>
     6b9: 9c 03 de     	stz	$de03                   ; 0xde03 <end_block9+0xa509>
     6bc: ae 10 de     	ldx	$de10                   ; 0xde10 <end_block9+0xa516>
     6bf: 86 17        	stx	$17                     ; 0x17 <__rc7>
     6c1: ae 11 de     	ldx	$de11                   ; 0xde11 <end_block9+0xa517>
     6c4: 86 12        	stx	$12                     ; 0x12 <__rc2>
     6c6: ae 12 de     	ldx	$de12                   ; 0xde12 <end_block9+0xa518>
     6c9: 86 13        	stx	$13                     ; 0x13 <__rc3>
     6cb: ae 13 de     	ldx	$de13                   ; 0xde13 <end_block9+0xa519>
     6ce: 86 14        	stx	$14                     ; 0x14 <__rc4>
     6d0: 64 49        	stz	$49                     ; 0x49 <_active>
     6d2: a2 ff        	ldx	#$ff
     6d4: 86 4a        	stx	$4a                     ; 0x4a <_color>
     6d6: a6 12        	ldx	$12                     ; 0x12 <__rc2>
     6d8: 86 15        	stx	$15                     ; 0x15 <__rc5>
     6da: 06 15        	asl	$15                     ; 0x15 <__rc5>
     6dc: a5 13        	lda	$13                     ; 0x13 <__rc3>
     6de: 2a           	rol
     6df: a6 14        	ldx	$14                     ; 0x14 <__rc4>
     6e1: 86 16        	stx	$16                     ; 0x16 <__rc6>
     6e3: 26 16        	rol	$16                     ; 0x16 <__rc6>
     6e5: 06 15        	asl	$15                     ; 0x15 <__rc5>
     6e7: 2a           	rol
     6e8: 26 16        	rol	$16                     ; 0x16 <__rc6>
     6ea: 06 15        	asl	$15                     ; 0x15 <__rc5>
     6ec: 2a           	rol
     6ed: 26 16        	rol	$16                     ; 0x16 <__rc6>
     6ef: 85 15        	sta	$15                     ; 0x15 <__rc5>
     6f1: 8d 00 de     	sta	$de00                   ; 0xde00 <end_block9+0xa506>
     6f4: a5 16        	lda	$16                     ; 0x16 <__rc6>
     6f6: 8d 01 de     	sta	$de01                   ; 0xde01 <end_block9+0xa507>
     6f9: 9c 02 de     	stz	$de02                   ; 0xde02 <end_block9+0xa508>
     6fc: a2 20        	ldx	#$20
     6fe: 8e 03 de     	stx	$de03                   ; 0xde03 <end_block9+0xa509>
     701: ae 10 de     	ldx	$de10                   ; 0xde10 <end_block9+0xa516>
     704: 86 16        	stx	$16                     ; 0x16 <__rc6>
     706: ae 11 de     	ldx	$de11                   ; 0xde11 <end_block9+0xa517>
     709: 86 18        	stx	$18                     ; 0x18 <__rc8>
     70b: ac 12 de     	ldy	$de12                   ; 0xde12 <end_block9+0xa518>
     70e: ae 13 de     	ldx	$de13                   ; 0xde13 <end_block9+0xa519>
     711: e4 14        	cpx	$14                     ; 0x14 <__rc4>
     713: d0 14        	bne	$729 <f256Init+0x287>
     715: c4 13        	cpy	$13                     ; 0x13 <__rc3>
     717: d0 10        	bne	$729 <f256Init+0x287>
     719: a6 18        	ldx	$18                     ; 0x18 <__rc8>
     71b: e4 12        	cpx	$12                     ; 0x12 <__rc2>
     71d: d0 0a        	bne	$729 <f256Init+0x287>
     71f: a6 16        	ldx	$16                     ; 0x16 <__rc6>
     721: e4 17        	cpx	$17                     ; 0x17 <__rc7>
     723: d0 04        	bne	$729 <f256Init+0x287>
     725: a6 15        	ldx	$15                     ; 0x15 <__rc5>
     727: 80 06        	bra	$72f <f256Init+0x28d>
     729: a6 15        	ldx	$15                     ; 0x15 <__rc5>
     72b: e8           	inx
     72c: d0 01        	bne	$72f <f256Init+0x28d>
     72e: 1a           	inc
     72f: 8e 00 de     	stx	$de00                   ; 0xde00 <end_block9+0xa506>
     732: 8d 01 de     	sta	$de01                   ; 0xde01 <end_block9+0xa507>
     735: 9c 02 de     	stz	$de02                   ; 0xde02 <end_block9+0xa508>
     738: a2 20        	ldx	#$20
     73a: 8e 03 de     	stx	$de03                   ; 0xde03 <end_block9+0xa509>
     73d: ae 10 de     	ldx	$de10                   ; 0xde10 <end_block9+0xa516>
     740: 86 12        	stx	$12                     ; 0x12 <__rc2>
     742: ae 11 de     	ldx	$de11                   ; 0xde11 <end_block9+0xa517>
     745: 86 13        	stx	$13                     ; 0x13 <__rc3>
     747: ae 12 de     	ldx	$de12                   ; 0xde12 <end_block9+0xa518>
     74a: 86 14        	stx	$14                     ; 0x14 <__rc4>
     74c: ae 13 de     	ldx	$de13                   ; 0xde13 <end_block9+0xa519>
     74f: 86 15        	stx	$15                     ; 0x15 <__rc5>
     751: a9 00        	lda	#$0
     753: 38           	sec
     754: e5 12        	sbc	$12                     ; 0x12 <__rc2>
     756: 85 18        	sta	$18                     ; 0x18 <__rc8>
     758: a9 00        	lda	#$0
     75a: e5 13        	sbc	$13                     ; 0x13 <__rc3>
     75c: a8           	tay
     75d: a9 08        	lda	#$8
     75f: e5 14        	sbc	$14                     ; 0x14 <__rc4>
     761: aa           	tax
     762: a9 00        	lda	#$0
     764: e5 15        	sbc	$15                     ; 0x15 <__rc5>
     766: 85 17        	sta	$17                     ; 0x17 <__rc7>
     768: 8c 44 37     	sty	$3744                   ; 0x3744 <_BITMAP_BASE+0x1>
     76b: 8e 45 37     	stx	$3745                   ; 0x3745 <_BITMAP_BASE+0x2>
     76e: 8d 46 37     	sta	$3746                   ; 0x3746 <_BITMAP_BASE+0x3>
     771: 38           	sec
     772: a5 18        	lda	$18                     ; 0x18 <__rc8>
     774: e5 12        	sbc	$12                     ; 0x12 <__rc2>
     776: 85 19        	sta	$19                     ; 0x19 <__rc9>
     778: 98           	tya
     779: e5 13        	sbc	$13                     ; 0x13 <__rc3>
     77b: 85 16        	sta	$16                     ; 0x16 <__rc6>
     77d: 8a           	txa
     77e: e5 14        	sbc	$14                     ; 0x14 <__rc4>
     780: aa           	tax
     781: a5 17        	lda	$17                     ; 0x17 <__rc7>
     783: e5 15        	sbc	$15                     ; 0x15 <__rc5>
     785: 85 17        	sta	$17                     ; 0x17 <__rc7>
     787: 38           	sec
     788: a5 19        	lda	$19                     ; 0x19 <__rc9>
     78a: 8d 47 37     	sta	$3747                   ; 0x3747 <_BITMAP_BASE+0x4>
     78d: a4 16        	ldy	$16                     ; 0x16 <__rc6>
     78f: 8c 48 37     	sty	$3748                   ; 0x3748 <_BITMAP_BASE+0x5>
     792: 8e 49 37     	stx	$3749                   ; 0x3749 <_BITMAP_BASE+0x6>
     795: a4 17        	ldy	$17                     ; 0x17 <__rc7>
     797: 8c 4a 37     	sty	$374a                   ; 0x374a <_BITMAP_BASE+0x7>
     79a: e5 12        	sbc	$12                     ; 0x12 <__rc2>
     79c: a8           	tay
     79d: a5 16        	lda	$16                     ; 0x16 <__rc6>
     79f: e5 13        	sbc	$13                     ; 0x13 <__rc3>
     7a1: 85 12        	sta	$12                     ; 0x12 <__rc2>
     7a3: 8a           	txa
     7a4: e5 14        	sbc	$14                     ; 0x14 <__rc4>
     7a6: 85 14        	sta	$14                     ; 0x14 <__rc4>
     7a8: a5 17        	lda	$17                     ; 0x17 <__rc7>
     7aa: e5 15        	sbc	$15                     ; 0x15 <__rc5>
     7ac: 8c 4b 37     	sty	$374b                   ; 0x374b <_BITMAP_BASE+0x8>
     7af: a4 12        	ldy	$12                     ; 0x12 <__rc2>
     7b1: 8c 4c 37     	sty	$374c                   ; 0x374c <_BITMAP_BASE+0x9>
     7b4: a6 14        	ldx	$14                     ; 0x14 <__rc4>
     7b6: 8e 4d 37     	stx	$374d                   ; 0x374d <_BITMAP_BASE+0xa>
     7b9: a6 18        	ldx	$18                     ; 0x18 <__rc8>
     7bb: 8e 43 37     	stx	$3743                   ; 0x3743 <_BITMAP_BASE>
     7be: 8d 4e 37     	sta	$374e                   ; 0x374e <_BITMAP_BASE+0xb>
     7c1: 64 4b        	stz	$4b                     ; 0x4b <_BITMAP_CLUT.1>
     7c3: 8e 01 d1     	stx	$d101                   ; 0xd101 <end_block9+0x9807>
     7c6: ae 44 37     	ldx	$3744                   ; 0x3744 <_BITMAP_BASE+0x1>
     7c9: 8e 02 d1     	stx	$d102                   ; 0xd102 <end_block9+0x9808>
     7cc: ae 45 37     	ldx	$3745                   ; 0x3745 <_BITMAP_BASE+0x2>
     7cf: 8e 03 d1     	stx	$d103                   ; 0xd103 <end_block9+0x9809>
     7d2: ae 47 37     	ldx	$3747                   ; 0x3747 <_BITMAP_BASE+0x4>
     7d5: 8e 09 d1     	stx	$d109                   ; 0xd109 <end_block9+0x980f>
     7d8: ae 48 37     	ldx	$3748                   ; 0x3748 <_BITMAP_BASE+0x5>
     7db: 8e 0a d1     	stx	$d10a                   ; 0xd10a <end_block9+0x9810>
     7de: ae 49 37     	ldx	$3749                   ; 0x3749 <_BITMAP_BASE+0x6>
     7e1: 8e 0b d1     	stx	$d10b                   ; 0xd10b <end_block9+0x9811>
     7e4: ae 4b 37     	ldx	$374b                   ; 0x374b <_BITMAP_BASE+0x8>
     7e7: 8e 11 d1     	stx	$d111                   ; 0xd111 <end_block9+0x9817>
     7ea: ae 4c 37     	ldx	$374c                   ; 0x374c <_BITMAP_BASE+0x9>
     7ed: 8e 12 d1     	stx	$d112                   ; 0xd112 <end_block9+0x9818>
     7f0: ae 4d 37     	ldx	$374d                   ; 0x374d <_BITMAP_BASE+0xa>
     7f3: 8e 13 d1     	stx	$d113                   ; 0xd113 <end_block9+0x9819>
     7f6: 9c 00 d1     	stz	$d100                   ; 0xd100 <end_block9+0x9806>
     7f9: 9c 08 d1     	stz	$d108                   ; 0xd108 <end_block9+0x980e>
     7fc: 9c 10 d1     	stz	$d110                   ; 0xd110 <end_block9+0x9816>
     7ff: a2 10        	ldx	#$10
     801: 8e 00 d2     	stx	$d200                   ; 0xd200 <end_block9+0x9906>
     804: 8e 0c d2     	stx	$d20c                   ; 0xd20c <end_block9+0x9912>
     807: 8e 18 d2     	stx	$d218                   ; 0xd218 <end_block9+0x991e>
     80a: a0 d9        	ldy	#$d9
     80c: 64 12        	stz	$12                     ; 0x12 <__rc2>
     80e: a2 00        	ldx	#$0
     810: 84 13        	sty	$13                     ; 0x13 <__rc3>
     812: b5 4c        	lda	$4c,x                   ; 0x4c <_spriteCtl>
     814: 92 12        	sta	($12)                   ; 0x12 <__rc2>
     816: a5 12        	lda	$12                     ; 0x12 <__rc2>
     818: e8           	inx
     819: 18           	clc
     81a: 69 08        	adc	#$8
     81c: 85 12        	sta	$12                     ; 0x12 <__rc2>
     81e: 98           	tya
     81f: 69 00        	adc	#$0
     821: a8           	tay
     822: e0 40        	cpx	#$40
     824: d0 ea        	bne	$810 <f256Init+0x36e>
     826: a2 f1        	ldx	#$f1
     828: a0 38        	ldy	#$38
     82a: 86 fb        	stx	$fb                     ; 0xfb <__zp_bss_size+0x55>
     82c: 84 fc        	sty	$fc                     ; 0xfc <__zp_bss_size+0x56>
     82e: a2 08        	ldx	#$8
     830: 86 fd        	stx	$fd                     ; 0xfd <__zp_bss_size+0x57>
     832: a2 e6        	ldx	#$e6
     834: a0 00        	ldy	#$0
     836: 86 12        	stx	$12                     ; 0x12 <__rc2>
     838: 84 13        	sty	$13                     ; 0x13 <__rc3>
     83a: a2 42        	ldx	#$42
     83c: 86 14        	stx	$14                     ; 0x14 <__rc4>
     83e: a2 37        	ldx	#$37
     840: 86 15        	stx	$15                     ; 0x15 <__rc5>
     842: 20 dc ff     	jsr	$ffdc <end_block9+0xc6e2>
     845: 92 12        	sta	($12)                   ; 0x12 <__rc2>
     847: a9 00        	lda	#$0
     849: 6a           	ror
     84a: 85 14        	sta	$14                     ; 0x14 <__rc4>
     84c: ae f7 38     	ldx	$38f7                   ; 0x38f7 <__data_load_start+0x1b5>
     84f: ac f8 38     	ldy	$38f8                   ; 0x38f8 <__data_load_start+0x1b6>
     852: 8e 00 de     	stx	$de00                   ; 0xde00 <end_block9+0xa506>
     855: 9c 01 de     	stz	$de01                   ; 0xde01 <end_block9+0xa507>
     858: 8c 02 de     	sty	$de02                   ; 0xde02 <end_block9+0xa508>
     85b: 9c 03 de     	stz	$de03                   ; 0xde03 <end_block9+0xa509>
     85e: ae 10 de     	ldx	$de10                   ; 0xde10 <end_block9+0xa516>
     861: ac 11 de     	ldy	$de11                   ; 0xde11 <end_block9+0xa517>
     864: ad 12 de     	lda	$de12                   ; 0xde12 <end_block9+0xa518>
     867: ad 13 de     	lda	$de13                   ; 0xde13 <end_block9+0xa519>
     86a: 8e a4 d6     	stx	$d6a4                   ; 0xd6a4 <end_block9+0x9daa>
     86d: 8c a5 d6     	sty	$d6a5                   ; 0xd6a5 <end_block9+0x9dab>
     870: a2 03        	ldx	#$3
     872: 8e a6 d6     	stx	$d6a6                   ; 0xd6a6 <end_block9+0x9dac>
     875: 60           	rts

00000876 <main>:
     876: 20 a2 04     	jsr	$4a2 <f256Init>
     879: 20 7c 08     	jsr	$87c <f256main>

0000087c <f256main>:
     87c: 18           	clc
     87d: a5 10        	lda	$10                     ; 0x10 <__zp_data_size>
     87f: 69 ed        	adc	#$ed
     881: 85 10        	sta	$10                     ; 0x10 <__zp_data_size>
     883: a5 11        	lda	$11                     ; 0x11 <__rc1>
     885: 69 ff        	adc	#$ff
     887: 85 11        	sta	$11                     ; 0x11 <__rc1>
     889: a2 80        	ldx	#$80
     88b: 86 24        	stx	$24                     ; 0x24 <__rc20>
     88d: a2 d5        	ldx	#$d5
     88f: 86 25        	stx	$25                     ; 0x25 <__rc21>
     891: a2 82        	ldx	#$82
     893: 86 26        	stx	$26                     ; 0x26 <__rc22>
     895: a2 d5        	ldx	#$d5
     897: 86 27        	stx	$27                     ; 0x27 <__rc23>
     899: a2 00        	ldx	#$0
     89b: 64 01        	stz	$1                      ; 0x1 <__data_size+0x1>
     89d: a0 2f        	ldy	#$2f
     89f: 8c 00 d0     	sty	$d000                   ; 0xd000 <end_block9+0x9706>
     8a2: a0 04        	ldy	#$4
     8a4: 8c 01 d0     	sty	$d001                   ; 0xd001 <end_block9+0x9707>
     8a7: a0 01        	ldy	#$1
     8a9: 8c 02 d0     	sty	$d002                   ; 0xd002 <end_block9+0x9708>
     8ac: a9 02        	lda	#$2
     8ae: 8d 03 d0     	sta	$d003                   ; 0xd003 <end_block9+0x9709>
     8b1: 9c 0d d0     	stz	$d00d                   ; 0xd00d <end_block9+0x9713>
     8b4: 9c 0e d0     	stz	$d00e                   ; 0xd00e <end_block9+0x9714>
     8b7: 9c 0f d0     	stz	$d00f                   ; 0xd00f <end_block9+0x9715>
     8ba: 84 01        	sty	$1                      ; 0x1 <__data_size+0x1>
     8bc: a0 f0        	ldy	#$f0
     8be: 86 12        	stx	$12                     ; 0x12 <__rc2>
     8c0: 84 13        	sty	$13                     ; 0x13 <__rc3>
     8c2: a5 0f        	lda	$f                      ; 0xf <__data_size+0xf>
     8c4: 85 15        	sta	$15                     ; 0x15 <__rc5>
     8c6: 78           	sei
     8c7: 86 14        	stx	$14                     ; 0x14 <__rc4>
     8c9: a2 08        	ldx	#$8
     8cb: 86 0f        	stx	$f                      ; 0xf <__data_size+0xf>
     8cd: a6 14        	ldx	$14                     ; 0x14 <__rc4>
     8cf: b2 12        	lda	($12)                   ; 0x12 <__rc2>
     8d1: 85 14        	sta	$14                     ; 0x14 <__rc4>
     8d3: a5 15        	lda	$15                     ; 0x15 <__rc5>
     8d5: 85 0f        	sta	$f                      ; 0xf <__data_size+0xf>
     8d7: 18           	clc
     8d8: 8a           	txa
     8d9: 69 00        	adc	#$0
     8db: 85 15        	sta	$15                     ; 0x15 <__rc5>
     8dd: 98           	tya
     8de: 69 e0        	adc	#$e0
     8e0: 5a           	phy
     8e1: a4 15        	ldy	$15                     ; 0x15 <__rc5>
     8e3: 84 12        	sty	$12                     ; 0x12 <__rc2>
     8e5: 7a           	ply
     8e6: 58           	cli
     8e7: 85 13        	sta	$13                     ; 0x13 <__rc3>
     8e9: a5 14        	lda	$14                     ; 0x14 <__rc4>
     8eb: 92 12        	sta	($12)                   ; 0x12 <__rc2>
     8ed: e8           	inx
     8ee: d0 01        	bne	$8f1 <f256main+0x75>
     8f0: c8           	iny
     8f1: c0 f3        	cpy	#$f3
     8f3: d0 c9        	bne	$8be <f256main+0x42>
     8f5: e0 ff        	cpx	#$ff
     8f7: d0 c5        	bne	$8be <f256main+0x42>
     8f9: a2 d4        	ldx	#$d4
     8fb: a0 00        	ldy	#$0
     8fd: 84 17        	sty	$17                     ; 0x17 <__rc7>
     8ff: 98           	tya
     900: 18           	clc
     901: 69 00        	adc	#$0
     903: 85 14        	sta	$14                     ; 0x14 <__rc4>
     905: 8a           	txa
     906: 69 0c        	adc	#$c
     908: 85 15        	sta	$15                     ; 0x15 <__rc5>
     90a: 84 12        	sty	$12                     ; 0x12 <__rc2>
     90c: 86 13        	stx	$13                     ; 0x13 <__rc3>
     90e: a4 0f        	ldy	$f                      ; 0xf <__data_size+0xf>
     910: 78           	sei
     911: a9 18        	lda	#$18
     913: 85 0f        	sta	$f                      ; 0xf <__data_size+0xf>
     915: b2 14        	lda	($14)                   ; 0x14 <__rc4>
     917: 84 0f        	sty	$f                      ; 0xf <__data_size+0xf>
     919: 58           	cli
     91a: 92 12        	sta	($12)                   ; 0x12 <__rc2>
     91c: a4 17        	ldy	$17                     ; 0x17 <__rc7>
     91e: c8           	iny
     91f: d0 01        	bne	$922 <f256main+0xa6>
     921: e8           	inx
     922: e0 d7        	cpx	#$d7
     924: d0 d7        	bne	$8fd <f256main+0x81>
     926: c0 ff        	cpy	#$ff
     928: d0 d3        	bne	$8fd <f256main+0x81>
     92a: 64 01        	stz	$1                      ; 0x1 <__data_size+0x1>
     92c: 64 49        	stz	$49                     ; 0x49 <_active>
     92e: ad 00 d1     	lda	$d100                   ; 0xd100 <end_block9+0x9806>
     931: 29 f9        	and	#$f9
     933: 8d 00 d1     	sta	$d100                   ; 0xd100 <end_block9+0x9806>
     936: a2 03        	ldx	#$3
     938: 86 4a        	stx	$4a                     ; 0x4a <_color>
     93a: 20 08 28     	jsr	$2808 <bitmapClear>
     93d: a2 01        	ldx	#$1
     93f: 86 49        	stx	$49                     ; 0x49 <_active>
     941: 86 4b        	stx	$4b                     ; 0x4b <_BITMAP_CLUT.1>
     943: ad 08 d1     	lda	$d108                   ; 0xd108 <end_block9+0x980e>
     946: 29 f9        	and	#$f9
     948: 09 02        	ora	#$2
     94a: 8d 08 d1     	sta	$d108                   ; 0xd108 <end_block9+0x980e>
     94d: 20 08 28     	jsr	$2808 <bitmapClear>
     950: 9c 47 37     	stz	$3747                   ; 0x3747 <_BITMAP_BASE+0x4>
     953: a2 04        	ldx	#$4
     955: 8e 48 37     	stx	$3748                   ; 0x3748 <_BITMAP_BASE+0x5>
     958: a0 03        	ldy	#$3
     95a: 8c 49 37     	sty	$3749                   ; 0x3749 <_BITMAP_BASE+0x6>
     95d: 9c 4a 37     	stz	$374a                   ; 0x374a <_BITMAP_BASE+0x7>
     960: 9c 09 d1     	stz	$d109                   ; 0xd109 <end_block9+0x980f>
     963: 8e 0a d1     	stx	$d10a                   ; 0xd10a <end_block9+0x9810>
     966: 8c 0b d1     	sty	$d10b                   ; 0xd10b <end_block9+0x9811>
     969: a2 01        	ldx	#$1
     96b: 8e 00 d1     	stx	$d100                   ; 0xd100 <end_block9+0x9806>
     96e: a5 4b        	lda	$4b                     ; 0x4b <_BITMAP_CLUT.1>
     970: 29 01        	and	#$1
     972: a2 03        	ldx	#$3
     974: a8           	tay
     975: d0 02        	bne	$979 <f256main+0xfd>
     977: a2 01        	ldx	#$1
     979: 8e 08 d1     	stx	$d108                   ; 0xd108 <end_block9+0x980e>
     97c: 9c 10 d1     	stz	$d110                   ; 0xd110 <end_block9+0x9816>
     97f: a9 11        	lda	#$11
     981: a2 00        	ldx	#$0
     983: 20 d3 2f     	jsr	$2fd3 <malloc>
     986: a6 12        	ldx	$12                     ; 0x12 <__rc2>
     988: a4 13        	ldy	$13                     ; 0x13 <__rc3>
     98a: 86 e4        	stx	$e4                     ; 0xe4 <gPtr>
     98c: 84 e5        	sty	$e5                     ; 0xe5 <gPtr+0x1>
     98e: a9 00        	lda	#$0
     990: 92 12        	sta	($12)                   ; 0x12 <__rc2>
     992: a0 01        	ldy	#$1
     994: 91 12        	sta	($12),y                 ; 0x12 <__rc2>
     996: c8           	iny
     997: 91 12        	sta	($12),y                 ; 0x12 <__rc2>
     999: c8           	iny
     99a: 91 12        	sta	($12),y                 ; 0x12 <__rc2>
     99c: a2 d4        	ldx	#$d4
     99e: a8           	tay
     99f: 18           	clc
     9a0: 98           	tya
     9a1: 69 00        	adc	#$0
     9a3: 85 14        	sta	$14                     ; 0x14 <__rc4>
     9a5: 8a           	txa
     9a6: 69 01        	adc	#$1
     9a8: 85 15        	sta	$15                     ; 0x15 <__rc5>
     9aa: 84 12        	sty	$12                     ; 0x12 <__rc2>
     9ac: 86 13        	stx	$13                     ; 0x13 <__rc3>
     9ae: a9 00        	lda	#$0
     9b0: 92 12        	sta	($12)                   ; 0x12 <__rc2>
     9b2: 5a           	phy
     9b3: a4 14        	ldy	$14                     ; 0x14 <__rc4>
     9b5: 84 12        	sty	$12                     ; 0x12 <__rc2>
     9b7: a4 15        	ldy	$15                     ; 0x15 <__rc5>
     9b9: 84 13        	sty	$13                     ; 0x13 <__rc3>
     9bb: 7a           	ply
     9bc: 92 12        	sta	($12)                   ; 0x12 <__rc2>
     9be: c8           	iny
     9bf: d0 01        	bne	$9c2 <f256main+0x146>
     9c1: e8           	inx
     9c2: c0 19        	cpy	#$19
     9c4: d0 d9        	bne	$99f <f256main+0x123>
     9c6: a2 00        	ldx	#$0
     9c8: a0 b5        	ldy	#$b5
     9ca: 84 12        	sty	$12                     ; 0x12 <__rc2>
     9cc: a0 36        	ldy	#$36
     9ce: 84 13        	sty	$13                     ; 0x13 <__rc3>
     9d0: a5 12        	lda	$12                     ; 0x12 <__rc2>
     9d2: a0 04        	ldy	#$4
     9d4: 91 10        	sta	($10),y                 ; 0x10 <__zp_data_size>
     9d6: a5 13        	lda	$13                     ; 0x13 <__rc3>
     9d8: c8           	iny
     9d9: 91 10        	sta	($10),y                 ; 0x10 <__zp_data_size>
     9db: 88           	dey
     9dc: b1 10        	lda	($10),y                 ; 0x10 <__zp_data_size>
     9de: 85 12        	sta	$12                     ; 0x12 <__rc2>
     9e0: c8           	iny
     9e1: b1 10        	lda	($10),y                 ; 0x10 <__zp_data_size>
     9e3: 85 13        	sta	$13                     ; 0x13 <__rc3>
     9e5: 86 28        	stx	$28                     ; 0x28 <__rc24>
     9e7: a9 00        	lda	#$0
     9e9: 20 46 2f     	jsr	$2f46 <sid_setInstrument>
     9ec: a0 04        	ldy	#$4
     9ee: b1 10        	lda	($10),y                 ; 0x10 <__zp_data_size>
     9f0: 85 12        	sta	$12                     ; 0x12 <__rc2>
     9f2: c8           	iny
     9f3: b1 10        	lda	($10),y                 ; 0x10 <__zp_data_size>
     9f5: 85 13        	sta	$13                     ; 0x13 <__rc3>
     9f7: a6 28        	ldx	$28                     ; 0x28 <__rc24>
     9f9: a9 01        	lda	#$1
     9fb: 20 46 2f     	jsr	$2f46 <sid_setInstrument>
     9fe: a6 28        	ldx	$28                     ; 0x28 <__rc24>
     a00: e8           	inx
     a01: e0 03        	cpx	#$3
     a03: d0 c3        	bne	$9c8 <f256main+0x14c>
     a05: 9c 14 d4     	stz	$d414                   ; 0xd414 <end_block9+0x9b1a>
     a08: 9c 15 d4     	stz	$d415                   ; 0xd415 <end_block9+0x9b1b>
     a0b: 9c 17 d4     	stz	$d417                   ; 0xd417 <end_block9+0x9b1d>
     a0e: a2 0f        	ldx	#$f
     a10: 8e 18 d4     	stx	$d418                   ; 0xd418 <end_block9+0x9b1e>
     a13: 9c 14 d5     	stz	$d514                   ; 0xd514 <end_block9+0x9c1a>
     a16: 9c 15 d5     	stz	$d515                   ; 0xd515 <end_block9+0x9c1b>
     a19: 9c 17 d5     	stz	$d517                   ; 0xd517 <end_block9+0x9c1d>
     a1c: 8e 18 d5     	stx	$d518                   ; 0xd518 <end_block9+0x9c1e>
     a1f: ad a1 d6     	lda	$d6a1                   ; 0xd6a1 <end_block9+0x9da7>
     a22: 29 f7        	and	#$f7
     a24: 8d a1 d6     	sta	$d6a1                   ; 0xd6a1 <end_block9+0x9da7>
     a27: ad a1 d6     	lda	$d6a1                   ; 0xd6a1 <end_block9+0x9da7>
     a2a: 29 fb        	and	#$fb
     a2c: 8d a1 d6     	sta	$d6a1                   ; 0xd6a1 <end_block9+0x9da7>
     a2f: a2 01        	ldx	#$1
     a31: 8e 80 d5     	stx	$d580                   ; 0xd580 <end_block9+0x9c86>
     a34: a0 20        	ldy	#$20
     a36: 8c 81 d5     	sty	$d581                   ; 0xd581 <end_block9+0x9c87>
     a39: a0 02        	ldy	#$2
     a3b: 8c 80 d5     	sty	$d580                   ; 0xd580 <end_block9+0x9c86>
     a3e: 9c 81 d5     	stz	$d581                   ; 0xd581 <end_block9+0x9c87>
     a41: c8           	iny
     a42: 8c 80 d5     	sty	$d580                   ; 0xd580 <end_block9+0x9c86>
     a45: 9c 81 d5     	stz	$d581                   ; 0xd581 <end_block9+0x9c87>
     a48: c8           	iny
     a49: 8c 82 d5     	sty	$d582                   ; 0xd582 <end_block9+0x9c88>
     a4c: 9c 81 d5     	stz	$d581                   ; 0xd581 <end_block9+0x9c87>
     a4f: c8           	iny
     a50: 8c 82 d5     	sty	$d582                   ; 0xd582 <end_block9+0x9c88>
     a53: 8e 81 d5     	stx	$d581                   ; 0xd581 <end_block9+0x9c87>
     a56: a2 08        	ldx	#$8
     a58: 8e 80 d5     	stx	$d580                   ; 0xd580 <end_block9+0x9c86>
     a5b: 9c 81 d5     	stz	$d581                   ; 0xd581 <end_block9+0x9c87>
     a5e: a2 c0        	ldx	#$c0
     a60: a0 30        	ldy	#$30
     a62: 8e 80 d5     	stx	$d580                   ; 0xd580 <end_block9+0x9c86>
     a65: 8c 81 d5     	sty	$d581                   ; 0xd581 <end_block9+0x9c87>
     a68: e8           	inx
     a69: e0 c9        	cpx	#$c9
     a6b: d0 f5        	bne	$a62 <f256main+0x1e6>
     a6d: a2 b0        	ldx	#$b0
     a6f: 8e 80 d5     	stx	$d580                   ; 0xd580 <end_block9+0x9c86>
     a72: 9c 81 d5     	stz	$d581                   ; 0xd581 <end_block9+0x9c87>
     a75: e8           	inx
     a76: e0 b9        	cpx	#$b9
     a78: d0 f5        	bne	$a6f <f256main+0x1f3>
     a7a: a2 00        	ldx	#$0
     a7c: 4c 1e 0b     	jmp	$b1e <f256main+0x2a2>
     a7f: 18           	clc
     a80: 8a           	txa
     a81: 69 05        	adc	#$5
     a83: a8           	tay
     a84: 09 20        	ora	#$20
     a86: 8d 80 d5     	sta	$d580                   ; 0xd580 <end_block9+0x9c86>
     a89: a9 c0        	lda	#$c0
     a8b: 8d 81 d5     	sta	$d581                   ; 0xd581 <end_block9+0x9c87>
     a8e: 98           	tya
     a8f: 18           	clc
     a90: 69 03        	adc	#$3
     a92: c0 fd        	cpy	#$fd
     a94: 85 15        	sta	$15                     ; 0x15 <__rc5>
     a96: 09 20        	ora	#$20
     a98: 5a           	phy
     a99: a0 80        	ldy	#$80
     a9b: 84 12        	sty	$12                     ; 0x12 <__rc2>
     a9d: a0 d5        	ldy	#$d5
     a9f: 84 13        	sty	$13                     ; 0x13 <__rc3>
     aa1: 7a           	ply
     aa2: 90 0a        	bcc	$aae <f256main+0x232>
     aa4: 5a           	phy
     aa5: a0 82        	ldy	#$82
     aa7: 84 12        	sty	$12                     ; 0x12 <__rc2>
     aa9: a0 d5        	ldy	#$d5
     aab: 84 13        	sty	$13                     ; 0x13 <__rc3>
     aad: 7a           	ply
     aae: 92 12        	sta	($12)                   ; 0x12 <__rc2>
     ab0: a9 21        	lda	#$21
     ab2: 8d 81 d5     	sta	$d581                   ; 0xd581 <end_block9+0x9c87>
     ab5: 98           	tya
     ab6: 09 40        	ora	#$40
     ab8: 8d 80 d5     	sta	$d580                   ; 0xd580 <end_block9+0x9c86>
     abb: a9 15        	lda	#$15
     abd: 8d 81 d5     	sta	$d581                   ; 0xd581 <end_block9+0x9c87>
     ac0: a5 15        	lda	$15                     ; 0x15 <__rc5>
     ac2: 09 40        	ora	#$40
     ac4: 92 12        	sta	($12)                   ; 0x12 <__rc2>
     ac6: a9 01        	lda	#$1
     ac8: 8d 81 d5     	sta	$d581                   ; 0xd581 <end_block9+0x9c87>
     acb: 98           	tya
     acc: 09 60        	ora	#$60
     ace: 8d 80 d5     	sta	$d580                   ; 0xd580 <end_block9+0x9c86>
     ad1: a9 f2        	lda	#$f2
     ad3: 8d 81 d5     	sta	$d581                   ; 0xd581 <end_block9+0x9c87>
     ad6: a5 15        	lda	$15                     ; 0x15 <__rc5>
     ad8: 09 60        	ora	#$60
     ada: 92 12        	sta	($12)                   ; 0x12 <__rc2>
     adc: a9 f4        	lda	#$f4
     ade: 8d 81 d5     	sta	$d581                   ; 0xd581 <end_block9+0x9c87>
     ae1: 98           	tya
     ae2: 09 80        	ora	#$80
     ae4: 8d 80 d5     	sta	$d580                   ; 0xd580 <end_block9+0x9c86>
     ae7: a9 40        	lda	#$40
     ae9: 8d 81 d5     	sta	$d581                   ; 0xd581 <end_block9+0x9c87>
     aec: a5 15        	lda	$15                     ; 0x15 <__rc5>
     aee: 09 80        	ora	#$80
     af0: 92 12        	sta	($12)                   ; 0x12 <__rc2>
     af2: a9 25        	lda	#$25
     af4: 8d 81 d5     	sta	$d581                   ; 0xd581 <end_block9+0x9c87>
     af7: 98           	tya
     af8: 09 e0        	ora	#$e0
     afa: 8d 80 d5     	sta	$d580                   ; 0xd580 <end_block9+0x9c86>
     afd: a9 07        	lda	#$7
     aff: 8d 81 d5     	sta	$d581                   ; 0xd581 <end_block9+0x9c87>
     b02: a5 15        	lda	$15                     ; 0x15 <__rc5>
     b04: 09 e0        	ora	#$e0
     b06: 92 12        	sta	($12)                   ; 0x12 <__rc2>
     b08: 18           	clc
     b09: 8a           	txa
     b0a: 69 c0        	adc	#$c0
     b0c: a0 04        	ldy	#$4
     b0e: 8c 81 d5     	sty	$d581                   ; 0xd581 <end_block9+0x9c87>
     b11: 8d 80 d5     	sta	$d580                   ; 0xd580 <end_block9+0x9c86>
     b14: a0 30        	ldy	#$30
     b16: 8c 81 d5     	sty	$d581                   ; 0xd581 <end_block9+0x9c87>
     b19: e8           	inx
     b1a: e0 09        	cpx	#$9
     b1c: f0 16        	beq	$b34 <f256main+0x2b8>
     b1e: e0 03        	cpx	#$3
     b20: 8a           	txa
     b21: b0 03        	bcs	$b26 <f256main+0x2aa>
     b23: 4c 83 0a     	jmp	$a83 <f256main+0x207>
     b26: e0 06        	cpx	#$6
     b28: b0 03        	bcs	$b2d <f256main+0x2b1>
     b2a: 4c 7f 0a     	jmp	$a7f <f256main+0x203>
     b2d: 18           	clc
     b2e: 8a           	txa
     b2f: 69 0a        	adc	#$a
     b31: 4c 83 0a     	jmp	$a83 <f256main+0x207>
     b34: a2 01        	ldx	#$1
     b36: 8e e0 d6     	stx	$d6e0                   ; 0xd6e0 <end_block9+0x9de6>
     b39: 9c e2 d6     	stz	$d6e2                   ; 0xd6e2 <end_block9+0x9de8>
     b3c: 8e e3 d6     	stx	$d6e3                   ; 0xd6e3 <end_block9+0x9de9>
     b3f: 9c e4 d6     	stz	$d6e4                   ; 0xd6e4 <end_block9+0x9dea>
     b42: 8e e5 d6     	stx	$d6e5                   ; 0xd6e5 <end_block9+0x9deb>
     b45: a9 11        	lda	#$11
     b47: ca           	dex
     b48: 20 d3 2f     	jsr	$2fd3 <malloc>
     b4b: a6 12        	ldx	$12                     ; 0x12 <__rc2>
     b4d: a4 13        	ldy	$13                     ; 0x13 <__rc3>
     b4f: 86 e4        	stx	$e4                     ; 0xe4 <gPtr>
     b51: 84 e5        	sty	$e5                     ; 0xe5 <gPtr+0x1>
     b53: a9 00        	lda	#$0
     b55: 92 12        	sta	($12)                   ; 0x12 <__rc2>
     b57: a0 01        	ldy	#$1
     b59: 91 12        	sta	($12),y                 ; 0x12 <__rc2>
     b5b: c8           	iny
     b5c: 91 12        	sta	($12),y                 ; 0x12 <__rc2>
     b5e: c8           	iny
     b5f: 1a           	inc
     b60: 91 12        	sta	($12),y                 ; 0x12 <__rc2>
     b62: a5 12        	lda	$12                     ; 0x12 <__rc2>
     b64: 18           	clc
     b65: 69 04        	adc	#$4
     b67: 85 14        	sta	$14                     ; 0x14 <__rc4>
     b69: a5 13        	lda	$13                     ; 0x13 <__rc3>
     b6b: 69 00        	adc	#$0
     b6d: 85 15        	sta	$15                     ; 0x15 <__rc5>
     b6f: c8           	iny
     b70: b1 12        	lda	($12),y                 ; 0x12 <__rc2>
     b72: 85 12        	sta	$12                     ; 0x12 <__rc2>
     b74: a0 01        	ldy	#$1
     b76: b1 14        	lda	($14),y                 ; 0x14 <__rc4>
     b78: 85 13        	sta	$13                     ; 0x13 <__rc3>
     b7a: a9 0f        	lda	#$f
     b7c: 92 12        	sta	($12)                   ; 0x12 <__rc2>
     b7e: a9 88        	lda	#$88
     b80: 91 12        	sta	($12),y                 ; 0x12 <__rc2>
     b82: a9 19        	lda	#$19
     b84: a0 03        	ldy	#$3
     b86: 91 12        	sta	($12),y                 ; 0x12 <__rc2>
     b88: a9 23        	lda	#$23
     b8a: c8           	iny
     b8b: 91 12        	sta	($12),y                 ; 0x12 <__rc2>
     b8d: a9 20        	lda	#$20
     b8f: c8           	iny
     b90: 91 12        	sta	($12),y                 ; 0x12 <__rc2>
     b92: a9 02        	lda	#$2
     b94: a8           	tay
     b95: 91 12        	sta	($12),y                 ; 0x12 <__rc2>
     b97: a0 06        	ldy	#$6
     b99: a9 00        	lda	#$0
     b9b: 91 12        	sta	($12),y                 ; 0x12 <__rc2>
     b9d: c8           	iny
     b9e: 91 12        	sta	($12),y                 ; 0x12 <__rc2>
     ba0: c8           	iny
     ba1: 91 12        	sta	($12),y                 ; 0x12 <__rc2>
     ba3: a2 0a        	ldx	#$a
     ba5: 86 47        	stx	$47                     ; 0x47 <_col>
     ba7: 8e 14 d0     	stx	$d014                   ; 0xd014 <end_block9+0x971a>
     baa: 9c 15 d0     	stz	$d015                   ; 0xd015 <end_block9+0x971b>
     bad: a2 04        	ldx	#$4
     baf: 86 48        	stx	$48                     ; 0x48 <_row>
     bb1: 8e 16 d0     	stx	$d016                   ; 0xd016 <end_block9+0x971c>
     bb4: 9c 17 d0     	stz	$d017                   ; 0xd017 <end_block9+0x971d>
     bb7: a2 0c        	ldx	#$c
     bb9: 86 12        	stx	$12                     ; 0x12 <__rc2>
     bbb: a2 36        	ldx	#$36
     bbd: 86 13        	stx	$13                     ; 0x13 <__rc3>
     bbf: 20 50 26     	jsr	$2650 <textPrint>
     bc2: a2 0a        	ldx	#$a
     bc4: 86 47        	stx	$47                     ; 0x47 <_col>
     bc6: 8e 14 d0     	stx	$d014                   ; 0xd014 <end_block9+0x971a>
     bc9: 9c 15 d0     	stz	$d015                   ; 0xd015 <end_block9+0x971b>
     bcc: a2 05        	ldx	#$5
     bce: 86 48        	stx	$48                     ; 0x48 <_row>
     bd0: 8e 16 d0     	stx	$d016                   ; 0xd016 <end_block9+0x971c>
     bd3: 9c 17 d0     	stz	$d017                   ; 0xd017 <end_block9+0x971d>
     bd6: a2 93        	ldx	#$93
     bd8: 86 12        	stx	$12                     ; 0x12 <__rc2>
     bda: a2 35        	ldx	#$35
     bdc: 86 13        	stx	$13                     ; 0x13 <__rc3>
     bde: 20 50 26     	jsr	$2650 <textPrint>
     be1: a2 0a        	ldx	#$a
     be3: 86 47        	stx	$47                     ; 0x47 <_col>
     be5: 8e 14 d0     	stx	$d014                   ; 0xd014 <end_block9+0x971a>
     be8: 9c 15 d0     	stz	$d015                   ; 0xd015 <end_block9+0x971b>
     beb: a2 06        	ldx	#$6
     bed: 86 48        	stx	$48                     ; 0x48 <_row>
     bef: 8e 16 d0     	stx	$d016                   ; 0xd016 <end_block9+0x971c>
     bf2: 9c 17 d0     	stz	$d017                   ; 0xd017 <end_block9+0x971d>
     bf5: a2 8f        	ldx	#$8f
     bf7: 86 12        	stx	$12                     ; 0x12 <__rc2>
     bf9: a2 35        	ldx	#$35
     bfb: 86 13        	stx	$13                     ; 0x13 <__rc3>
     bfd: 20 50 26     	jsr	$2650 <textPrint>
     c00: a2 0a        	ldx	#$a
     c02: 86 47        	stx	$47                     ; 0x47 <_col>
     c04: 8e 14 d0     	stx	$d014                   ; 0xd014 <end_block9+0x971a>
     c07: 9c 15 d0     	stz	$d015                   ; 0xd015 <end_block9+0x971b>
     c0a: a2 07        	ldx	#$7
     c0c: 86 48        	stx	$48                     ; 0x48 <_row>
     c0e: 8e 16 d0     	stx	$d016                   ; 0xd016 <end_block9+0x971c>
     c11: 9c 17 d0     	stz	$d017                   ; 0xd017 <end_block9+0x971d>
     c14: a2 03        	ldx	#$3
     c16: 86 12        	stx	$12                     ; 0x12 <__rc2>
     c18: a2 36        	ldx	#$36
     c1a: 86 13        	stx	$13                     ; 0x13 <__rc3>
     c1c: 20 50 26     	jsr	$2650 <textPrint>
     c1f: a2 1e        	ldx	#$1e
     c21: 86 47        	stx	$47                     ; 0x47 <_col>
     c23: 8e 14 d0     	stx	$d014                   ; 0xd014 <end_block9+0x971a>
     c26: 9c 15 d0     	stz	$d015                   ; 0xd015 <end_block9+0x971b>
     c29: a2 04        	ldx	#$4
     c2b: 86 48        	stx	$48                     ; 0x48 <_row>
     c2d: 8e 16 d0     	stx	$d016                   ; 0xd016 <end_block9+0x971c>
     c30: 9c 17 d0     	stz	$d017                   ; 0xd017 <end_block9+0x971d>
     c33: a2 97        	ldx	#$97
     c35: 86 12        	stx	$12                     ; 0x12 <__rc2>
     c37: a2 35        	ldx	#$35
     c39: 86 13        	stx	$13                     ; 0x13 <__rc3>
     c3b: 20 50 26     	jsr	$2650 <textPrint>
     c3e: a2 1e        	ldx	#$1e
     c40: 86 47        	stx	$47                     ; 0x47 <_col>
     c42: 8e 14 d0     	stx	$d014                   ; 0xd014 <end_block9+0x971a>
     c45: 9c 15 d0     	stz	$d015                   ; 0xd015 <end_block9+0x971b>
     c48: a2 05        	ldx	#$5
     c4a: 86 48        	stx	$48                     ; 0x48 <_row>
     c4c: 8e 16 d0     	stx	$d016                   ; 0xd016 <end_block9+0x971c>
     c4f: 9c 17 d0     	stz	$d017                   ; 0xd017 <end_block9+0x971d>
     c52: a2 ff        	ldx	#$ff
     c54: 86 12        	stx	$12                     ; 0x12 <__rc2>
     c56: a2 35        	ldx	#$35
     c58: 86 13        	stx	$13                     ; 0x13 <__rc3>
     c5a: 20 50 26     	jsr	$2650 <textPrint>
     c5d: a2 1e        	ldx	#$1e
     c5f: 86 47        	stx	$47                     ; 0x47 <_col>
     c61: 8e 14 d0     	stx	$d014                   ; 0xd014 <end_block9+0x971a>
     c64: 9c 15 d0     	stz	$d015                   ; 0xd015 <end_block9+0x971b>
     c67: a2 06        	ldx	#$6
     c69: 86 48        	stx	$48                     ; 0x48 <_row>
     c6b: 8e 16 d0     	stx	$d016                   ; 0xd016 <end_block9+0x971c>
     c6e: 9c 17 d0     	stz	$d017                   ; 0xd017 <end_block9+0x971d>
     c71: a2 fb        	ldx	#$fb
     c73: 86 12        	stx	$12                     ; 0x12 <__rc2>
     c75: a2 35        	ldx	#$35
     c77: 86 13        	stx	$13                     ; 0x13 <__rc3>
     c79: 20 50 26     	jsr	$2650 <textPrint>
     c7c: a2 1e        	ldx	#$1e
     c7e: 86 47        	stx	$47                     ; 0x47 <_col>
     c80: 8e 14 d0     	stx	$d014                   ; 0xd014 <end_block9+0x971a>
     c83: 9c 15 d0     	stz	$d015                   ; 0xd015 <end_block9+0x971b>
     c86: a2 07        	ldx	#$7
     c88: 86 48        	stx	$48                     ; 0x48 <_row>
     c8a: 8e 16 d0     	stx	$d016                   ; 0xd016 <end_block9+0x971c>
     c8d: 9c 17 d0     	stz	$d017                   ; 0xd017 <end_block9+0x971d>
     c90: a2 19        	ldx	#$19
     c92: 86 12        	stx	$12                     ; 0x12 <__rc2>
     c94: a2 36        	ldx	#$36
     c96: 86 13        	stx	$13                     ; 0x13 <__rc3>
     c98: 20 50 26     	jsr	$2650 <textPrint>
     c9b: a2 11        	ldx	#$11
     c9d: 86 47        	stx	$47                     ; 0x47 <_col>
     c9f: 8e 14 d0     	stx	$d014                   ; 0xd014 <end_block9+0x971a>
     ca2: 9c 15 d0     	stz	$d015                   ; 0xd015 <end_block9+0x971b>
     ca5: a2 03        	ldx	#$3
     ca7: 86 48        	stx	$48                     ; 0x48 <_row>
     ca9: 8e 16 d0     	stx	$d016                   ; 0xd016 <end_block9+0x971c>
     cac: 9c 17 d0     	stz	$d017                   ; 0xd017 <end_block9+0x971d>
     caf: a2 11        	ldx	#$11
     cb1: 86 12        	stx	$12                     ; 0x12 <__rc2>
     cb3: a2 36        	ldx	#$36
     cb5: 86 13        	stx	$13                     ; 0x13 <__rc3>
     cb7: 20 50 26     	jsr	$2650 <textPrint>
     cba: a2 16        	ldx	#$16
     cbc: 86 47        	stx	$47                     ; 0x47 <_col>
     cbe: 8e 14 d0     	stx	$d014                   ; 0xd014 <end_block9+0x971a>
     cc1: 9c 15 d0     	stz	$d015                   ; 0xd015 <end_block9+0x971b>
     cc4: a2 09        	ldx	#$9
     cc6: 86 48        	stx	$48                     ; 0x48 <_row>
     cc8: 8e 16 d0     	stx	$d016                   ; 0xd016 <end_block9+0x971c>
     ccb: 9c 17 d0     	stz	$d017                   ; 0xd017 <end_block9+0x971d>
     cce: a2 08        	ldx	#$8
     cd0: 86 12        	stx	$12                     ; 0x12 <__rc2>
     cd2: a2 36        	ldx	#$36
     cd4: 86 13        	stx	$13                     ; 0x13 <__rc3>
     cd6: 20 50 26     	jsr	$2650 <textPrint>
     cd9: 64 14        	stz	$14                     ; 0x14 <__rc4>
     cdb: 64 15        	stz	$15                     ; 0x15 <__rc5>
     cdd: a2 40        	ldx	#$40
     cdf: 8a           	txa
     ce0: a0 04        	ldy	#$4
     ce2: 91 10        	sta	($10),y                 ; 0x10 <__zp_data_size>
     ce4: 64 27        	stz	$27                     ; 0x27 <__rc23>
     ce6: a6 27        	ldx	$27                     ; 0x27 <__rc23>
     ce8: bd f7 34     	lda	$34f7,x                 ; 0x34f7 <sidSpriteAction>
     ceb: aa           	tax
     cec: 86 1b        	stx	$1b                     ; 0x1b <__rc11>
     cee: a6 14        	ldx	$14                     ; 0x14 <__rc4>
     cf0: 86 12        	stx	$12                     ; 0x12 <__rc2>
     cf2: 86 1a        	stx	$1a                     ; 0x1a <__rc10>
     cf4: a9 4f        	lda	#$4f
     cf6: 18           	clc
     cf7: 65 12        	adc	$12                     ; 0x12 <__rc2>
     cf9: a8           	tay
     cfa: a6 15        	ldx	$15                     ; 0x15 <__rc5>
     cfc: 86 25        	stx	$25                     ; 0x25 <__rc21>
     cfe: 86 12        	stx	$12                     ; 0x12 <__rc2>
     d00: a9 37        	lda	#$37
     d02: 65 12        	adc	$12                     ; 0x12 <__rc2>
     d04: aa           	tax
     d05: 98           	tya
     d06: 18           	clc
     d07: 69 03        	adc	#$3
     d09: 85 16        	sta	$16                     ; 0x16 <__rc6>
     d0b: 8a           	txa
     d0c: 69 00        	adc	#$0
     d0e: 85 17        	sta	$17                     ; 0x17 <__rc7>
     d10: 84 12        	sty	$12                     ; 0x12 <__rc2>
     d12: 98           	tya
     d13: 86 13        	stx	$13                     ; 0x13 <__rc3>
     d15: 84 14        	sty	$14                     ; 0x14 <__rc4>
     d17: 86 15        	stx	$15                     ; 0x15 <__rc5>
     d19: 18           	clc
     d1a: 69 08        	adc	#$8
     d1c: 85 18        	sta	$18                     ; 0x18 <__rc8>
     d1e: 8a           	txa
     d1f: 69 00        	adc	#$0
     d21: 85 19        	sta	$19                     ; 0x19 <__rc9>
     d23: e6 14        	inc	$14                     ; 0x14 <__rc4>
     d25: d0 02        	bne	$d29 <f256main+0x4ad>
     d27: e6 15        	inc	$15                     ; 0x15 <__rc5>
     d29: a9 00        	lda	#$0
     d2b: a0 01        	ldy	#$1
     d2d: 91 14        	sta	($14),y                 ; 0x14 <__rc4>
     d2f: 91 16        	sta	($16),y                 ; 0x16 <__rc6>
     d31: a9 0e        	lda	#$e
     d33: 91 18        	sta	($18),y                 ; 0x18 <__rc8>
     d35: 98           	tya
     d36: c8           	iny
     d37: 91 18        	sta	($18),y                 ; 0x18 <__rc8>
     d39: c8           	iny
     d3a: 3a           	dec
     d3b: 91 18        	sta	($18),y                 ; 0x18 <__rc8>
     d3d: a5 27        	lda	$27                     ; 0x27 <__rc23>
     d3f: 92 12        	sta	($12)                   ; 0x12 <__rc2>
     d41: a9 40        	lda	#$40
     d43: a0 01        	ldy	#$1
     d45: 91 12        	sta	($12),y                 ; 0x12 <__rc2>
     d47: a0 04        	ldy	#$4
     d49: b1 10        	lda	($10),y                 ; 0x10 <__zp_data_size>
     d4b: 85 26        	sta	$26                     ; 0x26 <__rc22>
     d4d: 88           	dey
     d4e: 91 12        	sta	($12),y                 ; 0x12 <__rc2>
     d50: a0 05        	ldy	#$5
     d52: a9 00        	lda	#$0
     d54: 91 12        	sta	($12),y                 ; 0x12 <__rc2>
     d56: c8           	iny
     d57: 91 12        	sta	($12),y                 ; 0x12 <__rc2>
     d59: c8           	iny
     d5a: 91 12        	sta	($12),y                 ; 0x12 <__rc2>
     d5c: c8           	iny
     d5d: 91 12        	sta	($12),y                 ; 0x12 <__rc2>
     d5f: a0 0c        	ldy	#$c
     d61: a5 27        	lda	$27                     ; 0x27 <__rc23>
     d63: 91 12        	sta	($12),y                 ; 0x12 <__rc2>
     d65: c8           	iny
     d66: a9 08        	lda	#$8
     d68: 91 12        	sta	($12),y                 ; 0x12 <__rc2>
     d6a: c8           	iny
     d6b: a9 00        	lda	#$0
     d6d: 91 12        	sta	($12),y                 ; 0x12 <__rc2>
     d6f: a9 06        	lda	#$6
     d71: c8           	iny
     d72: 91 12        	sta	($12),y                 ; 0x12 <__rc2>
     d74: a9 02        	lda	#$2
     d76: c8           	iny
     d77: 91 12        	sta	($12),y                 ; 0x12 <__rc2>
     d79: c8           	iny
     d7a: a9 05        	lda	#$5
     d7c: 91 12        	sta	($12),y                 ; 0x12 <__rc2>
     d7e: c8           	iny
     d7f: a5 1b        	lda	$1b                     ; 0x1b <__rc11>
     d81: 91 12        	sta	($12),y                 ; 0x12 <__rc2>
     d83: a2 01        	ldx	#$1
     d85: a4 1a        	ldy	$1a                     ; 0x1a <__rc10>
     d87: 84 24        	sty	$24                     ; 0x24 <__rc20>
     d89: c0 15        	cpy	#$15
     d8b: f0 02        	beq	$d8f <f256main+0x513>
     d8d: a2 00        	ldx	#$0
     d8f: a9 00        	lda	#$0
     d91: 20 be 2a     	jsr	$2abe <setRadioB>
     d94: e6 27        	inc	$27                     ; 0x27 <__rc23>
     d96: 18           	clc
     d97: a5 26        	lda	$26                     ; 0x26 <__rc22>
     d99: 69 08        	adc	#$8
     d9b: a0 04        	ldy	#$4
     d9d: 91 10        	sta	($10),y                 ; 0x10 <__zp_data_size>
     d9f: 18           	clc
     da0: a5 24        	lda	$24                     ; 0x24 <__rc20>
     da2: 69 15        	adc	#$15
     da4: aa           	tax
     da5: a5 25        	lda	$25                     ; 0x25 <__rc21>
     da7: 69 00        	adc	#$0
     da9: 85 15        	sta	$15                     ; 0x15 <__rc5>
     dab: 86 14        	stx	$14                     ; 0x14 <__rc4>
     dad: e0 54        	cpx	#$54
     daf: f0 03        	beq	$db4 <f256main+0x538>
     db1: 4c e6 0c     	jmp	$ce6 <f256main+0x46a>
     db4: a0 40        	ldy	#$40
     db6: a2 04        	ldx	#$4
     db8: 8a           	txa
     db9: 5a           	phy
     dba: a0 04        	ldy	#$4
     dbc: 91 10        	sta	($10),y                 ; 0x10 <__zp_data_size>
     dbe: 7a           	ply
     dbf: 64 12        	stz	$12                     ; 0x12 <__rc2>
     dc1: a9 00        	lda	#$0
     dc3: a6 12        	ldx	$12                     ; 0x12 <__rc2>
     dc5: 86 1c        	stx	$1c                     ; 0x1c <__rc12>
     dc7: 18           	clc
     dc8: 85 13        	sta	$13                     ; 0x13 <__rc3>
     dca: a9 4f        	lda	#$4f
     dcc: 65 12        	adc	$12                     ; 0x12 <__rc2>
     dce: 85 14        	sta	$14                     ; 0x14 <__rc4>
     dd0: a6 13        	ldx	$13                     ; 0x13 <__rc3>
     dd2: 86 27        	stx	$27                     ; 0x27 <__rc23>
     dd4: a9 37        	lda	#$37
     dd6: 65 13        	adc	$13                     ; 0x13 <__rc3>
     dd8: 85 1a        	sta	$1a                     ; 0x1a <__rc10>
     dda: 18           	clc
     ddb: a5 14        	lda	$14                     ; 0x14 <__rc4>
     ddd: 69 54        	adc	#$54
     ddf: 85 12        	sta	$12                     ; 0x12 <__rc2>
     de1: a5 1a        	lda	$1a                     ; 0x1a <__rc10>
     de3: 69 00        	adc	#$0
     de5: 85 13        	sta	$13                     ; 0x13 <__rc3>
     de7: 18           	clc
     de8: a5 14        	lda	$14                     ; 0x14 <__rc4>
     dea: 69 55        	adc	#$55
     dec: 85 16        	sta	$16                     ; 0x16 <__rc6>
     dee: 84 1d        	sty	$1d                     ; 0x1d <__rc13>
     df0: a5 1a        	lda	$1a                     ; 0x1a <__rc10>
     df2: 69 00        	adc	#$0
     df4: 85 17        	sta	$17                     ; 0x17 <__rc7>
     df6: 18           	clc
     df7: a5 14        	lda	$14                     ; 0x14 <__rc4>
     df9: 69 57        	adc	#$57
     dfb: 85 18        	sta	$18                     ; 0x18 <__rc8>
     dfd: a5 1a        	lda	$1a                     ; 0x1a <__rc10>
     dff: 69 00        	adc	#$0
     e01: 85 19        	sta	$19                     ; 0x19 <__rc9>
     e03: a5 14        	lda	$14                     ; 0x14 <__rc4>
     e05: a6 1a        	ldx	$1a                     ; 0x1a <__rc10>
     e07: 86 15        	stx	$15                     ; 0x15 <__rc5>
     e09: 18           	clc
     e0a: 69 5c        	adc	#$5c
     e0c: a8           	tay
     e0d: a5 1a        	lda	$1a                     ; 0x1a <__rc10>
     e0f: 69 00        	adc	#$0
     e11: 84 1a        	sty	$1a                     ; 0x1a <__rc10>
     e13: 85 1b        	sta	$1b                     ; 0x1b <__rc11>
     e15: a0 04        	ldy	#$4
     e17: b1 10        	lda	($10),y                 ; 0x10 <__zp_data_size>
     e19: aa           	tax
     e1a: 85 1e        	sta	$1e                     ; 0x1e <__rc14>
     e1c: bd f7 34     	lda	$34f7,x                 ; 0x34f7 <sidSpriteAction>
     e1f: a0 66        	ldy	#$66
     e21: 91 14        	sta	($14),y                 ; 0x14 <__rc4>
     e23: a0 01        	ldy	#$1
     e25: a9 00        	lda	#$0
     e27: 91 16        	sta	($16),y                 ; 0x16 <__rc6>
     e29: 91 18        	sta	($18),y                 ; 0x18 <__rc8>
     e2b: a9 0e        	lda	#$e
     e2d: 91 1a        	sta	($1a),y                 ; 0x1a <__rc10>
     e2f: c8           	iny
     e30: a9 01        	lda	#$1
     e32: 91 1a        	sta	($1a),y                 ; 0x1a <__rc10>
     e34: c8           	iny
     e35: 3a           	dec
     e36: 91 1a        	sta	($1a),y                 ; 0x1a <__rc10>
     e38: a0 54        	ldy	#$54
     e3a: a5 1e        	lda	$1e                     ; 0x1e <__rc14>
     e3c: 91 14        	sta	($14),y                 ; 0x14 <__rc4>
     e3e: c8           	iny
     e3f: a9 90        	lda	#$90
     e41: 91 14        	sta	($14),y                 ; 0x14 <__rc4>
     e43: a5 1d        	lda	$1d                     ; 0x1d <__rc13>
     e45: 85 24        	sta	$24                     ; 0x24 <__rc20>
     e47: a0 57        	ldy	#$57
     e49: 91 14        	sta	($14),y                 ; 0x14 <__rc4>
     e4b: a0 59        	ldy	#$59
     e4d: a9 00        	lda	#$0
     e4f: 91 14        	sta	($14),y                 ; 0x14 <__rc4>
     e51: c8           	iny
     e52: 91 14        	sta	($14),y                 ; 0x14 <__rc4>
     e54: c8           	iny
     e55: 91 14        	sta	($14),y                 ; 0x14 <__rc4>
     e57: c8           	iny
     e58: 91 14        	sta	($14),y                 ; 0x14 <__rc4>
     e5a: a5 1e        	lda	$1e                     ; 0x1e <__rc14>
     e5c: 85 25        	sta	$25                     ; 0x25 <__rc21>
     e5e: a0 60        	ldy	#$60
     e60: 91 14        	sta	($14),y                 ; 0x14 <__rc4>
     e62: a9 08        	lda	#$8
     e64: c8           	iny
     e65: 91 14        	sta	($14),y                 ; 0x14 <__rc4>
     e67: c8           	iny
     e68: a9 00        	lda	#$0
     e6a: 91 14        	sta	($14),y                 ; 0x14 <__rc4>
     e6c: a9 06        	lda	#$6
     e6e: c8           	iny
     e6f: 91 14        	sta	($14),y                 ; 0x14 <__rc4>
     e71: a9 02        	lda	#$2
     e73: c8           	iny
     e74: 91 14        	sta	($14),y                 ; 0x14 <__rc4>
     e76: a9 05        	lda	#$5
     e78: c8           	iny
     e79: 91 14        	sta	($14),y                 ; 0x14 <__rc4>
     e7b: a9 01        	lda	#$1
     e7d: a6 1c        	ldx	$1c                     ; 0x1c <__rc12>
     e7f: 86 26        	stx	$26                     ; 0x26 <__rc22>
     e81: e0 15        	cpx	#$15
     e83: f0 02        	beq	$e87 <f256main+0x60b>
     e85: a9 00        	lda	#$0
     e87: aa           	tax
     e88: a9 01        	lda	#$1
     e8a: 20 be 2a     	jsr	$2abe <setRadioB>
     e8d: e6 25        	inc	$25                     ; 0x25 <__rc21>
     e8f: a5 25        	lda	$25                     ; 0x25 <__rc21>
     e91: a0 04        	ldy	#$4
     e93: 91 10        	sta	($10),y                 ; 0x10 <__zp_data_size>
     e95: 18           	clc
     e96: a5 24        	lda	$24                     ; 0x24 <__rc20>
     e98: 69 08        	adc	#$8
     e9a: a8           	tay
     e9b: 18           	clc
     e9c: a5 26        	lda	$26                     ; 0x26 <__rc22>
     e9e: 69 15        	adc	#$15
     ea0: aa           	tax
     ea1: a5 27        	lda	$27                     ; 0x27 <__rc23>
     ea3: 69 00        	adc	#$0
     ea5: 86 12        	stx	$12                     ; 0x12 <__rc2>
     ea7: e0 54        	cpx	#$54
     ea9: f0 03        	beq	$eae <f256main+0x632>
     eab: 4c c3 0d     	jmp	$dc3 <f256main+0x547>
     eae: a2 63        	ldx	#$63
     eb0: 8a           	txa
     eb1: a0 04        	ldy	#$4
     eb3: 91 10        	sta	($10),y                 ; 0x10 <__zp_data_size>
     eb5: 64 12        	stz	$12                     ; 0x12 <__rc2>
     eb7: 64 13        	stz	$13                     ; 0x13 <__rc3>
     eb9: a2 08        	ldx	#$8
     ebb: 8a           	txa
     ebc: 48           	pha
     ebd: bd f7 34     	lda	$34f7,x                 ; 0x34f7 <sidSpriteAction>
     ec0: aa           	tax
     ec1: 68           	pla
     ec2: 86 15        	stx	$15                     ; 0x15 <__rc5>
     ec4: a6 12        	ldx	$12                     ; 0x12 <__rc2>
     ec6: 9e f9 37     	stz	$37f9,x                 ; 0x37f9 <sliders+0x2>
     ec9: 9e fb 37     	stz	$37fb,x                 ; 0x37fb <sliders+0x4>
     ecc: 9e fc 37     	stz	$37fc,x                 ; 0x37fc <sliders+0x5>
     ecf: 9e fd 37     	stz	$37fd,x                 ; 0x37fd <sliders+0x6>
     ed2: 9e fe 37     	stz	$37fe,x                 ; 0x37fe <sliders+0x7>
     ed5: 9e ff 37     	stz	$37ff,x                 ; 0x37ff <sliders+0x8>
     ed8: 9e 02 38     	stz	$3802,x                 ; 0x3802 <sliders+0xb>
     edb: 9d f7 37     	sta	$37f7,x                 ; 0x37f7 <sliders>
     ede: 85 14        	sta	$14                     ; 0x14 <__rc4>
     ee0: a0 04        	ldy	#$4
     ee2: b1 10        	lda	($10),y                 ; 0x10 <__zp_data_size>
     ee4: 9d f8 37     	sta	$37f8,x                 ; 0x37f8 <sliders+0x1>
     ee7: 85 16        	sta	$16                     ; 0x16 <__rc6>
     ee9: a9 40        	lda	#$40
     eeb: 9d fa 37     	sta	$37fa,x                 ; 0x37fa <sliders+0x3>
     eee: a9 0a        	lda	#$a
     ef0: 9d 00 38     	sta	$3800,x                 ; 0x3800 <sliders+0x9>
     ef3: a9 01        	lda	#$1
     ef5: 9d 01 38     	sta	$3801,x                 ; 0x3801 <sliders+0xa>
     ef8: a5 13        	lda	$13                     ; 0x13 <__rc3>
     efa: 9d 03 38     	sta	$3803,x                 ; 0x3803 <sliders+0xc>
     efd: a4 13        	ldy	$13                     ; 0x13 <__rc3>
     eff: a9 08        	lda	#$8
     f01: 9d 04 38     	sta	$3804,x                 ; 0x3804 <sliders+0xd>
     f04: a9 01        	lda	#$1
     f06: 9d 05 38     	sta	$3805,x                 ; 0x3805 <sliders+0xe>
     f09: a9 05        	lda	#$5
     f0b: 9d 06 38     	sta	$3806,x                 ; 0x3806 <sliders+0xf>
     f0e: a9 03        	lda	#$3
     f10: 9d 07 38     	sta	$3807,x                 ; 0x3807 <sliders+0x10>
     f13: a9 0c        	lda	#$c
     f15: 9d 08 38     	sta	$3808,x                 ; 0x3808 <sliders+0x11>
     f18: a5 15        	lda	$15                     ; 0x15 <__rc5>
     f1a: 9d 09 38     	sta	$3809,x                 ; 0x3809 <sliders+0x12>
     f1d: 18           	clc
     f1e: a5 14        	lda	$14                     ; 0x14 <__rc4>
     f20: 69 02        	adc	#$2
     f22: aa           	tax
     f23: c8           	iny
     f24: 18           	clc
     f25: a5 12        	lda	$12                     ; 0x12 <__rc2>
     f27: 69 1c        	adc	#$1c
     f29: 85 12        	sta	$12                     ; 0x12 <__rc2>
     f2b: 18           	clc
     f2c: a5 16        	lda	$16                     ; 0x16 <__rc6>
     f2e: 69 08        	adc	#$8
     f30: 5a           	phy
     f31: a0 04        	ldy	#$4
     f33: 91 10        	sta	($10),y                 ; 0x10 <__zp_data_size>
     f35: 7a           	ply
     f36: 84 13        	sty	$13                     ; 0x13 <__rc3>
     f38: c0 04        	cpy	#$4
     f3a: f0 03        	beq	$f3f <f256main+0x6c3>
     f3c: 4c bb 0e     	jmp	$ebb <f256main+0x63f>
     f3f: a5 e4        	lda	$e4                     ; 0xe4 <gPtr>
     f41: a6 e5        	ldx	$e5                     ; 0xe5 <gPtr+0x1>
     f43: 85 24        	sta	$24                     ; 0x24 <__rc20>
     f45: 86 25        	stx	$25                     ; 0x25 <__rc21>
     f47: a0 04        	ldy	#$4
     f49: 18           	clc
     f4a: 69 04        	adc	#$4
     f4c: 85 26        	sta	$26                     ; 0x26 <__rc22>
     f4e: 8a           	txa
     f4f: 69 00        	adc	#$0
     f51: 85 27        	sta	$27                     ; 0x27 <__rc23>
     f53: b1 24        	lda	($24),y                 ; 0x24 <__rc20>
     f55: 85 12        	sta	$12                     ; 0x12 <__rc2>
     f57: a0 01        	ldy	#$1
     f59: b1 26        	lda	($26),y                 ; 0x26 <__rc22>
     f5b: 85 13        	sta	$13                     ; 0x13 <__rc3>
     f5d: a0 03        	ldy	#$3
     f5f: b1 12        	lda	($12),y                 ; 0x12 <__rc2>
     f61: 4a           	lsr
     f62: 4a           	lsr
     f63: 4a           	lsr
     f64: 4a           	lsr
     f65: 8d 0a 38     	sta	$380a                   ; 0x380a <sliders+0x13>
     f68: 9c 0b 38     	stz	$380b                   ; 0x380b <sliders+0x14>
     f6b: a2 0f        	ldx	#$f
     f6d: 8e 0c 38     	stx	$380c                   ; 0x380c <sliders+0x15>
     f70: 9c 0d 38     	stz	$380d                   ; 0x380d <sliders+0x16>
     f73: 9c 0e 38     	stz	$380e                   ; 0x380e <sliders+0x17>
     f76: 9c 0f 38     	stz	$380f                   ; 0x380f <sliders+0x18>
     f79: 9c 10 38     	stz	$3810                   ; 0x3810 <sliders+0x19>
     f7c: 9c 11 38     	stz	$3811                   ; 0x3811 <sliders+0x1a>
     f7f: 9c 12 38     	stz	$3812                   ; 0x3812 <sliders+0x1b>
     f82: a2 f7        	ldx	#$f7
     f84: 86 12        	stx	$12                     ; 0x12 <__rc2>
     f86: a2 37        	ldx	#$37
     f88: 86 13        	stx	$13                     ; 0x13 <__rc3>
     f8a: 20 f3 2c     	jsr	$2cf3 <updateSlider>
     f8d: a0 04        	ldy	#$4
     f8f: b1 24        	lda	($24),y                 ; 0x24 <__rc20>
     f91: 85 12        	sta	$12                     ; 0x12 <__rc2>
     f93: a0 01        	ldy	#$1
     f95: b1 26        	lda	($26),y                 ; 0x26 <__rc22>
     f97: 85 13        	sta	$13                     ; 0x13 <__rc3>
     f99: a9 0f        	lda	#$f
     f9b: a0 03        	ldy	#$3
     f9d: 31 12        	and	($12),y                 ; 0x12 <__rc2>
     f9f: 8d 26 38     	sta	$3826                   ; 0x3826 <sliders+0x2f>
     fa2: 9c 27 38     	stz	$3827                   ; 0x3827 <sliders+0x30>
     fa5: a2 0f        	ldx	#$f
     fa7: 8e 28 38     	stx	$3828                   ; 0x3828 <sliders+0x31>
     faa: 9c 29 38     	stz	$3829                   ; 0x3829 <sliders+0x32>
     fad: 9c 2a 38     	stz	$382a                   ; 0x382a <sliders+0x33>
     fb0: 9c 2b 38     	stz	$382b                   ; 0x382b <sliders+0x34>
     fb3: 9c 2c 38     	stz	$382c                   ; 0x382c <sliders+0x35>
     fb6: 9c 2d 38     	stz	$382d                   ; 0x382d <sliders+0x36>
     fb9: 9c 2e 38     	stz	$382e                   ; 0x382e <sliders+0x37>
     fbc: a2 13        	ldx	#$13
     fbe: 86 12        	stx	$12                     ; 0x12 <__rc2>
     fc0: a2 38        	ldx	#$38
     fc2: 86 13        	stx	$13                     ; 0x13 <__rc3>
     fc4: 20 f3 2c     	jsr	$2cf3 <updateSlider>
     fc7: a0 04        	ldy	#$4
     fc9: b1 24        	lda	($24),y                 ; 0x24 <__rc20>
     fcb: 85 12        	sta	$12                     ; 0x12 <__rc2>
     fcd: a0 01        	ldy	#$1
     fcf: b1 26        	lda	($26),y                 ; 0x26 <__rc22>
     fd1: 85 13        	sta	$13                     ; 0x13 <__rc3>
     fd3: a0 04        	ldy	#$4
     fd5: b1 12        	lda	($12),y                 ; 0x12 <__rc2>
     fd7: 4a           	lsr
     fd8: 4a           	lsr
     fd9: 4a           	lsr
     fda: 4a           	lsr
     fdb: 8d 42 38     	sta	$3842                   ; 0x3842 <sliders+0x4b>
     fde: 9c 43 38     	stz	$3843                   ; 0x3843 <sliders+0x4c>
     fe1: a2 0f        	ldx	#$f
     fe3: 8e 44 38     	stx	$3844                   ; 0x3844 <sliders+0x4d>
     fe6: 9c 45 38     	stz	$3845                   ; 0x3845 <sliders+0x4e>
     fe9: 9c 46 38     	stz	$3846                   ; 0x3846 <sliders+0x4f>
     fec: 9c 47 38     	stz	$3847                   ; 0x3847 <sliders+0x50>
     fef: 9c 48 38     	stz	$3848                   ; 0x3848 <sliders+0x51>
     ff2: 9c 49 38     	stz	$3849                   ; 0x3849 <sliders+0x52>
     ff5: 9c 4a 38     	stz	$384a                   ; 0x384a <sliders+0x53>
     ff8: a2 2f        	ldx	#$2f
     ffa: 86 12        	stx	$12                     ; 0x12 <__rc2>
     ffc: a2 38        	ldx	#$38
     ffe: 86 13        	stx	$13                     ; 0x13 <__rc3>
    1000: 20 f3 2c     	jsr	$2cf3 <updateSlider>
    1003: a0 04        	ldy	#$4
    1005: b1 24        	lda	($24),y                 ; 0x24 <__rc20>
    1007: 85 12        	sta	$12                     ; 0x12 <__rc2>
    1009: a0 01        	ldy	#$1
    100b: b1 26        	lda	($26),y                 ; 0x26 <__rc22>
    100d: 85 13        	sta	$13                     ; 0x13 <__rc3>
    100f: a9 0f        	lda	#$f
    1011: a0 04        	ldy	#$4
    1013: 31 12        	and	($12),y                 ; 0x12 <__rc2>
    1015: 8d 5e 38     	sta	$385e                   ; 0x385e <sliders+0x67>
    1018: 9c 5f 38     	stz	$385f                   ; 0x385f <sliders+0x68>
    101b: a2 0f        	ldx	#$f
    101d: 8e 60 38     	stx	$3860                   ; 0x3860 <sliders+0x69>
    1020: 9c 61 38     	stz	$3861                   ; 0x3861 <sliders+0x6a>
    1023: 9c 62 38     	stz	$3862                   ; 0x3862 <sliders+0x6b>
    1026: 9c 63 38     	stz	$3863                   ; 0x3863 <sliders+0x6c>
    1029: 9c 64 38     	stz	$3864                   ; 0x3864 <sliders+0x6d>
    102c: 9c 65 38     	stz	$3865                   ; 0x3865 <sliders+0x6e>
    102f: 9c 66 38     	stz	$3866                   ; 0x3866 <sliders+0x6f>
    1032: a2 4b        	ldx	#$4b
    1034: 86 12        	stx	$12                     ; 0x12 <__rc2>
    1036: a2 38        	ldx	#$38
    1038: 86 13        	stx	$13                     ; 0x13 <__rc3>
    103a: 20 f3 2c     	jsr	$2cf3 <updateSlider>
    103d: a2 10        	ldx	#$10
    103f: a0 63        	ldy	#$63
    1041: 98           	tya
    1042: a0 04        	ldy	#$4
    1044: 91 10        	sta	($10),y                 ; 0x10 <__zp_data_size>
    1046: a0 13        	ldy	#$13
    1048: 98           	tya
    1049: a0 03        	ldy	#$3
    104b: 91 10        	sta	($10),y                 ; 0x10 <__zp_data_size>
    104d: a0 00        	ldy	#$0
    104f: 64 14        	stz	$14                     ; 0x14 <__rc4>
    1051: 18           	clc
    1052: 8a           	txa
    1053: 69 f0        	adc	#$f0
    1055: 85 18        	sta	$18                     ; 0x18 <__rc8>
    1057: 84 12        	sty	$12                     ; 0x12 <__rc2>
    1059: a9 67        	lda	#$67
    105b: 18           	clc
    105c: 65 12        	adc	$12                     ; 0x12 <__rc2>
    105e: 85 16        	sta	$16                     ; 0x16 <__rc6>
    1060: a5 14        	lda	$14                     ; 0x14 <__rc4>
    1062: 85 28        	sta	$28                     ; 0x28 <__rc24>
    1064: a9 38        	lda	#$38
    1066: 65 14        	adc	$14                     ; 0x14 <__rc4>
    1068: 85 17        	sta	$17                     ; 0x17 <__rc7>
    106a: a5 16        	lda	$16                     ; 0x16 <__rc6>
    106c: 18           	clc
    106d: 69 03        	adc	#$3
    106f: 85 12        	sta	$12                     ; 0x12 <__rc2>
    1071: 86 26        	stx	$26                     ; 0x26 <__rc22>
    1073: 84 27        	sty	$27                     ; 0x27 <__rc23>
    1075: a5 17        	lda	$17                     ; 0x17 <__rc7>
    1077: 69 00        	adc	#$0
    1079: 85 13        	sta	$13                     ; 0x13 <__rc3>
    107b: a5 16        	lda	$16                     ; 0x16 <__rc6>
    107d: 18           	clc
    107e: 69 08        	adc	#$8
    1080: 85 14        	sta	$14                     ; 0x14 <__rc4>
    1082: a5 17        	lda	$17                     ; 0x17 <__rc7>
    1084: 69 00        	adc	#$0
    1086: 48           	pha
    1087: bd f7 34     	lda	$34f7,x                 ; 0x34f7 <sidSpriteAction>
    108a: aa           	tax
    108b: 68           	pla
    108c: a4 16        	ldy	$16                     ; 0x16 <__rc6>
    108e: 84 24        	sty	$24                     ; 0x24 <__rc20>
    1090: a4 17        	ldy	$17                     ; 0x17 <__rc7>
    1092: 84 25        	sty	$25                     ; 0x25 <__rc21>
    1094: 85 15        	sta	$15                     ; 0x15 <__rc5>
    1096: a0 0c        	ldy	#$c
    1098: a5 18        	lda	$18                     ; 0x18 <__rc8>
    109a: 91 24        	sta	($24),y                 ; 0x24 <__rc20>
    109c: 18           	clc
    109d: a5 16        	lda	$16                     ; 0x16 <__rc6>
    109f: 69 0e        	adc	#$e
    10a1: 85 16        	sta	$16                     ; 0x16 <__rc6>
    10a3: a5 17        	lda	$17                     ; 0x17 <__rc7>
    10a5: 69 00        	adc	#$0
    10a7: 85 17        	sta	$17                     ; 0x17 <__rc7>
    10a9: a5 26        	lda	$26                     ; 0x26 <__rc22>
    10ab: 92 24        	sta	($24)                   ; 0x24 <__rc20>
    10ad: a4 24        	ldy	$24                     ; 0x24 <__rc20>
    10af: 84 18        	sty	$18                     ; 0x18 <__rc8>
    10b1: a4 25        	ldy	$25                     ; 0x25 <__rc21>
    10b3: 84 19        	sty	$19                     ; 0x19 <__rc9>
    10b5: a0 12        	ldy	#$12
    10b7: 8a           	txa
    10b8: 91 24        	sta	($24),y                 ; 0x24 <__rc20>
    10ba: e6 18        	inc	$18                     ; 0x18 <__rc8>
    10bc: d0 02        	bne	$10c0 <f256main+0x844>
    10be: e6 19        	inc	$19                     ; 0x19 <__rc9>
    10c0: a0 01        	ldy	#$1
    10c2: 5a           	phy
    10c3: a0 04        	ldy	#$4
    10c5: b1 10        	lda	($10),y                 ; 0x10 <__zp_data_size>
    10c7: 7a           	ply
    10c8: 91 24        	sta	($24),y                 ; 0x24 <__rc20>
    10ca: 85 29        	sta	$29                     ; 0x29 <__rc25>
    10cc: a9 00        	lda	#$0
    10ce: 91 18        	sta	($18),y                 ; 0x18 <__rc8>
    10d0: a9 4f        	lda	#$4f
    10d2: a0 03        	ldy	#$3
    10d4: 91 24        	sta	($24),y                 ; 0x24 <__rc20>
    10d6: a9 00        	lda	#$0
    10d8: a0 01        	ldy	#$1
    10da: 91 12        	sta	($12),y                 ; 0x12 <__rc2>
    10dc: a0 05        	ldy	#$5
    10de: 91 24        	sta	($24),y                 ; 0x24 <__rc20>
    10e0: c8           	iny
    10e1: 91 24        	sta	($24),y                 ; 0x24 <__rc20>
    10e3: c8           	iny
    10e4: 91 24        	sta	($24),y                 ; 0x24 <__rc20>
    10e6: c8           	iny
    10e7: 91 24        	sta	($24),y                 ; 0x24 <__rc20>
    10e9: a0 01        	ldy	#$1
    10eb: 91 14        	sta	($14),y                 ; 0x14 <__rc4>
    10ed: c8           	iny
    10ee: 1a           	inc
    10ef: 91 14        	sta	($14),y                 ; 0x14 <__rc4>
    10f1: c8           	iny
    10f2: 3a           	dec
    10f3: 91 14        	sta	($14),y                 ; 0x14 <__rc4>
    10f5: a9 08        	lda	#$8
    10f7: a0 0d        	ldy	#$d
    10f9: 91 24        	sta	($24),y                 ; 0x24 <__rc20>
    10fb: c8           	iny
    10fc: a9 00        	lda	#$0
    10fe: 91 24        	sta	($24),y                 ; 0x24 <__rc20>
    1100: a0 01        	ldy	#$1
    1102: 91 16        	sta	($16),y                 ; 0x16 <__rc6>
    1104: c8           	iny
    1105: 91 16        	sta	($16),y                 ; 0x16 <__rc6>
    1107: c8           	iny
    1108: 91 16        	sta	($16),y                 ; 0x16 <__rc6>
    110a: a6 24        	ldx	$24                     ; 0x24 <__rc20>
    110c: 86 12        	stx	$12                     ; 0x12 <__rc2>
    110e: a6 25        	ldx	$25                     ; 0x25 <__rc21>
    1110: 86 13        	stx	$13                     ; 0x13 <__rc3>
    1112: 20 18 29     	jsr	$2918 <showGeneric>
    1115: a0 03        	ldy	#$3
    1117: b1 10        	lda	($10),y                 ; 0x10 <__zp_data_size>
    1119: 85 2a        	sta	$2a                     ; 0x2a <__rc26>
    111b: aa           	tax
    111c: bd f7 37     	lda	$37f7,x                 ; 0x37f7 <sliders>
    111f: aa           	tax
    1120: b2 24        	lda	($24)                   ; 0x24 <__rc20>
    1122: 85 17        	sta	$17                     ; 0x17 <__rc7>
    1124: 86 12        	stx	$12                     ; 0x12 <__rc2>
    1126: 46 12        	lsr	$12                     ; 0x12 <__rc2>
    1128: 64 16        	stz	$16                     ; 0x16 <__rc6>
    112a: 66 16        	ror	$16                     ; 0x16 <__rc6>
    112c: 46 12        	lsr	$12                     ; 0x12 <__rc2>
    112e: 66 16        	ror	$16                     ; 0x16 <__rc6>
    1130: a0 0d        	ldy	#$d
    1132: b1 24        	lda	($24),y                 ; 0x24 <__rc20>
    1134: a2 01        	ldx	#$1
    1136: 86 13        	stx	$13                     ; 0x13 <__rc3>
    1138: 64 14        	stz	$14                     ; 0x14 <__rc4>
    113a: 85 15        	sta	$15                     ; 0x15 <__rc5>
    113c: a6 16        	ldx	$16                     ; 0x16 <__rc6>
    113e: a5 17        	lda	$17                     ; 0x17 <__rc7>
    1140: 20 92 28     	jsr	$2892 <spriteDefine>
    1143: b2 24        	lda	($24)                   ; 0x24 <__rc20>
    1145: aa           	tax
    1146: 0a           	asl
    1147: 64 12        	stz	$12                     ; 0x12 <__rc2>
    1149: 26 12        	rol	$12                     ; 0x12 <__rc2>
    114b: 0a           	asl
    114c: 26 12        	rol	$12                     ; 0x12 <__rc2>
    114e: 0a           	asl
    114f: 26 12        	rol	$12                     ; 0x12 <__rc2>
    1151: 18           	clc
    1152: 69 00        	adc	#$0
    1154: a8           	tay
    1155: a5 12        	lda	$12                     ; 0x12 <__rc2>
    1157: 69 d9        	adc	#$d9
    1159: 84 12        	sty	$12                     ; 0x12 <__rc2>
    115b: 85 13        	sta	$13                     ; 0x13 <__rc3>
    115d: a9 01        	lda	#$1
    115f: 15 4c        	ora	$4c,x                   ; 0x4c <_spriteCtl>
    1161: 92 12        	sta	($12)                   ; 0x12 <__rc2>
    1163: a6 26        	ldx	$26                     ; 0x26 <__rc22>
    1165: e8           	inx
    1166: 18           	clc
    1167: a5 2a        	lda	$2a                     ; 0x2a <__rc26>
    1169: 69 1c        	adc	#$1c
    116b: a0 03        	ldy	#$3
    116d: 91 10        	sta	($10),y                 ; 0x10 <__zp_data_size>
    116f: 18           	clc
    1170: a5 27        	lda	$27                     ; 0x27 <__rc23>
    1172: 69 13        	adc	#$13
    1174: a8           	tay
    1175: a5 28        	lda	$28                     ; 0x28 <__rc24>
    1177: 69 00        	adc	#$0
    1179: 85 14        	sta	$14                     ; 0x14 <__rc4>
    117b: 18           	clc
    117c: a5 29        	lda	$29                     ; 0x29 <__rc25>
    117e: 69 08        	adc	#$8
    1180: 5a           	phy
    1181: a0 04        	ldy	#$4
    1183: 91 10        	sta	($10),y                 ; 0x10 <__zp_data_size>
    1185: 7a           	ply
    1186: c0 4c        	cpy	#$4c
    1188: f0 03        	beq	$118d <f256main+0x911>
    118a: 4c 51 10     	jmp	$1051 <f256main+0x7d5>
    118d: a2 62        	ldx	#$62
    118f: 86 8d        	stx	$8d                     ; 0x8d <dials+0x1>
    1191: 64 8e        	stz	$8e                     ; 0x8e <dials+0x2>
    1193: 64 90        	stz	$90                     ; 0x90 <dials+0x4>
    1195: 64 91        	stz	$91                     ; 0x91 <dials+0x5>
    1197: 64 92        	stz	$92                     ; 0x92 <dials+0x6>
    1199: 64 93        	stz	$93                     ; 0x93 <dials+0x7>
    119b: 64 94        	stz	$94                     ; 0x94 <dials+0x8>
    119d: a0 08        	ldy	#$8
    119f: 84 95        	sty	$95                     ; 0x95 <dials+0x9>
    11a1: a2 01        	ldx	#$1
    11a3: 86 96        	stx	$96                     ; 0x96 <dials+0xa>
    11a5: 64 97        	stz	$97                     ; 0x97 <dials+0xb>
    11a7: 64 98        	stz	$98                     ; 0x98 <dials+0xc>
    11a9: 84 99        	sty	$99                     ; 0x99 <dials+0xd>
    11ab: 64 9a        	stz	$9a                     ; 0x9a <dials+0xe>
    11ad: a2 06        	ldx	#$6
    11af: 86 9b        	stx	$9b                     ; 0x9b <dials+0xf>
    11b1: 64 9c        	stz	$9c                     ; 0x9c <dials+0x10>
    11b3: 86 9d        	stx	$9d                     ; 0x9d <dials+0x11>
    11b5: a2 24        	ldx	#$24
    11b7: 86 9e        	stx	$9e                     ; 0x9e <dials+0x12>
    11b9: a5 e4        	lda	$e4                     ; 0xe4 <gPtr>
    11bb: a6 e5        	ldx	$e5                     ; 0xe5 <gPtr+0x1>
    11bd: 85 24        	sta	$24                     ; 0x24 <__rc20>
    11bf: 86 25        	stx	$25                     ; 0x25 <__rc21>
    11c1: 18           	clc
    11c2: 69 04        	adc	#$4
    11c4: 85 26        	sta	$26                     ; 0x26 <__rc22>
    11c6: 8a           	txa
    11c7: 69 00        	adc	#$0
    11c9: a0 04        	ldy	#$4
    11cb: 85 27        	sta	$27                     ; 0x27 <__rc23>
    11cd: b1 24        	lda	($24),y                 ; 0x24 <__rc20>
    11cf: a0 01        	ldy	#$1
    11d1: 85 12        	sta	$12                     ; 0x12 <__rc2>
    11d3: b1 26        	lda	($26),y                 ; 0x26 <__rc22>
    11d5: 85 13        	sta	$13                     ; 0x13 <__rc3>
    11d7: a2 63        	ldx	#$63
    11d9: 86 8f        	stx	$8f                     ; 0x8f <dials+0x3>
    11db: a9 0f        	lda	#$f
    11dd: c8           	iny
    11de: 31 12        	and	($12),y                 ; 0x12 <__rc2>
    11e0: 85 9f        	sta	$9f                     ; 0x9f <dials+0x13>
    11e2: a2 14        	ldx	#$14
    11e4: 86 8c        	stx	$8c                     ; 0x8c <dials>
    11e6: 64 a0        	stz	$a0                     ; 0xa0 <dials+0x14>
    11e8: a2 0f        	ldx	#$f
    11ea: 86 a1        	stx	$a1                     ; 0xa1 <dials+0x15>
    11ec: 64 a2        	stz	$a2                     ; 0xa2 <dials+0x16>
    11ee: 64 a3        	stz	$a3                     ; 0xa3 <dials+0x17>
    11f0: 64 a4        	stz	$a4                     ; 0xa4 <dials+0x18>
    11f2: 64 a5        	stz	$a5                     ; 0xa5 <dials+0x19>
    11f4: 64 a6        	stz	$a6                     ; 0xa6 <dials+0x1a>
    11f6: 64 a7        	stz	$a7                     ; 0xa7 <dials+0x1b>
    11f8: a2 8c        	ldx	#$8c
    11fa: 86 12        	stx	$12                     ; 0x12 <__rc2>
    11fc: a2 00        	ldx	#$0
    11fe: 86 13        	stx	$13                     ; 0x13 <__rc3>
    1200: 20 b7 2b     	jsr	$2bb7 <updateDial>
    1203: a2 15        	ldx	#$15
    1205: 86 a8        	stx	$a8                     ; 0xa8 <dials+0x1c>
    1207: a2 6d        	ldx	#$6d
    1209: 86 a9        	stx	$a9                     ; 0xa9 <dials+0x1d>
    120b: 64 aa        	stz	$aa                     ; 0xaa <dials+0x1e>
    120d: a2 63        	ldx	#$63
    120f: 86 ab        	stx	$ab                     ; 0xab <dials+0x1f>
    1211: 64 ac        	stz	$ac                     ; 0xac <dials+0x20>
    1213: 64 ad        	stz	$ad                     ; 0xad <dials+0x21>
    1215: 64 ae        	stz	$ae                     ; 0xae <dials+0x22>
    1217: 64 af        	stz	$af                     ; 0xaf <dials+0x23>
    1219: 64 b0        	stz	$b0                     ; 0xb0 <dials+0x24>
    121b: a0 08        	ldy	#$8
    121d: 84 b1        	sty	$b1                     ; 0xb1 <dials+0x25>
    121f: a2 01        	ldx	#$1
    1221: 86 b2        	stx	$b2                     ; 0xb2 <dials+0x26>
    1223: 64 b3        	stz	$b3                     ; 0xb3 <dials+0x27>
    1225: 86 b4        	stx	$b4                     ; 0xb4 <dials+0x28>
    1227: 84 b5        	sty	$b5                     ; 0xb5 <dials+0x29>
    1229: 64 b6        	stz	$b6                     ; 0xb6 <dials+0x2a>
    122b: a2 06        	ldx	#$6
    122d: 86 b7        	stx	$b7                     ; 0xb7 <dials+0x2b>
    122f: 64 b8        	stz	$b8                     ; 0xb8 <dials+0x2c>
    1231: 86 b9        	stx	$b9                     ; 0xb9 <dials+0x2d>
    1233: a2 25        	ldx	#$25
    1235: 86 ba        	stx	$ba                     ; 0xba <dials+0x2e>
    1237: a0 04        	ldy	#$4
    1239: b1 24        	lda	($24),y                 ; 0x24 <__rc20>
    123b: 85 12        	sta	$12                     ; 0x12 <__rc2>
    123d: a0 01        	ldy	#$1
    123f: b1 26        	lda	($26),y                 ; 0x26 <__rc22>
    1241: 85 13        	sta	$13                     ; 0x13 <__rc3>
    1243: b1 12        	lda	($12),y                 ; 0x12 <__rc2>
    1245: 85 bb        	sta	$bb                     ; 0xbb <dials+0x2f>
    1247: 64 bc        	stz	$bc                     ; 0xbc <dials+0x30>
    1249: a2 ff        	ldx	#$ff
    124b: 86 bd        	stx	$bd                     ; 0xbd <dials+0x31>
    124d: 64 be        	stz	$be                     ; 0xbe <dials+0x32>
    124f: 64 bf        	stz	$bf                     ; 0xbf <dials+0x33>
    1251: 64 c0        	stz	$c0                     ; 0xc0 <dials+0x34>
    1253: 64 c1        	stz	$c1                     ; 0xc1 <dials+0x35>
    1255: 64 c2        	stz	$c2                     ; 0xc2 <dials+0x36>
    1257: 64 c3        	stz	$c3                     ; 0xc3 <dials+0x37>
    1259: a2 a8        	ldx	#$a8
    125b: 86 12        	stx	$12                     ; 0x12 <__rc2>
    125d: a2 00        	ldx	#$0
    125f: 86 13        	stx	$13                     ; 0x13 <__rc3>
    1261: 20 b7 2b     	jsr	$2bb7 <updateDial>
    1264: a2 16        	ldx	#$16
    1266: 8e b3 38     	stx	$38b3                   ; 0x38b3 <sliders_labels+0x4c>
    1269: a2 61        	ldx	#$61
    126b: 8e b4 38     	stx	$38b4                   ; 0x38b4 <sliders_labels+0x4d>
    126e: 9c b5 38     	stz	$38b5                   ; 0x38b5 <sliders_labels+0x4e>
    1271: a2 6c        	ldx	#$6c
    1273: 8e b6 38     	stx	$38b6                   ; 0x38b6 <sliders_labels+0x4f>
    1276: 9c b7 38     	stz	$38b7                   ; 0x38b7 <sliders_labels+0x50>
    1279: 9c b8 38     	stz	$38b8                   ; 0x38b8 <sliders_labels+0x51>
    127c: 9c b9 38     	stz	$38b9                   ; 0x38b9 <sliders_labels+0x52>
    127f: 9c ba 38     	stz	$38ba                   ; 0x38ba <sliders_labels+0x53>
    1282: 9c bb 38     	stz	$38bb                   ; 0x38bb <sliders_labels+0x54>
    1285: 9c bc 38     	stz	$38bc                   ; 0x38bc <sliders_labels+0x55>
    1288: a2 01        	ldx	#$1
    128a: 8e bd 38     	stx	$38bd                   ; 0x38bd <sliders_labels+0x56>
    128d: 9c be 38     	stz	$38be                   ; 0x38be <sliders_labels+0x57>
    1290: a2 04        	ldx	#$4
    1292: 8e bf 38     	stx	$38bf                   ; 0x38bf <sliders_labels+0x58>
    1295: a2 08        	ldx	#$8
    1297: 8e c0 38     	stx	$38c0                   ; 0x38c0 <sliders_labels+0x59>
    129a: 9c c1 38     	stz	$38c1                   ; 0x38c1 <sliders_labels+0x5a>
    129d: 9c c2 38     	stz	$38c2                   ; 0x38c2 <sliders_labels+0x5b>
    12a0: 9c c3 38     	stz	$38c3                   ; 0x38c3 <sliders_labels+0x5c>
    12a3: 9c c4 38     	stz	$38c4                   ; 0x38c4 <sliders_labels+0x5d>
    12a6: a2 26        	ldx	#$26
    12a8: 8e c5 38     	stx	$38c5                   ; 0x38c5 <sliders_labels+0x5e>
    12ab: a2 b3        	ldx	#$b3
    12ad: 86 12        	stx	$12                     ; 0x12 <__rc2>
    12af: a2 38        	ldx	#$38
    12b1: 86 13        	stx	$13                     ; 0x13 <__rc3>
    12b3: 20 18 29     	jsr	$2918 <showGeneric>
    12b6: a5 9f        	lda	$9f                     ; 0x9f <dials+0x13>
    12b8: ac b3 38     	ldy	$38b3                   ; 0x38b3 <sliders_labels+0x4c>
    12bb: 4a           	lsr
    12bc: 64 16        	stz	$16                     ; 0x16 <__rc6>
    12be: 66 16        	ror	$16                     ; 0x16 <__rc6>
    12c0: 4a           	lsr
    12c1: 66 16        	ror	$16                     ; 0x16 <__rc6>
    12c3: ae c0 38     	ldx	$38c0                   ; 0x38c0 <sliders_labels+0x59>
    12c6: 85 12        	sta	$12                     ; 0x12 <__rc2>
    12c8: a9 01        	lda	#$1
    12ca: 85 13        	sta	$13                     ; 0x13 <__rc3>
    12cc: 64 14        	stz	$14                     ; 0x14 <__rc4>
    12ce: 86 15        	stx	$15                     ; 0x15 <__rc5>
    12d0: a6 16        	ldx	$16                     ; 0x16 <__rc6>
    12d2: 98           	tya
    12d3: 20 92 28     	jsr	$2892 <spriteDefine>
    12d6: ae b3 38     	ldx	$38b3                   ; 0x38b3 <sliders_labels+0x4c>
    12d9: 8a           	txa
    12da: 0a           	asl
    12db: a8           	tay
    12dc: a9 00        	lda	#$0
    12de: 2a           	rol
    12df: 84 12        	sty	$12                     ; 0x12 <__rc2>
    12e1: 06 12        	asl	$12                     ; 0x12 <__rc2>
    12e3: 2a           	rol
    12e4: 06 12        	asl	$12                     ; 0x12 <__rc2>
    12e6: 2a           	rol
    12e7: a8           	tay
    12e8: 18           	clc
    12e9: a5 12        	lda	$12                     ; 0x12 <__rc2>
    12eb: 69 00        	adc	#$0
    12ed: 85 12        	sta	$12                     ; 0x12 <__rc2>
    12ef: 98           	tya
    12f0: 69 d9        	adc	#$d9
    12f2: 85 13        	sta	$13                     ; 0x13 <__rc3>
    12f4: a9 01        	lda	#$1
    12f6: 15 4c        	ora	$4c,x                   ; 0x4c <_spriteCtl>
    12f8: 92 12        	sta	($12)                   ; 0x12 <__rc2>
    12fa: a2 17        	ldx	#$17
    12fc: 8e c6 38     	stx	$38c6                   ; 0x38c6 <sliders_labels+0x5f>
    12ff: a2 67        	ldx	#$67
    1301: 8e c7 38     	stx	$38c7                   ; 0x38c7 <sliders_labels+0x60>
    1304: 9c c8 38     	stz	$38c8                   ; 0x38c8 <sliders_labels+0x61>
    1307: a2 6c        	ldx	#$6c
    1309: 8e c9 38     	stx	$38c9                   ; 0x38c9 <sliders_labels+0x62>
    130c: 9c ca 38     	stz	$38ca                   ; 0x38ca <sliders_labels+0x63>
    130f: 9c cb 38     	stz	$38cb                   ; 0x38cb <sliders_labels+0x64>
    1312: 9c cc 38     	stz	$38cc                   ; 0x38cc <sliders_labels+0x65>
    1315: 9c cd 38     	stz	$38cd                   ; 0x38cd <sliders_labels+0x66>
    1318: 9c ce 38     	stz	$38ce                   ; 0x38ce <sliders_labels+0x67>
    131b: 9c cf 38     	stz	$38cf                   ; 0x38cf <sliders_labels+0x68>
    131e: a2 01        	ldx	#$1
    1320: 8e d0 38     	stx	$38d0                   ; 0x38d0 <sliders_labels+0x69>
    1323: 9c d1 38     	stz	$38d1                   ; 0x38d1 <sliders_labels+0x6a>
    1326: a2 27        	ldx	#$27
    1328: 8e d8 38     	stx	$38d8                   ; 0x38d8 <sliders_labels+0x71>
    132b: a2 05        	ldx	#$5
    132d: 8e d2 38     	stx	$38d2                   ; 0x38d2 <sliders_labels+0x6b>
    1330: a2 08        	ldx	#$8
    1332: 8e d3 38     	stx	$38d3                   ; 0x38d3 <sliders_labels+0x6c>
    1335: 9c d4 38     	stz	$38d4                   ; 0x38d4 <sliders_labels+0x6d>
    1338: 9c d5 38     	stz	$38d5                   ; 0x38d5 <sliders_labels+0x6e>
    133b: 9c d6 38     	stz	$38d6                   ; 0x38d6 <sliders_labels+0x6f>
    133e: 9c d7 38     	stz	$38d7                   ; 0x38d7 <sliders_labels+0x70>
    1341: a2 c6        	ldx	#$c6
    1343: 86 12        	stx	$12                     ; 0x12 <__rc2>
    1345: a2 38        	ldx	#$38
    1347: 86 13        	stx	$13                     ; 0x13 <__rc3>
    1349: 20 18 29     	jsr	$2918 <showGeneric>
    134c: a5 bb        	lda	$bb                     ; 0xbb <dials+0x2f>
    134e: 4a           	lsr
    134f: 4a           	lsr
    1350: 4a           	lsr
    1351: 4a           	lsr
    1352: ac c6 38     	ldy	$38c6                   ; 0x38c6 <sliders_labels+0x5f>
    1355: 4a           	lsr
    1356: 64 16        	stz	$16                     ; 0x16 <__rc6>
    1358: 66 16        	ror	$16                     ; 0x16 <__rc6>
    135a: 4a           	lsr
    135b: 66 16        	ror	$16                     ; 0x16 <__rc6>
    135d: ae d3 38     	ldx	$38d3                   ; 0x38d3 <sliders_labels+0x6c>
    1360: 85 12        	sta	$12                     ; 0x12 <__rc2>
    1362: a9 01        	lda	#$1
    1364: 85 13        	sta	$13                     ; 0x13 <__rc3>
    1366: 64 14        	stz	$14                     ; 0x14 <__rc4>
    1368: 86 15        	stx	$15                     ; 0x15 <__rc5>
    136a: a6 16        	ldx	$16                     ; 0x16 <__rc6>
    136c: 98           	tya
    136d: 20 92 28     	jsr	$2892 <spriteDefine>
    1370: ae c6 38     	ldx	$38c6                   ; 0x38c6 <sliders_labels+0x5f>
    1373: 8a           	txa
    1374: 0a           	asl
    1375: a8           	tay
    1376: a9 00        	lda	#$0
    1378: 2a           	rol
    1379: 84 12        	sty	$12                     ; 0x12 <__rc2>
    137b: 06 12        	asl	$12                     ; 0x12 <__rc2>
    137d: 2a           	rol
    137e: 06 12        	asl	$12                     ; 0x12 <__rc2>
    1380: 2a           	rol
    1381: a8           	tay
    1382: 18           	clc
    1383: a5 12        	lda	$12                     ; 0x12 <__rc2>
    1385: 69 00        	adc	#$0
    1387: 85 12        	sta	$12                     ; 0x12 <__rc2>
    1389: 98           	tya
    138a: 69 d9        	adc	#$d9
    138c: 85 13        	sta	$13                     ; 0x13 <__rc3>
    138e: a9 01        	lda	#$1
    1390: 15 4c        	ora	$4c,x                   ; 0x4c <_spriteCtl>
    1392: 92 12        	sta	($12)                   ; 0x12 <__rc2>
    1394: a2 18        	ldx	#$18
    1396: 8e d9 38     	stx	$38d9                   ; 0x38d9 <sliders_labels+0x72>
    1399: a2 6d        	ldx	#$6d
    139b: 8e da 38     	stx	$38da                   ; 0x38da <sliders_labels+0x73>
    139e: ca           	dex
    139f: 8e dc 38     	stx	$38dc                   ; 0x38dc <sliders_labels+0x75>
    13a2: a2 08        	ldx	#$8
    13a4: 8e e6 38     	stx	$38e6                   ; 0x38e6 <sliders_labels+0x7f>
    13a7: a2 28        	ldx	#$28
    13a9: 8e eb 38     	stx	$38eb                   ; 0x38eb <sliders_labels+0x84>
    13ac: 9c db 38     	stz	$38db                   ; 0x38db <sliders_labels+0x74>
    13af: 9c dd 38     	stz	$38dd                   ; 0x38dd <sliders_labels+0x76>
    13b2: 9c de 38     	stz	$38de                   ; 0x38de <sliders_labels+0x77>
    13b5: 9c df 38     	stz	$38df                   ; 0x38df <sliders_labels+0x78>
    13b8: 9c e0 38     	stz	$38e0                   ; 0x38e0 <sliders_labels+0x79>
    13bb: 9c e1 38     	stz	$38e1                   ; 0x38e1 <sliders_labels+0x7a>
    13be: 9c e2 38     	stz	$38e2                   ; 0x38e2 <sliders_labels+0x7b>
    13c1: a2 01        	ldx	#$1
    13c3: 8e e3 38     	stx	$38e3                   ; 0x38e3 <sliders_labels+0x7c>
    13c6: 9c e4 38     	stz	$38e4                   ; 0x38e4 <sliders_labels+0x7d>
    13c9: a2 06        	ldx	#$6
    13cb: 8e e5 38     	stx	$38e5                   ; 0x38e5 <sliders_labels+0x7e>
    13ce: 9c e7 38     	stz	$38e7                   ; 0x38e7 <sliders_labels+0x80>
    13d1: 9c e8 38     	stz	$38e8                   ; 0x38e8 <sliders_labels+0x81>
    13d4: 9c e9 38     	stz	$38e9                   ; 0x38e9 <sliders_labels+0x82>
    13d7: 9c ea 38     	stz	$38ea                   ; 0x38ea <sliders_labels+0x83>
    13da: a2 d9        	ldx	#$d9
    13dc: 86 12        	stx	$12                     ; 0x12 <__rc2>
    13de: a2 38        	ldx	#$38
    13e0: 86 13        	stx	$13                     ; 0x13 <__rc3>
    13e2: 20 18 29     	jsr	$2918 <showGeneric>
    13e5: a9 0f        	lda	#$f
    13e7: 25 bb        	and	$bb                     ; 0xbb <dials+0x2f>
    13e9: ac d9 38     	ldy	$38d9                   ; 0x38d9 <sliders_labels+0x72>
    13ec: 4a           	lsr
    13ed: 64 16        	stz	$16                     ; 0x16 <__rc6>
    13ef: 66 16        	ror	$16                     ; 0x16 <__rc6>
    13f1: 4a           	lsr
    13f2: 66 16        	ror	$16                     ; 0x16 <__rc6>
    13f4: ae e6 38     	ldx	$38e6                   ; 0x38e6 <sliders_labels+0x7f>
    13f7: 85 12        	sta	$12                     ; 0x12 <__rc2>
    13f9: a9 01        	lda	#$1
    13fb: 85 13        	sta	$13                     ; 0x13 <__rc3>
    13fd: 64 14        	stz	$14                     ; 0x14 <__rc4>
    13ff: 86 15        	stx	$15                     ; 0x15 <__rc5>
    1401: a6 16        	ldx	$16                     ; 0x16 <__rc6>
    1403: 98           	tya
    1404: 20 92 28     	jsr	$2892 <spriteDefine>
    1407: ae d9 38     	ldx	$38d9                   ; 0x38d9 <sliders_labels+0x72>
    140a: 8a           	txa
    140b: 0a           	asl
    140c: 64 12        	stz	$12                     ; 0x12 <__rc2>
    140e: 26 12        	rol	$12                     ; 0x12 <__rc2>
    1410: 0a           	asl
    1411: 26 12        	rol	$12                     ; 0x12 <__rc2>
    1413: 0a           	asl
    1414: 26 12        	rol	$12                     ; 0x12 <__rc2>
    1416: 18           	clc
    1417: 69 00        	adc	#$0
    1419: a8           	tay
    141a: a5 12        	lda	$12                     ; 0x12 <__rc2>
    141c: 69 d9        	adc	#$d9
    141e: 84 12        	sty	$12                     ; 0x12 <__rc2>
    1420: 85 13        	sta	$13                     ; 0x13 <__rc3>
    1422: a9 01        	lda	#$1
    1424: 15 4c        	ora	$4c,x                   ; 0x4c <_spriteCtl>
    1426: 92 12        	sta	($12)                   ; 0x12 <__rc2>
    1428: a2 ff        	ldx	#$ff
    142a: 86 c4        	stx	$c4                     ; 0xc4 <diaAct.0>
    142c: 86 c5        	stx	$c5                     ; 0xc5 <sliAct.0>
    142e: 38           	sec
    142f: a9 01        	lda	#$1
    1431: a0 02        	ldy	#$2
    1433: 91 10        	sta	($10),y                 ; 0x10 <__zp_data_size>
    1435: a2 42        	ldx	#$42
    1437: 86 2c        	stx	$2c                     ; 0x2c <__rc28>
    1439: a2 37        	ldx	#$37
    143b: 86 2d        	stx	$2d                     ; 0x2d <__rc29>
    143d: 64 12        	stz	$12                     ; 0x12 <__rc2>
    143f: 3a           	dec
    1440: 88           	dey
    1441: 91 10        	sta	($10),y                 ; 0x10 <__zp_data_size>
    1443: 64 2e        	stz	$2e                     ; 0x2e <__rc30>
    1445: a0 03        	ldy	#$3
    1447: 91 10        	sta	($10),y                 ; 0x10 <__zp_data_size>
    1449: a2 90        	ldx	#$90
    144b: 8a           	txa
    144c: a0 00        	ldy	#$0
    144e: 91 10        	sta	($10),y                 ; 0x10 <__zp_data_size>
    1450: ad a0 dd     	lda	$dda0                   ; 0xdda0 <end_block9+0xa4a6>
    1453: 29 02        	and	#$2
    1455: f0 03        	beq	$145a <f256main+0xbde>
    1457: 4c 7b 16     	jmp	$167b <f256main+0xdff>
    145a: ae a2 dd     	ldx	$dda2                   ; 0xdda2 <end_block9+0xa4a8>
    145d: 86 26        	stx	$26                     ; 0x26 <__rc22>
    145f: ad a3 dd     	lda	$dda3                   ; 0xdda3 <end_block9+0xa4a9>
    1462: 29 0f        	and	#$f
    1464: 85 27        	sta	$27                     ; 0x27 <__rc23>
    1466: a5 27        	lda	$27                     ; 0x27 <__rc23>
    1468: d0 07        	bne	$1471 <f256main+0xbf5>
    146a: a5 26        	lda	$26                     ; 0x26 <__rc22>
    146c: d0 03        	bne	$1471 <f256main+0xbf5>
    146e: 4c 7b 16     	jmp	$167b <f256main+0xdff>
    1471: a2 00        	ldx	#$0
    1473: a0 00        	ldy	#$0
    1475: a5 2e        	lda	$2e                     ; 0x2e <__rc30>
    1477: 5a           	phy
    1478: a0 04        	ldy	#$4
    147a: 91 10        	sta	($10),y                 ; 0x10 <__zp_data_size>
    147c: 7a           	ply
    147d: ad a1 dd     	lda	$dda1                   ; 0xdda1 <end_block9+0xa4a7>
    1480: c9 fe        	cmp	#$fe
    1482: d0 03        	bne	$1487 <f256main+0xc0b>
    1484: 4c eb 15     	jmp	$15eb <f256main+0xd6f>
    1487: 86 28        	stx	$28                     ; 0x28 <__rc24>
    1489: 84 29        	sty	$29                     ; 0x29 <__rc25>
    148b: 48           	pha
    148c: 5a           	phy
    148d: a0 04        	ldy	#$4
    148f: b1 10        	lda	($10),y                 ; 0x10 <__zp_data_size>
    1491: 7a           	ply
    1492: aa           	tax
    1493: 68           	pla
    1494: e0 00        	cpx	#$0
    1496: d0 03        	bne	$149b <f256main+0xc1f>
    1498: 4c 50 15     	jmp	$1550 <f256main+0xcd4>
    149b: a6 e4        	ldx	$e4                     ; 0xe4 <gPtr>
    149d: a4 e5        	ldy	$e5                     ; 0xe5 <gPtr+0x1>
    149f: 86 12        	stx	$12                     ; 0x12 <__rc2>
    14a1: 84 13        	sty	$13                     ; 0x13 <__rc3>
    14a3: b2 12        	lda	($12)                   ; 0x12 <__rc2>
    14a5: 85 14        	sta	$14                     ; 0x14 <__rc4>
    14a7: a0 03        	ldy	#$3
    14a9: b1 12        	lda	($12),y                 ; 0x12 <__rc2>
    14ab: 48           	pha
    14ac: b1 10        	lda	($10),y                 ; 0x10 <__zp_data_size>
    14ae: aa           	tax
    14af: 68           	pla
    14b0: e0 00        	cpx	#$0
    14b2: f0 07        	beq	$14bb <f256main+0xc3f>
    14b4: a6 2f        	ldx	$2f                     ; 0x2f <__rc31>
    14b6: d0 03        	bne	$14bb <f256main+0xc3f>
    14b8: 4c ba 15     	jmp	$15ba <f256main+0xd3e>
    14bb: c9 05        	cmp	#$5
    14bd: a4 29        	ldy	$29                     ; 0x29 <__rc25>
    14bf: b0 34        	bcs	$14f5 <f256main+0xc79>
    14c1: 85 12        	sta	$12                     ; 0x12 <__rc2>
    14c3: 06 12        	asl	$12                     ; 0x12 <__rc2>
    14c5: a6 12        	ldx	$12                     ; 0x12 <__rc2>
    14c7: 7c b5 34     	jmp	($34b5,x)               ; 0x34b5 <__BLOCK_SIZE+0x14b5>
    14ca: 48           	pha
    14cb: 5a           	phy
    14cc: a0 03        	ldy	#$3
    14ce: b1 10        	lda	($10),y                 ; 0x10 <__zp_data_size>
    14d0: 7a           	ply
    14d1: aa           	tax
    14d2: 68           	pla
    14d3: e0 00        	cpx	#$0
    14d5: d0 03        	bne	$14da <f256main+0xc5e>
    14d7: 4c 25 1d     	jmp	$1d25 <f256main+0x14a9>
    14da: c9 04        	cmp	#$4
    14dc: f0 03        	beq	$14e1 <f256main+0xc65>
    14de: 4c 5b 1d     	jmp	$1d5b <f256main+0x14df>
    14e1: 4c 45 1d     	jmp	$1d45 <f256main+0x14c9>
    14e4: 86 2e        	stx	$2e                     ; 0x2e <__rc30>
    14e6: b5 db        	lda	$db,x                   ; 0xdb <polyOPL3Buffer>
    14e8: aa           	tax
    14e9: d0 03        	bne	$14ee <f256main+0xc72>
    14eb: 4c 16 1e     	jmp	$1e16 <f256main+0x159a>
    14ee: a6 2e        	ldx	$2e                     ; 0x2e <__rc30>
    14f0: e8           	inx
    14f1: e0 09        	cpx	#$9
    14f3: d0 ef        	bne	$14e4 <f256main+0xc68>
    14f5: 64 12        	stz	$12                     ; 0x12 <__rc2>
    14f7: a9 00        	lda	#$0
    14f9: 5a           	phy
    14fa: a0 04        	ldy	#$4
    14fc: 4c e6 15     	jmp	$15e6 <f256main+0xd6a>
    14ff: b4 cf        	ldy	$cf,x                   ; 0xcf <polySIDBuffer>
    1501: d0 03        	bne	$1506 <f256main+0xc8a>
    1503: 4c a8 1e     	jmp	$1ea8 <f256main+0x162c>
    1506: e8           	inx
    1507: e0 06        	cpx	#$6
    1509: d0 f4        	bne	$14ff <f256main+0xc83>
    150b: 4c bc 15     	jmp	$15bc <f256main+0xd40>
    150e: b4 d5        	ldy	$d5,x                   ; 0xd5 <polyPSGBuffer>
    1510: d0 03        	bne	$1515 <f256main+0xc99>
    1512: 4c 23 1f     	jmp	$1f23 <f256main+0x16a7>
    1515: e8           	inx
    1516: e0 06        	cpx	#$6
    1518: d0 f4        	bne	$150e <f256main+0xc92>
    151a: 4c bc 15     	jmp	$15bc <f256main+0xd40>
    151d: b4 db        	ldy	$db,x                   ; 0xdb <polyOPL3Buffer>
    151f: c4 12        	cpy	$12                     ; 0x12 <__rc2>
    1521: d0 03        	bne	$1526 <f256main+0xcaa>
    1523: 4c 32 21     	jmp	$2132 <f256main+0x18b6>
    1526: e8           	inx
    1527: e0 09        	cpx	#$9
    1529: d0 f2        	bne	$151d <f256main+0xca1>
    152b: 4c 30 21     	jmp	$2130 <f256main+0x18b4>
    152e: b4 cf        	ldy	$cf,x                   ; 0xcf <polySIDBuffer>
    1530: c4 12        	cpy	$12                     ; 0x12 <__rc2>
    1532: d0 03        	bne	$1537 <f256main+0xcbb>
    1534: 4c 0a 21     	jmp	$210a <f256main+0x188e>
    1537: e8           	inx
    1538: e0 06        	cpx	#$6
    153a: d0 f2        	bne	$152e <f256main+0xcb2>
    153c: 4c da 21     	jmp	$21da <f256main+0x195e>
    153f: b4 d5        	ldy	$d5,x                   ; 0xd5 <polyPSGBuffer>
    1541: c4 12        	cpy	$12                     ; 0x12 <__rc2>
    1543: d0 03        	bne	$1548 <f256main+0xccc>
    1545: 4c 1a 21     	jmp	$211a <f256main+0x189e>
    1548: e8           	inx
    1549: e0 06        	cpx	#$6
    154b: d0 f2        	bne	$153f <f256main+0xcc3>
    154d: 4c e4 21     	jmp	$21e4 <f256main+0x1968>
    1550: 85 16        	sta	$16                     ; 0x16 <__rc6>
    1552: 5a           	phy
    1553: a0 01        	ldy	#$1
    1555: b1 10        	lda	($10),y                 ; 0x10 <__zp_data_size>
    1557: 7a           	ply
    1558: aa           	tax
    1559: d0 03        	bne	$155e <f256main+0xce2>
    155b: 4c ca 15     	jmp	$15ca <f256main+0xd4e>
    155e: 18           	clc
    155f: a5 16        	lda	$16                     ; 0x16 <__rc6>
    1561: 69 ec        	adc	#$ec
    1563: 48           	pha
    1564: a0 03        	ldy	#$3
    1566: b1 10        	lda	($10),y                 ; 0x10 <__zp_data_size>
    1568: aa           	tax
    1569: 68           	pla
    156a: e0 00        	cpx	#$0
    156c: d0 03        	bne	$1571 <f256main+0xcf5>
    156e: 4c 4b 16     	jmp	$164b <f256main+0xdcf>
    1571: a6 16        	ldx	$16                     ; 0x16 <__rc6>
    1573: 86 2f        	stx	$2f                     ; 0x2f <__rc31>
    1575: 0a           	asl
    1576: 64 12        	stz	$12                     ; 0x12 <__rc2>
    1578: 26 12        	rol	$12                     ; 0x12 <__rc2>
    157a: 0a           	asl
    157b: 85 13        	sta	$13                     ; 0x13 <__rc3>
    157d: 26 12        	rol	$12                     ; 0x12 <__rc2>
    157f: a9 00        	lda	#$0
    1581: 18           	clc
    1582: 65 13        	adc	$13                     ; 0x13 <__rc3>
    1584: 85 14        	sta	$14                     ; 0x14 <__rc4>
    1586: a9 d4        	lda	#$d4
    1588: 65 12        	adc	$12                     ; 0x12 <__rc2>
    158a: a6 01        	ldx	$1                      ; 0x1 <__data_size+0x1>
    158c: a0 01        	ldy	#$1
    158e: 84 01        	sty	$1                      ; 0x1 <__data_size+0x1>
    1590: 48           	pha
    1591: a5 14        	lda	$14                     ; 0x14 <__rc4>
    1593: 85 12        	sta	$12                     ; 0x12 <__rc2>
    1595: 68           	pla
    1596: 85 13        	sta	$13                     ; 0x13 <__rc3>
    1598: a9 ff        	lda	#$ff
    159a: 92 12        	sta	($12)                   ; 0x12 <__rc2>
    159c: 1a           	inc
    159d: 91 12        	sta	($12),y                 ; 0x12 <__rc2>
    159f: c8           	iny
    15a0: 3a           	dec
    15a1: 91 12        	sta	($12),y                 ; 0x12 <__rc2>
    15a3: c8           	iny
    15a4: 91 12        	sta	($12),y                 ; 0x12 <__rc2>
    15a6: 86 01        	stx	$1                      ; 0x1 <__data_size+0x1>
    15a8: 64 12        	stz	$12                     ; 0x12 <__rc2>
    15aa: 1a           	inc
    15ab: a0 01        	ldy	#$1
    15ad: 91 10        	sta	($10),y                 ; 0x10 <__zp_data_size>
    15af: a2 01        	ldx	#$1
    15b1: 8a           	txa
    15b2: a0 04        	ldy	#$4
    15b4: 91 10        	sta	($10),y                 ; 0x10 <__zp_data_size>
    15b6: a0 03        	ldy	#$3
    15b8: 80 08        	bra	$15c2 <f256main+0xd46>
    15ba: 64 2f        	stz	$2f                     ; 0x2f <__rc31>
    15bc: 64 12        	stz	$12                     ; 0x12 <__rc2>
    15be: a9 00        	lda	#$0
    15c0: a0 04        	ldy	#$4
    15c2: 91 10        	sta	($10),y                 ; 0x10 <__zp_data_size>
    15c4: a6 28        	ldx	$28                     ; 0x28 <__rc24>
    15c6: a4 29        	ldy	$29                     ; 0x29 <__rc25>
    15c8: 80 21        	bra	$15eb <f256main+0xd6f>
    15ca: a6 16        	ldx	$16                     ; 0x16 <__rc6>
    15cc: 86 14        	stx	$14                     ; 0x14 <__rc4>
    15ce: a5 16        	lda	$16                     ; 0x16 <__rc6>
    15d0: 29 f0        	and	#$f0
    15d2: c9 90        	cmp	#$90
    15d4: f0 03        	beq	$15d9 <f256main+0xd5d>
    15d6: 4c 47 18     	jmp	$1847 <f256main+0xfcb>
    15d9: 4c 85 1d     	jmp	$1d85 <f256main+0x1509>
    15dc: 64 12        	stz	$12                     ; 0x12 <__rc2>
    15de: 5a           	phy
    15df: a9 00        	lda	#$0
    15e1: a0 04        	ldy	#$4
    15e3: 91 10        	sta	($10),y                 ; 0x10 <__zp_data_size>
    15e5: 88           	dey
    15e6: 91 10        	sta	($10),y                 ; 0x10 <__zp_data_size>
    15e8: 7a           	ply
    15e9: a6 28        	ldx	$28                     ; 0x28 <__rc24>
    15eb: e8           	inx
    15ec: d0 01        	bne	$15ef <f256main+0xd73>
    15ee: c8           	iny
    15ef: c4 27        	cpy	$27                     ; 0x27 <__rc23>
    15f1: f0 03        	beq	$15f6 <f256main+0xd7a>
    15f3: 4c 7d 14     	jmp	$147d <f256main+0xc01>
    15f6: e4 26        	cpx	$26                     ; 0x26 <__rc22>
    15f8: f0 03        	beq	$15fd <f256main+0xd81>
    15fa: 4c 7d 14     	jmp	$147d <f256main+0xc01>
    15fd: 4c 75 16     	jmp	$1675 <f256main+0xdf9>
    1600: 06 13        	asl	$13                     ; 0x13 <__rc3>
    1602: 85 15        	sta	$15                     ; 0x15 <__rc5>
    1604: 26 15        	rol	$15                     ; 0x15 <__rc5>
    1606: 06 14        	asl	$14                     ; 0x14 <__rc4>
    1608: 26 12        	rol	$12                     ; 0x12 <__rc2>
    160a: 06 14        	asl	$14                     ; 0x14 <__rc4>
    160c: 26 12        	rol	$12                     ; 0x12 <__rc2>
    160e: 18           	clc
    160f: a9 00        	lda	#$0
    1611: 65 14        	adc	$14                     ; 0x14 <__rc4>
    1613: aa           	tax
    1614: a9 d4        	lda	#$d4
    1616: 65 12        	adc	$12                     ; 0x12 <__rc2>
    1618: 86 12        	stx	$12                     ; 0x12 <__rc2>
    161a: 85 13        	sta	$13                     ; 0x13 <__rc3>
    161c: a6 01        	ldx	$1                      ; 0x1 <__data_size+0x1>
    161e: 84 01        	sty	$1                      ; 0x1 <__data_size+0x1>
    1620: a5 15        	lda	$15                     ; 0x15 <__rc5>
    1622: 92 12        	sta	($12)                   ; 0x12 <__rc2>
    1624: 91 12        	sta	($12),y                 ; 0x12 <__rc2>
    1626: a0 02        	ldy	#$2
    1628: 91 12        	sta	($12),y                 ; 0x12 <__rc2>
    162a: a9 ff        	lda	#$ff
    162c: c8           	iny
    162d: 91 12        	sta	($12),y                 ; 0x12 <__rc2>
    162f: 86 01        	stx	$1                      ; 0x1 <__data_size+0x1>
    1631: 64 12        	stz	$12                     ; 0x12 <__rc2>
    1633: 1a           	inc
    1634: a0 01        	ldy	#$1
    1636: 91 10        	sta	($10),y                 ; 0x10 <__zp_data_size>
    1638: a2 01        	ldx	#$1
    163a: 8a           	txa
    163b: a0 04        	ldy	#$4
    163d: 91 10        	sta	($10),y                 ; 0x10 <__zp_data_size>
    163f: a9 00        	lda	#$0
    1641: 88           	dey
    1642: 91 10        	sta	($10),y                 ; 0x10 <__zp_data_size>
    1644: a6 16        	ldx	$16                     ; 0x16 <__rc6>
    1646: 86 2f        	stx	$2f                     ; 0x2f <__rc31>
    1648: 4c c4 15     	jmp	$15c4 <f256main+0xd48>
    164b: aa           	tax
    164c: bc 36 35     	ldy	$3536,x                 ; 0x3536 <sidSpriteAction+0x3f>
    164f: a2 01        	ldx	#$1
    1651: 85 14        	sta	$14                     ; 0x14 <__rc4>
    1653: 98           	tya
    1654: f0 03        	beq	$1659 <f256main+0xddd>
    1656: 4c 76 1d     	jmp	$1d76 <f256main+0x14fa>
    1659: 64 12        	stz	$12                     ; 0x12 <__rc2>
    165b: a0 01        	ldy	#$1
    165d: 64 13        	stz	$13                     ; 0x13 <__rc3>
    165f: 8a           	txa
    1660: d0 03        	bne	$1665 <f256main+0xde9>
    1662: 4c 7b 1d     	jmp	$1d7b <f256main+0x14ff>
    1665: 46 13        	lsr	$13                     ; 0x13 <__rc3>
    1667: 64 13        	stz	$13                     ; 0x13 <__rc3>
    1669: 66 13        	ror	$13                     ; 0x13 <__rc3>
    166b: 30 03        	bmi	$1670 <f256main+0xdf4>
    166d: 4c 80 1d     	jmp	$1d80 <f256main+0x1504>
    1670: a9 ff        	lda	#$ff
    1672: 4c 00 16     	jmp	$1600 <f256main+0xd84>
    1675: a0 04        	ldy	#$4
    1677: b1 10        	lda	($10),y                 ; 0x10 <__zp_data_size>
    1679: 85 2e        	sta	$2e                     ; 0x2e <__rc30>
    167b: 64 40        	stz	$40                     ; 0x40 <kernelEventData>
    167d: 18           	clc
    167e: a5 10        	lda	$10                     ; 0x10 <__zp_data_size>
    1680: 69 0a        	adc	#$a
    1682: 85 24        	sta	$24                     ; 0x24 <__rc20>
    1684: a5 11        	lda	$11                     ; 0x11 <__rc1>
    1686: 69 00        	adc	#$0
    1688: 85 25        	sta	$25                     ; 0x25 <__rc21>
    168a: 20 00 ff     	jsr	$ff00 <end_block9+0xc606>
    168d: 92 24        	sta	($24)                   ; 0x24 <__rc20>
    168f: a9 00        	lda	#$0
    1691: 6a           	ror
    1692: 85 2c        	sta	$2c                     ; 0x2c <__rc28>
    1694: a6 40        	ldx	$40                     ; 0x40 <kernelEventData>
    1696: e0 0c        	cpx	#$c
    1698: f0 03        	beq	$169d <f256main+0xe21>
    169a: 4c 50 14     	jmp	$1450 <f256main+0xbd4>
    169d: ad e2 d6     	lda	$d6e2                   ; 0xd6e2 <end_block9+0x9de8>
    16a0: ae e3 d6     	ldx	$d6e3                   ; 0xd6e3 <end_block9+0x9de9>
    16a3: 86 14        	stx	$14                     ; 0x14 <__rc4>
    16a5: a6 43        	ldx	$43                     ; 0x43 <kernelEventData+0x3>
    16a7: 86 12        	stx	$12                     ; 0x12 <__rc2>
    16a9: a2 ff        	ldx	#$ff
    16ab: 86 13        	stx	$13                     ; 0x13 <__rc3>
    16ad: a4 12        	ldy	$12                     ; 0x12 <__rc2>
    16af: 30 02        	bmi	$16b3 <f256main+0xe37>
    16b1: 64 13        	stz	$13                     ; 0x13 <__rc3>
    16b3: 18           	clc
    16b4: 65 12        	adc	$12                     ; 0x12 <__rc2>
    16b6: a8           	tay
    16b7: a5 14        	lda	$14                     ; 0x14 <__rc4>
    16b9: 65 13        	adc	$13                     ; 0x13 <__rc3>
    16bb: 84 14        	sty	$14                     ; 0x14 <__rc4>
    16bd: 84 c6        	sty	$c6                     ; 0xc6 <mX>
    16bf: 85 15        	sta	$15                     ; 0x15 <__rc5>
    16c1: 85 c7        	sta	$c7                     ; 0xc7 <mX+0x1>
    16c3: ac e4 d6     	ldy	$d6e4                   ; 0xd6e4 <end_block9+0x9dea>
    16c6: 84 16        	sty	$16                     ; 0x16 <__rc6>
    16c8: ac e5 d6     	ldy	$d6e5                   ; 0xd6e5 <end_block9+0x9deb>
    16cb: 84 17        	sty	$17                     ; 0x17 <__rc7>
    16cd: a4 44        	ldy	$44                     ; 0x44 <kernelEventData+0x4>
    16cf: 84 12        	sty	$12                     ; 0x12 <__rc2>
    16d1: 86 13        	stx	$13                     ; 0x13 <__rc3>
    16d3: 30 02        	bmi	$16d7 <f256main+0xe5b>
    16d5: 64 13        	stz	$13                     ; 0x13 <__rc3>
    16d7: 18           	clc
    16d8: a5 16        	lda	$16                     ; 0x16 <__rc6>
    16da: 65 12        	adc	$12                     ; 0x12 <__rc2>
    16dc: a8           	tay
    16dd: a5 17        	lda	$17                     ; 0x17 <__rc7>
    16df: 65 13        	adc	$13                     ; 0x13 <__rc3>
    16e1: 84 12        	sty	$12                     ; 0x12 <__rc2>
    16e3: 84 c8        	sty	$c8                     ; 0xc8 <mY>
    16e5: 85 c9        	sta	$c9                     ; 0xc9 <mY+0x1>
    16e7: a6 15        	ldx	$15                     ; 0x15 <__rc5>
    16e9: 30 0e        	bmi	$16f9 <f256main+0xe7d>
    16eb: a6 15        	ldx	$15                     ; 0x15 <__rc5>
    16ed: e0 02        	cpx	#$2
    16ef: d0 0e        	bne	$16ff <f256main+0xe83>
    16f1: a6 14        	ldx	$14                     ; 0x14 <__rc4>
    16f3: e0 71        	cpx	#$71
    16f5: b0 0c        	bcs	$1703 <f256main+0xe87>
    16f7: 80 16        	bra	$170f <f256main+0xe93>
    16f9: a2 00        	ldx	#$0
    16fb: a0 00        	ldy	#$0
    16fd: 80 08        	bra	$1707 <f256main+0xe8b>
    16ff: e0 02        	cpx	#$2
    1701: 90 0c        	bcc	$170f <f256main+0xe93>
    1703: a2 70        	ldx	#$70
    1705: a0 02        	ldy	#$2
    1707: 86 14        	stx	$14                     ; 0x14 <__rc4>
    1709: 86 c6        	stx	$c6                     ; 0xc6 <mX>
    170b: 84 15        	sty	$15                     ; 0x15 <__rc5>
    170d: 84 c7        	sty	$c7                     ; 0xc7 <mX+0x1>
    170f: aa           	tax
    1710: 30 0a        	bmi	$171c <f256main+0xea0>
    1712: c9 01        	cmp	#$1
    1714: d0 0e        	bne	$1724 <f256main+0xea8>
    1716: a6 12        	ldx	$12                     ; 0x12 <__rc2>
    1718: e0 d1        	cpx	#$d1
    171a: 80 0a        	bra	$1726 <f256main+0xeaa>
    171c: a2 00        	ldx	#$0
    171e: a0 00        	ldy	#$0
    1720: a5 14        	lda	$14                     ; 0x14 <__rc4>
    1722: 80 0a        	bra	$172e <f256main+0xeb2>
    1724: c9 01        	cmp	#$1
    1726: a5 14        	lda	$14                     ; 0x14 <__rc4>
    1728: 90 08        	bcc	$1732 <f256main+0xeb6>
    172a: a2 d0        	ldx	#$d0
    172c: a0 01        	ldy	#$1
    172e: 86 c8        	stx	$c8                     ; 0xc8 <mY>
    1730: 84 c9        	sty	$c9                     ; 0xc9 <mY+0x1>
    1732: 8d e2 d6     	sta	$d6e2                   ; 0xd6e2 <end_block9+0x9de8>
    1735: a6 15        	ldx	$15                     ; 0x15 <__rc5>
    1737: 8e e3 d6     	stx	$d6e3                   ; 0xd6e3 <end_block9+0x9de9>
    173a: a6 c8        	ldx	$c8                     ; 0xc8 <mY>
    173c: a4 c9        	ldy	$c9                     ; 0xc9 <mY+0x1>
    173e: 8e e4 d6     	stx	$d6e4                   ; 0xd6e4 <end_block9+0x9dea>
    1741: 8c e5 d6     	sty	$d6e5                   ; 0xd6e5 <end_block9+0x9deb>
    1744: a5 c5        	lda	$c5                     ; 0xc5 <sliAct.0>
    1746: c9 ff        	cmp	#$ff
    1748: d0 03        	bne	$174d <f256main+0xed1>
    174a: 4c 3a 1a     	jmp	$1a3a <f256main+0x11be>
    174d: 0a           	asl
    174e: 64 12        	stz	$12                     ; 0x12 <__rc2>
    1750: 26 12        	rol	$12                     ; 0x12 <__rc2>
    1752: 0a           	asl
    1753: 85 13        	sta	$13                     ; 0x13 <__rc3>
    1755: 26 12        	rol	$12                     ; 0x12 <__rc2>
    1757: 0a           	asl
    1758: a6 12        	ldx	$12                     ; 0x12 <__rc2>
    175a: 86 14        	stx	$14                     ; 0x14 <__rc4>
    175c: 26 14        	rol	$14                     ; 0x14 <__rc4>
    175e: 0a           	asl
    175f: 26 14        	rol	$14                     ; 0x14 <__rc4>
    1761: 0a           	asl
    1762: 26 14        	rol	$14                     ; 0x14 <__rc4>
    1764: 38           	sec
    1765: e5 13        	sbc	$13                     ; 0x13 <__rc3>
    1767: 85 18        	sta	$18                     ; 0x18 <__rc8>
    1769: 85 13        	sta	$13                     ; 0x13 <__rc3>
    176b: a5 14        	lda	$14                     ; 0x14 <__rc4>
    176d: e5 12        	sbc	$12                     ; 0x12 <__rc2>
    176f: 85 19        	sta	$19                     ; 0x19 <__rc9>
    1771: 85 12        	sta	$12                     ; 0x12 <__rc2>
    1773: a9 f7        	lda	#$f7
    1775: 18           	clc
    1776: 65 13        	adc	$13                     ; 0x13 <__rc3>
    1778: 85 26        	sta	$26                     ; 0x26 <__rc22>
    177a: a9 37        	lda	#$37
    177c: 65 12        	adc	$12                     ; 0x12 <__rc2>
    177e: 64 13        	stz	$13                     ; 0x13 <__rc3>
    1780: 85 27        	sta	$27                     ; 0x27 <__rc23>
    1782: a6 44        	ldx	$44                     ; 0x44 <kernelEventData+0x4>
    1784: 86 12        	stx	$12                     ; 0x12 <__rc2>
    1786: 10 08        	bpl	$1790 <f256main+0xf14>
    1788: 64 15        	stz	$15                     ; 0x15 <__rc5>
    178a: a2 ff        	ldx	#$ff
    178c: 86 13        	stx	$13                     ; 0x13 <__rc3>
    178e: 80 02        	bra	$1792 <f256main+0xf16>
    1790: 64 15        	stz	$15                     ; 0x15 <__rc5>
    1792: a0 13        	ldy	#$13
    1794: b1 26        	lda	($26),y                 ; 0x26 <__rc22>
    1796: 38           	sec
    1797: e5 12        	sbc	$12                     ; 0x12 <__rc2>
    1799: aa           	tax
    179a: a9 00        	lda	#$0
    179c: e5 13        	sbc	$13                     ; 0x13 <__rc3>
    179e: 85 14        	sta	$14                     ; 0x14 <__rc4>
    17a0: c8           	iny
    17a1: b1 26        	lda	($26),y                 ; 0x26 <__rc22>
    17a3: 85 13        	sta	$13                     ; 0x13 <__rc3>
    17a5: 86 12        	stx	$12                     ; 0x12 <__rc2>
    17a7: e4 13        	cpx	$13                     ; 0x13 <__rc3>
    17a9: a5 14        	lda	$14                     ; 0x14 <__rc4>
    17ab: e9 00        	sbc	#$0
    17ad: 50 02        	bvc	$17b1 <f256main+0xf35>
    17af: 49 80        	eor	#$80
    17b1: aa           	tax
    17b2: 10 06        	bpl	$17ba <f256main+0xf3e>
    17b4: a6 13        	ldx	$13                     ; 0x13 <__rc3>
    17b6: 86 12        	stx	$12                     ; 0x12 <__rc2>
    17b8: 64 14        	stz	$14                     ; 0x14 <__rc4>
    17ba: a6 18        	ldx	$18                     ; 0x18 <__rc8>
    17bc: 86 13        	stx	$13                     ; 0x13 <__rc3>
    17be: a6 19        	ldx	$19                     ; 0x19 <__rc9>
    17c0: 86 15        	stx	$15                     ; 0x15 <__rc5>
    17c2: a9 f7        	lda	#$f7
    17c4: 18           	clc
    17c5: 65 13        	adc	$13                     ; 0x13 <__rc3>
    17c7: 85 16        	sta	$16                     ; 0x16 <__rc6>
    17c9: a9 37        	lda	#$37
    17cb: 65 15        	adc	$15                     ; 0x15 <__rc5>
    17cd: 85 17        	sta	$17                     ; 0x17 <__rc7>
    17cf: a0 15        	ldy	#$15
    17d1: b1 16        	lda	($16),y                 ; 0x16 <__rc6>
    17d3: a2 00        	ldx	#$0
    17d5: e4 14        	cpx	$14                     ; 0x14 <__rc4>
    17d7: d0 04        	bne	$17dd <f256main+0xf61>
    17d9: c5 12        	cmp	$12                     ; 0x12 <__rc2>
    17db: 80 02        	bra	$17df <f256main+0xf63>
    17dd: e4 14        	cpx	$14                     ; 0x14 <__rc4>
    17df: a6 12        	ldx	$12                     ; 0x12 <__rc2>
    17e1: b0 01        	bcs	$17e4 <f256main+0xf68>
    17e3: aa           	tax
    17e4: a9 f7        	lda	#$f7
    17e6: 18           	clc
    17e7: 65 18        	adc	$18                     ; 0x18 <__rc8>
    17e9: 85 12        	sta	$12                     ; 0x12 <__rc2>
    17eb: a9 37        	lda	#$37
    17ed: 65 19        	adc	$19                     ; 0x19 <__rc9>
    17ef: 85 13        	sta	$13                     ; 0x13 <__rc3>
    17f1: a0 13        	ldy	#$13
    17f3: 8a           	txa
    17f4: 91 12        	sta	($12),y                 ; 0x12 <__rc2>
    17f6: a6 26        	ldx	$26                     ; 0x26 <__rc22>
    17f8: 86 12        	stx	$12                     ; 0x12 <__rc2>
    17fa: a6 27        	ldx	$27                     ; 0x27 <__rc23>
    17fc: 86 13        	stx	$13                     ; 0x13 <__rc3>
    17fe: 20 f3 2c     	jsr	$2cf3 <updateSlider>
    1801: 18           	clc
    1802: a9 e4        	lda	#$e4
    1804: a0 12        	ldy	#$12
    1806: 71 26        	adc	($26),y                 ; 0x26 <__rc22>
    1808: c9 04        	cmp	#$4
    180a: a0 04        	ldy	#$4
    180c: 90 03        	bcc	$1811 <f256main+0xf95>
    180e: 4c 15 19     	jmp	$1915 <f256main+0x1099>
    1811: 0a           	asl
    1812: aa           	tax
    1813: 7c bf 34     	jmp	($34bf,x)               ; 0x34bf <__BLOCK_SIZE+0x14bf>
    1816: a5 e4        	lda	$e4                     ; 0xe4 <gPtr>
    1818: a6 e5        	ldx	$e5                     ; 0xe5 <gPtr+0x1>
    181a: 85 12        	sta	$12                     ; 0x12 <__rc2>
    181c: 86 13        	stx	$13                     ; 0x13 <__rc3>
    181e: 18           	clc
    181f: 69 04        	adc	#$4
    1821: 85 14        	sta	$14                     ; 0x14 <__rc4>
    1823: 8a           	txa
    1824: 69 00        	adc	#$0
    1826: 85 15        	sta	$15                     ; 0x15 <__rc5>
    1828: b1 12        	lda	($12),y                 ; 0x12 <__rc2>
    182a: 85 12        	sta	$12                     ; 0x12 <__rc2>
    182c: a0 01        	ldy	#$1
    182e: b1 14        	lda	($14),y                 ; 0x14 <__rc4>
    1830: 85 13        	sta	$13                     ; 0x13 <__rc3>
    1832: a9 0f        	lda	#$f
    1834: a0 03        	ldy	#$3
    1836: 31 12        	and	($12),y                 ; 0x12 <__rc2>
    1838: 85 14        	sta	$14                     ; 0x14 <__rc4>
    183a: a0 13        	ldy	#$13
    183c: b1 26        	lda	($26),y                 ; 0x26 <__rc22>
    183e: 0a           	asl
    183f: 0a           	asl
    1840: 0a           	asl
    1841: 0a           	asl
    1842: 05 14        	ora	$14                     ; 0x14 <__rc4>
    1844: 4c 11 19     	jmp	$1911 <f256main+0x1095>
    1847: c9 80        	cmp	#$80
    1849: f0 03        	beq	$184e <f256main+0xfd2>
    184b: 4c a3 1d     	jmp	$1da3 <f256main+0x1527>
    184e: a2 01        	ldx	#$1
    1850: 5a           	phy
    1851: 8a           	txa
    1852: a0 01        	ldy	#$1
    1854: 91 10        	sta	($10),y                 ; 0x10 <__zp_data_size>
    1856: a5 16        	lda	$16                     ; 0x16 <__rc6>
    1858: 64 12        	stz	$12                     ; 0x12 <__rc2>
    185a: 48           	pha
    185b: a9 00        	lda	#$0
    185d: a0 04        	ldy	#$4
    185f: 91 10        	sta	($10),y                 ; 0x10 <__zp_data_size>
    1861: 4c 99 1d     	jmp	$1d99 <f256main+0x151d>
    1864: 5a           	phy
    1865: a0 03        	ldy	#$3
    1867: b1 10        	lda	($10),y                 ; 0x10 <__zp_data_size>
    1869: 7a           	ply
    186a: aa           	tax
    186b: d0 03        	bne	$1870 <f256main+0xff4>
    186d: 4c d8 1d     	jmp	$1dd8 <f256main+0x155c>
    1870: a2 00        	ldx	#$0
    1872: 4c e4 14     	jmp	$14e4 <f256main+0xc68>
    1875: a0 03        	ldy	#$3
    1877: b1 10        	lda	($10),y                 ; 0x10 <__zp_data_size>
    1879: d0 03        	bne	$187e <f256main+0x1002>
    187b: 4c e1 1d     	jmp	$1de1 <f256main+0x1565>
    187e: a2 00        	ldx	#$0
    1880: 4c ff 14     	jmp	$14ff <f256main+0xc83>
    1883: a0 03        	ldy	#$3
    1885: b1 10        	lda	($10),y                 ; 0x10 <__zp_data_size>
    1887: d0 03        	bne	$188c <f256main+0x1010>
    1889: 4c ea 1d     	jmp	$1dea <f256main+0x156e>
    188c: a2 00        	ldx	#$0
    188e: 4c 0e 15     	jmp	$150e <f256main+0xc92>
    1891: a5 e4        	lda	$e4                     ; 0xe4 <gPtr>
    1893: a6 e5        	ldx	$e5                     ; 0xe5 <gPtr+0x1>
    1895: 85 12        	sta	$12                     ; 0x12 <__rc2>
    1897: 86 13        	stx	$13                     ; 0x13 <__rc3>
    1899: 18           	clc
    189a: 69 04        	adc	#$4
    189c: 85 14        	sta	$14                     ; 0x14 <__rc4>
    189e: 8a           	txa
    189f: 69 00        	adc	#$0
    18a1: 85 15        	sta	$15                     ; 0x15 <__rc5>
    18a3: b1 12        	lda	($12),y                 ; 0x12 <__rc2>
    18a5: 85 12        	sta	$12                     ; 0x12 <__rc2>
    18a7: a0 01        	ldy	#$1
    18a9: b1 14        	lda	($14),y                 ; 0x14 <__rc4>
    18ab: 85 13        	sta	$13                     ; 0x13 <__rc3>
    18ad: a9 0f        	lda	#$f
    18af: a0 04        	ldy	#$4
    18b1: 31 12        	and	($12),y                 ; 0x12 <__rc2>
    18b3: 85 14        	sta	$14                     ; 0x14 <__rc4>
    18b5: a0 13        	ldy	#$13
    18b7: b1 26        	lda	($26),y                 ; 0x26 <__rc22>
    18b9: 0a           	asl
    18ba: 0a           	asl
    18bb: 0a           	asl
    18bc: 0a           	asl
    18bd: 05 14        	ora	$14                     ; 0x14 <__rc4>
    18bf: 80 26        	bra	$18e7 <f256main+0x106b>
    18c1: a5 e4        	lda	$e4                     ; 0xe4 <gPtr>
    18c3: a6 e5        	ldx	$e5                     ; 0xe5 <gPtr+0x1>
    18c5: 85 12        	sta	$12                     ; 0x12 <__rc2>
    18c7: 86 13        	stx	$13                     ; 0x13 <__rc3>
    18c9: 18           	clc
    18ca: 69 04        	adc	#$4
    18cc: 85 14        	sta	$14                     ; 0x14 <__rc4>
    18ce: 8a           	txa
    18cf: 69 00        	adc	#$0
    18d1: 85 15        	sta	$15                     ; 0x15 <__rc5>
    18d3: b1 12        	lda	($12),y                 ; 0x12 <__rc2>
    18d5: 85 12        	sta	$12                     ; 0x12 <__rc2>
    18d7: a0 01        	ldy	#$1
    18d9: b1 14        	lda	($14),y                 ; 0x14 <__rc4>
    18db: 85 13        	sta	$13                     ; 0x13 <__rc3>
    18dd: a9 f0        	lda	#$f0
    18df: a0 04        	ldy	#$4
    18e1: 31 12        	and	($12),y                 ; 0x12 <__rc2>
    18e3: a0 13        	ldy	#$13
    18e5: 11 26        	ora	($26),y                 ; 0x26 <__rc22>
    18e7: a0 04        	ldy	#$4
    18e9: 80 28        	bra	$1913 <f256main+0x1097>
    18eb: a5 e4        	lda	$e4                     ; 0xe4 <gPtr>
    18ed: a6 e5        	ldx	$e5                     ; 0xe5 <gPtr+0x1>
    18ef: 85 12        	sta	$12                     ; 0x12 <__rc2>
    18f1: 86 13        	stx	$13                     ; 0x13 <__rc3>
    18f3: 18           	clc
    18f4: 69 04        	adc	#$4
    18f6: 85 14        	sta	$14                     ; 0x14 <__rc4>
    18f8: 8a           	txa
    18f9: 69 00        	adc	#$0
    18fb: 85 15        	sta	$15                     ; 0x15 <__rc5>
    18fd: b1 12        	lda	($12),y                 ; 0x12 <__rc2>
    18ff: 85 12        	sta	$12                     ; 0x12 <__rc2>
    1901: a0 01        	ldy	#$1
    1903: b1 14        	lda	($14),y                 ; 0x14 <__rc4>
    1905: 85 13        	sta	$13                     ; 0x13 <__rc3>
    1907: a9 f0        	lda	#$f0
    1909: a0 03        	ldy	#$3
    190b: 31 12        	and	($12),y                 ; 0x12 <__rc2>
    190d: a0 13        	ldy	#$13
    190f: 11 26        	ora	($26),y                 ; 0x26 <__rc22>
    1911: a0 03        	ldy	#$3
    1913: 91 12        	sta	($12),y                 ; 0x12 <__rc2>
    1915: 64 26        	stz	$26                     ; 0x26 <__rc22>
    1917: a5 e4        	lda	$e4                     ; 0xe4 <gPtr>
    1919: a6 e5        	ldx	$e5                     ; 0xe5 <gPtr+0x1>
    191b: 85 12        	sta	$12                     ; 0x12 <__rc2>
    191d: 86 13        	stx	$13                     ; 0x13 <__rc3>
    191f: 18           	clc
    1920: 69 04        	adc	#$4
    1922: 85 14        	sta	$14                     ; 0x14 <__rc4>
    1924: 8a           	txa
    1925: 69 00        	adc	#$0
    1927: 85 15        	sta	$15                     ; 0x15 <__rc5>
    1929: a0 04        	ldy	#$4
    192b: b1 12        	lda	($12),y                 ; 0x12 <__rc2>
    192d: aa           	tax
    192e: a0 01        	ldy	#$1
    1930: b1 14        	lda	($14),y                 ; 0x14 <__rc4>
    1932: 86 14        	stx	$14                     ; 0x14 <__rc4>
    1934: 85 15        	sta	$15                     ; 0x15 <__rc5>
    1936: a6 24        	ldx	$24                     ; 0x24 <__rc20>
    1938: 86 12        	stx	$12                     ; 0x12 <__rc2>
    193a: a6 25        	ldx	$25                     ; 0x25 <__rc21>
    193c: 86 13        	stx	$13                     ; 0x13 <__rc3>
    193e: a2 00        	ldx	#$0
    1940: a9 09        	lda	#$9
    1942: 20 89 32     	jsr	$3289 <memcpy>
    1945: a6 24        	ldx	$24                     ; 0x24 <__rc20>
    1947: 86 12        	stx	$12                     ; 0x12 <__rc2>
    1949: a6 25        	ldx	$25                     ; 0x25 <__rc21>
    194b: 86 13        	stx	$13                     ; 0x13 <__rc3>
    194d: a6 26        	ldx	$26                     ; 0x26 <__rc22>
    194f: a9 00        	lda	#$0
    1951: 20 46 2f     	jsr	$2f46 <sid_setInstrument>
    1954: a5 e4        	lda	$e4                     ; 0xe4 <gPtr>
    1956: a6 e5        	ldx	$e5                     ; 0xe5 <gPtr+0x1>
    1958: 85 12        	sta	$12                     ; 0x12 <__rc2>
    195a: 86 13        	stx	$13                     ; 0x13 <__rc3>
    195c: 18           	clc
    195d: 69 04        	adc	#$4
    195f: 85 14        	sta	$14                     ; 0x14 <__rc4>
    1961: 8a           	txa
    1962: 69 00        	adc	#$0
    1964: 85 15        	sta	$15                     ; 0x15 <__rc5>
    1966: a0 04        	ldy	#$4
    1968: b1 12        	lda	($12),y                 ; 0x12 <__rc2>
    196a: aa           	tax
    196b: a0 01        	ldy	#$1
    196d: b1 14        	lda	($14),y                 ; 0x14 <__rc4>
    196f: 86 14        	stx	$14                     ; 0x14 <__rc4>
    1971: 85 15        	sta	$15                     ; 0x15 <__rc5>
    1973: a6 24        	ldx	$24                     ; 0x24 <__rc20>
    1975: 86 12        	stx	$12                     ; 0x12 <__rc2>
    1977: a6 25        	ldx	$25                     ; 0x25 <__rc21>
    1979: 86 13        	stx	$13                     ; 0x13 <__rc3>
    197b: a2 00        	ldx	#$0
    197d: a9 09        	lda	#$9
    197f: 20 89 32     	jsr	$3289 <memcpy>
    1982: a6 24        	ldx	$24                     ; 0x24 <__rc20>
    1984: 86 12        	stx	$12                     ; 0x12 <__rc2>
    1986: a6 25        	ldx	$25                     ; 0x25 <__rc21>
    1988: 86 13        	stx	$13                     ; 0x13 <__rc3>
    198a: a6 26        	ldx	$26                     ; 0x26 <__rc22>
    198c: a9 01        	lda	#$1
    198e: 20 46 2f     	jsr	$2f46 <sid_setInstrument>
    1991: a6 26        	ldx	$26                     ; 0x26 <__rc22>
    1993: e8           	inx
    1994: 86 26        	stx	$26                     ; 0x26 <__rc22>
    1996: e0 03        	cpx	#$3
    1998: f0 03        	beq	$199d <f256main+0x1121>
    199a: 4c 17 19     	jmp	$1917 <f256main+0x109b>
    199d: a6 c5        	ldx	$c5                     ; 0xc5 <sliAct.0>
    199f: 86 28        	stx	$28                     ; 0x28 <__rc24>
    19a1: a2 13        	ldx	#$13
    19a3: 86 12        	stx	$12                     ; 0x12 <__rc2>
    19a5: 64 13        	stz	$13                     ; 0x13 <__rc3>
    19a7: a2 00        	ldx	#$0
    19a9: a5 28        	lda	$28                     ; 0x28 <__rc24>
    19ab: 20 e8 32     	jsr	$32e8 <__mulhi3>
    19ae: 85 12        	sta	$12                     ; 0x12 <__rc2>
    19b0: 86 13        	stx	$13                     ; 0x13 <__rc3>
    19b2: a9 67        	lda	#$67
    19b4: 18           	clc
    19b5: 65 12        	adc	$12                     ; 0x12 <__rc2>
    19b7: 85 26        	sta	$26                     ; 0x26 <__rc22>
    19b9: a9 38        	lda	#$38
    19bb: 65 13        	adc	$13                     ; 0x13 <__rc3>
    19bd: 85 27        	sta	$27                     ; 0x27 <__rc23>
    19bf: 06 28        	asl	$28                     ; 0x28 <__rc24>
    19c1: a9 00        	lda	#$0
    19c3: 2a           	rol
    19c4: 06 28        	asl	$28                     ; 0x28 <__rc24>
    19c6: 2a           	rol
    19c7: 85 13        	sta	$13                     ; 0x13 <__rc3>
    19c9: a5 28        	lda	$28                     ; 0x28 <__rc24>
    19cb: 0a           	asl
    19cc: a6 13        	ldx	$13                     ; 0x13 <__rc3>
    19ce: 86 14        	stx	$14                     ; 0x14 <__rc4>
    19d0: 26 14        	rol	$14                     ; 0x14 <__rc4>
    19d2: 0a           	asl
    19d3: 26 14        	rol	$14                     ; 0x14 <__rc4>
    19d5: 0a           	asl
    19d6: 26 14        	rol	$14                     ; 0x14 <__rc4>
    19d8: 38           	sec
    19d9: e5 28        	sbc	$28                     ; 0x28 <__rc24>
    19db: 85 12        	sta	$12                     ; 0x12 <__rc2>
    19dd: a5 14        	lda	$14                     ; 0x14 <__rc4>
    19df: e5 13        	sbc	$13                     ; 0x13 <__rc3>
    19e1: 85 13        	sta	$13                     ; 0x13 <__rc3>
    19e3: a9 f7        	lda	#$f7
    19e5: 18           	clc
    19e6: 65 12        	adc	$12                     ; 0x12 <__rc2>
    19e8: 85 12        	sta	$12                     ; 0x12 <__rc2>
    19ea: a9 37        	lda	#$37
    19ec: 65 13        	adc	$13                     ; 0x13 <__rc3>
    19ee: 85 13        	sta	$13                     ; 0x13 <__rc3>
    19f0: a0 13        	ldy	#$13
    19f2: b1 12        	lda	($12),y                 ; 0x12 <__rc2>
    19f4: aa           	tax
    19f5: b2 26        	lda	($26)                   ; 0x26 <__rc22>
    19f7: 85 17        	sta	$17                     ; 0x17 <__rc7>
    19f9: 8a           	txa
    19fa: 4a           	lsr
    19fb: 64 16        	stz	$16                     ; 0x16 <__rc6>
    19fd: 66 16        	ror	$16                     ; 0x16 <__rc6>
    19ff: 4a           	lsr
    1a00: 85 12        	sta	$12                     ; 0x12 <__rc2>
    1a02: 66 16        	ror	$16                     ; 0x16 <__rc6>
    1a04: a0 0d        	ldy	#$d
    1a06: b1 26        	lda	($26),y                 ; 0x26 <__rc22>
    1a08: a2 01        	ldx	#$1
    1a0a: 86 13        	stx	$13                     ; 0x13 <__rc3>
    1a0c: 64 14        	stz	$14                     ; 0x14 <__rc4>
    1a0e: 85 15        	sta	$15                     ; 0x15 <__rc5>
    1a10: a6 16        	ldx	$16                     ; 0x16 <__rc6>
    1a12: a5 17        	lda	$17                     ; 0x17 <__rc7>
    1a14: 20 92 28     	jsr	$2892 <spriteDefine>
    1a17: b2 26        	lda	($26)                   ; 0x26 <__rc22>
    1a19: aa           	tax
    1a1a: 0a           	asl
    1a1b: a8           	tay
    1a1c: a9 00        	lda	#$0
    1a1e: 2a           	rol
    1a1f: 84 12        	sty	$12                     ; 0x12 <__rc2>
    1a21: 06 12        	asl	$12                     ; 0x12 <__rc2>
    1a23: 2a           	rol
    1a24: 06 12        	asl	$12                     ; 0x12 <__rc2>
    1a26: 2a           	rol
    1a27: a8           	tay
    1a28: 18           	clc
    1a29: a5 12        	lda	$12                     ; 0x12 <__rc2>
    1a2b: 69 00        	adc	#$0
    1a2d: 85 12        	sta	$12                     ; 0x12 <__rc2>
    1a2f: 98           	tya
    1a30: 69 d9        	adc	#$d9
    1a32: 85 13        	sta	$13                     ; 0x13 <__rc3>
    1a34: a9 01        	lda	#$1
    1a36: 15 4c        	ora	$4c,x                   ; 0x4c <_spriteCtl>
    1a38: 92 12        	sta	($12)                   ; 0x12 <__rc2>
    1a3a: a5 c4        	lda	$c4                     ; 0xc4 <diaAct.0>
    1a3c: c9 ff        	cmp	#$ff
    1a3e: d0 03        	bne	$1a43 <f256main+0x11c7>
    1a40: 4c 0a 1d     	jmp	$1d0a <f256main+0x148e>
    1a43: 0a           	asl
    1a44: 64 12        	stz	$12                     ; 0x12 <__rc2>
    1a46: 26 12        	rol	$12                     ; 0x12 <__rc2>
    1a48: 0a           	asl
    1a49: 85 13        	sta	$13                     ; 0x13 <__rc3>
    1a4b: 26 12        	rol	$12                     ; 0x12 <__rc2>
    1a4d: 0a           	asl
    1a4e: a6 12        	ldx	$12                     ; 0x12 <__rc2>
    1a50: 86 14        	stx	$14                     ; 0x14 <__rc4>
    1a52: 26 14        	rol	$14                     ; 0x14 <__rc4>
    1a54: 0a           	asl
    1a55: 26 14        	rol	$14                     ; 0x14 <__rc4>
    1a57: 0a           	asl
    1a58: 26 14        	rol	$14                     ; 0x14 <__rc4>
    1a5a: 38           	sec
    1a5b: e5 13        	sbc	$13                     ; 0x13 <__rc3>
    1a5d: 85 18        	sta	$18                     ; 0x18 <__rc8>
    1a5f: 85 13        	sta	$13                     ; 0x13 <__rc3>
    1a61: a5 14        	lda	$14                     ; 0x14 <__rc4>
    1a63: e5 12        	sbc	$12                     ; 0x12 <__rc2>
    1a65: 85 19        	sta	$19                     ; 0x19 <__rc9>
    1a67: 85 12        	sta	$12                     ; 0x12 <__rc2>
    1a69: a9 8c        	lda	#$8c
    1a6b: 18           	clc
    1a6c: 65 13        	adc	$13                     ; 0x13 <__rc3>
    1a6e: 85 26        	sta	$26                     ; 0x26 <__rc22>
    1a70: a9 00        	lda	#$0
    1a72: 65 12        	adc	$12                     ; 0x12 <__rc2>
    1a74: 85 27        	sta	$27                     ; 0x27 <__rc23>
    1a76: a0 13        	ldy	#$13
    1a78: b1 26        	lda	($26),y                 ; 0x26 <__rc22>
    1a7a: 85 12        	sta	$12                     ; 0x12 <__rc2>
    1a7c: a5 43        	lda	$43                     ; 0x43 <kernelEventData+0x3>
    1a7e: 10 04        	bpl	$1a84 <f256main+0x1208>
    1a80: a2 ff        	ldx	#$ff
    1a82: 80 02        	bra	$1a86 <f256main+0x120a>
    1a84: a2 00        	ldx	#$0
    1a86: 18           	clc
    1a87: 65 12        	adc	$12                     ; 0x12 <__rc2>
    1a89: 85 12        	sta	$12                     ; 0x12 <__rc2>
    1a8b: 8a           	txa
    1a8c: 69 00        	adc	#$0
    1a8e: 85 14        	sta	$14                     ; 0x14 <__rc4>
    1a90: a0 14        	ldy	#$14
    1a92: a6 12        	ldx	$12                     ; 0x12 <__rc2>
    1a94: b1 26        	lda	($26),y                 ; 0x26 <__rc22>
    1a96: 85 13        	sta	$13                     ; 0x13 <__rc3>
    1a98: e4 13        	cpx	$13                     ; 0x13 <__rc3>
    1a9a: a5 14        	lda	$14                     ; 0x14 <__rc4>
    1a9c: e9 00        	sbc	#$0
    1a9e: 50 02        	bvc	$1aa2 <f256main+0x1226>
    1aa0: 49 80        	eor	#$80
    1aa2: aa           	tax
    1aa3: 10 06        	bpl	$1aab <f256main+0x122f>
    1aa5: a6 13        	ldx	$13                     ; 0x13 <__rc3>
    1aa7: 86 12        	stx	$12                     ; 0x12 <__rc2>
    1aa9: 64 14        	stz	$14                     ; 0x14 <__rc4>
    1aab: a6 18        	ldx	$18                     ; 0x18 <__rc8>
    1aad: 86 13        	stx	$13                     ; 0x13 <__rc3>
    1aaf: a6 19        	ldx	$19                     ; 0x19 <__rc9>
    1ab1: 86 15        	stx	$15                     ; 0x15 <__rc5>
    1ab3: a9 8c        	lda	#$8c
    1ab5: 18           	clc
    1ab6: 65 13        	adc	$13                     ; 0x13 <__rc3>
    1ab8: 85 16        	sta	$16                     ; 0x16 <__rc6>
    1aba: a9 00        	lda	#$0
    1abc: 65 15        	adc	$15                     ; 0x15 <__rc5>
    1abe: 85 17        	sta	$17                     ; 0x17 <__rc7>
    1ac0: a0 15        	ldy	#$15
    1ac2: b1 16        	lda	($16),y                 ; 0x16 <__rc6>
    1ac4: a2 00        	ldx	#$0
    1ac6: e4 14        	cpx	$14                     ; 0x14 <__rc4>
    1ac8: d0 04        	bne	$1ace <f256main+0x1252>
    1aca: c5 12        	cmp	$12                     ; 0x12 <__rc2>
    1acc: 80 02        	bra	$1ad0 <f256main+0x1254>
    1ace: e4 14        	cpx	$14                     ; 0x14 <__rc4>
    1ad0: a6 12        	ldx	$12                     ; 0x12 <__rc2>
    1ad2: b0 01        	bcs	$1ad5 <f256main+0x1259>
    1ad4: aa           	tax
    1ad5: a9 8c        	lda	#$8c
    1ad7: 18           	clc
    1ad8: 65 18        	adc	$18                     ; 0x18 <__rc8>
    1ada: 85 12        	sta	$12                     ; 0x12 <__rc2>
    1adc: a9 00        	lda	#$0
    1ade: 65 19        	adc	$19                     ; 0x19 <__rc9>
    1ae0: 85 13        	sta	$13                     ; 0x13 <__rc3>
    1ae2: a0 13        	ldy	#$13
    1ae4: 8a           	txa
    1ae5: 91 12        	sta	($12),y                 ; 0x12 <__rc2>
    1ae7: a6 26        	ldx	$26                     ; 0x26 <__rc22>
    1ae9: 86 12        	stx	$12                     ; 0x12 <__rc2>
    1aeb: a6 27        	ldx	$27                     ; 0x27 <__rc23>
    1aed: 86 13        	stx	$13                     ; 0x13 <__rc3>
    1aef: 20 b7 2b     	jsr	$2bb7 <updateDial>
    1af2: a0 12        	ldy	#$12
    1af4: b1 26        	lda	($26),y                 ; 0x26 <__rc22>
    1af6: c9 24        	cmp	#$24
    1af8: f0 0e        	beq	$1b08 <f256main+0x128c>
    1afa: c9 25        	cmp	#$25
    1afc: d0 38        	bne	$1b36 <f256main+0x12ba>
    1afe: a0 13        	ldy	#$13
    1b00: b1 26        	lda	($26),y                 ; 0x26 <__rc22>
    1b02: 85 16        	sta	$16                     ; 0x16 <__rc6>
    1b04: a2 01        	ldx	#$1
    1b06: 80 0a        	bra	$1b12 <f256main+0x1296>
    1b08: a9 0f        	lda	#$f
    1b0a: a0 13        	ldy	#$13
    1b0c: 31 26        	and	($26),y                 ; 0x26 <__rc22>
    1b0e: 85 16        	sta	$16                     ; 0x16 <__rc6>
    1b10: a2 02        	ldx	#$2
    1b12: a5 e4        	lda	$e4                     ; 0xe4 <gPtr>
    1b14: a4 e5        	ldy	$e5                     ; 0xe5 <gPtr+0x1>
    1b16: 85 12        	sta	$12                     ; 0x12 <__rc2>
    1b18: 84 13        	sty	$13                     ; 0x13 <__rc3>
    1b1a: 18           	clc
    1b1b: 69 04        	adc	#$4
    1b1d: 85 14        	sta	$14                     ; 0x14 <__rc4>
    1b1f: 98           	tya
    1b20: 69 00        	adc	#$0
    1b22: 85 15        	sta	$15                     ; 0x15 <__rc5>
    1b24: a0 04        	ldy	#$4
    1b26: b1 12        	lda	($12),y                 ; 0x12 <__rc2>
    1b28: 85 12        	sta	$12                     ; 0x12 <__rc2>
    1b2a: a0 01        	ldy	#$1
    1b2c: b1 14        	lda	($14),y                 ; 0x14 <__rc4>
    1b2e: 85 13        	sta	$13                     ; 0x13 <__rc3>
    1b30: a5 16        	lda	$16                     ; 0x16 <__rc6>
    1b32: da           	phx
    1b33: 7a           	ply
    1b34: 91 12        	sta	($12),y                 ; 0x12 <__rc2>
    1b36: 64 26        	stz	$26                     ; 0x26 <__rc22>
    1b38: a5 e4        	lda	$e4                     ; 0xe4 <gPtr>
    1b3a: a6 e5        	ldx	$e5                     ; 0xe5 <gPtr+0x1>
    1b3c: 85 12        	sta	$12                     ; 0x12 <__rc2>
    1b3e: 86 13        	stx	$13                     ; 0x13 <__rc3>
    1b40: 18           	clc
    1b41: 69 04        	adc	#$4
    1b43: 85 14        	sta	$14                     ; 0x14 <__rc4>
    1b45: 8a           	txa
    1b46: 69 00        	adc	#$0
    1b48: 85 15        	sta	$15                     ; 0x15 <__rc5>
    1b4a: a0 04        	ldy	#$4
    1b4c: b1 12        	lda	($12),y                 ; 0x12 <__rc2>
    1b4e: aa           	tax
    1b4f: a0 01        	ldy	#$1
    1b51: b1 14        	lda	($14),y                 ; 0x14 <__rc4>
    1b53: 86 14        	stx	$14                     ; 0x14 <__rc4>
    1b55: 85 15        	sta	$15                     ; 0x15 <__rc5>
    1b57: a6 24        	ldx	$24                     ; 0x24 <__rc20>
    1b59: 86 12        	stx	$12                     ; 0x12 <__rc2>
    1b5b: a6 25        	ldx	$25                     ; 0x25 <__rc21>
    1b5d: 86 13        	stx	$13                     ; 0x13 <__rc3>
    1b5f: a2 00        	ldx	#$0
    1b61: a9 09        	lda	#$9
    1b63: 20 89 32     	jsr	$3289 <memcpy>
    1b66: a6 24        	ldx	$24                     ; 0x24 <__rc20>
    1b68: 86 12        	stx	$12                     ; 0x12 <__rc2>
    1b6a: a6 25        	ldx	$25                     ; 0x25 <__rc21>
    1b6c: 86 13        	stx	$13                     ; 0x13 <__rc3>
    1b6e: a6 26        	ldx	$26                     ; 0x26 <__rc22>
    1b70: a9 00        	lda	#$0
    1b72: 20 46 2f     	jsr	$2f46 <sid_setInstrument>
    1b75: a5 e4        	lda	$e4                     ; 0xe4 <gPtr>
    1b77: a6 e5        	ldx	$e5                     ; 0xe5 <gPtr+0x1>
    1b79: 85 12        	sta	$12                     ; 0x12 <__rc2>
    1b7b: 86 13        	stx	$13                     ; 0x13 <__rc3>
    1b7d: 18           	clc
    1b7e: 69 04        	adc	#$4
    1b80: 85 14        	sta	$14                     ; 0x14 <__rc4>
    1b82: 8a           	txa
    1b83: 69 00        	adc	#$0
    1b85: 85 15        	sta	$15                     ; 0x15 <__rc5>
    1b87: a0 04        	ldy	#$4
    1b89: b1 12        	lda	($12),y                 ; 0x12 <__rc2>
    1b8b: aa           	tax
    1b8c: a0 01        	ldy	#$1
    1b8e: b1 14        	lda	($14),y                 ; 0x14 <__rc4>
    1b90: 86 14        	stx	$14                     ; 0x14 <__rc4>
    1b92: 85 15        	sta	$15                     ; 0x15 <__rc5>
    1b94: a6 24        	ldx	$24                     ; 0x24 <__rc20>
    1b96: 86 12        	stx	$12                     ; 0x12 <__rc2>
    1b98: a6 25        	ldx	$25                     ; 0x25 <__rc21>
    1b9a: 86 13        	stx	$13                     ; 0x13 <__rc3>
    1b9c: a2 00        	ldx	#$0
    1b9e: a9 09        	lda	#$9
    1ba0: 20 89 32     	jsr	$3289 <memcpy>
    1ba3: a6 24        	ldx	$24                     ; 0x24 <__rc20>
    1ba5: 86 12        	stx	$12                     ; 0x12 <__rc2>
    1ba7: a6 25        	ldx	$25                     ; 0x25 <__rc21>
    1ba9: 86 13        	stx	$13                     ; 0x13 <__rc3>
    1bab: a6 26        	ldx	$26                     ; 0x26 <__rc22>
    1bad: a9 01        	lda	#$1
    1baf: 20 46 2f     	jsr	$2f46 <sid_setInstrument>
    1bb2: a6 26        	ldx	$26                     ; 0x26 <__rc22>
    1bb4: e8           	inx
    1bb5: 86 26        	stx	$26                     ; 0x26 <__rc22>
    1bb7: e0 03        	cpx	#$3
    1bb9: f0 03        	beq	$1bbe <f256main+0x1342>
    1bbb: 4c 38 1b     	jmp	$1b38 <f256main+0x12bc>
    1bbe: a5 c4        	lda	$c4                     ; 0xc4 <diaAct.0>
    1bc0: 0a           	asl
    1bc1: 64 12        	stz	$12                     ; 0x12 <__rc2>
    1bc3: 26 12        	rol	$12                     ; 0x12 <__rc2>
    1bc5: 0a           	asl
    1bc6: 85 13        	sta	$13                     ; 0x13 <__rc3>
    1bc8: 26 12        	rol	$12                     ; 0x12 <__rc2>
    1bca: 0a           	asl
    1bcb: a6 12        	ldx	$12                     ; 0x12 <__rc2>
    1bcd: 86 14        	stx	$14                     ; 0x14 <__rc4>
    1bcf: 26 14        	rol	$14                     ; 0x14 <__rc4>
    1bd1: 0a           	asl
    1bd2: 26 14        	rol	$14                     ; 0x14 <__rc4>
    1bd4: 0a           	asl
    1bd5: 26 14        	rol	$14                     ; 0x14 <__rc4>
    1bd7: 38           	sec
    1bd8: e5 13        	sbc	$13                     ; 0x13 <__rc3>
    1bda: 85 13        	sta	$13                     ; 0x13 <__rc3>
    1bdc: a5 14        	lda	$14                     ; 0x14 <__rc4>
    1bde: e5 12        	sbc	$12                     ; 0x12 <__rc2>
    1be0: 85 12        	sta	$12                     ; 0x12 <__rc2>
    1be2: a9 8c        	lda	#$8c
    1be4: 18           	clc
    1be5: 65 13        	adc	$13                     ; 0x13 <__rc3>
    1be7: aa           	tax
    1be8: a9 00        	lda	#$0
    1bea: 65 12        	adc	$12                     ; 0x12 <__rc2>
    1bec: 86 12        	stx	$12                     ; 0x12 <__rc2>
    1bee: 85 13        	sta	$13                     ; 0x13 <__rc3>
    1bf0: a0 12        	ldy	#$12
    1bf2: b1 12        	lda	($12),y                 ; 0x12 <__rc2>
    1bf4: c9 24        	cmp	#$24
    1bf6: f0 03        	beq	$1bfb <f256main+0x137f>
    1bf8: 4c 75 1c     	jmp	$1c75 <f256main+0x13f9>
    1bfb: a5 9f        	lda	$9f                     ; 0x9f <dials+0x13>
    1bfd: ac b3 38     	ldy	$38b3                   ; 0x38b3 <sliders_labels+0x4c>
    1c00: 4a           	lsr
    1c01: 64 16        	stz	$16                     ; 0x16 <__rc6>
    1c03: 66 16        	ror	$16                     ; 0x16 <__rc6>
    1c05: 4a           	lsr
    1c06: 66 16        	ror	$16                     ; 0x16 <__rc6>
    1c08: ae c0 38     	ldx	$38c0                   ; 0x38c0 <sliders_labels+0x59>
    1c0b: 85 12        	sta	$12                     ; 0x12 <__rc2>
    1c0d: a9 01        	lda	#$1
    1c0f: 85 13        	sta	$13                     ; 0x13 <__rc3>
    1c11: 64 14        	stz	$14                     ; 0x14 <__rc4>
    1c13: 86 15        	stx	$15                     ; 0x15 <__rc5>
    1c15: a6 16        	ldx	$16                     ; 0x16 <__rc6>
    1c17: 98           	tya
    1c18: 20 92 28     	jsr	$2892 <spriteDefine>
    1c1b: ae b3 38     	ldx	$38b3                   ; 0x38b3 <sliders_labels+0x4c>
    1c1e: 8a           	txa
    1c1f: 0a           	asl
    1c20: a8           	tay
    1c21: a9 00        	lda	#$0
    1c23: 2a           	rol
    1c24: 84 12        	sty	$12                     ; 0x12 <__rc2>
    1c26: 06 12        	asl	$12                     ; 0x12 <__rc2>
    1c28: 2a           	rol
    1c29: 06 12        	asl	$12                     ; 0x12 <__rc2>
    1c2b: 2a           	rol
    1c2c: a8           	tay
    1c2d: 18           	clc
    1c2e: a5 12        	lda	$12                     ; 0x12 <__rc2>
    1c30: 69 00        	adc	#$0
    1c32: 85 12        	sta	$12                     ; 0x12 <__rc2>
    1c34: 98           	tya
    1c35: 69 d9        	adc	#$d9
    1c37: 85 13        	sta	$13                     ; 0x13 <__rc3>
    1c39: a9 01        	lda	#$1
    1c3b: 15 4c        	ora	$4c,x                   ; 0x4c <_spriteCtl>
    1c3d: 92 12        	sta	($12)                   ; 0x12 <__rc2>
    1c3f: a5 c4        	lda	$c4                     ; 0xc4 <diaAct.0>
    1c41: 0a           	asl
    1c42: 64 12        	stz	$12                     ; 0x12 <__rc2>
    1c44: 26 12        	rol	$12                     ; 0x12 <__rc2>
    1c46: 0a           	asl
    1c47: 85 13        	sta	$13                     ; 0x13 <__rc3>
    1c49: 26 12        	rol	$12                     ; 0x12 <__rc2>
    1c4b: 0a           	asl
    1c4c: a6 12        	ldx	$12                     ; 0x12 <__rc2>
    1c4e: 86 14        	stx	$14                     ; 0x14 <__rc4>
    1c50: 26 14        	rol	$14                     ; 0x14 <__rc4>
    1c52: 0a           	asl
    1c53: 26 14        	rol	$14                     ; 0x14 <__rc4>
    1c55: 0a           	asl
    1c56: 26 14        	rol	$14                     ; 0x14 <__rc4>
    1c58: 38           	sec
    1c59: e5 13        	sbc	$13                     ; 0x13 <__rc3>
    1c5b: 85 13        	sta	$13                     ; 0x13 <__rc3>
    1c5d: a5 14        	lda	$14                     ; 0x14 <__rc4>
    1c5f: e5 12        	sbc	$12                     ; 0x12 <__rc2>
    1c61: 85 12        	sta	$12                     ; 0x12 <__rc2>
    1c63: a9 8c        	lda	#$8c
    1c65: 18           	clc
    1c66: 65 13        	adc	$13                     ; 0x13 <__rc3>
    1c68: aa           	tax
    1c69: a9 00        	lda	#$0
    1c6b: 65 12        	adc	$12                     ; 0x12 <__rc2>
    1c6d: 86 12        	stx	$12                     ; 0x12 <__rc2>
    1c6f: 85 13        	sta	$13                     ; 0x13 <__rc3>
    1c71: a0 12        	ldy	#$12
    1c73: b1 12        	lda	($12),y                 ; 0x12 <__rc2>
    1c75: c9 25        	cmp	#$25
    1c77: f0 03        	beq	$1c7c <f256main+0x1400>
    1c79: 4c 0a 1d     	jmp	$1d0a <f256main+0x148e>
    1c7c: a5 bb        	lda	$bb                     ; 0xbb <dials+0x2f>
    1c7e: 4a           	lsr
    1c7f: 4a           	lsr
    1c80: 4a           	lsr
    1c81: 4a           	lsr
    1c82: ac c6 38     	ldy	$38c6                   ; 0x38c6 <sliders_labels+0x5f>
    1c85: 4a           	lsr
    1c86: 64 16        	stz	$16                     ; 0x16 <__rc6>
    1c88: 66 16        	ror	$16                     ; 0x16 <__rc6>
    1c8a: 4a           	lsr
    1c8b: 66 16        	ror	$16                     ; 0x16 <__rc6>
    1c8d: ae d3 38     	ldx	$38d3                   ; 0x38d3 <sliders_labels+0x6c>
    1c90: 85 12        	sta	$12                     ; 0x12 <__rc2>
    1c92: a9 01        	lda	#$1
    1c94: 85 13        	sta	$13                     ; 0x13 <__rc3>
    1c96: 64 14        	stz	$14                     ; 0x14 <__rc4>
    1c98: 86 15        	stx	$15                     ; 0x15 <__rc5>
    1c9a: a6 16        	ldx	$16                     ; 0x16 <__rc6>
    1c9c: 98           	tya
    1c9d: 20 92 28     	jsr	$2892 <spriteDefine>
    1ca0: ae c6 38     	ldx	$38c6                   ; 0x38c6 <sliders_labels+0x5f>
    1ca3: 8a           	txa
    1ca4: 0a           	asl
    1ca5: a8           	tay
    1ca6: a9 00        	lda	#$0
    1ca8: 2a           	rol
    1ca9: 84 12        	sty	$12                     ; 0x12 <__rc2>
    1cab: 06 12        	asl	$12                     ; 0x12 <__rc2>
    1cad: 2a           	rol
    1cae: 06 12        	asl	$12                     ; 0x12 <__rc2>
    1cb0: 2a           	rol
    1cb1: a8           	tay
    1cb2: 18           	clc
    1cb3: a5 12        	lda	$12                     ; 0x12 <__rc2>
    1cb5: 69 00        	adc	#$0
    1cb7: 85 12        	sta	$12                     ; 0x12 <__rc2>
    1cb9: 98           	tya
    1cba: 69 d9        	adc	#$d9
    1cbc: 85 13        	sta	$13                     ; 0x13 <__rc3>
    1cbe: a9 01        	lda	#$1
    1cc0: 15 4c        	ora	$4c,x                   ; 0x4c <_spriteCtl>
    1cc2: 92 12        	sta	($12)                   ; 0x12 <__rc2>
    1cc4: a9 0f        	lda	#$f
    1cc6: 25 bb        	and	$bb                     ; 0xbb <dials+0x2f>
    1cc8: ac d9 38     	ldy	$38d9                   ; 0x38d9 <sliders_labels+0x72>
    1ccb: 4a           	lsr
    1ccc: 64 16        	stz	$16                     ; 0x16 <__rc6>
    1cce: 66 16        	ror	$16                     ; 0x16 <__rc6>
    1cd0: 4a           	lsr
    1cd1: 66 16        	ror	$16                     ; 0x16 <__rc6>
    1cd3: ae e6 38     	ldx	$38e6                   ; 0x38e6 <sliders_labels+0x7f>
    1cd6: 85 12        	sta	$12                     ; 0x12 <__rc2>
    1cd8: a9 01        	lda	#$1
    1cda: 85 13        	sta	$13                     ; 0x13 <__rc3>
    1cdc: 64 14        	stz	$14                     ; 0x14 <__rc4>
    1cde: 86 15        	stx	$15                     ; 0x15 <__rc5>
    1ce0: a6 16        	ldx	$16                     ; 0x16 <__rc6>
    1ce2: 98           	tya
    1ce3: 20 92 28     	jsr	$2892 <spriteDefine>
    1ce6: ae d9 38     	ldx	$38d9                   ; 0x38d9 <sliders_labels+0x72>
    1ce9: 8a           	txa
    1cea: 0a           	asl
    1ceb: a8           	tay
    1cec: a9 00        	lda	#$0
    1cee: 2a           	rol
    1cef: 84 12        	sty	$12                     ; 0x12 <__rc2>
    1cf1: 06 12        	asl	$12                     ; 0x12 <__rc2>
    1cf3: 2a           	rol
    1cf4: 06 12        	asl	$12                     ; 0x12 <__rc2>
    1cf6: 2a           	rol
    1cf7: a8           	tay
    1cf8: 18           	clc
    1cf9: a5 12        	lda	$12                     ; 0x12 <__rc2>
    1cfb: 69 00        	adc	#$0
    1cfd: 85 12        	sta	$12                     ; 0x12 <__rc2>
    1cff: 98           	tya
    1d00: 69 d9        	adc	#$d9
    1d02: 85 13        	sta	$13                     ; 0x13 <__rc3>
    1d04: a9 01        	lda	#$1
    1d06: 15 4c        	ora	$4c,x                   ; 0x4c <_spriteCtl>
    1d08: 92 12        	sta	($12)                   ; 0x12 <__rc2>
    1d0a: a6 46        	ldx	$46                     ; 0x46 <kernelEventData+0x6>
    1d0c: a9 01        	lda	#$1
    1d0e: 25 46        	and	$46                     ; 0x46 <kernelEventData+0x6>
    1d10: f0 03        	beq	$1d15 <f256main+0x1499>
    1d12: 4c 77 1f     	jmp	$1f77 <f256main+0x16fb>
    1d15: a0 02        	ldy	#$2
    1d17: b1 10        	lda	($10),y                 ; 0x10 <__zp_data_size>
    1d19: 85 12        	sta	$12                     ; 0x12 <__rc2>
    1d1b: a5 12        	lda	$12                     ; 0x12 <__rc2>
    1d1d: f0 03        	beq	$1d22 <f256main+0x14a6>
    1d1f: 4c 50 14     	jmp	$1450 <f256main+0xbd4>
    1d22: 4c 54 20     	jmp	$2054 <f256main+0x17d8>
    1d25: c9 04        	cmp	#$4
    1d27: f0 03        	beq	$1d2c <f256main+0x14b0>
    1d29: 4c f3 1d     	jmp	$1df3 <f256main+0x1577>
    1d2c: a2 80        	ldx	#$80
    1d2e: 8e b1 dd     	stx	$ddb1                   ; 0xddb1 <end_block9+0xa4b7>
    1d31: a6 2f        	ldx	$2f                     ; 0x2f <__rc31>
    1d33: 8e b1 dd     	stx	$ddb1                   ; 0xddb1 <end_block9+0xa4b7>
    1d36: a2 7f        	ldx	#$7f
    1d38: 8e b1 dd     	stx	$ddb1                   ; 0xddb1 <end_block9+0xa4b7>
    1d3b: a5 14        	lda	$14                     ; 0x14 <__rc4>
    1d3d: f0 03        	beq	$1d42 <f256main+0x14c6>
    1d3f: 4c 09 1e     	jmp	$1e09 <f256main+0x158d>
    1d42: 4c 0e 22     	jmp	$220e <f256main+0x1992>
    1d45: a2 90        	ldx	#$90
    1d47: 8e b1 dd     	stx	$ddb1                   ; 0xddb1 <end_block9+0xa4b7>
    1d4a: a6 2f        	ldx	$2f                     ; 0x2f <__rc31>
    1d4c: 8e b1 dd     	stx	$ddb1                   ; 0xddb1 <end_block9+0xa4b7>
    1d4f: a2 7f        	ldx	#$7f
    1d51: 8e b1 dd     	stx	$ddb1                   ; 0xddb1 <end_block9+0xa4b7>
    1d54: a5 14        	lda	$14                     ; 0x14 <__rc4>
    1d56: d0 19        	bne	$1d71 <f256main+0x14f5>
    1d58: 4c 72 1f     	jmp	$1f72 <f256main+0x16f6>
    1d5b: a5 14        	lda	$14                     ; 0x14 <__rc4>
    1d5d: d0 03        	bne	$1d62 <f256main+0x14e6>
    1d5f: 4c 63 1f     	jmp	$1f63 <f256main+0x16e7>
    1d62: a2 90        	ldx	#$90
    1d64: 8e b1 dd     	stx	$ddb1                   ; 0xddb1 <end_block9+0xa4b7>
    1d67: a6 2f        	ldx	$2f                     ; 0x2f <__rc31>
    1d69: 8e b1 dd     	stx	$ddb1                   ; 0xddb1 <end_block9+0xa4b7>
    1d6c: a2 7f        	ldx	#$7f
    1d6e: 8e b1 dd     	stx	$ddb1                   ; 0xddb1 <end_block9+0xa4b7>
    1d71: e6 cb        	inc	$cb                     ; 0xcb <chipAct.1>
    1d73: 4c f5 14     	jmp	$14f5 <f256main+0xc79>
    1d76: a2 00        	ldx	#$0
    1d78: 4c 59 16     	jmp	$1659 <f256main+0xddd>
    1d7b: 84 13        	sty	$13                     ; 0x13 <__rc3>
    1d7d: 4c 65 16     	jmp	$1665 <f256main+0xde9>
    1d80: a9 00        	lda	#$0
    1d82: 4c 00 16     	jmp	$1600 <f256main+0xd84>
    1d85: a2 01        	ldx	#$1
    1d87: 5a           	phy
    1d88: 8a           	txa
    1d89: a0 01        	ldy	#$1
    1d8b: 91 10        	sta	($10),y                 ; 0x10 <__zp_data_size>
    1d8d: a5 16        	lda	$16                     ; 0x16 <__rc6>
    1d8f: 64 12        	stz	$12                     ; 0x12 <__rc2>
    1d91: 48           	pha
    1d92: a9 00        	lda	#$0
    1d94: a0 04        	ldy	#$4
    1d96: 91 10        	sta	($10),y                 ; 0x10 <__zp_data_size>
    1d98: 8a           	txa
    1d99: a0 03        	ldy	#$3
    1d9b: 91 10        	sta	($10),y                 ; 0x10 <__zp_data_size>
    1d9d: 68           	pla
    1d9e: a0 00        	ldy	#$0
    1da0: 4c e6 15     	jmp	$15e6 <f256main+0xd6a>
    1da3: a6 28        	ldx	$28                     ; 0x28 <__rc24>
    1da5: a5 14        	lda	$14                     ; 0x14 <__rc4>
    1da7: 10 03        	bpl	$1dac <f256main+0x1530>
    1da9: 4c f9 20     	jmp	$20f9 <f256main+0x187d>
    1dac: 5a           	phy
    1dad: a0 00        	ldy	#$0
    1daf: b1 10        	lda	($10),y                 ; 0x10 <__zp_data_size>
    1db1: 7a           	ply
    1db2: 29 f0        	and	#$f0
    1db4: c9 80        	cmp	#$80
    1db6: f0 07        	beq	$1dbf <f256main+0x1543>
    1db8: c9 90        	cmp	#$90
    1dba: f0 03        	beq	$1dbf <f256main+0x1543>
    1dbc: 4c 1b 22     	jmp	$221b <f256main+0x199f>
    1dbf: 64 12        	stz	$12                     ; 0x12 <__rc2>
    1dc1: 5a           	phy
    1dc2: a9 00        	lda	#$0
    1dc4: a0 01        	ldy	#$1
    1dc6: 91 10        	sta	($10),y                 ; 0x10 <__zp_data_size>
    1dc8: a2 01        	ldx	#$1
    1dca: 8a           	txa
    1dcb: a0 04        	ldy	#$4
    1dcd: 91 10        	sta	($10),y                 ; 0x10 <__zp_data_size>
    1dcf: 88           	dey
    1dd0: 91 10        	sta	($10),y                 ; 0x10 <__zp_data_size>
    1dd2: 7a           	ply
    1dd3: a6 28        	ldx	$28                     ; 0x28 <__rc24>
    1dd5: 4c 2a 22     	jmp	$222a <f256main+0x19ae>
    1dd8: a2 00        	ldx	#$0
    1dda: a4 2f        	ldy	$2f                     ; 0x2f <__rc31>
    1ddc: 84 12        	sty	$12                     ; 0x12 <__rc2>
    1dde: 4c 1d 15     	jmp	$151d <f256main+0xca1>
    1de1: a2 00        	ldx	#$0
    1de3: a4 2f        	ldy	$2f                     ; 0x2f <__rc31>
    1de5: 84 12        	sty	$12                     ; 0x12 <__rc2>
    1de7: 4c 2e 15     	jmp	$152e <f256main+0xcb2>
    1dea: a2 00        	ldx	#$0
    1dec: a4 2f        	ldy	$2f                     ; 0x2f <__rc31>
    1dee: 84 12        	sty	$12                     ; 0x12 <__rc2>
    1df0: 4c 3f 15     	jmp	$153f <f256main+0xcc3>
    1df3: a5 14        	lda	$14                     ; 0x14 <__rc4>
    1df5: d0 03        	bne	$1dfa <f256main+0x157e>
    1df7: 4c ff 21     	jmp	$21ff <f256main+0x1983>
    1dfa: a2 80        	ldx	#$80
    1dfc: 8e b1 dd     	stx	$ddb1                   ; 0xddb1 <end_block9+0xa4b7>
    1dff: a6 2f        	ldx	$2f                     ; 0x2f <__rc31>
    1e01: 8e b1 dd     	stx	$ddb1                   ; 0xddb1 <end_block9+0xa4b7>
    1e04: a2 7f        	ldx	#$7f
    1e06: 8e b1 dd     	stx	$ddb1                   ; 0xddb1 <end_block9+0xa4b7>
    1e09: a6 cb        	ldx	$cb                     ; 0xcb <chipAct.1>
    1e0b: d0 03        	bne	$1e10 <f256main+0x1594>
    1e0d: 4c dc 15     	jmp	$15dc <f256main+0xd60>
    1e10: ca           	dex
    1e11: 86 cb        	stx	$cb                     ; 0xcb <chipAct.1>
    1e13: 4c dc 15     	jmp	$15dc <f256main+0xd60>
    1e16: a5 2f        	lda	$2f                     ; 0x2f <__rc31>
    1e18: 18           	clc
    1e19: 69 05        	adc	#$5
    1e1b: a8           	tay
    1e1c: a9 00        	lda	#$0
    1e1e: 69 00        	adc	#$0
    1e20: 18           	clc
    1e21: 48           	pha
    1e22: a5 10        	lda	$10                     ; 0x10 <__zp_data_size>
    1e24: 69 06        	adc	#$6
    1e26: 85 24        	sta	$24                     ; 0x24 <__rc20>
    1e28: a5 11        	lda	$11                     ; 0x11 <__rc1>
    1e2a: 69 00        	adc	#$0
    1e2c: 85 25        	sta	$25                     ; 0x25 <__rc21>
    1e2e: 68           	pla
    1e2f: a6 24        	ldx	$24                     ; 0x24 <__rc20>
    1e31: 86 14        	stx	$14                     ; 0x14 <__rc4>
    1e33: a6 25        	ldx	$25                     ; 0x25 <__rc21>
    1e35: 86 15        	stx	$15                     ; 0x15 <__rc5>
    1e37: a2 0c        	ldx	#$c
    1e39: 86 12        	stx	$12                     ; 0x12 <__rc2>
    1e3b: 64 13        	stz	$13                     ; 0x13 <__rc3>
    1e3d: aa           	tax
    1e3e: 98           	tya
    1e3f: 20 da 33     	jsr	$33da <__udivmodhi4>
    1e42: aa           	tax
    1e43: b2 24        	lda	($24)                   ; 0x24 <__rc20>
    1e45: 85 12        	sta	$12                     ; 0x12 <__rc2>
    1e47: a0 01        	ldy	#$1
    1e49: b1 24        	lda	($24),y                 ; 0x24 <__rc20>
    1e4b: 06 12        	asl	$12                     ; 0x12 <__rc2>
    1e4d: 2a           	rol
    1e4e: 85 13        	sta	$13                     ; 0x13 <__rc3>
    1e50: a9 1d        	lda	#$1d
    1e52: 18           	clc
    1e53: 65 12        	adc	$12                     ; 0x12 <__rc2>
    1e55: 85 12        	sta	$12                     ; 0x12 <__rc2>
    1e57: a9 36        	lda	#$36
    1e59: 65 13        	adc	$13                     ; 0x13 <__rc3>
    1e5b: 85 13        	sta	$13                     ; 0x13 <__rc3>
    1e5d: b2 12        	lda	($12)                   ; 0x12 <__rc2>
    1e5f: 85 16        	sta	$16                     ; 0x16 <__rc6>
    1e61: 18           	clc
    1e62: 8a           	txa
    1e63: 69 3e        	adc	#$3e
    1e65: 85 15        	sta	$15                     ; 0x15 <__rc5>
    1e67: a6 2e        	ldx	$2e                     ; 0x2e <__rc30>
    1e69: 86 14        	stx	$14                     ; 0x14 <__rc4>
    1e6b: 86 17        	stx	$17                     ; 0x17 <__rc7>
    1e6d: 8a           	txa
    1e6e: 09 a0        	ora	#$a0
    1e70: aa           	tax
    1e71: b1 12        	lda	($12),y                 ; 0x12 <__rc2>
    1e73: 85 12        	sta	$12                     ; 0x12 <__rc2>
    1e75: a4 29        	ldy	$29                     ; 0x29 <__rc25>
    1e77: 8e 80 d5     	stx	$d580                   ; 0xd580 <end_block9+0x9c86>
    1e7a: a5 16        	lda	$16                     ; 0x16 <__rc6>
    1e7c: 8d 81 d5     	sta	$d581                   ; 0xd581 <end_block9+0x9c87>
    1e7f: a5 14        	lda	$14                     ; 0x14 <__rc4>
    1e81: 09 b0        	ora	#$b0
    1e83: 85 13        	sta	$13                     ; 0x13 <__rc3>
    1e85: a5 12        	lda	$12                     ; 0x12 <__rc2>
    1e87: 29 03        	and	#$3
    1e89: 85 12        	sta	$12                     ; 0x12 <__rc2>
    1e8b: 06 15        	asl	$15                     ; 0x15 <__rc5>
    1e8d: a5 13        	lda	$13                     ; 0x13 <__rc3>
    1e8f: 8d 80 d5     	sta	$d580                   ; 0xd580 <end_block9+0x9c86>
    1e92: a5 15        	lda	$15                     ; 0x15 <__rc5>
    1e94: 0a           	asl
    1e95: 05 12        	ora	$12                     ; 0x12 <__rc2>
    1e97: 09 20        	ora	#$20
    1e99: 8d 81 d5     	sta	$d581                   ; 0xd581 <end_block9+0x9c87>
    1e9c: a5 2f        	lda	$2f                     ; 0x2f <__rc31>
    1e9e: a6 17        	ldx	$17                     ; 0x17 <__rc7>
    1ea0: 9d db 00     	sta	$db,x                   ; 0xdb <polyOPL3Buffer>
    1ea3: e6 ce        	inc	$ce                     ; 0xce <chipAct.4>
    1ea5: 4c f5 14     	jmp	$14f5 <f256main+0xc79>
    1ea8: e0 03        	cpx	#$3
    1eaa: a0 d5        	ldy	#$d5
    1eac: b0 02        	bcs	$1eb0 <f256main+0x1634>
    1eae: a0 d4        	ldy	#$d4
    1eb0: 84 16        	sty	$16                     ; 0x16 <__rc6>
    1eb2: b4 34        	ldy	$34,x                   ; 0x34 <sidChoiceToVoice>
    1eb4: 84 14        	sty	$14                     ; 0x14 <__rc4>
    1eb6: a4 2f        	ldy	$2f                     ; 0x2f <__rc31>
    1eb8: b9 d7 36     	lda	$36d7,y                 ; 0x36d7 <sid_instrument_defs+0x22>
    1ebb: 5a           	phy
    1ebc: a4 14        	ldy	$14                     ; 0x14 <__rc4>
    1ebe: 84 12        	sty	$12                     ; 0x12 <__rc2>
    1ec0: a4 16        	ldy	$16                     ; 0x16 <__rc6>
    1ec2: 84 13        	sty	$13                     ; 0x13 <__rc3>
    1ec4: 7a           	ply
    1ec5: 92 12        	sta	($12)                   ; 0x12 <__rc2>
    1ec7: b9 90 35     	lda	$3590,y                 ; 0x3590 <noteColors+0x59>
    1eca: 85 13        	sta	$13                     ; 0x13 <__rc3>
    1ecc: 84 18        	sty	$18                     ; 0x18 <__rc8>
    1ece: a5 14        	lda	$14                     ; 0x14 <__rc4>
    1ed0: a4 14        	ldy	$14                     ; 0x14 <__rc4>
    1ed2: 85 17        	sta	$17                     ; 0x17 <__rc7>
    1ed4: a5 16        	lda	$16                     ; 0x16 <__rc6>
    1ed6: 85 12        	sta	$12                     ; 0x12 <__rc2>
    1ed8: c8           	iny
    1ed9: d0 02        	bne	$1edd <f256main+0x1661>
    1edb: e6 12        	inc	$12                     ; 0x12 <__rc2>
    1edd: 84 14        	sty	$14                     ; 0x14 <__rc4>
    1edf: a4 12        	ldy	$12                     ; 0x12 <__rc2>
    1ee1: 84 15        	sty	$15                     ; 0x15 <__rc5>
    1ee3: a5 13        	lda	$13                     ; 0x13 <__rc3>
    1ee5: 92 14        	sta	($14)                   ; 0x14 <__rc4>
    1ee7: 18           	clc
    1ee8: a5 17        	lda	$17                     ; 0x17 <__rc7>
    1eea: 69 04        	adc	#$4
    1eec: 85 12        	sta	$12                     ; 0x12 <__rc2>
    1eee: a5 16        	lda	$16                     ; 0x16 <__rc6>
    1ef0: 69 00        	adc	#$0
    1ef2: 85 13        	sta	$13                     ; 0x13 <__rc3>
    1ef4: a5 e4        	lda	$e4                     ; 0xe4 <gPtr>
    1ef6: a4 e5        	ldy	$e5                     ; 0xe5 <gPtr+0x1>
    1ef8: 85 14        	sta	$14                     ; 0x14 <__rc4>
    1efa: 84 15        	sty	$15                     ; 0x15 <__rc5>
    1efc: 18           	clc
    1efd: 69 04        	adc	#$4
    1eff: 85 16        	sta	$16                     ; 0x16 <__rc6>
    1f01: 98           	tya
    1f02: 69 00        	adc	#$0
    1f04: 85 17        	sta	$17                     ; 0x17 <__rc7>
    1f06: a0 04        	ldy	#$4
    1f08: b1 14        	lda	($14),y                 ; 0x14 <__rc4>
    1f0a: 85 14        	sta	$14                     ; 0x14 <__rc4>
    1f0c: a0 01        	ldy	#$1
    1f0e: b1 16        	lda	($16),y                 ; 0x16 <__rc6>
    1f10: 85 15        	sta	$15                     ; 0x15 <__rc5>
    1f12: 98           	tya
    1f13: a0 05        	ldy	#$5
    1f15: 11 14        	ora	($14),y                 ; 0x14 <__rc4>
    1f17: 92 12        	sta	($12)                   ; 0x12 <__rc2>
    1f19: a5 18        	lda	$18                     ; 0x18 <__rc8>
    1f1b: 9d cf 00     	sta	$cf,x                   ; 0xcf <polySIDBuffer>
    1f1e: e6 cc        	inc	$cc                     ; 0xcc <chipAct.2>
    1f20: 4c bc 15     	jmp	$15bc <f256main+0xd40>
    1f23: b5 3a        	lda	$3a,x                   ; 0x3a <polyPSGChanBits>
    1f25: 85 12        	sta	$12                     ; 0x12 <__rc2>
    1f27: e0 03        	cpx	#$3
    1f29: 09 90        	ora	#$90
    1f2b: 85 13        	sta	$13                     ; 0x13 <__rc3>
    1f2d: a0 10        	ldy	#$10
    1f2f: 84 14        	sty	$14                     ; 0x14 <__rc4>
    1f31: a0 d6        	ldy	#$d6
    1f33: 84 15        	sty	$15                     ; 0x15 <__rc5>
    1f35: b0 08        	bcs	$1f3f <f256main+0x16c3>
    1f37: a0 00        	ldy	#$0
    1f39: 84 14        	sty	$14                     ; 0x14 <__rc4>
    1f3b: a0 d6        	ldy	#$d6
    1f3d: 84 15        	sty	$15                     ; 0x15 <__rc5>
    1f3f: a4 2f        	ldy	$2f                     ; 0x2f <__rc31>
    1f41: b9 08 36     	lda	$3608,y                 ; 0x3608 <sidHigh+0x6d>
    1f44: 85 17        	sta	$17                     ; 0x17 <__rc7>
    1f46: b9 48 36     	lda	$3648,y                 ; 0x3648 <psgLow+0x13>
    1f49: 85 16        	sta	$16                     ; 0x16 <__rc6>
    1f4b: a5 13        	lda	$13                     ; 0x13 <__rc3>
    1f4d: 92 14        	sta	($14)                   ; 0x14 <__rc4>
    1f4f: a5 17        	lda	$17                     ; 0x17 <__rc7>
    1f51: 05 12        	ora	$12                     ; 0x12 <__rc2>
    1f53: 92 14        	sta	($14)                   ; 0x14 <__rc4>
    1f55: a5 16        	lda	$16                     ; 0x16 <__rc6>
    1f57: 92 14        	sta	($14)                   ; 0x14 <__rc4>
    1f59: a5 2f        	lda	$2f                     ; 0x2f <__rc31>
    1f5b: 9d d5 00     	sta	$d5,x                   ; 0xd5 <polyPSGBuffer>
    1f5e: e6 cd        	inc	$cd                     ; 0xcd <chipAct.3>
    1f60: 4c bc 15     	jmp	$15bc <f256main+0xd40>
    1f63: a2 90        	ldx	#$90
    1f65: 8e a1 dd     	stx	$dda1                   ; 0xdda1 <end_block9+0xa4a7>
    1f68: a6 2f        	ldx	$2f                     ; 0x2f <__rc31>
    1f6a: 8e a1 dd     	stx	$dda1                   ; 0xdda1 <end_block9+0xa4a7>
    1f6d: a2 7f        	ldx	#$7f
    1f6f: 8e a1 dd     	stx	$dda1                   ; 0xdda1 <end_block9+0xa4a7>
    1f72: e6 ca        	inc	$ca                     ; 0xca <chipAct.0>
    1f74: 4c f5 14     	jmp	$14f5 <f256main+0xc79>
    1f77: a0 02        	ldy	#$2
    1f79: b1 10        	lda	($10),y                 ; 0x10 <__zp_data_size>
    1f7b: 85 12        	sta	$12                     ; 0x12 <__rc2>
    1f7d: a5 12        	lda	$12                     ; 0x12 <__rc2>
    1f7f: d0 03        	bne	$1f84 <f256main+0x1708>
    1f81: 4c 54 20     	jmp	$2054 <f256main+0x17d8>
    1f84: a5 c6        	lda	$c6                     ; 0xc6 <mX>
    1f86: a6 c7        	ldx	$c7                     ; 0xc7 <mX+0x1>
    1f88: 86 12        	stx	$12                     ; 0x12 <__rc2>
    1f8a: e0 80        	cpx	#$80
    1f8c: 66 12        	ror	$12                     ; 0x12 <__rc2>
    1f8e: 6a           	ror
    1f8f: 18           	clc
    1f90: 69 20        	adc	#$20
    1f92: a8           	tay
    1f93: a5 12        	lda	$12                     ; 0x12 <__rc2>
    1f95: 69 00        	adc	#$0
    1f97: 85 27        	sta	$27                     ; 0x27 <__rc23>
    1f99: a6 c8        	ldx	$c8                     ; 0xc8 <mY>
    1f9b: 86 12        	stx	$12                     ; 0x12 <__rc2>
    1f9d: a5 c9        	lda	$c9                     ; 0xc9 <mY+0x1>
    1f9f: c9 80        	cmp	#$80
    1fa1: 6a           	ror
    1fa2: aa           	tax
    1fa3: a5 12        	lda	$12                     ; 0x12 <__rc2>
    1fa5: 6a           	ror
    1fa6: 18           	clc
    1fa7: 69 20        	adc	#$20
    1fa9: 85 28        	sta	$28                     ; 0x28 <__rc24>
    1fab: 8a           	txa
    1fac: 69 00        	adc	#$0
    1fae: 85 29        	sta	$29                     ; 0x29 <__rc25>
    1fb0: a2 4f        	ldx	#$4f
    1fb2: 86 24        	stx	$24                     ; 0x24 <__rc20>
    1fb4: a2 37        	ldx	#$37
    1fb6: 86 25        	stx	$25                     ; 0x25 <__rc21>
    1fb8: a2 08        	ldx	#$8
    1fba: a5 24        	lda	$24                     ; 0x24 <__rc20>
    1fbc: 85 14        	sta	$14                     ; 0x14 <__rc4>
    1fbe: a5 25        	lda	$25                     ; 0x25 <__rc21>
    1fc0: 85 15        	sta	$15                     ; 0x15 <__rc5>
    1fc2: a5 28        	lda	$28                     ; 0x28 <__rc24>
    1fc4: 85 12        	sta	$12                     ; 0x12 <__rc2>
    1fc6: a5 29        	lda	$29                     ; 0x29 <__rc25>
    1fc8: 85 13        	sta	$13                     ; 0x13 <__rc3>
    1fca: 86 2a        	stx	$2a                     ; 0x2a <__rc26>
    1fcc: a6 27        	ldx	$27                     ; 0x27 <__rc23>
    1fce: 84 26        	sty	$26                     ; 0x26 <__rc22>
    1fd0: 98           	tya
    1fd1: 20 be 22     	jsr	$22be <checkUIEClick>
    1fd4: a6 2a        	ldx	$2a                     ; 0x2a <__rc26>
    1fd6: a5 24        	lda	$24                     ; 0x24 <__rc20>
    1fd8: 18           	clc
    1fd9: 69 15        	adc	#$15
    1fdb: 85 24        	sta	$24                     ; 0x24 <__rc20>
    1fdd: a5 25        	lda	$25                     ; 0x25 <__rc21>
    1fdf: 69 00        	adc	#$0
    1fe1: a4 26        	ldy	$26                     ; 0x26 <__rc22>
    1fe3: 85 25        	sta	$25                     ; 0x25 <__rc21>
    1fe5: ca           	dex
    1fe6: d0 d2        	bne	$1fba <f256main+0x173e>
    1fe8: a2 f7        	ldx	#$f7
    1fea: 86 24        	stx	$24                     ; 0x24 <__rc20>
    1fec: a2 37        	ldx	#$37
    1fee: 86 25        	stx	$25                     ; 0x25 <__rc21>
    1ff0: a2 04        	ldx	#$4
    1ff2: a4 24        	ldy	$24                     ; 0x24 <__rc20>
    1ff4: 84 14        	sty	$14                     ; 0x14 <__rc4>
    1ff6: a4 25        	ldy	$25                     ; 0x25 <__rc21>
    1ff8: 84 15        	sty	$15                     ; 0x15 <__rc5>
    1ffa: a4 28        	ldy	$28                     ; 0x28 <__rc24>
    1ffc: 84 12        	sty	$12                     ; 0x12 <__rc2>
    1ffe: a4 29        	ldy	$29                     ; 0x29 <__rc25>
    2000: 84 13        	sty	$13                     ; 0x13 <__rc3>
    2002: 86 2a        	stx	$2a                     ; 0x2a <__rc26>
    2004: a6 27        	ldx	$27                     ; 0x27 <__rc23>
    2006: a5 26        	lda	$26                     ; 0x26 <__rc22>
    2008: 20 be 22     	jsr	$22be <checkUIEClick>
    200b: a6 2a        	ldx	$2a                     ; 0x2a <__rc26>
    200d: a5 24        	lda	$24                     ; 0x24 <__rc20>
    200f: 18           	clc
    2010: 69 1c        	adc	#$1c
    2012: 85 24        	sta	$24                     ; 0x24 <__rc20>
    2014: a5 25        	lda	$25                     ; 0x25 <__rc21>
    2016: 69 00        	adc	#$0
    2018: 85 25        	sta	$25                     ; 0x25 <__rc21>
    201a: ca           	dex
    201b: d0 d5        	bne	$1ff2 <f256main+0x1776>
    201d: a2 8c        	ldx	#$8c
    201f: 86 24        	stx	$24                     ; 0x24 <__rc20>
    2021: a2 00        	ldx	#$0
    2023: 86 25        	stx	$25                     ; 0x25 <__rc21>
    2025: a2 04        	ldx	#$4
    2027: a4 24        	ldy	$24                     ; 0x24 <__rc20>
    2029: 84 14        	sty	$14                     ; 0x14 <__rc4>
    202b: a4 25        	ldy	$25                     ; 0x25 <__rc21>
    202d: 84 15        	sty	$15                     ; 0x15 <__rc5>
    202f: a4 28        	ldy	$28                     ; 0x28 <__rc24>
    2031: 84 12        	sty	$12                     ; 0x12 <__rc2>
    2033: a4 29        	ldy	$29                     ; 0x29 <__rc25>
    2035: 84 13        	sty	$13                     ; 0x13 <__rc3>
    2037: 86 2a        	stx	$2a                     ; 0x2a <__rc26>
    2039: a6 27        	ldx	$27                     ; 0x27 <__rc23>
    203b: a5 26        	lda	$26                     ; 0x26 <__rc22>
    203d: 20 be 22     	jsr	$22be <checkUIEClick>
    2040: a6 2a        	ldx	$2a                     ; 0x2a <__rc26>
    2042: a5 24        	lda	$24                     ; 0x24 <__rc20>
    2044: 18           	clc
    2045: 69 1c        	adc	#$1c
    2047: 85 24        	sta	$24                     ; 0x24 <__rc20>
    2049: a5 25        	lda	$25                     ; 0x25 <__rc21>
    204b: 69 00        	adc	#$0
    204d: 85 25        	sta	$25                     ; 0x25 <__rc21>
    204f: ca           	dex
    2050: d0 d5        	bne	$2027 <f256main+0x17ab>
    2052: a6 46        	ldx	$46                     ; 0x46 <kernelEventData+0x6>
    2054: 8a           	txa
    2055: 29 01        	and	#$1
    2057: a2 01        	ldx	#$1
    2059: a8           	tay
    205a: f0 02        	beq	$205e <f256main+0x17e2>
    205c: a2 00        	ldx	#$0
    205e: 8a           	txa
    205f: a0 02        	ldy	#$2
    2061: 91 10        	sta	($10),y                 ; 0x10 <__zp_data_size>
    2063: 8a           	txa
    2064: d0 03        	bne	$2069 <f256main+0x17ed>
    2066: 4c 50 14     	jmp	$1450 <f256main+0xbd4>
    2069: a5 c5        	lda	$c5                     ; 0xc5 <sliAct.0>
    206b: c9 ff        	cmp	#$ff
    206d: f0 3f        	beq	$20ae <f256main+0x1832>
    206f: 0a           	asl
    2070: 64 12        	stz	$12                     ; 0x12 <__rc2>
    2072: 26 12        	rol	$12                     ; 0x12 <__rc2>
    2074: 0a           	asl
    2075: 85 13        	sta	$13                     ; 0x13 <__rc3>
    2077: 26 12        	rol	$12                     ; 0x12 <__rc2>
    2079: 0a           	asl
    207a: a6 12        	ldx	$12                     ; 0x12 <__rc2>
    207c: 86 14        	stx	$14                     ; 0x14 <__rc4>
    207e: 26 14        	rol	$14                     ; 0x14 <__rc4>
    2080: 0a           	asl
    2081: 26 14        	rol	$14                     ; 0x14 <__rc4>
    2083: 0a           	asl
    2084: 26 14        	rol	$14                     ; 0x14 <__rc4>
    2086: 38           	sec
    2087: e5 13        	sbc	$13                     ; 0x13 <__rc3>
    2089: 85 13        	sta	$13                     ; 0x13 <__rc3>
    208b: a5 14        	lda	$14                     ; 0x14 <__rc4>
    208d: e5 12        	sbc	$12                     ; 0x12 <__rc2>
    208f: 85 12        	sta	$12                     ; 0x12 <__rc2>
    2091: a9 f7        	lda	#$f7
    2093: 18           	clc
    2094: 65 13        	adc	$13                     ; 0x13 <__rc3>
    2096: aa           	tax
    2097: a9 37        	lda	#$37
    2099: 65 12        	adc	$12                     ; 0x12 <__rc2>
    209b: 86 12        	stx	$12                     ; 0x12 <__rc2>
    209d: 85 13        	sta	$13                     ; 0x13 <__rc3>
    209f: a0 06        	ldy	#$6
    20a1: a9 00        	lda	#$0
    20a3: 91 12        	sta	($12),y                 ; 0x12 <__rc2>
    20a5: a2 ff        	ldx	#$ff
    20a7: 86 c5        	stx	$c5                     ; 0xc5 <sliAct.0>
    20a9: a2 01        	ldx	#$1
    20ab: 8e e0 d6     	stx	$d6e0                   ; 0xd6e0 <end_block9+0x9de6>
    20ae: a5 c4        	lda	$c4                     ; 0xc4 <diaAct.0>
    20b0: c9 ff        	cmp	#$ff
    20b2: d0 03        	bne	$20b7 <f256main+0x183b>
    20b4: 4c 50 14     	jmp	$1450 <f256main+0xbd4>
    20b7: 0a           	asl
    20b8: 64 12        	stz	$12                     ; 0x12 <__rc2>
    20ba: 26 12        	rol	$12                     ; 0x12 <__rc2>
    20bc: 0a           	asl
    20bd: 85 13        	sta	$13                     ; 0x13 <__rc3>
    20bf: 26 12        	rol	$12                     ; 0x12 <__rc2>
    20c1: 0a           	asl
    20c2: a6 12        	ldx	$12                     ; 0x12 <__rc2>
    20c4: 86 14        	stx	$14                     ; 0x14 <__rc4>
    20c6: 26 14        	rol	$14                     ; 0x14 <__rc4>
    20c8: 0a           	asl
    20c9: 26 14        	rol	$14                     ; 0x14 <__rc4>
    20cb: 0a           	asl
    20cc: 26 14        	rol	$14                     ; 0x14 <__rc4>
    20ce: 38           	sec
    20cf: e5 13        	sbc	$13                     ; 0x13 <__rc3>
    20d1: 85 13        	sta	$13                     ; 0x13 <__rc3>
    20d3: a5 14        	lda	$14                     ; 0x14 <__rc4>
    20d5: e5 12        	sbc	$12                     ; 0x12 <__rc2>
    20d7: 85 12        	sta	$12                     ; 0x12 <__rc2>
    20d9: a9 8c        	lda	#$8c
    20db: 18           	clc
    20dc: 65 13        	adc	$13                     ; 0x13 <__rc3>
    20de: aa           	tax
    20df: a9 00        	lda	#$0
    20e1: 65 12        	adc	$12                     ; 0x12 <__rc2>
    20e3: 86 12        	stx	$12                     ; 0x12 <__rc2>
    20e5: 85 13        	sta	$13                     ; 0x13 <__rc3>
    20e7: a0 06        	ldy	#$6
    20e9: a9 00        	lda	#$0
    20eb: 91 12        	sta	($12),y                 ; 0x12 <__rc2>
    20ed: a2 ff        	ldx	#$ff
    20ef: 86 c4        	stx	$c4                     ; 0xc4 <diaAct.0>
    20f1: a2 01        	ldx	#$1
    20f3: 8e e0 d6     	stx	$d6e0                   ; 0xd6e0 <end_block9+0x9de6>
    20f6: 4c 50 14     	jmp	$1450 <f256main+0xbd4>
    20f9: 64 12        	stz	$12                     ; 0x12 <__rc2>
    20fb: 5a           	phy
    20fc: a9 00        	lda	#$0
    20fe: a0 01        	ldy	#$1
    2100: 91 10        	sta	($10),y                 ; 0x10 <__zp_data_size>
    2102: a0 04        	ldy	#$4
    2104: 91 10        	sta	($10),y                 ; 0x10 <__zp_data_size>
    2106: 7a           	ply
    2107: 4c eb 15     	jmp	$15eb <f256main+0xd6f>
    210a: 64 12        	stz	$12                     ; 0x12 <__rc2>
    210c: e0 03        	cpx	#$3
    210e: b0 03        	bcs	$2113 <f256main+0x1897>
    2110: 4c 31 22     	jmp	$2231 <f256main+0x19b5>
    2113: a0 d5        	ldy	#$d5
    2115: 86 13        	stx	$13                     ; 0x13 <__rc3>
    2117: 4c 35 22     	jmp	$2235 <f256main+0x19b9>
    211a: 64 12        	stz	$12                     ; 0x12 <__rc2>
    211c: 74 d5        	stz	$d5,x                   ; 0xd5 <polyPSGBuffer>
    211e: b5 3a        	lda	$3a,x                   ; 0x3a <polyPSGChanBits>
    2120: e0 03        	cpx	#$3
    2122: a4 29        	ldy	$29                     ; 0x29 <__rc25>
    2124: b0 03        	bcs	$2129 <f256main+0x18ad>
    2126: 4c ea 21     	jmp	$21ea <f256main+0x196e>
    2129: a2 10        	ldx	#$10
    212b: 86 12        	stx	$12                     ; 0x12 <__rc2>
    212d: 4c ea 21     	jmp	$21ea <f256main+0x196e>
    2130: a2 ff        	ldx	#$ff
    2132: 86 2e        	stx	$2e                     ; 0x2e <__rc30>
    2134: a5 2f        	lda	$2f                     ; 0x2f <__rc31>
    2136: 18           	clc
    2137: 69 05        	adc	#$5
    2139: a8           	tay
    213a: a9 00        	lda	#$0
    213c: 69 00        	adc	#$0
    213e: 18           	clc
    213f: 48           	pha
    2140: a5 10        	lda	$10                     ; 0x10 <__zp_data_size>
    2142: 69 08        	adc	#$8
    2144: 85 24        	sta	$24                     ; 0x24 <__rc20>
    2146: a5 11        	lda	$11                     ; 0x11 <__rc1>
    2148: 69 00        	adc	#$0
    214a: 85 25        	sta	$25                     ; 0x25 <__rc21>
    214c: 68           	pla
    214d: a6 24        	ldx	$24                     ; 0x24 <__rc20>
    214f: 86 14        	stx	$14                     ; 0x14 <__rc4>
    2151: a6 25        	ldx	$25                     ; 0x25 <__rc21>
    2153: 86 15        	stx	$15                     ; 0x15 <__rc5>
    2155: a2 0c        	ldx	#$c
    2157: 86 12        	stx	$12                     ; 0x12 <__rc2>
    2159: 64 13        	stz	$13                     ; 0x13 <__rc3>
    215b: aa           	tax
    215c: 98           	tya
    215d: 20 da 33     	jsr	$33da <__udivmodhi4>
    2160: aa           	tax
    2161: b2 24        	lda	($24)                   ; 0x24 <__rc20>
    2163: 85 12        	sta	$12                     ; 0x12 <__rc2>
    2165: a0 01        	ldy	#$1
    2167: b1 24        	lda	($24),y                 ; 0x24 <__rc20>
    2169: 06 12        	asl	$12                     ; 0x12 <__rc2>
    216b: 2a           	rol
    216c: 85 13        	sta	$13                     ; 0x13 <__rc3>
    216e: a9 1d        	lda	#$1d
    2170: 18           	clc
    2171: 65 12        	adc	$12                     ; 0x12 <__rc2>
    2173: 85 12        	sta	$12                     ; 0x12 <__rc2>
    2175: a9 36        	lda	#$36
    2177: 65 13        	adc	$13                     ; 0x13 <__rc3>
    2179: 85 13        	sta	$13                     ; 0x13 <__rc3>
    217b: b2 12        	lda	($12)                   ; 0x12 <__rc2>
    217d: 85 14        	sta	$14                     ; 0x14 <__rc4>
    217f: b1 12        	lda	($12),y                 ; 0x12 <__rc2>
    2181: 85 12        	sta	$12                     ; 0x12 <__rc2>
    2183: 18           	clc
    2184: 8a           	txa
    2185: 69 3e        	adc	#$3e
    2187: aa           	tax
    2188: a5 2e        	lda	$2e                     ; 0x2e <__rc30>
    218a: 09 a0        	ora	#$a0
    218c: 8d 80 d5     	sta	$d580                   ; 0xd580 <end_block9+0x9c86>
    218f: a5 14        	lda	$14                     ; 0x14 <__rc4>
    2191: 8d 81 d5     	sta	$d581                   ; 0xd581 <end_block9+0x9c87>
    2194: a5 2e        	lda	$2e                     ; 0x2e <__rc30>
    2196: 09 b0        	ora	#$b0
    2198: 85 13        	sta	$13                     ; 0x13 <__rc3>
    219a: a5 12        	lda	$12                     ; 0x12 <__rc2>
    219c: 29 03        	and	#$3
    219e: 85 12        	sta	$12                     ; 0x12 <__rc2>
    21a0: 8a           	txa
    21a1: 0a           	asl
    21a2: a6 13        	ldx	$13                     ; 0x13 <__rc3>
    21a4: 8e 80 d5     	stx	$d580                   ; 0xd580 <end_block9+0x9c86>
    21a7: 0a           	asl
    21a8: 05 12        	ora	$12                     ; 0x12 <__rc2>
    21aa: 8d 81 d5     	sta	$d581                   ; 0xd581 <end_block9+0x9c87>
    21ad: a5 2e        	lda	$2e                     ; 0x2e <__rc30>
    21af: 10 06        	bpl	$21b7 <f256main+0x193b>
    21b1: a2 ff        	ldx	#$ff
    21b3: 86 12        	stx	$12                     ; 0x12 <__rc2>
    21b5: 80 02        	bra	$21b9 <f256main+0x193d>
    21b7: 64 12        	stz	$12                     ; 0x12 <__rc2>
    21b9: a4 29        	ldy	$29                     ; 0x29 <__rc25>
    21bb: a9 db        	lda	#$db
    21bd: 18           	clc
    21be: 65 2e        	adc	$2e                     ; 0x2e <__rc30>
    21c0: aa           	tax
    21c1: a9 00        	lda	#$0
    21c3: 65 12        	adc	$12                     ; 0x12 <__rc2>
    21c5: 86 12        	stx	$12                     ; 0x12 <__rc2>
    21c7: 85 13        	sta	$13                     ; 0x13 <__rc3>
    21c9: a9 00        	lda	#$0
    21cb: 92 12        	sta	($12)                   ; 0x12 <__rc2>
    21cd: a6 ce        	ldx	$ce                     ; 0xce <chipAct.4>
    21cf: d0 03        	bne	$21d4 <f256main+0x1958>
    21d1: 4c dc 15     	jmp	$15dc <f256main+0xd60>
    21d4: ca           	dex
    21d5: 86 ce        	stx	$ce                     ; 0xce <chipAct.4>
    21d7: 4c dc 15     	jmp	$15dc <f256main+0xd60>
    21da: a0 d4        	ldy	#$d4
    21dc: a2 ff        	ldx	#$ff
    21de: 86 13        	stx	$13                     ; 0x13 <__rc3>
    21e0: 86 12        	stx	$12                     ; 0x12 <__rc2>
    21e2: 80 51        	bra	$2235 <f256main+0x19b9>
    21e4: 64 12        	stz	$12                     ; 0x12 <__rc2>
    21e6: 64 d4        	stz	$d4                     ; 0xd4 <polySIDBuffer+0x5>
    21e8: a4 29        	ldy	$29                     ; 0x29 <__rc25>
    21ea: a2 d6        	ldx	#$d6
    21ec: 86 13        	stx	$13                     ; 0x13 <__rc3>
    21ee: 09 9f        	ora	#$9f
    21f0: 92 12        	sta	($12)                   ; 0x12 <__rc2>
    21f2: a6 cd        	ldx	$cd                     ; 0xcd <chipAct.3>
    21f4: d0 03        	bne	$21f9 <f256main+0x197d>
    21f6: 4c dc 15     	jmp	$15dc <f256main+0xd60>
    21f9: ca           	dex
    21fa: 86 cd        	stx	$cd                     ; 0xcd <chipAct.3>
    21fc: 4c dc 15     	jmp	$15dc <f256main+0xd60>
    21ff: a2 80        	ldx	#$80
    2201: 8e a1 dd     	stx	$dda1                   ; 0xdda1 <end_block9+0xa4a7>
    2204: a6 2f        	ldx	$2f                     ; 0x2f <__rc31>
    2206: 8e a1 dd     	stx	$dda1                   ; 0xdda1 <end_block9+0xa4a7>
    2209: a2 7f        	ldx	#$7f
    220b: 8e a1 dd     	stx	$dda1                   ; 0xdda1 <end_block9+0xa4a7>
    220e: a6 ca        	ldx	$ca                     ; 0xca <chipAct.0>
    2210: d0 03        	bne	$2215 <f256main+0x1999>
    2212: 4c dc 15     	jmp	$15dc <f256main+0xd60>
    2215: ca           	dex
    2216: 86 ca        	stx	$ca                     ; 0xca <chipAct.0>
    2218: 4c dc 15     	jmp	$15dc <f256main+0xd60>
    221b: 64 12        	stz	$12                     ; 0x12 <__rc2>
    221d: 5a           	phy
    221e: a9 00        	lda	#$0
    2220: a0 01        	ldy	#$1
    2222: 91 10        	sta	($10),y                 ; 0x10 <__zp_data_size>
    2224: 98           	tya
    2225: a0 04        	ldy	#$4
    2227: 91 10        	sta	($10),y                 ; 0x10 <__zp_data_size>
    2229: 7a           	ply
    222a: a5 16        	lda	$16                     ; 0x16 <__rc6>
    222c: 85 2f        	sta	$2f                     ; 0x2f <__rc31>
    222e: 4c eb 15     	jmp	$15eb <f256main+0xd6f>
    2231: 86 13        	stx	$13                     ; 0x13 <__rc3>
    2233: a0 d4        	ldy	#$d4
    2235: a9 34        	lda	#$34
    2237: 18           	clc
    2238: 65 13        	adc	$13                     ; 0x13 <__rc3>
    223a: 85 14        	sta	$14                     ; 0x14 <__rc4>
    223c: a9 00        	lda	#$0
    223e: 65 12        	adc	$12                     ; 0x12 <__rc2>
    2240: 85 15        	sta	$15                     ; 0x15 <__rc5>
    2242: b2 14        	lda	($14)                   ; 0x14 <__rc4>
    2244: 85 14        	sta	$14                     ; 0x14 <__rc4>
    2246: a9 cf        	lda	#$cf
    2248: 18           	clc
    2249: 65 13        	adc	$13                     ; 0x13 <__rc3>
    224b: aa           	tax
    224c: a9 00        	lda	#$0
    224e: 65 12        	adc	$12                     ; 0x12 <__rc2>
    2250: 86 12        	stx	$12                     ; 0x12 <__rc2>
    2252: 85 13        	sta	$13                     ; 0x13 <__rc3>
    2254: a9 00        	lda	#$0
    2256: 92 12        	sta	($12)                   ; 0x12 <__rc2>
    2258: a6 2f        	ldx	$2f                     ; 0x2f <__rc31>
    225a: bd d7 36     	lda	$36d7,x                 ; 0x36d7 <sid_instrument_defs+0x22>
    225d: 5a           	phy
    225e: a4 14        	ldy	$14                     ; 0x14 <__rc4>
    2260: 84 12        	sty	$12                     ; 0x12 <__rc2>
    2262: 7a           	ply
    2263: 84 13        	sty	$13                     ; 0x13 <__rc3>
    2265: 92 12        	sta	($12)                   ; 0x12 <__rc2>
    2267: bd 90 35     	lda	$3590,x                 ; 0x3590 <noteColors+0x59>
    226a: aa           	tax
    226b: 86 16        	stx	$16                     ; 0x16 <__rc6>
    226d: a6 14        	ldx	$14                     ; 0x14 <__rc4>
    226f: 84 15        	sty	$15                     ; 0x15 <__rc5>
    2271: e8           	inx
    2272: d0 01        	bne	$2275 <f256main+0x19f9>
    2274: c8           	iny
    2275: 86 12        	stx	$12                     ; 0x12 <__rc2>
    2277: 84 13        	sty	$13                     ; 0x13 <__rc3>
    2279: a5 16        	lda	$16                     ; 0x16 <__rc6>
    227b: 92 12        	sta	($12)                   ; 0x12 <__rc2>
    227d: 18           	clc
    227e: a5 14        	lda	$14                     ; 0x14 <__rc4>
    2280: 69 04        	adc	#$4
    2282: 85 12        	sta	$12                     ; 0x12 <__rc2>
    2284: a5 15        	lda	$15                     ; 0x15 <__rc5>
    2286: 69 00        	adc	#$0
    2288: 85 13        	sta	$13                     ; 0x13 <__rc3>
    228a: a5 e4        	lda	$e4                     ; 0xe4 <gPtr>
    228c: a6 e5        	ldx	$e5                     ; 0xe5 <gPtr+0x1>
    228e: 85 14        	sta	$14                     ; 0x14 <__rc4>
    2290: 86 15        	stx	$15                     ; 0x15 <__rc5>
    2292: 18           	clc
    2293: 69 04        	adc	#$4
    2295: 85 16        	sta	$16                     ; 0x16 <__rc6>
    2297: 8a           	txa
    2298: 69 00        	adc	#$0
    229a: 85 17        	sta	$17                     ; 0x17 <__rc7>
    229c: a0 04        	ldy	#$4
    229e: b1 14        	lda	($14),y                 ; 0x14 <__rc4>
    22a0: 85 14        	sta	$14                     ; 0x14 <__rc4>
    22a2: a0 01        	ldy	#$1
    22a4: b1 16        	lda	($16),y                 ; 0x16 <__rc6>
    22a6: 85 15        	sta	$15                     ; 0x15 <__rc5>
    22a8: a9 fe        	lda	#$fe
    22aa: a0 05        	ldy	#$5
    22ac: 31 14        	and	($14),y                 ; 0x14 <__rc4>
    22ae: 92 12        	sta	($12)                   ; 0x12 <__rc2>
    22b0: a6 cc        	ldx	$cc                     ; 0xcc <chipAct.2>
    22b2: f0 03        	beq	$22b7 <f256main+0x1a3b>
    22b4: ca           	dex
    22b5: 86 cc        	stx	$cc                     ; 0xcc <chipAct.2>
    22b7: 64 12        	stz	$12                     ; 0x12 <__rc2>
    22b9: a9 00        	lda	#$0
    22bb: 4c b2 15     	jmp	$15b2 <f256main+0xd36>

000022be <checkUIEClick>:
    22be: 85 16        	sta	$16                     ; 0x16 <__rc6>
    22c0: 86 17        	stx	$17                     ; 0x17 <__rc7>
    22c2: a6 14        	ldx	$14                     ; 0x14 <__rc4>
    22c4: 86 18        	stx	$18                     ; 0x18 <__rc8>
    22c6: a6 15        	ldx	$15                     ; 0x15 <__rc5>
    22c8: 86 19        	stx	$19                     ; 0x19 <__rc9>
    22ca: e6 18        	inc	$18                     ; 0x18 <__rc8>
    22cc: d0 02        	bne	$22d0 <checkUIEClick+0x12>
    22ce: e6 19        	inc	$19                     ; 0x19 <__rc9>
    22d0: a0 01        	ldy	#$1
    22d2: b1 14        	lda	($14),y                 ; 0x14 <__rc4>
    22d4: 85 1a        	sta	$1a                     ; 0x1a <__rc10>
    22d6: b1 18        	lda	($18),y                 ; 0x18 <__rc8>
    22d8: aa           	tax
    22d9: a0 0e        	ldy	#$e
    22db: 18           	clc
    22dc: a5 1a        	lda	$1a                     ; 0x1a <__rc10>
    22de: 85 19        	sta	$19                     ; 0x19 <__rc9>
    22e0: 71 14        	adc	($14),y                 ; 0x14 <__rc4>
    22e2: a8           	tay
    22e3: 8a           	txa
    22e4: 86 1a        	stx	$1a                     ; 0x1a <__rc10>
    22e6: 69 00        	adc	#$0
    22e8: 85 18        	sta	$18                     ; 0x18 <__rc8>
    22ea: a6 17        	ldx	$17                     ; 0x17 <__rc7>
    22ec: e4 18        	cpx	$18                     ; 0x18 <__rc8>
    22ee: d0 06        	bne	$22f6 <checkUIEClick+0x38>
    22f0: 84 18        	sty	$18                     ; 0x18 <__rc8>
    22f2: a6 16        	ldx	$16                     ; 0x16 <__rc6>
    22f4: 80 02        	bra	$22f8 <checkUIEClick+0x3a>
    22f6: a6 17        	ldx	$17                     ; 0x17 <__rc7>
    22f8: e4 18        	cpx	$18                     ; 0x18 <__rc8>
    22fa: b0 01        	bcs	$22fd <checkUIEClick+0x3f>
    22fc: 60           	rts
    22fd: a0 0f        	ldy	#$f
    22ff: 18           	clc
    2300: a5 19        	lda	$19                     ; 0x19 <__rc9>
    2302: 71 14        	adc	($14),y                 ; 0x14 <__rc4>
    2304: aa           	tax
    2305: a5 1a        	lda	$1a                     ; 0x1a <__rc10>
    2307: 69 00        	adc	#$0
    2309: c5 17        	cmp	$17                     ; 0x17 <__rc7>
    230b: d0 06        	bne	$2313 <checkUIEClick+0x55>
    230d: e4 16        	cpx	$16                     ; 0x16 <__rc6>
    230f: 90 eb        	bcc	$22fc <checkUIEClick+0x3e>
    2311: 80 04        	bra	$2317 <checkUIEClick+0x59>
    2313: c5 17        	cmp	$17                     ; 0x17 <__rc7>
    2315: 90 e5        	bcc	$22fc <checkUIEClick+0x3e>
    2317: a0 03        	ldy	#$3
    2319: a5 14        	lda	$14                     ; 0x14 <__rc4>
    231b: 18           	clc
    231c: 69 03        	adc	#$3
    231e: 85 16        	sta	$16                     ; 0x16 <__rc6>
    2320: a5 15        	lda	$15                     ; 0x15 <__rc5>
    2322: 69 00        	adc	#$0
    2324: 85 17        	sta	$17                     ; 0x17 <__rc7>
    2326: b1 14        	lda	($14),y                 ; 0x14 <__rc4>
    2328: 85 18        	sta	$18                     ; 0x18 <__rc8>
    232a: a0 01        	ldy	#$1
    232c: b1 16        	lda	($16),y                 ; 0x16 <__rc6>
    232e: aa           	tax
    232f: a0 10        	ldy	#$10
    2331: a5 18        	lda	$18                     ; 0x18 <__rc8>
    2333: 85 17        	sta	$17                     ; 0x17 <__rc7>
    2335: 18           	clc
    2336: 71 14        	adc	($14),y                 ; 0x14 <__rc4>
    2338: a8           	tay
    2339: 8a           	txa
    233a: 86 18        	stx	$18                     ; 0x18 <__rc8>
    233c: 69 00        	adc	#$0
    233e: 85 16        	sta	$16                     ; 0x16 <__rc6>
    2340: a6 13        	ldx	$13                     ; 0x13 <__rc3>
    2342: e4 16        	cpx	$16                     ; 0x16 <__rc6>
    2344: d0 06        	bne	$234c <checkUIEClick+0x8e>
    2346: 84 16        	sty	$16                     ; 0x16 <__rc6>
    2348: a6 12        	ldx	$12                     ; 0x12 <__rc2>
    234a: 80 02        	bra	$234e <checkUIEClick+0x90>
    234c: a6 13        	ldx	$13                     ; 0x13 <__rc3>
    234e: e4 16        	cpx	$16                     ; 0x16 <__rc6>
    2350: b0 03        	bcs	$2355 <checkUIEClick+0x97>
    2352: 4c fc 22     	jmp	$22fc <checkUIEClick+0x3e>
    2355: a0 11        	ldy	#$11
    2357: 18           	clc
    2358: a5 17        	lda	$17                     ; 0x17 <__rc7>
    235a: 71 14        	adc	($14),y                 ; 0x14 <__rc4>
    235c: aa           	tax
    235d: a5 18        	lda	$18                     ; 0x18 <__rc8>
    235f: 69 00        	adc	#$0
    2361: c5 13        	cmp	$13                     ; 0x13 <__rc3>
    2363: d0 07        	bne	$236c <checkUIEClick+0xae>
    2365: e4 12        	cpx	$12                     ; 0x12 <__rc2>
    2367: b0 0a        	bcs	$2373 <checkUIEClick+0xb5>
    2369: 4c fc 22     	jmp	$22fc <checkUIEClick+0x3e>
    236c: c5 13        	cmp	$13                     ; 0x13 <__rc3>
    236e: b0 03        	bcs	$2373 <checkUIEClick+0xb5>
    2370: 4c fc 22     	jmp	$22fc <checkUIEClick+0x3e>
    2373: a0 12        	ldy	#$12
    2375: b1 14        	lda	($14),y                 ; 0x14 <__rc4>
    2377: 18           	clc
    2378: 85 ea        	sta	$ea                     ; 0xea <__zp_bss_size+0x44>
    237a: 69 e8        	adc	#$e8
    237c: 85 e8        	sta	$e8                     ; 0xe8 <__zp_bss_size+0x42>
    237e: c9 0e        	cmp	#$e
    2380: a6 14        	ldx	$14                     ; 0x14 <__rc4>
    2382: 86 12        	stx	$12                     ; 0x12 <__rc2>
    2384: a6 15        	ldx	$15                     ; 0x15 <__rc5>
    2386: 86 13        	stx	$13                     ; 0x13 <__rc3>
    2388: a6 12        	ldx	$12                     ; 0x12 <__rc2>
    238a: 86 e6        	stx	$e6                     ; 0xe6 <__zp_bss_size+0x40>
    238c: a6 13        	ldx	$13                     ; 0x13 <__rc3>
    238e: 86 e7        	stx	$e7                     ; 0xe7 <__zp_bss_size+0x41>
    2390: 90 03        	bcc	$2395 <checkUIEClick+0xd7>
    2392: 4c fd 23     	jmp	$23fd <checkUIEClick+0x13f>
    2395: a9 01        	lda	#$1
    2397: a2 00        	ldx	#$0
    2399: a4 e8        	ldy	$e8                     ; 0xe8 <__zp_bss_size+0x42>
    239b: 84 12        	sty	$12                     ; 0x12 <__rc2>
    239d: 20 d5 32     	jsr	$32d5 <__ashlhi3>
    23a0: a6 e6        	ldx	$e6                     ; 0xe6 <__zp_bss_size+0x40>
    23a2: 86 14        	stx	$14                     ; 0x14 <__rc4>
    23a4: a6 e7        	ldx	$e7                     ; 0xe7 <__zp_bss_size+0x41>
    23a6: 86 15        	stx	$15                     ; 0x15 <__rc5>
    23a8: 29 0f        	and	#$f
    23aa: f0 03        	beq	$23af <checkUIEClick+0xf1>
    23ac: 4c 06 24     	jmp	$2406 <checkUIEClick+0x148>
    23af: a9 01        	lda	#$1
    23b1: a2 00        	ldx	#$0
    23b3: a4 e8        	ldy	$e8                     ; 0xe8 <__zp_bss_size+0x42>
    23b5: 84 12        	sty	$12                     ; 0x12 <__rc2>
    23b7: 20 d5 32     	jsr	$32d5 <__ashlhi3>
    23ba: 29 f0        	and	#$f0
    23bc: f0 16        	beq	$23d4 <checkUIEClick+0x116>
    23be: a0 06        	ldy	#$6
    23c0: a6 e6        	ldx	$e6                     ; 0xe6 <__zp_bss_size+0x40>
    23c2: 86 12        	stx	$12                     ; 0x12 <__rc2>
    23c4: a6 e7        	ldx	$e7                     ; 0xe7 <__zp_bss_size+0x41>
    23c6: 86 13        	stx	$13                     ; 0x13 <__rc3>
    23c8: a9 01        	lda	#$1
    23ca: 91 12        	sta	($12),y                 ; 0x12 <__rc2>
    23cc: a0 0c        	ldy	#$c
    23ce: b1 12        	lda	($12),y                 ; 0x12 <__rc2>
    23d0: 85 c5        	sta	$c5                     ; 0xc5 <sliAct.0>
    23d2: 80 25        	bra	$23f9 <checkUIEClick+0x13b>
    23d4: a9 01        	lda	#$1
    23d6: a2 00        	ldx	#$0
    23d8: a4 e8        	ldy	$e8                     ; 0xe8 <__zp_bss_size+0x42>
    23da: 84 12        	sty	$12                     ; 0x12 <__rc2>
    23dc: 20 d5 32     	jsr	$32d5 <__ashlhi3>
    23df: 8a           	txa
    23e0: 29 30        	and	#$30
    23e2: a6 e6        	ldx	$e6                     ; 0xe6 <__zp_bss_size+0x40>
    23e4: 86 14        	stx	$14                     ; 0x14 <__rc4>
    23e6: a6 e7        	ldx	$e7                     ; 0xe7 <__zp_bss_size+0x41>
    23e8: 86 15        	stx	$15                     ; 0x15 <__rc5>
    23ea: aa           	tax
    23eb: f0 10        	beq	$23fd <checkUIEClick+0x13f>
    23ed: a0 06        	ldy	#$6
    23ef: a9 01        	lda	#$1
    23f1: 91 14        	sta	($14),y                 ; 0x14 <__rc4>
    23f3: a0 0c        	ldy	#$c
    23f5: b1 14        	lda	($14),y                 ; 0x14 <__rc4>
    23f7: 85 c4        	sta	$c4                     ; 0xc4 <diaAct.0>
    23f9: 9c e0 d6     	stz	$d6e0                   ; 0xd6e0 <end_block9+0x9de6>
    23fc: 60           	rts
    23fd: a6 ea        	ldx	$ea                     ; 0xea <__zp_bss_size+0x44>
    23ff: e0 04        	cpx	#$4
    2401: 90 03        	bcc	$2406 <checkUIEClick+0x148>
    2403: 4c fc 22     	jmp	$22fc <checkUIEClick+0x3e>
    2406: a0 06        	ldy	#$6
    2408: b1 14        	lda	($14),y                 ; 0x14 <__rc4>
    240a: a2 01        	ldx	#$1
    240c: c9 00        	cmp	#$0
    240e: f0 02        	beq	$2412 <checkUIEClick+0x154>
    2410: a2 00        	ldx	#$0
    2412: 8a           	txa
    2413: f0 04        	beq	$2419 <checkUIEClick+0x15b>
    2415: a9 01        	lda	#$1
    2417: 80 02        	bra	$241b <checkUIEClick+0x15d>
    2419: a9 00        	lda	#$0
    241b: 91 14        	sta	($14),y                 ; 0x14 <__rc4>
    241d: a0 0c        	ldy	#$c
    241f: b1 14        	lda	($14),y                 ; 0x14 <__rc4>
    2421: a2 15        	ldx	#$15
    2423: 86 12        	stx	$12                     ; 0x12 <__rc2>
    2425: 64 13        	stz	$13                     ; 0x13 <__rc3>
    2427: a2 00        	ldx	#$0
    2429: 20 e8 32     	jsr	$32e8 <__mulhi3>
    242c: 85 12        	sta	$12                     ; 0x12 <__rc2>
    242e: 86 13        	stx	$13                     ; 0x13 <__rc3>
    2430: a9 4f        	lda	#$4f
    2432: 18           	clc
    2433: 65 12        	adc	$12                     ; 0x12 <__rc2>
    2435: 85 12        	sta	$12                     ; 0x12 <__rc2>
    2437: a9 37        	lda	#$37
    2439: 65 13        	adc	$13                     ; 0x13 <__rc3>
    243b: 85 13        	sta	$13                     ; 0x13 <__rc3>
    243d: 20 f5 29     	jsr	$29f5 <updateRadioB>
    2440: a6 e6        	ldx	$e6                     ; 0xe6 <__zp_bss_size+0x40>
    2442: 86 12        	stx	$12                     ; 0x12 <__rc2>
    2444: a6 e7        	ldx	$e7                     ; 0xe7 <__zp_bss_size+0x41>
    2446: 86 13        	stx	$13                     ; 0x13 <__rc3>
    2448: a0 06        	ldy	#$6
    244a: b1 12        	lda	($12),y                 ; 0x12 <__rc2>
    244c: d0 03        	bne	$2451 <checkUIEClick+0x193>
    244e: 4c 3b 25     	jmp	$253b <checkUIEClick+0x27d>
    2451: a0 0c        	ldy	#$c
    2453: b1 12        	lda	($12),y                 ; 0x12 <__rc2>
    2455: a2 15        	ldx	#$15
    2457: 86 12        	stx	$12                     ; 0x12 <__rc2>
    2459: 64 13        	stz	$13                     ; 0x13 <__rc3>
    245b: a2 00        	ldx	#$0
    245d: 20 e8 32     	jsr	$32e8 <__mulhi3>
    2460: a4 e6        	ldy	$e6                     ; 0xe6 <__zp_bss_size+0x40>
    2462: 84 12        	sty	$12                     ; 0x12 <__rc2>
    2464: a4 e7        	ldy	$e7                     ; 0xe7 <__zp_bss_size+0x41>
    2466: 84 13        	sty	$13                     ; 0x13 <__rc3>
    2468: 85 14        	sta	$14                     ; 0x14 <__rc4>
    246a: 86 15        	stx	$15                     ; 0x15 <__rc5>
    246c: a9 4f        	lda	#$4f
    246e: 18           	clc
    246f: 65 14        	adc	$14                     ; 0x14 <__rc4>
    2471: 85 14        	sta	$14                     ; 0x14 <__rc4>
    2473: a9 37        	lda	#$37
    2475: 65 15        	adc	$15                     ; 0x15 <__rc5>
    2477: 85 15        	sta	$15                     ; 0x15 <__rc5>
    2479: a0 13        	ldy	#$13
    247b: b1 14        	lda	($14),y                 ; 0x14 <__rc4>
    247d: d0 03        	bne	$2482 <checkUIEClick+0x1c4>
    247f: 4c 3b 25     	jmp	$253b <checkUIEClick+0x27d>
    2482: a2 4f        	ldx	#$4f
    2484: 86 14        	stx	$14                     ; 0x14 <__rc4>
    2486: a2 37        	ldx	#$37
    2488: 86 15        	stx	$15                     ; 0x15 <__rc5>
    248a: a2 00        	ldx	#$0
    248c: 80 3c        	bra	$24ca <checkUIEClick+0x20c>
    248e: a9 00        	lda	#$0
    2490: 91 14        	sta	($14),y                 ; 0x14 <__rc4>
    2492: a6 e8        	ldx	$e8                     ; 0xe8 <__zp_bss_size+0x42>
    2494: 86 12        	stx	$12                     ; 0x12 <__rc2>
    2496: a6 e9        	ldx	$e9                     ; 0xe9 <__zp_bss_size+0x43>
    2498: 86 13        	stx	$13                     ; 0x13 <__rc3>
    249a: 20 f5 29     	jsr	$29f5 <updateRadioB>
    249d: a6 e8        	ldx	$e8                     ; 0xe8 <__zp_bss_size+0x42>
    249f: 86 12        	stx	$12                     ; 0x12 <__rc2>
    24a1: a6 e9        	ldx	$e9                     ; 0xe9 <__zp_bss_size+0x43>
    24a3: 86 13        	stx	$13                     ; 0x13 <__rc3>
    24a5: a4 12        	ldy	$12                     ; 0x12 <__rc2>
    24a7: 84 14        	sty	$14                     ; 0x14 <__rc4>
    24a9: 86 15        	stx	$15                     ; 0x15 <__rc5>
    24ab: a6 e6        	ldx	$e6                     ; 0xe6 <__zp_bss_size+0x40>
    24ad: 86 12        	stx	$12                     ; 0x12 <__rc2>
    24af: a6 e7        	ldx	$e7                     ; 0xe7 <__zp_bss_size+0x41>
    24b1: 86 13        	stx	$13                     ; 0x13 <__rc3>
    24b3: a6 ea        	ldx	$ea                     ; 0xea <__zp_bss_size+0x44>
    24b5: e8           	inx
    24b6: a5 14        	lda	$14                     ; 0x14 <__rc4>
    24b8: 18           	clc
    24b9: 69 15        	adc	#$15
    24bb: 85 14        	sta	$14                     ; 0x14 <__rc4>
    24bd: a5 15        	lda	$15                     ; 0x15 <__rc5>
    24bf: 69 00        	adc	#$0
    24c1: 85 15        	sta	$15                     ; 0x15 <__rc5>
    24c3: e0 08        	cpx	#$8
    24c5: d0 03        	bne	$24ca <checkUIEClick+0x20c>
    24c7: 4c 3b 25     	jmp	$253b <checkUIEClick+0x27d>
    24ca: a0 0c        	ldy	#$c
    24cc: b1 12        	lda	($12),y                 ; 0x12 <__rc2>
    24ce: 85 16        	sta	$16                     ; 0x16 <__rc6>
    24d0: e4 16        	cpx	$16                     ; 0x16 <__rc6>
    24d2: f0 e1        	beq	$24b5 <checkUIEClick+0x1f7>
    24d4: a0 13        	ldy	#$13
    24d6: b1 14        	lda	($14),y                 ; 0x14 <__rc4>
    24d8: f0 db        	beq	$24b5 <checkUIEClick+0x1f7>
    24da: a4 14        	ldy	$14                     ; 0x14 <__rc4>
    24dc: 84 12        	sty	$12                     ; 0x12 <__rc2>
    24de: a4 15        	ldy	$15                     ; 0x15 <__rc5>
    24e0: 84 13        	sty	$13                     ; 0x13 <__rc3>
    24e2: 86 ea        	stx	$ea                     ; 0xea <__zp_bss_size+0x44>
    24e4: a6 12        	ldx	$12                     ; 0x12 <__rc2>
    24e6: 86 e8        	stx	$e8                     ; 0xe8 <__zp_bss_size+0x42>
    24e8: a6 13        	ldx	$13                     ; 0x13 <__rc3>
    24ea: 86 e9        	stx	$e9                     ; 0xe9 <__zp_bss_size+0x43>
    24ec: a2 15        	ldx	#$15
    24ee: 86 12        	stx	$12                     ; 0x12 <__rc2>
    24f0: 64 13        	stz	$13                     ; 0x13 <__rc3>
    24f2: a2 00        	ldx	#$0
    24f4: a5 16        	lda	$16                     ; 0x16 <__rc6>
    24f6: 20 e8 32     	jsr	$32e8 <__mulhi3>
    24f9: a4 e8        	ldy	$e8                     ; 0xe8 <__zp_bss_size+0x42>
    24fb: 84 12        	sty	$12                     ; 0x12 <__rc2>
    24fd: a4 e9        	ldy	$e9                     ; 0xe9 <__zp_bss_size+0x43>
    24ff: 84 13        	sty	$13                     ; 0x13 <__rc3>
    2501: 48           	pha
    2502: a5 12        	lda	$12                     ; 0x12 <__rc2>
    2504: 85 14        	sta	$14                     ; 0x14 <__rc4>
    2506: 68           	pla
    2507: 84 15        	sty	$15                     ; 0x15 <__rc5>
    2509: a4 e6        	ldy	$e6                     ; 0xe6 <__zp_bss_size+0x40>
    250b: 84 12        	sty	$12                     ; 0x12 <__rc2>
    250d: a4 e7        	ldy	$e7                     ; 0xe7 <__zp_bss_size+0x41>
    250f: 84 13        	sty	$13                     ; 0x13 <__rc3>
    2511: 85 16        	sta	$16                     ; 0x16 <__rc6>
    2513: 86 17        	stx	$17                     ; 0x17 <__rc7>
    2515: a6 ea        	ldx	$ea                     ; 0xea <__zp_bss_size+0x44>
    2517: a9 4f        	lda	#$4f
    2519: 18           	clc
    251a: 65 16        	adc	$16                     ; 0x16 <__rc6>
    251c: 85 16        	sta	$16                     ; 0x16 <__rc6>
    251e: a9 37        	lda	#$37
    2520: 65 17        	adc	$17                     ; 0x17 <__rc7>
    2522: 85 17        	sta	$17                     ; 0x17 <__rc7>
    2524: a0 14        	ldy	#$14
    2526: b1 16        	lda	($16),y                 ; 0x16 <__rc6>
    2528: d1 14        	cmp	($14),y                 ; 0x14 <__rc4>
    252a: f0 03        	beq	$252f <checkUIEClick+0x271>
    252c: 4c b5 24     	jmp	$24b5 <checkUIEClick+0x1f7>
    252f: a0 06        	ldy	#$6
    2531: b1 14        	lda	($14),y                 ; 0x14 <__rc4>
    2533: f0 03        	beq	$2538 <checkUIEClick+0x27a>
    2535: 4c 8e 24     	jmp	$248e <checkUIEClick+0x1d0>
    2538: 4c b5 24     	jmp	$24b5 <checkUIEClick+0x1f7>
    253b: a0 12        	ldy	#$12
    253d: b1 12        	lda	($12),y                 ; 0x12 <__rc2>
    253f: c9 04        	cmp	#$4
    2541: b0 0d        	bcs	$2550 <checkUIEClick+0x292>
    2543: a6 e4        	ldx	$e4                     ; 0xe4 <gPtr>
    2545: a4 e5        	ldy	$e5                     ; 0xe5 <gPtr+0x1>
    2547: 86 12        	stx	$12                     ; 0x12 <__rc2>
    2549: 84 13        	sty	$13                     ; 0x13 <__rc3>
    254b: a0 03        	ldy	#$3
    254d: 91 12        	sta	($12),y                 ; 0x12 <__rc2>
    254f: 60           	rts
    2550: 18           	clc
    2551: 69 e8        	adc	#$e8
    2553: c9 04        	cmp	#$4
    2555: 90 03        	bcc	$255a <checkUIEClick+0x29c>
    2557: 4c fc 22     	jmp	$22fc <checkUIEClick+0x3e>
    255a: aa           	tax
    255b: a5 e4        	lda	$e4                     ; 0xe4 <gPtr>
    255d: a4 e5        	ldy	$e5                     ; 0xe5 <gPtr+0x1>
    255f: 84 14        	sty	$14                     ; 0x14 <__rc4>
    2561: 85 12        	sta	$12                     ; 0x12 <__rc2>
    2563: 84 13        	sty	$13                     ; 0x13 <__rc3>
    2565: a0 04        	ldy	#$4
    2567: 18           	clc
    2568: 69 04        	adc	#$4
    256a: 85 16        	sta	$16                     ; 0x16 <__rc6>
    256c: a5 14        	lda	$14                     ; 0x14 <__rc4>
    256e: 69 00        	adc	#$0
    2570: 5a           	phy
    2571: a4 16        	ldy	$16                     ; 0x16 <__rc6>
    2573: 84 14        	sty	$14                     ; 0x14 <__rc4>
    2575: 7a           	ply
    2576: 85 15        	sta	$15                     ; 0x15 <__rc5>
    2578: b1 12        	lda	($12),y                 ; 0x12 <__rc2>
    257a: 85 12        	sta	$12                     ; 0x12 <__rc2>
    257c: a0 01        	ldy	#$1
    257e: b1 14        	lda	($14),y                 ; 0x14 <__rc4>
    2580: 85 13        	sta	$13                     ; 0x13 <__rc3>
    2582: a9 0f        	lda	#$f
    2584: a0 05        	ldy	#$5
    2586: 31 12        	and	($12),y                 ; 0x12 <__rc2>
    2588: 15 30        	ora	$30,x                   ; 0x30 <__zp_data_start>
    258a: 91 12        	sta	($12),y                 ; 0x12 <__rc2>
    258c: a2 f1        	ldx	#$f1
    258e: a0 38        	ldy	#$38
    2590: 86 12        	stx	$12                     ; 0x12 <__rc2>
    2592: 84 13        	sty	$13                     ; 0x13 <__rc3>
    2594: a2 00        	ldx	#$0
    2596: 86 e8        	stx	$e8                     ; 0xe8 <__zp_bss_size+0x42>
    2598: a5 e4        	lda	$e4                     ; 0xe4 <gPtr>
    259a: a6 e5        	ldx	$e5                     ; 0xe5 <gPtr+0x1>
    259c: 85 14        	sta	$14                     ; 0x14 <__rc4>
    259e: 86 15        	stx	$15                     ; 0x15 <__rc5>
    25a0: 18           	clc
    25a1: 69 04        	adc	#$4
    25a3: 85 16        	sta	$16                     ; 0x16 <__rc6>
    25a5: 8a           	txa
    25a6: 69 00        	adc	#$0
    25a8: 85 17        	sta	$17                     ; 0x17 <__rc7>
    25aa: a0 04        	ldy	#$4
    25ac: b1 14        	lda	($14),y                 ; 0x14 <__rc4>
    25ae: 85 14        	sta	$14                     ; 0x14 <__rc4>
    25b0: a0 01        	ldy	#$1
    25b2: b1 16        	lda	($16),y                 ; 0x16 <__rc6>
    25b4: 85 15        	sta	$15                     ; 0x15 <__rc5>
    25b6: a6 12        	ldx	$12                     ; 0x12 <__rc2>
    25b8: 86 16        	stx	$16                     ; 0x16 <__rc6>
    25ba: a6 13        	ldx	$13                     ; 0x13 <__rc3>
    25bc: 86 17        	stx	$17                     ; 0x17 <__rc7>
    25be: a6 12        	ldx	$12                     ; 0x12 <__rc2>
    25c0: 86 18        	stx	$18                     ; 0x18 <__rc8>
    25c2: a6 13        	ldx	$13                     ; 0x13 <__rc3>
    25c4: 86 19        	stx	$19                     ; 0x19 <__rc9>
    25c6: a6 18        	ldx	$18                     ; 0x18 <__rc8>
    25c8: 86 e6        	stx	$e6                     ; 0xe6 <__zp_bss_size+0x40>
    25ca: a6 19        	ldx	$19                     ; 0x19 <__rc9>
    25cc: 86 e7        	stx	$e7                     ; 0xe7 <__zp_bss_size+0x41>
    25ce: a6 16        	ldx	$16                     ; 0x16 <__rc6>
    25d0: 86 e6        	stx	$e6                     ; 0xe6 <__zp_bss_size+0x40>
    25d2: a6 17        	ldx	$17                     ; 0x17 <__rc7>
    25d4: 86 e7        	stx	$e7                     ; 0xe7 <__zp_bss_size+0x41>
    25d6: a2 00        	ldx	#$0
    25d8: a9 09        	lda	#$9
    25da: 20 89 32     	jsr	$3289 <memcpy>
    25dd: a6 e6        	ldx	$e6                     ; 0xe6 <__zp_bss_size+0x40>
    25df: 86 12        	stx	$12                     ; 0x12 <__rc2>
    25e1: a6 e7        	ldx	$e7                     ; 0xe7 <__zp_bss_size+0x41>
    25e3: 86 13        	stx	$13                     ; 0x13 <__rc3>
    25e5: a6 e8        	ldx	$e8                     ; 0xe8 <__zp_bss_size+0x42>
    25e7: 86 e8        	stx	$e8                     ; 0xe8 <__zp_bss_size+0x42>
    25e9: a9 00        	lda	#$0
    25eb: 20 46 2f     	jsr	$2f46 <sid_setInstrument>
    25ee: a5 e4        	lda	$e4                     ; 0xe4 <gPtr>
    25f0: a6 e5        	ldx	$e5                     ; 0xe5 <gPtr+0x1>
    25f2: 85 12        	sta	$12                     ; 0x12 <__rc2>
    25f4: 86 13        	stx	$13                     ; 0x13 <__rc3>
    25f6: 18           	clc
    25f7: 69 04        	adc	#$4
    25f9: 85 14        	sta	$14                     ; 0x14 <__rc4>
    25fb: 8a           	txa
    25fc: 69 00        	adc	#$0
    25fe: 85 15        	sta	$15                     ; 0x15 <__rc5>
    2600: a0 04        	ldy	#$4
    2602: b1 12        	lda	($12),y                 ; 0x12 <__rc2>
    2604: aa           	tax
    2605: a0 01        	ldy	#$1
    2607: b1 14        	lda	($14),y                 ; 0x14 <__rc4>
    2609: 86 14        	stx	$14                     ; 0x14 <__rc4>
    260b: 85 15        	sta	$15                     ; 0x15 <__rc5>
    260d: a6 e6        	ldx	$e6                     ; 0xe6 <__zp_bss_size+0x40>
    260f: 86 12        	stx	$12                     ; 0x12 <__rc2>
    2611: a6 e7        	ldx	$e7                     ; 0xe7 <__zp_bss_size+0x41>
    2613: 86 13        	stx	$13                     ; 0x13 <__rc3>
    2615: a2 00        	ldx	#$0
    2617: a9 09        	lda	#$9
    2619: 20 89 32     	jsr	$3289 <memcpy>
    261c: a6 e6        	ldx	$e6                     ; 0xe6 <__zp_bss_size+0x40>
    261e: 86 12        	stx	$12                     ; 0x12 <__rc2>
    2620: a6 e7        	ldx	$e7                     ; 0xe7 <__zp_bss_size+0x41>
    2622: 86 13        	stx	$13                     ; 0x13 <__rc3>
    2624: a4 12        	ldy	$12                     ; 0x12 <__rc2>
    2626: 84 14        	sty	$14                     ; 0x14 <__rc4>
    2628: 86 15        	stx	$15                     ; 0x15 <__rc5>
    262a: a6 14        	ldx	$14                     ; 0x14 <__rc4>
    262c: 86 e6        	stx	$e6                     ; 0xe6 <__zp_bss_size+0x40>
    262e: a6 15        	ldx	$15                     ; 0x15 <__rc5>
    2630: 86 e7        	stx	$e7                     ; 0xe7 <__zp_bss_size+0x41>
    2632: a6 e8        	ldx	$e8                     ; 0xe8 <__zp_bss_size+0x42>
    2634: a9 01        	lda	#$1
    2636: 20 46 2f     	jsr	$2f46 <sid_setInstrument>
    2639: a6 e6        	ldx	$e6                     ; 0xe6 <__zp_bss_size+0x40>
    263b: 86 12        	stx	$12                     ; 0x12 <__rc2>
    263d: a6 e7        	ldx	$e7                     ; 0xe7 <__zp_bss_size+0x41>
    263f: 86 13        	stx	$13                     ; 0x13 <__rc3>
    2641: a5 e8        	lda	$e8                     ; 0xe8 <__zp_bss_size+0x42>
    2643: 1a           	inc
    2644: 85 e8        	sta	$e8                     ; 0xe8 <__zp_bss_size+0x42>
    2646: c9 03        	cmp	#$3
    2648: f0 03        	beq	$264d <checkUIEClick+0x38f>
    264a: 4c 98 25     	jmp	$2598 <checkUIEClick+0x2da>
    264d: 4c fc 22     	jmp	$22fc <checkUIEClick+0x3e>

00002650 <textPrint>:
    2650: a6 01        	ldx	$1                      ; 0x1 <__data_size+0x1>
    2652: 86 e6        	stx	$e6                     ; 0xe6 <__zp_bss_size+0x40>
    2654: a6 48        	ldx	$48                     ; 0x48 <_row>
    2656: a0 50        	ldy	#$50
    2658: 8c 00 de     	sty	$de00                   ; 0xde00 <end_block9+0xa506>
    265b: 9c 01 de     	stz	$de01                   ; 0xde01 <end_block9+0xa507>
    265e: 8e 02 de     	stx	$de02                   ; 0xde02 <end_block9+0xa508>
    2661: 9c 03 de     	stz	$de03                   ; 0xde03 <end_block9+0xa509>
    2664: ae 10 de     	ldx	$de10                   ; 0xde10 <end_block9+0xa516>
    2667: ac 11 de     	ldy	$de11                   ; 0xde11 <end_block9+0xa517>
    266a: 84 15        	sty	$15                     ; 0x15 <__rc5>
    266c: ad 12 de     	lda	$de12                   ; 0xde12 <end_block9+0xa518>
    266f: ac 13 de     	ldy	$de13                   ; 0xde13 <end_block9+0xa519>
    2672: 84 1c        	sty	$1c                     ; 0x1c <__rc12>
    2674: 9c 08 de     	stz	$de08                   ; 0xde08 <end_block9+0xa50e>
    2677: a0 c0        	ldy	#$c0
    2679: 8c 09 de     	sty	$de09                   ; 0xde09 <end_block9+0xa50f>
    267c: 9c 0a de     	stz	$de0a                   ; 0xde0a <end_block9+0xa510>
    267f: 9c 0b de     	stz	$de0b                   ; 0xde0b <end_block9+0xa511>
    2682: 8e 0c de     	stx	$de0c                   ; 0xde0c <end_block9+0xa512>
    2685: 64 14        	stz	$14                     ; 0x14 <__rc4>
    2687: a2 00        	ldx	#$0
    2689: 86 16        	stx	$16                     ; 0x16 <__rc6>
    268b: a2 c0        	ldx	#$c0
    268d: 86 17        	stx	$17                     ; 0x17 <__rc7>
    268f: a2 11        	ldx	#$11
    2691: 86 18        	stx	$18                     ; 0x18 <__rc8>
    2693: a2 c9        	ldx	#$c9
    2695: 86 19        	stx	$19                     ; 0x19 <__rc9>
    2697: a2 10        	ldx	#$10
    2699: 86 1a        	stx	$1a                     ; 0x1a <__rc10>
    269b: a2 c9        	ldx	#$c9
    269d: 86 1b        	stx	$1b                     ; 0x1b <__rc11>
    269f: a6 15        	ldx	$15                     ; 0x15 <__rc5>
    26a1: 8e 0d de     	stx	$de0d                   ; 0xde0d <end_block9+0xa513>
    26a4: 8d 0e de     	sta	$de0e                   ; 0xde0e <end_block9+0xa514>
    26a7: a6 1c        	ldx	$1c                     ; 0x1c <__rc12>
    26a9: 8e 0f de     	stx	$de0f                   ; 0xde0f <end_block9+0xa515>
    26ac: ac 18 de     	ldy	$de18                   ; 0xde18 <end_block9+0xa51e>
    26af: ad 19 de     	lda	$de19                   ; 0xde19 <end_block9+0xa51f>
    26b2: ae 1a de     	ldx	$de1a                   ; 0xde1a <end_block9+0xa520>
    26b5: ae 1b de     	ldx	$de1b                   ; 0xde1b <end_block9+0xa521>
    26b8: 84 1c        	sty	$1c                     ; 0x1c <__rc12>
    26ba: 85 1d        	sta	$1d                     ; 0x1d <__rc13>
    26bc: 64 15        	stz	$15                     ; 0x15 <__rc5>
    26be: 80 13        	bra	$26d3 <textPrint+0x83>
    26c0: a5 1c        	lda	$1c                     ; 0x1c <__rc12>
    26c2: 18           	clc
    26c3: 69 50        	adc	#$50
    26c5: 85 1c        	sta	$1c                     ; 0x1c <__rc12>
    26c7: a5 1d        	lda	$1d                     ; 0x1d <__rc13>
    26c9: 69 00        	adc	#$0
    26cb: 85 1d        	sta	$1d                     ; 0x1d <__rc13>
    26cd: e6 14        	inc	$14                     ; 0x14 <__rc4>
    26cf: d0 02        	bne	$26d3 <textPrint+0x83>
    26d1: e6 15        	inc	$15                     ; 0x15 <__rc5>
    26d3: a5 12        	lda	$12                     ; 0x12 <__rc2>
    26d5: 18           	clc
    26d6: 65 14        	adc	$14                     ; 0x14 <__rc4>
    26d8: 85 1e        	sta	$1e                     ; 0x1e <__rc14>
    26da: a5 13        	lda	$13                     ; 0x13 <__rc3>
    26dc: 65 15        	adc	$15                     ; 0x15 <__rc5>
    26de: 85 1f        	sta	$1f                     ; 0x1f <__rc15>
    26e0: b2 1e        	lda	($1e)                   ; 0x1e <__rc14>
    26e2: c9 0a        	cmp	#$a
    26e4: f0 26        	beq	$270c <textPrint+0xbc>
    26e6: c9 0d        	cmp	#$d
    26e8: f0 22        	beq	$270c <textPrint+0xbc>
    26ea: aa           	tax
    26eb: d0 03        	bne	$26f0 <textPrint+0xa0>
    26ed: 4c f1 27     	jmp	$27f1 <textPrint+0x1a1>
    26f0: a2 03        	ldx	#$3
    26f2: 86 01        	stx	$1                      ; 0x1 <__data_size+0x1>
    26f4: a4 47        	ldy	$47                     ; 0x47 <_col>
    26f6: a9 f0        	lda	#$f0
    26f8: 91 1c        	sta	($1c),y                 ; 0x1c <__rc12>
    26fa: ca           	dex
    26fb: 86 01        	stx	$1                      ; 0x1 <__data_size+0x1>
    26fd: b2 1e        	lda	($1e)                   ; 0x1e <__rc14>
    26ff: a4 47        	ldy	$47                     ; 0x47 <_col>
    2701: 91 1c        	sta	($1c),y                 ; 0x1c <__rc12>
    2703: a6 47        	ldx	$47                     ; 0x47 <_col>
    2705: e8           	inx
    2706: e6 47        	inc	$47                     ; 0x47 <_col>
    2708: e0 50        	cpx	#$50
    270a: d0 c1        	bne	$26cd <textPrint+0x7d>
    270c: 64 47        	stz	$47                     ; 0x47 <_col>
    270e: a6 48        	ldx	$48                     ; 0x48 <_row>
    2710: e8           	inx
    2711: e6 48        	inc	$48                     ; 0x48 <_row>
    2713: e0 1e        	cpx	#$1e
    2715: f0 03        	beq	$271a <textPrint+0xca>
    2717: 4c c0 26     	jmp	$26c0 <textPrint+0x70>
    271a: a2 03        	ldx	#$3
    271c: 86 01        	stx	$1                      ; 0x1 <__data_size+0x1>
    271e: a2 01        	ldx	#$1
    2720: 86 1c        	stx	$1c                     ; 0x1c <__rc12>
    2722: a2 09        	ldx	#$9
    2724: a0 10        	ldy	#$10
    2726: a9 00        	lda	#$0
    2728: 85 1e        	sta	$1e                     ; 0x1e <__rc14>
    272a: a9 c0        	lda	#$c0
    272c: 85 1f        	sta	$1f                     ; 0x1f <__rc15>
    272e: 84 1d        	sty	$1d                     ; 0x1d <__rc13>
    2730: a0 50        	ldy	#$50
    2732: b1 1e        	lda	($1e),y                 ; 0x1e <__rc14>
    2734: 92 1e        	sta	($1e)                   ; 0x1e <__rc14>
    2736: a9 ff        	lda	#$ff
    2738: c6 1d        	dec	$1d                     ; 0x1d <__rc13>
    273a: c5 1d        	cmp	$1d                     ; 0x1d <__rc13>
    273c: d0 01        	bne	$273f <textPrint+0xef>
    273e: ca           	dex
    273f: e6 1e        	inc	$1e                     ; 0x1e <__rc14>
    2741: d0 02        	bne	$2745 <textPrint+0xf5>
    2743: e6 1f        	inc	$1f                     ; 0x1f <__rc15>
    2745: 8a           	txa
    2746: d0 ea        	bne	$2732 <textPrint+0xe2>
    2748: a5 1d        	lda	$1d                     ; 0x1d <__rc13>
    274a: d0 e6        	bne	$2732 <textPrint+0xe2>
    274c: a2 02        	ldx	#$2
    274e: 86 01        	stx	$1                      ; 0x1 <__data_size+0x1>
    2750: a2 00        	ldx	#$0
    2752: a5 1c        	lda	$1c                     ; 0x1c <__rc12>
    2754: d0 ca        	bne	$2720 <textPrint+0xd0>
    2756: a2 03        	ldx	#$3
    2758: 86 01        	stx	$1                      ; 0x1 <__data_size+0x1>
    275a: a2 50        	ldx	#$50
    275c: a0 11        	ldy	#$11
    275e: 84 1c        	sty	$1c                     ; 0x1c <__rc12>
    2760: a0 c9        	ldy	#$c9
    2762: 84 1d        	sty	$1d                     ; 0x1d <__rc13>
    2764: a0 10        	ldy	#$10
    2766: 84 1e        	sty	$1e                     ; 0x1e <__rc14>
    2768: a0 c9        	ldy	#$c9
    276a: 84 1f        	sty	$1f                     ; 0x1f <__rc15>
    276c: a9 f0        	lda	#$f0
    276e: a4 1c        	ldy	$1c                     ; 0x1c <__rc12>
    2770: 84 22        	sty	$22                     ; 0x22 <__rc18>
    2772: a4 1d        	ldy	$1d                     ; 0x1d <__rc13>
    2774: 84 23        	sty	$23                     ; 0x23 <__rc19>
    2776: 92 1e        	sta	($1e)                   ; 0x1e <__rc14>
    2778: e6 1c        	inc	$1c                     ; 0x1c <__rc12>
    277a: d0 02        	bne	$277e <textPrint+0x12e>
    277c: e6 1d        	inc	$1d                     ; 0x1d <__rc13>
    277e: ca           	dex
    277f: a4 22        	ldy	$22                     ; 0x22 <__rc18>
    2781: 84 1e        	sty	$1e                     ; 0x1e <__rc14>
    2783: a4 23        	ldy	$23                     ; 0x23 <__rc19>
    2785: 84 1f        	sty	$1f                     ; 0x1f <__rc15>
    2787: e0 00        	cpx	#$0
    2789: d0 e3        	bne	$276e <textPrint+0x11e>
    278b: a2 02        	ldx	#$2
    278d: 86 01        	stx	$1                      ; 0x1 <__data_size+0x1>
    278f: a2 50        	ldx	#$50
    2791: a0 11        	ldy	#$11
    2793: 84 1c        	sty	$1c                     ; 0x1c <__rc12>
    2795: a0 c9        	ldy	#$c9
    2797: 84 1d        	sty	$1d                     ; 0x1d <__rc13>
    2799: a0 10        	ldy	#$10
    279b: 84 1e        	sty	$1e                     ; 0x1e <__rc14>
    279d: a0 c9        	ldy	#$c9
    279f: 84 1f        	sty	$1f                     ; 0x1f <__rc15>
    27a1: a9 20        	lda	#$20
    27a3: a4 1c        	ldy	$1c                     ; 0x1c <__rc12>
    27a5: 84 22        	sty	$22                     ; 0x22 <__rc18>
    27a7: a4 1d        	ldy	$1d                     ; 0x1d <__rc13>
    27a9: 84 23        	sty	$23                     ; 0x23 <__rc19>
    27ab: 92 1e        	sta	($1e)                   ; 0x1e <__rc14>
    27ad: e6 1c        	inc	$1c                     ; 0x1c <__rc12>
    27af: d0 02        	bne	$27b3 <textPrint+0x163>
    27b1: e6 1d        	inc	$1d                     ; 0x1d <__rc13>
    27b3: ca           	dex
    27b4: a4 22        	ldy	$22                     ; 0x22 <__rc18>
    27b6: 84 1e        	sty	$1e                     ; 0x1e <__rc14>
    27b8: a4 23        	ldy	$23                     ; 0x23 <__rc19>
    27ba: 84 1f        	sty	$1f                     ; 0x1f <__rc15>
    27bc: e0 00        	cpx	#$0
    27be: d0 e3        	bne	$27a3 <textPrint+0x153>
    27c0: c6 48        	dec	$48                     ; 0x48 <_row>
    27c2: 9c 08 de     	stz	$de08                   ; 0xde08 <end_block9+0xa50e>
    27c5: a2 c0        	ldx	#$c0
    27c7: 8e 09 de     	stx	$de09                   ; 0xde09 <end_block9+0xa50f>
    27ca: 9c 0a de     	stz	$de0a                   ; 0xde0a <end_block9+0xa510>
    27cd: 9c 0b de     	stz	$de0b                   ; 0xde0b <end_block9+0xa511>
    27d0: a2 1d        	ldx	#$1d
    27d2: 8e 0c de     	stx	$de0c                   ; 0xde0c <end_block9+0xa512>
    27d5: 9c 0d de     	stz	$de0d                   ; 0xde0d <end_block9+0xa513>
    27d8: 9c 0e de     	stz	$de0e                   ; 0xde0e <end_block9+0xa514>
    27db: 9c 0f de     	stz	$de0f                   ; 0xde0f <end_block9+0xa515>
    27de: ae 18 de     	ldx	$de18                   ; 0xde18 <end_block9+0xa51e>
    27e1: ac 19 de     	ldy	$de19                   ; 0xde19 <end_block9+0xa51f>
    27e4: ad 1a de     	lda	$de1a                   ; 0xde1a <end_block9+0xa520>
    27e7: ad 1b de     	lda	$de1b                   ; 0xde1b <end_block9+0xa521>
    27ea: 86 1c        	stx	$1c                     ; 0x1c <__rc12>
    27ec: 84 1d        	sty	$1d                     ; 0x1d <__rc13>
    27ee: 4c cd 26     	jmp	$26cd <textPrint+0x7d>
    27f1: a6 e6        	ldx	$e6                     ; 0xe6 <__zp_bss_size+0x40>
    27f3: 86 01        	stx	$1                      ; 0x1 <__data_size+0x1>
    27f5: a6 47        	ldx	$47                     ; 0x47 <_col>
    27f7: a4 48        	ldy	$48                     ; 0x48 <_row>
    27f9: 8e 14 d0     	stx	$d014                   ; 0xd014 <end_block9+0x971a>
    27fc: 9c 15 d0     	stz	$d015                   ; 0xd015 <end_block9+0x971b>
    27ff: 84 48        	sty	$48                     ; 0x48 <_row>
    2801: 8c 16 d0     	sty	$d016                   ; 0xd016 <end_block9+0x971c>
    2804: 9c 17 d0     	stz	$d017                   ; 0xd017 <end_block9+0x971d>
    2807: 60           	rts

00002808 <bitmapClear>:
    2808: a2 00        	ldx	#$0
    280a: a0 00        	ldy	#$0
    280c: 84 12        	sty	$12                     ; 0x12 <__rc2>
    280e: a0 e0        	ldy	#$e0
    2810: 84 13        	sty	$13                     ; 0x13 <__rc3>
    2812: a9 01        	lda	#$1
    2814: 25 49        	and	$49                     ; 0x49 <_active>
    2816: 0a           	asl
    2817: 0a           	asl
    2818: a8           	tay
    2819: b9 44 37     	lda	$3744,y                 ; 0x3744 <_BITMAP_BASE+0x1>
    281c: 48           	pha
    281d: b9 45 37     	lda	$3745,y                 ; 0x3745 <_BITMAP_BASE+0x2>
    2820: a8           	tay
    2821: 68           	pla
    2822: 84 14        	sty	$14                     ; 0x14 <__rc4>
    2824: 0a           	asl
    2825: 26 14        	rol	$14                     ; 0x14 <__rc4>
    2827: 0a           	asl
    2828: 26 14        	rol	$14                     ; 0x14 <__rc4>
    282a: 0a           	asl
    282b: a5 14        	lda	$14                     ; 0x14 <__rc4>
    282d: 2a           	rol
    282e: a4 0f        	ldy	$f                      ; 0xf <__data_size+0xf>
    2830: 84 18        	sty	$18                     ; 0x18 <__rc8>
    2832: 78           	sei
    2833: 85 19        	sta	$19                     ; 0x19 <__rc9>
    2835: 85 0f        	sta	$f                      ; 0xf <__data_size+0xf>
    2837: a5 4a        	lda	$4a                     ; 0x4a <_color>
    2839: a0 20        	ldy	#$20
    283b: 48           	pha
    283c: a9 00        	lda	#$0
    283e: 85 14        	sta	$14                     ; 0x14 <__rc4>
    2840: a9 e0        	lda	#$e0
    2842: 85 15        	sta	$15                     ; 0x15 <__rc5>
    2844: 68           	pla
    2845: 64 16        	stz	$16                     ; 0x16 <__rc6>
    2847: 84 17        	sty	$17                     ; 0x17 <__rc7>
    2849: 92 14        	sta	($14)                   ; 0x14 <__rc4>
    284b: a0 ff        	ldy	#$ff
    284d: c6 16        	dec	$16                     ; 0x16 <__rc6>
    284f: c4 16        	cpy	$16                     ; 0x16 <__rc6>
    2851: d0 02        	bne	$2855 <bitmapClear+0x4d>
    2853: c6 17        	dec	$17                     ; 0x17 <__rc7>
    2855: e6 14        	inc	$14                     ; 0x14 <__rc4>
    2857: d0 02        	bne	$285b <bitmapClear+0x53>
    2859: e6 15        	inc	$15                     ; 0x15 <__rc5>
    285b: a4 17        	ldy	$17                     ; 0x17 <__rc7>
    285d: d0 ea        	bne	$2849 <bitmapClear+0x41>
    285f: a4 16        	ldy	$16                     ; 0x16 <__rc6>
    2861: d0 e6        	bne	$2849 <bitmapClear+0x41>
    2863: a5 19        	lda	$19                     ; 0x19 <__rc9>
    2865: 1a           	inc
    2866: e8           	inx
    2867: e0 09        	cpx	#$9
    2869: d0 c8        	bne	$2833 <bitmapClear+0x2b>
    286b: 85 0f        	sta	$f                      ; 0xf <__data_size+0xf>
    286d: a5 4a        	lda	$4a                     ; 0x4a <_color>
    286f: a0 14        	ldy	#$14
    2871: a2 00        	ldx	#$0
    2873: 84 14        	sty	$14                     ; 0x14 <__rc4>
    2875: 92 12        	sta	($12)                   ; 0x12 <__rc2>
    2877: ca           	dex
    2878: e0 ff        	cpx	#$ff
    287a: d0 02        	bne	$287e <bitmapClear+0x76>
    287c: c6 14        	dec	$14                     ; 0x14 <__rc4>
    287e: e6 12        	inc	$12                     ; 0x12 <__rc2>
    2880: d0 02        	bne	$2884 <bitmapClear+0x7c>
    2882: e6 13        	inc	$13                     ; 0x13 <__rc3>
    2884: a4 14        	ldy	$14                     ; 0x14 <__rc4>
    2886: d0 ed        	bne	$2875 <bitmapClear+0x6d>
    2888: e0 00        	cpx	#$0
    288a: d0 e9        	bne	$2875 <bitmapClear+0x6d>
    288c: a6 18        	ldx	$18                     ; 0x18 <__rc8>
    288e: 86 0f        	stx	$f                      ; 0xf <__data_size+0xf>
    2890: 58           	cli
    2891: 60           	rts

00002892 <spriteDefine>:
    2892: a8           	tay
    2893: 86 16        	stx	$16                     ; 0x16 <__rc6>
    2895: a6 13        	ldx	$13                     ; 0x13 <__rc3>
    2897: a5 15        	lda	$15                     ; 0x15 <__rc5>
    2899: 18           	clc
    289a: 69 f8        	adc	#$f8
    289c: 85 13        	sta	$13                     ; 0x13 <__rc3>
    289e: 46 13        	lsr	$13                     ; 0x13 <__rc3>
    28a0: 6a           	ror
    28a1: 85 13        	sta	$13                     ; 0x13 <__rc3>
    28a3: 46 13        	lsr	$13                     ; 0x13 <__rc3>
    28a5: 6a           	ror
    28a6: 85 13        	sta	$13                     ; 0x13 <__rc3>
    28a8: 46 13        	lsr	$13                     ; 0x13 <__rc3>
    28aa: 6a           	ror
    28ab: c9 03        	cmp	#$3
    28ad: 64 17        	stz	$17                     ; 0x17 <__rc7>
    28af: b0 0e        	bcs	$28bf <spriteDefine+0x2d>
    28b1: 0a           	asl
    28b2: 0a           	asl
    28b3: 0a           	asl
    28b4: 0a           	asl
    28b5: 0a           	asl
    28b6: 85 13        	sta	$13                     ; 0x13 <__rc3>
    28b8: a9 60        	lda	#$60
    28ba: 38           	sec
    28bb: e5 13        	sbc	$13                     ; 0x13 <__rc3>
    28bd: 85 17        	sta	$17                     ; 0x17 <__rc7>
    28bf: 98           	tya
    28c0: 0a           	asl
    28c1: 64 13        	stz	$13                     ; 0x13 <__rc3>
    28c3: 26 13        	rol	$13                     ; 0x13 <__rc3>
    28c5: 0a           	asl
    28c6: 26 13        	rol	$13                     ; 0x13 <__rc3>
    28c8: 0a           	asl
    28c9: 26 13        	rol	$13                     ; 0x13 <__rc3>
    28cb: 85 18        	sta	$18                     ; 0x18 <__rc8>
    28cd: 18           	clc
    28ce: 69 00        	adc	#$0
    28d0: 85 19        	sta	$19                     ; 0x19 <__rc9>
    28d2: a5 13        	lda	$13                     ; 0x13 <__rc3>
    28d4: 69 d9        	adc	#$d9
    28d6: 5a           	phy
    28d7: a4 19        	ldy	$19                     ; 0x19 <__rc9>
    28d9: 84 14        	sty	$14                     ; 0x14 <__rc4>
    28db: 7a           	ply
    28dc: 85 15        	sta	$15                     ; 0x15 <__rc5>
    28de: a5 17        	lda	$17                     ; 0x17 <__rc7>
    28e0: 99 4c 00     	sta	$4c,y                   ; 0x4c <_spriteCtl>
    28e3: 92 14        	sta	($14)                   ; 0x14 <__rc4>
    28e5: a5 18        	lda	$18                     ; 0x18 <__rc8>
    28e7: 18           	clc
    28e8: 69 01        	adc	#$1
    28ea: 85 14        	sta	$14                     ; 0x14 <__rc4>
    28ec: a5 13        	lda	$13                     ; 0x13 <__rc3>
    28ee: 69 d9        	adc	#$d9
    28f0: 85 15        	sta	$15                     ; 0x15 <__rc5>
    28f2: a5 16        	lda	$16                     ; 0x16 <__rc6>
    28f4: 92 14        	sta	($14)                   ; 0x14 <__rc4>
    28f6: a5 18        	lda	$18                     ; 0x18 <__rc8>
    28f8: 18           	clc
    28f9: 69 02        	adc	#$2
    28fb: 85 14        	sta	$14                     ; 0x14 <__rc4>
    28fd: a5 13        	lda	$13                     ; 0x13 <__rc3>
    28ff: 69 d9        	adc	#$d9
    2901: 85 15        	sta	$15                     ; 0x15 <__rc5>
    2903: 18           	clc
    2904: a5 12        	lda	$12                     ; 0x12 <__rc2>
    2906: 92 14        	sta	($14)                   ; 0x14 <__rc4>
    2908: a5 18        	lda	$18                     ; 0x18 <__rc8>
    290a: 69 03        	adc	#$3
    290c: 85 12        	sta	$12                     ; 0x12 <__rc2>
    290e: a5 13        	lda	$13                     ; 0x13 <__rc3>
    2910: 69 d9        	adc	#$d9
    2912: 85 13        	sta	$13                     ; 0x13 <__rc3>
    2914: 8a           	txa
    2915: 92 12        	sta	($12)                   ; 0x12 <__rc2>
    2917: 60           	rts

00002918 <showGeneric>:
    2918: b2 12        	lda	($12)                   ; 0x12 <__rc2>
    291a: 85 16        	sta	$16                     ; 0x16 <__rc6>
    291c: a5 12        	lda	$12                     ; 0x12 <__rc2>
    291e: 85 ea        	sta	$ea                     ; 0xea <__zp_bss_size+0x44>
    2920: a6 13        	ldx	$13                     ; 0x13 <__rc3>
    2922: 86 e8        	stx	$e8                     ; 0xe8 <__zp_bss_size+0x42>
    2924: a6 12        	ldx	$12                     ; 0x12 <__rc2>
    2926: 86 14        	stx	$14                     ; 0x14 <__rc4>
    2928: a6 13        	ldx	$13                     ; 0x13 <__rc3>
    292a: 86 15        	stx	$15                     ; 0x15 <__rc5>
    292c: a6 12        	ldx	$12                     ; 0x12 <__rc2>
    292e: 86 e6        	stx	$e6                     ; 0xe6 <__zp_bss_size+0x40>
    2930: a6 13        	ldx	$13                     ; 0x13 <__rc3>
    2932: 86 e7        	stx	$e7                     ; 0xe7 <__zp_bss_size+0x41>
    2934: 18           	clc
    2935: 69 08        	adc	#$8
    2937: 85 18        	sta	$18                     ; 0x18 <__rc8>
    2939: a5 e8        	lda	$e8                     ; 0xe8 <__zp_bss_size+0x42>
    293b: 69 00        	adc	#$0
    293d: a0 08        	ldy	#$8
    293f: 85 19        	sta	$19                     ; 0x19 <__rc9>
    2941: b1 12        	lda	($12),y                 ; 0x12 <__rc2>
    2943: 85 17        	sta	$17                     ; 0x17 <__rc7>
    2945: a0 02        	ldy	#$2
    2947: b1 18        	lda	($18),y                 ; 0x18 <__rc8>
    2949: 85 13        	sta	$13                     ; 0x13 <__rc3>
    294b: a0 0d        	ldy	#$d
    294d: b1 14        	lda	($14),y                 ; 0x14 <__rc4>
    294f: 85 15        	sta	$15                     ; 0x15 <__rc5>
    2951: a0 01        	ldy	#$1
    2953: 84 e9        	sty	$e9                     ; 0xe9 <__zp_bss_size+0x43>
    2955: b1 18        	lda	($18),y                 ; 0x18 <__rc8>
    2957: 85 12        	sta	$12                     ; 0x12 <__rc2>
    2959: a0 03        	ldy	#$3
    295b: b1 18        	lda	($18),y                 ; 0x18 <__rc8>
    295d: 85 14        	sta	$14                     ; 0x14 <__rc4>
    295f: a6 17        	ldx	$17                     ; 0x17 <__rc7>
    2961: a5 16        	lda	$16                     ; 0x16 <__rc6>
    2963: 20 92 28     	jsr	$2892 <spriteDefine>
    2966: 18           	clc
    2967: a6 ea        	ldx	$ea                     ; 0xea <__zp_bss_size+0x44>
    2969: 8a           	txa
    296a: 69 03        	adc	#$3
    296c: a8           	tay
    296d: a5 e8        	lda	$e8                     ; 0xe8 <__zp_bss_size+0x42>
    296f: 69 00        	adc	#$0
    2971: 84 12        	sty	$12                     ; 0x12 <__rc2>
    2973: 85 13        	sta	$13                     ; 0x13 <__rc3>
    2975: a6 e6        	ldx	$e6                     ; 0xe6 <__zp_bss_size+0x40>
    2977: 86 1a        	stx	$1a                     ; 0x1a <__rc10>
    2979: a6 e7        	ldx	$e7                     ; 0xe7 <__zp_bss_size+0x41>
    297b: 86 1b        	stx	$1b                     ; 0x1b <__rc11>
    297d: b2 1a        	lda	($1a)                   ; 0x1a <__rc10>
    297f: aa           	tax
    2980: 0a           	asl
    2981: 64 14        	stz	$14                     ; 0x14 <__rc4>
    2983: 26 14        	rol	$14                     ; 0x14 <__rc4>
    2985: 0a           	asl
    2986: 26 14        	rol	$14                     ; 0x14 <__rc4>
    2988: 0a           	asl
    2989: 26 14        	rol	$14                     ; 0x14 <__rc4>
    298b: a4 14        	ldy	$14                     ; 0x14 <__rc4>
    298d: 84 18        	sty	$18                     ; 0x18 <__rc8>
    298f: 85 1c        	sta	$1c                     ; 0x1c <__rc12>
    2991: 18           	clc
    2992: 69 04        	adc	#$4
    2994: 85 14        	sta	$14                     ; 0x14 <__rc4>
    2996: a5 18        	lda	$18                     ; 0x18 <__rc8>
    2998: 69 d9        	adc	#$d9
    299a: 85 15        	sta	$15                     ; 0x15 <__rc5>
    299c: a4 1a        	ldy	$1a                     ; 0x1a <__rc10>
    299e: 84 16        	sty	$16                     ; 0x16 <__rc6>
    29a0: a4 1b        	ldy	$1b                     ; 0x1b <__rc11>
    29a2: 84 17        	sty	$17                     ; 0x17 <__rc7>
    29a4: e6 16        	inc	$16                     ; 0x16 <__rc6>
    29a6: d0 02        	bne	$29aa <showGeneric+0x92>
    29a8: e6 17        	inc	$17                     ; 0x17 <__rc7>
    29aa: a0 03        	ldy	#$3
    29ac: b1 1a        	lda	($1a),y                 ; 0x1a <__rc10>
    29ae: 85 19        	sta	$19                     ; 0x19 <__rc9>
    29b0: a4 e9        	ldy	$e9                     ; 0xe9 <__zp_bss_size+0x43>
    29b2: b1 1a        	lda	($1a),y                 ; 0x1a <__rc10>
    29b4: 85 1a        	sta	$1a                     ; 0x1a <__rc10>
    29b6: b1 16        	lda	($16),y                 ; 0x16 <__rc6>
    29b8: 85 17        	sta	$17                     ; 0x17 <__rc7>
    29ba: b1 12        	lda	($12),y                 ; 0x12 <__rc2>
    29bc: 85 16        	sta	$16                     ; 0x16 <__rc6>
    29be: a5 1a        	lda	$1a                     ; 0x1a <__rc10>
    29c0: 92 14        	sta	($14)                   ; 0x14 <__rc4>
    29c2: a5 17        	lda	$17                     ; 0x17 <__rc7>
    29c4: 91 14        	sta	($14),y                 ; 0x14 <__rc4>
    29c6: a5 1c        	lda	$1c                     ; 0x1c <__rc12>
    29c8: 18           	clc
    29c9: 69 06        	adc	#$6
    29cb: 85 14        	sta	$14                     ; 0x14 <__rc4>
    29cd: a5 18        	lda	$18                     ; 0x18 <__rc8>
    29cf: 69 d9        	adc	#$d9
    29d1: 5a           	phy
    29d2: a4 14        	ldy	$14                     ; 0x14 <__rc4>
    29d4: 84 12        	sty	$12                     ; 0x12 <__rc2>
    29d6: 7a           	ply
    29d7: 85 13        	sta	$13                     ; 0x13 <__rc3>
    29d9: a5 19        	lda	$19                     ; 0x19 <__rc9>
    29db: 92 12        	sta	($12)                   ; 0x12 <__rc2>
    29dd: a5 16        	lda	$16                     ; 0x16 <__rc6>
    29df: 91 12        	sta	($12),y                 ; 0x12 <__rc2>
    29e1: 18           	clc
    29e2: a5 1c        	lda	$1c                     ; 0x1c <__rc12>
    29e4: 69 00        	adc	#$0
    29e6: 85 12        	sta	$12                     ; 0x12 <__rc2>
    29e8: a5 18        	lda	$18                     ; 0x18 <__rc8>
    29ea: 69 d9        	adc	#$d9
    29ec: 85 13        	sta	$13                     ; 0x13 <__rc3>
    29ee: a9 01        	lda	#$1
    29f0: 15 4c        	ora	$4c,x                   ; 0x4c <_spriteCtl>
    29f2: 92 12        	sta	($12)                   ; 0x12 <__rc2>
    29f4: 60           	rts

000029f5 <updateRadioB>:
    29f5: a0 06        	ldy	#$6
    29f7: b1 12        	lda	($12),y                 ; 0x12 <__rc2>
    29f9: aa           	tax
    29fa: a5 12        	lda	$12                     ; 0x12 <__rc2>
    29fc: a0 08        	ldy	#$8
    29fe: 18           	clc
    29ff: 69 08        	adc	#$8
    2a01: 85 16        	sta	$16                     ; 0x16 <__rc6>
    2a03: a5 13        	lda	$13                     ; 0x13 <__rc3>
    2a05: 69 00        	adc	#$0
    2a07: 5a           	phy
    2a08: a4 16        	ldy	$16                     ; 0x16 <__rc6>
    2a0a: 84 14        	sty	$14                     ; 0x14 <__rc4>
    2a0c: 7a           	ply
    2a0d: 85 15        	sta	$15                     ; 0x15 <__rc5>
    2a0f: b1 12        	lda	($12),y                 ; 0x12 <__rc2>
    2a11: 85 16        	sta	$16                     ; 0x16 <__rc6>
    2a13: a0 01        	ldy	#$1
    2a15: b1 14        	lda	($14),y                 ; 0x14 <__rc4>
    2a17: 85 18        	sta	$18                     ; 0x18 <__rc8>
    2a19: c8           	iny
    2a1a: b1 14        	lda	($14),y                 ; 0x14 <__rc4>
    2a1c: 85 19        	sta	$19                     ; 0x19 <__rc9>
    2a1e: c8           	iny
    2a1f: b1 14        	lda	($14),y                 ; 0x14 <__rc4>
    2a21: 85 1a        	sta	$1a                     ; 0x1a <__rc10>
    2a23: 8a           	txa
    2a24: f0 08        	beq	$2a2e <updateRadioB+0x39>
    2a26: a2 40        	ldx	#$40
    2a28: 64 14        	stz	$14                     ; 0x14 <__rc4>
    2a2a: 86 15        	stx	$15                     ; 0x15 <__rc5>
    2a2c: 80 08        	bra	$2a36 <updateRadioB+0x41>
    2a2e: a2 ff        	ldx	#$ff
    2a30: a9 c0        	lda	#$c0
    2a32: 85 15        	sta	$15                     ; 0x15 <__rc5>
    2a34: 86 14        	stx	$14                     ; 0x14 <__rc4>
    2a36: 18           	clc
    2a37: a5 16        	lda	$16                     ; 0x16 <__rc6>
    2a39: 65 15        	adc	$15                     ; 0x15 <__rc5>
    2a3b: a2 01        	ldx	#$1
    2a3d: b0 02        	bcs	$2a41 <updateRadioB+0x4c>
    2a3f: a2 00        	ldx	#$0
    2a41: 86 15        	stx	$15                     ; 0x15 <__rc5>
    2a43: a0 08        	ldy	#$8
    2a45: 91 12        	sta	($12),y                 ; 0x12 <__rc2>
    2a47: 85 17        	sta	$17                     ; 0x17 <__rc7>
    2a49: a5 12        	lda	$12                     ; 0x12 <__rc2>
    2a4b: 18           	clc
    2a4c: 69 08        	adc	#$8
    2a4e: 85 16        	sta	$16                     ; 0x16 <__rc6>
    2a50: a6 17        	ldx	$17                     ; 0x17 <__rc7>
    2a52: a5 13        	lda	$13                     ; 0x13 <__rc3>
    2a54: 69 00        	adc	#$0
    2a56: 85 17        	sta	$17                     ; 0x17 <__rc7>
    2a58: a5 18        	lda	$18                     ; 0x18 <__rc8>
    2a5a: a4 15        	ldy	$15                     ; 0x15 <__rc5>
    2a5c: c0 01        	cpy	#$1
    2a5e: 65 14        	adc	$14                     ; 0x14 <__rc4>
    2a60: a0 01        	ldy	#$1
    2a62: 91 16        	sta	($16),y                 ; 0x16 <__rc6>
    2a64: 85 1b        	sta	$1b                     ; 0x1b <__rc11>
    2a66: a5 19        	lda	$19                     ; 0x19 <__rc9>
    2a68: 65 14        	adc	$14                     ; 0x14 <__rc4>
    2a6a: c8           	iny
    2a6b: 91 16        	sta	($16),y                 ; 0x16 <__rc6>
    2a6d: 85 18        	sta	$18                     ; 0x18 <__rc8>
    2a6f: a5 1a        	lda	$1a                     ; 0x1a <__rc10>
    2a71: 65 14        	adc	$14                     ; 0x14 <__rc4>
    2a73: c8           	iny
    2a74: 91 16        	sta	($16),y                 ; 0x16 <__rc6>
    2a76: 85 14        	sta	$14                     ; 0x14 <__rc4>
    2a78: a0 0d        	ldy	#$d
    2a7a: b1 12        	lda	($12),y                 ; 0x12 <__rc2>
    2a7c: 85 15        	sta	$15                     ; 0x15 <__rc5>
    2a7e: b2 12        	lda	($12)                   ; 0x12 <__rc2>
    2a80: a8           	tay
    2a81: a5 12        	lda	$12                     ; 0x12 <__rc2>
    2a83: 85 eb        	sta	$eb                     ; 0xeb <__zp_bss_size+0x45>
    2a85: a5 13        	lda	$13                     ; 0x13 <__rc3>
    2a87: 85 ec        	sta	$ec                     ; 0xec <__zp_bss_size+0x46>
    2a89: a5 1b        	lda	$1b                     ; 0x1b <__rc11>
    2a8b: 85 12        	sta	$12                     ; 0x12 <__rc2>
    2a8d: a5 18        	lda	$18                     ; 0x18 <__rc8>
    2a8f: 85 13        	sta	$13                     ; 0x13 <__rc3>
    2a91: 98           	tya
    2a92: 20 92 28     	jsr	$2892 <spriteDefine>
    2a95: a6 eb        	ldx	$eb                     ; 0xeb <__zp_bss_size+0x45>
    2a97: 86 12        	stx	$12                     ; 0x12 <__rc2>
    2a99: a6 ec        	ldx	$ec                     ; 0xec <__zp_bss_size+0x46>
    2a9b: 86 13        	stx	$13                     ; 0x13 <__rc3>
    2a9d: b2 12        	lda	($12)                   ; 0x12 <__rc2>
    2a9f: aa           	tax
    2aa0: 0a           	asl
    2aa1: 64 12        	stz	$12                     ; 0x12 <__rc2>
    2aa3: 26 12        	rol	$12                     ; 0x12 <__rc2>
    2aa5: 0a           	asl
    2aa6: 26 12        	rol	$12                     ; 0x12 <__rc2>
    2aa8: 0a           	asl
    2aa9: 26 12        	rol	$12                     ; 0x12 <__rc2>
    2aab: 18           	clc
    2aac: 69 00        	adc	#$0
    2aae: a8           	tay
    2aaf: a5 12        	lda	$12                     ; 0x12 <__rc2>
    2ab1: 69 d9        	adc	#$d9
    2ab3: 84 12        	sty	$12                     ; 0x12 <__rc2>
    2ab5: 85 13        	sta	$13                     ; 0x13 <__rc3>
    2ab7: a9 01        	lda	#$1
    2ab9: 15 4c        	ora	$4c,x                   ; 0x4c <_spriteCtl>
    2abb: 92 12        	sta	($12)                   ; 0x12 <__rc2>
    2abd: 60           	rts

00002abe <setRadioB>:
    2abe: 85 14        	sta	$14                     ; 0x14 <__rc4>
    2ac0: 86 e9        	stx	$e9                     ; 0xe9 <__zp_bss_size+0x43>
    2ac2: a6 12        	ldx	$12                     ; 0x12 <__rc2>
    2ac4: 86 e6        	stx	$e6                     ; 0xe6 <__zp_bss_size+0x40>
    2ac6: a6 13        	ldx	$13                     ; 0x13 <__rc3>
    2ac8: 86 e7        	stx	$e7                     ; 0xe7 <__zp_bss_size+0x41>
    2aca: a0 13        	ldy	#$13
    2acc: a9 01        	lda	#$1
    2ace: 91 12        	sta	($12),y                 ; 0x12 <__rc2>
    2ad0: c8           	iny
    2ad1: a5 14        	lda	$14                     ; 0x14 <__rc4>
    2ad3: 91 12        	sta	($12),y                 ; 0x12 <__rc2>
    2ad5: a5 e6        	lda	$e6                     ; 0xe6 <__zp_bss_size+0x40>
    2ad7: 18           	clc
    2ad8: 69 08        	adc	#$8
    2ada: 85 18        	sta	$18                     ; 0x18 <__rc8>
    2adc: a5 e7        	lda	$e7                     ; 0xe7 <__zp_bss_size+0x41>
    2ade: 69 00        	adc	#$0
    2ae0: a0 08        	ldy	#$8
    2ae2: 64 e8        	stz	$e8                     ; 0xe8 <__zp_bss_size+0x42>
    2ae4: 85 19        	sta	$19                     ; 0x19 <__rc9>
    2ae6: b1 12        	lda	($12),y                 ; 0x12 <__rc2>
    2ae8: aa           	tax
    2ae9: a0 02        	ldy	#$2
    2aeb: b1 18        	lda	($18),y                 ; 0x18 <__rc8>
    2aed: 85 13        	sta	$13                     ; 0x13 <__rc3>
    2aef: a0 0d        	ldy	#$d
    2af1: b1 e6        	lda	($e6),y                 ; 0xe6 <__zp_bss_size+0x40>
    2af3: 85 15        	sta	$15                     ; 0x15 <__rc5>
    2af5: b2 e6        	lda	($e6)                   ; 0xe6 <__zp_bss_size+0x40>
    2af7: 85 16        	sta	$16                     ; 0x16 <__rc6>
    2af9: a0 01        	ldy	#$1
    2afb: b1 18        	lda	($18),y                 ; 0x18 <__rc8>
    2afd: 85 12        	sta	$12                     ; 0x12 <__rc2>
    2aff: a0 03        	ldy	#$3
    2b01: b1 18        	lda	($18),y                 ; 0x18 <__rc8>
    2b03: 85 14        	sta	$14                     ; 0x14 <__rc4>
    2b05: a5 16        	lda	$16                     ; 0x16 <__rc6>
    2b07: 20 92 28     	jsr	$2892 <spriteDefine>
    2b0a: b2 e6        	lda	($e6)                   ; 0xe6 <__zp_bss_size+0x40>
    2b0c: aa           	tax
    2b0d: 18           	clc
    2b0e: a5 e6        	lda	$e6                     ; 0xe6 <__zp_bss_size+0x40>
    2b10: 69 03        	adc	#$3
    2b12: 85 12        	sta	$12                     ; 0x12 <__rc2>
    2b14: a5 e7        	lda	$e7                     ; 0xe7 <__zp_bss_size+0x41>
    2b16: 69 00        	adc	#$0
    2b18: 85 13        	sta	$13                     ; 0x13 <__rc3>
    2b1a: 86 1a        	stx	$1a                     ; 0x1a <__rc10>
    2b1c: 06 1a        	asl	$1a                     ; 0x1a <__rc10>
    2b1e: 64 18        	stz	$18                     ; 0x18 <__rc8>
    2b20: 26 18        	rol	$18                     ; 0x18 <__rc8>
    2b22: 06 1a        	asl	$1a                     ; 0x1a <__rc10>
    2b24: 26 18        	rol	$18                     ; 0x18 <__rc8>
    2b26: 06 1a        	asl	$1a                     ; 0x1a <__rc10>
    2b28: 26 18        	rol	$18                     ; 0x18 <__rc8>
    2b2a: 18           	clc
    2b2b: a5 1a        	lda	$1a                     ; 0x1a <__rc10>
    2b2d: 69 04        	adc	#$4
    2b2f: 85 14        	sta	$14                     ; 0x14 <__rc4>
    2b31: a5 18        	lda	$18                     ; 0x18 <__rc8>
    2b33: 69 d9        	adc	#$d9
    2b35: a4 e6        	ldy	$e6                     ; 0xe6 <__zp_bss_size+0x40>
    2b37: 84 16        	sty	$16                     ; 0x16 <__rc6>
    2b39: a4 e7        	ldy	$e7                     ; 0xe7 <__zp_bss_size+0x41>
    2b3b: 84 17        	sty	$17                     ; 0x17 <__rc7>
    2b3d: e6 16        	inc	$16                     ; 0x16 <__rc6>
    2b3f: d0 02        	bne	$2b43 <setRadioB+0x85>
    2b41: e6 17        	inc	$17                     ; 0x17 <__rc7>
    2b43: 85 15        	sta	$15                     ; 0x15 <__rc5>
    2b45: a0 01        	ldy	#$1
    2b47: b1 e6        	lda	($e6),y                 ; 0xe6 <__zp_bss_size+0x40>
    2b49: 85 1b        	sta	$1b                     ; 0x1b <__rc11>
    2b4b: a0 03        	ldy	#$3
    2b4d: b1 e6        	lda	($e6),y                 ; 0xe6 <__zp_bss_size+0x40>
    2b4f: 85 19        	sta	$19                     ; 0x19 <__rc9>
    2b51: a0 01        	ldy	#$1
    2b53: b1 16        	lda	($16),y                 ; 0x16 <__rc6>
    2b55: 85 17        	sta	$17                     ; 0x17 <__rc7>
    2b57: b1 12        	lda	($12),y                 ; 0x12 <__rc2>
    2b59: 85 16        	sta	$16                     ; 0x16 <__rc6>
    2b5b: a5 1b        	lda	$1b                     ; 0x1b <__rc11>
    2b5d: 92 14        	sta	($14)                   ; 0x14 <__rc4>
    2b5f: a5 17        	lda	$17                     ; 0x17 <__rc7>
    2b61: 91 14        	sta	($14),y                 ; 0x14 <__rc4>
    2b63: 18           	clc
    2b64: a5 1a        	lda	$1a                     ; 0x1a <__rc10>
    2b66: 69 06        	adc	#$6
    2b68: 85 12        	sta	$12                     ; 0x12 <__rc2>
    2b6a: a5 18        	lda	$18                     ; 0x18 <__rc8>
    2b6c: 85 14        	sta	$14                     ; 0x14 <__rc4>
    2b6e: a5 18        	lda	$18                     ; 0x18 <__rc8>
    2b70: 69 d9        	adc	#$d9
    2b72: 85 13        	sta	$13                     ; 0x13 <__rc3>
    2b74: a5 19        	lda	$19                     ; 0x19 <__rc9>
    2b76: 92 12        	sta	($12)                   ; 0x12 <__rc2>
    2b78: a5 16        	lda	$16                     ; 0x16 <__rc6>
    2b7a: 91 12        	sta	($12),y                 ; 0x12 <__rc2>
    2b7c: a4 e9        	ldy	$e9                     ; 0xe9 <__zp_bss_size+0x43>
    2b7e: f0 23        	beq	$2ba3 <setRadioB+0xe5>
    2b80: a0 06        	ldy	#$6
    2b82: a9 01        	lda	#$1
    2b84: 91 e6        	sta	($e6),y                 ; 0xe6 <__zp_bss_size+0x40>
    2b86: a6 e6        	ldx	$e6                     ; 0xe6 <__zp_bss_size+0x40>
    2b88: 86 12        	stx	$12                     ; 0x12 <__rc2>
    2b8a: a6 e7        	ldx	$e7                     ; 0xe7 <__zp_bss_size+0x41>
    2b8c: 86 13        	stx	$13                     ; 0x13 <__rc3>
    2b8e: 20 f5 29     	jsr	$29f5 <updateRadioB>
    2b91: b2 e6        	lda	($e6)                   ; 0xe6 <__zp_bss_size+0x40>
    2b93: aa           	tax
    2b94: 0a           	asl
    2b95: 26 e8        	rol	$e8                     ; 0xe8 <__zp_bss_size+0x42>
    2b97: 0a           	asl
    2b98: 26 e8        	rol	$e8                     ; 0xe8 <__zp_bss_size+0x42>
    2b9a: 0a           	asl
    2b9b: 85 1a        	sta	$1a                     ; 0x1a <__rc10>
    2b9d: 26 e8        	rol	$e8                     ; 0xe8 <__zp_bss_size+0x42>
    2b9f: a4 e8        	ldy	$e8                     ; 0xe8 <__zp_bss_size+0x42>
    2ba1: 84 14        	sty	$14                     ; 0x14 <__rc4>
    2ba3: 18           	clc
    2ba4: a5 1a        	lda	$1a                     ; 0x1a <__rc10>
    2ba6: 69 00        	adc	#$0
    2ba8: 85 12        	sta	$12                     ; 0x12 <__rc2>
    2baa: a5 14        	lda	$14                     ; 0x14 <__rc4>
    2bac: 69 d9        	adc	#$d9
    2bae: 85 13        	sta	$13                     ; 0x13 <__rc3>
    2bb0: a9 01        	lda	#$1
    2bb2: 15 4c        	ora	$4c,x                   ; 0x4c <_spriteCtl>
    2bb4: 92 12        	sta	($12)                   ; 0x12 <__rc2>
    2bb6: 60           	rts

00002bb7 <updateDial>:
    2bb7: a6 12        	ldx	$12                     ; 0x12 <__rc2>
    2bb9: 86 e6        	stx	$e6                     ; 0xe6 <__zp_bss_size+0x40>
    2bbb: a6 13        	ldx	$13                     ; 0x13 <__rc3>
    2bbd: 86 e7        	stx	$e7                     ; 0xe7 <__zp_bss_size+0x41>
    2bbf: a0 13        	ldy	#$13
    2bc1: b1 12        	lda	($12),y                 ; 0x12 <__rc2>
    2bc3: aa           	tax
    2bc4: c8           	iny
    2bc5: b1 12        	lda	($12),y                 ; 0x12 <__rc2>
    2bc7: 85 15        	sta	$15                     ; 0x15 <__rc5>
    2bc9: 86 13        	stx	$13                     ; 0x13 <__rc3>
    2bcb: c5 13        	cmp	$13                     ; 0x13 <__rc3>
    2bcd: a9 00        	lda	#$0
    2bcf: b0 35        	bcs	$2c06 <updateDial+0x4f>
    2bd1: a0 15        	ldy	#$15
    2bd3: b1 e6        	lda	($e6),y                 ; 0xe6 <__zp_bss_size+0x40>
    2bd5: a8           	tay
    2bd6: 85 13        	sta	$13                     ; 0x13 <__rc3>
    2bd8: e4 13        	cpx	$13                     ; 0x13 <__rc3>
    2bda: a9 07        	lda	#$7
    2bdc: b0 28        	bcs	$2c06 <updateDial+0x4f>
    2bde: 38           	sec
    2bdf: 98           	tya
    2be0: e5 15        	sbc	$15                     ; 0x15 <__rc5>
    2be2: 85 12        	sta	$12                     ; 0x12 <__rc2>
    2be4: a9 00        	lda	#$0
    2be6: e9 00        	sbc	#$0
    2be8: e6 12        	inc	$12                     ; 0x12 <__rc2>
    2bea: d0 01        	bne	$2bed <updateDial+0x36>
    2bec: 1a           	inc
    2bed: 4a           	lsr
    2bee: 66 12        	ror	$12                     ; 0x12 <__rc2>
    2bf0: 4a           	lsr
    2bf1: 66 12        	ror	$12                     ; 0x12 <__rc2>
    2bf3: 4a           	lsr
    2bf4: 66 12        	ror	$12                     ; 0x12 <__rc2>
    2bf6: 8a           	txa
    2bf7: 38           	sec
    2bf8: e5 15        	sbc	$15                     ; 0x15 <__rc5>
    2bfa: a8           	tay
    2bfb: a9 00        	lda	#$0
    2bfd: e9 00        	sbc	#$0
    2bff: 64 13        	stz	$13                     ; 0x13 <__rc3>
    2c01: aa           	tax
    2c02: 98           	tya
    2c03: 20 1a 33     	jsr	$331a <__udivhi3>
    2c06: 4a           	lsr
    2c07: aa           	tax
    2c08: a9 00        	lda	#$0
    2c0a: 6a           	ror
    2c0b: 86 12        	stx	$12                     ; 0x12 <__rc2>
    2c0d: 46 12        	lsr	$12                     ; 0x12 <__rc2>
    2c0f: 6a           	ror
    2c10: 18           	clc
    2c11: 69 00        	adc	#$0
    2c13: 85 14        	sta	$14                     ; 0x14 <__rc4>
    2c15: a5 12        	lda	$12                     ; 0x12 <__rc2>
    2c17: 69 08        	adc	#$8
    2c19: 85 12        	sta	$12                     ; 0x12 <__rc2>
    2c1b: a9 00        	lda	#$0
    2c1d: 69 01        	adc	#$1
    2c1f: 85 17        	sta	$17                     ; 0x17 <__rc7>
    2c21: a9 00        	lda	#$0
    2c23: 69 00        	adc	#$0
    2c25: 85 15        	sta	$15                     ; 0x15 <__rc5>
    2c27: a4 e6        	ldy	$e6                     ; 0xe6 <__zp_bss_size+0x40>
    2c29: 84 e9        	sty	$e9                     ; 0xe9 <__zp_bss_size+0x43>
    2c2b: 18           	clc
    2c2c: a5 e6        	lda	$e6                     ; 0xe6 <__zp_bss_size+0x40>
    2c2e: 69 08        	adc	#$8
    2c30: 85 18        	sta	$18                     ; 0x18 <__rc8>
    2c32: a6 e7        	ldx	$e7                     ; 0xe7 <__zp_bss_size+0x41>
    2c34: 86 e8        	stx	$e8                     ; 0xe8 <__zp_bss_size+0x42>
    2c36: a5 e8        	lda	$e8                     ; 0xe8 <__zp_bss_size+0x42>
    2c38: 69 00        	adc	#$0
    2c3a: 85 19        	sta	$19                     ; 0x19 <__rc9>
    2c3c: a0 08        	ldy	#$8
    2c3e: a5 14        	lda	$14                     ; 0x14 <__rc4>
    2c40: 91 e6        	sta	($e6),y                 ; 0xe6 <__zp_bss_size+0x40>
    2c42: 85 16        	sta	$16                     ; 0x16 <__rc6>
    2c44: a0 02        	ldy	#$2
    2c46: a5 17        	lda	$17                     ; 0x17 <__rc7>
    2c48: 91 18        	sta	($18),y                 ; 0x18 <__rc8>
    2c4a: 85 13        	sta	$13                     ; 0x13 <__rc3>
    2c4c: 88           	dey
    2c4d: a5 12        	lda	$12                     ; 0x12 <__rc2>
    2c4f: 91 18        	sta	($18),y                 ; 0x18 <__rc8>
    2c51: a0 03        	ldy	#$3
    2c53: a6 15        	ldx	$15                     ; 0x15 <__rc5>
    2c55: 86 14        	stx	$14                     ; 0x14 <__rc4>
    2c57: a5 15        	lda	$15                     ; 0x15 <__rc5>
    2c59: 91 18        	sta	($18),y                 ; 0x18 <__rc8>
    2c5b: a0 0d        	ldy	#$d
    2c5d: b1 e6        	lda	($e6),y                 ; 0xe6 <__zp_bss_size+0x40>
    2c5f: 85 15        	sta	$15                     ; 0x15 <__rc5>
    2c61: b2 e6        	lda	($e6)                   ; 0xe6 <__zp_bss_size+0x40>
    2c63: a6 16        	ldx	$16                     ; 0x16 <__rc6>
    2c65: 20 92 28     	jsr	$2892 <spriteDefine>
    2c68: 18           	clc
    2c69: a6 e9        	ldx	$e9                     ; 0xe9 <__zp_bss_size+0x43>
    2c6b: 8a           	txa
    2c6c: 69 03        	adc	#$3
    2c6e: a8           	tay
    2c6f: a5 e8        	lda	$e8                     ; 0xe8 <__zp_bss_size+0x42>
    2c71: 69 00        	adc	#$0
    2c73: 84 12        	sty	$12                     ; 0x12 <__rc2>
    2c75: 85 13        	sta	$13                     ; 0x13 <__rc3>
    2c77: b2 e6        	lda	($e6)                   ; 0xe6 <__zp_bss_size+0x40>
    2c79: aa           	tax
    2c7a: 0a           	asl
    2c7b: 64 19        	stz	$19                     ; 0x19 <__rc9>
    2c7d: 26 19        	rol	$19                     ; 0x19 <__rc9>
    2c7f: 85 14        	sta	$14                     ; 0x14 <__rc4>
    2c81: 06 14        	asl	$14                     ; 0x14 <__rc4>
    2c83: 26 19        	rol	$19                     ; 0x19 <__rc9>
    2c85: 06 14        	asl	$14                     ; 0x14 <__rc4>
    2c87: a4 14        	ldy	$14                     ; 0x14 <__rc4>
    2c89: 84 18        	sty	$18                     ; 0x18 <__rc8>
    2c8b: 26 19        	rol	$19                     ; 0x19 <__rc9>
    2c8d: a5 14        	lda	$14                     ; 0x14 <__rc4>
    2c8f: 18           	clc
    2c90: 69 04        	adc	#$4
    2c92: 85 14        	sta	$14                     ; 0x14 <__rc4>
    2c94: a5 19        	lda	$19                     ; 0x19 <__rc9>
    2c96: 69 d9        	adc	#$d9
    2c98: 85 15        	sta	$15                     ; 0x15 <__rc5>
    2c9a: a4 e6        	ldy	$e6                     ; 0xe6 <__zp_bss_size+0x40>
    2c9c: 84 16        	sty	$16                     ; 0x16 <__rc6>
    2c9e: a4 e7        	ldy	$e7                     ; 0xe7 <__zp_bss_size+0x41>
    2ca0: 84 17        	sty	$17                     ; 0x17 <__rc7>
    2ca2: e6 16        	inc	$16                     ; 0x16 <__rc6>
    2ca4: d0 02        	bne	$2ca8 <updateDial+0xf1>
    2ca6: e6 17        	inc	$17                     ; 0x17 <__rc7>
    2ca8: a0 03        	ldy	#$3
    2caa: b1 e6        	lda	($e6),y                 ; 0xe6 <__zp_bss_size+0x40>
    2cac: 85 1a        	sta	$1a                     ; 0x1a <__rc10>
    2cae: a0 01        	ldy	#$1
    2cb0: b1 e6        	lda	($e6),y                 ; 0xe6 <__zp_bss_size+0x40>
    2cb2: 85 1b        	sta	$1b                     ; 0x1b <__rc11>
    2cb4: b1 16        	lda	($16),y                 ; 0x16 <__rc6>
    2cb6: 85 17        	sta	$17                     ; 0x17 <__rc7>
    2cb8: b1 12        	lda	($12),y                 ; 0x12 <__rc2>
    2cba: 85 16        	sta	$16                     ; 0x16 <__rc6>
    2cbc: a5 1b        	lda	$1b                     ; 0x1b <__rc11>
    2cbe: 92 14        	sta	($14)                   ; 0x14 <__rc4>
    2cc0: a5 17        	lda	$17                     ; 0x17 <__rc7>
    2cc2: 91 14        	sta	($14),y                 ; 0x14 <__rc4>
    2cc4: a5 18        	lda	$18                     ; 0x18 <__rc8>
    2cc6: 18           	clc
    2cc7: 69 06        	adc	#$6
    2cc9: 85 14        	sta	$14                     ; 0x14 <__rc4>
    2ccb: a5 19        	lda	$19                     ; 0x19 <__rc9>
    2ccd: 69 d9        	adc	#$d9
    2ccf: 5a           	phy
    2cd0: a4 14        	ldy	$14                     ; 0x14 <__rc4>
    2cd2: 84 12        	sty	$12                     ; 0x12 <__rc2>
    2cd4: 7a           	ply
    2cd5: 85 13        	sta	$13                     ; 0x13 <__rc3>
    2cd7: a5 1a        	lda	$1a                     ; 0x1a <__rc10>
    2cd9: 92 12        	sta	($12)                   ; 0x12 <__rc2>
    2cdb: a5 16        	lda	$16                     ; 0x16 <__rc6>
    2cdd: 91 12        	sta	($12),y                 ; 0x12 <__rc2>
    2cdf: 18           	clc
    2ce0: a5 18        	lda	$18                     ; 0x18 <__rc8>
    2ce2: 69 00        	adc	#$0
    2ce4: 85 12        	sta	$12                     ; 0x12 <__rc2>
    2ce6: a5 19        	lda	$19                     ; 0x19 <__rc9>
    2ce8: 69 d9        	adc	#$d9
    2cea: 85 13        	sta	$13                     ; 0x13 <__rc3>
    2cec: a9 01        	lda	#$1
    2cee: 15 4c        	ora	$4c,x                   ; 0x4c <_spriteCtl>
    2cf0: 92 12        	sta	($12)                   ; 0x12 <__rc2>
    2cf2: 60           	rts

00002cf3 <updateSlider>:
    2cf3: a6 12        	ldx	$12                     ; 0x12 <__rc2>
    2cf5: 86 e6        	stx	$e6                     ; 0xe6 <__zp_bss_size+0x40>
    2cf7: a6 13        	ldx	$13                     ; 0x13 <__rc3>
    2cf9: 86 e7        	stx	$e7                     ; 0xe7 <__zp_bss_size+0x41>
    2cfb: a0 13        	ldy	#$13
    2cfd: b1 12        	lda	($12),y                 ; 0x12 <__rc2>
    2cff: aa           	tax
    2d00: c8           	iny
    2d01: b1 12        	lda	($12),y                 ; 0x12 <__rc2>
    2d03: 85 15        	sta	$15                     ; 0x15 <__rc5>
    2d05: 86 13        	stx	$13                     ; 0x13 <__rc3>
    2d07: c5 13        	cmp	$13                     ; 0x13 <__rc3>
    2d09: a9 00        	lda	#$0
    2d0b: b0 35        	bcs	$2d42 <updateSlider+0x4f>
    2d0d: a0 15        	ldy	#$15
    2d0f: b1 e6        	lda	($e6),y                 ; 0xe6 <__zp_bss_size+0x40>
    2d11: a8           	tay
    2d12: 85 13        	sta	$13                     ; 0x13 <__rc3>
    2d14: e4 13        	cpx	$13                     ; 0x13 <__rc3>
    2d16: a9 07        	lda	#$7
    2d18: b0 28        	bcs	$2d42 <updateSlider+0x4f>
    2d1a: 38           	sec
    2d1b: 98           	tya
    2d1c: e5 15        	sbc	$15                     ; 0x15 <__rc5>
    2d1e: 85 12        	sta	$12                     ; 0x12 <__rc2>
    2d20: a9 00        	lda	#$0
    2d22: e9 00        	sbc	#$0
    2d24: e6 12        	inc	$12                     ; 0x12 <__rc2>
    2d26: d0 01        	bne	$2d29 <updateSlider+0x36>
    2d28: 1a           	inc
    2d29: 4a           	lsr
    2d2a: 66 12        	ror	$12                     ; 0x12 <__rc2>
    2d2c: 4a           	lsr
    2d2d: 66 12        	ror	$12                     ; 0x12 <__rc2>
    2d2f: 4a           	lsr
    2d30: 66 12        	ror	$12                     ; 0x12 <__rc2>
    2d32: 8a           	txa
    2d33: 38           	sec
    2d34: e5 15        	sbc	$15                     ; 0x15 <__rc5>
    2d36: a8           	tay
    2d37: a9 00        	lda	#$0
    2d39: e9 00        	sbc	#$0
    2d3b: 64 13        	stz	$13                     ; 0x13 <__rc3>
    2d3d: aa           	tax
    2d3e: 98           	tya
    2d3f: 20 1a 33     	jsr	$331a <__udivhi3>
    2d42: 4a           	lsr
    2d43: aa           	tax
    2d44: a9 00        	lda	#$0
    2d46: 6a           	ror
    2d47: 86 12        	stx	$12                     ; 0x12 <__rc2>
    2d49: 46 12        	lsr	$12                     ; 0x12 <__rc2>
    2d4b: 6a           	ror
    2d4c: 18           	clc
    2d4d: 69 00        	adc	#$0
    2d4f: 85 18        	sta	$18                     ; 0x18 <__rc8>
    2d51: a5 12        	lda	$12                     ; 0x12 <__rc2>
    2d53: 69 0a        	adc	#$a
    2d55: 85 12        	sta	$12                     ; 0x12 <__rc2>
    2d57: a9 00        	lda	#$0
    2d59: 69 01        	adc	#$1
    2d5b: 85 19        	sta	$19                     ; 0x19 <__rc9>
    2d5d: a9 00        	lda	#$0
    2d5f: 69 00        	adc	#$0
    2d61: 85 1a        	sta	$1a                     ; 0x1a <__rc10>
    2d63: a4 e6        	ldy	$e6                     ; 0xe6 <__zp_bss_size+0x40>
    2d65: 84 ec        	sty	$ec                     ; 0xec <__zp_bss_size+0x46>
    2d67: 18           	clc
    2d68: a5 e6        	lda	$e6                     ; 0xe6 <__zp_bss_size+0x40>
    2d6a: 69 08        	adc	#$8
    2d6c: 85 16        	sta	$16                     ; 0x16 <__rc6>
    2d6e: a6 e7        	ldx	$e7                     ; 0xe7 <__zp_bss_size+0x41>
    2d70: 86 ea        	stx	$ea                     ; 0xea <__zp_bss_size+0x44>
    2d72: a5 ea        	lda	$ea                     ; 0xea <__zp_bss_size+0x44>
    2d74: 69 00        	adc	#$0
    2d76: 85 17        	sta	$17                     ; 0x17 <__rc7>
    2d78: a6 16        	ldx	$16                     ; 0x16 <__rc6>
    2d7a: 86 14        	stx	$14                     ; 0x14 <__rc4>
    2d7c: 85 15        	sta	$15                     ; 0x15 <__rc5>
    2d7e: a6 14        	ldx	$14                     ; 0x14 <__rc4>
    2d80: 86 e8        	stx	$e8                     ; 0xe8 <__zp_bss_size+0x42>
    2d82: a6 15        	ldx	$15                     ; 0x15 <__rc5>
    2d84: 86 e9        	stx	$e9                     ; 0xe9 <__zp_bss_size+0x43>
    2d86: a0 08        	ldy	#$8
    2d88: a5 18        	lda	$18                     ; 0x18 <__rc8>
    2d8a: 91 e6        	sta	($e6),y                 ; 0xe6 <__zp_bss_size+0x40>
    2d8c: a0 01        	ldy	#$1
    2d8e: a5 12        	lda	$12                     ; 0x12 <__rc2>
    2d90: 91 16        	sta	($16),y                 ; 0x16 <__rc6>
    2d92: c8           	iny
    2d93: a6 19        	ldx	$19                     ; 0x19 <__rc9>
    2d95: a5 19        	lda	$19                     ; 0x19 <__rc9>
    2d97: 91 16        	sta	($16),y                 ; 0x16 <__rc6>
    2d99: c8           	iny
    2d9a: a5 1a        	lda	$1a                     ; 0x1a <__rc10>
    2d9c: 91 16        	sta	($16),y                 ; 0x16 <__rc6>
    2d9e: b2 e6        	lda	($e6)                   ; 0xe6 <__zp_bss_size+0x40>
    2da0: 85 16        	sta	$16                     ; 0x16 <__rc6>
    2da2: a0 0d        	ldy	#$d
    2da4: b1 e6        	lda	($e6),y                 ; 0xe6 <__zp_bss_size+0x40>
    2da6: 86 13        	stx	$13                     ; 0x13 <__rc3>
    2da8: a6 1a        	ldx	$1a                     ; 0x1a <__rc10>
    2daa: 86 14        	stx	$14                     ; 0x14 <__rc4>
    2dac: 85 15        	sta	$15                     ; 0x15 <__rc5>
    2dae: a6 18        	ldx	$18                     ; 0x18 <__rc8>
    2db0: a5 16        	lda	$16                     ; 0x16 <__rc6>
    2db2: 20 92 28     	jsr	$2892 <spriteDefine>
    2db5: b2 e6        	lda	($e6)                   ; 0xe6 <__zp_bss_size+0x40>
    2db7: 85 16        	sta	$16                     ; 0x16 <__rc6>
    2db9: 18           	clc
    2dba: a6 ec        	ldx	$ec                     ; 0xec <__zp_bss_size+0x46>
    2dbc: 8a           	txa
    2dbd: 69 03        	adc	#$3
    2dbf: a8           	tay
    2dc0: a5 ea        	lda	$ea                     ; 0xea <__zp_bss_size+0x44>
    2dc2: 69 00        	adc	#$0
    2dc4: 84 12        	sty	$12                     ; 0x12 <__rc2>
    2dc6: 85 13        	sta	$13                     ; 0x13 <__rc3>
    2dc8: 84 14        	sty	$14                     ; 0x14 <__rc4>
    2dca: 85 15        	sta	$15                     ; 0x15 <__rc5>
    2dcc: a6 12        	ldx	$12                     ; 0x12 <__rc2>
    2dce: 86 ec        	stx	$ec                     ; 0xec <__zp_bss_size+0x46>
    2dd0: 85 ed        	sta	$ed                     ; 0xed <__zp_bss_size+0x47>
    2dd2: a5 16        	lda	$16                     ; 0x16 <__rc6>
    2dd4: 0a           	asl
    2dd5: 64 1c        	stz	$1c                     ; 0x1c <__rc12>
    2dd7: 26 1c        	rol	$1c                     ; 0x1c <__rc12>
    2dd9: 85 12        	sta	$12                     ; 0x12 <__rc2>
    2ddb: 06 12        	asl	$12                     ; 0x12 <__rc2>
    2ddd: 26 1c        	rol	$1c                     ; 0x1c <__rc12>
    2ddf: 06 12        	asl	$12                     ; 0x12 <__rc2>
    2de1: a6 12        	ldx	$12                     ; 0x12 <__rc2>
    2de3: 86 17        	stx	$17                     ; 0x17 <__rc7>
    2de5: 26 1c        	rol	$1c                     ; 0x1c <__rc12>
    2de7: a5 12        	lda	$12                     ; 0x12 <__rc2>
    2de9: 18           	clc
    2dea: 69 04        	adc	#$4
    2dec: 85 12        	sta	$12                     ; 0x12 <__rc2>
    2dee: a5 1c        	lda	$1c                     ; 0x1c <__rc12>
    2df0: 69 d9        	adc	#$d9
    2df2: a6 e6        	ldx	$e6                     ; 0xe6 <__zp_bss_size+0x40>
    2df4: 86 18        	stx	$18                     ; 0x18 <__rc8>
    2df6: a6 e7        	ldx	$e7                     ; 0xe7 <__zp_bss_size+0x41>
    2df8: 86 19        	stx	$19                     ; 0x19 <__rc9>
    2dfa: e6 18        	inc	$18                     ; 0x18 <__rc8>
    2dfc: d0 02        	bne	$2e00 <updateSlider+0x10d>
    2dfe: e6 19        	inc	$19                     ; 0x19 <__rc9>
    2e00: a6 18        	ldx	$18                     ; 0x18 <__rc8>
    2e02: 86 1a        	stx	$1a                     ; 0x1a <__rc10>
    2e04: a6 19        	ldx	$19                     ; 0x19 <__rc9>
    2e06: 86 1b        	stx	$1b                     ; 0x1b <__rc11>
    2e08: a6 1a        	ldx	$1a                     ; 0x1a <__rc10>
    2e0a: 86 ea        	stx	$ea                     ; 0xea <__zp_bss_size+0x44>
    2e0c: a6 1b        	ldx	$1b                     ; 0x1b <__rc11>
    2e0e: 86 eb        	stx	$eb                     ; 0xeb <__zp_bss_size+0x45>
    2e10: 85 13        	sta	$13                     ; 0x13 <__rc3>
    2e12: a0 01        	ldy	#$1
    2e14: b1 e6        	lda	($e6),y                 ; 0xe6 <__zp_bss_size+0x40>
    2e16: 85 1a        	sta	$1a                     ; 0x1a <__rc10>
    2e18: b1 18        	lda	($18),y                 ; 0x18 <__rc8>
    2e1a: 85 19        	sta	$19                     ; 0x19 <__rc9>
    2e1c: a0 03        	ldy	#$3
    2e1e: b1 e6        	lda	($e6),y                 ; 0xe6 <__zp_bss_size+0x40>
    2e20: 85 18        	sta	$18                     ; 0x18 <__rc8>
    2e22: a0 01        	ldy	#$1
    2e24: b1 14        	lda	($14),y                 ; 0x14 <__rc4>
    2e26: 85 14        	sta	$14                     ; 0x14 <__rc4>
    2e28: a5 1a        	lda	$1a                     ; 0x1a <__rc10>
    2e2a: 92 12        	sta	($12)                   ; 0x12 <__rc2>
    2e2c: a5 19        	lda	$19                     ; 0x19 <__rc9>
    2e2e: 91 12        	sta	($12),y                 ; 0x12 <__rc2>
    2e30: 18           	clc
    2e31: a5 17        	lda	$17                     ; 0x17 <__rc7>
    2e33: 69 06        	adc	#$6
    2e35: 85 12        	sta	$12                     ; 0x12 <__rc2>
    2e37: a5 1c        	lda	$1c                     ; 0x1c <__rc12>
    2e39: 69 d9        	adc	#$d9
    2e3b: 85 13        	sta	$13                     ; 0x13 <__rc3>
    2e3d: a5 18        	lda	$18                     ; 0x18 <__rc8>
    2e3f: 92 12        	sta	($12)                   ; 0x12 <__rc2>
    2e41: a5 14        	lda	$14                     ; 0x14 <__rc4>
    2e43: 91 12        	sta	($12),y                 ; 0x12 <__rc2>
    2e45: a0 08        	ldy	#$8
    2e47: b1 e6        	lda	($e6),y                 ; 0xe6 <__zp_bss_size+0x40>
    2e49: 85 17        	sta	$17                     ; 0x17 <__rc7>
    2e4b: a0 02        	ldy	#$2
    2e4d: a6 e8        	ldx	$e8                     ; 0xe8 <__zp_bss_size+0x42>
    2e4f: 86 14        	stx	$14                     ; 0x14 <__rc4>
    2e51: a6 e9        	ldx	$e9                     ; 0xe9 <__zp_bss_size+0x43>
    2e53: 86 15        	stx	$15                     ; 0x15 <__rc5>
    2e55: b1 14        	lda	($14),y                 ; 0x14 <__rc4>
    2e57: 85 13        	sta	$13                     ; 0x13 <__rc3>
    2e59: e6 16        	inc	$16                     ; 0x16 <__rc6>
    2e5b: 88           	dey
    2e5c: b1 14        	lda	($14),y                 ; 0x14 <__rc4>
    2e5e: 85 12        	sta	$12                     ; 0x12 <__rc2>
    2e60: a0 03        	ldy	#$3
    2e62: b1 14        	lda	($14),y                 ; 0x14 <__rc4>
    2e64: 85 14        	sta	$14                     ; 0x14 <__rc4>
    2e66: 18           	clc
    2e67: a5 17        	lda	$17                     ; 0x17 <__rc7>
    2e69: 69 00        	adc	#$0
    2e6b: aa           	tax
    2e6c: a5 12        	lda	$12                     ; 0x12 <__rc2>
    2e6e: 69 02        	adc	#$2
    2e70: 85 12        	sta	$12                     ; 0x12 <__rc2>
    2e72: a5 13        	lda	$13                     ; 0x13 <__rc3>
    2e74: 69 00        	adc	#$0
    2e76: 85 13        	sta	$13                     ; 0x13 <__rc3>
    2e78: a5 14        	lda	$14                     ; 0x14 <__rc4>
    2e7a: 69 00        	adc	#$0
    2e7c: 85 14        	sta	$14                     ; 0x14 <__rc4>
    2e7e: a0 0d        	ldy	#$d
    2e80: b1 e6        	lda	($e6),y                 ; 0xe6 <__zp_bss_size+0x40>
    2e82: 85 15        	sta	$15                     ; 0x15 <__rc5>
    2e84: a5 16        	lda	$16                     ; 0x16 <__rc6>
    2e86: 20 92 28     	jsr	$2892 <spriteDefine>
    2e89: a0 0d        	ldy	#$d
    2e8b: b1 e6        	lda	($e6),y                 ; 0xe6 <__zp_bss_size+0x40>
    2e8d: 85 16        	sta	$16                     ; 0x16 <__rc6>
    2e8f: b2 e6        	lda	($e6)                   ; 0xe6 <__zp_bss_size+0x40>
    2e91: 85 18        	sta	$18                     ; 0x18 <__rc8>
    2e93: a0 01        	ldy	#$1
    2e95: b1 e6        	lda	($e6),y                 ; 0xe6 <__zp_bss_size+0x40>
    2e97: 85 19        	sta	$19                     ; 0x19 <__rc9>
    2e99: a6 ea        	ldx	$ea                     ; 0xea <__zp_bss_size+0x44>
    2e9b: 86 12        	stx	$12                     ; 0x12 <__rc2>
    2e9d: a6 eb        	ldx	$eb                     ; 0xeb <__zp_bss_size+0x45>
    2e9f: 86 13        	stx	$13                     ; 0x13 <__rc3>
    2ea1: b1 12        	lda	($12),y                 ; 0x12 <__rc2>
    2ea3: 85 1a        	sta	$1a                     ; 0x1a <__rc10>
    2ea5: a6 ec        	ldx	$ec                     ; 0xec <__zp_bss_size+0x46>
    2ea7: 86 12        	stx	$12                     ; 0x12 <__rc2>
    2ea9: a6 ed        	ldx	$ed                     ; 0xed <__zp_bss_size+0x47>
    2eab: 86 13        	stx	$13                     ; 0x13 <__rc3>
    2ead: b1 12        	lda	($12),y                 ; 0x12 <__rc2>
    2eaf: 85 12        	sta	$12                     ; 0x12 <__rc2>
    2eb1: 18           	clc
    2eb2: a0 03        	ldy	#$3
    2eb4: a5 16        	lda	$16                     ; 0x16 <__rc6>
    2eb6: 71 e6        	adc	($e6),y                 ; 0xe6 <__zp_bss_size+0x40>
    2eb8: 85 16        	sta	$16                     ; 0x16 <__rc6>
    2eba: a5 12        	lda	$12                     ; 0x12 <__rc2>
    2ebc: 69 00        	adc	#$0
    2ebe: 85 17        	sta	$17                     ; 0x17 <__rc7>
    2ec0: a6 18        	ldx	$18                     ; 0x18 <__rc8>
    2ec2: a5 18        	lda	$18                     ; 0x18 <__rc8>
    2ec4: 1a           	inc
    2ec5: 0a           	asl
    2ec6: 64 1b        	stz	$1b                     ; 0x1b <__rc11>
    2ec8: 26 1b        	rol	$1b                     ; 0x1b <__rc11>
    2eca: 0a           	asl
    2ecb: 26 1b        	rol	$1b                     ; 0x1b <__rc11>
    2ecd: 0a           	asl
    2ece: 26 1b        	rol	$1b                     ; 0x1b <__rc11>
    2ed0: 85 1c        	sta	$1c                     ; 0x1c <__rc12>
    2ed2: 18           	clc
    2ed3: 69 04        	adc	#$4
    2ed5: 85 12        	sta	$12                     ; 0x12 <__rc2>
    2ed7: a5 1b        	lda	$1b                     ; 0x1b <__rc11>
    2ed9: 69 d9        	adc	#$d9
    2edb: 85 13        	sta	$13                     ; 0x13 <__rc3>
    2edd: a5 19        	lda	$19                     ; 0x19 <__rc9>
    2edf: 92 12        	sta	($12)                   ; 0x12 <__rc2>
    2ee1: a0 01        	ldy	#$1
    2ee3: a5 1a        	lda	$1a                     ; 0x1a <__rc10>
    2ee5: 91 12        	sta	($12),y                 ; 0x12 <__rc2>
    2ee7: 18           	clc
    2ee8: a5 1c        	lda	$1c                     ; 0x1c <__rc12>
    2eea: 69 06        	adc	#$6
    2eec: 85 12        	sta	$12                     ; 0x12 <__rc2>
    2eee: a5 1b        	lda	$1b                     ; 0x1b <__rc11>
    2ef0: 69 d9        	adc	#$d9
    2ef2: 85 13        	sta	$13                     ; 0x13 <__rc3>
    2ef4: a5 16        	lda	$16                     ; 0x16 <__rc6>
    2ef6: 92 12        	sta	($12)                   ; 0x12 <__rc2>
    2ef8: a5 17        	lda	$17                     ; 0x17 <__rc7>
    2efa: 91 12        	sta	($12),y                 ; 0x12 <__rc2>
    2efc: a5 18        	lda	$18                     ; 0x18 <__rc8>
    2efe: 0a           	asl
    2eff: 85 12        	sta	$12                     ; 0x12 <__rc2>
    2f01: a9 00        	lda	#$0
    2f03: 2a           	rol
    2f04: 06 12        	asl	$12                     ; 0x12 <__rc2>
    2f06: 2a           	rol
    2f07: 06 12        	asl	$12                     ; 0x12 <__rc2>
    2f09: 2a           	rol
    2f0a: a8           	tay
    2f0b: 18           	clc
    2f0c: a5 12        	lda	$12                     ; 0x12 <__rc2>
    2f0e: 69 00        	adc	#$0
    2f10: 85 12        	sta	$12                     ; 0x12 <__rc2>
    2f12: 98           	tya
    2f13: 69 d9        	adc	#$d9
    2f15: 85 13        	sta	$13                     ; 0x13 <__rc3>
    2f17: a9 01        	lda	#$1
    2f19: 15 4c        	ora	$4c,x                   ; 0x4c <_spriteCtl>
    2f1b: 92 12        	sta	($12)                   ; 0x12 <__rc2>
    2f1d: b2 e6        	lda	($e6)                   ; 0xe6 <__zp_bss_size+0x40>
    2f1f: 1a           	inc
    2f20: aa           	tax
    2f21: 85 12        	sta	$12                     ; 0x12 <__rc2>
    2f23: a9 01        	lda	#$1
    2f25: 15 4c        	ora	$4c,x                   ; 0x4c <_spriteCtl>
    2f27: 85 14        	sta	$14                     ; 0x14 <__rc4>
    2f29: 06 12        	asl	$12                     ; 0x12 <__rc2>
    2f2b: a9 00        	lda	#$0
    2f2d: 2a           	rol
    2f2e: 06 12        	asl	$12                     ; 0x12 <__rc2>
    2f30: 2a           	rol
    2f31: 06 12        	asl	$12                     ; 0x12 <__rc2>
    2f33: 2a           	rol
    2f34: aa           	tax
    2f35: 18           	clc
    2f36: a5 12        	lda	$12                     ; 0x12 <__rc2>
    2f38: 69 00        	adc	#$0
    2f3a: 85 12        	sta	$12                     ; 0x12 <__rc2>
    2f3c: 8a           	txa
    2f3d: 69 d9        	adc	#$d9
    2f3f: 85 13        	sta	$13                     ; 0x13 <__rc3>
    2f41: a5 14        	lda	$14                     ; 0x14 <__rc4>
    2f43: 92 12        	sta	($12)                   ; 0x12 <__rc2>
    2f45: 60           	rts

00002f46 <sid_setInstrument>:
    2f46: a8           	tay
    2f47: a9 00        	lda	#$0
    2f49: 85 eb        	sta	$eb                     ; 0xeb <__zp_bss_size+0x45>
    2f4b: 98           	tya
    2f4c: f0 04        	beq	$2f52 <sid_setInstrument+0xc>
    2f4e: a0 d5        	ldy	#$d5
    2f50: 80 02        	bra	$2f54 <sid_setInstrument+0xe>
    2f52: a0 d4        	ldy	#$d4
    2f54: 84 ec        	sty	$ec                     ; 0xec <__zp_bss_size+0x46>
    2f56: e0 02        	cpx	#$2
    2f58: f0 08        	beq	$2f62 <sid_setInstrument+0x1c>
    2f5a: e0 01        	cpx	#$1
    2f5c: d0 08        	bne	$2f66 <sid_setInstrument+0x20>
    2f5e: a2 07        	ldx	#$7
    2f60: 80 02        	bra	$2f64 <sid_setInstrument+0x1e>
    2f62: a2 0e        	ldx	#$e
    2f64: 86 eb        	stx	$eb                     ; 0xeb <__zp_bss_size+0x45>
    2f66: a0 01        	ldy	#$1
    2f68: b1 12        	lda	($12),y                 ; 0x12 <__rc2>
    2f6a: 85 17        	sta	$17                     ; 0x17 <__rc7>
    2f6c: a6 eb        	ldx	$eb                     ; 0xeb <__zp_bss_size+0x45>
    2f6e: 86 16        	stx	$16                     ; 0x16 <__rc6>
    2f70: 8a           	txa
    2f71: 18           	clc
    2f72: 69 02        	adc	#$2
    2f74: 85 14        	sta	$14                     ; 0x14 <__rc4>
    2f76: a6 ec        	ldx	$ec                     ; 0xec <__zp_bss_size+0x46>
    2f78: 8a           	txa
    2f79: 69 00        	adc	#$0
    2f7b: 85 15        	sta	$15                     ; 0x15 <__rc5>
    2f7d: a5 17        	lda	$17                     ; 0x17 <__rc7>
    2f7f: 92 14        	sta	($14)                   ; 0x14 <__rc4>
    2f81: c8           	iny
    2f82: b1 12        	lda	($12),y                 ; 0x12 <__rc2>
    2f84: 85 17        	sta	$17                     ; 0x17 <__rc7>
    2f86: a5 16        	lda	$16                     ; 0x16 <__rc6>
    2f88: 18           	clc
    2f89: 69 03        	adc	#$3
    2f8b: 85 14        	sta	$14                     ; 0x14 <__rc4>
    2f8d: 8a           	txa
    2f8e: 69 00        	adc	#$0
    2f90: 85 15        	sta	$15                     ; 0x15 <__rc5>
    2f92: a5 17        	lda	$17                     ; 0x17 <__rc7>
    2f94: 92 14        	sta	($14)                   ; 0x14 <__rc4>
    2f96: c8           	iny
    2f97: b1 12        	lda	($12),y                 ; 0x12 <__rc2>
    2f99: 85 17        	sta	$17                     ; 0x17 <__rc7>
    2f9b: a5 16        	lda	$16                     ; 0x16 <__rc6>
    2f9d: 18           	clc
    2f9e: 69 05        	adc	#$5
    2fa0: 85 14        	sta	$14                     ; 0x14 <__rc4>
    2fa2: 8a           	txa
    2fa3: 69 00        	adc	#$0
    2fa5: 85 15        	sta	$15                     ; 0x15 <__rc5>
    2fa7: a5 17        	lda	$17                     ; 0x17 <__rc7>
    2fa9: 92 14        	sta	($14)                   ; 0x14 <__rc4>
    2fab: a5 16        	lda	$16                     ; 0x16 <__rc6>
    2fad: 18           	clc
    2fae: 69 06        	adc	#$6
    2fb0: 85 14        	sta	$14                     ; 0x14 <__rc4>
    2fb2: 8a           	txa
    2fb3: 69 00        	adc	#$0
    2fb5: 18           	clc
    2fb6: 85 15        	sta	$15                     ; 0x15 <__rc5>
    2fb8: c8           	iny
    2fb9: b1 12        	lda	($12),y                 ; 0x12 <__rc2>
    2fbb: 92 14        	sta	($14)                   ; 0x14 <__rc4>
    2fbd: a5 16        	lda	$16                     ; 0x16 <__rc6>
    2fbf: 69 04        	adc	#$4
    2fc1: 85 14        	sta	$14                     ; 0x14 <__rc4>
    2fc3: 8a           	txa
    2fc4: 69 00        	adc	#$0
    2fc6: 85 15        	sta	$15                     ; 0x15 <__rc5>
    2fc8: c8           	iny
    2fc9: b1 12        	lda	($12),y                 ; 0x12 <__rc2>
    2fcb: 92 14        	sta	($14)                   ; 0x14 <__rc4>
    2fcd: 60           	rts

00002fce <exit>:
    2fce: 20 27 03     	jsr	$327 <_fini>
    2fd1: 80 fe        	bra	$2fd1 <exit+0x3>

00002fd3 <malloc>:
    2fd3: a8           	tay
    2fd4: 8a           	txa
    2fd5: a2 00        	ldx	#$0
    2fd7: 86 12        	stx	$12                     ; 0x12 <__rc2>
    2fd9: a2 00        	ldx	#$0
    2fdb: 86 13        	stx	$13                     ; 0x13 <__rc3>
    2fdd: aa           	tax
    2fde: d0 07        	bne	$2fe7 <malloc+0x14>
    2fe0: c0 00        	cpy	#$0
    2fe2: d0 03        	bne	$2fe7 <malloc+0x14>
    2fe4: 4c e3 30     	jmp	$30e3 <malloc+0x110>
    2fe7: 84 16        	sty	$16                     ; 0x16 <__rc6>
    2fe9: aa           	tax
    2fea: d0 0e        	bne	$2ffa <malloc+0x27>
    2fec: a6 16        	ldx	$16                     ; 0x16 <__rc6>
    2fee: e0 07        	cpx	#$7
    2ff0: b0 0c        	bcs	$2ffe <malloc+0x2b>
    2ff2: a2 08        	ldx	#$8
    2ff4: 86 e6        	stx	$e6                     ; 0xe6 <__zp_bss_size+0x40>
    2ff6: a9 00        	lda	#$0
    2ff8: 80 2f        	bra	$3029 <malloc+0x56>
    2ffa: c9 00        	cmp	#$0
    2ffc: 90 f4        	bcc	$2ff2 <malloc+0x1f>
    2ffe: a8           	tay
    2fff: a5 16        	lda	$16                     ; 0x16 <__rc6>
    3001: 29 01        	and	#$1
    3003: a2 02        	ldx	#$2
    3005: 64 14        	stz	$14                     ; 0x14 <__rc4>
    3007: c9 00        	cmp	#$0
    3009: f0 02        	beq	$300d <malloc+0x3a>
    300b: a2 03        	ldx	#$3
    300d: 86 15        	stx	$15                     ; 0x15 <__rc5>
    300f: 18           	clc
    3010: a5 16        	lda	$16                     ; 0x16 <__rc6>
    3012: 65 15        	adc	$15                     ; 0x15 <__rc5>
    3014: aa           	tax
    3015: 98           	tya
    3016: 65 14        	adc	$14                     ; 0x14 <__rc4>
    3018: 90 03        	bcc	$301d <malloc+0x4a>
    301a: 4c e3 30     	jmp	$30e3 <malloc+0x110>
    301d: 86 e6        	stx	$e6                     ; 0xe6 <__zp_bss_size+0x40>
    301f: a8           	tay
    3020: d0 07        	bne	$3029 <malloc+0x56>
    3022: e0 00        	cpx	#$0
    3024: d0 03        	bne	$3029 <malloc+0x56>
    3026: 4c e3 30     	jmp	$30e3 <malloc+0x110>
    3029: 85 e7        	sta	$e7                     ; 0xe7 <__zp_bss_size+0x41>
    302b: ad ec 38     	lda	$38ec                   ; 0x38ec <_ZN12_GLOBAL__N_111initializedE>
    302e: 29 01        	and	#$1
    3030: d0 2a        	bne	$305c <malloc+0x89>
    3032: a9 00        	lda	#$0
    3034: a2 10        	ldx	#$10
    3036: a0 fa        	ldy	#$fa
    3038: 84 12        	sty	$12                     ; 0x12 <__rc2>
    303a: a0 38        	ldy	#$38
    303c: 84 13        	sty	$13                     ; 0x13 <__rc3>
    303e: 20 28 03     	jsr	$328 <_ZN12_GLOBAL__N_19FreeChunk6insertEPvj>
    3041: a2 00        	ldx	#$0
    3043: 86 12        	stx	$12                     ; 0x12 <__rc2>
    3045: a2 00        	ldx	#$0
    3047: 86 13        	stx	$13                     ; 0x13 <__rc3>
    3049: ae fb 38     	ldx	$38fb                   ; 0x38fb <end_block9+0x1>
    304c: a9 fe        	lda	#$fe
    304e: 2d fa 38     	and	$38fa                   ; 0x38fa <end_block9>
    3051: 8d fa 38     	sta	$38fa                   ; 0x38fa <end_block9>
    3054: 8e fb 38     	stx	$38fb                   ; 0x38fb <end_block9+0x1>
    3057: a2 01        	ldx	#$1
    3059: 8e ec 38     	stx	$38ec                   ; 0x38ec <_ZN12_GLOBAL__N_111initializedE>
    305c: ad ef 38     	lda	$38ef                   ; 0x38ef <_ZN12_GLOBAL__N_19free_listE>
    305f: ae f0 38     	ldx	$38f0                   ; 0x38f0 <_ZN12_GLOBAL__N_19free_listE+0x1>
    3062: a0 00        	ldy	#$0
    3064: 84 14        	sty	$14                     ; 0x14 <__rc4>
    3066: a0 00        	ldy	#$0
    3068: 84 15        	sty	$15                     ; 0x15 <__rc5>
    306a: 86 1d        	stx	$1d                     ; 0x1d <__rc13>
    306c: e4 15        	cpx	$15                     ; 0x15 <__rc5>
    306e: d0 07        	bne	$3077 <malloc+0xa4>
    3070: c5 14        	cmp	$14                     ; 0x14 <__rc4>
    3072: d0 03        	bne	$3077 <malloc+0xa4>
    3074: 4c e3 30     	jmp	$30e3 <malloc+0x110>
    3077: a0 00        	ldy	#$0
    3079: a2 10        	ldx	#$10
    307b: 85 18        	sta	$18                     ; 0x18 <__rc8>
    307d: 84 14        	sty	$14                     ; 0x14 <__rc4>
    307f: 86 15        	stx	$15                     ; 0x15 <__rc5>
    3081: 18           	clc
    3082: a9 fa        	lda	#$fa
    3084: 65 14        	adc	$14                     ; 0x14 <__rc4>
    3086: 85 14        	sta	$14                     ; 0x14 <__rc4>
    3088: a9 38        	lda	#$38
    308a: 65 15        	adc	$15                     ; 0x15 <__rc5>
    308c: a6 14        	ldx	$14                     ; 0x14 <__rc4>
    308e: 86 e8        	stx	$e8                     ; 0xe8 <__zp_bss_size+0x42>
    3090: 85 17        	sta	$17                     ; 0x17 <__rc7>
    3092: a6 18        	ldx	$18                     ; 0x18 <__rc8>
    3094: 86 1c        	stx	$1c                     ; 0x1c <__rc12>
    3096: a6 18        	ldx	$18                     ; 0x18 <__rc8>
    3098: 86 14        	stx	$14                     ; 0x14 <__rc4>
    309a: a6 1d        	ldx	$1d                     ; 0x1d <__rc13>
    309c: 86 15        	stx	$15                     ; 0x15 <__rc5>
    309e: a0 01        	ldy	#$1
    30a0: a6 e7        	ldx	$e7                     ; 0xe7 <__zp_bss_size+0x41>
    30a2: 86 18        	stx	$18                     ; 0x18 <__rc8>
    30a4: b1 14        	lda	($14),y                 ; 0x14 <__rc4>
    30a6: 85 19        	sta	$19                     ; 0x19 <__rc9>
    30a8: aa           	tax
    30a9: a9 fe        	lda	#$fe
    30ab: 32 14        	and	($14)                   ; 0x14 <__rc4>
    30ad: 85 1a        	sta	$1a                     ; 0x1a <__rc10>
    30af: e4 18        	cpx	$18                     ; 0x18 <__rc8>
    30b1: d0 0a        	bne	$30bd <malloc+0xea>
    30b3: a6 e6        	ldx	$e6                     ; 0xe6 <__zp_bss_size+0x40>
    30b5: 86 1b        	stx	$1b                     ; 0x1b <__rc11>
    30b7: c5 1b        	cmp	$1b                     ; 0x1b <__rc11>
    30b9: b0 29        	bcs	$30e4 <malloc+0x111>
    30bb: 80 04        	bra	$30c1 <malloc+0xee>
    30bd: e4 18        	cpx	$18                     ; 0x18 <__rc8>
    30bf: b0 23        	bcs	$30e4 <malloc+0x111>
    30c1: a5 14        	lda	$14                     ; 0x14 <__rc4>
    30c3: 18           	clc
    30c4: 69 02        	adc	#$2
    30c6: 85 1a        	sta	$1a                     ; 0x1a <__rc10>
    30c8: a5 15        	lda	$15                     ; 0x15 <__rc5>
    30ca: 69 00        	adc	#$0
    30cc: 85 1b        	sta	$1b                     ; 0x1b <__rc11>
    30ce: a0 02        	ldy	#$2
    30d0: b1 14        	lda	($14),y                 ; 0x14 <__rc4>
    30d2: 85 14        	sta	$14                     ; 0x14 <__rc4>
    30d4: 88           	dey
    30d5: b1 1a        	lda	($1a),y                 ; 0x1a <__rc10>
    30d7: 85 15        	sta	$15                     ; 0x15 <__rc5>
    30d9: c5 1d        	cmp	$1d                     ; 0x1d <__rc13>
    30db: d0 c7        	bne	$30a4 <malloc+0xd1>
    30dd: a5 14        	lda	$14                     ; 0x14 <__rc4>
    30df: c5 1c        	cmp	$1c                     ; 0x1c <__rc12>
    30e1: d0 c1        	bne	$30a4 <malloc+0xd1>
    30e3: 60           	rts
    30e4: ad ed 38     	lda	$38ed                   ; 0x38ed <_ZN12_GLOBAL__N_19free_sizeE>
    30e7: ae ee 38     	ldx	$38ee                   ; 0x38ee <_ZN12_GLOBAL__N_19free_sizeE+0x1>
    30ea: 86 12        	stx	$12                     ; 0x12 <__rc2>
    30ec: 38           	sec
    30ed: e5 1a        	sbc	$1a                     ; 0x1a <__rc10>
    30ef: aa           	tax
    30f0: a5 12        	lda	$12                     ; 0x12 <__rc2>
    30f2: e5 19        	sbc	$19                     ; 0x19 <__rc9>
    30f4: 85 12        	sta	$12                     ; 0x12 <__rc2>
    30f6: 18           	clc
    30f7: 8a           	txa
    30f8: 69 02        	adc	#$2
    30fa: 85 13        	sta	$13                     ; 0x13 <__rc3>
    30fc: a5 12        	lda	$12                     ; 0x12 <__rc2>
    30fe: 69 00        	adc	#$0
    3100: a6 13        	ldx	$13                     ; 0x13 <__rc3>
    3102: 8e ed 38     	stx	$38ed                   ; 0x38ed <_ZN12_GLOBAL__N_19free_sizeE>
    3105: 8d ee 38     	sta	$38ee                   ; 0x38ee <_ZN12_GLOBAL__N_19free_sizeE+0x1>
    3108: a0 02        	ldy	#$2
    310a: a5 14        	lda	$14                     ; 0x14 <__rc4>
    310c: 18           	clc
    310d: 69 02        	adc	#$2
    310f: 85 12        	sta	$12                     ; 0x12 <__rc2>
    3111: a5 15        	lda	$15                     ; 0x15 <__rc5>
    3113: 69 00        	adc	#$0
    3115: 85 13        	sta	$13                     ; 0x13 <__rc3>
    3117: b1 14        	lda	($14),y                 ; 0x14 <__rc4>
    3119: 85 1e        	sta	$1e                     ; 0x1e <__rc14>
    311b: 88           	dey
    311c: b1 12        	lda	($12),y                 ; 0x12 <__rc2>
    311e: 85 1f        	sta	$1f                     ; 0x1f <__rc15>
    3120: c5 15        	cmp	$15                     ; 0x15 <__rc5>
    3122: d0 15        	bne	$3139 <malloc+0x166>
    3124: a5 e7        	lda	$e7                     ; 0xe7 <__zp_bss_size+0x41>
    3126: a6 1e        	ldx	$1e                     ; 0x1e <__rc14>
    3128: e4 14        	cpx	$14                     ; 0x14 <__rc4>
    312a: d0 0d        	bne	$3139 <malloc+0x166>
    312c: 85 1a        	sta	$1a                     ; 0x1a <__rc10>
    312e: a2 00        	ldx	#$0
    3130: 86 18        	stx	$18                     ; 0x18 <__rc8>
    3132: a2 00        	ldx	#$0
    3134: 86 19        	stx	$19                     ; 0x19 <__rc9>
    3136: 4c b3 31     	jmp	$31b3 <malloc+0x1e0>
    3139: 18           	clc
    313a: a5 14        	lda	$14                     ; 0x14 <__rc4>
    313c: 69 04        	adc	#$4
    313e: 85 18        	sta	$18                     ; 0x18 <__rc8>
    3140: a5 15        	lda	$15                     ; 0x15 <__rc5>
    3142: 69 00        	adc	#$0
    3144: 85 19        	sta	$19                     ; 0x19 <__rc9>
    3146: a0 04        	ldy	#$4
    3148: b1 14        	lda	($14),y                 ; 0x14 <__rc4>
    314a: 85 23        	sta	$23                     ; 0x23 <__rc19>
    314c: 18           	clc
    314d: 69 02        	adc	#$2
    314f: 85 1a        	sta	$1a                     ; 0x1a <__rc10>
    3151: a0 01        	ldy	#$1
    3153: b1 18        	lda	($18),y                 ; 0x18 <__rc8>
    3155: 85 22        	sta	$22                     ; 0x22 <__rc18>
    3157: 69 00        	adc	#$0
    3159: a6 1a        	ldx	$1a                     ; 0x1a <__rc10>
    315b: 86 18        	stx	$18                     ; 0x18 <__rc8>
    315d: 85 19        	sta	$19                     ; 0x19 <__rc9>
    315f: a6 23        	ldx	$23                     ; 0x23 <__rc19>
    3161: 86 1a        	stx	$1a                     ; 0x1a <__rc10>
    3163: a6 22        	ldx	$22                     ; 0x22 <__rc18>
    3165: 86 1b        	stx	$1b                     ; 0x1b <__rc11>
    3167: c8           	iny
    3168: a5 1e        	lda	$1e                     ; 0x1e <__rc14>
    316a: 91 1a        	sta	($1a),y                 ; 0x1a <__rc10>
    316c: a5 1f        	lda	$1f                     ; 0x1f <__rc15>
    316e: 88           	dey
    316f: 91 18        	sta	($18),y                 ; 0x18 <__rc8>
    3171: 18           	clc
    3172: a5 14        	lda	$14                     ; 0x14 <__rc4>
    3174: 69 02        	adc	#$2
    3176: 85 1a        	sta	$1a                     ; 0x1a <__rc10>
    3178: a5 15        	lda	$15                     ; 0x15 <__rc5>
    317a: 69 00        	adc	#$0
    317c: 85 1b        	sta	$1b                     ; 0x1b <__rc11>
    317e: c8           	iny
    317f: b1 14        	lda	($14),y                 ; 0x14 <__rc4>
    3181: 85 18        	sta	$18                     ; 0x18 <__rc8>
    3183: aa           	tax
    3184: 88           	dey
    3185: b1 1a        	lda	($1a),y                 ; 0x1a <__rc10>
    3187: 85 19        	sta	$19                     ; 0x19 <__rc9>
    3189: 85 16        	sta	$16                     ; 0x16 <__rc6>
    318b: a0 04        	ldy	#$4
    318d: a5 23        	lda	$23                     ; 0x23 <__rc19>
    318f: 91 18        	sta	($18),y                 ; 0x18 <__rc8>
    3191: 18           	clc
    3192: 8a           	txa
    3193: 69 04        	adc	#$4
    3195: 85 1a        	sta	$1a                     ; 0x1a <__rc10>
    3197: a5 16        	lda	$16                     ; 0x16 <__rc6>
    3199: 69 00        	adc	#$0
    319b: 85 1b        	sta	$1b                     ; 0x1b <__rc11>
    319d: a5 22        	lda	$22                     ; 0x22 <__rc18>
    319f: a0 01        	ldy	#$1
    31a1: 91 1a        	sta	($1a),y                 ; 0x1a <__rc10>
    31a3: a5 e7        	lda	$e7                     ; 0xe7 <__zp_bss_size+0x41>
    31a5: 85 1a        	sta	$1a                     ; 0x1a <__rc10>
    31a7: a6 1d        	ldx	$1d                     ; 0x1d <__rc13>
    31a9: e4 15        	cpx	$15                     ; 0x15 <__rc5>
    31ab: d0 10        	bne	$31bd <malloc+0x1ea>
    31ad: a6 1c        	ldx	$1c                     ; 0x1c <__rc12>
    31af: e4 14        	cpx	$14                     ; 0x14 <__rc4>
    31b1: d0 0a        	bne	$31bd <malloc+0x1ea>
    31b3: a6 18        	ldx	$18                     ; 0x18 <__rc8>
    31b5: a4 19        	ldy	$19                     ; 0x19 <__rc9>
    31b7: 8e ef 38     	stx	$38ef                   ; 0x38ef <_ZN12_GLOBAL__N_19free_listE>
    31ba: 8c f0 38     	sty	$38f0                   ; 0x38f0 <_ZN12_GLOBAL__N_19free_listE+0x1>
    31bd: a0 01        	ldy	#$1
    31bf: b1 14        	lda	($14),y                 ; 0x14 <__rc4>
    31c1: 85 16        	sta	$16                     ; 0x16 <__rc6>
    31c3: a9 fe        	lda	#$fe
    31c5: 32 14        	and	($14)                   ; 0x14 <__rc4>
    31c7: 38           	sec
    31c8: a6 e6        	ldx	$e6                     ; 0xe6 <__zp_bss_size+0x40>
    31ca: 86 18        	stx	$18                     ; 0x18 <__rc8>
    31cc: a8           	tay
    31cd: e5 18        	sbc	$18                     ; 0x18 <__rc8>
    31cf: 85 19        	sta	$19                     ; 0x19 <__rc9>
    31d1: a5 16        	lda	$16                     ; 0x16 <__rc6>
    31d3: a6 16        	ldx	$16                     ; 0x16 <__rc6>
    31d5: e5 1a        	sbc	$1a                     ; 0x1a <__rc10>
    31d7: f0 03        	beq	$31dc <malloc+0x209>
    31d9: 4c 67 32     	jmp	$3267 <malloc+0x294>
    31dc: 85 16        	sta	$16                     ; 0x16 <__rc6>
    31de: a5 19        	lda	$19                     ; 0x19 <__rc9>
    31e0: c9 08        	cmp	#$8
    31e2: 86 18        	stx	$18                     ; 0x18 <__rc8>
    31e4: b0 03        	bcs	$31e9 <malloc+0x216>
    31e6: 4c 4a 32     	jmp	$324a <malloc+0x277>
    31e9: a6 17        	ldx	$17                     ; 0x17 <__rc7>
    31eb: 86 ed        	stx	$ed                     ; 0xed <__zp_bss_size+0x47>
    31ed: a6 e8        	ldx	$e8                     ; 0xe8 <__zp_bss_size+0x42>
    31ef: 86 e8        	stx	$e8                     ; 0xe8 <__zp_bss_size+0x42>
    31f1: a6 12        	ldx	$12                     ; 0x12 <__rc2>
    31f3: 86 e9        	stx	$e9                     ; 0xe9 <__zp_bss_size+0x43>
    31f5: a6 13        	ldx	$13                     ; 0x13 <__rc3>
    31f7: 86 ea        	stx	$ea                     ; 0xea <__zp_bss_size+0x44>
    31f9: a8           	tay
    31fa: 18           	clc
    31fb: a5 e6        	lda	$e6                     ; 0xe6 <__zp_bss_size+0x40>
    31fd: 85 e6        	sta	$e6                     ; 0xe6 <__zp_bss_size+0x40>
    31ff: 65 14        	adc	$14                     ; 0x14 <__rc4>
    3201: 85 12        	sta	$12                     ; 0x12 <__rc2>
    3203: a5 1a        	lda	$1a                     ; 0x1a <__rc10>
    3205: a6 1a        	ldx	$1a                     ; 0x1a <__rc10>
    3207: 86 e7        	stx	$e7                     ; 0xe7 <__zp_bss_size+0x41>
    3209: 65 15        	adc	$15                     ; 0x15 <__rc5>
    320b: 85 13        	sta	$13                     ; 0x13 <__rc3>
    320d: a6 16        	ldx	$16                     ; 0x16 <__rc6>
    320f: 98           	tya
    3210: a4 14        	ldy	$14                     ; 0x14 <__rc4>
    3212: 84 eb        	sty	$eb                     ; 0xeb <__zp_bss_size+0x45>
    3214: a4 15        	ldy	$15                     ; 0x15 <__rc5>
    3216: 84 ec        	sty	$ec                     ; 0xec <__zp_bss_size+0x46>
    3218: 20 28 03     	jsr	$328 <_ZN12_GLOBAL__N_19FreeChunk6insertEPvj>
    321b: a6 eb        	ldx	$eb                     ; 0xeb <__zp_bss_size+0x45>
    321d: 86 14        	stx	$14                     ; 0x14 <__rc4>
    321f: a6 ec        	ldx	$ec                     ; 0xec <__zp_bss_size+0x46>
    3221: 86 15        	stx	$15                     ; 0x15 <__rc5>
    3223: a5 e6        	lda	$e6                     ; 0xe6 <__zp_bss_size+0x40>
    3225: 29 fe        	and	#$fe
    3227: 85 12        	sta	$12                     ; 0x12 <__rc2>
    3229: a0 01        	ldy	#$1
    322b: 98           	tya
    322c: 32 14        	and	($14)                   ; 0x14 <__rc4>
    322e: 05 12        	ora	$12                     ; 0x12 <__rc2>
    3230: 92 14        	sta	($14)                   ; 0x14 <__rc4>
    3232: a5 e7        	lda	$e7                     ; 0xe7 <__zp_bss_size+0x41>
    3234: 91 14        	sta	($14),y                 ; 0x14 <__rc4>
    3236: a4 12        	ldy	$12                     ; 0x12 <__rc2>
    3238: 85 18        	sta	$18                     ; 0x18 <__rc8>
    323a: a6 e9        	ldx	$e9                     ; 0xe9 <__zp_bss_size+0x43>
    323c: 86 12        	stx	$12                     ; 0x12 <__rc2>
    323e: a6 ea        	ldx	$ea                     ; 0xea <__zp_bss_size+0x44>
    3240: 86 13        	stx	$13                     ; 0x13 <__rc3>
    3242: a6 e8        	ldx	$e8                     ; 0xe8 <__zp_bss_size+0x42>
    3244: 86 e8        	stx	$e8                     ; 0xe8 <__zp_bss_size+0x42>
    3246: a6 ed        	ldx	$ed                     ; 0xed <__zp_bss_size+0x47>
    3248: 86 17        	stx	$17                     ; 0x17 <__rc7>
    324a: 18           	clc
    324b: 98           	tya
    324c: 65 14        	adc	$14                     ; 0x14 <__rc4>
    324e: 85 16        	sta	$16                     ; 0x16 <__rc6>
    3250: a5 15        	lda	$15                     ; 0x15 <__rc5>
    3252: 65 18        	adc	$18                     ; 0x18 <__rc8>
    3254: 85 15        	sta	$15                     ; 0x15 <__rc5>
    3256: c5 17        	cmp	$17                     ; 0x17 <__rc7>
    3258: d0 1a        	bne	$3274 <malloc+0x2a1>
    325a: a6 e8        	ldx	$e8                     ; 0xe8 <__zp_bss_size+0x42>
    325c: 86 14        	stx	$14                     ; 0x14 <__rc4>
    325e: a6 16        	ldx	$16                     ; 0x16 <__rc6>
    3260: e4 14        	cpx	$14                     ; 0x14 <__rc4>
    3262: d0 12        	bne	$3276 <malloc+0x2a3>
    3264: 4c e3 30     	jmp	$30e3 <malloc+0x110>
    3267: 85 16        	sta	$16                     ; 0x16 <__rc6>
    3269: c9 00        	cmp	#$0
    326b: 86 18        	stx	$18                     ; 0x18 <__rc8>
    326d: a5 19        	lda	$19                     ; 0x19 <__rc9>
    326f: 90 d9        	bcc	$324a <malloc+0x277>
    3271: 4c e9 31     	jmp	$31e9 <malloc+0x216>
    3274: a6 16        	ldx	$16                     ; 0x16 <__rc6>
    3276: 86 14        	stx	$14                     ; 0x14 <__rc4>
    3278: a0 01        	ldy	#$1
    327a: b1 14        	lda	($14),y                 ; 0x14 <__rc4>
    327c: 85 16        	sta	$16                     ; 0x16 <__rc6>
    327e: a9 fe        	lda	#$fe
    3280: 32 14        	and	($14)                   ; 0x14 <__rc4>
    3282: 92 14        	sta	($14)                   ; 0x14 <__rc4>
    3284: a5 16        	lda	$16                     ; 0x16 <__rc6>
    3286: 91 14        	sta	($14),y                 ; 0x14 <__rc4>
    3288: 60           	rts

00003289 <memcpy>:
    3289: a8           	tay
    328a: 8a           	txa
    328b: d0 03        	bne	$3290 <memcpy+0x7>
    328d: 98           	tya
    328e: f0 24        	beq	$32b4 <memcpy+0x2b>
    3290: a5 12        	lda	$12                     ; 0x12 <__rc2>
    3292: 85 16        	sta	$16                     ; 0x16 <__rc6>
    3294: a5 13        	lda	$13                     ; 0x13 <__rc3>
    3296: 85 17        	sta	$17                     ; 0x17 <__rc7>
    3298: b2 14        	lda	($14)                   ; 0x14 <__rc4>
    329a: 92 16        	sta	($16)                   ; 0x16 <__rc6>
    329c: e6 16        	inc	$16                     ; 0x16 <__rc6>
    329e: d0 02        	bne	$32a2 <memcpy+0x19>
    32a0: e6 17        	inc	$17                     ; 0x17 <__rc7>
    32a2: e6 14        	inc	$14                     ; 0x14 <__rc4>
    32a4: d0 02        	bne	$32a8 <memcpy+0x1f>
    32a6: e6 15        	inc	$15                     ; 0x15 <__rc5>
    32a8: 88           	dey
    32a9: c0 ff        	cpy	#$ff
    32ab: d0 01        	bne	$32ae <memcpy+0x25>
    32ad: ca           	dex
    32ae: 8a           	txa
    32af: d0 e7        	bne	$3298 <memcpy+0xf>
    32b1: 98           	tya
    32b2: d0 e4        	bne	$3298 <memcpy+0xf>
    32b4: 60           	rts

000032b5 <__memset>:
    32b5: a4 14        	ldy	$14                     ; 0x14 <__rc4>
    32b7: d0 04        	bne	$32bd <__memset+0x8>
    32b9: e0 00        	cpx	#$0
    32bb: f0 17        	beq	$32d4 <__memset+0x1f>
    32bd: 92 12        	sta	($12)                   ; 0x12 <__rc2>
    32bf: e6 12        	inc	$12                     ; 0x12 <__rc2>
    32c1: d0 02        	bne	$32c5 <__memset+0x10>
    32c3: e6 13        	inc	$13                     ; 0x13 <__rc3>
    32c5: ca           	dex
    32c6: e0 ff        	cpx	#$ff
    32c8: d0 02        	bne	$32cc <__memset+0x17>
    32ca: c6 14        	dec	$14                     ; 0x14 <__rc4>
    32cc: a4 14        	ldy	$14                     ; 0x14 <__rc4>
    32ce: d0 ed        	bne	$32bd <__memset+0x8>
    32d0: e0 00        	cpx	#$0
    32d2: d0 e9        	bne	$32bd <__memset+0x8>
    32d4: 60           	rts

000032d5 <__ashlhi3>:
    32d5: 86 13        	stx	$13                     ; 0x13 <__rc3>
    32d7: a6 12        	ldx	$12                     ; 0x12 <__rc2>
    32d9: f0 0a        	beq	$32e5 <__ashlhi3+0x10>
    32db: a6 12        	ldx	$12                     ; 0x12 <__rc2>
    32dd: ca           	dex
    32de: 0a           	asl
    32df: 26 13        	rol	$13                     ; 0x13 <__rc3>
    32e1: e0 00        	cpx	#$0
    32e3: d0 f8        	bne	$32dd <__ashlhi3+0x8>
    32e5: a6 13        	ldx	$13                     ; 0x13 <__rc3>
    32e7: 60           	rts

000032e8 <__mulhi3>:
    32e8: a4 13        	ldy	$13                     ; 0x13 <__rc3>
    32ea: d0 04        	bne	$32f0 <__mulhi3+0x8>
    32ec: a4 12        	ldy	$12                     ; 0x12 <__rc2>
    32ee: f0 25        	beq	$3315 <__mulhi3+0x2d>
    32f0: 85 14        	sta	$14                     ; 0x14 <__rc4>
    32f2: 86 15        	stx	$15                     ; 0x15 <__rc5>
    32f4: a0 00        	ldy	#$0
    32f6: 98           	tya
    32f7: 46 13        	lsr	$13                     ; 0x13 <__rc3>
    32f9: 66 12        	ror	$12                     ; 0x12 <__rc2>
    32fb: 90 09        	bcc	$3306 <__mulhi3+0x1e>
    32fd: aa           	tax
    32fe: 98           	tya
    32ff: 18           	clc
    3300: 65 14        	adc	$14                     ; 0x14 <__rc4>
    3302: a8           	tay
    3303: 8a           	txa
    3304: 65 15        	adc	$15                     ; 0x15 <__rc5>
    3306: 06 14        	asl	$14                     ; 0x14 <__rc4>
    3308: 26 15        	rol	$15                     ; 0x15 <__rc5>
    330a: a6 13        	ldx	$13                     ; 0x13 <__rc3>
    330c: d0 e9        	bne	$32f7 <__mulhi3+0xf>
    330e: a6 12        	ldx	$12                     ; 0x12 <__rc2>
    3310: d0 e5        	bne	$32f7 <__mulhi3+0xf>
    3312: aa           	tax
    3313: 98           	tya
    3314: 60           	rts
    3315: a0 00        	ldy	#$0
    3317: 98           	tya
    3318: 80 f8        	bra	$3312 <__mulhi3+0x2a>

0000331a <__udivhi3>:
    331a: 64 14        	stz	$14                     ; 0x14 <__rc4>
    331c: a4 13        	ldy	$13                     ; 0x13 <__rc3>
    331e: d0 04        	bne	$3324 <__udivhi3+0xa>
    3320: a4 12        	ldy	$12                     ; 0x12 <__rc2>
    3322: f0 0e        	beq	$3332 <__udivhi3+0x18>
    3324: 85 17        	sta	$17                     ; 0x17 <__rc7>
    3326: 8a           	txa
    3327: e4 13        	cpx	$13                     ; 0x13 <__rc3>
    3329: d0 0e        	bne	$3339 <__udivhi3+0x1f>
    332b: a5 17        	lda	$17                     ; 0x17 <__rc7>
    332d: c5 12        	cmp	$12                     ; 0x12 <__rc2>
    332f: 8a           	txa
    3330: b0 0b        	bcs	$333d <__udivhi3+0x23>
    3332: a2 00        	ldx	#$0
    3334: 86 ee        	stx	$ee                     ; 0xee <__zp_bss_size+0x48>
    3336: 4c d5 33     	jmp	$33d5 <__udivhi3+0xbb>
    3339: c5 13        	cmp	$13                     ; 0x13 <__rc3>
    333b: 90 f5        	bcc	$3332 <__udivhi3+0x18>
    333d: a2 01        	ldx	#$1
    333f: 86 ee        	stx	$ee                     ; 0xee <__zp_bss_size+0x48>
    3341: a6 13        	ldx	$13                     ; 0x13 <__rc3>
    3343: 10 03        	bpl	$3348 <__udivhi3+0x2e>
    3345: 4c d5 33     	jmp	$33d5 <__udivhi3+0xbb>
    3348: a2 00        	ldx	#$0
    334a: a4 12        	ldy	$12                     ; 0x12 <__rc2>
    334c: 84 15        	sty	$15                     ; 0x15 <__rc5>
    334e: a4 13        	ldy	$13                     ; 0x13 <__rc3>
    3350: 84 16        	sty	$16                     ; 0x16 <__rc6>
    3352: 06 15        	asl	$15                     ; 0x15 <__rc5>
    3354: 26 16        	rol	$16                     ; 0x16 <__rc6>
    3356: c5 16        	cmp	$16                     ; 0x16 <__rc6>
    3358: d0 08        	bne	$3362 <__udivhi3+0x48>
    335a: a4 17        	ldy	$17                     ; 0x17 <__rc7>
    335c: c4 15        	cpy	$15                     ; 0x15 <__rc5>
    335e: 90 13        	bcc	$3373 <__udivhi3+0x59>
    3360: 80 04        	bra	$3366 <__udivhi3+0x4c>
    3362: c5 16        	cmp	$16                     ; 0x16 <__rc6>
    3364: 90 0d        	bcc	$3373 <__udivhi3+0x59>
    3366: e8           	inx
    3367: a4 15        	ldy	$15                     ; 0x15 <__rc5>
    3369: 84 12        	sty	$12                     ; 0x12 <__rc2>
    336b: a4 16        	ldy	$16                     ; 0x16 <__rc6>
    336d: 84 13        	sty	$13                     ; 0x13 <__rc3>
    336f: 10 e1        	bpl	$3352 <__udivhi3+0x38>
    3371: 80 08        	bra	$337b <__udivhi3+0x61>
    3373: a4 12        	ldy	$12                     ; 0x12 <__rc2>
    3375: 84 15        	sty	$15                     ; 0x15 <__rc5>
    3377: a4 13        	ldy	$13                     ; 0x13 <__rc3>
    3379: 84 16        	sty	$16                     ; 0x16 <__rc6>
    337b: e0 00        	cpx	#$0
    337d: d0 03        	bne	$3382 <__udivhi3+0x68>
    337f: 4c d5 33     	jmp	$33d5 <__udivhi3+0xbb>
    3382: 38           	sec
    3383: a8           	tay
    3384: a5 17        	lda	$17                     ; 0x17 <__rc7>
    3386: e5 15        	sbc	$15                     ; 0x15 <__rc5>
    3388: 85 12        	sta	$12                     ; 0x12 <__rc2>
    338a: 98           	tya
    338b: e5 16        	sbc	$16                     ; 0x16 <__rc6>
    338d: a0 01        	ldy	#$1
    338f: 84 ee        	sty	$ee                     ; 0xee <__zp_bss_size+0x48>
    3391: 64 14        	stz	$14                     ; 0x14 <__rc4>
    3393: 46 16        	lsr	$16                     ; 0x16 <__rc6>
    3395: 66 15        	ror	$15                     ; 0x15 <__rc5>
    3397: a4 ee        	ldy	$ee                     ; 0xee <__zp_bss_size+0x48>
    3399: 84 13        	sty	$13                     ; 0x13 <__rc3>
    339b: 06 13        	asl	$13                     ; 0x13 <__rc3>
    339d: a0 01        	ldy	#$1
    339f: b0 02        	bcs	$33a3 <__udivhi3+0x89>
    33a1: a0 00        	ldy	#$0
    33a3: 84 17        	sty	$17                     ; 0x17 <__rc7>
    33a5: a4 13        	ldy	$13                     ; 0x13 <__rc3>
    33a7: 84 ee        	sty	$ee                     ; 0xee <__zp_bss_size+0x48>
    33a9: c5 16        	cmp	$16                     ; 0x16 <__rc6>
    33ab: d0 22        	bne	$33cf <__udivhi3+0xb5>
    33ad: a4 12        	ldy	$12                     ; 0x12 <__rc2>
    33af: c4 15        	cpy	$15                     ; 0x15 <__rc5>
    33b1: 90 11        	bcc	$33c4 <__udivhi3+0xaa>
    33b3: a8           	tay
    33b4: a5 ee        	lda	$ee                     ; 0xee <__zp_bss_size+0x48>
    33b6: 09 01        	ora	#$1
    33b8: 85 ee        	sta	$ee                     ; 0xee <__zp_bss_size+0x48>
    33ba: 38           	sec
    33bb: a5 12        	lda	$12                     ; 0x12 <__rc2>
    33bd: e5 15        	sbc	$15                     ; 0x15 <__rc5>
    33bf: 85 12        	sta	$12                     ; 0x12 <__rc2>
    33c1: 98           	tya
    33c2: e5 16        	sbc	$16                     ; 0x16 <__rc6>
    33c4: a4 17        	ldy	$17                     ; 0x17 <__rc7>
    33c6: c0 01        	cpy	#$1
    33c8: 26 14        	rol	$14                     ; 0x14 <__rc4>
    33ca: ca           	dex
    33cb: d0 c6        	bne	$3393 <__udivhi3+0x79>
    33cd: 80 06        	bra	$33d5 <__udivhi3+0xbb>
    33cf: c5 16        	cmp	$16                     ; 0x16 <__rc6>
    33d1: b0 e0        	bcs	$33b3 <__udivhi3+0x99>
    33d3: 80 ef        	bra	$33c4 <__udivhi3+0xaa>
    33d5: a6 14        	ldx	$14                     ; 0x14 <__rc4>
    33d7: a5 ee        	lda	$ee                     ; 0xee <__zp_bss_size+0x48>
    33d9: 60           	rts

000033da <__udivmodhi4>:
    33da: 86 1a        	stx	$1a                     ; 0x1a <__rc10>
    33dc: 64 16        	stz	$16                     ; 0x16 <__rc6>
    33de: a4 13        	ldy	$13                     ; 0x13 <__rc3>
    33e0: d0 04        	bne	$33e6 <__udivmodhi4+0xc>
    33e2: a4 12        	ldy	$12                     ; 0x12 <__rc2>
    33e4: f0 08        	beq	$33ee <__udivmodhi4+0x14>
    33e6: e4 13        	cpx	$13                     ; 0x13 <__rc3>
    33e8: d0 0d        	bne	$33f7 <__udivmodhi4+0x1d>
    33ea: c5 12        	cmp	$12                     ; 0x12 <__rc2>
    33ec: b0 0d        	bcs	$33fb <__udivmodhi4+0x21>
    33ee: a6 1a        	ldx	$1a                     ; 0x1a <__rc10>
    33f0: 86 12        	stx	$12                     ; 0x12 <__rc2>
    33f2: a2 00        	ldx	#$0
    33f4: 4c 9f 34     	jmp	$349f <__udivmodhi4+0xc5>
    33f7: e4 13        	cpx	$13                     ; 0x13 <__rc3>
    33f9: 90 f3        	bcc	$33ee <__udivmodhi4+0x14>
    33fb: a6 13        	ldx	$13                     ; 0x13 <__rc3>
    33fd: 10 03        	bpl	$3402 <__udivmodhi4+0x28>
    33ff: 4c 92 34     	jmp	$3492 <__udivmodhi4+0xb8>
    3402: a2 00        	ldx	#$0
    3404: a4 12        	ldy	$12                     ; 0x12 <__rc2>
    3406: 84 17        	sty	$17                     ; 0x17 <__rc7>
    3408: a4 13        	ldy	$13                     ; 0x13 <__rc3>
    340a: 84 18        	sty	$18                     ; 0x18 <__rc8>
    340c: 06 17        	asl	$17                     ; 0x17 <__rc7>
    340e: 26 18        	rol	$18                     ; 0x18 <__rc8>
    3410: a4 1a        	ldy	$1a                     ; 0x1a <__rc10>
    3412: c4 18        	cpy	$18                     ; 0x18 <__rc8>
    3414: d0 06        	bne	$341c <__udivmodhi4+0x42>
    3416: c5 17        	cmp	$17                     ; 0x17 <__rc7>
    3418: b0 08        	bcs	$3422 <__udivmodhi4+0x48>
    341a: 80 13        	bra	$342f <__udivmodhi4+0x55>
    341c: a4 1a        	ldy	$1a                     ; 0x1a <__rc10>
    341e: c4 18        	cpy	$18                     ; 0x18 <__rc8>
    3420: 90 0d        	bcc	$342f <__udivmodhi4+0x55>
    3422: e8           	inx
    3423: a4 17        	ldy	$17                     ; 0x17 <__rc7>
    3425: 84 12        	sty	$12                     ; 0x12 <__rc2>
    3427: a4 18        	ldy	$18                     ; 0x18 <__rc8>
    3429: 84 13        	sty	$13                     ; 0x13 <__rc3>
    342b: 10 df        	bpl	$340c <__udivmodhi4+0x32>
    342d: 80 08        	bra	$3437 <__udivmodhi4+0x5d>
    342f: a4 12        	ldy	$12                     ; 0x12 <__rc2>
    3431: 84 17        	sty	$17                     ; 0x17 <__rc7>
    3433: a4 13        	ldy	$13                     ; 0x13 <__rc3>
    3435: 84 18        	sty	$18                     ; 0x18 <__rc8>
    3437: 38           	sec
    3438: e5 17        	sbc	$17                     ; 0x17 <__rc7>
    343a: a8           	tay
    343b: a5 1a        	lda	$1a                     ; 0x1a <__rc10>
    343d: e5 18        	sbc	$18                     ; 0x18 <__rc8>
    343f: 85 12        	sta	$12                     ; 0x12 <__rc2>
    3441: 8a           	txa
    3442: d0 03        	bne	$3447 <__udivmodhi4+0x6d>
    3444: 4c ae 34     	jmp	$34ae <__udivmodhi4+0xd4>
    3447: a9 01        	lda	#$1
    3449: 85 e6        	sta	$e6                     ; 0xe6 <__zp_bss_size+0x40>
    344b: 64 16        	stz	$16                     ; 0x16 <__rc6>
    344d: 98           	tya
    344e: 46 18        	lsr	$18                     ; 0x18 <__rc8>
    3450: 66 17        	ror	$17                     ; 0x17 <__rc7>
    3452: a4 e6        	ldy	$e6                     ; 0xe6 <__zp_bss_size+0x40>
    3454: 84 13        	sty	$13                     ; 0x13 <__rc3>
    3456: 06 13        	asl	$13                     ; 0x13 <__rc3>
    3458: a0 01        	ldy	#$1
    345a: b0 02        	bcs	$345e <__udivmodhi4+0x84>
    345c: a0 00        	ldy	#$0
    345e: 84 19        	sty	$19                     ; 0x19 <__rc9>
    3460: a4 13        	ldy	$13                     ; 0x13 <__rc3>
    3462: 84 e6        	sty	$e6                     ; 0xe6 <__zp_bss_size+0x40>
    3464: a4 12        	ldy	$12                     ; 0x12 <__rc2>
    3466: c4 18        	cpy	$18                     ; 0x18 <__rc8>
    3468: d0 22        	bne	$348c <__udivmodhi4+0xb2>
    346a: c5 17        	cmp	$17                     ; 0x17 <__rc7>
    346c: 90 13        	bcc	$3481 <__udivmodhi4+0xa7>
    346e: a8           	tay
    346f: a5 e6        	lda	$e6                     ; 0xe6 <__zp_bss_size+0x40>
    3471: 09 01        	ora	#$1
    3473: 85 e6        	sta	$e6                     ; 0xe6 <__zp_bss_size+0x40>
    3475: 38           	sec
    3476: 98           	tya
    3477: e5 17        	sbc	$17                     ; 0x17 <__rc7>
    3479: a8           	tay
    347a: a5 12        	lda	$12                     ; 0x12 <__rc2>
    347c: e5 18        	sbc	$18                     ; 0x18 <__rc8>
    347e: 85 12        	sta	$12                     ; 0x12 <__rc2>
    3480: 98           	tya
    3481: a4 19        	ldy	$19                     ; 0x19 <__rc9>
    3483: c0 01        	cpy	#$1
    3485: 26 16        	rol	$16                     ; 0x16 <__rc6>
    3487: ca           	dex
    3488: d0 c4        	bne	$344e <__udivmodhi4+0x74>
    348a: 80 15        	bra	$34a1 <__udivmodhi4+0xc7>
    348c: c4 18        	cpy	$18                     ; 0x18 <__rc8>
    348e: b0 de        	bcs	$346e <__udivmodhi4+0x94>
    3490: 80 ef        	bra	$3481 <__udivmodhi4+0xa7>
    3492: 38           	sec
    3493: e5 12        	sbc	$12                     ; 0x12 <__rc2>
    3495: aa           	tax
    3496: a5 1a        	lda	$1a                     ; 0x1a <__rc10>
    3498: e5 13        	sbc	$13                     ; 0x13 <__rc3>
    349a: 85 12        	sta	$12                     ; 0x12 <__rc2>
    349c: 8a           	txa
    349d: a2 01        	ldx	#$1
    349f: 86 e6        	stx	$e6                     ; 0xe6 <__zp_bss_size+0x40>
    34a1: 92 14        	sta	($14)                   ; 0x14 <__rc4>
    34a3: a0 01        	ldy	#$1
    34a5: a5 12        	lda	$12                     ; 0x12 <__rc2>
    34a7: 91 14        	sta	($14),y                 ; 0x14 <__rc4>
    34a9: a6 16        	ldx	$16                     ; 0x16 <__rc6>
    34ab: a5 e6        	lda	$e6                     ; 0xe6 <__zp_bss_size+0x40>
    34ad: 60           	rts
    34ae: a2 01        	ldx	#$1
    34b0: 86 e6        	stx	$e6                     ; 0xe6 <__zp_bss_size+0x40>
    34b2: 98           	tya
    34b3: 80 ec        	bra	$34a1 <__udivmodhi4+0xc7>
