
modu.elf:	file format elf32-mos

SYMBOL TABLE:
00000000 l    df *ABS*	00000000 zero-bss.c
00000000 l    df *ABS*	00000000 zero-zp-bss.c
00000000 l    df *ABS*	00000000 ld-temp.o
00000479 l     F .text	000003d5 f256Init
00000030 l     O .zp.bss	00000007 kernelEventData
00004d96 l     O .rodata	00000030 textColors
00000037 l     O .zp.bss	00000001 _col
00000038 l     O .zp.bss	00000001 _row
0000505f l     O .bss	00000001 _active
00005060 l     O .bss	00000001 _color
00005053 l     O .bss	0000000c _BITMAP_BASE
00005061 l     O .bss	00000001 _BITMAP_CLUT.1
00000039 l     O .zp.bss	00000040 _spriteCtl
00005052 l     O .bss	00000001 kernelError
00000854 l     F .text	0000147b f256main
00002fa3 l     F .text	0000008d bitmapClear
00004fc5 l     O .rodata	0000002d sid_instrument_defs
000038c6 l     F .text	00000088 sid_setInstrument
000047ef l     F .text	000002b6 malloc
000000a2 l     O .zp.bss	00000002 gPtr
00002616 l     F .text	0000098d loadGUISID
0000007b l     O .zp.bss	00000008 diaAct
000053db l     O .bss	00000008 sliAct
00000083 l     O .zp.bss	00000001 polyTimer.1
00000099 l     O .zp.bss	00000009 polyOPL3Buffer
0000008d l     O .zp.bss	00000006 polySIDBuffer
00000093 l     O .zp.bss	00000006 polyPSGBuffer
00004e06 l     O .rodata	00000058 noteColors
0000008b l     O .zp.bss	00000001 chipAct.3
00005062 l     O .bss	000001a4 lights
00003786 l     F .text	00000140 updateLighter
0000008c l     O .zp.bss	00000001 chipAct.4
0000008a l     O .zp.bss	00000001 chipAct.2
00000084 l     O .zp.bss	00000002 mX
00000086 l     O .zp.bss	00000002 mY
000052ae l     O .bss	00000070 sliders
000034d2 l     F .text	000002b4 updateSlider
00004b04 l     F .text	00000032 __mulhi3
0000531e l     O .bss	00000085 sliders_labels
00003030 l     F .text	00000086 spriteDefine
000053a3 l     O .bss	00000038 dials
0000335c l     F .text	00000176 updateDial
00000089 l     O .zp.bss	00000001 chipAct.1
00004c66 l     F .text	000000db __udivmodhi4
00004f2d l     O .rodata	00000018 opl3_fnums
00004f21 l     O .rodata	00000006 sidChoiceToVoice
00004ff2 l     O .rodata	00000060 sidLow
00004e8e l     O .rodata	00000060 sidHigh
00004f27 l     O .rodata	00000006 polyPSGChanBits
00004f45 l     O .rodata	00000040 psgLow
00004f85 l     O .rodata	00000040 psgHigh
00000088 l     O .zp.bss	00000001 chipAct.0
00005206 l     O .bss	000000a8 radios
00001ccf l     F .text	000006b8 checkUIEClick
00004af1 l     F .text	00000013 __ashlhi3
00003193 l     F .text	000000d0 updateRadioB
00002387 l     F .text	000000d7 textLayerGen
0000245e l     F .text	000001b8 textPrint
00004dc6 l     O .rodata	00000040 sidSpriteAction
00003b46 l     F .text	00000ca9 printf
00003263 l     F .text	000000f9 setRadioB
000030b6 l     F .text	000000dd showGeneric
00004ba6 l     F .text	000000c0 __udivhi3
00004b36 l     F .text	00000070 __mulsi3
00003953 l     F .text	000000db _ZN12_GLOBAL__N_13putEcP6Status
00000079 l     O .zp.bss	00000002 __putchar.s
00003a2e l     F .text	00000118 _ZN12_GLOBAL__N_112print_stringEPKcP6Status
000053e3 l     O .bss	00000001 _ZN12_GLOBAL__N_111initializedE
00000316 l     F .text	0000013d _ZN12_GLOBAL__N_19FreeChunk6insertEPvj
000053e6 l     O .bss	00000002 _ZN12_GLOBAL__N_19free_listE
000053e4 l     O .bss	00000002 _ZN12_GLOBAL__N_19free_sizeE
0000084e g     F .text	00000006 main
00014000 g       .gui8	00000000 gui8_start
000303fc g       .pianopal	00000000 pianopal_end
00043000 g       .keys	00000000 keys_end
00015400 g       .pal	00000000 pal_end
00015000 g       .pal	00000000 pal_start
00030400 g       .keys	00000000 keys_start
00015000 g       .gui8	00000000 gui8_end
00014000 g       .gui16	00000000 gui16_end
00030000 g       .pianopal	00000000 pianopal_start
00010000 g       .gui16	00000000 gui16_start
00000311 g       .text	00000000 __after_main
00000300 g       .text	00000000 __do_init_stack
00000308 g       .text	00000000 __do_zero_bss
00000453 g     F .text	00000013 __zero_bss
0000030b g       .text	00000000 __do_zero_zp_bss
00000466 g     F .text	00000013 __zero_zp_bss
0000394e g     F .text	00000005 exit
00000314 g       .text	00000000 _fini
00004d41 g       .rodata	00000000 __set_v
00004ad1  w    F .text	00000020 __memset
00001000  w      *ABS*	00000000 __heap_default_limit
0000540a g       .noinit	00000000 __heap_start
00004aa5  w    F .text	0000002c memcpy
00000010 g       *ABS*	00000000 __rc0
00000012 g       *ABS*	00000000 __rc2
00000014 g       *ABS*	00000000 __rc4
00000016 g       *ABS*	00000000 __rc6
00000018 g       *ABS*	00000000 __rc8
0000001a g       *ABS*	00000000 __rc10
0000001c g       *ABS*	00000000 __rc12
0000001e g       *ABS*	00000000 __rc14
00000020 g       *ABS*	00000000 __rc16
00000022 g       *ABS*	00000000 __rc18
00000024 g       *ABS*	00000000 __rc20
00000026 g       *ABS*	00000000 __rc22
00000028 g       *ABS*	00000000 __rc24
0000002a g       *ABS*	00000000 __rc26
0000002c g       *ABS*	00000000 __rc28
0000002e g       *ABS*	00000000 __rc30
0000002f g       *ABS*	00000000 __rc31
00000300 g       *ABS*	00000000 __f256_start
0000c000 g       *ABS*	00000000 __stack
0000c000 g       *ABS*	00000000 __SLOT_ADDR
0800c000 g       *ABS*	00000000 __block8_lma
00002000 g       *ABS*	00000000 __BLOCK_SIZE
0900c000 g       *ABS*	00000000 __block9_lma
0a00c000 g       *ABS*	00000000 __block10_lma
0b00c000 g       *ABS*	00000000 __block11_lma
0c00c000 g       *ABS*	00000000 __block12_lma
0d00c000 g       *ABS*	00000000 __block13_lma
0e00c000 g       *ABS*	00000000 __block14_lma
0f00c000 g       *ABS*	00000000 __block15_lma
1000c000 g       *ABS*	00000000 __block16_lma
1100c000 g       *ABS*	00000000 __block17_lma
1200c000 g       *ABS*	00000000 __block18_lma
1300c000 g       *ABS*	00000000 __block19_lma
1400c000 g       *ABS*	00000000 __block20_lma
1500c000 g       *ABS*	00000000 __block21_lma
1600c000 g       *ABS*	00000000 __block22_lma
1700c000 g       *ABS*	00000000 __block23_lma
00010000 g       *ABS*	00000000 __gui16_lma
00004000 g       *ABS*	00000000 __gui16_size
00014000 g       *ABS*	00000000 __gui8_lma
00001000 g       *ABS*	00000000 __gui8_size
00015000 g       *ABS*	00000000 __pal_lma
00000400 g       *ABS*	00000000 __pal_size
00030000 g       *ABS*	00000000 __pianopal_lma
000003fc g       *ABS*	00000000 __pianopal_size
00030400 g       *ABS*	00000000 __keys_lma
00012c00 g       *ABS*	00000000 __keys_size
00005052 g       .bss	00000000 __bss_start
00014000 g       .gui16	00000000 end_gui16
00015000 g       .gui8	00000000 end_gui8
00015400 g       .pal	00000000 end_pal
000303fc g       .pianopal	00000000 end_pianopal
00043000 g       .keys	00000000 end_keys
00000300 g       .text	00000000 _start
0000002d g       *ABS*	00000000 __rc29
0000002b g       *ABS*	00000000 __rc27
00000029 g       *ABS*	00000000 __rc25
00000027 g       *ABS*	00000000 __rc23
00000025 g       *ABS*	00000000 __rc21
00000023 g       *ABS*	00000000 __rc19
00000021 g       *ABS*	00000000 __rc17
0000001f g       *ABS*	00000000 __rc15
0000001d g       *ABS*	00000000 __rc13
0000001b g       *ABS*	00000000 __rc11
00000019 g       *ABS*	00000000 __rc9
00000017 g       *ABS*	00000000 __rc7
00000015 g       *ABS*	00000000 __rc5
00000013 g       *ABS*	00000000 __rc3
00000011 g       *ABS*	00000000 __rc1
00000030 g       .zp.data	00000000 __zp_data_start
00000300 g       *ABS*	00000000 __zp_data_load_start
00000000 g       *ABS*	00000000 __zp_data_size
00000030 g       .zp.bss	00000000 __zp_bss_start
00000074 g       *ABS*	00000000 __zp_bss_size
00000300 g       .text	00000000 _init
00004d41 g       .text	00000000 __init_array_start
00004d41 g       .text	00000000 __init_array_end
00004d41 g       .text	00000000 __fini_array_start
00004d41 g       .text	00000000 __fini_array_end
00005052 g       .data	00000000 __data_start
00005052 g       .data	00000000 __data_end
00005052 g       *ABS*	00000000 __data_load_start
00000000 g       *ABS*	00000000 __data_size
000053e8 g       .bss	00000000 __bss_end
00000396 g       *ABS*	00000000 __bss_size
0000540a g       .noinit	00000000 end_block8
0000540a g       .noinit	00000000 end_block9
0000540a g       .noinit	00000000 end_block10
0000540a g       .noinit	00000000 end_block11
0000540a g       .noinit	00000000 end_block12
0000540a g       .noinit	00000000 end_block13
0000540a g       .noinit	00000000 end_block14
0000540a g       .noinit	00000000 end_block15
0000540a g       .noinit	00000000 end_block16
0000540a g       .noinit	00000000 end_block17
0000540a g       .noinit	00000000 end_block18
0000540a g       .noinit	00000000 end_block19
0000540a g       .noinit	00000000 end_block20
0000540a g       .noinit	00000000 end_block21
0000540a g       .noinit	00000000 end_block22
0000540a g       .noinit	00000000 end_block23

Disassembly of section .text:

00000300 <_start>:
     300: a9 00        	lda	#$0
     302: 85 10        	sta	$10                     ; 0x10 <__rc0>
     304: a9 c0        	lda	#$c0
     306: 85 11        	sta	$11                     ; 0x11 <__rc1>

00000308 <__do_zero_bss>:
     308: 20 53 04     	jsr	$453 <__zero_bss>

0000030b <__do_zero_zp_bss>:
     30b: 20 66 04     	jsr	$466 <__zero_zp_bss>
     30e: 20 4e 08     	jsr	$84e <main>

00000311 <__after_main>:
     311: 4c 4e 39     	jmp	$394e <exit>

00000314 <_fini>:
     314: 60           	rts
     315: 00           	brk

00000316 <_ZN12_GLOBAL__N_19FreeChunk6insertEPvj>:
     316: 85 16        	sta	$16                     ; 0x16 <__rc6>
     318: 29 fe        	and	#$fe
     31a: 85 14        	sta	$14                     ; 0x14 <__rc4>
     31c: a0 01        	ldy	#$1
     31e: 98           	tya
     31f: 32 12        	and	($12)                   ; 0x12 <__rc2>
     321: 05 14        	ora	$14                     ; 0x14 <__rc4>
     323: 92 12        	sta	($12)                   ; 0x12 <__rc2>
     325: a5 12        	lda	$12                     ; 0x12 <__rc2>
     327: 18           	clc
     328: 65 14        	adc	$14                     ; 0x14 <__rc4>
     32a: 85 15        	sta	$15                     ; 0x15 <__rc5>
     32c: 8a           	txa
     32d: 65 13        	adc	$13                     ; 0x13 <__rc3>
     32f: 85 14        	sta	$14                     ; 0x14 <__rc4>
     331: 18           	clc
     332: a5 15        	lda	$15                     ; 0x15 <__rc5>
     334: 69 fe        	adc	#$fe
     336: 85 17        	sta	$17                     ; 0x17 <__rc7>
     338: a5 14        	lda	$14                     ; 0x14 <__rc4>
     33a: 69 ff        	adc	#$ff
     33c: 85 15        	sta	$15                     ; 0x15 <__rc5>
     33e: a5 17        	lda	$17                     ; 0x17 <__rc7>
     340: 85 14        	sta	$14                     ; 0x14 <__rc4>
     342: 8a           	txa
     343: 91 12        	sta	($12),y                 ; 0x12 <__rc2>
     345: a5 16        	lda	$16                     ; 0x16 <__rc6>
     347: 92 14        	sta	($14)                   ; 0x14 <__rc4>
     349: 8a           	txa
     34a: 91 14        	sta	($14),y                 ; 0x14 <__rc4>
     34c: b1 12        	lda	($12),y                 ; 0x12 <__rc2>
     34e: 85 14        	sta	$14                     ; 0x14 <__rc4>
     350: a9 fe        	lda	#$fe
     352: 32 12        	and	($12)                   ; 0x12 <__rc2>
     354: 18           	clc
     355: 6d e4 53     	adc	$53e4                   ; 0x53e4 <_ZN12_GLOBAL__N_19free_sizeE>
     358: aa           	tax
     359: a5 14        	lda	$14                     ; 0x14 <__rc4>
     35b: 6d e5 53     	adc	$53e5                   ; 0x53e5 <_ZN12_GLOBAL__N_19free_sizeE+0x1>
     35e: a8           	tay
     35f: 18           	clc
     360: 8a           	txa
     361: 69 fe        	adc	#$fe
     363: aa           	tax
     364: 98           	tya
     365: 69 ff        	adc	#$ff
     367: 8e e4 53     	stx	$53e4                   ; 0x53e4 <_ZN12_GLOBAL__N_19free_sizeE>
     36a: 8d e5 53     	sta	$53e5                   ; 0x53e5 <_ZN12_GLOBAL__N_19free_sizeE+0x1>
     36d: ae e6 53     	ldx	$53e6                   ; 0x53e6 <_ZN12_GLOBAL__N_19free_listE>
     370: 86 16        	stx	$16                     ; 0x16 <__rc6>
     372: ac e7 53     	ldy	$53e7                   ; 0x53e7 <_ZN12_GLOBAL__N_19free_listE+0x1>
     375: a2 00        	ldx	#$0
     377: 86 14        	stx	$14                     ; 0x14 <__rc4>
     379: a2 00        	ldx	#$0
     37b: 86 15        	stx	$15                     ; 0x15 <__rc5>
     37d: c4 15        	cpy	$15                     ; 0x15 <__rc5>
     37f: d0 3e        	bne	$3bf <_ZN12_GLOBAL__N_19FreeChunk6insertEPvj+0xa9>
     381: a6 16        	ldx	$16                     ; 0x16 <__rc6>
     383: e4 14        	cpx	$14                     ; 0x14 <__rc4>
     385: d0 38        	bne	$3bf <_ZN12_GLOBAL__N_19FreeChunk6insertEPvj+0xa9>
     387: a0 04        	ldy	#$4
     389: a5 12        	lda	$12                     ; 0x12 <__rc2>
     38b: 18           	clc
     38c: 69 04        	adc	#$4
     38e: 85 14        	sta	$14                     ; 0x14 <__rc4>
     390: a5 13        	lda	$13                     ; 0x13 <__rc3>
     392: 69 00        	adc	#$0
     394: 18           	clc
     395: 85 15        	sta	$15                     ; 0x15 <__rc5>
     397: a5 12        	lda	$12                     ; 0x12 <__rc2>
     399: 91 12        	sta	($12),y                 ; 0x12 <__rc2>
     39b: a0 02        	ldy	#$2
     39d: 85 17        	sta	$17                     ; 0x17 <__rc7>
     39f: 69 02        	adc	#$2
     3a1: 85 16        	sta	$16                     ; 0x16 <__rc6>
     3a3: a5 17        	lda	$17                     ; 0x17 <__rc7>
     3a5: 91 12        	sta	($12),y                 ; 0x12 <__rc2>
     3a7: a5 13        	lda	$13                     ; 0x13 <__rc3>
     3a9: 69 00        	adc	#$0
     3ab: 85 17        	sta	$17                     ; 0x17 <__rc7>
     3ad: 88           	dey
     3ae: a5 13        	lda	$13                     ; 0x13 <__rc3>
     3b0: 91 14        	sta	($14),y                 ; 0x14 <__rc4>
     3b2: 91 16        	sta	($16),y                 ; 0x16 <__rc6>
     3b4: a6 12        	ldx	$12                     ; 0x12 <__rc2>
     3b6: 8e e6 53     	stx	$53e6                   ; 0x53e6 <_ZN12_GLOBAL__N_19free_listE>
     3b9: a6 13        	ldx	$13                     ; 0x13 <__rc3>
     3bb: 8e e7 53     	stx	$53e7                   ; 0x53e7 <_ZN12_GLOBAL__N_19free_listE+0x1>
     3be: 60           	rts
     3bf: a6 12        	ldx	$12                     ; 0x12 <__rc2>
     3c1: a5 12        	lda	$12                     ; 0x12 <__rc2>
     3c3: 18           	clc
     3c4: 69 02        	adc	#$2
     3c6: 85 14        	sta	$14                     ; 0x14 <__rc4>
     3c8: 84 18        	sty	$18                     ; 0x18 <__rc8>
     3ca: a5 13        	lda	$13                     ; 0x13 <__rc3>
     3cc: 69 00        	adc	#$0
     3ce: 85 15        	sta	$15                     ; 0x15 <__rc5>
     3d0: a5 16        	lda	$16                     ; 0x16 <__rc6>
     3d2: 84 17        	sty	$17                     ; 0x17 <__rc7>
     3d4: a0 02        	ldy	#$2
     3d6: 91 12        	sta	($12),y                 ; 0x12 <__rc2>
     3d8: 85 19        	sta	$19                     ; 0x19 <__rc9>
     3da: 88           	dey
     3db: a5 18        	lda	$18                     ; 0x18 <__rc8>
     3dd: 91 14        	sta	($14),y                 ; 0x14 <__rc4>
     3df: 18           	clc
     3e0: a5 19        	lda	$19                     ; 0x19 <__rc9>
     3e2: 69 04        	adc	#$4
     3e4: a8           	tay
     3e5: a5 18        	lda	$18                     ; 0x18 <__rc8>
     3e7: 69 00        	adc	#$0
     3e9: 85 19        	sta	$19                     ; 0x19 <__rc9>
     3eb: 84 18        	sty	$18                     ; 0x18 <__rc8>
     3ed: 8a           	txa
     3ee: 18           	clc
     3ef: 69 04        	adc	#$4
     3f1: 85 1a        	sta	$1a                     ; 0x1a <__rc10>
     3f3: a5 13        	lda	$13                     ; 0x13 <__rc3>
     3f5: 69 00        	adc	#$0
     3f7: 85 1b        	sta	$1b                     ; 0x1b <__rc11>
     3f9: a0 04        	ldy	#$4
     3fb: b1 16        	lda	($16),y                 ; 0x16 <__rc6>
     3fd: 85 16        	sta	$16                     ; 0x16 <__rc6>
     3ff: 85 1d        	sta	$1d                     ; 0x1d <__rc13>
     401: a0 01        	ldy	#$1
     403: b1 18        	lda	($18),y                 ; 0x18 <__rc8>
     405: 85 17        	sta	$17                     ; 0x17 <__rc7>
     407: 85 19        	sta	$19                     ; 0x19 <__rc9>
     409: a0 04        	ldy	#$4
     40b: a5 1d        	lda	$1d                     ; 0x1d <__rc13>
     40d: 91 12        	sta	($12),y                 ; 0x12 <__rc2>
     40f: a5 19        	lda	$19                     ; 0x19 <__rc9>
     411: a0 01        	ldy	#$1
     413: 91 1a        	sta	($1a),y                 ; 0x1a <__rc10>
     415: 18           	clc
     416: a5 1d        	lda	$1d                     ; 0x1d <__rc13>
     418: 69 02        	adc	#$2
     41a: 85 18        	sta	$18                     ; 0x18 <__rc8>
     41c: a5 19        	lda	$19                     ; 0x19 <__rc9>
     41e: 69 00        	adc	#$0
     420: 85 19        	sta	$19                     ; 0x19 <__rc9>
     422: 8a           	txa
     423: c8           	iny
     424: 91 16        	sta	($16),y                 ; 0x16 <__rc6>
     426: a5 13        	lda	$13                     ; 0x13 <__rc3>
     428: 88           	dey
     429: 91 18        	sta	($18),y                 ; 0x18 <__rc8>
     42b: c8           	iny
     42c: b1 12        	lda	($12),y                 ; 0x12 <__rc2>
     42e: 85 16        	sta	$16                     ; 0x16 <__rc6>
     430: 85 18        	sta	$18                     ; 0x18 <__rc8>
     432: 88           	dey
     433: b1 14        	lda	($14),y                 ; 0x14 <__rc4>
     435: 85 17        	sta	$17                     ; 0x17 <__rc7>
     437: 85 14        	sta	$14                     ; 0x14 <__rc4>
     439: 8a           	txa
     43a: a0 04        	ldy	#$4
     43c: 91 16        	sta	($16),y                 ; 0x16 <__rc6>
     43e: 18           	clc
     43f: a5 18        	lda	$18                     ; 0x18 <__rc8>
     441: 69 04        	adc	#$4
     443: a8           	tay
     444: a5 14        	lda	$14                     ; 0x14 <__rc4>
     446: 69 00        	adc	#$0
     448: 84 14        	sty	$14                     ; 0x14 <__rc4>
     44a: 85 15        	sta	$15                     ; 0x15 <__rc5>
     44c: a5 13        	lda	$13                     ; 0x13 <__rc3>
     44e: a0 01        	ldy	#$1
     450: 91 14        	sta	($14),y                 ; 0x14 <__rc4>
     452: 60           	rts

00000453 <__zero_bss>:
     453: a2 96        	ldx	#$96
     455: a0 03        	ldy	#$3
     457: a9 52        	lda	#$52
     459: 85 12        	sta	$12                     ; 0x12 <__rc2>
     45b: a9 50        	lda	#$50
     45d: 85 13        	sta	$13                     ; 0x13 <__rc3>
     45f: a9 00        	lda	#$0
     461: 84 14        	sty	$14                     ; 0x14 <__rc4>
     463: 4c d1 4a     	jmp	$4ad1 <__memset>

00000466 <__zero_zp_bss>:
     466: a2 74        	ldx	#$74
     468: a0 00        	ldy	#$0
     46a: a9 30        	lda	#$30
     46c: 85 12        	sta	$12                     ; 0x12 <__rc2>
     46e: a9 00        	lda	#$0
     470: 85 13        	sta	$13                     ; 0x13 <__rc3>
     472: a9 00        	lda	#$0
     474: 84 14        	sty	$14                     ; 0x14 <__rc4>
     476: 4c d1 4a     	jmp	$4ad1 <__memset>

00000479 <f256Init>:
     479: 64 14        	stz	$14                     ; 0x14 <__rc4>
     47b: a2 00        	ldx	#$0
     47d: 86 12        	stx	$12                     ; 0x12 <__rc2>
     47f: a2 c0        	ldx	#$c0
     481: 86 13        	stx	$13                     ; 0x13 <__rc3>
     483: 64 01        	stz	$1                      ; 0x1 <__zp_data_size+0x1>
     485: a2 3f        	ldx	#$3f
     487: 8e 00 d0     	stx	$d000                   ; 0xd000 <end_block9+0x7bf6>
     48a: a2 b3        	ldx	#$b3
     48c: 86 00        	stx	$0                      ; 0x0 <__zp_data_size>
     48e: 64 08        	stz	$8                      ; 0x8 <__zp_data_size+0x8>
     490: a2 01        	ldx	#$1
     492: 86 09        	stx	$9                      ; 0x9 <__zp_data_size+0x9>
     494: e8           	inx
     495: 86 0a        	stx	$a                      ; 0xa <__zp_data_size+0xa>
     497: e8           	inx
     498: 86 0b        	stx	$b                      ; 0xb <__zp_data_size+0xb>
     49a: e8           	inx
     49b: 86 0c        	stx	$c                      ; 0xc <__zp_data_size+0xc>
     49d: e8           	inx
     49e: 86 0d        	stx	$d                      ; 0xd <__zp_data_size+0xd>
     4a0: a2 30        	ldx	#$30
     4a2: a0 00        	ldy	#$0
     4a4: 86 f0        	stx	$f0                     ; 0xf0 <__zp_bss_size+0x7c>
     4a6: 84 f1        	sty	$f1                     ; 0xf1 <__zp_bss_size+0x7d>
     4a8: a2 00        	ldx	#$0
     4aa: 86 18        	stx	$18                     ; 0x18 <__rc8>
     4ac: ca           	dex
     4ad: 86 19        	stx	$19                     ; 0x19 <__rc9>
     4af: 8a           	txa
     4b0: 0a           	asl
     4b1: 0a           	asl
     4b2: 18           	clc
     4b3: 69 d4        	adc	#$d4
     4b5: 85 1a        	sta	$1a                     ; 0x1a <__rc10>
     4b7: a0 00        	ldy	#$0
     4b9: 64 17        	stz	$17                     ; 0x17 <__rc7>
     4bb: 64 16        	stz	$16                     ; 0x16 <__rc6>
     4bd: a6 19        	ldx	$19                     ; 0x19 <__rc9>
     4bf: e0 03        	cpx	#$3
     4c1: a6 01        	ldx	$1                      ; 0x1 <__zp_data_size+0x1>
     4c3: 86 1c        	stx	$1c                     ; 0x1c <__rc12>
     4c5: a2 d0        	ldx	#$d0
     4c7: 84 1b        	sty	$1b                     ; 0x1b <__rc11>
     4c9: b0 02        	bcs	$4cd <f256Init+0x54>
     4cb: a6 1a        	ldx	$1a                     ; 0x1a <__rc10>
     4cd: 86 15        	stx	$15                     ; 0x15 <__rc5>
     4cf: a5 17        	lda	$17                     ; 0x17 <__rc7>
     4d1: 18           	clc
     4d2: 65 14        	adc	$14                     ; 0x14 <__rc4>
     4d4: a8           	tay
     4d5: a6 17        	ldx	$17                     ; 0x17 <__rc7>
     4d7: a5 16        	lda	$16                     ; 0x16 <__rc6>
     4d9: 85 1d        	sta	$1d                     ; 0x1d <__rc13>
     4db: a5 16        	lda	$16                     ; 0x16 <__rc6>
     4dd: 65 15        	adc	$15                     ; 0x15 <__rc5>
     4df: 84 16        	sty	$16                     ; 0x16 <__rc6>
     4e1: a0 01        	ldy	#$1
     4e3: 84 01        	sty	$1                      ; 0x1 <__zp_data_size+0x1>
     4e5: 85 17        	sta	$17                     ; 0x17 <__rc7>
     4e7: a5 1b        	lda	$1b                     ; 0x1b <__rc11>
     4e9: 92 16        	sta	($16)                   ; 0x16 <__rc6>
     4eb: 91 16        	sta	($16),y                 ; 0x16 <__rc6>
     4ed: c8           	iny
     4ee: 91 16        	sta	($16),y                 ; 0x16 <__rc6>
     4f0: 85 15        	sta	$15                     ; 0x15 <__rc5>
     4f2: c8           	iny
     4f3: a9 ff        	lda	#$ff
     4f5: 91 16        	sta	($16),y                 ; 0x16 <__rc6>
     4f7: 8a           	txa
     4f8: a6 1c        	ldx	$1c                     ; 0x1c <__rc12>
     4fa: 86 01        	stx	$1                      ; 0x1 <__zp_data_size+0x1>
     4fc: 18           	clc
     4fd: 69 04        	adc	#$4
     4ff: 85 17        	sta	$17                     ; 0x17 <__rc7>
     501: a5 1d        	lda	$1d                     ; 0x1d <__rc13>
     503: 69 00        	adc	#$0
     505: e6 15        	inc	$15                     ; 0x15 <__rc5>
     507: a4 15        	ldy	$15                     ; 0x15 <__rc5>
     509: 85 16        	sta	$16                     ; 0x16 <__rc6>
     50b: c9 04        	cmp	#$4
     50d: f0 03        	beq	$512 <f256Init+0x99>
     50f: 4c bd 04     	jmp	$4bd <f256Init+0x44>
     512: a5 17        	lda	$17                     ; 0x17 <__rc7>
     514: f0 03        	beq	$519 <f256Init+0xa0>
     516: 4c bd 04     	jmp	$4bd <f256Init+0x44>
     519: a6 18        	ldx	$18                     ; 0x18 <__rc8>
     51b: e8           	inx
     51c: e0 04        	cpx	#$4
     51e: f0 03        	beq	$523 <f256Init+0xaa>
     520: 4c aa 04     	jmp	$4aa <f256Init+0x31>
     523: ad 02 d0     	lda	$d002                   ; 0xd002 <end_block9+0x7bf8>
     526: 29 f0        	and	#$f0
     528: 8d 02 d0     	sta	$d002                   ; 0xd002 <end_block9+0x7bf8>
     52b: ad 02 d0     	lda	$d002                   ; 0xd002 <end_block9+0x7bf8>
     52e: 29 0f        	and	#$f
     530: 09 10        	ora	#$10
     532: 8d 02 d0     	sta	$d002                   ; 0xd002 <end_block9+0x7bf8>
     535: a2 02        	ldx	#$2
     537: 8e 03 d0     	stx	$d003                   ; 0xd003 <end_block9+0x7bf9>
     53a: ad 01 d0     	lda	$d001                   ; 0xd001 <end_block9+0x7bf7>
     53d: 29 f9        	and	#$f9
     53f: 09 04        	ora	#$4
     541: 8d 01 d0     	sta	$d001                   ; 0xd001 <end_block9+0x7bf7>
     544: 64 14        	stz	$14                     ; 0x14 <__rc4>
     546: 9c 10 d0     	stz	$d010                   ; 0xd010 <end_block9+0x7c06>
     549: a2 00        	ldx	#$0
     54b: 64 15        	stz	$15                     ; 0x15 <__rc5>
     54d: 86 18        	stx	$18                     ; 0x18 <__rc8>
     54f: a4 18        	ldy	$18                     ; 0x18 <__rc8>
     551: be 96 4d     	ldx	$4d96,y                 ; 0x4d96 <textColors>
     554: 86 19        	stx	$19                     ; 0x19 <__rc9>
     556: be 97 4d     	ldx	$4d97,y                 ; 0x4d97 <textColors+0x1>
     559: 86 1a        	stx	$1a                     ; 0x1a <__rc10>
     55b: be 98 4d     	ldx	$4d98,y                 ; 0x4d98 <textColors+0x2>
     55e: 86 1b        	stx	$1b                     ; 0x1b <__rc11>
     560: a6 15        	ldx	$15                     ; 0x15 <__rc5>
     562: 8e 00 de     	stx	$de00                   ; 0xde00 <end_block9+0x89f6>
     565: 86 17        	stx	$17                     ; 0x17 <__rc7>
     567: 9c 01 de     	stz	$de01                   ; 0xde01 <end_block9+0x89f7>
     56a: a2 04        	ldx	#$4
     56c: 8e 02 de     	stx	$de02                   ; 0xde02 <end_block9+0x89f8>
     56f: 9c 03 de     	stz	$de03                   ; 0xde03 <end_block9+0x89f9>
     572: ad 10 de     	lda	$de10                   ; 0xde10 <end_block9+0x8a06>
     575: ac 11 de     	ldy	$de11                   ; 0xde11 <end_block9+0x8a07>
     578: 84 15        	sty	$15                     ; 0x15 <__rc5>
     57a: ac 12 de     	ldy	$de12                   ; 0xde12 <end_block9+0x8a08>
     57d: ac 13 de     	ldy	$de13                   ; 0xde13 <end_block9+0x8a09>
     580: 18           	clc
     581: 65 14        	adc	$14                     ; 0x14 <__rc4>
     583: 85 16        	sta	$16                     ; 0x16 <__rc6>
     585: a6 17        	ldx	$17                     ; 0x17 <__rc7>
     587: a9 d8        	lda	#$d8
     589: 65 15        	adc	$15                     ; 0x15 <__rc5>
     58b: 85 17        	sta	$17                     ; 0x17 <__rc7>
     58d: a5 1b        	lda	$1b                     ; 0x1b <__rc11>
     58f: 92 16        	sta	($16)                   ; 0x16 <__rc6>
     591: a0 01        	ldy	#$1
     593: a5 1a        	lda	$1a                     ; 0x1a <__rc10>
     595: 91 16        	sta	($16),y                 ; 0x16 <__rc6>
     597: c8           	iny
     598: a5 19        	lda	$19                     ; 0x19 <__rc9>
     59a: 91 16        	sta	($16),y                 ; 0x16 <__rc6>
     59c: c8           	iny
     59d: a9 ff        	lda	#$ff
     59f: 91 16        	sta	($16),y                 ; 0x16 <__rc6>
     5a1: 8e 00 de     	stx	$de00                   ; 0xde00 <end_block9+0x89f6>
     5a4: 9c 01 de     	stz	$de01                   ; 0xde01 <end_block9+0x89f7>
     5a7: c8           	iny
     5a8: 8c 02 de     	sty	$de02                   ; 0xde02 <end_block9+0x89f8>
     5ab: 9c 03 de     	stz	$de03                   ; 0xde03 <end_block9+0x89f9>
     5ae: ad 10 de     	lda	$de10                   ; 0xde10 <end_block9+0x8a06>
     5b1: 85 15        	sta	$15                     ; 0x15 <__rc5>
     5b3: ad 11 de     	lda	$de11                   ; 0xde11 <end_block9+0x8a07>
     5b6: 85 16        	sta	$16                     ; 0x16 <__rc6>
     5b8: a9 40        	lda	#$40
     5ba: 18           	clc
     5bb: 65 15        	adc	$15                     ; 0x15 <__rc5>
     5bd: a8           	tay
     5be: a9 d8        	lda	#$d8
     5c0: 65 16        	adc	$16                     ; 0x16 <__rc6>
     5c2: 85 17        	sta	$17                     ; 0x17 <__rc7>
     5c4: 84 16        	sty	$16                     ; 0x16 <__rc6>
     5c6: ad 12 de     	lda	$de12                   ; 0xde12 <end_block9+0x8a08>
     5c9: ad 13 de     	lda	$de13                   ; 0xde13 <end_block9+0x8a09>
     5cc: a5 1b        	lda	$1b                     ; 0x1b <__rc11>
     5ce: 92 16        	sta	($16)                   ; 0x16 <__rc6>
     5d0: a5 1a        	lda	$1a                     ; 0x1a <__rc10>
     5d2: a0 01        	ldy	#$1
     5d4: 91 16        	sta	($16),y                 ; 0x16 <__rc6>
     5d6: a5 19        	lda	$19                     ; 0x19 <__rc9>
     5d8: c8           	iny
     5d9: 91 16        	sta	($16),y                 ; 0x16 <__rc6>
     5db: c8           	iny
     5dc: a9 ff        	lda	#$ff
     5de: 91 16        	sta	($16),y                 ; 0x16 <__rc6>
     5e0: e8           	inx
     5e1: 86 15        	stx	$15                     ; 0x15 <__rc5>
     5e3: 18           	clc
     5e4: a5 18        	lda	$18                     ; 0x18 <__rc8>
     5e6: 69 03        	adc	#$3
     5e8: aa           	tax
     5e9: c9 30        	cmp	#$30
     5eb: f0 03        	beq	$5f0 <f256Init+0x177>
     5ed: 4c 4d 05     	jmp	$54d <f256Init+0xd4>
     5f0: a6 01        	ldx	$1                      ; 0x1 <__zp_data_size+0x1>
     5f2: 86 18        	stx	$18                     ; 0x18 <__rc8>
     5f4: a2 50        	ldx	#$50
     5f6: 8e 00 de     	stx	$de00                   ; 0xde00 <end_block9+0x89f6>
     5f9: 9c 01 de     	stz	$de01                   ; 0xde01 <end_block9+0x89f7>
     5fc: a2 1e        	ldx	#$1e
     5fe: 8e 02 de     	stx	$de02                   ; 0xde02 <end_block9+0x89f8>
     601: 9c 03 de     	stz	$de03                   ; 0xde03 <end_block9+0x89f9>
     604: ae 10 de     	ldx	$de10                   ; 0xde10 <end_block9+0x8a06>
     607: ac 11 de     	ldy	$de11                   ; 0xde11 <end_block9+0x8a07>
     60a: ad 12 de     	lda	$de12                   ; 0xde12 <end_block9+0x8a08>
     60d: ad 13 de     	lda	$de13                   ; 0xde13 <end_block9+0x8a09>
     610: a9 02        	lda	#$2
     612: 85 01        	sta	$1                      ; 0x1 <__zp_data_size+0x1>
     614: e0 01        	cpx	#$1
     616: 98           	tya
     617: e9 00        	sbc	#$0
     619: 50 02        	bvc	$61d <f256Init+0x1a4>
     61b: 49 80        	eor	#$80
     61d: c9 00        	cmp	#$0
     61f: 30 48        	bmi	$669 <f256Init+0x1f0>
     621: a9 20        	lda	#$20
     623: 86 19        	stx	$19                     ; 0x19 <__rc9>
     625: 86 14        	stx	$14                     ; 0x14 <__rc4>
     627: 84 15        	sty	$15                     ; 0x15 <__rc5>
     629: a2 00        	ldx	#$0
     62b: 86 16        	stx	$16                     ; 0x16 <__rc6>
     62d: a2 c0        	ldx	#$c0
     62f: 86 17        	stx	$17                     ; 0x17 <__rc7>
     631: 92 16        	sta	($16)                   ; 0x16 <__rc6>
     633: e6 16        	inc	$16                     ; 0x16 <__rc6>
     635: d0 02        	bne	$639 <f256Init+0x1c0>
     637: e6 17        	inc	$17                     ; 0x17 <__rc7>
     639: a2 ff        	ldx	#$ff
     63b: c6 14        	dec	$14                     ; 0x14 <__rc4>
     63d: e4 14        	cpx	$14                     ; 0x14 <__rc4>
     63f: d0 02        	bne	$643 <f256Init+0x1ca>
     641: c6 15        	dec	$15                     ; 0x15 <__rc5>
     643: a6 15        	ldx	$15                     ; 0x15 <__rc5>
     645: d0 ea        	bne	$631 <f256Init+0x1b8>
     647: a6 14        	ldx	$14                     ; 0x14 <__rc4>
     649: d0 e6        	bne	$631 <f256Init+0x1b8>
     64b: a2 03        	ldx	#$3
     64d: 86 01        	stx	$1                      ; 0x1 <__zp_data_size+0x1>
     64f: a6 19        	ldx	$19                     ; 0x19 <__rc9>
     651: a9 f0        	lda	#$f0
     653: 92 12        	sta	($12)                   ; 0x12 <__rc2>
     655: e6 12        	inc	$12                     ; 0x12 <__rc2>
     657: d0 02        	bne	$65b <f256Init+0x1e2>
     659: e6 13        	inc	$13                     ; 0x13 <__rc3>
     65b: ca           	dex
     65c: e0 ff        	cpx	#$ff
     65e: d0 01        	bne	$661 <f256Init+0x1e8>
     660: 88           	dey
     661: 98           	tya
     662: d0 ed        	bne	$651 <f256Init+0x1d8>
     664: 8a           	txa
     665: d0 ea        	bne	$651 <f256Init+0x1d8>
     667: 80 04        	bra	$66d <f256Init+0x1f4>
     669: a2 03        	ldx	#$3
     66b: 86 01        	stx	$1                      ; 0x1 <__zp_data_size+0x1>
     66d: a6 18        	ldx	$18                     ; 0x18 <__rc8>
     66f: 86 01        	stx	$1                      ; 0x1 <__zp_data_size+0x1>
     671: 64 37        	stz	$37                     ; 0x37 <_col>
     673: 9c 14 d0     	stz	$d014                   ; 0xd014 <end_block9+0x7c0a>
     676: 9c 15 d0     	stz	$d015                   ; 0xd015 <end_block9+0x7c0b>
     679: 64 38        	stz	$38                     ; 0x38 <_row>
     67b: 9c 16 d0     	stz	$d016                   ; 0xd016 <end_block9+0x7c0c>
     67e: 9c 17 d0     	stz	$d017                   ; 0xd017 <end_block9+0x7c0d>
     681: a2 40        	ldx	#$40
     683: 8e 00 de     	stx	$de00                   ; 0xde00 <end_block9+0x89f6>
     686: a2 01        	ldx	#$1
     688: 8e 01 de     	stx	$de01                   ; 0xde01 <end_block9+0x89f7>
     68b: a2 f0        	ldx	#$f0
     68d: 8e 02 de     	stx	$de02                   ; 0xde02 <end_block9+0x89f8>
     690: 9c 03 de     	stz	$de03                   ; 0xde03 <end_block9+0x89f9>
     693: ae 10 de     	ldx	$de10                   ; 0xde10 <end_block9+0x8a06>
     696: 86 17        	stx	$17                     ; 0x17 <__rc7>
     698: ae 11 de     	ldx	$de11                   ; 0xde11 <end_block9+0x8a07>
     69b: 86 12        	stx	$12                     ; 0x12 <__rc2>
     69d: ae 12 de     	ldx	$de12                   ; 0xde12 <end_block9+0x8a08>
     6a0: 86 13        	stx	$13                     ; 0x13 <__rc3>
     6a2: ae 13 de     	ldx	$de13                   ; 0xde13 <end_block9+0x8a09>
     6a5: 86 14        	stx	$14                     ; 0x14 <__rc4>
     6a7: 9c 5f 50     	stz	$505f                   ; 0x505f <_active>
     6aa: a2 ff        	ldx	#$ff
     6ac: 8e 60 50     	stx	$5060                   ; 0x5060 <_color>
     6af: a6 12        	ldx	$12                     ; 0x12 <__rc2>
     6b1: 86 15        	stx	$15                     ; 0x15 <__rc5>
     6b3: 06 15        	asl	$15                     ; 0x15 <__rc5>
     6b5: a5 13        	lda	$13                     ; 0x13 <__rc3>
     6b7: 2a           	rol
     6b8: a6 14        	ldx	$14                     ; 0x14 <__rc4>
     6ba: 86 16        	stx	$16                     ; 0x16 <__rc6>
     6bc: 26 16        	rol	$16                     ; 0x16 <__rc6>
     6be: 06 15        	asl	$15                     ; 0x15 <__rc5>
     6c0: 2a           	rol
     6c1: 26 16        	rol	$16                     ; 0x16 <__rc6>
     6c3: 06 15        	asl	$15                     ; 0x15 <__rc5>
     6c5: 2a           	rol
     6c6: 26 16        	rol	$16                     ; 0x16 <__rc6>
     6c8: 85 15        	sta	$15                     ; 0x15 <__rc5>
     6ca: 8d 00 de     	sta	$de00                   ; 0xde00 <end_block9+0x89f6>
     6cd: a5 16        	lda	$16                     ; 0x16 <__rc6>
     6cf: 8d 01 de     	sta	$de01                   ; 0xde01 <end_block9+0x89f7>
     6d2: 9c 02 de     	stz	$de02                   ; 0xde02 <end_block9+0x89f8>
     6d5: a2 20        	ldx	#$20
     6d7: 8e 03 de     	stx	$de03                   ; 0xde03 <end_block9+0x89f9>
     6da: ae 10 de     	ldx	$de10                   ; 0xde10 <end_block9+0x8a06>
     6dd: 86 16        	stx	$16                     ; 0x16 <__rc6>
     6df: ae 11 de     	ldx	$de11                   ; 0xde11 <end_block9+0x8a07>
     6e2: 86 18        	stx	$18                     ; 0x18 <__rc8>
     6e4: ac 12 de     	ldy	$de12                   ; 0xde12 <end_block9+0x8a08>
     6e7: ae 13 de     	ldx	$de13                   ; 0xde13 <end_block9+0x8a09>
     6ea: e4 14        	cpx	$14                     ; 0x14 <__rc4>
     6ec: d0 14        	bne	$702 <f256Init+0x289>
     6ee: c4 13        	cpy	$13                     ; 0x13 <__rc3>
     6f0: d0 10        	bne	$702 <f256Init+0x289>
     6f2: a6 18        	ldx	$18                     ; 0x18 <__rc8>
     6f4: e4 12        	cpx	$12                     ; 0x12 <__rc2>
     6f6: d0 0a        	bne	$702 <f256Init+0x289>
     6f8: a6 16        	ldx	$16                     ; 0x16 <__rc6>
     6fa: e4 17        	cpx	$17                     ; 0x17 <__rc7>
     6fc: d0 04        	bne	$702 <f256Init+0x289>
     6fe: a6 15        	ldx	$15                     ; 0x15 <__rc5>
     700: 80 06        	bra	$708 <f256Init+0x28f>
     702: a6 15        	ldx	$15                     ; 0x15 <__rc5>
     704: e8           	inx
     705: d0 01        	bne	$708 <f256Init+0x28f>
     707: 1a           	inc
     708: 8e 00 de     	stx	$de00                   ; 0xde00 <end_block9+0x89f6>
     70b: 8d 01 de     	sta	$de01                   ; 0xde01 <end_block9+0x89f7>
     70e: 9c 02 de     	stz	$de02                   ; 0xde02 <end_block9+0x89f8>
     711: a2 20        	ldx	#$20
     713: 8e 03 de     	stx	$de03                   ; 0xde03 <end_block9+0x89f9>
     716: ae 10 de     	ldx	$de10                   ; 0xde10 <end_block9+0x8a06>
     719: 86 12        	stx	$12                     ; 0x12 <__rc2>
     71b: ae 11 de     	ldx	$de11                   ; 0xde11 <end_block9+0x8a07>
     71e: 86 13        	stx	$13                     ; 0x13 <__rc3>
     720: ae 12 de     	ldx	$de12                   ; 0xde12 <end_block9+0x8a08>
     723: 86 14        	stx	$14                     ; 0x14 <__rc4>
     725: ae 13 de     	ldx	$de13                   ; 0xde13 <end_block9+0x8a09>
     728: 86 15        	stx	$15                     ; 0x15 <__rc5>
     72a: a9 00        	lda	#$0
     72c: 38           	sec
     72d: e5 12        	sbc	$12                     ; 0x12 <__rc2>
     72f: 85 18        	sta	$18                     ; 0x18 <__rc8>
     731: a9 00        	lda	#$0
     733: e5 13        	sbc	$13                     ; 0x13 <__rc3>
     735: a8           	tay
     736: a9 08        	lda	#$8
     738: e5 14        	sbc	$14                     ; 0x14 <__rc4>
     73a: aa           	tax
     73b: a9 00        	lda	#$0
     73d: e5 15        	sbc	$15                     ; 0x15 <__rc5>
     73f: 85 17        	sta	$17                     ; 0x17 <__rc7>
     741: 8c 54 50     	sty	$5054                   ; 0x5054 <_BITMAP_BASE+0x1>
     744: 8e 55 50     	stx	$5055                   ; 0x5055 <_BITMAP_BASE+0x2>
     747: 8d 56 50     	sta	$5056                   ; 0x5056 <_BITMAP_BASE+0x3>
     74a: 38           	sec
     74b: a5 18        	lda	$18                     ; 0x18 <__rc8>
     74d: e5 12        	sbc	$12                     ; 0x12 <__rc2>
     74f: 85 19        	sta	$19                     ; 0x19 <__rc9>
     751: 98           	tya
     752: e5 13        	sbc	$13                     ; 0x13 <__rc3>
     754: 85 16        	sta	$16                     ; 0x16 <__rc6>
     756: 8a           	txa
     757: e5 14        	sbc	$14                     ; 0x14 <__rc4>
     759: aa           	tax
     75a: a5 17        	lda	$17                     ; 0x17 <__rc7>
     75c: e5 15        	sbc	$15                     ; 0x15 <__rc5>
     75e: 85 17        	sta	$17                     ; 0x17 <__rc7>
     760: 38           	sec
     761: a5 19        	lda	$19                     ; 0x19 <__rc9>
     763: 8d 57 50     	sta	$5057                   ; 0x5057 <_BITMAP_BASE+0x4>
     766: a4 16        	ldy	$16                     ; 0x16 <__rc6>
     768: 8c 58 50     	sty	$5058                   ; 0x5058 <_BITMAP_BASE+0x5>
     76b: 8e 59 50     	stx	$5059                   ; 0x5059 <_BITMAP_BASE+0x6>
     76e: a4 17        	ldy	$17                     ; 0x17 <__rc7>
     770: 8c 5a 50     	sty	$505a                   ; 0x505a <_BITMAP_BASE+0x7>
     773: e5 12        	sbc	$12                     ; 0x12 <__rc2>
     775: a8           	tay
     776: a5 16        	lda	$16                     ; 0x16 <__rc6>
     778: e5 13        	sbc	$13                     ; 0x13 <__rc3>
     77a: 85 12        	sta	$12                     ; 0x12 <__rc2>
     77c: 8a           	txa
     77d: e5 14        	sbc	$14                     ; 0x14 <__rc4>
     77f: 85 14        	sta	$14                     ; 0x14 <__rc4>
     781: a5 17        	lda	$17                     ; 0x17 <__rc7>
     783: e5 15        	sbc	$15                     ; 0x15 <__rc5>
     785: 8c 5b 50     	sty	$505b                   ; 0x505b <_BITMAP_BASE+0x8>
     788: a4 12        	ldy	$12                     ; 0x12 <__rc2>
     78a: 8c 5c 50     	sty	$505c                   ; 0x505c <_BITMAP_BASE+0x9>
     78d: a6 14        	ldx	$14                     ; 0x14 <__rc4>
     78f: 8e 5d 50     	stx	$505d                   ; 0x505d <_BITMAP_BASE+0xa>
     792: a6 18        	ldx	$18                     ; 0x18 <__rc8>
     794: 8e 53 50     	stx	$5053                   ; 0x5053 <_BITMAP_BASE>
     797: 8d 5e 50     	sta	$505e                   ; 0x505e <_BITMAP_BASE+0xb>
     79a: 9c 61 50     	stz	$5061                   ; 0x5061 <_BITMAP_CLUT.1>
     79d: 8e 01 d1     	stx	$d101                   ; 0xd101 <end_block9+0x7cf7>
     7a0: ae 54 50     	ldx	$5054                   ; 0x5054 <_BITMAP_BASE+0x1>
     7a3: 8e 02 d1     	stx	$d102                   ; 0xd102 <end_block9+0x7cf8>
     7a6: ae 55 50     	ldx	$5055                   ; 0x5055 <_BITMAP_BASE+0x2>
     7a9: 8e 03 d1     	stx	$d103                   ; 0xd103 <end_block9+0x7cf9>
     7ac: ae 57 50     	ldx	$5057                   ; 0x5057 <_BITMAP_BASE+0x4>
     7af: 8e 09 d1     	stx	$d109                   ; 0xd109 <end_block9+0x7cff>
     7b2: ae 58 50     	ldx	$5058                   ; 0x5058 <_BITMAP_BASE+0x5>
     7b5: 8e 0a d1     	stx	$d10a                   ; 0xd10a <end_block9+0x7d00>
     7b8: ae 59 50     	ldx	$5059                   ; 0x5059 <_BITMAP_BASE+0x6>
     7bb: 8e 0b d1     	stx	$d10b                   ; 0xd10b <end_block9+0x7d01>
     7be: ae 5b 50     	ldx	$505b                   ; 0x505b <_BITMAP_BASE+0x8>
     7c1: 8e 11 d1     	stx	$d111                   ; 0xd111 <end_block9+0x7d07>
     7c4: ae 5c 50     	ldx	$505c                   ; 0x505c <_BITMAP_BASE+0x9>
     7c7: 8e 12 d1     	stx	$d112                   ; 0xd112 <end_block9+0x7d08>
     7ca: ae 5d 50     	ldx	$505d                   ; 0x505d <_BITMAP_BASE+0xa>
     7cd: 8e 13 d1     	stx	$d113                   ; 0xd113 <end_block9+0x7d09>
     7d0: 9c 00 d1     	stz	$d100                   ; 0xd100 <end_block9+0x7cf6>
     7d3: 9c 08 d1     	stz	$d108                   ; 0xd108 <end_block9+0x7cfe>
     7d6: 9c 10 d1     	stz	$d110                   ; 0xd110 <end_block9+0x7d06>
     7d9: a2 10        	ldx	#$10
     7db: 8e 00 d2     	stx	$d200                   ; 0xd200 <end_block9+0x7df6>
     7de: 8e 0c d2     	stx	$d20c                   ; 0xd20c <end_block9+0x7e02>
     7e1: 8e 18 d2     	stx	$d218                   ; 0xd218 <end_block9+0x7e0e>
     7e4: a0 d9        	ldy	#$d9
     7e6: 64 12        	stz	$12                     ; 0x12 <__rc2>
     7e8: a2 00        	ldx	#$0
     7ea: 84 13        	sty	$13                     ; 0x13 <__rc3>
     7ec: b5 39        	lda	$39,x                   ; 0x39 <_spriteCtl>
     7ee: 92 12        	sta	($12)                   ; 0x12 <__rc2>
     7f0: a5 12        	lda	$12                     ; 0x12 <__rc2>
     7f2: e8           	inx
     7f3: 18           	clc
     7f4: 69 08        	adc	#$8
     7f6: 85 12        	sta	$12                     ; 0x12 <__rc2>
     7f8: 98           	tya
     7f9: 69 00        	adc	#$0
     7fb: a8           	tay
     7fc: e0 40        	cpx	#$40
     7fe: d0 ea        	bne	$7ea <f256Init+0x371>
     800: a2 a4        	ldx	#$a4
     802: a0 00        	ldy	#$0
     804: 86 fb        	stx	$fb                     ; 0xfb <__zp_bss_size+0x87>
     806: 84 fc        	sty	$fc                     ; 0xfc <__zp_bss_size+0x88>
     808: a2 08        	ldx	#$8
     80a: 86 fd        	stx	$fd                     ; 0xfd <__zp_bss_size+0x89>
     80c: a2 ac        	ldx	#$ac
     80e: a0 00        	ldy	#$0
     810: 86 12        	stx	$12                     ; 0x12 <__rc2>
     812: 84 13        	sty	$13                     ; 0x13 <__rc3>
     814: a2 52        	ldx	#$52
     816: 86 14        	stx	$14                     ; 0x14 <__rc4>
     818: a2 50        	ldx	#$50
     81a: 86 15        	stx	$15                     ; 0x15 <__rc5>
     81c: 20 dc ff     	jsr	$ffdc <end_block9+0xabd2>
     81f: 92 12        	sta	($12)                   ; 0x12 <__rc2>
     821: a9 00        	lda	#$0
     823: 6a           	ror
     824: 85 14        	sta	$14                     ; 0x14 <__rc4>
     826: a6 aa        	ldx	$aa                     ; 0xaa <__zp_bss_size+0x36>
     828: a4 ab        	ldy	$ab                     ; 0xab <__zp_bss_size+0x37>
     82a: 8e 00 de     	stx	$de00                   ; 0xde00 <end_block9+0x89f6>
     82d: 9c 01 de     	stz	$de01                   ; 0xde01 <end_block9+0x89f7>
     830: 8c 02 de     	sty	$de02                   ; 0xde02 <end_block9+0x89f8>
     833: 9c 03 de     	stz	$de03                   ; 0xde03 <end_block9+0x89f9>
     836: ae 10 de     	ldx	$de10                   ; 0xde10 <end_block9+0x8a06>
     839: ac 11 de     	ldy	$de11                   ; 0xde11 <end_block9+0x8a07>
     83c: ad 12 de     	lda	$de12                   ; 0xde12 <end_block9+0x8a08>
     83f: ad 13 de     	lda	$de13                   ; 0xde13 <end_block9+0x8a09>
     842: 8e a4 d6     	stx	$d6a4                   ; 0xd6a4 <end_block9+0x829a>
     845: 8c a5 d6     	sty	$d6a5                   ; 0xd6a5 <end_block9+0x829b>
     848: a2 03        	ldx	#$3
     84a: 8e a6 d6     	stx	$d6a6                   ; 0xd6a6 <end_block9+0x829c>
     84d: 60           	rts

0000084e <main>:
     84e: 20 79 04     	jsr	$479 <f256Init>
     851: 20 54 08     	jsr	$854 <f256main>

00000854 <f256main>:
     854: 18           	clc
     855: a5 10        	lda	$10                     ; 0x10 <__rc0>
     857: 69 f1        	adc	#$f1
     859: 85 10        	sta	$10                     ; 0x10 <__rc0>
     85b: a5 11        	lda	$11                     ; 0x11 <__rc1>
     85d: 69 ff        	adc	#$ff
     85f: 85 11        	sta	$11                     ; 0x11 <__rc1>
     861: a2 80        	ldx	#$80
     863: 86 24        	stx	$24                     ; 0x24 <__rc20>
     865: a2 d5        	ldx	#$d5
     867: 86 25        	stx	$25                     ; 0x25 <__rc21>
     869: a2 82        	ldx	#$82
     86b: 86 2a        	stx	$2a                     ; 0x2a <__rc26>
     86d: a2 d5        	ldx	#$d5
     86f: 86 2b        	stx	$2b                     ; 0x2b <__rc27>
     871: a2 00        	ldx	#$0
     873: 64 01        	stz	$1                      ; 0x1 <__zp_data_size+0x1>
     875: a0 2f        	ldy	#$2f
     877: 8c 00 d0     	sty	$d000                   ; 0xd000 <end_block9+0x7bf6>
     87a: a0 04        	ldy	#$4
     87c: 8c 01 d0     	sty	$d001                   ; 0xd001 <end_block9+0x7bf7>
     87f: a0 01        	ldy	#$1
     881: 8c 02 d0     	sty	$d002                   ; 0xd002 <end_block9+0x7bf8>
     884: a9 02        	lda	#$2
     886: 8d 03 d0     	sta	$d003                   ; 0xd003 <end_block9+0x7bf9>
     889: 9c 0d d0     	stz	$d00d                   ; 0xd00d <end_block9+0x7c03>
     88c: 9c 0e d0     	stz	$d00e                   ; 0xd00e <end_block9+0x7c04>
     88f: 9c 0f d0     	stz	$d00f                   ; 0xd00f <end_block9+0x7c05>
     892: 84 01        	sty	$1                      ; 0x1 <__zp_data_size+0x1>
     894: a0 f0        	ldy	#$f0
     896: 86 12        	stx	$12                     ; 0x12 <__rc2>
     898: 84 13        	sty	$13                     ; 0x13 <__rc3>
     89a: a5 0f        	lda	$f                      ; 0xf <__zp_data_size+0xf>
     89c: 85 15        	sta	$15                     ; 0x15 <__rc5>
     89e: 78           	sei
     89f: 86 14        	stx	$14                     ; 0x14 <__rc4>
     8a1: a2 0a        	ldx	#$a
     8a3: 86 0f        	stx	$f                      ; 0xf <__zp_data_size+0xf>
     8a5: a6 14        	ldx	$14                     ; 0x14 <__rc4>
     8a7: b2 12        	lda	($12)                   ; 0x12 <__rc2>
     8a9: 85 14        	sta	$14                     ; 0x14 <__rc4>
     8ab: a5 15        	lda	$15                     ; 0x15 <__rc5>
     8ad: 85 0f        	sta	$f                      ; 0xf <__zp_data_size+0xf>
     8af: 8a           	txa
     8b0: 18           	clc
     8b1: 69 00        	adc	#$0
     8b3: 85 12        	sta	$12                     ; 0x12 <__rc2>
     8b5: 98           	tya
     8b6: 69 e0        	adc	#$e0
     8b8: 58           	cli
     8b9: 85 13        	sta	$13                     ; 0x13 <__rc3>
     8bb: a5 14        	lda	$14                     ; 0x14 <__rc4>
     8bd: 92 12        	sta	($12)                   ; 0x12 <__rc2>
     8bf: e8           	inx
     8c0: d0 01        	bne	$8c3 <f256main+0x6f>
     8c2: c8           	iny
     8c3: c0 f3        	cpy	#$f3
     8c5: d0 cf        	bne	$896 <f256main+0x42>
     8c7: e0 ff        	cpx	#$ff
     8c9: d0 cb        	bne	$896 <f256main+0x42>
     8cb: a2 d4        	ldx	#$d4
     8cd: a0 00        	ldy	#$0
     8cf: 18           	clc
     8d0: 84 17        	sty	$17                     ; 0x17 <__rc7>
     8d2: 98           	tya
     8d3: 69 00        	adc	#$0
     8d5: 85 14        	sta	$14                     ; 0x14 <__rc4>
     8d7: 8a           	txa
     8d8: 69 0c        	adc	#$c
     8da: 85 15        	sta	$15                     ; 0x15 <__rc5>
     8dc: 84 12        	sty	$12                     ; 0x12 <__rc2>
     8de: 86 13        	stx	$13                     ; 0x13 <__rc3>
     8e0: a4 0f        	ldy	$f                      ; 0xf <__zp_data_size+0xf>
     8e2: 78           	sei
     8e3: a9 18        	lda	#$18
     8e5: 85 0f        	sta	$f                      ; 0xf <__zp_data_size+0xf>
     8e7: b2 14        	lda	($14)                   ; 0x14 <__rc4>
     8e9: 84 0f        	sty	$f                      ; 0xf <__zp_data_size+0xf>
     8eb: 58           	cli
     8ec: 92 12        	sta	($12)                   ; 0x12 <__rc2>
     8ee: a4 17        	ldy	$17                     ; 0x17 <__rc7>
     8f0: c8           	iny
     8f1: d0 01        	bne	$8f4 <f256main+0xa0>
     8f3: e8           	inx
     8f4: e0 d7        	cpx	#$d7
     8f6: d0 d7        	bne	$8cf <f256main+0x7b>
     8f8: c0 ff        	cpy	#$ff
     8fa: d0 d3        	bne	$8cf <f256main+0x7b>
     8fc: 64 01        	stz	$1                      ; 0x1 <__zp_data_size+0x1>
     8fe: 9c 5f 50     	stz	$505f                   ; 0x505f <_active>
     901: ad 00 d1     	lda	$d100                   ; 0xd100 <end_block9+0x7cf6>
     904: 29 f9        	and	#$f9
     906: 8d 00 d1     	sta	$d100                   ; 0xd100 <end_block9+0x7cf6>
     909: a2 03        	ldx	#$3
     90b: 8e 60 50     	stx	$5060                   ; 0x5060 <_color>
     90e: 20 a3 2f     	jsr	$2fa3 <bitmapClear>
     911: a2 01        	ldx	#$1
     913: 8e 5f 50     	stx	$505f                   ; 0x505f <_active>
     916: 8e 61 50     	stx	$5061                   ; 0x5061 <_BITMAP_CLUT.1>
     919: ad 08 d1     	lda	$d108                   ; 0xd108 <end_block9+0x7cfe>
     91c: 29 f9        	and	#$f9
     91e: 09 02        	ora	#$2
     920: 8d 08 d1     	sta	$d108                   ; 0xd108 <end_block9+0x7cfe>
     923: 20 a3 2f     	jsr	$2fa3 <bitmapClear>
     926: 9c 57 50     	stz	$5057                   ; 0x5057 <_BITMAP_BASE+0x4>
     929: a2 04        	ldx	#$4
     92b: 8e 58 50     	stx	$5058                   ; 0x5058 <_BITMAP_BASE+0x5>
     92e: a0 03        	ldy	#$3
     930: 8c 59 50     	sty	$5059                   ; 0x5059 <_BITMAP_BASE+0x6>
     933: 9c 5a 50     	stz	$505a                   ; 0x505a <_BITMAP_BASE+0x7>
     936: 9c 09 d1     	stz	$d109                   ; 0xd109 <end_block9+0x7cff>
     939: 8e 0a d1     	stx	$d10a                   ; 0xd10a <end_block9+0x7d00>
     93c: ca           	dex
     93d: 8e 0b d1     	stx	$d10b                   ; 0xd10b <end_block9+0x7d01>
     940: a0 01        	ldy	#$1
     942: 8c 00 d1     	sty	$d100                   ; 0xd100 <end_block9+0x7cf6>
     945: ad 61 50     	lda	$5061                   ; 0x5061 <_BITMAP_CLUT.1>
     948: 29 01        	and	#$1
     94a: d0 02        	bne	$94e <f256main+0xfa>
     94c: a2 01        	ldx	#$1
     94e: 8e 08 d1     	stx	$d108                   ; 0xd108 <end_block9+0x7cfe>
     951: 9c 10 d1     	stz	$d110                   ; 0xd110 <end_block9+0x7d06>
     954: a2 d4        	ldx	#$d4
     956: a0 00        	ldy	#$0
     958: 18           	clc
     959: 98           	tya
     95a: 69 00        	adc	#$0
     95c: 85 14        	sta	$14                     ; 0x14 <__rc4>
     95e: 8a           	txa
     95f: 69 01        	adc	#$1
     961: 85 15        	sta	$15                     ; 0x15 <__rc5>
     963: 84 12        	sty	$12                     ; 0x12 <__rc2>
     965: 86 13        	stx	$13                     ; 0x13 <__rc3>
     967: a9 00        	lda	#$0
     969: 92 12        	sta	($12)                   ; 0x12 <__rc2>
     96b: 5a           	phy
     96c: a4 14        	ldy	$14                     ; 0x14 <__rc4>
     96e: 84 12        	sty	$12                     ; 0x12 <__rc2>
     970: a4 15        	ldy	$15                     ; 0x15 <__rc5>
     972: 84 13        	sty	$13                     ; 0x13 <__rc3>
     974: 7a           	ply
     975: 92 12        	sta	($12)                   ; 0x12 <__rc2>
     977: c8           	iny
     978: d0 01        	bne	$97b <f256main+0x127>
     97a: e8           	inx
     97b: c0 19        	cpy	#$19
     97d: d0 d9        	bne	$958 <f256main+0x104>
     97f: a2 00        	ldx	#$0
     981: a0 c5        	ldy	#$c5
     983: 84 12        	sty	$12                     ; 0x12 <__rc2>
     985: a0 4f        	ldy	#$4f
     987: 84 13        	sty	$13                     ; 0x13 <__rc3>
     989: a5 12        	lda	$12                     ; 0x12 <__rc2>
     98b: a0 04        	ldy	#$4
     98d: 91 10        	sta	($10),y                 ; 0x10 <__rc0>
     98f: a5 13        	lda	$13                     ; 0x13 <__rc3>
     991: c8           	iny
     992: 91 10        	sta	($10),y                 ; 0x10 <__rc0>
     994: 88           	dey
     995: b1 10        	lda	($10),y                 ; 0x10 <__rc0>
     997: 85 12        	sta	$12                     ; 0x12 <__rc2>
     999: c8           	iny
     99a: b1 10        	lda	($10),y                 ; 0x10 <__rc0>
     99c: 85 13        	sta	$13                     ; 0x13 <__rc3>
     99e: 86 26        	stx	$26                     ; 0x26 <__rc22>
     9a0: a9 00        	lda	#$0
     9a2: 20 c6 38     	jsr	$38c6 <sid_setInstrument>
     9a5: a0 04        	ldy	#$4
     9a7: b1 10        	lda	($10),y                 ; 0x10 <__rc0>
     9a9: 85 12        	sta	$12                     ; 0x12 <__rc2>
     9ab: c8           	iny
     9ac: b1 10        	lda	($10),y                 ; 0x10 <__rc0>
     9ae: 85 13        	sta	$13                     ; 0x13 <__rc3>
     9b0: a6 26        	ldx	$26                     ; 0x26 <__rc22>
     9b2: a9 01        	lda	#$1
     9b4: 20 c6 38     	jsr	$38c6 <sid_setInstrument>
     9b7: a6 26        	ldx	$26                     ; 0x26 <__rc22>
     9b9: e8           	inx
     9ba: e0 03        	cpx	#$3
     9bc: d0 c3        	bne	$981 <f256main+0x12d>
     9be: 9c 14 d4     	stz	$d414                   ; 0xd414 <end_block9+0x800a>
     9c1: 9c 15 d4     	stz	$d415                   ; 0xd415 <end_block9+0x800b>
     9c4: 9c 17 d4     	stz	$d417                   ; 0xd417 <end_block9+0x800d>
     9c7: a2 0f        	ldx	#$f
     9c9: 8e 18 d4     	stx	$d418                   ; 0xd418 <end_block9+0x800e>
     9cc: 9c 14 d5     	stz	$d514                   ; 0xd514 <end_block9+0x810a>
     9cf: 9c 15 d5     	stz	$d515                   ; 0xd515 <end_block9+0x810b>
     9d2: 9c 17 d5     	stz	$d517                   ; 0xd517 <end_block9+0x810d>
     9d5: 8e 18 d5     	stx	$d518                   ; 0xd518 <end_block9+0x810e>
     9d8: ad a1 d6     	lda	$d6a1                   ; 0xd6a1 <end_block9+0x8297>
     9db: 29 f7        	and	#$f7
     9dd: 8d a1 d6     	sta	$d6a1                   ; 0xd6a1 <end_block9+0x8297>
     9e0: ad a1 d6     	lda	$d6a1                   ; 0xd6a1 <end_block9+0x8297>
     9e3: 29 fb        	and	#$fb
     9e5: 8d a1 d6     	sta	$d6a1                   ; 0xd6a1 <end_block9+0x8297>
     9e8: a2 01        	ldx	#$1
     9ea: 8e 80 d5     	stx	$d580                   ; 0xd580 <end_block9+0x8176>
     9ed: a0 20        	ldy	#$20
     9ef: 8c 81 d5     	sty	$d581                   ; 0xd581 <end_block9+0x8177>
     9f2: a0 02        	ldy	#$2
     9f4: 8c 80 d5     	sty	$d580                   ; 0xd580 <end_block9+0x8176>
     9f7: 9c 81 d5     	stz	$d581                   ; 0xd581 <end_block9+0x8177>
     9fa: c8           	iny
     9fb: 8c 80 d5     	sty	$d580                   ; 0xd580 <end_block9+0x8176>
     9fe: 9c 81 d5     	stz	$d581                   ; 0xd581 <end_block9+0x8177>
     a01: c8           	iny
     a02: 8c 82 d5     	sty	$d582                   ; 0xd582 <end_block9+0x8178>
     a05: 9c 81 d5     	stz	$d581                   ; 0xd581 <end_block9+0x8177>
     a08: c8           	iny
     a09: 8c 82 d5     	sty	$d582                   ; 0xd582 <end_block9+0x8178>
     a0c: 8e 81 d5     	stx	$d581                   ; 0xd581 <end_block9+0x8177>
     a0f: a2 08        	ldx	#$8
     a11: 8e 80 d5     	stx	$d580                   ; 0xd580 <end_block9+0x8176>
     a14: 9c 81 d5     	stz	$d581                   ; 0xd581 <end_block9+0x8177>
     a17: a2 c0        	ldx	#$c0
     a19: a0 30        	ldy	#$30
     a1b: 8e 80 d5     	stx	$d580                   ; 0xd580 <end_block9+0x8176>
     a1e: 8c 81 d5     	sty	$d581                   ; 0xd581 <end_block9+0x8177>
     a21: e8           	inx
     a22: e0 c9        	cpx	#$c9
     a24: d0 f5        	bne	$a1b <f256main+0x1c7>
     a26: a2 b0        	ldx	#$b0
     a28: 8e 80 d5     	stx	$d580                   ; 0xd580 <end_block9+0x8176>
     a2b: 9c 81 d5     	stz	$d581                   ; 0xd581 <end_block9+0x8177>
     a2e: e8           	inx
     a2f: e0 b9        	cpx	#$b9
     a31: d0 f5        	bne	$a28 <f256main+0x1d4>
     a33: a2 00        	ldx	#$0
     a35: 4c d6 0a     	jmp	$ad6 <f256main+0x282>
     a38: 18           	clc
     a39: 69 05        	adc	#$5
     a3b: a8           	tay
     a3c: 09 20        	ora	#$20
     a3e: 8d 80 d5     	sta	$d580                   ; 0xd580 <end_block9+0x8176>
     a41: a9 c0        	lda	#$c0
     a43: 8d 81 d5     	sta	$d581                   ; 0xd581 <end_block9+0x8177>
     a46: 98           	tya
     a47: 18           	clc
     a48: 69 03        	adc	#$3
     a4a: c0 fd        	cpy	#$fd
     a4c: 85 15        	sta	$15                     ; 0x15 <__rc5>
     a4e: 09 20        	ora	#$20
     a50: 5a           	phy
     a51: a0 80        	ldy	#$80
     a53: 84 12        	sty	$12                     ; 0x12 <__rc2>
     a55: a0 d5        	ldy	#$d5
     a57: 84 13        	sty	$13                     ; 0x13 <__rc3>
     a59: 7a           	ply
     a5a: 90 0a        	bcc	$a66 <f256main+0x212>
     a5c: 5a           	phy
     a5d: a0 82        	ldy	#$82
     a5f: 84 12        	sty	$12                     ; 0x12 <__rc2>
     a61: a0 d5        	ldy	#$d5
     a63: 84 13        	sty	$13                     ; 0x13 <__rc3>
     a65: 7a           	ply
     a66: 92 12        	sta	($12)                   ; 0x12 <__rc2>
     a68: a9 21        	lda	#$21
     a6a: 8d 81 d5     	sta	$d581                   ; 0xd581 <end_block9+0x8177>
     a6d: 98           	tya
     a6e: 09 40        	ora	#$40
     a70: 8d 80 d5     	sta	$d580                   ; 0xd580 <end_block9+0x8176>
     a73: a9 15        	lda	#$15
     a75: 8d 81 d5     	sta	$d581                   ; 0xd581 <end_block9+0x8177>
     a78: a5 15        	lda	$15                     ; 0x15 <__rc5>
     a7a: 09 40        	ora	#$40
     a7c: 92 12        	sta	($12)                   ; 0x12 <__rc2>
     a7e: a9 01        	lda	#$1
     a80: 8d 81 d5     	sta	$d581                   ; 0xd581 <end_block9+0x8177>
     a83: 98           	tya
     a84: 09 60        	ora	#$60
     a86: 8d 80 d5     	sta	$d580                   ; 0xd580 <end_block9+0x8176>
     a89: a9 f2        	lda	#$f2
     a8b: 8d 81 d5     	sta	$d581                   ; 0xd581 <end_block9+0x8177>
     a8e: a5 15        	lda	$15                     ; 0x15 <__rc5>
     a90: 09 60        	ora	#$60
     a92: 92 12        	sta	($12)                   ; 0x12 <__rc2>
     a94: a9 f4        	lda	#$f4
     a96: 8d 81 d5     	sta	$d581                   ; 0xd581 <end_block9+0x8177>
     a99: 98           	tya
     a9a: 09 80        	ora	#$80
     a9c: 8d 80 d5     	sta	$d580                   ; 0xd580 <end_block9+0x8176>
     a9f: a9 40        	lda	#$40
     aa1: 8d 81 d5     	sta	$d581                   ; 0xd581 <end_block9+0x8177>
     aa4: a5 15        	lda	$15                     ; 0x15 <__rc5>
     aa6: 09 80        	ora	#$80
     aa8: 92 12        	sta	($12)                   ; 0x12 <__rc2>
     aaa: a9 25        	lda	#$25
     aac: 8d 81 d5     	sta	$d581                   ; 0xd581 <end_block9+0x8177>
     aaf: 98           	tya
     ab0: 09 e0        	ora	#$e0
     ab2: 8d 80 d5     	sta	$d580                   ; 0xd580 <end_block9+0x8176>
     ab5: a9 07        	lda	#$7
     ab7: 8d 81 d5     	sta	$d581                   ; 0xd581 <end_block9+0x8177>
     aba: a5 15        	lda	$15                     ; 0x15 <__rc5>
     abc: 09 e0        	ora	#$e0
     abe: 92 12        	sta	($12)                   ; 0x12 <__rc2>
     ac0: 8a           	txa
     ac1: 18           	clc
     ac2: 69 c0        	adc	#$c0
     ac4: a0 04        	ldy	#$4
     ac6: 8c 81 d5     	sty	$d581                   ; 0xd581 <end_block9+0x8177>
     ac9: 8d 80 d5     	sta	$d580                   ; 0xd580 <end_block9+0x8176>
     acc: a0 30        	ldy	#$30
     ace: 8c 81 d5     	sty	$d581                   ; 0xd581 <end_block9+0x8177>
     ad1: e8           	inx
     ad2: e0 09        	cpx	#$9
     ad4: f0 16        	beq	$aec <f256main+0x298>
     ad6: e0 03        	cpx	#$3
     ad8: 8a           	txa
     ad9: b0 03        	bcs	$ade <f256main+0x28a>
     adb: 4c 3b 0a     	jmp	$a3b <f256main+0x1e7>
     ade: 8a           	txa
     adf: e0 06        	cpx	#$6
     ae1: b0 03        	bcs	$ae6 <f256main+0x292>
     ae3: 4c 38 0a     	jmp	$a38 <f256main+0x1e4>
     ae6: 18           	clc
     ae7: 69 0a        	adc	#$a
     ae9: 4c 3b 0a     	jmp	$a3b <f256main+0x1e7>
     aec: a2 01        	ldx	#$1
     aee: 8e e0 d6     	stx	$d6e0                   ; 0xd6e0 <end_block9+0x82d6>
     af1: 9c e2 d6     	stz	$d6e2                   ; 0xd6e2 <end_block9+0x82d8>
     af4: 8e e3 d6     	stx	$d6e3                   ; 0xd6e3 <end_block9+0x82d9>
     af7: 9c e4 d6     	stz	$d6e4                   ; 0xd6e4 <end_block9+0x82da>
     afa: 8e e5 d6     	stx	$d6e5                   ; 0xd6e5 <end_block9+0x82db>
     afd: a9 11        	lda	#$11
     aff: ca           	dex
     b00: 20 ef 47     	jsr	$47ef <malloc>
     b03: a6 12        	ldx	$12                     ; 0x12 <__rc2>
     b05: a4 13        	ldy	$13                     ; 0x13 <__rc3>
     b07: 86 a2        	stx	$a2                     ; 0xa2 <gPtr>
     b09: 84 a3        	sty	$a3                     ; 0xa3 <gPtr+0x1>
     b0b: a9 00        	lda	#$0
     b0d: 92 12        	sta	($12)                   ; 0x12 <__rc2>
     b0f: a0 01        	ldy	#$1
     b11: 91 12        	sta	($12),y                 ; 0x12 <__rc2>
     b13: c8           	iny
     b14: 91 12        	sta	($12),y                 ; 0x12 <__rc2>
     b16: c8           	iny
     b17: 91 12        	sta	($12),y                 ; 0x12 <__rc2>
     b19: aa           	tax
     b1a: a9 09        	lda	#$9
     b1c: 20 ef 47     	jsr	$47ef <malloc>
     b1f: a5 a2        	lda	$a2                     ; 0xa2 <gPtr>
     b21: a6 a3        	ldx	$a3                     ; 0xa3 <gPtr+0x1>
     b23: 85 14        	sta	$14                     ; 0x14 <__rc4>
     b25: 86 15        	stx	$15                     ; 0x15 <__rc5>
     b27: 18           	clc
     b28: 69 04        	adc	#$4
     b2a: 85 16        	sta	$16                     ; 0x16 <__rc6>
     b2c: 8a           	txa
     b2d: 69 00        	adc	#$0
     b2f: 85 17        	sta	$17                     ; 0x17 <__rc7>
     b31: a5 12        	lda	$12                     ; 0x12 <__rc2>
     b33: a0 04        	ldy	#$4
     b35: 91 14        	sta	($14),y                 ; 0x14 <__rc4>
     b37: a0 01        	ldy	#$1
     b39: a5 13        	lda	$13                     ; 0x13 <__rc3>
     b3b: 91 16        	sta	($16),y                 ; 0x16 <__rc6>
     b3d: 98           	tya
     b3e: a0 03        	ldy	#$3
     b40: 91 14        	sta	($14),y                 ; 0x14 <__rc4>
     b42: a9 0f        	lda	#$f
     b44: 92 12        	sta	($12)                   ; 0x12 <__rc2>
     b46: a9 88        	lda	#$88
     b48: a0 01        	ldy	#$1
     b4a: 91 12        	sta	($12),y                 ; 0x12 <__rc2>
     b4c: a9 02        	lda	#$2
     b4e: a8           	tay
     b4f: 91 12        	sta	($12),y                 ; 0x12 <__rc2>
     b51: a9 19        	lda	#$19
     b53: c8           	iny
     b54: 91 12        	sta	($12),y                 ; 0x12 <__rc2>
     b56: a9 23        	lda	#$23
     b58: c8           	iny
     b59: 91 12        	sta	($12),y                 ; 0x12 <__rc2>
     b5b: c8           	iny
     b5c: a9 20        	lda	#$20
     b5e: 91 12        	sta	($12),y                 ; 0x12 <__rc2>
     b60: a0 07        	ldy	#$7
     b62: a9 00        	lda	#$0
     b64: 91 12        	sta	($12),y                 ; 0x12 <__rc2>
     b66: c8           	iny
     b67: 91 12        	sta	($12),y                 ; 0x12 <__rc2>
     b69: a0 06        	ldy	#$6
     b6b: 91 12        	sta	($12),y                 ; 0x12 <__rc2>
     b6d: 20 16 26     	jsr	$2616 <loadGUISID>
     b70: a2 ff        	ldx	#$ff
     b72: 86 7b        	stx	$7b                     ; 0x7b <diaAct>
     b74: 64 80        	stz	$80                     ; 0x80 <diaAct+0x5>
     b76: 64 81        	stz	$81                     ; 0x81 <diaAct+0x6>
     b78: 64 82        	stz	$82                     ; 0x82 <diaAct+0x7>
     b7a: 8e db 53     	stx	$53db                   ; 0x53db <sliAct>
     b7d: 9c e0 53     	stz	$53e0                   ; 0x53e0 <sliAct+0x5>
     b80: 9c e1 53     	stz	$53e1                   ; 0x53e1 <sliAct+0x6>
     b83: 9c e2 53     	stz	$53e2                   ; 0x53e2 <sliAct+0x7>
     b86: a2 80        	ldx	#$80
     b88: 86 f3        	stx	$f3                     ; 0xf3 <__zp_bss_size+0x7f>
     b8a: 18           	clc
     b8b: a5 10        	lda	$10                     ; 0x10 <__rc0>
     b8d: 69 0b        	adc	#$b
     b8f: 85 12        	sta	$12                     ; 0x12 <__rc2>
     b91: a5 11        	lda	$11                     ; 0x11 <__rc1>
     b93: 69 00        	adc	#$0
     b95: 85 13        	sta	$13                     ; 0x13 <__rc3>
     b97: a2 52        	ldx	#$52
     b99: 86 2a        	stx	$2a                     ; 0x2a <__rc26>
     b9b: a2 50        	ldx	#$50
     b9d: 86 2b        	stx	$2b                     ; 0x2b <__rc27>
     b9f: 20 f0 ff     	jsr	$fff0 <end_block9+0xabe6>
     ba2: 92 12        	sta	($12)                   ; 0x12 <__rc2>
     ba4: a9 00        	lda	#$0
     ba6: 6a           	ror
     ba7: 85 2a        	sta	$2a                     ; 0x2a <__rc26>
     ba9: b2 12        	lda	($12)                   ; 0x12 <__rc2>
     bab: 1a           	inc
     bac: 85 83        	sta	$83                     ; 0x83 <polyTimer.1>
     bae: 64 f3        	stz	$f3                     ; 0xf3 <__zp_bss_size+0x7f>
     bb0: a6 83        	ldx	$83                     ; 0x83 <polyTimer.1>
     bb2: 86 f4        	stx	$f4                     ; 0xf4 <__zp_bss_size+0x80>
     bb4: a2 01        	ldx	#$1
     bb6: 86 f5        	stx	$f5                     ; 0xf5 <__zp_bss_size+0x81>
     bb8: 18           	clc
     bb9: a5 10        	lda	$10                     ; 0x10 <__rc0>
     bbb: 69 0c        	adc	#$c
     bbd: 85 12        	sta	$12                     ; 0x12 <__rc2>
     bbf: a5 11        	lda	$11                     ; 0x11 <__rc1>
     bc1: 69 00        	adc	#$0
     bc3: 85 13        	sta	$13                     ; 0x13 <__rc3>
     bc5: 38           	sec
     bc6: 8a           	txa
     bc7: a8           	tay
     bc8: 91 10        	sta	($10),y                 ; 0x10 <__rc0>
     bca: 64 14        	stz	$14                     ; 0x14 <__rc4>
     bcc: 3a           	dec
     bcd: c8           	iny
     bce: 91 10        	sta	($10),y                 ; 0x10 <__rc0>
     bd0: 64 2e        	stz	$2e                     ; 0x2e <__rc30>
     bd2: c8           	iny
     bd3: 91 10        	sta	($10),y                 ; 0x10 <__rc0>
     bd5: a2 90        	ldx	#$90
     bd7: 8a           	txa
     bd8: a0 00        	ldy	#$0
     bda: 91 10        	sta	($10),y                 ; 0x10 <__rc0>
     bdc: 20 f0 ff     	jsr	$fff0 <end_block9+0xabe6>
     bdf: 92 12        	sta	($12)                   ; 0x12 <__rc2>
     be1: a9 00        	lda	#$0
     be3: 6a           	ror
     be4: 85 2a        	sta	$2a                     ; 0x2a <__rc26>
     be6: ad a0 dd     	lda	$dda0                   ; 0xdda0 <end_block9+0x8996>
     be9: 29 02        	and	#$2
     beb: f0 03        	beq	$bf0 <f256main+0x39c>
     bed: 4c 0f 0e     	jmp	$e0f <f256main+0x5bb>
     bf0: ae a2 dd     	ldx	$dda2                   ; 0xdda2 <end_block9+0x8998>
     bf3: 86 2c        	stx	$2c                     ; 0x2c <__rc28>
     bf5: ad a3 dd     	lda	$dda3                   ; 0xdda3 <end_block9+0x8999>
     bf8: 29 0f        	and	#$f
     bfa: 85 2d        	sta	$2d                     ; 0x2d <__rc29>
     bfc: a5 2d        	lda	$2d                     ; 0x2d <__rc29>
     bfe: d0 07        	bne	$c07 <f256main+0x3b3>
     c00: a5 2c        	lda	$2c                     ; 0x2c <__rc28>
     c02: d0 03        	bne	$c07 <f256main+0x3b3>
     c04: 4c 0f 0e     	jmp	$e0f <f256main+0x5bb>
     c07: a2 00        	ldx	#$0
     c09: a0 00        	ldy	#$0
     c0b: a5 2e        	lda	$2e                     ; 0x2e <__rc30>
     c0d: 5a           	phy
     c0e: a0 04        	ldy	#$4
     c10: 91 10        	sta	($10),y                 ; 0x10 <__rc0>
     c12: 7a           	ply
     c13: ad a1 dd     	lda	$dda1                   ; 0xdda1 <end_block9+0x8997>
     c16: c9 fe        	cmp	#$fe
     c18: d0 03        	bne	$c1d <f256main+0x3c9>
     c1a: 4c 80 0d     	jmp	$d80 <f256main+0x52c>
     c1d: 86 26        	stx	$26                     ; 0x26 <__rc22>
     c1f: 84 27        	sty	$27                     ; 0x27 <__rc23>
     c21: 48           	pha
     c22: 5a           	phy
     c23: a0 04        	ldy	#$4
     c25: b1 10        	lda	($10),y                 ; 0x10 <__rc0>
     c27: 7a           	ply
     c28: aa           	tax
     c29: 68           	pla
     c2a: e0 00        	cpx	#$0
     c2c: d0 03        	bne	$c31 <f256main+0x3dd>
     c2e: 4c e6 0c     	jmp	$ce6 <f256main+0x492>
     c31: a6 a2        	ldx	$a2                     ; 0xa2 <gPtr>
     c33: a4 a3        	ldy	$a3                     ; 0xa3 <gPtr+0x1>
     c35: 86 12        	stx	$12                     ; 0x12 <__rc2>
     c37: 84 13        	sty	$13                     ; 0x13 <__rc3>
     c39: b2 12        	lda	($12)                   ; 0x12 <__rc2>
     c3b: 85 14        	sta	$14                     ; 0x14 <__rc4>
     c3d: a0 03        	ldy	#$3
     c3f: b1 12        	lda	($12),y                 ; 0x12 <__rc2>
     c41: 48           	pha
     c42: b1 10        	lda	($10),y                 ; 0x10 <__rc0>
     c44: aa           	tax
     c45: 68           	pla
     c46: e0 00        	cpx	#$0
     c48: f0 07        	beq	$c51 <f256main+0x3fd>
     c4a: a6 2f        	ldx	$2f                     ; 0x2f <__rc31>
     c4c: d0 03        	bne	$c51 <f256main+0x3fd>
     c4e: 4c 4f 0d     	jmp	$d4f <f256main+0x4fb>
     c51: c9 05        	cmp	#$5
     c53: a4 27        	ldy	$27                     ; 0x27 <__rc23>
     c55: b0 34        	bcs	$c8b <f256main+0x437>
     c57: 85 12        	sta	$12                     ; 0x12 <__rc2>
     c59: 06 12        	asl	$12                     ; 0x12 <__rc2>
     c5b: a6 12        	ldx	$12                     ; 0x12 <__rc2>
     c5d: 7c 42 4d     	jmp	($4d42,x)               ; 0x4d42 <__set_v+0x1>
     c60: 48           	pha
     c61: 5a           	phy
     c62: a0 03        	ldy	#$3
     c64: b1 10        	lda	($10),y                 ; 0x10 <__rc0>
     c66: 7a           	ply
     c67: aa           	tax
     c68: 68           	pla
     c69: e0 00        	cpx	#$0
     c6b: d0 03        	bne	$c70 <f256main+0x41c>
     c6d: 4c fd 12     	jmp	$12fd <f256main+0xaa9>
     c70: c9 04        	cmp	#$4
     c72: f0 03        	beq	$c77 <f256main+0x423>
     c74: 4c 66 17     	jmp	$1766 <f256main+0xf12>
     c77: 4c 50 17     	jmp	$1750 <f256main+0xefc>
     c7a: 86 2e        	stx	$2e                     ; 0x2e <__rc30>
     c7c: b5 99        	lda	$99,x                   ; 0x99 <polyOPL3Buffer>
     c7e: aa           	tax
     c7f: d0 03        	bne	$c84 <f256main+0x430>
     c81: 4c 21 18     	jmp	$1821 <f256main+0xfcd>
     c84: a6 2e        	ldx	$2e                     ; 0x2e <__rc30>
     c86: e8           	inx
     c87: e0 09        	cpx	#$9
     c89: d0 ef        	bne	$c7a <f256main+0x426>
     c8b: 64 12        	stz	$12                     ; 0x12 <__rc2>
     c8d: a9 00        	lda	#$0
     c8f: 5a           	phy
     c90: a0 04        	ldy	#$4
     c92: 4c 7b 0d     	jmp	$d7b <f256main+0x527>
     c95: b4 8d        	ldy	$8d,x                   ; 0x8d <polySIDBuffer>
     c97: d0 03        	bne	$c9c <f256main+0x448>
     c99: 4c b3 18     	jmp	$18b3 <f256main+0x105f>
     c9c: e8           	inx
     c9d: e0 06        	cpx	#$6
     c9f: d0 f4        	bne	$c95 <f256main+0x441>
     ca1: 4c 51 0d     	jmp	$d51 <f256main+0x4fd>
     ca4: b4 93        	ldy	$93,x                   ; 0x93 <polyPSGBuffer>
     ca6: d0 03        	bne	$cab <f256main+0x457>
     ca8: 4c 2f 19     	jmp	$192f <f256main+0x10db>
     cab: e8           	inx
     cac: e0 06        	cpx	#$6
     cae: d0 f4        	bne	$ca4 <f256main+0x450>
     cb0: 4c 51 0d     	jmp	$d51 <f256main+0x4fd>
     cb3: b4 99        	ldy	$99,x                   ; 0x99 <polyOPL3Buffer>
     cb5: c4 12        	cpy	$12                     ; 0x12 <__rc2>
     cb7: d0 03        	bne	$cbc <f256main+0x468>
     cb9: 4c be 19     	jmp	$19be <f256main+0x116a>
     cbc: e8           	inx
     cbd: e0 09        	cpx	#$9
     cbf: d0 f2        	bne	$cb3 <f256main+0x45f>
     cc1: 4c bc 19     	jmp	$19bc <f256main+0x1168>
     cc4: b4 8d        	ldy	$8d,x                   ; 0x8d <polySIDBuffer>
     cc6: c4 12        	cpy	$12                     ; 0x12 <__rc2>
     cc8: d0 03        	bne	$ccd <f256main+0x479>
     cca: 4c 95 19     	jmp	$1995 <f256main+0x1141>
     ccd: e8           	inx
     cce: e0 06        	cpx	#$6
     cd0: d0 f2        	bne	$cc4 <f256main+0x470>
     cd2: 4c 66 1a     	jmp	$1a66 <f256main+0x1212>
     cd5: b4 93        	ldy	$93,x                   ; 0x93 <polyPSGBuffer>
     cd7: c4 12        	cpy	$12                     ; 0x12 <__rc2>
     cd9: d0 03        	bne	$cde <f256main+0x48a>
     cdb: 4c a5 19     	jmp	$19a5 <f256main+0x1151>
     cde: e8           	inx
     cdf: e0 06        	cpx	#$6
     ce1: d0 f2        	bne	$cd5 <f256main+0x481>
     ce3: 4c 71 1a     	jmp	$1a71 <f256main+0x121d>
     ce6: 85 16        	sta	$16                     ; 0x16 <__rc6>
     ce8: 5a           	phy
     ce9: a0 02        	ldy	#$2
     ceb: b1 10        	lda	($10),y                 ; 0x10 <__rc0>
     ced: 7a           	ply
     cee: aa           	tax
     cef: d0 03        	bne	$cf4 <f256main+0x4a0>
     cf1: 4c 5f 0d     	jmp	$d5f <f256main+0x50b>
     cf4: 18           	clc
     cf5: a5 16        	lda	$16                     ; 0x16 <__rc6>
     cf7: 69 ec        	adc	#$ec
     cf9: 48           	pha
     cfa: a0 03        	ldy	#$3
     cfc: b1 10        	lda	($10),y                 ; 0x10 <__rc0>
     cfe: aa           	tax
     cff: 68           	pla
     d00: e0 00        	cpx	#$0
     d02: d0 03        	bne	$d07 <f256main+0x4b3>
     d04: 4c df 0d     	jmp	$ddf <f256main+0x58b>
     d07: a6 16        	ldx	$16                     ; 0x16 <__rc6>
     d09: 86 2f        	stx	$2f                     ; 0x2f <__rc31>
     d0b: 0a           	asl
     d0c: 64 12        	stz	$12                     ; 0x12 <__rc2>
     d0e: 26 12        	rol	$12                     ; 0x12 <__rc2>
     d10: 0a           	asl
     d11: 85 13        	sta	$13                     ; 0x13 <__rc3>
     d13: 26 12        	rol	$12                     ; 0x12 <__rc2>
     d15: a9 00        	lda	#$0
     d17: 18           	clc
     d18: 65 13        	adc	$13                     ; 0x13 <__rc3>
     d1a: 85 14        	sta	$14                     ; 0x14 <__rc4>
     d1c: a9 d4        	lda	#$d4
     d1e: 65 12        	adc	$12                     ; 0x12 <__rc2>
     d20: a6 01        	ldx	$1                      ; 0x1 <__zp_data_size+0x1>
     d22: a0 01        	ldy	#$1
     d24: 84 01        	sty	$1                      ; 0x1 <__zp_data_size+0x1>
     d26: 48           	pha
     d27: a5 14        	lda	$14                     ; 0x14 <__rc4>
     d29: 85 12        	sta	$12                     ; 0x12 <__rc2>
     d2b: 68           	pla
     d2c: 85 13        	sta	$13                     ; 0x13 <__rc3>
     d2e: a9 ff        	lda	#$ff
     d30: 92 12        	sta	($12)                   ; 0x12 <__rc2>
     d32: 1a           	inc
     d33: 91 12        	sta	($12),y                 ; 0x12 <__rc2>
     d35: c8           	iny
     d36: 3a           	dec
     d37: 91 12        	sta	($12),y                 ; 0x12 <__rc2>
     d39: c8           	iny
     d3a: 91 12        	sta	($12),y                 ; 0x12 <__rc2>
     d3c: 86 01        	stx	$1                      ; 0x1 <__zp_data_size+0x1>
     d3e: 64 12        	stz	$12                     ; 0x12 <__rc2>
     d40: 1a           	inc
     d41: 88           	dey
     d42: 91 10        	sta	($10),y                 ; 0x10 <__rc0>
     d44: a2 01        	ldx	#$1
     d46: 8a           	txa
     d47: a0 04        	ldy	#$4
     d49: 91 10        	sta	($10),y                 ; 0x10 <__rc0>
     d4b: a0 03        	ldy	#$3
     d4d: 80 08        	bra	$d57 <f256main+0x503>
     d4f: 64 2f        	stz	$2f                     ; 0x2f <__rc31>
     d51: 64 12        	stz	$12                     ; 0x12 <__rc2>
     d53: a9 00        	lda	#$0
     d55: a0 04        	ldy	#$4
     d57: 91 10        	sta	($10),y                 ; 0x10 <__rc0>
     d59: a6 26        	ldx	$26                     ; 0x26 <__rc22>
     d5b: a4 27        	ldy	$27                     ; 0x27 <__rc23>
     d5d: 80 21        	bra	$d80 <f256main+0x52c>
     d5f: a6 16        	ldx	$16                     ; 0x16 <__rc6>
     d61: 86 14        	stx	$14                     ; 0x14 <__rc4>
     d63: a5 16        	lda	$16                     ; 0x16 <__rc6>
     d65: 29 f0        	and	#$f0
     d67: c9 90        	cmp	#$90
     d69: f0 03        	beq	$d6e <f256main+0x51a>
     d6b: 4c 32 0f     	jmp	$f32 <f256main+0x6de>
     d6e: 4c 90 17     	jmp	$1790 <f256main+0xf3c>
     d71: 64 12        	stz	$12                     ; 0x12 <__rc2>
     d73: 5a           	phy
     d74: a9 00        	lda	#$0
     d76: a0 04        	ldy	#$4
     d78: 91 10        	sta	($10),y                 ; 0x10 <__rc0>
     d7a: 88           	dey
     d7b: 91 10        	sta	($10),y                 ; 0x10 <__rc0>
     d7d: 7a           	ply
     d7e: a6 26        	ldx	$26                     ; 0x26 <__rc22>
     d80: e8           	inx
     d81: d0 01        	bne	$d84 <f256main+0x530>
     d83: c8           	iny
     d84: c4 2d        	cpy	$2d                     ; 0x2d <__rc29>
     d86: f0 03        	beq	$d8b <f256main+0x537>
     d88: 4c 13 0c     	jmp	$c13 <f256main+0x3bf>
     d8b: e4 2c        	cpx	$2c                     ; 0x2c <__rc28>
     d8d: f0 03        	beq	$d92 <f256main+0x53e>
     d8f: 4c 13 0c     	jmp	$c13 <f256main+0x3bf>
     d92: 4c 09 0e     	jmp	$e09 <f256main+0x5b5>
     d95: 06 13        	asl	$13                     ; 0x13 <__rc3>
     d97: 85 15        	sta	$15                     ; 0x15 <__rc5>
     d99: 26 15        	rol	$15                     ; 0x15 <__rc5>
     d9b: 06 14        	asl	$14                     ; 0x14 <__rc4>
     d9d: 26 12        	rol	$12                     ; 0x12 <__rc2>
     d9f: 06 14        	asl	$14                     ; 0x14 <__rc4>
     da1: 26 12        	rol	$12                     ; 0x12 <__rc2>
     da3: 18           	clc
     da4: a9 00        	lda	#$0
     da6: 65 14        	adc	$14                     ; 0x14 <__rc4>
     da8: aa           	tax
     da9: a9 d4        	lda	#$d4
     dab: 65 12        	adc	$12                     ; 0x12 <__rc2>
     dad: 86 12        	stx	$12                     ; 0x12 <__rc2>
     daf: 85 13        	sta	$13                     ; 0x13 <__rc3>
     db1: a6 01        	ldx	$1                      ; 0x1 <__zp_data_size+0x1>
     db3: 84 01        	sty	$1                      ; 0x1 <__zp_data_size+0x1>
     db5: a5 15        	lda	$15                     ; 0x15 <__rc5>
     db7: 92 12        	sta	($12)                   ; 0x12 <__rc2>
     db9: 91 12        	sta	($12),y                 ; 0x12 <__rc2>
     dbb: a0 02        	ldy	#$2
     dbd: 91 12        	sta	($12),y                 ; 0x12 <__rc2>
     dbf: c8           	iny
     dc0: a9 ff        	lda	#$ff
     dc2: 91 12        	sta	($12),y                 ; 0x12 <__rc2>
     dc4: 86 01        	stx	$1                      ; 0x1 <__zp_data_size+0x1>
     dc6: 64 12        	stz	$12                     ; 0x12 <__rc2>
     dc8: 1a           	inc
     dc9: 88           	dey
     dca: 91 10        	sta	($10),y                 ; 0x10 <__rc0>
     dcc: a2 01        	ldx	#$1
     dce: 8a           	txa
     dcf: a0 04        	ldy	#$4
     dd1: 91 10        	sta	($10),y                 ; 0x10 <__rc0>
     dd3: a9 00        	lda	#$0
     dd5: 88           	dey
     dd6: 91 10        	sta	($10),y                 ; 0x10 <__rc0>
     dd8: a6 16        	ldx	$16                     ; 0x16 <__rc6>
     dda: 86 2f        	stx	$2f                     ; 0x2f <__rc31>
     ddc: 4c 59 0d     	jmp	$d59 <f256main+0x505>
     ddf: aa           	tax
     de0: bc 05 4e     	ldy	$4e05,x                 ; 0x4e05 <sidSpriteAction+0x3f>
     de3: a2 01        	ldx	#$1
     de5: 85 14        	sta	$14                     ; 0x14 <__rc4>
     de7: 98           	tya
     de8: f0 03        	beq	$ded <f256main+0x599>
     dea: 4c 81 17     	jmp	$1781 <f256main+0xf2d>
     ded: 64 12        	stz	$12                     ; 0x12 <__rc2>
     def: a0 01        	ldy	#$1
     df1: 64 13        	stz	$13                     ; 0x13 <__rc3>
     df3: 8a           	txa
     df4: d0 03        	bne	$df9 <f256main+0x5a5>
     df6: 4c 86 17     	jmp	$1786 <f256main+0xf32>
     df9: 46 13        	lsr	$13                     ; 0x13 <__rc3>
     dfb: 64 13        	stz	$13                     ; 0x13 <__rc3>
     dfd: 66 13        	ror	$13                     ; 0x13 <__rc3>
     dff: 30 03        	bmi	$e04 <f256main+0x5b0>
     e01: 4c 8b 17     	jmp	$178b <f256main+0xf37>
     e04: a9 ff        	lda	#$ff
     e06: 4c 95 0d     	jmp	$d95 <f256main+0x541>
     e09: a0 04        	ldy	#$4
     e0b: b1 10        	lda	($10),y                 ; 0x10 <__rc0>
     e0d: 85 2e        	sta	$2e                     ; 0x2e <__rc30>
     e0f: 64 30        	stz	$30                     ; 0x30 <kernelEventData>
     e11: 18           	clc
     e12: a5 10        	lda	$10                     ; 0x10 <__rc0>
     e14: 69 0a        	adc	#$a
     e16: 85 12        	sta	$12                     ; 0x12 <__rc2>
     e18: a5 11        	lda	$11                     ; 0x11 <__rc1>
     e1a: 69 00        	adc	#$0
     e1c: 85 13        	sta	$13                     ; 0x13 <__rc3>
     e1e: 20 00 ff     	jsr	$ff00 <end_block9+0xaaf6>
     e21: 92 12        	sta	($12)                   ; 0x12 <__rc2>
     e23: a9 00        	lda	#$0
     e25: 6a           	ror
     e26: 85 2a        	sta	$2a                     ; 0x2a <__rc26>
     e28: a6 30        	ldx	$30                     ; 0x30 <kernelEventData>
     e2a: e0 52        	cpx	#$52
     e2c: f0 03        	beq	$e31 <f256main+0x5dd>
     e2e: 4c 1f 11     	jmp	$111f <f256main+0x8cb>
     e31: a6 34        	ldx	$34                     ; 0x34 <kernelEventData+0x4>
     e33: e0 01        	cpx	#$1
     e35: f0 03        	beq	$e3a <f256main+0x5e6>
     e37: 4c e6 0b     	jmp	$be6 <f256main+0x392>
     e3a: a6 a2        	ldx	$a2                     ; 0xa2 <gPtr>
     e3c: a4 a3        	ldy	$a3                     ; 0xa3 <gPtr+0x1>
     e3e: 86 12        	stx	$12                     ; 0x12 <__rc2>
     e40: 84 13        	sty	$13                     ; 0x13 <__rc3>
     e42: a0 03        	ldy	#$3
     e44: b1 12        	lda	($12),y                 ; 0x12 <__rc2>
     e46: c9 01        	cmp	#$1
     e48: d0 03        	bne	$e4d <f256main+0x5f9>
     e4a: 4c 56 10     	jmp	$1056 <f256main+0x802>
     e4d: c9 03        	cmp	#$3
     e4f: d0 03        	bne	$e54 <f256main+0x600>
     e51: 4c 7c 0f     	jmp	$f7c <f256main+0x728>
     e54: c9 02        	cmp	#$2
     e56: f0 03        	beq	$e5b <f256main+0x607>
     e58: 4c dc 10     	jmp	$10dc <f256main+0x888>
     e5b: a6 8b        	ldx	$8b                     ; 0x8b <chipAct.3>
     e5d: 18           	clc
     e5e: 8a           	txa
     e5f: 69 0f        	adc	#$f
     e61: a0 01        	ldy	#$1
     e63: b0 02        	bcs	$e67 <f256main+0x613>
     e65: a0 00        	ldy	#$0
     e67: 84 12        	sty	$12                     ; 0x12 <__rc2>
     e69: 85 16        	sta	$16                     ; 0x16 <__rc6>
     e6b: 8a           	txa
     e6c: d0 03        	bne	$e71 <f256main+0x61d>
     e6e: 4c c2 0e     	jmp	$ec2 <f256main+0x66e>
     e71: a9 00        	lda	#$0
     e73: a6 12        	ldx	$12                     ; 0x12 <__rc2>
     e75: e0 01        	cpx	#$1
     e77: 69 00        	adc	#$0
     e79: 85 12        	sta	$12                     ; 0x12 <__rc2>
     e7b: a2 10        	ldx	#$10
     e7d: 8a           	txa
     e7e: 3a           	dec
     e7f: 0a           	asl
     e80: 64 13        	stz	$13                     ; 0x13 <__rc3>
     e82: 26 13        	rol	$13                     ; 0x13 <__rc3>
     e84: 0a           	asl
     e85: 85 14        	sta	$14                     ; 0x14 <__rc4>
     e87: 26 13        	rol	$13                     ; 0x13 <__rc3>
     e89: 0a           	asl
     e8a: a4 13        	ldy	$13                     ; 0x13 <__rc3>
     e8c: 84 15        	sty	$15                     ; 0x15 <__rc5>
     e8e: 26 15        	rol	$15                     ; 0x15 <__rc5>
     e90: 0a           	asl
     e91: 26 15        	rol	$15                     ; 0x15 <__rc5>
     e93: 18           	clc
     e94: 65 14        	adc	$14                     ; 0x14 <__rc4>
     e96: 85 14        	sta	$14                     ; 0x14 <__rc4>
     e98: a5 15        	lda	$15                     ; 0x15 <__rc5>
     e9a: 65 13        	adc	$13                     ; 0x13 <__rc3>
     e9c: 85 13        	sta	$13                     ; 0x13 <__rc3>
     e9e: a9 62        	lda	#$62
     ea0: 18           	clc
     ea1: 65 14        	adc	$14                     ; 0x14 <__rc4>
     ea3: 85 14        	sta	$14                     ; 0x14 <__rc4>
     ea5: a9 50        	lda	#$50
     ea7: 65 13        	adc	$13                     ; 0x13 <__rc3>
     ea9: 85 15        	sta	$15                     ; 0x15 <__rc5>
     eab: a9 01        	lda	#$1
     ead: a0 13        	ldy	#$13
     eaf: 91 14        	sta	($14),y                 ; 0x14 <__rc4>
     eb1: 8a           	txa
     eb2: 1a           	inc
     eb3: a0 00        	ldy	#$0
     eb5: c4 12        	cpy	$12                     ; 0x12 <__rc2>
     eb7: d0 04        	bne	$ebd <f256main+0x669>
     eb9: e4 16        	cpx	$16                     ; 0x16 <__rc6>
     ebb: 80 02        	bra	$ebf <f256main+0x66b>
     ebd: c4 12        	cpy	$12                     ; 0x12 <__rc2>
     ebf: aa           	tax
     ec0: 90 bb        	bcc	$e7d <f256main+0x629>
     ec2: a6 16        	ldx	$16                     ; 0x16 <__rc6>
     ec4: e0 15        	cpx	#$15
     ec6: a0 13        	ldy	#$13
     ec8: b0 3c        	bcs	$f06 <f256main+0x6b2>
     eca: 8a           	txa
     ecb: 0a           	asl
     ecc: 64 12        	stz	$12                     ; 0x12 <__rc2>
     ece: 26 12        	rol	$12                     ; 0x12 <__rc2>
     ed0: 0a           	asl
     ed1: 85 13        	sta	$13                     ; 0x13 <__rc3>
     ed3: 26 12        	rol	$12                     ; 0x12 <__rc2>
     ed5: 0a           	asl
     ed6: 5a           	phy
     ed7: a4 12        	ldy	$12                     ; 0x12 <__rc2>
     ed9: 84 14        	sty	$14                     ; 0x14 <__rc4>
     edb: 26 14        	rol	$14                     ; 0x14 <__rc4>
     edd: 0a           	asl
     ede: 26 14        	rol	$14                     ; 0x14 <__rc4>
     ee0: 18           	clc
     ee1: 65 13        	adc	$13                     ; 0x13 <__rc3>
     ee3: 85 13        	sta	$13                     ; 0x13 <__rc3>
     ee5: a5 14        	lda	$14                     ; 0x14 <__rc4>
     ee7: 65 12        	adc	$12                     ; 0x12 <__rc2>
     ee9: 85 12        	sta	$12                     ; 0x12 <__rc2>
     eeb: a9 62        	lda	#$62
     eed: 18           	clc
     eee: 65 13        	adc	$13                     ; 0x13 <__rc3>
     ef0: 85 13        	sta	$13                     ; 0x13 <__rc3>
     ef2: a9 50        	lda	#$50
     ef4: 65 12        	adc	$12                     ; 0x12 <__rc2>
     ef6: a4 13        	ldy	$13                     ; 0x13 <__rc3>
     ef8: 84 12        	sty	$12                     ; 0x12 <__rc2>
     efa: 7a           	ply
     efb: 85 13        	sta	$13                     ; 0x13 <__rc3>
     efd: a9 00        	lda	#$0
     eff: 91 12        	sta	($12),y                 ; 0x12 <__rc2>
     f01: e8           	inx
     f02: e0 15        	cpx	#$15
     f04: d0 c4        	bne	$eca <f256main+0x676>
     f06: a2 8e        	ldx	#$8e
     f08: 86 24        	stx	$24                     ; 0x24 <__rc20>
     f0a: a2 51        	ldx	#$51
     f0c: 86 25        	stx	$25                     ; 0x25 <__rc21>
     f0e: a2 06        	ldx	#$6
     f10: a4 24        	ldy	$24                     ; 0x24 <__rc20>
     f12: 84 12        	sty	$12                     ; 0x12 <__rc2>
     f14: a4 25        	ldy	$25                     ; 0x25 <__rc21>
     f16: 84 13        	sty	$13                     ; 0x13 <__rc3>
     f18: 86 26        	stx	$26                     ; 0x26 <__rc22>
     f1a: 20 86 37     	jsr	$3786 <updateLighter>
     f1d: a6 26        	ldx	$26                     ; 0x26 <__rc22>
     f1f: a5 24        	lda	$24                     ; 0x24 <__rc20>
     f21: 18           	clc
     f22: 69 14        	adc	#$14
     f24: 85 24        	sta	$24                     ; 0x24 <__rc20>
     f26: a5 25        	lda	$25                     ; 0x25 <__rc21>
     f28: 69 00        	adc	#$0
     f2a: 85 25        	sta	$25                     ; 0x25 <__rc21>
     f2c: ca           	dex
     f2d: d0 e1        	bne	$f10 <f256main+0x6bc>
     f2f: 4c dc 10     	jmp	$10dc <f256main+0x888>
     f32: c9 80        	cmp	#$80
     f34: f0 03        	beq	$f39 <f256main+0x6e5>
     f36: 4c ae 17     	jmp	$17ae <f256main+0xf5a>
     f39: a2 01        	ldx	#$1
     f3b: 5a           	phy
     f3c: 8a           	txa
     f3d: a0 02        	ldy	#$2
     f3f: 91 10        	sta	($10),y                 ; 0x10 <__rc0>
     f41: a5 16        	lda	$16                     ; 0x16 <__rc6>
     f43: 64 12        	stz	$12                     ; 0x12 <__rc2>
     f45: 48           	pha
     f46: a9 00        	lda	#$0
     f48: a0 04        	ldy	#$4
     f4a: 91 10        	sta	($10),y                 ; 0x10 <__rc0>
     f4c: 4c a4 17     	jmp	$17a4 <f256main+0xf50>
     f4f: 5a           	phy
     f50: a0 03        	ldy	#$3
     f52: b1 10        	lda	($10),y                 ; 0x10 <__rc0>
     f54: 7a           	ply
     f55: aa           	tax
     f56: d0 03        	bne	$f5b <f256main+0x707>
     f58: 4c e3 17     	jmp	$17e3 <f256main+0xf8f>
     f5b: a2 00        	ldx	#$0
     f5d: 4c 7a 0c     	jmp	$c7a <f256main+0x426>
     f60: a0 03        	ldy	#$3
     f62: b1 10        	lda	($10),y                 ; 0x10 <__rc0>
     f64: d0 03        	bne	$f69 <f256main+0x715>
     f66: 4c ec 17     	jmp	$17ec <f256main+0xf98>
     f69: a2 00        	ldx	#$0
     f6b: 4c 95 0c     	jmp	$c95 <f256main+0x441>
     f6e: a0 03        	ldy	#$3
     f70: b1 10        	lda	($10),y                 ; 0x10 <__rc0>
     f72: d0 03        	bne	$f77 <f256main+0x723>
     f74: 4c f5 17     	jmp	$17f5 <f256main+0xfa1>
     f77: a2 00        	ldx	#$0
     f79: 4c a4 0c     	jmp	$ca4 <f256main+0x450>
     f7c: a6 8c        	ldx	$8c                     ; 0x8c <chipAct.4>
     f7e: 18           	clc
     f7f: 8a           	txa
     f80: 69 06        	adc	#$6
     f82: a0 01        	ldy	#$1
     f84: b0 02        	bcs	$f88 <f256main+0x734>
     f86: a0 00        	ldy	#$0
     f88: 84 12        	sty	$12                     ; 0x12 <__rc2>
     f8a: 85 16        	sta	$16                     ; 0x16 <__rc6>
     f8c: 8a           	txa
     f8d: d0 03        	bne	$f92 <f256main+0x73e>
     f8f: 4c e3 0f     	jmp	$fe3 <f256main+0x78f>
     f92: a9 00        	lda	#$0
     f94: a6 12        	ldx	$12                     ; 0x12 <__rc2>
     f96: e0 01        	cpx	#$1
     f98: 69 00        	adc	#$0
     f9a: 85 12        	sta	$12                     ; 0x12 <__rc2>
     f9c: a2 07        	ldx	#$7
     f9e: 8a           	txa
     f9f: 3a           	dec
     fa0: 0a           	asl
     fa1: 64 13        	stz	$13                     ; 0x13 <__rc3>
     fa3: 26 13        	rol	$13                     ; 0x13 <__rc3>
     fa5: 0a           	asl
     fa6: 85 14        	sta	$14                     ; 0x14 <__rc4>
     fa8: 26 13        	rol	$13                     ; 0x13 <__rc3>
     faa: 0a           	asl
     fab: a4 13        	ldy	$13                     ; 0x13 <__rc3>
     fad: 84 15        	sty	$15                     ; 0x15 <__rc5>
     faf: 26 15        	rol	$15                     ; 0x15 <__rc5>
     fb1: 0a           	asl
     fb2: 26 15        	rol	$15                     ; 0x15 <__rc5>
     fb4: 18           	clc
     fb5: 65 14        	adc	$14                     ; 0x14 <__rc4>
     fb7: 85 14        	sta	$14                     ; 0x14 <__rc4>
     fb9: a5 15        	lda	$15                     ; 0x15 <__rc5>
     fbb: 65 13        	adc	$13                     ; 0x13 <__rc3>
     fbd: 85 13        	sta	$13                     ; 0x13 <__rc3>
     fbf: a9 62        	lda	#$62
     fc1: 18           	clc
     fc2: 65 14        	adc	$14                     ; 0x14 <__rc4>
     fc4: 85 14        	sta	$14                     ; 0x14 <__rc4>
     fc6: a9 50        	lda	#$50
     fc8: 65 13        	adc	$13                     ; 0x13 <__rc3>
     fca: 85 15        	sta	$15                     ; 0x15 <__rc5>
     fcc: a9 01        	lda	#$1
     fce: a0 13        	ldy	#$13
     fd0: 91 14        	sta	($14),y                 ; 0x14 <__rc4>
     fd2: 8a           	txa
     fd3: 1a           	inc
     fd4: a0 00        	ldy	#$0
     fd6: c4 12        	cpy	$12                     ; 0x12 <__rc2>
     fd8: d0 04        	bne	$fde <f256main+0x78a>
     fda: e4 16        	cpx	$16                     ; 0x16 <__rc6>
     fdc: 80 02        	bra	$fe0 <f256main+0x78c>
     fde: c4 12        	cpy	$12                     ; 0x12 <__rc2>
     fe0: aa           	tax
     fe1: 90 bb        	bcc	$f9e <f256main+0x74a>
     fe3: a6 16        	ldx	$16                     ; 0x16 <__rc6>
     fe5: e0 0f        	cpx	#$f
     fe7: a0 13        	ldy	#$13
     fe9: b0 3f        	bcs	$102a <f256main+0x7d6>
     feb: 8a           	txa
     fec: 0a           	asl
     fed: 64 12        	stz	$12                     ; 0x12 <__rc2>
     fef: 26 12        	rol	$12                     ; 0x12 <__rc2>
     ff1: 0a           	asl
     ff2: 85 13        	sta	$13                     ; 0x13 <__rc3>
     ff4: 26 12        	rol	$12                     ; 0x12 <__rc2>
     ff6: 0a           	asl
     ff7: 85 14        	sta	$14                     ; 0x14 <__rc4>
     ff9: a5 12        	lda	$12                     ; 0x12 <__rc2>
     ffb: 2a           	rol
     ffc: 06 14        	asl	$14                     ; 0x14 <__rc4>
     ffe: 2a           	rol
     fff: 85 15        	sta	$15                     ; 0x15 <__rc5>
    1001: 18           	clc
    1002: a5 14        	lda	$14                     ; 0x14 <__rc4>
    1004: 65 13        	adc	$13                     ; 0x13 <__rc3>
    1006: 85 13        	sta	$13                     ; 0x13 <__rc3>
    1008: a5 15        	lda	$15                     ; 0x15 <__rc5>
    100a: 65 12        	adc	$12                     ; 0x12 <__rc2>
    100c: 85 12        	sta	$12                     ; 0x12 <__rc2>
    100e: a9 62        	lda	#$62
    1010: 18           	clc
    1011: 65 13        	adc	$13                     ; 0x13 <__rc3>
    1013: 85 13        	sta	$13                     ; 0x13 <__rc3>
    1015: a9 50        	lda	#$50
    1017: 65 12        	adc	$12                     ; 0x12 <__rc2>
    1019: 5a           	phy
    101a: a4 13        	ldy	$13                     ; 0x13 <__rc3>
    101c: 84 12        	sty	$12                     ; 0x12 <__rc2>
    101e: 7a           	ply
    101f: 85 13        	sta	$13                     ; 0x13 <__rc3>
    1021: a9 00        	lda	#$0
    1023: 91 12        	sta	($12),y                 ; 0x12 <__rc2>
    1025: e8           	inx
    1026: e0 0f        	cpx	#$f
    1028: d0 c1        	bne	$feb <f256main+0x797>
    102a: a2 da        	ldx	#$da
    102c: 86 24        	stx	$24                     ; 0x24 <__rc20>
    102e: a2 50        	ldx	#$50
    1030: 86 25        	stx	$25                     ; 0x25 <__rc21>
    1032: a2 09        	ldx	#$9
    1034: a4 24        	ldy	$24                     ; 0x24 <__rc20>
    1036: 84 12        	sty	$12                     ; 0x12 <__rc2>
    1038: a4 25        	ldy	$25                     ; 0x25 <__rc21>
    103a: 84 13        	sty	$13                     ; 0x13 <__rc3>
    103c: 86 26        	stx	$26                     ; 0x26 <__rc22>
    103e: 20 86 37     	jsr	$3786 <updateLighter>
    1041: a6 26        	ldx	$26                     ; 0x26 <__rc22>
    1043: a5 24        	lda	$24                     ; 0x24 <__rc20>
    1045: 18           	clc
    1046: 69 14        	adc	#$14
    1048: 85 24        	sta	$24                     ; 0x24 <__rc20>
    104a: a5 25        	lda	$25                     ; 0x25 <__rc21>
    104c: 69 00        	adc	#$0
    104e: 85 25        	sta	$25                     ; 0x25 <__rc21>
    1050: ca           	dex
    1051: d0 e1        	bne	$1034 <f256main+0x7e0>
    1053: 4c dc 10     	jmp	$10dc <f256main+0x888>
    1056: a5 8a        	lda	$8a                     ; 0x8a <chipAct.2>
    1058: f0 26        	beq	$1080 <f256main+0x82c>
    105a: a2 75        	ldx	#$75
    105c: 86 12        	stx	$12                     ; 0x12 <__rc2>
    105e: a2 50        	ldx	#$50
    1060: 86 13        	stx	$13                     ; 0x13 <__rc3>
    1062: 85 14        	sta	$14                     ; 0x14 <__rc4>
    1064: aa           	tax
    1065: a9 01        	lda	#$1
    1067: 92 12        	sta	($12)                   ; 0x12 <__rc2>
    1069: ca           	dex
    106a: a5 12        	lda	$12                     ; 0x12 <__rc2>
    106c: 18           	clc
    106d: 69 14        	adc	#$14
    106f: 85 12        	sta	$12                     ; 0x12 <__rc2>
    1071: a5 13        	lda	$13                     ; 0x13 <__rc3>
    1073: 69 00        	adc	#$0
    1075: 85 13        	sta	$13                     ; 0x13 <__rc3>
    1077: 8a           	txa
    1078: d0 eb        	bne	$1065 <f256main+0x811>
    107a: a5 14        	lda	$14                     ; 0x14 <__rc4>
    107c: c9 06        	cmp	#$6
    107e: b0 33        	bcs	$10b3 <f256main+0x85f>
    1080: aa           	tax
    1081: 0a           	asl
    1082: 0a           	asl
    1083: 85 12        	sta	$12                     ; 0x12 <__rc2>
    1085: 0a           	asl
    1086: 0a           	asl
    1087: 18           	clc
    1088: 65 12        	adc	$12                     ; 0x12 <__rc2>
    108a: 85 12        	sta	$12                     ; 0x12 <__rc2>
    108c: a9 75        	lda	#$75
    108e: 18           	clc
    108f: 65 12        	adc	$12                     ; 0x12 <__rc2>
    1091: 85 12        	sta	$12                     ; 0x12 <__rc2>
    1093: a9 50        	lda	#$50
    1095: 69 00        	adc	#$0
    1097: 85 13        	sta	$13                     ; 0x13 <__rc3>
    1099: 8a           	txa
    109a: 18           	clc
    109b: 69 fa        	adc	#$fa
    109d: aa           	tax
    109e: a9 00        	lda	#$0
    10a0: 92 12        	sta	($12)                   ; 0x12 <__rc2>
    10a2: a5 12        	lda	$12                     ; 0x12 <__rc2>
    10a4: 18           	clc
    10a5: 69 14        	adc	#$14
    10a7: 85 12        	sta	$12                     ; 0x12 <__rc2>
    10a9: a5 13        	lda	$13                     ; 0x13 <__rc3>
    10ab: 69 00        	adc	#$0
    10ad: 85 13        	sta	$13                     ; 0x13 <__rc3>
    10af: 8a           	txa
    10b0: 1a           	inc
    10b1: d0 ea        	bne	$109d <f256main+0x849>
    10b3: a2 62        	ldx	#$62
    10b5: 86 24        	stx	$24                     ; 0x24 <__rc20>
    10b7: a2 50        	ldx	#$50
    10b9: 86 25        	stx	$25                     ; 0x25 <__rc21>
    10bb: a2 06        	ldx	#$6
    10bd: a4 24        	ldy	$24                     ; 0x24 <__rc20>
    10bf: 84 12        	sty	$12                     ; 0x12 <__rc2>
    10c1: a4 25        	ldy	$25                     ; 0x25 <__rc21>
    10c3: 84 13        	sty	$13                     ; 0x13 <__rc3>
    10c5: 86 26        	stx	$26                     ; 0x26 <__rc22>
    10c7: 20 86 37     	jsr	$3786 <updateLighter>
    10ca: a6 26        	ldx	$26                     ; 0x26 <__rc22>
    10cc: a5 24        	lda	$24                     ; 0x24 <__rc20>
    10ce: 18           	clc
    10cf: 69 14        	adc	#$14
    10d1: 85 24        	sta	$24                     ; 0x24 <__rc20>
    10d3: a5 25        	lda	$25                     ; 0x25 <__rc21>
    10d5: 69 00        	adc	#$0
    10d7: 85 25        	sta	$25                     ; 0x25 <__rc21>
    10d9: ca           	dex
    10da: d0 e1        	bne	$10bd <f256main+0x869>
    10dc: a2 80        	ldx	#$80
    10de: 86 f3        	stx	$f3                     ; 0xf3 <__zp_bss_size+0x7f>
    10e0: 18           	clc
    10e1: a5 10        	lda	$10                     ; 0x10 <__rc0>
    10e3: 69 0d        	adc	#$d
    10e5: 85 12        	sta	$12                     ; 0x12 <__rc2>
    10e7: a5 11        	lda	$11                     ; 0x11 <__rc1>
    10e9: 69 00        	adc	#$0
    10eb: 85 13        	sta	$13                     ; 0x13 <__rc3>
    10ed: 20 f0 ff     	jsr	$fff0 <end_block9+0xabe6>
    10f0: 92 12        	sta	($12)                   ; 0x12 <__rc2>
    10f2: a9 00        	lda	#$0
    10f4: 6a           	ror
    10f5: 85 2a        	sta	$2a                     ; 0x2a <__rc26>
    10f7: b2 12        	lda	($12)                   ; 0x12 <__rc2>
    10f9: 1a           	inc
    10fa: 85 83        	sta	$83                     ; 0x83 <polyTimer.1>
    10fc: 64 f3        	stz	$f3                     ; 0xf3 <__zp_bss_size+0x7f>
    10fe: a6 83        	ldx	$83                     ; 0x83 <polyTimer.1>
    1100: 86 f4        	stx	$f4                     ; 0xf4 <__zp_bss_size+0x80>
    1102: a2 01        	ldx	#$1
    1104: 86 f5        	stx	$f5                     ; 0xf5 <__zp_bss_size+0x81>
    1106: 18           	clc
    1107: a5 10        	lda	$10                     ; 0x10 <__rc0>
    1109: 69 0e        	adc	#$e
    110b: 85 12        	sta	$12                     ; 0x12 <__rc2>
    110d: a5 11        	lda	$11                     ; 0x11 <__rc1>
    110f: 69 00        	adc	#$0
    1111: 85 13        	sta	$13                     ; 0x13 <__rc3>
    1113: 20 f0 ff     	jsr	$fff0 <end_block9+0xabe6>
    1116: 92 12        	sta	($12)                   ; 0x12 <__rc2>
    1118: a9 00        	lda	#$0
    111a: 6a           	ror
    111b: 85 2a        	sta	$2a                     ; 0x2a <__rc26>
    111d: a6 30        	ldx	$30                     ; 0x30 <kernelEventData>
    111f: e0 0c        	cpx	#$c
    1121: f0 03        	beq	$1126 <f256main+0x8d2>
    1123: 4c e6 0b     	jmp	$be6 <f256main+0x392>
    1126: ad e2 d6     	lda	$d6e2                   ; 0xd6e2 <end_block9+0x82d8>
    1129: ae e3 d6     	ldx	$d6e3                   ; 0xd6e3 <end_block9+0x82d9>
    112c: 86 14        	stx	$14                     ; 0x14 <__rc4>
    112e: a6 33        	ldx	$33                     ; 0x33 <kernelEventData+0x3>
    1130: 86 12        	stx	$12                     ; 0x12 <__rc2>
    1132: a2 ff        	ldx	#$ff
    1134: 86 13        	stx	$13                     ; 0x13 <__rc3>
    1136: a4 12        	ldy	$12                     ; 0x12 <__rc2>
    1138: 30 02        	bmi	$113c <f256main+0x8e8>
    113a: 64 13        	stz	$13                     ; 0x13 <__rc3>
    113c: 18           	clc
    113d: 65 12        	adc	$12                     ; 0x12 <__rc2>
    113f: a8           	tay
    1140: a5 14        	lda	$14                     ; 0x14 <__rc4>
    1142: 65 13        	adc	$13                     ; 0x13 <__rc3>
    1144: 84 14        	sty	$14                     ; 0x14 <__rc4>
    1146: 84 84        	sty	$84                     ; 0x84 <mX>
    1148: 85 15        	sta	$15                     ; 0x15 <__rc5>
    114a: 85 85        	sta	$85                     ; 0x85 <mX+0x1>
    114c: ac e4 d6     	ldy	$d6e4                   ; 0xd6e4 <end_block9+0x82da>
    114f: 84 16        	sty	$16                     ; 0x16 <__rc6>
    1151: ac e5 d6     	ldy	$d6e5                   ; 0xd6e5 <end_block9+0x82db>
    1154: 84 17        	sty	$17                     ; 0x17 <__rc7>
    1156: a4 34        	ldy	$34                     ; 0x34 <kernelEventData+0x4>
    1158: 84 12        	sty	$12                     ; 0x12 <__rc2>
    115a: 86 13        	stx	$13                     ; 0x13 <__rc3>
    115c: 30 02        	bmi	$1160 <f256main+0x90c>
    115e: 64 13        	stz	$13                     ; 0x13 <__rc3>
    1160: 18           	clc
    1161: a5 16        	lda	$16                     ; 0x16 <__rc6>
    1163: 65 12        	adc	$12                     ; 0x12 <__rc2>
    1165: a8           	tay
    1166: a5 17        	lda	$17                     ; 0x17 <__rc7>
    1168: 65 13        	adc	$13                     ; 0x13 <__rc3>
    116a: 84 12        	sty	$12                     ; 0x12 <__rc2>
    116c: 84 86        	sty	$86                     ; 0x86 <mY>
    116e: 85 87        	sta	$87                     ; 0x87 <mY+0x1>
    1170: a6 15        	ldx	$15                     ; 0x15 <__rc5>
    1172: 30 0e        	bmi	$1182 <f256main+0x92e>
    1174: a6 15        	ldx	$15                     ; 0x15 <__rc5>
    1176: e0 02        	cpx	#$2
    1178: d0 0e        	bne	$1188 <f256main+0x934>
    117a: a6 14        	ldx	$14                     ; 0x14 <__rc4>
    117c: e0 71        	cpx	#$71
    117e: b0 0c        	bcs	$118c <f256main+0x938>
    1180: 80 16        	bra	$1198 <f256main+0x944>
    1182: a2 00        	ldx	#$0
    1184: a0 00        	ldy	#$0
    1186: 80 08        	bra	$1190 <f256main+0x93c>
    1188: e0 02        	cpx	#$2
    118a: 90 0c        	bcc	$1198 <f256main+0x944>
    118c: a2 70        	ldx	#$70
    118e: a0 02        	ldy	#$2
    1190: 86 14        	stx	$14                     ; 0x14 <__rc4>
    1192: 86 84        	stx	$84                     ; 0x84 <mX>
    1194: 84 15        	sty	$15                     ; 0x15 <__rc5>
    1196: 84 85        	sty	$85                     ; 0x85 <mX+0x1>
    1198: aa           	tax
    1199: 30 0a        	bmi	$11a5 <f256main+0x951>
    119b: c9 01        	cmp	#$1
    119d: d0 0e        	bne	$11ad <f256main+0x959>
    119f: a6 12        	ldx	$12                     ; 0x12 <__rc2>
    11a1: e0 d1        	cpx	#$d1
    11a3: 80 0a        	bra	$11af <f256main+0x95b>
    11a5: a2 00        	ldx	#$0
    11a7: a0 00        	ldy	#$0
    11a9: a5 14        	lda	$14                     ; 0x14 <__rc4>
    11ab: 80 0a        	bra	$11b7 <f256main+0x963>
    11ad: c9 01        	cmp	#$1
    11af: a5 14        	lda	$14                     ; 0x14 <__rc4>
    11b1: 90 08        	bcc	$11bb <f256main+0x967>
    11b3: a2 d0        	ldx	#$d0
    11b5: a0 01        	ldy	#$1
    11b7: 86 86        	stx	$86                     ; 0x86 <mY>
    11b9: 84 87        	sty	$87                     ; 0x87 <mY+0x1>
    11bb: 8d e2 d6     	sta	$d6e2                   ; 0xd6e2 <end_block9+0x82d8>
    11be: a6 15        	ldx	$15                     ; 0x15 <__rc5>
    11c0: 8e e3 d6     	stx	$d6e3                   ; 0xd6e3 <end_block9+0x82d9>
    11c3: a6 86        	ldx	$86                     ; 0x86 <mY>
    11c5: a4 87        	ldy	$87                     ; 0x87 <mY+0x1>
    11c7: 8e e4 d6     	stx	$d6e4                   ; 0xd6e4 <end_block9+0x82da>
    11ca: 8c e5 d6     	sty	$d6e5                   ; 0xd6e5 <end_block9+0x82db>
    11cd: ad db 53     	lda	$53db                   ; 0x53db <sliAct>
    11d0: c9 ff        	cmp	#$ff
    11d2: d0 03        	bne	$11d7 <f256main+0x983>
    11d4: 4c 22 14     	jmp	$1422 <f256main+0xbce>
    11d7: 0a           	asl
    11d8: 64 12        	stz	$12                     ; 0x12 <__rc2>
    11da: 26 12        	rol	$12                     ; 0x12 <__rc2>
    11dc: 0a           	asl
    11dd: 85 13        	sta	$13                     ; 0x13 <__rc3>
    11df: 26 12        	rol	$12                     ; 0x12 <__rc2>
    11e1: 0a           	asl
    11e2: a6 12        	ldx	$12                     ; 0x12 <__rc2>
    11e4: 86 14        	stx	$14                     ; 0x14 <__rc4>
    11e6: 26 14        	rol	$14                     ; 0x14 <__rc4>
    11e8: 0a           	asl
    11e9: 26 14        	rol	$14                     ; 0x14 <__rc4>
    11eb: 0a           	asl
    11ec: 26 14        	rol	$14                     ; 0x14 <__rc4>
    11ee: 38           	sec
    11ef: e5 13        	sbc	$13                     ; 0x13 <__rc3>
    11f1: 85 1a        	sta	$1a                     ; 0x1a <__rc10>
    11f3: 85 13        	sta	$13                     ; 0x13 <__rc3>
    11f5: a5 14        	lda	$14                     ; 0x14 <__rc4>
    11f7: e5 12        	sbc	$12                     ; 0x12 <__rc2>
    11f9: 85 1b        	sta	$1b                     ; 0x1b <__rc11>
    11fb: 85 12        	sta	$12                     ; 0x12 <__rc2>
    11fd: a9 ae        	lda	#$ae
    11ff: 18           	clc
    1200: 65 13        	adc	$13                     ; 0x13 <__rc3>
    1202: aa           	tax
    1203: a9 52        	lda	#$52
    1205: 65 12        	adc	$12                     ; 0x12 <__rc2>
    1207: 86 12        	stx	$12                     ; 0x12 <__rc2>
    1209: 64 15        	stz	$15                     ; 0x15 <__rc5>
    120b: 85 13        	sta	$13                     ; 0x13 <__rc3>
    120d: a6 34        	ldx	$34                     ; 0x34 <kernelEventData+0x4>
    120f: 86 14        	stx	$14                     ; 0x14 <__rc4>
    1211: a0 13        	ldy	#$13
    1213: 8a           	txa
    1214: 10 08        	bpl	$121e <f256main+0x9ca>
    1216: 64 17        	stz	$17                     ; 0x17 <__rc7>
    1218: a2 ff        	ldx	#$ff
    121a: 86 15        	stx	$15                     ; 0x15 <__rc5>
    121c: 80 02        	bra	$1220 <f256main+0x9cc>
    121e: 64 17        	stz	$17                     ; 0x17 <__rc7>
    1220: b1 12        	lda	($12),y                 ; 0x12 <__rc2>
    1222: 38           	sec
    1223: e5 14        	sbc	$14                     ; 0x14 <__rc4>
    1225: aa           	tax
    1226: a9 00        	lda	#$0
    1228: e5 15        	sbc	$15                     ; 0x15 <__rc5>
    122a: 85 16        	sta	$16                     ; 0x16 <__rc6>
    122c: a0 14        	ldy	#$14
    122e: b1 12        	lda	($12),y                 ; 0x12 <__rc2>
    1230: 85 15        	sta	$15                     ; 0x15 <__rc5>
    1232: 86 14        	stx	$14                     ; 0x14 <__rc4>
    1234: e4 15        	cpx	$15                     ; 0x15 <__rc5>
    1236: a5 16        	lda	$16                     ; 0x16 <__rc6>
    1238: e9 00        	sbc	#$0
    123a: 50 02        	bvc	$123e <f256main+0x9ea>
    123c: 49 80        	eor	#$80
    123e: aa           	tax
    123f: 10 06        	bpl	$1247 <f256main+0x9f3>
    1241: a6 15        	ldx	$15                     ; 0x15 <__rc5>
    1243: 86 14        	stx	$14                     ; 0x14 <__rc4>
    1245: 64 16        	stz	$16                     ; 0x16 <__rc6>
    1247: a6 1a        	ldx	$1a                     ; 0x1a <__rc10>
    1249: 86 15        	stx	$15                     ; 0x15 <__rc5>
    124b: a6 1b        	ldx	$1b                     ; 0x1b <__rc11>
    124d: 86 17        	stx	$17                     ; 0x17 <__rc7>
    124f: a9 ae        	lda	#$ae
    1251: 18           	clc
    1252: 65 15        	adc	$15                     ; 0x15 <__rc5>
    1254: 85 18        	sta	$18                     ; 0x18 <__rc8>
    1256: a9 52        	lda	#$52
    1258: 65 17        	adc	$17                     ; 0x17 <__rc7>
    125a: 85 19        	sta	$19                     ; 0x19 <__rc9>
    125c: a0 15        	ldy	#$15
    125e: b1 18        	lda	($18),y                 ; 0x18 <__rc8>
    1260: a2 00        	ldx	#$0
    1262: e4 16        	cpx	$16                     ; 0x16 <__rc6>
    1264: d0 04        	bne	$126a <f256main+0xa16>
    1266: c5 14        	cmp	$14                     ; 0x14 <__rc4>
    1268: 80 02        	bra	$126c <f256main+0xa18>
    126a: e4 16        	cpx	$16                     ; 0x16 <__rc6>
    126c: a6 14        	ldx	$14                     ; 0x14 <__rc4>
    126e: a0 13        	ldy	#$13
    1270: b0 01        	bcs	$1273 <f256main+0xa1f>
    1272: aa           	tax
    1273: a9 ae        	lda	#$ae
    1275: 18           	clc
    1276: 65 1a        	adc	$1a                     ; 0x1a <__rc10>
    1278: 85 14        	sta	$14                     ; 0x14 <__rc4>
    127a: a9 52        	lda	#$52
    127c: 65 1b        	adc	$1b                     ; 0x1b <__rc11>
    127e: 85 15        	sta	$15                     ; 0x15 <__rc5>
    1280: 8a           	txa
    1281: 91 14        	sta	($14),y                 ; 0x14 <__rc4>
    1283: 20 d2 34     	jsr	$34d2 <updateSlider>
    1286: ad db 53     	lda	$53db                   ; 0x53db <sliAct>
    1289: 0a           	asl
    128a: 64 12        	stz	$12                     ; 0x12 <__rc2>
    128c: 26 12        	rol	$12                     ; 0x12 <__rc2>
    128e: 0a           	asl
    128f: 85 13        	sta	$13                     ; 0x13 <__rc3>
    1291: 26 12        	rol	$12                     ; 0x12 <__rc2>
    1293: 0a           	asl
    1294: a6 12        	ldx	$12                     ; 0x12 <__rc2>
    1296: 86 14        	stx	$14                     ; 0x14 <__rc4>
    1298: 26 14        	rol	$14                     ; 0x14 <__rc4>
    129a: 0a           	asl
    129b: 26 14        	rol	$14                     ; 0x14 <__rc4>
    129d: 0a           	asl
    129e: 26 14        	rol	$14                     ; 0x14 <__rc4>
    12a0: 38           	sec
    12a1: e5 13        	sbc	$13                     ; 0x13 <__rc3>
    12a3: 85 13        	sta	$13                     ; 0x13 <__rc3>
    12a5: a5 14        	lda	$14                     ; 0x14 <__rc4>
    12a7: e5 12        	sbc	$12                     ; 0x12 <__rc2>
    12a9: 85 12        	sta	$12                     ; 0x12 <__rc2>
    12ab: a9 ae        	lda	#$ae
    12ad: 18           	clc
    12ae: 65 13        	adc	$13                     ; 0x13 <__rc3>
    12b0: 85 14        	sta	$14                     ; 0x14 <__rc4>
    12b2: a9 52        	lda	#$52
    12b4: 65 12        	adc	$12                     ; 0x12 <__rc2>
    12b6: 85 15        	sta	$15                     ; 0x15 <__rc5>
    12b8: a5 a2        	lda	$a2                     ; 0xa2 <gPtr>
    12ba: a6 a3        	ldx	$a3                     ; 0xa3 <gPtr+0x1>
    12bc: 85 12        	sta	$12                     ; 0x12 <__rc2>
    12be: 86 13        	stx	$13                     ; 0x13 <__rc3>
    12c0: 18           	clc
    12c1: 69 04        	adc	#$4
    12c3: 85 16        	sta	$16                     ; 0x16 <__rc6>
    12c5: 8a           	txa
    12c6: 69 00        	adc	#$0
    12c8: 85 17        	sta	$17                     ; 0x17 <__rc7>
    12ca: a0 04        	ldy	#$4
    12cc: b1 12        	lda	($12),y                 ; 0x12 <__rc2>
    12ce: 85 12        	sta	$12                     ; 0x12 <__rc2>
    12d0: a0 01        	ldy	#$1
    12d2: b1 16        	lda	($16),y                 ; 0x16 <__rc6>
    12d4: 85 13        	sta	$13                     ; 0x13 <__rc3>
    12d6: a9 e4        	lda	#$e4
    12d8: 18           	clc
    12d9: a0 12        	ldy	#$12
    12db: 71 14        	adc	($14),y                 ; 0x14 <__rc4>
    12dd: c9 04        	cmp	#$4
    12df: 90 03        	bcc	$12e4 <f256main+0xa90>
    12e1: 4c 4d 13     	jmp	$134d <f256main+0xaf9>
    12e4: 0a           	asl
    12e5: aa           	tax
    12e6: 7c 4c 4d     	jmp	($4d4c,x)               ; 0x4d4c <__set_v+0xb>
    12e9: a9 0f        	lda	#$f
    12eb: a0 03        	ldy	#$3
    12ed: 31 12        	and	($12),y                 ; 0x12 <__rc2>
    12ef: 85 16        	sta	$16                     ; 0x16 <__rc6>
    12f1: a0 13        	ldy	#$13
    12f3: b1 14        	lda	($14),y                 ; 0x14 <__rc4>
    12f5: 0a           	asl
    12f6: 0a           	asl
    12f7: 0a           	asl
    12f8: 0a           	asl
    12f9: 05 16        	ora	$16                     ; 0x16 <__rc6>
    12fb: 80 4c        	bra	$1349 <f256main+0xaf5>
    12fd: c9 04        	cmp	#$4
    12ff: f0 03        	beq	$1304 <f256main+0xab0>
    1301: 4c fe 17     	jmp	$17fe <f256main+0xfaa>
    1304: a2 80        	ldx	#$80
    1306: 8e b1 dd     	stx	$ddb1                   ; 0xddb1 <end_block9+0x89a7>
    1309: a6 2f        	ldx	$2f                     ; 0x2f <__rc31>
    130b: 8e b1 dd     	stx	$ddb1                   ; 0xddb1 <end_block9+0x89a7>
    130e: a2 7f        	ldx	#$7f
    1310: 8e b1 dd     	stx	$ddb1                   ; 0xddb1 <end_block9+0x89a7>
    1313: a5 14        	lda	$14                     ; 0x14 <__rc4>
    1315: f0 03        	beq	$131a <f256main+0xac6>
    1317: 4c 14 18     	jmp	$1814 <f256main+0xfc0>
    131a: 4c 1f 1c     	jmp	$1c1f <f256main+0x13cb>
    131d: a9 0f        	lda	#$f
    131f: a0 04        	ldy	#$4
    1321: 31 12        	and	($12),y                 ; 0x12 <__rc2>
    1323: 85 16        	sta	$16                     ; 0x16 <__rc6>
    1325: a0 13        	ldy	#$13
    1327: b1 14        	lda	($14),y                 ; 0x14 <__rc4>
    1329: 0a           	asl
    132a: 0a           	asl
    132b: 0a           	asl
    132c: 0a           	asl
    132d: 05 16        	ora	$16                     ; 0x16 <__rc6>
    132f: 80 0a        	bra	$133b <f256main+0xae7>
    1331: a9 f0        	lda	#$f0
    1333: a0 04        	ldy	#$4
    1335: 31 12        	and	($12),y                 ; 0x12 <__rc2>
    1337: a0 13        	ldy	#$13
    1339: 11 14        	ora	($14),y                 ; 0x14 <__rc4>
    133b: a0 04        	ldy	#$4
    133d: 80 0c        	bra	$134b <f256main+0xaf7>
    133f: a9 f0        	lda	#$f0
    1341: a0 03        	ldy	#$3
    1343: 31 12        	and	($12),y                 ; 0x12 <__rc2>
    1345: a0 13        	ldy	#$13
    1347: 11 14        	ora	($14),y                 ; 0x14 <__rc4>
    1349: a0 03        	ldy	#$3
    134b: 91 12        	sta	($12),y                 ; 0x12 <__rc2>
    134d: a0 03        	ldy	#$3
    134f: b1 12        	lda	($12),y                 ; 0x12 <__rc2>
    1351: 85 14        	sta	$14                     ; 0x14 <__rc4>
    1353: c8           	iny
    1354: b1 12        	lda	($12),y                 ; 0x12 <__rc2>
    1356: a4 14        	ldy	$14                     ; 0x14 <__rc4>
    1358: 8c 05 d4     	sty	$d405                   ; 0xd405 <end_block9+0x7ffb>
    135b: 8c 0c d4     	sty	$d40c                   ; 0xd40c <end_block9+0x8002>
    135e: 8c 13 d4     	sty	$d413                   ; 0xd413 <end_block9+0x8009>
    1361: 8c 05 d5     	sty	$d505                   ; 0xd505 <end_block9+0x80fb>
    1364: 8c 0c d5     	sty	$d50c                   ; 0xd50c <end_block9+0x8102>
    1367: 8c 13 d5     	sty	$d513                   ; 0xd513 <end_block9+0x8109>
    136a: 8d 06 d4     	sta	$d406                   ; 0xd406 <end_block9+0x7ffc>
    136d: 8d 0d d4     	sta	$d40d                   ; 0xd40d <end_block9+0x8003>
    1370: 8d 14 d4     	sta	$d414                   ; 0xd414 <end_block9+0x800a>
    1373: 8d 06 d5     	sta	$d506                   ; 0xd506 <end_block9+0x80fc>
    1376: 8d 0d d5     	sta	$d50d                   ; 0xd50d <end_block9+0x8103>
    1379: 8d 14 d5     	sta	$d514                   ; 0xd514 <end_block9+0x810a>
    137c: ae db 53     	ldx	$53db                   ; 0x53db <sliAct>
    137f: 86 26        	stx	$26                     ; 0x26 <__rc22>
    1381: a2 13        	ldx	#$13
    1383: 86 12        	stx	$12                     ; 0x12 <__rc2>
    1385: 64 13        	stz	$13                     ; 0x13 <__rc3>
    1387: a2 00        	ldx	#$0
    1389: a5 26        	lda	$26                     ; 0x26 <__rc22>
    138b: 20 04 4b     	jsr	$4b04 <__mulhi3>
    138e: 85 12        	sta	$12                     ; 0x12 <__rc2>
    1390: 86 13        	stx	$13                     ; 0x13 <__rc3>
    1392: a9 1e        	lda	#$1e
    1394: 18           	clc
    1395: 65 12        	adc	$12                     ; 0x12 <__rc2>
    1397: 85 24        	sta	$24                     ; 0x24 <__rc20>
    1399: a9 53        	lda	#$53
    139b: 65 13        	adc	$13                     ; 0x13 <__rc3>
    139d: 85 25        	sta	$25                     ; 0x25 <__rc21>
    139f: 06 26        	asl	$26                     ; 0x26 <__rc22>
    13a1: a9 00        	lda	#$0
    13a3: 2a           	rol
    13a4: 06 26        	asl	$26                     ; 0x26 <__rc22>
    13a6: 2a           	rol
    13a7: 85 13        	sta	$13                     ; 0x13 <__rc3>
    13a9: a5 26        	lda	$26                     ; 0x26 <__rc22>
    13ab: 0a           	asl
    13ac: a6 13        	ldx	$13                     ; 0x13 <__rc3>
    13ae: 86 14        	stx	$14                     ; 0x14 <__rc4>
    13b0: 26 14        	rol	$14                     ; 0x14 <__rc4>
    13b2: 0a           	asl
    13b3: 26 14        	rol	$14                     ; 0x14 <__rc4>
    13b5: 0a           	asl
    13b6: 26 14        	rol	$14                     ; 0x14 <__rc4>
    13b8: 38           	sec
    13b9: e5 26        	sbc	$26                     ; 0x26 <__rc22>
    13bb: 85 12        	sta	$12                     ; 0x12 <__rc2>
    13bd: a5 14        	lda	$14                     ; 0x14 <__rc4>
    13bf: e5 13        	sbc	$13                     ; 0x13 <__rc3>
    13c1: 85 13        	sta	$13                     ; 0x13 <__rc3>
    13c3: a9 ae        	lda	#$ae
    13c5: 18           	clc
    13c6: 65 12        	adc	$12                     ; 0x12 <__rc2>
    13c8: 85 12        	sta	$12                     ; 0x12 <__rc2>
    13ca: a9 52        	lda	#$52
    13cc: 65 13        	adc	$13                     ; 0x13 <__rc3>
    13ce: 85 13        	sta	$13                     ; 0x13 <__rc3>
    13d0: a0 13        	ldy	#$13
    13d2: b1 12        	lda	($12),y                 ; 0x12 <__rc2>
    13d4: 85 12        	sta	$12                     ; 0x12 <__rc2>
    13d6: b2 24        	lda	($24)                   ; 0x24 <__rc20>
    13d8: 85 26        	sta	$26                     ; 0x26 <__rc22>
    13da: a0 0d        	ldy	#$d
    13dc: b1 24        	lda	($24),y                 ; 0x24 <__rc20>
    13de: 85 27        	sta	$27                     ; 0x27 <__rc23>
    13e0: 64 13        	stz	$13                     ; 0x13 <__rc3>
    13e2: a2 00        	ldx	#$0
    13e4: 20 04 4b     	jsr	$4b04 <__mulhi3>
    13e7: a4 27        	ldy	$27                     ; 0x27 <__rc23>
    13e9: 84 12        	sty	$12                     ; 0x12 <__rc2>
    13eb: 64 13        	stz	$13                     ; 0x13 <__rc3>
    13ed: 20 04 4b     	jsr	$4b04 <__mulhi3>
    13f0: 86 12        	stx	$12                     ; 0x12 <__rc2>
    13f2: a2 01        	ldx	#$1
    13f4: 86 13        	stx	$13                     ; 0x13 <__rc3>
    13f6: 64 14        	stz	$14                     ; 0x14 <__rc4>
    13f8: a6 27        	ldx	$27                     ; 0x27 <__rc23>
    13fa: 86 15        	stx	$15                     ; 0x15 <__rc5>
    13fc: aa           	tax
    13fd: a5 26        	lda	$26                     ; 0x26 <__rc22>
    13ff: 20 30 30     	jsr	$3030 <spriteDefine>
    1402: b2 24        	lda	($24)                   ; 0x24 <__rc20>
    1404: aa           	tax
    1405: 0a           	asl
    1406: 64 12        	stz	$12                     ; 0x12 <__rc2>
    1408: 26 12        	rol	$12                     ; 0x12 <__rc2>
    140a: 0a           	asl
    140b: 26 12        	rol	$12                     ; 0x12 <__rc2>
    140d: 0a           	asl
    140e: 26 12        	rol	$12                     ; 0x12 <__rc2>
    1410: 18           	clc
    1411: 69 00        	adc	#$0
    1413: a8           	tay
    1414: a5 12        	lda	$12                     ; 0x12 <__rc2>
    1416: 69 d9        	adc	#$d9
    1418: 84 12        	sty	$12                     ; 0x12 <__rc2>
    141a: 85 13        	sta	$13                     ; 0x13 <__rc3>
    141c: a9 01        	lda	#$1
    141e: 15 39        	ora	$39,x                   ; 0x39 <_spriteCtl>
    1420: 92 12        	sta	($12)                   ; 0x12 <__rc2>
    1422: a5 7b        	lda	$7b                     ; 0x7b <diaAct>
    1424: a0 13        	ldy	#$13
    1426: c9 ff        	cmp	#$ff
    1428: d0 03        	bne	$142d <f256main+0xbd9>
    142a: 4c 35 17     	jmp	$1735 <f256main+0xee1>
    142d: 0a           	asl
    142e: 64 12        	stz	$12                     ; 0x12 <__rc2>
    1430: 26 12        	rol	$12                     ; 0x12 <__rc2>
    1432: 0a           	asl
    1433: 85 13        	sta	$13                     ; 0x13 <__rc3>
    1435: 26 12        	rol	$12                     ; 0x12 <__rc2>
    1437: 0a           	asl
    1438: a6 12        	ldx	$12                     ; 0x12 <__rc2>
    143a: 86 14        	stx	$14                     ; 0x14 <__rc4>
    143c: 26 14        	rol	$14                     ; 0x14 <__rc4>
    143e: 0a           	asl
    143f: 26 14        	rol	$14                     ; 0x14 <__rc4>
    1441: 0a           	asl
    1442: 26 14        	rol	$14                     ; 0x14 <__rc4>
    1444: 38           	sec
    1445: e5 13        	sbc	$13                     ; 0x13 <__rc3>
    1447: 85 1a        	sta	$1a                     ; 0x1a <__rc10>
    1449: 85 13        	sta	$13                     ; 0x13 <__rc3>
    144b: a5 14        	lda	$14                     ; 0x14 <__rc4>
    144d: e5 12        	sbc	$12                     ; 0x12 <__rc2>
    144f: 85 1b        	sta	$1b                     ; 0x1b <__rc11>
    1451: 85 12        	sta	$12                     ; 0x12 <__rc2>
    1453: a9 a3        	lda	#$a3
    1455: 18           	clc
    1456: 65 13        	adc	$13                     ; 0x13 <__rc3>
    1458: aa           	tax
    1459: a9 53        	lda	#$53
    145b: 65 12        	adc	$12                     ; 0x12 <__rc2>
    145d: 86 12        	stx	$12                     ; 0x12 <__rc2>
    145f: 85 13        	sta	$13                     ; 0x13 <__rc3>
    1461: b1 12        	lda	($12),y                 ; 0x12 <__rc2>
    1463: 85 14        	sta	$14                     ; 0x14 <__rc4>
    1465: a5 33        	lda	$33                     ; 0x33 <kernelEventData+0x3>
    1467: 10 04        	bpl	$146d <f256main+0xc19>
    1469: a2 ff        	ldx	#$ff
    146b: 80 02        	bra	$146f <f256main+0xc1b>
    146d: a2 00        	ldx	#$0
    146f: 18           	clc
    1470: 65 14        	adc	$14                     ; 0x14 <__rc4>
    1472: 85 14        	sta	$14                     ; 0x14 <__rc4>
    1474: 8a           	txa
    1475: 69 00        	adc	#$0
    1477: 85 16        	sta	$16                     ; 0x16 <__rc6>
    1479: a0 14        	ldy	#$14
    147b: a6 14        	ldx	$14                     ; 0x14 <__rc4>
    147d: b1 12        	lda	($12),y                 ; 0x12 <__rc2>
    147f: 85 15        	sta	$15                     ; 0x15 <__rc5>
    1481: e4 15        	cpx	$15                     ; 0x15 <__rc5>
    1483: a5 16        	lda	$16                     ; 0x16 <__rc6>
    1485: e9 00        	sbc	#$0
    1487: 50 02        	bvc	$148b <f256main+0xc37>
    1489: 49 80        	eor	#$80
    148b: aa           	tax
    148c: 10 06        	bpl	$1494 <f256main+0xc40>
    148e: a6 15        	ldx	$15                     ; 0x15 <__rc5>
    1490: 86 14        	stx	$14                     ; 0x14 <__rc4>
    1492: 64 16        	stz	$16                     ; 0x16 <__rc6>
    1494: a6 1a        	ldx	$1a                     ; 0x1a <__rc10>
    1496: 86 15        	stx	$15                     ; 0x15 <__rc5>
    1498: a6 1b        	ldx	$1b                     ; 0x1b <__rc11>
    149a: 86 17        	stx	$17                     ; 0x17 <__rc7>
    149c: a9 a3        	lda	#$a3
    149e: 18           	clc
    149f: 65 15        	adc	$15                     ; 0x15 <__rc5>
    14a1: 85 18        	sta	$18                     ; 0x18 <__rc8>
    14a3: a9 53        	lda	#$53
    14a5: 65 17        	adc	$17                     ; 0x17 <__rc7>
    14a7: 85 19        	sta	$19                     ; 0x19 <__rc9>
    14a9: a0 15        	ldy	#$15
    14ab: b1 18        	lda	($18),y                 ; 0x18 <__rc8>
    14ad: a2 00        	ldx	#$0
    14af: e4 16        	cpx	$16                     ; 0x16 <__rc6>
    14b1: d0 04        	bne	$14b7 <f256main+0xc63>
    14b3: c5 14        	cmp	$14                     ; 0x14 <__rc4>
    14b5: 80 02        	bra	$14b9 <f256main+0xc65>
    14b7: e4 16        	cpx	$16                     ; 0x16 <__rc6>
    14b9: a6 14        	ldx	$14                     ; 0x14 <__rc4>
    14bb: a0 13        	ldy	#$13
    14bd: b0 01        	bcs	$14c0 <f256main+0xc6c>
    14bf: aa           	tax
    14c0: a9 a3        	lda	#$a3
    14c2: 18           	clc
    14c3: 65 1a        	adc	$1a                     ; 0x1a <__rc10>
    14c5: 85 14        	sta	$14                     ; 0x14 <__rc4>
    14c7: a9 53        	lda	#$53
    14c9: 65 1b        	adc	$1b                     ; 0x1b <__rc11>
    14cb: 85 15        	sta	$15                     ; 0x15 <__rc5>
    14cd: 8a           	txa
    14ce: 91 14        	sta	($14),y                 ; 0x14 <__rc4>
    14d0: 20 5c 33     	jsr	$335c <updateDial>
    14d3: a5 7b        	lda	$7b                     ; 0x7b <diaAct>
    14d5: 0a           	asl
    14d6: 64 12        	stz	$12                     ; 0x12 <__rc2>
    14d8: 26 12        	rol	$12                     ; 0x12 <__rc2>
    14da: 0a           	asl
    14db: 85 13        	sta	$13                     ; 0x13 <__rc3>
    14dd: 26 12        	rol	$12                     ; 0x12 <__rc2>
    14df: 0a           	asl
    14e0: a6 12        	ldx	$12                     ; 0x12 <__rc2>
    14e2: 86 14        	stx	$14                     ; 0x14 <__rc4>
    14e4: 26 14        	rol	$14                     ; 0x14 <__rc4>
    14e6: 0a           	asl
    14e7: 26 14        	rol	$14                     ; 0x14 <__rc4>
    14e9: 0a           	asl
    14ea: 26 14        	rol	$14                     ; 0x14 <__rc4>
    14ec: 38           	sec
    14ed: e5 13        	sbc	$13                     ; 0x13 <__rc3>
    14ef: 85 13        	sta	$13                     ; 0x13 <__rc3>
    14f1: a5 14        	lda	$14                     ; 0x14 <__rc4>
    14f3: e5 12        	sbc	$12                     ; 0x12 <__rc2>
    14f5: 85 12        	sta	$12                     ; 0x12 <__rc2>
    14f7: a9 a3        	lda	#$a3
    14f9: 18           	clc
    14fa: 65 13        	adc	$13                     ; 0x13 <__rc3>
    14fc: aa           	tax
    14fd: a9 53        	lda	#$53
    14ff: 65 12        	adc	$12                     ; 0x12 <__rc2>
    1501: 86 12        	stx	$12                     ; 0x12 <__rc2>
    1503: 85 13        	sta	$13                     ; 0x13 <__rc3>
    1505: a0 12        	ldy	#$12
    1507: b1 12        	lda	($12),y                 ; 0x12 <__rc2>
    1509: c9 24        	cmp	#$24
    150b: f0 2f        	beq	$153c <f256main+0xce8>
    150d: c9 25        	cmp	#$25
    150f: f0 03        	beq	$1514 <f256main+0xcc0>
    1511: 4c 67 15     	jmp	$1567 <f256main+0xd13>
    1514: a5 a2        	lda	$a2                     ; 0xa2 <gPtr>
    1516: a6 a3        	ldx	$a3                     ; 0xa3 <gPtr+0x1>
    1518: 85 14        	sta	$14                     ; 0x14 <__rc4>
    151a: 86 15        	stx	$15                     ; 0x15 <__rc5>
    151c: 18           	clc
    151d: 69 04        	adc	#$4
    151f: 85 16        	sta	$16                     ; 0x16 <__rc6>
    1521: 8a           	txa
    1522: 69 00        	adc	#$0
    1524: 85 17        	sta	$17                     ; 0x17 <__rc7>
    1526: a0 04        	ldy	#$4
    1528: b1 14        	lda	($14),y                 ; 0x14 <__rc4>
    152a: 85 14        	sta	$14                     ; 0x14 <__rc4>
    152c: a0 01        	ldy	#$1
    152e: b1 16        	lda	($16),y                 ; 0x16 <__rc6>
    1530: 85 15        	sta	$15                     ; 0x15 <__rc5>
    1532: a0 13        	ldy	#$13
    1534: b1 12        	lda	($12),y                 ; 0x12 <__rc2>
    1536: a0 01        	ldy	#$1
    1538: 91 14        	sta	($14),y                 ; 0x14 <__rc4>
    153a: 80 4a        	bra	$1586 <f256main+0xd32>
    153c: a5 a2        	lda	$a2                     ; 0xa2 <gPtr>
    153e: a6 a3        	ldx	$a3                     ; 0xa3 <gPtr+0x1>
    1540: 85 14        	sta	$14                     ; 0x14 <__rc4>
    1542: 86 15        	stx	$15                     ; 0x15 <__rc5>
    1544: 18           	clc
    1545: 69 04        	adc	#$4
    1547: 85 16        	sta	$16                     ; 0x16 <__rc6>
    1549: 8a           	txa
    154a: 69 00        	adc	#$0
    154c: 85 17        	sta	$17                     ; 0x17 <__rc7>
    154e: a0 04        	ldy	#$4
    1550: b1 14        	lda	($14),y                 ; 0x14 <__rc4>
    1552: 85 14        	sta	$14                     ; 0x14 <__rc4>
    1554: a0 01        	ldy	#$1
    1556: b1 16        	lda	($16),y                 ; 0x16 <__rc6>
    1558: 85 15        	sta	$15                     ; 0x15 <__rc5>
    155a: a9 0f        	lda	#$f
    155c: a0 13        	ldy	#$13
    155e: 31 12        	and	($12),y                 ; 0x12 <__rc2>
    1560: a0 02        	ldy	#$2
    1562: 91 14        	sta	($14),y                 ; 0x14 <__rc4>
    1564: 88           	dey
    1565: 80 1f        	bra	$1586 <f256main+0xd32>
    1567: a5 a2        	lda	$a2                     ; 0xa2 <gPtr>
    1569: a6 a3        	ldx	$a3                     ; 0xa3 <gPtr+0x1>
    156b: 85 12        	sta	$12                     ; 0x12 <__rc2>
    156d: 86 13        	stx	$13                     ; 0x13 <__rc3>
    156f: 18           	clc
    1570: 69 04        	adc	#$4
    1572: 85 14        	sta	$14                     ; 0x14 <__rc4>
    1574: 8a           	txa
    1575: 69 00        	adc	#$0
    1577: 85 15        	sta	$15                     ; 0x15 <__rc5>
    1579: a0 04        	ldy	#$4
    157b: b1 12        	lda	($12),y                 ; 0x12 <__rc2>
    157d: aa           	tax
    157e: a0 01        	ldy	#$1
    1580: b1 14        	lda	($14),y                 ; 0x14 <__rc4>
    1582: 86 14        	stx	$14                     ; 0x14 <__rc4>
    1584: 85 15        	sta	$15                     ; 0x15 <__rc5>
    1586: b1 14        	lda	($14),y                 ; 0x14 <__rc4>
    1588: 85 12        	sta	$12                     ; 0x12 <__rc2>
    158a: a0 02        	ldy	#$2
    158c: b1 14        	lda	($14),y                 ; 0x14 <__rc4>
    158e: a4 12        	ldy	$12                     ; 0x12 <__rc2>
    1590: 8c 02 d4     	sty	$d402                   ; 0xd402 <end_block9+0x7ff8>
    1593: 8c 09 d4     	sty	$d409                   ; 0xd409 <end_block9+0x7fff>
    1596: 8c 10 d4     	sty	$d410                   ; 0xd410 <end_block9+0x8006>
    1599: 8c 02 d5     	sty	$d502                   ; 0xd502 <end_block9+0x80f8>
    159c: 8c 09 d5     	sty	$d509                   ; 0xd509 <end_block9+0x80ff>
    159f: 8c 10 d5     	sty	$d510                   ; 0xd510 <end_block9+0x8106>
    15a2: 8d 03 d4     	sta	$d403                   ; 0xd403 <end_block9+0x7ff9>
    15a5: 8d 0a d4     	sta	$d40a                   ; 0xd40a <end_block9+0x8000>
    15a8: 8d 11 d4     	sta	$d411                   ; 0xd411 <end_block9+0x8007>
    15ab: 8d 03 d5     	sta	$d503                   ; 0xd503 <end_block9+0x80f9>
    15ae: 8d 0a d5     	sta	$d50a                   ; 0xd50a <end_block9+0x8100>
    15b1: 8d 11 d5     	sta	$d511                   ; 0xd511 <end_block9+0x8107>
    15b4: a5 7b        	lda	$7b                     ; 0x7b <diaAct>
    15b6: 0a           	asl
    15b7: 64 12        	stz	$12                     ; 0x12 <__rc2>
    15b9: 26 12        	rol	$12                     ; 0x12 <__rc2>
    15bb: 0a           	asl
    15bc: 85 13        	sta	$13                     ; 0x13 <__rc3>
    15be: 26 12        	rol	$12                     ; 0x12 <__rc2>
    15c0: 0a           	asl
    15c1: a6 12        	ldx	$12                     ; 0x12 <__rc2>
    15c3: 86 14        	stx	$14                     ; 0x14 <__rc4>
    15c5: 26 14        	rol	$14                     ; 0x14 <__rc4>
    15c7: 0a           	asl
    15c8: 26 14        	rol	$14                     ; 0x14 <__rc4>
    15ca: 0a           	asl
    15cb: 26 14        	rol	$14                     ; 0x14 <__rc4>
    15cd: 38           	sec
    15ce: e5 13        	sbc	$13                     ; 0x13 <__rc3>
    15d0: 85 13        	sta	$13                     ; 0x13 <__rc3>
    15d2: a5 14        	lda	$14                     ; 0x14 <__rc4>
    15d4: e5 12        	sbc	$12                     ; 0x12 <__rc2>
    15d6: 85 12        	sta	$12                     ; 0x12 <__rc2>
    15d8: a9 a3        	lda	#$a3
    15da: 18           	clc
    15db: 65 13        	adc	$13                     ; 0x13 <__rc3>
    15dd: aa           	tax
    15de: a9 53        	lda	#$53
    15e0: 65 12        	adc	$12                     ; 0x12 <__rc2>
    15e2: 86 12        	stx	$12                     ; 0x12 <__rc2>
    15e4: 85 13        	sta	$13                     ; 0x13 <__rc3>
    15e6: a0 12        	ldy	#$12
    15e8: b1 12        	lda	($12),y                 ; 0x12 <__rc2>
    15ea: c9 24        	cmp	#$24
    15ec: f0 03        	beq	$15f1 <f256main+0xd9d>
    15ee: 4c 7c 16     	jmp	$167c <f256main+0xe28>
    15f1: ae b6 53     	ldx	$53b6                   ; 0x53b6 <dials+0x13>
    15f4: ac 6a 53     	ldy	$536a                   ; 0x536a <sliders_labels+0x4c>
    15f7: 84 24        	sty	$24                     ; 0x24 <__rc20>
    15f9: ad 77 53     	lda	$5377                   ; 0x5377 <sliders_labels+0x59>
    15fc: 86 12        	stx	$12                     ; 0x12 <__rc2>
    15fe: 64 13        	stz	$13                     ; 0x13 <__rc3>
    1600: a2 00        	ldx	#$0
    1602: 85 25        	sta	$25                     ; 0x25 <__rc21>
    1604: 20 04 4b     	jsr	$4b04 <__mulhi3>
    1607: a4 25        	ldy	$25                     ; 0x25 <__rc21>
    1609: 84 12        	sty	$12                     ; 0x12 <__rc2>
    160b: 64 13        	stz	$13                     ; 0x13 <__rc3>
    160d: 20 04 4b     	jsr	$4b04 <__mulhi3>
    1610: 86 12        	stx	$12                     ; 0x12 <__rc2>
    1612: a2 01        	ldx	#$1
    1614: 86 13        	stx	$13                     ; 0x13 <__rc3>
    1616: 64 14        	stz	$14                     ; 0x14 <__rc4>
    1618: a6 25        	ldx	$25                     ; 0x25 <__rc21>
    161a: 86 15        	stx	$15                     ; 0x15 <__rc5>
    161c: aa           	tax
    161d: a5 24        	lda	$24                     ; 0x24 <__rc20>
    161f: 20 30 30     	jsr	$3030 <spriteDefine>
    1622: ae 6a 53     	ldx	$536a                   ; 0x536a <sliders_labels+0x4c>
    1625: 8a           	txa
    1626: 0a           	asl
    1627: a8           	tay
    1628: a9 00        	lda	#$0
    162a: 2a           	rol
    162b: 84 12        	sty	$12                     ; 0x12 <__rc2>
    162d: 06 12        	asl	$12                     ; 0x12 <__rc2>
    162f: 2a           	rol
    1630: 06 12        	asl	$12                     ; 0x12 <__rc2>
    1632: 2a           	rol
    1633: a8           	tay
    1634: 18           	clc
    1635: a5 12        	lda	$12                     ; 0x12 <__rc2>
    1637: 69 00        	adc	#$0
    1639: 85 12        	sta	$12                     ; 0x12 <__rc2>
    163b: 98           	tya
    163c: 69 d9        	adc	#$d9
    163e: 85 13        	sta	$13                     ; 0x13 <__rc3>
    1640: a9 01        	lda	#$1
    1642: 15 39        	ora	$39,x                   ; 0x39 <_spriteCtl>
    1644: 92 12        	sta	($12)                   ; 0x12 <__rc2>
    1646: a5 7b        	lda	$7b                     ; 0x7b <diaAct>
    1648: 0a           	asl
    1649: 64 12        	stz	$12                     ; 0x12 <__rc2>
    164b: 26 12        	rol	$12                     ; 0x12 <__rc2>
    164d: 0a           	asl
    164e: 85 13        	sta	$13                     ; 0x13 <__rc3>
    1650: 26 12        	rol	$12                     ; 0x12 <__rc2>
    1652: 0a           	asl
    1653: a6 12        	ldx	$12                     ; 0x12 <__rc2>
    1655: 86 14        	stx	$14                     ; 0x14 <__rc4>
    1657: 26 14        	rol	$14                     ; 0x14 <__rc4>
    1659: 0a           	asl
    165a: 26 14        	rol	$14                     ; 0x14 <__rc4>
    165c: 0a           	asl
    165d: 26 14        	rol	$14                     ; 0x14 <__rc4>
    165f: 38           	sec
    1660: e5 13        	sbc	$13                     ; 0x13 <__rc3>
    1662: 85 13        	sta	$13                     ; 0x13 <__rc3>
    1664: a5 14        	lda	$14                     ; 0x14 <__rc4>
    1666: e5 12        	sbc	$12                     ; 0x12 <__rc2>
    1668: 85 12        	sta	$12                     ; 0x12 <__rc2>
    166a: a9 a3        	lda	#$a3
    166c: 18           	clc
    166d: 65 13        	adc	$13                     ; 0x13 <__rc3>
    166f: aa           	tax
    1670: a9 53        	lda	#$53
    1672: 65 12        	adc	$12                     ; 0x12 <__rc2>
    1674: 86 12        	stx	$12                     ; 0x12 <__rc2>
    1676: 85 13        	sta	$13                     ; 0x13 <__rc3>
    1678: a0 12        	ldy	#$12
    167a: b1 12        	lda	($12),y                 ; 0x12 <__rc2>
    167c: c9 25        	cmp	#$25
    167e: f0 03        	beq	$1683 <f256main+0xe2f>
    1680: 4c 35 17     	jmp	$1735 <f256main+0xee1>
    1683: ad d2 53     	lda	$53d2                   ; 0x53d2 <dials+0x2f>
    1686: 4a           	lsr
    1687: 4a           	lsr
    1688: 4a           	lsr
    1689: 4a           	lsr
    168a: ae 7d 53     	ldx	$537d                   ; 0x537d <sliders_labels+0x5f>
    168d: 86 24        	stx	$24                     ; 0x24 <__rc20>
    168f: ac 8a 53     	ldy	$538a                   ; 0x538a <sliders_labels+0x6c>
    1692: 85 12        	sta	$12                     ; 0x12 <__rc2>
    1694: 64 13        	stz	$13                     ; 0x13 <__rc3>
    1696: a2 00        	ldx	#$0
    1698: 98           	tya
    1699: 84 25        	sty	$25                     ; 0x25 <__rc21>
    169b: 20 04 4b     	jsr	$4b04 <__mulhi3>
    169e: a4 25        	ldy	$25                     ; 0x25 <__rc21>
    16a0: 84 12        	sty	$12                     ; 0x12 <__rc2>
    16a2: 64 13        	stz	$13                     ; 0x13 <__rc3>
    16a4: 20 04 4b     	jsr	$4b04 <__mulhi3>
    16a7: 86 12        	stx	$12                     ; 0x12 <__rc2>
    16a9: a2 01        	ldx	#$1
    16ab: 86 13        	stx	$13                     ; 0x13 <__rc3>
    16ad: 64 14        	stz	$14                     ; 0x14 <__rc4>
    16af: a6 25        	ldx	$25                     ; 0x25 <__rc21>
    16b1: 86 15        	stx	$15                     ; 0x15 <__rc5>
    16b3: aa           	tax
    16b4: a5 24        	lda	$24                     ; 0x24 <__rc20>
    16b6: 20 30 30     	jsr	$3030 <spriteDefine>
    16b9: ae 7d 53     	ldx	$537d                   ; 0x537d <sliders_labels+0x5f>
    16bc: 8a           	txa
    16bd: 0a           	asl
    16be: a8           	tay
    16bf: a9 00        	lda	#$0
    16c1: 2a           	rol
    16c2: 84 12        	sty	$12                     ; 0x12 <__rc2>
    16c4: 06 12        	asl	$12                     ; 0x12 <__rc2>
    16c6: 2a           	rol
    16c7: 06 12        	asl	$12                     ; 0x12 <__rc2>
    16c9: 2a           	rol
    16ca: a8           	tay
    16cb: 18           	clc
    16cc: a5 12        	lda	$12                     ; 0x12 <__rc2>
    16ce: 69 00        	adc	#$0
    16d0: 85 12        	sta	$12                     ; 0x12 <__rc2>
    16d2: 98           	tya
    16d3: 69 d9        	adc	#$d9
    16d5: 85 13        	sta	$13                     ; 0x13 <__rc3>
    16d7: a9 01        	lda	#$1
    16d9: 15 39        	ora	$39,x                   ; 0x39 <_spriteCtl>
    16db: 92 12        	sta	($12)                   ; 0x12 <__rc2>
    16dd: a9 0f        	lda	#$f
    16df: 2d d2 53     	and	$53d2                   ; 0x53d2 <dials+0x2f>
    16e2: ae 90 53     	ldx	$5390                   ; 0x5390 <sliders_labels+0x72>
    16e5: 86 24        	stx	$24                     ; 0x24 <__rc20>
    16e7: ac 9d 53     	ldy	$539d                   ; 0x539d <sliders_labels+0x7f>
    16ea: 85 12        	sta	$12                     ; 0x12 <__rc2>
    16ec: 64 13        	stz	$13                     ; 0x13 <__rc3>
    16ee: a2 00        	ldx	#$0
    16f0: 98           	tya
    16f1: 84 25        	sty	$25                     ; 0x25 <__rc21>
    16f3: 20 04 4b     	jsr	$4b04 <__mulhi3>
    16f6: a4 25        	ldy	$25                     ; 0x25 <__rc21>
    16f8: 84 12        	sty	$12                     ; 0x12 <__rc2>
    16fa: 64 13        	stz	$13                     ; 0x13 <__rc3>
    16fc: 20 04 4b     	jsr	$4b04 <__mulhi3>
    16ff: 86 12        	stx	$12                     ; 0x12 <__rc2>
    1701: a2 01        	ldx	#$1
    1703: 86 13        	stx	$13                     ; 0x13 <__rc3>
    1705: 64 14        	stz	$14                     ; 0x14 <__rc4>
    1707: a6 25        	ldx	$25                     ; 0x25 <__rc21>
    1709: 86 15        	stx	$15                     ; 0x15 <__rc5>
    170b: aa           	tax
    170c: a5 24        	lda	$24                     ; 0x24 <__rc20>
    170e: 20 30 30     	jsr	$3030 <spriteDefine>
    1711: ae 90 53     	ldx	$5390                   ; 0x5390 <sliders_labels+0x72>
    1714: 8a           	txa
    1715: 0a           	asl
    1716: a8           	tay
    1717: a9 00        	lda	#$0
    1719: 2a           	rol
    171a: 84 12        	sty	$12                     ; 0x12 <__rc2>
    171c: 06 12        	asl	$12                     ; 0x12 <__rc2>
    171e: 2a           	rol
    171f: 06 12        	asl	$12                     ; 0x12 <__rc2>
    1721: 2a           	rol
    1722: a8           	tay
    1723: 18           	clc
    1724: a5 12        	lda	$12                     ; 0x12 <__rc2>
    1726: 69 00        	adc	#$0
    1728: 85 12        	sta	$12                     ; 0x12 <__rc2>
    172a: 98           	tya
    172b: 69 d9        	adc	#$d9
    172d: 85 13        	sta	$13                     ; 0x13 <__rc3>
    172f: a9 01        	lda	#$1
    1731: 15 39        	ora	$39,x                   ; 0x39 <_spriteCtl>
    1733: 92 12        	sta	($12)                   ; 0x12 <__rc2>
    1735: a6 36        	ldx	$36                     ; 0x36 <kernelEventData+0x6>
    1737: a9 01        	lda	#$1
    1739: 25 36        	and	$36                     ; 0x36 <kernelEventData+0x6>
    173b: f0 03        	beq	$1740 <f256main+0xeec>
    173d: 4c 8c 1a     	jmp	$1a8c <f256main+0x1238>
    1740: a0 01        	ldy	#$1
    1742: b1 10        	lda	($10),y                 ; 0x10 <__rc0>
    1744: 85 12        	sta	$12                     ; 0x12 <__rc2>
    1746: a5 12        	lda	$12                     ; 0x12 <__rc2>
    1748: f0 03        	beq	$174d <f256main+0xef9>
    174a: 4c e6 0b     	jmp	$be6 <f256main+0x392>
    174d: 4c 69 1b     	jmp	$1b69 <f256main+0x1315>
    1750: a2 90        	ldx	#$90
    1752: 8e b1 dd     	stx	$ddb1                   ; 0xddb1 <end_block9+0x89a7>
    1755: a6 2f        	ldx	$2f                     ; 0x2f <__rc31>
    1757: 8e b1 dd     	stx	$ddb1                   ; 0xddb1 <end_block9+0x89a7>
    175a: a2 7f        	ldx	#$7f
    175c: 8e b1 dd     	stx	$ddb1                   ; 0xddb1 <end_block9+0x89a7>
    175f: a5 14        	lda	$14                     ; 0x14 <__rc4>
    1761: d0 19        	bne	$177c <f256main+0xf28>
    1763: 4c 7f 19     	jmp	$197f <f256main+0x112b>
    1766: a5 14        	lda	$14                     ; 0x14 <__rc4>
    1768: d0 03        	bne	$176d <f256main+0xf19>
    176a: 4c 70 19     	jmp	$1970 <f256main+0x111c>
    176d: a2 90        	ldx	#$90
    176f: 8e b1 dd     	stx	$ddb1                   ; 0xddb1 <end_block9+0x89a7>
    1772: a6 2f        	ldx	$2f                     ; 0x2f <__rc31>
    1774: 8e b1 dd     	stx	$ddb1                   ; 0xddb1 <end_block9+0x89a7>
    1777: a2 7f        	ldx	#$7f
    1779: 8e b1 dd     	stx	$ddb1                   ; 0xddb1 <end_block9+0x89a7>
    177c: e6 89        	inc	$89                     ; 0x89 <chipAct.1>
    177e: 4c 8b 0c     	jmp	$c8b <f256main+0x437>
    1781: a2 00        	ldx	#$0
    1783: 4c ed 0d     	jmp	$ded <f256main+0x599>
    1786: 84 13        	sty	$13                     ; 0x13 <__rc3>
    1788: 4c f9 0d     	jmp	$df9 <f256main+0x5a5>
    178b: a9 00        	lda	#$0
    178d: 4c 95 0d     	jmp	$d95 <f256main+0x541>
    1790: a2 01        	ldx	#$1
    1792: 5a           	phy
    1793: 8a           	txa
    1794: a0 02        	ldy	#$2
    1796: 91 10        	sta	($10),y                 ; 0x10 <__rc0>
    1798: a5 16        	lda	$16                     ; 0x16 <__rc6>
    179a: 64 12        	stz	$12                     ; 0x12 <__rc2>
    179c: 48           	pha
    179d: a9 00        	lda	#$0
    179f: a0 04        	ldy	#$4
    17a1: 91 10        	sta	($10),y                 ; 0x10 <__rc0>
    17a3: 8a           	txa
    17a4: a0 03        	ldy	#$3
    17a6: 91 10        	sta	($10),y                 ; 0x10 <__rc0>
    17a8: 68           	pla
    17a9: a0 00        	ldy	#$0
    17ab: 4c 7b 0d     	jmp	$d7b <f256main+0x527>
    17ae: a6 26        	ldx	$26                     ; 0x26 <__rc22>
    17b0: a5 14        	lda	$14                     ; 0x14 <__rc4>
    17b2: 10 03        	bpl	$17b7 <f256main+0xf63>
    17b4: 4c 84 19     	jmp	$1984 <f256main+0x1130>
    17b7: 5a           	phy
    17b8: a0 00        	ldy	#$0
    17ba: b1 10        	lda	($10),y                 ; 0x10 <__rc0>
    17bc: 7a           	ply
    17bd: 29 f0        	and	#$f0
    17bf: c9 80        	cmp	#$80
    17c1: f0 07        	beq	$17ca <f256main+0xf76>
    17c3: c9 90        	cmp	#$90
    17c5: f0 03        	beq	$17ca <f256main+0xf76>
    17c7: 4c 2c 1c     	jmp	$1c2c <f256main+0x13d8>
    17ca: 64 12        	stz	$12                     ; 0x12 <__rc2>
    17cc: 5a           	phy
    17cd: a9 00        	lda	#$0
    17cf: a0 02        	ldy	#$2
    17d1: 91 10        	sta	($10),y                 ; 0x10 <__rc0>
    17d3: a2 01        	ldx	#$1
    17d5: 8a           	txa
    17d6: a0 04        	ldy	#$4
    17d8: 91 10        	sta	($10),y                 ; 0x10 <__rc0>
    17da: 88           	dey
    17db: 91 10        	sta	($10),y                 ; 0x10 <__rc0>
    17dd: 7a           	ply
    17de: a6 26        	ldx	$26                     ; 0x26 <__rc22>
    17e0: 4c 3b 1c     	jmp	$1c3b <f256main+0x13e7>
    17e3: a2 00        	ldx	#$0
    17e5: a4 2f        	ldy	$2f                     ; 0x2f <__rc31>
    17e7: 84 12        	sty	$12                     ; 0x12 <__rc2>
    17e9: 4c b3 0c     	jmp	$cb3 <f256main+0x45f>
    17ec: a2 00        	ldx	#$0
    17ee: a4 2f        	ldy	$2f                     ; 0x2f <__rc31>
    17f0: 84 12        	sty	$12                     ; 0x12 <__rc2>
    17f2: 4c c4 0c     	jmp	$cc4 <f256main+0x470>
    17f5: a2 00        	ldx	#$0
    17f7: a4 2f        	ldy	$2f                     ; 0x2f <__rc31>
    17f9: 84 12        	sty	$12                     ; 0x12 <__rc2>
    17fb: 4c d5 0c     	jmp	$cd5 <f256main+0x481>
    17fe: a5 14        	lda	$14                     ; 0x14 <__rc4>
    1800: d0 03        	bne	$1805 <f256main+0xfb1>
    1802: 4c 10 1c     	jmp	$1c10 <f256main+0x13bc>
    1805: a2 80        	ldx	#$80
    1807: 8e b1 dd     	stx	$ddb1                   ; 0xddb1 <end_block9+0x89a7>
    180a: a6 2f        	ldx	$2f                     ; 0x2f <__rc31>
    180c: 8e b1 dd     	stx	$ddb1                   ; 0xddb1 <end_block9+0x89a7>
    180f: a2 7f        	ldx	#$7f
    1811: 8e b1 dd     	stx	$ddb1                   ; 0xddb1 <end_block9+0x89a7>
    1814: a6 89        	ldx	$89                     ; 0x89 <chipAct.1>
    1816: d0 03        	bne	$181b <f256main+0xfc7>
    1818: 4c 71 0d     	jmp	$d71 <f256main+0x51d>
    181b: ca           	dex
    181c: 86 89        	stx	$89                     ; 0x89 <chipAct.1>
    181e: 4c 71 0d     	jmp	$d71 <f256main+0x51d>
    1821: a5 2f        	lda	$2f                     ; 0x2f <__rc31>
    1823: 18           	clc
    1824: 69 05        	adc	#$5
    1826: a8           	tay
    1827: a9 00        	lda	#$0
    1829: 69 00        	adc	#$0
    182b: 18           	clc
    182c: 48           	pha
    182d: a5 10        	lda	$10                     ; 0x10 <__rc0>
    182f: 69 06        	adc	#$6
    1831: 85 24        	sta	$24                     ; 0x24 <__rc20>
    1833: a5 11        	lda	$11                     ; 0x11 <__rc1>
    1835: 69 00        	adc	#$0
    1837: 85 25        	sta	$25                     ; 0x25 <__rc21>
    1839: 68           	pla
    183a: a6 24        	ldx	$24                     ; 0x24 <__rc20>
    183c: 86 14        	stx	$14                     ; 0x14 <__rc4>
    183e: a6 25        	ldx	$25                     ; 0x25 <__rc21>
    1840: 86 15        	stx	$15                     ; 0x15 <__rc5>
    1842: a2 0c        	ldx	#$c
    1844: 86 12        	stx	$12                     ; 0x12 <__rc2>
    1846: 64 13        	stz	$13                     ; 0x13 <__rc3>
    1848: aa           	tax
    1849: 98           	tya
    184a: 20 66 4c     	jsr	$4c66 <__udivmodhi4>
    184d: aa           	tax
    184e: b2 24        	lda	($24)                   ; 0x24 <__rc20>
    1850: 85 12        	sta	$12                     ; 0x12 <__rc2>
    1852: a0 01        	ldy	#$1
    1854: b1 24        	lda	($24),y                 ; 0x24 <__rc20>
    1856: 06 12        	asl	$12                     ; 0x12 <__rc2>
    1858: 2a           	rol
    1859: 85 13        	sta	$13                     ; 0x13 <__rc3>
    185b: a9 2d        	lda	#$2d
    185d: 18           	clc
    185e: 65 12        	adc	$12                     ; 0x12 <__rc2>
    1860: 85 12        	sta	$12                     ; 0x12 <__rc2>
    1862: a9 4f        	lda	#$4f
    1864: 65 13        	adc	$13                     ; 0x13 <__rc3>
    1866: 85 13        	sta	$13                     ; 0x13 <__rc3>
    1868: b2 12        	lda	($12)                   ; 0x12 <__rc2>
    186a: 85 16        	sta	$16                     ; 0x16 <__rc6>
    186c: 18           	clc
    186d: 8a           	txa
    186e: 69 3e        	adc	#$3e
    1870: 85 15        	sta	$15                     ; 0x15 <__rc5>
    1872: a6 2e        	ldx	$2e                     ; 0x2e <__rc30>
    1874: 86 14        	stx	$14                     ; 0x14 <__rc4>
    1876: 86 17        	stx	$17                     ; 0x17 <__rc7>
    1878: 8a           	txa
    1879: 09 a0        	ora	#$a0
    187b: aa           	tax
    187c: b1 12        	lda	($12),y                 ; 0x12 <__rc2>
    187e: 85 12        	sta	$12                     ; 0x12 <__rc2>
    1880: a4 27        	ldy	$27                     ; 0x27 <__rc23>
    1882: 8e 80 d5     	stx	$d580                   ; 0xd580 <end_block9+0x8176>
    1885: a5 16        	lda	$16                     ; 0x16 <__rc6>
    1887: 8d 81 d5     	sta	$d581                   ; 0xd581 <end_block9+0x8177>
    188a: a5 14        	lda	$14                     ; 0x14 <__rc4>
    188c: 09 b0        	ora	#$b0
    188e: 85 13        	sta	$13                     ; 0x13 <__rc3>
    1890: a5 12        	lda	$12                     ; 0x12 <__rc2>
    1892: 29 03        	and	#$3
    1894: 85 12        	sta	$12                     ; 0x12 <__rc2>
    1896: 06 15        	asl	$15                     ; 0x15 <__rc5>
    1898: a5 13        	lda	$13                     ; 0x13 <__rc3>
    189a: 8d 80 d5     	sta	$d580                   ; 0xd580 <end_block9+0x8176>
    189d: a5 15        	lda	$15                     ; 0x15 <__rc5>
    189f: 0a           	asl
    18a0: 05 12        	ora	$12                     ; 0x12 <__rc2>
    18a2: 09 20        	ora	#$20
    18a4: 8d 81 d5     	sta	$d581                   ; 0xd581 <end_block9+0x8177>
    18a7: a5 2f        	lda	$2f                     ; 0x2f <__rc31>
    18a9: a6 17        	ldx	$17                     ; 0x17 <__rc7>
    18ab: 9d 99 00     	sta	$99,x                   ; 0x99 <polyOPL3Buffer>
    18ae: e6 8c        	inc	$8c                     ; 0x8c <chipAct.4>
    18b0: 4c 8b 0c     	jmp	$c8b <f256main+0x437>
    18b3: e0 03        	cpx	#$3
    18b5: a0 d5        	ldy	#$d5
    18b7: b0 02        	bcs	$18bb <f256main+0x1067>
    18b9: a0 d4        	ldy	#$d4
    18bb: 84 16        	sty	$16                     ; 0x16 <__rc6>
    18bd: bc 21 4f     	ldy	$4f21,x                 ; 0x4f21 <sidChoiceToVoice>
    18c0: 84 14        	sty	$14                     ; 0x14 <__rc4>
    18c2: a4 2f        	ldy	$2f                     ; 0x2f <__rc31>
    18c4: b9 e7 4f     	lda	$4fe7,y                 ; 0x4fe7 <sid_instrument_defs+0x22>
    18c7: 5a           	phy
    18c8: a4 14        	ldy	$14                     ; 0x14 <__rc4>
    18ca: 84 12        	sty	$12                     ; 0x12 <__rc2>
    18cc: a4 16        	ldy	$16                     ; 0x16 <__rc6>
    18ce: 84 13        	sty	$13                     ; 0x13 <__rc3>
    18d0: 7a           	ply
    18d1: 92 12        	sta	($12)                   ; 0x12 <__rc2>
    18d3: b9 83 4e     	lda	$4e83,y                 ; 0x4e83 <noteColors+0x7d>
    18d6: 85 13        	sta	$13                     ; 0x13 <__rc3>
    18d8: 84 18        	sty	$18                     ; 0x18 <__rc8>
    18da: a5 14        	lda	$14                     ; 0x14 <__rc4>
    18dc: a4 14        	ldy	$14                     ; 0x14 <__rc4>
    18de: 85 17        	sta	$17                     ; 0x17 <__rc7>
    18e0: a5 16        	lda	$16                     ; 0x16 <__rc6>
    18e2: 85 12        	sta	$12                     ; 0x12 <__rc2>
    18e4: c8           	iny
    18e5: d0 02        	bne	$18e9 <f256main+0x1095>
    18e7: e6 12        	inc	$12                     ; 0x12 <__rc2>
    18e9: 84 14        	sty	$14                     ; 0x14 <__rc4>
    18eb: a4 12        	ldy	$12                     ; 0x12 <__rc2>
    18ed: 84 15        	sty	$15                     ; 0x15 <__rc5>
    18ef: a5 13        	lda	$13                     ; 0x13 <__rc3>
    18f1: 92 14        	sta	($14)                   ; 0x14 <__rc4>
    18f3: 18           	clc
    18f4: a5 17        	lda	$17                     ; 0x17 <__rc7>
    18f6: 69 04        	adc	#$4
    18f8: 85 12        	sta	$12                     ; 0x12 <__rc2>
    18fa: a5 16        	lda	$16                     ; 0x16 <__rc6>
    18fc: 69 00        	adc	#$0
    18fe: 85 13        	sta	$13                     ; 0x13 <__rc3>
    1900: a5 a2        	lda	$a2                     ; 0xa2 <gPtr>
    1902: a4 a3        	ldy	$a3                     ; 0xa3 <gPtr+0x1>
    1904: 85 14        	sta	$14                     ; 0x14 <__rc4>
    1906: 84 15        	sty	$15                     ; 0x15 <__rc5>
    1908: 18           	clc
    1909: 69 04        	adc	#$4
    190b: 85 16        	sta	$16                     ; 0x16 <__rc6>
    190d: 98           	tya
    190e: 69 00        	adc	#$0
    1910: 85 17        	sta	$17                     ; 0x17 <__rc7>
    1912: a0 04        	ldy	#$4
    1914: b1 14        	lda	($14),y                 ; 0x14 <__rc4>
    1916: 85 14        	sta	$14                     ; 0x14 <__rc4>
    1918: a0 01        	ldy	#$1
    191a: b1 16        	lda	($16),y                 ; 0x16 <__rc6>
    191c: 85 15        	sta	$15                     ; 0x15 <__rc5>
    191e: 98           	tya
    191f: a0 05        	ldy	#$5
    1921: 11 14        	ora	($14),y                 ; 0x14 <__rc4>
    1923: 92 12        	sta	($12)                   ; 0x12 <__rc2>
    1925: a5 18        	lda	$18                     ; 0x18 <__rc8>
    1927: 9d 8d 00     	sta	$8d,x                   ; 0x8d <polySIDBuffer>
    192a: e6 8a        	inc	$8a                     ; 0x8a <chipAct.2>
    192c: 4c 51 0d     	jmp	$d51 <f256main+0x4fd>
    192f: bd 27 4f     	lda	$4f27,x                 ; 0x4f27 <polyPSGChanBits>
    1932: 85 12        	sta	$12                     ; 0x12 <__rc2>
    1934: e0 03        	cpx	#$3
    1936: 09 90        	ora	#$90
    1938: 85 13        	sta	$13                     ; 0x13 <__rc3>
    193a: a0 10        	ldy	#$10
    193c: 84 14        	sty	$14                     ; 0x14 <__rc4>
    193e: a0 d6        	ldy	#$d6
    1940: 84 15        	sty	$15                     ; 0x15 <__rc5>
    1942: b0 08        	bcs	$194c <f256main+0x10f8>
    1944: a0 00        	ldy	#$0
    1946: 84 14        	sty	$14                     ; 0x14 <__rc4>
    1948: a0 d6        	ldy	#$d6
    194a: 84 15        	sty	$15                     ; 0x15 <__rc5>
    194c: a4 2f        	ldy	$2f                     ; 0x2f <__rc31>
    194e: b9 18 4f     	lda	$4f18,y                 ; 0x4f18 <sidHigh+0x8a>
    1951: 85 17        	sta	$17                     ; 0x17 <__rc7>
    1953: b9 58 4f     	lda	$4f58,y                 ; 0x4f58 <psgLow+0x13>
    1956: 85 16        	sta	$16                     ; 0x16 <__rc6>
    1958: a5 13        	lda	$13                     ; 0x13 <__rc3>
    195a: 92 14        	sta	($14)                   ; 0x14 <__rc4>
    195c: a5 17        	lda	$17                     ; 0x17 <__rc7>
    195e: 05 12        	ora	$12                     ; 0x12 <__rc2>
    1960: 92 14        	sta	($14)                   ; 0x14 <__rc4>
    1962: a5 16        	lda	$16                     ; 0x16 <__rc6>
    1964: 92 14        	sta	($14)                   ; 0x14 <__rc4>
    1966: a5 2f        	lda	$2f                     ; 0x2f <__rc31>
    1968: 9d 93 00     	sta	$93,x                   ; 0x93 <polyPSGBuffer>
    196b: e6 8b        	inc	$8b                     ; 0x8b <chipAct.3>
    196d: 4c 51 0d     	jmp	$d51 <f256main+0x4fd>
    1970: a2 90        	ldx	#$90
    1972: 8e a1 dd     	stx	$dda1                   ; 0xdda1 <end_block9+0x8997>
    1975: a6 2f        	ldx	$2f                     ; 0x2f <__rc31>
    1977: 8e a1 dd     	stx	$dda1                   ; 0xdda1 <end_block9+0x8997>
    197a: a2 7f        	ldx	#$7f
    197c: 8e a1 dd     	stx	$dda1                   ; 0xdda1 <end_block9+0x8997>
    197f: e6 88        	inc	$88                     ; 0x88 <chipAct.0>
    1981: 4c 8b 0c     	jmp	$c8b <f256main+0x437>
    1984: 64 12        	stz	$12                     ; 0x12 <__rc2>
    1986: 5a           	phy
    1987: a9 00        	lda	#$0
    1989: a0 02        	ldy	#$2
    198b: 91 10        	sta	($10),y                 ; 0x10 <__rc0>
    198d: a0 04        	ldy	#$4
    198f: 91 10        	sta	($10),y                 ; 0x10 <__rc0>
    1991: 7a           	ply
    1992: 4c 80 0d     	jmp	$d80 <f256main+0x52c>
    1995: 64 12        	stz	$12                     ; 0x12 <__rc2>
    1997: e0 03        	cpx	#$3
    1999: b0 03        	bcs	$199e <f256main+0x114a>
    199b: 4c 42 1c     	jmp	$1c42 <f256main+0x13ee>
    199e: a0 d5        	ldy	#$d5
    19a0: 86 13        	stx	$13                     ; 0x13 <__rc3>
    19a2: 4c 46 1c     	jmp	$1c46 <f256main+0x13f2>
    19a5: 64 12        	stz	$12                     ; 0x12 <__rc2>
    19a7: 74 93        	stz	$93,x                   ; 0x93 <polyPSGBuffer>
    19a9: bd 27 4f     	lda	$4f27,x                 ; 0x4f27 <polyPSGChanBits>
    19ac: e0 03        	cpx	#$3
    19ae: a4 27        	ldy	$27                     ; 0x27 <__rc23>
    19b0: b0 03        	bcs	$19b5 <f256main+0x1161>
    19b2: 4c 77 1a     	jmp	$1a77 <f256main+0x1223>
    19b5: a2 10        	ldx	#$10
    19b7: 86 12        	stx	$12                     ; 0x12 <__rc2>
    19b9: 4c 77 1a     	jmp	$1a77 <f256main+0x1223>
    19bc: a2 ff        	ldx	#$ff
    19be: 86 2e        	stx	$2e                     ; 0x2e <__rc30>
    19c0: a5 2f        	lda	$2f                     ; 0x2f <__rc31>
    19c2: 18           	clc
    19c3: 69 05        	adc	#$5
    19c5: a8           	tay
    19c6: a9 00        	lda	#$0
    19c8: 69 00        	adc	#$0
    19ca: 18           	clc
    19cb: 48           	pha
    19cc: a5 10        	lda	$10                     ; 0x10 <__rc0>
    19ce: 69 08        	adc	#$8
    19d0: 85 24        	sta	$24                     ; 0x24 <__rc20>
    19d2: a5 11        	lda	$11                     ; 0x11 <__rc1>
    19d4: 69 00        	adc	#$0
    19d6: 85 25        	sta	$25                     ; 0x25 <__rc21>
    19d8: 68           	pla
    19d9: a6 24        	ldx	$24                     ; 0x24 <__rc20>
    19db: 86 14        	stx	$14                     ; 0x14 <__rc4>
    19dd: a6 25        	ldx	$25                     ; 0x25 <__rc21>
    19df: 86 15        	stx	$15                     ; 0x15 <__rc5>
    19e1: a2 0c        	ldx	#$c
    19e3: 86 12        	stx	$12                     ; 0x12 <__rc2>
    19e5: 64 13        	stz	$13                     ; 0x13 <__rc3>
    19e7: aa           	tax
    19e8: 98           	tya
    19e9: 20 66 4c     	jsr	$4c66 <__udivmodhi4>
    19ec: aa           	tax
    19ed: b2 24        	lda	($24)                   ; 0x24 <__rc20>
    19ef: 85 12        	sta	$12                     ; 0x12 <__rc2>
    19f1: a0 01        	ldy	#$1
    19f3: b1 24        	lda	($24),y                 ; 0x24 <__rc20>
    19f5: 06 12        	asl	$12                     ; 0x12 <__rc2>
    19f7: 2a           	rol
    19f8: 85 13        	sta	$13                     ; 0x13 <__rc3>
    19fa: a9 2d        	lda	#$2d
    19fc: 18           	clc
    19fd: 65 12        	adc	$12                     ; 0x12 <__rc2>
    19ff: 85 12        	sta	$12                     ; 0x12 <__rc2>
    1a01: a9 4f        	lda	#$4f
    1a03: 65 13        	adc	$13                     ; 0x13 <__rc3>
    1a05: 85 13        	sta	$13                     ; 0x13 <__rc3>
    1a07: b2 12        	lda	($12)                   ; 0x12 <__rc2>
    1a09: 85 14        	sta	$14                     ; 0x14 <__rc4>
    1a0b: b1 12        	lda	($12),y                 ; 0x12 <__rc2>
    1a0d: 85 12        	sta	$12                     ; 0x12 <__rc2>
    1a0f: 18           	clc
    1a10: 8a           	txa
    1a11: 69 3e        	adc	#$3e
    1a13: aa           	tax
    1a14: a5 2e        	lda	$2e                     ; 0x2e <__rc30>
    1a16: 09 a0        	ora	#$a0
    1a18: 8d 80 d5     	sta	$d580                   ; 0xd580 <end_block9+0x8176>
    1a1b: a5 14        	lda	$14                     ; 0x14 <__rc4>
    1a1d: 8d 81 d5     	sta	$d581                   ; 0xd581 <end_block9+0x8177>
    1a20: a5 2e        	lda	$2e                     ; 0x2e <__rc30>
    1a22: 09 b0        	ora	#$b0
    1a24: 85 13        	sta	$13                     ; 0x13 <__rc3>
    1a26: a5 12        	lda	$12                     ; 0x12 <__rc2>
    1a28: 29 03        	and	#$3
    1a2a: 85 12        	sta	$12                     ; 0x12 <__rc2>
    1a2c: 8a           	txa
    1a2d: 0a           	asl
    1a2e: a6 13        	ldx	$13                     ; 0x13 <__rc3>
    1a30: 8e 80 d5     	stx	$d580                   ; 0xd580 <end_block9+0x8176>
    1a33: 0a           	asl
    1a34: 05 12        	ora	$12                     ; 0x12 <__rc2>
    1a36: 8d 81 d5     	sta	$d581                   ; 0xd581 <end_block9+0x8177>
    1a39: a5 2e        	lda	$2e                     ; 0x2e <__rc30>
    1a3b: 10 06        	bpl	$1a43 <f256main+0x11ef>
    1a3d: a2 ff        	ldx	#$ff
    1a3f: 86 12        	stx	$12                     ; 0x12 <__rc2>
    1a41: 80 02        	bra	$1a45 <f256main+0x11f1>
    1a43: 64 12        	stz	$12                     ; 0x12 <__rc2>
    1a45: a4 27        	ldy	$27                     ; 0x27 <__rc23>
    1a47: a9 99        	lda	#$99
    1a49: 18           	clc
    1a4a: 65 2e        	adc	$2e                     ; 0x2e <__rc30>
    1a4c: aa           	tax
    1a4d: a9 00        	lda	#$0
    1a4f: 65 12        	adc	$12                     ; 0x12 <__rc2>
    1a51: 86 12        	stx	$12                     ; 0x12 <__rc2>
    1a53: 85 13        	sta	$13                     ; 0x13 <__rc3>
    1a55: a9 00        	lda	#$0
    1a57: 92 12        	sta	($12)                   ; 0x12 <__rc2>
    1a59: a6 8c        	ldx	$8c                     ; 0x8c <chipAct.4>
    1a5b: d0 03        	bne	$1a60 <f256main+0x120c>
    1a5d: 4c 71 0d     	jmp	$d71 <f256main+0x51d>
    1a60: ca           	dex
    1a61: 86 8c        	stx	$8c                     ; 0x8c <chipAct.4>
    1a63: 4c 71 0d     	jmp	$d71 <f256main+0x51d>
    1a66: a0 d4        	ldy	#$d4
    1a68: a2 ff        	ldx	#$ff
    1a6a: 86 13        	stx	$13                     ; 0x13 <__rc3>
    1a6c: 86 12        	stx	$12                     ; 0x12 <__rc2>
    1a6e: 4c 46 1c     	jmp	$1c46 <f256main+0x13f2>
    1a71: 64 12        	stz	$12                     ; 0x12 <__rc2>
    1a73: 64 92        	stz	$92                     ; 0x92 <polySIDBuffer+0x5>
    1a75: a4 27        	ldy	$27                     ; 0x27 <__rc23>
    1a77: a2 d6        	ldx	#$d6
    1a79: 86 13        	stx	$13                     ; 0x13 <__rc3>
    1a7b: 09 9f        	ora	#$9f
    1a7d: 92 12        	sta	($12)                   ; 0x12 <__rc2>
    1a7f: a6 8b        	ldx	$8b                     ; 0x8b <chipAct.3>
    1a81: d0 03        	bne	$1a86 <f256main+0x1232>
    1a83: 4c 71 0d     	jmp	$d71 <f256main+0x51d>
    1a86: ca           	dex
    1a87: 86 8b        	stx	$8b                     ; 0x8b <chipAct.3>
    1a89: 4c 71 0d     	jmp	$d71 <f256main+0x51d>
    1a8c: a0 01        	ldy	#$1
    1a8e: b1 10        	lda	($10),y                 ; 0x10 <__rc0>
    1a90: 85 12        	sta	$12                     ; 0x12 <__rc2>
    1a92: a5 12        	lda	$12                     ; 0x12 <__rc2>
    1a94: d0 03        	bne	$1a99 <f256main+0x1245>
    1a96: 4c 69 1b     	jmp	$1b69 <f256main+0x1315>
    1a99: a5 84        	lda	$84                     ; 0x84 <mX>
    1a9b: a6 85        	ldx	$85                     ; 0x85 <mX+0x1>
    1a9d: 86 12        	stx	$12                     ; 0x12 <__rc2>
    1a9f: e0 80        	cpx	#$80
    1aa1: 66 12        	ror	$12                     ; 0x12 <__rc2>
    1aa3: 6a           	ror
    1aa4: 18           	clc
    1aa5: 69 20        	adc	#$20
    1aa7: a8           	tay
    1aa8: a5 12        	lda	$12                     ; 0x12 <__rc2>
    1aaa: 69 00        	adc	#$0
    1aac: 85 27        	sta	$27                     ; 0x27 <__rc23>
    1aae: a6 86        	ldx	$86                     ; 0x86 <mY>
    1ab0: 86 12        	stx	$12                     ; 0x12 <__rc2>
    1ab2: a5 87        	lda	$87                     ; 0x87 <mY+0x1>
    1ab4: c9 80        	cmp	#$80
    1ab6: 6a           	ror
    1ab7: aa           	tax
    1ab8: a5 12        	lda	$12                     ; 0x12 <__rc2>
    1aba: 6a           	ror
    1abb: 18           	clc
    1abc: 69 20        	adc	#$20
    1abe: 85 2c        	sta	$2c                     ; 0x2c <__rc28>
    1ac0: 8a           	txa
    1ac1: 69 00        	adc	#$0
    1ac3: 85 2d        	sta	$2d                     ; 0x2d <__rc29>
    1ac5: a2 06        	ldx	#$6
    1ac7: 86 24        	stx	$24                     ; 0x24 <__rc20>
    1ac9: a2 52        	ldx	#$52
    1acb: 86 25        	stx	$25                     ; 0x25 <__rc21>
    1acd: a2 08        	ldx	#$8
    1acf: a5 24        	lda	$24                     ; 0x24 <__rc20>
    1ad1: 85 14        	sta	$14                     ; 0x14 <__rc4>
    1ad3: a5 25        	lda	$25                     ; 0x25 <__rc21>
    1ad5: 85 15        	sta	$15                     ; 0x15 <__rc5>
    1ad7: a5 2c        	lda	$2c                     ; 0x2c <__rc28>
    1ad9: 85 12        	sta	$12                     ; 0x12 <__rc2>
    1adb: a5 2d        	lda	$2d                     ; 0x2d <__rc29>
    1add: 85 13        	sta	$13                     ; 0x13 <__rc3>
    1adf: 86 28        	stx	$28                     ; 0x28 <__rc24>
    1ae1: a6 27        	ldx	$27                     ; 0x27 <__rc23>
    1ae3: 84 26        	sty	$26                     ; 0x26 <__rc22>
    1ae5: 98           	tya
    1ae6: 20 cf 1c     	jsr	$1ccf <checkUIEClick>
    1ae9: a6 28        	ldx	$28                     ; 0x28 <__rc24>
    1aeb: a5 24        	lda	$24                     ; 0x24 <__rc20>
    1aed: 18           	clc
    1aee: 69 15        	adc	#$15
    1af0: 85 24        	sta	$24                     ; 0x24 <__rc20>
    1af2: a5 25        	lda	$25                     ; 0x25 <__rc21>
    1af4: 69 00        	adc	#$0
    1af6: a4 26        	ldy	$26                     ; 0x26 <__rc22>
    1af8: 85 25        	sta	$25                     ; 0x25 <__rc21>
    1afa: ca           	dex
    1afb: d0 d2        	bne	$1acf <f256main+0x127b>
    1afd: a2 ae        	ldx	#$ae
    1aff: 86 24        	stx	$24                     ; 0x24 <__rc20>
    1b01: a2 52        	ldx	#$52
    1b03: 86 25        	stx	$25                     ; 0x25 <__rc21>
    1b05: a2 04        	ldx	#$4
    1b07: a4 24        	ldy	$24                     ; 0x24 <__rc20>
    1b09: 84 14        	sty	$14                     ; 0x14 <__rc4>
    1b0b: a4 25        	ldy	$25                     ; 0x25 <__rc21>
    1b0d: 84 15        	sty	$15                     ; 0x15 <__rc5>
    1b0f: a4 2c        	ldy	$2c                     ; 0x2c <__rc28>
    1b11: 84 12        	sty	$12                     ; 0x12 <__rc2>
    1b13: a4 2d        	ldy	$2d                     ; 0x2d <__rc29>
    1b15: 84 13        	sty	$13                     ; 0x13 <__rc3>
    1b17: 86 28        	stx	$28                     ; 0x28 <__rc24>
    1b19: a6 27        	ldx	$27                     ; 0x27 <__rc23>
    1b1b: a5 26        	lda	$26                     ; 0x26 <__rc22>
    1b1d: 20 cf 1c     	jsr	$1ccf <checkUIEClick>
    1b20: a6 28        	ldx	$28                     ; 0x28 <__rc24>
    1b22: a5 24        	lda	$24                     ; 0x24 <__rc20>
    1b24: 18           	clc
    1b25: 69 1c        	adc	#$1c
    1b27: 85 24        	sta	$24                     ; 0x24 <__rc20>
    1b29: a5 25        	lda	$25                     ; 0x25 <__rc21>
    1b2b: 69 00        	adc	#$0
    1b2d: 85 25        	sta	$25                     ; 0x25 <__rc21>
    1b2f: ca           	dex
    1b30: d0 d5        	bne	$1b07 <f256main+0x12b3>
    1b32: a2 a3        	ldx	#$a3
    1b34: 86 24        	stx	$24                     ; 0x24 <__rc20>
    1b36: a2 53        	ldx	#$53
    1b38: 86 25        	stx	$25                     ; 0x25 <__rc21>
    1b3a: a2 04        	ldx	#$4
    1b3c: a4 24        	ldy	$24                     ; 0x24 <__rc20>
    1b3e: 84 14        	sty	$14                     ; 0x14 <__rc4>
    1b40: a4 25        	ldy	$25                     ; 0x25 <__rc21>
    1b42: 84 15        	sty	$15                     ; 0x15 <__rc5>
    1b44: a4 2c        	ldy	$2c                     ; 0x2c <__rc28>
    1b46: 84 12        	sty	$12                     ; 0x12 <__rc2>
    1b48: a4 2d        	ldy	$2d                     ; 0x2d <__rc29>
    1b4a: 84 13        	sty	$13                     ; 0x13 <__rc3>
    1b4c: 86 28        	stx	$28                     ; 0x28 <__rc24>
    1b4e: a6 27        	ldx	$27                     ; 0x27 <__rc23>
    1b50: a5 26        	lda	$26                     ; 0x26 <__rc22>
    1b52: 20 cf 1c     	jsr	$1ccf <checkUIEClick>
    1b55: a6 28        	ldx	$28                     ; 0x28 <__rc24>
    1b57: a5 24        	lda	$24                     ; 0x24 <__rc20>
    1b59: 18           	clc
    1b5a: 69 1c        	adc	#$1c
    1b5c: 85 24        	sta	$24                     ; 0x24 <__rc20>
    1b5e: a5 25        	lda	$25                     ; 0x25 <__rc21>
    1b60: 69 00        	adc	#$0
    1b62: 85 25        	sta	$25                     ; 0x25 <__rc21>
    1b64: ca           	dex
    1b65: d0 d5        	bne	$1b3c <f256main+0x12e8>
    1b67: a6 36        	ldx	$36                     ; 0x36 <kernelEventData+0x6>
    1b69: 8a           	txa
    1b6a: 29 01        	and	#$1
    1b6c: a2 01        	ldx	#$1
    1b6e: a8           	tay
    1b6f: f0 02        	beq	$1b73 <f256main+0x131f>
    1b71: a2 00        	ldx	#$0
    1b73: 8a           	txa
    1b74: a0 01        	ldy	#$1
    1b76: 91 10        	sta	($10),y                 ; 0x10 <__rc0>
    1b78: 8a           	txa
    1b79: d0 03        	bne	$1b7e <f256main+0x132a>
    1b7b: 4c e6 0b     	jmp	$be6 <f256main+0x392>
    1b7e: ad db 53     	lda	$53db                   ; 0x53db <sliAct>
    1b81: c9 ff        	cmp	#$ff
    1b83: f0 40        	beq	$1bc5 <f256main+0x1371>
    1b85: 0a           	asl
    1b86: 64 12        	stz	$12                     ; 0x12 <__rc2>
    1b88: 26 12        	rol	$12                     ; 0x12 <__rc2>
    1b8a: 0a           	asl
    1b8b: 85 13        	sta	$13                     ; 0x13 <__rc3>
    1b8d: 26 12        	rol	$12                     ; 0x12 <__rc2>
    1b8f: 0a           	asl
    1b90: a6 12        	ldx	$12                     ; 0x12 <__rc2>
    1b92: 86 14        	stx	$14                     ; 0x14 <__rc4>
    1b94: 26 14        	rol	$14                     ; 0x14 <__rc4>
    1b96: 0a           	asl
    1b97: 26 14        	rol	$14                     ; 0x14 <__rc4>
    1b99: 0a           	asl
    1b9a: 26 14        	rol	$14                     ; 0x14 <__rc4>
    1b9c: 38           	sec
    1b9d: e5 13        	sbc	$13                     ; 0x13 <__rc3>
    1b9f: 85 13        	sta	$13                     ; 0x13 <__rc3>
    1ba1: a5 14        	lda	$14                     ; 0x14 <__rc4>
    1ba3: e5 12        	sbc	$12                     ; 0x12 <__rc2>
    1ba5: 85 12        	sta	$12                     ; 0x12 <__rc2>
    1ba7: a9 ae        	lda	#$ae
    1ba9: 18           	clc
    1baa: 65 13        	adc	$13                     ; 0x13 <__rc3>
    1bac: aa           	tax
    1bad: a9 52        	lda	#$52
    1baf: 65 12        	adc	$12                     ; 0x12 <__rc2>
    1bb1: 86 12        	stx	$12                     ; 0x12 <__rc2>
    1bb3: 85 13        	sta	$13                     ; 0x13 <__rc3>
    1bb5: a9 00        	lda	#$0
    1bb7: a0 06        	ldy	#$6
    1bb9: 91 12        	sta	($12),y                 ; 0x12 <__rc2>
    1bbb: a2 ff        	ldx	#$ff
    1bbd: 8e db 53     	stx	$53db                   ; 0x53db <sliAct>
    1bc0: a2 01        	ldx	#$1
    1bc2: 8e e0 d6     	stx	$d6e0                   ; 0xd6e0 <end_block9+0x82d6>
    1bc5: a5 7b        	lda	$7b                     ; 0x7b <diaAct>
    1bc7: c9 ff        	cmp	#$ff
    1bc9: d0 03        	bne	$1bce <f256main+0x137a>
    1bcb: 4c e6 0b     	jmp	$be6 <f256main+0x392>
    1bce: 0a           	asl
    1bcf: 64 12        	stz	$12                     ; 0x12 <__rc2>
    1bd1: 26 12        	rol	$12                     ; 0x12 <__rc2>
    1bd3: 0a           	asl
    1bd4: 85 13        	sta	$13                     ; 0x13 <__rc3>
    1bd6: 26 12        	rol	$12                     ; 0x12 <__rc2>
    1bd8: 0a           	asl
    1bd9: a6 12        	ldx	$12                     ; 0x12 <__rc2>
    1bdb: 86 14        	stx	$14                     ; 0x14 <__rc4>
    1bdd: 26 14        	rol	$14                     ; 0x14 <__rc4>
    1bdf: 0a           	asl
    1be0: 26 14        	rol	$14                     ; 0x14 <__rc4>
    1be2: 0a           	asl
    1be3: 26 14        	rol	$14                     ; 0x14 <__rc4>
    1be5: 38           	sec
    1be6: e5 13        	sbc	$13                     ; 0x13 <__rc3>
    1be8: 85 13        	sta	$13                     ; 0x13 <__rc3>
    1bea: a5 14        	lda	$14                     ; 0x14 <__rc4>
    1bec: e5 12        	sbc	$12                     ; 0x12 <__rc2>
    1bee: 85 12        	sta	$12                     ; 0x12 <__rc2>
    1bf0: a9 a3        	lda	#$a3
    1bf2: 18           	clc
    1bf3: 65 13        	adc	$13                     ; 0x13 <__rc3>
    1bf5: aa           	tax
    1bf6: a9 53        	lda	#$53
    1bf8: 65 12        	adc	$12                     ; 0x12 <__rc2>
    1bfa: 86 12        	stx	$12                     ; 0x12 <__rc2>
    1bfc: 85 13        	sta	$13                     ; 0x13 <__rc3>
    1bfe: a9 00        	lda	#$0
    1c00: a0 06        	ldy	#$6
    1c02: 91 12        	sta	($12),y                 ; 0x12 <__rc2>
    1c04: a2 ff        	ldx	#$ff
    1c06: 86 7b        	stx	$7b                     ; 0x7b <diaAct>
    1c08: a2 01        	ldx	#$1
    1c0a: 8e e0 d6     	stx	$d6e0                   ; 0xd6e0 <end_block9+0x82d6>
    1c0d: 4c e6 0b     	jmp	$be6 <f256main+0x392>
    1c10: a2 80        	ldx	#$80
    1c12: 8e a1 dd     	stx	$dda1                   ; 0xdda1 <end_block9+0x8997>
    1c15: a6 2f        	ldx	$2f                     ; 0x2f <__rc31>
    1c17: 8e a1 dd     	stx	$dda1                   ; 0xdda1 <end_block9+0x8997>
    1c1a: a2 7f        	ldx	#$7f
    1c1c: 8e a1 dd     	stx	$dda1                   ; 0xdda1 <end_block9+0x8997>
    1c1f: a6 88        	ldx	$88                     ; 0x88 <chipAct.0>
    1c21: d0 03        	bne	$1c26 <f256main+0x13d2>
    1c23: 4c 71 0d     	jmp	$d71 <f256main+0x51d>
    1c26: ca           	dex
    1c27: 86 88        	stx	$88                     ; 0x88 <chipAct.0>
    1c29: 4c 71 0d     	jmp	$d71 <f256main+0x51d>
    1c2c: 64 12        	stz	$12                     ; 0x12 <__rc2>
    1c2e: 5a           	phy
    1c2f: a9 00        	lda	#$0
    1c31: a0 02        	ldy	#$2
    1c33: 91 10        	sta	($10),y                 ; 0x10 <__rc0>
    1c35: 1a           	inc
    1c36: a0 04        	ldy	#$4
    1c38: 91 10        	sta	($10),y                 ; 0x10 <__rc0>
    1c3a: 7a           	ply
    1c3b: a5 16        	lda	$16                     ; 0x16 <__rc6>
    1c3d: 85 2f        	sta	$2f                     ; 0x2f <__rc31>
    1c3f: 4c 80 0d     	jmp	$d80 <f256main+0x52c>
    1c42: 86 13        	stx	$13                     ; 0x13 <__rc3>
    1c44: a0 d4        	ldy	#$d4
    1c46: a9 21        	lda	#$21
    1c48: 18           	clc
    1c49: 65 13        	adc	$13                     ; 0x13 <__rc3>
    1c4b: 85 14        	sta	$14                     ; 0x14 <__rc4>
    1c4d: a9 4f        	lda	#$4f
    1c4f: 65 12        	adc	$12                     ; 0x12 <__rc2>
    1c51: 85 15        	sta	$15                     ; 0x15 <__rc5>
    1c53: b2 14        	lda	($14)                   ; 0x14 <__rc4>
    1c55: 85 14        	sta	$14                     ; 0x14 <__rc4>
    1c57: a9 8d        	lda	#$8d
    1c59: 18           	clc
    1c5a: 65 13        	adc	$13                     ; 0x13 <__rc3>
    1c5c: aa           	tax
    1c5d: a9 00        	lda	#$0
    1c5f: 65 12        	adc	$12                     ; 0x12 <__rc2>
    1c61: 86 12        	stx	$12                     ; 0x12 <__rc2>
    1c63: 85 13        	sta	$13                     ; 0x13 <__rc3>
    1c65: a9 00        	lda	#$0
    1c67: 92 12        	sta	($12)                   ; 0x12 <__rc2>
    1c69: a6 2f        	ldx	$2f                     ; 0x2f <__rc31>
    1c6b: bd e7 4f     	lda	$4fe7,x                 ; 0x4fe7 <sid_instrument_defs+0x22>
    1c6e: 5a           	phy
    1c6f: a4 14        	ldy	$14                     ; 0x14 <__rc4>
    1c71: 84 12        	sty	$12                     ; 0x12 <__rc2>
    1c73: 7a           	ply
    1c74: 84 13        	sty	$13                     ; 0x13 <__rc3>
    1c76: 92 12        	sta	($12)                   ; 0x12 <__rc2>
    1c78: bd 83 4e     	lda	$4e83,x                 ; 0x4e83 <noteColors+0x7d>
    1c7b: aa           	tax
    1c7c: 86 16        	stx	$16                     ; 0x16 <__rc6>
    1c7e: a6 14        	ldx	$14                     ; 0x14 <__rc4>
    1c80: 84 15        	sty	$15                     ; 0x15 <__rc5>
    1c82: e8           	inx
    1c83: d0 01        	bne	$1c86 <f256main+0x1432>
    1c85: c8           	iny
    1c86: 86 12        	stx	$12                     ; 0x12 <__rc2>
    1c88: 84 13        	sty	$13                     ; 0x13 <__rc3>
    1c8a: a5 16        	lda	$16                     ; 0x16 <__rc6>
    1c8c: 92 12        	sta	($12)                   ; 0x12 <__rc2>
    1c8e: 18           	clc
    1c8f: a5 14        	lda	$14                     ; 0x14 <__rc4>
    1c91: 69 04        	adc	#$4
    1c93: 85 12        	sta	$12                     ; 0x12 <__rc2>
    1c95: a5 15        	lda	$15                     ; 0x15 <__rc5>
    1c97: 69 00        	adc	#$0
    1c99: 85 13        	sta	$13                     ; 0x13 <__rc3>
    1c9b: a5 a2        	lda	$a2                     ; 0xa2 <gPtr>
    1c9d: a6 a3        	ldx	$a3                     ; 0xa3 <gPtr+0x1>
    1c9f: 85 14        	sta	$14                     ; 0x14 <__rc4>
    1ca1: 86 15        	stx	$15                     ; 0x15 <__rc5>
    1ca3: 18           	clc
    1ca4: 69 04        	adc	#$4
    1ca6: 85 16        	sta	$16                     ; 0x16 <__rc6>
    1ca8: 8a           	txa
    1ca9: 69 00        	adc	#$0
    1cab: 85 17        	sta	$17                     ; 0x17 <__rc7>
    1cad: a0 04        	ldy	#$4
    1caf: b1 14        	lda	($14),y                 ; 0x14 <__rc4>
    1cb1: 85 14        	sta	$14                     ; 0x14 <__rc4>
    1cb3: a0 01        	ldy	#$1
    1cb5: b1 16        	lda	($16),y                 ; 0x16 <__rc6>
    1cb7: 85 15        	sta	$15                     ; 0x15 <__rc5>
    1cb9: a9 fe        	lda	#$fe
    1cbb: a0 05        	ldy	#$5
    1cbd: 31 14        	and	($14),y                 ; 0x14 <__rc4>
    1cbf: 92 12        	sta	($12)                   ; 0x12 <__rc2>
    1cc1: a6 8a        	ldx	$8a                     ; 0x8a <chipAct.2>
    1cc3: f0 03        	beq	$1cc8 <f256main+0x1474>
    1cc5: ca           	dex
    1cc6: 86 8a        	stx	$8a                     ; 0x8a <chipAct.2>
    1cc8: 64 12        	stz	$12                     ; 0x12 <__rc2>
    1cca: a9 00        	lda	#$0
    1ccc: 4c 47 0d     	jmp	$d47 <f256main+0x4f3>

00001ccf <checkUIEClick>:
    1ccf: 85 16        	sta	$16                     ; 0x16 <__rc6>
    1cd1: 86 17        	stx	$17                     ; 0x17 <__rc7>
    1cd3: a6 14        	ldx	$14                     ; 0x14 <__rc4>
    1cd5: 86 18        	stx	$18                     ; 0x18 <__rc8>
    1cd7: a6 15        	ldx	$15                     ; 0x15 <__rc5>
    1cd9: 86 19        	stx	$19                     ; 0x19 <__rc9>
    1cdb: e6 18        	inc	$18                     ; 0x18 <__rc8>
    1cdd: d0 02        	bne	$1ce1 <checkUIEClick+0x12>
    1cdf: e6 19        	inc	$19                     ; 0x19 <__rc9>
    1ce1: a0 01        	ldy	#$1
    1ce3: b1 14        	lda	($14),y                 ; 0x14 <__rc4>
    1ce5: 85 1a        	sta	$1a                     ; 0x1a <__rc10>
    1ce7: b1 18        	lda	($18),y                 ; 0x18 <__rc8>
    1ce9: aa           	tax
    1cea: a0 0e        	ldy	#$e
    1cec: 18           	clc
    1ced: a5 1a        	lda	$1a                     ; 0x1a <__rc10>
    1cef: 85 19        	sta	$19                     ; 0x19 <__rc9>
    1cf1: 71 14        	adc	($14),y                 ; 0x14 <__rc4>
    1cf3: a8           	tay
    1cf4: 8a           	txa
    1cf5: 86 1a        	stx	$1a                     ; 0x1a <__rc10>
    1cf7: 69 00        	adc	#$0
    1cf9: 85 18        	sta	$18                     ; 0x18 <__rc8>
    1cfb: a6 17        	ldx	$17                     ; 0x17 <__rc7>
    1cfd: e4 18        	cpx	$18                     ; 0x18 <__rc8>
    1cff: d0 06        	bne	$1d07 <checkUIEClick+0x38>
    1d01: 84 18        	sty	$18                     ; 0x18 <__rc8>
    1d03: a6 16        	ldx	$16                     ; 0x16 <__rc6>
    1d05: 80 02        	bra	$1d09 <checkUIEClick+0x3a>
    1d07: a6 17        	ldx	$17                     ; 0x17 <__rc7>
    1d09: e4 18        	cpx	$18                     ; 0x18 <__rc8>
    1d0b: b0 01        	bcs	$1d0e <checkUIEClick+0x3f>
    1d0d: 60           	rts
    1d0e: a0 0f        	ldy	#$f
    1d10: 18           	clc
    1d11: a5 19        	lda	$19                     ; 0x19 <__rc9>
    1d13: 71 14        	adc	($14),y                 ; 0x14 <__rc4>
    1d15: aa           	tax
    1d16: a5 1a        	lda	$1a                     ; 0x1a <__rc10>
    1d18: 69 00        	adc	#$0
    1d1a: c5 17        	cmp	$17                     ; 0x17 <__rc7>
    1d1c: d0 06        	bne	$1d24 <checkUIEClick+0x55>
    1d1e: e4 16        	cpx	$16                     ; 0x16 <__rc6>
    1d20: b0 06        	bcs	$1d28 <checkUIEClick+0x59>
    1d22: 80 e9        	bra	$1d0d <checkUIEClick+0x3e>
    1d24: c5 17        	cmp	$17                     ; 0x17 <__rc7>
    1d26: 90 e5        	bcc	$1d0d <checkUIEClick+0x3e>
    1d28: a0 03        	ldy	#$3
    1d2a: a5 14        	lda	$14                     ; 0x14 <__rc4>
    1d2c: 18           	clc
    1d2d: 69 03        	adc	#$3
    1d2f: 85 16        	sta	$16                     ; 0x16 <__rc6>
    1d31: a5 15        	lda	$15                     ; 0x15 <__rc5>
    1d33: 69 00        	adc	#$0
    1d35: 85 17        	sta	$17                     ; 0x17 <__rc7>
    1d37: b1 14        	lda	($14),y                 ; 0x14 <__rc4>
    1d39: 85 18        	sta	$18                     ; 0x18 <__rc8>
    1d3b: a0 01        	ldy	#$1
    1d3d: b1 16        	lda	($16),y                 ; 0x16 <__rc6>
    1d3f: aa           	tax
    1d40: a0 10        	ldy	#$10
    1d42: a5 18        	lda	$18                     ; 0x18 <__rc8>
    1d44: 85 17        	sta	$17                     ; 0x17 <__rc7>
    1d46: 18           	clc
    1d47: 71 14        	adc	($14),y                 ; 0x14 <__rc4>
    1d49: a8           	tay
    1d4a: 8a           	txa
    1d4b: 86 18        	stx	$18                     ; 0x18 <__rc8>
    1d4d: 69 00        	adc	#$0
    1d4f: 85 16        	sta	$16                     ; 0x16 <__rc6>
    1d51: a6 13        	ldx	$13                     ; 0x13 <__rc3>
    1d53: e4 16        	cpx	$16                     ; 0x16 <__rc6>
    1d55: d0 06        	bne	$1d5d <checkUIEClick+0x8e>
    1d57: 84 16        	sty	$16                     ; 0x16 <__rc6>
    1d59: a6 12        	ldx	$12                     ; 0x12 <__rc2>
    1d5b: 80 02        	bra	$1d5f <checkUIEClick+0x90>
    1d5d: a6 13        	ldx	$13                     ; 0x13 <__rc3>
    1d5f: e4 16        	cpx	$16                     ; 0x16 <__rc6>
    1d61: b0 03        	bcs	$1d66 <checkUIEClick+0x97>
    1d63: 4c 0d 1d     	jmp	$1d0d <checkUIEClick+0x3e>
    1d66: a0 11        	ldy	#$11
    1d68: 18           	clc
    1d69: a5 17        	lda	$17                     ; 0x17 <__rc7>
    1d6b: 71 14        	adc	($14),y                 ; 0x14 <__rc4>
    1d6d: aa           	tax
    1d6e: a5 18        	lda	$18                     ; 0x18 <__rc8>
    1d70: 69 00        	adc	#$0
    1d72: c5 13        	cmp	$13                     ; 0x13 <__rc3>
    1d74: d0 07        	bne	$1d7d <checkUIEClick+0xae>
    1d76: e4 12        	cpx	$12                     ; 0x12 <__rc2>
    1d78: b0 0a        	bcs	$1d84 <checkUIEClick+0xb5>
    1d7a: 4c 0d 1d     	jmp	$1d0d <checkUIEClick+0x3e>
    1d7d: c5 13        	cmp	$13                     ; 0x13 <__rc3>
    1d7f: b0 03        	bcs	$1d84 <checkUIEClick+0xb5>
    1d81: 4c 0d 1d     	jmp	$1d0d <checkUIEClick+0x3e>
    1d84: a0 12        	ldy	#$12
    1d86: b1 14        	lda	($14),y                 ; 0x14 <__rc4>
    1d88: 18           	clc
    1d89: 85 a8        	sta	$a8                     ; 0xa8 <__zp_bss_size+0x34>
    1d8b: 69 e8        	adc	#$e8
    1d8d: 85 a6        	sta	$a6                     ; 0xa6 <__zp_bss_size+0x32>
    1d8f: c9 0e        	cmp	#$e
    1d91: a6 14        	ldx	$14                     ; 0x14 <__rc4>
    1d93: 86 12        	stx	$12                     ; 0x12 <__rc2>
    1d95: a6 15        	ldx	$15                     ; 0x15 <__rc5>
    1d97: 86 13        	stx	$13                     ; 0x13 <__rc3>
    1d99: a6 12        	ldx	$12                     ; 0x12 <__rc2>
    1d9b: 86 a4        	stx	$a4                     ; 0xa4 <__zp_bss_size+0x30>
    1d9d: a6 13        	ldx	$13                     ; 0x13 <__rc3>
    1d9f: 86 a5        	stx	$a5                     ; 0xa5 <__zp_bss_size+0x31>
    1da1: 90 03        	bcc	$1da6 <checkUIEClick+0xd7>
    1da3: 4c 3a 1e     	jmp	$1e3a <checkUIEClick+0x16b>
    1da6: a9 01        	lda	#$1
    1da8: a2 00        	ldx	#$0
    1daa: a4 a6        	ldy	$a6                     ; 0xa6 <__zp_bss_size+0x32>
    1dac: 84 12        	sty	$12                     ; 0x12 <__rc2>
    1dae: 20 f1 4a     	jsr	$4af1 <__ashlhi3>
    1db1: a6 a4        	ldx	$a4                     ; 0xa4 <__zp_bss_size+0x30>
    1db3: 86 14        	stx	$14                     ; 0x14 <__rc4>
    1db5: a6 a5        	ldx	$a5                     ; 0xa5 <__zp_bss_size+0x31>
    1db7: 86 15        	stx	$15                     ; 0x15 <__rc5>
    1db9: 29 0f        	and	#$f
    1dbb: f0 03        	beq	$1dc0 <checkUIEClick+0xf1>
    1dbd: 4c 43 1e     	jmp	$1e43 <checkUIEClick+0x174>
    1dc0: a9 01        	lda	#$1
    1dc2: a2 00        	ldx	#$0
    1dc4: a4 a6        	ldy	$a6                     ; 0xa6 <__zp_bss_size+0x32>
    1dc6: 84 12        	sty	$12                     ; 0x12 <__rc2>
    1dc8: 20 f1 4a     	jsr	$4af1 <__ashlhi3>
    1dcb: 29 f0        	and	#$f0
    1dcd: f0 2a        	beq	$1df9 <checkUIEClick+0x12a>
    1dcf: a0 06        	ldy	#$6
    1dd1: a6 a4        	ldx	$a4                     ; 0xa4 <__zp_bss_size+0x30>
    1dd3: 86 14        	stx	$14                     ; 0x14 <__rc4>
    1dd5: a6 a5        	ldx	$a5                     ; 0xa5 <__zp_bss_size+0x31>
    1dd7: 86 15        	stx	$15                     ; 0x15 <__rc5>
    1dd9: a9 01        	lda	#$1
    1ddb: 91 14        	sta	($14),y                 ; 0x14 <__rc4>
    1ddd: a6 84        	ldx	$84                     ; 0x84 <mX>
    1ddf: 8e dc 53     	stx	$53dc                   ; 0x53dc <sliAct+0x1>
    1de2: a6 85        	ldx	$85                     ; 0x85 <mX+0x1>
    1de4: 8e dd 53     	stx	$53dd                   ; 0x53dd <sliAct+0x2>
    1de7: a6 86        	ldx	$86                     ; 0x86 <mY>
    1de9: 8e de 53     	stx	$53de                   ; 0x53de <sliAct+0x3>
    1dec: a6 87        	ldx	$87                     ; 0x87 <mY+0x1>
    1dee: 8e df 53     	stx	$53df                   ; 0x53df <sliAct+0x4>
    1df1: a2 db        	ldx	#$db
    1df3: 86 12        	stx	$12                     ; 0x12 <__rc2>
    1df5: a2 53        	ldx	#$53
    1df7: 80 35        	bra	$1e2e <checkUIEClick+0x15f>
    1df9: a9 01        	lda	#$1
    1dfb: a2 00        	ldx	#$0
    1dfd: a4 a6        	ldy	$a6                     ; 0xa6 <__zp_bss_size+0x32>
    1dff: 84 12        	sty	$12                     ; 0x12 <__rc2>
    1e01: 20 f1 4a     	jsr	$4af1 <__ashlhi3>
    1e04: 8a           	txa
    1e05: 29 30        	and	#$30
    1e07: a6 a4        	ldx	$a4                     ; 0xa4 <__zp_bss_size+0x30>
    1e09: 86 14        	stx	$14                     ; 0x14 <__rc4>
    1e0b: a6 a5        	ldx	$a5                     ; 0xa5 <__zp_bss_size+0x31>
    1e0d: 86 15        	stx	$15                     ; 0x15 <__rc5>
    1e0f: aa           	tax
    1e10: f0 28        	beq	$1e3a <checkUIEClick+0x16b>
    1e12: a0 06        	ldy	#$6
    1e14: a9 01        	lda	#$1
    1e16: 91 14        	sta	($14),y                 ; 0x14 <__rc4>
    1e18: a6 84        	ldx	$84                     ; 0x84 <mX>
    1e1a: 86 7c        	stx	$7c                     ; 0x7c <diaAct+0x1>
    1e1c: a6 85        	ldx	$85                     ; 0x85 <mX+0x1>
    1e1e: 86 7d        	stx	$7d                     ; 0x7d <diaAct+0x2>
    1e20: a6 86        	ldx	$86                     ; 0x86 <mY>
    1e22: 86 7e        	stx	$7e                     ; 0x7e <diaAct+0x3>
    1e24: a6 87        	ldx	$87                     ; 0x87 <mY+0x1>
    1e26: 86 7f        	stx	$7f                     ; 0x7f <diaAct+0x4>
    1e28: a2 7b        	ldx	#$7b
    1e2a: 86 12        	stx	$12                     ; 0x12 <__rc2>
    1e2c: a2 00        	ldx	#$0
    1e2e: 86 13        	stx	$13                     ; 0x13 <__rc3>
    1e30: a0 0c        	ldy	#$c
    1e32: b1 14        	lda	($14),y                 ; 0x14 <__rc4>
    1e34: 92 12        	sta	($12)                   ; 0x12 <__rc2>
    1e36: 9c e0 d6     	stz	$d6e0                   ; 0xd6e0 <end_block9+0x82d6>
    1e39: 60           	rts
    1e3a: a6 a8        	ldx	$a8                     ; 0xa8 <__zp_bss_size+0x34>
    1e3c: e0 04        	cpx	#$4
    1e3e: 90 03        	bcc	$1e43 <checkUIEClick+0x174>
    1e40: 4c 0d 1d     	jmp	$1d0d <checkUIEClick+0x3e>
    1e43: a0 06        	ldy	#$6
    1e45: b1 14        	lda	($14),y                 ; 0x14 <__rc4>
    1e47: a2 01        	ldx	#$1
    1e49: c9 00        	cmp	#$0
    1e4b: f0 02        	beq	$1e4f <checkUIEClick+0x180>
    1e4d: a2 00        	ldx	#$0
    1e4f: 8a           	txa
    1e50: f0 04        	beq	$1e56 <checkUIEClick+0x187>
    1e52: a9 01        	lda	#$1
    1e54: 80 02        	bra	$1e58 <checkUIEClick+0x189>
    1e56: a9 00        	lda	#$0
    1e58: 91 14        	sta	($14),y                 ; 0x14 <__rc4>
    1e5a: a0 0c        	ldy	#$c
    1e5c: b1 14        	lda	($14),y                 ; 0x14 <__rc4>
    1e5e: a2 15        	ldx	#$15
    1e60: 86 12        	stx	$12                     ; 0x12 <__rc2>
    1e62: 64 13        	stz	$13                     ; 0x13 <__rc3>
    1e64: a2 00        	ldx	#$0
    1e66: 20 04 4b     	jsr	$4b04 <__mulhi3>
    1e69: 85 12        	sta	$12                     ; 0x12 <__rc2>
    1e6b: 86 13        	stx	$13                     ; 0x13 <__rc3>
    1e6d: a9 06        	lda	#$6
    1e6f: 18           	clc
    1e70: 65 12        	adc	$12                     ; 0x12 <__rc2>
    1e72: 85 12        	sta	$12                     ; 0x12 <__rc2>
    1e74: a9 52        	lda	#$52
    1e76: 65 13        	adc	$13                     ; 0x13 <__rc3>
    1e78: 85 13        	sta	$13                     ; 0x13 <__rc3>
    1e7a: 20 93 31     	jsr	$3193 <updateRadioB>
    1e7d: a6 a4        	ldx	$a4                     ; 0xa4 <__zp_bss_size+0x30>
    1e7f: 86 12        	stx	$12                     ; 0x12 <__rc2>
    1e81: a6 a5        	ldx	$a5                     ; 0xa5 <__zp_bss_size+0x31>
    1e83: 86 13        	stx	$13                     ; 0x13 <__rc3>
    1e85: a0 06        	ldy	#$6
    1e87: b1 12        	lda	($12),y                 ; 0x12 <__rc2>
    1e89: d0 03        	bne	$1e8e <checkUIEClick+0x1bf>
    1e8b: 4c 78 1f     	jmp	$1f78 <checkUIEClick+0x2a9>
    1e8e: a0 0c        	ldy	#$c
    1e90: b1 12        	lda	($12),y                 ; 0x12 <__rc2>
    1e92: a2 15        	ldx	#$15
    1e94: 86 12        	stx	$12                     ; 0x12 <__rc2>
    1e96: 64 13        	stz	$13                     ; 0x13 <__rc3>
    1e98: a2 00        	ldx	#$0
    1e9a: 20 04 4b     	jsr	$4b04 <__mulhi3>
    1e9d: a4 a4        	ldy	$a4                     ; 0xa4 <__zp_bss_size+0x30>
    1e9f: 84 12        	sty	$12                     ; 0x12 <__rc2>
    1ea1: a4 a5        	ldy	$a5                     ; 0xa5 <__zp_bss_size+0x31>
    1ea3: 84 13        	sty	$13                     ; 0x13 <__rc3>
    1ea5: 85 14        	sta	$14                     ; 0x14 <__rc4>
    1ea7: 86 15        	stx	$15                     ; 0x15 <__rc5>
    1ea9: a9 06        	lda	#$6
    1eab: 18           	clc
    1eac: 65 14        	adc	$14                     ; 0x14 <__rc4>
    1eae: 85 14        	sta	$14                     ; 0x14 <__rc4>
    1eb0: a9 52        	lda	#$52
    1eb2: 65 15        	adc	$15                     ; 0x15 <__rc5>
    1eb4: 85 15        	sta	$15                     ; 0x15 <__rc5>
    1eb6: a0 13        	ldy	#$13
    1eb8: b1 14        	lda	($14),y                 ; 0x14 <__rc4>
    1eba: d0 03        	bne	$1ebf <checkUIEClick+0x1f0>
    1ebc: 4c 78 1f     	jmp	$1f78 <checkUIEClick+0x2a9>
    1ebf: a2 06        	ldx	#$6
    1ec1: 86 14        	stx	$14                     ; 0x14 <__rc4>
    1ec3: a2 52        	ldx	#$52
    1ec5: 86 15        	stx	$15                     ; 0x15 <__rc5>
    1ec7: a2 00        	ldx	#$0
    1ec9: 80 3c        	bra	$1f07 <checkUIEClick+0x238>
    1ecb: a9 00        	lda	#$0
    1ecd: 91 14        	sta	($14),y                 ; 0x14 <__rc4>
    1ecf: a6 a6        	ldx	$a6                     ; 0xa6 <__zp_bss_size+0x32>
    1ed1: 86 12        	stx	$12                     ; 0x12 <__rc2>
    1ed3: a6 a7        	ldx	$a7                     ; 0xa7 <__zp_bss_size+0x33>
    1ed5: 86 13        	stx	$13                     ; 0x13 <__rc3>
    1ed7: 20 93 31     	jsr	$3193 <updateRadioB>
    1eda: a6 a6        	ldx	$a6                     ; 0xa6 <__zp_bss_size+0x32>
    1edc: 86 12        	stx	$12                     ; 0x12 <__rc2>
    1ede: a6 a7        	ldx	$a7                     ; 0xa7 <__zp_bss_size+0x33>
    1ee0: 86 13        	stx	$13                     ; 0x13 <__rc3>
    1ee2: a4 12        	ldy	$12                     ; 0x12 <__rc2>
    1ee4: 84 14        	sty	$14                     ; 0x14 <__rc4>
    1ee6: 86 15        	stx	$15                     ; 0x15 <__rc5>
    1ee8: a6 a4        	ldx	$a4                     ; 0xa4 <__zp_bss_size+0x30>
    1eea: 86 12        	stx	$12                     ; 0x12 <__rc2>
    1eec: a6 a5        	ldx	$a5                     ; 0xa5 <__zp_bss_size+0x31>
    1eee: 86 13        	stx	$13                     ; 0x13 <__rc3>
    1ef0: a6 a8        	ldx	$a8                     ; 0xa8 <__zp_bss_size+0x34>
    1ef2: e8           	inx
    1ef3: a5 14        	lda	$14                     ; 0x14 <__rc4>
    1ef5: 18           	clc
    1ef6: 69 15        	adc	#$15
    1ef8: 85 14        	sta	$14                     ; 0x14 <__rc4>
    1efa: a5 15        	lda	$15                     ; 0x15 <__rc5>
    1efc: 69 00        	adc	#$0
    1efe: 85 15        	sta	$15                     ; 0x15 <__rc5>
    1f00: e0 08        	cpx	#$8
    1f02: d0 03        	bne	$1f07 <checkUIEClick+0x238>
    1f04: 4c 78 1f     	jmp	$1f78 <checkUIEClick+0x2a9>
    1f07: a0 0c        	ldy	#$c
    1f09: b1 12        	lda	($12),y                 ; 0x12 <__rc2>
    1f0b: 85 16        	sta	$16                     ; 0x16 <__rc6>
    1f0d: e4 16        	cpx	$16                     ; 0x16 <__rc6>
    1f0f: f0 e1        	beq	$1ef2 <checkUIEClick+0x223>
    1f11: a0 13        	ldy	#$13
    1f13: b1 14        	lda	($14),y                 ; 0x14 <__rc4>
    1f15: f0 db        	beq	$1ef2 <checkUIEClick+0x223>
    1f17: a4 14        	ldy	$14                     ; 0x14 <__rc4>
    1f19: 84 12        	sty	$12                     ; 0x12 <__rc2>
    1f1b: a4 15        	ldy	$15                     ; 0x15 <__rc5>
    1f1d: 84 13        	sty	$13                     ; 0x13 <__rc3>
    1f1f: 86 a8        	stx	$a8                     ; 0xa8 <__zp_bss_size+0x34>
    1f21: a6 12        	ldx	$12                     ; 0x12 <__rc2>
    1f23: 86 a6        	stx	$a6                     ; 0xa6 <__zp_bss_size+0x32>
    1f25: a6 13        	ldx	$13                     ; 0x13 <__rc3>
    1f27: 86 a7        	stx	$a7                     ; 0xa7 <__zp_bss_size+0x33>
    1f29: a2 15        	ldx	#$15
    1f2b: 86 12        	stx	$12                     ; 0x12 <__rc2>
    1f2d: 64 13        	stz	$13                     ; 0x13 <__rc3>
    1f2f: a2 00        	ldx	#$0
    1f31: a5 16        	lda	$16                     ; 0x16 <__rc6>
    1f33: 20 04 4b     	jsr	$4b04 <__mulhi3>
    1f36: a4 a6        	ldy	$a6                     ; 0xa6 <__zp_bss_size+0x32>
    1f38: 84 12        	sty	$12                     ; 0x12 <__rc2>
    1f3a: a4 a7        	ldy	$a7                     ; 0xa7 <__zp_bss_size+0x33>
    1f3c: 84 13        	sty	$13                     ; 0x13 <__rc3>
    1f3e: 48           	pha
    1f3f: a5 12        	lda	$12                     ; 0x12 <__rc2>
    1f41: 85 14        	sta	$14                     ; 0x14 <__rc4>
    1f43: 68           	pla
    1f44: 84 15        	sty	$15                     ; 0x15 <__rc5>
    1f46: a4 a4        	ldy	$a4                     ; 0xa4 <__zp_bss_size+0x30>
    1f48: 84 12        	sty	$12                     ; 0x12 <__rc2>
    1f4a: a4 a5        	ldy	$a5                     ; 0xa5 <__zp_bss_size+0x31>
    1f4c: 84 13        	sty	$13                     ; 0x13 <__rc3>
    1f4e: 85 16        	sta	$16                     ; 0x16 <__rc6>
    1f50: 86 17        	stx	$17                     ; 0x17 <__rc7>
    1f52: a6 a8        	ldx	$a8                     ; 0xa8 <__zp_bss_size+0x34>
    1f54: a9 06        	lda	#$6
    1f56: 18           	clc
    1f57: 65 16        	adc	$16                     ; 0x16 <__rc6>
    1f59: 85 16        	sta	$16                     ; 0x16 <__rc6>
    1f5b: a9 52        	lda	#$52
    1f5d: 65 17        	adc	$17                     ; 0x17 <__rc7>
    1f5f: 85 17        	sta	$17                     ; 0x17 <__rc7>
    1f61: a0 14        	ldy	#$14
    1f63: b1 16        	lda	($16),y                 ; 0x16 <__rc6>
    1f65: d1 14        	cmp	($14),y                 ; 0x14 <__rc4>
    1f67: f0 03        	beq	$1f6c <checkUIEClick+0x29d>
    1f69: 4c f2 1e     	jmp	$1ef2 <checkUIEClick+0x223>
    1f6c: a0 06        	ldy	#$6
    1f6e: b1 14        	lda	($14),y                 ; 0x14 <__rc4>
    1f70: f0 03        	beq	$1f75 <checkUIEClick+0x2a6>
    1f72: 4c cb 1e     	jmp	$1ecb <checkUIEClick+0x1fc>
    1f75: 4c f2 1e     	jmp	$1ef2 <checkUIEClick+0x223>
    1f78: a0 12        	ldy	#$12
    1f7a: b1 12        	lda	($12),y                 ; 0x12 <__rc2>
    1f7c: c9 04        	cmp	#$4
    1f7e: b0 1d        	bcs	$1f9d <checkUIEClick+0x2ce>
    1f80: a6 a2        	ldx	$a2                     ; 0xa2 <gPtr>
    1f82: a4 a3        	ldy	$a3                     ; 0xa3 <gPtr+0x1>
    1f84: 86 12        	stx	$12                     ; 0x12 <__rc2>
    1f86: 84 13        	sty	$13                     ; 0x13 <__rc3>
    1f88: a0 03        	ldy	#$3
    1f8a: d1 12        	cmp	($12),y                 ; 0x12 <__rc2>
    1f8c: f0 03        	beq	$1f91 <checkUIEClick+0x2c2>
    1f8e: 4c 8b 20     	jmp	$208b <checkUIEClick+0x3bc>
    1f91: a0 12        	ldy	#$12
    1f93: a6 a4        	ldx	$a4                     ; 0xa4 <__zp_bss_size+0x30>
    1f95: 86 12        	stx	$12                     ; 0x12 <__rc2>
    1f97: a6 a5        	ldx	$a5                     ; 0xa5 <__zp_bss_size+0x31>
    1f99: 86 13        	stx	$13                     ; 0x13 <__rc3>
    1f9b: b1 12        	lda	($12),y                 ; 0x12 <__rc2>
    1f9d: 18           	clc
    1f9e: 69 e8        	adc	#$e8
    1fa0: c9 04        	cmp	#$4
    1fa2: 90 03        	bcc	$1fa7 <checkUIEClick+0x2d8>
    1fa4: 4c 0d 1d     	jmp	$1d0d <checkUIEClick+0x3e>
    1fa7: aa           	tax
    1fa8: a5 a2        	lda	$a2                     ; 0xa2 <gPtr>
    1faa: a4 a3        	ldy	$a3                     ; 0xa3 <gPtr+0x1>
    1fac: 84 14        	sty	$14                     ; 0x14 <__rc4>
    1fae: 85 12        	sta	$12                     ; 0x12 <__rc2>
    1fb0: 84 13        	sty	$13                     ; 0x13 <__rc3>
    1fb2: a0 04        	ldy	#$4
    1fb4: 18           	clc
    1fb5: 69 04        	adc	#$4
    1fb7: 85 16        	sta	$16                     ; 0x16 <__rc6>
    1fb9: a5 14        	lda	$14                     ; 0x14 <__rc4>
    1fbb: 69 00        	adc	#$0
    1fbd: 5a           	phy
    1fbe: a4 16        	ldy	$16                     ; 0x16 <__rc6>
    1fc0: 84 14        	sty	$14                     ; 0x14 <__rc4>
    1fc2: 7a           	ply
    1fc3: 85 15        	sta	$15                     ; 0x15 <__rc5>
    1fc5: b1 12        	lda	($12),y                 ; 0x12 <__rc2>
    1fc7: 85 12        	sta	$12                     ; 0x12 <__rc2>
    1fc9: a0 01        	ldy	#$1
    1fcb: b1 14        	lda	($14),y                 ; 0x14 <__rc4>
    1fcd: 85 13        	sta	$13                     ; 0x13 <__rc3>
    1fcf: a9 0f        	lda	#$f
    1fd1: a0 05        	ldy	#$5
    1fd3: 31 12        	and	($12),y                 ; 0x12 <__rc2>
    1fd5: 1d 1d 4f     	ora	$4f1d,x                 ; 0x4f1d <sidHigh+0x8f>
    1fd8: 91 12        	sta	($12),y                 ; 0x12 <__rc2>
    1fda: a2 e8        	ldx	#$e8
    1fdc: a0 53        	ldy	#$53
    1fde: 84 13        	sty	$13                     ; 0x13 <__rc3>
    1fe0: 86 a4        	stx	$a4                     ; 0xa4 <__zp_bss_size+0x30>
    1fe2: a6 13        	ldx	$13                     ; 0x13 <__rc3>
    1fe4: 86 a5        	stx	$a5                     ; 0xa5 <__zp_bss_size+0x31>
    1fe6: a2 00        	ldx	#$0
    1fe8: 86 a6        	stx	$a6                     ; 0xa6 <__zp_bss_size+0x32>
    1fea: a5 a2        	lda	$a2                     ; 0xa2 <gPtr>
    1fec: a6 a3        	ldx	$a3                     ; 0xa3 <gPtr+0x1>
    1fee: 85 12        	sta	$12                     ; 0x12 <__rc2>
    1ff0: 86 13        	stx	$13                     ; 0x13 <__rc3>
    1ff2: 18           	clc
    1ff3: 69 04        	adc	#$4
    1ff5: 85 14        	sta	$14                     ; 0x14 <__rc4>
    1ff7: 8a           	txa
    1ff8: 69 00        	adc	#$0
    1ffa: 85 15        	sta	$15                     ; 0x15 <__rc5>
    1ffc: a0 04        	ldy	#$4
    1ffe: b1 12        	lda	($12),y                 ; 0x12 <__rc2>
    2000: aa           	tax
    2001: a0 01        	ldy	#$1
    2003: b1 14        	lda	($14),y                 ; 0x14 <__rc4>
    2005: 86 14        	stx	$14                     ; 0x14 <__rc4>
    2007: 85 15        	sta	$15                     ; 0x15 <__rc5>
    2009: a6 a4        	ldx	$a4                     ; 0xa4 <__zp_bss_size+0x30>
    200b: 86 16        	stx	$16                     ; 0x16 <__rc6>
    200d: a6 a5        	ldx	$a5                     ; 0xa5 <__zp_bss_size+0x31>
    200f: 86 17        	stx	$17                     ; 0x17 <__rc7>
    2011: a4 16        	ldy	$16                     ; 0x16 <__rc6>
    2013: 84 12        	sty	$12                     ; 0x12 <__rc2>
    2015: 86 13        	stx	$13                     ; 0x13 <__rc3>
    2017: a6 12        	ldx	$12                     ; 0x12 <__rc2>
    2019: 86 a4        	stx	$a4                     ; 0xa4 <__zp_bss_size+0x30>
    201b: a6 13        	ldx	$13                     ; 0x13 <__rc3>
    201d: 86 a5        	stx	$a5                     ; 0xa5 <__zp_bss_size+0x31>
    201f: a6 12        	ldx	$12                     ; 0x12 <__rc2>
    2021: 86 a4        	stx	$a4                     ; 0xa4 <__zp_bss_size+0x30>
    2023: a6 13        	ldx	$13                     ; 0x13 <__rc3>
    2025: 86 a5        	stx	$a5                     ; 0xa5 <__zp_bss_size+0x31>
    2027: a2 00        	ldx	#$0
    2029: a9 09        	lda	#$9
    202b: 20 a5 4a     	jsr	$4aa5 <memcpy>
    202e: a6 a4        	ldx	$a4                     ; 0xa4 <__zp_bss_size+0x30>
    2030: 86 12        	stx	$12                     ; 0x12 <__rc2>
    2032: a6 a5        	ldx	$a5                     ; 0xa5 <__zp_bss_size+0x31>
    2034: 86 13        	stx	$13                     ; 0x13 <__rc3>
    2036: a6 a6        	ldx	$a6                     ; 0xa6 <__zp_bss_size+0x32>
    2038: 86 a6        	stx	$a6                     ; 0xa6 <__zp_bss_size+0x32>
    203a: a9 00        	lda	#$0
    203c: 20 c6 38     	jsr	$38c6 <sid_setInstrument>
    203f: a5 a2        	lda	$a2                     ; 0xa2 <gPtr>
    2041: a6 a3        	ldx	$a3                     ; 0xa3 <gPtr+0x1>
    2043: 85 12        	sta	$12                     ; 0x12 <__rc2>
    2045: 86 13        	stx	$13                     ; 0x13 <__rc3>
    2047: 18           	clc
    2048: 69 04        	adc	#$4
    204a: 85 14        	sta	$14                     ; 0x14 <__rc4>
    204c: 8a           	txa
    204d: 69 00        	adc	#$0
    204f: 85 15        	sta	$15                     ; 0x15 <__rc5>
    2051: a0 04        	ldy	#$4
    2053: b1 12        	lda	($12),y                 ; 0x12 <__rc2>
    2055: aa           	tax
    2056: a0 01        	ldy	#$1
    2058: b1 14        	lda	($14),y                 ; 0x14 <__rc4>
    205a: 86 14        	stx	$14                     ; 0x14 <__rc4>
    205c: 85 15        	sta	$15                     ; 0x15 <__rc5>
    205e: a6 a4        	ldx	$a4                     ; 0xa4 <__zp_bss_size+0x30>
    2060: 86 12        	stx	$12                     ; 0x12 <__rc2>
    2062: a6 a5        	ldx	$a5                     ; 0xa5 <__zp_bss_size+0x31>
    2064: 86 13        	stx	$13                     ; 0x13 <__rc3>
    2066: a2 00        	ldx	#$0
    2068: a9 09        	lda	#$9
    206a: 20 a5 4a     	jsr	$4aa5 <memcpy>
    206d: a6 a4        	ldx	$a4                     ; 0xa4 <__zp_bss_size+0x30>
    206f: 86 12        	stx	$12                     ; 0x12 <__rc2>
    2071: a6 a5        	ldx	$a5                     ; 0xa5 <__zp_bss_size+0x31>
    2073: 86 13        	stx	$13                     ; 0x13 <__rc3>
    2075: a6 a6        	ldx	$a6                     ; 0xa6 <__zp_bss_size+0x32>
    2077: a9 01        	lda	#$1
    2079: 20 c6 38     	jsr	$38c6 <sid_setInstrument>
    207c: a5 a6        	lda	$a6                     ; 0xa6 <__zp_bss_size+0x32>
    207e: 1a           	inc
    207f: 85 a6        	sta	$a6                     ; 0xa6 <__zp_bss_size+0x32>
    2081: c9 03        	cmp	#$3
    2083: f0 03        	beq	$2088 <checkUIEClick+0x3b9>
    2085: 4c ea 1f     	jmp	$1fea <checkUIEClick+0x31b>
    2088: 4c 0d 1d     	jmp	$1d0d <checkUIEClick+0x3e>
    208b: 91 12        	sta	($12),y                 ; 0x12 <__rc2>
    208d: a9 d9        	lda	#$d9
    208f: a0 20        	ldy	#$20
    2091: a2 04        	ldx	#$4
    2093: 84 14        	sty	$14                     ; 0x14 <__rc4>
    2095: 84 12        	sty	$12                     ; 0x12 <__rc2>
    2097: a8           	tay
    2098: 85 13        	sta	$13                     ; 0x13 <__rc3>
    209a: b5 39        	lda	$39,x                   ; 0x39 <_spriteCtl>
    209c: 92 12        	sta	($12)                   ; 0x12 <__rc2>
    209e: 84 12        	sty	$12                     ; 0x12 <__rc2>
    20a0: e8           	inx
    20a1: 18           	clc
    20a2: a5 14        	lda	$14                     ; 0x14 <__rc4>
    20a4: 69 08        	adc	#$8
    20a6: a8           	tay
    20a7: a5 12        	lda	$12                     ; 0x12 <__rc2>
    20a9: 69 00        	adc	#$0
    20ab: e0 40        	cpx	#$40
    20ad: d0 e4        	bne	$2093 <checkUIEClick+0x3c4>
    20af: a2 02        	ldx	#$2
    20b1: 86 01        	stx	$1                      ; 0x1 <__zp_data_size+0x1>
    20b3: a9 c0        	lda	#$c0
    20b5: a2 50        	ldx	#$50
    20b7: a0 01        	ldy	#$1
    20b9: 64 14        	stz	$14                     ; 0x14 <__rc4>
    20bb: 86 16        	stx	$16                     ; 0x16 <__rc6>
    20bd: 86 12        	stx	$12                     ; 0x12 <__rc2>
    20bf: 85 15        	sta	$15                     ; 0x15 <__rc5>
    20c1: 85 13        	sta	$13                     ; 0x13 <__rc3>
    20c3: a2 50        	ldx	#$50
    20c5: a9 20        	lda	#$20
    20c7: 92 12        	sta	($12)                   ; 0x12 <__rc2>
    20c9: ca           	dex
    20ca: e6 12        	inc	$12                     ; 0x12 <__rc2>
    20cc: d0 02        	bne	$20d0 <checkUIEClick+0x401>
    20ce: e6 13        	inc	$13                     ; 0x13 <__rc3>
    20d0: 8a           	txa
    20d1: d0 f2        	bne	$20c5 <checkUIEClick+0x3f6>
    20d3: c8           	iny
    20d4: d0 02        	bne	$20d8 <checkUIEClick+0x409>
    20d6: e6 14        	inc	$14                     ; 0x14 <__rc4>
    20d8: 18           	clc
    20d9: a5 16        	lda	$16                     ; 0x16 <__rc6>
    20db: 69 50        	adc	#$50
    20dd: aa           	tax
    20de: a5 15        	lda	$15                     ; 0x15 <__rc5>
    20e0: 69 00        	adc	#$0
    20e2: e6 14        	inc	$14                     ; 0x14 <__rc4>
    20e4: c6 14        	dec	$14                     ; 0x14 <__rc4>
    20e6: d0 d3        	bne	$20bb <checkUIEClick+0x3ec>
    20e8: c0 1e        	cpy	#$1e
    20ea: d0 cf        	bne	$20bb <checkUIEClick+0x3ec>
    20ec: 64 01        	stz	$1                      ; 0x1 <__zp_data_size+0x1>
    20ee: a6 a2        	ldx	$a2                     ; 0xa2 <gPtr>
    20f0: a4 a3        	ldy	$a3                     ; 0xa3 <gPtr+0x1>
    20f2: 86 12        	stx	$12                     ; 0x12 <__rc2>
    20f4: 84 13        	sty	$13                     ; 0x13 <__rc3>
    20f6: a0 03        	ldy	#$3
    20f8: b1 12        	lda	($12),y                 ; 0x12 <__rc2>
    20fa: c9 04        	cmp	#$4
    20fc: 90 03        	bcc	$2101 <checkUIEClick+0x432>
    20fe: 4c 91 1f     	jmp	$1f91 <checkUIEClick+0x2c2>
    2101: 0a           	asl
    2102: aa           	tax
    2103: 7c 54 4d     	jmp	($4d54,x)               ; 0x4d54 <__set_v+0x13>
    2106: 20 87 23     	jsr	$2387 <textLayerGen>
    2109: a2 0c        	ldx	#$c
    210b: 86 37        	stx	$37                     ; 0x37 <_col>
    210d: 8e 14 d0     	stx	$d014                   ; 0xd014 <end_block9+0x7c0a>
    2110: 9c 15 d0     	stz	$d015                   ; 0xd015 <end_block9+0x7c0b>
    2113: a2 1c        	ldx	#$1c
    2115: 86 38        	stx	$38                     ; 0x38 <_row>
    2117: 8e 16 d0     	stx	$d016                   ; 0xd016 <end_block9+0x7c0c>
    211a: 9c 17 d0     	stz	$d017                   ; 0xd017 <end_block9+0x7c0d>
    211d: a2 fb        	ldx	#$fb
    211f: 86 12        	stx	$12                     ; 0x12 <__rc2>
    2121: a2 4e        	ldx	#$4e
    2123: 86 13        	stx	$13                     ; 0x13 <__rc3>
    2125: 20 5e 24     	jsr	$245e <textPrint>
    2128: 4c 91 1f     	jmp	$1f91 <checkUIEClick+0x2c2>
    212b: 20 87 23     	jsr	$2387 <textLayerGen>
    212e: a2 4f        	ldx	#$4f
    2130: 86 a6        	stx	$a6                     ; 0xa6 <__zp_bss_size+0x32>
    2132: a2 04        	ldx	#$4
    2134: a9 00        	lda	#$0
    2136: 64 13        	stz	$13                     ; 0x13 <__rc3>
    2138: a8           	tay
    2139: 85 ad        	sta	$ad                     ; 0xad <__zp_bss_size+0x39>
    213b: 86 a8        	stx	$a8                     ; 0xa8 <__zp_bss_size+0x34>
    213d: 8a           	txa
    213e: 18           	clc
    213f: 69 0b        	adc	#$b
    2141: 8d f2 53     	sta	$53f2                   ; 0x53f2 <__data_load_start+0x3a0>
    2144: 84 12        	sty	$12                     ; 0x12 <__rc2>
    2146: a9 62        	lda	#$62
    2148: 18           	clc
    2149: 65 12        	adc	$12                     ; 0x12 <__rc2>
    214b: 85 1a        	sta	$1a                     ; 0x1a <__rc10>
    214d: a6 13        	ldx	$13                     ; 0x13 <__rc3>
    214f: a5 13        	lda	$13                     ; 0x13 <__rc3>
    2151: 8d f1 53     	sta	$53f1                   ; 0x53f1 <__data_load_start+0x39f>
    2154: 86 12        	stx	$12                     ; 0x12 <__rc2>
    2156: a9 50        	lda	#$50
    2158: 65 12        	adc	$12                     ; 0x12 <__rc2>
    215a: 85 1b        	sta	$1b                     ; 0x1b <__rc11>
    215c: a5 1a        	lda	$1a                     ; 0x1a <__rc10>
    215e: 18           	clc
    215f: 69 2c        	adc	#$2c
    2161: 85 12        	sta	$12                     ; 0x12 <__rc2>
    2163: a5 1b        	lda	$1b                     ; 0x1b <__rc11>
    2165: 69 01        	adc	#$1
    2167: 85 13        	sta	$13                     ; 0x13 <__rc3>
    2169: a5 1a        	lda	$1a                     ; 0x1a <__rc10>
    216b: 18           	clc
    216c: 69 2d        	adc	#$2d
    216e: 85 14        	sta	$14                     ; 0x14 <__rc4>
    2170: a5 1b        	lda	$1b                     ; 0x1b <__rc11>
    2172: 69 01        	adc	#$1
    2174: 85 15        	sta	$15                     ; 0x15 <__rc5>
    2176: a5 1a        	lda	$1a                     ; 0x1a <__rc10>
    2178: 18           	clc
    2179: 69 2f        	adc	#$2f
    217b: 85 16        	sta	$16                     ; 0x16 <__rc6>
    217d: a5 1b        	lda	$1b                     ; 0x1b <__rc11>
    217f: 69 01        	adc	#$1
    2181: 85 17        	sta	$17                     ; 0x17 <__rc7>
    2183: a5 1a        	lda	$1a                     ; 0x1a <__rc10>
    2185: 18           	clc
    2186: 69 31        	adc	#$31
    2188: 85 18        	sta	$18                     ; 0x18 <__rc8>
    218a: a5 1b        	lda	$1b                     ; 0x1b <__rc11>
    218c: 69 01        	adc	#$1
    218e: a6 18        	ldx	$18                     ; 0x18 <__rc8>
    2190: 86 a9        	stx	$a9                     ; 0xa9 <__zp_bss_size+0x35>
    2192: 85 aa        	sta	$aa                     ; 0xaa <__zp_bss_size+0x36>
    2194: a5 1a        	lda	$1a                     ; 0x1a <__rc10>
    2196: 18           	clc
    2197: 69 32        	adc	#$32
    2199: 85 18        	sta	$18                     ; 0x18 <__rc8>
    219b: a5 1b        	lda	$1b                     ; 0x1b <__rc11>
    219d: 69 01        	adc	#$1
    219f: a6 18        	ldx	$18                     ; 0x18 <__rc8>
    21a1: 86 ab        	stx	$ab                     ; 0xab <__zp_bss_size+0x37>
    21a3: 85 ac        	sta	$ac                     ; 0xac <__zp_bss_size+0x38>
    21a5: a5 1a        	lda	$1a                     ; 0x1a <__rc10>
    21a7: 18           	clc
    21a8: 69 33        	adc	#$33
    21aa: 85 1c        	sta	$1c                     ; 0x1c <__rc12>
    21ac: a5 1b        	lda	$1b                     ; 0x1b <__rc11>
    21ae: 69 01        	adc	#$1
    21b0: 85 1d        	sta	$1d                     ; 0x1d <__rc13>
    21b2: a5 1a        	lda	$1a                     ; 0x1a <__rc10>
    21b4: 18           	clc
    21b5: 69 34        	adc	#$34
    21b7: 85 1e        	sta	$1e                     ; 0x1e <__rc14>
    21b9: a5 1b        	lda	$1b                     ; 0x1b <__rc11>
    21bb: 69 01        	adc	#$1
    21bd: 85 1f        	sta	$1f                     ; 0x1f <__rc15>
    21bf: a5 1a        	lda	$1a                     ; 0x1a <__rc10>
    21c1: 18           	clc
    21c2: 69 38        	adc	#$38
    21c4: 85 22        	sta	$22                     ; 0x22 <__rc18>
    21c6: a5 1b        	lda	$1b                     ; 0x1b <__rc11>
    21c8: 69 01        	adc	#$1
    21ca: a6 a8        	ldx	$a8                     ; 0xa8 <__zp_bss_size+0x34>
    21cc: 48           	pha
    21cd: bd c6 4d     	lda	$4dc6,x                 ; 0x4dc6 <sidSpriteAction>
    21d0: aa           	tax
    21d1: 68           	pla
    21d2: 85 23        	sta	$23                     ; 0x23 <__rc19>
    21d4: ad f2 53     	lda	$53f2                   ; 0x53f2 <__data_load_start+0x3a0>
    21d7: 92 22        	sta	($22)                   ; 0x22 <__rc18>
    21d9: a5 1a        	lda	$1a                     ; 0x1a <__rc10>
    21db: 18           	clc
    21dc: 69 39        	adc	#$39
    21de: 85 22        	sta	$22                     ; 0x22 <__rc18>
    21e0: a5 1b        	lda	$1b                     ; 0x1b <__rc11>
    21e2: 69 01        	adc	#$1
    21e4: 85 23        	sta	$23                     ; 0x23 <__rc19>
    21e6: a5 1a        	lda	$1a                     ; 0x1a <__rc10>
    21e8: 18           	clc
    21e9: 69 3e        	adc	#$3e
    21eb: 85 18        	sta	$18                     ; 0x18 <__rc8>
    21ed: a5 1b        	lda	$1b                     ; 0x1b <__rc11>
    21ef: 69 01        	adc	#$1
    21f1: 85 19        	sta	$19                     ; 0x19 <__rc9>
    21f3: 8a           	txa
    21f4: 92 18        	sta	($18)                   ; 0x18 <__rc8>
    21f6: 18           	clc
    21f7: a5 1a        	lda	$1a                     ; 0x1a <__rc10>
    21f9: 69 3a        	adc	#$3a
    21fb: 85 18        	sta	$18                     ; 0x18 <__rc8>
    21fd: a5 1b        	lda	$1b                     ; 0x1b <__rc11>
    21ff: 69 01        	adc	#$1
    2201: 85 19        	sta	$19                     ; 0x19 <__rc9>
    2203: 18           	clc
    2204: a5 1a        	lda	$1a                     ; 0x1a <__rc10>
    2206: 69 3f        	adc	#$3f
    2208: 85 1a        	sta	$1a                     ; 0x1a <__rc10>
    220a: a5 1b        	lda	$1b                     ; 0x1b <__rc11>
    220c: 69 01        	adc	#$1
    220e: 85 1b        	sta	$1b                     ; 0x1b <__rc11>
    2210: a5 a6        	lda	$a6                     ; 0xa6 <__zp_bss_size+0x32>
    2212: 85 a6        	sta	$a6                     ; 0xa6 <__zp_bss_size+0x32>
    2214: 92 14        	sta	($14)                   ; 0x14 <__rc4>
    2216: a9 00        	lda	#$0
    2218: a0 01        	ldy	#$1
    221a: 91 14        	sta	($14),y                 ; 0x14 <__rc4>
    221c: a9 fd        	lda	#$fd
    221e: 92 16        	sta	($16)                   ; 0x16 <__rc6>
    2220: a9 00        	lda	#$0
    2222: 91 16        	sta	($16),y                 ; 0x16 <__rc6>
    2224: a6 a9        	ldx	$a9                     ; 0xa9 <__zp_bss_size+0x35>
    2226: 86 14        	stx	$14                     ; 0x14 <__rc4>
    2228: a6 aa        	ldx	$aa                     ; 0xaa <__zp_bss_size+0x36>
    222a: 86 15        	stx	$15                     ; 0x15 <__rc5>
    222c: 92 14        	sta	($14)                   ; 0x14 <__rc4>
    222e: a6 ab        	ldx	$ab                     ; 0xab <__zp_bss_size+0x37>
    2230: 86 14        	stx	$14                     ; 0x14 <__rc4>
    2232: a6 ac        	ldx	$ac                     ; 0xac <__zp_bss_size+0x38>
    2234: 86 15        	stx	$15                     ; 0x15 <__rc5>
    2236: 92 14        	sta	($14)                   ; 0x14 <__rc4>
    2238: 92 1c        	sta	($1c)                   ; 0x1c <__rc12>
    223a: a5 a8        	lda	$a8                     ; 0xa8 <__zp_bss_size+0x34>
    223c: 92 12        	sta	($12)                   ; 0x12 <__rc2>
    223e: a9 3a        	lda	#$3a
    2240: 92 1e        	sta	($1e)                   ; 0x1e <__rc14>
    2242: a9 00        	lda	#$0
    2244: 91 1e        	sta	($1e),y                 ; 0x1e <__rc14>
    2246: 98           	tya
    2247: c8           	iny
    2248: 91 1e        	sta	($1e),y                 ; 0x1e <__rc14>
    224a: c8           	iny
    224b: 3a           	dec
    224c: 91 1e        	sta	($1e),y                 ; 0x1e <__rc14>
    224e: a9 10        	lda	#$10
    2250: 92 22        	sta	($22)                   ; 0x22 <__rc18>
    2252: a9 00        	lda	#$0
    2254: 92 18        	sta	($18)                   ; 0x18 <__rc8>
    2256: a0 01        	ldy	#$1
    2258: 91 18        	sta	($18),y                 ; 0x18 <__rc8>
    225a: c8           	iny
    225b: 91 18        	sta	($18),y                 ; 0x18 <__rc8>
    225d: c8           	iny
    225e: 91 18        	sta	($18),y                 ; 0x18 <__rc8>
    2260: 92 1a        	sta	($1a)                   ; 0x1a <__rc10>
    2262: 20 86 37     	jsr	$3786 <updateLighter>
    2265: a5 ad        	lda	$ad                     ; 0xad <__zp_bss_size+0x39>
    2267: a6 a8        	ldx	$a8                     ; 0xa8 <__zp_bss_size+0x34>
    2269: e8           	inx
    226a: 18           	clc
    226b: 69 14        	adc	#$14
    226d: 85 14        	sta	$14                     ; 0x14 <__rc4>
    226f: ad f1 53     	lda	$53f1                   ; 0x53f1 <__data_load_start+0x39f>
    2272: 69 00        	adc	#$0
    2274: 85 13        	sta	$13                     ; 0x13 <__rc3>
    2276: 18           	clc
    2277: a5 a6        	lda	$a6                     ; 0xa6 <__zp_bss_size+0x32>
    2279: 69 10        	adc	#$10
    227b: 85 a6        	sta	$a6                     ; 0xa6 <__zp_bss_size+0x32>
    227d: a4 14        	ldy	$14                     ; 0x14 <__rc4>
    227f: a5 14        	lda	$14                     ; 0x14 <__rc4>
    2281: c0 78        	cpy	#$78
    2283: f0 03        	beq	$2288 <checkUIEClick+0x5b9>
    2285: 4c 38 21     	jmp	$2138 <checkUIEClick+0x469>
    2288: 4c 91 1f     	jmp	$1f91 <checkUIEClick+0x2c2>
    228b: 20 87 23     	jsr	$2387 <textLayerGen>
    228e: a2 06        	ldx	#$6
    2290: 86 a8        	stx	$a8                     ; 0xa8 <__zp_bss_size+0x34>
    2292: a2 4f        	ldx	#$4f
    2294: 86 a9        	stx	$a9                     ; 0xa9 <__zp_bss_size+0x35>
    2296: a2 62        	ldx	#$62
    2298: 86 14        	stx	$14                     ; 0x14 <__rc4>
    229a: a2 50        	ldx	#$50
    229c: 86 15        	stx	$15                     ; 0x15 <__rc5>
    229e: a2 04        	ldx	#$4
    22a0: 86 ab        	stx	$ab                     ; 0xab <__zp_bss_size+0x37>
    22a2: bd c6 4d     	lda	$4dc6,x                 ; 0x4dc6 <sidSpriteAction>
    22a5: aa           	tax
    22a6: 86 1e        	stx	$1e                     ; 0x1e <__rc14>
    22a8: a5 14        	lda	$14                     ; 0x14 <__rc4>
    22aa: a6 14        	ldx	$14                     ; 0x14 <__rc4>
    22ac: 86 a6        	stx	$a6                     ; 0xa6 <__zp_bss_size+0x32>
    22ae: a6 15        	ldx	$15                     ; 0x15 <__rc5>
    22b0: 18           	clc
    22b1: 69 78        	adc	#$78
    22b3: 85 12        	sta	$12                     ; 0x12 <__rc2>
    22b5: a5 15        	lda	$15                     ; 0x15 <__rc5>
    22b7: 69 00        	adc	#$0
    22b9: 85 13        	sta	$13                     ; 0x13 <__rc3>
    22bb: a4 a6        	ldy	$a6                     ; 0xa6 <__zp_bss_size+0x32>
    22bd: 98           	tya
    22be: 18           	clc
    22bf: 69 79        	adc	#$79
    22c1: 85 16        	sta	$16                     ; 0x16 <__rc6>
    22c3: a5 15        	lda	$15                     ; 0x15 <__rc5>
    22c5: 86 19        	stx	$19                     ; 0x19 <__rc9>
    22c7: 69 00        	adc	#$0
    22c9: 85 17        	sta	$17                     ; 0x17 <__rc7>
    22cb: a6 a6        	ldx	$a6                     ; 0xa6 <__zp_bss_size+0x32>
    22cd: 8a           	txa
    22ce: 18           	clc
    22cf: 69 7b        	adc	#$7b
    22d1: 85 18        	sta	$18                     ; 0x18 <__rc8>
    22d3: a5 19        	lda	$19                     ; 0x19 <__rc9>
    22d5: a4 19        	ldy	$19                     ; 0x19 <__rc9>
    22d7: 69 00        	adc	#$0
    22d9: 85 19        	sta	$19                     ; 0x19 <__rc9>
    22db: a6 a6        	ldx	$a6                     ; 0xa6 <__zp_bss_size+0x32>
    22dd: 8a           	txa
    22de: 18           	clc
    22df: 69 80        	adc	#$80
    22e1: 85 1a        	sta	$1a                     ; 0x1a <__rc10>
    22e3: 98           	tya
    22e4: 84 ad        	sty	$ad                     ; 0xad <__zp_bss_size+0x39>
    22e6: 69 00        	adc	#$0
    22e8: 85 1b        	sta	$1b                     ; 0x1b <__rc11>
    22ea: a6 a6        	ldx	$a6                     ; 0xa6 <__zp_bss_size+0x32>
    22ec: 8a           	txa
    22ed: 18           	clc
    22ee: 69 86        	adc	#$86
    22f0: 85 1c        	sta	$1c                     ; 0x1c <__rc12>
    22f2: 98           	tya
    22f3: 69 00        	adc	#$0
    22f5: 85 1d        	sta	$1d                     ; 0x1d <__rc13>
    22f7: a0 8a        	ldy	#$8a
    22f9: a5 1e        	lda	$1e                     ; 0x1e <__rc14>
    22fb: 91 14        	sta	($14),y                 ; 0x14 <__rc4>
    22fd: a9 00        	lda	#$0
    22ff: a0 01        	ldy	#$1
    2301: 91 16        	sta	($16),y                 ; 0x16 <__rc6>
    2303: 91 18        	sta	($18),y                 ; 0x18 <__rc8>
    2305: a5 ab        	lda	$ab                     ; 0xab <__zp_bss_size+0x37>
    2307: a0 78        	ldy	#$78
    2309: 91 14        	sta	($14),y                 ; 0x14 <__rc4>
    230b: a5 a9        	lda	$a9                     ; 0xa9 <__zp_bss_size+0x35>
    230d: 85 a9        	sta	$a9                     ; 0xa9 <__zp_bss_size+0x35>
    230f: c8           	iny
    2310: 91 14        	sta	($14),y                 ; 0x14 <__rc4>
    2312: a9 fd        	lda	#$fd
    2314: a0 7b        	ldy	#$7b
    2316: 91 14        	sta	($14),y                 ; 0x14 <__rc4>
    2318: a0 7d        	ldy	#$7d
    231a: a9 00        	lda	#$0
    231c: 91 14        	sta	($14),y                 ; 0x14 <__rc4>
    231e: c8           	iny
    231f: 91 14        	sta	($14),y                 ; 0x14 <__rc4>
    2321: c8           	iny
    2322: 91 14        	sta	($14),y                 ; 0x14 <__rc4>
    2324: a9 3a        	lda	#$3a
    2326: a0 80        	ldy	#$80
    2328: 91 14        	sta	($14),y                 ; 0x14 <__rc4>
    232a: a0 01        	ldy	#$1
    232c: a9 00        	lda	#$0
    232e: 91 1a        	sta	($1a),y                 ; 0x1a <__rc10>
    2330: 98           	tya
    2331: c8           	iny
    2332: 91 1a        	sta	($1a),y                 ; 0x1a <__rc10>
    2334: c8           	iny
    2335: 3a           	dec
    2336: 91 1a        	sta	($1a),y                 ; 0x1a <__rc10>
    2338: a5 a8        	lda	$a8                     ; 0xa8 <__zp_bss_size+0x34>
    233a: 85 a8        	sta	$a8                     ; 0xa8 <__zp_bss_size+0x34>
    233c: a0 84        	ldy	#$84
    233e: 91 14        	sta	($14),y                 ; 0x14 <__rc4>
    2340: a9 10        	lda	#$10
    2342: c8           	iny
    2343: 91 14        	sta	($14),y                 ; 0x14 <__rc4>
    2345: c8           	iny
    2346: a9 00        	lda	#$0
    2348: 91 14        	sta	($14),y                 ; 0x14 <__rc4>
    234a: a0 01        	ldy	#$1
    234c: 91 1c        	sta	($1c),y                 ; 0x1c <__rc12>
    234e: c8           	iny
    234f: 91 1c        	sta	($1c),y                 ; 0x1c <__rc12>
    2351: c8           	iny
    2352: 91 1c        	sta	($1c),y                 ; 0x1c <__rc12>
    2354: a0 8b        	ldy	#$8b
    2356: 91 14        	sta	($14),y                 ; 0x14 <__rc4>
    2358: 20 86 37     	jsr	$3786 <updateLighter>
    235b: a6 ab        	ldx	$ab                     ; 0xab <__zp_bss_size+0x37>
    235d: 18           	clc
    235e: a5 a9        	lda	$a9                     ; 0xa9 <__zp_bss_size+0x35>
    2360: 69 10        	adc	#$10
    2362: 85 a9        	sta	$a9                     ; 0xa9 <__zp_bss_size+0x35>
    2364: 18           	clc
    2365: a5 a6        	lda	$a6                     ; 0xa6 <__zp_bss_size+0x32>
    2367: 69 14        	adc	#$14
    2369: 85 14        	sta	$14                     ; 0x14 <__rc4>
    236b: a5 ad        	lda	$ad                     ; 0xad <__zp_bss_size+0x39>
    236d: 69 00        	adc	#$0
    236f: e8           	inx
    2370: a4 a8        	ldy	$a8                     ; 0xa8 <__zp_bss_size+0x34>
    2372: c8           	iny
    2373: 85 15        	sta	$15                     ; 0x15 <__rc5>
    2375: 84 a8        	sty	$a8                     ; 0xa8 <__zp_bss_size+0x34>
    2377: c0 0f        	cpy	#$f
    2379: f0 03        	beq	$237e <checkUIEClick+0x6af>
    237b: 4c a0 22     	jmp	$22a0 <checkUIEClick+0x5d1>
    237e: 4c 91 1f     	jmp	$1f91 <checkUIEClick+0x2c2>
    2381: 20 16 26     	jsr	$2616 <loadGUISID>
    2384: 4c 91 1f     	jmp	$1f91 <checkUIEClick+0x2c2>

00002387 <textLayerGen>:
    2387: 18           	clc
    2388: a5 10        	lda	$10                     ; 0x10 <__rc0>
    238a: 69 fc        	adc	#$fc
    238c: 85 10        	sta	$10                     ; 0x10 <__rc0>
    238e: a5 11        	lda	$11                     ; 0x11 <__rc1>
    2390: 69 ff        	adc	#$ff
    2392: 85 11        	sta	$11                     ; 0x11 <__rc1>
    2394: a9 00        	lda	#$0
    2396: 64 37        	stz	$37                     ; 0x37 <_col>
    2398: 9c 14 d0     	stz	$d014                   ; 0xd014 <end_block9+0x7c0a>
    239b: 9c 15 d0     	stz	$d015                   ; 0xd015 <end_block9+0x7c0b>
    239e: 64 38        	stz	$38                     ; 0x38 <_row>
    23a0: 9c 16 d0     	stz	$d016                   ; 0xd016 <end_block9+0x7c0c>
    23a3: 9c 17 d0     	stz	$d017                   ; 0xd017 <end_block9+0x7c0d>
    23a6: 92 10        	sta	($10)                   ; 0x10 <__rc0>
    23a8: a0 01        	ldy	#$1
    23aa: 91 10        	sta	($10),y                 ; 0x10 <__rc0>
    23ac: c8           	iny
    23ad: 1a           	inc
    23ae: 91 10        	sta	($10),y                 ; 0x10 <__rc0>
    23b0: c8           	iny
    23b1: 3a           	dec
    23b2: 91 10        	sta	($10),y                 ; 0x10 <__rc0>
    23b4: 20 46 3b     	jsr	$3b46 <printf>
    23b7: a2 06        	ldx	#$6
    23b9: 86 37        	stx	$37                     ; 0x37 <_col>
    23bb: 8e 14 d0     	stx	$d014                   ; 0xd014 <end_block9+0x7c0a>
    23be: 9c 15 d0     	stz	$d015                   ; 0xd015 <end_block9+0x7c0b>
    23c1: a2 02        	ldx	#$2
    23c3: 86 38        	stx	$38                     ; 0x38 <_row>
    23c5: 8e 16 d0     	stx	$d016                   ; 0xd016 <end_block9+0x7c0c>
    23c8: 9c 17 d0     	stz	$d017                   ; 0xd017 <end_block9+0x7c0d>
    23cb: a2 09        	ldx	#$9
    23cd: 86 12        	stx	$12                     ; 0x12 <__rc2>
    23cf: a2 4f        	ldx	#$4f
    23d1: 86 13        	stx	$13                     ; 0x13 <__rc3>
    23d3: 20 5e 24     	jsr	$245e <textPrint>
    23d6: a2 06        	ldx	#$6
    23d8: 86 37        	stx	$37                     ; 0x37 <_col>
    23da: 8e 14 d0     	stx	$d014                   ; 0xd014 <end_block9+0x7c0a>
    23dd: 9c 15 d0     	stz	$d015                   ; 0xd015 <end_block9+0x7c0b>
    23e0: a2 04        	ldx	#$4
    23e2: 86 38        	stx	$38                     ; 0x38 <_row>
    23e4: 8e 16 d0     	stx	$d016                   ; 0xd016 <end_block9+0x7c0c>
    23e7: 9c 17 d0     	stz	$d017                   ; 0xd017 <end_block9+0x7c0d>
    23ea: a2 62        	ldx	#$62
    23ec: 86 12        	stx	$12                     ; 0x12 <__rc2>
    23ee: a2 4e        	ldx	#$4e
    23f0: 86 13        	stx	$13                     ; 0x13 <__rc3>
    23f2: 20 5e 24     	jsr	$245e <textPrint>
    23f5: a2 06        	ldx	#$6
    23f7: 86 37        	stx	$37                     ; 0x37 <_col>
    23f9: 8e 14 d0     	stx	$d014                   ; 0xd014 <end_block9+0x7c0a>
    23fc: 9c 15 d0     	stz	$d015                   ; 0xd015 <end_block9+0x7c0b>
    23ff: 86 38        	stx	$38                     ; 0x38 <_row>
    2401: 8e 16 d0     	stx	$d016                   ; 0xd016 <end_block9+0x7c0c>
    2404: 9c 17 d0     	stz	$d017                   ; 0xd017 <end_block9+0x7c0d>
    2407: a2 5e        	ldx	#$5e
    2409: 86 12        	stx	$12                     ; 0x12 <__rc2>
    240b: a2 4e        	ldx	#$4e
    240d: 86 13        	stx	$13                     ; 0x13 <__rc3>
    240f: 20 5e 24     	jsr	$245e <textPrint>
    2412: a2 06        	ldx	#$6
    2414: 86 37        	stx	$37                     ; 0x37 <_col>
    2416: 8e 14 d0     	stx	$d014                   ; 0xd014 <end_block9+0x7c0a>
    2419: 9c 15 d0     	stz	$d015                   ; 0xd015 <end_block9+0x7c0b>
    241c: a2 08        	ldx	#$8
    241e: 86 38        	stx	$38                     ; 0x38 <_row>
    2420: 8e 16 d0     	stx	$d016                   ; 0xd016 <end_block9+0x7c0c>
    2423: 9c 17 d0     	stz	$d017                   ; 0xd017 <end_block9+0x7c0d>
    2426: a2 f6        	ldx	#$f6
    2428: 86 12        	stx	$12                     ; 0x12 <__rc2>
    242a: a2 4e        	ldx	#$4e
    242c: 86 13        	stx	$13                     ; 0x13 <__rc3>
    242e: 20 5e 24     	jsr	$245e <textPrint>
    2431: a2 01        	ldx	#$1
    2433: 86 37        	stx	$37                     ; 0x37 <_col>
    2435: 8e 14 d0     	stx	$d014                   ; 0xd014 <end_block9+0x7c0a>
    2438: 9c 15 d0     	stz	$d015                   ; 0xd015 <end_block9+0x7c0b>
    243b: a2 1c        	ldx	#$1c
    243d: 86 38        	stx	$38                     ; 0x38 <_row>
    243f: 8e 16 d0     	stx	$d016                   ; 0xd016 <end_block9+0x7c0c>
    2442: 9c 17 d0     	stz	$d017                   ; 0xd017 <end_block9+0x7c0d>
    2445: a2 12        	ldx	#$12
    2447: 86 12        	stx	$12                     ; 0x12 <__rc2>
    2449: a2 4f        	ldx	#$4f
    244b: 86 13        	stx	$13                     ; 0x13 <__rc3>
    244d: 20 5e 24     	jsr	$245e <textPrint>
    2450: 18           	clc
    2451: a5 10        	lda	$10                     ; 0x10 <__rc0>
    2453: 69 04        	adc	#$4
    2455: 85 10        	sta	$10                     ; 0x10 <__rc0>
    2457: a5 11        	lda	$11                     ; 0x11 <__rc1>
    2459: 69 00        	adc	#$0
    245b: 85 11        	sta	$11                     ; 0x11 <__rc1>
    245d: 60           	rts

0000245e <textPrint>:
    245e: a6 01        	ldx	$1                      ; 0x1 <__zp_data_size+0x1>
    2460: 86 ef        	stx	$ef                     ; 0xef <__zp_bss_size+0x7b>
    2462: a6 38        	ldx	$38                     ; 0x38 <_row>
    2464: a0 50        	ldy	#$50
    2466: 8c 00 de     	sty	$de00                   ; 0xde00 <end_block9+0x89f6>
    2469: 9c 01 de     	stz	$de01                   ; 0xde01 <end_block9+0x89f7>
    246c: 8e 02 de     	stx	$de02                   ; 0xde02 <end_block9+0x89f8>
    246f: 9c 03 de     	stz	$de03                   ; 0xde03 <end_block9+0x89f9>
    2472: ae 10 de     	ldx	$de10                   ; 0xde10 <end_block9+0x8a06>
    2475: ac 11 de     	ldy	$de11                   ; 0xde11 <end_block9+0x8a07>
    2478: 84 15        	sty	$15                     ; 0x15 <__rc5>
    247a: ad 12 de     	lda	$de12                   ; 0xde12 <end_block9+0x8a08>
    247d: ac 13 de     	ldy	$de13                   ; 0xde13 <end_block9+0x8a09>
    2480: 84 1c        	sty	$1c                     ; 0x1c <__rc12>
    2482: 9c 08 de     	stz	$de08                   ; 0xde08 <end_block9+0x89fe>
    2485: a0 c0        	ldy	#$c0
    2487: 8c 09 de     	sty	$de09                   ; 0xde09 <end_block9+0x89ff>
    248a: 9c 0a de     	stz	$de0a                   ; 0xde0a <end_block9+0x8a00>
    248d: 9c 0b de     	stz	$de0b                   ; 0xde0b <end_block9+0x8a01>
    2490: 8e 0c de     	stx	$de0c                   ; 0xde0c <end_block9+0x8a02>
    2493: 64 14        	stz	$14                     ; 0x14 <__rc4>
    2495: a2 00        	ldx	#$0
    2497: 86 16        	stx	$16                     ; 0x16 <__rc6>
    2499: a2 c0        	ldx	#$c0
    249b: 86 17        	stx	$17                     ; 0x17 <__rc7>
    249d: a2 11        	ldx	#$11
    249f: 86 18        	stx	$18                     ; 0x18 <__rc8>
    24a1: a2 c9        	ldx	#$c9
    24a3: 86 19        	stx	$19                     ; 0x19 <__rc9>
    24a5: a2 10        	ldx	#$10
    24a7: 86 1a        	stx	$1a                     ; 0x1a <__rc10>
    24a9: a2 c9        	ldx	#$c9
    24ab: 86 1b        	stx	$1b                     ; 0x1b <__rc11>
    24ad: a6 15        	ldx	$15                     ; 0x15 <__rc5>
    24af: 8e 0d de     	stx	$de0d                   ; 0xde0d <end_block9+0x8a03>
    24b2: 8d 0e de     	sta	$de0e                   ; 0xde0e <end_block9+0x8a04>
    24b5: a6 1c        	ldx	$1c                     ; 0x1c <__rc12>
    24b7: 8e 0f de     	stx	$de0f                   ; 0xde0f <end_block9+0x8a05>
    24ba: ac 18 de     	ldy	$de18                   ; 0xde18 <end_block9+0x8a0e>
    24bd: ad 19 de     	lda	$de19                   ; 0xde19 <end_block9+0x8a0f>
    24c0: ae 1a de     	ldx	$de1a                   ; 0xde1a <end_block9+0x8a10>
    24c3: ae 1b de     	ldx	$de1b                   ; 0xde1b <end_block9+0x8a11>
    24c6: 84 1c        	sty	$1c                     ; 0x1c <__rc12>
    24c8: 85 1d        	sta	$1d                     ; 0x1d <__rc13>
    24ca: 64 15        	stz	$15                     ; 0x15 <__rc5>
    24cc: 80 13        	bra	$24e1 <textPrint+0x83>
    24ce: a5 1c        	lda	$1c                     ; 0x1c <__rc12>
    24d0: 18           	clc
    24d1: 69 50        	adc	#$50
    24d3: 85 1c        	sta	$1c                     ; 0x1c <__rc12>
    24d5: a5 1d        	lda	$1d                     ; 0x1d <__rc13>
    24d7: 69 00        	adc	#$0
    24d9: 85 1d        	sta	$1d                     ; 0x1d <__rc13>
    24db: e6 14        	inc	$14                     ; 0x14 <__rc4>
    24dd: d0 02        	bne	$24e1 <textPrint+0x83>
    24df: e6 15        	inc	$15                     ; 0x15 <__rc5>
    24e1: a5 12        	lda	$12                     ; 0x12 <__rc2>
    24e3: 18           	clc
    24e4: 65 14        	adc	$14                     ; 0x14 <__rc4>
    24e6: 85 1e        	sta	$1e                     ; 0x1e <__rc14>
    24e8: a5 13        	lda	$13                     ; 0x13 <__rc3>
    24ea: 65 15        	adc	$15                     ; 0x15 <__rc5>
    24ec: 85 1f        	sta	$1f                     ; 0x1f <__rc15>
    24ee: b2 1e        	lda	($1e)                   ; 0x1e <__rc14>
    24f0: c9 0a        	cmp	#$a
    24f2: f0 26        	beq	$251a <textPrint+0xbc>
    24f4: c9 0d        	cmp	#$d
    24f6: f0 22        	beq	$251a <textPrint+0xbc>
    24f8: aa           	tax
    24f9: d0 03        	bne	$24fe <textPrint+0xa0>
    24fb: 4c ff 25     	jmp	$25ff <textPrint+0x1a1>
    24fe: a2 03        	ldx	#$3
    2500: 86 01        	stx	$1                      ; 0x1 <__zp_data_size+0x1>
    2502: a4 37        	ldy	$37                     ; 0x37 <_col>
    2504: a9 f0        	lda	#$f0
    2506: 91 1c        	sta	($1c),y                 ; 0x1c <__rc12>
    2508: ca           	dex
    2509: 86 01        	stx	$1                      ; 0x1 <__zp_data_size+0x1>
    250b: b2 1e        	lda	($1e)                   ; 0x1e <__rc14>
    250d: a4 37        	ldy	$37                     ; 0x37 <_col>
    250f: 91 1c        	sta	($1c),y                 ; 0x1c <__rc12>
    2511: a6 37        	ldx	$37                     ; 0x37 <_col>
    2513: e8           	inx
    2514: e6 37        	inc	$37                     ; 0x37 <_col>
    2516: e0 50        	cpx	#$50
    2518: d0 c1        	bne	$24db <textPrint+0x7d>
    251a: 64 37        	stz	$37                     ; 0x37 <_col>
    251c: a6 38        	ldx	$38                     ; 0x38 <_row>
    251e: e8           	inx
    251f: e6 38        	inc	$38                     ; 0x38 <_row>
    2521: e0 1e        	cpx	#$1e
    2523: f0 03        	beq	$2528 <textPrint+0xca>
    2525: 4c ce 24     	jmp	$24ce <textPrint+0x70>
    2528: a2 03        	ldx	#$3
    252a: 86 01        	stx	$1                      ; 0x1 <__zp_data_size+0x1>
    252c: a2 01        	ldx	#$1
    252e: 86 1c        	stx	$1c                     ; 0x1c <__rc12>
    2530: a2 09        	ldx	#$9
    2532: a0 10        	ldy	#$10
    2534: a9 00        	lda	#$0
    2536: 85 1e        	sta	$1e                     ; 0x1e <__rc14>
    2538: a9 c0        	lda	#$c0
    253a: 85 1f        	sta	$1f                     ; 0x1f <__rc15>
    253c: 84 1d        	sty	$1d                     ; 0x1d <__rc13>
    253e: a0 50        	ldy	#$50
    2540: b1 1e        	lda	($1e),y                 ; 0x1e <__rc14>
    2542: 92 1e        	sta	($1e)                   ; 0x1e <__rc14>
    2544: a9 ff        	lda	#$ff
    2546: c6 1d        	dec	$1d                     ; 0x1d <__rc13>
    2548: c5 1d        	cmp	$1d                     ; 0x1d <__rc13>
    254a: d0 01        	bne	$254d <textPrint+0xef>
    254c: ca           	dex
    254d: e6 1e        	inc	$1e                     ; 0x1e <__rc14>
    254f: d0 02        	bne	$2553 <textPrint+0xf5>
    2551: e6 1f        	inc	$1f                     ; 0x1f <__rc15>
    2553: 8a           	txa
    2554: d0 ea        	bne	$2540 <textPrint+0xe2>
    2556: a5 1d        	lda	$1d                     ; 0x1d <__rc13>
    2558: d0 e6        	bne	$2540 <textPrint+0xe2>
    255a: a2 02        	ldx	#$2
    255c: 86 01        	stx	$1                      ; 0x1 <__zp_data_size+0x1>
    255e: a2 00        	ldx	#$0
    2560: a5 1c        	lda	$1c                     ; 0x1c <__rc12>
    2562: d0 ca        	bne	$252e <textPrint+0xd0>
    2564: a2 03        	ldx	#$3
    2566: 86 01        	stx	$1                      ; 0x1 <__zp_data_size+0x1>
    2568: a2 50        	ldx	#$50
    256a: a0 11        	ldy	#$11
    256c: 84 1c        	sty	$1c                     ; 0x1c <__rc12>
    256e: a0 c9        	ldy	#$c9
    2570: 84 1d        	sty	$1d                     ; 0x1d <__rc13>
    2572: a0 10        	ldy	#$10
    2574: 84 1e        	sty	$1e                     ; 0x1e <__rc14>
    2576: a0 c9        	ldy	#$c9
    2578: 84 1f        	sty	$1f                     ; 0x1f <__rc15>
    257a: a9 f0        	lda	#$f0
    257c: a4 1c        	ldy	$1c                     ; 0x1c <__rc12>
    257e: 84 22        	sty	$22                     ; 0x22 <__rc18>
    2580: a4 1d        	ldy	$1d                     ; 0x1d <__rc13>
    2582: 84 23        	sty	$23                     ; 0x23 <__rc19>
    2584: 92 1e        	sta	($1e)                   ; 0x1e <__rc14>
    2586: e6 1c        	inc	$1c                     ; 0x1c <__rc12>
    2588: d0 02        	bne	$258c <textPrint+0x12e>
    258a: e6 1d        	inc	$1d                     ; 0x1d <__rc13>
    258c: ca           	dex
    258d: a4 22        	ldy	$22                     ; 0x22 <__rc18>
    258f: 84 1e        	sty	$1e                     ; 0x1e <__rc14>
    2591: a4 23        	ldy	$23                     ; 0x23 <__rc19>
    2593: 84 1f        	sty	$1f                     ; 0x1f <__rc15>
    2595: e0 00        	cpx	#$0
    2597: d0 e3        	bne	$257c <textPrint+0x11e>
    2599: a2 02        	ldx	#$2
    259b: 86 01        	stx	$1                      ; 0x1 <__zp_data_size+0x1>
    259d: a2 50        	ldx	#$50
    259f: a0 11        	ldy	#$11
    25a1: 84 1c        	sty	$1c                     ; 0x1c <__rc12>
    25a3: a0 c9        	ldy	#$c9
    25a5: 84 1d        	sty	$1d                     ; 0x1d <__rc13>
    25a7: a0 10        	ldy	#$10
    25a9: 84 1e        	sty	$1e                     ; 0x1e <__rc14>
    25ab: a0 c9        	ldy	#$c9
    25ad: 84 1f        	sty	$1f                     ; 0x1f <__rc15>
    25af: a9 20        	lda	#$20
    25b1: a4 1c        	ldy	$1c                     ; 0x1c <__rc12>
    25b3: 84 22        	sty	$22                     ; 0x22 <__rc18>
    25b5: a4 1d        	ldy	$1d                     ; 0x1d <__rc13>
    25b7: 84 23        	sty	$23                     ; 0x23 <__rc19>
    25b9: 92 1e        	sta	($1e)                   ; 0x1e <__rc14>
    25bb: e6 1c        	inc	$1c                     ; 0x1c <__rc12>
    25bd: d0 02        	bne	$25c1 <textPrint+0x163>
    25bf: e6 1d        	inc	$1d                     ; 0x1d <__rc13>
    25c1: ca           	dex
    25c2: a4 22        	ldy	$22                     ; 0x22 <__rc18>
    25c4: 84 1e        	sty	$1e                     ; 0x1e <__rc14>
    25c6: a4 23        	ldy	$23                     ; 0x23 <__rc19>
    25c8: 84 1f        	sty	$1f                     ; 0x1f <__rc15>
    25ca: e0 00        	cpx	#$0
    25cc: d0 e3        	bne	$25b1 <textPrint+0x153>
    25ce: c6 38        	dec	$38                     ; 0x38 <_row>
    25d0: 9c 08 de     	stz	$de08                   ; 0xde08 <end_block9+0x89fe>
    25d3: a2 c0        	ldx	#$c0
    25d5: 8e 09 de     	stx	$de09                   ; 0xde09 <end_block9+0x89ff>
    25d8: 9c 0a de     	stz	$de0a                   ; 0xde0a <end_block9+0x8a00>
    25db: 9c 0b de     	stz	$de0b                   ; 0xde0b <end_block9+0x8a01>
    25de: a2 1d        	ldx	#$1d
    25e0: 8e 0c de     	stx	$de0c                   ; 0xde0c <end_block9+0x8a02>
    25e3: 9c 0d de     	stz	$de0d                   ; 0xde0d <end_block9+0x8a03>
    25e6: 9c 0e de     	stz	$de0e                   ; 0xde0e <end_block9+0x8a04>
    25e9: 9c 0f de     	stz	$de0f                   ; 0xde0f <end_block9+0x8a05>
    25ec: ae 18 de     	ldx	$de18                   ; 0xde18 <end_block9+0x8a0e>
    25ef: ac 19 de     	ldy	$de19                   ; 0xde19 <end_block9+0x8a0f>
    25f2: ad 1a de     	lda	$de1a                   ; 0xde1a <end_block9+0x8a10>
    25f5: ad 1b de     	lda	$de1b                   ; 0xde1b <end_block9+0x8a11>
    25f8: 86 1c        	stx	$1c                     ; 0x1c <__rc12>
    25fa: 84 1d        	sty	$1d                     ; 0x1d <__rc13>
    25fc: 4c db 24     	jmp	$24db <textPrint+0x7d>
    25ff: a6 ef        	ldx	$ef                     ; 0xef <__zp_bss_size+0x7b>
    2601: 86 01        	stx	$1                      ; 0x1 <__zp_data_size+0x1>
    2603: a6 37        	ldx	$37                     ; 0x37 <_col>
    2605: a4 38        	ldy	$38                     ; 0x38 <_row>
    2607: 8e 14 d0     	stx	$d014                   ; 0xd014 <end_block9+0x7c0a>
    260a: 9c 15 d0     	stz	$d015                   ; 0xd015 <end_block9+0x7c0b>
    260d: 84 38        	sty	$38                     ; 0x38 <_row>
    260f: 8c 16 d0     	sty	$d016                   ; 0xd016 <end_block9+0x7c0c>
    2612: 9c 17 d0     	stz	$d017                   ; 0xd017 <end_block9+0x7c0d>
    2615: 60           	rts

00002616 <loadGUISID>:
    2616: a6 24        	ldx	$24                     ; 0x24 <__rc20>
    2618: da           	phx
    2619: a6 25        	ldx	$25                     ; 0x25 <__rc21>
    261b: da           	phx
    261c: a6 26        	ldx	$26                     ; 0x26 <__rc22>
    261e: da           	phx
    261f: a6 27        	ldx	$27                     ; 0x27 <__rc23>
    2621: da           	phx
    2622: a6 28        	ldx	$28                     ; 0x28 <__rc24>
    2624: 8e f3 53     	stx	$53f3                   ; 0x53f3 <__data_load_start+0x3a1>
    2627: a6 29        	ldx	$29                     ; 0x29 <__rc25>
    2629: 8e f4 53     	stx	$53f4                   ; 0x53f4 <__data_load_start+0x3a2>
    262c: a6 2a        	ldx	$2a                     ; 0x2a <__rc26>
    262e: 8e f5 53     	stx	$53f5                   ; 0x53f5 <__data_load_start+0x3a3>
    2631: a6 2b        	ldx	$2b                     ; 0x2b <__rc27>
    2633: 8e f6 53     	stx	$53f6                   ; 0x53f6 <__data_load_start+0x3a4>
    2636: a6 2c        	ldx	$2c                     ; 0x2c <__rc28>
    2638: 8e f7 53     	stx	$53f7                   ; 0x53f7 <__data_load_start+0x3a5>
    263b: 20 87 23     	jsr	$2387 <textLayerGen>
    263e: a2 1e        	ldx	#$1e
    2640: 86 37        	stx	$37                     ; 0x37 <_col>
    2642: 8e 14 d0     	stx	$d014                   ; 0xd014 <end_block9+0x7c0a>
    2645: 9c 15 d0     	stz	$d015                   ; 0xd015 <end_block9+0x7c0b>
    2648: a2 02        	ldx	#$2
    264a: 86 38        	stx	$38                     ; 0x38 <_row>
    264c: 8e 16 d0     	stx	$d016                   ; 0xd016 <end_block9+0x7c0c>
    264f: 9c 17 d0     	stz	$d017                   ; 0xd017 <end_block9+0x7c0d>
    2652: a2 66        	ldx	#$66
    2654: 86 12        	stx	$12                     ; 0x12 <__rc2>
    2656: a2 4e        	ldx	#$4e
    2658: 86 13        	stx	$13                     ; 0x13 <__rc3>
    265a: 20 5e 24     	jsr	$245e <textPrint>
    265d: a2 1e        	ldx	#$1e
    265f: 86 37        	stx	$37                     ; 0x37 <_col>
    2661: 8e 14 d0     	stx	$d014                   ; 0xd014 <end_block9+0x7c0a>
    2664: 9c 15 d0     	stz	$d015                   ; 0xd015 <end_block9+0x7c0b>
    2667: a2 04        	ldx	#$4
    2669: 86 38        	stx	$38                     ; 0x38 <_row>
    266b: 8e 16 d0     	stx	$d016                   ; 0xd016 <end_block9+0x7c0c>
    266e: 9c 17 d0     	stz	$d017                   ; 0xd017 <end_block9+0x7c0d>
    2671: a2 f2        	ldx	#$f2
    2673: 86 12        	stx	$12                     ; 0x12 <__rc2>
    2675: a2 4e        	ldx	#$4e
    2677: 86 13        	stx	$13                     ; 0x13 <__rc3>
    2679: 20 5e 24     	jsr	$245e <textPrint>
    267c: a2 1e        	ldx	#$1e
    267e: 86 37        	stx	$37                     ; 0x37 <_col>
    2680: 8e 14 d0     	stx	$d014                   ; 0xd014 <end_block9+0x7c0a>
    2683: 9c 15 d0     	stz	$d015                   ; 0xd015 <end_block9+0x7c0b>
    2686: a2 06        	ldx	#$6
    2688: 86 38        	stx	$38                     ; 0x38 <_row>
    268a: 8e 16 d0     	stx	$d016                   ; 0xd016 <end_block9+0x7c0c>
    268d: 9c 17 d0     	stz	$d017                   ; 0xd017 <end_block9+0x7c0d>
    2690: a2 ee        	ldx	#$ee
    2692: 86 12        	stx	$12                     ; 0x12 <__rc2>
    2694: a2 4e        	ldx	#$4e
    2696: 86 13        	stx	$13                     ; 0x13 <__rc3>
    2698: 20 5e 24     	jsr	$245e <textPrint>
    269b: a2 1e        	ldx	#$1e
    269d: 86 37        	stx	$37                     ; 0x37 <_col>
    269f: 8e 14 d0     	stx	$d014                   ; 0xd014 <end_block9+0x7c0a>
    26a2: 9c 15 d0     	stz	$d015                   ; 0xd015 <end_block9+0x7c0b>
    26a5: a2 08        	ldx	#$8
    26a7: 86 38        	stx	$38                     ; 0x38 <_row>
    26a9: 8e 16 d0     	stx	$d016                   ; 0xd016 <end_block9+0x7c0c>
    26ac: 9c 17 d0     	stz	$d017                   ; 0xd017 <end_block9+0x7c0d>
    26af: a2 0e        	ldx	#$e
    26b1: 86 12        	stx	$12                     ; 0x12 <__rc2>
    26b3: a2 4f        	ldx	#$4f
    26b5: 86 13        	stx	$13                     ; 0x13 <__rc3>
    26b7: 20 5e 24     	jsr	$245e <textPrint>
    26ba: a2 0d        	ldx	#$d
    26bc: 86 37        	stx	$37                     ; 0x37 <_col>
    26be: 8e 14 d0     	stx	$d014                   ; 0xd014 <end_block9+0x7c0a>
    26c1: 9c 15 d0     	stz	$d015                   ; 0xd015 <end_block9+0x7c0b>
    26c4: a2 02        	ldx	#$2
    26c6: 86 38        	stx	$38                     ; 0x38 <_row>
    26c8: 8e 16 d0     	stx	$d016                   ; 0xd016 <end_block9+0x7c0c>
    26cb: 9c 17 d0     	stz	$d017                   ; 0xd017 <end_block9+0x7c0d>
    26ce: a2 83        	ldx	#$83
    26d0: 86 12        	stx	$12                     ; 0x12 <__rc2>
    26d2: a2 4e        	ldx	#$4e
    26d4: 86 13        	stx	$13                     ; 0x13 <__rc3>
    26d6: 20 5e 24     	jsr	$245e <textPrint>
    26d9: a2 0d        	ldx	#$d
    26db: 86 37        	stx	$37                     ; 0x37 <_col>
    26dd: 8e 14 d0     	stx	$d014                   ; 0xd014 <end_block9+0x7c0a>
    26e0: 9c 15 d0     	stz	$d015                   ; 0xd015 <end_block9+0x7c0b>
    26e3: a2 09        	ldx	#$9
    26e5: 86 38        	stx	$38                     ; 0x38 <_row>
    26e7: 8e 16 d0     	stx	$d016                   ; 0xd016 <end_block9+0x7c0c>
    26ea: 9c 17 d0     	stz	$d017                   ; 0xd017 <end_block9+0x7c0d>
    26ed: a2 05        	ldx	#$5
    26ef: 86 12        	stx	$12                     ; 0x12 <__rc2>
    26f1: a2 4f        	ldx	#$4f
    26f3: 86 13        	stx	$13                     ; 0x13 <__rc3>
    26f5: 20 5e 24     	jsr	$245e <textPrint>
    26f8: a0 2c        	ldy	#$2c
    26fa: 64 12        	stz	$12                     ; 0x12 <__rc2>
    26fc: a9 00        	lda	#$0
    26fe: 64 27        	stz	$27                     ; 0x27 <__rc23>
    2700: a6 12        	ldx	$12                     ; 0x12 <__rc2>
    2702: 86 1a        	stx	$1a                     ; 0x1a <__rc10>
    2704: 18           	clc
    2705: aa           	tax
    2706: a9 06        	lda	#$6
    2708: 65 12        	adc	$12                     ; 0x12 <__rc2>
    270a: 85 18        	sta	$18                     ; 0x18 <__rc8>
    270c: 86 26        	stx	$26                     ; 0x26 <__rc22>
    270e: 86 12        	stx	$12                     ; 0x12 <__rc2>
    2710: 84 1b        	sty	$1b                     ; 0x1b <__rc11>
    2712: a9 52        	lda	#$52
    2714: 65 12        	adc	$12                     ; 0x12 <__rc2>
    2716: a8           	tay
    2717: a5 18        	lda	$18                     ; 0x18 <__rc8>
    2719: 18           	clc
    271a: 69 03        	adc	#$3
    271c: 85 16        	sta	$16                     ; 0x16 <__rc6>
    271e: 98           	tya
    271f: 69 00        	adc	#$0
    2721: a6 27        	ldx	$27                     ; 0x27 <__rc23>
    2723: 48           	pha
    2724: bd c6 4d     	lda	$4dc6,x                 ; 0x4dc6 <sidSpriteAction>
    2727: aa           	tax
    2728: a5 18        	lda	$18                     ; 0x18 <__rc8>
    272a: 85 12        	sta	$12                     ; 0x12 <__rc2>
    272c: 84 13        	sty	$13                     ; 0x13 <__rc3>
    272e: a5 12        	lda	$12                     ; 0x12 <__rc2>
    2730: 85 14        	sta	$14                     ; 0x14 <__rc4>
    2732: 68           	pla
    2733: 84 15        	sty	$15                     ; 0x15 <__rc5>
    2735: 85 17        	sta	$17                     ; 0x17 <__rc7>
    2737: 18           	clc
    2738: a5 18        	lda	$18                     ; 0x18 <__rc8>
    273a: 69 08        	adc	#$8
    273c: 85 18        	sta	$18                     ; 0x18 <__rc8>
    273e: 98           	tya
    273f: 69 00        	adc	#$0
    2741: e6 14        	inc	$14                     ; 0x14 <__rc4>
    2743: d0 02        	bne	$2747 <loadGUISID+0x131>
    2745: e6 15        	inc	$15                     ; 0x15 <__rc5>
    2747: 85 19        	sta	$19                     ; 0x19 <__rc9>
    2749: a0 01        	ldy	#$1
    274b: a9 00        	lda	#$0
    274d: 91 14        	sta	($14),y                 ; 0x14 <__rc4>
    274f: 91 16        	sta	($16),y                 ; 0x16 <__rc6>
    2751: a9 38        	lda	#$38
    2753: 91 18        	sta	($18),y                 ; 0x18 <__rc8>
    2755: c8           	iny
    2756: a9 01        	lda	#$1
    2758: 91 18        	sta	($18),y                 ; 0x18 <__rc8>
    275a: c8           	iny
    275b: 3a           	dec
    275c: 91 18        	sta	($18),y                 ; 0x18 <__rc8>
    275e: a5 27        	lda	$27                     ; 0x27 <__rc23>
    2760: 92 12        	sta	($12)                   ; 0x12 <__rc2>
    2762: a9 28        	lda	#$28
    2764: a0 01        	ldy	#$1
    2766: 91 12        	sta	($12),y                 ; 0x12 <__rc2>
    2768: a5 1b        	lda	$1b                     ; 0x1b <__rc11>
    276a: 85 24        	sta	$24                     ; 0x24 <__rc20>
    276c: a0 03        	ldy	#$3
    276e: 91 12        	sta	($12),y                 ; 0x12 <__rc2>
    2770: a0 05        	ldy	#$5
    2772: a9 00        	lda	#$0
    2774: 91 12        	sta	($12),y                 ; 0x12 <__rc2>
    2776: c8           	iny
    2777: 91 12        	sta	($12),y                 ; 0x12 <__rc2>
    2779: c8           	iny
    277a: 91 12        	sta	($12),y                 ; 0x12 <__rc2>
    277c: c8           	iny
    277d: 91 12        	sta	($12),y                 ; 0x12 <__rc2>
    277f: a5 27        	lda	$27                     ; 0x27 <__rc23>
    2781: a0 0c        	ldy	#$c
    2783: 91 12        	sta	($12),y                 ; 0x12 <__rc2>
    2785: c8           	iny
    2786: a9 10        	lda	#$10
    2788: 91 12        	sta	($12),y                 ; 0x12 <__rc2>
    278a: c8           	iny
    278b: a9 00        	lda	#$0
    278d: 91 12        	sta	($12),y                 ; 0x12 <__rc2>
    278f: a9 0d        	lda	#$d
    2791: c8           	iny
    2792: 91 12        	sta	($12),y                 ; 0x12 <__rc2>
    2794: a9 04        	lda	#$4
    2796: c8           	iny
    2797: 91 12        	sta	($12),y                 ; 0x12 <__rc2>
    2799: a9 0b        	lda	#$b
    279b: c8           	iny
    279c: 91 12        	sta	($12),y                 ; 0x12 <__rc2>
    279e: c8           	iny
    279f: 8a           	txa
    27a0: 91 12        	sta	($12),y                 ; 0x12 <__rc2>
    27a2: a9 01        	lda	#$1
    27a4: a6 1a        	ldx	$1a                     ; 0x1a <__rc10>
    27a6: 86 25        	stx	$25                     ; 0x25 <__rc21>
    27a8: e0 15        	cpx	#$15
    27aa: f0 02        	beq	$27ae <loadGUISID+0x198>
    27ac: a9 00        	lda	#$0
    27ae: aa           	tax
    27af: a9 00        	lda	#$0
    27b1: 20 63 32     	jsr	$3263 <setRadioB>
    27b4: e6 27        	inc	$27                     ; 0x27 <__rc23>
    27b6: 18           	clc
    27b7: a5 24        	lda	$24                     ; 0x24 <__rc20>
    27b9: 69 10        	adc	#$10
    27bb: a8           	tay
    27bc: 18           	clc
    27bd: a5 25        	lda	$25                     ; 0x25 <__rc21>
    27bf: 69 15        	adc	#$15
    27c1: aa           	tax
    27c2: a5 26        	lda	$26                     ; 0x26 <__rc22>
    27c4: 69 00        	adc	#$0
    27c6: 86 12        	stx	$12                     ; 0x12 <__rc2>
    27c8: e0 54        	cpx	#$54
    27ca: f0 03        	beq	$27cf <loadGUISID+0x1b9>
    27cc: 4c 00 27     	jmp	$2700 <loadGUISID+0xea>
    27cf: a0 2c        	ldy	#$2c
    27d1: 64 12        	stz	$12                     ; 0x12 <__rc2>
    27d3: a9 00        	lda	#$0
    27d5: a2 04        	ldx	#$4
    27d7: 86 ae        	stx	$ae                     ; 0xae <__zp_bss_size+0x3a>
    27d9: a6 12        	ldx	$12                     ; 0x12 <__rc2>
    27db: 86 1c        	stx	$1c                     ; 0x1c <__rc12>
    27dd: 18           	clc
    27de: 85 13        	sta	$13                     ; 0x13 <__rc3>
    27e0: a9 06        	lda	#$6
    27e2: 65 12        	adc	$12                     ; 0x12 <__rc2>
    27e4: 85 15        	sta	$15                     ; 0x15 <__rc5>
    27e6: a6 13        	ldx	$13                     ; 0x13 <__rc3>
    27e8: 86 26        	stx	$26                     ; 0x26 <__rc22>
    27ea: a9 52        	lda	#$52
    27ec: 65 13        	adc	$13                     ; 0x13 <__rc3>
    27ee: 85 14        	sta	$14                     ; 0x14 <__rc4>
    27f0: a5 15        	lda	$15                     ; 0x15 <__rc5>
    27f2: 18           	clc
    27f3: 69 54        	adc	#$54
    27f5: 85 12        	sta	$12                     ; 0x12 <__rc2>
    27f7: a5 14        	lda	$14                     ; 0x14 <__rc4>
    27f9: 69 00        	adc	#$0
    27fb: 85 13        	sta	$13                     ; 0x13 <__rc3>
    27fd: a5 15        	lda	$15                     ; 0x15 <__rc5>
    27ff: 18           	clc
    2800: 69 55        	adc	#$55
    2802: 85 16        	sta	$16                     ; 0x16 <__rc6>
    2804: 84 1d        	sty	$1d                     ; 0x1d <__rc13>
    2806: a5 14        	lda	$14                     ; 0x14 <__rc4>
    2808: 69 00        	adc	#$0
    280a: 85 17        	sta	$17                     ; 0x17 <__rc7>
    280c: a5 15        	lda	$15                     ; 0x15 <__rc5>
    280e: 18           	clc
    280f: 69 57        	adc	#$57
    2811: 85 18        	sta	$18                     ; 0x18 <__rc8>
    2813: a4 14        	ldy	$14                     ; 0x14 <__rc4>
    2815: a5 14        	lda	$14                     ; 0x14 <__rc4>
    2817: 69 00        	adc	#$0
    2819: 85 19        	sta	$19                     ; 0x19 <__rc9>
    281b: a6 15        	ldx	$15                     ; 0x15 <__rc5>
    281d: 86 14        	stx	$14                     ; 0x14 <__rc4>
    281f: a5 15        	lda	$15                     ; 0x15 <__rc5>
    2821: 84 15        	sty	$15                     ; 0x15 <__rc5>
    2823: 18           	clc
    2824: 69 5c        	adc	#$5c
    2826: 85 1a        	sta	$1a                     ; 0x1a <__rc10>
    2828: 98           	tya
    2829: 69 00        	adc	#$0
    282b: 85 1b        	sta	$1b                     ; 0x1b <__rc11>
    282d: a5 ae        	lda	$ae                     ; 0xae <__zp_bss_size+0x3a>
    282f: aa           	tax
    2830: 85 1e        	sta	$1e                     ; 0x1e <__rc14>
    2832: bd c6 4d     	lda	$4dc6,x                 ; 0x4dc6 <sidSpriteAction>
    2835: a0 66        	ldy	#$66
    2837: 91 14        	sta	($14),y                 ; 0x14 <__rc4>
    2839: a0 01        	ldy	#$1
    283b: a9 00        	lda	#$0
    283d: 91 16        	sta	($16),y                 ; 0x16 <__rc6>
    283f: 91 18        	sta	($18),y                 ; 0x18 <__rc8>
    2841: a9 38        	lda	#$38
    2843: 91 1a        	sta	($1a),y                 ; 0x1a <__rc10>
    2845: c8           	iny
    2846: a9 01        	lda	#$1
    2848: 91 1a        	sta	($1a),y                 ; 0x1a <__rc10>
    284a: c8           	iny
    284b: 3a           	dec
    284c: 91 1a        	sta	($1a),y                 ; 0x1a <__rc10>
    284e: a0 54        	ldy	#$54
    2850: a5 1e        	lda	$1e                     ; 0x1e <__rc14>
    2852: 91 14        	sta	($14),y                 ; 0x14 <__rc4>
    2854: c8           	iny
    2855: a9 88        	lda	#$88
    2857: 91 14        	sta	($14),y                 ; 0x14 <__rc4>
    2859: a5 1d        	lda	$1d                     ; 0x1d <__rc13>
    285b: 85 24        	sta	$24                     ; 0x24 <__rc20>
    285d: a0 57        	ldy	#$57
    285f: 91 14        	sta	($14),y                 ; 0x14 <__rc4>
    2861: a0 59        	ldy	#$59
    2863: a9 00        	lda	#$0
    2865: 91 14        	sta	($14),y                 ; 0x14 <__rc4>
    2867: c8           	iny
    2868: 91 14        	sta	($14),y                 ; 0x14 <__rc4>
    286a: c8           	iny
    286b: 91 14        	sta	($14),y                 ; 0x14 <__rc4>
    286d: c8           	iny
    286e: 91 14        	sta	($14),y                 ; 0x14 <__rc4>
    2870: a5 1e        	lda	$1e                     ; 0x1e <__rc14>
    2872: 85 27        	sta	$27                     ; 0x27 <__rc23>
    2874: a0 60        	ldy	#$60
    2876: 91 14        	sta	($14),y                 ; 0x14 <__rc4>
    2878: a9 10        	lda	#$10
    287a: c8           	iny
    287b: 91 14        	sta	($14),y                 ; 0x14 <__rc4>
    287d: c8           	iny
    287e: a9 00        	lda	#$0
    2880: 91 14        	sta	($14),y                 ; 0x14 <__rc4>
    2882: a9 0d        	lda	#$d
    2884: c8           	iny
    2885: 91 14        	sta	($14),y                 ; 0x14 <__rc4>
    2887: a9 04        	lda	#$4
    2889: c8           	iny
    288a: 91 14        	sta	($14),y                 ; 0x14 <__rc4>
    288c: a9 0b        	lda	#$b
    288e: c8           	iny
    288f: 91 14        	sta	($14),y                 ; 0x14 <__rc4>
    2891: a9 01        	lda	#$1
    2893: a6 1c        	ldx	$1c                     ; 0x1c <__rc12>
    2895: 86 25        	stx	$25                     ; 0x25 <__rc21>
    2897: e0 15        	cpx	#$15
    2899: f0 02        	beq	$289d <loadGUISID+0x287>
    289b: a9 00        	lda	#$0
    289d: aa           	tax
    289e: a9 01        	lda	#$1
    28a0: 20 63 32     	jsr	$3263 <setRadioB>
    28a3: e6 27        	inc	$27                     ; 0x27 <__rc23>
    28a5: a6 27        	ldx	$27                     ; 0x27 <__rc23>
    28a7: 86 ae        	stx	$ae                     ; 0xae <__zp_bss_size+0x3a>
    28a9: 18           	clc
    28aa: a5 24        	lda	$24                     ; 0x24 <__rc20>
    28ac: 69 10        	adc	#$10
    28ae: a8           	tay
    28af: 18           	clc
    28b0: a5 25        	lda	$25                     ; 0x25 <__rc21>
    28b2: 69 15        	adc	#$15
    28b4: aa           	tax
    28b5: a5 26        	lda	$26                     ; 0x26 <__rc22>
    28b7: 69 00        	adc	#$0
    28b9: 86 12        	stx	$12                     ; 0x12 <__rc2>
    28bb: e0 54        	cpx	#$54
    28bd: f0 03        	beq	$28c2 <loadGUISID+0x2ac>
    28bf: 4c d9 27     	jmp	$27d9 <loadGUISID+0x1c3>
    28c2: a0 4f        	ldy	#$4f
    28c4: a2 08        	ldx	#$8
    28c6: 64 13        	stz	$13                     ; 0x13 <__rc3>
    28c8: 64 12        	stz	$12                     ; 0x12 <__rc2>
    28ca: 86 14        	stx	$14                     ; 0x14 <__rc4>
    28cc: bd c6 4d     	lda	$4dc6,x                 ; 0x4dc6 <sidSpriteAction>
    28cf: aa           	tax
    28d0: 86 15        	stx	$15                     ; 0x15 <__rc5>
    28d2: a6 13        	ldx	$13                     ; 0x13 <__rc3>
    28d4: 9e b0 52     	stz	$52b0,x                 ; 0x52b0 <sliders+0x2>
    28d7: 9e b2 52     	stz	$52b2,x                 ; 0x52b2 <sliders+0x4>
    28da: 9e b3 52     	stz	$52b3,x                 ; 0x52b3 <sliders+0x5>
    28dd: 9e b4 52     	stz	$52b4,x                 ; 0x52b4 <sliders+0x6>
    28e0: 9e b5 52     	stz	$52b5,x                 ; 0x52b5 <sliders+0x7>
    28e3: 9e b6 52     	stz	$52b6,x                 ; 0x52b6 <sliders+0x8>
    28e6: 9e b9 52     	stz	$52b9,x                 ; 0x52b9 <sliders+0xb>
    28e9: a5 14        	lda	$14                     ; 0x14 <__rc4>
    28eb: 9d ae 52     	sta	$52ae,x                 ; 0x52ae <sliders>
    28ee: 98           	tya
    28ef: 9d af 52     	sta	$52af,x                 ; 0x52af <sliders+0x1>
    28f2: a9 32        	lda	#$32
    28f4: 9d b1 52     	sta	$52b1,x                 ; 0x52b1 <sliders+0x3>
    28f7: a9 28        	lda	#$28
    28f9: 9d b7 52     	sta	$52b7,x                 ; 0x52b7 <sliders+0x9>
    28fc: a9 01        	lda	#$1
    28fe: 9d b8 52     	sta	$52b8,x                 ; 0x52b8 <sliders+0xa>
    2901: a5 12        	lda	$12                     ; 0x12 <__rc2>
    2903: 9d ba 52     	sta	$52ba,x                 ; 0x52ba <sliders+0xc>
    2906: a9 10        	lda	#$10
    2908: 9d bb 52     	sta	$52bb,x                 ; 0x52bb <sliders+0xd>
    290b: a9 03        	lda	#$3
    290d: 9d bc 52     	sta	$52bc,x                 ; 0x52bc <sliders+0xe>
    2910: a9 0a        	lda	#$a
    2912: 9d bd 52     	sta	$52bd,x                 ; 0x52bd <sliders+0xf>
    2915: a9 06        	lda	#$6
    2917: 9d be 52     	sta	$52be,x                 ; 0x52be <sliders+0x10>
    291a: a9 19        	lda	#$19
    291c: 9d bf 52     	sta	$52bf,x                 ; 0x52bf <sliders+0x11>
    291f: a5 15        	lda	$15                     ; 0x15 <__rc5>
    2921: 9d c0 52     	sta	$52c0,x                 ; 0x52c0 <sliders+0x12>
    2924: 18           	clc
    2925: a5 14        	lda	$14                     ; 0x14 <__rc4>
    2927: 69 02        	adc	#$2
    2929: aa           	tax
    292a: e6 12        	inc	$12                     ; 0x12 <__rc2>
    292c: 18           	clc
    292d: a5 13        	lda	$13                     ; 0x13 <__rc3>
    292f: 69 1c        	adc	#$1c
    2931: 85 13        	sta	$13                     ; 0x13 <__rc3>
    2933: 18           	clc
    2934: 98           	tya
    2935: 69 0c        	adc	#$c
    2937: a8           	tay
    2938: e0 10        	cpx	#$10
    293a: f0 03        	beq	$293f <loadGUISID+0x329>
    293c: 4c ca 28     	jmp	$28ca <loadGUISID+0x2b4>
    293f: a5 a2        	lda	$a2                     ; 0xa2 <gPtr>
    2941: a6 a3        	ldx	$a3                     ; 0xa3 <gPtr+0x1>
    2943: 85 26        	sta	$26                     ; 0x26 <__rc22>
    2945: 86 27        	stx	$27                     ; 0x27 <__rc23>
    2947: a0 04        	ldy	#$4
    2949: 18           	clc
    294a: 69 04        	adc	#$4
    294c: 85 24        	sta	$24                     ; 0x24 <__rc20>
    294e: 8a           	txa
    294f: 69 00        	adc	#$0
    2951: 85 25        	sta	$25                     ; 0x25 <__rc21>
    2953: b1 26        	lda	($26),y                 ; 0x26 <__rc22>
    2955: 85 12        	sta	$12                     ; 0x12 <__rc2>
    2957: a0 01        	ldy	#$1
    2959: b1 24        	lda	($24),y                 ; 0x24 <__rc20>
    295b: 85 13        	sta	$13                     ; 0x13 <__rc3>
    295d: a0 03        	ldy	#$3
    295f: b1 12        	lda	($12),y                 ; 0x12 <__rc2>
    2961: 4a           	lsr
    2962: 4a           	lsr
    2963: 4a           	lsr
    2964: 4a           	lsr
    2965: 8d c1 52     	sta	$52c1                   ; 0x52c1 <sliders+0x13>
    2968: 9c c2 52     	stz	$52c2                   ; 0x52c2 <sliders+0x14>
    296b: a2 0f        	ldx	#$f
    296d: 8e c3 52     	stx	$52c3                   ; 0x52c3 <sliders+0x15>
    2970: 9c c4 52     	stz	$52c4                   ; 0x52c4 <sliders+0x16>
    2973: 9c c5 52     	stz	$52c5                   ; 0x52c5 <sliders+0x17>
    2976: 9c c6 52     	stz	$52c6                   ; 0x52c6 <sliders+0x18>
    2979: 9c c7 52     	stz	$52c7                   ; 0x52c7 <sliders+0x19>
    297c: 9c c8 52     	stz	$52c8                   ; 0x52c8 <sliders+0x1a>
    297f: 9c c9 52     	stz	$52c9                   ; 0x52c9 <sliders+0x1b>
    2982: a2 ae        	ldx	#$ae
    2984: 86 12        	stx	$12                     ; 0x12 <__rc2>
    2986: a2 52        	ldx	#$52
    2988: 86 13        	stx	$13                     ; 0x13 <__rc3>
    298a: 20 d2 34     	jsr	$34d2 <updateSlider>
    298d: a0 04        	ldy	#$4
    298f: b1 26        	lda	($26),y                 ; 0x26 <__rc22>
    2991: 85 12        	sta	$12                     ; 0x12 <__rc2>
    2993: a0 01        	ldy	#$1
    2995: b1 24        	lda	($24),y                 ; 0x24 <__rc20>
    2997: 85 13        	sta	$13                     ; 0x13 <__rc3>
    2999: a9 0f        	lda	#$f
    299b: a0 03        	ldy	#$3
    299d: 31 12        	and	($12),y                 ; 0x12 <__rc2>
    299f: 8d dd 52     	sta	$52dd                   ; 0x52dd <sliders+0x2f>
    29a2: 9c de 52     	stz	$52de                   ; 0x52de <sliders+0x30>
    29a5: a2 0f        	ldx	#$f
    29a7: 8e df 52     	stx	$52df                   ; 0x52df <sliders+0x31>
    29aa: 9c e0 52     	stz	$52e0                   ; 0x52e0 <sliders+0x32>
    29ad: 9c e1 52     	stz	$52e1                   ; 0x52e1 <sliders+0x33>
    29b0: 9c e2 52     	stz	$52e2                   ; 0x52e2 <sliders+0x34>
    29b3: 9c e3 52     	stz	$52e3                   ; 0x52e3 <sliders+0x35>
    29b6: 9c e4 52     	stz	$52e4                   ; 0x52e4 <sliders+0x36>
    29b9: 9c e5 52     	stz	$52e5                   ; 0x52e5 <sliders+0x37>
    29bc: a2 ca        	ldx	#$ca
    29be: 86 12        	stx	$12                     ; 0x12 <__rc2>
    29c0: a2 52        	ldx	#$52
    29c2: 86 13        	stx	$13                     ; 0x13 <__rc3>
    29c4: 20 d2 34     	jsr	$34d2 <updateSlider>
    29c7: a0 04        	ldy	#$4
    29c9: b1 26        	lda	($26),y                 ; 0x26 <__rc22>
    29cb: 85 12        	sta	$12                     ; 0x12 <__rc2>
    29cd: a0 01        	ldy	#$1
    29cf: b1 24        	lda	($24),y                 ; 0x24 <__rc20>
    29d1: 85 13        	sta	$13                     ; 0x13 <__rc3>
    29d3: a0 04        	ldy	#$4
    29d5: b1 12        	lda	($12),y                 ; 0x12 <__rc2>
    29d7: 4a           	lsr
    29d8: 4a           	lsr
    29d9: 4a           	lsr
    29da: 4a           	lsr
    29db: 8d f9 52     	sta	$52f9                   ; 0x52f9 <sliders+0x4b>
    29de: 9c fa 52     	stz	$52fa                   ; 0x52fa <sliders+0x4c>
    29e1: a2 0f        	ldx	#$f
    29e3: 8e fb 52     	stx	$52fb                   ; 0x52fb <sliders+0x4d>
    29e6: 9c fc 52     	stz	$52fc                   ; 0x52fc <sliders+0x4e>
    29e9: 9c fd 52     	stz	$52fd                   ; 0x52fd <sliders+0x4f>
    29ec: 9c fe 52     	stz	$52fe                   ; 0x52fe <sliders+0x50>
    29ef: 9c ff 52     	stz	$52ff                   ; 0x52ff <sliders+0x51>
    29f2: 9c 00 53     	stz	$5300                   ; 0x5300 <sliders+0x52>
    29f5: 9c 01 53     	stz	$5301                   ; 0x5301 <sliders+0x53>
    29f8: a2 e6        	ldx	#$e6
    29fa: 86 12        	stx	$12                     ; 0x12 <__rc2>
    29fc: a2 52        	ldx	#$52
    29fe: 86 13        	stx	$13                     ; 0x13 <__rc3>
    2a00: 20 d2 34     	jsr	$34d2 <updateSlider>
    2a03: a0 04        	ldy	#$4
    2a05: b1 26        	lda	($26),y                 ; 0x26 <__rc22>
    2a07: 85 12        	sta	$12                     ; 0x12 <__rc2>
    2a09: a0 01        	ldy	#$1
    2a0b: b1 24        	lda	($24),y                 ; 0x24 <__rc20>
    2a0d: 85 13        	sta	$13                     ; 0x13 <__rc3>
    2a0f: a9 0f        	lda	#$f
    2a11: a0 04        	ldy	#$4
    2a13: 31 12        	and	($12),y                 ; 0x12 <__rc2>
    2a15: 8d 15 53     	sta	$5315                   ; 0x5315 <sliders+0x67>
    2a18: 9c 16 53     	stz	$5316                   ; 0x5316 <sliders+0x68>
    2a1b: a2 0f        	ldx	#$f
    2a1d: 8e 17 53     	stx	$5317                   ; 0x5317 <sliders+0x69>
    2a20: 9c 18 53     	stz	$5318                   ; 0x5318 <sliders+0x6a>
    2a23: 9c 19 53     	stz	$5319                   ; 0x5319 <sliders+0x6b>
    2a26: 9c 1a 53     	stz	$531a                   ; 0x531a <sliders+0x6c>
    2a29: 9c 1b 53     	stz	$531b                   ; 0x531b <sliders+0x6d>
    2a2c: 9c 1c 53     	stz	$531c                   ; 0x531c <sliders+0x6e>
    2a2f: 9c 1d 53     	stz	$531d                   ; 0x531d <sliders+0x6f>
    2a32: a2 02        	ldx	#$2
    2a34: 86 12        	stx	$12                     ; 0x12 <__rc2>
    2a36: a2 53        	ldx	#$53
    2a38: 86 13        	stx	$13                     ; 0x13 <__rc3>
    2a3a: 20 d2 34     	jsr	$34d2 <updateSlider>
    2a3d: a2 13        	ldx	#$13
    2a3f: 86 ae        	stx	$ae                     ; 0xae <__zp_bss_size+0x3a>
    2a41: a2 4e        	ldx	#$4e
    2a43: 86 af        	stx	$af                     ; 0xaf <__zp_bss_size+0x3b>
    2a45: 64 12        	stz	$12                     ; 0x12 <__rc2>
    2a47: 64 13        	stz	$13                     ; 0x13 <__rc3>
    2a49: a2 10        	ldx	#$10
    2a4b: 18           	clc
    2a4c: 8a           	txa
    2a4d: 86 28        	stx	$28                     ; 0x28 <__rc24>
    2a4f: 69 f0        	adc	#$f0
    2a51: 85 18        	sta	$18                     ; 0x18 <__rc8>
    2a53: a6 12        	ldx	$12                     ; 0x12 <__rc2>
    2a55: a9 1e        	lda	#$1e
    2a57: 18           	clc
    2a58: 65 12        	adc	$12                     ; 0x12 <__rc2>
    2a5a: 85 16        	sta	$16                     ; 0x16 <__rc6>
    2a5c: a4 13        	ldy	$13                     ; 0x13 <__rc3>
    2a5e: 84 27        	sty	$27                     ; 0x27 <__rc23>
    2a60: a9 53        	lda	#$53
    2a62: 65 13        	adc	$13                     ; 0x13 <__rc3>
    2a64: 85 17        	sta	$17                     ; 0x17 <__rc7>
    2a66: a5 16        	lda	$16                     ; 0x16 <__rc6>
    2a68: 18           	clc
    2a69: 69 03        	adc	#$3
    2a6b: 85 12        	sta	$12                     ; 0x12 <__rc2>
    2a6d: 86 26        	stx	$26                     ; 0x26 <__rc22>
    2a6f: a5 17        	lda	$17                     ; 0x17 <__rc7>
    2a71: 69 00        	adc	#$0
    2a73: 85 13        	sta	$13                     ; 0x13 <__rc3>
    2a75: a5 16        	lda	$16                     ; 0x16 <__rc6>
    2a77: 18           	clc
    2a78: 69 08        	adc	#$8
    2a7a: 85 14        	sta	$14                     ; 0x14 <__rc4>
    2a7c: a5 17        	lda	$17                     ; 0x17 <__rc7>
    2a7e: 69 00        	adc	#$0
    2a80: a6 28        	ldx	$28                     ; 0x28 <__rc24>
    2a82: 48           	pha
    2a83: bd c6 4d     	lda	$4dc6,x                 ; 0x4dc6 <sidSpriteAction>
    2a86: aa           	tax
    2a87: 68           	pla
    2a88: a4 16        	ldy	$16                     ; 0x16 <__rc6>
    2a8a: 84 24        	sty	$24                     ; 0x24 <__rc20>
    2a8c: a4 17        	ldy	$17                     ; 0x17 <__rc7>
    2a8e: 84 25        	sty	$25                     ; 0x25 <__rc21>
    2a90: 85 15        	sta	$15                     ; 0x15 <__rc5>
    2a92: a0 0c        	ldy	#$c
    2a94: a5 18        	lda	$18                     ; 0x18 <__rc8>
    2a96: 91 24        	sta	($24),y                 ; 0x24 <__rc20>
    2a98: 18           	clc
    2a99: a5 16        	lda	$16                     ; 0x16 <__rc6>
    2a9b: 69 0e        	adc	#$e
    2a9d: 85 16        	sta	$16                     ; 0x16 <__rc6>
    2a9f: a5 17        	lda	$17                     ; 0x17 <__rc7>
    2aa1: 69 00        	adc	#$0
    2aa3: 85 17        	sta	$17                     ; 0x17 <__rc7>
    2aa5: a5 28        	lda	$28                     ; 0x28 <__rc24>
    2aa7: 92 24        	sta	($24)                   ; 0x24 <__rc20>
    2aa9: a4 24        	ldy	$24                     ; 0x24 <__rc20>
    2aab: 84 18        	sty	$18                     ; 0x18 <__rc8>
    2aad: a4 25        	ldy	$25                     ; 0x25 <__rc21>
    2aaf: 84 19        	sty	$19                     ; 0x19 <__rc9>
    2ab1: a0 12        	ldy	#$12
    2ab3: 8a           	txa
    2ab4: 91 24        	sta	($24),y                 ; 0x24 <__rc20>
    2ab6: e6 18        	inc	$18                     ; 0x18 <__rc8>
    2ab8: d0 02        	bne	$2abc <loadGUISID+0x4a6>
    2aba: e6 19        	inc	$19                     ; 0x19 <__rc9>
    2abc: a0 01        	ldy	#$1
    2abe: a5 af        	lda	$af                     ; 0xaf <__zp_bss_size+0x3b>
    2ac0: 91 24        	sta	($24),y                 ; 0x24 <__rc20>
    2ac2: 85 29        	sta	$29                     ; 0x29 <__rc25>
    2ac4: a9 00        	lda	#$0
    2ac6: 91 18        	sta	($18),y                 ; 0x18 <__rc8>
    2ac8: a9 4e        	lda	#$4e
    2aca: a0 03        	ldy	#$3
    2acc: 91 24        	sta	($24),y                 ; 0x24 <__rc20>
    2ace: a9 00        	lda	#$0
    2ad0: a0 01        	ldy	#$1
    2ad2: 91 12        	sta	($12),y                 ; 0x12 <__rc2>
    2ad4: a0 05        	ldy	#$5
    2ad6: 91 24        	sta	($24),y                 ; 0x24 <__rc20>
    2ad8: c8           	iny
    2ad9: 91 24        	sta	($24),y                 ; 0x24 <__rc20>
    2adb: c8           	iny
    2adc: 91 24        	sta	($24),y                 ; 0x24 <__rc20>
    2ade: c8           	iny
    2adf: 91 24        	sta	($24),y                 ; 0x24 <__rc20>
    2ae1: a0 01        	ldy	#$1
    2ae3: 91 14        	sta	($14),y                 ; 0x14 <__rc4>
    2ae5: c8           	iny
    2ae6: 1a           	inc
    2ae7: 91 14        	sta	($14),y                 ; 0x14 <__rc4>
    2ae9: c8           	iny
    2aea: 3a           	dec
    2aeb: 91 14        	sta	($14),y                 ; 0x14 <__rc4>
    2aed: a9 10        	lda	#$10
    2aef: a0 0d        	ldy	#$d
    2af1: 91 24        	sta	($24),y                 ; 0x24 <__rc20>
    2af3: c8           	iny
    2af4: a9 00        	lda	#$0
    2af6: 91 24        	sta	($24),y                 ; 0x24 <__rc20>
    2af8: a0 01        	ldy	#$1
    2afa: 91 16        	sta	($16),y                 ; 0x16 <__rc6>
    2afc: c8           	iny
    2afd: 91 16        	sta	($16),y                 ; 0x16 <__rc6>
    2aff: c8           	iny
    2b00: 91 16        	sta	($16),y                 ; 0x16 <__rc6>
    2b02: a6 24        	ldx	$24                     ; 0x24 <__rc20>
    2b04: 86 12        	stx	$12                     ; 0x12 <__rc2>
    2b06: a6 25        	ldx	$25                     ; 0x25 <__rc21>
    2b08: 86 13        	stx	$13                     ; 0x13 <__rc3>
    2b0a: 20 b6 30     	jsr	$30b6 <showGeneric>
    2b0d: a5 ae        	lda	$ae                     ; 0xae <__zp_bss_size+0x3a>
    2b0f: aa           	tax
    2b10: 85 2a        	sta	$2a                     ; 0x2a <__rc26>
    2b12: bd ae 52     	lda	$52ae,x                 ; 0x52ae <sliders>
    2b15: aa           	tax
    2b16: b2 24        	lda	($24)                   ; 0x24 <__rc20>
    2b18: 85 2b        	sta	$2b                     ; 0x2b <__rc27>
    2b1a: a0 0d        	ldy	#$d
    2b1c: b1 24        	lda	($24),y                 ; 0x24 <__rc20>
    2b1e: 85 2c        	sta	$2c                     ; 0x2c <__rc28>
    2b20: 86 12        	stx	$12                     ; 0x12 <__rc2>
    2b22: 64 13        	stz	$13                     ; 0x13 <__rc3>
    2b24: a2 00        	ldx	#$0
    2b26: 20 04 4b     	jsr	$4b04 <__mulhi3>
    2b29: a4 2c        	ldy	$2c                     ; 0x2c <__rc28>
    2b2b: 84 12        	sty	$12                     ; 0x12 <__rc2>
    2b2d: 64 13        	stz	$13                     ; 0x13 <__rc3>
    2b2f: 20 04 4b     	jsr	$4b04 <__mulhi3>
    2b32: 86 12        	stx	$12                     ; 0x12 <__rc2>
    2b34: a2 01        	ldx	#$1
    2b36: 86 13        	stx	$13                     ; 0x13 <__rc3>
    2b38: 64 14        	stz	$14                     ; 0x14 <__rc4>
    2b3a: a6 2c        	ldx	$2c                     ; 0x2c <__rc28>
    2b3c: 86 15        	stx	$15                     ; 0x15 <__rc5>
    2b3e: aa           	tax
    2b3f: a5 2b        	lda	$2b                     ; 0x2b <__rc27>
    2b41: 20 30 30     	jsr	$3030 <spriteDefine>
    2b44: b2 24        	lda	($24)                   ; 0x24 <__rc20>
    2b46: aa           	tax
    2b47: 0a           	asl
    2b48: 64 12        	stz	$12                     ; 0x12 <__rc2>
    2b4a: 26 12        	rol	$12                     ; 0x12 <__rc2>
    2b4c: 0a           	asl
    2b4d: 26 12        	rol	$12                     ; 0x12 <__rc2>
    2b4f: 0a           	asl
    2b50: 26 12        	rol	$12                     ; 0x12 <__rc2>
    2b52: 18           	clc
    2b53: 69 00        	adc	#$0
    2b55: a8           	tay
    2b56: a5 12        	lda	$12                     ; 0x12 <__rc2>
    2b58: 69 d9        	adc	#$d9
    2b5a: 84 12        	sty	$12                     ; 0x12 <__rc2>
    2b5c: 85 13        	sta	$13                     ; 0x13 <__rc3>
    2b5e: a9 01        	lda	#$1
    2b60: 15 39        	ora	$39,x                   ; 0x39 <_spriteCtl>
    2b62: 92 12        	sta	($12)                   ; 0x12 <__rc2>
    2b64: a6 28        	ldx	$28                     ; 0x28 <__rc24>
    2b66: e8           	inx
    2b67: 18           	clc
    2b68: a5 2a        	lda	$2a                     ; 0x2a <__rc26>
    2b6a: 69 1c        	adc	#$1c
    2b6c: 85 ae        	sta	$ae                     ; 0xae <__zp_bss_size+0x3a>
    2b6e: 18           	clc
    2b6f: a5 26        	lda	$26                     ; 0x26 <__rc22>
    2b71: 69 13        	adc	#$13
    2b73: a8           	tay
    2b74: a5 27        	lda	$27                     ; 0x27 <__rc23>
    2b76: 69 00        	adc	#$0
    2b78: 85 13        	sta	$13                     ; 0x13 <__rc3>
    2b7a: 18           	clc
    2b7b: a5 29        	lda	$29                     ; 0x29 <__rc25>
    2b7d: 69 0c        	adc	#$c
    2b7f: 85 af        	sta	$af                     ; 0xaf <__zp_bss_size+0x3b>
    2b81: 84 12        	sty	$12                     ; 0x12 <__rc2>
    2b83: c0 4c        	cpy	#$4c
    2b85: f0 03        	beq	$2b8a <loadGUISID+0x574>
    2b87: 4c 4b 2a     	jmp	$2a4b <loadGUISID+0x435>
    2b8a: a2 14        	ldx	#$14
    2b8c: 8e a3 53     	stx	$53a3                   ; 0x53a3 <dials>
    2b8f: a2 62        	ldx	#$62
    2b91: 8e a4 53     	stx	$53a4                   ; 0x53a4 <dials+0x1>
    2b94: 9c a5 53     	stz	$53a5                   ; 0x53a5 <dials+0x2>
    2b97: e8           	inx
    2b98: 8e a6 53     	stx	$53a6                   ; 0x53a6 <dials+0x3>
    2b9b: 9c a7 53     	stz	$53a7                   ; 0x53a7 <dials+0x4>
    2b9e: 9c a8 53     	stz	$53a8                   ; 0x53a8 <dials+0x5>
    2ba1: 9c a9 53     	stz	$53a9                   ; 0x53a9 <dials+0x6>
    2ba4: 9c aa 53     	stz	$53aa                   ; 0x53aa <dials+0x7>
    2ba7: 9c ab 53     	stz	$53ab                   ; 0x53ab <dials+0x8>
    2baa: a2 20        	ldx	#$20
    2bac: 8e ac 53     	stx	$53ac                   ; 0x53ac <dials+0x9>
    2baf: a2 24        	ldx	#$24
    2bb1: 8e b5 53     	stx	$53b5                   ; 0x53b5 <dials+0x12>
    2bb4: a5 a2        	lda	$a2                     ; 0xa2 <gPtr>
    2bb6: a6 a3        	ldx	$a3                     ; 0xa3 <gPtr+0x1>
    2bb8: 85 26        	sta	$26                     ; 0x26 <__rc22>
    2bba: 86 27        	stx	$27                     ; 0x27 <__rc23>
    2bbc: a0 04        	ldy	#$4
    2bbe: 18           	clc
    2bbf: 69 04        	adc	#$4
    2bc1: 85 24        	sta	$24                     ; 0x24 <__rc20>
    2bc3: 8a           	txa
    2bc4: 69 00        	adc	#$0
    2bc6: 85 25        	sta	$25                     ; 0x25 <__rc21>
    2bc8: b1 26        	lda	($26),y                 ; 0x26 <__rc22>
    2bca: 85 12        	sta	$12                     ; 0x12 <__rc2>
    2bcc: a0 01        	ldy	#$1
    2bce: b1 24        	lda	($24),y                 ; 0x24 <__rc20>
    2bd0: 85 13        	sta	$13                     ; 0x13 <__rc3>
    2bd2: c8           	iny
    2bd3: a9 0f        	lda	#$f
    2bd5: 31 12        	and	($12),y                 ; 0x12 <__rc2>
    2bd7: 8d b6 53     	sta	$53b6                   ; 0x53b6 <dials+0x13>
    2bda: a2 01        	ldx	#$1
    2bdc: 8e ad 53     	stx	$53ad                   ; 0x53ad <dials+0xa>
    2bdf: 9c ae 53     	stz	$53ae                   ; 0x53ae <dials+0xb>
    2be2: 9c af 53     	stz	$53af                   ; 0x53af <dials+0xc>
    2be5: a2 10        	ldx	#$10
    2be7: 8e b0 53     	stx	$53b0                   ; 0x53b0 <dials+0xd>
    2bea: 9c b1 53     	stz	$53b1                   ; 0x53b1 <dials+0xe>
    2bed: a2 0d        	ldx	#$d
    2bef: 8e b2 53     	stx	$53b2                   ; 0x53b2 <dials+0xf>
    2bf2: 9c b3 53     	stz	$53b3                   ; 0x53b3 <dials+0x10>
    2bf5: 8e b4 53     	stx	$53b4                   ; 0x53b4 <dials+0x11>
    2bf8: 9c b7 53     	stz	$53b7                   ; 0x53b7 <dials+0x14>
    2bfb: a2 0f        	ldx	#$f
    2bfd: 8e b8 53     	stx	$53b8                   ; 0x53b8 <dials+0x15>
    2c00: 9c b9 53     	stz	$53b9                   ; 0x53b9 <dials+0x16>
    2c03: 9c ba 53     	stz	$53ba                   ; 0x53ba <dials+0x17>
    2c06: 9c bb 53     	stz	$53bb                   ; 0x53bb <dials+0x18>
    2c09: 9c bc 53     	stz	$53bc                   ; 0x53bc <dials+0x19>
    2c0c: 9c bd 53     	stz	$53bd                   ; 0x53bd <dials+0x1a>
    2c0f: 9c be 53     	stz	$53be                   ; 0x53be <dials+0x1b>
    2c12: a2 a3        	ldx	#$a3
    2c14: 86 12        	stx	$12                     ; 0x12 <__rc2>
    2c16: a2 53        	ldx	#$53
    2c18: 86 13        	stx	$13                     ; 0x13 <__rc3>
    2c1a: 20 5c 33     	jsr	$335c <updateDial>
    2c1d: a2 15        	ldx	#$15
    2c1f: 8e bf 53     	stx	$53bf                   ; 0x53bf <dials+0x1c>
    2c22: a2 72        	ldx	#$72
    2c24: 8e c0 53     	stx	$53c0                   ; 0x53c0 <dials+0x1d>
    2c27: a2 63        	ldx	#$63
    2c29: 8e c2 53     	stx	$53c2                   ; 0x53c2 <dials+0x1f>
    2c2c: a2 20        	ldx	#$20
    2c2e: 8e c8 53     	stx	$53c8                   ; 0x53c8 <dials+0x25>
    2c31: a2 25        	ldx	#$25
    2c33: 8e d1 53     	stx	$53d1                   ; 0x53d1 <dials+0x2e>
    2c36: a0 04        	ldy	#$4
    2c38: b1 26        	lda	($26),y                 ; 0x26 <__rc22>
    2c3a: 85 12        	sta	$12                     ; 0x12 <__rc2>
    2c3c: a0 01        	ldy	#$1
    2c3e: b1 24        	lda	($24),y                 ; 0x24 <__rc20>
    2c40: 85 13        	sta	$13                     ; 0x13 <__rc3>
    2c42: b1 12        	lda	($12),y                 ; 0x12 <__rc2>
    2c44: 8d d2 53     	sta	$53d2                   ; 0x53d2 <dials+0x2f>
    2c47: a2 ff        	ldx	#$ff
    2c49: 8e d4 53     	stx	$53d4                   ; 0x53d4 <dials+0x31>
    2c4c: 9c c1 53     	stz	$53c1                   ; 0x53c1 <dials+0x1e>
    2c4f: 9c c3 53     	stz	$53c3                   ; 0x53c3 <dials+0x20>
    2c52: 9c c4 53     	stz	$53c4                   ; 0x53c4 <dials+0x21>
    2c55: 9c c5 53     	stz	$53c5                   ; 0x53c5 <dials+0x22>
    2c58: 9c c6 53     	stz	$53c6                   ; 0x53c6 <dials+0x23>
    2c5b: 9c c7 53     	stz	$53c7                   ; 0x53c7 <dials+0x24>
    2c5e: a2 01        	ldx	#$1
    2c60: 8e c9 53     	stx	$53c9                   ; 0x53c9 <dials+0x26>
    2c63: 9c ca 53     	stz	$53ca                   ; 0x53ca <dials+0x27>
    2c66: 8e cb 53     	stx	$53cb                   ; 0x53cb <dials+0x28>
    2c69: a2 10        	ldx	#$10
    2c6b: 8e cc 53     	stx	$53cc                   ; 0x53cc <dials+0x29>
    2c6e: 9c cd 53     	stz	$53cd                   ; 0x53cd <dials+0x2a>
    2c71: a2 0d        	ldx	#$d
    2c73: 8e ce 53     	stx	$53ce                   ; 0x53ce <dials+0x2b>
    2c76: 9c cf 53     	stz	$53cf                   ; 0x53cf <dials+0x2c>
    2c79: 8e d0 53     	stx	$53d0                   ; 0x53d0 <dials+0x2d>
    2c7c: 9c d3 53     	stz	$53d3                   ; 0x53d3 <dials+0x30>
    2c7f: 9c d5 53     	stz	$53d5                   ; 0x53d5 <dials+0x32>
    2c82: 9c d6 53     	stz	$53d6                   ; 0x53d6 <dials+0x33>
    2c85: 9c d7 53     	stz	$53d7                   ; 0x53d7 <dials+0x34>
    2c88: 9c d8 53     	stz	$53d8                   ; 0x53d8 <dials+0x35>
    2c8b: 9c d9 53     	stz	$53d9                   ; 0x53d9 <dials+0x36>
    2c8e: 9c da 53     	stz	$53da                   ; 0x53da <dials+0x37>
    2c91: a2 bf        	ldx	#$bf
    2c93: 86 12        	stx	$12                     ; 0x12 <__rc2>
    2c95: a2 53        	ldx	#$53
    2c97: 86 13        	stx	$13                     ; 0x13 <__rc3>
    2c99: 20 5c 33     	jsr	$335c <updateDial>
    2c9c: a2 16        	ldx	#$16
    2c9e: 8e 6a 53     	stx	$536a                   ; 0x536a <sliders_labels+0x4c>
    2ca1: a2 5f        	ldx	#$5f
    2ca3: 8e 6b 53     	stx	$536b                   ; 0x536b <sliders_labels+0x4d>
    2ca6: 9c 6c 53     	stz	$536c                   ; 0x536c <sliders_labels+0x4e>
    2ca9: a2 75        	ldx	#$75
    2cab: 8e 6d 53     	stx	$536d                   ; 0x536d <sliders_labels+0x4f>
    2cae: 9c 6e 53     	stz	$536e                   ; 0x536e <sliders_labels+0x50>
    2cb1: 9c 6f 53     	stz	$536f                   ; 0x536f <sliders_labels+0x51>
    2cb4: 9c 70 53     	stz	$5370                   ; 0x5370 <sliders_labels+0x52>
    2cb7: 9c 71 53     	stz	$5371                   ; 0x5371 <sliders_labels+0x53>
    2cba: 9c 72 53     	stz	$5372                   ; 0x5372 <sliders_labels+0x54>
    2cbd: 9c 73 53     	stz	$5373                   ; 0x5373 <sliders_labels+0x55>
    2cc0: a2 01        	ldx	#$1
    2cc2: 8e 74 53     	stx	$5374                   ; 0x5374 <sliders_labels+0x56>
    2cc5: 9c 75 53     	stz	$5375                   ; 0x5375 <sliders_labels+0x57>
    2cc8: a2 04        	ldx	#$4
    2cca: 8e 76 53     	stx	$5376                   ; 0x5376 <sliders_labels+0x58>
    2ccd: a2 10        	ldx	#$10
    2ccf: 8e 77 53     	stx	$5377                   ; 0x5377 <sliders_labels+0x59>
    2cd2: 9c 78 53     	stz	$5378                   ; 0x5378 <sliders_labels+0x5a>
    2cd5: 9c 79 53     	stz	$5379                   ; 0x5379 <sliders_labels+0x5b>
    2cd8: 9c 7a 53     	stz	$537a                   ; 0x537a <sliders_labels+0x5c>
    2cdb: 9c 7b 53     	stz	$537b                   ; 0x537b <sliders_labels+0x5d>
    2cde: a2 26        	ldx	#$26
    2ce0: 8e 7c 53     	stx	$537c                   ; 0x537c <sliders_labels+0x5e>
    2ce3: a2 6a        	ldx	#$6a
    2ce5: 86 12        	stx	$12                     ; 0x12 <__rc2>
    2ce7: a2 53        	ldx	#$53
    2ce9: 86 13        	stx	$13                     ; 0x13 <__rc3>
    2ceb: 20 b6 30     	jsr	$30b6 <showGeneric>
    2cee: ae b6 53     	ldx	$53b6                   ; 0x53b6 <dials+0x13>
    2cf1: ac 6a 53     	ldy	$536a                   ; 0x536a <sliders_labels+0x4c>
    2cf4: 84 24        	sty	$24                     ; 0x24 <__rc20>
    2cf6: ad 77 53     	lda	$5377                   ; 0x5377 <sliders_labels+0x59>
    2cf9: 86 12        	stx	$12                     ; 0x12 <__rc2>
    2cfb: 64 13        	stz	$13                     ; 0x13 <__rc3>
    2cfd: a2 00        	ldx	#$0
    2cff: 85 25        	sta	$25                     ; 0x25 <__rc21>
    2d01: 20 04 4b     	jsr	$4b04 <__mulhi3>
    2d04: a4 25        	ldy	$25                     ; 0x25 <__rc21>
    2d06: 84 12        	sty	$12                     ; 0x12 <__rc2>
    2d08: 64 13        	stz	$13                     ; 0x13 <__rc3>
    2d0a: 20 04 4b     	jsr	$4b04 <__mulhi3>
    2d0d: 86 12        	stx	$12                     ; 0x12 <__rc2>
    2d0f: a2 01        	ldx	#$1
    2d11: 86 13        	stx	$13                     ; 0x13 <__rc3>
    2d13: 64 14        	stz	$14                     ; 0x14 <__rc4>
    2d15: a6 25        	ldx	$25                     ; 0x25 <__rc21>
    2d17: 86 15        	stx	$15                     ; 0x15 <__rc5>
    2d19: aa           	tax
    2d1a: a5 24        	lda	$24                     ; 0x24 <__rc20>
    2d1c: 20 30 30     	jsr	$3030 <spriteDefine>
    2d1f: ae 6a 53     	ldx	$536a                   ; 0x536a <sliders_labels+0x4c>
    2d22: 8a           	txa
    2d23: 0a           	asl
    2d24: a8           	tay
    2d25: a9 00        	lda	#$0
    2d27: 2a           	rol
    2d28: 84 12        	sty	$12                     ; 0x12 <__rc2>
    2d2a: 06 12        	asl	$12                     ; 0x12 <__rc2>
    2d2c: 2a           	rol
    2d2d: 06 12        	asl	$12                     ; 0x12 <__rc2>
    2d2f: 2a           	rol
    2d30: a8           	tay
    2d31: 18           	clc
    2d32: a5 12        	lda	$12                     ; 0x12 <__rc2>
    2d34: 69 00        	adc	#$0
    2d36: 85 12        	sta	$12                     ; 0x12 <__rc2>
    2d38: 98           	tya
    2d39: 69 d9        	adc	#$d9
    2d3b: 85 13        	sta	$13                     ; 0x13 <__rc3>
    2d3d: a9 01        	lda	#$1
    2d3f: 15 39        	ora	$39,x                   ; 0x39 <_spriteCtl>
    2d41: 92 12        	sta	($12)                   ; 0x12 <__rc2>
    2d43: a2 17        	ldx	#$17
    2d45: 8e 7d 53     	stx	$537d                   ; 0x537d <sliders_labels+0x5f>
    2d48: a2 69        	ldx	#$69
    2d4a: 8e 7e 53     	stx	$537e                   ; 0x537e <sliders_labels+0x60>
    2d4d: 9c 7f 53     	stz	$537f                   ; 0x537f <sliders_labels+0x61>
    2d50: a2 75        	ldx	#$75
    2d52: 8e 80 53     	stx	$5380                   ; 0x5380 <sliders_labels+0x62>
    2d55: 9c 81 53     	stz	$5381                   ; 0x5381 <sliders_labels+0x63>
    2d58: 9c 82 53     	stz	$5382                   ; 0x5382 <sliders_labels+0x64>
    2d5b: 9c 83 53     	stz	$5383                   ; 0x5383 <sliders_labels+0x65>
    2d5e: 9c 84 53     	stz	$5384                   ; 0x5384 <sliders_labels+0x66>
    2d61: 9c 85 53     	stz	$5385                   ; 0x5385 <sliders_labels+0x67>
    2d64: 9c 86 53     	stz	$5386                   ; 0x5386 <sliders_labels+0x68>
    2d67: a2 01        	ldx	#$1
    2d69: 8e 87 53     	stx	$5387                   ; 0x5387 <sliders_labels+0x69>
    2d6c: 9c 88 53     	stz	$5388                   ; 0x5388 <sliders_labels+0x6a>
    2d6f: a2 27        	ldx	#$27
    2d71: 8e 8f 53     	stx	$538f                   ; 0x538f <sliders_labels+0x71>
    2d74: a2 05        	ldx	#$5
    2d76: 8e 89 53     	stx	$5389                   ; 0x5389 <sliders_labels+0x6b>
    2d79: a2 10        	ldx	#$10
    2d7b: 8e 8a 53     	stx	$538a                   ; 0x538a <sliders_labels+0x6c>
    2d7e: 9c 8b 53     	stz	$538b                   ; 0x538b <sliders_labels+0x6d>
    2d81: 9c 8c 53     	stz	$538c                   ; 0x538c <sliders_labels+0x6e>
    2d84: 9c 8d 53     	stz	$538d                   ; 0x538d <sliders_labels+0x6f>
    2d87: 9c 8e 53     	stz	$538e                   ; 0x538e <sliders_labels+0x70>
    2d8a: a2 7d        	ldx	#$7d
    2d8c: 86 12        	stx	$12                     ; 0x12 <__rc2>
    2d8e: a2 53        	ldx	#$53
    2d90: 86 13        	stx	$13                     ; 0x13 <__rc3>
    2d92: 20 b6 30     	jsr	$30b6 <showGeneric>
    2d95: ad d2 53     	lda	$53d2                   ; 0x53d2 <dials+0x2f>
    2d98: 4a           	lsr
    2d99: 4a           	lsr
    2d9a: 4a           	lsr
    2d9b: 4a           	lsr
    2d9c: ae 7d 53     	ldx	$537d                   ; 0x537d <sliders_labels+0x5f>
    2d9f: 86 24        	stx	$24                     ; 0x24 <__rc20>
    2da1: ac 8a 53     	ldy	$538a                   ; 0x538a <sliders_labels+0x6c>
    2da4: 85 12        	sta	$12                     ; 0x12 <__rc2>
    2da6: 64 13        	stz	$13                     ; 0x13 <__rc3>
    2da8: a2 00        	ldx	#$0
    2daa: 98           	tya
    2dab: 84 25        	sty	$25                     ; 0x25 <__rc21>
    2dad: 20 04 4b     	jsr	$4b04 <__mulhi3>
    2db0: a4 25        	ldy	$25                     ; 0x25 <__rc21>
    2db2: 84 12        	sty	$12                     ; 0x12 <__rc2>
    2db4: 64 13        	stz	$13                     ; 0x13 <__rc3>
    2db6: 20 04 4b     	jsr	$4b04 <__mulhi3>
    2db9: 86 12        	stx	$12                     ; 0x12 <__rc2>
    2dbb: a2 01        	ldx	#$1
    2dbd: 86 13        	stx	$13                     ; 0x13 <__rc3>
    2dbf: 64 14        	stz	$14                     ; 0x14 <__rc4>
    2dc1: a6 25        	ldx	$25                     ; 0x25 <__rc21>
    2dc3: 86 15        	stx	$15                     ; 0x15 <__rc5>
    2dc5: aa           	tax
    2dc6: a5 24        	lda	$24                     ; 0x24 <__rc20>
    2dc8: 20 30 30     	jsr	$3030 <spriteDefine>
    2dcb: ae 7d 53     	ldx	$537d                   ; 0x537d <sliders_labels+0x5f>
    2dce: 8a           	txa
    2dcf: 0a           	asl
    2dd0: a8           	tay
    2dd1: a9 00        	lda	#$0
    2dd3: 2a           	rol
    2dd4: 84 12        	sty	$12                     ; 0x12 <__rc2>
    2dd6: 06 12        	asl	$12                     ; 0x12 <__rc2>
    2dd8: 2a           	rol
    2dd9: 06 12        	asl	$12                     ; 0x12 <__rc2>
    2ddb: 2a           	rol
    2ddc: a8           	tay
    2ddd: 18           	clc
    2dde: a5 12        	lda	$12                     ; 0x12 <__rc2>
    2de0: 69 00        	adc	#$0
    2de2: 85 12        	sta	$12                     ; 0x12 <__rc2>
    2de4: 98           	tya
    2de5: 69 d9        	adc	#$d9
    2de7: 85 13        	sta	$13                     ; 0x13 <__rc3>
    2de9: a9 01        	lda	#$1
    2deb: 15 39        	ora	$39,x                   ; 0x39 <_spriteCtl>
    2ded: 92 12        	sta	($12)                   ; 0x12 <__rc2>
    2def: a2 18        	ldx	#$18
    2df1: 8e 90 53     	stx	$5390                   ; 0x5390 <sliders_labels+0x72>
    2df4: a2 73        	ldx	#$73
    2df6: 8e 91 53     	stx	$5391                   ; 0x5391 <sliders_labels+0x73>
    2df9: 9c 92 53     	stz	$5392                   ; 0x5392 <sliders_labels+0x74>
    2dfc: a2 75        	ldx	#$75
    2dfe: 8e 93 53     	stx	$5393                   ; 0x5393 <sliders_labels+0x75>
    2e01: 9c 94 53     	stz	$5394                   ; 0x5394 <sliders_labels+0x76>
    2e04: 9c 95 53     	stz	$5395                   ; 0x5395 <sliders_labels+0x77>
    2e07: 9c 96 53     	stz	$5396                   ; 0x5396 <sliders_labels+0x78>
    2e0a: 9c 97 53     	stz	$5397                   ; 0x5397 <sliders_labels+0x79>
    2e0d: 9c 98 53     	stz	$5398                   ; 0x5398 <sliders_labels+0x7a>
    2e10: 9c 99 53     	stz	$5399                   ; 0x5399 <sliders_labels+0x7b>
    2e13: a2 01        	ldx	#$1
    2e15: 8e 9a 53     	stx	$539a                   ; 0x539a <sliders_labels+0x7c>
    2e18: 9c 9b 53     	stz	$539b                   ; 0x539b <sliders_labels+0x7d>
    2e1b: a2 28        	ldx	#$28
    2e1d: 8e a2 53     	stx	$53a2                   ; 0x53a2 <sliders_labels+0x84>
    2e20: a2 06        	ldx	#$6
    2e22: 8e 9c 53     	stx	$539c                   ; 0x539c <sliders_labels+0x7e>
    2e25: a2 10        	ldx	#$10
    2e27: 8e 9d 53     	stx	$539d                   ; 0x539d <sliders_labels+0x7f>
    2e2a: 9c 9e 53     	stz	$539e                   ; 0x539e <sliders_labels+0x80>
    2e2d: 9c 9f 53     	stz	$539f                   ; 0x539f <sliders_labels+0x81>
    2e30: 9c a0 53     	stz	$53a0                   ; 0x53a0 <sliders_labels+0x82>
    2e33: 9c a1 53     	stz	$53a1                   ; 0x53a1 <sliders_labels+0x83>
    2e36: a2 90        	ldx	#$90
    2e38: 86 12        	stx	$12                     ; 0x12 <__rc2>
    2e3a: a2 53        	ldx	#$53
    2e3c: 86 13        	stx	$13                     ; 0x13 <__rc3>
    2e3e: 20 b6 30     	jsr	$30b6 <showGeneric>
    2e41: a9 0f        	lda	#$f
    2e43: 2d d2 53     	and	$53d2                   ; 0x53d2 <dials+0x2f>
    2e46: ae 90 53     	ldx	$5390                   ; 0x5390 <sliders_labels+0x72>
    2e49: 86 24        	stx	$24                     ; 0x24 <__rc20>
    2e4b: ac 9d 53     	ldy	$539d                   ; 0x539d <sliders_labels+0x7f>
    2e4e: 85 12        	sta	$12                     ; 0x12 <__rc2>
    2e50: 64 13        	stz	$13                     ; 0x13 <__rc3>
    2e52: a2 00        	ldx	#$0
    2e54: 98           	tya
    2e55: 84 25        	sty	$25                     ; 0x25 <__rc21>
    2e57: 20 04 4b     	jsr	$4b04 <__mulhi3>
    2e5a: a4 25        	ldy	$25                     ; 0x25 <__rc21>
    2e5c: 84 12        	sty	$12                     ; 0x12 <__rc2>
    2e5e: 64 13        	stz	$13                     ; 0x13 <__rc3>
    2e60: 20 04 4b     	jsr	$4b04 <__mulhi3>
    2e63: 86 12        	stx	$12                     ; 0x12 <__rc2>
    2e65: a2 01        	ldx	#$1
    2e67: 86 13        	stx	$13                     ; 0x13 <__rc3>
    2e69: 64 14        	stz	$14                     ; 0x14 <__rc4>
    2e6b: a6 25        	ldx	$25                     ; 0x25 <__rc21>
    2e6d: 86 15        	stx	$15                     ; 0x15 <__rc5>
    2e6f: aa           	tax
    2e70: a5 24        	lda	$24                     ; 0x24 <__rc20>
    2e72: 20 30 30     	jsr	$3030 <spriteDefine>
    2e75: ae 90 53     	ldx	$5390                   ; 0x5390 <sliders_labels+0x72>
    2e78: 8a           	txa
    2e79: 0a           	asl
    2e7a: 64 12        	stz	$12                     ; 0x12 <__rc2>
    2e7c: 26 12        	rol	$12                     ; 0x12 <__rc2>
    2e7e: 0a           	asl
    2e7f: 26 12        	rol	$12                     ; 0x12 <__rc2>
    2e81: 0a           	asl
    2e82: 26 12        	rol	$12                     ; 0x12 <__rc2>
    2e84: 18           	clc
    2e85: 69 00        	adc	#$0
    2e87: a8           	tay
    2e88: a5 12        	lda	$12                     ; 0x12 <__rc2>
    2e8a: 69 d9        	adc	#$d9
    2e8c: 84 12        	sty	$12                     ; 0x12 <__rc2>
    2e8e: 85 13        	sta	$13                     ; 0x13 <__rc3>
    2e90: a9 01        	lda	#$1
    2e92: 15 39        	ora	$39,x                   ; 0x39 <_spriteCtl>
    2e94: 92 12        	sta	($12)                   ; 0x12 <__rc2>
    2e96: a2 4f        	ldx	#$4f
    2e98: 86 ae        	stx	$ae                     ; 0xae <__zp_bss_size+0x3a>
    2e9a: a2 19        	ldx	#$19
    2e9c: a0 00        	ldy	#$0
    2e9e: 64 13        	stz	$13                     ; 0x13 <__rc3>
    2ea0: 18           	clc
    2ea1: 8a           	txa
    2ea2: 69 e7        	adc	#$e7
    2ea4: 85 18        	sta	$18                     ; 0x18 <__rc8>
    2ea6: 84 12        	sty	$12                     ; 0x12 <__rc2>
    2ea8: a9 62        	lda	#$62
    2eaa: 18           	clc
    2eab: 65 12        	adc	$12                     ; 0x12 <__rc2>
    2ead: 85 17        	sta	$17                     ; 0x17 <__rc7>
    2eaf: a5 13        	lda	$13                     ; 0x13 <__rc3>
    2eb1: 85 26        	sta	$26                     ; 0x26 <__rc22>
    2eb3: a9 50        	lda	#$50
    2eb5: 65 13        	adc	$13                     ; 0x13 <__rc3>
    2eb7: 85 19        	sta	$19                     ; 0x19 <__rc9>
    2eb9: 18           	clc
    2eba: a5 17        	lda	$17                     ; 0x17 <__rc7>
    2ebc: 69 03        	adc	#$3
    2ebe: 85 14        	sta	$14                     ; 0x14 <__rc4>
    2ec0: 86 24        	stx	$24                     ; 0x24 <__rc20>
    2ec2: 84 25        	sty	$25                     ; 0x25 <__rc21>
    2ec4: a5 19        	lda	$19                     ; 0x19 <__rc9>
    2ec6: 69 00        	adc	#$0
    2ec8: 85 15        	sta	$15                     ; 0x15 <__rc5>
    2eca: 18           	clc
    2ecb: a5 17        	lda	$17                     ; 0x17 <__rc7>
    2ecd: 69 08        	adc	#$8
    2ecf: 85 16        	sta	$16                     ; 0x16 <__rc6>
    2ed1: a5 19        	lda	$19                     ; 0x19 <__rc9>
    2ed3: 69 00        	adc	#$0
    2ed5: 48           	pha
    2ed6: bd c6 4d     	lda	$4dc6,x                 ; 0x4dc6 <sidSpriteAction>
    2ed9: aa           	tax
    2eda: 68           	pla
    2edb: 86 1c        	stx	$1c                     ; 0x1c <__rc12>
    2edd: a6 17        	ldx	$17                     ; 0x17 <__rc7>
    2edf: 86 12        	stx	$12                     ; 0x12 <__rc2>
    2ee1: a4 19        	ldy	$19                     ; 0x19 <__rc9>
    2ee3: 84 13        	sty	$13                     ; 0x13 <__rc3>
    2ee5: 85 17        	sta	$17                     ; 0x17 <__rc7>
    2ee7: a0 0c        	ldy	#$c
    2ee9: a5 18        	lda	$18                     ; 0x18 <__rc8>
    2eeb: 91 12        	sta	($12),y                 ; 0x12 <__rc2>
    2eed: 18           	clc
    2eee: 8a           	txa
    2eef: 69 0e        	adc	#$e
    2ef1: 85 18        	sta	$18                     ; 0x18 <__rc8>
    2ef3: a5 19        	lda	$19                     ; 0x19 <__rc9>
    2ef5: 69 00        	adc	#$0
    2ef7: 85 19        	sta	$19                     ; 0x19 <__rc9>
    2ef9: a5 24        	lda	$24                     ; 0x24 <__rc20>
    2efb: 92 12        	sta	($12)                   ; 0x12 <__rc2>
    2efd: 86 1a        	stx	$1a                     ; 0x1a <__rc10>
    2eff: a6 13        	ldx	$13                     ; 0x13 <__rc3>
    2f01: 86 1b        	stx	$1b                     ; 0x1b <__rc11>
    2f03: a0 12        	ldy	#$12
    2f05: a5 1c        	lda	$1c                     ; 0x1c <__rc12>
    2f07: 91 12        	sta	($12),y                 ; 0x12 <__rc2>
    2f09: e6 1a        	inc	$1a                     ; 0x1a <__rc10>
    2f0b: d0 02        	bne	$2f0f <loadGUISID+0x8f9>
    2f0d: e6 1b        	inc	$1b                     ; 0x1b <__rc11>
    2f0f: a0 01        	ldy	#$1
    2f11: a5 ae        	lda	$ae                     ; 0xae <__zp_bss_size+0x3a>
    2f13: 91 12        	sta	($12),y                 ; 0x12 <__rc2>
    2f15: 85 27        	sta	$27                     ; 0x27 <__rc23>
    2f17: a9 00        	lda	#$0
    2f19: 91 1a        	sta	($1a),y                 ; 0x1a <__rc10>
    2f1b: a9 fd        	lda	#$fd
    2f1d: a0 03        	ldy	#$3
    2f1f: 91 12        	sta	($12),y                 ; 0x12 <__rc2>
    2f21: a9 00        	lda	#$0
    2f23: a0 01        	ldy	#$1
    2f25: 91 14        	sta	($14),y                 ; 0x14 <__rc4>
    2f27: a0 05        	ldy	#$5
    2f29: 91 12        	sta	($12),y                 ; 0x12 <__rc2>
    2f2b: c8           	iny
    2f2c: 91 12        	sta	($12),y                 ; 0x12 <__rc2>
    2f2e: c8           	iny
    2f2f: 91 12        	sta	($12),y                 ; 0x12 <__rc2>
    2f31: c8           	iny
    2f32: a9 3a        	lda	#$3a
    2f34: 91 12        	sta	($12),y                 ; 0x12 <__rc2>
    2f36: a0 01        	ldy	#$1
    2f38: a9 00        	lda	#$0
    2f3a: 91 16        	sta	($16),y                 ; 0x16 <__rc6>
    2f3c: c8           	iny
    2f3d: 1a           	inc
    2f3e: 91 16        	sta	($16),y                 ; 0x16 <__rc6>
    2f40: c8           	iny
    2f41: 3a           	dec
    2f42: 91 16        	sta	($16),y                 ; 0x16 <__rc6>
    2f44: a9 10        	lda	#$10
    2f46: a0 0d        	ldy	#$d
    2f48: 91 12        	sta	($12),y                 ; 0x12 <__rc2>
    2f4a: c8           	iny
    2f4b: a9 00        	lda	#$0
    2f4d: 91 12        	sta	($12),y                 ; 0x12 <__rc2>
    2f4f: a0 01        	ldy	#$1
    2f51: 91 18        	sta	($18),y                 ; 0x18 <__rc8>
    2f53: c8           	iny
    2f54: 91 18        	sta	($18),y                 ; 0x18 <__rc8>
    2f56: c8           	iny
    2f57: 91 18        	sta	($18),y                 ; 0x18 <__rc8>
    2f59: a0 13        	ldy	#$13
    2f5b: 91 12        	sta	($12),y                 ; 0x12 <__rc2>
    2f5d: 20 86 37     	jsr	$3786 <updateLighter>
    2f60: a6 24        	ldx	$24                     ; 0x24 <__rc20>
    2f62: e8           	inx
    2f63: 18           	clc
    2f64: a5 27        	lda	$27                     ; 0x27 <__rc23>
    2f66: 69 10        	adc	#$10
    2f68: 85 ae        	sta	$ae                     ; 0xae <__zp_bss_size+0x3a>
    2f6a: 18           	clc
    2f6b: a5 25        	lda	$25                     ; 0x25 <__rc21>
    2f6d: 69 14        	adc	#$14
    2f6f: a8           	tay
    2f70: a5 26        	lda	$26                     ; 0x26 <__rc22>
    2f72: 69 00        	adc	#$0
    2f74: 85 13        	sta	$13                     ; 0x13 <__rc3>
    2f76: c0 78        	cpy	#$78
    2f78: f0 03        	beq	$2f7d <loadGUISID+0x967>
    2f7a: 4c a0 2e     	jmp	$2ea0 <loadGUISID+0x88a>
    2f7d: ae f7 53     	ldx	$53f7                   ; 0x53f7 <__data_load_start+0x3a5>
    2f80: 86 2c        	stx	$2c                     ; 0x2c <__rc28>
    2f82: ae f6 53     	ldx	$53f6                   ; 0x53f6 <__data_load_start+0x3a4>
    2f85: 86 2b        	stx	$2b                     ; 0x2b <__rc27>
    2f87: ae f5 53     	ldx	$53f5                   ; 0x53f5 <__data_load_start+0x3a3>
    2f8a: 86 2a        	stx	$2a                     ; 0x2a <__rc26>
    2f8c: ae f4 53     	ldx	$53f4                   ; 0x53f4 <__data_load_start+0x3a2>
    2f8f: 86 29        	stx	$29                     ; 0x29 <__rc25>
    2f91: ae f3 53     	ldx	$53f3                   ; 0x53f3 <__data_load_start+0x3a1>
    2f94: 86 28        	stx	$28                     ; 0x28 <__rc24>
    2f96: fa           	plx
    2f97: 86 27        	stx	$27                     ; 0x27 <__rc23>
    2f99: fa           	plx
    2f9a: 86 26        	stx	$26                     ; 0x26 <__rc22>
    2f9c: fa           	plx
    2f9d: 86 25        	stx	$25                     ; 0x25 <__rc21>
    2f9f: fa           	plx
    2fa0: 86 24        	stx	$24                     ; 0x24 <__rc20>
    2fa2: 60           	rts

00002fa3 <bitmapClear>:
    2fa3: a2 00        	ldx	#$0
    2fa5: a0 00        	ldy	#$0
    2fa7: 84 12        	sty	$12                     ; 0x12 <__rc2>
    2fa9: a0 e0        	ldy	#$e0
    2fab: 84 13        	sty	$13                     ; 0x13 <__rc3>
    2fad: a9 01        	lda	#$1
    2faf: 2d 5f 50     	and	$505f                   ; 0x505f <_active>
    2fb2: 0a           	asl
    2fb3: 0a           	asl
    2fb4: a8           	tay
    2fb5: b9 54 50     	lda	$5054,y                 ; 0x5054 <_BITMAP_BASE+0x1>
    2fb8: 48           	pha
    2fb9: b9 55 50     	lda	$5055,y                 ; 0x5055 <_BITMAP_BASE+0x2>
    2fbc: a8           	tay
    2fbd: 68           	pla
    2fbe: 84 14        	sty	$14                     ; 0x14 <__rc4>
    2fc0: 0a           	asl
    2fc1: 26 14        	rol	$14                     ; 0x14 <__rc4>
    2fc3: 0a           	asl
    2fc4: 26 14        	rol	$14                     ; 0x14 <__rc4>
    2fc6: 0a           	asl
    2fc7: a5 14        	lda	$14                     ; 0x14 <__rc4>
    2fc9: 2a           	rol
    2fca: a4 0f        	ldy	$f                      ; 0xf <__zp_data_size+0xf>
    2fcc: 84 18        	sty	$18                     ; 0x18 <__rc8>
    2fce: 78           	sei
    2fcf: 85 19        	sta	$19                     ; 0x19 <__rc9>
    2fd1: 85 0f        	sta	$f                      ; 0xf <__zp_data_size+0xf>
    2fd3: ad 60 50     	lda	$5060                   ; 0x5060 <_color>
    2fd6: a0 20        	ldy	#$20
    2fd8: 48           	pha
    2fd9: a9 00        	lda	#$0
    2fdb: 85 14        	sta	$14                     ; 0x14 <__rc4>
    2fdd: a9 e0        	lda	#$e0
    2fdf: 85 15        	sta	$15                     ; 0x15 <__rc5>
    2fe1: 68           	pla
    2fe2: 64 16        	stz	$16                     ; 0x16 <__rc6>
    2fe4: 84 17        	sty	$17                     ; 0x17 <__rc7>
    2fe6: 92 14        	sta	($14)                   ; 0x14 <__rc4>
    2fe8: a0 ff        	ldy	#$ff
    2fea: c6 16        	dec	$16                     ; 0x16 <__rc6>
    2fec: c4 16        	cpy	$16                     ; 0x16 <__rc6>
    2fee: d0 02        	bne	$2ff2 <bitmapClear+0x4f>
    2ff0: c6 17        	dec	$17                     ; 0x17 <__rc7>
    2ff2: e6 14        	inc	$14                     ; 0x14 <__rc4>
    2ff4: d0 02        	bne	$2ff8 <bitmapClear+0x55>
    2ff6: e6 15        	inc	$15                     ; 0x15 <__rc5>
    2ff8: a4 17        	ldy	$17                     ; 0x17 <__rc7>
    2ffa: d0 ea        	bne	$2fe6 <bitmapClear+0x43>
    2ffc: a4 16        	ldy	$16                     ; 0x16 <__rc6>
    2ffe: d0 e6        	bne	$2fe6 <bitmapClear+0x43>
    3000: a5 19        	lda	$19                     ; 0x19 <__rc9>
    3002: 1a           	inc
    3003: e8           	inx
    3004: e0 09        	cpx	#$9
    3006: d0 c7        	bne	$2fcf <bitmapClear+0x2c>
    3008: 85 0f        	sta	$f                      ; 0xf <__zp_data_size+0xf>
    300a: ad 60 50     	lda	$5060                   ; 0x5060 <_color>
    300d: a0 14        	ldy	#$14
    300f: a2 00        	ldx	#$0
    3011: 84 14        	sty	$14                     ; 0x14 <__rc4>
    3013: 92 12        	sta	($12)                   ; 0x12 <__rc2>
    3015: ca           	dex
    3016: e0 ff        	cpx	#$ff
    3018: d0 02        	bne	$301c <bitmapClear+0x79>
    301a: c6 14        	dec	$14                     ; 0x14 <__rc4>
    301c: e6 12        	inc	$12                     ; 0x12 <__rc2>
    301e: d0 02        	bne	$3022 <bitmapClear+0x7f>
    3020: e6 13        	inc	$13                     ; 0x13 <__rc3>
    3022: a4 14        	ldy	$14                     ; 0x14 <__rc4>
    3024: d0 ed        	bne	$3013 <bitmapClear+0x70>
    3026: e0 00        	cpx	#$0
    3028: d0 e9        	bne	$3013 <bitmapClear+0x70>
    302a: a6 18        	ldx	$18                     ; 0x18 <__rc8>
    302c: 86 0f        	stx	$f                      ; 0xf <__zp_data_size+0xf>
    302e: 58           	cli
    302f: 60           	rts

00003030 <spriteDefine>:
    3030: a8           	tay
    3031: 86 16        	stx	$16                     ; 0x16 <__rc6>
    3033: a6 13        	ldx	$13                     ; 0x13 <__rc3>
    3035: a5 15        	lda	$15                     ; 0x15 <__rc5>
    3037: 18           	clc
    3038: 69 f8        	adc	#$f8
    303a: 85 13        	sta	$13                     ; 0x13 <__rc3>
    303c: 46 13        	lsr	$13                     ; 0x13 <__rc3>
    303e: 6a           	ror
    303f: 85 13        	sta	$13                     ; 0x13 <__rc3>
    3041: 46 13        	lsr	$13                     ; 0x13 <__rc3>
    3043: 6a           	ror
    3044: 85 13        	sta	$13                     ; 0x13 <__rc3>
    3046: 46 13        	lsr	$13                     ; 0x13 <__rc3>
    3048: 6a           	ror
    3049: c9 03        	cmp	#$3
    304b: 64 17        	stz	$17                     ; 0x17 <__rc7>
    304d: b0 0e        	bcs	$305d <spriteDefine+0x2d>
    304f: 0a           	asl
    3050: 0a           	asl
    3051: 0a           	asl
    3052: 0a           	asl
    3053: 0a           	asl
    3054: 85 13        	sta	$13                     ; 0x13 <__rc3>
    3056: a9 60        	lda	#$60
    3058: 38           	sec
    3059: e5 13        	sbc	$13                     ; 0x13 <__rc3>
    305b: 85 17        	sta	$17                     ; 0x17 <__rc7>
    305d: 98           	tya
    305e: 0a           	asl
    305f: 64 13        	stz	$13                     ; 0x13 <__rc3>
    3061: 26 13        	rol	$13                     ; 0x13 <__rc3>
    3063: 0a           	asl
    3064: 26 13        	rol	$13                     ; 0x13 <__rc3>
    3066: 0a           	asl
    3067: 26 13        	rol	$13                     ; 0x13 <__rc3>
    3069: 85 18        	sta	$18                     ; 0x18 <__rc8>
    306b: 18           	clc
    306c: 69 00        	adc	#$0
    306e: 85 19        	sta	$19                     ; 0x19 <__rc9>
    3070: a5 13        	lda	$13                     ; 0x13 <__rc3>
    3072: 69 d9        	adc	#$d9
    3074: 5a           	phy
    3075: a4 19        	ldy	$19                     ; 0x19 <__rc9>
    3077: 84 14        	sty	$14                     ; 0x14 <__rc4>
    3079: 7a           	ply
    307a: 85 15        	sta	$15                     ; 0x15 <__rc5>
    307c: a5 17        	lda	$17                     ; 0x17 <__rc7>
    307e: 99 39 00     	sta	$39,y                   ; 0x39 <_spriteCtl>
    3081: 92 14        	sta	($14)                   ; 0x14 <__rc4>
    3083: a5 18        	lda	$18                     ; 0x18 <__rc8>
    3085: 18           	clc
    3086: 69 01        	adc	#$1
    3088: 85 14        	sta	$14                     ; 0x14 <__rc4>
    308a: a5 13        	lda	$13                     ; 0x13 <__rc3>
    308c: 69 d9        	adc	#$d9
    308e: 85 15        	sta	$15                     ; 0x15 <__rc5>
    3090: a5 16        	lda	$16                     ; 0x16 <__rc6>
    3092: 92 14        	sta	($14)                   ; 0x14 <__rc4>
    3094: a5 18        	lda	$18                     ; 0x18 <__rc8>
    3096: 18           	clc
    3097: 69 02        	adc	#$2
    3099: 85 14        	sta	$14                     ; 0x14 <__rc4>
    309b: a5 13        	lda	$13                     ; 0x13 <__rc3>
    309d: 69 d9        	adc	#$d9
    309f: 85 15        	sta	$15                     ; 0x15 <__rc5>
    30a1: 18           	clc
    30a2: a5 12        	lda	$12                     ; 0x12 <__rc2>
    30a4: 92 14        	sta	($14)                   ; 0x14 <__rc4>
    30a6: a5 18        	lda	$18                     ; 0x18 <__rc8>
    30a8: 69 03        	adc	#$3
    30aa: 85 12        	sta	$12                     ; 0x12 <__rc2>
    30ac: a5 13        	lda	$13                     ; 0x13 <__rc3>
    30ae: 69 d9        	adc	#$d9
    30b0: 85 13        	sta	$13                     ; 0x13 <__rc3>
    30b2: 8a           	txa
    30b3: 92 12        	sta	($12)                   ; 0x12 <__rc2>
    30b5: 60           	rts

000030b6 <showGeneric>:
    30b6: b2 12        	lda	($12)                   ; 0x12 <__rc2>
    30b8: 85 16        	sta	$16                     ; 0x16 <__rc6>
    30ba: a5 12        	lda	$12                     ; 0x12 <__rc2>
    30bc: 85 b4        	sta	$b4                     ; 0xb4 <__zp_bss_size+0x40>
    30be: a6 13        	ldx	$13                     ; 0x13 <__rc3>
    30c0: 86 b2        	stx	$b2                     ; 0xb2 <__zp_bss_size+0x3e>
    30c2: a6 12        	ldx	$12                     ; 0x12 <__rc2>
    30c4: 86 14        	stx	$14                     ; 0x14 <__rc4>
    30c6: a6 13        	ldx	$13                     ; 0x13 <__rc3>
    30c8: 86 15        	stx	$15                     ; 0x15 <__rc5>
    30ca: a6 12        	ldx	$12                     ; 0x12 <__rc2>
    30cc: 86 b0        	stx	$b0                     ; 0xb0 <__zp_bss_size+0x3c>
    30ce: a6 13        	ldx	$13                     ; 0x13 <__rc3>
    30d0: 86 b1        	stx	$b1                     ; 0xb1 <__zp_bss_size+0x3d>
    30d2: 18           	clc
    30d3: 69 08        	adc	#$8
    30d5: 85 18        	sta	$18                     ; 0x18 <__rc8>
    30d7: a5 b2        	lda	$b2                     ; 0xb2 <__zp_bss_size+0x3e>
    30d9: 69 00        	adc	#$0
    30db: a0 08        	ldy	#$8
    30dd: 85 19        	sta	$19                     ; 0x19 <__rc9>
    30df: b1 12        	lda	($12),y                 ; 0x12 <__rc2>
    30e1: 85 17        	sta	$17                     ; 0x17 <__rc7>
    30e3: a0 02        	ldy	#$2
    30e5: b1 18        	lda	($18),y                 ; 0x18 <__rc8>
    30e7: 85 13        	sta	$13                     ; 0x13 <__rc3>
    30e9: a0 0d        	ldy	#$d
    30eb: b1 14        	lda	($14),y                 ; 0x14 <__rc4>
    30ed: 85 15        	sta	$15                     ; 0x15 <__rc5>
    30ef: a0 01        	ldy	#$1
    30f1: 84 b3        	sty	$b3                     ; 0xb3 <__zp_bss_size+0x3f>
    30f3: b1 18        	lda	($18),y                 ; 0x18 <__rc8>
    30f5: 85 12        	sta	$12                     ; 0x12 <__rc2>
    30f7: a0 03        	ldy	#$3
    30f9: b1 18        	lda	($18),y                 ; 0x18 <__rc8>
    30fb: 85 14        	sta	$14                     ; 0x14 <__rc4>
    30fd: a6 17        	ldx	$17                     ; 0x17 <__rc7>
    30ff: a5 16        	lda	$16                     ; 0x16 <__rc6>
    3101: 20 30 30     	jsr	$3030 <spriteDefine>
    3104: 18           	clc
    3105: a6 b4        	ldx	$b4                     ; 0xb4 <__zp_bss_size+0x40>
    3107: 8a           	txa
    3108: 69 03        	adc	#$3
    310a: a8           	tay
    310b: a5 b2        	lda	$b2                     ; 0xb2 <__zp_bss_size+0x3e>
    310d: 69 00        	adc	#$0
    310f: 84 12        	sty	$12                     ; 0x12 <__rc2>
    3111: 85 13        	sta	$13                     ; 0x13 <__rc3>
    3113: a6 b0        	ldx	$b0                     ; 0xb0 <__zp_bss_size+0x3c>
    3115: 86 1a        	stx	$1a                     ; 0x1a <__rc10>
    3117: a6 b1        	ldx	$b1                     ; 0xb1 <__zp_bss_size+0x3d>
    3119: 86 1b        	stx	$1b                     ; 0x1b <__rc11>
    311b: b2 1a        	lda	($1a)                   ; 0x1a <__rc10>
    311d: aa           	tax
    311e: 0a           	asl
    311f: 64 14        	stz	$14                     ; 0x14 <__rc4>
    3121: 26 14        	rol	$14                     ; 0x14 <__rc4>
    3123: 0a           	asl
    3124: 26 14        	rol	$14                     ; 0x14 <__rc4>
    3126: 0a           	asl
    3127: 26 14        	rol	$14                     ; 0x14 <__rc4>
    3129: a4 14        	ldy	$14                     ; 0x14 <__rc4>
    312b: 84 18        	sty	$18                     ; 0x18 <__rc8>
    312d: 85 1c        	sta	$1c                     ; 0x1c <__rc12>
    312f: 18           	clc
    3130: 69 04        	adc	#$4
    3132: 85 14        	sta	$14                     ; 0x14 <__rc4>
    3134: a5 18        	lda	$18                     ; 0x18 <__rc8>
    3136: 69 d9        	adc	#$d9
    3138: 85 15        	sta	$15                     ; 0x15 <__rc5>
    313a: a4 1a        	ldy	$1a                     ; 0x1a <__rc10>
    313c: 84 16        	sty	$16                     ; 0x16 <__rc6>
    313e: a4 1b        	ldy	$1b                     ; 0x1b <__rc11>
    3140: 84 17        	sty	$17                     ; 0x17 <__rc7>
    3142: e6 16        	inc	$16                     ; 0x16 <__rc6>
    3144: d0 02        	bne	$3148 <showGeneric+0x92>
    3146: e6 17        	inc	$17                     ; 0x17 <__rc7>
    3148: a0 03        	ldy	#$3
    314a: b1 1a        	lda	($1a),y                 ; 0x1a <__rc10>
    314c: 85 19        	sta	$19                     ; 0x19 <__rc9>
    314e: a4 b3        	ldy	$b3                     ; 0xb3 <__zp_bss_size+0x3f>
    3150: b1 1a        	lda	($1a),y                 ; 0x1a <__rc10>
    3152: 85 1a        	sta	$1a                     ; 0x1a <__rc10>
    3154: b1 16        	lda	($16),y                 ; 0x16 <__rc6>
    3156: 85 17        	sta	$17                     ; 0x17 <__rc7>
    3158: b1 12        	lda	($12),y                 ; 0x12 <__rc2>
    315a: 85 16        	sta	$16                     ; 0x16 <__rc6>
    315c: a5 1a        	lda	$1a                     ; 0x1a <__rc10>
    315e: 92 14        	sta	($14)                   ; 0x14 <__rc4>
    3160: a5 17        	lda	$17                     ; 0x17 <__rc7>
    3162: 91 14        	sta	($14),y                 ; 0x14 <__rc4>
    3164: a5 1c        	lda	$1c                     ; 0x1c <__rc12>
    3166: 18           	clc
    3167: 69 06        	adc	#$6
    3169: 85 14        	sta	$14                     ; 0x14 <__rc4>
    316b: a5 18        	lda	$18                     ; 0x18 <__rc8>
    316d: 69 d9        	adc	#$d9
    316f: 5a           	phy
    3170: a4 14        	ldy	$14                     ; 0x14 <__rc4>
    3172: 84 12        	sty	$12                     ; 0x12 <__rc2>
    3174: 7a           	ply
    3175: 85 13        	sta	$13                     ; 0x13 <__rc3>
    3177: a5 19        	lda	$19                     ; 0x19 <__rc9>
    3179: 92 12        	sta	($12)                   ; 0x12 <__rc2>
    317b: a5 16        	lda	$16                     ; 0x16 <__rc6>
    317d: 91 12        	sta	($12),y                 ; 0x12 <__rc2>
    317f: 18           	clc
    3180: a5 1c        	lda	$1c                     ; 0x1c <__rc12>
    3182: 69 00        	adc	#$0
    3184: 85 12        	sta	$12                     ; 0x12 <__rc2>
    3186: a5 18        	lda	$18                     ; 0x18 <__rc8>
    3188: 69 d9        	adc	#$d9
    318a: 85 13        	sta	$13                     ; 0x13 <__rc3>
    318c: a9 01        	lda	#$1
    318e: 15 39        	ora	$39,x                   ; 0x39 <_spriteCtl>
    3190: 92 12        	sta	($12)                   ; 0x12 <__rc2>
    3192: 60           	rts

00003193 <updateRadioB>:
    3193: a6 12        	ldx	$12                     ; 0x12 <__rc2>
    3195: 86 b4        	stx	$b4                     ; 0xb4 <__zp_bss_size+0x40>
    3197: a6 13        	ldx	$13                     ; 0x13 <__rc3>
    3199: 86 b5        	stx	$b5                     ; 0xb5 <__zp_bss_size+0x41>
    319b: a0 06        	ldy	#$6
    319d: b1 12        	lda	($12),y                 ; 0x12 <__rc2>
    319f: 85 b6        	sta	$b6                     ; 0xb6 <__zp_bss_size+0x42>
    31a1: a0 0d        	ldy	#$d
    31a3: b1 12        	lda	($12),y                 ; 0x12 <__rc2>
    31a5: 85 12        	sta	$12                     ; 0x12 <__rc2>
    31a7: 64 13        	stz	$13                     ; 0x13 <__rc3>
    31a9: a2 00        	ldx	#$0
    31ab: 85 b7        	sta	$b7                     ; 0xb7 <__zp_bss_size+0x43>
    31ad: 20 04 4b     	jsr	$4b04 <__mulhi3>
    31b0: 85 13        	sta	$13                     ; 0x13 <__rc3>
    31b2: 86 12        	stx	$12                     ; 0x12 <__rc2>
    31b4: a5 b4        	lda	$b4                     ; 0xb4 <__zp_bss_size+0x40>
    31b6: a0 08        	ldy	#$8
    31b8: 18           	clc
    31b9: 69 08        	adc	#$8
    31bb: 85 14        	sta	$14                     ; 0x14 <__rc4>
    31bd: a5 b5        	lda	$b5                     ; 0xb5 <__zp_bss_size+0x41>
    31bf: 69 00        	adc	#$0
    31c1: 85 15        	sta	$15                     ; 0x15 <__rc5>
    31c3: b1 b4        	lda	($b4),y                 ; 0xb4 <__zp_bss_size+0x40>
    31c5: aa           	tax
    31c6: a0 01        	ldy	#$1
    31c8: b1 14        	lda	($14),y                 ; 0x14 <__rc4>
    31ca: 85 16        	sta	$16                     ; 0x16 <__rc6>
    31cc: c8           	iny
    31cd: b1 14        	lda	($14),y                 ; 0x14 <__rc4>
    31cf: 85 17        	sta	$17                     ; 0x17 <__rc7>
    31d1: c8           	iny
    31d2: b1 14        	lda	($14),y                 ; 0x14 <__rc4>
    31d4: 85 18        	sta	$18                     ; 0x18 <__rc8>
    31d6: a5 b6        	lda	$b6                     ; 0xb6 <__zp_bss_size+0x42>
    31d8: f0 18        	beq	$31f2 <updateRadioB+0x5f>
    31da: 18           	clc
    31db: 8a           	txa
    31dc: 65 13        	adc	$13                     ; 0x13 <__rc3>
    31de: 85 14        	sta	$14                     ; 0x14 <__rc4>
    31e0: a5 16        	lda	$16                     ; 0x16 <__rc6>
    31e2: 65 12        	adc	$12                     ; 0x12 <__rc2>
    31e4: 85 15        	sta	$15                     ; 0x15 <__rc5>
    31e6: a5 17        	lda	$17                     ; 0x17 <__rc7>
    31e8: 69 00        	adc	#$0
    31ea: 85 16        	sta	$16                     ; 0x16 <__rc6>
    31ec: a5 18        	lda	$18                     ; 0x18 <__rc8>
    31ee: 69 00        	adc	#$0
    31f0: 80 16        	bra	$3208 <updateRadioB+0x75>
    31f2: 38           	sec
    31f3: 8a           	txa
    31f4: e5 13        	sbc	$13                     ; 0x13 <__rc3>
    31f6: 85 14        	sta	$14                     ; 0x14 <__rc4>
    31f8: a5 16        	lda	$16                     ; 0x16 <__rc6>
    31fa: e5 12        	sbc	$12                     ; 0x12 <__rc2>
    31fc: 85 15        	sta	$15                     ; 0x15 <__rc5>
    31fe: a5 17        	lda	$17                     ; 0x17 <__rc7>
    3200: e9 00        	sbc	#$0
    3202: 85 16        	sta	$16                     ; 0x16 <__rc6>
    3204: a5 18        	lda	$18                     ; 0x18 <__rc8>
    3206: e9 00        	sbc	#$0
    3208: 85 17        	sta	$17                     ; 0x17 <__rc7>
    320a: a5 b4        	lda	$b4                     ; 0xb4 <__zp_bss_size+0x40>
    320c: 18           	clc
    320d: 69 08        	adc	#$8
    320f: 85 12        	sta	$12                     ; 0x12 <__rc2>
    3211: a5 b5        	lda	$b5                     ; 0xb5 <__zp_bss_size+0x41>
    3213: 69 00        	adc	#$0
    3215: a0 08        	ldy	#$8
    3217: a6 12        	ldx	$12                     ; 0x12 <__rc2>
    3219: 86 18        	stx	$18                     ; 0x18 <__rc8>
    321b: 85 19        	sta	$19                     ; 0x19 <__rc9>
    321d: a5 14        	lda	$14                     ; 0x14 <__rc4>
    321f: 91 b4        	sta	($b4),y                 ; 0xb4 <__zp_bss_size+0x40>
    3221: a6 14        	ldx	$14                     ; 0x14 <__rc4>
    3223: a0 01        	ldy	#$1
    3225: a5 15        	lda	$15                     ; 0x15 <__rc5>
    3227: 91 18        	sta	($18),y                 ; 0x18 <__rc8>
    3229: 85 12        	sta	$12                     ; 0x12 <__rc2>
    322b: c8           	iny
    322c: a5 16        	lda	$16                     ; 0x16 <__rc6>
    322e: 91 18        	sta	($18),y                 ; 0x18 <__rc8>
    3230: 85 13        	sta	$13                     ; 0x13 <__rc3>
    3232: c8           	iny
    3233: a5 17        	lda	$17                     ; 0x17 <__rc7>
    3235: 91 18        	sta	($18),y                 ; 0x18 <__rc8>
    3237: 85 14        	sta	$14                     ; 0x14 <__rc4>
    3239: b2 b4        	lda	($b4)                   ; 0xb4 <__zp_bss_size+0x40>
    323b: a4 b7        	ldy	$b7                     ; 0xb7 <__zp_bss_size+0x43>
    323d: 84 15        	sty	$15                     ; 0x15 <__rc5>
    323f: 20 30 30     	jsr	$3030 <spriteDefine>
    3242: b2 b4        	lda	($b4)                   ; 0xb4 <__zp_bss_size+0x40>
    3244: aa           	tax
    3245: 0a           	asl
    3246: 64 12        	stz	$12                     ; 0x12 <__rc2>
    3248: 26 12        	rol	$12                     ; 0x12 <__rc2>
    324a: 0a           	asl
    324b: 26 12        	rol	$12                     ; 0x12 <__rc2>
    324d: 0a           	asl
    324e: 26 12        	rol	$12                     ; 0x12 <__rc2>
    3250: 18           	clc
    3251: 69 00        	adc	#$0
    3253: a8           	tay
    3254: a5 12        	lda	$12                     ; 0x12 <__rc2>
    3256: 69 d9        	adc	#$d9
    3258: 84 12        	sty	$12                     ; 0x12 <__rc2>
    325a: 85 13        	sta	$13                     ; 0x13 <__rc3>
    325c: a9 01        	lda	#$1
    325e: 15 39        	ora	$39,x                   ; 0x39 <_spriteCtl>
    3260: 92 12        	sta	($12)                   ; 0x12 <__rc2>
    3262: 60           	rts

00003263 <setRadioB>:
    3263: 85 14        	sta	$14                     ; 0x14 <__rc4>
    3265: 86 b3        	stx	$b3                     ; 0xb3 <__zp_bss_size+0x3f>
    3267: a6 12        	ldx	$12                     ; 0x12 <__rc2>
    3269: 86 b0        	stx	$b0                     ; 0xb0 <__zp_bss_size+0x3c>
    326b: a6 13        	ldx	$13                     ; 0x13 <__rc3>
    326d: 86 b1        	stx	$b1                     ; 0xb1 <__zp_bss_size+0x3d>
    326f: a0 13        	ldy	#$13
    3271: a9 01        	lda	#$1
    3273: 91 12        	sta	($12),y                 ; 0x12 <__rc2>
    3275: c8           	iny
    3276: a5 14        	lda	$14                     ; 0x14 <__rc4>
    3278: 91 12        	sta	($12),y                 ; 0x12 <__rc2>
    327a: a5 b0        	lda	$b0                     ; 0xb0 <__zp_bss_size+0x3c>
    327c: 18           	clc
    327d: 69 08        	adc	#$8
    327f: 85 18        	sta	$18                     ; 0x18 <__rc8>
    3281: a5 b1        	lda	$b1                     ; 0xb1 <__zp_bss_size+0x3d>
    3283: 69 00        	adc	#$0
    3285: a0 08        	ldy	#$8
    3287: 64 b2        	stz	$b2                     ; 0xb2 <__zp_bss_size+0x3e>
    3289: 85 19        	sta	$19                     ; 0x19 <__rc9>
    328b: b1 12        	lda	($12),y                 ; 0x12 <__rc2>
    328d: aa           	tax
    328e: a0 02        	ldy	#$2
    3290: b1 18        	lda	($18),y                 ; 0x18 <__rc8>
    3292: 85 13        	sta	$13                     ; 0x13 <__rc3>
    3294: a0 0d        	ldy	#$d
    3296: b1 b0        	lda	($b0),y                 ; 0xb0 <__zp_bss_size+0x3c>
    3298: 85 15        	sta	$15                     ; 0x15 <__rc5>
    329a: b2 b0        	lda	($b0)                   ; 0xb0 <__zp_bss_size+0x3c>
    329c: 85 16        	sta	$16                     ; 0x16 <__rc6>
    329e: a0 01        	ldy	#$1
    32a0: b1 18        	lda	($18),y                 ; 0x18 <__rc8>
    32a2: 85 12        	sta	$12                     ; 0x12 <__rc2>
    32a4: a0 03        	ldy	#$3
    32a6: b1 18        	lda	($18),y                 ; 0x18 <__rc8>
    32a8: 85 14        	sta	$14                     ; 0x14 <__rc4>
    32aa: a5 16        	lda	$16                     ; 0x16 <__rc6>
    32ac: 20 30 30     	jsr	$3030 <spriteDefine>
    32af: b2 b0        	lda	($b0)                   ; 0xb0 <__zp_bss_size+0x3c>
    32b1: aa           	tax
    32b2: 18           	clc
    32b3: a5 b0        	lda	$b0                     ; 0xb0 <__zp_bss_size+0x3c>
    32b5: 69 03        	adc	#$3
    32b7: 85 12        	sta	$12                     ; 0x12 <__rc2>
    32b9: a5 b1        	lda	$b1                     ; 0xb1 <__zp_bss_size+0x3d>
    32bb: 69 00        	adc	#$0
    32bd: 85 13        	sta	$13                     ; 0x13 <__rc3>
    32bf: 86 1a        	stx	$1a                     ; 0x1a <__rc10>
    32c1: 06 1a        	asl	$1a                     ; 0x1a <__rc10>
    32c3: 64 18        	stz	$18                     ; 0x18 <__rc8>
    32c5: 26 18        	rol	$18                     ; 0x18 <__rc8>
    32c7: 06 1a        	asl	$1a                     ; 0x1a <__rc10>
    32c9: 26 18        	rol	$18                     ; 0x18 <__rc8>
    32cb: 06 1a        	asl	$1a                     ; 0x1a <__rc10>
    32cd: 26 18        	rol	$18                     ; 0x18 <__rc8>
    32cf: 18           	clc
    32d0: a5 1a        	lda	$1a                     ; 0x1a <__rc10>
    32d2: 69 04        	adc	#$4
    32d4: 85 14        	sta	$14                     ; 0x14 <__rc4>
    32d6: a5 18        	lda	$18                     ; 0x18 <__rc8>
    32d8: 69 d9        	adc	#$d9
    32da: a4 b0        	ldy	$b0                     ; 0xb0 <__zp_bss_size+0x3c>
    32dc: 84 16        	sty	$16                     ; 0x16 <__rc6>
    32de: a4 b1        	ldy	$b1                     ; 0xb1 <__zp_bss_size+0x3d>
    32e0: 84 17        	sty	$17                     ; 0x17 <__rc7>
    32e2: e6 16        	inc	$16                     ; 0x16 <__rc6>
    32e4: d0 02        	bne	$32e8 <setRadioB+0x85>
    32e6: e6 17        	inc	$17                     ; 0x17 <__rc7>
    32e8: 85 15        	sta	$15                     ; 0x15 <__rc5>
    32ea: a0 01        	ldy	#$1
    32ec: b1 b0        	lda	($b0),y                 ; 0xb0 <__zp_bss_size+0x3c>
    32ee: 85 1b        	sta	$1b                     ; 0x1b <__rc11>
    32f0: a0 03        	ldy	#$3
    32f2: b1 b0        	lda	($b0),y                 ; 0xb0 <__zp_bss_size+0x3c>
    32f4: 85 19        	sta	$19                     ; 0x19 <__rc9>
    32f6: a0 01        	ldy	#$1
    32f8: b1 16        	lda	($16),y                 ; 0x16 <__rc6>
    32fa: 85 17        	sta	$17                     ; 0x17 <__rc7>
    32fc: b1 12        	lda	($12),y                 ; 0x12 <__rc2>
    32fe: 85 16        	sta	$16                     ; 0x16 <__rc6>
    3300: a5 1b        	lda	$1b                     ; 0x1b <__rc11>
    3302: 92 14        	sta	($14)                   ; 0x14 <__rc4>
    3304: a5 17        	lda	$17                     ; 0x17 <__rc7>
    3306: 91 14        	sta	($14),y                 ; 0x14 <__rc4>
    3308: 18           	clc
    3309: a5 1a        	lda	$1a                     ; 0x1a <__rc10>
    330b: 69 06        	adc	#$6
    330d: 85 12        	sta	$12                     ; 0x12 <__rc2>
    330f: a5 18        	lda	$18                     ; 0x18 <__rc8>
    3311: 85 14        	sta	$14                     ; 0x14 <__rc4>
    3313: a5 18        	lda	$18                     ; 0x18 <__rc8>
    3315: 69 d9        	adc	#$d9
    3317: 85 13        	sta	$13                     ; 0x13 <__rc3>
    3319: a5 19        	lda	$19                     ; 0x19 <__rc9>
    331b: 92 12        	sta	($12)                   ; 0x12 <__rc2>
    331d: a5 16        	lda	$16                     ; 0x16 <__rc6>
    331f: 91 12        	sta	($12),y                 ; 0x12 <__rc2>
    3321: a4 b3        	ldy	$b3                     ; 0xb3 <__zp_bss_size+0x3f>
    3323: f0 23        	beq	$3348 <setRadioB+0xe5>
    3325: a0 06        	ldy	#$6
    3327: a9 01        	lda	#$1
    3329: 91 b0        	sta	($b0),y                 ; 0xb0 <__zp_bss_size+0x3c>
    332b: a6 b0        	ldx	$b0                     ; 0xb0 <__zp_bss_size+0x3c>
    332d: 86 12        	stx	$12                     ; 0x12 <__rc2>
    332f: a6 b1        	ldx	$b1                     ; 0xb1 <__zp_bss_size+0x3d>
    3331: 86 13        	stx	$13                     ; 0x13 <__rc3>
    3333: 20 93 31     	jsr	$3193 <updateRadioB>
    3336: b2 b0        	lda	($b0)                   ; 0xb0 <__zp_bss_size+0x3c>
    3338: aa           	tax
    3339: 0a           	asl
    333a: 26 b2        	rol	$b2                     ; 0xb2 <__zp_bss_size+0x3e>
    333c: 0a           	asl
    333d: 26 b2        	rol	$b2                     ; 0xb2 <__zp_bss_size+0x3e>
    333f: 0a           	asl
    3340: 85 1a        	sta	$1a                     ; 0x1a <__rc10>
    3342: 26 b2        	rol	$b2                     ; 0xb2 <__zp_bss_size+0x3e>
    3344: a4 b2        	ldy	$b2                     ; 0xb2 <__zp_bss_size+0x3e>
    3346: 84 14        	sty	$14                     ; 0x14 <__rc4>
    3348: 18           	clc
    3349: a5 1a        	lda	$1a                     ; 0x1a <__rc10>
    334b: 69 00        	adc	#$0
    334d: 85 12        	sta	$12                     ; 0x12 <__rc2>
    334f: a5 14        	lda	$14                     ; 0x14 <__rc4>
    3351: 69 d9        	adc	#$d9
    3353: 85 13        	sta	$13                     ; 0x13 <__rc3>
    3355: a9 01        	lda	#$1
    3357: 15 39        	ora	$39,x                   ; 0x39 <_spriteCtl>
    3359: 92 12        	sta	($12)                   ; 0x12 <__rc2>
    335b: 60           	rts

0000335c <updateDial>:
    335c: a6 12        	ldx	$12                     ; 0x12 <__rc2>
    335e: 86 b0        	stx	$b0                     ; 0xb0 <__zp_bss_size+0x3c>
    3360: a6 13        	ldx	$13                     ; 0x13 <__rc3>
    3362: 86 b1        	stx	$b1                     ; 0xb1 <__zp_bss_size+0x3d>
    3364: a0 0d        	ldy	#$d
    3366: b1 12        	lda	($12),y                 ; 0x12 <__rc2>
    3368: 85 b2        	sta	$b2                     ; 0xb2 <__zp_bss_size+0x3e>
    336a: a0 13        	ldy	#$13
    336c: b1 12        	lda	($12),y                 ; 0x12 <__rc2>
    336e: aa           	tax
    336f: c8           	iny
    3370: b1 12        	lda	($12),y                 ; 0x12 <__rc2>
    3372: 85 15        	sta	$15                     ; 0x15 <__rc5>
    3374: 86 13        	stx	$13                     ; 0x13 <__rc3>
    3376: c5 13        	cmp	$13                     ; 0x13 <__rc3>
    3378: a9 00        	lda	#$0
    337a: b0 35        	bcs	$33b1 <updateDial+0x55>
    337c: a0 15        	ldy	#$15
    337e: b1 b0        	lda	($b0),y                 ; 0xb0 <__zp_bss_size+0x3c>
    3380: a8           	tay
    3381: 85 13        	sta	$13                     ; 0x13 <__rc3>
    3383: e4 13        	cpx	$13                     ; 0x13 <__rc3>
    3385: a9 07        	lda	#$7
    3387: b0 28        	bcs	$33b1 <updateDial+0x55>
    3389: 38           	sec
    338a: 98           	tya
    338b: e5 15        	sbc	$15                     ; 0x15 <__rc5>
    338d: 85 12        	sta	$12                     ; 0x12 <__rc2>
    338f: a9 00        	lda	#$0
    3391: e9 00        	sbc	#$0
    3393: e6 12        	inc	$12                     ; 0x12 <__rc2>
    3395: d0 01        	bne	$3398 <updateDial+0x3c>
    3397: 1a           	inc
    3398: 4a           	lsr
    3399: 66 12        	ror	$12                     ; 0x12 <__rc2>
    339b: 4a           	lsr
    339c: 66 12        	ror	$12                     ; 0x12 <__rc2>
    339e: 4a           	lsr
    339f: 66 12        	ror	$12                     ; 0x12 <__rc2>
    33a1: 8a           	txa
    33a2: 38           	sec
    33a3: e5 15        	sbc	$15                     ; 0x15 <__rc5>
    33a5: a8           	tay
    33a6: a9 00        	lda	#$0
    33a8: e9 00        	sbc	#$0
    33aa: 64 13        	stz	$13                     ; 0x13 <__rc3>
    33ac: aa           	tax
    33ad: 98           	tya
    33ae: 20 a6 4b     	jsr	$4ba6 <__udivhi3>
    33b1: 18           	clc
    33b2: 69 20        	adc	#$20
    33b4: 85 18        	sta	$18                     ; 0x18 <__rc8>
    33b6: a9 00        	lda	#$0
    33b8: 69 00        	adc	#$0
    33ba: 85 b4        	sta	$b4                     ; 0xb4 <__zp_bss_size+0x40>
    33bc: a9 00        	lda	#$0
    33be: 69 00        	adc	#$0
    33c0: 85 b5        	sta	$b5                     ; 0xb5 <__zp_bss_size+0x41>
    33c2: a9 00        	lda	#$0
    33c4: 69 00        	adc	#$0
    33c6: 85 b6        	sta	$b6                     ; 0xb6 <__zp_bss_size+0x42>
    33c8: 64 12        	stz	$12                     ; 0x12 <__rc2>
    33ca: 64 13        	stz	$13                     ; 0x13 <__rc3>
    33cc: a4 b2        	ldy	$b2                     ; 0xb2 <__zp_bss_size+0x3e>
    33ce: a6 b2        	ldx	$b2                     ; 0xb2 <__zp_bss_size+0x3e>
    33d0: 86 b3        	stx	$b3                     ; 0xb3 <__zp_bss_size+0x3f>
    33d2: 84 14        	sty	$14                     ; 0x14 <__rc4>
    33d4: 64 15        	stz	$15                     ; 0x15 <__rc5>
    33d6: 64 16        	stz	$16                     ; 0x16 <__rc6>
    33d8: 64 17        	stz	$17                     ; 0x17 <__rc7>
    33da: a2 00        	ldx	#$0
    33dc: a5 18        	lda	$18                     ; 0x18 <__rc8>
    33de: 85 b2        	sta	$b2                     ; 0xb2 <__zp_bss_size+0x3e>
    33e0: 98           	tya
    33e1: 20 36 4b     	jsr	$4b36 <__mulsi3>
    33e4: a4 b2        	ldy	$b2                     ; 0xb2 <__zp_bss_size+0x3e>
    33e6: 84 14        	sty	$14                     ; 0x14 <__rc4>
    33e8: a4 b4        	ldy	$b4                     ; 0xb4 <__zp_bss_size+0x40>
    33ea: 84 15        	sty	$15                     ; 0x15 <__rc5>
    33ec: a4 b5        	ldy	$b5                     ; 0xb5 <__zp_bss_size+0x41>
    33ee: 84 16        	sty	$16                     ; 0x16 <__rc6>
    33f0: a4 b6        	ldy	$b6                     ; 0xb6 <__zp_bss_size+0x42>
    33f2: 84 17        	sty	$17                     ; 0x17 <__rc7>
    33f4: 20 36 4b     	jsr	$4b36 <__mulsi3>
    33f7: 86 14        	stx	$14                     ; 0x14 <__rc4>
    33f9: a6 13        	ldx	$13                     ; 0x13 <__rc3>
    33fb: 18           	clc
    33fc: 69 00        	adc	#$0
    33fe: 85 16        	sta	$16                     ; 0x16 <__rc6>
    3400: a5 14        	lda	$14                     ; 0x14 <__rc4>
    3402: 69 00        	adc	#$0
    3404: 85 17        	sta	$17                     ; 0x17 <__rc7>
    3406: a5 12        	lda	$12                     ; 0x12 <__rc2>
    3408: 69 01        	adc	#$1
    340a: 85 13        	sta	$13                     ; 0x13 <__rc3>
    340c: 8a           	txa
    340d: 69 00        	adc	#$0
    340f: 85 12        	sta	$12                     ; 0x12 <__rc2>
    3411: a5 b0        	lda	$b0                     ; 0xb0 <__zp_bss_size+0x3c>
    3413: a6 b0        	ldx	$b0                     ; 0xb0 <__zp_bss_size+0x3c>
    3415: 86 b4        	stx	$b4                     ; 0xb4 <__zp_bss_size+0x40>
    3417: 18           	clc
    3418: 69 08        	adc	#$8
    341a: 85 14        	sta	$14                     ; 0x14 <__rc4>
    341c: a5 b1        	lda	$b1                     ; 0xb1 <__zp_bss_size+0x3d>
    341e: 69 00        	adc	#$0
    3420: a0 08        	ldy	#$8
    3422: 85 15        	sta	$15                     ; 0x15 <__rc5>
    3424: a5 16        	lda	$16                     ; 0x16 <__rc6>
    3426: 91 b0        	sta	($b0),y                 ; 0xb0 <__zp_bss_size+0x3c>
    3428: a0 01        	ldy	#$1
    342a: a5 17        	lda	$17                     ; 0x17 <__rc7>
    342c: 91 14        	sta	($14),y                 ; 0x14 <__rc4>
    342e: a6 17        	ldx	$17                     ; 0x17 <__rc7>
    3430: c8           	iny
    3431: a5 13        	lda	$13                     ; 0x13 <__rc3>
    3433: 91 14        	sta	($14),y                 ; 0x14 <__rc4>
    3435: c8           	iny
    3436: a5 12        	lda	$12                     ; 0x12 <__rc2>
    3438: 91 14        	sta	($14),y                 ; 0x14 <__rc4>
    343a: 85 14        	sta	$14                     ; 0x14 <__rc4>
    343c: b2 b0        	lda	($b0)                   ; 0xb0 <__zp_bss_size+0x3c>
    343e: 86 12        	stx	$12                     ; 0x12 <__rc2>
    3440: a6 b3        	ldx	$b3                     ; 0xb3 <__zp_bss_size+0x3f>
    3442: 86 15        	stx	$15                     ; 0x15 <__rc5>
    3444: a6 16        	ldx	$16                     ; 0x16 <__rc6>
    3446: 20 30 30     	jsr	$3030 <spriteDefine>
    3449: 18           	clc
    344a: a5 b4        	lda	$b4                     ; 0xb4 <__zp_bss_size+0x40>
    344c: 69 03        	adc	#$3
    344e: 85 12        	sta	$12                     ; 0x12 <__rc2>
    3450: a5 b1        	lda	$b1                     ; 0xb1 <__zp_bss_size+0x3d>
    3452: 69 00        	adc	#$0
    3454: 85 13        	sta	$13                     ; 0x13 <__rc3>
    3456: b2 b0        	lda	($b0)                   ; 0xb0 <__zp_bss_size+0x3c>
    3458: aa           	tax
    3459: 0a           	asl
    345a: 64 19        	stz	$19                     ; 0x19 <__rc9>
    345c: 26 19        	rol	$19                     ; 0x19 <__rc9>
    345e: 85 14        	sta	$14                     ; 0x14 <__rc4>
    3460: 06 14        	asl	$14                     ; 0x14 <__rc4>
    3462: 26 19        	rol	$19                     ; 0x19 <__rc9>
    3464: 06 14        	asl	$14                     ; 0x14 <__rc4>
    3466: a4 14        	ldy	$14                     ; 0x14 <__rc4>
    3468: 84 18        	sty	$18                     ; 0x18 <__rc8>
    346a: 26 19        	rol	$19                     ; 0x19 <__rc9>
    346c: a5 14        	lda	$14                     ; 0x14 <__rc4>
    346e: 18           	clc
    346f: 69 04        	adc	#$4
    3471: 85 14        	sta	$14                     ; 0x14 <__rc4>
    3473: a5 19        	lda	$19                     ; 0x19 <__rc9>
    3475: 69 d9        	adc	#$d9
    3477: 85 15        	sta	$15                     ; 0x15 <__rc5>
    3479: a4 b0        	ldy	$b0                     ; 0xb0 <__zp_bss_size+0x3c>
    347b: 84 16        	sty	$16                     ; 0x16 <__rc6>
    347d: a4 b1        	ldy	$b1                     ; 0xb1 <__zp_bss_size+0x3d>
    347f: 84 17        	sty	$17                     ; 0x17 <__rc7>
    3481: e6 16        	inc	$16                     ; 0x16 <__rc6>
    3483: d0 02        	bne	$3487 <updateDial+0x12b>
    3485: e6 17        	inc	$17                     ; 0x17 <__rc7>
    3487: a0 03        	ldy	#$3
    3489: b1 b0        	lda	($b0),y                 ; 0xb0 <__zp_bss_size+0x3c>
    348b: 85 1a        	sta	$1a                     ; 0x1a <__rc10>
    348d: a0 01        	ldy	#$1
    348f: b1 b0        	lda	($b0),y                 ; 0xb0 <__zp_bss_size+0x3c>
    3491: 85 1b        	sta	$1b                     ; 0x1b <__rc11>
    3493: b1 16        	lda	($16),y                 ; 0x16 <__rc6>
    3495: 85 17        	sta	$17                     ; 0x17 <__rc7>
    3497: b1 12        	lda	($12),y                 ; 0x12 <__rc2>
    3499: 85 16        	sta	$16                     ; 0x16 <__rc6>
    349b: a5 1b        	lda	$1b                     ; 0x1b <__rc11>
    349d: 92 14        	sta	($14)                   ; 0x14 <__rc4>
    349f: a5 17        	lda	$17                     ; 0x17 <__rc7>
    34a1: 91 14        	sta	($14),y                 ; 0x14 <__rc4>
    34a3: a5 18        	lda	$18                     ; 0x18 <__rc8>
    34a5: 18           	clc
    34a6: 69 06        	adc	#$6
    34a8: 85 14        	sta	$14                     ; 0x14 <__rc4>
    34aa: a5 19        	lda	$19                     ; 0x19 <__rc9>
    34ac: 69 d9        	adc	#$d9
    34ae: 5a           	phy
    34af: a4 14        	ldy	$14                     ; 0x14 <__rc4>
    34b1: 84 12        	sty	$12                     ; 0x12 <__rc2>
    34b3: 7a           	ply
    34b4: 85 13        	sta	$13                     ; 0x13 <__rc3>
    34b6: a5 1a        	lda	$1a                     ; 0x1a <__rc10>
    34b8: 92 12        	sta	($12)                   ; 0x12 <__rc2>
    34ba: a5 16        	lda	$16                     ; 0x16 <__rc6>
    34bc: 91 12        	sta	($12),y                 ; 0x12 <__rc2>
    34be: 18           	clc
    34bf: a5 18        	lda	$18                     ; 0x18 <__rc8>
    34c1: 69 00        	adc	#$0
    34c3: 85 12        	sta	$12                     ; 0x12 <__rc2>
    34c5: a5 19        	lda	$19                     ; 0x19 <__rc9>
    34c7: 69 d9        	adc	#$d9
    34c9: 85 13        	sta	$13                     ; 0x13 <__rc3>
    34cb: a9 01        	lda	#$1
    34cd: 15 39        	ora	$39,x                   ; 0x39 <_spriteCtl>
    34cf: 92 12        	sta	($12)                   ; 0x12 <__rc2>
    34d1: 60           	rts

000034d2 <updateSlider>:
    34d2: a6 12        	ldx	$12                     ; 0x12 <__rc2>
    34d4: 86 b0        	stx	$b0                     ; 0xb0 <__zp_bss_size+0x3c>
    34d6: a6 13        	ldx	$13                     ; 0x13 <__rc3>
    34d8: 86 b1        	stx	$b1                     ; 0xb1 <__zp_bss_size+0x3d>
    34da: a0 0d        	ldy	#$d
    34dc: b1 12        	lda	($12),y                 ; 0x12 <__rc2>
    34de: 85 b2        	sta	$b2                     ; 0xb2 <__zp_bss_size+0x3e>
    34e0: a0 13        	ldy	#$13
    34e2: b1 12        	lda	($12),y                 ; 0x12 <__rc2>
    34e4: aa           	tax
    34e5: c8           	iny
    34e6: b1 12        	lda	($12),y                 ; 0x12 <__rc2>
    34e8: 85 15        	sta	$15                     ; 0x15 <__rc5>
    34ea: 86 13        	stx	$13                     ; 0x13 <__rc3>
    34ec: c5 13        	cmp	$13                     ; 0x13 <__rc3>
    34ee: a9 00        	lda	#$0
    34f0: b0 35        	bcs	$3527 <updateSlider+0x55>
    34f2: a0 15        	ldy	#$15
    34f4: b1 b0        	lda	($b0),y                 ; 0xb0 <__zp_bss_size+0x3c>
    34f6: a8           	tay
    34f7: 85 13        	sta	$13                     ; 0x13 <__rc3>
    34f9: e4 13        	cpx	$13                     ; 0x13 <__rc3>
    34fb: a9 07        	lda	#$7
    34fd: b0 28        	bcs	$3527 <updateSlider+0x55>
    34ff: 38           	sec
    3500: 98           	tya
    3501: e5 15        	sbc	$15                     ; 0x15 <__rc5>
    3503: 85 12        	sta	$12                     ; 0x12 <__rc2>
    3505: a9 00        	lda	#$0
    3507: e9 00        	sbc	#$0
    3509: e6 12        	inc	$12                     ; 0x12 <__rc2>
    350b: d0 01        	bne	$350e <updateSlider+0x3c>
    350d: 1a           	inc
    350e: 4a           	lsr
    350f: 66 12        	ror	$12                     ; 0x12 <__rc2>
    3511: 4a           	lsr
    3512: 66 12        	ror	$12                     ; 0x12 <__rc2>
    3514: 4a           	lsr
    3515: 66 12        	ror	$12                     ; 0x12 <__rc2>
    3517: 8a           	txa
    3518: 38           	sec
    3519: e5 15        	sbc	$15                     ; 0x15 <__rc5>
    351b: a8           	tay
    351c: a9 00        	lda	#$0
    351e: e9 00        	sbc	#$0
    3520: 64 13        	stz	$13                     ; 0x13 <__rc3>
    3522: aa           	tax
    3523: 98           	tya
    3524: 20 a6 4b     	jsr	$4ba6 <__udivhi3>
    3527: 85 b6        	sta	$b6                     ; 0xb6 <__zp_bss_size+0x42>
    3529: a5 b2        	lda	$b2                     ; 0xb2 <__zp_bss_size+0x3e>
    352b: a6 b2        	ldx	$b2                     ; 0xb2 <__zp_bss_size+0x3e>
    352d: 86 b4        	stx	$b4                     ; 0xb4 <__zp_bss_size+0x40>
    352f: 85 12        	sta	$12                     ; 0x12 <__rc2>
    3531: 64 13        	stz	$13                     ; 0x13 <__rc3>
    3533: a2 00        	ldx	#$0
    3535: 20 04 4b     	jsr	$4b04 <__mulhi3>
    3538: 85 15        	sta	$15                     ; 0x15 <__rc5>
    353a: 86 14        	stx	$14                     ; 0x14 <__rc4>
    353c: 85 12        	sta	$12                     ; 0x12 <__rc2>
    353e: 06 12        	asl	$12                     ; 0x12 <__rc2>
    3540: 86 13        	stx	$13                     ; 0x13 <__rc3>
    3542: 26 13        	rol	$13                     ; 0x13 <__rc3>
    3544: 06 12        	asl	$12                     ; 0x12 <__rc2>
    3546: 26 13        	rol	$13                     ; 0x13 <__rc3>
    3548: 06 12        	asl	$12                     ; 0x12 <__rc2>
    354a: 26 13        	rol	$13                     ; 0x13 <__rc3>
    354c: a5 12        	lda	$12                     ; 0x12 <__rc2>
    354e: 0a           	asl
    354f: a6 13        	ldx	$13                     ; 0x13 <__rc3>
    3551: 86 16        	stx	$16                     ; 0x16 <__rc6>
    3553: 26 16        	rol	$16                     ; 0x16 <__rc6>
    3555: 0a           	asl
    3556: 26 16        	rol	$16                     ; 0x16 <__rc6>
    3558: 18           	clc
    3559: 65 12        	adc	$12                     ; 0x12 <__rc2>
    355b: 85 b3        	sta	$b3                     ; 0xb3 <__zp_bss_size+0x3f>
    355d: a5 16        	lda	$16                     ; 0x16 <__rc6>
    355f: 65 13        	adc	$13                     ; 0x13 <__rc3>
    3561: 85 b2        	sta	$b2                     ; 0xb2 <__zp_bss_size+0x3e>
    3563: a6 b6        	ldx	$b6                     ; 0xb6 <__zp_bss_size+0x42>
    3565: 86 12        	stx	$12                     ; 0x12 <__rc2>
    3567: 64 13        	stz	$13                     ; 0x13 <__rc3>
    3569: a6 14        	ldx	$14                     ; 0x14 <__rc4>
    356b: a5 15        	lda	$15                     ; 0x15 <__rc5>
    356d: 20 04 4b     	jsr	$4b04 <__mulhi3>
    3570: 85 12        	sta	$12                     ; 0x12 <__rc2>
    3572: 86 13        	stx	$13                     ; 0x13 <__rc3>
    3574: 18           	clc
    3575: a5 b3        	lda	$b3                     ; 0xb3 <__zp_bss_size+0x3f>
    3577: 65 12        	adc	$12                     ; 0x12 <__rc2>
    3579: 85 16        	sta	$16                     ; 0x16 <__rc6>
    357b: a5 b2        	lda	$b2                     ; 0xb2 <__zp_bss_size+0x3e>
    357d: 65 13        	adc	$13                     ; 0x13 <__rc3>
    357f: aa           	tax
    3580: a9 01        	lda	#$1
    3582: 69 00        	adc	#$0
    3584: 85 13        	sta	$13                     ; 0x13 <__rc3>
    3586: a9 00        	lda	#$0
    3588: 69 00        	adc	#$0
    358a: 85 14        	sta	$14                     ; 0x14 <__rc4>
    358c: a5 b0        	lda	$b0                     ; 0xb0 <__zp_bss_size+0x3c>
    358e: a4 b0        	ldy	$b0                     ; 0xb0 <__zp_bss_size+0x3c>
    3590: 84 b6        	sty	$b6                     ; 0xb6 <__zp_bss_size+0x42>
    3592: a4 b1        	ldy	$b1                     ; 0xb1 <__zp_bss_size+0x3d>
    3594: 84 b8        	sty	$b8                     ; 0xb8 <__zp_bss_size+0x44>
    3596: 18           	clc
    3597: 69 08        	adc	#$8
    3599: a8           	tay
    359a: a5 b1        	lda	$b1                     ; 0xb1 <__zp_bss_size+0x3d>
    359c: 69 00        	adc	#$0
    359e: 5a           	phy
    359f: a4 b0        	ldy	$b0                     ; 0xb0 <__zp_bss_size+0x3c>
    35a1: 84 b2        	sty	$b2                     ; 0xb2 <__zp_bss_size+0x3e>
    35a3: a4 b1        	ldy	$b1                     ; 0xb1 <__zp_bss_size+0x3d>
    35a5: 84 b3        	sty	$b3                     ; 0xb3 <__zp_bss_size+0x3f>
    35a7: 7a           	ply
    35a8: 84 b0        	sty	$b0                     ; 0xb0 <__zp_bss_size+0x3c>
    35aa: 85 b1        	sta	$b1                     ; 0xb1 <__zp_bss_size+0x3d>
    35ac: a0 08        	ldy	#$8
    35ae: a5 16        	lda	$16                     ; 0x16 <__rc6>
    35b0: 91 b2        	sta	($b2),y                 ; 0xb2 <__zp_bss_size+0x3e>
    35b2: 8a           	txa
    35b3: a0 01        	ldy	#$1
    35b5: 91 b0        	sta	($b0),y                 ; 0xb0 <__zp_bss_size+0x3c>
    35b7: 86 12        	stx	$12                     ; 0x12 <__rc2>
    35b9: c8           	iny
    35ba: a5 13        	lda	$13                     ; 0x13 <__rc3>
    35bc: 91 b0        	sta	($b0),y                 ; 0xb0 <__zp_bss_size+0x3c>
    35be: c8           	iny
    35bf: a5 14        	lda	$14                     ; 0x14 <__rc4>
    35c1: 91 b0        	sta	($b0),y                 ; 0xb0 <__zp_bss_size+0x3c>
    35c3: b2 b2        	lda	($b2)                   ; 0xb2 <__zp_bss_size+0x3e>
    35c5: a6 b4        	ldx	$b4                     ; 0xb4 <__zp_bss_size+0x40>
    35c7: 86 15        	stx	$15                     ; 0x15 <__rc5>
    35c9: a6 16        	ldx	$16                     ; 0x16 <__rc6>
    35cb: 20 30 30     	jsr	$3030 <spriteDefine>
    35ce: b2 b2        	lda	($b2)                   ; 0xb2 <__zp_bss_size+0x3e>
    35d0: 85 16        	sta	$16                     ; 0x16 <__rc6>
    35d2: 18           	clc
    35d3: a5 b6        	lda	$b6                     ; 0xb6 <__zp_bss_size+0x42>
    35d5: 69 03        	adc	#$3
    35d7: 85 12        	sta	$12                     ; 0x12 <__rc2>
    35d9: a5 b8        	lda	$b8                     ; 0xb8 <__zp_bss_size+0x44>
    35db: 69 00        	adc	#$0
    35dd: 85 13        	sta	$13                     ; 0x13 <__rc3>
    35df: a6 12        	ldx	$12                     ; 0x12 <__rc2>
    35e1: 86 14        	stx	$14                     ; 0x14 <__rc4>
    35e3: 85 15        	sta	$15                     ; 0x15 <__rc5>
    35e5: a6 12        	ldx	$12                     ; 0x12 <__rc2>
    35e7: 86 b6        	stx	$b6                     ; 0xb6 <__zp_bss_size+0x42>
    35e9: 85 b7        	sta	$b7                     ; 0xb7 <__zp_bss_size+0x43>
    35eb: a6 16        	ldx	$16                     ; 0x16 <__rc6>
    35ed: 86 12        	stx	$12                     ; 0x12 <__rc2>
    35ef: 06 12        	asl	$12                     ; 0x12 <__rc2>
    35f1: 64 1b        	stz	$1b                     ; 0x1b <__rc11>
    35f3: 26 1b        	rol	$1b                     ; 0x1b <__rc11>
    35f5: 06 12        	asl	$12                     ; 0x12 <__rc2>
    35f7: 26 1b        	rol	$1b                     ; 0x1b <__rc11>
    35f9: 06 12        	asl	$12                     ; 0x12 <__rc2>
    35fb: a4 12        	ldy	$12                     ; 0x12 <__rc2>
    35fd: 84 1a        	sty	$1a                     ; 0x1a <__rc10>
    35ff: 26 1b        	rol	$1b                     ; 0x1b <__rc11>
    3601: 18           	clc
    3602: a5 12        	lda	$12                     ; 0x12 <__rc2>
    3604: 69 04        	adc	#$4
    3606: 85 12        	sta	$12                     ; 0x12 <__rc2>
    3608: a5 1b        	lda	$1b                     ; 0x1b <__rc11>
    360a: 69 d9        	adc	#$d9
    360c: a4 b2        	ldy	$b2                     ; 0xb2 <__zp_bss_size+0x3e>
    360e: 84 16        	sty	$16                     ; 0x16 <__rc6>
    3610: a4 b3        	ldy	$b3                     ; 0xb3 <__zp_bss_size+0x3f>
    3612: 84 17        	sty	$17                     ; 0x17 <__rc7>
    3614: e6 16        	inc	$16                     ; 0x16 <__rc6>
    3616: d0 02        	bne	$361a <updateSlider+0x148>
    3618: e6 17        	inc	$17                     ; 0x17 <__rc7>
    361a: a4 16        	ldy	$16                     ; 0x16 <__rc6>
    361c: 84 18        	sty	$18                     ; 0x18 <__rc8>
    361e: a4 17        	ldy	$17                     ; 0x17 <__rc7>
    3620: 84 19        	sty	$19                     ; 0x19 <__rc9>
    3622: a4 18        	ldy	$18                     ; 0x18 <__rc8>
    3624: 84 b4        	sty	$b4                     ; 0xb4 <__zp_bss_size+0x40>
    3626: a4 19        	ldy	$19                     ; 0x19 <__rc9>
    3628: 84 b5        	sty	$b5                     ; 0xb5 <__zp_bss_size+0x41>
    362a: 85 13        	sta	$13                     ; 0x13 <__rc3>
    362c: a0 01        	ldy	#$1
    362e: b1 b2        	lda	($b2),y                 ; 0xb2 <__zp_bss_size+0x3e>
    3630: 85 18        	sta	$18                     ; 0x18 <__rc8>
    3632: b1 16        	lda	($16),y                 ; 0x16 <__rc6>
    3634: 85 17        	sta	$17                     ; 0x17 <__rc7>
    3636: a0 03        	ldy	#$3
    3638: b1 b2        	lda	($b2),y                 ; 0xb2 <__zp_bss_size+0x3e>
    363a: 85 16        	sta	$16                     ; 0x16 <__rc6>
    363c: a0 01        	ldy	#$1
    363e: b1 14        	lda	($14),y                 ; 0x14 <__rc4>
    3640: 85 14        	sta	$14                     ; 0x14 <__rc4>
    3642: a5 18        	lda	$18                     ; 0x18 <__rc8>
    3644: 92 12        	sta	($12)                   ; 0x12 <__rc2>
    3646: a5 17        	lda	$17                     ; 0x17 <__rc7>
    3648: 91 12        	sta	($12),y                 ; 0x12 <__rc2>
    364a: 18           	clc
    364b: a5 1a        	lda	$1a                     ; 0x1a <__rc10>
    364d: 69 06        	adc	#$6
    364f: 85 12        	sta	$12                     ; 0x12 <__rc2>
    3651: a5 1b        	lda	$1b                     ; 0x1b <__rc11>
    3653: 69 d9        	adc	#$d9
    3655: 85 13        	sta	$13                     ; 0x13 <__rc3>
    3657: a5 16        	lda	$16                     ; 0x16 <__rc6>
    3659: 92 12        	sta	($12)                   ; 0x12 <__rc2>
    365b: a5 14        	lda	$14                     ; 0x14 <__rc4>
    365d: 91 12        	sta	($12),y                 ; 0x12 <__rc2>
    365f: a0 08        	ldy	#$8
    3661: b1 b2        	lda	($b2),y                 ; 0xb2 <__zp_bss_size+0x3e>
    3663: 85 bc        	sta	$bc                     ; 0xbc <__zp_bss_size+0x48>
    3665: a0 02        	ldy	#$2
    3667: b1 b0        	lda	($b0),y                 ; 0xb0 <__zp_bss_size+0x3c>
    3669: 85 ba        	sta	$ba                     ; 0xba <__zp_bss_size+0x46>
    366b: e8           	inx
    366c: 86 b9        	stx	$b9                     ; 0xb9 <__zp_bss_size+0x45>
    366e: 88           	dey
    366f: b1 b0        	lda	($b0),y                 ; 0xb0 <__zp_bss_size+0x3c>
    3671: 85 bb        	sta	$bb                     ; 0xbb <__zp_bss_size+0x47>
    3673: a0 0d        	ldy	#$d
    3675: b1 b2        	lda	($b2),y                 ; 0xb2 <__zp_bss_size+0x3e>
    3677: 85 b8        	sta	$b8                     ; 0xb8 <__zp_bss_size+0x44>
    3679: a5 b8        	lda	$b8                     ; 0xb8 <__zp_bss_size+0x44>
    367b: 85 15        	sta	$15                     ; 0x15 <__rc5>
    367d: 06 15        	asl	$15                     ; 0x15 <__rc5>
    367f: 64 14        	stz	$14                     ; 0x14 <__rc4>
    3681: 26 14        	rol	$14                     ; 0x14 <__rc4>
    3683: 06 15        	asl	$15                     ; 0x15 <__rc5>
    3685: 26 14        	rol	$14                     ; 0x14 <__rc4>
    3687: 06 15        	asl	$15                     ; 0x15 <__rc5>
    3689: 26 14        	rol	$14                     ; 0x14 <__rc4>
    368b: a0 03        	ldy	#$3
    368d: b1 b0        	lda	($b0),y                 ; 0xb0 <__zp_bss_size+0x3c>
    368f: 85 b0        	sta	$b0                     ; 0xb0 <__zp_bss_size+0x3c>
    3691: a6 b8        	ldx	$b8                     ; 0xb8 <__zp_bss_size+0x44>
    3693: 86 12        	stx	$12                     ; 0x12 <__rc2>
    3695: 64 13        	stz	$13                     ; 0x13 <__rc3>
    3697: a6 14        	ldx	$14                     ; 0x14 <__rc4>
    3699: a5 15        	lda	$15                     ; 0x15 <__rc5>
    369b: 20 04 4b     	jsr	$4b04 <__mulhi3>
    369e: 85 12        	sta	$12                     ; 0x12 <__rc2>
    36a0: 86 13        	stx	$13                     ; 0x13 <__rc3>
    36a2: 18           	clc
    36a3: a5 bc        	lda	$bc                     ; 0xbc <__zp_bss_size+0x48>
    36a5: 65 12        	adc	$12                     ; 0x12 <__rc2>
    36a7: aa           	tax
    36a8: a4 bb        	ldy	$bb                     ; 0xbb <__zp_bss_size+0x47>
    36aa: 98           	tya
    36ab: 65 13        	adc	$13                     ; 0x13 <__rc3>
    36ad: 85 14        	sta	$14                     ; 0x14 <__rc4>
    36af: a5 ba        	lda	$ba                     ; 0xba <__zp_bss_size+0x46>
    36b1: 69 00        	adc	#$0
    36b3: 85 13        	sta	$13                     ; 0x13 <__rc3>
    36b5: a5 b0        	lda	$b0                     ; 0xb0 <__zp_bss_size+0x3c>
    36b7: 69 00        	adc	#$0
    36b9: a4 14        	ldy	$14                     ; 0x14 <__rc4>
    36bb: 84 12        	sty	$12                     ; 0x12 <__rc2>
    36bd: 85 14        	sta	$14                     ; 0x14 <__rc4>
    36bf: a4 b8        	ldy	$b8                     ; 0xb8 <__zp_bss_size+0x44>
    36c1: 84 15        	sty	$15                     ; 0x15 <__rc5>
    36c3: a5 b9        	lda	$b9                     ; 0xb9 <__zp_bss_size+0x45>
    36c5: 20 30 30     	jsr	$3030 <spriteDefine>
    36c8: a0 0d        	ldy	#$d
    36ca: b1 b2        	lda	($b2),y                 ; 0xb2 <__zp_bss_size+0x3e>
    36cc: 85 16        	sta	$16                     ; 0x16 <__rc6>
    36ce: b2 b2        	lda	($b2)                   ; 0xb2 <__zp_bss_size+0x3e>
    36d0: 85 18        	sta	$18                     ; 0x18 <__rc8>
    36d2: a0 01        	ldy	#$1
    36d4: b1 b2        	lda	($b2),y                 ; 0xb2 <__zp_bss_size+0x3e>
    36d6: 85 19        	sta	$19                     ; 0x19 <__rc9>
    36d8: a6 b4        	ldx	$b4                     ; 0xb4 <__zp_bss_size+0x40>
    36da: 86 12        	stx	$12                     ; 0x12 <__rc2>
    36dc: a6 b5        	ldx	$b5                     ; 0xb5 <__zp_bss_size+0x41>
    36de: 86 13        	stx	$13                     ; 0x13 <__rc3>
    36e0: b1 12        	lda	($12),y                 ; 0x12 <__rc2>
    36e2: 85 1a        	sta	$1a                     ; 0x1a <__rc10>
    36e4: a6 b6        	ldx	$b6                     ; 0xb6 <__zp_bss_size+0x42>
    36e6: 86 12        	stx	$12                     ; 0x12 <__rc2>
    36e8: a6 b7        	ldx	$b7                     ; 0xb7 <__zp_bss_size+0x43>
    36ea: 86 13        	stx	$13                     ; 0x13 <__rc3>
    36ec: b1 12        	lda	($12),y                 ; 0x12 <__rc2>
    36ee: 85 12        	sta	$12                     ; 0x12 <__rc2>
    36f0: 18           	clc
    36f1: a0 03        	ldy	#$3
    36f3: a5 16        	lda	$16                     ; 0x16 <__rc6>
    36f5: 71 b2        	adc	($b2),y                 ; 0xb2 <__zp_bss_size+0x3e>
    36f7: 85 16        	sta	$16                     ; 0x16 <__rc6>
    36f9: a5 12        	lda	$12                     ; 0x12 <__rc2>
    36fb: 69 00        	adc	#$0
    36fd: 85 17        	sta	$17                     ; 0x17 <__rc7>
    36ff: a6 18        	ldx	$18                     ; 0x18 <__rc8>
    3701: a5 18        	lda	$18                     ; 0x18 <__rc8>
    3703: 1a           	inc
    3704: 0a           	asl
    3705: 64 1b        	stz	$1b                     ; 0x1b <__rc11>
    3707: 26 1b        	rol	$1b                     ; 0x1b <__rc11>
    3709: 0a           	asl
    370a: 26 1b        	rol	$1b                     ; 0x1b <__rc11>
    370c: 0a           	asl
    370d: 26 1b        	rol	$1b                     ; 0x1b <__rc11>
    370f: 85 1c        	sta	$1c                     ; 0x1c <__rc12>
    3711: 18           	clc
    3712: 69 04        	adc	#$4
    3714: 85 12        	sta	$12                     ; 0x12 <__rc2>
    3716: a5 1b        	lda	$1b                     ; 0x1b <__rc11>
    3718: 69 d9        	adc	#$d9
    371a: 85 13        	sta	$13                     ; 0x13 <__rc3>
    371c: a5 19        	lda	$19                     ; 0x19 <__rc9>
    371e: 92 12        	sta	($12)                   ; 0x12 <__rc2>
    3720: a0 01        	ldy	#$1
    3722: a5 1a        	lda	$1a                     ; 0x1a <__rc10>
    3724: 91 12        	sta	($12),y                 ; 0x12 <__rc2>
    3726: 18           	clc
    3727: a5 1c        	lda	$1c                     ; 0x1c <__rc12>
    3729: 69 06        	adc	#$6
    372b: 85 12        	sta	$12                     ; 0x12 <__rc2>
    372d: a5 1b        	lda	$1b                     ; 0x1b <__rc11>
    372f: 69 d9        	adc	#$d9
    3731: 85 13        	sta	$13                     ; 0x13 <__rc3>
    3733: a5 16        	lda	$16                     ; 0x16 <__rc6>
    3735: 92 12        	sta	($12)                   ; 0x12 <__rc2>
    3737: a5 17        	lda	$17                     ; 0x17 <__rc7>
    3739: 91 12        	sta	($12),y                 ; 0x12 <__rc2>
    373b: a5 18        	lda	$18                     ; 0x18 <__rc8>
    373d: 0a           	asl
    373e: 85 12        	sta	$12                     ; 0x12 <__rc2>
    3740: a9 00        	lda	#$0
    3742: 2a           	rol
    3743: 06 12        	asl	$12                     ; 0x12 <__rc2>
    3745: 2a           	rol
    3746: 06 12        	asl	$12                     ; 0x12 <__rc2>
    3748: 2a           	rol
    3749: a8           	tay
    374a: 18           	clc
    374b: a5 12        	lda	$12                     ; 0x12 <__rc2>
    374d: 69 00        	adc	#$0
    374f: 85 12        	sta	$12                     ; 0x12 <__rc2>
    3751: 98           	tya
    3752: 69 d9        	adc	#$d9
    3754: 85 13        	sta	$13                     ; 0x13 <__rc3>
    3756: a9 01        	lda	#$1
    3758: 15 39        	ora	$39,x                   ; 0x39 <_spriteCtl>
    375a: 92 12        	sta	($12)                   ; 0x12 <__rc2>
    375c: b2 b2        	lda	($b2)                   ; 0xb2 <__zp_bss_size+0x3e>
    375e: 1a           	inc
    375f: aa           	tax
    3760: 85 12        	sta	$12                     ; 0x12 <__rc2>
    3762: a9 01        	lda	#$1
    3764: 15 39        	ora	$39,x                   ; 0x39 <_spriteCtl>
    3766: 85 14        	sta	$14                     ; 0x14 <__rc4>
    3768: a5 12        	lda	$12                     ; 0x12 <__rc2>
    376a: 0a           	asl
    376b: 64 12        	stz	$12                     ; 0x12 <__rc2>
    376d: 26 12        	rol	$12                     ; 0x12 <__rc2>
    376f: 0a           	asl
    3770: 26 12        	rol	$12                     ; 0x12 <__rc2>
    3772: 0a           	asl
    3773: 26 12        	rol	$12                     ; 0x12 <__rc2>
    3775: 18           	clc
    3776: 69 00        	adc	#$0
    3778: aa           	tax
    3779: a5 12        	lda	$12                     ; 0x12 <__rc2>
    377b: 69 d9        	adc	#$d9
    377d: 86 12        	stx	$12                     ; 0x12 <__rc2>
    377f: 85 13        	sta	$13                     ; 0x13 <__rc3>
    3781: a5 14        	lda	$14                     ; 0x14 <__rc4>
    3783: 92 12        	sta	($12)                   ; 0x12 <__rc2>
    3785: 60           	rts

00003786 <updateLighter>:
    3786: a6 12        	ldx	$12                     ; 0x12 <__rc2>
    3788: 86 14        	stx	$14                     ; 0x14 <__rc4>
    378a: a6 13        	ldx	$13                     ; 0x13 <__rc3>
    378c: 86 15        	stx	$15                     ; 0x15 <__rc5>
    378e: a6 14        	ldx	$14                     ; 0x14 <__rc4>
    3790: 86 b0        	stx	$b0                     ; 0xb0 <__zp_bss_size+0x3c>
    3792: a6 15        	ldx	$15                     ; 0x15 <__rc5>
    3794: 86 b1        	stx	$b1                     ; 0xb1 <__zp_bss_size+0x3d>
    3796: a0 13        	ldy	#$13
    3798: b1 12        	lda	($12),y                 ; 0x12 <__rc2>
    379a: 18           	clc
    379b: 69 3a        	adc	#$3a
    379d: 85 b2        	sta	$b2                     ; 0xb2 <__zp_bss_size+0x3e>
    379f: a9 00        	lda	#$0
    37a1: 69 00        	adc	#$0
    37a3: 85 b4        	sta	$b4                     ; 0xb4 <__zp_bss_size+0x40>
    37a5: a0 0d        	ldy	#$d
    37a7: b1 12        	lda	($12),y                 ; 0x12 <__rc2>
    37a9: 85 12        	sta	$12                     ; 0x12 <__rc2>
    37ab: 85 b3        	sta	$b3                     ; 0xb3 <__zp_bss_size+0x3f>
    37ad: 64 13        	stz	$13                     ; 0x13 <__rc3>
    37af: a2 00        	ldx	#$0
    37b1: 20 04 4b     	jsr	$4b04 <__mulhi3>
    37b4: 64 12        	stz	$12                     ; 0x12 <__rc2>
    37b6: 64 13        	stz	$13                     ; 0x13 <__rc3>
    37b8: a4 b2        	ldy	$b2                     ; 0xb2 <__zp_bss_size+0x3e>
    37ba: 84 14        	sty	$14                     ; 0x14 <__rc4>
    37bc: a4 b4        	ldy	$b4                     ; 0xb4 <__zp_bss_size+0x40>
    37be: 84 15        	sty	$15                     ; 0x15 <__rc5>
    37c0: 64 16        	stz	$16                     ; 0x16 <__rc6>
    37c2: 64 17        	stz	$17                     ; 0x17 <__rc7>
    37c4: 20 36 4b     	jsr	$4b36 <__mulsi3>
    37c7: 18           	clc
    37c8: 69 00        	adc	#$0
    37ca: 85 18        	sta	$18                     ; 0x18 <__rc8>
    37cc: 8a           	txa
    37cd: 69 00        	adc	#$0
    37cf: 85 1a        	sta	$1a                     ; 0x1a <__rc10>
    37d1: a2 01        	ldx	#$1
    37d3: a5 12        	lda	$12                     ; 0x12 <__rc2>
    37d5: 69 01        	adc	#$1
    37d7: 85 17        	sta	$17                     ; 0x17 <__rc7>
    37d9: a5 13        	lda	$13                     ; 0x13 <__rc3>
    37db: 69 00        	adc	#$0
    37dd: 85 19        	sta	$19                     ; 0x19 <__rc9>
    37df: a4 b0        	ldy	$b0                     ; 0xb0 <__zp_bss_size+0x3c>
    37e1: 84 12        	sty	$12                     ; 0x12 <__rc2>
    37e3: a4 b1        	ldy	$b1                     ; 0xb1 <__zp_bss_size+0x3d>
    37e5: 84 13        	sty	$13                     ; 0x13 <__rc3>
    37e7: a5 12        	lda	$12                     ; 0x12 <__rc2>
    37e9: a4 12        	ldy	$12                     ; 0x12 <__rc2>
    37eb: 84 b4        	sty	$b4                     ; 0xb4 <__zp_bss_size+0x40>
    37ed: a4 13        	ldy	$13                     ; 0x13 <__rc3>
    37ef: 84 b5        	sty	$b5                     ; 0xb5 <__zp_bss_size+0x41>
    37f1: a4 12        	ldy	$12                     ; 0x12 <__rc2>
    37f3: 84 1c        	sty	$1c                     ; 0x1c <__rc12>
    37f5: a4 13        	ldy	$13                     ; 0x13 <__rc3>
    37f7: 84 1d        	sty	$1d                     ; 0x1d <__rc13>
    37f9: a4 12        	ldy	$12                     ; 0x12 <__rc2>
    37fb: 84 b0        	sty	$b0                     ; 0xb0 <__zp_bss_size+0x3c>
    37fd: a4 13        	ldy	$13                     ; 0x13 <__rc3>
    37ff: 84 b1        	sty	$b1                     ; 0xb1 <__zp_bss_size+0x3d>
    3801: 18           	clc
    3802: 69 08        	adc	#$8
    3804: 85 12        	sta	$12                     ; 0x12 <__rc2>
    3806: a5 13        	lda	$13                     ; 0x13 <__rc3>
    3808: 69 00        	adc	#$0
    380a: a0 08        	ldy	#$8
    380c: 85 13        	sta	$13                     ; 0x13 <__rc3>
    380e: a5 18        	lda	$18                     ; 0x18 <__rc8>
    3810: 91 1c        	sta	($1c),y                 ; 0x1c <__rc12>
    3812: a0 01        	ldy	#$1
    3814: 86 b2        	stx	$b2                     ; 0xb2 <__zp_bss_size+0x3e>
    3816: a5 1a        	lda	$1a                     ; 0x1a <__rc10>
    3818: 91 12        	sta	($12),y                 ; 0x12 <__rc2>
    381a: a6 1a        	ldx	$1a                     ; 0x1a <__rc10>
    381c: c8           	iny
    381d: a5 17        	lda	$17                     ; 0x17 <__rc7>
    381f: 91 12        	sta	($12),y                 ; 0x12 <__rc2>
    3821: c8           	iny
    3822: a5 19        	lda	$19                     ; 0x19 <__rc9>
    3824: 91 12        	sta	($12),y                 ; 0x12 <__rc2>
    3826: 85 14        	sta	$14                     ; 0x14 <__rc4>
    3828: b2 1c        	lda	($1c)                   ; 0x1c <__rc12>
    382a: 86 12        	stx	$12                     ; 0x12 <__rc2>
    382c: a6 17        	ldx	$17                     ; 0x17 <__rc7>
    382e: 86 13        	stx	$13                     ; 0x13 <__rc3>
    3830: a6 b3        	ldx	$b3                     ; 0xb3 <__zp_bss_size+0x3f>
    3832: 86 15        	stx	$15                     ; 0x15 <__rc5>
    3834: a6 18        	ldx	$18                     ; 0x18 <__rc8>
    3836: 20 30 30     	jsr	$3030 <spriteDefine>
    3839: 18           	clc
    383a: a5 b4        	lda	$b4                     ; 0xb4 <__zp_bss_size+0x40>
    383c: 69 03        	adc	#$3
    383e: 85 12        	sta	$12                     ; 0x12 <__rc2>
    3840: a5 b5        	lda	$b5                     ; 0xb5 <__zp_bss_size+0x41>
    3842: 69 00        	adc	#$0
    3844: 85 13        	sta	$13                     ; 0x13 <__rc3>
    3846: a6 b0        	ldx	$b0                     ; 0xb0 <__zp_bss_size+0x3c>
    3848: 86 1a        	stx	$1a                     ; 0x1a <__rc10>
    384a: a6 b1        	ldx	$b1                     ; 0xb1 <__zp_bss_size+0x3d>
    384c: 86 1b        	stx	$1b                     ; 0x1b <__rc11>
    384e: b2 1a        	lda	($1a)                   ; 0x1a <__rc10>
    3850: aa           	tax
    3851: 0a           	asl
    3852: 64 14        	stz	$14                     ; 0x14 <__rc4>
    3854: 26 14        	rol	$14                     ; 0x14 <__rc4>
    3856: 0a           	asl
    3857: 26 14        	rol	$14                     ; 0x14 <__rc4>
    3859: 0a           	asl
    385a: 26 14        	rol	$14                     ; 0x14 <__rc4>
    385c: a4 14        	ldy	$14                     ; 0x14 <__rc4>
    385e: 84 18        	sty	$18                     ; 0x18 <__rc8>
    3860: 85 1c        	sta	$1c                     ; 0x1c <__rc12>
    3862: 18           	clc
    3863: 69 04        	adc	#$4
    3865: 85 14        	sta	$14                     ; 0x14 <__rc4>
    3867: a5 18        	lda	$18                     ; 0x18 <__rc8>
    3869: 69 d9        	adc	#$d9
    386b: 85 15        	sta	$15                     ; 0x15 <__rc5>
    386d: a4 1a        	ldy	$1a                     ; 0x1a <__rc10>
    386f: 84 16        	sty	$16                     ; 0x16 <__rc6>
    3871: a4 1b        	ldy	$1b                     ; 0x1b <__rc11>
    3873: 84 17        	sty	$17                     ; 0x17 <__rc7>
    3875: e6 16        	inc	$16                     ; 0x16 <__rc6>
    3877: d0 02        	bne	$387b <updateLighter+0xf5>
    3879: e6 17        	inc	$17                     ; 0x17 <__rc7>
    387b: a0 03        	ldy	#$3
    387d: b1 1a        	lda	($1a),y                 ; 0x1a <__rc10>
    387f: 85 19        	sta	$19                     ; 0x19 <__rc9>
    3881: a4 b2        	ldy	$b2                     ; 0xb2 <__zp_bss_size+0x3e>
    3883: b1 1a        	lda	($1a),y                 ; 0x1a <__rc10>
    3885: 85 1a        	sta	$1a                     ; 0x1a <__rc10>
    3887: b1 16        	lda	($16),y                 ; 0x16 <__rc6>
    3889: 85 17        	sta	$17                     ; 0x17 <__rc7>
    388b: b1 12        	lda	($12),y                 ; 0x12 <__rc2>
    388d: 85 16        	sta	$16                     ; 0x16 <__rc6>
    388f: a5 1a        	lda	$1a                     ; 0x1a <__rc10>
    3891: 92 14        	sta	($14)                   ; 0x14 <__rc4>
    3893: a5 17        	lda	$17                     ; 0x17 <__rc7>
    3895: 91 14        	sta	($14),y                 ; 0x14 <__rc4>
    3897: a5 1c        	lda	$1c                     ; 0x1c <__rc12>
    3899: 18           	clc
    389a: 69 06        	adc	#$6
    389c: 85 14        	sta	$14                     ; 0x14 <__rc4>
    389e: a5 18        	lda	$18                     ; 0x18 <__rc8>
    38a0: 69 d9        	adc	#$d9
    38a2: 5a           	phy
    38a3: a4 14        	ldy	$14                     ; 0x14 <__rc4>
    38a5: 84 12        	sty	$12                     ; 0x12 <__rc2>
    38a7: 7a           	ply
    38a8: 85 13        	sta	$13                     ; 0x13 <__rc3>
    38aa: a5 19        	lda	$19                     ; 0x19 <__rc9>
    38ac: 92 12        	sta	($12)                   ; 0x12 <__rc2>
    38ae: a5 16        	lda	$16                     ; 0x16 <__rc6>
    38b0: 91 12        	sta	($12),y                 ; 0x12 <__rc2>
    38b2: 18           	clc
    38b3: a5 1c        	lda	$1c                     ; 0x1c <__rc12>
    38b5: 69 00        	adc	#$0
    38b7: 85 12        	sta	$12                     ; 0x12 <__rc2>
    38b9: a5 18        	lda	$18                     ; 0x18 <__rc8>
    38bb: 69 d9        	adc	#$d9
    38bd: 85 13        	sta	$13                     ; 0x13 <__rc3>
    38bf: a9 01        	lda	#$1
    38c1: 15 39        	ora	$39,x                   ; 0x39 <_spriteCtl>
    38c3: 92 12        	sta	($12)                   ; 0x12 <__rc2>
    38c5: 60           	rts

000038c6 <sid_setInstrument>:
    38c6: a8           	tay
    38c7: a9 00        	lda	#$0
    38c9: 85 ae        	sta	$ae                     ; 0xae <__zp_bss_size+0x3a>
    38cb: 98           	tya
    38cc: f0 04        	beq	$38d2 <sid_setInstrument+0xc>
    38ce: a0 d5        	ldy	#$d5
    38d0: 80 02        	bra	$38d4 <sid_setInstrument+0xe>
    38d2: a0 d4        	ldy	#$d4
    38d4: 84 af        	sty	$af                     ; 0xaf <__zp_bss_size+0x3b>
    38d6: e0 02        	cpx	#$2
    38d8: f0 08        	beq	$38e2 <sid_setInstrument+0x1c>
    38da: e0 01        	cpx	#$1
    38dc: d0 08        	bne	$38e6 <sid_setInstrument+0x20>
    38de: a2 07        	ldx	#$7
    38e0: 80 02        	bra	$38e4 <sid_setInstrument+0x1e>
    38e2: a2 0e        	ldx	#$e
    38e4: 86 ae        	stx	$ae                     ; 0xae <__zp_bss_size+0x3a>
    38e6: a0 01        	ldy	#$1
    38e8: b1 12        	lda	($12),y                 ; 0x12 <__rc2>
    38ea: 85 17        	sta	$17                     ; 0x17 <__rc7>
    38ec: a6 ae        	ldx	$ae                     ; 0xae <__zp_bss_size+0x3a>
    38ee: 86 16        	stx	$16                     ; 0x16 <__rc6>
    38f0: 8a           	txa
    38f1: 18           	clc
    38f2: 69 02        	adc	#$2
    38f4: 85 14        	sta	$14                     ; 0x14 <__rc4>
    38f6: a6 af        	ldx	$af                     ; 0xaf <__zp_bss_size+0x3b>
    38f8: 8a           	txa
    38f9: 69 00        	adc	#$0
    38fb: 85 15        	sta	$15                     ; 0x15 <__rc5>
    38fd: a5 17        	lda	$17                     ; 0x17 <__rc7>
    38ff: 92 14        	sta	($14)                   ; 0x14 <__rc4>
    3901: c8           	iny
    3902: b1 12        	lda	($12),y                 ; 0x12 <__rc2>
    3904: 85 17        	sta	$17                     ; 0x17 <__rc7>
    3906: a5 16        	lda	$16                     ; 0x16 <__rc6>
    3908: 18           	clc
    3909: 69 03        	adc	#$3
    390b: 85 14        	sta	$14                     ; 0x14 <__rc4>
    390d: 8a           	txa
    390e: 69 00        	adc	#$0
    3910: 85 15        	sta	$15                     ; 0x15 <__rc5>
    3912: a5 17        	lda	$17                     ; 0x17 <__rc7>
    3914: 92 14        	sta	($14)                   ; 0x14 <__rc4>
    3916: c8           	iny
    3917: b1 12        	lda	($12),y                 ; 0x12 <__rc2>
    3919: 85 17        	sta	$17                     ; 0x17 <__rc7>
    391b: a5 16        	lda	$16                     ; 0x16 <__rc6>
    391d: 18           	clc
    391e: 69 05        	adc	#$5
    3920: 85 14        	sta	$14                     ; 0x14 <__rc4>
    3922: 8a           	txa
    3923: 69 00        	adc	#$0
    3925: 85 15        	sta	$15                     ; 0x15 <__rc5>
    3927: a5 17        	lda	$17                     ; 0x17 <__rc7>
    3929: 92 14        	sta	($14)                   ; 0x14 <__rc4>
    392b: a5 16        	lda	$16                     ; 0x16 <__rc6>
    392d: 18           	clc
    392e: 69 06        	adc	#$6
    3930: 85 14        	sta	$14                     ; 0x14 <__rc4>
    3932: 8a           	txa
    3933: 69 00        	adc	#$0
    3935: 18           	clc
    3936: 85 15        	sta	$15                     ; 0x15 <__rc5>
    3938: c8           	iny
    3939: b1 12        	lda	($12),y                 ; 0x12 <__rc2>
    393b: 92 14        	sta	($14)                   ; 0x14 <__rc4>
    393d: a5 16        	lda	$16                     ; 0x16 <__rc6>
    393f: 69 04        	adc	#$4
    3941: 85 14        	sta	$14                     ; 0x14 <__rc4>
    3943: 8a           	txa
    3944: 69 00        	adc	#$0
    3946: 85 15        	sta	$15                     ; 0x15 <__rc5>
    3948: c8           	iny
    3949: b1 12        	lda	($12),y                 ; 0x12 <__rc2>
    394b: 92 14        	sta	($14)                   ; 0x14 <__rc4>
    394d: 60           	rts

0000394e <exit>:
    394e: 20 14 03     	jsr	$314 <_fini>
    3951: 80 fe        	bra	$3951 <exit+0x3>

00003953 <_ZN12_GLOBAL__N_13putEcP6Status>:
    3953: 85 18        	sta	$18                     ; 0x18 <__rc8>
    3955: a6 13        	ldx	$13                     ; 0x13 <__rc3>
    3957: 18           	clc
    3958: a5 12        	lda	$12                     ; 0x12 <__rc2>
    395a: 69 05        	adc	#$5
    395c: a8           	tay
    395d: a5 13        	lda	$13                     ; 0x13 <__rc3>
    395f: 86 15        	stx	$15                     ; 0x15 <__rc5>
    3961: 69 00        	adc	#$0
    3963: 18           	clc
    3964: 84 16        	sty	$16                     ; 0x16 <__rc6>
    3966: a0 05        	ldy	#$5
    3968: 85 17        	sta	$17                     ; 0x17 <__rc7>
    396a: b1 12        	lda	($12),y                 ; 0x12 <__rc2>
    396c: aa           	tax
    396d: a5 12        	lda	$12                     ; 0x12 <__rc2>
    396f: 69 03        	adc	#$3
    3971: 85 14        	sta	$14                     ; 0x14 <__rc4>
    3973: a5 15        	lda	$15                     ; 0x15 <__rc5>
    3975: 69 00        	adc	#$0
    3977: 85 15        	sta	$15                     ; 0x15 <__rc5>
    3979: a0 01        	ldy	#$1
    397b: b1 16        	lda	($16),y                 ; 0x16 <__rc6>
    397d: d1 14        	cmp	($14),y                 ; 0x14 <__rc4>
    397f: d0 11        	bne	$3992 <_ZN12_GLOBAL__N_13putEcP6Status+0x3f>
    3981: a0 03        	ldy	#$3
    3983: 85 17        	sta	$17                     ; 0x17 <__rc7>
    3985: b1 12        	lda	($12),y                 ; 0x12 <__rc2>
    3987: 85 14        	sta	$14                     ; 0x14 <__rc4>
    3989: 86 16        	stx	$16                     ; 0x16 <__rc6>
    398b: e4 14        	cpx	$14                     ; 0x14 <__rc4>
    398d: 90 0e        	bcc	$399d <_ZN12_GLOBAL__N_13putEcP6Status+0x4a>
    398f: 4c 06 3a     	jmp	$3a06 <_ZN12_GLOBAL__N_13putEcP6Status+0xb3>
    3992: 86 16        	stx	$16                     ; 0x16 <__rc6>
    3994: d1 14        	cmp	($14),y                 ; 0x14 <__rc4>
    3996: 85 17        	sta	$17                     ; 0x17 <__rc7>
    3998: 90 03        	bcc	$399d <_ZN12_GLOBAL__N_13putEcP6Status+0x4a>
    399a: 4c 06 3a     	jmp	$3a06 <_ZN12_GLOBAL__N_13putEcP6Status+0xb3>
    399d: a5 12        	lda	$12                     ; 0x12 <__rc2>
    399f: 18           	clc
    39a0: 69 0f        	adc	#$f
    39a2: 85 14        	sta	$14                     ; 0x14 <__rc4>
    39a4: a5 13        	lda	$13                     ; 0x13 <__rc3>
    39a6: 69 00        	adc	#$0
    39a8: 85 15        	sta	$15                     ; 0x15 <__rc5>
    39aa: a0 01        	ldy	#$1
    39ac: b1 14        	lda	($14),y                 ; 0x14 <__rc4>
    39ae: a2 00        	ldx	#$0
    39b0: 86 14        	stx	$14                     ; 0x14 <__rc4>
    39b2: a2 00        	ldx	#$0
    39b4: 86 15        	stx	$15                     ; 0x15 <__rc5>
    39b6: c5 15        	cmp	$15                     ; 0x15 <__rc5>
    39b8: d0 2d        	bne	$39e7 <_ZN12_GLOBAL__N_13putEcP6Status+0x94>
    39ba: a0 0f        	ldy	#$f
    39bc: b1 12        	lda	($12),y                 ; 0x12 <__rc2>
    39be: c5 14        	cmp	$14                     ; 0x14 <__rc4>
    39c0: d0 25        	bne	$39e7 <_ZN12_GLOBAL__N_13putEcP6Status+0x94>
    39c2: a5 12        	lda	$12                     ; 0x12 <__rc2>
    39c4: 18           	clc
    39c5: 69 09        	adc	#$9
    39c7: 85 14        	sta	$14                     ; 0x14 <__rc4>
    39c9: a5 13        	lda	$13                     ; 0x13 <__rc3>
    39cb: 69 00        	adc	#$0
    39cd: a0 09        	ldy	#$9
    39cf: 85 15        	sta	$15                     ; 0x15 <__rc5>
    39d1: 18           	clc
    39d2: a5 16        	lda	$16                     ; 0x16 <__rc6>
    39d4: 71 12        	adc	($12),y                 ; 0x12 <__rc2>
    39d6: aa           	tax
    39d7: a0 01        	ldy	#$1
    39d9: a5 17        	lda	$17                     ; 0x17 <__rc7>
    39db: 71 14        	adc	($14),y                 ; 0x14 <__rc4>
    39dd: 86 14        	stx	$14                     ; 0x14 <__rc4>
    39df: 85 15        	sta	$15                     ; 0x15 <__rc5>
    39e1: a5 18        	lda	$18                     ; 0x18 <__rc8>
    39e3: 92 14        	sta	($14)                   ; 0x14 <__rc4>
    39e5: 80 1f        	bra	$3a06 <_ZN12_GLOBAL__N_13putEcP6Status+0xb3>
    39e7: a6 12        	ldx	$12                     ; 0x12 <__rc2>
    39e9: 86 ed        	stx	$ed                     ; 0xed <__zp_bss_size+0x79>
    39eb: a6 13        	ldx	$13                     ; 0x13 <__rc3>
    39ed: 86 ee        	stx	$ee                     ; 0xee <__zp_bss_size+0x7a>
    39ef: a5 18        	lda	$18                     ; 0x18 <__rc8>
    39f1: 85 79        	sta	$79                     ; 0x79 <__putchar.s>
    39f3: a2 79        	ldx	#$79
    39f5: 86 12        	stx	$12                     ; 0x12 <__rc2>
    39f7: a2 00        	ldx	#$0
    39f9: 86 13        	stx	$13                     ; 0x13 <__rc3>
    39fb: 20 5e 24     	jsr	$245e <textPrint>
    39fe: a6 ed        	ldx	$ed                     ; 0xed <__zp_bss_size+0x79>
    3a00: 86 12        	stx	$12                     ; 0x12 <__rc2>
    3a02: a6 ee        	ldx	$ee                     ; 0xee <__zp_bss_size+0x7a>
    3a04: 86 13        	stx	$13                     ; 0x13 <__rc3>
    3a06: a0 05        	ldy	#$5
    3a08: a5 12        	lda	$12                     ; 0x12 <__rc2>
    3a0a: 18           	clc
    3a0b: 69 05        	adc	#$5
    3a0d: 85 14        	sta	$14                     ; 0x14 <__rc4>
    3a0f: a5 13        	lda	$13                     ; 0x13 <__rc3>
    3a11: 69 00        	adc	#$0
    3a13: 85 15        	sta	$15                     ; 0x15 <__rc5>
    3a15: b1 12        	lda	($12),y                 ; 0x12 <__rc2>
    3a17: aa           	tax
    3a18: a0 01        	ldy	#$1
    3a1a: b1 14        	lda	($14),y                 ; 0x14 <__rc4>
    3a1c: e8           	inx
    3a1d: d0 01        	bne	$3a20 <_ZN12_GLOBAL__N_13putEcP6Status+0xcd>
    3a1f: 1a           	inc
    3a20: 85 16        	sta	$16                     ; 0x16 <__rc6>
    3a22: 8a           	txa
    3a23: a0 05        	ldy	#$5
    3a25: 91 12        	sta	($12),y                 ; 0x12 <__rc2>
    3a27: a0 01        	ldy	#$1
    3a29: a5 16        	lda	$16                     ; 0x16 <__rc6>
    3a2b: 91 14        	sta	($14),y                 ; 0x14 <__rc4>
    3a2d: 60           	rts

00003a2e <_ZN12_GLOBAL__N_112print_stringEPKcP6Status>:
    3a2e: a6 24        	ldx	$24                     ; 0x24 <__rc20>
    3a30: da           	phx
    3a31: a6 25        	ldx	$25                     ; 0x25 <__rc21>
    3a33: da           	phx
    3a34: a6 12        	ldx	$12                     ; 0x12 <__rc2>
    3a36: 86 24        	stx	$24                     ; 0x24 <__rc20>
    3a38: a6 13        	ldx	$13                     ; 0x13 <__rc3>
    3a3a: 86 25        	stx	$25                     ; 0x25 <__rc21>
    3a3c: a6 14        	ldx	$14                     ; 0x14 <__rc4>
    3a3e: 86 e7        	stx	$e7                     ; 0xe7 <__zp_bss_size+0x73>
    3a40: a6 15        	ldx	$15                     ; 0x15 <__rc5>
    3a42: 86 e8        	stx	$e8                     ; 0xe8 <__zp_bss_size+0x74>
    3a44: a5 e7        	lda	$e7                     ; 0xe7 <__zp_bss_size+0x73>
    3a46: 18           	clc
    3a47: 69 0d        	adc	#$d
    3a49: 85 12        	sta	$12                     ; 0x12 <__rc2>
    3a4b: a5 e8        	lda	$e8                     ; 0xe8 <__zp_bss_size+0x74>
    3a4d: 69 00        	adc	#$0
    3a4f: 85 13        	sta	$13                     ; 0x13 <__rc3>
    3a51: a0 01        	ldy	#$1
    3a53: b1 12        	lda	($12),y                 ; 0x12 <__rc2>
    3a55: 30 16        	bmi	$3a6d <_ZN12_GLOBAL__N_112print_stringEPKcP6Status+0x3f>
    3a57: a0 0d        	ldy	#$d
    3a59: 85 12        	sta	$12                     ; 0x12 <__rc2>
    3a5b: b1 e7        	lda	($e7),y                 ; 0xe7 <__zp_bss_size+0x73>
    3a5d: a6 12        	ldx	$12                     ; 0x12 <__rc2>
    3a5f: 86 ec        	stx	$ec                     ; 0xec <__zp_bss_size+0x78>
    3a61: d0 0f        	bne	$3a72 <_ZN12_GLOBAL__N_112print_stringEPKcP6Status+0x44>
    3a63: aa           	tax
    3a64: d0 0c        	bne	$3a72 <_ZN12_GLOBAL__N_112print_stringEPKcP6Status+0x44>
    3a66: 64 e9        	stz	$e9                     ; 0xe9 <__zp_bss_size+0x75>
    3a68: a2 00        	ldx	#$0
    3a6a: 4c 41 3b     	jmp	$3b41 <_ZN12_GLOBAL__N_112print_stringEPKcP6Status+0x113>
    3a6d: a9 ff        	lda	#$ff
    3a6f: aa           	tax
    3a70: 86 ec        	stx	$ec                     ; 0xec <__zp_bss_size+0x78>
    3a72: 85 e9        	sta	$e9                     ; 0xe9 <__zp_bss_size+0x75>
    3a74: 64 12        	stz	$12                     ; 0x12 <__rc2>
    3a76: a4 24        	ldy	$24                     ; 0x24 <__rc20>
    3a78: a6 25        	ldx	$25                     ; 0x25 <__rc21>
    3a7a: 86 16        	stx	$16                     ; 0x16 <__rc6>
    3a7c: 64 13        	stz	$13                     ; 0x13 <__rc3>
    3a7e: 98           	tya
    3a7f: 18           	clc
    3a80: 65 12        	adc	$12                     ; 0x12 <__rc2>
    3a82: 85 14        	sta	$14                     ; 0x14 <__rc4>
    3a84: a5 25        	lda	$25                     ; 0x25 <__rc21>
    3a86: 65 13        	adc	$13                     ; 0x13 <__rc3>
    3a88: 85 15        	sta	$15                     ; 0x15 <__rc5>
    3a8a: b2 14        	lda	($14)                   ; 0x14 <__rc4>
    3a8c: d0 03        	bne	$3a91 <_ZN12_GLOBAL__N_112print_stringEPKcP6Status+0x63>
    3a8e: 4c 3b 3b     	jmp	$3b3b <_ZN12_GLOBAL__N_112print_stringEPKcP6Status+0x10d>
    3a91: e6 12        	inc	$12                     ; 0x12 <__rc2>
    3a93: d0 02        	bne	$3a97 <_ZN12_GLOBAL__N_112print_stringEPKcP6Status+0x69>
    3a95: e6 13        	inc	$13                     ; 0x13 <__rc3>
    3a97: a6 ec        	ldx	$ec                     ; 0xec <__zp_bss_size+0x78>
    3a99: e4 13        	cpx	$13                     ; 0x13 <__rc3>
    3a9b: d0 e1        	bne	$3a7e <_ZN12_GLOBAL__N_112print_stringEPKcP6Status+0x50>
    3a9d: a6 e9        	ldx	$e9                     ; 0xe9 <__zp_bss_size+0x75>
    3a9f: e4 12        	cpx	$12                     ; 0x12 <__rc2>
    3aa1: d0 db        	bne	$3a7e <_ZN12_GLOBAL__N_112print_stringEPKcP6Status+0x50>
    3aa3: a0 01        	ldy	#$1
    3aa5: b1 e7        	lda	($e7),y                 ; 0xe7 <__zp_bss_size+0x73>
    3aa7: 29 01        	and	#$1
    3aa9: f0 03        	beq	$3aae <_ZN12_GLOBAL__N_112print_stringEPKcP6Status+0x80>
    3aab: 4c 06 3b     	jmp	$3b06 <_ZN12_GLOBAL__N_112print_stringEPKcP6Status+0xd8>
    3aae: a5 e7        	lda	$e7                     ; 0xe7 <__zp_bss_size+0x73>
    3ab0: 18           	clc
    3ab1: 69 0b        	adc	#$b
    3ab3: 85 14        	sta	$14                     ; 0x14 <__rc4>
    3ab5: a5 e8        	lda	$e8                     ; 0xe8 <__zp_bss_size+0x74>
    3ab7: 69 00        	adc	#$0
    3ab9: 85 15        	sta	$15                     ; 0x15 <__rc5>
    3abb: a0 0b        	ldy	#$b
    3abd: b1 e7        	lda	($e7),y                 ; 0xe7 <__zp_bss_size+0x73>
    3abf: 85 13        	sta	$13                     ; 0x13 <__rc3>
    3ac1: a0 01        	ldy	#$1
    3ac3: b1 14        	lda	($14),y                 ; 0x14 <__rc4>
    3ac5: 85 12        	sta	$12                     ; 0x12 <__rc2>
    3ac7: a6 ec        	ldx	$ec                     ; 0xec <__zp_bss_size+0x78>
    3ac9: e4 12        	cpx	$12                     ; 0x12 <__rc2>
    3acb: d0 08        	bne	$3ad5 <_ZN12_GLOBAL__N_112print_stringEPKcP6Status+0xa7>
    3acd: a6 e9        	ldx	$e9                     ; 0xe9 <__zp_bss_size+0x75>
    3acf: e4 13        	cpx	$13                     ; 0x13 <__rc3>
    3ad1: 90 06        	bcc	$3ad9 <_ZN12_GLOBAL__N_112print_stringEPKcP6Status+0xab>
    3ad3: 80 31        	bra	$3b06 <_ZN12_GLOBAL__N_112print_stringEPKcP6Status+0xd8>
    3ad5: e4 12        	cpx	$12                     ; 0x12 <__rc2>
    3ad7: b0 2d        	bcs	$3b06 <_ZN12_GLOBAL__N_112print_stringEPKcP6Status+0xd8>
    3ad9: 38           	sec
    3ada: a5 e9        	lda	$e9                     ; 0xe9 <__zp_bss_size+0x75>
    3adc: e5 13        	sbc	$13                     ; 0x13 <__rc3>
    3ade: a8           	tay
    3adf: a5 ec        	lda	$ec                     ; 0xec <__zp_bss_size+0x78>
    3ae1: e5 12        	sbc	$12                     ; 0x12 <__rc2>
    3ae3: 85 eb        	sta	$eb                     ; 0xeb <__zp_bss_size+0x77>
    3ae5: a6 e7        	ldx	$e7                     ; 0xe7 <__zp_bss_size+0x73>
    3ae7: 86 12        	stx	$12                     ; 0x12 <__rc2>
    3ae9: a6 e8        	ldx	$e8                     ; 0xe8 <__zp_bss_size+0x74>
    3aeb: 86 13        	stx	$13                     ; 0x13 <__rc3>
    3aed: 84 ea        	sty	$ea                     ; 0xea <__zp_bss_size+0x76>
    3aef: a9 20        	lda	#$20
    3af1: 20 53 39     	jsr	$3953 <_ZN12_GLOBAL__N_13putEcP6Status>
    3af4: a6 eb        	ldx	$eb                     ; 0xeb <__zp_bss_size+0x77>
    3af6: e6 ea        	inc	$ea                     ; 0xea <__zp_bss_size+0x76>
    3af8: d0 01        	bne	$3afb <_ZN12_GLOBAL__N_112print_stringEPKcP6Status+0xcd>
    3afa: e8           	inx
    3afb: 86 eb        	stx	$eb                     ; 0xeb <__zp_bss_size+0x77>
    3afd: a4 ea        	ldy	$ea                     ; 0xea <__zp_bss_size+0x76>
    3aff: 8a           	txa
    3b00: d0 e3        	bne	$3ae5 <_ZN12_GLOBAL__N_112print_stringEPKcP6Status+0xb7>
    3b02: a5 ea        	lda	$ea                     ; 0xea <__zp_bss_size+0x76>
    3b04: d0 df        	bne	$3ae5 <_ZN12_GLOBAL__N_112print_stringEPKcP6Status+0xb7>
    3b06: a4 ec        	ldy	$ec                     ; 0xec <__zp_bss_size+0x78>
    3b08: d0 04        	bne	$3b0e <_ZN12_GLOBAL__N_112print_stringEPKcP6Status+0xe0>
    3b0a: a5 e9        	lda	$e9                     ; 0xe9 <__zp_bss_size+0x75>
    3b0c: f0 26        	beq	$3b34 <_ZN12_GLOBAL__N_112print_stringEPKcP6Status+0x106>
    3b0e: a2 ff        	ldx	#$ff
    3b10: c6 e9        	dec	$e9                     ; 0xe9 <__zp_bss_size+0x75>
    3b12: e4 e9        	cpx	$e9                     ; 0xe9 <__zp_bss_size+0x75>
    3b14: d0 01        	bne	$3b17 <_ZN12_GLOBAL__N_112print_stringEPKcP6Status+0xe9>
    3b16: 88           	dey
    3b17: 84 ea        	sty	$ea                     ; 0xea <__zp_bss_size+0x76>
    3b19: b2 24        	lda	($24)                   ; 0x24 <__rc20>
    3b1b: e6 24        	inc	$24                     ; 0x24 <__rc20>
    3b1d: d0 02        	bne	$3b21 <_ZN12_GLOBAL__N_112print_stringEPKcP6Status+0xf3>
    3b1f: e6 25        	inc	$25                     ; 0x25 <__rc21>
    3b21: a6 e7        	ldx	$e7                     ; 0xe7 <__zp_bss_size+0x73>
    3b23: 86 12        	stx	$12                     ; 0x12 <__rc2>
    3b25: a6 e8        	ldx	$e8                     ; 0xe8 <__zp_bss_size+0x74>
    3b27: 86 13        	stx	$13                     ; 0x13 <__rc3>
    3b29: 20 53 39     	jsr	$3953 <_ZN12_GLOBAL__N_13putEcP6Status>
    3b2c: a4 ea        	ldy	$ea                     ; 0xea <__zp_bss_size+0x76>
    3b2e: d0 de        	bne	$3b0e <_ZN12_GLOBAL__N_112print_stringEPKcP6Status+0xe0>
    3b30: a5 e9        	lda	$e9                     ; 0xe9 <__zp_bss_size+0x75>
    3b32: d0 da        	bne	$3b0e <_ZN12_GLOBAL__N_112print_stringEPKcP6Status+0xe0>
    3b34: fa           	plx
    3b35: 86 25        	stx	$25                     ; 0x25 <__rc21>
    3b37: fa           	plx
    3b38: 86 24        	stx	$24                     ; 0x24 <__rc20>
    3b3a: 60           	rts
    3b3b: a6 12        	ldx	$12                     ; 0x12 <__rc2>
    3b3d: 86 e9        	stx	$e9                     ; 0xe9 <__zp_bss_size+0x75>
    3b3f: a6 13        	ldx	$13                     ; 0x13 <__rc3>
    3b41: 86 ec        	stx	$ec                     ; 0xec <__zp_bss_size+0x78>
    3b43: 4c a3 3a     	jmp	$3aa3 <_ZN12_GLOBAL__N_112print_stringEPKcP6Status+0x75>

00003b46 <printf>:
    3b46: a6 24        	ldx	$24                     ; 0x24 <__rc20>
    3b48: da           	phx
    3b49: a6 25        	ldx	$25                     ; 0x25 <__rc21>
    3b4b: da           	phx
    3b4c: a6 26        	ldx	$26                     ; 0x26 <__rc22>
    3b4e: da           	phx
    3b4f: a6 27        	ldx	$27                     ; 0x27 <__rc23>
    3b51: da           	phx
    3b52: a6 28        	ldx	$28                     ; 0x28 <__rc24>
    3b54: 8e 02 54     	stx	$5402                   ; 0x5402 <__data_load_start+0x3b0>
    3b57: a6 29        	ldx	$29                     ; 0x29 <__rc25>
    3b59: 8e 03 54     	stx	$5403                   ; 0x5403 <__data_load_start+0x3b1>
    3b5c: a6 2a        	ldx	$2a                     ; 0x2a <__rc26>
    3b5e: 8e 04 54     	stx	$5404                   ; 0x5404 <__data_load_start+0x3b2>
    3b61: a6 2b        	ldx	$2b                     ; 0x2b <__rc27>
    3b63: 8e 05 54     	stx	$5405                   ; 0x5405 <__data_load_start+0x3b3>
    3b66: a6 2c        	ldx	$2c                     ; 0x2c <__rc28>
    3b68: 8e 06 54     	stx	$5406                   ; 0x5406 <__data_load_start+0x3b4>
    3b6b: a6 2d        	ldx	$2d                     ; 0x2d <__rc29>
    3b6d: 8e 07 54     	stx	$5407                   ; 0x5407 <__data_load_start+0x3b5>
    3b70: a6 2e        	ldx	$2e                     ; 0x2e <__rc30>
    3b72: 8e 08 54     	stx	$5408                   ; 0x5408 <__data_load_start+0x3b6>
    3b75: a6 2f        	ldx	$2f                     ; 0x2f <__rc31>
    3b77: 8e 09 54     	stx	$5409                   ; 0x5409 <__data_load_start+0x3b7>
    3b7a: 18           	clc
    3b7b: a6 10        	ldx	$10                     ; 0x10 <__rc0>
    3b7d: a4 11        	ldy	$11                     ; 0x11 <__rc1>
    3b7f: 8e fc 53     	stx	$53fc                   ; 0x53fc <__data_load_start+0x3aa>
    3b82: 8c fd 53     	sty	$53fd                   ; 0x53fd <__data_load_start+0x3ab>
    3b85: ae fc 53     	ldx	$53fc                   ; 0x53fc <__data_load_start+0x3aa>
    3b88: ac fd 53     	ldy	$53fd                   ; 0x53fd <__data_load_start+0x3ab>
    3b8b: 8e fa 53     	stx	$53fa                   ; 0x53fa <__data_load_start+0x3a8>
    3b8e: 8c fb 53     	sty	$53fb                   ; 0x53fb <__data_load_start+0x3a9>
    3b91: a2 ff        	ldx	#$ff
    3b93: 86 d3        	stx	$d3                     ; 0xd3 <__zp_bss_size+0x5f>
    3b95: 86 d4        	stx	$d4                     ; 0xd4 <__zp_bss_size+0x60>
    3b97: 64 d5        	stz	$d5                     ; 0xd5 <__zp_bss_size+0x61>
    3b99: 64 d6        	stz	$d6                     ; 0xd6 <__zp_bss_size+0x62>
    3b9b: e8           	inx
    3b9c: 86 26        	stx	$26                     ; 0x26 <__rc22>
    3b9e: a2 00        	ldx	#$0
    3ba0: 86 27        	stx	$27                     ; 0x27 <__rc23>
    3ba2: a6 26        	ldx	$26                     ; 0x26 <__rc22>
    3ba4: a4 27        	ldy	$27                     ; 0x27 <__rc23>
    3ba6: 86 d9        	stx	$d9                     ; 0xd9 <__zp_bss_size+0x65>
    3ba8: 84 da        	sty	$da                     ; 0xda <__zp_bss_size+0x66>
    3baa: a2 02        	ldx	#$2
    3bac: 86 df        	stx	$df                     ; 0xdf <__zp_bss_size+0x6b>
    3bae: 64 e0        	stz	$e0                     ; 0xe0 <__zp_bss_size+0x6c>
    3bb0: ae fa 53     	ldx	$53fa                   ; 0x53fa <__data_load_start+0x3a8>
    3bb3: ac fb 53     	ldy	$53fb                   ; 0x53fb <__data_load_start+0x3a9>
    3bb6: 86 e1        	stx	$e1                     ; 0xe1 <__zp_bss_size+0x6d>
    3bb8: 84 e2        	sty	$e2                     ; 0xe2 <__zp_bss_size+0x6e>
    3bba: a2 c7        	ldx	#$c7
    3bbc: a0 00        	ldy	#$0
    3bbe: 86 12        	stx	$12                     ; 0x12 <__rc2>
    3bc0: 84 13        	sty	$13                     ; 0x13 <__rc3>
    3bc2: a0 01        	ldy	#$1
    3bc4: a9 b0        	lda	#$b0
    3bc6: 18           	clc
    3bc7: 69 02        	adc	#$2
    3bc9: 8d 00 54     	sta	$5400                   ; 0x5400 <__data_load_start+0x3ae>
    3bcc: a9 00        	lda	#$0
    3bce: 69 00        	adc	#$0
    3bd0: 8d 01 54     	sta	$5401                   ; 0x5401 <__data_load_start+0x3af>
    3bd3: e6 12        	inc	$12                     ; 0x12 <__rc2>
    3bd5: d0 02        	bne	$3bd9 <printf+0x93>
    3bd7: e6 13        	inc	$13                     ; 0x13 <__rc3>
    3bd9: a6 12        	ldx	$12                     ; 0x12 <__rc2>
    3bdb: 8e fe 53     	stx	$53fe                   ; 0x53fe <__data_load_start+0x3ac>
    3bde: a6 13        	ldx	$13                     ; 0x13 <__rc3>
    3be0: 8e ff 53     	stx	$53ff                   ; 0x53ff <__data_load_start+0x3ad>
    3be3: a2 6a        	ldx	#$6a
    3be5: 86 2a        	stx	$2a                     ; 0x2a <__rc26>
    3be7: a2 4e        	ldx	#$4e
    3be9: 86 2b        	stx	$2b                     ; 0x2b <__rc27>
    3beb: a6 2a        	ldx	$2a                     ; 0x2a <__rc26>
    3bed: 86 28        	stx	$28                     ; 0x28 <__rc24>
    3bef: a6 2b        	ldx	$2b                     ; 0x2b <__rc27>
    3bf1: 86 29        	stx	$29                     ; 0x29 <__rc25>
    3bf3: b2 2a        	lda	($2a)                   ; 0x2a <__rc26>
    3bf5: c9 25        	cmp	#$25
    3bf7: f0 2b        	beq	$3c24 <printf+0xde>
    3bf9: aa           	tax
    3bfa: d0 03        	bne	$3bff <printf+0xb9>
    3bfc: 4c ba 47     	jmp	$47ba <printf+0xc74>
    3bff: 85 79        	sta	$79                     ; 0x79 <__putchar.s>
    3c01: a2 79        	ldx	#$79
    3c03: 86 12        	stx	$12                     ; 0x12 <__rc2>
    3c05: a2 00        	ldx	#$0
    3c07: 86 13        	stx	$13                     ; 0x13 <__rc3>
    3c09: 20 5e 24     	jsr	$245e <textPrint>
    3c0c: a0 01        	ldy	#$1
    3c0e: e6 28        	inc	$28                     ; 0x28 <__rc24>
    3c10: d0 02        	bne	$3c14 <printf+0xce>
    3c12: e6 29        	inc	$29                     ; 0x29 <__rc25>
    3c14: e6 d5        	inc	$d5                     ; 0xd5 <__zp_bss_size+0x61>
    3c16: d0 02        	bne	$3c1a <printf+0xd4>
    3c18: e6 d6        	inc	$d6                     ; 0xd6 <__zp_bss_size+0x62>
    3c1a: a6 28        	ldx	$28                     ; 0x28 <__rc24>
    3c1c: 86 2a        	stx	$2a                     ; 0x2a <__rc26>
    3c1e: a6 29        	ldx	$29                     ; 0x29 <__rc25>
    3c20: 86 2b        	stx	$2b                     ; 0x2b <__rc27>
    3c22: 80 c7        	bra	$3beb <printf+0xa5>
    3c24: a6 2a        	ldx	$2a                     ; 0x2a <__rc26>
    3c26: 86 12        	stx	$12                     ; 0x12 <__rc2>
    3c28: a6 2b        	ldx	$2b                     ; 0x2b <__rc27>
    3c2a: 86 13        	stx	$13                     ; 0x13 <__rc3>
    3c2c: e6 12        	inc	$12                     ; 0x12 <__rc2>
    3c2e: d0 02        	bne	$3c32 <printf+0xec>
    3c30: e6 13        	inc	$13                     ; 0x13 <__rc3>
    3c32: b1 28        	lda	($28),y                 ; 0x28 <__rc24>
    3c34: c9 25        	cmp	#$25
    3c36: d0 16        	bne	$3c4e <printf+0x108>
    3c38: a4 d5        	ldy	$d5                     ; 0xd5 <__zp_bss_size+0x61>
    3c3a: a5 d6        	lda	$d6                     ; 0xd6 <__zp_bss_size+0x62>
    3c3c: c5 d4        	cmp	$d4                     ; 0xd4 <__zp_bss_size+0x60>
    3c3e: f0 03        	beq	$3c43 <printf+0xfd>
    3c40: 4c 55 3d     	jmp	$3d55 <printf+0x20f>
    3c43: a6 d3        	ldx	$d3                     ; 0xd3 <__zp_bss_size+0x5f>
    3c45: 86 12        	stx	$12                     ; 0x12 <__rc2>
    3c47: 84 13        	sty	$13                     ; 0x13 <__rc3>
    3c49: c4 12        	cpy	$12                     ; 0x12 <__rc2>
    3c4b: 4c 59 3d     	jmp	$3d59 <printf+0x213>
    3c4e: 64 d1        	stz	$d1                     ; 0xd1 <__zp_bss_size+0x5d>
    3c50: 64 d2        	stz	$d2                     ; 0xd2 <__zp_bss_size+0x5e>
    3c52: 64 d0        	stz	$d0                     ; 0xd0 <__zp_bss_size+0x5c>
    3c54: 64 db        	stz	$db                     ; 0xdb <__zp_bss_size+0x67>
    3c56: 64 dc        	stz	$dc                     ; 0xdc <__zp_bss_size+0x68>
    3c58: a2 ff        	ldx	#$ff
    3c5a: 86 dd        	stx	$dd                     ; 0xdd <__zp_bss_size+0x69>
    3c5c: 86 de        	stx	$de                     ; 0xde <__zp_bss_size+0x6a>
    3c5e: 64 25        	stz	$25                     ; 0x25 <__rc21>
    3c60: 80 33        	bra	$3c95 <printf+0x14f>
    3c62: a2 02        	ldx	#$2
    3c64: 80 15        	bra	$3c7b <printf+0x135>
    3c66: e0 20        	cpx	#$20
    3c68: f0 15        	beq	$3c7f <printf+0x139>
    3c6a: 86 15        	stx	$15                     ; 0x15 <__rc5>
    3c6c: e0 23        	cpx	#$23
    3c6e: f0 03        	beq	$3c73 <printf+0x12d>
    3c70: 4c f2 3c     	jmp	$3cf2 <printf+0x1ac>
    3c73: a5 25        	lda	$25                     ; 0x25 <__rc21>
    3c75: a2 04        	ldx	#$4
    3c77: 80 02        	bra	$3c7b <printf+0x135>
    3c79: a2 10        	ldx	#$10
    3c7b: 86 14        	stx	$14                     ; 0x14 <__rc4>
    3c7d: 80 06        	bra	$3c85 <printf+0x13f>
    3c7f: a2 08        	ldx	#$8
    3c81: 86 14        	stx	$14                     ; 0x14 <__rc4>
    3c83: a5 25        	lda	$25                     ; 0x25 <__rc21>
    3c85: 05 14        	ora	$14                     ; 0x14 <__rc4>
    3c87: 85 25        	sta	$25                     ; 0x25 <__rc21>
    3c89: 85 d1        	sta	$d1                     ; 0xd1 <__zp_bss_size+0x5d>
    3c8b: a2 00        	ldx	#$0
    3c8d: 86 d2        	stx	$d2                     ; 0xd2 <__zp_bss_size+0x5e>
    3c8f: e6 12        	inc	$12                     ; 0x12 <__rc2>
    3c91: d0 02        	bne	$3c95 <printf+0x14f>
    3c93: e6 13        	inc	$13                     ; 0x13 <__rc3>
    3c95: b2 12        	lda	($12)                   ; 0x12 <__rc2>
    3c97: aa           	tax
    3c98: 18           	clc
    3c99: 69 d6        	adc	#$d6
    3c9b: c9 07        	cmp	#$7
    3c9d: b0 c7        	bcs	$3c66 <printf+0x120>
    3c9f: 86 15        	stx	$15                     ; 0x15 <__rc5>
    3ca1: 0a           	asl
    3ca2: aa           	tax
    3ca3: a0 01        	ldy	#$1
    3ca5: 84 14        	sty	$14                     ; 0x14 <__rc4>
    3ca7: a5 25        	lda	$25                     ; 0x25 <__rc21>
    3ca9: 7c 5c 4d     	jmp	($4d5c,x)               ; 0x4d5c <__set_v+0x1b>
    3cac: a5 e1        	lda	$e1                     ; 0xe1 <__zp_bss_size+0x6d>
    3cae: a6 e2        	ldx	$e2                     ; 0xe2 <__zp_bss_size+0x6e>
    3cb0: 85 16        	sta	$16                     ; 0x16 <__rc6>
    3cb2: 86 17        	stx	$17                     ; 0x17 <__rc7>
    3cb4: 18           	clc
    3cb5: 69 02        	adc	#$2
    3cb7: a8           	tay
    3cb8: 8a           	txa
    3cb9: 69 00        	adc	#$0
    3cbb: 84 e1        	sty	$e1                     ; 0xe1 <__zp_bss_size+0x6d>
    3cbd: 85 e2        	sta	$e2                     ; 0xe2 <__zp_bss_size+0x6e>
    3cbf: b2 16        	lda	($16)                   ; 0x16 <__rc6>
    3cc1: 85 15        	sta	$15                     ; 0x15 <__rc5>
    3cc3: a0 01        	ldy	#$1
    3cc5: b1 16        	lda	($16),y                 ; 0x16 <__rc6>
    3cc7: 85 14        	sta	$14                     ; 0x14 <__rc4>
    3cc9: 10 15        	bpl	$3ce0 <printf+0x19a>
    3ccb: a5 25        	lda	$25                     ; 0x25 <__rc21>
    3ccd: 09 01        	ora	#$1
    3ccf: 85 25        	sta	$25                     ; 0x25 <__rc21>
    3cd1: 85 d1        	sta	$d1                     ; 0xd1 <__zp_bss_size+0x5d>
    3cd3: a2 00        	ldx	#$0
    3cd5: 86 d2        	stx	$d2                     ; 0xd2 <__zp_bss_size+0x5e>
    3cd7: 8a           	txa
    3cd8: 38           	sec
    3cd9: e5 15        	sbc	$15                     ; 0x15 <__rc5>
    3cdb: 85 15        	sta	$15                     ; 0x15 <__rc5>
    3cdd: 8a           	txa
    3cde: e5 14        	sbc	$14                     ; 0x14 <__rc4>
    3ce0: a6 15        	ldx	$15                     ; 0x15 <__rc5>
    3ce2: 86 db        	stx	$db                     ; 0xdb <__zp_bss_size+0x67>
    3ce4: 85 dc        	sta	$dc                     ; 0xdc <__zp_bss_size+0x68>
    3ce6: e6 12        	inc	$12                     ; 0x12 <__rc2>
    3ce8: f0 03        	beq	$3ced <printf+0x1a7>
    3cea: 4c b1 3d     	jmp	$3db1 <printf+0x26b>
    3ced: e6 13        	inc	$13                     ; 0x13 <__rc3>
    3cef: 4c b1 3d     	jmp	$3db1 <printf+0x26b>
    3cf2: a5 15        	lda	$15                     ; 0x15 <__rc5>
    3cf4: 18           	clc
    3cf5: 69 d0        	adc	#$d0
    3cf7: c9 0a        	cmp	#$a
    3cf9: 90 03        	bcc	$3cfe <printf+0x1b8>
    3cfb: 4c a3 3d     	jmp	$3da3 <printf+0x25d>
    3cfe: a6 15        	ldx	$15                     ; 0x15 <__rc5>
    3d00: 86 14        	stx	$14                     ; 0x14 <__rc4>
    3d02: 64 16        	stz	$16                     ; 0x16 <__rc6>
    3d04: 64 15        	stz	$15                     ; 0x15 <__rc5>
    3d06: 64 17        	stz	$17                     ; 0x17 <__rc7>
    3d08: a0 01        	ldy	#$1
    3d0a: 06 16        	asl	$16                     ; 0x16 <__rc6>
    3d0c: 26 17        	rol	$17                     ; 0x17 <__rc7>
    3d0e: a5 16        	lda	$16                     ; 0x16 <__rc6>
    3d10: 0a           	asl
    3d11: aa           	tax
    3d12: a5 17        	lda	$17                     ; 0x17 <__rc7>
    3d14: 2a           	rol
    3d15: 86 18        	stx	$18                     ; 0x18 <__rc8>
    3d17: 06 18        	asl	$18                     ; 0x18 <__rc8>
    3d19: 2a           	rol
    3d1a: aa           	tax
    3d1b: a5 18        	lda	$18                     ; 0x18 <__rc8>
    3d1d: 18           	clc
    3d1e: 65 16        	adc	$16                     ; 0x16 <__rc6>
    3d20: 85 16        	sta	$16                     ; 0x16 <__rc6>
    3d22: 8a           	txa
    3d23: 65 17        	adc	$17                     ; 0x17 <__rc7>
    3d25: 85 17        	sta	$17                     ; 0x17 <__rc7>
    3d27: a5 16        	lda	$16                     ; 0x16 <__rc6>
    3d29: 18           	clc
    3d2a: 65 14        	adc	$14                     ; 0x14 <__rc4>
    3d2c: 85 14        	sta	$14                     ; 0x14 <__rc4>
    3d2e: a5 17        	lda	$17                     ; 0x17 <__rc7>
    3d30: 65 15        	adc	$15                     ; 0x15 <__rc5>
    3d32: aa           	tax
    3d33: 18           	clc
    3d34: a5 14        	lda	$14                     ; 0x14 <__rc4>
    3d36: 69 d0        	adc	#$d0
    3d38: 85 16        	sta	$16                     ; 0x16 <__rc6>
    3d3a: 8a           	txa
    3d3b: 69 ff        	adc	#$ff
    3d3d: 85 17        	sta	$17                     ; 0x17 <__rc7>
    3d3f: b1 12        	lda	($12),y                 ; 0x12 <__rc2>
    3d41: 85 14        	sta	$14                     ; 0x14 <__rc4>
    3d43: 18           	clc
    3d44: 69 d0        	adc	#$d0
    3d46: e6 12        	inc	$12                     ; 0x12 <__rc2>
    3d48: d0 02        	bne	$3d4c <printf+0x206>
    3d4a: e6 13        	inc	$13                     ; 0x13 <__rc3>
    3d4c: c9 0a        	cmp	#$a
    3d4e: 64 15        	stz	$15                     ; 0x15 <__rc5>
    3d50: 90 b8        	bcc	$3d0a <printf+0x1c4>
    3d52: 4c a9 3d     	jmp	$3da9 <printf+0x263>
    3d55: 84 13        	sty	$13                     ; 0x13 <__rc3>
    3d57: c5 d4        	cmp	$d4                     ; 0xd4 <__zp_bss_size+0x60>
    3d59: a0 01        	ldy	#$1
    3d5b: b0 30        	bcs	$3d8d <printf+0x247>
    3d5d: a6 e0        	ldx	$e0                     ; 0xe0 <__zp_bss_size+0x6c>
    3d5f: e4 27        	cpx	$27                     ; 0x27 <__rc23>
    3d61: d0 19        	bne	$3d7c <printf+0x236>
    3d63: a6 df        	ldx	$df                     ; 0xdf <__zp_bss_size+0x6b>
    3d65: e4 26        	cpx	$26                     ; 0x26 <__rc22>
    3d67: d0 13        	bne	$3d7c <printf+0x236>
    3d69: 18           	clc
    3d6a: aa           	tax
    3d6b: a5 13        	lda	$13                     ; 0x13 <__rc3>
    3d6d: 65 d9        	adc	$d9                     ; 0xd9 <__zp_bss_size+0x65>
    3d6f: 85 12        	sta	$12                     ; 0x12 <__rc2>
    3d71: 8a           	txa
    3d72: 65 da        	adc	$da                     ; 0xda <__zp_bss_size+0x66>
    3d74: 85 13        	sta	$13                     ; 0x13 <__rc3>
    3d76: a9 25        	lda	#$25
    3d78: 92 12        	sta	($12)                   ; 0x12 <__rc2>
    3d7a: 80 11        	bra	$3d8d <printf+0x247>
    3d7c: a2 25        	ldx	#$25
    3d7e: 86 79        	stx	$79                     ; 0x79 <__putchar.s>
    3d80: a2 79        	ldx	#$79
    3d82: 86 12        	stx	$12                     ; 0x12 <__rc2>
    3d84: a2 00        	ldx	#$0
    3d86: 86 13        	stx	$13                     ; 0x13 <__rc3>
    3d88: 20 5e 24     	jsr	$245e <textPrint>
    3d8b: a0 01        	ldy	#$1
    3d8d: e6 d5        	inc	$d5                     ; 0xd5 <__zp_bss_size+0x61>
    3d8f: d0 02        	bne	$3d93 <printf+0x24d>
    3d91: e6 d6        	inc	$d6                     ; 0xd6 <__zp_bss_size+0x62>
    3d93: a5 28        	lda	$28                     ; 0x28 <__rc24>
    3d95: 18           	clc
    3d96: 69 02        	adc	#$2
    3d98: 85 2a        	sta	$2a                     ; 0x2a <__rc26>
    3d9a: a5 29        	lda	$29                     ; 0x29 <__rc25>
    3d9c: 69 00        	adc	#$0
    3d9e: 85 2b        	sta	$2b                     ; 0x2b <__rc27>
    3da0: 4c eb 3b     	jmp	$3beb <printf+0xa5>
    3da3: 64 16        	stz	$16                     ; 0x16 <__rc6>
    3da5: 64 17        	stz	$17                     ; 0x17 <__rc7>
    3da7: a0 01        	ldy	#$1
    3da9: a6 16        	ldx	$16                     ; 0x16 <__rc6>
    3dab: 86 db        	stx	$db                     ; 0xdb <__zp_bss_size+0x67>
    3dad: a5 17        	lda	$17                     ; 0x17 <__rc7>
    3daf: 85 dc        	sta	$dc                     ; 0xdc <__zp_bss_size+0x68>
    3db1: 86 2e        	stx	$2e                     ; 0x2e <__rc30>
    3db3: 85 2c        	sta	$2c                     ; 0x2c <__rc28>
    3db5: b2 12        	lda	($12)                   ; 0x12 <__rc2>
    3db7: a2 ff        	ldx	#$ff
    3db9: c9 2e        	cmp	#$2e
    3dbb: d0 39        	bne	$3df6 <printf+0x2b0>
    3dbd: b1 12        	lda	($12),y                 ; 0x12 <__rc2>
    3dbf: c9 2a        	cmp	#$2a
    3dc1: d0 38        	bne	$3dfb <printf+0x2b5>
    3dc3: a5 e1        	lda	$e1                     ; 0xe1 <__zp_bss_size+0x6d>
    3dc5: a6 e2        	ldx	$e2                     ; 0xe2 <__zp_bss_size+0x6e>
    3dc7: 85 14        	sta	$14                     ; 0x14 <__rc4>
    3dc9: 86 15        	stx	$15                     ; 0x15 <__rc5>
    3dcb: 18           	clc
    3dcc: 69 02        	adc	#$2
    3dce: 85 16        	sta	$16                     ; 0x16 <__rc6>
    3dd0: 8a           	txa
    3dd1: 69 00        	adc	#$0
    3dd3: a6 16        	ldx	$16                     ; 0x16 <__rc6>
    3dd5: 86 e1        	stx	$e1                     ; 0xe1 <__zp_bss_size+0x6d>
    3dd7: 85 e2        	sta	$e2                     ; 0xe2 <__zp_bss_size+0x6e>
    3dd9: a5 12        	lda	$12                     ; 0x12 <__rc2>
    3ddb: 18           	clc
    3ddc: 69 02        	adc	#$2
    3dde: 85 12        	sta	$12                     ; 0x12 <__rc2>
    3de0: a5 13        	lda	$13                     ; 0x13 <__rc3>
    3de2: 69 00        	adc	#$0
    3de4: 85 13        	sta	$13                     ; 0x13 <__rc3>
    3de6: b2 14        	lda	($14)                   ; 0x14 <__rc4>
    3de8: aa           	tax
    3de9: b1 14        	lda	($14),y                 ; 0x14 <__rc4>
    3deb: 86 18        	stx	$18                     ; 0x18 <__rc8>
    3ded: 86 dd        	stx	$dd                     ; 0xdd <__zp_bss_size+0x69>
    3def: 85 19        	sta	$19                     ; 0x19 <__rc9>
    3df1: 85 de        	sta	$de                     ; 0xde <__zp_bss_size+0x6a>
    3df3: 4c a6 3e     	jmp	$3ea6 <printf+0x360>
    3df6: 86 18        	stx	$18                     ; 0x18 <__rc8>
    3df8: 4c b6 3e     	jmp	$3eb6 <printf+0x370>
    3dfb: 85 17        	sta	$17                     ; 0x17 <__rc7>
    3dfd: 18           	clc
    3dfe: 69 d0        	adc	#$d0
    3e00: c9 0a        	cmp	#$a
    3e02: 90 03        	bcc	$3e07 <printf+0x2c1>
    3e04: 4c 98 3e     	jmp	$3e98 <printf+0x352>
    3e07: 64 16        	stz	$16                     ; 0x16 <__rc6>
    3e09: a2 01        	ldx	#$1
    3e0b: 64 18        	stz	$18                     ; 0x18 <__rc8>
    3e0d: 64 19        	stz	$19                     ; 0x19 <__rc9>
    3e0f: a0 01        	ldy	#$1
    3e11: 64 1a        	stz	$1a                     ; 0x1a <__rc10>
    3e13: 5a           	phy
    3e14: a4 1a        	ldy	$1a                     ; 0x1a <__rc10>
    3e16: 84 14        	sty	$14                     ; 0x14 <__rc4>
    3e18: 86 15        	stx	$15                     ; 0x15 <__rc5>
    3e1a: 06 18        	asl	$18                     ; 0x18 <__rc8>
    3e1c: 26 19        	rol	$19                     ; 0x19 <__rc9>
    3e1e: a5 18        	lda	$18                     ; 0x18 <__rc8>
    3e20: 0a           	asl
    3e21: 85 1d        	sta	$1d                     ; 0x1d <__rc13>
    3e23: a5 19        	lda	$19                     ; 0x19 <__rc9>
    3e25: 2a           	rol
    3e26: 06 1d        	asl	$1d                     ; 0x1d <__rc13>
    3e28: 2a           	rol
    3e29: 85 1e        	sta	$1e                     ; 0x1e <__rc14>
    3e2b: a5 1d        	lda	$1d                     ; 0x1d <__rc13>
    3e2d: 18           	clc
    3e2e: 65 18        	adc	$18                     ; 0x18 <__rc8>
    3e30: 85 18        	sta	$18                     ; 0x18 <__rc8>
    3e32: a5 1e        	lda	$1e                     ; 0x1e <__rc14>
    3e34: 65 19        	adc	$19                     ; 0x19 <__rc9>
    3e36: 85 19        	sta	$19                     ; 0x19 <__rc9>
    3e38: a5 18        	lda	$18                     ; 0x18 <__rc8>
    3e3a: 18           	clc
    3e3b: 65 17        	adc	$17                     ; 0x17 <__rc7>
    3e3d: 85 17        	sta	$17                     ; 0x17 <__rc7>
    3e3f: a5 19        	lda	$19                     ; 0x19 <__rc9>
    3e41: 65 16        	adc	$16                     ; 0x16 <__rc6>
    3e43: 85 16        	sta	$16                     ; 0x16 <__rc6>
    3e45: 18           	clc
    3e46: a5 17        	lda	$17                     ; 0x17 <__rc7>
    3e48: 69 d0        	adc	#$d0
    3e4a: 85 18        	sta	$18                     ; 0x18 <__rc8>
    3e4c: a5 16        	lda	$16                     ; 0x16 <__rc6>
    3e4e: 69 ff        	adc	#$ff
    3e50: 85 19        	sta	$19                     ; 0x19 <__rc9>
    3e52: e8           	inx
    3e53: d0 02        	bne	$3e57 <printf+0x311>
    3e55: e6 1a        	inc	$1a                     ; 0x1a <__rc10>
    3e57: a5 12        	lda	$12                     ; 0x12 <__rc2>
    3e59: 18           	clc
    3e5a: 65 15        	adc	$15                     ; 0x15 <__rc5>
    3e5c: 85 1d        	sta	$1d                     ; 0x1d <__rc13>
    3e5e: a5 13        	lda	$13                     ; 0x13 <__rc3>
    3e60: 65 14        	adc	$14                     ; 0x14 <__rc4>
    3e62: a4 1d        	ldy	$1d                     ; 0x1d <__rc13>
    3e64: 84 16        	sty	$16                     ; 0x16 <__rc6>
    3e66: 7a           	ply
    3e67: 85 17        	sta	$17                     ; 0x17 <__rc7>
    3e69: b1 16        	lda	($16),y                 ; 0x16 <__rc6>
    3e6b: 85 17        	sta	$17                     ; 0x17 <__rc7>
    3e6d: 18           	clc
    3e6e: 69 d0        	adc	#$d0
    3e70: c9 0a        	cmp	#$a
    3e72: 64 16        	stz	$16                     ; 0x16 <__rc6>
    3e74: b0 03        	bcs	$3e79 <printf+0x333>
    3e76: 4c 13 3e     	jmp	$3e13 <printf+0x2cd>
    3e79: a5 12        	lda	$12                     ; 0x12 <__rc2>
    3e7b: 18           	clc
    3e7c: 65 15        	adc	$15                     ; 0x15 <__rc5>
    3e7e: 85 12        	sta	$12                     ; 0x12 <__rc2>
    3e80: a5 13        	lda	$13                     ; 0x13 <__rc3>
    3e82: 65 14        	adc	$14                     ; 0x14 <__rc4>
    3e84: 85 13        	sta	$13                     ; 0x13 <__rc3>
    3e86: e6 12        	inc	$12                     ; 0x12 <__rc2>
    3e88: d0 02        	bne	$3e8c <printf+0x346>
    3e8a: e6 13        	inc	$13                     ; 0x13 <__rc3>
    3e8c: a6 18        	ldx	$18                     ; 0x18 <__rc8>
    3e8e: 86 dd        	stx	$dd                     ; 0xdd <__zp_bss_size+0x69>
    3e90: a6 19        	ldx	$19                     ; 0x19 <__rc9>
    3e92: 86 de        	stx	$de                     ; 0xde <__zp_bss_size+0x6a>
    3e94: a0 01        	ldy	#$1
    3e96: 80 0e        	bra	$3ea6 <printf+0x360>
    3e98: e6 12        	inc	$12                     ; 0x12 <__rc2>
    3e9a: d0 02        	bne	$3e9e <printf+0x358>
    3e9c: e6 13        	inc	$13                     ; 0x13 <__rc3>
    3e9e: 64 18        	stz	$18                     ; 0x18 <__rc8>
    3ea0: 64 dd        	stz	$dd                     ; 0xdd <__zp_bss_size+0x69>
    3ea2: 64 de        	stz	$de                     ; 0xde <__zp_bss_size+0x6a>
    3ea4: 64 19        	stz	$19                     ; 0x19 <__rc9>
    3ea6: a5 25        	lda	$25                     ; 0x25 <__rc21>
    3ea8: 29 ef        	and	#$ef
    3eaa: 85 25        	sta	$25                     ; 0x25 <__rc21>
    3eac: 85 d1        	sta	$d1                     ; 0xd1 <__zp_bss_size+0x5d>
    3eae: a2 00        	ldx	#$0
    3eb0: 86 d2        	stx	$d2                     ; 0xd2 <__zp_bss_size+0x5e>
    3eb2: b2 12        	lda	($12)                   ; 0x12 <__rc2>
    3eb4: a6 19        	ldx	$19                     ; 0x19 <__rc9>
    3eb6: 86 15        	stx	$15                     ; 0x15 <__rc5>
    3eb8: a6 12        	ldx	$12                     ; 0x12 <__rc2>
    3eba: 86 2a        	stx	$2a                     ; 0x2a <__rc26>
    3ebc: a6 13        	ldx	$13                     ; 0x13 <__rc3>
    3ebe: 86 2b        	stx	$2b                     ; 0x2b <__rc27>
    3ec0: e6 2a        	inc	$2a                     ; 0x2a <__rc26>
    3ec2: d0 02        	bne	$3ec6 <printf+0x380>
    3ec4: e6 2b        	inc	$2b                     ; 0x2b <__rc27>
    3ec6: 85 14        	sta	$14                     ; 0x14 <__rc4>
    3ec8: 38           	sec
    3ec9: e9 6c        	sbc	#$6c
    3ecb: 50 02        	bvc	$3ecf <printf+0x389>
    3ecd: 49 80        	eor	#$80
    3ecf: aa           	tax
    3ed0: 10 1d        	bpl	$3eef <printf+0x3a9>
    3ed2: a5 14        	lda	$14                     ; 0x14 <__rc4>
    3ed4: c9 4c        	cmp	#$4c
    3ed6: f0 27        	beq	$3eff <printf+0x3b9>
    3ed8: c9 68        	cmp	#$68
    3eda: d0 03        	bne	$3edf <printf+0x399>
    3edc: 4c 66 3f     	jmp	$3f66 <printf+0x420>
    3edf: a2 08        	ldx	#$8
    3ee1: c9 6a        	cmp	#$6a
    3ee3: d0 2e        	bne	$3f13 <printf+0x3cd>
    3ee5: a5 2a        	lda	$2a                     ; 0x2a <__rc26>
    3ee7: 85 12        	sta	$12                     ; 0x12 <__rc2>
    3ee9: a5 2b        	lda	$2b                     ; 0x2b <__rc27>
    3eeb: 85 13        	sta	$13                     ; 0x13 <__rc3>
    3eed: 80 43        	bra	$3f32 <printf+0x3ec>
    3eef: a6 14        	ldx	$14                     ; 0x14 <__rc4>
    3ef1: e0 6c        	cpx	#$6c
    3ef3: f0 23        	beq	$3f18 <printf+0x3d2>
    3ef5: e0 74        	cpx	#$74
    3ef7: f0 12        	beq	$3f0b <printf+0x3c5>
    3ef9: e0 7a        	cpx	#$7a
    3efb: f0 0e        	beq	$3f0b <printf+0x3c5>
    3efd: 80 14        	bra	$3f13 <printf+0x3cd>
    3eff: a5 25        	lda	$25                     ; 0x25 <__rc21>
    3f01: 09 40        	ora	#$40
    3f03: 85 25        	sta	$25                     ; 0x25 <__rc21>
    3f05: 85 d1        	sta	$d1                     ; 0xd1 <__zp_bss_size+0x5d>
    3f07: a2 00        	ldx	#$0
    3f09: 86 d2        	stx	$d2                     ; 0xd2 <__zp_bss_size+0x5e>
    3f0b: a6 2a        	ldx	$2a                     ; 0x2a <__rc26>
    3f0d: 86 12        	stx	$12                     ; 0x12 <__rc2>
    3f0f: a6 2b        	ldx	$2b                     ; 0x2b <__rc27>
    3f11: 86 13        	stx	$13                     ; 0x13 <__rc3>
    3f13: a2 02        	ldx	#$2
    3f15: 8a           	txa
    3f16: 80 1c        	bra	$3f34 <printf+0x3ee>
    3f18: b1 12        	lda	($12),y                 ; 0x12 <__rc2>
    3f1a: a2 04        	ldx	#$4
    3f1c: c9 6c        	cmp	#$6c
    3f1e: f0 03        	beq	$3f23 <printf+0x3dd>
    3f20: 4c 79 42     	jmp	$4279 <printf+0x733>
    3f23: a5 12        	lda	$12                     ; 0x12 <__rc2>
    3f25: 18           	clc
    3f26: 69 02        	adc	#$2
    3f28: 85 12        	sta	$12                     ; 0x12 <__rc2>
    3f2a: a5 13        	lda	$13                     ; 0x13 <__rc3>
    3f2c: 69 00        	adc	#$0
    3f2e: 85 13        	sta	$13                     ; 0x13 <__rc3>
    3f30: a2 08        	ldx	#$8
    3f32: a9 08        	lda	#$8
    3f34: 85 e4        	sta	$e4                     ; 0xe4 <__zp_bss_size+0x70>
    3f36: b2 12        	lda	($12)                   ; 0x12 <__rc2>
    3f38: 5a           	phy
    3f39: a4 12        	ldy	$12                     ; 0x12 <__rc2>
    3f3b: 84 2a        	sty	$2a                     ; 0x2a <__rc26>
    3f3d: a4 13        	ldy	$13                     ; 0x13 <__rc3>
    3f3f: 84 2b        	sty	$2b                     ; 0x2b <__rc27>
    3f41: 7a           	ply
    3f42: 86 26        	stx	$26                     ; 0x26 <__rc22>
    3f44: aa           	tax
    3f45: 18           	clc
    3f46: 69 9d        	adc	#$9d
    3f48: c9 16        	cmp	#$16
    3f4a: b0 39        	bcs	$3f85 <printf+0x43f>
    3f4c: 0a           	asl
    3f4d: aa           	tax
    3f4e: 7c 6a 4d     	jmp	($4d6a,x)               ; 0x4d6a <__set_v+0x29>
    3f51: a6 15        	ldx	$15                     ; 0x15 <__rc5>
    3f53: 86 e5        	stx	$e5                     ; 0xe5 <__zp_bss_size+0x71>
    3f55: a6 18        	ldx	$18                     ; 0x18 <__rc8>
    3f57: 86 e6        	stx	$e6                     ; 0xe6 <__zp_bss_size+0x72>
    3f59: a0 0a        	ldy	#$a
    3f5b: a2 0a        	ldx	#$a
    3f5d: 86 e3        	stx	$e3                     ; 0xe3 <__zp_bss_size+0x6f>
    3f5f: 84 d0        	sty	$d0                     ; 0xd0 <__zp_bss_size+0x5c>
    3f61: 64 2f        	stz	$2f                     ; 0x2f <__rc31>
    3f63: 4c 87 40     	jmp	$4087 <printf+0x541>
    3f66: b1 12        	lda	($12),y                 ; 0x12 <__rc2>
    3f68: a2 02        	ldx	#$2
    3f6a: c9 68        	cmp	#$68
    3f6c: f0 03        	beq	$3f71 <printf+0x42b>
    3f6e: 4c 7f 42     	jmp	$427f <printf+0x739>
    3f71: a5 12        	lda	$12                     ; 0x12 <__rc2>
    3f73: 18           	clc
    3f74: 69 02        	adc	#$2
    3f76: 85 12        	sta	$12                     ; 0x12 <__rc2>
    3f78: a5 13        	lda	$13                     ; 0x13 <__rc3>
    3f7a: 69 00        	adc	#$0
    3f7c: 85 13        	sta	$13                     ; 0x13 <__rc3>
    3f7e: a2 01        	ldx	#$1
    3f80: 86 e4        	stx	$e4                     ; 0xe4 <__zp_bss_size+0x70>
    3f82: e8           	inx
    3f83: 80 b1        	bra	$3f36 <printf+0x3f0>
    3f85: e0 58        	cpx	#$58
    3f87: f0 03        	beq	$3f8c <printf+0x446>
    3f89: 4c 76 47     	jmp	$4776 <printf+0xc30>
    3f8c: a6 15        	ldx	$15                     ; 0x15 <__rc5>
    3f8e: 86 e5        	stx	$e5                     ; 0xe5 <__zp_bss_size+0x71>
    3f90: a6 18        	ldx	$18                     ; 0x18 <__rc8>
    3f92: 86 e6        	stx	$e6                     ; 0xe6 <__zp_bss_size+0x72>
    3f94: a2 10        	ldx	#$10
    3f96: 86 d0        	stx	$d0                     ; 0xd0 <__zp_bss_size+0x5c>
    3f98: a9 00        	lda	#$0
    3f9a: 09 01        	ora	#$1
    3f9c: a6 25        	ldx	$25                     ; 0x25 <__rc21>
    3f9e: 80 29        	bra	$3fc9 <printf+0x483>
    3fa0: a6 15        	ldx	$15                     ; 0x15 <__rc5>
    3fa2: 86 e5        	stx	$e5                     ; 0xe5 <__zp_bss_size+0x71>
    3fa4: a6 18        	ldx	$18                     ; 0x18 <__rc8>
    3fa6: 86 e6        	stx	$e6                     ; 0xe6 <__zp_bss_size+0x72>
    3fa8: a2 10        	ldx	#$10
    3faa: 86 d0        	stx	$d0                     ; 0xd0 <__zp_bss_size+0x5c>
    3fac: a5 25        	lda	$25                     ; 0x25 <__rc21>
    3fae: 09 84        	ora	#$84
    3fb0: 80 10        	bra	$3fc2 <printf+0x47c>
    3fb2: a6 15        	ldx	$15                     ; 0x15 <__rc5>
    3fb4: 86 e5        	stx	$e5                     ; 0xe5 <__zp_bss_size+0x71>
    3fb6: a6 18        	ldx	$18                     ; 0x18 <__rc8>
    3fb8: 86 e6        	stx	$e6                     ; 0xe6 <__zp_bss_size+0x72>
    3fba: a2 10        	ldx	#$10
    3fbc: 86 d0        	stx	$d0                     ; 0xd0 <__zp_bss_size+0x5c>
    3fbe: a5 25        	lda	$25                     ; 0x25 <__rc21>
    3fc0: 09 80        	ora	#$80
    3fc2: aa           	tax
    3fc3: a9 00        	lda	#$0
    3fc5: 09 01        	ora	#$1
    3fc7: 86 25        	stx	$25                     ; 0x25 <__rc21>
    3fc9: 86 d1        	stx	$d1                     ; 0xd1 <__zp_bss_size+0x5d>
    3fcb: 85 2f        	sta	$2f                     ; 0x2f <__rc31>
    3fcd: 85 d2        	sta	$d2                     ; 0xd2 <__zp_bss_size+0x5e>
    3fcf: a2 10        	ldx	#$10
    3fd1: 86 e3        	stx	$e3                     ; 0xe3 <__zp_bss_size+0x6f>
    3fd3: 4c 87 40     	jmp	$4087 <printf+0x541>
    3fd6: a5 e1        	lda	$e1                     ; 0xe1 <__zp_bss_size+0x6d>
    3fd8: a6 e2        	ldx	$e2                     ; 0xe2 <__zp_bss_size+0x6e>
    3fda: 85 12        	sta	$12                     ; 0x12 <__rc2>
    3fdc: 86 13        	stx	$13                     ; 0x13 <__rc3>
    3fde: 18           	clc
    3fdf: 69 02        	adc	#$2
    3fe1: 85 14        	sta	$14                     ; 0x14 <__rc4>
    3fe3: 8a           	txa
    3fe4: 69 00        	adc	#$0
    3fe6: a6 14        	ldx	$14                     ; 0x14 <__rc4>
    3fe8: 86 e1        	stx	$e1                     ; 0xe1 <__zp_bss_size+0x6d>
    3fea: 85 e2        	sta	$e2                     ; 0xe2 <__zp_bss_size+0x6e>
    3fec: b2 12        	lda	($12)                   ; 0x12 <__rc2>
    3fee: aa           	tax
    3fef: b1 12        	lda	($12),y                 ; 0x12 <__rc2>
    3ff1: 86 12        	stx	$12                     ; 0x12 <__rc2>
    3ff3: 85 13        	sta	$13                     ; 0x13 <__rc3>
    3ff5: a5 d5        	lda	$d5                     ; 0xd5 <__zp_bss_size+0x61>
    3ff7: a6 d6        	ldx	$d6                     ; 0xd6 <__zp_bss_size+0x62>
    3ff9: 92 12        	sta	($12)                   ; 0x12 <__rc2>
    3ffb: 8a           	txa
    3ffc: 91 12        	sta	($12),y                 ; 0x12 <__rc2>
    3ffe: 4c 60 40     	jmp	$4060 <printf+0x51a>
    4001: a5 e1        	lda	$e1                     ; 0xe1 <__zp_bss_size+0x6d>
    4003: a6 e2        	ldx	$e2                     ; 0xe2 <__zp_bss_size+0x6e>
    4005: 85 12        	sta	$12                     ; 0x12 <__rc2>
    4007: 86 13        	stx	$13                     ; 0x13 <__rc3>
    4009: 18           	clc
    400a: 69 02        	adc	#$2
    400c: 85 14        	sta	$14                     ; 0x14 <__rc4>
    400e: 8a           	txa
    400f: 69 00        	adc	#$0
    4011: a6 14        	ldx	$14                     ; 0x14 <__rc4>
    4013: 86 e1        	stx	$e1                     ; 0xe1 <__zp_bss_size+0x6d>
    4015: 85 e2        	sta	$e2                     ; 0xe2 <__zp_bss_size+0x6e>
    4017: b2 12        	lda	($12)                   ; 0x12 <__rc2>
    4019: aa           	tax
    401a: b1 12        	lda	($12),y                 ; 0x12 <__rc2>
    401c: 86 12        	stx	$12                     ; 0x12 <__rc2>
    401e: 85 13        	sta	$13                     ; 0x13 <__rc3>
    4020: 80 31        	bra	$4053 <printf+0x50d>
    4022: a6 15        	ldx	$15                     ; 0x15 <__rc5>
    4024: 86 e5        	stx	$e5                     ; 0xe5 <__zp_bss_size+0x71>
    4026: a6 18        	ldx	$18                     ; 0x18 <__rc8>
    4028: 86 e6        	stx	$e6                     ; 0xe6 <__zp_bss_size+0x72>
    402a: a0 08        	ldy	#$8
    402c: a2 08        	ldx	#$8
    402e: 80 47        	bra	$4077 <printf+0x531>
    4030: a5 e1        	lda	$e1                     ; 0xe1 <__zp_bss_size+0x6d>
    4032: a6 e2        	ldx	$e2                     ; 0xe2 <__zp_bss_size+0x6e>
    4034: 85 12        	sta	$12                     ; 0x12 <__rc2>
    4036: 86 13        	stx	$13                     ; 0x13 <__rc3>
    4038: 18           	clc
    4039: 69 02        	adc	#$2
    403b: a8           	tay
    403c: 8a           	txa
    403d: 69 00        	adc	#$0
    403f: 84 e1        	sty	$e1                     ; 0xe1 <__zp_bss_size+0x6d>
    4041: 85 e2        	sta	$e2                     ; 0xe2 <__zp_bss_size+0x6e>
    4043: b2 12        	lda	($12)                   ; 0x12 <__rc2>
    4045: 8d f8 53     	sta	$53f8                   ; 0x53f8 <__data_load_start+0x3a6>
    4048: 9c f9 53     	stz	$53f9                   ; 0x53f9 <__data_load_start+0x3a7>
    404b: a2 f8        	ldx	#$f8
    404d: 86 12        	stx	$12                     ; 0x12 <__rc2>
    404f: a2 53        	ldx	#$53
    4051: 86 13        	stx	$13                     ; 0x13 <__rc3>
    4053: a2 d0        	ldx	#$d0
    4055: 86 14        	stx	$14                     ; 0x14 <__rc4>
    4057: a2 00        	ldx	#$0
    4059: 86 15        	stx	$15                     ; 0x15 <__rc5>
    405b: 20 2e 3a     	jsr	$3a2e <_ZN12_GLOBAL__N_112print_stringEPKcP6Status>
    405e: a0 01        	ldy	#$1
    4060: a2 00        	ldx	#$0
    4062: 86 26        	stx	$26                     ; 0x26 <__rc22>
    4064: a2 00        	ldx	#$0
    4066: 86 27        	stx	$27                     ; 0x27 <__rc23>
    4068: 4c 5e 47     	jmp	$475e <printf+0xc18>
    406b: a6 15        	ldx	$15                     ; 0x15 <__rc5>
    406d: 86 e5        	stx	$e5                     ; 0xe5 <__zp_bss_size+0x71>
    406f: a6 18        	ldx	$18                     ; 0x18 <__rc8>
    4071: 86 e6        	stx	$e6                     ; 0xe6 <__zp_bss_size+0x72>
    4073: a0 0a        	ldy	#$a
    4075: a2 0a        	ldx	#$a
    4077: 86 e3        	stx	$e3                     ; 0xe3 <__zp_bss_size+0x6f>
    4079: 84 d0        	sty	$d0                     ; 0xd0 <__zp_bss_size+0x5c>
    407b: a9 00        	lda	#$0
    407d: 09 01        	ora	#$1
    407f: a6 25        	ldx	$25                     ; 0x25 <__rc21>
    4081: 86 d1        	stx	$d1                     ; 0xd1 <__zp_bss_size+0x5d>
    4083: 85 2f        	sta	$2f                     ; 0x2f <__rc31>
    4085: 85 d2        	sta	$d2                     ; 0xd2 <__zp_bss_size+0x5e>
    4087: a5 e4        	lda	$e4                     ; 0xe4 <__zp_bss_size+0x70>
    4089: 85 c7        	sta	$c7                     ; 0xc7 <__zp_bss_size+0x53>
    408b: a4 e1        	ldy	$e1                     ; 0xe1 <__zp_bss_size+0x6d>
    408d: a6 e2        	ldx	$e2                     ; 0xe2 <__zp_bss_size+0x6e>
    408f: 86 2d        	stx	$2d                     ; 0x2d <__rc29>
    4091: 84 14        	sty	$14                     ; 0x14 <__rc4>
    4093: 84 24        	sty	$24                     ; 0x24 <__rc20>
    4095: 86 15        	stx	$15                     ; 0x15 <__rc5>
    4097: ae fe 53     	ldx	$53fe                   ; 0x53fe <__data_load_start+0x3ac>
    409a: 86 12        	stx	$12                     ; 0x12 <__rc2>
    409c: ae ff 53     	ldx	$53ff                   ; 0x53ff <__data_load_start+0x3ad>
    409f: 86 13        	stx	$13                     ; 0x13 <__rc3>
    40a1: a2 00        	ldx	#$0
    40a3: 85 27        	sta	$27                     ; 0x27 <__rc23>
    40a5: 20 a5 4a     	jsr	$4aa5 <memcpy>
    40a8: 18           	clc
    40a9: a5 24        	lda	$24                     ; 0x24 <__rc20>
    40ab: 65 26        	adc	$26                     ; 0x26 <__rc22>
    40ad: aa           	tax
    40ae: a5 2d        	lda	$2d                     ; 0x2d <__rc29>
    40b0: 69 00        	adc	#$0
    40b2: 86 e1        	stx	$e1                     ; 0xe1 <__zp_bss_size+0x6d>
    40b4: 85 e2        	sta	$e2                     ; 0xe2 <__zp_bss_size+0x6e>
    40b6: a5 2f        	lda	$2f                     ; 0x2f <__rc31>
    40b8: 29 01        	and	#$1
    40ba: b8           	clv
    40bb: f0 03        	beq	$40c0 <printf+0x57a>
    40bd: 4c 14 41     	jmp	$4114 <printf+0x5ce>
    40c0: a6 27        	ldx	$27                     ; 0x27 <__rc23>
    40c2: b5 c7        	lda	$c7,x                   ; 0xc7 <__zp_bss_size+0x53>
    40c4: aa           	tax
    40c5: a0 01        	ldy	#$1
    40c7: a5 2c        	lda	$2c                     ; 0x2c <__rc28>
    40c9: 85 1a        	sta	$1a                     ; 0x1a <__rc10>
    40cb: a5 e6        	lda	$e6                     ; 0xe6 <__zp_bss_size+0x72>
    40cd: 85 2c        	sta	$2c                     ; 0x2c <__rc28>
    40cf: a9 00        	lda	#$0
    40d1: 85 26        	sta	$26                     ; 0x26 <__rc22>
    40d3: a9 00        	lda	#$0
    40d5: 85 27        	sta	$27                     ; 0x27 <__rc23>
    40d7: a5 e5        	lda	$e5                     ; 0xe5 <__zp_bss_size+0x71>
    40d9: 85 2d        	sta	$2d                     ; 0x2d <__rc29>
    40db: 8a           	txa
    40dc: 10 4c        	bpl	$412a <printf+0x5e4>
    40de: a2 00        	ldx	#$0
    40e0: 64 12        	stz	$12                     ; 0x12 <__rc2>
    40e2: a9 00        	lda	#$0
    40e4: 38           	sec
    40e5: f5 c8        	sbc	$c8,x                   ; 0xc8 <__zp_bss_size+0x54>
    40e7: a0 00        	ldy	#$0
    40e9: b0 02        	bcs	$40ed <printf+0x5a7>
    40eb: a0 01        	ldy	#$1
    40ed: 38           	sec
    40ee: e5 12        	sbc	$12                     ; 0x12 <__rc2>
    40f0: 85 13        	sta	$13                     ; 0x13 <__rc3>
    40f2: 64 12        	stz	$12                     ; 0x12 <__rc2>
    40f4: b0 04        	bcs	$40fa <printf+0x5b4>
    40f6: a9 01        	lda	#$1
    40f8: 85 12        	sta	$12                     ; 0x12 <__rc2>
    40fa: 98           	tya
    40fb: 05 12        	ora	$12                     ; 0x12 <__rc2>
    40fd: 85 12        	sta	$12                     ; 0x12 <__rc2>
    40ff: a5 13        	lda	$13                     ; 0x13 <__rc3>
    4101: 9d c8 00     	sta	$c8,x                   ; 0xc8 <__zp_bss_size+0x54>
    4104: e8           	inx
    4105: 86 13        	stx	$13                     ; 0x13 <__rc3>
    4107: a4 e4        	ldy	$e4                     ; 0xe4 <__zp_bss_size+0x70>
    4109: c4 13        	cpy	$13                     ; 0x13 <__rc3>
    410b: d0 d5        	bne	$40e2 <printf+0x59c>
    410d: 2c 41 4d     	bit	$4d41                   ; 0x4d41 <__set_v>
    4110: a0 01        	ldy	#$1
    4112: 80 16        	bra	$412a <printf+0x5e4>
    4114: a0 01        	ldy	#$1
    4116: a6 2c        	ldx	$2c                     ; 0x2c <__rc28>
    4118: 86 1a        	stx	$1a                     ; 0x1a <__rc10>
    411a: a6 e6        	ldx	$e6                     ; 0xe6 <__zp_bss_size+0x72>
    411c: 86 2c        	stx	$2c                     ; 0x2c <__rc28>
    411e: a2 00        	ldx	#$0
    4120: 86 26        	stx	$26                     ; 0x26 <__rc22>
    4122: a2 00        	ldx	#$0
    4124: 86 27        	stx	$27                     ; 0x27 <__rc23>
    4126: a6 e5        	ldx	$e5                     ; 0xe5 <__zp_bss_size+0x71>
    4128: 86 2d        	stx	$2d                     ; 0x2d <__rc29>
    412a: a2 01        	ldx	#$1
    412c: 70 02        	bvs	$4130 <printf+0x5ea>
    412e: a2 00        	ldx	#$0
    4130: 86 16        	stx	$16                     ; 0x16 <__rc6>
    4132: a5 e4        	lda	$e4                     ; 0xe4 <__zp_bss_size+0x70>
    4134: 0a           	asl
    4135: 0a           	asl
    4136: 0a           	asl
    4137: 85 12        	sta	$12                     ; 0x12 <__rc2>
    4139: a2 00        	ldx	#$0
    413b: 8a           	txa
    413c: e0 00        	cpx	#$0
    413e: d0 03        	bne	$4143 <printf+0x5fd>
    4140: 4c c8 41     	jmp	$41c8 <printf+0x682>
    4143: 85 17        	sta	$17                     ; 0x17 <__rc7>
    4145: 86 24        	stx	$24                     ; 0x24 <__rc20>
    4147: ca           	dex
    4148: 86 15        	stx	$15                     ; 0x15 <__rc5>
    414a: a2 00        	ldx	#$0
    414c: 64 13        	stz	$13                     ; 0x13 <__rc3>
    414e: 80 0d        	bra	$415d <printf+0x617>
    4150: a4 13        	ldy	$13                     ; 0x13 <__rc3>
    4152: 99 b2 00     	sta	$b2,y                   ; 0xb2 <__zp_bss_size+0x3e>
    4155: a4 15        	ldy	$15                     ; 0x15 <__rc5>
    4157: c4 13        	cpy	$13                     ; 0x13 <__rc3>
    4159: f0 38        	beq	$4193 <printf+0x64d>
    415b: e6 13        	inc	$13                     ; 0x13 <__rc3>
    415d: a4 13        	ldy	$13                     ; 0x13 <__rc3>
    415f: b9 b2 00     	lda	$b2,y                   ; 0xb2 <__zp_bss_size+0x3e>
    4162: 0a           	asl
    4163: e0 00        	cpx	#$0
    4165: f0 02        	beq	$4169 <printf+0x623>
    4167: 09 01        	ora	#$1
    4169: a4 e3        	ldy	$e3                     ; 0xe3 <__zp_bss_size+0x6f>
    416b: 84 14        	sty	$14                     ; 0x14 <__rc4>
    416d: c5 14        	cmp	$14                     ; 0x14 <__rc4>
    416f: a2 01        	ldx	#$1
    4171: b0 02        	bcs	$4175 <printf+0x62f>
    4173: a2 00        	ldx	#$0
    4175: 90 d9        	bcc	$4150 <printf+0x60a>
    4177: 84 14        	sty	$14                     ; 0x14 <__rc4>
    4179: 38           	sec
    417a: e5 14        	sbc	$14                     ; 0x14 <__rc4>
    417c: a4 13        	ldy	$13                     ; 0x13 <__rc3>
    417e: 99 b2 00     	sta	$b2,y                   ; 0xb2 <__zp_bss_size+0x3e>
    4181: a4 15        	ldy	$15                     ; 0x15 <__rc5>
    4183: c4 13        	cpy	$13                     ; 0x13 <__rc3>
    4185: d0 d4        	bne	$415b <printf+0x615>
    4187: a4 24        	ldy	$24                     ; 0x24 <__rc20>
    4189: a6 24        	ldx	$24                     ; 0x24 <__rc20>
    418b: e8           	inx
    418c: a9 01        	lda	#$1
    418e: 99 b2 00     	sta	$b2,y                   ; 0xb2 <__zp_bss_size+0x3e>
    4191: 86 24        	stx	$24                     ; 0x24 <__rc20>
    4193: a6 e4        	ldx	$e4                     ; 0xe4 <__zp_bss_size+0x70>
    4195: b5 c7        	lda	$c7,x                   ; 0xc7 <__zp_bss_size+0x53>
    4197: aa           	tax
    4198: a0 01        	ldy	#$1
    419a: 8a           	txa
    419b: 10 47        	bpl	$41e4 <printf+0x69e>
    419d: a5 24        	lda	$24                     ; 0x24 <__rc20>
    419f: f0 34        	beq	$41d5 <printf+0x68f>
    41a1: a2 00        	ldx	#$0
    41a3: a4 e3        	ldy	$e3                     ; 0xe3 <__zp_bss_size+0x6f>
    41a5: 84 14        	sty	$14                     ; 0x14 <__rc4>
    41a7: b5 b2        	lda	$b2,x                   ; 0xb2 <__zp_bss_size+0x3e>
    41a9: 1a           	inc
    41aa: f6 b2        	inc	$b2,x                   ; 0xb2 <__zp_bss_size+0x3e>
    41ac: c5 14        	cmp	$14                     ; 0x14 <__rc4>
    41ae: b0 03        	bcs	$41b3 <printf+0x66d>
    41b0: 4c 0f 42     	jmp	$420f <printf+0x6c9>
    41b3: a4 14        	ldy	$14                     ; 0x14 <__rc4>
    41b5: 84 13        	sty	$13                     ; 0x13 <__rc3>
    41b7: 38           	sec
    41b8: e5 13        	sbc	$13                     ; 0x13 <__rc3>
    41ba: 9d b2 00     	sta	$b2,x                   ; 0xb2 <__zp_bss_size+0x3e>
    41bd: e8           	inx
    41be: 86 13        	stx	$13                     ; 0x13 <__rc3>
    41c0: a4 24        	ldy	$24                     ; 0x24 <__rc20>
    41c2: c4 13        	cpy	$13                     ; 0x13 <__rc3>
    41c4: d0 e1        	bne	$41a7 <printf+0x661>
    41c6: 80 0f        	bra	$41d7 <printf+0x691>
    41c8: 85 17        	sta	$17                     ; 0x17 <__rc7>
    41ca: a6 e4        	ldx	$e4                     ; 0xe4 <__zp_bss_size+0x70>
    41cc: b5 c7        	lda	$c7,x                   ; 0xc7 <__zp_bss_size+0x53>
    41ce: aa           	tax
    41cf: 64 24        	stz	$24                     ; 0x24 <__rc20>
    41d1: 30 04        	bmi	$41d7 <printf+0x691>
    41d3: 80 0f        	bra	$41e4 <printf+0x69e>
    41d5: 64 24        	stz	$24                     ; 0x24 <__rc20>
    41d7: a4 24        	ldy	$24                     ; 0x24 <__rc20>
    41d9: a6 24        	ldx	$24                     ; 0x24 <__rc20>
    41db: e8           	inx
    41dc: a9 01        	lda	#$1
    41de: 99 b2 00     	sta	$b2,y                   ; 0xb2 <__zp_bss_size+0x3e>
    41e1: a8           	tay
    41e2: 86 24        	stx	$24                     ; 0x24 <__rc20>
    41e4: a2 01        	ldx	#$1
    41e6: 64 13        	stz	$13                     ; 0x13 <__rc3>
    41e8: a5 e4        	lda	$e4                     ; 0xe4 <__zp_bss_size+0x70>
    41ea: 85 14        	sta	$14                     ; 0x14 <__rc4>
    41ec: b5 c7        	lda	$c7,x                   ; 0xc7 <__zp_bss_size+0x53>
    41ee: 0a           	asl
    41ef: 64 15        	stz	$15                     ; 0x15 <__rc5>
    41f1: 26 15        	rol	$15                     ; 0x15 <__rc5>
    41f3: 05 13        	ora	$13                     ; 0x13 <__rc3>
    41f5: 9d c7 00     	sta	$c7,x                   ; 0xc7 <__zp_bss_size+0x53>
    41f8: e8           	inx
    41f9: c6 14        	dec	$14                     ; 0x14 <__rc4>
    41fb: a5 15        	lda	$15                     ; 0x15 <__rc5>
    41fd: 85 13        	sta	$13                     ; 0x13 <__rc3>
    41ff: a5 14        	lda	$14                     ; 0x14 <__rc4>
    4201: d0 e9        	bne	$41ec <printf+0x6a6>
    4203: a5 17        	lda	$17                     ; 0x17 <__rc7>
    4205: 1a           	inc
    4206: c5 12        	cmp	$12                     ; 0x12 <__rc2>
    4208: a6 24        	ldx	$24                     ; 0x24 <__rc20>
    420a: b0 07        	bcs	$4213 <printf+0x6cd>
    420c: 4c 3c 41     	jmp	$413c <printf+0x5f6>
    420f: a0 01        	ldy	#$1
    4211: 80 d1        	bra	$41e4 <printf+0x69e>
    4213: a5 25        	lda	$25                     ; 0x25 <__rc21>
    4215: e6 2d        	inc	$2d                     ; 0x2d <__rc29>
    4217: c6 2d        	dec	$2d                     ; 0x2d <__rc29>
    4219: 10 08        	bpl	$4223 <printf+0x6dd>
    421b: a2 01        	ldx	#$1
    421d: 64 2d        	stz	$2d                     ; 0x2d <__rc29>
    421f: 86 2c        	stx	$2c                     ; 0x2c <__rc28>
    4221: a6 24        	ldx	$24                     ; 0x24 <__rc20>
    4223: 29 04        	and	#$4
    4225: f0 2b        	beq	$4252 <printf+0x70c>
    4227: a5 e3        	lda	$e3                     ; 0xe3 <__zp_bss_size+0x6f>
    4229: c9 10        	cmp	#$10
    422b: f0 14        	beq	$4241 <printf+0x6fb>
    422d: c9 08        	cmp	#$8
    422f: d0 21        	bne	$4252 <printf+0x70c>
    4231: a2 00        	ldx	#$0
    4233: e4 2d        	cpx	$2d                     ; 0x2d <__rc29>
    4235: f0 03        	beq	$423a <printf+0x6f4>
    4237: 4c 83 47     	jmp	$4783 <printf+0xc3d>
    423a: a6 24        	ldx	$24                     ; 0x24 <__rc20>
    423c: e4 2c        	cpx	$2c                     ; 0x2c <__rc28>
    423e: 4c 85 47     	jmp	$4785 <printf+0xc3f>
    4241: 8a           	txa
    4242: f0 0e        	beq	$4252 <printf+0x70c>
    4244: a5 25        	lda	$25                     ; 0x25 <__rc21>
    4246: 29 80        	and	#$80
    4248: d0 03        	bne	$424d <printf+0x707>
    424a: 4c 9e 47     	jmp	$479e <printf+0xc58>
    424d: a2 78        	ldx	#$78
    424f: 4c a0 47     	jmp	$47a0 <printf+0xc5a>
    4252: a6 25        	ldx	$25                     ; 0x25 <__rc21>
    4254: a9 2d        	lda	#$2d
    4256: 85 e5        	sta	$e5                     ; 0xe5 <__zp_bss_size+0x71>
    4258: a5 16        	lda	$16                     ; 0x16 <__rc6>
    425a: d0 32        	bne	$428e <printf+0x748>
    425c: 86 12        	stx	$12                     ; 0x12 <__rc2>
    425e: 8a           	txa
    425f: 29 02        	and	#$2
    4261: a2 2b        	ldx	#$2b
    4263: 86 e5        	stx	$e5                     ; 0xe5 <__zp_bss_size+0x71>
    4265: aa           	tax
    4266: d0 26        	bne	$428e <printf+0x748>
    4268: a5 12        	lda	$12                     ; 0x12 <__rc2>
    426a: 29 08        	and	#$8
    426c: d0 1c        	bne	$428a <printf+0x744>
    426e: a2 01        	ldx	#$1
    4270: 86 e4        	stx	$e4                     ; 0xe4 <__zp_bss_size+0x70>
    4272: a9 00        	lda	#$0
    4274: aa           	tax
    4275: 86 e3        	stx	$e3                     ; 0xe3 <__zp_bss_size+0x6f>
    4277: 80 1c        	bra	$4295 <printf+0x74f>
    4279: 85 12        	sta	$12                     ; 0x12 <__rc2>
    427b: a9 04        	lda	#$4
    427d: 80 04        	bra	$4283 <printf+0x73d>
    427f: 85 12        	sta	$12                     ; 0x12 <__rc2>
    4281: a9 02        	lda	#$2
    4283: 85 e4        	sta	$e4                     ; 0xe4 <__zp_bss_size+0x70>
    4285: a5 12        	lda	$12                     ; 0x12 <__rc2>
    4287: 4c 42 3f     	jmp	$3f42 <printf+0x3fc>
    428a: a2 20        	ldx	#$20
    428c: 86 e5        	stx	$e5                     ; 0xe5 <__zp_bss_size+0x71>
    428e: a2 00        	ldx	#$0
    4290: 86 e4        	stx	$e4                     ; 0xe4 <__zp_bss_size+0x70>
    4292: 86 e3        	stx	$e3                     ; 0xe3 <__zp_bss_size+0x6f>
    4294: 98           	tya
    4295: a6 2d        	ldx	$2d                     ; 0x2d <__rc29>
    4297: d0 35        	bne	$42ce <printf+0x788>
    4299: a6 2c        	ldx	$2c                     ; 0x2c <__rc28>
    429b: a4 24        	ldy	$24                     ; 0x24 <__rc20>
    429d: 84 12        	sty	$12                     ; 0x12 <__rc2>
    429f: e4 12        	cpx	$12                     ; 0x12 <__rc2>
    42a1: a6 2c        	ldx	$2c                     ; 0x2c <__rc28>
    42a3: 86 12        	stx	$12                     ; 0x12 <__rc2>
    42a5: a6 2d        	ldx	$2d                     ; 0x2d <__rc29>
    42a7: 86 13        	stx	$13                     ; 0x13 <__rc3>
    42a9: b0 04        	bcs	$42af <printf+0x769>
    42ab: 84 12        	sty	$12                     ; 0x12 <__rc2>
    42ad: 64 13        	stz	$13                     ; 0x13 <__rc3>
    42af: 85 18        	sta	$18                     ; 0x18 <__rc8>
    42b1: 18           	clc
    42b2: 65 12        	adc	$12                     ; 0x12 <__rc2>
    42b4: 85 16        	sta	$16                     ; 0x16 <__rc6>
    42b6: 85 14        	sta	$14                     ; 0x14 <__rc4>
    42b8: a5 13        	lda	$13                     ; 0x13 <__rc3>
    42ba: 69 00        	adc	#$0
    42bc: 85 15        	sta	$15                     ; 0x15 <__rc5>
    42be: c5 1a        	cmp	$1a                     ; 0x1a <__rc10>
    42c0: d0 1e        	bne	$42e0 <printf+0x79a>
    42c2: a6 1a        	ldx	$1a                     ; 0x1a <__rc10>
    42c4: 86 17        	stx	$17                     ; 0x17 <__rc7>
    42c6: a6 2e        	ldx	$2e                     ; 0x2e <__rc30>
    42c8: a5 16        	lda	$16                     ; 0x16 <__rc6>
    42ca: c5 2e        	cmp	$2e                     ; 0x2e <__rc30>
    42cc: 80 1c        	bra	$42ea <printf+0x7a4>
    42ce: a6 2d        	ldx	$2d                     ; 0x2d <__rc29>
    42d0: e0 00        	cpx	#$0
    42d2: a6 2c        	ldx	$2c                     ; 0x2c <__rc28>
    42d4: 86 12        	stx	$12                     ; 0x12 <__rc2>
    42d6: a6 2d        	ldx	$2d                     ; 0x2d <__rc29>
    42d8: 86 13        	stx	$13                     ; 0x13 <__rc3>
    42da: a4 24        	ldy	$24                     ; 0x24 <__rc20>
    42dc: 90 cd        	bcc	$42ab <printf+0x765>
    42de: 80 cf        	bra	$42af <printf+0x769>
    42e0: a6 2e        	ldx	$2e                     ; 0x2e <__rc30>
    42e2: 5a           	phy
    42e3: a4 1a        	ldy	$1a                     ; 0x1a <__rc10>
    42e5: 84 17        	sty	$17                     ; 0x17 <__rc7>
    42e7: 7a           	ply
    42e8: c5 1a        	cmp	$1a                     ; 0x1a <__rc10>
    42ea: 64 2f        	stz	$2f                     ; 0x2f <__rc31>
    42ec: 64 2e        	stz	$2e                     ; 0x2e <__rc30>
    42ee: 90 03        	bcc	$42f3 <printf+0x7ad>
    42f0: 4c 97 43     	jmp	$4397 <printf+0x851>
    42f3: a5 25        	lda	$25                     ; 0x25 <__rc21>
    42f5: 29 11        	and	#$11
    42f7: 86 16        	stx	$16                     ; 0x16 <__rc6>
    42f9: f0 0f        	beq	$430a <printf+0x7c4>
    42fb: 8a           	txa
    42fc: 38           	sec
    42fd: e5 14        	sbc	$14                     ; 0x14 <__rc4>
    42ff: 85 2f        	sta	$2f                     ; 0x2f <__rc31>
    4301: a5 1a        	lda	$1a                     ; 0x1a <__rc10>
    4303: e5 15        	sbc	$15                     ; 0x15 <__rc5>
    4305: 85 2e        	sta	$2e                     ; 0x2e <__rc30>
    4307: 4c 97 43     	jmp	$4397 <printf+0x851>
    430a: a6 d5        	ldx	$d5                     ; 0xd5 <__zp_bss_size+0x61>
    430c: 86 14        	stx	$14                     ; 0x14 <__rc4>
    430e: 38           	sec
    430f: a5 18        	lda	$18                     ; 0x18 <__rc8>
    4311: e5 16        	sbc	$16                     ; 0x16 <__rc6>
    4313: a8           	tay
    4314: a9 00        	lda	#$0
    4316: e5 17        	sbc	$17                     ; 0x17 <__rc7>
    4318: aa           	tax
    4319: 18           	clc
    431a: 98           	tya
    431b: 65 12        	adc	$12                     ; 0x12 <__rc2>
    431d: 85 25        	sta	$25                     ; 0x25 <__rc21>
    431f: 8a           	txa
    4320: 65 13        	adc	$13                     ; 0x13 <__rc3>
    4322: 85 2e        	sta	$2e                     ; 0x2e <__rc30>
    4324: a5 d6        	lda	$d6                     ; 0xd6 <__zp_bss_size+0x62>
    4326: 4c 7f 43     	jmp	$437f <printf+0x839>
    4329: c5 d4        	cmp	$d4                     ; 0xd4 <__zp_bss_size+0x60>
    432b: a4 2e        	ldy	$2e                     ; 0x2e <__rc30>
    432d: b0 30        	bcs	$435f <printf+0x819>
    432f: a6 e0        	ldx	$e0                     ; 0xe0 <__zp_bss_size+0x6c>
    4331: e4 27        	cpx	$27                     ; 0x27 <__rc23>
    4333: d0 19        	bne	$434e <printf+0x808>
    4335: a6 df        	ldx	$df                     ; 0xdf <__zp_bss_size+0x6b>
    4337: e4 26        	cpx	$26                     ; 0x26 <__rc22>
    4339: d0 13        	bne	$434e <printf+0x808>
    433b: 18           	clc
    433c: aa           	tax
    433d: a5 14        	lda	$14                     ; 0x14 <__rc4>
    433f: 65 d9        	adc	$d9                     ; 0xd9 <__zp_bss_size+0x65>
    4341: 85 12        	sta	$12                     ; 0x12 <__rc2>
    4343: 8a           	txa
    4344: 65 da        	adc	$da                     ; 0xda <__zp_bss_size+0x66>
    4346: 85 13        	sta	$13                     ; 0x13 <__rc3>
    4348: a9 20        	lda	#$20
    434a: 92 12        	sta	($12)                   ; 0x12 <__rc2>
    434c: 80 0f        	bra	$435d <printf+0x817>
    434e: a2 20        	ldx	#$20
    4350: 86 79        	stx	$79                     ; 0x79 <__putchar.s>
    4352: a2 79        	ldx	#$79
    4354: 86 12        	stx	$12                     ; 0x12 <__rc2>
    4356: a2 00        	ldx	#$0
    4358: 86 13        	stx	$13                     ; 0x13 <__rc3>
    435a: 20 5e 24     	jsr	$245e <textPrint>
    435d: a4 2e        	ldy	$2e                     ; 0x2e <__rc30>
    435f: a6 d5        	ldx	$d5                     ; 0xd5 <__zp_bss_size+0x61>
    4361: a5 d6        	lda	$d6                     ; 0xd6 <__zp_bss_size+0x62>
    4363: e8           	inx
    4364: d0 01        	bne	$4367 <printf+0x821>
    4366: 1a           	inc
    4367: 86 14        	stx	$14                     ; 0x14 <__rc4>
    4369: 86 d5        	stx	$d5                     ; 0xd5 <__zp_bss_size+0x61>
    436b: 85 d6        	sta	$d6                     ; 0xd6 <__zp_bss_size+0x62>
    436d: a6 25        	ldx	$25                     ; 0x25 <__rc21>
    436f: e8           	inx
    4370: d0 01        	bne	$4373 <printf+0x82d>
    4372: c8           	iny
    4373: 86 25        	stx	$25                     ; 0x25 <__rc21>
    4375: 84 2e        	sty	$2e                     ; 0x2e <__rc30>
    4377: c0 00        	cpy	#$0
    4379: d0 04        	bne	$437f <printf+0x839>
    437b: e0 00        	cpx	#$0
    437d: f0 12        	beq	$4391 <printf+0x84b>
    437f: c5 d4        	cmp	$d4                     ; 0xd4 <__zp_bss_size+0x60>
    4381: f0 03        	beq	$4386 <printf+0x840>
    4383: 4c 29 43     	jmp	$4329 <printf+0x7e3>
    4386: a6 d3        	ldx	$d3                     ; 0xd3 <__zp_bss_size+0x5f>
    4388: 86 12        	stx	$12                     ; 0x12 <__rc2>
    438a: a6 14        	ldx	$14                     ; 0x14 <__rc4>
    438c: e4 12        	cpx	$12                     ; 0x12 <__rc2>
    438e: 4c 2b 43     	jmp	$432b <printf+0x7e5>
    4391: 64 2f        	stz	$2f                     ; 0x2f <__rc31>
    4393: 64 2e        	stz	$2e                     ; 0x2e <__rc30>
    4395: a4 24        	ldy	$24                     ; 0x24 <__rc20>
    4397: a6 e4        	ldx	$e4                     ; 0xe4 <__zp_bss_size+0x70>
    4399: f0 03        	beq	$439e <printf+0x858>
    439b: 4c f5 43     	jmp	$43f5 <printf+0x8af>
    439e: a6 d5        	ldx	$d5                     ; 0xd5 <__zp_bss_size+0x61>
    43a0: a5 d6        	lda	$d6                     ; 0xd6 <__zp_bss_size+0x62>
    43a2: c5 d4        	cmp	$d4                     ; 0xd4 <__zp_bss_size+0x60>
    43a4: d0 10        	bne	$43b6 <printf+0x870>
    43a6: 86 13        	stx	$13                     ; 0x13 <__rc3>
    43a8: a6 d3        	ldx	$d3                     ; 0xd3 <__zp_bss_size+0x5f>
    43aa: 86 12        	stx	$12                     ; 0x12 <__rc2>
    43ac: a4 24        	ldy	$24                     ; 0x24 <__rc20>
    43ae: a6 13        	ldx	$13                     ; 0x13 <__rc3>
    43b0: e4 12        	cpx	$12                     ; 0x12 <__rc2>
    43b2: 90 08        	bcc	$43bc <printf+0x876>
    43b4: 80 39        	bra	$43ef <printf+0x8a9>
    43b6: 86 13        	stx	$13                     ; 0x13 <__rc3>
    43b8: c5 d4        	cmp	$d4                     ; 0xd4 <__zp_bss_size+0x60>
    43ba: b0 33        	bcs	$43ef <printf+0x8a9>
    43bc: a6 e0        	ldx	$e0                     ; 0xe0 <__zp_bss_size+0x6c>
    43be: e4 27        	cpx	$27                     ; 0x27 <__rc23>
    43c0: d0 1c        	bne	$43de <printf+0x898>
    43c2: a6 df        	ldx	$df                     ; 0xdf <__zp_bss_size+0x6b>
    43c4: e4 26        	cpx	$26                     ; 0x26 <__rc22>
    43c6: d0 16        	bne	$43de <printf+0x898>
    43c8: 18           	clc
    43c9: 85 12        	sta	$12                     ; 0x12 <__rc2>
    43cb: a5 13        	lda	$13                     ; 0x13 <__rc3>
    43cd: 65 d9        	adc	$d9                     ; 0xd9 <__zp_bss_size+0x65>
    43cf: aa           	tax
    43d0: a5 12        	lda	$12                     ; 0x12 <__rc2>
    43d2: 65 da        	adc	$da                     ; 0xda <__zp_bss_size+0x66>
    43d4: 86 12        	stx	$12                     ; 0x12 <__rc2>
    43d6: 85 13        	sta	$13                     ; 0x13 <__rc3>
    43d8: a5 e5        	lda	$e5                     ; 0xe5 <__zp_bss_size+0x71>
    43da: 92 12        	sta	($12)                   ; 0x12 <__rc2>
    43dc: 80 0f        	bra	$43ed <printf+0x8a7>
    43de: a6 e5        	ldx	$e5                     ; 0xe5 <__zp_bss_size+0x71>
    43e0: 86 79        	stx	$79                     ; 0x79 <__putchar.s>
    43e2: a2 79        	ldx	#$79
    43e4: 86 12        	stx	$12                     ; 0x12 <__rc2>
    43e6: a2 00        	ldx	#$0
    43e8: 86 13        	stx	$13                     ; 0x13 <__rc3>
    43ea: 20 5e 24     	jsr	$245e <textPrint>
    43ed: a4 24        	ldy	$24                     ; 0x24 <__rc20>
    43ef: e6 d5        	inc	$d5                     ; 0xd5 <__zp_bss_size+0x61>
    43f1: d0 02        	bne	$43f5 <printf+0x8af>
    43f3: e6 d6        	inc	$d6                     ; 0xd6 <__zp_bss_size+0x62>
    43f5: a6 e3        	ldx	$e3                     ; 0xe3 <__zp_bss_size+0x6f>
    43f7: d0 03        	bne	$43fc <printf+0x8b6>
    43f9: 4c 53 44     	jmp	$4453 <printf+0x90d>
    43fc: a6 d5        	ldx	$d5                     ; 0xd5 <__zp_bss_size+0x61>
    43fe: a5 d6        	lda	$d6                     ; 0xd6 <__zp_bss_size+0x62>
    4400: c5 d4        	cmp	$d4                     ; 0xd4 <__zp_bss_size+0x60>
    4402: d0 10        	bne	$4414 <printf+0x8ce>
    4404: 86 13        	stx	$13                     ; 0x13 <__rc3>
    4406: a6 d3        	ldx	$d3                     ; 0xd3 <__zp_bss_size+0x5f>
    4408: 86 12        	stx	$12                     ; 0x12 <__rc2>
    440a: a4 24        	ldy	$24                     ; 0x24 <__rc20>
    440c: a6 13        	ldx	$13                     ; 0x13 <__rc3>
    440e: e4 12        	cpx	$12                     ; 0x12 <__rc2>
    4410: 90 08        	bcc	$441a <printf+0x8d4>
    4412: 80 39        	bra	$444d <printf+0x907>
    4414: 86 13        	stx	$13                     ; 0x13 <__rc3>
    4416: c5 d4        	cmp	$d4                     ; 0xd4 <__zp_bss_size+0x60>
    4418: b0 33        	bcs	$444d <printf+0x907>
    441a: a6 e0        	ldx	$e0                     ; 0xe0 <__zp_bss_size+0x6c>
    441c: e4 27        	cpx	$27                     ; 0x27 <__rc23>
    441e: d0 1c        	bne	$443c <printf+0x8f6>
    4420: a6 df        	ldx	$df                     ; 0xdf <__zp_bss_size+0x6b>
    4422: e4 26        	cpx	$26                     ; 0x26 <__rc22>
    4424: d0 16        	bne	$443c <printf+0x8f6>
    4426: 18           	clc
    4427: 85 12        	sta	$12                     ; 0x12 <__rc2>
    4429: a5 13        	lda	$13                     ; 0x13 <__rc3>
    442b: 65 d9        	adc	$d9                     ; 0xd9 <__zp_bss_size+0x65>
    442d: aa           	tax
    442e: a5 12        	lda	$12                     ; 0x12 <__rc2>
    4430: 65 da        	adc	$da                     ; 0xda <__zp_bss_size+0x66>
    4432: 86 12        	stx	$12                     ; 0x12 <__rc2>
    4434: 85 13        	sta	$13                     ; 0x13 <__rc3>
    4436: a5 e6        	lda	$e6                     ; 0xe6 <__zp_bss_size+0x72>
    4438: 92 12        	sta	($12)                   ; 0x12 <__rc2>
    443a: 80 0f        	bra	$444b <printf+0x905>
    443c: a6 e6        	ldx	$e6                     ; 0xe6 <__zp_bss_size+0x72>
    443e: 86 79        	stx	$79                     ; 0x79 <__putchar.s>
    4440: a2 79        	ldx	#$79
    4442: 86 12        	stx	$12                     ; 0x12 <__rc2>
    4444: a2 00        	ldx	#$0
    4446: 86 13        	stx	$13                     ; 0x13 <__rc3>
    4448: 20 5e 24     	jsr	$245e <textPrint>
    444b: a4 24        	ldy	$24                     ; 0x24 <__rc20>
    444d: e6 d5        	inc	$d5                     ; 0xd5 <__zp_bss_size+0x61>
    444f: d0 02        	bne	$4453 <printf+0x90d>
    4451: e6 d6        	inc	$d6                     ; 0xd6 <__zp_bss_size+0x62>
    4453: a9 10        	lda	#$10
    4455: 25 d1        	and	$d1                     ; 0xd1 <__zp_bss_size+0x5d>
    4457: d0 03        	bne	$445c <printf+0x916>
    4459: 4c ed 44     	jmp	$44ed <printf+0x9a7>
    445c: a5 d1        	lda	$d1                     ; 0xd1 <__zp_bss_size+0x5d>
    445e: 29 01        	and	#$1
    4460: f0 03        	beq	$4465 <printf+0x91f>
    4462: 4c ed 44     	jmp	$44ed <printf+0x9a7>
    4465: a6 2f        	ldx	$2f                     ; 0x2f <__rc31>
    4467: a5 2e        	lda	$2e                     ; 0x2e <__rc30>
    4469: d0 06        	bne	$4471 <printf+0x92b>
    446b: 8a           	txa
    446c: d0 03        	bne	$4471 <printf+0x92b>
    446e: 4c b3 47     	jmp	$47b3 <printf+0xc6d>
    4471: a6 d5        	ldx	$d5                     ; 0xd5 <__zp_bss_size+0x61>
    4473: 86 13        	stx	$13                     ; 0x13 <__rc3>
    4475: a5 d6        	lda	$d6                     ; 0xd6 <__zp_bss_size+0x62>
    4477: 4c d3 44     	jmp	$44d3 <printf+0x98d>
    447a: c5 d4        	cmp	$d4                     ; 0xd4 <__zp_bss_size+0x60>
    447c: b0 2e        	bcs	$44ac <printf+0x966>
    447e: a6 e0        	ldx	$e0                     ; 0xe0 <__zp_bss_size+0x6c>
    4480: e4 27        	cpx	$27                     ; 0x27 <__rc23>
    4482: d0 19        	bne	$449d <printf+0x957>
    4484: a6 df        	ldx	$df                     ; 0xdf <__zp_bss_size+0x6b>
    4486: e4 26        	cpx	$26                     ; 0x26 <__rc22>
    4488: d0 13        	bne	$449d <printf+0x957>
    448a: 18           	clc
    448b: aa           	tax
    448c: a5 13        	lda	$13                     ; 0x13 <__rc3>
    448e: 65 d9        	adc	$d9                     ; 0xd9 <__zp_bss_size+0x65>
    4490: 85 12        	sta	$12                     ; 0x12 <__rc2>
    4492: 8a           	txa
    4493: 65 da        	adc	$da                     ; 0xda <__zp_bss_size+0x66>
    4495: 85 13        	sta	$13                     ; 0x13 <__rc3>
    4497: a9 30        	lda	#$30
    4499: 92 12        	sta	($12)                   ; 0x12 <__rc2>
    449b: 80 0f        	bra	$44ac <printf+0x966>
    449d: a2 30        	ldx	#$30
    449f: 86 79        	stx	$79                     ; 0x79 <__putchar.s>
    44a1: a2 79        	ldx	#$79
    44a3: 86 12        	stx	$12                     ; 0x12 <__rc2>
    44a5: a2 00        	ldx	#$0
    44a7: 86 13        	stx	$13                     ; 0x13 <__rc3>
    44a9: 20 5e 24     	jsr	$245e <textPrint>
    44ac: a6 d5        	ldx	$d5                     ; 0xd5 <__zp_bss_size+0x61>
    44ae: a5 d6        	lda	$d6                     ; 0xd6 <__zp_bss_size+0x62>
    44b0: e8           	inx
    44b1: d0 01        	bne	$44b4 <printf+0x96e>
    44b3: 1a           	inc
    44b4: 86 13        	stx	$13                     ; 0x13 <__rc3>
    44b6: 86 d5        	stx	$d5                     ; 0xd5 <__zp_bss_size+0x61>
    44b8: 85 d6        	sta	$d6                     ; 0xd6 <__zp_bss_size+0x62>
    44ba: a4 2f        	ldy	$2f                     ; 0x2f <__rc31>
    44bc: a6 2e        	ldx	$2e                     ; 0x2e <__rc30>
    44be: 86 12        	stx	$12                     ; 0x12 <__rc2>
    44c0: 88           	dey
    44c1: c0 ff        	cpy	#$ff
    44c3: d0 02        	bne	$44c7 <printf+0x981>
    44c5: c6 12        	dec	$12                     ; 0x12 <__rc2>
    44c7: 84 2f        	sty	$2f                     ; 0x2f <__rc31>
    44c9: a6 12        	ldx	$12                     ; 0x12 <__rc2>
    44cb: 86 2e        	stx	$2e                     ; 0x2e <__rc30>
    44cd: d0 04        	bne	$44d3 <printf+0x98d>
    44cf: c0 00        	cpy	#$0
    44d1: f0 14        	beq	$44e7 <printf+0x9a1>
    44d3: c5 d4        	cmp	$d4                     ; 0xd4 <__zp_bss_size+0x60>
    44d5: f0 03        	beq	$44da <printf+0x994>
    44d7: 4c 7a 44     	jmp	$447a <printf+0x934>
    44da: a6 d3        	ldx	$d3                     ; 0xd3 <__zp_bss_size+0x5f>
    44dc: 86 12        	stx	$12                     ; 0x12 <__rc2>
    44de: a6 13        	ldx	$13                     ; 0x13 <__rc3>
    44e0: e4 12        	cpx	$12                     ; 0x12 <__rc2>
    44e2: b0 c8        	bcs	$44ac <printf+0x966>
    44e4: 4c 7e 44     	jmp	$447e <printf+0x938>
    44e7: 64 2f        	stz	$2f                     ; 0x2f <__rc31>
    44e9: 64 2e        	stz	$2e                     ; 0x2e <__rc30>
    44eb: a4 24        	ldy	$24                     ; 0x24 <__rc20>
    44ed: a2 00        	ldx	#$0
    44ef: e4 2d        	cpx	$2d                     ; 0x2d <__rc29>
    44f1: d0 07        	bne	$44fa <printf+0x9b4>
    44f3: c4 2c        	cpy	$2c                     ; 0x2c <__rc28>
    44f5: 90 0a        	bcc	$4501 <printf+0x9bb>
    44f7: 4c 79 45     	jmp	$4579 <printf+0xa33>
    44fa: e4 2d        	cpx	$2d                     ; 0x2d <__rc29>
    44fc: 90 03        	bcc	$4501 <printf+0x9bb>
    44fe: 4c 79 45     	jmp	$4579 <printf+0xa33>
    4501: a6 d5        	ldx	$d5                     ; 0xd5 <__zp_bss_size+0x61>
    4503: 86 13        	stx	$13                     ; 0x13 <__rc3>
    4505: a5 d6        	lda	$d6                     ; 0xd6 <__zp_bss_size+0x62>
    4507: a2 ff        	ldx	#$ff
    4509: c6 2c        	dec	$2c                     ; 0x2c <__rc28>
    450b: e4 2c        	cpx	$2c                     ; 0x2c <__rc28>
    450d: d0 02        	bne	$4511 <printf+0x9cb>
    450f: c6 2d        	dec	$2d                     ; 0x2d <__rc29>
    4511: c5 d4        	cmp	$d4                     ; 0xd4 <__zp_bss_size+0x60>
    4513: d0 0c        	bne	$4521 <printf+0x9db>
    4515: a6 d3        	ldx	$d3                     ; 0xd3 <__zp_bss_size+0x5f>
    4517: 86 12        	stx	$12                     ; 0x12 <__rc2>
    4519: a6 13        	ldx	$13                     ; 0x13 <__rc3>
    451b: e4 12        	cpx	$12                     ; 0x12 <__rc2>
    451d: 90 06        	bcc	$4525 <printf+0x9df>
    451f: 80 32        	bra	$4553 <printf+0xa0d>
    4521: c5 d4        	cmp	$d4                     ; 0xd4 <__zp_bss_size+0x60>
    4523: b0 2e        	bcs	$4553 <printf+0xa0d>
    4525: a6 e0        	ldx	$e0                     ; 0xe0 <__zp_bss_size+0x6c>
    4527: e4 27        	cpx	$27                     ; 0x27 <__rc23>
    4529: d0 19        	bne	$4544 <printf+0x9fe>
    452b: a6 df        	ldx	$df                     ; 0xdf <__zp_bss_size+0x6b>
    452d: e4 26        	cpx	$26                     ; 0x26 <__rc22>
    452f: d0 13        	bne	$4544 <printf+0x9fe>
    4531: 18           	clc
    4532: aa           	tax
    4533: a5 13        	lda	$13                     ; 0x13 <__rc3>
    4535: 65 d9        	adc	$d9                     ; 0xd9 <__zp_bss_size+0x65>
    4537: 85 12        	sta	$12                     ; 0x12 <__rc2>
    4539: 8a           	txa
    453a: 65 da        	adc	$da                     ; 0xda <__zp_bss_size+0x66>
    453c: 85 13        	sta	$13                     ; 0x13 <__rc3>
    453e: a9 30        	lda	#$30
    4540: 92 12        	sta	($12)                   ; 0x12 <__rc2>
    4542: 80 0f        	bra	$4553 <printf+0xa0d>
    4544: a2 30        	ldx	#$30
    4546: 86 79        	stx	$79                     ; 0x79 <__putchar.s>
    4548: a2 79        	ldx	#$79
    454a: 86 12        	stx	$12                     ; 0x12 <__rc2>
    454c: a2 00        	ldx	#$0
    454e: 86 13        	stx	$13                     ; 0x13 <__rc3>
    4550: 20 5e 24     	jsr	$245e <textPrint>
    4553: a6 d5        	ldx	$d5                     ; 0xd5 <__zp_bss_size+0x61>
    4555: a5 d6        	lda	$d6                     ; 0xd6 <__zp_bss_size+0x62>
    4557: e8           	inx
    4558: d0 01        	bne	$455b <printf+0xa15>
    455a: 1a           	inc
    455b: 86 13        	stx	$13                     ; 0x13 <__rc3>
    455d: 86 d5        	stx	$d5                     ; 0xd5 <__zp_bss_size+0x61>
    455f: 85 d6        	sta	$d6                     ; 0xd6 <__zp_bss_size+0x62>
    4561: a2 00        	ldx	#$0
    4563: e4 2d        	cpx	$2d                     ; 0x2d <__rc29>
    4565: d0 09        	bne	$4570 <printf+0xa2a>
    4567: a4 24        	ldy	$24                     ; 0x24 <__rc20>
    4569: c4 2c        	cpy	$2c                     ; 0x2c <__rc28>
    456b: b0 0c        	bcs	$4579 <printf+0xa33>
    456d: 4c 07 45     	jmp	$4507 <printf+0x9c1>
    4570: e4 2d        	cpx	$2d                     ; 0x2d <__rc29>
    4572: a4 24        	ldy	$24                     ; 0x24 <__rc20>
    4574: b0 03        	bcs	$4579 <printf+0xa33>
    4576: 4c 07 45     	jmp	$4507 <printf+0x9c1>
    4579: 98           	tya
    457a: d0 03        	bne	$457f <printf+0xa39>
    457c: 4c 84 46     	jmp	$4684 <printf+0xb3e>
    457f: 88           	dey
    4580: d0 03        	bne	$4585 <printf+0xa3f>
    4582: 4c 19 46     	jmp	$4619 <printf+0xad3>
    4585: 84 2c        	sty	$2c                     ; 0x2c <__rc28>
    4587: ae 00 54     	ldx	$5400                   ; 0x5400 <__data_load_start+0x3ae>
    458a: 8a           	txa
    458b: 18           	clc
    458c: 65 2c        	adc	$2c                     ; 0x2c <__rc28>
    458e: 85 24        	sta	$24                     ; 0x24 <__rc20>
    4590: ad 01 54     	lda	$5401                   ; 0x5401 <__data_load_start+0x3af>
    4593: 69 00        	adc	#$0
    4595: 85 25        	sta	$25                     ; 0x25 <__rc21>
    4597: 4c 0b 46     	jmp	$460b <printf+0xac5>
    459a: a8           	tay
    459b: a9 80        	lda	#$80
    459d: 25 d1        	and	$d1                     ; 0xd1 <__zp_bss_size+0x5d>
    459f: f0 04        	beq	$45a5 <printf+0xa5f>
    45a1: a2 61        	ldx	#$61
    45a3: 80 02        	bra	$45a7 <printf+0xa61>
    45a5: a2 41        	ldx	#$41
    45a7: 86 12        	stx	$12                     ; 0x12 <__rc2>
    45a9: 18           	clc
    45aa: 98           	tya
    45ab: 65 12        	adc	$12                     ; 0x12 <__rc2>
    45ad: 18           	clc
    45ae: 69 f6        	adc	#$f6
    45b0: a4 d5        	ldy	$d5                     ; 0xd5 <__zp_bss_size+0x61>
    45b2: a6 d6        	ldx	$d6                     ; 0xd6 <__zp_bss_size+0x62>
    45b4: e4 d4        	cpx	$d4                     ; 0xd4 <__zp_bss_size+0x60>
    45b6: d0 0c        	bne	$45c4 <printf+0xa7e>
    45b8: 86 14        	stx	$14                     ; 0x14 <__rc4>
    45ba: a6 d3        	ldx	$d3                     ; 0xd3 <__zp_bss_size+0x5f>
    45bc: 86 12        	stx	$12                     ; 0x12 <__rc2>
    45be: c4 12        	cpy	$12                     ; 0x12 <__rc2>
    45c0: 90 08        	bcc	$45ca <printf+0xa84>
    45c2: 80 31        	bra	$45f5 <printf+0xaaf>
    45c4: 86 14        	stx	$14                     ; 0x14 <__rc4>
    45c6: e4 d4        	cpx	$d4                     ; 0xd4 <__zp_bss_size+0x60>
    45c8: b0 2b        	bcs	$45f5 <printf+0xaaf>
    45ca: a6 e0        	ldx	$e0                     ; 0xe0 <__zp_bss_size+0x6c>
    45cc: e4 27        	cpx	$27                     ; 0x27 <__rc23>
    45ce: d0 18        	bne	$45e8 <printf+0xaa2>
    45d0: a6 df        	ldx	$df                     ; 0xdf <__zp_bss_size+0x6b>
    45d2: e4 26        	cpx	$26                     ; 0x26 <__rc22>
    45d4: d0 12        	bne	$45e8 <printf+0xaa2>
    45d6: 18           	clc
    45d7: aa           	tax
    45d8: 98           	tya
    45d9: 65 d9        	adc	$d9                     ; 0xd9 <__zp_bss_size+0x65>
    45db: 85 12        	sta	$12                     ; 0x12 <__rc2>
    45dd: a5 14        	lda	$14                     ; 0x14 <__rc4>
    45df: 65 da        	adc	$da                     ; 0xda <__zp_bss_size+0x66>
    45e1: 85 13        	sta	$13                     ; 0x13 <__rc3>
    45e3: 8a           	txa
    45e4: 92 12        	sta	($12)                   ; 0x12 <__rc2>
    45e6: 80 0d        	bra	$45f5 <printf+0xaaf>
    45e8: 85 79        	sta	$79                     ; 0x79 <__putchar.s>
    45ea: a2 79        	ldx	#$79
    45ec: 86 12        	stx	$12                     ; 0x12 <__rc2>
    45ee: a2 00        	ldx	#$0
    45f0: 86 13        	stx	$13                     ; 0x13 <__rc3>
    45f2: 20 5e 24     	jsr	$245e <textPrint>
    45f5: e6 d5        	inc	$d5                     ; 0xd5 <__zp_bss_size+0x61>
    45f7: d0 02        	bne	$45fb <printf+0xab5>
    45f9: e6 d6        	inc	$d6                     ; 0xd6 <__zp_bss_size+0x62>
    45fb: c6 2c        	dec	$2c                     ; 0x2c <__rc28>
    45fd: a2 ff        	ldx	#$ff
    45ff: c6 24        	dec	$24                     ; 0x24 <__rc20>
    4601: e4 24        	cpx	$24                     ; 0x24 <__rc20>
    4603: d0 02        	bne	$4607 <printf+0xac1>
    4605: c6 25        	dec	$25                     ; 0x25 <__rc21>
    4607: a5 2c        	lda	$2c                     ; 0x2c <__rc28>
    4609: f0 0e        	beq	$4619 <printf+0xad3>
    460b: b2 24        	lda	($24)                   ; 0x24 <__rc20>
    460d: c9 0a        	cmp	#$a
    460f: 90 03        	bcc	$4614 <printf+0xace>
    4611: 4c 9a 45     	jmp	$459a <printf+0xa54>
    4614: 09 30        	ora	#$30
    4616: 4c b0 45     	jmp	$45b0 <printf+0xa6a>
    4619: a5 b2        	lda	$b2                     ; 0xb2 <__zp_bss_size+0x3e>
    461b: c9 0a        	cmp	#$a
    461d: b0 04        	bcs	$4623 <printf+0xadd>
    461f: 09 30        	ora	#$30
    4621: 80 16        	bra	$4639 <printf+0xaf3>
    4623: a8           	tay
    4624: a9 80        	lda	#$80
    4626: 25 d1        	and	$d1                     ; 0xd1 <__zp_bss_size+0x5d>
    4628: f0 04        	beq	$462e <printf+0xae8>
    462a: a2 61        	ldx	#$61
    462c: 80 02        	bra	$4630 <printf+0xaea>
    462e: a2 41        	ldx	#$41
    4630: 86 12        	stx	$12                     ; 0x12 <__rc2>
    4632: 18           	clc
    4633: 98           	tya
    4634: 65 12        	adc	$12                     ; 0x12 <__rc2>
    4636: 18           	clc
    4637: 69 f6        	adc	#$f6
    4639: a4 d5        	ldy	$d5                     ; 0xd5 <__zp_bss_size+0x61>
    463b: a6 d6        	ldx	$d6                     ; 0xd6 <__zp_bss_size+0x62>
    463d: e4 d4        	cpx	$d4                     ; 0xd4 <__zp_bss_size+0x60>
    463f: d0 0c        	bne	$464d <printf+0xb07>
    4641: 86 14        	stx	$14                     ; 0x14 <__rc4>
    4643: a6 d3        	ldx	$d3                     ; 0xd3 <__zp_bss_size+0x5f>
    4645: 86 12        	stx	$12                     ; 0x12 <__rc2>
    4647: c4 12        	cpy	$12                     ; 0x12 <__rc2>
    4649: 90 08        	bcc	$4653 <printf+0xb0d>
    464b: 80 31        	bra	$467e <printf+0xb38>
    464d: 86 14        	stx	$14                     ; 0x14 <__rc4>
    464f: e4 d4        	cpx	$d4                     ; 0xd4 <__zp_bss_size+0x60>
    4651: b0 2b        	bcs	$467e <printf+0xb38>
    4653: a6 e0        	ldx	$e0                     ; 0xe0 <__zp_bss_size+0x6c>
    4655: e4 27        	cpx	$27                     ; 0x27 <__rc23>
    4657: d0 18        	bne	$4671 <printf+0xb2b>
    4659: a6 df        	ldx	$df                     ; 0xdf <__zp_bss_size+0x6b>
    465b: e4 26        	cpx	$26                     ; 0x26 <__rc22>
    465d: d0 12        	bne	$4671 <printf+0xb2b>
    465f: 18           	clc
    4660: aa           	tax
    4661: 98           	tya
    4662: 65 d9        	adc	$d9                     ; 0xd9 <__zp_bss_size+0x65>
    4664: 85 12        	sta	$12                     ; 0x12 <__rc2>
    4666: a5 14        	lda	$14                     ; 0x14 <__rc4>
    4668: 65 da        	adc	$da                     ; 0xda <__zp_bss_size+0x66>
    466a: 85 13        	sta	$13                     ; 0x13 <__rc3>
    466c: 8a           	txa
    466d: 92 12        	sta	($12)                   ; 0x12 <__rc2>
    466f: 80 0d        	bra	$467e <printf+0xb38>
    4671: 85 79        	sta	$79                     ; 0x79 <__putchar.s>
    4673: a2 79        	ldx	#$79
    4675: 86 12        	stx	$12                     ; 0x12 <__rc2>
    4677: a2 00        	ldx	#$0
    4679: 86 13        	stx	$13                     ; 0x13 <__rc3>
    467b: 20 5e 24     	jsr	$245e <textPrint>
    467e: e6 d5        	inc	$d5                     ; 0xd5 <__zp_bss_size+0x61>
    4680: d0 02        	bne	$4684 <printf+0xb3e>
    4682: e6 d6        	inc	$d6                     ; 0xd6 <__zp_bss_size+0x62>
    4684: a5 d1        	lda	$d1                     ; 0xd1 <__zp_bss_size+0x5d>
    4686: 29 01        	and	#$1
    4688: d0 1e        	bne	$46a8 <printf+0xb62>
    468a: a6 d5        	ldx	$d5                     ; 0xd5 <__zp_bss_size+0x61>
    468c: 86 14        	stx	$14                     ; 0x14 <__rc4>
    468e: a5 d6        	lda	$d6                     ; 0xd6 <__zp_bss_size+0x62>
    4690: a4 d3        	ldy	$d3                     ; 0xd3 <__zp_bss_size+0x5f>
    4692: a6 d4        	ldx	$d4                     ; 0xd4 <__zp_bss_size+0x60>
    4694: 86 12        	stx	$12                     ; 0x12 <__rc2>
    4696: 86 13        	stx	$13                     ; 0x13 <__rc3>
    4698: c5 12        	cmp	$12                     ; 0x12 <__rc2>
    469a: f0 03        	beq	$469f <printf+0xb59>
    469c: 4c 35 47     	jmp	$4735 <printf+0xbef>
    469f: 84 12        	sty	$12                     ; 0x12 <__rc2>
    46a1: a6 14        	ldx	$14                     ; 0x14 <__rc4>
    46a3: e4 12        	cpx	$12                     ; 0x12 <__rc2>
    46a5: 4c 39 47     	jmp	$4739 <printf+0xbf3>
    46a8: a6 d5        	ldx	$d5                     ; 0xd5 <__zp_bss_size+0x61>
    46aa: 86 14        	stx	$14                     ; 0x14 <__rc4>
    46ac: a5 d6        	lda	$d6                     ; 0xd6 <__zp_bss_size+0x62>
    46ae: a6 2f        	ldx	$2f                     ; 0x2f <__rc31>
    46b0: a4 2e        	ldy	$2e                     ; 0x2e <__rc30>
    46b2: f0 03        	beq	$46b7 <printf+0xb71>
    46b4: 4c 21 47     	jmp	$4721 <printf+0xbdb>
    46b7: e0 00        	cpx	#$0
    46b9: f0 d5        	beq	$4690 <printf+0xb4a>
    46bb: 4c 21 47     	jmp	$4721 <printf+0xbdb>
    46be: c5 d4        	cmp	$d4                     ; 0xd4 <__zp_bss_size+0x60>
    46c0: b0 2e        	bcs	$46f0 <printf+0xbaa>
    46c2: a6 e0        	ldx	$e0                     ; 0xe0 <__zp_bss_size+0x6c>
    46c4: e4 27        	cpx	$27                     ; 0x27 <__rc23>
    46c6: d0 19        	bne	$46e1 <printf+0xb9b>
    46c8: a6 df        	ldx	$df                     ; 0xdf <__zp_bss_size+0x6b>
    46ca: e4 26        	cpx	$26                     ; 0x26 <__rc22>
    46cc: d0 13        	bne	$46e1 <printf+0xb9b>
    46ce: 18           	clc
    46cf: aa           	tax
    46d0: a5 14        	lda	$14                     ; 0x14 <__rc4>
    46d2: 65 d9        	adc	$d9                     ; 0xd9 <__zp_bss_size+0x65>
    46d4: 85 12        	sta	$12                     ; 0x12 <__rc2>
    46d6: 8a           	txa
    46d7: 65 da        	adc	$da                     ; 0xda <__zp_bss_size+0x66>
    46d9: 85 13        	sta	$13                     ; 0x13 <__rc3>
    46db: a9 20        	lda	#$20
    46dd: 92 12        	sta	($12)                   ; 0x12 <__rc2>
    46df: 80 0f        	bra	$46f0 <printf+0xbaa>
    46e1: a2 20        	ldx	#$20
    46e3: 86 79        	stx	$79                     ; 0x79 <__putchar.s>
    46e5: a2 79        	ldx	#$79
    46e7: 86 12        	stx	$12                     ; 0x12 <__rc2>
    46e9: a2 00        	ldx	#$0
    46eb: 86 13        	stx	$13                     ; 0x13 <__rc3>
    46ed: 20 5e 24     	jsr	$245e <textPrint>
    46f0: a6 d5        	ldx	$d5                     ; 0xd5 <__zp_bss_size+0x61>
    46f2: a5 d6        	lda	$d6                     ; 0xd6 <__zp_bss_size+0x62>
    46f4: e8           	inx
    46f5: d0 01        	bne	$46f8 <printf+0xbb2>
    46f7: 1a           	inc
    46f8: 86 14        	stx	$14                     ; 0x14 <__rc4>
    46fa: 86 d5        	stx	$d5                     ; 0xd5 <__zp_bss_size+0x61>
    46fc: 85 d6        	sta	$d6                     ; 0xd6 <__zp_bss_size+0x62>
    46fe: a6 2f        	ldx	$2f                     ; 0x2f <__rc31>
    4700: 86 12        	stx	$12                     ; 0x12 <__rc2>
    4702: a6 2e        	ldx	$2e                     ; 0x2e <__rc30>
    4704: 86 13        	stx	$13                     ; 0x13 <__rc3>
    4706: a2 ff        	ldx	#$ff
    4708: c6 12        	dec	$12                     ; 0x12 <__rc2>
    470a: e4 12        	cpx	$12                     ; 0x12 <__rc2>
    470c: d0 02        	bne	$4710 <printf+0xbca>
    470e: c6 13        	dec	$13                     ; 0x13 <__rc3>
    4710: a6 12        	ldx	$12                     ; 0x12 <__rc2>
    4712: 86 2f        	stx	$2f                     ; 0x2f <__rc31>
    4714: a6 13        	ldx	$13                     ; 0x13 <__rc3>
    4716: 86 2e        	stx	$2e                     ; 0x2e <__rc30>
    4718: d0 07        	bne	$4721 <printf+0xbdb>
    471a: a6 12        	ldx	$12                     ; 0x12 <__rc2>
    471c: d0 03        	bne	$4721 <printf+0xbdb>
    471e: 4c 90 46     	jmp	$4690 <printf+0xb4a>
    4721: c5 d4        	cmp	$d4                     ; 0xd4 <__zp_bss_size+0x60>
    4723: f0 03        	beq	$4728 <printf+0xbe2>
    4725: 4c be 46     	jmp	$46be <printf+0xb78>
    4728: a6 d3        	ldx	$d3                     ; 0xd3 <__zp_bss_size+0x5f>
    472a: 86 12        	stx	$12                     ; 0x12 <__rc2>
    472c: a6 14        	ldx	$14                     ; 0x14 <__rc4>
    472e: e4 12        	cpx	$12                     ; 0x12 <__rc2>
    4730: b0 be        	bcs	$46f0 <printf+0xbaa>
    4732: 4c c2 46     	jmp	$46c2 <printf+0xb7c>
    4735: 86 12        	stx	$12                     ; 0x12 <__rc2>
    4737: c5 12        	cmp	$12                     ; 0x12 <__rc2>
    4739: 98           	tya
    473a: a0 01        	ldy	#$1
    473c: 90 20        	bcc	$475e <printf+0xc18>
    473e: a6 13        	ldx	$13                     ; 0x13 <__rc3>
    4740: d0 03        	bne	$4745 <printf+0xbff>
    4742: aa           	tax
    4743: f0 19        	beq	$475e <printf+0xc18>
    4745: 18           	clc
    4746: 65 d9        	adc	$d9                     ; 0xd9 <__zp_bss_size+0x65>
    4748: 85 12        	sta	$12                     ; 0x12 <__rc2>
    474a: a5 13        	lda	$13                     ; 0x13 <__rc3>
    474c: 65 da        	adc	$da                     ; 0xda <__zp_bss_size+0x66>
    474e: 85 13        	sta	$13                     ; 0x13 <__rc3>
    4750: a2 ff        	ldx	#$ff
    4752: c6 12        	dec	$12                     ; 0x12 <__rc2>
    4754: e4 12        	cpx	$12                     ; 0x12 <__rc2>
    4756: d0 02        	bne	$475a <printf+0xc14>
    4758: c6 13        	dec	$13                     ; 0x13 <__rc3>
    475a: a9 00        	lda	#$0
    475c: 92 12        	sta	($12)                   ; 0x12 <__rc2>
    475e: e6 2a        	inc	$2a                     ; 0x2a <__rc26>
    4760: d0 02        	bne	$4764 <printf+0xc1e>
    4762: e6 2b        	inc	$2b                     ; 0x2b <__rc27>
    4764: a6 2b        	ldx	$2b                     ; 0x2b <__rc27>
    4766: e4 29        	cpx	$29                     ; 0x29 <__rc25>
    4768: f0 03        	beq	$476d <printf+0xc27>
    476a: 4c eb 3b     	jmp	$3beb <printf+0xa5>
    476d: a6 2a        	ldx	$2a                     ; 0x2a <__rc26>
    476f: e4 28        	cpx	$28                     ; 0x28 <__rc24>
    4771: f0 03        	beq	$4776 <printf+0xc30>
    4773: 4c eb 3b     	jmp	$3beb <printf+0xa5>
    4776: b2 28        	lda	($28)                   ; 0x28 <__rc24>
    4778: a2 00        	ldx	#$0
    477a: 86 26        	stx	$26                     ; 0x26 <__rc22>
    477c: a2 00        	ldx	#$0
    477e: 86 27        	stx	$27                     ; 0x27 <__rc23>
    4780: 4c ff 3b     	jmp	$3bff <printf+0xb9>
    4783: e4 2d        	cpx	$2d                     ; 0x2d <__rc29>
    4785: a6 25        	ldx	$25                     ; 0x25 <__rc21>
    4787: b0 03        	bcs	$478c <printf+0xc46>
    4789: 4c 54 42     	jmp	$4254 <printf+0x70e>
    478c: a5 24        	lda	$24                     ; 0x24 <__rc20>
    478e: 85 2c        	sta	$2c                     ; 0x2c <__rc28>
    4790: 64 2d        	stz	$2d                     ; 0x2d <__rc29>
    4792: e6 2c        	inc	$2c                     ; 0x2c <__rc28>
    4794: f0 03        	beq	$4799 <printf+0xc53>
    4796: 4c 54 42     	jmp	$4254 <printf+0x70e>
    4799: e6 2d        	inc	$2d                     ; 0x2d <__rc29>
    479b: 4c 54 42     	jmp	$4254 <printf+0x70e>
    479e: a2 58        	ldx	#$58
    47a0: 86 e6        	stx	$e6                     ; 0xe6 <__zp_bss_size+0x72>
    47a2: a2 01        	ldx	#$1
    47a4: 86 e3        	stx	$e3                     ; 0xe3 <__zp_bss_size+0x6f>
    47a6: a2 30        	ldx	#$30
    47a8: 86 e5        	stx	$e5                     ; 0xe5 <__zp_bss_size+0x71>
    47aa: a9 02        	lda	#$2
    47ac: a2 00        	ldx	#$0
    47ae: 86 e4        	stx	$e4                     ; 0xe4 <__zp_bss_size+0x70>
    47b0: 4c 95 42     	jmp	$4295 <printf+0x74f>
    47b3: 64 2f        	stz	$2f                     ; 0x2f <__rc31>
    47b5: 64 2e        	stz	$2e                     ; 0x2e <__rc30>
    47b7: 4c ed 44     	jmp	$44ed <printf+0x9a7>
    47ba: ae 09 54     	ldx	$5409                   ; 0x5409 <__data_load_start+0x3b7>
    47bd: 86 2f        	stx	$2f                     ; 0x2f <__rc31>
    47bf: ae 08 54     	ldx	$5408                   ; 0x5408 <__data_load_start+0x3b6>
    47c2: 86 2e        	stx	$2e                     ; 0x2e <__rc30>
    47c4: ae 07 54     	ldx	$5407                   ; 0x5407 <__data_load_start+0x3b5>
    47c7: 86 2d        	stx	$2d                     ; 0x2d <__rc29>
    47c9: ae 06 54     	ldx	$5406                   ; 0x5406 <__data_load_start+0x3b4>
    47cc: 86 2c        	stx	$2c                     ; 0x2c <__rc28>
    47ce: ae 05 54     	ldx	$5405                   ; 0x5405 <__data_load_start+0x3b3>
    47d1: 86 2b        	stx	$2b                     ; 0x2b <__rc27>
    47d3: ae 04 54     	ldx	$5404                   ; 0x5404 <__data_load_start+0x3b2>
    47d6: 86 2a        	stx	$2a                     ; 0x2a <__rc26>
    47d8: ae 03 54     	ldx	$5403                   ; 0x5403 <__data_load_start+0x3b1>
    47db: 86 29        	stx	$29                     ; 0x29 <__rc25>
    47dd: ae 02 54     	ldx	$5402                   ; 0x5402 <__data_load_start+0x3b0>
    47e0: 86 28        	stx	$28                     ; 0x28 <__rc24>
    47e2: fa           	plx
    47e3: 86 27        	stx	$27                     ; 0x27 <__rc23>
    47e5: fa           	plx
    47e6: 86 26        	stx	$26                     ; 0x26 <__rc22>
    47e8: fa           	plx
    47e9: 86 25        	stx	$25                     ; 0x25 <__rc21>
    47eb: fa           	plx
    47ec: 86 24        	stx	$24                     ; 0x24 <__rc20>
    47ee: 60           	rts

000047ef <malloc>:
    47ef: a8           	tay
    47f0: 8a           	txa
    47f1: a2 00        	ldx	#$0
    47f3: 86 12        	stx	$12                     ; 0x12 <__rc2>
    47f5: a2 00        	ldx	#$0
    47f7: 86 13        	stx	$13                     ; 0x13 <__rc3>
    47f9: aa           	tax
    47fa: d0 07        	bne	$4803 <malloc+0x14>
    47fc: c0 00        	cpy	#$0
    47fe: d0 03        	bne	$4803 <malloc+0x14>
    4800: 4c ff 48     	jmp	$48ff <malloc+0x110>
    4803: 84 16        	sty	$16                     ; 0x16 <__rc6>
    4805: aa           	tax
    4806: d0 0e        	bne	$4816 <malloc+0x27>
    4808: a6 16        	ldx	$16                     ; 0x16 <__rc6>
    480a: e0 07        	cpx	#$7
    480c: b0 0c        	bcs	$481a <malloc+0x2b>
    480e: a2 08        	ldx	#$8
    4810: 86 a4        	stx	$a4                     ; 0xa4 <__zp_bss_size+0x30>
    4812: a9 00        	lda	#$0
    4814: 80 2f        	bra	$4845 <malloc+0x56>
    4816: c9 00        	cmp	#$0
    4818: 90 f4        	bcc	$480e <malloc+0x1f>
    481a: a8           	tay
    481b: a5 16        	lda	$16                     ; 0x16 <__rc6>
    481d: 29 01        	and	#$1
    481f: a2 02        	ldx	#$2
    4821: 64 14        	stz	$14                     ; 0x14 <__rc4>
    4823: c9 00        	cmp	#$0
    4825: f0 02        	beq	$4829 <malloc+0x3a>
    4827: a2 03        	ldx	#$3
    4829: 86 15        	stx	$15                     ; 0x15 <__rc5>
    482b: 18           	clc
    482c: a5 16        	lda	$16                     ; 0x16 <__rc6>
    482e: 65 15        	adc	$15                     ; 0x15 <__rc5>
    4830: aa           	tax
    4831: 98           	tya
    4832: 65 14        	adc	$14                     ; 0x14 <__rc4>
    4834: 90 03        	bcc	$4839 <malloc+0x4a>
    4836: 4c ff 48     	jmp	$48ff <malloc+0x110>
    4839: 86 a4        	stx	$a4                     ; 0xa4 <__zp_bss_size+0x30>
    483b: a8           	tay
    483c: d0 07        	bne	$4845 <malloc+0x56>
    483e: e0 00        	cpx	#$0
    4840: d0 03        	bne	$4845 <malloc+0x56>
    4842: 4c ff 48     	jmp	$48ff <malloc+0x110>
    4845: 85 a5        	sta	$a5                     ; 0xa5 <__zp_bss_size+0x31>
    4847: ad e3 53     	lda	$53e3                   ; 0x53e3 <_ZN12_GLOBAL__N_111initializedE>
    484a: 29 01        	and	#$1
    484c: d0 2a        	bne	$4878 <malloc+0x89>
    484e: a9 00        	lda	#$0
    4850: a2 10        	ldx	#$10
    4852: a0 0a        	ldy	#$a
    4854: 84 12        	sty	$12                     ; 0x12 <__rc2>
    4856: a0 54        	ldy	#$54
    4858: 84 13        	sty	$13                     ; 0x13 <__rc3>
    485a: 20 16 03     	jsr	$316 <_ZN12_GLOBAL__N_19FreeChunk6insertEPvj>
    485d: a2 00        	ldx	#$0
    485f: 86 12        	stx	$12                     ; 0x12 <__rc2>
    4861: a2 00        	ldx	#$0
    4863: 86 13        	stx	$13                     ; 0x13 <__rc3>
    4865: ae 0b 54     	ldx	$540b                   ; 0x540b <end_block9+0x1>
    4868: a9 fe        	lda	#$fe
    486a: 2d 0a 54     	and	$540a                   ; 0x540a <end_block9>
    486d: 8d 0a 54     	sta	$540a                   ; 0x540a <end_block9>
    4870: 8e 0b 54     	stx	$540b                   ; 0x540b <end_block9+0x1>
    4873: a2 01        	ldx	#$1
    4875: 8e e3 53     	stx	$53e3                   ; 0x53e3 <_ZN12_GLOBAL__N_111initializedE>
    4878: ad e6 53     	lda	$53e6                   ; 0x53e6 <_ZN12_GLOBAL__N_19free_listE>
    487b: ae e7 53     	ldx	$53e7                   ; 0x53e7 <_ZN12_GLOBAL__N_19free_listE+0x1>
    487e: a0 00        	ldy	#$0
    4880: 84 14        	sty	$14                     ; 0x14 <__rc4>
    4882: a0 00        	ldy	#$0
    4884: 84 15        	sty	$15                     ; 0x15 <__rc5>
    4886: 86 1d        	stx	$1d                     ; 0x1d <__rc13>
    4888: e4 15        	cpx	$15                     ; 0x15 <__rc5>
    488a: d0 07        	bne	$4893 <malloc+0xa4>
    488c: c5 14        	cmp	$14                     ; 0x14 <__rc4>
    488e: d0 03        	bne	$4893 <malloc+0xa4>
    4890: 4c ff 48     	jmp	$48ff <malloc+0x110>
    4893: a0 00        	ldy	#$0
    4895: a2 10        	ldx	#$10
    4897: 85 18        	sta	$18                     ; 0x18 <__rc8>
    4899: 84 14        	sty	$14                     ; 0x14 <__rc4>
    489b: 86 15        	stx	$15                     ; 0x15 <__rc5>
    489d: 18           	clc
    489e: a9 0a        	lda	#$a
    48a0: 65 14        	adc	$14                     ; 0x14 <__rc4>
    48a2: 85 14        	sta	$14                     ; 0x14 <__rc4>
    48a4: a9 54        	lda	#$54
    48a6: 65 15        	adc	$15                     ; 0x15 <__rc5>
    48a8: a6 14        	ldx	$14                     ; 0x14 <__rc4>
    48aa: 86 a6        	stx	$a6                     ; 0xa6 <__zp_bss_size+0x32>
    48ac: 85 17        	sta	$17                     ; 0x17 <__rc7>
    48ae: a6 18        	ldx	$18                     ; 0x18 <__rc8>
    48b0: 86 1c        	stx	$1c                     ; 0x1c <__rc12>
    48b2: a6 18        	ldx	$18                     ; 0x18 <__rc8>
    48b4: 86 14        	stx	$14                     ; 0x14 <__rc4>
    48b6: a6 1d        	ldx	$1d                     ; 0x1d <__rc13>
    48b8: 86 15        	stx	$15                     ; 0x15 <__rc5>
    48ba: a0 01        	ldy	#$1
    48bc: a6 a5        	ldx	$a5                     ; 0xa5 <__zp_bss_size+0x31>
    48be: 86 18        	stx	$18                     ; 0x18 <__rc8>
    48c0: b1 14        	lda	($14),y                 ; 0x14 <__rc4>
    48c2: 85 19        	sta	$19                     ; 0x19 <__rc9>
    48c4: aa           	tax
    48c5: a9 fe        	lda	#$fe
    48c7: 32 14        	and	($14)                   ; 0x14 <__rc4>
    48c9: 85 1a        	sta	$1a                     ; 0x1a <__rc10>
    48cb: e4 18        	cpx	$18                     ; 0x18 <__rc8>
    48cd: d0 0a        	bne	$48d9 <malloc+0xea>
    48cf: a6 a4        	ldx	$a4                     ; 0xa4 <__zp_bss_size+0x30>
    48d1: 86 1b        	stx	$1b                     ; 0x1b <__rc11>
    48d3: c5 1b        	cmp	$1b                     ; 0x1b <__rc11>
    48d5: b0 29        	bcs	$4900 <malloc+0x111>
    48d7: 80 04        	bra	$48dd <malloc+0xee>
    48d9: e4 18        	cpx	$18                     ; 0x18 <__rc8>
    48db: b0 23        	bcs	$4900 <malloc+0x111>
    48dd: a5 14        	lda	$14                     ; 0x14 <__rc4>
    48df: 18           	clc
    48e0: 69 02        	adc	#$2
    48e2: 85 1a        	sta	$1a                     ; 0x1a <__rc10>
    48e4: a5 15        	lda	$15                     ; 0x15 <__rc5>
    48e6: 69 00        	adc	#$0
    48e8: 85 1b        	sta	$1b                     ; 0x1b <__rc11>
    48ea: a0 02        	ldy	#$2
    48ec: b1 14        	lda	($14),y                 ; 0x14 <__rc4>
    48ee: 85 14        	sta	$14                     ; 0x14 <__rc4>
    48f0: 88           	dey
    48f1: b1 1a        	lda	($1a),y                 ; 0x1a <__rc10>
    48f3: 85 15        	sta	$15                     ; 0x15 <__rc5>
    48f5: c5 1d        	cmp	$1d                     ; 0x1d <__rc13>
    48f7: d0 c7        	bne	$48c0 <malloc+0xd1>
    48f9: a5 14        	lda	$14                     ; 0x14 <__rc4>
    48fb: c5 1c        	cmp	$1c                     ; 0x1c <__rc12>
    48fd: d0 c1        	bne	$48c0 <malloc+0xd1>
    48ff: 60           	rts
    4900: ad e4 53     	lda	$53e4                   ; 0x53e4 <_ZN12_GLOBAL__N_19free_sizeE>
    4903: ae e5 53     	ldx	$53e5                   ; 0x53e5 <_ZN12_GLOBAL__N_19free_sizeE+0x1>
    4906: 86 12        	stx	$12                     ; 0x12 <__rc2>
    4908: 38           	sec
    4909: e5 1a        	sbc	$1a                     ; 0x1a <__rc10>
    490b: aa           	tax
    490c: a5 12        	lda	$12                     ; 0x12 <__rc2>
    490e: e5 19        	sbc	$19                     ; 0x19 <__rc9>
    4910: 85 12        	sta	$12                     ; 0x12 <__rc2>
    4912: 18           	clc
    4913: 8a           	txa
    4914: 69 02        	adc	#$2
    4916: 85 13        	sta	$13                     ; 0x13 <__rc3>
    4918: a5 12        	lda	$12                     ; 0x12 <__rc2>
    491a: 69 00        	adc	#$0
    491c: a6 13        	ldx	$13                     ; 0x13 <__rc3>
    491e: 8e e4 53     	stx	$53e4                   ; 0x53e4 <_ZN12_GLOBAL__N_19free_sizeE>
    4921: 8d e5 53     	sta	$53e5                   ; 0x53e5 <_ZN12_GLOBAL__N_19free_sizeE+0x1>
    4924: a0 02        	ldy	#$2
    4926: a5 14        	lda	$14                     ; 0x14 <__rc4>
    4928: 18           	clc
    4929: 69 02        	adc	#$2
    492b: 85 12        	sta	$12                     ; 0x12 <__rc2>
    492d: a5 15        	lda	$15                     ; 0x15 <__rc5>
    492f: 69 00        	adc	#$0
    4931: 85 13        	sta	$13                     ; 0x13 <__rc3>
    4933: b1 14        	lda	($14),y                 ; 0x14 <__rc4>
    4935: 85 1e        	sta	$1e                     ; 0x1e <__rc14>
    4937: 88           	dey
    4938: b1 12        	lda	($12),y                 ; 0x12 <__rc2>
    493a: 85 1f        	sta	$1f                     ; 0x1f <__rc15>
    493c: c5 15        	cmp	$15                     ; 0x15 <__rc5>
    493e: d0 15        	bne	$4955 <malloc+0x166>
    4940: a5 a5        	lda	$a5                     ; 0xa5 <__zp_bss_size+0x31>
    4942: a6 1e        	ldx	$1e                     ; 0x1e <__rc14>
    4944: e4 14        	cpx	$14                     ; 0x14 <__rc4>
    4946: d0 0d        	bne	$4955 <malloc+0x166>
    4948: 85 1a        	sta	$1a                     ; 0x1a <__rc10>
    494a: a2 00        	ldx	#$0
    494c: 86 18        	stx	$18                     ; 0x18 <__rc8>
    494e: a2 00        	ldx	#$0
    4950: 86 19        	stx	$19                     ; 0x19 <__rc9>
    4952: 4c cf 49     	jmp	$49cf <malloc+0x1e0>
    4955: 18           	clc
    4956: a5 14        	lda	$14                     ; 0x14 <__rc4>
    4958: 69 04        	adc	#$4
    495a: 85 18        	sta	$18                     ; 0x18 <__rc8>
    495c: a5 15        	lda	$15                     ; 0x15 <__rc5>
    495e: 69 00        	adc	#$0
    4960: 85 19        	sta	$19                     ; 0x19 <__rc9>
    4962: a0 04        	ldy	#$4
    4964: b1 14        	lda	($14),y                 ; 0x14 <__rc4>
    4966: 85 23        	sta	$23                     ; 0x23 <__rc19>
    4968: 18           	clc
    4969: 69 02        	adc	#$2
    496b: 85 1a        	sta	$1a                     ; 0x1a <__rc10>
    496d: a0 01        	ldy	#$1
    496f: b1 18        	lda	($18),y                 ; 0x18 <__rc8>
    4971: 85 22        	sta	$22                     ; 0x22 <__rc18>
    4973: 69 00        	adc	#$0
    4975: a6 1a        	ldx	$1a                     ; 0x1a <__rc10>
    4977: 86 18        	stx	$18                     ; 0x18 <__rc8>
    4979: 85 19        	sta	$19                     ; 0x19 <__rc9>
    497b: a6 23        	ldx	$23                     ; 0x23 <__rc19>
    497d: 86 1a        	stx	$1a                     ; 0x1a <__rc10>
    497f: a6 22        	ldx	$22                     ; 0x22 <__rc18>
    4981: 86 1b        	stx	$1b                     ; 0x1b <__rc11>
    4983: c8           	iny
    4984: a5 1e        	lda	$1e                     ; 0x1e <__rc14>
    4986: 91 1a        	sta	($1a),y                 ; 0x1a <__rc10>
    4988: a5 1f        	lda	$1f                     ; 0x1f <__rc15>
    498a: 88           	dey
    498b: 91 18        	sta	($18),y                 ; 0x18 <__rc8>
    498d: 18           	clc
    498e: a5 14        	lda	$14                     ; 0x14 <__rc4>
    4990: 69 02        	adc	#$2
    4992: 85 1a        	sta	$1a                     ; 0x1a <__rc10>
    4994: a5 15        	lda	$15                     ; 0x15 <__rc5>
    4996: 69 00        	adc	#$0
    4998: 85 1b        	sta	$1b                     ; 0x1b <__rc11>
    499a: c8           	iny
    499b: b1 14        	lda	($14),y                 ; 0x14 <__rc4>
    499d: 85 18        	sta	$18                     ; 0x18 <__rc8>
    499f: aa           	tax
    49a0: 88           	dey
    49a1: b1 1a        	lda	($1a),y                 ; 0x1a <__rc10>
    49a3: 85 19        	sta	$19                     ; 0x19 <__rc9>
    49a5: 85 16        	sta	$16                     ; 0x16 <__rc6>
    49a7: a0 04        	ldy	#$4
    49a9: a5 23        	lda	$23                     ; 0x23 <__rc19>
    49ab: 91 18        	sta	($18),y                 ; 0x18 <__rc8>
    49ad: 18           	clc
    49ae: 8a           	txa
    49af: 69 04        	adc	#$4
    49b1: 85 1a        	sta	$1a                     ; 0x1a <__rc10>
    49b3: a5 16        	lda	$16                     ; 0x16 <__rc6>
    49b5: 69 00        	adc	#$0
    49b7: 85 1b        	sta	$1b                     ; 0x1b <__rc11>
    49b9: a5 22        	lda	$22                     ; 0x22 <__rc18>
    49bb: a0 01        	ldy	#$1
    49bd: 91 1a        	sta	($1a),y                 ; 0x1a <__rc10>
    49bf: a5 a5        	lda	$a5                     ; 0xa5 <__zp_bss_size+0x31>
    49c1: 85 1a        	sta	$1a                     ; 0x1a <__rc10>
    49c3: a6 1d        	ldx	$1d                     ; 0x1d <__rc13>
    49c5: e4 15        	cpx	$15                     ; 0x15 <__rc5>
    49c7: d0 10        	bne	$49d9 <malloc+0x1ea>
    49c9: a6 1c        	ldx	$1c                     ; 0x1c <__rc12>
    49cb: e4 14        	cpx	$14                     ; 0x14 <__rc4>
    49cd: d0 0a        	bne	$49d9 <malloc+0x1ea>
    49cf: a6 18        	ldx	$18                     ; 0x18 <__rc8>
    49d1: a4 19        	ldy	$19                     ; 0x19 <__rc9>
    49d3: 8e e6 53     	stx	$53e6                   ; 0x53e6 <_ZN12_GLOBAL__N_19free_listE>
    49d6: 8c e7 53     	sty	$53e7                   ; 0x53e7 <_ZN12_GLOBAL__N_19free_listE+0x1>
    49d9: a0 01        	ldy	#$1
    49db: b1 14        	lda	($14),y                 ; 0x14 <__rc4>
    49dd: 85 16        	sta	$16                     ; 0x16 <__rc6>
    49df: a9 fe        	lda	#$fe
    49e1: 32 14        	and	($14)                   ; 0x14 <__rc4>
    49e3: 38           	sec
    49e4: a6 a4        	ldx	$a4                     ; 0xa4 <__zp_bss_size+0x30>
    49e6: 86 18        	stx	$18                     ; 0x18 <__rc8>
    49e8: a8           	tay
    49e9: e5 18        	sbc	$18                     ; 0x18 <__rc8>
    49eb: 85 19        	sta	$19                     ; 0x19 <__rc9>
    49ed: a5 16        	lda	$16                     ; 0x16 <__rc6>
    49ef: a6 16        	ldx	$16                     ; 0x16 <__rc6>
    49f1: e5 1a        	sbc	$1a                     ; 0x1a <__rc10>
    49f3: f0 03        	beq	$49f8 <malloc+0x209>
    49f5: 4c 83 4a     	jmp	$4a83 <malloc+0x294>
    49f8: 85 16        	sta	$16                     ; 0x16 <__rc6>
    49fa: a5 19        	lda	$19                     ; 0x19 <__rc9>
    49fc: c9 08        	cmp	#$8
    49fe: 86 18        	stx	$18                     ; 0x18 <__rc8>
    4a00: b0 03        	bcs	$4a05 <malloc+0x216>
    4a02: 4c 66 4a     	jmp	$4a66 <malloc+0x277>
    4a05: a6 17        	ldx	$17                     ; 0x17 <__rc7>
    4a07: 86 ab        	stx	$ab                     ; 0xab <__zp_bss_size+0x37>
    4a09: a6 a6        	ldx	$a6                     ; 0xa6 <__zp_bss_size+0x32>
    4a0b: 86 a6        	stx	$a6                     ; 0xa6 <__zp_bss_size+0x32>
    4a0d: a6 12        	ldx	$12                     ; 0x12 <__rc2>
    4a0f: 86 a7        	stx	$a7                     ; 0xa7 <__zp_bss_size+0x33>
    4a11: a6 13        	ldx	$13                     ; 0x13 <__rc3>
    4a13: 86 a8        	stx	$a8                     ; 0xa8 <__zp_bss_size+0x34>
    4a15: a8           	tay
    4a16: 18           	clc
    4a17: a5 a4        	lda	$a4                     ; 0xa4 <__zp_bss_size+0x30>
    4a19: 85 a4        	sta	$a4                     ; 0xa4 <__zp_bss_size+0x30>
    4a1b: 65 14        	adc	$14                     ; 0x14 <__rc4>
    4a1d: 85 12        	sta	$12                     ; 0x12 <__rc2>
    4a1f: a5 1a        	lda	$1a                     ; 0x1a <__rc10>
    4a21: a6 1a        	ldx	$1a                     ; 0x1a <__rc10>
    4a23: 86 a5        	stx	$a5                     ; 0xa5 <__zp_bss_size+0x31>
    4a25: 65 15        	adc	$15                     ; 0x15 <__rc5>
    4a27: 85 13        	sta	$13                     ; 0x13 <__rc3>
    4a29: a6 16        	ldx	$16                     ; 0x16 <__rc6>
    4a2b: 98           	tya
    4a2c: a4 14        	ldy	$14                     ; 0x14 <__rc4>
    4a2e: 84 a9        	sty	$a9                     ; 0xa9 <__zp_bss_size+0x35>
    4a30: a4 15        	ldy	$15                     ; 0x15 <__rc5>
    4a32: 84 aa        	sty	$aa                     ; 0xaa <__zp_bss_size+0x36>
    4a34: 20 16 03     	jsr	$316 <_ZN12_GLOBAL__N_19FreeChunk6insertEPvj>
    4a37: a6 a9        	ldx	$a9                     ; 0xa9 <__zp_bss_size+0x35>
    4a39: 86 14        	stx	$14                     ; 0x14 <__rc4>
    4a3b: a6 aa        	ldx	$aa                     ; 0xaa <__zp_bss_size+0x36>
    4a3d: 86 15        	stx	$15                     ; 0x15 <__rc5>
    4a3f: a5 a4        	lda	$a4                     ; 0xa4 <__zp_bss_size+0x30>
    4a41: 29 fe        	and	#$fe
    4a43: 85 12        	sta	$12                     ; 0x12 <__rc2>
    4a45: a0 01        	ldy	#$1
    4a47: 98           	tya
    4a48: 32 14        	and	($14)                   ; 0x14 <__rc4>
    4a4a: 05 12        	ora	$12                     ; 0x12 <__rc2>
    4a4c: 92 14        	sta	($14)                   ; 0x14 <__rc4>
    4a4e: a5 a5        	lda	$a5                     ; 0xa5 <__zp_bss_size+0x31>
    4a50: 91 14        	sta	($14),y                 ; 0x14 <__rc4>
    4a52: a4 12        	ldy	$12                     ; 0x12 <__rc2>
    4a54: 85 18        	sta	$18                     ; 0x18 <__rc8>
    4a56: a6 a7        	ldx	$a7                     ; 0xa7 <__zp_bss_size+0x33>
    4a58: 86 12        	stx	$12                     ; 0x12 <__rc2>
    4a5a: a6 a8        	ldx	$a8                     ; 0xa8 <__zp_bss_size+0x34>
    4a5c: 86 13        	stx	$13                     ; 0x13 <__rc3>
    4a5e: a6 a6        	ldx	$a6                     ; 0xa6 <__zp_bss_size+0x32>
    4a60: 86 a6        	stx	$a6                     ; 0xa6 <__zp_bss_size+0x32>
    4a62: a6 ab        	ldx	$ab                     ; 0xab <__zp_bss_size+0x37>
    4a64: 86 17        	stx	$17                     ; 0x17 <__rc7>
    4a66: 18           	clc
    4a67: 98           	tya
    4a68: 65 14        	adc	$14                     ; 0x14 <__rc4>
    4a6a: 85 16        	sta	$16                     ; 0x16 <__rc6>
    4a6c: a5 15        	lda	$15                     ; 0x15 <__rc5>
    4a6e: 65 18        	adc	$18                     ; 0x18 <__rc8>
    4a70: 85 15        	sta	$15                     ; 0x15 <__rc5>
    4a72: c5 17        	cmp	$17                     ; 0x17 <__rc7>
    4a74: d0 1a        	bne	$4a90 <malloc+0x2a1>
    4a76: a6 a6        	ldx	$a6                     ; 0xa6 <__zp_bss_size+0x32>
    4a78: 86 14        	stx	$14                     ; 0x14 <__rc4>
    4a7a: a6 16        	ldx	$16                     ; 0x16 <__rc6>
    4a7c: e4 14        	cpx	$14                     ; 0x14 <__rc4>
    4a7e: d0 12        	bne	$4a92 <malloc+0x2a3>
    4a80: 4c ff 48     	jmp	$48ff <malloc+0x110>
    4a83: 85 16        	sta	$16                     ; 0x16 <__rc6>
    4a85: c9 00        	cmp	#$0
    4a87: 86 18        	stx	$18                     ; 0x18 <__rc8>
    4a89: a5 19        	lda	$19                     ; 0x19 <__rc9>
    4a8b: 90 d9        	bcc	$4a66 <malloc+0x277>
    4a8d: 4c 05 4a     	jmp	$4a05 <malloc+0x216>
    4a90: a6 16        	ldx	$16                     ; 0x16 <__rc6>
    4a92: 86 14        	stx	$14                     ; 0x14 <__rc4>
    4a94: a0 01        	ldy	#$1
    4a96: b1 14        	lda	($14),y                 ; 0x14 <__rc4>
    4a98: 85 16        	sta	$16                     ; 0x16 <__rc6>
    4a9a: a9 fe        	lda	#$fe
    4a9c: 32 14        	and	($14)                   ; 0x14 <__rc4>
    4a9e: 92 14        	sta	($14)                   ; 0x14 <__rc4>
    4aa0: a5 16        	lda	$16                     ; 0x16 <__rc6>
    4aa2: 91 14        	sta	($14),y                 ; 0x14 <__rc4>
    4aa4: 60           	rts

00004aa5 <memcpy>:
    4aa5: a8           	tay
    4aa6: 8a           	txa
    4aa7: d0 03        	bne	$4aac <memcpy+0x7>
    4aa9: 98           	tya
    4aaa: f0 24        	beq	$4ad0 <memcpy+0x2b>
    4aac: a5 12        	lda	$12                     ; 0x12 <__rc2>
    4aae: 85 16        	sta	$16                     ; 0x16 <__rc6>
    4ab0: a5 13        	lda	$13                     ; 0x13 <__rc3>
    4ab2: 85 17        	sta	$17                     ; 0x17 <__rc7>
    4ab4: b2 14        	lda	($14)                   ; 0x14 <__rc4>
    4ab6: 92 16        	sta	($16)                   ; 0x16 <__rc6>
    4ab8: e6 16        	inc	$16                     ; 0x16 <__rc6>
    4aba: d0 02        	bne	$4abe <memcpy+0x19>
    4abc: e6 17        	inc	$17                     ; 0x17 <__rc7>
    4abe: e6 14        	inc	$14                     ; 0x14 <__rc4>
    4ac0: d0 02        	bne	$4ac4 <memcpy+0x1f>
    4ac2: e6 15        	inc	$15                     ; 0x15 <__rc5>
    4ac4: 88           	dey
    4ac5: c0 ff        	cpy	#$ff
    4ac7: d0 01        	bne	$4aca <memcpy+0x25>
    4ac9: ca           	dex
    4aca: 8a           	txa
    4acb: d0 e7        	bne	$4ab4 <memcpy+0xf>
    4acd: 98           	tya
    4ace: d0 e4        	bne	$4ab4 <memcpy+0xf>
    4ad0: 60           	rts

00004ad1 <__memset>:
    4ad1: a4 14        	ldy	$14                     ; 0x14 <__rc4>
    4ad3: d0 04        	bne	$4ad9 <__memset+0x8>
    4ad5: e0 00        	cpx	#$0
    4ad7: f0 17        	beq	$4af0 <__memset+0x1f>
    4ad9: 92 12        	sta	($12)                   ; 0x12 <__rc2>
    4adb: e6 12        	inc	$12                     ; 0x12 <__rc2>
    4add: d0 02        	bne	$4ae1 <__memset+0x10>
    4adf: e6 13        	inc	$13                     ; 0x13 <__rc3>
    4ae1: ca           	dex
    4ae2: e0 ff        	cpx	#$ff
    4ae4: d0 02        	bne	$4ae8 <__memset+0x17>
    4ae6: c6 14        	dec	$14                     ; 0x14 <__rc4>
    4ae8: a4 14        	ldy	$14                     ; 0x14 <__rc4>
    4aea: d0 ed        	bne	$4ad9 <__memset+0x8>
    4aec: e0 00        	cpx	#$0
    4aee: d0 e9        	bne	$4ad9 <__memset+0x8>
    4af0: 60           	rts

00004af1 <__ashlhi3>:
    4af1: 86 13        	stx	$13                     ; 0x13 <__rc3>
    4af3: a6 12        	ldx	$12                     ; 0x12 <__rc2>
    4af5: f0 0a        	beq	$4b01 <__ashlhi3+0x10>
    4af7: a6 12        	ldx	$12                     ; 0x12 <__rc2>
    4af9: ca           	dex
    4afa: 0a           	asl
    4afb: 26 13        	rol	$13                     ; 0x13 <__rc3>
    4afd: e0 00        	cpx	#$0
    4aff: d0 f8        	bne	$4af9 <__ashlhi3+0x8>
    4b01: a6 13        	ldx	$13                     ; 0x13 <__rc3>
    4b03: 60           	rts

00004b04 <__mulhi3>:
    4b04: a4 13        	ldy	$13                     ; 0x13 <__rc3>
    4b06: d0 04        	bne	$4b0c <__mulhi3+0x8>
    4b08: a4 12        	ldy	$12                     ; 0x12 <__rc2>
    4b0a: f0 25        	beq	$4b31 <__mulhi3+0x2d>
    4b0c: 85 14        	sta	$14                     ; 0x14 <__rc4>
    4b0e: 86 15        	stx	$15                     ; 0x15 <__rc5>
    4b10: a0 00        	ldy	#$0
    4b12: 98           	tya
    4b13: 46 13        	lsr	$13                     ; 0x13 <__rc3>
    4b15: 66 12        	ror	$12                     ; 0x12 <__rc2>
    4b17: 90 09        	bcc	$4b22 <__mulhi3+0x1e>
    4b19: aa           	tax
    4b1a: 98           	tya
    4b1b: 18           	clc
    4b1c: 65 14        	adc	$14                     ; 0x14 <__rc4>
    4b1e: a8           	tay
    4b1f: 8a           	txa
    4b20: 65 15        	adc	$15                     ; 0x15 <__rc5>
    4b22: 06 14        	asl	$14                     ; 0x14 <__rc4>
    4b24: 26 15        	rol	$15                     ; 0x15 <__rc5>
    4b26: a6 13        	ldx	$13                     ; 0x13 <__rc3>
    4b28: d0 e9        	bne	$4b13 <__mulhi3+0xf>
    4b2a: a6 12        	ldx	$12                     ; 0x12 <__rc2>
    4b2c: d0 e5        	bne	$4b13 <__mulhi3+0xf>
    4b2e: aa           	tax
    4b2f: 98           	tya
    4b30: 60           	rts
    4b31: a0 00        	ldy	#$0
    4b33: 98           	tya
    4b34: 80 f8        	bra	$4b2e <__mulhi3+0x2a>

00004b36 <__mulsi3>:
    4b36: a4 17        	ldy	$17                     ; 0x17 <__rc7>
    4b38: d0 0f        	bne	$4b49 <__mulsi3+0x13>
    4b3a: a4 16        	ldy	$16                     ; 0x16 <__rc6>
    4b3c: d0 0b        	bne	$4b49 <__mulsi3+0x13>
    4b3e: a4 15        	ldy	$15                     ; 0x15 <__rc5>
    4b40: d0 07        	bne	$4b49 <__mulsi3+0x13>
    4b42: a4 14        	ldy	$14                     ; 0x14 <__rc4>
    4b44: d0 03        	bne	$4b49 <__mulsi3+0x13>
    4b46: 4c 9d 4b     	jmp	$4b9d <__mulsi3+0x67>
    4b49: 85 18        	sta	$18                     ; 0x18 <__rc8>
    4b4b: 86 19        	stx	$19                     ; 0x19 <__rc9>
    4b4d: a0 00        	ldy	#$0
    4b4f: a2 00        	ldx	#$0
    4b51: 64 1a        	stz	$1a                     ; 0x1a <__rc10>
    4b53: 98           	tya
    4b54: 46 17        	lsr	$17                     ; 0x17 <__rc7>
    4b56: 66 16        	ror	$16                     ; 0x16 <__rc6>
    4b58: 66 15        	ror	$15                     ; 0x15 <__rc5>
    4b5a: 66 14        	ror	$14                     ; 0x14 <__rc4>
    4b5c: 90 15        	bcc	$4b73 <__mulsi3+0x3d>
    4b5e: 85 1b        	sta	$1b                     ; 0x1b <__rc11>
    4b60: 98           	tya
    4b61: 18           	clc
    4b62: 65 18        	adc	$18                     ; 0x18 <__rc8>
    4b64: a8           	tay
    4b65: 8a           	txa
    4b66: 65 19        	adc	$19                     ; 0x19 <__rc9>
    4b68: aa           	tax
    4b69: a5 1a        	lda	$1a                     ; 0x1a <__rc10>
    4b6b: 65 12        	adc	$12                     ; 0x12 <__rc2>
    4b6d: 85 1a        	sta	$1a                     ; 0x1a <__rc10>
    4b6f: a5 1b        	lda	$1b                     ; 0x1b <__rc11>
    4b71: 65 13        	adc	$13                     ; 0x13 <__rc3>
    4b73: 06 18        	asl	$18                     ; 0x18 <__rc8>
    4b75: 26 19        	rol	$19                     ; 0x19 <__rc9>
    4b77: 26 12        	rol	$12                     ; 0x12 <__rc2>
    4b79: 26 13        	rol	$13                     ; 0x13 <__rc3>
    4b7b: e6 17        	inc	$17                     ; 0x17 <__rc7>
    4b7d: c6 17        	dec	$17                     ; 0x17 <__rc7>
    4b7f: d0 d3        	bne	$4b54 <__mulsi3+0x1e>
    4b81: e6 16        	inc	$16                     ; 0x16 <__rc6>
    4b83: c6 16        	dec	$16                     ; 0x16 <__rc6>
    4b85: d0 cd        	bne	$4b54 <__mulsi3+0x1e>
    4b87: e6 15        	inc	$15                     ; 0x15 <__rc5>
    4b89: c6 15        	dec	$15                     ; 0x15 <__rc5>
    4b8b: d0 c7        	bne	$4b54 <__mulsi3+0x1e>
    4b8d: e6 14        	inc	$14                     ; 0x14 <__rc4>
    4b8f: c6 14        	dec	$14                     ; 0x14 <__rc4>
    4b91: d0 c1        	bne	$4b54 <__mulsi3+0x1e>
    4b93: 5a           	phy
    4b94: a4 1a        	ldy	$1a                     ; 0x1a <__rc10>
    4b96: 84 12        	sty	$12                     ; 0x12 <__rc2>
    4b98: 7a           	ply
    4b99: 85 13        	sta	$13                     ; 0x13 <__rc3>
    4b9b: 98           	tya
    4b9c: 60           	rts
    4b9d: a0 00        	ldy	#$0
    4b9f: a2 00        	ldx	#$0
    4ba1: 64 1a        	stz	$1a                     ; 0x1a <__rc10>
    4ba3: 98           	tya
    4ba4: 80 ed        	bra	$4b93 <__mulsi3+0x5d>

00004ba6 <__udivhi3>:
    4ba6: 64 14        	stz	$14                     ; 0x14 <__rc4>
    4ba8: a4 13        	ldy	$13                     ; 0x13 <__rc3>
    4baa: d0 04        	bne	$4bb0 <__udivhi3+0xa>
    4bac: a4 12        	ldy	$12                     ; 0x12 <__rc2>
    4bae: f0 0e        	beq	$4bbe <__udivhi3+0x18>
    4bb0: 85 17        	sta	$17                     ; 0x17 <__rc7>
    4bb2: 8a           	txa
    4bb3: e4 13        	cpx	$13                     ; 0x13 <__rc3>
    4bb5: d0 0e        	bne	$4bc5 <__udivhi3+0x1f>
    4bb7: a5 17        	lda	$17                     ; 0x17 <__rc7>
    4bb9: c5 12        	cmp	$12                     ; 0x12 <__rc2>
    4bbb: 8a           	txa
    4bbc: b0 0b        	bcs	$4bc9 <__udivhi3+0x23>
    4bbe: a2 00        	ldx	#$0
    4bc0: 86 bd        	stx	$bd                     ; 0xbd <__zp_bss_size+0x49>
    4bc2: 4c 61 4c     	jmp	$4c61 <__udivhi3+0xbb>
    4bc5: c5 13        	cmp	$13                     ; 0x13 <__rc3>
    4bc7: 90 f5        	bcc	$4bbe <__udivhi3+0x18>
    4bc9: a2 01        	ldx	#$1
    4bcb: 86 bd        	stx	$bd                     ; 0xbd <__zp_bss_size+0x49>
    4bcd: a6 13        	ldx	$13                     ; 0x13 <__rc3>
    4bcf: 10 03        	bpl	$4bd4 <__udivhi3+0x2e>
    4bd1: 4c 61 4c     	jmp	$4c61 <__udivhi3+0xbb>
    4bd4: a2 00        	ldx	#$0
    4bd6: a4 12        	ldy	$12                     ; 0x12 <__rc2>
    4bd8: 84 15        	sty	$15                     ; 0x15 <__rc5>
    4bda: a4 13        	ldy	$13                     ; 0x13 <__rc3>
    4bdc: 84 16        	sty	$16                     ; 0x16 <__rc6>
    4bde: 06 15        	asl	$15                     ; 0x15 <__rc5>
    4be0: 26 16        	rol	$16                     ; 0x16 <__rc6>
    4be2: c5 16        	cmp	$16                     ; 0x16 <__rc6>
    4be4: d0 08        	bne	$4bee <__udivhi3+0x48>
    4be6: a4 17        	ldy	$17                     ; 0x17 <__rc7>
    4be8: c4 15        	cpy	$15                     ; 0x15 <__rc5>
    4bea: 90 13        	bcc	$4bff <__udivhi3+0x59>
    4bec: 80 04        	bra	$4bf2 <__udivhi3+0x4c>
    4bee: c5 16        	cmp	$16                     ; 0x16 <__rc6>
    4bf0: 90 0d        	bcc	$4bff <__udivhi3+0x59>
    4bf2: e8           	inx
    4bf3: a4 15        	ldy	$15                     ; 0x15 <__rc5>
    4bf5: 84 12        	sty	$12                     ; 0x12 <__rc2>
    4bf7: a4 16        	ldy	$16                     ; 0x16 <__rc6>
    4bf9: 84 13        	sty	$13                     ; 0x13 <__rc3>
    4bfb: 10 e1        	bpl	$4bde <__udivhi3+0x38>
    4bfd: 80 08        	bra	$4c07 <__udivhi3+0x61>
    4bff: a4 12        	ldy	$12                     ; 0x12 <__rc2>
    4c01: 84 15        	sty	$15                     ; 0x15 <__rc5>
    4c03: a4 13        	ldy	$13                     ; 0x13 <__rc3>
    4c05: 84 16        	sty	$16                     ; 0x16 <__rc6>
    4c07: e0 00        	cpx	#$0
    4c09: d0 03        	bne	$4c0e <__udivhi3+0x68>
    4c0b: 4c 61 4c     	jmp	$4c61 <__udivhi3+0xbb>
    4c0e: 38           	sec
    4c0f: a8           	tay
    4c10: a5 17        	lda	$17                     ; 0x17 <__rc7>
    4c12: e5 15        	sbc	$15                     ; 0x15 <__rc5>
    4c14: 85 12        	sta	$12                     ; 0x12 <__rc2>
    4c16: 98           	tya
    4c17: e5 16        	sbc	$16                     ; 0x16 <__rc6>
    4c19: a0 01        	ldy	#$1
    4c1b: 84 bd        	sty	$bd                     ; 0xbd <__zp_bss_size+0x49>
    4c1d: 64 14        	stz	$14                     ; 0x14 <__rc4>
    4c1f: 46 16        	lsr	$16                     ; 0x16 <__rc6>
    4c21: 66 15        	ror	$15                     ; 0x15 <__rc5>
    4c23: a4 bd        	ldy	$bd                     ; 0xbd <__zp_bss_size+0x49>
    4c25: 84 13        	sty	$13                     ; 0x13 <__rc3>
    4c27: 06 13        	asl	$13                     ; 0x13 <__rc3>
    4c29: a0 01        	ldy	#$1
    4c2b: b0 02        	bcs	$4c2f <__udivhi3+0x89>
    4c2d: a0 00        	ldy	#$0
    4c2f: 84 17        	sty	$17                     ; 0x17 <__rc7>
    4c31: a4 13        	ldy	$13                     ; 0x13 <__rc3>
    4c33: 84 bd        	sty	$bd                     ; 0xbd <__zp_bss_size+0x49>
    4c35: c5 16        	cmp	$16                     ; 0x16 <__rc6>
    4c37: d0 22        	bne	$4c5b <__udivhi3+0xb5>
    4c39: a4 12        	ldy	$12                     ; 0x12 <__rc2>
    4c3b: c4 15        	cpy	$15                     ; 0x15 <__rc5>
    4c3d: 90 11        	bcc	$4c50 <__udivhi3+0xaa>
    4c3f: a8           	tay
    4c40: a5 bd        	lda	$bd                     ; 0xbd <__zp_bss_size+0x49>
    4c42: 09 01        	ora	#$1
    4c44: 85 bd        	sta	$bd                     ; 0xbd <__zp_bss_size+0x49>
    4c46: 38           	sec
    4c47: a5 12        	lda	$12                     ; 0x12 <__rc2>
    4c49: e5 15        	sbc	$15                     ; 0x15 <__rc5>
    4c4b: 85 12        	sta	$12                     ; 0x12 <__rc2>
    4c4d: 98           	tya
    4c4e: e5 16        	sbc	$16                     ; 0x16 <__rc6>
    4c50: a4 17        	ldy	$17                     ; 0x17 <__rc7>
    4c52: c0 01        	cpy	#$1
    4c54: 26 14        	rol	$14                     ; 0x14 <__rc4>
    4c56: ca           	dex
    4c57: d0 c6        	bne	$4c1f <__udivhi3+0x79>
    4c59: 80 06        	bra	$4c61 <__udivhi3+0xbb>
    4c5b: c5 16        	cmp	$16                     ; 0x16 <__rc6>
    4c5d: b0 e0        	bcs	$4c3f <__udivhi3+0x99>
    4c5f: 80 ef        	bra	$4c50 <__udivhi3+0xaa>
    4c61: a6 14        	ldx	$14                     ; 0x14 <__rc4>
    4c63: a5 bd        	lda	$bd                     ; 0xbd <__zp_bss_size+0x49>
    4c65: 60           	rts

00004c66 <__udivmodhi4>:
    4c66: 86 1a        	stx	$1a                     ; 0x1a <__rc10>
    4c68: 64 16        	stz	$16                     ; 0x16 <__rc6>
    4c6a: a4 13        	ldy	$13                     ; 0x13 <__rc3>
    4c6c: d0 04        	bne	$4c72 <__udivmodhi4+0xc>
    4c6e: a4 12        	ldy	$12                     ; 0x12 <__rc2>
    4c70: f0 08        	beq	$4c7a <__udivmodhi4+0x14>
    4c72: e4 13        	cpx	$13                     ; 0x13 <__rc3>
    4c74: d0 0d        	bne	$4c83 <__udivmodhi4+0x1d>
    4c76: c5 12        	cmp	$12                     ; 0x12 <__rc2>
    4c78: b0 0d        	bcs	$4c87 <__udivmodhi4+0x21>
    4c7a: a6 1a        	ldx	$1a                     ; 0x1a <__rc10>
    4c7c: 86 12        	stx	$12                     ; 0x12 <__rc2>
    4c7e: a2 00        	ldx	#$0
    4c80: 4c 2b 4d     	jmp	$4d2b <__udivmodhi4+0xc5>
    4c83: e4 13        	cpx	$13                     ; 0x13 <__rc3>
    4c85: 90 f3        	bcc	$4c7a <__udivmodhi4+0x14>
    4c87: a6 13        	ldx	$13                     ; 0x13 <__rc3>
    4c89: 10 03        	bpl	$4c8e <__udivmodhi4+0x28>
    4c8b: 4c 1e 4d     	jmp	$4d1e <__udivmodhi4+0xb8>
    4c8e: a2 00        	ldx	#$0
    4c90: a4 12        	ldy	$12                     ; 0x12 <__rc2>
    4c92: 84 17        	sty	$17                     ; 0x17 <__rc7>
    4c94: a4 13        	ldy	$13                     ; 0x13 <__rc3>
    4c96: 84 18        	sty	$18                     ; 0x18 <__rc8>
    4c98: 06 17        	asl	$17                     ; 0x17 <__rc7>
    4c9a: 26 18        	rol	$18                     ; 0x18 <__rc8>
    4c9c: a4 1a        	ldy	$1a                     ; 0x1a <__rc10>
    4c9e: c4 18        	cpy	$18                     ; 0x18 <__rc8>
    4ca0: d0 06        	bne	$4ca8 <__udivmodhi4+0x42>
    4ca2: c5 17        	cmp	$17                     ; 0x17 <__rc7>
    4ca4: b0 08        	bcs	$4cae <__udivmodhi4+0x48>
    4ca6: 80 13        	bra	$4cbb <__udivmodhi4+0x55>
    4ca8: a4 1a        	ldy	$1a                     ; 0x1a <__rc10>
    4caa: c4 18        	cpy	$18                     ; 0x18 <__rc8>
    4cac: 90 0d        	bcc	$4cbb <__udivmodhi4+0x55>
    4cae: e8           	inx
    4caf: a4 17        	ldy	$17                     ; 0x17 <__rc7>
    4cb1: 84 12        	sty	$12                     ; 0x12 <__rc2>
    4cb3: a4 18        	ldy	$18                     ; 0x18 <__rc8>
    4cb5: 84 13        	sty	$13                     ; 0x13 <__rc3>
    4cb7: 10 df        	bpl	$4c98 <__udivmodhi4+0x32>
    4cb9: 80 08        	bra	$4cc3 <__udivmodhi4+0x5d>
    4cbb: a4 12        	ldy	$12                     ; 0x12 <__rc2>
    4cbd: 84 17        	sty	$17                     ; 0x17 <__rc7>
    4cbf: a4 13        	ldy	$13                     ; 0x13 <__rc3>
    4cc1: 84 18        	sty	$18                     ; 0x18 <__rc8>
    4cc3: 38           	sec
    4cc4: e5 17        	sbc	$17                     ; 0x17 <__rc7>
    4cc6: a8           	tay
    4cc7: a5 1a        	lda	$1a                     ; 0x1a <__rc10>
    4cc9: e5 18        	sbc	$18                     ; 0x18 <__rc8>
    4ccb: 85 12        	sta	$12                     ; 0x12 <__rc2>
    4ccd: 8a           	txa
    4cce: d0 03        	bne	$4cd3 <__udivmodhi4+0x6d>
    4cd0: 4c 3a 4d     	jmp	$4d3a <__udivmodhi4+0xd4>
    4cd3: a9 01        	lda	#$1
    4cd5: 85 a4        	sta	$a4                     ; 0xa4 <__zp_bss_size+0x30>
    4cd7: 64 16        	stz	$16                     ; 0x16 <__rc6>
    4cd9: 98           	tya
    4cda: 46 18        	lsr	$18                     ; 0x18 <__rc8>
    4cdc: 66 17        	ror	$17                     ; 0x17 <__rc7>
    4cde: a4 a4        	ldy	$a4                     ; 0xa4 <__zp_bss_size+0x30>
    4ce0: 84 13        	sty	$13                     ; 0x13 <__rc3>
    4ce2: 06 13        	asl	$13                     ; 0x13 <__rc3>
    4ce4: a0 01        	ldy	#$1
    4ce6: b0 02        	bcs	$4cea <__udivmodhi4+0x84>
    4ce8: a0 00        	ldy	#$0
    4cea: 84 19        	sty	$19                     ; 0x19 <__rc9>
    4cec: a4 13        	ldy	$13                     ; 0x13 <__rc3>
    4cee: 84 a4        	sty	$a4                     ; 0xa4 <__zp_bss_size+0x30>
    4cf0: a4 12        	ldy	$12                     ; 0x12 <__rc2>
    4cf2: c4 18        	cpy	$18                     ; 0x18 <__rc8>
    4cf4: d0 22        	bne	$4d18 <__udivmodhi4+0xb2>
    4cf6: c5 17        	cmp	$17                     ; 0x17 <__rc7>
    4cf8: 90 13        	bcc	$4d0d <__udivmodhi4+0xa7>
    4cfa: a8           	tay
    4cfb: a5 a4        	lda	$a4                     ; 0xa4 <__zp_bss_size+0x30>
    4cfd: 09 01        	ora	#$1
    4cff: 85 a4        	sta	$a4                     ; 0xa4 <__zp_bss_size+0x30>
    4d01: 38           	sec
    4d02: 98           	tya
    4d03: e5 17        	sbc	$17                     ; 0x17 <__rc7>
    4d05: a8           	tay
    4d06: a5 12        	lda	$12                     ; 0x12 <__rc2>
    4d08: e5 18        	sbc	$18                     ; 0x18 <__rc8>
    4d0a: 85 12        	sta	$12                     ; 0x12 <__rc2>
    4d0c: 98           	tya
    4d0d: a4 19        	ldy	$19                     ; 0x19 <__rc9>
    4d0f: c0 01        	cpy	#$1
    4d11: 26 16        	rol	$16                     ; 0x16 <__rc6>
    4d13: ca           	dex
    4d14: d0 c4        	bne	$4cda <__udivmodhi4+0x74>
    4d16: 80 15        	bra	$4d2d <__udivmodhi4+0xc7>
    4d18: c4 18        	cpy	$18                     ; 0x18 <__rc8>
    4d1a: b0 de        	bcs	$4cfa <__udivmodhi4+0x94>
    4d1c: 80 ef        	bra	$4d0d <__udivmodhi4+0xa7>
    4d1e: 38           	sec
    4d1f: e5 12        	sbc	$12                     ; 0x12 <__rc2>
    4d21: aa           	tax
    4d22: a5 1a        	lda	$1a                     ; 0x1a <__rc10>
    4d24: e5 13        	sbc	$13                     ; 0x13 <__rc3>
    4d26: 85 12        	sta	$12                     ; 0x12 <__rc2>
    4d28: 8a           	txa
    4d29: a2 01        	ldx	#$1
    4d2b: 86 a4        	stx	$a4                     ; 0xa4 <__zp_bss_size+0x30>
    4d2d: 92 14        	sta	($14)                   ; 0x14 <__rc4>
    4d2f: a0 01        	ldy	#$1
    4d31: a5 12        	lda	$12                     ; 0x12 <__rc2>
    4d33: 91 14        	sta	($14),y                 ; 0x14 <__rc4>
    4d35: a6 16        	ldx	$16                     ; 0x16 <__rc6>
    4d37: a5 a4        	lda	$a4                     ; 0xa4 <__zp_bss_size+0x30>
    4d39: 60           	rts
    4d3a: a2 01        	ldx	#$1
    4d3c: 86 a4        	stx	$a4                     ; 0xa4 <__zp_bss_size+0x30>
    4d3e: 98           	tya
    4d3f: 80 ec        	bra	$4d2d <__udivmodhi4+0xc7>
