
modu.elf:	file format elf32-mos

SYMBOL TABLE:
00000000 l    df *ABS*	00000000 zero-bss.c
00000000 l    df *ABS*	00000000 zero-zp-bss.c
00000000 l    df *ABS*	00000000 copy-zp-data.c
00000000 l    df *ABS*	00000000 ld-temp.o
0000049e l     F .text	000003d3 f256Init
0000003c l     O .zp.bss	00000007 kernelEventData
00003653 l     O .rodata	00000030 textColors
00000043 l     O .zp.bss	00000001 _col
00000044 l     O .zp.bss	00000001 _row
00000045 l     O .zp.bss	00000001 _active
00000046 l     O .zp.bss	00000001 _color
000038d3 l     O .bss	0000000c _BITMAP_BASE
000038df l     O .bss	00000001 _BITMAP_CLUT.1
00000047 l     O .zp.bss	00000040 _spriteCtl
000038d2 l     O .bss	00000001 kernelError
00000877 l     F .text	00001ac0 f256main
00002882 l     F .text	0000008a bitmapClear
000030ef l     F .text	000002b6 malloc
000000df l     O .zp.bss	00000002 gPtr
00003845 l     O .rodata	0000002d sid_instrument_defs
00003062 l     F .text	00000088 sid_setInstrument
000026ca l     F .text	000001b8 textPrint
00003683 l     O .rodata	00000040 sidSpriteAction
000038e0 l     O .bss	000000a8 radios
00002b3f l     F .text	000000f9 setRadioB
00003988 l     O .bss	00000070 sliders
00002dae l     F .text	000002b4 updateSlider
000039f8 l     O .bss	00000085 sliders_labels
00002992 l     F .text	000000dd showGeneric
00003404 l     F .text	00000032 __mulhi3
0000290c l     F .text	00000086 spriteDefine
00000087 l     O .zp.bss	00000038 dials
00002c38 l     F .text	00000176 updateDial
000000bf l     O .zp.bss	00000001 diaAct.0
000000c0 l     O .zp.bss	00000001 sliAct.0
000000d6 l     O .zp.bss	00000009 polyOPL3Buffer
000000ca l     O .zp.bss	00000006 polySIDBuffer
000000d0 l     O .zp.bss	00000006 polyPSGBuffer
000036c3 l     O .rodata	00000058 noteColors
000000c1 l     O .zp.bss	00000002 mX
000000c3 l     O .zp.bss	00000002 mY
000000c6 l     O .zp.bss	00000001 chipAct.1
00003566 l     F .text	000000db __udivmodhi4
000037ad l     O .rodata	00000018 opl3_fnums
000000c9 l     O .zp.bss	00000001 chipAct.4
00000030 l     O .zp.data	00000006 sidChoiceToVoice
00003872 l     O .rodata	00000060 sidLow
00003727 l     O .rodata	00000060 sidHigh
000000c7 l     O .zp.bss	00000001 chipAct.2
00000036 l     O .zp.data	00000006 polyPSGChanBits
000037c5 l     O .rodata	00000040 psgLow
00003805 l     O .rodata	00000040 psgHigh
000000c8 l     O .zp.bss	00000001 chipAct.3
000000c5 l     O .zp.bss	00000001 chipAct.0
00002337 l     F .text	00000393 checkUIEClick
000033f1 l     F .text	00000013 __ashlhi3
00002a6f l     F .text	000000d0 updateRadioB
000034a6 l     F .text	000000c0 __udivhi3
00003436 l     F .text	00000070 __mulsi3
00003a7d l     O .bss	00000001 _ZN12_GLOBAL__N_111initializedE
00000324 l     F .text	0000013d _ZN12_GLOBAL__N_19FreeChunk6insertEPvj
00003a80 l     O .bss	00000002 _ZN12_GLOBAL__N_19free_listE
00003a7e l     O .bss	00000002 _ZN12_GLOBAL__N_19free_sizeE
00000871 g     F .text	00000006 main
00014000 g       .gui8	00000000 gui8_start
000303fc g       .pianopal	00000000 pianopal_end
00043000 g       .keys	00000000 keys_end
00015400 g       .pal	00000000 pal_end
00015000 g       .pal	00000000 pal_start
00030400 g       .keys	00000000 keys_start
00015000 g       .gui8	00000000 gui8_end
00014000 g       .gui16	00000000 gui16_end
00030000 g       .pianopal	00000000 pianopal_start
00010000 g       .gui16	00000000 gui16_start
00000320 g       .text	00000000 __after_main
0000030c g       .text	00000000 __do_init_stack
0000031a g       .text	00000000 __do_copy_zp_data
00000487 g     F .text	00000017 __copy_zp_data
00000314 g       .text	00000000 __do_zero_bss
00000461 g     F .text	00000013 __zero_bss
00000317 g       .text	00000000 __do_zero_zp_bss
00000474 g     F .text	00000013 __zero_zp_bss
000030ea g     F .text	00000005 exit
00000323 g       .text	00000000 _fini
000033d1  w    F .text	00000020 __memset
00001000  w      *ABS*	00000000 __heap_default_limit
00003a8c g       .noinit	00000000 __heap_start
000033a5  w    F .text	0000002c memcpy
00000010 g       *ABS*	00000000 __rc0
00000012 g       *ABS*	00000000 __rc2
00000014 g       *ABS*	00000000 __rc4
00000016 g       *ABS*	00000000 __rc6
00000018 g       *ABS*	00000000 __rc8
0000001a g       *ABS*	00000000 __rc10
0000001c g       *ABS*	00000000 __rc12
0000001e g       *ABS*	00000000 __rc14
00000020 g       *ABS*	00000000 __rc16
00000022 g       *ABS*	00000000 __rc18
00000024 g       *ABS*	00000000 __rc20
00000026 g       *ABS*	00000000 __rc22
00000028 g       *ABS*	00000000 __rc24
0000002a g       *ABS*	00000000 __rc26
0000002c g       *ABS*	00000000 __rc28
0000002e g       *ABS*	00000000 __rc30
0000002f g       *ABS*	00000000 __rc31
00000300 g       *ABS*	00000000 __f256_start
0000c000 g       *ABS*	00000000 __stack
0000c000 g       *ABS*	00000000 __SLOT_ADDR
0800c000 g       *ABS*	00000000 __block8_lma
00002000 g       *ABS*	00000000 __BLOCK_SIZE
0900c000 g       *ABS*	00000000 __block9_lma
0a00c000 g       *ABS*	00000000 __block10_lma
0b00c000 g       *ABS*	00000000 __block11_lma
0c00c000 g       *ABS*	00000000 __block12_lma
0d00c000 g       *ABS*	00000000 __block13_lma
0e00c000 g       *ABS*	00000000 __block14_lma
0f00c000 g       *ABS*	00000000 __block15_lma
1000c000 g       *ABS*	00000000 __block16_lma
1100c000 g       *ABS*	00000000 __block17_lma
1200c000 g       *ABS*	00000000 __block18_lma
1300c000 g       *ABS*	00000000 __block19_lma
1400c000 g       *ABS*	00000000 __block20_lma
1500c000 g       *ABS*	00000000 __block21_lma
1600c000 g       *ABS*	00000000 __block22_lma
1700c000 g       *ABS*	00000000 __block23_lma
00010000 g       *ABS*	00000000 __gui16_lma
00004000 g       *ABS*	00000000 __gui16_size
00014000 g       *ABS*	00000000 __gui8_lma
00001000 g       *ABS*	00000000 __gui8_size
00015000 g       *ABS*	00000000 __pal_lma
00000400 g       *ABS*	00000000 __pal_size
00030000 g       *ABS*	00000000 __pianopal_lma
000003fc g       *ABS*	00000000 __pianopal_size
00030400 g       *ABS*	00000000 __keys_lma
00012c00 g       *ABS*	00000000 __keys_size
000038d2 g       .bss	00000000 __bss_start
00014000 g       .gui16	00000000 end_gui16
00015000 g       .gui8	00000000 end_gui8
00015400 g       .pal	00000000 end_pal
000303fc g       .pianopal	00000000 end_pianopal
00043000 g       .keys	00000000 end_keys
0000030c g       .text	00000000 _start
0000002d g       *ABS*	00000000 __rc29
0000002b g       *ABS*	00000000 __rc27
00000029 g       *ABS*	00000000 __rc25
00000027 g       *ABS*	00000000 __rc23
00000025 g       *ABS*	00000000 __rc21
00000023 g       *ABS*	00000000 __rc19
00000021 g       *ABS*	00000000 __rc17
0000001f g       *ABS*	00000000 __rc15
0000001d g       *ABS*	00000000 __rc13
0000001b g       *ABS*	00000000 __rc11
00000019 g       *ABS*	00000000 __rc9
00000017 g       *ABS*	00000000 __rc7
00000015 g       *ABS*	00000000 __rc5
00000013 g       *ABS*	00000000 __rc3
00000011 g       *ABS*	00000000 __rc1
00000030 g       .zp.data	00000000 __zp_data_start
00000300 g       *ABS*	00000000 __zp_data_load_start
0000000c g       *ABS*	00000000 __zp_data_size
0000003c g       .zp.bss	00000000 __zp_bss_start
000000a5 g       *ABS*	00000000 __zp_bss_size
0000030c g       .text	00000000 _init
00003641 g       .text	00000000 __init_array_start
00003641 g       .text	00000000 __init_array_end
00003641 g       .text	00000000 __fini_array_start
00003641 g       .text	00000000 __fini_array_end
000038d2 g       .data	00000000 __data_start
000038d2 g       .data	00000000 __data_end
000038d2 g       *ABS*	00000000 __data_load_start
00000000 g       *ABS*	00000000 __data_size
00003a82 g       .bss	00000000 __bss_end
000001b0 g       *ABS*	00000000 __bss_size
00003a8b g       .noinit	00000000 end_block8
00003a8b g       .noinit	00000000 end_block9
00003a8b g       .noinit	00000000 end_block10
00003a8b g       .noinit	00000000 end_block11
00003a8b g       .noinit	00000000 end_block12
00003a8b g       .noinit	00000000 end_block13
00003a8b g       .noinit	00000000 end_block14
00003a8b g       .noinit	00000000 end_block15
00003a8b g       .noinit	00000000 end_block16
00003a8b g       .noinit	00000000 end_block17
00003a8b g       .noinit	00000000 end_block18
00003a8b g       .noinit	00000000 end_block19
00003a8b g       .noinit	00000000 end_block20
00003a8b g       .noinit	00000000 end_block21
00003a8b g       .noinit	00000000 end_block22
00003a8b g       .noinit	00000000 end_block23

Disassembly of section .text:

0000030c <_start>:
     30c: a9 00        	lda	#$0
     30e: 85 10        	sta	$10                     ; 0x2010 <f256main+0x1799>
     310: a9 c0        	lda	#$c0
     312: 85 11        	sta	$11                     ; 0x2011 <f256main+0x179a>

00000314 <__do_zero_bss>:
     314: 20 61 04     	jsr	$461 <__zero_bss>

00000317 <__do_zero_zp_bss>:
     317: 20 74 04     	jsr	$474 <__zero_zp_bss>

0000031a <__do_copy_zp_data>:
     31a: 20 87 04     	jsr	$487 <__copy_zp_data>
     31d: 20 71 08     	jsr	$871 <main>

00000320 <__after_main>:
     320: 4c ea 30     	jmp	$30ea <exit>

00000323 <_fini>:
     323: 60           	rts

00000324 <_ZN12_GLOBAL__N_19FreeChunk6insertEPvj>:
     324: 85 16        	sta	$16                     ; 0x2016 <f256main+0x179f>
     326: 29 fe        	and	#$fe
     328: 85 14        	sta	$14                     ; 0x2014 <f256main+0x179d>
     32a: a0 01        	ldy	#$1
     32c: 98           	tya
     32d: 32 12        	and	($12)                   ; 0x2012 <f256main+0x179b>
     32f: 05 14        	ora	$14                     ; 0x2014 <f256main+0x179d>
     331: 92 12        	sta	($12)                   ; 0x2012 <f256main+0x179b>
     333: a5 12        	lda	$12                     ; 0x2012 <f256main+0x179b>
     335: 18           	clc
     336: 65 14        	adc	$14                     ; 0x2014 <f256main+0x179d>
     338: 85 15        	sta	$15                     ; 0x2015 <f256main+0x179e>
     33a: 8a           	txa
     33b: 65 13        	adc	$13                     ; 0x2013 <f256main+0x179c>
     33d: 85 14        	sta	$14                     ; 0x2014 <f256main+0x179d>
     33f: 18           	clc
     340: a5 15        	lda	$15                     ; 0x2015 <f256main+0x179e>
     342: 69 fe        	adc	#$fe
     344: 85 17        	sta	$17                     ; 0x2017 <f256main+0x17a0>
     346: a5 14        	lda	$14                     ; 0x2014 <f256main+0x179d>
     348: 69 ff        	adc	#$ff
     34a: 85 15        	sta	$15                     ; 0x2015 <f256main+0x179e>
     34c: a5 17        	lda	$17                     ; 0x2017 <f256main+0x17a0>
     34e: 85 14        	sta	$14                     ; 0x2014 <f256main+0x179d>
     350: 8a           	txa
     351: 91 12        	sta	($12),y                 ; 0x2012 <f256main+0x179b>
     353: a5 16        	lda	$16                     ; 0x2016 <f256main+0x179f>
     355: 92 14        	sta	($14)                   ; 0x2014 <f256main+0x179d>
     357: 8a           	txa
     358: 91 14        	sta	($14),y                 ; 0x2014 <f256main+0x179d>
     35a: b1 12        	lda	($12),y                 ; 0x2012 <f256main+0x179b>
     35c: 85 14        	sta	$14                     ; 0x2014 <f256main+0x179d>
     35e: a9 fe        	lda	#$fe
     360: 32 12        	and	($12)                   ; 0x2012 <f256main+0x179b>
     362: 18           	clc
     363: 6d 7e 3a     	adc	$3a7e                   ; 0x3a7e <_ZN12_GLOBAL__N_19free_sizeE>
     366: aa           	tax
     367: a5 14        	lda	$14                     ; 0x2014 <f256main+0x179d>
     369: 6d 7f 3a     	adc	$3a7f                   ; 0x3a7f <_ZN12_GLOBAL__N_19free_sizeE+0x1>
     36c: a8           	tay
     36d: 18           	clc
     36e: 8a           	txa
     36f: 69 fe        	adc	#$fe
     371: aa           	tax
     372: 98           	tya
     373: 69 ff        	adc	#$ff
     375: 8e 7e 3a     	stx	$3a7e                   ; 0x3a7e <_ZN12_GLOBAL__N_19free_sizeE>
     378: 8d 7f 3a     	sta	$3a7f                   ; 0x3a7f <_ZN12_GLOBAL__N_19free_sizeE+0x1>
     37b: ae 80 3a     	ldx	$3a80                   ; 0x3a80 <_ZN12_GLOBAL__N_19free_listE>
     37e: 86 16        	stx	$16                     ; 0x2016 <f256main+0x179f>
     380: ac 81 3a     	ldy	$3a81                   ; 0x3a81 <_ZN12_GLOBAL__N_19free_listE+0x1>
     383: a2 00        	ldx	#$0
     385: 86 14        	stx	$14                     ; 0x2014 <f256main+0x179d>
     387: a2 00        	ldx	#$0
     389: 86 15        	stx	$15                     ; 0x2015 <f256main+0x179e>
     38b: c4 15        	cpy	$15                     ; 0x2015 <f256main+0x179e>
     38d: d0 3e        	bne	$3cd <_ZN12_GLOBAL__N_19FreeChunk6insertEPvj+0xa9>
     38f: a6 16        	ldx	$16                     ; 0x2016 <f256main+0x179f>
     391: e4 14        	cpx	$14                     ; 0x2014 <f256main+0x179d>
     393: d0 38        	bne	$3cd <_ZN12_GLOBAL__N_19FreeChunk6insertEPvj+0xa9>
     395: a0 04        	ldy	#$4
     397: a5 12        	lda	$12                     ; 0x2012 <f256main+0x179b>
     399: 18           	clc
     39a: 69 04        	adc	#$4
     39c: 85 14        	sta	$14                     ; 0x2014 <f256main+0x179d>
     39e: a5 13        	lda	$13                     ; 0x2013 <f256main+0x179c>
     3a0: 69 00        	adc	#$0
     3a2: 18           	clc
     3a3: 85 15        	sta	$15                     ; 0x2015 <f256main+0x179e>
     3a5: a5 12        	lda	$12                     ; 0x2012 <f256main+0x179b>
     3a7: 91 12        	sta	($12),y                 ; 0x2012 <f256main+0x179b>
     3a9: a0 02        	ldy	#$2
     3ab: 85 17        	sta	$17                     ; 0x2017 <f256main+0x17a0>
     3ad: 69 02        	adc	#$2
     3af: 85 16        	sta	$16                     ; 0x2016 <f256main+0x179f>
     3b1: a5 17        	lda	$17                     ; 0x2017 <f256main+0x17a0>
     3b3: 91 12        	sta	($12),y                 ; 0x2012 <f256main+0x179b>
     3b5: a5 13        	lda	$13                     ; 0x2013 <f256main+0x179c>
     3b7: 69 00        	adc	#$0
     3b9: 85 17        	sta	$17                     ; 0x2017 <f256main+0x17a0>
     3bb: 88           	dey
     3bc: a5 13        	lda	$13                     ; 0x2013 <f256main+0x179c>
     3be: 91 14        	sta	($14),y                 ; 0x2014 <f256main+0x179d>
     3c0: 91 16        	sta	($16),y                 ; 0x2016 <f256main+0x179f>
     3c2: a6 12        	ldx	$12                     ; 0x2012 <f256main+0x179b>
     3c4: 8e 80 3a     	stx	$3a80                   ; 0x3a80 <_ZN12_GLOBAL__N_19free_listE>
     3c7: a6 13        	ldx	$13                     ; 0x2013 <f256main+0x179c>
     3c9: 8e 81 3a     	stx	$3a81                   ; 0x3a81 <_ZN12_GLOBAL__N_19free_listE+0x1>
     3cc: 60           	rts
     3cd: a6 12        	ldx	$12                     ; 0x2012 <f256main+0x179b>
     3cf: a5 12        	lda	$12                     ; 0x2012 <f256main+0x179b>
     3d1: 18           	clc
     3d2: 69 02        	adc	#$2
     3d4: 85 14        	sta	$14                     ; 0x2014 <f256main+0x179d>
     3d6: 84 18        	sty	$18                     ; 0x2018 <f256main+0x17a1>
     3d8: a5 13        	lda	$13                     ; 0x2013 <f256main+0x179c>
     3da: 69 00        	adc	#$0
     3dc: 85 15        	sta	$15                     ; 0x2015 <f256main+0x179e>
     3de: a5 16        	lda	$16                     ; 0x2016 <f256main+0x179f>
     3e0: 84 17        	sty	$17                     ; 0x2017 <f256main+0x17a0>
     3e2: a0 02        	ldy	#$2
     3e4: 91 12        	sta	($12),y                 ; 0x2012 <f256main+0x179b>
     3e6: 85 19        	sta	$19                     ; 0x2019 <f256main+0x17a2>
     3e8: 88           	dey
     3e9: a5 18        	lda	$18                     ; 0x2018 <f256main+0x17a1>
     3eb: 91 14        	sta	($14),y                 ; 0x2014 <f256main+0x179d>
     3ed: 18           	clc
     3ee: a5 19        	lda	$19                     ; 0x2019 <f256main+0x17a2>
     3f0: 69 04        	adc	#$4
     3f2: a8           	tay
     3f3: a5 18        	lda	$18                     ; 0x2018 <f256main+0x17a1>
     3f5: 69 00        	adc	#$0
     3f7: 85 19        	sta	$19                     ; 0x2019 <f256main+0x17a2>
     3f9: 84 18        	sty	$18                     ; 0x2018 <f256main+0x17a1>
     3fb: 8a           	txa
     3fc: 18           	clc
     3fd: 69 04        	adc	#$4
     3ff: 85 1a        	sta	$1a                     ; 0x201a <f256main+0x17a3>
     401: a5 13        	lda	$13                     ; 0x2013 <f256main+0x179c>
     403: 69 00        	adc	#$0
     405: 85 1b        	sta	$1b                     ; 0x201b <f256main+0x17a4>
     407: a0 04        	ldy	#$4
     409: b1 16        	lda	($16),y                 ; 0x2016 <f256main+0x179f>
     40b: 85 16        	sta	$16                     ; 0x2016 <f256main+0x179f>
     40d: 85 1d        	sta	$1d                     ; 0x201d <f256main+0x17a6>
     40f: a0 01        	ldy	#$1
     411: b1 18        	lda	($18),y                 ; 0x2018 <f256main+0x17a1>
     413: 85 17        	sta	$17                     ; 0x2017 <f256main+0x17a0>
     415: 85 19        	sta	$19                     ; 0x2019 <f256main+0x17a2>
     417: a0 04        	ldy	#$4
     419: a5 1d        	lda	$1d                     ; 0x201d <f256main+0x17a6>
     41b: 91 12        	sta	($12),y                 ; 0x2012 <f256main+0x179b>
     41d: a5 19        	lda	$19                     ; 0x2019 <f256main+0x17a2>
     41f: a0 01        	ldy	#$1
     421: 91 1a        	sta	($1a),y                 ; 0x201a <f256main+0x17a3>
     423: 18           	clc
     424: a5 1d        	lda	$1d                     ; 0x201d <f256main+0x17a6>
     426: 69 02        	adc	#$2
     428: 85 18        	sta	$18                     ; 0x2018 <f256main+0x17a1>
     42a: a5 19        	lda	$19                     ; 0x2019 <f256main+0x17a2>
     42c: 69 00        	adc	#$0
     42e: 85 19        	sta	$19                     ; 0x2019 <f256main+0x17a2>
     430: 8a           	txa
     431: c8           	iny
     432: 91 16        	sta	($16),y                 ; 0x2016 <f256main+0x179f>
     434: a5 13        	lda	$13                     ; 0x2013 <f256main+0x179c>
     436: 88           	dey
     437: 91 18        	sta	($18),y                 ; 0x2018 <f256main+0x17a1>
     439: c8           	iny
     43a: b1 12        	lda	($12),y                 ; 0x2012 <f256main+0x179b>
     43c: 85 16        	sta	$16                     ; 0x2016 <f256main+0x179f>
     43e: 85 18        	sta	$18                     ; 0x2018 <f256main+0x17a1>
     440: 88           	dey
     441: b1 14        	lda	($14),y                 ; 0x2014 <f256main+0x179d>
     443: 85 17        	sta	$17                     ; 0x2017 <f256main+0x17a0>
     445: 85 14        	sta	$14                     ; 0x2014 <f256main+0x179d>
     447: 8a           	txa
     448: a0 04        	ldy	#$4
     44a: 91 16        	sta	($16),y                 ; 0x2016 <f256main+0x179f>
     44c: 18           	clc
     44d: a5 18        	lda	$18                     ; 0x2018 <f256main+0x17a1>
     44f: 69 04        	adc	#$4
     451: a8           	tay
     452: a5 14        	lda	$14                     ; 0x2014 <f256main+0x179d>
     454: 69 00        	adc	#$0
     456: 84 14        	sty	$14                     ; 0x2014 <f256main+0x179d>
     458: 85 15        	sta	$15                     ; 0x2015 <f256main+0x179e>
     45a: a5 13        	lda	$13                     ; 0x2013 <f256main+0x179c>
     45c: a0 01        	ldy	#$1
     45e: 91 14        	sta	($14),y                 ; 0x2014 <f256main+0x179d>
     460: 60           	rts

00000461 <__zero_bss>:
     461: a2 b0        	ldx	#$b0
     463: a0 01        	ldy	#$1
     465: a9 d2        	lda	#$d2
     467: 85 12        	sta	$12                     ; 0x2012 <f256main+0x179b>
     469: a9 38        	lda	#$38
     46b: 85 13        	sta	$13                     ; 0x2013 <f256main+0x179c>
     46d: a9 00        	lda	#$0
     46f: 84 14        	sty	$14                     ; 0x2014 <f256main+0x179d>
     471: 4c d1 33     	jmp	$33d1 <__memset>

00000474 <__zero_zp_bss>:
     474: a2 a5        	ldx	#$a5
     476: a0 00        	ldy	#$0
     478: a9 3c        	lda	#$3c
     47a: 85 12        	sta	$12                     ; 0x2012 <f256main+0x179b>
     47c: a9 00        	lda	#$0
     47e: 85 13        	sta	$13                     ; 0x2013 <f256main+0x179c>
     480: a9 00        	lda	#$0
     482: 84 14        	sty	$14                     ; 0x2014 <f256main+0x179d>
     484: 4c d1 33     	jmp	$33d1 <__memset>

00000487 <__copy_zp_data>:
     487: a9 0c        	lda	#$c
     489: a2 00        	ldx	#$0
     48b: a0 30        	ldy	#$30
     48d: 84 12        	sty	$12                     ; 0x2012 <f256main+0x179b>
     48f: a0 00        	ldy	#$0
     491: 84 13        	sty	$13                     ; 0x2013 <f256main+0x179c>
     493: a0 00        	ldy	#$0
     495: 84 14        	sty	$14                     ; 0x2014 <f256main+0x179d>
     497: a0 03        	ldy	#$3
     499: 84 15        	sty	$15                     ; 0x2015 <f256main+0x179e>
     49b: 4c a5 33     	jmp	$33a5 <memcpy>

0000049e <f256Init>:
     49e: 64 14        	stz	$14                     ; 0x2014 <f256main+0x179d>
     4a0: a2 00        	ldx	#$0
     4a2: 86 12        	stx	$12                     ; 0x2012 <f256main+0x179b>
     4a4: a2 c0        	ldx	#$c0
     4a6: 86 13        	stx	$13                     ; 0x2013 <f256main+0x179c>
     4a8: 64 01        	stz	$1                      ; 0x2001 <f256main+0x178a>
     4aa: a2 3f        	ldx	#$3f
     4ac: 8e 00 d0     	stx	$d000                   ; 0xd000 <__heap_start+0x9574>
     4af: a2 b3        	ldx	#$b3
     4b1: 86 00        	stx	$0                      ; 0x2000 <f256main+0x1789>
     4b3: 64 08        	stz	$8                      ; 0x2008 <f256main+0x1791>
     4b5: a2 01        	ldx	#$1
     4b7: 86 09        	stx	$9                      ; 0x2009 <f256main+0x1792>
     4b9: e8           	inx
     4ba: 86 0a        	stx	$a                      ; 0x200a <f256main+0x1793>
     4bc: e8           	inx
     4bd: 86 0b        	stx	$b                      ; 0x200b <f256main+0x1794>
     4bf: e8           	inx
     4c0: 86 0c        	stx	$c                      ; 0x200c <f256main+0x1795>
     4c2: e8           	inx
     4c3: 86 0d        	stx	$d                      ; 0x200d <f256main+0x1796>
     4c5: a2 3c        	ldx	#$3c
     4c7: a0 00        	ldy	#$0
     4c9: 86 f0        	stx	$f0                     ; 0x20f0 <f256main+0x1879>
     4cb: 84 f1        	sty	$f1                     ; 0x20f1 <f256main+0x187a>
     4cd: a2 00        	ldx	#$0
     4cf: 86 18        	stx	$18                     ; 0x2018 <f256main+0x17a1>
     4d1: ca           	dex
     4d2: 86 19        	stx	$19                     ; 0x2019 <f256main+0x17a2>
     4d4: 8a           	txa
     4d5: 0a           	asl
     4d6: 0a           	asl
     4d7: 18           	clc
     4d8: 69 d4        	adc	#$d4
     4da: 85 1a        	sta	$1a                     ; 0x201a <f256main+0x17a3>
     4dc: a0 00        	ldy	#$0
     4de: 64 17        	stz	$17                     ; 0x2017 <f256main+0x17a0>
     4e0: 64 16        	stz	$16                     ; 0x2016 <f256main+0x179f>
     4e2: a6 19        	ldx	$19                     ; 0x2019 <f256main+0x17a2>
     4e4: e0 03        	cpx	#$3
     4e6: a6 01        	ldx	$1                      ; 0x2001 <f256main+0x178a>
     4e8: 86 1c        	stx	$1c                     ; 0x201c <f256main+0x17a5>
     4ea: a2 d0        	ldx	#$d0
     4ec: 84 1b        	sty	$1b                     ; 0x201b <f256main+0x17a4>
     4ee: b0 02        	bcs	$4f2 <f256Init+0x54>
     4f0: a6 1a        	ldx	$1a                     ; 0x201a <f256main+0x17a3>
     4f2: 86 15        	stx	$15                     ; 0x2015 <f256main+0x179e>
     4f4: a5 17        	lda	$17                     ; 0x2017 <f256main+0x17a0>
     4f6: 18           	clc
     4f7: 65 14        	adc	$14                     ; 0x2014 <f256main+0x179d>
     4f9: a8           	tay
     4fa: a6 17        	ldx	$17                     ; 0x2017 <f256main+0x17a0>
     4fc: a5 16        	lda	$16                     ; 0x2016 <f256main+0x179f>
     4fe: 85 1d        	sta	$1d                     ; 0x201d <f256main+0x17a6>
     500: a5 16        	lda	$16                     ; 0x2016 <f256main+0x179f>
     502: 65 15        	adc	$15                     ; 0x2015 <f256main+0x179e>
     504: 84 16        	sty	$16                     ; 0x2016 <f256main+0x179f>
     506: a0 01        	ldy	#$1
     508: 84 01        	sty	$1                      ; 0x2001 <f256main+0x178a>
     50a: 85 17        	sta	$17                     ; 0x2017 <f256main+0x17a0>
     50c: a5 1b        	lda	$1b                     ; 0x201b <f256main+0x17a4>
     50e: 92 16        	sta	($16)                   ; 0x2016 <f256main+0x179f>
     510: 91 16        	sta	($16),y                 ; 0x2016 <f256main+0x179f>
     512: c8           	iny
     513: 91 16        	sta	($16),y                 ; 0x2016 <f256main+0x179f>
     515: 85 15        	sta	$15                     ; 0x2015 <f256main+0x179e>
     517: c8           	iny
     518: a9 ff        	lda	#$ff
     51a: 91 16        	sta	($16),y                 ; 0x2016 <f256main+0x179f>
     51c: 8a           	txa
     51d: a6 1c        	ldx	$1c                     ; 0x201c <f256main+0x17a5>
     51f: 86 01        	stx	$1                      ; 0x2001 <f256main+0x178a>
     521: 18           	clc
     522: 69 04        	adc	#$4
     524: 85 17        	sta	$17                     ; 0x2017 <f256main+0x17a0>
     526: a5 1d        	lda	$1d                     ; 0x201d <f256main+0x17a6>
     528: 69 00        	adc	#$0
     52a: e6 15        	inc	$15                     ; 0x2015 <f256main+0x179e>
     52c: a4 15        	ldy	$15                     ; 0x2015 <f256main+0x179e>
     52e: 85 16        	sta	$16                     ; 0x2016 <f256main+0x179f>
     530: c9 04        	cmp	#$4
     532: f0 03        	beq	$537 <f256Init+0x99>
     534: 4c e2 04     	jmp	$4e2 <f256Init+0x44>
     537: a5 17        	lda	$17                     ; 0x2017 <f256main+0x17a0>
     539: f0 03        	beq	$53e <f256Init+0xa0>
     53b: 4c e2 04     	jmp	$4e2 <f256Init+0x44>
     53e: a6 18        	ldx	$18                     ; 0x2018 <f256main+0x17a1>
     540: e8           	inx
     541: e0 04        	cpx	#$4
     543: f0 03        	beq	$548 <f256Init+0xaa>
     545: 4c cf 04     	jmp	$4cf <f256Init+0x31>
     548: ad 02 d0     	lda	$d002                   ; 0xd002 <__heap_start+0x9576>
     54b: 29 f0        	and	#$f0
     54d: 8d 02 d0     	sta	$d002                   ; 0xd002 <__heap_start+0x9576>
     550: ad 02 d0     	lda	$d002                   ; 0xd002 <__heap_start+0x9576>
     553: 29 0f        	and	#$f
     555: 09 10        	ora	#$10
     557: 8d 02 d0     	sta	$d002                   ; 0xd002 <__heap_start+0x9576>
     55a: a2 02        	ldx	#$2
     55c: 8e 03 d0     	stx	$d003                   ; 0xd003 <__heap_start+0x9577>
     55f: ad 01 d0     	lda	$d001                   ; 0xd001 <__heap_start+0x9575>
     562: 29 f9        	and	#$f9
     564: 09 04        	ora	#$4
     566: 8d 01 d0     	sta	$d001                   ; 0xd001 <__heap_start+0x9575>
     569: 64 14        	stz	$14                     ; 0x2014 <f256main+0x179d>
     56b: 9c 10 d0     	stz	$d010                   ; 0xd010 <__heap_start+0x9584>
     56e: a2 00        	ldx	#$0
     570: 64 15        	stz	$15                     ; 0x2015 <f256main+0x179e>
     572: 86 18        	stx	$18                     ; 0x2018 <f256main+0x17a1>
     574: a4 18        	ldy	$18                     ; 0x2018 <f256main+0x17a1>
     576: be 53 36     	ldx	$3653,y                 ; 0x3653 <textColors>
     579: 86 19        	stx	$19                     ; 0x2019 <f256main+0x17a2>
     57b: be 54 36     	ldx	$3654,y                 ; 0x3654 <textColors+0x1>
     57e: 86 1a        	stx	$1a                     ; 0x201a <f256main+0x17a3>
     580: be 55 36     	ldx	$3655,y                 ; 0x3655 <textColors+0x2>
     583: 86 1b        	stx	$1b                     ; 0x201b <f256main+0x17a4>
     585: a6 15        	ldx	$15                     ; 0x2015 <f256main+0x179e>
     587: 8e 00 de     	stx	$de00                   ; 0xde00 <__heap_start+0xa374>
     58a: 86 17        	stx	$17                     ; 0x2017 <f256main+0x17a0>
     58c: 9c 01 de     	stz	$de01                   ; 0xde01 <__heap_start+0xa375>
     58f: a2 04        	ldx	#$4
     591: 8e 02 de     	stx	$de02                   ; 0xde02 <__heap_start+0xa376>
     594: 9c 03 de     	stz	$de03                   ; 0xde03 <__heap_start+0xa377>
     597: ad 10 de     	lda	$de10                   ; 0xde10 <__heap_start+0xa384>
     59a: ac 11 de     	ldy	$de11                   ; 0xde11 <__heap_start+0xa385>
     59d: 84 15        	sty	$15                     ; 0x2015 <f256main+0x179e>
     59f: ac 12 de     	ldy	$de12                   ; 0xde12 <__heap_start+0xa386>
     5a2: ac 13 de     	ldy	$de13                   ; 0xde13 <__heap_start+0xa387>
     5a5: 18           	clc
     5a6: 65 14        	adc	$14                     ; 0x2014 <f256main+0x179d>
     5a8: 85 16        	sta	$16                     ; 0x2016 <f256main+0x179f>
     5aa: a6 17        	ldx	$17                     ; 0x2017 <f256main+0x17a0>
     5ac: a9 d8        	lda	#$d8
     5ae: 65 15        	adc	$15                     ; 0x2015 <f256main+0x179e>
     5b0: 85 17        	sta	$17                     ; 0x2017 <f256main+0x17a0>
     5b2: a5 1b        	lda	$1b                     ; 0x201b <f256main+0x17a4>
     5b4: 92 16        	sta	($16)                   ; 0x2016 <f256main+0x179f>
     5b6: a0 01        	ldy	#$1
     5b8: a5 1a        	lda	$1a                     ; 0x201a <f256main+0x17a3>
     5ba: 91 16        	sta	($16),y                 ; 0x2016 <f256main+0x179f>
     5bc: c8           	iny
     5bd: a5 19        	lda	$19                     ; 0x2019 <f256main+0x17a2>
     5bf: 91 16        	sta	($16),y                 ; 0x2016 <f256main+0x179f>
     5c1: c8           	iny
     5c2: a9 ff        	lda	#$ff
     5c4: 91 16        	sta	($16),y                 ; 0x2016 <f256main+0x179f>
     5c6: 8e 00 de     	stx	$de00                   ; 0xde00 <__heap_start+0xa374>
     5c9: 9c 01 de     	stz	$de01                   ; 0xde01 <__heap_start+0xa375>
     5cc: c8           	iny
     5cd: 8c 02 de     	sty	$de02                   ; 0xde02 <__heap_start+0xa376>
     5d0: 9c 03 de     	stz	$de03                   ; 0xde03 <__heap_start+0xa377>
     5d3: ad 10 de     	lda	$de10                   ; 0xde10 <__heap_start+0xa384>
     5d6: 85 15        	sta	$15                     ; 0x2015 <f256main+0x179e>
     5d8: ad 11 de     	lda	$de11                   ; 0xde11 <__heap_start+0xa385>
     5db: 85 16        	sta	$16                     ; 0x2016 <f256main+0x179f>
     5dd: a9 40        	lda	#$40
     5df: 18           	clc
     5e0: 65 15        	adc	$15                     ; 0x2015 <f256main+0x179e>
     5e2: a8           	tay
     5e3: a9 d8        	lda	#$d8
     5e5: 65 16        	adc	$16                     ; 0x2016 <f256main+0x179f>
     5e7: 85 17        	sta	$17                     ; 0x2017 <f256main+0x17a0>
     5e9: 84 16        	sty	$16                     ; 0x2016 <f256main+0x179f>
     5eb: ad 12 de     	lda	$de12                   ; 0xde12 <__heap_start+0xa386>
     5ee: ad 13 de     	lda	$de13                   ; 0xde13 <__heap_start+0xa387>
     5f1: a5 1b        	lda	$1b                     ; 0x201b <f256main+0x17a4>
     5f3: 92 16        	sta	($16)                   ; 0x2016 <f256main+0x179f>
     5f5: a5 1a        	lda	$1a                     ; 0x201a <f256main+0x17a3>
     5f7: a0 01        	ldy	#$1
     5f9: 91 16        	sta	($16),y                 ; 0x2016 <f256main+0x179f>
     5fb: a5 19        	lda	$19                     ; 0x2019 <f256main+0x17a2>
     5fd: c8           	iny
     5fe: 91 16        	sta	($16),y                 ; 0x2016 <f256main+0x179f>
     600: c8           	iny
     601: a9 ff        	lda	#$ff
     603: 91 16        	sta	($16),y                 ; 0x2016 <f256main+0x179f>
     605: e8           	inx
     606: 86 15        	stx	$15                     ; 0x2015 <f256main+0x179e>
     608: 18           	clc
     609: a5 18        	lda	$18                     ; 0x2018 <f256main+0x17a1>
     60b: 69 03        	adc	#$3
     60d: aa           	tax
     60e: c9 30        	cmp	#$30
     610: f0 03        	beq	$615 <f256Init+0x177>
     612: 4c 72 05     	jmp	$572 <f256Init+0xd4>
     615: a6 01        	ldx	$1                      ; 0x2001 <f256main+0x178a>
     617: 86 18        	stx	$18                     ; 0x2018 <f256main+0x17a1>
     619: a2 50        	ldx	#$50
     61b: 8e 00 de     	stx	$de00                   ; 0xde00 <__heap_start+0xa374>
     61e: 9c 01 de     	stz	$de01                   ; 0xde01 <__heap_start+0xa375>
     621: a2 1e        	ldx	#$1e
     623: 8e 02 de     	stx	$de02                   ; 0xde02 <__heap_start+0xa376>
     626: 9c 03 de     	stz	$de03                   ; 0xde03 <__heap_start+0xa377>
     629: ae 10 de     	ldx	$de10                   ; 0xde10 <__heap_start+0xa384>
     62c: ac 11 de     	ldy	$de11                   ; 0xde11 <__heap_start+0xa385>
     62f: ad 12 de     	lda	$de12                   ; 0xde12 <__heap_start+0xa386>
     632: ad 13 de     	lda	$de13                   ; 0xde13 <__heap_start+0xa387>
     635: a9 02        	lda	#$2
     637: 85 01        	sta	$1                      ; 0x2001 <f256main+0x178a>
     639: e0 01        	cpx	#$1
     63b: 98           	tya
     63c: e9 00        	sbc	#$0
     63e: 50 02        	bvc	$642 <f256Init+0x1a4>
     640: 49 80        	eor	#$80
     642: c9 00        	cmp	#$0
     644: 30 48        	bmi	$68e <f256Init+0x1f0>
     646: a9 20        	lda	#$20
     648: 86 19        	stx	$19                     ; 0x2019 <f256main+0x17a2>
     64a: 86 14        	stx	$14                     ; 0x2014 <f256main+0x179d>
     64c: 84 15        	sty	$15                     ; 0x2015 <f256main+0x179e>
     64e: a2 00        	ldx	#$0
     650: 86 16        	stx	$16                     ; 0x2016 <f256main+0x179f>
     652: a2 c0        	ldx	#$c0
     654: 86 17        	stx	$17                     ; 0x2017 <f256main+0x17a0>
     656: 92 16        	sta	($16)                   ; 0x2016 <f256main+0x179f>
     658: e6 16        	inc	$16                     ; 0x2016 <f256main+0x179f>
     65a: d0 02        	bne	$65e <f256Init+0x1c0>
     65c: e6 17        	inc	$17                     ; 0x2017 <f256main+0x17a0>
     65e: a2 ff        	ldx	#$ff
     660: c6 14        	dec	$14                     ; 0x2014 <f256main+0x179d>
     662: e4 14        	cpx	$14                     ; 0x2014 <f256main+0x179d>
     664: d0 02        	bne	$668 <f256Init+0x1ca>
     666: c6 15        	dec	$15                     ; 0x2015 <f256main+0x179e>
     668: a6 15        	ldx	$15                     ; 0x2015 <f256main+0x179e>
     66a: d0 ea        	bne	$656 <f256Init+0x1b8>
     66c: a6 14        	ldx	$14                     ; 0x2014 <f256main+0x179d>
     66e: d0 e6        	bne	$656 <f256Init+0x1b8>
     670: a2 03        	ldx	#$3
     672: 86 01        	stx	$1                      ; 0x2001 <f256main+0x178a>
     674: a6 19        	ldx	$19                     ; 0x2019 <f256main+0x17a2>
     676: a9 f0        	lda	#$f0
     678: 92 12        	sta	($12)                   ; 0x2012 <f256main+0x179b>
     67a: e6 12        	inc	$12                     ; 0x2012 <f256main+0x179b>
     67c: d0 02        	bne	$680 <f256Init+0x1e2>
     67e: e6 13        	inc	$13                     ; 0x2013 <f256main+0x179c>
     680: ca           	dex
     681: e0 ff        	cpx	#$ff
     683: d0 01        	bne	$686 <f256Init+0x1e8>
     685: 88           	dey
     686: 98           	tya
     687: d0 ed        	bne	$676 <f256Init+0x1d8>
     689: 8a           	txa
     68a: d0 ea        	bne	$676 <f256Init+0x1d8>
     68c: 80 04        	bra	$692 <f256Init+0x1f4>
     68e: a2 03        	ldx	#$3
     690: 86 01        	stx	$1                      ; 0x2001 <f256main+0x178a>
     692: a6 18        	ldx	$18                     ; 0x2018 <f256main+0x17a1>
     694: 86 01        	stx	$1                      ; 0x2001 <f256main+0x178a>
     696: 64 43        	stz	$43                     ; 0x2043 <f256main+0x17cc>
     698: 9c 14 d0     	stz	$d014                   ; 0xd014 <__heap_start+0x9588>
     69b: 9c 15 d0     	stz	$d015                   ; 0xd015 <__heap_start+0x9589>
     69e: 64 44        	stz	$44                     ; 0x2044 <f256main+0x17cd>
     6a0: 9c 16 d0     	stz	$d016                   ; 0xd016 <__heap_start+0x958a>
     6a3: 9c 17 d0     	stz	$d017                   ; 0xd017 <__heap_start+0x958b>
     6a6: a2 40        	ldx	#$40
     6a8: 8e 00 de     	stx	$de00                   ; 0xde00 <__heap_start+0xa374>
     6ab: a2 01        	ldx	#$1
     6ad: 8e 01 de     	stx	$de01                   ; 0xde01 <__heap_start+0xa375>
     6b0: a2 f0        	ldx	#$f0
     6b2: 8e 02 de     	stx	$de02                   ; 0xde02 <__heap_start+0xa376>
     6b5: 9c 03 de     	stz	$de03                   ; 0xde03 <__heap_start+0xa377>
     6b8: ae 10 de     	ldx	$de10                   ; 0xde10 <__heap_start+0xa384>
     6bb: 86 17        	stx	$17                     ; 0x2017 <f256main+0x17a0>
     6bd: ae 11 de     	ldx	$de11                   ; 0xde11 <__heap_start+0xa385>
     6c0: 86 12        	stx	$12                     ; 0x2012 <f256main+0x179b>
     6c2: ae 12 de     	ldx	$de12                   ; 0xde12 <__heap_start+0xa386>
     6c5: 86 13        	stx	$13                     ; 0x2013 <f256main+0x179c>
     6c7: ae 13 de     	ldx	$de13                   ; 0xde13 <__heap_start+0xa387>
     6ca: 86 14        	stx	$14                     ; 0x2014 <f256main+0x179d>
     6cc: 64 45        	stz	$45                     ; 0x2045 <f256main+0x17ce>
     6ce: a2 ff        	ldx	#$ff
     6d0: 86 46        	stx	$46                     ; 0x2046 <f256main+0x17cf>
     6d2: a6 12        	ldx	$12                     ; 0x2012 <f256main+0x179b>
     6d4: 86 15        	stx	$15                     ; 0x2015 <f256main+0x179e>
     6d6: 06 15        	asl	$15                     ; 0x2015 <f256main+0x179e>
     6d8: a5 13        	lda	$13                     ; 0x2013 <f256main+0x179c>
     6da: 2a           	rol
     6db: a6 14        	ldx	$14                     ; 0x2014 <f256main+0x179d>
     6dd: 86 16        	stx	$16                     ; 0x2016 <f256main+0x179f>
     6df: 26 16        	rol	$16                     ; 0x2016 <f256main+0x179f>
     6e1: 06 15        	asl	$15                     ; 0x2015 <f256main+0x179e>
     6e3: 2a           	rol
     6e4: 26 16        	rol	$16                     ; 0x2016 <f256main+0x179f>
     6e6: 06 15        	asl	$15                     ; 0x2015 <f256main+0x179e>
     6e8: 2a           	rol
     6e9: 26 16        	rol	$16                     ; 0x2016 <f256main+0x179f>
     6eb: 85 15        	sta	$15                     ; 0x2015 <f256main+0x179e>
     6ed: 8d 00 de     	sta	$de00                   ; 0xde00 <__heap_start+0xa374>
     6f0: a5 16        	lda	$16                     ; 0x2016 <f256main+0x179f>
     6f2: 8d 01 de     	sta	$de01                   ; 0xde01 <__heap_start+0xa375>
     6f5: 9c 02 de     	stz	$de02                   ; 0xde02 <__heap_start+0xa376>
     6f8: a2 20        	ldx	#$20
     6fa: 8e 03 de     	stx	$de03                   ; 0xde03 <__heap_start+0xa377>
     6fd: ae 10 de     	ldx	$de10                   ; 0xde10 <__heap_start+0xa384>
     700: 86 16        	stx	$16                     ; 0x2016 <f256main+0x179f>
     702: ae 11 de     	ldx	$de11                   ; 0xde11 <__heap_start+0xa385>
     705: 86 18        	stx	$18                     ; 0x2018 <f256main+0x17a1>
     707: ac 12 de     	ldy	$de12                   ; 0xde12 <__heap_start+0xa386>
     70a: ae 13 de     	ldx	$de13                   ; 0xde13 <__heap_start+0xa387>
     70d: e4 14        	cpx	$14                     ; 0x2014 <f256main+0x179d>
     70f: d0 14        	bne	$725 <f256Init+0x287>
     711: c4 13        	cpy	$13                     ; 0x2013 <f256main+0x179c>
     713: d0 10        	bne	$725 <f256Init+0x287>
     715: a6 18        	ldx	$18                     ; 0x2018 <f256main+0x17a1>
     717: e4 12        	cpx	$12                     ; 0x2012 <f256main+0x179b>
     719: d0 0a        	bne	$725 <f256Init+0x287>
     71b: a6 16        	ldx	$16                     ; 0x2016 <f256main+0x179f>
     71d: e4 17        	cpx	$17                     ; 0x2017 <f256main+0x17a0>
     71f: d0 04        	bne	$725 <f256Init+0x287>
     721: a6 15        	ldx	$15                     ; 0x2015 <f256main+0x179e>
     723: 80 06        	bra	$72b <f256Init+0x28d>
     725: a6 15        	ldx	$15                     ; 0x2015 <f256main+0x179e>
     727: e8           	inx
     728: d0 01        	bne	$72b <f256Init+0x28d>
     72a: 1a           	inc
     72b: 8e 00 de     	stx	$de00                   ; 0xde00 <__heap_start+0xa374>
     72e: 8d 01 de     	sta	$de01                   ; 0xde01 <__heap_start+0xa375>
     731: 9c 02 de     	stz	$de02                   ; 0xde02 <__heap_start+0xa376>
     734: a2 20        	ldx	#$20
     736: 8e 03 de     	stx	$de03                   ; 0xde03 <__heap_start+0xa377>
     739: ae 10 de     	ldx	$de10                   ; 0xde10 <__heap_start+0xa384>
     73c: 86 12        	stx	$12                     ; 0x2012 <f256main+0x179b>
     73e: ae 11 de     	ldx	$de11                   ; 0xde11 <__heap_start+0xa385>
     741: 86 13        	stx	$13                     ; 0x2013 <f256main+0x179c>
     743: ae 12 de     	ldx	$de12                   ; 0xde12 <__heap_start+0xa386>
     746: 86 14        	stx	$14                     ; 0x2014 <f256main+0x179d>
     748: ae 13 de     	ldx	$de13                   ; 0xde13 <__heap_start+0xa387>
     74b: 86 15        	stx	$15                     ; 0x2015 <f256main+0x179e>
     74d: a9 00        	lda	#$0
     74f: 38           	sec
     750: e5 12        	sbc	$12                     ; 0x2012 <f256main+0x179b>
     752: 85 18        	sta	$18                     ; 0x2018 <f256main+0x17a1>
     754: a9 00        	lda	#$0
     756: e5 13        	sbc	$13                     ; 0x2013 <f256main+0x179c>
     758: a8           	tay
     759: a9 08        	lda	#$8
     75b: e5 14        	sbc	$14                     ; 0x2014 <f256main+0x179d>
     75d: aa           	tax
     75e: a9 00        	lda	#$0
     760: e5 15        	sbc	$15                     ; 0x2015 <f256main+0x179e>
     762: 85 17        	sta	$17                     ; 0x2017 <f256main+0x17a0>
     764: 8c d4 38     	sty	$38d4                   ; 0x38d4 <_BITMAP_BASE+0x1>
     767: 8e d5 38     	stx	$38d5                   ; 0x38d5 <_BITMAP_BASE+0x2>
     76a: 8d d6 38     	sta	$38d6                   ; 0x38d6 <_BITMAP_BASE+0x3>
     76d: 38           	sec
     76e: a5 18        	lda	$18                     ; 0x2018 <f256main+0x17a1>
     770: e5 12        	sbc	$12                     ; 0x2012 <f256main+0x179b>
     772: 85 19        	sta	$19                     ; 0x2019 <f256main+0x17a2>
     774: 98           	tya
     775: e5 13        	sbc	$13                     ; 0x2013 <f256main+0x179c>
     777: 85 16        	sta	$16                     ; 0x2016 <f256main+0x179f>
     779: 8a           	txa
     77a: e5 14        	sbc	$14                     ; 0x2014 <f256main+0x179d>
     77c: aa           	tax
     77d: a5 17        	lda	$17                     ; 0x2017 <f256main+0x17a0>
     77f: e5 15        	sbc	$15                     ; 0x2015 <f256main+0x179e>
     781: 85 17        	sta	$17                     ; 0x2017 <f256main+0x17a0>
     783: 38           	sec
     784: a5 19        	lda	$19                     ; 0x2019 <f256main+0x17a2>
     786: 8d d7 38     	sta	$38d7                   ; 0x38d7 <_BITMAP_BASE+0x4>
     789: a4 16        	ldy	$16                     ; 0x2016 <f256main+0x179f>
     78b: 8c d8 38     	sty	$38d8                   ; 0x38d8 <_BITMAP_BASE+0x5>
     78e: 8e d9 38     	stx	$38d9                   ; 0x38d9 <_BITMAP_BASE+0x6>
     791: a4 17        	ldy	$17                     ; 0x2017 <f256main+0x17a0>
     793: 8c da 38     	sty	$38da                   ; 0x38da <_BITMAP_BASE+0x7>
     796: e5 12        	sbc	$12                     ; 0x2012 <f256main+0x179b>
     798: a8           	tay
     799: a5 16        	lda	$16                     ; 0x2016 <f256main+0x179f>
     79b: e5 13        	sbc	$13                     ; 0x2013 <f256main+0x179c>
     79d: 85 12        	sta	$12                     ; 0x2012 <f256main+0x179b>
     79f: 8a           	txa
     7a0: e5 14        	sbc	$14                     ; 0x2014 <f256main+0x179d>
     7a2: 85 14        	sta	$14                     ; 0x2014 <f256main+0x179d>
     7a4: a5 17        	lda	$17                     ; 0x2017 <f256main+0x17a0>
     7a6: e5 15        	sbc	$15                     ; 0x2015 <f256main+0x179e>
     7a8: 8c db 38     	sty	$38db                   ; 0x38db <_BITMAP_BASE+0x8>
     7ab: a4 12        	ldy	$12                     ; 0x2012 <f256main+0x179b>
     7ad: 8c dc 38     	sty	$38dc                   ; 0x38dc <_BITMAP_BASE+0x9>
     7b0: a6 14        	ldx	$14                     ; 0x2014 <f256main+0x179d>
     7b2: 8e dd 38     	stx	$38dd                   ; 0x38dd <_BITMAP_BASE+0xa>
     7b5: a6 18        	ldx	$18                     ; 0x2018 <f256main+0x17a1>
     7b7: 8e d3 38     	stx	$38d3                   ; 0x38d3 <_BITMAP_BASE>
     7ba: 8d de 38     	sta	$38de                   ; 0x38de <_BITMAP_BASE+0xb>
     7bd: 9c df 38     	stz	$38df                   ; 0x38df <_BITMAP_CLUT.1>
     7c0: 8e 01 d1     	stx	$d101                   ; 0xd101 <__heap_start+0x9675>
     7c3: ae d4 38     	ldx	$38d4                   ; 0x38d4 <_BITMAP_BASE+0x1>
     7c6: 8e 02 d1     	stx	$d102                   ; 0xd102 <__heap_start+0x9676>
     7c9: ae d5 38     	ldx	$38d5                   ; 0x38d5 <_BITMAP_BASE+0x2>
     7cc: 8e 03 d1     	stx	$d103                   ; 0xd103 <__heap_start+0x9677>
     7cf: ae d7 38     	ldx	$38d7                   ; 0x38d7 <_BITMAP_BASE+0x4>
     7d2: 8e 09 d1     	stx	$d109                   ; 0xd109 <__heap_start+0x967d>
     7d5: ae d8 38     	ldx	$38d8                   ; 0x38d8 <_BITMAP_BASE+0x5>
     7d8: 8e 0a d1     	stx	$d10a                   ; 0xd10a <__heap_start+0x967e>
     7db: ae d9 38     	ldx	$38d9                   ; 0x38d9 <_BITMAP_BASE+0x6>
     7de: 8e 0b d1     	stx	$d10b                   ; 0xd10b <__heap_start+0x967f>
     7e1: ae db 38     	ldx	$38db                   ; 0x38db <_BITMAP_BASE+0x8>
     7e4: 8e 11 d1     	stx	$d111                   ; 0xd111 <__heap_start+0x9685>
     7e7: ae dc 38     	ldx	$38dc                   ; 0x38dc <_BITMAP_BASE+0x9>
     7ea: 8e 12 d1     	stx	$d112                   ; 0xd112 <__heap_start+0x9686>
     7ed: ae dd 38     	ldx	$38dd                   ; 0x38dd <_BITMAP_BASE+0xa>
     7f0: 8e 13 d1     	stx	$d113                   ; 0xd113 <__heap_start+0x9687>
     7f3: 9c 00 d1     	stz	$d100                   ; 0xd100 <__heap_start+0x9674>
     7f6: 9c 08 d1     	stz	$d108                   ; 0xd108 <__heap_start+0x967c>
     7f9: 9c 10 d1     	stz	$d110                   ; 0xd110 <__heap_start+0x9684>
     7fc: a2 10        	ldx	#$10
     7fe: 8e 00 d2     	stx	$d200                   ; 0xd200 <__heap_start+0x9774>
     801: 8e 0c d2     	stx	$d20c                   ; 0xd20c <__heap_start+0x9780>
     804: 8e 18 d2     	stx	$d218                   ; 0xd218 <__heap_start+0x978c>
     807: a0 d9        	ldy	#$d9
     809: 64 12        	stz	$12                     ; 0x2012 <f256main+0x179b>
     80b: a2 00        	ldx	#$0
     80d: 84 13        	sty	$13                     ; 0x2013 <f256main+0x179c>
     80f: b5 47        	lda	$47,x                   ; 0x2047 <f256main+0x17d0>
     811: 92 12        	sta	($12)                   ; 0x2012 <f256main+0x179b>
     813: a5 12        	lda	$12                     ; 0x2012 <f256main+0x179b>
     815: e8           	inx
     816: 18           	clc
     817: 69 08        	adc	#$8
     819: 85 12        	sta	$12                     ; 0x2012 <f256main+0x179b>
     81b: 98           	tya
     81c: 69 00        	adc	#$0
     81e: a8           	tay
     81f: e0 40        	cpx	#$40
     821: d0 ea        	bne	$80d <f256Init+0x36f>
     823: a2 e1        	ldx	#$e1
     825: a0 00        	ldy	#$0
     827: 86 fb        	stx	$fb                     ; 0x20fb <f256main+0x1884>
     829: 84 fc        	sty	$fc                     ; 0x20fc <f256main+0x1885>
     82b: a2 08        	ldx	#$8
     82d: 86 fd        	stx	$fd                     ; 0x20fd <f256main+0x1886>
     82f: a2 e9        	ldx	#$e9
     831: a0 00        	ldy	#$0
     833: 86 12        	stx	$12                     ; 0x2012 <f256main+0x179b>
     835: 84 13        	sty	$13                     ; 0x2013 <f256main+0x179c>
     837: a2 d2        	ldx	#$d2
     839: 86 14        	stx	$14                     ; 0x2014 <f256main+0x179d>
     83b: a2 38        	ldx	#$38
     83d: 86 15        	stx	$15                     ; 0x2015 <f256main+0x179e>
     83f: 20 dc ff     	jsr	$ffdc <__heap_start+0xc550>
     842: 92 12        	sta	($12)                   ; 0x2012 <f256main+0x179b>
     844: a9 00        	lda	#$0
     846: 6a           	ror
     847: 85 14        	sta	$14                     ; 0x2014 <f256main+0x179d>
     849: a6 e7        	ldx	$e7                     ; 0x20e7 <f256main+0x1870>
     84b: a4 e8        	ldy	$e8                     ; 0x20e8 <f256main+0x1871>
     84d: 8e 00 de     	stx	$de00                   ; 0xde00 <__heap_start+0xa374>
     850: 9c 01 de     	stz	$de01                   ; 0xde01 <__heap_start+0xa375>
     853: 8c 02 de     	sty	$de02                   ; 0xde02 <__heap_start+0xa376>
     856: 9c 03 de     	stz	$de03                   ; 0xde03 <__heap_start+0xa377>
     859: ae 10 de     	ldx	$de10                   ; 0xde10 <__heap_start+0xa384>
     85c: ac 11 de     	ldy	$de11                   ; 0xde11 <__heap_start+0xa385>
     85f: ad 12 de     	lda	$de12                   ; 0xde12 <__heap_start+0xa386>
     862: ad 13 de     	lda	$de13                   ; 0xde13 <__heap_start+0xa387>
     865: 8e a4 d6     	stx	$d6a4                   ; 0xd6a4 <__heap_start+0x9c18>
     868: 8c a5 d6     	sty	$d6a5                   ; 0xd6a5 <__heap_start+0x9c19>
     86b: a2 03        	ldx	#$3
     86d: 8e a6 d6     	stx	$d6a6                   ; 0xd6a6 <__heap_start+0x9c1a>
     870: 60           	rts

00000871 <main>:
     871: 20 9e 04     	jsr	$49e <f256Init>
     874: 20 77 08     	jsr	$877 <f256main>

00000877 <f256main>:
     877: 18           	clc
     878: a5 10        	lda	$10                     ; 0x2010 <f256main+0x1799>
     87a: 69 ed        	adc	#$ed
     87c: 85 10        	sta	$10                     ; 0x2010 <f256main+0x1799>
     87e: a5 11        	lda	$11                     ; 0x2011 <f256main+0x179a>
     880: 69 ff        	adc	#$ff
     882: 85 11        	sta	$11                     ; 0x2011 <f256main+0x179a>
     884: a2 80        	ldx	#$80
     886: 86 24        	stx	$24                     ; 0x2024 <f256main+0x17ad>
     888: a2 d5        	ldx	#$d5
     88a: 86 25        	stx	$25                     ; 0x2025 <f256main+0x17ae>
     88c: a2 82        	ldx	#$82
     88e: 86 26        	stx	$26                     ; 0x2026 <f256main+0x17af>
     890: a2 d5        	ldx	#$d5
     892: 86 27        	stx	$27                     ; 0x2027 <f256main+0x17b0>
     894: a2 00        	ldx	#$0
     896: 64 01        	stz	$1                      ; 0x2001 <f256main+0x178a>
     898: a0 2f        	ldy	#$2f
     89a: 8c 00 d0     	sty	$d000                   ; 0xd000 <__heap_start+0x9574>
     89d: a0 04        	ldy	#$4
     89f: 8c 01 d0     	sty	$d001                   ; 0xd001 <__heap_start+0x9575>
     8a2: a0 01        	ldy	#$1
     8a4: 8c 02 d0     	sty	$d002                   ; 0xd002 <__heap_start+0x9576>
     8a7: a9 02        	lda	#$2
     8a9: 8d 03 d0     	sta	$d003                   ; 0xd003 <__heap_start+0x9577>
     8ac: 9c 0d d0     	stz	$d00d                   ; 0xd00d <__heap_start+0x9581>
     8af: 9c 0e d0     	stz	$d00e                   ; 0xd00e <__heap_start+0x9582>
     8b2: 9c 0f d0     	stz	$d00f                   ; 0xd00f <__heap_start+0x9583>
     8b5: 84 01        	sty	$1                      ; 0x2001 <f256main+0x178a>
     8b7: a0 f0        	ldy	#$f0
     8b9: 86 12        	stx	$12                     ; 0x2012 <f256main+0x179b>
     8bb: 84 13        	sty	$13                     ; 0x2013 <f256main+0x179c>
     8bd: a5 0f        	lda	$f                      ; 0x200f <f256main+0x1798>
     8bf: 85 15        	sta	$15                     ; 0x2015 <f256main+0x179e>
     8c1: 78           	sei
     8c2: 86 14        	stx	$14                     ; 0x2014 <f256main+0x179d>
     8c4: a2 0a        	ldx	#$a
     8c6: 86 0f        	stx	$f                      ; 0x200f <f256main+0x1798>
     8c8: a6 14        	ldx	$14                     ; 0x2014 <f256main+0x179d>
     8ca: b2 12        	lda	($12)                   ; 0x2012 <f256main+0x179b>
     8cc: 85 14        	sta	$14                     ; 0x2014 <f256main+0x179d>
     8ce: a5 15        	lda	$15                     ; 0x2015 <f256main+0x179e>
     8d0: 85 0f        	sta	$f                      ; 0x200f <f256main+0x1798>
     8d2: 18           	clc
     8d3: 8a           	txa
     8d4: 69 00        	adc	#$0
     8d6: 85 12        	sta	$12                     ; 0x2012 <f256main+0x179b>
     8d8: 98           	tya
     8d9: 69 e0        	adc	#$e0
     8db: 58           	cli
     8dc: 85 13        	sta	$13                     ; 0x2013 <f256main+0x179c>
     8de: a5 14        	lda	$14                     ; 0x2014 <f256main+0x179d>
     8e0: 92 12        	sta	($12)                   ; 0x2012 <f256main+0x179b>
     8e2: e8           	inx
     8e3: d0 01        	bne	$8e6 <f256main+0x6f>
     8e5: c8           	iny
     8e6: c0 f3        	cpy	#$f3
     8e8: d0 cf        	bne	$8b9 <f256main+0x42>
     8ea: e0 ff        	cpx	#$ff
     8ec: d0 cb        	bne	$8b9 <f256main+0x42>
     8ee: a2 d4        	ldx	#$d4
     8f0: a0 00        	ldy	#$0
     8f2: 18           	clc
     8f3: 84 17        	sty	$17                     ; 0x2017 <f256main+0x17a0>
     8f5: 98           	tya
     8f6: 69 00        	adc	#$0
     8f8: 85 14        	sta	$14                     ; 0x2014 <f256main+0x179d>
     8fa: 8a           	txa
     8fb: 69 0c        	adc	#$c
     8fd: 85 15        	sta	$15                     ; 0x2015 <f256main+0x179e>
     8ff: 84 12        	sty	$12                     ; 0x2012 <f256main+0x179b>
     901: 86 13        	stx	$13                     ; 0x2013 <f256main+0x179c>
     903: a4 0f        	ldy	$f                      ; 0x200f <f256main+0x1798>
     905: 78           	sei
     906: a9 18        	lda	#$18
     908: 85 0f        	sta	$f                      ; 0x200f <f256main+0x1798>
     90a: b2 14        	lda	($14)                   ; 0x2014 <f256main+0x179d>
     90c: 84 0f        	sty	$f                      ; 0x200f <f256main+0x1798>
     90e: 58           	cli
     90f: 92 12        	sta	($12)                   ; 0x2012 <f256main+0x179b>
     911: a4 17        	ldy	$17                     ; 0x2017 <f256main+0x17a0>
     913: c8           	iny
     914: d0 01        	bne	$917 <f256main+0xa0>
     916: e8           	inx
     917: e0 d7        	cpx	#$d7
     919: d0 d7        	bne	$8f2 <f256main+0x7b>
     91b: c0 ff        	cpy	#$ff
     91d: d0 d3        	bne	$8f2 <f256main+0x7b>
     91f: 64 01        	stz	$1                      ; 0x2001 <f256main+0x178a>
     921: 64 45        	stz	$45                     ; 0x2045 <f256main+0x17ce>
     923: ad 00 d1     	lda	$d100                   ; 0xd100 <__heap_start+0x9674>
     926: 29 f9        	and	#$f9
     928: 8d 00 d1     	sta	$d100                   ; 0xd100 <__heap_start+0x9674>
     92b: a2 03        	ldx	#$3
     92d: 86 46        	stx	$46                     ; 0x2046 <f256main+0x17cf>
     92f: 20 82 28     	jsr	$2882 <bitmapClear>
     932: a2 01        	ldx	#$1
     934: 86 45        	stx	$45                     ; 0x2045 <f256main+0x17ce>
     936: 8e df 38     	stx	$38df                   ; 0x38df <_BITMAP_CLUT.1>
     939: ad 08 d1     	lda	$d108                   ; 0xd108 <__heap_start+0x967c>
     93c: 29 f9        	and	#$f9
     93e: 09 02        	ora	#$2
     940: 8d 08 d1     	sta	$d108                   ; 0xd108 <__heap_start+0x967c>
     943: 20 82 28     	jsr	$2882 <bitmapClear>
     946: 9c d7 38     	stz	$38d7                   ; 0x38d7 <_BITMAP_BASE+0x4>
     949: a2 04        	ldx	#$4
     94b: 8e d8 38     	stx	$38d8                   ; 0x38d8 <_BITMAP_BASE+0x5>
     94e: a0 03        	ldy	#$3
     950: 8c d9 38     	sty	$38d9                   ; 0x38d9 <_BITMAP_BASE+0x6>
     953: 9c da 38     	stz	$38da                   ; 0x38da <_BITMAP_BASE+0x7>
     956: 9c 09 d1     	stz	$d109                   ; 0xd109 <__heap_start+0x967d>
     959: 8e 0a d1     	stx	$d10a                   ; 0xd10a <__heap_start+0x967e>
     95c: 8c 0b d1     	sty	$d10b                   ; 0xd10b <__heap_start+0x967f>
     95f: a2 01        	ldx	#$1
     961: 8e 00 d1     	stx	$d100                   ; 0xd100 <__heap_start+0x9674>
     964: ad df 38     	lda	$38df                   ; 0x38df <_BITMAP_CLUT.1>
     967: 29 01        	and	#$1
     969: a2 03        	ldx	#$3
     96b: a8           	tay
     96c: d0 02        	bne	$970 <f256main+0xf9>
     96e: a2 01        	ldx	#$1
     970: 8e 08 d1     	stx	$d108                   ; 0xd108 <__heap_start+0x967c>
     973: 9c 10 d1     	stz	$d110                   ; 0xd110 <__heap_start+0x9684>
     976: a9 11        	lda	#$11
     978: a2 00        	ldx	#$0
     97a: 20 ef 30     	jsr	$30ef <malloc>
     97d: a6 12        	ldx	$12                     ; 0x2012 <f256main+0x179b>
     97f: a4 13        	ldy	$13                     ; 0x2013 <f256main+0x179c>
     981: 86 df        	stx	$df                     ; 0x20df <f256main+0x1868>
     983: 84 e0        	sty	$e0                     ; 0x20e0 <f256main+0x1869>
     985: a9 00        	lda	#$0
     987: 92 12        	sta	($12)                   ; 0x2012 <f256main+0x179b>
     989: a0 01        	ldy	#$1
     98b: 91 12        	sta	($12),y                 ; 0x2012 <f256main+0x179b>
     98d: c8           	iny
     98e: 91 12        	sta	($12),y                 ; 0x2012 <f256main+0x179b>
     990: c8           	iny
     991: 91 12        	sta	($12),y                 ; 0x2012 <f256main+0x179b>
     993: a2 d4        	ldx	#$d4
     995: a8           	tay
     996: 98           	tya
     997: 18           	clc
     998: 69 00        	adc	#$0
     99a: 85 14        	sta	$14                     ; 0x2014 <f256main+0x179d>
     99c: 8a           	txa
     99d: 69 01        	adc	#$1
     99f: 85 15        	sta	$15                     ; 0x2015 <f256main+0x179e>
     9a1: 84 12        	sty	$12                     ; 0x2012 <f256main+0x179b>
     9a3: 86 13        	stx	$13                     ; 0x2013 <f256main+0x179c>
     9a5: a9 00        	lda	#$0
     9a7: 92 12        	sta	($12)                   ; 0x2012 <f256main+0x179b>
     9a9: 5a           	phy
     9aa: a4 14        	ldy	$14                     ; 0x2014 <f256main+0x179d>
     9ac: 84 12        	sty	$12                     ; 0x2012 <f256main+0x179b>
     9ae: a4 15        	ldy	$15                     ; 0x2015 <f256main+0x179e>
     9b0: 84 13        	sty	$13                     ; 0x2013 <f256main+0x179c>
     9b2: 7a           	ply
     9b3: 92 12        	sta	($12)                   ; 0x2012 <f256main+0x179b>
     9b5: c8           	iny
     9b6: d0 01        	bne	$9b9 <f256main+0x142>
     9b8: e8           	inx
     9b9: c0 19        	cpy	#$19
     9bb: d0 d9        	bne	$996 <f256main+0x11f>
     9bd: a2 00        	ldx	#$0
     9bf: a0 45        	ldy	#$45
     9c1: 84 12        	sty	$12                     ; 0x2012 <f256main+0x179b>
     9c3: a0 38        	ldy	#$38
     9c5: 84 13        	sty	$13                     ; 0x2013 <f256main+0x179c>
     9c7: a5 12        	lda	$12                     ; 0x2012 <f256main+0x179b>
     9c9: a0 04        	ldy	#$4
     9cb: 91 10        	sta	($10),y                 ; 0x2010 <f256main+0x1799>
     9cd: a5 13        	lda	$13                     ; 0x2013 <f256main+0x179c>
     9cf: c8           	iny
     9d0: 91 10        	sta	($10),y                 ; 0x2010 <f256main+0x1799>
     9d2: 88           	dey
     9d3: b1 10        	lda	($10),y                 ; 0x2010 <f256main+0x1799>
     9d5: 85 12        	sta	$12                     ; 0x2012 <f256main+0x179b>
     9d7: c8           	iny
     9d8: b1 10        	lda	($10),y                 ; 0x2010 <f256main+0x1799>
     9da: 85 13        	sta	$13                     ; 0x2013 <f256main+0x179c>
     9dc: 86 28        	stx	$28                     ; 0x2028 <f256main+0x17b1>
     9de: a9 00        	lda	#$0
     9e0: 20 62 30     	jsr	$3062 <sid_setInstrument>
     9e3: a0 04        	ldy	#$4
     9e5: b1 10        	lda	($10),y                 ; 0x2010 <f256main+0x1799>
     9e7: 85 12        	sta	$12                     ; 0x2012 <f256main+0x179b>
     9e9: c8           	iny
     9ea: b1 10        	lda	($10),y                 ; 0x2010 <f256main+0x1799>
     9ec: 85 13        	sta	$13                     ; 0x2013 <f256main+0x179c>
     9ee: a6 28        	ldx	$28                     ; 0x2028 <f256main+0x17b1>
     9f0: a9 01        	lda	#$1
     9f2: 20 62 30     	jsr	$3062 <sid_setInstrument>
     9f5: a6 28        	ldx	$28                     ; 0x2028 <f256main+0x17b1>
     9f7: e8           	inx
     9f8: e0 03        	cpx	#$3
     9fa: d0 c3        	bne	$9bf <f256main+0x148>
     9fc: 9c 14 d4     	stz	$d414                   ; 0xd414 <__heap_start+0x9988>
     9ff: 9c 15 d4     	stz	$d415                   ; 0xd415 <__heap_start+0x9989>
     a02: 9c 17 d4     	stz	$d417                   ; 0xd417 <__heap_start+0x998b>
     a05: a2 0f        	ldx	#$f
     a07: 8e 18 d4     	stx	$d418                   ; 0xd418 <__heap_start+0x998c>
     a0a: 9c 14 d5     	stz	$d514                   ; 0xd514 <__heap_start+0x9a88>
     a0d: 9c 15 d5     	stz	$d515                   ; 0xd515 <__heap_start+0x9a89>
     a10: 9c 17 d5     	stz	$d517                   ; 0xd517 <__heap_start+0x9a8b>
     a13: 8e 18 d5     	stx	$d518                   ; 0xd518 <__heap_start+0x9a8c>
     a16: ad a1 d6     	lda	$d6a1                   ; 0xd6a1 <__heap_start+0x9c15>
     a19: 29 f7        	and	#$f7
     a1b: 8d a1 d6     	sta	$d6a1                   ; 0xd6a1 <__heap_start+0x9c15>
     a1e: ad a1 d6     	lda	$d6a1                   ; 0xd6a1 <__heap_start+0x9c15>
     a21: 29 fb        	and	#$fb
     a23: 8d a1 d6     	sta	$d6a1                   ; 0xd6a1 <__heap_start+0x9c15>
     a26: a2 01        	ldx	#$1
     a28: 8e 80 d5     	stx	$d580                   ; 0xd580 <__heap_start+0x9af4>
     a2b: a0 20        	ldy	#$20
     a2d: 8c 81 d5     	sty	$d581                   ; 0xd581 <__heap_start+0x9af5>
     a30: a0 02        	ldy	#$2
     a32: 8c 80 d5     	sty	$d580                   ; 0xd580 <__heap_start+0x9af4>
     a35: 9c 81 d5     	stz	$d581                   ; 0xd581 <__heap_start+0x9af5>
     a38: c8           	iny
     a39: 8c 80 d5     	sty	$d580                   ; 0xd580 <__heap_start+0x9af4>
     a3c: 9c 81 d5     	stz	$d581                   ; 0xd581 <__heap_start+0x9af5>
     a3f: c8           	iny
     a40: 8c 82 d5     	sty	$d582                   ; 0xd582 <__heap_start+0x9af6>
     a43: 9c 81 d5     	stz	$d581                   ; 0xd581 <__heap_start+0x9af5>
     a46: c8           	iny
     a47: 8c 82 d5     	sty	$d582                   ; 0xd582 <__heap_start+0x9af6>
     a4a: 8e 81 d5     	stx	$d581                   ; 0xd581 <__heap_start+0x9af5>
     a4d: a2 08        	ldx	#$8
     a4f: 8e 80 d5     	stx	$d580                   ; 0xd580 <__heap_start+0x9af4>
     a52: 9c 81 d5     	stz	$d581                   ; 0xd581 <__heap_start+0x9af5>
     a55: a2 c0        	ldx	#$c0
     a57: a0 30        	ldy	#$30
     a59: 8e 80 d5     	stx	$d580                   ; 0xd580 <__heap_start+0x9af4>
     a5c: 8c 81 d5     	sty	$d581                   ; 0xd581 <__heap_start+0x9af5>
     a5f: e8           	inx
     a60: e0 c9        	cpx	#$c9
     a62: d0 f5        	bne	$a59 <f256main+0x1e2>
     a64: a2 b0        	ldx	#$b0
     a66: 8e 80 d5     	stx	$d580                   ; 0xd580 <__heap_start+0x9af4>
     a69: 9c 81 d5     	stz	$d581                   ; 0xd581 <__heap_start+0x9af5>
     a6c: e8           	inx
     a6d: e0 b9        	cpx	#$b9
     a6f: d0 f5        	bne	$a66 <f256main+0x1ef>
     a71: a2 00        	ldx	#$0
     a73: 4c 15 0b     	jmp	$b15 <f256main+0x29e>
     a76: 18           	clc
     a77: 8a           	txa
     a78: 69 05        	adc	#$5
     a7a: a8           	tay
     a7b: 09 20        	ora	#$20
     a7d: 8d 80 d5     	sta	$d580                   ; 0xd580 <__heap_start+0x9af4>
     a80: a9 c0        	lda	#$c0
     a82: 8d 81 d5     	sta	$d581                   ; 0xd581 <__heap_start+0x9af5>
     a85: 98           	tya
     a86: 18           	clc
     a87: 69 03        	adc	#$3
     a89: c0 fd        	cpy	#$fd
     a8b: 85 15        	sta	$15                     ; 0x2015 <f256main+0x179e>
     a8d: 09 20        	ora	#$20
     a8f: 5a           	phy
     a90: a0 80        	ldy	#$80
     a92: 84 12        	sty	$12                     ; 0x2012 <f256main+0x179b>
     a94: a0 d5        	ldy	#$d5
     a96: 84 13        	sty	$13                     ; 0x2013 <f256main+0x179c>
     a98: 7a           	ply
     a99: 90 0a        	bcc	$aa5 <f256main+0x22e>
     a9b: 5a           	phy
     a9c: a0 82        	ldy	#$82
     a9e: 84 12        	sty	$12                     ; 0x2012 <f256main+0x179b>
     aa0: a0 d5        	ldy	#$d5
     aa2: 84 13        	sty	$13                     ; 0x2013 <f256main+0x179c>
     aa4: 7a           	ply
     aa5: 92 12        	sta	($12)                   ; 0x2012 <f256main+0x179b>
     aa7: a9 21        	lda	#$21
     aa9: 8d 81 d5     	sta	$d581                   ; 0xd581 <__heap_start+0x9af5>
     aac: 98           	tya
     aad: 09 40        	ora	#$40
     aaf: 8d 80 d5     	sta	$d580                   ; 0xd580 <__heap_start+0x9af4>
     ab2: a9 15        	lda	#$15
     ab4: 8d 81 d5     	sta	$d581                   ; 0xd581 <__heap_start+0x9af5>
     ab7: a5 15        	lda	$15                     ; 0x2015 <f256main+0x179e>
     ab9: 09 40        	ora	#$40
     abb: 92 12        	sta	($12)                   ; 0x2012 <f256main+0x179b>
     abd: a9 01        	lda	#$1
     abf: 8d 81 d5     	sta	$d581                   ; 0xd581 <__heap_start+0x9af5>
     ac2: 98           	tya
     ac3: 09 60        	ora	#$60
     ac5: 8d 80 d5     	sta	$d580                   ; 0xd580 <__heap_start+0x9af4>
     ac8: a9 f2        	lda	#$f2
     aca: 8d 81 d5     	sta	$d581                   ; 0xd581 <__heap_start+0x9af5>
     acd: a5 15        	lda	$15                     ; 0x2015 <f256main+0x179e>
     acf: 09 60        	ora	#$60
     ad1: 92 12        	sta	($12)                   ; 0x2012 <f256main+0x179b>
     ad3: a9 f4        	lda	#$f4
     ad5: 8d 81 d5     	sta	$d581                   ; 0xd581 <__heap_start+0x9af5>
     ad8: 98           	tya
     ad9: 09 80        	ora	#$80
     adb: 8d 80 d5     	sta	$d580                   ; 0xd580 <__heap_start+0x9af4>
     ade: a9 40        	lda	#$40
     ae0: 8d 81 d5     	sta	$d581                   ; 0xd581 <__heap_start+0x9af5>
     ae3: a5 15        	lda	$15                     ; 0x2015 <f256main+0x179e>
     ae5: 09 80        	ora	#$80
     ae7: 92 12        	sta	($12)                   ; 0x2012 <f256main+0x179b>
     ae9: a9 25        	lda	#$25
     aeb: 8d 81 d5     	sta	$d581                   ; 0xd581 <__heap_start+0x9af5>
     aee: 98           	tya
     aef: 09 e0        	ora	#$e0
     af1: 8d 80 d5     	sta	$d580                   ; 0xd580 <__heap_start+0x9af4>
     af4: a9 07        	lda	#$7
     af6: 8d 81 d5     	sta	$d581                   ; 0xd581 <__heap_start+0x9af5>
     af9: a5 15        	lda	$15                     ; 0x2015 <f256main+0x179e>
     afb: 09 e0        	ora	#$e0
     afd: 92 12        	sta	($12)                   ; 0x2012 <f256main+0x179b>
     aff: 18           	clc
     b00: 8a           	txa
     b01: 69 c0        	adc	#$c0
     b03: a0 04        	ldy	#$4
     b05: 8c 81 d5     	sty	$d581                   ; 0xd581 <__heap_start+0x9af5>
     b08: 8d 80 d5     	sta	$d580                   ; 0xd580 <__heap_start+0x9af4>
     b0b: a0 30        	ldy	#$30
     b0d: 8c 81 d5     	sty	$d581                   ; 0xd581 <__heap_start+0x9af5>
     b10: e8           	inx
     b11: e0 09        	cpx	#$9
     b13: f0 16        	beq	$b2b <f256main+0x2b4>
     b15: e0 03        	cpx	#$3
     b17: 8a           	txa
     b18: b0 03        	bcs	$b1d <f256main+0x2a6>
     b1a: 4c 7a 0a     	jmp	$a7a <f256main+0x203>
     b1d: e0 06        	cpx	#$6
     b1f: b0 03        	bcs	$b24 <f256main+0x2ad>
     b21: 4c 76 0a     	jmp	$a76 <f256main+0x1ff>
     b24: 18           	clc
     b25: 8a           	txa
     b26: 69 0a        	adc	#$a
     b28: 4c 7a 0a     	jmp	$a7a <f256main+0x203>
     b2b: a2 01        	ldx	#$1
     b2d: 8e e0 d6     	stx	$d6e0                   ; 0xd6e0 <__heap_start+0x9c54>
     b30: 9c e2 d6     	stz	$d6e2                   ; 0xd6e2 <__heap_start+0x9c56>
     b33: 8e e3 d6     	stx	$d6e3                   ; 0xd6e3 <__heap_start+0x9c57>
     b36: 9c e4 d6     	stz	$d6e4                   ; 0xd6e4 <__heap_start+0x9c58>
     b39: 8e e5 d6     	stx	$d6e5                   ; 0xd6e5 <__heap_start+0x9c59>
     b3c: a9 11        	lda	#$11
     b3e: ca           	dex
     b3f: 20 ef 30     	jsr	$30ef <malloc>
     b42: a6 12        	ldx	$12                     ; 0x2012 <f256main+0x179b>
     b44: a4 13        	ldy	$13                     ; 0x2013 <f256main+0x179c>
     b46: 86 df        	stx	$df                     ; 0x20df <f256main+0x1868>
     b48: 84 e0        	sty	$e0                     ; 0x20e0 <f256main+0x1869>
     b4a: a9 00        	lda	#$0
     b4c: 92 12        	sta	($12)                   ; 0x2012 <f256main+0x179b>
     b4e: a0 01        	ldy	#$1
     b50: 91 12        	sta	($12),y                 ; 0x2012 <f256main+0x179b>
     b52: c8           	iny
     b53: 91 12        	sta	($12),y                 ; 0x2012 <f256main+0x179b>
     b55: c8           	iny
     b56: 1a           	inc
     b57: 91 12        	sta	($12),y                 ; 0x2012 <f256main+0x179b>
     b59: a5 12        	lda	$12                     ; 0x2012 <f256main+0x179b>
     b5b: 18           	clc
     b5c: 69 04        	adc	#$4
     b5e: 85 14        	sta	$14                     ; 0x2014 <f256main+0x179d>
     b60: a5 13        	lda	$13                     ; 0x2013 <f256main+0x179c>
     b62: 69 00        	adc	#$0
     b64: 85 15        	sta	$15                     ; 0x2015 <f256main+0x179e>
     b66: c8           	iny
     b67: b1 12        	lda	($12),y                 ; 0x2012 <f256main+0x179b>
     b69: 85 12        	sta	$12                     ; 0x2012 <f256main+0x179b>
     b6b: a0 01        	ldy	#$1
     b6d: b1 14        	lda	($14),y                 ; 0x2014 <f256main+0x179d>
     b6f: 85 13        	sta	$13                     ; 0x2013 <f256main+0x179c>
     b71: a9 0f        	lda	#$f
     b73: 92 12        	sta	($12)                   ; 0x2012 <f256main+0x179b>
     b75: a9 88        	lda	#$88
     b77: 91 12        	sta	($12),y                 ; 0x2012 <f256main+0x179b>
     b79: a9 02        	lda	#$2
     b7b: a8           	tay
     b7c: 91 12        	sta	($12),y                 ; 0x2012 <f256main+0x179b>
     b7e: a9 19        	lda	#$19
     b80: c8           	iny
     b81: 91 12        	sta	($12),y                 ; 0x2012 <f256main+0x179b>
     b83: a9 23        	lda	#$23
     b85: c8           	iny
     b86: 91 12        	sta	($12),y                 ; 0x2012 <f256main+0x179b>
     b88: a9 20        	lda	#$20
     b8a: c8           	iny
     b8b: 91 12        	sta	($12),y                 ; 0x2012 <f256main+0x179b>
     b8d: c8           	iny
     b8e: a9 00        	lda	#$0
     b90: 91 12        	sta	($12),y                 ; 0x2012 <f256main+0x179b>
     b92: c8           	iny
     b93: 91 12        	sta	($12),y                 ; 0x2012 <f256main+0x179b>
     b95: c8           	iny
     b96: 91 12        	sta	($12),y                 ; 0x2012 <f256main+0x179b>
     b98: a2 0a        	ldx	#$a
     b9a: 86 43        	stx	$43                     ; 0x2043 <f256main+0x17cc>
     b9c: 8e 14 d0     	stx	$d014                   ; 0xd014 <__heap_start+0x9588>
     b9f: 9c 15 d0     	stz	$d015                   ; 0xd015 <__heap_start+0x9589>
     ba2: a2 04        	ldx	#$4
     ba4: 86 44        	stx	$44                     ; 0x2044 <f256main+0x17cd>
     ba6: 8e 16 d0     	stx	$d016                   ; 0xd016 <__heap_start+0x958a>
     ba9: 9c 17 d0     	stz	$d017                   ; 0xd017 <__heap_start+0x958b>
     bac: a2 98        	ldx	#$98
     bae: 86 12        	stx	$12                     ; 0x2012 <f256main+0x179b>
     bb0: a2 37        	ldx	#$37
     bb2: 86 13        	stx	$13                     ; 0x2013 <f256main+0x179c>
     bb4: 20 ca 26     	jsr	$26ca <textPrint>
     bb7: a2 0a        	ldx	#$a
     bb9: 86 43        	stx	$43                     ; 0x2043 <f256main+0x17cc>
     bbb: 8e 14 d0     	stx	$d014                   ; 0xd014 <__heap_start+0x9588>
     bbe: 9c 15 d0     	stz	$d015                   ; 0xd015 <__heap_start+0x9589>
     bc1: a2 05        	ldx	#$5
     bc3: 86 44        	stx	$44                     ; 0x2044 <f256main+0x17cd>
     bc5: 8e 16 d0     	stx	$d016                   ; 0xd016 <__heap_start+0x958a>
     bc8: 9c 17 d0     	stz	$d017                   ; 0xd017 <__heap_start+0x958b>
     bcb: a2 1f        	ldx	#$1f
     bcd: 86 12        	stx	$12                     ; 0x2012 <f256main+0x179b>
     bcf: a2 37        	ldx	#$37
     bd1: 86 13        	stx	$13                     ; 0x2013 <f256main+0x179c>
     bd3: 20 ca 26     	jsr	$26ca <textPrint>
     bd6: a2 0a        	ldx	#$a
     bd8: 86 43        	stx	$43                     ; 0x2043 <f256main+0x17cc>
     bda: 8e 14 d0     	stx	$d014                   ; 0xd014 <__heap_start+0x9588>
     bdd: 9c 15 d0     	stz	$d015                   ; 0xd015 <__heap_start+0x9589>
     be0: a2 06        	ldx	#$6
     be2: 86 44        	stx	$44                     ; 0x2044 <f256main+0x17cd>
     be4: 8e 16 d0     	stx	$d016                   ; 0xd016 <__heap_start+0x958a>
     be7: 9c 17 d0     	stz	$d017                   ; 0xd017 <__heap_start+0x958b>
     bea: a2 1b        	ldx	#$1b
     bec: 86 12        	stx	$12                     ; 0x2012 <f256main+0x179b>
     bee: a2 37        	ldx	#$37
     bf0: 86 13        	stx	$13                     ; 0x2013 <f256main+0x179c>
     bf2: 20 ca 26     	jsr	$26ca <textPrint>
     bf5: a2 0a        	ldx	#$a
     bf7: 86 43        	stx	$43                     ; 0x2043 <f256main+0x17cc>
     bf9: 8e 14 d0     	stx	$d014                   ; 0xd014 <__heap_start+0x9588>
     bfc: 9c 15 d0     	stz	$d015                   ; 0xd015 <__heap_start+0x9589>
     bff: a2 07        	ldx	#$7
     c01: 86 44        	stx	$44                     ; 0x2044 <f256main+0x17cd>
     c03: 8e 16 d0     	stx	$d016                   ; 0xd016 <__heap_start+0x958a>
     c06: 9c 17 d0     	stz	$d017                   ; 0xd017 <__heap_start+0x958b>
     c09: a2 8f        	ldx	#$8f
     c0b: 86 12        	stx	$12                     ; 0x2012 <f256main+0x179b>
     c0d: a2 37        	ldx	#$37
     c0f: 86 13        	stx	$13                     ; 0x2013 <f256main+0x179c>
     c11: 20 ca 26     	jsr	$26ca <textPrint>
     c14: a2 1e        	ldx	#$1e
     c16: 86 43        	stx	$43                     ; 0x2043 <f256main+0x17cc>
     c18: 8e 14 d0     	stx	$d014                   ; 0xd014 <__heap_start+0x9588>
     c1b: 9c 15 d0     	stz	$d015                   ; 0xd015 <__heap_start+0x9589>
     c1e: a2 04        	ldx	#$4
     c20: 86 44        	stx	$44                     ; 0x2044 <f256main+0x17cd>
     c22: 8e 16 d0     	stx	$d016                   ; 0xd016 <__heap_start+0x958a>
     c25: 9c 17 d0     	stz	$d017                   ; 0xd017 <__heap_start+0x958b>
     c28: a2 23        	ldx	#$23
     c2a: 86 12        	stx	$12                     ; 0x2012 <f256main+0x179b>
     c2c: a2 37        	ldx	#$37
     c2e: 86 13        	stx	$13                     ; 0x2013 <f256main+0x179c>
     c30: 20 ca 26     	jsr	$26ca <textPrint>
     c33: a2 1e        	ldx	#$1e
     c35: 86 43        	stx	$43                     ; 0x2043 <f256main+0x17cc>
     c37: 8e 14 d0     	stx	$d014                   ; 0xd014 <__heap_start+0x9588>
     c3a: 9c 15 d0     	stz	$d015                   ; 0xd015 <__heap_start+0x9589>
     c3d: a2 05        	ldx	#$5
     c3f: 86 44        	stx	$44                     ; 0x2044 <f256main+0x17cd>
     c41: 8e 16 d0     	stx	$d016                   ; 0xd016 <__heap_start+0x958a>
     c44: 9c 17 d0     	stz	$d017                   ; 0xd017 <__heap_start+0x958b>
     c47: a2 8b        	ldx	#$8b
     c49: 86 12        	stx	$12                     ; 0x2012 <f256main+0x179b>
     c4b: a2 37        	ldx	#$37
     c4d: 86 13        	stx	$13                     ; 0x2013 <f256main+0x179c>
     c4f: 20 ca 26     	jsr	$26ca <textPrint>
     c52: a2 1e        	ldx	#$1e
     c54: 86 43        	stx	$43                     ; 0x2043 <f256main+0x17cc>
     c56: 8e 14 d0     	stx	$d014                   ; 0xd014 <__heap_start+0x9588>
     c59: 9c 15 d0     	stz	$d015                   ; 0xd015 <__heap_start+0x9589>
     c5c: a2 06        	ldx	#$6
     c5e: 86 44        	stx	$44                     ; 0x2044 <f256main+0x17cd>
     c60: 8e 16 d0     	stx	$d016                   ; 0xd016 <__heap_start+0x958a>
     c63: 9c 17 d0     	stz	$d017                   ; 0xd017 <__heap_start+0x958b>
     c66: a2 87        	ldx	#$87
     c68: 86 12        	stx	$12                     ; 0x2012 <f256main+0x179b>
     c6a: a2 37        	ldx	#$37
     c6c: 86 13        	stx	$13                     ; 0x2013 <f256main+0x179c>
     c6e: 20 ca 26     	jsr	$26ca <textPrint>
     c71: a2 1e        	ldx	#$1e
     c73: 86 43        	stx	$43                     ; 0x2043 <f256main+0x17cc>
     c75: 8e 14 d0     	stx	$d014                   ; 0xd014 <__heap_start+0x9588>
     c78: 9c 15 d0     	stz	$d015                   ; 0xd015 <__heap_start+0x9589>
     c7b: a2 07        	ldx	#$7
     c7d: 86 44        	stx	$44                     ; 0x2044 <f256main+0x17cd>
     c7f: 8e 16 d0     	stx	$d016                   ; 0xd016 <__heap_start+0x958a>
     c82: 9c 17 d0     	stz	$d017                   ; 0xd017 <__heap_start+0x958b>
     c85: a2 a5        	ldx	#$a5
     c87: 86 12        	stx	$12                     ; 0x2012 <f256main+0x179b>
     c89: a2 37        	ldx	#$37
     c8b: 86 13        	stx	$13                     ; 0x2013 <f256main+0x179c>
     c8d: 20 ca 26     	jsr	$26ca <textPrint>
     c90: a2 11        	ldx	#$11
     c92: 86 43        	stx	$43                     ; 0x2043 <f256main+0x17cc>
     c94: 8e 14 d0     	stx	$d014                   ; 0xd014 <__heap_start+0x9588>
     c97: 9c 15 d0     	stz	$d015                   ; 0xd015 <__heap_start+0x9589>
     c9a: a2 03        	ldx	#$3
     c9c: 86 44        	stx	$44                     ; 0x2044 <f256main+0x17cd>
     c9e: 8e 16 d0     	stx	$d016                   ; 0xd016 <__heap_start+0x958a>
     ca1: 9c 17 d0     	stz	$d017                   ; 0xd017 <__heap_start+0x958b>
     ca4: a2 9d        	ldx	#$9d
     ca6: 86 12        	stx	$12                     ; 0x2012 <f256main+0x179b>
     ca8: a2 37        	ldx	#$37
     caa: 86 13        	stx	$13                     ; 0x2013 <f256main+0x179c>
     cac: 20 ca 26     	jsr	$26ca <textPrint>
     caf: a2 16        	ldx	#$16
     cb1: 86 43        	stx	$43                     ; 0x2043 <f256main+0x17cc>
     cb3: 8e 14 d0     	stx	$d014                   ; 0xd014 <__heap_start+0x9588>
     cb6: 9c 15 d0     	stz	$d015                   ; 0xd015 <__heap_start+0x9589>
     cb9: a2 09        	ldx	#$9
     cbb: 86 44        	stx	$44                     ; 0x2044 <f256main+0x17cd>
     cbd: 8e 16 d0     	stx	$d016                   ; 0xd016 <__heap_start+0x958a>
     cc0: 9c 17 d0     	stz	$d017                   ; 0xd017 <__heap_start+0x958b>
     cc3: a2 94        	ldx	#$94
     cc5: 86 12        	stx	$12                     ; 0x2012 <f256main+0x179b>
     cc7: a2 37        	ldx	#$37
     cc9: 86 13        	stx	$13                     ; 0x2013 <f256main+0x179c>
     ccb: 20 ca 26     	jsr	$26ca <textPrint>
     cce: 64 14        	stz	$14                     ; 0x2014 <f256main+0x179d>
     cd0: 64 15        	stz	$15                     ; 0x2015 <f256main+0x179e>
     cd2: a2 28        	ldx	#$28
     cd4: 8a           	txa
     cd5: a0 04        	ldy	#$4
     cd7: 91 10        	sta	($10),y                 ; 0x2010 <f256main+0x1799>
     cd9: 64 27        	stz	$27                     ; 0x2027 <f256main+0x17b0>
     cdb: a6 27        	ldx	$27                     ; 0x2027 <f256main+0x17b0>
     cdd: bd 83 36     	lda	$3683,x                 ; 0x3683 <sidSpriteAction>
     ce0: aa           	tax
     ce1: 86 1b        	stx	$1b                     ; 0x201b <f256main+0x17a4>
     ce3: a6 14        	ldx	$14                     ; 0x2014 <f256main+0x179d>
     ce5: 86 12        	stx	$12                     ; 0x2012 <f256main+0x179b>
     ce7: 86 1a        	stx	$1a                     ; 0x201a <f256main+0x17a3>
     ce9: a9 e0        	lda	#$e0
     ceb: 18           	clc
     cec: 65 12        	adc	$12                     ; 0x2012 <f256main+0x179b>
     cee: a8           	tay
     cef: a6 15        	ldx	$15                     ; 0x2015 <f256main+0x179e>
     cf1: 86 25        	stx	$25                     ; 0x2025 <f256main+0x17ae>
     cf3: 86 12        	stx	$12                     ; 0x2012 <f256main+0x179b>
     cf5: a9 38        	lda	#$38
     cf7: 65 12        	adc	$12                     ; 0x2012 <f256main+0x179b>
     cf9: aa           	tax
     cfa: 98           	tya
     cfb: 18           	clc
     cfc: 69 03        	adc	#$3
     cfe: 85 16        	sta	$16                     ; 0x2016 <f256main+0x179f>
     d00: 8a           	txa
     d01: 69 00        	adc	#$0
     d03: 85 17        	sta	$17                     ; 0x2017 <f256main+0x17a0>
     d05: 84 12        	sty	$12                     ; 0x2012 <f256main+0x179b>
     d07: 98           	tya
     d08: 86 13        	stx	$13                     ; 0x2013 <f256main+0x179c>
     d0a: 84 14        	sty	$14                     ; 0x2014 <f256main+0x179d>
     d0c: 86 15        	stx	$15                     ; 0x2015 <f256main+0x179e>
     d0e: 18           	clc
     d0f: 69 08        	adc	#$8
     d11: 85 18        	sta	$18                     ; 0x2018 <f256main+0x17a1>
     d13: 8a           	txa
     d14: 69 00        	adc	#$0
     d16: 85 19        	sta	$19                     ; 0x2019 <f256main+0x17a2>
     d18: e6 14        	inc	$14                     ; 0x2014 <f256main+0x179d>
     d1a: d0 02        	bne	$d1e <f256main+0x4a7>
     d1c: e6 15        	inc	$15                     ; 0x2015 <f256main+0x179e>
     d1e: a9 00        	lda	#$0
     d20: a0 01        	ldy	#$1
     d22: 91 14        	sta	($14),y                 ; 0x2014 <f256main+0x179d>
     d24: 91 16        	sta	($16),y                 ; 0x2016 <f256main+0x179f>
     d26: a9 38        	lda	#$38
     d28: 91 18        	sta	($18),y                 ; 0x2018 <f256main+0x17a1>
     d2a: 98           	tya
     d2b: c8           	iny
     d2c: 91 18        	sta	($18),y                 ; 0x2018 <f256main+0x17a1>
     d2e: c8           	iny
     d2f: 3a           	dec
     d30: 91 18        	sta	($18),y                 ; 0x2018 <f256main+0x17a1>
     d32: a5 27        	lda	$27                     ; 0x2027 <f256main+0x17b0>
     d34: 92 12        	sta	($12)                   ; 0x2012 <f256main+0x179b>
     d36: a9 28        	lda	#$28
     d38: a0 01        	ldy	#$1
     d3a: 91 12        	sta	($12),y                 ; 0x2012 <f256main+0x179b>
     d3c: a0 04        	ldy	#$4
     d3e: b1 10        	lda	($10),y                 ; 0x2010 <f256main+0x1799>
     d40: 85 26        	sta	$26                     ; 0x2026 <f256main+0x17af>
     d42: 88           	dey
     d43: 91 12        	sta	($12),y                 ; 0x2012 <f256main+0x179b>
     d45: a0 05        	ldy	#$5
     d47: a9 00        	lda	#$0
     d49: 91 12        	sta	($12),y                 ; 0x2012 <f256main+0x179b>
     d4b: c8           	iny
     d4c: 91 12        	sta	($12),y                 ; 0x2012 <f256main+0x179b>
     d4e: c8           	iny
     d4f: 91 12        	sta	($12),y                 ; 0x2012 <f256main+0x179b>
     d51: c8           	iny
     d52: 91 12        	sta	($12),y                 ; 0x2012 <f256main+0x179b>
     d54: a0 0c        	ldy	#$c
     d56: a5 27        	lda	$27                     ; 0x2027 <f256main+0x17b0>
     d58: 91 12        	sta	($12),y                 ; 0x2012 <f256main+0x179b>
     d5a: c8           	iny
     d5b: a9 10        	lda	#$10
     d5d: 91 12        	sta	($12),y                 ; 0x2012 <f256main+0x179b>
     d5f: c8           	iny
     d60: a9 00        	lda	#$0
     d62: 91 12        	sta	($12),y                 ; 0x2012 <f256main+0x179b>
     d64: a9 0d        	lda	#$d
     d66: c8           	iny
     d67: 91 12        	sta	($12),y                 ; 0x2012 <f256main+0x179b>
     d69: a9 04        	lda	#$4
     d6b: c8           	iny
     d6c: 91 12        	sta	($12),y                 ; 0x2012 <f256main+0x179b>
     d6e: c8           	iny
     d6f: a9 0b        	lda	#$b
     d71: 91 12        	sta	($12),y                 ; 0x2012 <f256main+0x179b>
     d73: c8           	iny
     d74: a5 1b        	lda	$1b                     ; 0x201b <f256main+0x17a4>
     d76: 91 12        	sta	($12),y                 ; 0x2012 <f256main+0x179b>
     d78: a2 01        	ldx	#$1
     d7a: a4 1a        	ldy	$1a                     ; 0x201a <f256main+0x17a3>
     d7c: 84 24        	sty	$24                     ; 0x2024 <f256main+0x17ad>
     d7e: c0 15        	cpy	#$15
     d80: f0 02        	beq	$d84 <f256main+0x50d>
     d82: a2 00        	ldx	#$0
     d84: a9 00        	lda	#$0
     d86: 20 3f 2b     	jsr	$2b3f <setRadioB>
     d89: e6 27        	inc	$27                     ; 0x2027 <f256main+0x17b0>
     d8b: 18           	clc
     d8c: a5 26        	lda	$26                     ; 0x2026 <f256main+0x17af>
     d8e: 69 0a        	adc	#$a
     d90: a0 04        	ldy	#$4
     d92: 91 10        	sta	($10),y                 ; 0x2010 <f256main+0x1799>
     d94: 18           	clc
     d95: a5 24        	lda	$24                     ; 0x2024 <f256main+0x17ad>
     d97: 69 15        	adc	#$15
     d99: aa           	tax
     d9a: a5 25        	lda	$25                     ; 0x2025 <f256main+0x17ae>
     d9c: 69 00        	adc	#$0
     d9e: 85 15        	sta	$15                     ; 0x2015 <f256main+0x179e>
     da0: 86 14        	stx	$14                     ; 0x2014 <f256main+0x179d>
     da2: e0 54        	cpx	#$54
     da4: f0 03        	beq	$da9 <f256main+0x532>
     da6: 4c db 0c     	jmp	$cdb <f256main+0x464>
     da9: a0 40        	ldy	#$40
     dab: 64 12        	stz	$12                     ; 0x2012 <f256main+0x179b>
     dad: a9 00        	lda	#$0
     daf: a2 04        	ldx	#$4
     db1: 48           	pha
     db2: 8a           	txa
     db3: 5a           	phy
     db4: a0 04        	ldy	#$4
     db6: 91 10        	sta	($10),y                 ; 0x2010 <f256main+0x1799>
     db8: 7a           	ply
     db9: 68           	pla
     dba: a6 12        	ldx	$12                     ; 0x2012 <f256main+0x179b>
     dbc: 86 1c        	stx	$1c                     ; 0x201c <f256main+0x17a5>
     dbe: 18           	clc
     dbf: 85 13        	sta	$13                     ; 0x2013 <f256main+0x179c>
     dc1: a9 e0        	lda	#$e0
     dc3: 65 12        	adc	$12                     ; 0x2012 <f256main+0x179b>
     dc5: 85 15        	sta	$15                     ; 0x2015 <f256main+0x179e>
     dc7: a6 13        	ldx	$13                     ; 0x2013 <f256main+0x179c>
     dc9: 86 26        	stx	$26                     ; 0x2026 <f256main+0x17af>
     dcb: a9 38        	lda	#$38
     dcd: 65 13        	adc	$13                     ; 0x2013 <f256main+0x179c>
     dcf: 85 14        	sta	$14                     ; 0x2014 <f256main+0x179d>
     dd1: a5 15        	lda	$15                     ; 0x2015 <f256main+0x179e>
     dd3: 18           	clc
     dd4: 69 54        	adc	#$54
     dd6: 85 12        	sta	$12                     ; 0x2012 <f256main+0x179b>
     dd8: a5 14        	lda	$14                     ; 0x2014 <f256main+0x179d>
     dda: 69 00        	adc	#$0
     ddc: 85 13        	sta	$13                     ; 0x2013 <f256main+0x179c>
     dde: a5 15        	lda	$15                     ; 0x2015 <f256main+0x179e>
     de0: 18           	clc
     de1: 69 55        	adc	#$55
     de3: 85 16        	sta	$16                     ; 0x2016 <f256main+0x179f>
     de5: 84 1d        	sty	$1d                     ; 0x201d <f256main+0x17a6>
     de7: a5 14        	lda	$14                     ; 0x2014 <f256main+0x179d>
     de9: 69 00        	adc	#$0
     deb: 85 17        	sta	$17                     ; 0x2017 <f256main+0x17a0>
     ded: a5 15        	lda	$15                     ; 0x2015 <f256main+0x179e>
     def: 18           	clc
     df0: 69 57        	adc	#$57
     df2: 85 18        	sta	$18                     ; 0x2018 <f256main+0x17a1>
     df4: a4 14        	ldy	$14                     ; 0x2014 <f256main+0x179d>
     df6: a5 14        	lda	$14                     ; 0x2014 <f256main+0x179d>
     df8: 69 00        	adc	#$0
     dfa: 85 19        	sta	$19                     ; 0x2019 <f256main+0x17a2>
     dfc: a6 15        	ldx	$15                     ; 0x2015 <f256main+0x179e>
     dfe: 86 14        	stx	$14                     ; 0x2014 <f256main+0x179d>
     e00: a5 15        	lda	$15                     ; 0x2015 <f256main+0x179e>
     e02: 84 15        	sty	$15                     ; 0x2015 <f256main+0x179e>
     e04: 18           	clc
     e05: 69 5c        	adc	#$5c
     e07: 85 1a        	sta	$1a                     ; 0x201a <f256main+0x17a3>
     e09: 98           	tya
     e0a: 69 00        	adc	#$0
     e0c: 85 1b        	sta	$1b                     ; 0x201b <f256main+0x17a4>
     e0e: a0 04        	ldy	#$4
     e10: b1 10        	lda	($10),y                 ; 0x2010 <f256main+0x1799>
     e12: aa           	tax
     e13: 85 1e        	sta	$1e                     ; 0x201e <f256main+0x17a7>
     e15: bd 83 36     	lda	$3683,x                 ; 0x3683 <sidSpriteAction>
     e18: a0 66        	ldy	#$66
     e1a: 91 14        	sta	($14),y                 ; 0x2014 <f256main+0x179d>
     e1c: a0 01        	ldy	#$1
     e1e: a9 00        	lda	#$0
     e20: 91 16        	sta	($16),y                 ; 0x2016 <f256main+0x179f>
     e22: 91 18        	sta	($18),y                 ; 0x2018 <f256main+0x17a1>
     e24: a9 38        	lda	#$38
     e26: 91 1a        	sta	($1a),y                 ; 0x201a <f256main+0x17a3>
     e28: c8           	iny
     e29: a9 01        	lda	#$1
     e2b: 91 1a        	sta	($1a),y                 ; 0x201a <f256main+0x17a3>
     e2d: c8           	iny
     e2e: 3a           	dec
     e2f: 91 1a        	sta	($1a),y                 ; 0x201a <f256main+0x17a3>
     e31: a0 54        	ldy	#$54
     e33: a5 1e        	lda	$1e                     ; 0x201e <f256main+0x17a7>
     e35: 91 14        	sta	($14),y                 ; 0x2014 <f256main+0x179d>
     e37: c8           	iny
     e38: a9 90        	lda	#$90
     e3a: 91 14        	sta	($14),y                 ; 0x2014 <f256main+0x179d>
     e3c: a5 1d        	lda	$1d                     ; 0x201d <f256main+0x17a6>
     e3e: 85 24        	sta	$24                     ; 0x2024 <f256main+0x17ad>
     e40: a0 57        	ldy	#$57
     e42: 91 14        	sta	($14),y                 ; 0x2014 <f256main+0x179d>
     e44: a0 59        	ldy	#$59
     e46: a9 00        	lda	#$0
     e48: 91 14        	sta	($14),y                 ; 0x2014 <f256main+0x179d>
     e4a: c8           	iny
     e4b: 91 14        	sta	($14),y                 ; 0x2014 <f256main+0x179d>
     e4d: c8           	iny
     e4e: 91 14        	sta	($14),y                 ; 0x2014 <f256main+0x179d>
     e50: c8           	iny
     e51: 91 14        	sta	($14),y                 ; 0x2014 <f256main+0x179d>
     e53: a5 1e        	lda	$1e                     ; 0x201e <f256main+0x17a7>
     e55: 85 27        	sta	$27                     ; 0x2027 <f256main+0x17b0>
     e57: a0 60        	ldy	#$60
     e59: 91 14        	sta	($14),y                 ; 0x2014 <f256main+0x179d>
     e5b: a9 10        	lda	#$10
     e5d: c8           	iny
     e5e: 91 14        	sta	($14),y                 ; 0x2014 <f256main+0x179d>
     e60: c8           	iny
     e61: a9 00        	lda	#$0
     e63: 91 14        	sta	($14),y                 ; 0x2014 <f256main+0x179d>
     e65: a9 0d        	lda	#$d
     e67: c8           	iny
     e68: 91 14        	sta	($14),y                 ; 0x2014 <f256main+0x179d>
     e6a: a9 04        	lda	#$4
     e6c: c8           	iny
     e6d: 91 14        	sta	($14),y                 ; 0x2014 <f256main+0x179d>
     e6f: a9 0b        	lda	#$b
     e71: c8           	iny
     e72: 91 14        	sta	($14),y                 ; 0x2014 <f256main+0x179d>
     e74: a9 01        	lda	#$1
     e76: a6 1c        	ldx	$1c                     ; 0x201c <f256main+0x17a5>
     e78: 86 25        	stx	$25                     ; 0x2025 <f256main+0x17ae>
     e7a: e0 15        	cpx	#$15
     e7c: f0 02        	beq	$e80 <f256main+0x609>
     e7e: a9 00        	lda	#$0
     e80: aa           	tax
     e81: a9 01        	lda	#$1
     e83: 20 3f 2b     	jsr	$2b3f <setRadioB>
     e86: e6 27        	inc	$27                     ; 0x2027 <f256main+0x17b0>
     e88: a5 27        	lda	$27                     ; 0x2027 <f256main+0x17b0>
     e8a: a0 04        	ldy	#$4
     e8c: 91 10        	sta	($10),y                 ; 0x2010 <f256main+0x1799>
     e8e: 18           	clc
     e8f: a5 24        	lda	$24                     ; 0x2024 <f256main+0x17ad>
     e91: 69 10        	adc	#$10
     e93: a8           	tay
     e94: 18           	clc
     e95: a5 25        	lda	$25                     ; 0x2025 <f256main+0x17ae>
     e97: 69 15        	adc	#$15
     e99: aa           	tax
     e9a: a5 26        	lda	$26                     ; 0x2026 <f256main+0x17af>
     e9c: 69 00        	adc	#$0
     e9e: 86 12        	stx	$12                     ; 0x2012 <f256main+0x179b>
     ea0: e0 54        	cpx	#$54
     ea2: f0 03        	beq	$ea7 <f256main+0x630>
     ea4: 4c ba 0d     	jmp	$dba <f256main+0x543>
     ea7: a2 63        	ldx	#$63
     ea9: 8a           	txa
     eaa: a0 04        	ldy	#$4
     eac: 91 10        	sta	($10),y                 ; 0x2010 <f256main+0x1799>
     eae: a2 08        	ldx	#$8
     eb0: 64 14        	stz	$14                     ; 0x2014 <f256main+0x179d>
     eb2: 64 12        	stz	$12                     ; 0x2012 <f256main+0x179b>
     eb4: 86 13        	stx	$13                     ; 0x2013 <f256main+0x179c>
     eb6: bd 83 36     	lda	$3683,x                 ; 0x3683 <sidSpriteAction>
     eb9: aa           	tax
     eba: 86 15        	stx	$15                     ; 0x2015 <f256main+0x179e>
     ebc: a6 14        	ldx	$14                     ; 0x2014 <f256main+0x179d>
     ebe: 9e 8a 39     	stz	$398a,x                 ; 0x398a <sliders+0x2>
     ec1: 9e 8c 39     	stz	$398c,x                 ; 0x398c <sliders+0x4>
     ec4: 9e 8d 39     	stz	$398d,x                 ; 0x398d <sliders+0x5>
     ec7: 9e 8e 39     	stz	$398e,x                 ; 0x398e <sliders+0x6>
     eca: 9e 8f 39     	stz	$398f,x                 ; 0x398f <sliders+0x7>
     ecd: 9e 90 39     	stz	$3990,x                 ; 0x3990 <sliders+0x8>
     ed0: 9e 93 39     	stz	$3993,x                 ; 0x3993 <sliders+0xb>
     ed3: a5 13        	lda	$13                     ; 0x2013 <f256main+0x179c>
     ed5: 9d 88 39     	sta	$3988,x                 ; 0x3988 <sliders>
     ed8: a0 04        	ldy	#$4
     eda: b1 10        	lda	($10),y                 ; 0x2010 <f256main+0x1799>
     edc: 9d 89 39     	sta	$3989,x                 ; 0x3989 <sliders+0x1>
     edf: 85 16        	sta	$16                     ; 0x2016 <f256main+0x179f>
     ee1: a9 40        	lda	#$40
     ee3: 9d 8b 39     	sta	$398b,x                 ; 0x398b <sliders+0x3>
     ee6: a9 28        	lda	#$28
     ee8: 9d 91 39     	sta	$3991,x                 ; 0x3991 <sliders+0x9>
     eeb: a9 01        	lda	#$1
     eed: 9d 92 39     	sta	$3992,x                 ; 0x3992 <sliders+0xa>
     ef0: a5 12        	lda	$12                     ; 0x2012 <f256main+0x179b>
     ef2: 9d 94 39     	sta	$3994,x                 ; 0x3994 <sliders+0xc>
     ef5: a4 12        	ldy	$12                     ; 0x2012 <f256main+0x179b>
     ef7: a9 10        	lda	#$10
     ef9: 9d 95 39     	sta	$3995,x                 ; 0x3995 <sliders+0xd>
     efc: a9 03        	lda	#$3
     efe: 9d 96 39     	sta	$3996,x                 ; 0x3996 <sliders+0xe>
     f01: a9 0a        	lda	#$a
     f03: 9d 97 39     	sta	$3997,x                 ; 0x3997 <sliders+0xf>
     f06: a9 06        	lda	#$6
     f08: 9d 98 39     	sta	$3998,x                 ; 0x3998 <sliders+0x10>
     f0b: a9 19        	lda	#$19
     f0d: 9d 99 39     	sta	$3999,x                 ; 0x3999 <sliders+0x11>
     f10: a5 15        	lda	$15                     ; 0x2015 <f256main+0x179e>
     f12: 9d 9a 39     	sta	$399a,x                 ; 0x399a <sliders+0x12>
     f15: 18           	clc
     f16: a5 13        	lda	$13                     ; 0x2013 <f256main+0x179c>
     f18: 69 02        	adc	#$2
     f1a: aa           	tax
     f1b: c8           	iny
     f1c: 18           	clc
     f1d: a5 14        	lda	$14                     ; 0x2014 <f256main+0x179d>
     f1f: 69 1c        	adc	#$1c
     f21: 85 14        	sta	$14                     ; 0x2014 <f256main+0x179d>
     f23: 18           	clc
     f24: a5 16        	lda	$16                     ; 0x2016 <f256main+0x179f>
     f26: 69 10        	adc	#$10
     f28: 5a           	phy
     f29: a0 04        	ldy	#$4
     f2b: 91 10        	sta	($10),y                 ; 0x2010 <f256main+0x1799>
     f2d: 7a           	ply
     f2e: 84 12        	sty	$12                     ; 0x2012 <f256main+0x179b>
     f30: c0 04        	cpy	#$4
     f32: f0 03        	beq	$f37 <f256main+0x6c0>
     f34: 4c b4 0e     	jmp	$eb4 <f256main+0x63d>
     f37: a5 df        	lda	$df                     ; 0x20df <f256main+0x1868>
     f39: a6 e0        	ldx	$e0                     ; 0x20e0 <f256main+0x1869>
     f3b: 85 24        	sta	$24                     ; 0x2024 <f256main+0x17ad>
     f3d: 86 25        	stx	$25                     ; 0x2025 <f256main+0x17ae>
     f3f: a0 04        	ldy	#$4
     f41: 18           	clc
     f42: 69 04        	adc	#$4
     f44: 85 26        	sta	$26                     ; 0x2026 <f256main+0x17af>
     f46: 8a           	txa
     f47: 69 00        	adc	#$0
     f49: 85 27        	sta	$27                     ; 0x2027 <f256main+0x17b0>
     f4b: b1 24        	lda	($24),y                 ; 0x2024 <f256main+0x17ad>
     f4d: 85 12        	sta	$12                     ; 0x2012 <f256main+0x179b>
     f4f: a0 01        	ldy	#$1
     f51: b1 26        	lda	($26),y                 ; 0x2026 <f256main+0x17af>
     f53: 85 13        	sta	$13                     ; 0x2013 <f256main+0x179c>
     f55: a0 03        	ldy	#$3
     f57: b1 12        	lda	($12),y                 ; 0x2012 <f256main+0x179b>
     f59: 4a           	lsr
     f5a: 4a           	lsr
     f5b: 4a           	lsr
     f5c: 4a           	lsr
     f5d: 8d 9b 39     	sta	$399b                   ; 0x399b <sliders+0x13>
     f60: 9c 9c 39     	stz	$399c                   ; 0x399c <sliders+0x14>
     f63: a2 0f        	ldx	#$f
     f65: 8e 9d 39     	stx	$399d                   ; 0x399d <sliders+0x15>
     f68: 9c 9e 39     	stz	$399e                   ; 0x399e <sliders+0x16>
     f6b: 9c 9f 39     	stz	$399f                   ; 0x399f <sliders+0x17>
     f6e: 9c a0 39     	stz	$39a0                   ; 0x39a0 <sliders+0x18>
     f71: 9c a1 39     	stz	$39a1                   ; 0x39a1 <sliders+0x19>
     f74: 9c a2 39     	stz	$39a2                   ; 0x39a2 <sliders+0x1a>
     f77: 9c a3 39     	stz	$39a3                   ; 0x39a3 <sliders+0x1b>
     f7a: a2 88        	ldx	#$88
     f7c: 86 12        	stx	$12                     ; 0x2012 <f256main+0x179b>
     f7e: a2 39        	ldx	#$39
     f80: 86 13        	stx	$13                     ; 0x2013 <f256main+0x179c>
     f82: 20 ae 2d     	jsr	$2dae <updateSlider>
     f85: a0 04        	ldy	#$4
     f87: b1 24        	lda	($24),y                 ; 0x2024 <f256main+0x17ad>
     f89: 85 12        	sta	$12                     ; 0x2012 <f256main+0x179b>
     f8b: a0 01        	ldy	#$1
     f8d: b1 26        	lda	($26),y                 ; 0x2026 <f256main+0x17af>
     f8f: 85 13        	sta	$13                     ; 0x2013 <f256main+0x179c>
     f91: a9 0f        	lda	#$f
     f93: a0 03        	ldy	#$3
     f95: 31 12        	and	($12),y                 ; 0x2012 <f256main+0x179b>
     f97: 8d b7 39     	sta	$39b7                   ; 0x39b7 <sliders+0x2f>
     f9a: 9c b8 39     	stz	$39b8                   ; 0x39b8 <sliders+0x30>
     f9d: a2 0f        	ldx	#$f
     f9f: 8e b9 39     	stx	$39b9                   ; 0x39b9 <sliders+0x31>
     fa2: 9c ba 39     	stz	$39ba                   ; 0x39ba <sliders+0x32>
     fa5: 9c bb 39     	stz	$39bb                   ; 0x39bb <sliders+0x33>
     fa8: 9c bc 39     	stz	$39bc                   ; 0x39bc <sliders+0x34>
     fab: 9c bd 39     	stz	$39bd                   ; 0x39bd <sliders+0x35>
     fae: 9c be 39     	stz	$39be                   ; 0x39be <sliders+0x36>
     fb1: 9c bf 39     	stz	$39bf                   ; 0x39bf <sliders+0x37>
     fb4: a2 a4        	ldx	#$a4
     fb6: 86 12        	stx	$12                     ; 0x2012 <f256main+0x179b>
     fb8: a2 39        	ldx	#$39
     fba: 86 13        	stx	$13                     ; 0x2013 <f256main+0x179c>
     fbc: 20 ae 2d     	jsr	$2dae <updateSlider>
     fbf: a0 04        	ldy	#$4
     fc1: b1 24        	lda	($24),y                 ; 0x2024 <f256main+0x17ad>
     fc3: 85 12        	sta	$12                     ; 0x2012 <f256main+0x179b>
     fc5: a0 01        	ldy	#$1
     fc7: b1 26        	lda	($26),y                 ; 0x2026 <f256main+0x17af>
     fc9: 85 13        	sta	$13                     ; 0x2013 <f256main+0x179c>
     fcb: a0 04        	ldy	#$4
     fcd: b1 12        	lda	($12),y                 ; 0x2012 <f256main+0x179b>
     fcf: 4a           	lsr
     fd0: 4a           	lsr
     fd1: 4a           	lsr
     fd2: 4a           	lsr
     fd3: 8d d3 39     	sta	$39d3                   ; 0x39d3 <sliders+0x4b>
     fd6: 9c d4 39     	stz	$39d4                   ; 0x39d4 <sliders+0x4c>
     fd9: a2 0f        	ldx	#$f
     fdb: 8e d5 39     	stx	$39d5                   ; 0x39d5 <sliders+0x4d>
     fde: 9c d6 39     	stz	$39d6                   ; 0x39d6 <sliders+0x4e>
     fe1: 9c d7 39     	stz	$39d7                   ; 0x39d7 <sliders+0x4f>
     fe4: 9c d8 39     	stz	$39d8                   ; 0x39d8 <sliders+0x50>
     fe7: 9c d9 39     	stz	$39d9                   ; 0x39d9 <sliders+0x51>
     fea: 9c da 39     	stz	$39da                   ; 0x39da <sliders+0x52>
     fed: 9c db 39     	stz	$39db                   ; 0x39db <sliders+0x53>
     ff0: a2 c0        	ldx	#$c0
     ff2: 86 12        	stx	$12                     ; 0x2012 <f256main+0x179b>
     ff4: a2 39        	ldx	#$39
     ff6: 86 13        	stx	$13                     ; 0x2013 <f256main+0x179c>
     ff8: 20 ae 2d     	jsr	$2dae <updateSlider>
     ffb: a0 04        	ldy	#$4
     ffd: b1 24        	lda	($24),y                 ; 0x2024 <f256main+0x17ad>
     fff: 85 12        	sta	$12                     ; 0x2012 <f256main+0x179b>
    1001: a0 01        	ldy	#$1
    1003: b1 26        	lda	($26),y                 ; 0x2026 <f256main+0x17af>
    1005: 85 13        	sta	$13                     ; 0x2013 <f256main+0x179c>
    1007: a9 0f        	lda	#$f
    1009: a0 04        	ldy	#$4
    100b: 31 12        	and	($12),y                 ; 0x2012 <f256main+0x179b>
    100d: 8d ef 39     	sta	$39ef                   ; 0x39ef <sliders+0x67>
    1010: 9c f0 39     	stz	$39f0                   ; 0x39f0 <sliders+0x68>
    1013: a2 0f        	ldx	#$f
    1015: 8e f1 39     	stx	$39f1                   ; 0x39f1 <sliders+0x69>
    1018: 9c f2 39     	stz	$39f2                   ; 0x39f2 <sliders+0x6a>
    101b: 9c f3 39     	stz	$39f3                   ; 0x39f3 <sliders+0x6b>
    101e: 9c f4 39     	stz	$39f4                   ; 0x39f4 <sliders+0x6c>
    1021: 9c f5 39     	stz	$39f5                   ; 0x39f5 <sliders+0x6d>
    1024: 9c f6 39     	stz	$39f6                   ; 0x39f6 <sliders+0x6e>
    1027: 9c f7 39     	stz	$39f7                   ; 0x39f7 <sliders+0x6f>
    102a: a2 dc        	ldx	#$dc
    102c: 86 12        	stx	$12                     ; 0x2012 <f256main+0x179b>
    102e: a2 39        	ldx	#$39
    1030: 86 13        	stx	$13                     ; 0x2013 <f256main+0x179c>
    1032: 20 ae 2d     	jsr	$2dae <updateSlider>
    1035: a2 63        	ldx	#$63
    1037: 8a           	txa
    1038: a0 04        	ldy	#$4
    103a: 91 10        	sta	($10),y                 ; 0x2010 <f256main+0x1799>
    103c: a2 13        	ldx	#$13
    103e: 8a           	txa
    103f: 88           	dey
    1040: 91 10        	sta	($10),y                 ; 0x2010 <f256main+0x1799>
    1042: 64 12        	stz	$12                     ; 0x2012 <f256main+0x179b>
    1044: 64 14        	stz	$14                     ; 0x2014 <f256main+0x179d>
    1046: a2 10        	ldx	#$10
    1048: 8a           	txa
    1049: 86 28        	stx	$28                     ; 0x2028 <f256main+0x17b1>
    104b: 18           	clc
    104c: 69 f0        	adc	#$f0
    104e: 85 18        	sta	$18                     ; 0x2018 <f256main+0x17a1>
    1050: a6 12        	ldx	$12                     ; 0x2012 <f256main+0x179b>
    1052: a9 f8        	lda	#$f8
    1054: 18           	clc
    1055: 65 12        	adc	$12                     ; 0x2012 <f256main+0x179b>
    1057: 85 16        	sta	$16                     ; 0x2016 <f256main+0x179f>
    1059: a4 14        	ldy	$14                     ; 0x2014 <f256main+0x179d>
    105b: 84 27        	sty	$27                     ; 0x2027 <f256main+0x17b0>
    105d: a9 39        	lda	#$39
    105f: 65 14        	adc	$14                     ; 0x2014 <f256main+0x179d>
    1061: 85 17        	sta	$17                     ; 0x2017 <f256main+0x17a0>
    1063: a5 16        	lda	$16                     ; 0x2016 <f256main+0x179f>
    1065: 18           	clc
    1066: 69 03        	adc	#$3
    1068: 85 12        	sta	$12                     ; 0x2012 <f256main+0x179b>
    106a: 86 26        	stx	$26                     ; 0x2026 <f256main+0x17af>
    106c: a5 17        	lda	$17                     ; 0x2017 <f256main+0x17a0>
    106e: 69 00        	adc	#$0
    1070: 85 13        	sta	$13                     ; 0x2013 <f256main+0x179c>
    1072: a5 16        	lda	$16                     ; 0x2016 <f256main+0x179f>
    1074: 18           	clc
    1075: 69 08        	adc	#$8
    1077: 85 14        	sta	$14                     ; 0x2014 <f256main+0x179d>
    1079: a5 17        	lda	$17                     ; 0x2017 <f256main+0x17a0>
    107b: 69 00        	adc	#$0
    107d: a6 28        	ldx	$28                     ; 0x2028 <f256main+0x17b1>
    107f: 48           	pha
    1080: bd 83 36     	lda	$3683,x                 ; 0x3683 <sidSpriteAction>
    1083: aa           	tax
    1084: 68           	pla
    1085: a4 16        	ldy	$16                     ; 0x2016 <f256main+0x179f>
    1087: 84 24        	sty	$24                     ; 0x2024 <f256main+0x17ad>
    1089: a4 17        	ldy	$17                     ; 0x2017 <f256main+0x17a0>
    108b: 84 25        	sty	$25                     ; 0x2025 <f256main+0x17ae>
    108d: 85 15        	sta	$15                     ; 0x2015 <f256main+0x179e>
    108f: a0 0c        	ldy	#$c
    1091: a5 18        	lda	$18                     ; 0x2018 <f256main+0x17a1>
    1093: 91 24        	sta	($24),y                 ; 0x2024 <f256main+0x17ad>
    1095: 18           	clc
    1096: a5 16        	lda	$16                     ; 0x2016 <f256main+0x179f>
    1098: 69 0e        	adc	#$e
    109a: 85 16        	sta	$16                     ; 0x2016 <f256main+0x179f>
    109c: a5 17        	lda	$17                     ; 0x2017 <f256main+0x17a0>
    109e: 69 00        	adc	#$0
    10a0: 85 17        	sta	$17                     ; 0x2017 <f256main+0x17a0>
    10a2: a5 28        	lda	$28                     ; 0x2028 <f256main+0x17b1>
    10a4: 92 24        	sta	($24)                   ; 0x2024 <f256main+0x17ad>
    10a6: a4 24        	ldy	$24                     ; 0x2024 <f256main+0x17ad>
    10a8: 84 18        	sty	$18                     ; 0x2018 <f256main+0x17a1>
    10aa: a4 25        	ldy	$25                     ; 0x2025 <f256main+0x17ae>
    10ac: 84 19        	sty	$19                     ; 0x2019 <f256main+0x17a2>
    10ae: a0 12        	ldy	#$12
    10b0: 8a           	txa
    10b1: 91 24        	sta	($24),y                 ; 0x2024 <f256main+0x17ad>
    10b3: e6 18        	inc	$18                     ; 0x2018 <f256main+0x17a1>
    10b5: d0 02        	bne	$10b9 <f256main+0x842>
    10b7: e6 19        	inc	$19                     ; 0x2019 <f256main+0x17a2>
    10b9: a0 01        	ldy	#$1
    10bb: 5a           	phy
    10bc: a0 04        	ldy	#$4
    10be: b1 10        	lda	($10),y                 ; 0x2010 <f256main+0x1799>
    10c0: 7a           	ply
    10c1: 91 24        	sta	($24),y                 ; 0x2024 <f256main+0x17ad>
    10c3: 85 29        	sta	$29                     ; 0x2029 <f256main+0x17b2>
    10c5: a9 00        	lda	#$0
    10c7: 91 18        	sta	($18),y                 ; 0x2018 <f256main+0x17a1>
    10c9: a9 4f        	lda	#$4f
    10cb: a0 03        	ldy	#$3
    10cd: 91 24        	sta	($24),y                 ; 0x2024 <f256main+0x17ad>
    10cf: a9 00        	lda	#$0
    10d1: a0 01        	ldy	#$1
    10d3: 91 12        	sta	($12),y                 ; 0x2012 <f256main+0x179b>
    10d5: a0 05        	ldy	#$5
    10d7: 91 24        	sta	($24),y                 ; 0x2024 <f256main+0x17ad>
    10d9: c8           	iny
    10da: 91 24        	sta	($24),y                 ; 0x2024 <f256main+0x17ad>
    10dc: c8           	iny
    10dd: 91 24        	sta	($24),y                 ; 0x2024 <f256main+0x17ad>
    10df: c8           	iny
    10e0: 91 24        	sta	($24),y                 ; 0x2024 <f256main+0x17ad>
    10e2: a0 01        	ldy	#$1
    10e4: 91 14        	sta	($14),y                 ; 0x2014 <f256main+0x179d>
    10e6: c8           	iny
    10e7: 1a           	inc
    10e8: 91 14        	sta	($14),y                 ; 0x2014 <f256main+0x179d>
    10ea: c8           	iny
    10eb: 3a           	dec
    10ec: 91 14        	sta	($14),y                 ; 0x2014 <f256main+0x179d>
    10ee: a9 10        	lda	#$10
    10f0: a0 0d        	ldy	#$d
    10f2: 91 24        	sta	($24),y                 ; 0x2024 <f256main+0x17ad>
    10f4: c8           	iny
    10f5: a9 00        	lda	#$0
    10f7: 91 24        	sta	($24),y                 ; 0x2024 <f256main+0x17ad>
    10f9: a0 01        	ldy	#$1
    10fb: 91 16        	sta	($16),y                 ; 0x2016 <f256main+0x179f>
    10fd: c8           	iny
    10fe: 91 16        	sta	($16),y                 ; 0x2016 <f256main+0x179f>
    1100: c8           	iny
    1101: 91 16        	sta	($16),y                 ; 0x2016 <f256main+0x179f>
    1103: a6 24        	ldx	$24                     ; 0x2024 <f256main+0x17ad>
    1105: 86 12        	stx	$12                     ; 0x2012 <f256main+0x179b>
    1107: a6 25        	ldx	$25                     ; 0x2025 <f256main+0x17ae>
    1109: 86 13        	stx	$13                     ; 0x2013 <f256main+0x179c>
    110b: 20 92 29     	jsr	$2992 <showGeneric>
    110e: a0 03        	ldy	#$3
    1110: b1 10        	lda	($10),y                 ; 0x2010 <f256main+0x1799>
    1112: 85 2c        	sta	$2c                     ; 0x202c <f256main+0x17b5>
    1114: aa           	tax
    1115: bd 88 39     	lda	$3988,x                 ; 0x3988 <sliders>
    1118: aa           	tax
    1119: b2 24        	lda	($24)                   ; 0x2024 <f256main+0x17ad>
    111b: 85 2a        	sta	$2a                     ; 0x202a <f256main+0x17b3>
    111d: a0 0d        	ldy	#$d
    111f: b1 24        	lda	($24),y                 ; 0x2024 <f256main+0x17ad>
    1121: 85 2b        	sta	$2b                     ; 0x202b <f256main+0x17b4>
    1123: 86 12        	stx	$12                     ; 0x2012 <f256main+0x179b>
    1125: 64 13        	stz	$13                     ; 0x2013 <f256main+0x179c>
    1127: a2 00        	ldx	#$0
    1129: 20 04 34     	jsr	$3404 <__mulhi3>
    112c: a4 2b        	ldy	$2b                     ; 0x202b <f256main+0x17b4>
    112e: 84 12        	sty	$12                     ; 0x2012 <f256main+0x179b>
    1130: 64 13        	stz	$13                     ; 0x2013 <f256main+0x179c>
    1132: 20 04 34     	jsr	$3404 <__mulhi3>
    1135: 86 12        	stx	$12                     ; 0x2012 <f256main+0x179b>
    1137: a2 01        	ldx	#$1
    1139: 86 13        	stx	$13                     ; 0x2013 <f256main+0x179c>
    113b: 64 14        	stz	$14                     ; 0x2014 <f256main+0x179d>
    113d: a6 2b        	ldx	$2b                     ; 0x202b <f256main+0x17b4>
    113f: 86 15        	stx	$15                     ; 0x2015 <f256main+0x179e>
    1141: aa           	tax
    1142: a5 2a        	lda	$2a                     ; 0x202a <f256main+0x17b3>
    1144: 20 0c 29     	jsr	$290c <spriteDefine>
    1147: b2 24        	lda	($24)                   ; 0x2024 <f256main+0x17ad>
    1149: aa           	tax
    114a: 0a           	asl
    114b: a8           	tay
    114c: a9 00        	lda	#$0
    114e: 2a           	rol
    114f: 84 12        	sty	$12                     ; 0x2012 <f256main+0x179b>
    1151: 06 12        	asl	$12                     ; 0x2012 <f256main+0x179b>
    1153: 2a           	rol
    1154: 06 12        	asl	$12                     ; 0x2012 <f256main+0x179b>
    1156: 2a           	rol
    1157: a8           	tay
    1158: 18           	clc
    1159: a5 12        	lda	$12                     ; 0x2012 <f256main+0x179b>
    115b: 69 00        	adc	#$0
    115d: 85 12        	sta	$12                     ; 0x2012 <f256main+0x179b>
    115f: 98           	tya
    1160: 69 d9        	adc	#$d9
    1162: 85 13        	sta	$13                     ; 0x2013 <f256main+0x179c>
    1164: a9 01        	lda	#$1
    1166: 15 47        	ora	$47,x                   ; 0x2047 <f256main+0x17d0>
    1168: 92 12        	sta	($12)                   ; 0x2012 <f256main+0x179b>
    116a: a6 28        	ldx	$28                     ; 0x2028 <f256main+0x17b1>
    116c: e8           	inx
    116d: 18           	clc
    116e: a5 2c        	lda	$2c                     ; 0x202c <f256main+0x17b5>
    1170: 69 1c        	adc	#$1c
    1172: a0 03        	ldy	#$3
    1174: 91 10        	sta	($10),y                 ; 0x2010 <f256main+0x1799>
    1176: 18           	clc
    1177: a5 26        	lda	$26                     ; 0x2026 <f256main+0x17af>
    1179: 69 13        	adc	#$13
    117b: a8           	tay
    117c: a5 27        	lda	$27                     ; 0x2027 <f256main+0x17b0>
    117e: 69 00        	adc	#$0
    1180: 85 14        	sta	$14                     ; 0x2014 <f256main+0x179d>
    1182: 18           	clc
    1183: a5 29        	lda	$29                     ; 0x2029 <f256main+0x17b2>
    1185: 69 10        	adc	#$10
    1187: 5a           	phy
    1188: a0 04        	ldy	#$4
    118a: 91 10        	sta	($10),y                 ; 0x2010 <f256main+0x1799>
    118c: 7a           	ply
    118d: 84 12        	sty	$12                     ; 0x2012 <f256main+0x179b>
    118f: c0 4c        	cpy	#$4c
    1191: f0 03        	beq	$1196 <f256main+0x91f>
    1193: 4c 48 10     	jmp	$1048 <f256main+0x7d1>
    1196: a2 62        	ldx	#$62
    1198: 86 88        	stx	$88                     ; 0x2088 <f256main+0x1811>
    119a: 64 8b        	stz	$8b                     ; 0x208b <f256main+0x1814>
    119c: 64 8c        	stz	$8c                     ; 0x208c <f256main+0x1815>
    119e: 64 8d        	stz	$8d                     ; 0x208d <f256main+0x1816>
    11a0: 64 8e        	stz	$8e                     ; 0x208e <f256main+0x1817>
    11a2: 64 8f        	stz	$8f                     ; 0x208f <f256main+0x1818>
    11a4: a2 20        	ldx	#$20
    11a6: 86 90        	stx	$90                     ; 0x2090 <f256main+0x1819>
    11a8: a2 01        	ldx	#$1
    11aa: 86 91        	stx	$91                     ; 0x2091 <f256main+0x181a>
    11ac: 64 92        	stz	$92                     ; 0x2092 <f256main+0x181b>
    11ae: 64 93        	stz	$93                     ; 0x2093 <f256main+0x181c>
    11b0: a2 10        	ldx	#$10
    11b2: 86 94        	stx	$94                     ; 0x2094 <f256main+0x181d>
    11b4: 64 95        	stz	$95                     ; 0x2095 <f256main+0x181e>
    11b6: a2 24        	ldx	#$24
    11b8: 86 99        	stx	$99                     ; 0x2099 <f256main+0x1822>
    11ba: a5 df        	lda	$df                     ; 0x20df <f256main+0x1868>
    11bc: a6 e0        	ldx	$e0                     ; 0x20e0 <f256main+0x1869>
    11be: 85 24        	sta	$24                     ; 0x2024 <f256main+0x17ad>
    11c0: 86 25        	stx	$25                     ; 0x2025 <f256main+0x17ae>
    11c2: 18           	clc
    11c3: 69 04        	adc	#$4
    11c5: 85 26        	sta	$26                     ; 0x2026 <f256main+0x17af>
    11c7: 8a           	txa
    11c8: 69 00        	adc	#$0
    11ca: a2 0d        	ldx	#$d
    11cc: 86 96        	stx	$96                     ; 0x2096 <f256main+0x181f>
    11ce: 64 97        	stz	$97                     ; 0x2097 <f256main+0x1820>
    11d0: 86 98        	stx	$98                     ; 0x2098 <f256main+0x1821>
    11d2: a0 04        	ldy	#$4
    11d4: 85 27        	sta	$27                     ; 0x2027 <f256main+0x17b0>
    11d6: b1 24        	lda	($24),y                 ; 0x2024 <f256main+0x17ad>
    11d8: 85 12        	sta	$12                     ; 0x2012 <f256main+0x179b>
    11da: a0 01        	ldy	#$1
    11dc: b1 26        	lda	($26),y                 ; 0x2026 <f256main+0x17af>
    11de: 85 13        	sta	$13                     ; 0x2013 <f256main+0x179c>
    11e0: 64 89        	stz	$89                     ; 0x2089 <f256main+0x1812>
    11e2: a2 63        	ldx	#$63
    11e4: 86 8a        	stx	$8a                     ; 0x208a <f256main+0x1813>
    11e6: a9 0f        	lda	#$f
    11e8: c8           	iny
    11e9: 31 12        	and	($12),y                 ; 0x2012 <f256main+0x179b>
    11eb: 85 9a        	sta	$9a                     ; 0x209a <f256main+0x1823>
    11ed: a2 14        	ldx	#$14
    11ef: 86 87        	stx	$87                     ; 0x2087 <f256main+0x1810>
    11f1: 64 9b        	stz	$9b                     ; 0x209b <f256main+0x1824>
    11f3: a2 0f        	ldx	#$f
    11f5: 86 9c        	stx	$9c                     ; 0x209c <f256main+0x1825>
    11f7: 64 9d        	stz	$9d                     ; 0x209d <f256main+0x1826>
    11f9: 64 9e        	stz	$9e                     ; 0x209e <f256main+0x1827>
    11fb: 64 9f        	stz	$9f                     ; 0x209f <f256main+0x1828>
    11fd: 64 a0        	stz	$a0                     ; 0x20a0 <f256main+0x1829>
    11ff: 64 a1        	stz	$a1                     ; 0x20a1 <f256main+0x182a>
    1201: 64 a2        	stz	$a2                     ; 0x20a2 <f256main+0x182b>
    1203: a2 87        	ldx	#$87
    1205: 86 12        	stx	$12                     ; 0x2012 <f256main+0x179b>
    1207: a2 00        	ldx	#$0
    1209: 86 13        	stx	$13                     ; 0x2013 <f256main+0x179c>
    120b: 20 38 2c     	jsr	$2c38 <updateDial>
    120e: a2 15        	ldx	#$15
    1210: 86 a3        	stx	$a3                     ; 0x20a3 <f256main+0x182c>
    1212: a2 63        	ldx	#$63
    1214: 86 a6        	stx	$a6                     ; 0x20a6 <f256main+0x182f>
    1216: a2 6d        	ldx	#$6d
    1218: 86 a4        	stx	$a4                     ; 0x20a4 <f256main+0x182d>
    121a: 64 a5        	stz	$a5                     ; 0x20a5 <f256main+0x182e>
    121c: 64 a7        	stz	$a7                     ; 0x20a7 <f256main+0x1830>
    121e: 64 a8        	stz	$a8                     ; 0x20a8 <f256main+0x1831>
    1220: 64 a9        	stz	$a9                     ; 0x20a9 <f256main+0x1832>
    1222: 64 aa        	stz	$aa                     ; 0x20aa <f256main+0x1833>
    1224: 64 ab        	stz	$ab                     ; 0x20ab <f256main+0x1834>
    1226: a2 20        	ldx	#$20
    1228: 86 ac        	stx	$ac                     ; 0x20ac <f256main+0x1835>
    122a: a2 01        	ldx	#$1
    122c: 86 ad        	stx	$ad                     ; 0x20ad <f256main+0x1836>
    122e: 64 ae        	stz	$ae                     ; 0x20ae <f256main+0x1837>
    1230: 86 af        	stx	$af                     ; 0x20af <f256main+0x1838>
    1232: a2 10        	ldx	#$10
    1234: 86 b0        	stx	$b0                     ; 0x20b0 <f256main+0x1839>
    1236: 64 b1        	stz	$b1                     ; 0x20b1 <f256main+0x183a>
    1238: a2 0d        	ldx	#$d
    123a: 86 b2        	stx	$b2                     ; 0x20b2 <f256main+0x183b>
    123c: 64 b3        	stz	$b3                     ; 0x20b3 <f256main+0x183c>
    123e: 86 b4        	stx	$b4                     ; 0x20b4 <f256main+0x183d>
    1240: a2 25        	ldx	#$25
    1242: 86 b5        	stx	$b5                     ; 0x20b5 <f256main+0x183e>
    1244: a0 04        	ldy	#$4
    1246: b1 24        	lda	($24),y                 ; 0x2024 <f256main+0x17ad>
    1248: 85 12        	sta	$12                     ; 0x2012 <f256main+0x179b>
    124a: a0 01        	ldy	#$1
    124c: b1 26        	lda	($26),y                 ; 0x2026 <f256main+0x17af>
    124e: 85 13        	sta	$13                     ; 0x2013 <f256main+0x179c>
    1250: b1 12        	lda	($12),y                 ; 0x2012 <f256main+0x179b>
    1252: 85 b6        	sta	$b6                     ; 0x20b6 <f256main+0x183f>
    1254: 64 b7        	stz	$b7                     ; 0x20b7 <f256main+0x1840>
    1256: a2 ff        	ldx	#$ff
    1258: 86 b8        	stx	$b8                     ; 0x20b8 <f256main+0x1841>
    125a: 64 b9        	stz	$b9                     ; 0x20b9 <f256main+0x1842>
    125c: 64 ba        	stz	$ba                     ; 0x20ba <f256main+0x1843>
    125e: 64 bb        	stz	$bb                     ; 0x20bb <f256main+0x1844>
    1260: 64 bc        	stz	$bc                     ; 0x20bc <f256main+0x1845>
    1262: 64 bd        	stz	$bd                     ; 0x20bd <f256main+0x1846>
    1264: 64 be        	stz	$be                     ; 0x20be <f256main+0x1847>
    1266: a2 a3        	ldx	#$a3
    1268: 86 12        	stx	$12                     ; 0x2012 <f256main+0x179b>
    126a: a2 00        	ldx	#$0
    126c: 86 13        	stx	$13                     ; 0x2013 <f256main+0x179c>
    126e: 20 38 2c     	jsr	$2c38 <updateDial>
    1271: a2 16        	ldx	#$16
    1273: 8e 44 3a     	stx	$3a44                   ; 0x3a44 <sliders_labels+0x4c>
    1276: a2 61        	ldx	#$61
    1278: 8e 45 3a     	stx	$3a45                   ; 0x3a45 <sliders_labels+0x4d>
    127b: 9c 46 3a     	stz	$3a46                   ; 0x3a46 <sliders_labels+0x4e>
    127e: a2 6c        	ldx	#$6c
    1280: 8e 47 3a     	stx	$3a47                   ; 0x3a47 <sliders_labels+0x4f>
    1283: 9c 48 3a     	stz	$3a48                   ; 0x3a48 <sliders_labels+0x50>
    1286: 9c 49 3a     	stz	$3a49                   ; 0x3a49 <sliders_labels+0x51>
    1289: 9c 4a 3a     	stz	$3a4a                   ; 0x3a4a <sliders_labels+0x52>
    128c: 9c 4b 3a     	stz	$3a4b                   ; 0x3a4b <sliders_labels+0x53>
    128f: 9c 4c 3a     	stz	$3a4c                   ; 0x3a4c <sliders_labels+0x54>
    1292: 9c 4d 3a     	stz	$3a4d                   ; 0x3a4d <sliders_labels+0x55>
    1295: a2 01        	ldx	#$1
    1297: 8e 4e 3a     	stx	$3a4e                   ; 0x3a4e <sliders_labels+0x56>
    129a: 9c 4f 3a     	stz	$3a4f                   ; 0x3a4f <sliders_labels+0x57>
    129d: a2 04        	ldx	#$4
    129f: 8e 50 3a     	stx	$3a50                   ; 0x3a50 <sliders_labels+0x58>
    12a2: a2 10        	ldx	#$10
    12a4: 8e 51 3a     	stx	$3a51                   ; 0x3a51 <sliders_labels+0x59>
    12a7: 9c 52 3a     	stz	$3a52                   ; 0x3a52 <sliders_labels+0x5a>
    12aa: 9c 53 3a     	stz	$3a53                   ; 0x3a53 <sliders_labels+0x5b>
    12ad: 9c 54 3a     	stz	$3a54                   ; 0x3a54 <sliders_labels+0x5c>
    12b0: 9c 55 3a     	stz	$3a55                   ; 0x3a55 <sliders_labels+0x5d>
    12b3: a2 26        	ldx	#$26
    12b5: 8e 56 3a     	stx	$3a56                   ; 0x3a56 <sliders_labels+0x5e>
    12b8: a2 44        	ldx	#$44
    12ba: 86 12        	stx	$12                     ; 0x2012 <f256main+0x179b>
    12bc: a2 3a        	ldx	#$3a
    12be: 86 13        	stx	$13                     ; 0x2013 <f256main+0x179c>
    12c0: 20 92 29     	jsr	$2992 <showGeneric>
    12c3: a6 9a        	ldx	$9a                     ; 0x209a <f256main+0x1823>
    12c5: ac 44 3a     	ldy	$3a44                   ; 0x3a44 <sliders_labels+0x4c>
    12c8: 84 24        	sty	$24                     ; 0x2024 <f256main+0x17ad>
    12ca: ad 51 3a     	lda	$3a51                   ; 0x3a51 <sliders_labels+0x59>
    12cd: 86 12        	stx	$12                     ; 0x2012 <f256main+0x179b>
    12cf: 64 13        	stz	$13                     ; 0x2013 <f256main+0x179c>
    12d1: a2 00        	ldx	#$0
    12d3: 85 25        	sta	$25                     ; 0x2025 <f256main+0x17ae>
    12d5: 20 04 34     	jsr	$3404 <__mulhi3>
    12d8: a4 25        	ldy	$25                     ; 0x2025 <f256main+0x17ae>
    12da: 84 12        	sty	$12                     ; 0x2012 <f256main+0x179b>
    12dc: 64 13        	stz	$13                     ; 0x2013 <f256main+0x179c>
    12de: 20 04 34     	jsr	$3404 <__mulhi3>
    12e1: 86 12        	stx	$12                     ; 0x2012 <f256main+0x179b>
    12e3: a2 01        	ldx	#$1
    12e5: 86 13        	stx	$13                     ; 0x2013 <f256main+0x179c>
    12e7: 64 14        	stz	$14                     ; 0x2014 <f256main+0x179d>
    12e9: a6 25        	ldx	$25                     ; 0x2025 <f256main+0x17ae>
    12eb: 86 15        	stx	$15                     ; 0x2015 <f256main+0x179e>
    12ed: aa           	tax
    12ee: a5 24        	lda	$24                     ; 0x2024 <f256main+0x17ad>
    12f0: 20 0c 29     	jsr	$290c <spriteDefine>
    12f3: ae 44 3a     	ldx	$3a44                   ; 0x3a44 <sliders_labels+0x4c>
    12f6: 8a           	txa
    12f7: 0a           	asl
    12f8: a8           	tay
    12f9: a9 00        	lda	#$0
    12fb: 2a           	rol
    12fc: 84 12        	sty	$12                     ; 0x2012 <f256main+0x179b>
    12fe: 06 12        	asl	$12                     ; 0x2012 <f256main+0x179b>
    1300: 2a           	rol
    1301: 06 12        	asl	$12                     ; 0x2012 <f256main+0x179b>
    1303: 2a           	rol
    1304: a8           	tay
    1305: 18           	clc
    1306: a5 12        	lda	$12                     ; 0x2012 <f256main+0x179b>
    1308: 69 00        	adc	#$0
    130a: 85 12        	sta	$12                     ; 0x2012 <f256main+0x179b>
    130c: 98           	tya
    130d: 69 d9        	adc	#$d9
    130f: 85 13        	sta	$13                     ; 0x2013 <f256main+0x179c>
    1311: a9 01        	lda	#$1
    1313: 15 47        	ora	$47,x                   ; 0x2047 <f256main+0x17d0>
    1315: 92 12        	sta	($12)                   ; 0x2012 <f256main+0x179b>
    1317: a2 17        	ldx	#$17
    1319: 8e 57 3a     	stx	$3a57                   ; 0x3a57 <sliders_labels+0x5f>
    131c: a2 67        	ldx	#$67
    131e: 8e 58 3a     	stx	$3a58                   ; 0x3a58 <sliders_labels+0x60>
    1321: 9c 59 3a     	stz	$3a59                   ; 0x3a59 <sliders_labels+0x61>
    1324: a2 6c        	ldx	#$6c
    1326: 8e 5a 3a     	stx	$3a5a                   ; 0x3a5a <sliders_labels+0x62>
    1329: 9c 5b 3a     	stz	$3a5b                   ; 0x3a5b <sliders_labels+0x63>
    132c: 9c 5c 3a     	stz	$3a5c                   ; 0x3a5c <sliders_labels+0x64>
    132f: 9c 5d 3a     	stz	$3a5d                   ; 0x3a5d <sliders_labels+0x65>
    1332: 9c 5e 3a     	stz	$3a5e                   ; 0x3a5e <sliders_labels+0x66>
    1335: 9c 5f 3a     	stz	$3a5f                   ; 0x3a5f <sliders_labels+0x67>
    1338: 9c 60 3a     	stz	$3a60                   ; 0x3a60 <sliders_labels+0x68>
    133b: a2 01        	ldx	#$1
    133d: 8e 61 3a     	stx	$3a61                   ; 0x3a61 <sliders_labels+0x69>
    1340: 9c 62 3a     	stz	$3a62                   ; 0x3a62 <sliders_labels+0x6a>
    1343: a2 27        	ldx	#$27
    1345: 8e 69 3a     	stx	$3a69                   ; 0x3a69 <sliders_labels+0x71>
    1348: a2 05        	ldx	#$5
    134a: 8e 63 3a     	stx	$3a63                   ; 0x3a63 <sliders_labels+0x6b>
    134d: a2 10        	ldx	#$10
    134f: 8e 64 3a     	stx	$3a64                   ; 0x3a64 <sliders_labels+0x6c>
    1352: 9c 65 3a     	stz	$3a65                   ; 0x3a65 <sliders_labels+0x6d>
    1355: 9c 66 3a     	stz	$3a66                   ; 0x3a66 <sliders_labels+0x6e>
    1358: 9c 67 3a     	stz	$3a67                   ; 0x3a67 <sliders_labels+0x6f>
    135b: 9c 68 3a     	stz	$3a68                   ; 0x3a68 <sliders_labels+0x70>
    135e: a2 57        	ldx	#$57
    1360: 86 12        	stx	$12                     ; 0x2012 <f256main+0x179b>
    1362: a2 3a        	ldx	#$3a
    1364: 86 13        	stx	$13                     ; 0x2013 <f256main+0x179c>
    1366: 20 92 29     	jsr	$2992 <showGeneric>
    1369: a5 b6        	lda	$b6                     ; 0x20b6 <f256main+0x183f>
    136b: 4a           	lsr
    136c: 4a           	lsr
    136d: 4a           	lsr
    136e: 4a           	lsr
    136f: ae 57 3a     	ldx	$3a57                   ; 0x3a57 <sliders_labels+0x5f>
    1372: 86 24        	stx	$24                     ; 0x2024 <f256main+0x17ad>
    1374: ac 64 3a     	ldy	$3a64                   ; 0x3a64 <sliders_labels+0x6c>
    1377: 85 12        	sta	$12                     ; 0x2012 <f256main+0x179b>
    1379: 64 13        	stz	$13                     ; 0x2013 <f256main+0x179c>
    137b: a2 00        	ldx	#$0
    137d: 98           	tya
    137e: 84 25        	sty	$25                     ; 0x2025 <f256main+0x17ae>
    1380: 20 04 34     	jsr	$3404 <__mulhi3>
    1383: a4 25        	ldy	$25                     ; 0x2025 <f256main+0x17ae>
    1385: 84 12        	sty	$12                     ; 0x2012 <f256main+0x179b>
    1387: 64 13        	stz	$13                     ; 0x2013 <f256main+0x179c>
    1389: 20 04 34     	jsr	$3404 <__mulhi3>
    138c: 86 12        	stx	$12                     ; 0x2012 <f256main+0x179b>
    138e: a2 01        	ldx	#$1
    1390: 86 13        	stx	$13                     ; 0x2013 <f256main+0x179c>
    1392: 64 14        	stz	$14                     ; 0x2014 <f256main+0x179d>
    1394: a6 25        	ldx	$25                     ; 0x2025 <f256main+0x17ae>
    1396: 86 15        	stx	$15                     ; 0x2015 <f256main+0x179e>
    1398: aa           	tax
    1399: a5 24        	lda	$24                     ; 0x2024 <f256main+0x17ad>
    139b: 20 0c 29     	jsr	$290c <spriteDefine>
    139e: ae 57 3a     	ldx	$3a57                   ; 0x3a57 <sliders_labels+0x5f>
    13a1: 8a           	txa
    13a2: 0a           	asl
    13a3: a8           	tay
    13a4: a9 00        	lda	#$0
    13a6: 2a           	rol
    13a7: 84 12        	sty	$12                     ; 0x2012 <f256main+0x179b>
    13a9: 06 12        	asl	$12                     ; 0x2012 <f256main+0x179b>
    13ab: 2a           	rol
    13ac: 06 12        	asl	$12                     ; 0x2012 <f256main+0x179b>
    13ae: 2a           	rol
    13af: a8           	tay
    13b0: 18           	clc
    13b1: a5 12        	lda	$12                     ; 0x2012 <f256main+0x179b>
    13b3: 69 00        	adc	#$0
    13b5: 85 12        	sta	$12                     ; 0x2012 <f256main+0x179b>
    13b7: 98           	tya
    13b8: 69 d9        	adc	#$d9
    13ba: 85 13        	sta	$13                     ; 0x2013 <f256main+0x179c>
    13bc: a9 01        	lda	#$1
    13be: 15 47        	ora	$47,x                   ; 0x2047 <f256main+0x17d0>
    13c0: 92 12        	sta	($12)                   ; 0x2012 <f256main+0x179b>
    13c2: a2 18        	ldx	#$18
    13c4: 8e 6a 3a     	stx	$3a6a                   ; 0x3a6a <sliders_labels+0x72>
    13c7: a2 6d        	ldx	#$6d
    13c9: 8e 6b 3a     	stx	$3a6b                   ; 0x3a6b <sliders_labels+0x73>
    13cc: ca           	dex
    13cd: 8e 6d 3a     	stx	$3a6d                   ; 0x3a6d <sliders_labels+0x75>
    13d0: 9c 6c 3a     	stz	$3a6c                   ; 0x3a6c <sliders_labels+0x74>
    13d3: 9c 6e 3a     	stz	$3a6e                   ; 0x3a6e <sliders_labels+0x76>
    13d6: 9c 6f 3a     	stz	$3a6f                   ; 0x3a6f <sliders_labels+0x77>
    13d9: 9c 70 3a     	stz	$3a70                   ; 0x3a70 <sliders_labels+0x78>
    13dc: 9c 71 3a     	stz	$3a71                   ; 0x3a71 <sliders_labels+0x79>
    13df: 9c 72 3a     	stz	$3a72                   ; 0x3a72 <sliders_labels+0x7a>
    13e2: 9c 73 3a     	stz	$3a73                   ; 0x3a73 <sliders_labels+0x7b>
    13e5: a2 01        	ldx	#$1
    13e7: 8e 74 3a     	stx	$3a74                   ; 0x3a74 <sliders_labels+0x7c>
    13ea: 9c 75 3a     	stz	$3a75                   ; 0x3a75 <sliders_labels+0x7d>
    13ed: a2 10        	ldx	#$10
    13ef: 8e 77 3a     	stx	$3a77                   ; 0x3a77 <sliders_labels+0x7f>
    13f2: a2 28        	ldx	#$28
    13f4: 8e 7c 3a     	stx	$3a7c                   ; 0x3a7c <sliders_labels+0x84>
    13f7: a2 06        	ldx	#$6
    13f9: 8e 76 3a     	stx	$3a76                   ; 0x3a76 <sliders_labels+0x7e>
    13fc: 9c 78 3a     	stz	$3a78                   ; 0x3a78 <sliders_labels+0x80>
    13ff: 9c 79 3a     	stz	$3a79                   ; 0x3a79 <sliders_labels+0x81>
    1402: 9c 7a 3a     	stz	$3a7a                   ; 0x3a7a <sliders_labels+0x82>
    1405: 9c 7b 3a     	stz	$3a7b                   ; 0x3a7b <sliders_labels+0x83>
    1408: a2 6a        	ldx	#$6a
    140a: 86 12        	stx	$12                     ; 0x2012 <f256main+0x179b>
    140c: a2 3a        	ldx	#$3a
    140e: 86 13        	stx	$13                     ; 0x2013 <f256main+0x179c>
    1410: 20 92 29     	jsr	$2992 <showGeneric>
    1413: a9 0f        	lda	#$f
    1415: 25 b6        	and	$b6                     ; 0x20b6 <f256main+0x183f>
    1417: ae 6a 3a     	ldx	$3a6a                   ; 0x3a6a <sliders_labels+0x72>
    141a: 86 24        	stx	$24                     ; 0x2024 <f256main+0x17ad>
    141c: ac 77 3a     	ldy	$3a77                   ; 0x3a77 <sliders_labels+0x7f>
    141f: 85 12        	sta	$12                     ; 0x2012 <f256main+0x179b>
    1421: 64 13        	stz	$13                     ; 0x2013 <f256main+0x179c>
    1423: a2 00        	ldx	#$0
    1425: 98           	tya
    1426: 84 25        	sty	$25                     ; 0x2025 <f256main+0x17ae>
    1428: 20 04 34     	jsr	$3404 <__mulhi3>
    142b: a4 25        	ldy	$25                     ; 0x2025 <f256main+0x17ae>
    142d: 84 12        	sty	$12                     ; 0x2012 <f256main+0x179b>
    142f: 64 13        	stz	$13                     ; 0x2013 <f256main+0x179c>
    1431: 20 04 34     	jsr	$3404 <__mulhi3>
    1434: 86 12        	stx	$12                     ; 0x2012 <f256main+0x179b>
    1436: a2 01        	ldx	#$1
    1438: 86 13        	stx	$13                     ; 0x2013 <f256main+0x179c>
    143a: 64 14        	stz	$14                     ; 0x2014 <f256main+0x179d>
    143c: a6 25        	ldx	$25                     ; 0x2025 <f256main+0x17ae>
    143e: 86 15        	stx	$15                     ; 0x2015 <f256main+0x179e>
    1440: aa           	tax
    1441: a5 24        	lda	$24                     ; 0x2024 <f256main+0x17ad>
    1443: 20 0c 29     	jsr	$290c <spriteDefine>
    1446: ae 6a 3a     	ldx	$3a6a                   ; 0x3a6a <sliders_labels+0x72>
    1449: 8a           	txa
    144a: 0a           	asl
    144b: 64 12        	stz	$12                     ; 0x2012 <f256main+0x179b>
    144d: 26 12        	rol	$12                     ; 0x2012 <f256main+0x179b>
    144f: 0a           	asl
    1450: 26 12        	rol	$12                     ; 0x2012 <f256main+0x179b>
    1452: 0a           	asl
    1453: 26 12        	rol	$12                     ; 0x2012 <f256main+0x179b>
    1455: 18           	clc
    1456: 69 00        	adc	#$0
    1458: a8           	tay
    1459: a5 12        	lda	$12                     ; 0x2012 <f256main+0x179b>
    145b: 69 d9        	adc	#$d9
    145d: 84 12        	sty	$12                     ; 0x2012 <f256main+0x179b>
    145f: 85 13        	sta	$13                     ; 0x2013 <f256main+0x179c>
    1461: a9 01        	lda	#$1
    1463: 15 47        	ora	$47,x                   ; 0x2047 <f256main+0x17d0>
    1465: 92 12        	sta	($12)                   ; 0x2012 <f256main+0x179b>
    1467: a2 ff        	ldx	#$ff
    1469: 86 bf        	stx	$bf                     ; 0x20bf <f256main+0x1848>
    146b: 86 c0        	stx	$c0                     ; 0x20c0 <f256main+0x1849>
    146d: 38           	sec
    146e: a9 01        	lda	#$1
    1470: a0 02        	ldy	#$2
    1472: 91 10        	sta	($10),y                 ; 0x2010 <f256main+0x1799>
    1474: a2 d2        	ldx	#$d2
    1476: 86 2c        	stx	$2c                     ; 0x202c <f256main+0x17b5>
    1478: a2 38        	ldx	#$38
    147a: 86 2d        	stx	$2d                     ; 0x202d <f256main+0x17b6>
    147c: 64 12        	stz	$12                     ; 0x2012 <f256main+0x179b>
    147e: 3a           	dec
    147f: 88           	dey
    1480: 91 10        	sta	($10),y                 ; 0x2010 <f256main+0x1799>
    1482: 64 2e        	stz	$2e                     ; 0x202e <f256main+0x17b7>
    1484: a0 03        	ldy	#$3
    1486: 91 10        	sta	($10),y                 ; 0x2010 <f256main+0x1799>
    1488: a2 90        	ldx	#$90
    148a: 8a           	txa
    148b: a0 00        	ldy	#$0
    148d: 91 10        	sta	($10),y                 ; 0x2010 <f256main+0x1799>
    148f: ad a0 dd     	lda	$dda0                   ; 0xdda0 <__heap_start+0xa314>
    1492: 29 02        	and	#$2
    1494: f0 03        	beq	$1499 <f256main+0xc22>
    1496: 4c ba 16     	jmp	$16ba <f256main+0xe43>
    1499: ae a2 dd     	ldx	$dda2                   ; 0xdda2 <__heap_start+0xa316>
    149c: 86 26        	stx	$26                     ; 0x2026 <f256main+0x17af>
    149e: ad a3 dd     	lda	$dda3                   ; 0xdda3 <__heap_start+0xa317>
    14a1: 29 0f        	and	#$f
    14a3: 85 27        	sta	$27                     ; 0x2027 <f256main+0x17b0>
    14a5: a5 27        	lda	$27                     ; 0x2027 <f256main+0x17b0>
    14a7: d0 07        	bne	$14b0 <f256main+0xc39>
    14a9: a5 26        	lda	$26                     ; 0x2026 <f256main+0x17af>
    14ab: d0 03        	bne	$14b0 <f256main+0xc39>
    14ad: 4c ba 16     	jmp	$16ba <f256main+0xe43>
    14b0: a2 00        	ldx	#$0
    14b2: a0 00        	ldy	#$0
    14b4: a5 2e        	lda	$2e                     ; 0x202e <f256main+0x17b7>
    14b6: 5a           	phy
    14b7: a0 04        	ldy	#$4
    14b9: 91 10        	sta	($10),y                 ; 0x2010 <f256main+0x1799>
    14bb: 7a           	ply
    14bc: ad a1 dd     	lda	$dda1                   ; 0xdda1 <__heap_start+0xa315>
    14bf: c9 fe        	cmp	#$fe
    14c1: d0 03        	bne	$14c6 <f256main+0xc4f>
    14c3: 4c 2a 16     	jmp	$162a <f256main+0xdb3>
    14c6: 86 28        	stx	$28                     ; 0x2028 <f256main+0x17b1>
    14c8: 84 29        	sty	$29                     ; 0x2029 <f256main+0x17b2>
    14ca: 48           	pha
    14cb: 5a           	phy
    14cc: a0 04        	ldy	#$4
    14ce: b1 10        	lda	($10),y                 ; 0x2010 <f256main+0x1799>
    14d0: 7a           	ply
    14d1: aa           	tax
    14d2: 68           	pla
    14d3: e0 00        	cpx	#$0
    14d5: d0 03        	bne	$14da <f256main+0xc63>
    14d7: 4c 8f 15     	jmp	$158f <f256main+0xd18>
    14da: a6 df        	ldx	$df                     ; 0x20df <f256main+0x1868>
    14dc: a4 e0        	ldy	$e0                     ; 0x20e0 <f256main+0x1869>
    14de: 86 12        	stx	$12                     ; 0x2012 <f256main+0x179b>
    14e0: 84 13        	sty	$13                     ; 0x2013 <f256main+0x179c>
    14e2: b2 12        	lda	($12)                   ; 0x2012 <f256main+0x179b>
    14e4: 85 14        	sta	$14                     ; 0x2014 <f256main+0x179d>
    14e6: a0 03        	ldy	#$3
    14e8: b1 12        	lda	($12),y                 ; 0x2012 <f256main+0x179b>
    14ea: 48           	pha
    14eb: b1 10        	lda	($10),y                 ; 0x2010 <f256main+0x1799>
    14ed: aa           	tax
    14ee: 68           	pla
    14ef: e0 00        	cpx	#$0
    14f1: f0 07        	beq	$14fa <f256main+0xc83>
    14f3: a6 2f        	ldx	$2f                     ; 0x202f <f256main+0x17b8>
    14f5: d0 03        	bne	$14fa <f256main+0xc83>
    14f7: 4c f9 15     	jmp	$15f9 <f256main+0xd82>
    14fa: c9 05        	cmp	#$5
    14fc: a4 29        	ldy	$29                     ; 0x2029 <f256main+0x17b2>
    14fe: b0 34        	bcs	$1534 <f256main+0xcbd>
    1500: 85 12        	sta	$12                     ; 0x2012 <f256main+0x179b>
    1502: 06 12        	asl	$12                     ; 0x2012 <f256main+0x179b>
    1504: a6 12        	ldx	$12                     ; 0x2012 <f256main+0x179b>
    1506: 7c 41 36     	jmp	($3641,x)               ; 0x3641 <__BLOCK_SIZE+0x1641>
    1509: 48           	pha
    150a: 5a           	phy
    150b: a0 03        	ldy	#$3
    150d: b1 10        	lda	($10),y                 ; 0x2010 <f256main+0x1799>
    150f: 7a           	ply
    1510: aa           	tax
    1511: 68           	pla
    1512: e0 00        	cpx	#$0
    1514: d0 03        	bne	$1519 <f256main+0xca2>
    1516: 4c 9e 1d     	jmp	$1d9e <f256main+0x1527>
    1519: c9 04        	cmp	#$4
    151b: f0 03        	beq	$1520 <f256main+0xca9>
    151d: 4c d4 1d     	jmp	$1dd4 <f256main+0x155d>
    1520: 4c be 1d     	jmp	$1dbe <f256main+0x1547>
    1523: 86 2e        	stx	$2e                     ; 0x202e <f256main+0x17b7>
    1525: b5 d6        	lda	$d6,x                   ; 0x20d6 <f256main+0x185f>
    1527: aa           	tax
    1528: d0 03        	bne	$152d <f256main+0xcb6>
    152a: 4c 8f 1e     	jmp	$1e8f <f256main+0x1618>
    152d: a6 2e        	ldx	$2e                     ; 0x202e <f256main+0x17b7>
    152f: e8           	inx
    1530: e0 09        	cpx	#$9
    1532: d0 ef        	bne	$1523 <f256main+0xcac>
    1534: 64 12        	stz	$12                     ; 0x2012 <f256main+0x179b>
    1536: a9 00        	lda	#$0
    1538: 5a           	phy
    1539: a0 04        	ldy	#$4
    153b: 4c 25 16     	jmp	$1625 <f256main+0xdae>
    153e: b4 ca        	ldy	$ca,x                   ; 0x20ca <f256main+0x1853>
    1540: d0 03        	bne	$1545 <f256main+0xcce>
    1542: 4c 21 1f     	jmp	$1f21 <f256main+0x16aa>
    1545: e8           	inx
    1546: e0 06        	cpx	#$6
    1548: d0 f4        	bne	$153e <f256main+0xcc7>
    154a: 4c fb 15     	jmp	$15fb <f256main+0xd84>
    154d: b4 d0        	ldy	$d0,x                   ; 0x20d0 <f256main+0x1859>
    154f: d0 03        	bne	$1554 <f256main+0xcdd>
    1551: 4c 9c 1f     	jmp	$1f9c <f256main+0x1725>
    1554: e8           	inx
    1555: e0 06        	cpx	#$6
    1557: d0 f4        	bne	$154d <f256main+0xcd6>
    1559: 4c fb 15     	jmp	$15fb <f256main+0xd84>
    155c: b4 d6        	ldy	$d6,x                   ; 0x20d6 <f256main+0x185f>
    155e: c4 12        	cpy	$12                     ; 0x2012 <f256main+0x179b>
    1560: d0 03        	bne	$1565 <f256main+0xcee>
    1562: 4c ab 21     	jmp	$21ab <f256main+0x1934>
    1565: e8           	inx
    1566: e0 09        	cpx	#$9
    1568: d0 f2        	bne	$155c <f256main+0xce5>
    156a: 4c a9 21     	jmp	$21a9 <f256main+0x1932>
    156d: b4 ca        	ldy	$ca,x                   ; 0x20ca <f256main+0x1853>
    156f: c4 12        	cpy	$12                     ; 0x2012 <f256main+0x179b>
    1571: d0 03        	bne	$1576 <f256main+0xcff>
    1573: 4c 83 21     	jmp	$2183 <f256main+0x190c>
    1576: e8           	inx
    1577: e0 06        	cpx	#$6
    1579: d0 f2        	bne	$156d <f256main+0xcf6>
    157b: 4c 53 22     	jmp	$2253 <f256main+0x19dc>
    157e: b4 d0        	ldy	$d0,x                   ; 0x20d0 <f256main+0x1859>
    1580: c4 12        	cpy	$12                     ; 0x2012 <f256main+0x179b>
    1582: d0 03        	bne	$1587 <f256main+0xd10>
    1584: 4c 93 21     	jmp	$2193 <f256main+0x191c>
    1587: e8           	inx
    1588: e0 06        	cpx	#$6
    158a: d0 f2        	bne	$157e <f256main+0xd07>
    158c: 4c 5d 22     	jmp	$225d <f256main+0x19e6>
    158f: 85 16        	sta	$16                     ; 0x2016 <f256main+0x179f>
    1591: 5a           	phy
    1592: a0 01        	ldy	#$1
    1594: b1 10        	lda	($10),y                 ; 0x2010 <f256main+0x1799>
    1596: 7a           	ply
    1597: aa           	tax
    1598: d0 03        	bne	$159d <f256main+0xd26>
    159a: 4c 09 16     	jmp	$1609 <f256main+0xd92>
    159d: a5 16        	lda	$16                     ; 0x2016 <f256main+0x179f>
    159f: 18           	clc
    15a0: 69 ec        	adc	#$ec
    15a2: 48           	pha
    15a3: a0 03        	ldy	#$3
    15a5: b1 10        	lda	($10),y                 ; 0x2010 <f256main+0x1799>
    15a7: aa           	tax
    15a8: 68           	pla
    15a9: e0 00        	cpx	#$0
    15ab: d0 03        	bne	$15b0 <f256main+0xd39>
    15ad: 4c 8a 16     	jmp	$168a <f256main+0xe13>
    15b0: a6 16        	ldx	$16                     ; 0x2016 <f256main+0x179f>
    15b2: 86 2f        	stx	$2f                     ; 0x202f <f256main+0x17b8>
    15b4: 0a           	asl
    15b5: 64 12        	stz	$12                     ; 0x2012 <f256main+0x179b>
    15b7: 26 12        	rol	$12                     ; 0x2012 <f256main+0x179b>
    15b9: 0a           	asl
    15ba: 85 13        	sta	$13                     ; 0x2013 <f256main+0x179c>
    15bc: 26 12        	rol	$12                     ; 0x2012 <f256main+0x179b>
    15be: a9 00        	lda	#$0
    15c0: 18           	clc
    15c1: 65 13        	adc	$13                     ; 0x2013 <f256main+0x179c>
    15c3: 85 14        	sta	$14                     ; 0x2014 <f256main+0x179d>
    15c5: a9 d4        	lda	#$d4
    15c7: 65 12        	adc	$12                     ; 0x2012 <f256main+0x179b>
    15c9: a6 01        	ldx	$1                      ; 0x2001 <f256main+0x178a>
    15cb: a0 01        	ldy	#$1
    15cd: 84 01        	sty	$1                      ; 0x2001 <f256main+0x178a>
    15cf: 48           	pha
    15d0: a5 14        	lda	$14                     ; 0x2014 <f256main+0x179d>
    15d2: 85 12        	sta	$12                     ; 0x2012 <f256main+0x179b>
    15d4: 68           	pla
    15d5: 85 13        	sta	$13                     ; 0x2013 <f256main+0x179c>
    15d7: a9 ff        	lda	#$ff
    15d9: 92 12        	sta	($12)                   ; 0x2012 <f256main+0x179b>
    15db: 1a           	inc
    15dc: 91 12        	sta	($12),y                 ; 0x2012 <f256main+0x179b>
    15de: c8           	iny
    15df: 3a           	dec
    15e0: 91 12        	sta	($12),y                 ; 0x2012 <f256main+0x179b>
    15e2: c8           	iny
    15e3: 91 12        	sta	($12),y                 ; 0x2012 <f256main+0x179b>
    15e5: 86 01        	stx	$1                      ; 0x2001 <f256main+0x178a>
    15e7: 64 12        	stz	$12                     ; 0x2012 <f256main+0x179b>
    15e9: 1a           	inc
    15ea: a0 01        	ldy	#$1
    15ec: 91 10        	sta	($10),y                 ; 0x2010 <f256main+0x1799>
    15ee: a2 01        	ldx	#$1
    15f0: 8a           	txa
    15f1: a0 04        	ldy	#$4
    15f3: 91 10        	sta	($10),y                 ; 0x2010 <f256main+0x1799>
    15f5: a0 03        	ldy	#$3
    15f7: 80 08        	bra	$1601 <f256main+0xd8a>
    15f9: 64 2f        	stz	$2f                     ; 0x202f <f256main+0x17b8>
    15fb: 64 12        	stz	$12                     ; 0x2012 <f256main+0x179b>
    15fd: a9 00        	lda	#$0
    15ff: a0 04        	ldy	#$4
    1601: 91 10        	sta	($10),y                 ; 0x2010 <f256main+0x1799>
    1603: a6 28        	ldx	$28                     ; 0x2028 <f256main+0x17b1>
    1605: a4 29        	ldy	$29                     ; 0x2029 <f256main+0x17b2>
    1607: 80 21        	bra	$162a <f256main+0xdb3>
    1609: a6 16        	ldx	$16                     ; 0x2016 <f256main+0x179f>
    160b: 86 14        	stx	$14                     ; 0x2014 <f256main+0x179d>
    160d: a5 16        	lda	$16                     ; 0x2016 <f256main+0x179f>
    160f: 29 f0        	and	#$f0
    1611: c9 90        	cmp	#$90
    1613: f0 03        	beq	$1618 <f256main+0xda1>
    1615: 4c 86 18     	jmp	$1886 <f256main+0x100f>
    1618: 4c fe 1d     	jmp	$1dfe <f256main+0x1587>
    161b: 64 12        	stz	$12                     ; 0x2012 <f256main+0x179b>
    161d: 5a           	phy
    161e: a9 00        	lda	#$0
    1620: a0 04        	ldy	#$4
    1622: 91 10        	sta	($10),y                 ; 0x2010 <f256main+0x1799>
    1624: 88           	dey
    1625: 91 10        	sta	($10),y                 ; 0x2010 <f256main+0x1799>
    1627: 7a           	ply
    1628: a6 28        	ldx	$28                     ; 0x2028 <f256main+0x17b1>
    162a: e8           	inx
    162b: d0 01        	bne	$162e <f256main+0xdb7>
    162d: c8           	iny
    162e: c4 27        	cpy	$27                     ; 0x2027 <f256main+0x17b0>
    1630: f0 03        	beq	$1635 <f256main+0xdbe>
    1632: 4c bc 14     	jmp	$14bc <f256main+0xc45>
    1635: e4 26        	cpx	$26                     ; 0x2026 <f256main+0x17af>
    1637: f0 03        	beq	$163c <f256main+0xdc5>
    1639: 4c bc 14     	jmp	$14bc <f256main+0xc45>
    163c: 4c b4 16     	jmp	$16b4 <f256main+0xe3d>
    163f: 06 13        	asl	$13                     ; 0x2013 <f256main+0x179c>
    1641: 85 15        	sta	$15                     ; 0x2015 <f256main+0x179e>
    1643: 26 15        	rol	$15                     ; 0x2015 <f256main+0x179e>
    1645: 06 14        	asl	$14                     ; 0x2014 <f256main+0x179d>
    1647: 26 12        	rol	$12                     ; 0x2012 <f256main+0x179b>
    1649: 06 14        	asl	$14                     ; 0x2014 <f256main+0x179d>
    164b: 26 12        	rol	$12                     ; 0x2012 <f256main+0x179b>
    164d: 18           	clc
    164e: a9 00        	lda	#$0
    1650: 65 14        	adc	$14                     ; 0x2014 <f256main+0x179d>
    1652: aa           	tax
    1653: a9 d4        	lda	#$d4
    1655: 65 12        	adc	$12                     ; 0x2012 <f256main+0x179b>
    1657: 86 12        	stx	$12                     ; 0x2012 <f256main+0x179b>
    1659: 85 13        	sta	$13                     ; 0x2013 <f256main+0x179c>
    165b: a6 01        	ldx	$1                      ; 0x2001 <f256main+0x178a>
    165d: 84 01        	sty	$1                      ; 0x2001 <f256main+0x178a>
    165f: a5 15        	lda	$15                     ; 0x2015 <f256main+0x179e>
    1661: 92 12        	sta	($12)                   ; 0x2012 <f256main+0x179b>
    1663: 91 12        	sta	($12),y                 ; 0x2012 <f256main+0x179b>
    1665: a0 02        	ldy	#$2
    1667: 91 12        	sta	($12),y                 ; 0x2012 <f256main+0x179b>
    1669: a9 ff        	lda	#$ff
    166b: c8           	iny
    166c: 91 12        	sta	($12),y                 ; 0x2012 <f256main+0x179b>
    166e: 86 01        	stx	$1                      ; 0x2001 <f256main+0x178a>
    1670: 64 12        	stz	$12                     ; 0x2012 <f256main+0x179b>
    1672: 1a           	inc
    1673: a0 01        	ldy	#$1
    1675: 91 10        	sta	($10),y                 ; 0x2010 <f256main+0x1799>
    1677: a2 01        	ldx	#$1
    1679: 8a           	txa
    167a: a0 04        	ldy	#$4
    167c: 91 10        	sta	($10),y                 ; 0x2010 <f256main+0x1799>
    167e: a9 00        	lda	#$0
    1680: 88           	dey
    1681: 91 10        	sta	($10),y                 ; 0x2010 <f256main+0x1799>
    1683: a6 16        	ldx	$16                     ; 0x2016 <f256main+0x179f>
    1685: 86 2f        	stx	$2f                     ; 0x202f <f256main+0x17b8>
    1687: 4c 03 16     	jmp	$1603 <f256main+0xd8c>
    168a: aa           	tax
    168b: bc c2 36     	ldy	$36c2,x                 ; 0x36c2 <sidSpriteAction+0x3f>
    168e: a2 01        	ldx	#$1
    1690: 85 14        	sta	$14                     ; 0x2014 <f256main+0x179d>
    1692: 98           	tya
    1693: f0 03        	beq	$1698 <f256main+0xe21>
    1695: 4c ef 1d     	jmp	$1def <f256main+0x1578>
    1698: 64 12        	stz	$12                     ; 0x2012 <f256main+0x179b>
    169a: a0 01        	ldy	#$1
    169c: 64 13        	stz	$13                     ; 0x2013 <f256main+0x179c>
    169e: 8a           	txa
    169f: d0 03        	bne	$16a4 <f256main+0xe2d>
    16a1: 4c f4 1d     	jmp	$1df4 <f256main+0x157d>
    16a4: 46 13        	lsr	$13                     ; 0x2013 <f256main+0x179c>
    16a6: 64 13        	stz	$13                     ; 0x2013 <f256main+0x179c>
    16a8: 66 13        	ror	$13                     ; 0x2013 <f256main+0x179c>
    16aa: 30 03        	bmi	$16af <f256main+0xe38>
    16ac: 4c f9 1d     	jmp	$1df9 <f256main+0x1582>
    16af: a9 ff        	lda	#$ff
    16b1: 4c 3f 16     	jmp	$163f <f256main+0xdc8>
    16b4: a0 04        	ldy	#$4
    16b6: b1 10        	lda	($10),y                 ; 0x2010 <f256main+0x1799>
    16b8: 85 2e        	sta	$2e                     ; 0x202e <f256main+0x17b7>
    16ba: 64 3c        	stz	$3c                     ; 0x203c <f256main+0x17c5>
    16bc: 18           	clc
    16bd: a5 10        	lda	$10                     ; 0x2010 <f256main+0x1799>
    16bf: 69 0a        	adc	#$a
    16c1: 85 24        	sta	$24                     ; 0x2024 <f256main+0x17ad>
    16c3: a5 11        	lda	$11                     ; 0x2011 <f256main+0x179a>
    16c5: 69 00        	adc	#$0
    16c7: 85 25        	sta	$25                     ; 0x2025 <f256main+0x17ae>
    16c9: 20 00 ff     	jsr	$ff00 <__heap_start+0xc474>
    16cc: 92 24        	sta	($24)                   ; 0x2024 <f256main+0x17ad>
    16ce: a9 00        	lda	#$0
    16d0: 6a           	ror
    16d1: 85 2c        	sta	$2c                     ; 0x202c <f256main+0x17b5>
    16d3: a6 3c        	ldx	$3c                     ; 0x203c <f256main+0x17c5>
    16d5: e0 0c        	cpx	#$c
    16d7: f0 03        	beq	$16dc <f256main+0xe65>
    16d9: 4c 8f 14     	jmp	$148f <f256main+0xc18>
    16dc: ad e2 d6     	lda	$d6e2                   ; 0xd6e2 <__heap_start+0x9c56>
    16df: ae e3 d6     	ldx	$d6e3                   ; 0xd6e3 <__heap_start+0x9c57>
    16e2: 86 14        	stx	$14                     ; 0x2014 <f256main+0x179d>
    16e4: a6 3f        	ldx	$3f                     ; 0x203f <f256main+0x17c8>
    16e6: 86 12        	stx	$12                     ; 0x2012 <f256main+0x179b>
    16e8: a2 ff        	ldx	#$ff
    16ea: 86 13        	stx	$13                     ; 0x2013 <f256main+0x179c>
    16ec: a4 12        	ldy	$12                     ; 0x2012 <f256main+0x179b>
    16ee: 30 02        	bmi	$16f2 <f256main+0xe7b>
    16f0: 64 13        	stz	$13                     ; 0x2013 <f256main+0x179c>
    16f2: 18           	clc
    16f3: 65 12        	adc	$12                     ; 0x2012 <f256main+0x179b>
    16f5: a8           	tay
    16f6: a5 14        	lda	$14                     ; 0x2014 <f256main+0x179d>
    16f8: 65 13        	adc	$13                     ; 0x2013 <f256main+0x179c>
    16fa: 84 14        	sty	$14                     ; 0x2014 <f256main+0x179d>
    16fc: 84 c1        	sty	$c1                     ; 0x20c1 <f256main+0x184a>
    16fe: 85 15        	sta	$15                     ; 0x2015 <f256main+0x179e>
    1700: 85 c2        	sta	$c2                     ; 0x20c2 <f256main+0x184b>
    1702: ac e4 d6     	ldy	$d6e4                   ; 0xd6e4 <__heap_start+0x9c58>
    1705: 84 16        	sty	$16                     ; 0x2016 <f256main+0x179f>
    1707: ac e5 d6     	ldy	$d6e5                   ; 0xd6e5 <__heap_start+0x9c59>
    170a: 84 17        	sty	$17                     ; 0x2017 <f256main+0x17a0>
    170c: a4 40        	ldy	$40                     ; 0x2040 <f256main+0x17c9>
    170e: 84 12        	sty	$12                     ; 0x2012 <f256main+0x179b>
    1710: 86 13        	stx	$13                     ; 0x2013 <f256main+0x179c>
    1712: 30 02        	bmi	$1716 <f256main+0xe9f>
    1714: 64 13        	stz	$13                     ; 0x2013 <f256main+0x179c>
    1716: 18           	clc
    1717: a5 16        	lda	$16                     ; 0x2016 <f256main+0x179f>
    1719: 65 12        	adc	$12                     ; 0x2012 <f256main+0x179b>
    171b: a8           	tay
    171c: a5 17        	lda	$17                     ; 0x2017 <f256main+0x17a0>
    171e: 65 13        	adc	$13                     ; 0x2013 <f256main+0x179c>
    1720: 84 12        	sty	$12                     ; 0x2012 <f256main+0x179b>
    1722: 84 c3        	sty	$c3                     ; 0x20c3 <f256main+0x184c>
    1724: 85 c4        	sta	$c4                     ; 0x20c4 <f256main+0x184d>
    1726: a6 15        	ldx	$15                     ; 0x2015 <f256main+0x179e>
    1728: 30 0e        	bmi	$1738 <f256main+0xec1>
    172a: a6 15        	ldx	$15                     ; 0x2015 <f256main+0x179e>
    172c: e0 02        	cpx	#$2
    172e: d0 0e        	bne	$173e <f256main+0xec7>
    1730: a6 14        	ldx	$14                     ; 0x2014 <f256main+0x179d>
    1732: e0 71        	cpx	#$71
    1734: b0 0c        	bcs	$1742 <f256main+0xecb>
    1736: 80 16        	bra	$174e <f256main+0xed7>
    1738: a2 00        	ldx	#$0
    173a: a0 00        	ldy	#$0
    173c: 80 08        	bra	$1746 <f256main+0xecf>
    173e: e0 02        	cpx	#$2
    1740: 90 0c        	bcc	$174e <f256main+0xed7>
    1742: a2 70        	ldx	#$70
    1744: a0 02        	ldy	#$2
    1746: 86 14        	stx	$14                     ; 0x2014 <f256main+0x179d>
    1748: 86 c1        	stx	$c1                     ; 0x20c1 <f256main+0x184a>
    174a: 84 15        	sty	$15                     ; 0x2015 <f256main+0x179e>
    174c: 84 c2        	sty	$c2                     ; 0x20c2 <f256main+0x184b>
    174e: aa           	tax
    174f: 30 0a        	bmi	$175b <f256main+0xee4>
    1751: c9 01        	cmp	#$1
    1753: d0 0e        	bne	$1763 <f256main+0xeec>
    1755: a6 12        	ldx	$12                     ; 0x2012 <f256main+0x179b>
    1757: e0 d1        	cpx	#$d1
    1759: 80 0a        	bra	$1765 <f256main+0xeee>
    175b: a2 00        	ldx	#$0
    175d: a0 00        	ldy	#$0
    175f: a5 14        	lda	$14                     ; 0x2014 <f256main+0x179d>
    1761: 80 0a        	bra	$176d <f256main+0xef6>
    1763: c9 01        	cmp	#$1
    1765: a5 14        	lda	$14                     ; 0x2014 <f256main+0x179d>
    1767: 90 08        	bcc	$1771 <f256main+0xefa>
    1769: a2 d0        	ldx	#$d0
    176b: a0 01        	ldy	#$1
    176d: 86 c3        	stx	$c3                     ; 0x20c3 <f256main+0x184c>
    176f: 84 c4        	sty	$c4                     ; 0x20c4 <f256main+0x184d>
    1771: 8d e2 d6     	sta	$d6e2                   ; 0xd6e2 <__heap_start+0x9c56>
    1774: a6 15        	ldx	$15                     ; 0x2015 <f256main+0x179e>
    1776: 8e e3 d6     	stx	$d6e3                   ; 0xd6e3 <__heap_start+0x9c57>
    1779: a6 c3        	ldx	$c3                     ; 0x20c3 <f256main+0x184c>
    177b: a4 c4        	ldy	$c4                     ; 0x20c4 <f256main+0x184d>
    177d: 8e e4 d6     	stx	$d6e4                   ; 0xd6e4 <__heap_start+0x9c58>
    1780: 8c e5 d6     	sty	$d6e5                   ; 0xd6e5 <__heap_start+0x9c59>
    1783: a5 c0        	lda	$c0                     ; 0x20c0 <f256main+0x1849>
    1785: c9 ff        	cmp	#$ff
    1787: d0 03        	bne	$178c <f256main+0xf15>
    1789: 4c 81 1a     	jmp	$1a81 <f256main+0x120a>
    178c: 0a           	asl
    178d: 64 12        	stz	$12                     ; 0x2012 <f256main+0x179b>
    178f: 26 12        	rol	$12                     ; 0x2012 <f256main+0x179b>
    1791: 0a           	asl
    1792: 85 13        	sta	$13                     ; 0x2013 <f256main+0x179c>
    1794: 26 12        	rol	$12                     ; 0x2012 <f256main+0x179b>
    1796: 0a           	asl
    1797: a6 12        	ldx	$12                     ; 0x2012 <f256main+0x179b>
    1799: 86 14        	stx	$14                     ; 0x2014 <f256main+0x179d>
    179b: 26 14        	rol	$14                     ; 0x2014 <f256main+0x179d>
    179d: 0a           	asl
    179e: 26 14        	rol	$14                     ; 0x2014 <f256main+0x179d>
    17a0: 0a           	asl
    17a1: 26 14        	rol	$14                     ; 0x2014 <f256main+0x179d>
    17a3: 38           	sec
    17a4: e5 13        	sbc	$13                     ; 0x2013 <f256main+0x179c>
    17a6: 85 18        	sta	$18                     ; 0x2018 <f256main+0x17a1>
    17a8: 85 13        	sta	$13                     ; 0x2013 <f256main+0x179c>
    17aa: a5 14        	lda	$14                     ; 0x2014 <f256main+0x179d>
    17ac: e5 12        	sbc	$12                     ; 0x2012 <f256main+0x179b>
    17ae: 85 19        	sta	$19                     ; 0x2019 <f256main+0x17a2>
    17b0: 85 12        	sta	$12                     ; 0x2012 <f256main+0x179b>
    17b2: a9 88        	lda	#$88
    17b4: 18           	clc
    17b5: 65 13        	adc	$13                     ; 0x2013 <f256main+0x179c>
    17b7: 85 26        	sta	$26                     ; 0x2026 <f256main+0x17af>
    17b9: a9 39        	lda	#$39
    17bb: 65 12        	adc	$12                     ; 0x2012 <f256main+0x179b>
    17bd: 64 13        	stz	$13                     ; 0x2013 <f256main+0x179c>
    17bf: 85 27        	sta	$27                     ; 0x2027 <f256main+0x17b0>
    17c1: a6 40        	ldx	$40                     ; 0x2040 <f256main+0x17c9>
    17c3: 86 12        	stx	$12                     ; 0x2012 <f256main+0x179b>
    17c5: 10 08        	bpl	$17cf <f256main+0xf58>
    17c7: 64 15        	stz	$15                     ; 0x2015 <f256main+0x179e>
    17c9: a2 ff        	ldx	#$ff
    17cb: 86 13        	stx	$13                     ; 0x2013 <f256main+0x179c>
    17cd: 80 02        	bra	$17d1 <f256main+0xf5a>
    17cf: 64 15        	stz	$15                     ; 0x2015 <f256main+0x179e>
    17d1: a0 13        	ldy	#$13
    17d3: b1 26        	lda	($26),y                 ; 0x2026 <f256main+0x17af>
    17d5: 38           	sec
    17d6: e5 12        	sbc	$12                     ; 0x2012 <f256main+0x179b>
    17d8: aa           	tax
    17d9: a9 00        	lda	#$0
    17db: e5 13        	sbc	$13                     ; 0x2013 <f256main+0x179c>
    17dd: 85 14        	sta	$14                     ; 0x2014 <f256main+0x179d>
    17df: c8           	iny
    17e0: b1 26        	lda	($26),y                 ; 0x2026 <f256main+0x17af>
    17e2: 85 13        	sta	$13                     ; 0x2013 <f256main+0x179c>
    17e4: 86 12        	stx	$12                     ; 0x2012 <f256main+0x179b>
    17e6: e4 13        	cpx	$13                     ; 0x2013 <f256main+0x179c>
    17e8: a5 14        	lda	$14                     ; 0x2014 <f256main+0x179d>
    17ea: e9 00        	sbc	#$0
    17ec: 50 02        	bvc	$17f0 <f256main+0xf79>
    17ee: 49 80        	eor	#$80
    17f0: aa           	tax
    17f1: 10 06        	bpl	$17f9 <f256main+0xf82>
    17f3: a6 13        	ldx	$13                     ; 0x2013 <f256main+0x179c>
    17f5: 86 12        	stx	$12                     ; 0x2012 <f256main+0x179b>
    17f7: 64 14        	stz	$14                     ; 0x2014 <f256main+0x179d>
    17f9: a6 18        	ldx	$18                     ; 0x2018 <f256main+0x17a1>
    17fb: 86 13        	stx	$13                     ; 0x2013 <f256main+0x179c>
    17fd: a6 19        	ldx	$19                     ; 0x2019 <f256main+0x17a2>
    17ff: 86 15        	stx	$15                     ; 0x2015 <f256main+0x179e>
    1801: a9 88        	lda	#$88
    1803: 18           	clc
    1804: 65 13        	adc	$13                     ; 0x2013 <f256main+0x179c>
    1806: 85 16        	sta	$16                     ; 0x2016 <f256main+0x179f>
    1808: a9 39        	lda	#$39
    180a: 65 15        	adc	$15                     ; 0x2015 <f256main+0x179e>
    180c: 85 17        	sta	$17                     ; 0x2017 <f256main+0x17a0>
    180e: a0 15        	ldy	#$15
    1810: b1 16        	lda	($16),y                 ; 0x2016 <f256main+0x179f>
    1812: a2 00        	ldx	#$0
    1814: e4 14        	cpx	$14                     ; 0x2014 <f256main+0x179d>
    1816: d0 04        	bne	$181c <f256main+0xfa5>
    1818: c5 12        	cmp	$12                     ; 0x2012 <f256main+0x179b>
    181a: 80 02        	bra	$181e <f256main+0xfa7>
    181c: e4 14        	cpx	$14                     ; 0x2014 <f256main+0x179d>
    181e: a6 12        	ldx	$12                     ; 0x2012 <f256main+0x179b>
    1820: b0 01        	bcs	$1823 <f256main+0xfac>
    1822: aa           	tax
    1823: a9 88        	lda	#$88
    1825: 18           	clc
    1826: 65 18        	adc	$18                     ; 0x2018 <f256main+0x17a1>
    1828: 85 12        	sta	$12                     ; 0x2012 <f256main+0x179b>
    182a: a9 39        	lda	#$39
    182c: 65 19        	adc	$19                     ; 0x2019 <f256main+0x17a2>
    182e: 85 13        	sta	$13                     ; 0x2013 <f256main+0x179c>
    1830: a0 13        	ldy	#$13
    1832: 8a           	txa
    1833: 91 12        	sta	($12),y                 ; 0x2012 <f256main+0x179b>
    1835: a6 26        	ldx	$26                     ; 0x2026 <f256main+0x17af>
    1837: 86 12        	stx	$12                     ; 0x2012 <f256main+0x179b>
    1839: a6 27        	ldx	$27                     ; 0x2027 <f256main+0x17b0>
    183b: 86 13        	stx	$13                     ; 0x2013 <f256main+0x179c>
    183d: 20 ae 2d     	jsr	$2dae <updateSlider>
    1840: a9 e4        	lda	#$e4
    1842: 18           	clc
    1843: a0 12        	ldy	#$12
    1845: 71 26        	adc	($26),y                 ; 0x2026 <f256main+0x17af>
    1847: c9 04        	cmp	#$4
    1849: a0 04        	ldy	#$4
    184b: 90 03        	bcc	$1850 <f256main+0xfd9>
    184d: 4c 54 19     	jmp	$1954 <f256main+0x10dd>
    1850: 0a           	asl
    1851: aa           	tax
    1852: 7c 4b 36     	jmp	($364b,x)               ; 0x364b <__BLOCK_SIZE+0x164b>
    1855: a5 df        	lda	$df                     ; 0x20df <f256main+0x1868>
    1857: a6 e0        	ldx	$e0                     ; 0x20e0 <f256main+0x1869>
    1859: 85 12        	sta	$12                     ; 0x2012 <f256main+0x179b>
    185b: 86 13        	stx	$13                     ; 0x2013 <f256main+0x179c>
    185d: 18           	clc
    185e: 69 04        	adc	#$4
    1860: 85 14        	sta	$14                     ; 0x2014 <f256main+0x179d>
    1862: 8a           	txa
    1863: 69 00        	adc	#$0
    1865: 85 15        	sta	$15                     ; 0x2015 <f256main+0x179e>
    1867: b1 12        	lda	($12),y                 ; 0x2012 <f256main+0x179b>
    1869: 85 12        	sta	$12                     ; 0x2012 <f256main+0x179b>
    186b: a0 01        	ldy	#$1
    186d: b1 14        	lda	($14),y                 ; 0x2014 <f256main+0x179d>
    186f: 85 13        	sta	$13                     ; 0x2013 <f256main+0x179c>
    1871: a9 0f        	lda	#$f
    1873: a0 03        	ldy	#$3
    1875: 31 12        	and	($12),y                 ; 0x2012 <f256main+0x179b>
    1877: 85 14        	sta	$14                     ; 0x2014 <f256main+0x179d>
    1879: a0 13        	ldy	#$13
    187b: b1 26        	lda	($26),y                 ; 0x2026 <f256main+0x17af>
    187d: 0a           	asl
    187e: 0a           	asl
    187f: 0a           	asl
    1880: 0a           	asl
    1881: 05 14        	ora	$14                     ; 0x2014 <f256main+0x179d>
    1883: 4c 50 19     	jmp	$1950 <f256main+0x10d9>
    1886: c9 80        	cmp	#$80
    1888: f0 03        	beq	$188d <f256main+0x1016>
    188a: 4c 1c 1e     	jmp	$1e1c <f256main+0x15a5>
    188d: a2 01        	ldx	#$1
    188f: 5a           	phy
    1890: 8a           	txa
    1891: a0 01        	ldy	#$1
    1893: 91 10        	sta	($10),y                 ; 0x2010 <f256main+0x1799>
    1895: a5 16        	lda	$16                     ; 0x2016 <f256main+0x179f>
    1897: 64 12        	stz	$12                     ; 0x2012 <f256main+0x179b>
    1899: 48           	pha
    189a: a9 00        	lda	#$0
    189c: a0 04        	ldy	#$4
    189e: 91 10        	sta	($10),y                 ; 0x2010 <f256main+0x1799>
    18a0: 4c 12 1e     	jmp	$1e12 <f256main+0x159b>
    18a3: 5a           	phy
    18a4: a0 03        	ldy	#$3
    18a6: b1 10        	lda	($10),y                 ; 0x2010 <f256main+0x1799>
    18a8: 7a           	ply
    18a9: aa           	tax
    18aa: d0 03        	bne	$18af <f256main+0x1038>
    18ac: 4c 51 1e     	jmp	$1e51 <f256main+0x15da>
    18af: a2 00        	ldx	#$0
    18b1: 4c 23 15     	jmp	$1523 <f256main+0xcac>
    18b4: a0 03        	ldy	#$3
    18b6: b1 10        	lda	($10),y                 ; 0x2010 <f256main+0x1799>
    18b8: d0 03        	bne	$18bd <f256main+0x1046>
    18ba: 4c 5a 1e     	jmp	$1e5a <f256main+0x15e3>
    18bd: a2 00        	ldx	#$0
    18bf: 4c 3e 15     	jmp	$153e <f256main+0xcc7>
    18c2: a0 03        	ldy	#$3
    18c4: b1 10        	lda	($10),y                 ; 0x2010 <f256main+0x1799>
    18c6: d0 03        	bne	$18cb <f256main+0x1054>
    18c8: 4c 63 1e     	jmp	$1e63 <f256main+0x15ec>
    18cb: a2 00        	ldx	#$0
    18cd: 4c 4d 15     	jmp	$154d <f256main+0xcd6>
    18d0: a5 df        	lda	$df                     ; 0x20df <f256main+0x1868>
    18d2: a6 e0        	ldx	$e0                     ; 0x20e0 <f256main+0x1869>
    18d4: 85 12        	sta	$12                     ; 0x2012 <f256main+0x179b>
    18d6: 86 13        	stx	$13                     ; 0x2013 <f256main+0x179c>
    18d8: 18           	clc
    18d9: 69 04        	adc	#$4
    18db: 85 14        	sta	$14                     ; 0x2014 <f256main+0x179d>
    18dd: 8a           	txa
    18de: 69 00        	adc	#$0
    18e0: 85 15        	sta	$15                     ; 0x2015 <f256main+0x179e>
    18e2: b1 12        	lda	($12),y                 ; 0x2012 <f256main+0x179b>
    18e4: 85 12        	sta	$12                     ; 0x2012 <f256main+0x179b>
    18e6: a0 01        	ldy	#$1
    18e8: b1 14        	lda	($14),y                 ; 0x2014 <f256main+0x179d>
    18ea: 85 13        	sta	$13                     ; 0x2013 <f256main+0x179c>
    18ec: a9 0f        	lda	#$f
    18ee: a0 04        	ldy	#$4
    18f0: 31 12        	and	($12),y                 ; 0x2012 <f256main+0x179b>
    18f2: 85 14        	sta	$14                     ; 0x2014 <f256main+0x179d>
    18f4: a0 13        	ldy	#$13
    18f6: b1 26        	lda	($26),y                 ; 0x2026 <f256main+0x17af>
    18f8: 0a           	asl
    18f9: 0a           	asl
    18fa: 0a           	asl
    18fb: 0a           	asl
    18fc: 05 14        	ora	$14                     ; 0x2014 <f256main+0x179d>
    18fe: 80 26        	bra	$1926 <f256main+0x10af>
    1900: a5 df        	lda	$df                     ; 0x20df <f256main+0x1868>
    1902: a6 e0        	ldx	$e0                     ; 0x20e0 <f256main+0x1869>
    1904: 85 12        	sta	$12                     ; 0x2012 <f256main+0x179b>
    1906: 86 13        	stx	$13                     ; 0x2013 <f256main+0x179c>
    1908: 18           	clc
    1909: 69 04        	adc	#$4
    190b: 85 14        	sta	$14                     ; 0x2014 <f256main+0x179d>
    190d: 8a           	txa
    190e: 69 00        	adc	#$0
    1910: 85 15        	sta	$15                     ; 0x2015 <f256main+0x179e>
    1912: b1 12        	lda	($12),y                 ; 0x2012 <f256main+0x179b>
    1914: 85 12        	sta	$12                     ; 0x2012 <f256main+0x179b>
    1916: a0 01        	ldy	#$1
    1918: b1 14        	lda	($14),y                 ; 0x2014 <f256main+0x179d>
    191a: 85 13        	sta	$13                     ; 0x2013 <f256main+0x179c>
    191c: a9 f0        	lda	#$f0
    191e: a0 04        	ldy	#$4
    1920: 31 12        	and	($12),y                 ; 0x2012 <f256main+0x179b>
    1922: a0 13        	ldy	#$13
    1924: 11 26        	ora	($26),y                 ; 0x2026 <f256main+0x17af>
    1926: a0 04        	ldy	#$4
    1928: 80 28        	bra	$1952 <f256main+0x10db>
    192a: a5 df        	lda	$df                     ; 0x20df <f256main+0x1868>
    192c: a6 e0        	ldx	$e0                     ; 0x20e0 <f256main+0x1869>
    192e: 85 12        	sta	$12                     ; 0x2012 <f256main+0x179b>
    1930: 86 13        	stx	$13                     ; 0x2013 <f256main+0x179c>
    1932: 18           	clc
    1933: 69 04        	adc	#$4
    1935: 85 14        	sta	$14                     ; 0x2014 <f256main+0x179d>
    1937: 8a           	txa
    1938: 69 00        	adc	#$0
    193a: 85 15        	sta	$15                     ; 0x2015 <f256main+0x179e>
    193c: b1 12        	lda	($12),y                 ; 0x2012 <f256main+0x179b>
    193e: 85 12        	sta	$12                     ; 0x2012 <f256main+0x179b>
    1940: a0 01        	ldy	#$1
    1942: b1 14        	lda	($14),y                 ; 0x2014 <f256main+0x179d>
    1944: 85 13        	sta	$13                     ; 0x2013 <f256main+0x179c>
    1946: a9 f0        	lda	#$f0
    1948: a0 03        	ldy	#$3
    194a: 31 12        	and	($12),y                 ; 0x2012 <f256main+0x179b>
    194c: a0 13        	ldy	#$13
    194e: 11 26        	ora	($26),y                 ; 0x2026 <f256main+0x17af>
    1950: a0 03        	ldy	#$3
    1952: 91 12        	sta	($12),y                 ; 0x2012 <f256main+0x179b>
    1954: 64 26        	stz	$26                     ; 0x2026 <f256main+0x17af>
    1956: a5 df        	lda	$df                     ; 0x20df <f256main+0x1868>
    1958: a6 e0        	ldx	$e0                     ; 0x20e0 <f256main+0x1869>
    195a: 85 12        	sta	$12                     ; 0x2012 <f256main+0x179b>
    195c: 86 13        	stx	$13                     ; 0x2013 <f256main+0x179c>
    195e: 18           	clc
    195f: 69 04        	adc	#$4
    1961: 85 14        	sta	$14                     ; 0x2014 <f256main+0x179d>
    1963: 8a           	txa
    1964: 69 00        	adc	#$0
    1966: 85 15        	sta	$15                     ; 0x2015 <f256main+0x179e>
    1968: a0 04        	ldy	#$4
    196a: b1 12        	lda	($12),y                 ; 0x2012 <f256main+0x179b>
    196c: aa           	tax
    196d: a0 01        	ldy	#$1
    196f: b1 14        	lda	($14),y                 ; 0x2014 <f256main+0x179d>
    1971: 86 14        	stx	$14                     ; 0x2014 <f256main+0x179d>
    1973: 85 15        	sta	$15                     ; 0x2015 <f256main+0x179e>
    1975: a6 24        	ldx	$24                     ; 0x2024 <f256main+0x17ad>
    1977: 86 12        	stx	$12                     ; 0x2012 <f256main+0x179b>
    1979: a6 25        	ldx	$25                     ; 0x2025 <f256main+0x17ae>
    197b: 86 13        	stx	$13                     ; 0x2013 <f256main+0x179c>
    197d: a2 00        	ldx	#$0
    197f: a9 09        	lda	#$9
    1981: 20 a5 33     	jsr	$33a5 <memcpy>
    1984: a6 24        	ldx	$24                     ; 0x2024 <f256main+0x17ad>
    1986: 86 12        	stx	$12                     ; 0x2012 <f256main+0x179b>
    1988: a6 25        	ldx	$25                     ; 0x2025 <f256main+0x17ae>
    198a: 86 13        	stx	$13                     ; 0x2013 <f256main+0x179c>
    198c: a6 26        	ldx	$26                     ; 0x2026 <f256main+0x17af>
    198e: a9 00        	lda	#$0
    1990: 20 62 30     	jsr	$3062 <sid_setInstrument>
    1993: a5 df        	lda	$df                     ; 0x20df <f256main+0x1868>
    1995: a6 e0        	ldx	$e0                     ; 0x20e0 <f256main+0x1869>
    1997: 85 12        	sta	$12                     ; 0x2012 <f256main+0x179b>
    1999: 86 13        	stx	$13                     ; 0x2013 <f256main+0x179c>
    199b: 18           	clc
    199c: 69 04        	adc	#$4
    199e: 85 14        	sta	$14                     ; 0x2014 <f256main+0x179d>
    19a0: 8a           	txa
    19a1: 69 00        	adc	#$0
    19a3: 85 15        	sta	$15                     ; 0x2015 <f256main+0x179e>
    19a5: a0 04        	ldy	#$4
    19a7: b1 12        	lda	($12),y                 ; 0x2012 <f256main+0x179b>
    19a9: aa           	tax
    19aa: a0 01        	ldy	#$1
    19ac: b1 14        	lda	($14),y                 ; 0x2014 <f256main+0x179d>
    19ae: 86 14        	stx	$14                     ; 0x2014 <f256main+0x179d>
    19b0: 85 15        	sta	$15                     ; 0x2015 <f256main+0x179e>
    19b2: a6 24        	ldx	$24                     ; 0x2024 <f256main+0x17ad>
    19b4: 86 12        	stx	$12                     ; 0x2012 <f256main+0x179b>
    19b6: a6 25        	ldx	$25                     ; 0x2025 <f256main+0x17ae>
    19b8: 86 13        	stx	$13                     ; 0x2013 <f256main+0x179c>
    19ba: a2 00        	ldx	#$0
    19bc: a9 09        	lda	#$9
    19be: 20 a5 33     	jsr	$33a5 <memcpy>
    19c1: a6 24        	ldx	$24                     ; 0x2024 <f256main+0x17ad>
    19c3: 86 12        	stx	$12                     ; 0x2012 <f256main+0x179b>
    19c5: a6 25        	ldx	$25                     ; 0x2025 <f256main+0x17ae>
    19c7: 86 13        	stx	$13                     ; 0x2013 <f256main+0x179c>
    19c9: a6 26        	ldx	$26                     ; 0x2026 <f256main+0x17af>
    19cb: a9 01        	lda	#$1
    19cd: 20 62 30     	jsr	$3062 <sid_setInstrument>
    19d0: a6 26        	ldx	$26                     ; 0x2026 <f256main+0x17af>
    19d2: e8           	inx
    19d3: 86 26        	stx	$26                     ; 0x2026 <f256main+0x17af>
    19d5: e0 03        	cpx	#$3
    19d7: f0 03        	beq	$19dc <f256main+0x1165>
    19d9: 4c 56 19     	jmp	$1956 <f256main+0x10df>
    19dc: a6 c0        	ldx	$c0                     ; 0x20c0 <f256main+0x1849>
    19de: 86 28        	stx	$28                     ; 0x2028 <f256main+0x17b1>
    19e0: a2 13        	ldx	#$13
    19e2: 86 12        	stx	$12                     ; 0x2012 <f256main+0x179b>
    19e4: 64 13        	stz	$13                     ; 0x2013 <f256main+0x179c>
    19e6: a2 00        	ldx	#$0
    19e8: a5 28        	lda	$28                     ; 0x2028 <f256main+0x17b1>
    19ea: 20 04 34     	jsr	$3404 <__mulhi3>
    19ed: 85 12        	sta	$12                     ; 0x2012 <f256main+0x179b>
    19ef: 86 13        	stx	$13                     ; 0x2013 <f256main+0x179c>
    19f1: a9 f8        	lda	#$f8
    19f3: 18           	clc
    19f4: 65 12        	adc	$12                     ; 0x2012 <f256main+0x179b>
    19f6: 85 26        	sta	$26                     ; 0x2026 <f256main+0x17af>
    19f8: a9 39        	lda	#$39
    19fa: 65 13        	adc	$13                     ; 0x2013 <f256main+0x179c>
    19fc: 85 27        	sta	$27                     ; 0x2027 <f256main+0x17b0>
    19fe: 06 28        	asl	$28                     ; 0x2028 <f256main+0x17b1>
    1a00: a9 00        	lda	#$0
    1a02: 2a           	rol
    1a03: 06 28        	asl	$28                     ; 0x2028 <f256main+0x17b1>
    1a05: 2a           	rol
    1a06: 85 13        	sta	$13                     ; 0x2013 <f256main+0x179c>
    1a08: a5 28        	lda	$28                     ; 0x2028 <f256main+0x17b1>
    1a0a: 0a           	asl
    1a0b: a6 13        	ldx	$13                     ; 0x2013 <f256main+0x179c>
    1a0d: 86 14        	stx	$14                     ; 0x2014 <f256main+0x179d>
    1a0f: 26 14        	rol	$14                     ; 0x2014 <f256main+0x179d>
    1a11: 0a           	asl
    1a12: 26 14        	rol	$14                     ; 0x2014 <f256main+0x179d>
    1a14: 0a           	asl
    1a15: 26 14        	rol	$14                     ; 0x2014 <f256main+0x179d>
    1a17: 38           	sec
    1a18: e5 28        	sbc	$28                     ; 0x2028 <f256main+0x17b1>
    1a1a: 85 12        	sta	$12                     ; 0x2012 <f256main+0x179b>
    1a1c: a5 14        	lda	$14                     ; 0x2014 <f256main+0x179d>
    1a1e: e5 13        	sbc	$13                     ; 0x2013 <f256main+0x179c>
    1a20: 85 13        	sta	$13                     ; 0x2013 <f256main+0x179c>
    1a22: a9 88        	lda	#$88
    1a24: 18           	clc
    1a25: 65 12        	adc	$12                     ; 0x2012 <f256main+0x179b>
    1a27: 85 12        	sta	$12                     ; 0x2012 <f256main+0x179b>
    1a29: a9 39        	lda	#$39
    1a2b: 65 13        	adc	$13                     ; 0x2013 <f256main+0x179c>
    1a2d: 85 13        	sta	$13                     ; 0x2013 <f256main+0x179c>
    1a2f: a0 13        	ldy	#$13
    1a31: b1 12        	lda	($12),y                 ; 0x2012 <f256main+0x179b>
    1a33: 85 12        	sta	$12                     ; 0x2012 <f256main+0x179b>
    1a35: b2 26        	lda	($26)                   ; 0x2026 <f256main+0x17af>
    1a37: 85 28        	sta	$28                     ; 0x2028 <f256main+0x17b1>
    1a39: a0 0d        	ldy	#$d
    1a3b: b1 26        	lda	($26),y                 ; 0x2026 <f256main+0x17af>
    1a3d: 85 29        	sta	$29                     ; 0x2029 <f256main+0x17b2>
    1a3f: 64 13        	stz	$13                     ; 0x2013 <f256main+0x179c>
    1a41: a2 00        	ldx	#$0
    1a43: 20 04 34     	jsr	$3404 <__mulhi3>
    1a46: a4 29        	ldy	$29                     ; 0x2029 <f256main+0x17b2>
    1a48: 84 12        	sty	$12                     ; 0x2012 <f256main+0x179b>
    1a4a: 64 13        	stz	$13                     ; 0x2013 <f256main+0x179c>
    1a4c: 20 04 34     	jsr	$3404 <__mulhi3>
    1a4f: 86 12        	stx	$12                     ; 0x2012 <f256main+0x179b>
    1a51: a2 01        	ldx	#$1
    1a53: 86 13        	stx	$13                     ; 0x2013 <f256main+0x179c>
    1a55: 64 14        	stz	$14                     ; 0x2014 <f256main+0x179d>
    1a57: a6 29        	ldx	$29                     ; 0x2029 <f256main+0x17b2>
    1a59: 86 15        	stx	$15                     ; 0x2015 <f256main+0x179e>
    1a5b: aa           	tax
    1a5c: a5 28        	lda	$28                     ; 0x2028 <f256main+0x17b1>
    1a5e: 20 0c 29     	jsr	$290c <spriteDefine>
    1a61: b2 26        	lda	($26)                   ; 0x2026 <f256main+0x17af>
    1a63: aa           	tax
    1a64: 0a           	asl
    1a65: 64 12        	stz	$12                     ; 0x2012 <f256main+0x179b>
    1a67: 26 12        	rol	$12                     ; 0x2012 <f256main+0x179b>
    1a69: 0a           	asl
    1a6a: 26 12        	rol	$12                     ; 0x2012 <f256main+0x179b>
    1a6c: 0a           	asl
    1a6d: 26 12        	rol	$12                     ; 0x2012 <f256main+0x179b>
    1a6f: 18           	clc
    1a70: 69 00        	adc	#$0
    1a72: a8           	tay
    1a73: a5 12        	lda	$12                     ; 0x2012 <f256main+0x179b>
    1a75: 69 d9        	adc	#$d9
    1a77: 84 12        	sty	$12                     ; 0x2012 <f256main+0x179b>
    1a79: 85 13        	sta	$13                     ; 0x2013 <f256main+0x179c>
    1a7b: a9 01        	lda	#$1
    1a7d: 15 47        	ora	$47,x                   ; 0x2047 <f256main+0x17d0>
    1a7f: 92 12        	sta	($12)                   ; 0x2012 <f256main+0x179b>
    1a81: a5 bf        	lda	$bf                     ; 0x20bf <f256main+0x1848>
    1a83: c9 ff        	cmp	#$ff
    1a85: d0 03        	bne	$1a8a <f256main+0x1213>
    1a87: 4c 83 1d     	jmp	$1d83 <f256main+0x150c>
    1a8a: 0a           	asl
    1a8b: 64 12        	stz	$12                     ; 0x2012 <f256main+0x179b>
    1a8d: 26 12        	rol	$12                     ; 0x2012 <f256main+0x179b>
    1a8f: 0a           	asl
    1a90: 85 13        	sta	$13                     ; 0x2013 <f256main+0x179c>
    1a92: 26 12        	rol	$12                     ; 0x2012 <f256main+0x179b>
    1a94: 0a           	asl
    1a95: a6 12        	ldx	$12                     ; 0x2012 <f256main+0x179b>
    1a97: 86 14        	stx	$14                     ; 0x2014 <f256main+0x179d>
    1a99: 26 14        	rol	$14                     ; 0x2014 <f256main+0x179d>
    1a9b: 0a           	asl
    1a9c: 26 14        	rol	$14                     ; 0x2014 <f256main+0x179d>
    1a9e: 0a           	asl
    1a9f: 26 14        	rol	$14                     ; 0x2014 <f256main+0x179d>
    1aa1: 38           	sec
    1aa2: e5 13        	sbc	$13                     ; 0x2013 <f256main+0x179c>
    1aa4: 85 18        	sta	$18                     ; 0x2018 <f256main+0x17a1>
    1aa6: 85 13        	sta	$13                     ; 0x2013 <f256main+0x179c>
    1aa8: a5 14        	lda	$14                     ; 0x2014 <f256main+0x179d>
    1aaa: e5 12        	sbc	$12                     ; 0x2012 <f256main+0x179b>
    1aac: 85 19        	sta	$19                     ; 0x2019 <f256main+0x17a2>
    1aae: 85 12        	sta	$12                     ; 0x2012 <f256main+0x179b>
    1ab0: a9 87        	lda	#$87
    1ab2: 18           	clc
    1ab3: 65 13        	adc	$13                     ; 0x2013 <f256main+0x179c>
    1ab5: 85 26        	sta	$26                     ; 0x2026 <f256main+0x17af>
    1ab7: a9 00        	lda	#$0
    1ab9: 65 12        	adc	$12                     ; 0x2012 <f256main+0x179b>
    1abb: 85 27        	sta	$27                     ; 0x2027 <f256main+0x17b0>
    1abd: a0 13        	ldy	#$13
    1abf: b1 26        	lda	($26),y                 ; 0x2026 <f256main+0x17af>
    1ac1: 85 12        	sta	$12                     ; 0x2012 <f256main+0x179b>
    1ac3: a5 3f        	lda	$3f                     ; 0x203f <f256main+0x17c8>
    1ac5: 10 04        	bpl	$1acb <f256main+0x1254>
    1ac7: a2 ff        	ldx	#$ff
    1ac9: 80 02        	bra	$1acd <f256main+0x1256>
    1acb: a2 00        	ldx	#$0
    1acd: 18           	clc
    1ace: 65 12        	adc	$12                     ; 0x2012 <f256main+0x179b>
    1ad0: 85 12        	sta	$12                     ; 0x2012 <f256main+0x179b>
    1ad2: 8a           	txa
    1ad3: 69 00        	adc	#$0
    1ad5: 85 14        	sta	$14                     ; 0x2014 <f256main+0x179d>
    1ad7: a0 14        	ldy	#$14
    1ad9: a6 12        	ldx	$12                     ; 0x2012 <f256main+0x179b>
    1adb: b1 26        	lda	($26),y                 ; 0x2026 <f256main+0x17af>
    1add: 85 13        	sta	$13                     ; 0x2013 <f256main+0x179c>
    1adf: e4 13        	cpx	$13                     ; 0x2013 <f256main+0x179c>
    1ae1: a5 14        	lda	$14                     ; 0x2014 <f256main+0x179d>
    1ae3: e9 00        	sbc	#$0
    1ae5: 50 02        	bvc	$1ae9 <f256main+0x1272>
    1ae7: 49 80        	eor	#$80
    1ae9: aa           	tax
    1aea: 10 06        	bpl	$1af2 <f256main+0x127b>
    1aec: a6 13        	ldx	$13                     ; 0x2013 <f256main+0x179c>
    1aee: 86 12        	stx	$12                     ; 0x2012 <f256main+0x179b>
    1af0: 64 14        	stz	$14                     ; 0x2014 <f256main+0x179d>
    1af2: a6 18        	ldx	$18                     ; 0x2018 <f256main+0x17a1>
    1af4: 86 13        	stx	$13                     ; 0x2013 <f256main+0x179c>
    1af6: a6 19        	ldx	$19                     ; 0x2019 <f256main+0x17a2>
    1af8: 86 15        	stx	$15                     ; 0x2015 <f256main+0x179e>
    1afa: a9 87        	lda	#$87
    1afc: 18           	clc
    1afd: 65 13        	adc	$13                     ; 0x2013 <f256main+0x179c>
    1aff: 85 16        	sta	$16                     ; 0x2016 <f256main+0x179f>
    1b01: a9 00        	lda	#$0
    1b03: 65 15        	adc	$15                     ; 0x2015 <f256main+0x179e>
    1b05: 85 17        	sta	$17                     ; 0x2017 <f256main+0x17a0>
    1b07: a0 15        	ldy	#$15
    1b09: b1 16        	lda	($16),y                 ; 0x2016 <f256main+0x179f>
    1b0b: a2 00        	ldx	#$0
    1b0d: e4 14        	cpx	$14                     ; 0x2014 <f256main+0x179d>
    1b0f: d0 04        	bne	$1b15 <f256main+0x129e>
    1b11: c5 12        	cmp	$12                     ; 0x2012 <f256main+0x179b>
    1b13: 80 02        	bra	$1b17 <f256main+0x12a0>
    1b15: e4 14        	cpx	$14                     ; 0x2014 <f256main+0x179d>
    1b17: a6 12        	ldx	$12                     ; 0x2012 <f256main+0x179b>
    1b19: b0 01        	bcs	$1b1c <f256main+0x12a5>
    1b1b: aa           	tax
    1b1c: a9 87        	lda	#$87
    1b1e: 18           	clc
    1b1f: 65 18        	adc	$18                     ; 0x2018 <f256main+0x17a1>
    1b21: 85 12        	sta	$12                     ; 0x2012 <f256main+0x179b>
    1b23: a9 00        	lda	#$0
    1b25: 65 19        	adc	$19                     ; 0x2019 <f256main+0x17a2>
    1b27: 85 13        	sta	$13                     ; 0x2013 <f256main+0x179c>
    1b29: a0 13        	ldy	#$13
    1b2b: 8a           	txa
    1b2c: 91 12        	sta	($12),y                 ; 0x2012 <f256main+0x179b>
    1b2e: a6 26        	ldx	$26                     ; 0x2026 <f256main+0x17af>
    1b30: 86 12        	stx	$12                     ; 0x2012 <f256main+0x179b>
    1b32: a6 27        	ldx	$27                     ; 0x2027 <f256main+0x17b0>
    1b34: 86 13        	stx	$13                     ; 0x2013 <f256main+0x179c>
    1b36: 20 38 2c     	jsr	$2c38 <updateDial>
    1b39: a0 12        	ldy	#$12
    1b3b: b1 26        	lda	($26),y                 ; 0x2026 <f256main+0x17af>
    1b3d: c9 24        	cmp	#$24
    1b3f: f0 0e        	beq	$1b4f <f256main+0x12d8>
    1b41: c9 25        	cmp	#$25
    1b43: d0 38        	bne	$1b7d <f256main+0x1306>
    1b45: a0 13        	ldy	#$13
    1b47: b1 26        	lda	($26),y                 ; 0x2026 <f256main+0x17af>
    1b49: 85 16        	sta	$16                     ; 0x2016 <f256main+0x179f>
    1b4b: a2 01        	ldx	#$1
    1b4d: 80 0a        	bra	$1b59 <f256main+0x12e2>
    1b4f: a9 0f        	lda	#$f
    1b51: a0 13        	ldy	#$13
    1b53: 31 26        	and	($26),y                 ; 0x2026 <f256main+0x17af>
    1b55: 85 16        	sta	$16                     ; 0x2016 <f256main+0x179f>
    1b57: a2 02        	ldx	#$2
    1b59: a5 df        	lda	$df                     ; 0x20df <f256main+0x1868>
    1b5b: a4 e0        	ldy	$e0                     ; 0x20e0 <f256main+0x1869>
    1b5d: 85 12        	sta	$12                     ; 0x2012 <f256main+0x179b>
    1b5f: 84 13        	sty	$13                     ; 0x2013 <f256main+0x179c>
    1b61: 18           	clc
    1b62: 69 04        	adc	#$4
    1b64: 85 14        	sta	$14                     ; 0x2014 <f256main+0x179d>
    1b66: 98           	tya
    1b67: 69 00        	adc	#$0
    1b69: 85 15        	sta	$15                     ; 0x2015 <f256main+0x179e>
    1b6b: a0 04        	ldy	#$4
    1b6d: b1 12        	lda	($12),y                 ; 0x2012 <f256main+0x179b>
    1b6f: 85 12        	sta	$12                     ; 0x2012 <f256main+0x179b>
    1b71: a0 01        	ldy	#$1
    1b73: b1 14        	lda	($14),y                 ; 0x2014 <f256main+0x179d>
    1b75: 85 13        	sta	$13                     ; 0x2013 <f256main+0x179c>
    1b77: a5 16        	lda	$16                     ; 0x2016 <f256main+0x179f>
    1b79: da           	phx
    1b7a: 7a           	ply
    1b7b: 91 12        	sta	($12),y                 ; 0x2012 <f256main+0x179b>
    1b7d: 64 26        	stz	$26                     ; 0x2026 <f256main+0x17af>
    1b7f: a5 df        	lda	$df                     ; 0x20df <f256main+0x1868>
    1b81: a6 e0        	ldx	$e0                     ; 0x20e0 <f256main+0x1869>
    1b83: 85 12        	sta	$12                     ; 0x2012 <f256main+0x179b>
    1b85: 86 13        	stx	$13                     ; 0x2013 <f256main+0x179c>
    1b87: 18           	clc
    1b88: 69 04        	adc	#$4
    1b8a: 85 14        	sta	$14                     ; 0x2014 <f256main+0x179d>
    1b8c: 8a           	txa
    1b8d: 69 00        	adc	#$0
    1b8f: 85 15        	sta	$15                     ; 0x2015 <f256main+0x179e>
    1b91: a0 04        	ldy	#$4
    1b93: b1 12        	lda	($12),y                 ; 0x2012 <f256main+0x179b>
    1b95: aa           	tax
    1b96: a0 01        	ldy	#$1
    1b98: b1 14        	lda	($14),y                 ; 0x2014 <f256main+0x179d>
    1b9a: 86 14        	stx	$14                     ; 0x2014 <f256main+0x179d>
    1b9c: 85 15        	sta	$15                     ; 0x2015 <f256main+0x179e>
    1b9e: a6 24        	ldx	$24                     ; 0x2024 <f256main+0x17ad>
    1ba0: 86 12        	stx	$12                     ; 0x2012 <f256main+0x179b>
    1ba2: a6 25        	ldx	$25                     ; 0x2025 <f256main+0x17ae>
    1ba4: 86 13        	stx	$13                     ; 0x2013 <f256main+0x179c>
    1ba6: a2 00        	ldx	#$0
    1ba8: a9 09        	lda	#$9
    1baa: 20 a5 33     	jsr	$33a5 <memcpy>
    1bad: a6 24        	ldx	$24                     ; 0x2024 <f256main+0x17ad>
    1baf: 86 12        	stx	$12                     ; 0x2012 <f256main+0x179b>
    1bb1: a6 25        	ldx	$25                     ; 0x2025 <f256main+0x17ae>
    1bb3: 86 13        	stx	$13                     ; 0x2013 <f256main+0x179c>
    1bb5: a6 26        	ldx	$26                     ; 0x2026 <f256main+0x17af>
    1bb7: a9 00        	lda	#$0
    1bb9: 20 62 30     	jsr	$3062 <sid_setInstrument>
    1bbc: a5 df        	lda	$df                     ; 0x20df <f256main+0x1868>
    1bbe: a6 e0        	ldx	$e0                     ; 0x20e0 <f256main+0x1869>
    1bc0: 85 12        	sta	$12                     ; 0x2012 <f256main+0x179b>
    1bc2: 86 13        	stx	$13                     ; 0x2013 <f256main+0x179c>
    1bc4: 18           	clc
    1bc5: 69 04        	adc	#$4
    1bc7: 85 14        	sta	$14                     ; 0x2014 <f256main+0x179d>
    1bc9: 8a           	txa
    1bca: 69 00        	adc	#$0
    1bcc: 85 15        	sta	$15                     ; 0x2015 <f256main+0x179e>
    1bce: a0 04        	ldy	#$4
    1bd0: b1 12        	lda	($12),y                 ; 0x2012 <f256main+0x179b>
    1bd2: aa           	tax
    1bd3: a0 01        	ldy	#$1
    1bd5: b1 14        	lda	($14),y                 ; 0x2014 <f256main+0x179d>
    1bd7: 86 14        	stx	$14                     ; 0x2014 <f256main+0x179d>
    1bd9: 85 15        	sta	$15                     ; 0x2015 <f256main+0x179e>
    1bdb: a6 24        	ldx	$24                     ; 0x2024 <f256main+0x17ad>
    1bdd: 86 12        	stx	$12                     ; 0x2012 <f256main+0x179b>
    1bdf: a6 25        	ldx	$25                     ; 0x2025 <f256main+0x17ae>
    1be1: 86 13        	stx	$13                     ; 0x2013 <f256main+0x179c>
    1be3: a2 00        	ldx	#$0
    1be5: a9 09        	lda	#$9
    1be7: 20 a5 33     	jsr	$33a5 <memcpy>
    1bea: a6 24        	ldx	$24                     ; 0x2024 <f256main+0x17ad>
    1bec: 86 12        	stx	$12                     ; 0x2012 <f256main+0x179b>
    1bee: a6 25        	ldx	$25                     ; 0x2025 <f256main+0x17ae>
    1bf0: 86 13        	stx	$13                     ; 0x2013 <f256main+0x179c>
    1bf2: a6 26        	ldx	$26                     ; 0x2026 <f256main+0x17af>
    1bf4: a9 01        	lda	#$1
    1bf6: 20 62 30     	jsr	$3062 <sid_setInstrument>
    1bf9: a6 26        	ldx	$26                     ; 0x2026 <f256main+0x17af>
    1bfb: e8           	inx
    1bfc: 86 26        	stx	$26                     ; 0x2026 <f256main+0x17af>
    1bfe: e0 03        	cpx	#$3
    1c00: f0 03        	beq	$1c05 <f256main+0x138e>
    1c02: 4c 7f 1b     	jmp	$1b7f <f256main+0x1308>
    1c05: a5 bf        	lda	$bf                     ; 0x20bf <f256main+0x1848>
    1c07: 0a           	asl
    1c08: 64 12        	stz	$12                     ; 0x2012 <f256main+0x179b>
    1c0a: 26 12        	rol	$12                     ; 0x2012 <f256main+0x179b>
    1c0c: 0a           	asl
    1c0d: 85 13        	sta	$13                     ; 0x2013 <f256main+0x179c>
    1c0f: 26 12        	rol	$12                     ; 0x2012 <f256main+0x179b>
    1c11: 0a           	asl
    1c12: a6 12        	ldx	$12                     ; 0x2012 <f256main+0x179b>
    1c14: 86 14        	stx	$14                     ; 0x2014 <f256main+0x179d>
    1c16: 26 14        	rol	$14                     ; 0x2014 <f256main+0x179d>
    1c18: 0a           	asl
    1c19: 26 14        	rol	$14                     ; 0x2014 <f256main+0x179d>
    1c1b: 0a           	asl
    1c1c: 26 14        	rol	$14                     ; 0x2014 <f256main+0x179d>
    1c1e: 38           	sec
    1c1f: e5 13        	sbc	$13                     ; 0x2013 <f256main+0x179c>
    1c21: 85 13        	sta	$13                     ; 0x2013 <f256main+0x179c>
    1c23: a5 14        	lda	$14                     ; 0x2014 <f256main+0x179d>
    1c25: e5 12        	sbc	$12                     ; 0x2012 <f256main+0x179b>
    1c27: 85 12        	sta	$12                     ; 0x2012 <f256main+0x179b>
    1c29: a9 87        	lda	#$87
    1c2b: 18           	clc
    1c2c: 65 13        	adc	$13                     ; 0x2013 <f256main+0x179c>
    1c2e: aa           	tax
    1c2f: a9 00        	lda	#$0
    1c31: 65 12        	adc	$12                     ; 0x2012 <f256main+0x179b>
    1c33: 86 12        	stx	$12                     ; 0x2012 <f256main+0x179b>
    1c35: 85 13        	sta	$13                     ; 0x2013 <f256main+0x179c>
    1c37: a0 12        	ldy	#$12
    1c39: b1 12        	lda	($12),y                 ; 0x2012 <f256main+0x179b>
    1c3b: c9 24        	cmp	#$24
    1c3d: f0 03        	beq	$1c42 <f256main+0x13cb>
    1c3f: 4c cc 1c     	jmp	$1ccc <f256main+0x1455>
    1c42: a6 9a        	ldx	$9a                     ; 0x209a <f256main+0x1823>
    1c44: ac 44 3a     	ldy	$3a44                   ; 0x3a44 <sliders_labels+0x4c>
    1c47: 84 24        	sty	$24                     ; 0x2024 <f256main+0x17ad>
    1c49: ad 51 3a     	lda	$3a51                   ; 0x3a51 <sliders_labels+0x59>
    1c4c: 86 12        	stx	$12                     ; 0x2012 <f256main+0x179b>
    1c4e: 64 13        	stz	$13                     ; 0x2013 <f256main+0x179c>
    1c50: a2 00        	ldx	#$0
    1c52: 85 25        	sta	$25                     ; 0x2025 <f256main+0x17ae>
    1c54: 20 04 34     	jsr	$3404 <__mulhi3>
    1c57: a4 25        	ldy	$25                     ; 0x2025 <f256main+0x17ae>
    1c59: 84 12        	sty	$12                     ; 0x2012 <f256main+0x179b>
    1c5b: 64 13        	stz	$13                     ; 0x2013 <f256main+0x179c>
    1c5d: 20 04 34     	jsr	$3404 <__mulhi3>
    1c60: 86 12        	stx	$12                     ; 0x2012 <f256main+0x179b>
    1c62: a2 01        	ldx	#$1
    1c64: 86 13        	stx	$13                     ; 0x2013 <f256main+0x179c>
    1c66: 64 14        	stz	$14                     ; 0x2014 <f256main+0x179d>
    1c68: a6 25        	ldx	$25                     ; 0x2025 <f256main+0x17ae>
    1c6a: 86 15        	stx	$15                     ; 0x2015 <f256main+0x179e>
    1c6c: aa           	tax
    1c6d: a5 24        	lda	$24                     ; 0x2024 <f256main+0x17ad>
    1c6f: 20 0c 29     	jsr	$290c <spriteDefine>
    1c72: ae 44 3a     	ldx	$3a44                   ; 0x3a44 <sliders_labels+0x4c>
    1c75: 8a           	txa
    1c76: 0a           	asl
    1c77: a8           	tay
    1c78: a9 00        	lda	#$0
    1c7a: 2a           	rol
    1c7b: 84 12        	sty	$12                     ; 0x2012 <f256main+0x179b>
    1c7d: 06 12        	asl	$12                     ; 0x2012 <f256main+0x179b>
    1c7f: 2a           	rol
    1c80: 06 12        	asl	$12                     ; 0x2012 <f256main+0x179b>
    1c82: 2a           	rol
    1c83: a8           	tay
    1c84: 18           	clc
    1c85: a5 12        	lda	$12                     ; 0x2012 <f256main+0x179b>
    1c87: 69 00        	adc	#$0
    1c89: 85 12        	sta	$12                     ; 0x2012 <f256main+0x179b>
    1c8b: 98           	tya
    1c8c: 69 d9        	adc	#$d9
    1c8e: 85 13        	sta	$13                     ; 0x2013 <f256main+0x179c>
    1c90: a9 01        	lda	#$1
    1c92: 15 47        	ora	$47,x                   ; 0x2047 <f256main+0x17d0>
    1c94: 92 12        	sta	($12)                   ; 0x2012 <f256main+0x179b>
    1c96: a5 bf        	lda	$bf                     ; 0x20bf <f256main+0x1848>
    1c98: 0a           	asl
    1c99: 64 12        	stz	$12                     ; 0x2012 <f256main+0x179b>
    1c9b: 26 12        	rol	$12                     ; 0x2012 <f256main+0x179b>
    1c9d: 0a           	asl
    1c9e: 85 13        	sta	$13                     ; 0x2013 <f256main+0x179c>
    1ca0: 26 12        	rol	$12                     ; 0x2012 <f256main+0x179b>
    1ca2: 0a           	asl
    1ca3: a6 12        	ldx	$12                     ; 0x2012 <f256main+0x179b>
    1ca5: 86 14        	stx	$14                     ; 0x2014 <f256main+0x179d>
    1ca7: 26 14        	rol	$14                     ; 0x2014 <f256main+0x179d>
    1ca9: 0a           	asl
    1caa: 26 14        	rol	$14                     ; 0x2014 <f256main+0x179d>
    1cac: 0a           	asl
    1cad: 26 14        	rol	$14                     ; 0x2014 <f256main+0x179d>
    1caf: 38           	sec
    1cb0: e5 13        	sbc	$13                     ; 0x2013 <f256main+0x179c>
    1cb2: 85 13        	sta	$13                     ; 0x2013 <f256main+0x179c>
    1cb4: a5 14        	lda	$14                     ; 0x2014 <f256main+0x179d>
    1cb6: e5 12        	sbc	$12                     ; 0x2012 <f256main+0x179b>
    1cb8: 85 12        	sta	$12                     ; 0x2012 <f256main+0x179b>
    1cba: a9 87        	lda	#$87
    1cbc: 18           	clc
    1cbd: 65 13        	adc	$13                     ; 0x2013 <f256main+0x179c>
    1cbf: aa           	tax
    1cc0: a9 00        	lda	#$0
    1cc2: 65 12        	adc	$12                     ; 0x2012 <f256main+0x179b>
    1cc4: 86 12        	stx	$12                     ; 0x2012 <f256main+0x179b>
    1cc6: 85 13        	sta	$13                     ; 0x2013 <f256main+0x179c>
    1cc8: a0 12        	ldy	#$12
    1cca: b1 12        	lda	($12),y                 ; 0x2012 <f256main+0x179b>
    1ccc: c9 25        	cmp	#$25
    1cce: f0 03        	beq	$1cd3 <f256main+0x145c>
    1cd0: 4c 83 1d     	jmp	$1d83 <f256main+0x150c>
    1cd3: a5 b6        	lda	$b6                     ; 0x20b6 <f256main+0x183f>
    1cd5: 4a           	lsr
    1cd6: 4a           	lsr
    1cd7: 4a           	lsr
    1cd8: 4a           	lsr
    1cd9: ae 57 3a     	ldx	$3a57                   ; 0x3a57 <sliders_labels+0x5f>
    1cdc: 86 24        	stx	$24                     ; 0x2024 <f256main+0x17ad>
    1cde: ac 64 3a     	ldy	$3a64                   ; 0x3a64 <sliders_labels+0x6c>
    1ce1: 85 12        	sta	$12                     ; 0x2012 <f256main+0x179b>
    1ce3: 64 13        	stz	$13                     ; 0x2013 <f256main+0x179c>
    1ce5: a2 00        	ldx	#$0
    1ce7: 98           	tya
    1ce8: 84 25        	sty	$25                     ; 0x2025 <f256main+0x17ae>
    1cea: 20 04 34     	jsr	$3404 <__mulhi3>
    1ced: a4 25        	ldy	$25                     ; 0x2025 <f256main+0x17ae>
    1cef: 84 12        	sty	$12                     ; 0x2012 <f256main+0x179b>
    1cf1: 64 13        	stz	$13                     ; 0x2013 <f256main+0x179c>
    1cf3: 20 04 34     	jsr	$3404 <__mulhi3>
    1cf6: 86 12        	stx	$12                     ; 0x2012 <f256main+0x179b>
    1cf8: a2 01        	ldx	#$1
    1cfa: 86 13        	stx	$13                     ; 0x2013 <f256main+0x179c>
    1cfc: 64 14        	stz	$14                     ; 0x2014 <f256main+0x179d>
    1cfe: a6 25        	ldx	$25                     ; 0x2025 <f256main+0x17ae>
    1d00: 86 15        	stx	$15                     ; 0x2015 <f256main+0x179e>
    1d02: aa           	tax
    1d03: a5 24        	lda	$24                     ; 0x2024 <f256main+0x17ad>
    1d05: 20 0c 29     	jsr	$290c <spriteDefine>
    1d08: ae 57 3a     	ldx	$3a57                   ; 0x3a57 <sliders_labels+0x5f>
    1d0b: 8a           	txa
    1d0c: 0a           	asl
    1d0d: a8           	tay
    1d0e: a9 00        	lda	#$0
    1d10: 2a           	rol
    1d11: 84 12        	sty	$12                     ; 0x2012 <f256main+0x179b>
    1d13: 06 12        	asl	$12                     ; 0x2012 <f256main+0x179b>
    1d15: 2a           	rol
    1d16: 06 12        	asl	$12                     ; 0x2012 <f256main+0x179b>
    1d18: 2a           	rol
    1d19: a8           	tay
    1d1a: 18           	clc
    1d1b: a5 12        	lda	$12                     ; 0x2012 <f256main+0x179b>
    1d1d: 69 00        	adc	#$0
    1d1f: 85 12        	sta	$12                     ; 0x2012 <f256main+0x179b>
    1d21: 98           	tya
    1d22: 69 d9        	adc	#$d9
    1d24: 85 13        	sta	$13                     ; 0x2013 <f256main+0x179c>
    1d26: a9 01        	lda	#$1
    1d28: 15 47        	ora	$47,x                   ; 0x2047 <f256main+0x17d0>
    1d2a: 92 12        	sta	($12)                   ; 0x2012 <f256main+0x179b>
    1d2c: a9 0f        	lda	#$f
    1d2e: 25 b6        	and	$b6                     ; 0x20b6 <f256main+0x183f>
    1d30: ae 6a 3a     	ldx	$3a6a                   ; 0x3a6a <sliders_labels+0x72>
    1d33: 86 24        	stx	$24                     ; 0x2024 <f256main+0x17ad>
    1d35: ac 77 3a     	ldy	$3a77                   ; 0x3a77 <sliders_labels+0x7f>
    1d38: 85 12        	sta	$12                     ; 0x2012 <f256main+0x179b>
    1d3a: 64 13        	stz	$13                     ; 0x2013 <f256main+0x179c>
    1d3c: a2 00        	ldx	#$0
    1d3e: 98           	tya
    1d3f: 84 25        	sty	$25                     ; 0x2025 <f256main+0x17ae>
    1d41: 20 04 34     	jsr	$3404 <__mulhi3>
    1d44: a4 25        	ldy	$25                     ; 0x2025 <f256main+0x17ae>
    1d46: 84 12        	sty	$12                     ; 0x2012 <f256main+0x179b>
    1d48: 64 13        	stz	$13                     ; 0x2013 <f256main+0x179c>
    1d4a: 20 04 34     	jsr	$3404 <__mulhi3>
    1d4d: 86 12        	stx	$12                     ; 0x2012 <f256main+0x179b>
    1d4f: a2 01        	ldx	#$1
    1d51: 86 13        	stx	$13                     ; 0x2013 <f256main+0x179c>
    1d53: 64 14        	stz	$14                     ; 0x2014 <f256main+0x179d>
    1d55: a6 25        	ldx	$25                     ; 0x2025 <f256main+0x17ae>
    1d57: 86 15        	stx	$15                     ; 0x2015 <f256main+0x179e>
    1d59: aa           	tax
    1d5a: a5 24        	lda	$24                     ; 0x2024 <f256main+0x17ad>
    1d5c: 20 0c 29     	jsr	$290c <spriteDefine>
    1d5f: ae 6a 3a     	ldx	$3a6a                   ; 0x3a6a <sliders_labels+0x72>
    1d62: 8a           	txa
    1d63: 0a           	asl
    1d64: a8           	tay
    1d65: a9 00        	lda	#$0
    1d67: 2a           	rol
    1d68: 84 12        	sty	$12                     ; 0x2012 <f256main+0x179b>
    1d6a: 06 12        	asl	$12                     ; 0x2012 <f256main+0x179b>
    1d6c: 2a           	rol
    1d6d: 06 12        	asl	$12                     ; 0x2012 <f256main+0x179b>
    1d6f: 2a           	rol
    1d70: a8           	tay
    1d71: 18           	clc
    1d72: a5 12        	lda	$12                     ; 0x2012 <f256main+0x179b>
    1d74: 69 00        	adc	#$0
    1d76: 85 12        	sta	$12                     ; 0x2012 <f256main+0x179b>
    1d78: 98           	tya
    1d79: 69 d9        	adc	#$d9
    1d7b: 85 13        	sta	$13                     ; 0x2013 <f256main+0x179c>
    1d7d: a9 01        	lda	#$1
    1d7f: 15 47        	ora	$47,x                   ; 0x2047 <f256main+0x17d0>
    1d81: 92 12        	sta	($12)                   ; 0x2012 <f256main+0x179b>
    1d83: a6 42        	ldx	$42                     ; 0x2042 <f256main+0x17cb>
    1d85: a9 01        	lda	#$1
    1d87: 25 42        	and	$42                     ; 0x2042 <f256main+0x17cb>
    1d89: f0 03        	beq	$1d8e <f256main+0x1517>
    1d8b: 4c f0 1f     	jmp	$1ff0 <f256main+0x1779>
    1d8e: a0 02        	ldy	#$2
    1d90: b1 10        	lda	($10),y                 ; 0x2010 <f256main+0x1799>
    1d92: 85 12        	sta	$12                     ; 0x2012 <f256main+0x179b>
    1d94: a5 12        	lda	$12                     ; 0x2012 <f256main+0x179b>
    1d96: f0 03        	beq	$1d9b <f256main+0x1524>
    1d98: 4c 8f 14     	jmp	$148f <f256main+0xc18>
    1d9b: 4c cd 20     	jmp	$20cd <f256main+0x1856>
    1d9e: c9 04        	cmp	#$4
    1da0: f0 03        	beq	$1da5 <f256main+0x152e>
    1da2: 4c 6c 1e     	jmp	$1e6c <f256main+0x15f5>
    1da5: a2 80        	ldx	#$80
    1da7: 8e b1 dd     	stx	$ddb1                   ; 0xddb1 <__heap_start+0xa325>
    1daa: a6 2f        	ldx	$2f                     ; 0x202f <f256main+0x17b8>
    1dac: 8e b1 dd     	stx	$ddb1                   ; 0xddb1 <__heap_start+0xa325>
    1daf: a2 7f        	ldx	#$7f
    1db1: 8e b1 dd     	stx	$ddb1                   ; 0xddb1 <__heap_start+0xa325>
    1db4: a5 14        	lda	$14                     ; 0x2014 <f256main+0x179d>
    1db6: f0 03        	beq	$1dbb <f256main+0x1544>
    1db8: 4c 82 1e     	jmp	$1e82 <f256main+0x160b>
    1dbb: 4c 87 22     	jmp	$2287 <f256main+0x1a10>
    1dbe: a2 90        	ldx	#$90
    1dc0: 8e b1 dd     	stx	$ddb1                   ; 0xddb1 <__heap_start+0xa325>
    1dc3: a6 2f        	ldx	$2f                     ; 0x202f <f256main+0x17b8>
    1dc5: 8e b1 dd     	stx	$ddb1                   ; 0xddb1 <__heap_start+0xa325>
    1dc8: a2 7f        	ldx	#$7f
    1dca: 8e b1 dd     	stx	$ddb1                   ; 0xddb1 <__heap_start+0xa325>
    1dcd: a5 14        	lda	$14                     ; 0x2014 <f256main+0x179d>
    1dcf: d0 19        	bne	$1dea <f256main+0x1573>
    1dd1: 4c eb 1f     	jmp	$1feb <f256main+0x1774>
    1dd4: a5 14        	lda	$14                     ; 0x2014 <f256main+0x179d>
    1dd6: d0 03        	bne	$1ddb <f256main+0x1564>
    1dd8: 4c dc 1f     	jmp	$1fdc <f256main+0x1765>
    1ddb: a2 90        	ldx	#$90
    1ddd: 8e b1 dd     	stx	$ddb1                   ; 0xddb1 <__heap_start+0xa325>
    1de0: a6 2f        	ldx	$2f                     ; 0x202f <f256main+0x17b8>
    1de2: 8e b1 dd     	stx	$ddb1                   ; 0xddb1 <__heap_start+0xa325>
    1de5: a2 7f        	ldx	#$7f
    1de7: 8e b1 dd     	stx	$ddb1                   ; 0xddb1 <__heap_start+0xa325>
    1dea: e6 c6        	inc	$c6                     ; 0x20c6 <f256main+0x184f>
    1dec: 4c 34 15     	jmp	$1534 <f256main+0xcbd>
    1def: a2 00        	ldx	#$0
    1df1: 4c 98 16     	jmp	$1698 <f256main+0xe21>
    1df4: 84 13        	sty	$13                     ; 0x2013 <f256main+0x179c>
    1df6: 4c a4 16     	jmp	$16a4 <f256main+0xe2d>
    1df9: a9 00        	lda	#$0
    1dfb: 4c 3f 16     	jmp	$163f <f256main+0xdc8>
    1dfe: a2 01        	ldx	#$1
    1e00: 5a           	phy
    1e01: 8a           	txa
    1e02: a0 01        	ldy	#$1
    1e04: 91 10        	sta	($10),y                 ; 0x2010 <f256main+0x1799>
    1e06: a5 16        	lda	$16                     ; 0x2016 <f256main+0x179f>
    1e08: 64 12        	stz	$12                     ; 0x2012 <f256main+0x179b>
    1e0a: 48           	pha
    1e0b: a9 00        	lda	#$0
    1e0d: a0 04        	ldy	#$4
    1e0f: 91 10        	sta	($10),y                 ; 0x2010 <f256main+0x1799>
    1e11: 8a           	txa
    1e12: a0 03        	ldy	#$3
    1e14: 91 10        	sta	($10),y                 ; 0x2010 <f256main+0x1799>
    1e16: 68           	pla
    1e17: a0 00        	ldy	#$0
    1e19: 4c 25 16     	jmp	$1625 <f256main+0xdae>
    1e1c: a6 28        	ldx	$28                     ; 0x2028 <f256main+0x17b1>
    1e1e: a5 14        	lda	$14                     ; 0x2014 <f256main+0x179d>
    1e20: 10 03        	bpl	$1e25 <f256main+0x15ae>
    1e22: 4c 72 21     	jmp	$2172 <f256main+0x18fb>
    1e25: 5a           	phy
    1e26: a0 00        	ldy	#$0
    1e28: b1 10        	lda	($10),y                 ; 0x2010 <f256main+0x1799>
    1e2a: 7a           	ply
    1e2b: 29 f0        	and	#$f0
    1e2d: c9 80        	cmp	#$80
    1e2f: f0 07        	beq	$1e38 <f256main+0x15c1>
    1e31: c9 90        	cmp	#$90
    1e33: f0 03        	beq	$1e38 <f256main+0x15c1>
    1e35: 4c 94 22     	jmp	$2294 <f256main+0x1a1d>
    1e38: 64 12        	stz	$12                     ; 0x2012 <f256main+0x179b>
    1e3a: 5a           	phy
    1e3b: a9 00        	lda	#$0
    1e3d: a0 01        	ldy	#$1
    1e3f: 91 10        	sta	($10),y                 ; 0x2010 <f256main+0x1799>
    1e41: a2 01        	ldx	#$1
    1e43: 8a           	txa
    1e44: a0 04        	ldy	#$4
    1e46: 91 10        	sta	($10),y                 ; 0x2010 <f256main+0x1799>
    1e48: 88           	dey
    1e49: 91 10        	sta	($10),y                 ; 0x2010 <f256main+0x1799>
    1e4b: 7a           	ply
    1e4c: a6 28        	ldx	$28                     ; 0x2028 <f256main+0x17b1>
    1e4e: 4c a3 22     	jmp	$22a3 <f256main+0x1a2c>
    1e51: a2 00        	ldx	#$0
    1e53: a4 2f        	ldy	$2f                     ; 0x202f <f256main+0x17b8>
    1e55: 84 12        	sty	$12                     ; 0x2012 <f256main+0x179b>
    1e57: 4c 5c 15     	jmp	$155c <f256main+0xce5>
    1e5a: a2 00        	ldx	#$0
    1e5c: a4 2f        	ldy	$2f                     ; 0x202f <f256main+0x17b8>
    1e5e: 84 12        	sty	$12                     ; 0x2012 <f256main+0x179b>
    1e60: 4c 6d 15     	jmp	$156d <f256main+0xcf6>
    1e63: a2 00        	ldx	#$0
    1e65: a4 2f        	ldy	$2f                     ; 0x202f <f256main+0x17b8>
    1e67: 84 12        	sty	$12                     ; 0x2012 <f256main+0x179b>
    1e69: 4c 7e 15     	jmp	$157e <f256main+0xd07>
    1e6c: a5 14        	lda	$14                     ; 0x2014 <f256main+0x179d>
    1e6e: d0 03        	bne	$1e73 <f256main+0x15fc>
    1e70: 4c 78 22     	jmp	$2278 <f256main+0x1a01>
    1e73: a2 80        	ldx	#$80
    1e75: 8e b1 dd     	stx	$ddb1                   ; 0xddb1 <__heap_start+0xa325>
    1e78: a6 2f        	ldx	$2f                     ; 0x202f <f256main+0x17b8>
    1e7a: 8e b1 dd     	stx	$ddb1                   ; 0xddb1 <__heap_start+0xa325>
    1e7d: a2 7f        	ldx	#$7f
    1e7f: 8e b1 dd     	stx	$ddb1                   ; 0xddb1 <__heap_start+0xa325>
    1e82: a6 c6        	ldx	$c6                     ; 0x20c6 <f256main+0x184f>
    1e84: d0 03        	bne	$1e89 <f256main+0x1612>
    1e86: 4c 1b 16     	jmp	$161b <f256main+0xda4>
    1e89: ca           	dex
    1e8a: 86 c6        	stx	$c6                     ; 0x20c6 <f256main+0x184f>
    1e8c: 4c 1b 16     	jmp	$161b <f256main+0xda4>
    1e8f: a5 2f        	lda	$2f                     ; 0x202f <f256main+0x17b8>
    1e91: 18           	clc
    1e92: 69 05        	adc	#$5
    1e94: a8           	tay
    1e95: a9 00        	lda	#$0
    1e97: 69 00        	adc	#$0
    1e99: 18           	clc
    1e9a: 48           	pha
    1e9b: a5 10        	lda	$10                     ; 0x2010 <f256main+0x1799>
    1e9d: 69 06        	adc	#$6
    1e9f: 85 24        	sta	$24                     ; 0x2024 <f256main+0x17ad>
    1ea1: a5 11        	lda	$11                     ; 0x2011 <f256main+0x179a>
    1ea3: 69 00        	adc	#$0
    1ea5: 85 25        	sta	$25                     ; 0x2025 <f256main+0x17ae>
    1ea7: 68           	pla
    1ea8: a6 24        	ldx	$24                     ; 0x2024 <f256main+0x17ad>
    1eaa: 86 14        	stx	$14                     ; 0x2014 <f256main+0x179d>
    1eac: a6 25        	ldx	$25                     ; 0x2025 <f256main+0x17ae>
    1eae: 86 15        	stx	$15                     ; 0x2015 <f256main+0x179e>
    1eb0: a2 0c        	ldx	#$c
    1eb2: 86 12        	stx	$12                     ; 0x2012 <f256main+0x179b>
    1eb4: 64 13        	stz	$13                     ; 0x2013 <f256main+0x179c>
    1eb6: aa           	tax
    1eb7: 98           	tya
    1eb8: 20 66 35     	jsr	$3566 <__udivmodhi4>
    1ebb: aa           	tax
    1ebc: b2 24        	lda	($24)                   ; 0x2024 <f256main+0x17ad>
    1ebe: 85 12        	sta	$12                     ; 0x2012 <f256main+0x179b>
    1ec0: a0 01        	ldy	#$1
    1ec2: b1 24        	lda	($24),y                 ; 0x2024 <f256main+0x17ad>
    1ec4: 06 12        	asl	$12                     ; 0x2012 <f256main+0x179b>
    1ec6: 2a           	rol
    1ec7: 85 13        	sta	$13                     ; 0x2013 <f256main+0x179c>
    1ec9: a9 ad        	lda	#$ad
    1ecb: 18           	clc
    1ecc: 65 12        	adc	$12                     ; 0x2012 <f256main+0x179b>
    1ece: 85 12        	sta	$12                     ; 0x2012 <f256main+0x179b>
    1ed0: a9 37        	lda	#$37
    1ed2: 65 13        	adc	$13                     ; 0x2013 <f256main+0x179c>
    1ed4: 85 13        	sta	$13                     ; 0x2013 <f256main+0x179c>
    1ed6: b2 12        	lda	($12)                   ; 0x2012 <f256main+0x179b>
    1ed8: 85 16        	sta	$16                     ; 0x2016 <f256main+0x179f>
    1eda: 18           	clc
    1edb: 8a           	txa
    1edc: 69 3e        	adc	#$3e
    1ede: 85 15        	sta	$15                     ; 0x2015 <f256main+0x179e>
    1ee0: a6 2e        	ldx	$2e                     ; 0x202e <f256main+0x17b7>
    1ee2: 86 14        	stx	$14                     ; 0x2014 <f256main+0x179d>
    1ee4: 86 17        	stx	$17                     ; 0x2017 <f256main+0x17a0>
    1ee6: 8a           	txa
    1ee7: 09 a0        	ora	#$a0
    1ee9: aa           	tax
    1eea: b1 12        	lda	($12),y                 ; 0x2012 <f256main+0x179b>
    1eec: 85 12        	sta	$12                     ; 0x2012 <f256main+0x179b>
    1eee: a4 29        	ldy	$29                     ; 0x2029 <f256main+0x17b2>
    1ef0: 8e 80 d5     	stx	$d580                   ; 0xd580 <__heap_start+0x9af4>
    1ef3: a5 16        	lda	$16                     ; 0x2016 <f256main+0x179f>
    1ef5: 8d 81 d5     	sta	$d581                   ; 0xd581 <__heap_start+0x9af5>
    1ef8: a5 14        	lda	$14                     ; 0x2014 <f256main+0x179d>
    1efa: 09 b0        	ora	#$b0
    1efc: 85 13        	sta	$13                     ; 0x2013 <f256main+0x179c>
    1efe: a5 12        	lda	$12                     ; 0x2012 <f256main+0x179b>
    1f00: 29 03        	and	#$3
    1f02: 85 12        	sta	$12                     ; 0x2012 <f256main+0x179b>
    1f04: 06 15        	asl	$15                     ; 0x2015 <f256main+0x179e>
    1f06: a5 13        	lda	$13                     ; 0x2013 <f256main+0x179c>
    1f08: 8d 80 d5     	sta	$d580                   ; 0xd580 <__heap_start+0x9af4>
    1f0b: a5 15        	lda	$15                     ; 0x2015 <f256main+0x179e>
    1f0d: 0a           	asl
    1f0e: 05 12        	ora	$12                     ; 0x2012 <f256main+0x179b>
    1f10: 09 20        	ora	#$20
    1f12: 8d 81 d5     	sta	$d581                   ; 0xd581 <__heap_start+0x9af5>
    1f15: a5 2f        	lda	$2f                     ; 0x202f <f256main+0x17b8>
    1f17: a6 17        	ldx	$17                     ; 0x2017 <f256main+0x17a0>
    1f19: 9d d6 00     	sta	$d6,x                   ; 0xd6 <polyOPL3Buffer>
    1f1c: e6 c9        	inc	$c9                     ; 0x20c9 <f256main+0x1852>
    1f1e: 4c 34 15     	jmp	$1534 <f256main+0xcbd>
    1f21: e0 03        	cpx	#$3
    1f23: a0 d5        	ldy	#$d5
    1f25: b0 02        	bcs	$1f29 <f256main+0x16b2>
    1f27: a0 d4        	ldy	#$d4
    1f29: 84 16        	sty	$16                     ; 0x2016 <f256main+0x179f>
    1f2b: b4 30        	ldy	$30,x                   ; 0x2030 <f256main+0x17b9>
    1f2d: 84 14        	sty	$14                     ; 0x2014 <f256main+0x179d>
    1f2f: a4 2f        	ldy	$2f                     ; 0x202f <f256main+0x17b8>
    1f31: b9 67 38     	lda	$3867,y                 ; 0x3867 <sid_instrument_defs+0x22>
    1f34: 5a           	phy
    1f35: a4 14        	ldy	$14                     ; 0x2014 <f256main+0x179d>
    1f37: 84 12        	sty	$12                     ; 0x2012 <f256main+0x179b>
    1f39: a4 16        	ldy	$16                     ; 0x2016 <f256main+0x179f>
    1f3b: 84 13        	sty	$13                     ; 0x2013 <f256main+0x179c>
    1f3d: 7a           	ply
    1f3e: 92 12        	sta	($12)                   ; 0x2012 <f256main+0x179b>
    1f40: b9 1c 37     	lda	$371c,y                 ; 0x371c <noteColors+0x59>
    1f43: 85 13        	sta	$13                     ; 0x2013 <f256main+0x179c>
    1f45: 84 18        	sty	$18                     ; 0x2018 <f256main+0x17a1>
    1f47: a5 14        	lda	$14                     ; 0x2014 <f256main+0x179d>
    1f49: a4 14        	ldy	$14                     ; 0x2014 <f256main+0x179d>
    1f4b: 85 17        	sta	$17                     ; 0x2017 <f256main+0x17a0>
    1f4d: a5 16        	lda	$16                     ; 0x2016 <f256main+0x179f>
    1f4f: 85 12        	sta	$12                     ; 0x2012 <f256main+0x179b>
    1f51: c8           	iny
    1f52: d0 02        	bne	$1f56 <f256main+0x16df>
    1f54: e6 12        	inc	$12                     ; 0x2012 <f256main+0x179b>
    1f56: 84 14        	sty	$14                     ; 0x2014 <f256main+0x179d>
    1f58: a4 12        	ldy	$12                     ; 0x2012 <f256main+0x179b>
    1f5a: 84 15        	sty	$15                     ; 0x2015 <f256main+0x179e>
    1f5c: a5 13        	lda	$13                     ; 0x2013 <f256main+0x179c>
    1f5e: 92 14        	sta	($14)                   ; 0x2014 <f256main+0x179d>
    1f60: 18           	clc
    1f61: a5 17        	lda	$17                     ; 0x2017 <f256main+0x17a0>
    1f63: 69 04        	adc	#$4
    1f65: 85 12        	sta	$12                     ; 0x2012 <f256main+0x179b>
    1f67: a5 16        	lda	$16                     ; 0x2016 <f256main+0x179f>
    1f69: 69 00        	adc	#$0
    1f6b: 85 13        	sta	$13                     ; 0x2013 <f256main+0x179c>
    1f6d: a5 df        	lda	$df                     ; 0x20df <f256main+0x1868>
    1f6f: a4 e0        	ldy	$e0                     ; 0x20e0 <f256main+0x1869>
    1f71: 85 14        	sta	$14                     ; 0x2014 <f256main+0x179d>
    1f73: 84 15        	sty	$15                     ; 0x2015 <f256main+0x179e>
    1f75: 18           	clc
    1f76: 69 04        	adc	#$4
    1f78: 85 16        	sta	$16                     ; 0x2016 <f256main+0x179f>
    1f7a: 98           	tya
    1f7b: 69 00        	adc	#$0
    1f7d: 85 17        	sta	$17                     ; 0x2017 <f256main+0x17a0>
    1f7f: a0 04        	ldy	#$4
    1f81: b1 14        	lda	($14),y                 ; 0x2014 <f256main+0x179d>
    1f83: 85 14        	sta	$14                     ; 0x2014 <f256main+0x179d>
    1f85: a0 01        	ldy	#$1
    1f87: b1 16        	lda	($16),y                 ; 0x2016 <f256main+0x179f>
    1f89: 85 15        	sta	$15                     ; 0x2015 <f256main+0x179e>
    1f8b: 98           	tya
    1f8c: a0 05        	ldy	#$5
    1f8e: 11 14        	ora	($14),y                 ; 0x2014 <f256main+0x179d>
    1f90: 92 12        	sta	($12)                   ; 0x2012 <f256main+0x179b>
    1f92: a5 18        	lda	$18                     ; 0x2018 <f256main+0x17a1>
    1f94: 9d ca 00     	sta	$ca,x                   ; 0xca <polySIDBuffer>
    1f97: e6 c7        	inc	$c7                     ; 0x20c7 <f256main+0x1850>
    1f99: 4c fb 15     	jmp	$15fb <f256main+0xd84>
    1f9c: b5 36        	lda	$36,x                   ; 0x2036 <f256main+0x17bf>
    1f9e: 85 12        	sta	$12                     ; 0x2012 <f256main+0x179b>
    1fa0: e0 03        	cpx	#$3
    1fa2: 09 90        	ora	#$90
    1fa4: 85 13        	sta	$13                     ; 0x2013 <f256main+0x179c>
    1fa6: a0 10        	ldy	#$10
    1fa8: 84 14        	sty	$14                     ; 0x2014 <f256main+0x179d>
    1faa: a0 d6        	ldy	#$d6
    1fac: 84 15        	sty	$15                     ; 0x2015 <f256main+0x179e>
    1fae: b0 08        	bcs	$1fb8 <f256main+0x1741>
    1fb0: a0 00        	ldy	#$0
    1fb2: 84 14        	sty	$14                     ; 0x2014 <f256main+0x179d>
    1fb4: a0 d6        	ldy	#$d6
    1fb6: 84 15        	sty	$15                     ; 0x2015 <f256main+0x179e>
    1fb8: a4 2f        	ldy	$2f                     ; 0x202f <f256main+0x17b8>
    1fba: b9 98 37     	lda	$3798,y                 ; 0x3798 <sidHigh+0x71>
    1fbd: 85 17        	sta	$17                     ; 0x2017 <f256main+0x17a0>
    1fbf: b9 d8 37     	lda	$37d8,y                 ; 0x37d8 <psgLow+0x13>
    1fc2: 85 16        	sta	$16                     ; 0x2016 <f256main+0x179f>
    1fc4: a5 13        	lda	$13                     ; 0x2013 <f256main+0x179c>
    1fc6: 92 14        	sta	($14)                   ; 0x2014 <f256main+0x179d>
    1fc8: a5 17        	lda	$17                     ; 0x2017 <f256main+0x17a0>
    1fca: 05 12        	ora	$12                     ; 0x2012 <f256main+0x179b>
    1fcc: 92 14        	sta	($14)                   ; 0x2014 <f256main+0x179d>
    1fce: a5 16        	lda	$16                     ; 0x2016 <f256main+0x179f>
    1fd0: 92 14        	sta	($14)                   ; 0x2014 <f256main+0x179d>
    1fd2: a5 2f        	lda	$2f                     ; 0x202f <f256main+0x17b8>
    1fd4: 9d d0 00     	sta	$d0,x                   ; 0xd0 <polyPSGBuffer>
    1fd7: e6 c8        	inc	$c8                     ; 0x20c8 <f256main+0x1851>
    1fd9: 4c fb 15     	jmp	$15fb <f256main+0xd84>
    1fdc: a2 90        	ldx	#$90
    1fde: 8e a1 dd     	stx	$dda1                   ; 0xdda1 <__heap_start+0xa315>
    1fe1: a6 2f        	ldx	$2f                     ; 0x202f <f256main+0x17b8>
    1fe3: 8e a1 dd     	stx	$dda1                   ; 0xdda1 <__heap_start+0xa315>
    1fe6: a2 7f        	ldx	#$7f
    1fe8: 8e a1 dd     	stx	$dda1                   ; 0xdda1 <__heap_start+0xa315>
    1feb: e6 c5        	inc	$c5                     ; 0x20c5 <f256main+0x184e>
    1fed: 4c 34 15     	jmp	$1534 <f256main+0xcbd>
    1ff0: a0 02        	ldy	#$2
    1ff2: b1 10        	lda	($10),y                 ; 0x2010 <f256main+0x1799>
    1ff4: 85 12        	sta	$12                     ; 0x2012 <f256main+0x179b>
    1ff6: a5 12        	lda	$12                     ; 0x2012 <f256main+0x179b>
    1ff8: d0 03        	bne	$1ffd <f256main+0x1786>
    1ffa: 4c cd 20     	jmp	$20cd <f256main+0x1856>
    1ffd: a5 c1        	lda	$c1                     ; 0x20c1 <f256main+0x184a>
    1fff: a6 c2        	ldx	$c2                     ; 0x20c2 <f256main+0x184b>
    2001: 86 12        	stx	$12                     ; 0x2012 <f256main+0x179b>
    2003: e0 80        	cpx	#$80
    2005: 66 12        	ror	$12                     ; 0x2012 <f256main+0x179b>
    2007: 6a           	ror
    2008: 18           	clc
    2009: 69 20        	adc	#$20
    200b: a8           	tay
    200c: a5 12        	lda	$12                     ; 0x2012 <f256main+0x179b>
    200e: 69 00        	adc	#$0
    2010: 85 27        	sta	$27                     ; 0x2027 <f256main+0x17b0>
    2012: a6 c3        	ldx	$c3                     ; 0x20c3 <f256main+0x184c>
    2014: 86 12        	stx	$12                     ; 0x2012 <f256main+0x179b>
    2016: a5 c4        	lda	$c4                     ; 0x20c4 <f256main+0x184d>
    2018: c9 80        	cmp	#$80
    201a: 6a           	ror
    201b: aa           	tax
    201c: a5 12        	lda	$12                     ; 0x2012 <f256main+0x179b>
    201e: 6a           	ror
    201f: 18           	clc
    2020: 69 20        	adc	#$20
    2022: 85 28        	sta	$28                     ; 0x2028 <f256main+0x17b1>
    2024: 8a           	txa
    2025: 69 00        	adc	#$0
    2027: 85 29        	sta	$29                     ; 0x2029 <f256main+0x17b2>
    2029: a2 e0        	ldx	#$e0
    202b: 86 24        	stx	$24                     ; 0x2024 <f256main+0x17ad>
    202d: a2 38        	ldx	#$38
    202f: 86 25        	stx	$25                     ; 0x2025 <f256main+0x17ae>
    2031: a2 08        	ldx	#$8
    2033: a5 24        	lda	$24                     ; 0x2024 <f256main+0x17ad>
    2035: 85 14        	sta	$14                     ; 0x2014 <f256main+0x179d>
    2037: a5 25        	lda	$25                     ; 0x2025 <f256main+0x17ae>
    2039: 85 15        	sta	$15                     ; 0x2015 <f256main+0x179e>
    203b: a5 28        	lda	$28                     ; 0x2028 <f256main+0x17b1>
    203d: 85 12        	sta	$12                     ; 0x2012 <f256main+0x179b>
    203f: a5 29        	lda	$29                     ; 0x2029 <f256main+0x17b2>
    2041: 85 13        	sta	$13                     ; 0x2013 <f256main+0x179c>
    2043: 86 2a        	stx	$2a                     ; 0x202a <f256main+0x17b3>
    2045: a6 27        	ldx	$27                     ; 0x2027 <f256main+0x17b0>
    2047: 84 26        	sty	$26                     ; 0x2026 <f256main+0x17af>
    2049: 98           	tya
    204a: 20 37 23     	jsr	$2337 <checkUIEClick>
    204d: a6 2a        	ldx	$2a                     ; 0x202a <f256main+0x17b3>
    204f: a5 24        	lda	$24                     ; 0x2024 <f256main+0x17ad>
    2051: 18           	clc
    2052: 69 15        	adc	#$15
    2054: 85 24        	sta	$24                     ; 0x2024 <f256main+0x17ad>
    2056: a5 25        	lda	$25                     ; 0x2025 <f256main+0x17ae>
    2058: 69 00        	adc	#$0
    205a: a4 26        	ldy	$26                     ; 0x2026 <f256main+0x17af>
    205c: 85 25        	sta	$25                     ; 0x2025 <f256main+0x17ae>
    205e: ca           	dex
    205f: d0 d2        	bne	$2033 <f256main+0x17bc>
    2061: a2 88        	ldx	#$88
    2063: 86 24        	stx	$24                     ; 0x2024 <f256main+0x17ad>
    2065: a2 39        	ldx	#$39
    2067: 86 25        	stx	$25                     ; 0x2025 <f256main+0x17ae>
    2069: a2 04        	ldx	#$4
    206b: a4 24        	ldy	$24                     ; 0x2024 <f256main+0x17ad>
    206d: 84 14        	sty	$14                     ; 0x2014 <f256main+0x179d>
    206f: a4 25        	ldy	$25                     ; 0x2025 <f256main+0x17ae>
    2071: 84 15        	sty	$15                     ; 0x2015 <f256main+0x179e>
    2073: a4 28        	ldy	$28                     ; 0x2028 <f256main+0x17b1>
    2075: 84 12        	sty	$12                     ; 0x2012 <f256main+0x179b>
    2077: a4 29        	ldy	$29                     ; 0x2029 <f256main+0x17b2>
    2079: 84 13        	sty	$13                     ; 0x2013 <f256main+0x179c>
    207b: 86 2a        	stx	$2a                     ; 0x202a <f256main+0x17b3>
    207d: a6 27        	ldx	$27                     ; 0x2027 <f256main+0x17b0>
    207f: a5 26        	lda	$26                     ; 0x2026 <f256main+0x17af>
    2081: 20 37 23     	jsr	$2337 <checkUIEClick>
    2084: a6 2a        	ldx	$2a                     ; 0x202a <f256main+0x17b3>
    2086: a5 24        	lda	$24                     ; 0x2024 <f256main+0x17ad>
    2088: 18           	clc
    2089: 69 1c        	adc	#$1c
    208b: 85 24        	sta	$24                     ; 0x2024 <f256main+0x17ad>
    208d: a5 25        	lda	$25                     ; 0x2025 <f256main+0x17ae>
    208f: 69 00        	adc	#$0
    2091: 85 25        	sta	$25                     ; 0x2025 <f256main+0x17ae>
    2093: ca           	dex
    2094: d0 d5        	bne	$206b <f256main+0x17f4>
    2096: a2 87        	ldx	#$87
    2098: 86 24        	stx	$24                     ; 0x2024 <f256main+0x17ad>
    209a: a2 00        	ldx	#$0
    209c: 86 25        	stx	$25                     ; 0x2025 <f256main+0x17ae>
    209e: a2 04        	ldx	#$4
    20a0: a4 24        	ldy	$24                     ; 0x2024 <f256main+0x17ad>
    20a2: 84 14        	sty	$14                     ; 0x2014 <f256main+0x179d>
    20a4: a4 25        	ldy	$25                     ; 0x2025 <f256main+0x17ae>
    20a6: 84 15        	sty	$15                     ; 0x2015 <f256main+0x179e>
    20a8: a4 28        	ldy	$28                     ; 0x2028 <f256main+0x17b1>
    20aa: 84 12        	sty	$12                     ; 0x2012 <f256main+0x179b>
    20ac: a4 29        	ldy	$29                     ; 0x2029 <f256main+0x17b2>
    20ae: 84 13        	sty	$13                     ; 0x2013 <f256main+0x179c>
    20b0: 86 2a        	stx	$2a                     ; 0x202a <f256main+0x17b3>
    20b2: a6 27        	ldx	$27                     ; 0x2027 <f256main+0x17b0>
    20b4: a5 26        	lda	$26                     ; 0x2026 <f256main+0x17af>
    20b6: 20 37 23     	jsr	$2337 <checkUIEClick>
    20b9: a6 2a        	ldx	$2a                     ; 0x202a <f256main+0x17b3>
    20bb: a5 24        	lda	$24                     ; 0x2024 <f256main+0x17ad>
    20bd: 18           	clc
    20be: 69 1c        	adc	#$1c
    20c0: 85 24        	sta	$24                     ; 0x2024 <f256main+0x17ad>
    20c2: a5 25        	lda	$25                     ; 0x2025 <f256main+0x17ae>
    20c4: 69 00        	adc	#$0
    20c6: 85 25        	sta	$25                     ; 0x2025 <f256main+0x17ae>
    20c8: ca           	dex
    20c9: d0 d5        	bne	$20a0 <f256main+0x1829>
    20cb: a6 42        	ldx	$42                     ; 0x2042 <f256main+0x17cb>
    20cd: 8a           	txa
    20ce: 29 01        	and	#$1
    20d0: a2 01        	ldx	#$1
    20d2: a8           	tay
    20d3: f0 02        	beq	$20d7 <f256main+0x1860>
    20d5: a2 00        	ldx	#$0
    20d7: 8a           	txa
    20d8: a0 02        	ldy	#$2
    20da: 91 10        	sta	($10),y                 ; 0x2010 <f256main+0x1799>
    20dc: 8a           	txa
    20dd: d0 03        	bne	$20e2 <f256main+0x186b>
    20df: 4c 8f 14     	jmp	$148f <f256main+0xc18>
    20e2: a5 c0        	lda	$c0                     ; 0x20c0 <f256main+0x1849>
    20e4: c9 ff        	cmp	#$ff
    20e6: f0 3f        	beq	$2127 <f256main+0x18b0>
    20e8: 0a           	asl
    20e9: 64 12        	stz	$12                     ; 0x2012 <f256main+0x179b>
    20eb: 26 12        	rol	$12                     ; 0x2012 <f256main+0x179b>
    20ed: 0a           	asl
    20ee: 85 13        	sta	$13                     ; 0x2013 <f256main+0x179c>
    20f0: 26 12        	rol	$12                     ; 0x2012 <f256main+0x179b>
    20f2: 0a           	asl
    20f3: a6 12        	ldx	$12                     ; 0x2012 <f256main+0x179b>
    20f5: 86 14        	stx	$14                     ; 0x2014 <f256main+0x179d>
    20f7: 26 14        	rol	$14                     ; 0x2014 <f256main+0x179d>
    20f9: 0a           	asl
    20fa: 26 14        	rol	$14                     ; 0x2014 <f256main+0x179d>
    20fc: 0a           	asl
    20fd: 26 14        	rol	$14                     ; 0x2014 <f256main+0x179d>
    20ff: 38           	sec
    2100: e5 13        	sbc	$13                     ; 0x2013 <f256main+0x179c>
    2102: 85 13        	sta	$13                     ; 0x2013 <f256main+0x179c>
    2104: a5 14        	lda	$14                     ; 0x2014 <f256main+0x179d>
    2106: e5 12        	sbc	$12                     ; 0x2012 <f256main+0x179b>
    2108: 85 12        	sta	$12                     ; 0x2012 <f256main+0x179b>
    210a: a9 88        	lda	#$88
    210c: 18           	clc
    210d: 65 13        	adc	$13                     ; 0x2013 <f256main+0x179c>
    210f: aa           	tax
    2110: a9 39        	lda	#$39
    2112: 65 12        	adc	$12                     ; 0x2012 <f256main+0x179b>
    2114: 86 12        	stx	$12                     ; 0x2012 <f256main+0x179b>
    2116: 85 13        	sta	$13                     ; 0x2013 <f256main+0x179c>
    2118: a9 00        	lda	#$0
    211a: a0 06        	ldy	#$6
    211c: 91 12        	sta	($12),y                 ; 0x2012 <f256main+0x179b>
    211e: a2 ff        	ldx	#$ff
    2120: 86 c0        	stx	$c0                     ; 0x20c0 <f256main+0x1849>
    2122: a2 01        	ldx	#$1
    2124: 8e e0 d6     	stx	$d6e0                   ; 0xd6e0 <__heap_start+0x9c54>
    2127: a5 bf        	lda	$bf                     ; 0x20bf <f256main+0x1848>
    2129: c9 ff        	cmp	#$ff
    212b: d0 03        	bne	$2130 <f256main+0x18b9>
    212d: 4c 8f 14     	jmp	$148f <f256main+0xc18>
    2130: 0a           	asl
    2131: 64 12        	stz	$12                     ; 0x2012 <f256main+0x179b>
    2133: 26 12        	rol	$12                     ; 0x2012 <f256main+0x179b>
    2135: 0a           	asl
    2136: 85 13        	sta	$13                     ; 0x2013 <f256main+0x179c>
    2138: 26 12        	rol	$12                     ; 0x2012 <f256main+0x179b>
    213a: 0a           	asl
    213b: a6 12        	ldx	$12                     ; 0x2012 <f256main+0x179b>
    213d: 86 14        	stx	$14                     ; 0x2014 <f256main+0x179d>
    213f: 26 14        	rol	$14                     ; 0x2014 <f256main+0x179d>
    2141: 0a           	asl
    2142: 26 14        	rol	$14                     ; 0x2014 <f256main+0x179d>
    2144: 0a           	asl
    2145: 26 14        	rol	$14                     ; 0x2014 <f256main+0x179d>
    2147: 38           	sec
    2148: e5 13        	sbc	$13                     ; 0x2013 <f256main+0x179c>
    214a: 85 13        	sta	$13                     ; 0x2013 <f256main+0x179c>
    214c: a5 14        	lda	$14                     ; 0x2014 <f256main+0x179d>
    214e: e5 12        	sbc	$12                     ; 0x2012 <f256main+0x179b>
    2150: 85 12        	sta	$12                     ; 0x2012 <f256main+0x179b>
    2152: a9 87        	lda	#$87
    2154: 18           	clc
    2155: 65 13        	adc	$13                     ; 0x2013 <f256main+0x179c>
    2157: aa           	tax
    2158: a9 00        	lda	#$0
    215a: 65 12        	adc	$12                     ; 0x2012 <f256main+0x179b>
    215c: 86 12        	stx	$12                     ; 0x2012 <f256main+0x179b>
    215e: 85 13        	sta	$13                     ; 0x2013 <f256main+0x179c>
    2160: a9 00        	lda	#$0
    2162: a0 06        	ldy	#$6
    2164: 91 12        	sta	($12),y                 ; 0x2012 <f256main+0x179b>
    2166: a2 ff        	ldx	#$ff
    2168: 86 bf        	stx	$bf                     ; 0x20bf <f256main+0x1848>
    216a: a2 01        	ldx	#$1
    216c: 8e e0 d6     	stx	$d6e0                   ; 0xd6e0 <__heap_start+0x9c54>
    216f: 4c 8f 14     	jmp	$148f <f256main+0xc18>
    2172: 64 12        	stz	$12                     ; 0x2012 <f256main+0x179b>
    2174: 5a           	phy
    2175: a9 00        	lda	#$0
    2177: a0 01        	ldy	#$1
    2179: 91 10        	sta	($10),y                 ; 0x2010 <f256main+0x1799>
    217b: a0 04        	ldy	#$4
    217d: 91 10        	sta	($10),y                 ; 0x2010 <f256main+0x1799>
    217f: 7a           	ply
    2180: 4c 2a 16     	jmp	$162a <f256main+0xdb3>
    2183: 64 12        	stz	$12                     ; 0x2012 <f256main+0x179b>
    2185: e0 03        	cpx	#$3
    2187: b0 03        	bcs	$218c <f256main+0x1915>
    2189: 4c aa 22     	jmp	$22aa <f256main+0x1a33>
    218c: a0 d5        	ldy	#$d5
    218e: 86 13        	stx	$13                     ; 0x2013 <f256main+0x179c>
    2190: 4c ae 22     	jmp	$22ae <f256main+0x1a37>
    2193: 64 12        	stz	$12                     ; 0x2012 <f256main+0x179b>
    2195: 74 d0        	stz	$d0,x                   ; 0x20d0 <f256main+0x1859>
    2197: b5 36        	lda	$36,x                   ; 0x2036 <f256main+0x17bf>
    2199: e0 03        	cpx	#$3
    219b: a4 29        	ldy	$29                     ; 0x2029 <f256main+0x17b2>
    219d: b0 03        	bcs	$21a2 <f256main+0x192b>
    219f: 4c 63 22     	jmp	$2263 <f256main+0x19ec>
    21a2: a2 10        	ldx	#$10
    21a4: 86 12        	stx	$12                     ; 0x2012 <f256main+0x179b>
    21a6: 4c 63 22     	jmp	$2263 <f256main+0x19ec>
    21a9: a2 ff        	ldx	#$ff
    21ab: 86 2e        	stx	$2e                     ; 0x202e <f256main+0x17b7>
    21ad: a5 2f        	lda	$2f                     ; 0x202f <f256main+0x17b8>
    21af: 18           	clc
    21b0: 69 05        	adc	#$5
    21b2: a8           	tay
    21b3: a9 00        	lda	#$0
    21b5: 69 00        	adc	#$0
    21b7: 18           	clc
    21b8: 48           	pha
    21b9: a5 10        	lda	$10                     ; 0x2010 <f256main+0x1799>
    21bb: 69 08        	adc	#$8
    21bd: 85 24        	sta	$24                     ; 0x2024 <f256main+0x17ad>
    21bf: a5 11        	lda	$11                     ; 0x2011 <f256main+0x179a>
    21c1: 69 00        	adc	#$0
    21c3: 85 25        	sta	$25                     ; 0x2025 <f256main+0x17ae>
    21c5: 68           	pla
    21c6: a6 24        	ldx	$24                     ; 0x2024 <f256main+0x17ad>
    21c8: 86 14        	stx	$14                     ; 0x2014 <f256main+0x179d>
    21ca: a6 25        	ldx	$25                     ; 0x2025 <f256main+0x17ae>
    21cc: 86 15        	stx	$15                     ; 0x2015 <f256main+0x179e>
    21ce: a2 0c        	ldx	#$c
    21d0: 86 12        	stx	$12                     ; 0x2012 <f256main+0x179b>
    21d2: 64 13        	stz	$13                     ; 0x2013 <f256main+0x179c>
    21d4: aa           	tax
    21d5: 98           	tya
    21d6: 20 66 35     	jsr	$3566 <__udivmodhi4>
    21d9: aa           	tax
    21da: b2 24        	lda	($24)                   ; 0x2024 <f256main+0x17ad>
    21dc: 85 12        	sta	$12                     ; 0x2012 <f256main+0x179b>
    21de: a0 01        	ldy	#$1
    21e0: b1 24        	lda	($24),y                 ; 0x2024 <f256main+0x17ad>
    21e2: 06 12        	asl	$12                     ; 0x2012 <f256main+0x179b>
    21e4: 2a           	rol
    21e5: 85 13        	sta	$13                     ; 0x2013 <f256main+0x179c>
    21e7: a9 ad        	lda	#$ad
    21e9: 18           	clc
    21ea: 65 12        	adc	$12                     ; 0x2012 <f256main+0x179b>
    21ec: 85 12        	sta	$12                     ; 0x2012 <f256main+0x179b>
    21ee: a9 37        	lda	#$37
    21f0: 65 13        	adc	$13                     ; 0x2013 <f256main+0x179c>
    21f2: 85 13        	sta	$13                     ; 0x2013 <f256main+0x179c>
    21f4: b2 12        	lda	($12)                   ; 0x2012 <f256main+0x179b>
    21f6: 85 14        	sta	$14                     ; 0x2014 <f256main+0x179d>
    21f8: b1 12        	lda	($12),y                 ; 0x2012 <f256main+0x179b>
    21fa: 85 12        	sta	$12                     ; 0x2012 <f256main+0x179b>
    21fc: 18           	clc
    21fd: 8a           	txa
    21fe: 69 3e        	adc	#$3e
    2200: aa           	tax
    2201: a5 2e        	lda	$2e                     ; 0x202e <f256main+0x17b7>
    2203: 09 a0        	ora	#$a0
    2205: 8d 80 d5     	sta	$d580                   ; 0xd580 <__heap_start+0x9af4>
    2208: a5 14        	lda	$14                     ; 0x2014 <f256main+0x179d>
    220a: 8d 81 d5     	sta	$d581                   ; 0xd581 <__heap_start+0x9af5>
    220d: a5 2e        	lda	$2e                     ; 0x202e <f256main+0x17b7>
    220f: 09 b0        	ora	#$b0
    2211: 85 13        	sta	$13                     ; 0x2013 <f256main+0x179c>
    2213: a5 12        	lda	$12                     ; 0x2012 <f256main+0x179b>
    2215: 29 03        	and	#$3
    2217: 85 12        	sta	$12                     ; 0x2012 <f256main+0x179b>
    2219: 8a           	txa
    221a: 0a           	asl
    221b: a6 13        	ldx	$13                     ; 0x2013 <f256main+0x179c>
    221d: 8e 80 d5     	stx	$d580                   ; 0xd580 <__heap_start+0x9af4>
    2220: 0a           	asl
    2221: 05 12        	ora	$12                     ; 0x2012 <f256main+0x179b>
    2223: 8d 81 d5     	sta	$d581                   ; 0xd581 <__heap_start+0x9af5>
    2226: a5 2e        	lda	$2e                     ; 0x202e <f256main+0x17b7>
    2228: 10 06        	bpl	$2230 <f256main+0x19b9>
    222a: a2 ff        	ldx	#$ff
    222c: 86 12        	stx	$12                     ; 0x2012 <f256main+0x179b>
    222e: 80 02        	bra	$2232 <f256main+0x19bb>
    2230: 64 12        	stz	$12                     ; 0x2012 <f256main+0x179b>
    2232: a4 29        	ldy	$29                     ; 0x2029 <f256main+0x17b2>
    2234: a9 d6        	lda	#$d6
    2236: 18           	clc
    2237: 65 2e        	adc	$2e                     ; 0x202e <f256main+0x17b7>
    2239: aa           	tax
    223a: a9 00        	lda	#$0
    223c: 65 12        	adc	$12                     ; 0x2012 <f256main+0x179b>
    223e: 86 12        	stx	$12                     ; 0x2012 <f256main+0x179b>
    2240: 85 13        	sta	$13                     ; 0x2013 <f256main+0x179c>
    2242: a9 00        	lda	#$0
    2244: 92 12        	sta	($12)                   ; 0x2012 <f256main+0x179b>
    2246: a6 c9        	ldx	$c9                     ; 0x20c9 <f256main+0x1852>
    2248: d0 03        	bne	$224d <f256main+0x19d6>
    224a: 4c 1b 16     	jmp	$161b <f256main+0xda4>
    224d: ca           	dex
    224e: 86 c9        	stx	$c9                     ; 0x20c9 <f256main+0x1852>
    2250: 4c 1b 16     	jmp	$161b <f256main+0xda4>
    2253: a0 d4        	ldy	#$d4
    2255: a2 ff        	ldx	#$ff
    2257: 86 13        	stx	$13                     ; 0x2013 <f256main+0x179c>
    2259: 86 12        	stx	$12                     ; 0x2012 <f256main+0x179b>
    225b: 80 51        	bra	$22ae <f256main+0x1a37>
    225d: 64 12        	stz	$12                     ; 0x2012 <f256main+0x179b>
    225f: 64 cf        	stz	$cf                     ; 0x20cf <f256main+0x1858>
    2261: a4 29        	ldy	$29                     ; 0x2029 <f256main+0x17b2>
    2263: a2 d6        	ldx	#$d6
    2265: 86 13        	stx	$13                     ; 0x2013 <f256main+0x179c>
    2267: 09 9f        	ora	#$9f
    2269: 92 12        	sta	($12)                   ; 0x2012 <f256main+0x179b>
    226b: a6 c8        	ldx	$c8                     ; 0x20c8 <f256main+0x1851>
    226d: d0 03        	bne	$2272 <f256main+0x19fb>
    226f: 4c 1b 16     	jmp	$161b <f256main+0xda4>
    2272: ca           	dex
    2273: 86 c8        	stx	$c8                     ; 0x20c8 <f256main+0x1851>
    2275: 4c 1b 16     	jmp	$161b <f256main+0xda4>
    2278: a2 80        	ldx	#$80
    227a: 8e a1 dd     	stx	$dda1                   ; 0xdda1 <__heap_start+0xa315>
    227d: a6 2f        	ldx	$2f                     ; 0x202f <f256main+0x17b8>
    227f: 8e a1 dd     	stx	$dda1                   ; 0xdda1 <__heap_start+0xa315>
    2282: a2 7f        	ldx	#$7f
    2284: 8e a1 dd     	stx	$dda1                   ; 0xdda1 <__heap_start+0xa315>
    2287: a6 c5        	ldx	$c5                     ; 0x20c5 <f256main+0x184e>
    2289: d0 03        	bne	$228e <f256main+0x1a17>
    228b: 4c 1b 16     	jmp	$161b <f256main+0xda4>
    228e: ca           	dex
    228f: 86 c5        	stx	$c5                     ; 0x20c5 <f256main+0x184e>
    2291: 4c 1b 16     	jmp	$161b <f256main+0xda4>
    2294: 64 12        	stz	$12                     ; 0x2012 <f256main+0x179b>
    2296: 5a           	phy
    2297: a9 00        	lda	#$0
    2299: a0 01        	ldy	#$1
    229b: 91 10        	sta	($10),y                 ; 0x2010 <f256main+0x1799>
    229d: 98           	tya
    229e: a0 04        	ldy	#$4
    22a0: 91 10        	sta	($10),y                 ; 0x2010 <f256main+0x1799>
    22a2: 7a           	ply
    22a3: a5 16        	lda	$16                     ; 0x2016 <f256main+0x179f>
    22a5: 85 2f        	sta	$2f                     ; 0x202f <f256main+0x17b8>
    22a7: 4c 2a 16     	jmp	$162a <f256main+0xdb3>
    22aa: 86 13        	stx	$13                     ; 0x2013 <f256main+0x179c>
    22ac: a0 d4        	ldy	#$d4
    22ae: a9 30        	lda	#$30
    22b0: 18           	clc
    22b1: 65 13        	adc	$13                     ; 0x2013 <f256main+0x179c>
    22b3: 85 14        	sta	$14                     ; 0x2014 <f256main+0x179d>
    22b5: a9 00        	lda	#$0
    22b7: 65 12        	adc	$12                     ; 0x2012 <f256main+0x179b>
    22b9: 85 15        	sta	$15                     ; 0x2015 <f256main+0x179e>
    22bb: b2 14        	lda	($14)                   ; 0x2014 <f256main+0x179d>
    22bd: 85 14        	sta	$14                     ; 0x2014 <f256main+0x179d>
    22bf: a9 ca        	lda	#$ca
    22c1: 18           	clc
    22c2: 65 13        	adc	$13                     ; 0x2013 <f256main+0x179c>
    22c4: aa           	tax
    22c5: a9 00        	lda	#$0
    22c7: 65 12        	adc	$12                     ; 0x2012 <f256main+0x179b>
    22c9: 86 12        	stx	$12                     ; 0x2012 <f256main+0x179b>
    22cb: 85 13        	sta	$13                     ; 0x2013 <f256main+0x179c>
    22cd: a9 00        	lda	#$0
    22cf: 92 12        	sta	($12)                   ; 0x2012 <f256main+0x179b>
    22d1: a6 2f        	ldx	$2f                     ; 0x202f <f256main+0x17b8>
    22d3: bd 67 38     	lda	$3867,x                 ; 0x3867 <sid_instrument_defs+0x22>
    22d6: 5a           	phy
    22d7: a4 14        	ldy	$14                     ; 0x2014 <f256main+0x179d>
    22d9: 84 12        	sty	$12                     ; 0x2012 <f256main+0x179b>
    22db: 7a           	ply
    22dc: 84 13        	sty	$13                     ; 0x2013 <f256main+0x179c>
    22de: 92 12        	sta	($12)                   ; 0x2012 <f256main+0x179b>
    22e0: bd 1c 37     	lda	$371c,x                 ; 0x371c <noteColors+0x59>
    22e3: aa           	tax
    22e4: 86 16        	stx	$16                     ; 0x2016 <f256main+0x179f>
    22e6: a6 14        	ldx	$14                     ; 0x2014 <f256main+0x179d>
    22e8: 84 15        	sty	$15                     ; 0x2015 <f256main+0x179e>
    22ea: e8           	inx
    22eb: d0 01        	bne	$22ee <f256main+0x1a77>
    22ed: c8           	iny
    22ee: 86 12        	stx	$12                     ; 0x2012 <f256main+0x179b>
    22f0: 84 13        	sty	$13                     ; 0x2013 <f256main+0x179c>
    22f2: a5 16        	lda	$16                     ; 0x2016 <f256main+0x179f>
    22f4: 92 12        	sta	($12)                   ; 0x2012 <f256main+0x179b>
    22f6: 18           	clc
    22f7: a5 14        	lda	$14                     ; 0x2014 <f256main+0x179d>
    22f9: 69 04        	adc	#$4
    22fb: 85 12        	sta	$12                     ; 0x2012 <f256main+0x179b>
    22fd: a5 15        	lda	$15                     ; 0x2015 <f256main+0x179e>
    22ff: 69 00        	adc	#$0
    2301: 85 13        	sta	$13                     ; 0x2013 <f256main+0x179c>
    2303: a5 df        	lda	$df                     ; 0x20df <f256main+0x1868>
    2305: a6 e0        	ldx	$e0                     ; 0x20e0 <f256main+0x1869>
    2307: 85 14        	sta	$14                     ; 0x2014 <f256main+0x179d>
    2309: 86 15        	stx	$15                     ; 0x2015 <f256main+0x179e>
    230b: 18           	clc
    230c: 69 04        	adc	#$4
    230e: 85 16        	sta	$16                     ; 0x2016 <f256main+0x179f>
    2310: 8a           	txa
    2311: 69 00        	adc	#$0
    2313: 85 17        	sta	$17                     ; 0x2017 <f256main+0x17a0>
    2315: a0 04        	ldy	#$4
    2317: b1 14        	lda	($14),y                 ; 0x2014 <f256main+0x179d>
    2319: 85 14        	sta	$14                     ; 0x2014 <f256main+0x179d>
    231b: a0 01        	ldy	#$1
    231d: b1 16        	lda	($16),y                 ; 0x2016 <f256main+0x179f>
    231f: 85 15        	sta	$15                     ; 0x2015 <f256main+0x179e>
    2321: a9 fe        	lda	#$fe
    2323: a0 05        	ldy	#$5
    2325: 31 14        	and	($14),y                 ; 0x2014 <f256main+0x179d>
    2327: 92 12        	sta	($12)                   ; 0x2012 <f256main+0x179b>
    2329: a6 c7        	ldx	$c7                     ; 0x20c7 <f256main+0x1850>
    232b: f0 03        	beq	$2330 <f256main+0x1ab9>
    232d: ca           	dex
    232e: 86 c7        	stx	$c7                     ; 0x20c7 <f256main+0x1850>
    2330: 64 12        	stz	$12                     ; 0x2012 <f256main+0x179b>
    2332: a9 00        	lda	#$0
    2334: 4c f1 15     	jmp	$15f1 <f256main+0xd7a>

00002337 <checkUIEClick>:
    2337: 85 16        	sta	$16                     ; 0x2016 <f256main+0x179f>
    2339: 86 17        	stx	$17                     ; 0x2017 <f256main+0x17a0>
    233b: a6 14        	ldx	$14                     ; 0x2014 <f256main+0x179d>
    233d: 86 18        	stx	$18                     ; 0x2018 <f256main+0x17a1>
    233f: a6 15        	ldx	$15                     ; 0x2015 <f256main+0x179e>
    2341: 86 19        	stx	$19                     ; 0x2019 <f256main+0x17a2>
    2343: e6 18        	inc	$18                     ; 0x2018 <f256main+0x17a1>
    2345: d0 02        	bne	$2349 <checkUIEClick+0x12>
    2347: e6 19        	inc	$19                     ; 0x2019 <f256main+0x17a2>
    2349: a0 01        	ldy	#$1
    234b: b1 14        	lda	($14),y                 ; 0x2014 <f256main+0x179d>
    234d: 85 1a        	sta	$1a                     ; 0x201a <f256main+0x17a3>
    234f: b1 18        	lda	($18),y                 ; 0x2018 <f256main+0x17a1>
    2351: aa           	tax
    2352: a0 0e        	ldy	#$e
    2354: 18           	clc
    2355: a5 1a        	lda	$1a                     ; 0x201a <f256main+0x17a3>
    2357: 85 19        	sta	$19                     ; 0x2019 <f256main+0x17a2>
    2359: 71 14        	adc	($14),y                 ; 0x2014 <f256main+0x179d>
    235b: a8           	tay
    235c: 8a           	txa
    235d: 86 1a        	stx	$1a                     ; 0x201a <f256main+0x17a3>
    235f: 69 00        	adc	#$0
    2361: 85 18        	sta	$18                     ; 0x2018 <f256main+0x17a1>
    2363: a6 17        	ldx	$17                     ; 0x2017 <f256main+0x17a0>
    2365: e4 18        	cpx	$18                     ; 0x2018 <f256main+0x17a1>
    2367: d0 06        	bne	$236f <checkUIEClick+0x38>
    2369: 84 18        	sty	$18                     ; 0x2018 <f256main+0x17a1>
    236b: a6 16        	ldx	$16                     ; 0x2016 <f256main+0x179f>
    236d: 80 02        	bra	$2371 <checkUIEClick+0x3a>
    236f: a6 17        	ldx	$17                     ; 0x2017 <f256main+0x17a0>
    2371: e4 18        	cpx	$18                     ; 0x2018 <f256main+0x17a1>
    2373: b0 01        	bcs	$2376 <checkUIEClick+0x3f>
    2375: 60           	rts
    2376: a0 0f        	ldy	#$f
    2378: 18           	clc
    2379: a5 19        	lda	$19                     ; 0x2019 <f256main+0x17a2>
    237b: 71 14        	adc	($14),y                 ; 0x2014 <f256main+0x179d>
    237d: aa           	tax
    237e: a5 1a        	lda	$1a                     ; 0x201a <f256main+0x17a3>
    2380: 69 00        	adc	#$0
    2382: c5 17        	cmp	$17                     ; 0x2017 <f256main+0x17a0>
    2384: d0 06        	bne	$238c <checkUIEClick+0x55>
    2386: e4 16        	cpx	$16                     ; 0x2016 <f256main+0x179f>
    2388: 90 eb        	bcc	$2375 <checkUIEClick+0x3e>
    238a: 80 04        	bra	$2390 <checkUIEClick+0x59>
    238c: c5 17        	cmp	$17                     ; 0x2017 <f256main+0x17a0>
    238e: 90 e5        	bcc	$2375 <checkUIEClick+0x3e>
    2390: a0 03        	ldy	#$3
    2392: a5 14        	lda	$14                     ; 0x2014 <f256main+0x179d>
    2394: 18           	clc
    2395: 69 03        	adc	#$3
    2397: 85 16        	sta	$16                     ; 0x2016 <f256main+0x179f>
    2399: a5 15        	lda	$15                     ; 0x2015 <f256main+0x179e>
    239b: 69 00        	adc	#$0
    239d: 85 17        	sta	$17                     ; 0x2017 <f256main+0x17a0>
    239f: b1 14        	lda	($14),y                 ; 0x2014 <f256main+0x179d>
    23a1: 85 18        	sta	$18                     ; 0x2018 <f256main+0x17a1>
    23a3: a0 01        	ldy	#$1
    23a5: b1 16        	lda	($16),y                 ; 0x2016 <f256main+0x179f>
    23a7: aa           	tax
    23a8: a0 10        	ldy	#$10
    23aa: a5 18        	lda	$18                     ; 0x2018 <f256main+0x17a1>
    23ac: 85 17        	sta	$17                     ; 0x2017 <f256main+0x17a0>
    23ae: 18           	clc
    23af: 71 14        	adc	($14),y                 ; 0x2014 <f256main+0x179d>
    23b1: a8           	tay
    23b2: 8a           	txa
    23b3: 86 18        	stx	$18                     ; 0x2018 <f256main+0x17a1>
    23b5: 69 00        	adc	#$0
    23b7: 85 16        	sta	$16                     ; 0x2016 <f256main+0x179f>
    23b9: a6 13        	ldx	$13                     ; 0x2013 <f256main+0x179c>
    23bb: e4 16        	cpx	$16                     ; 0x2016 <f256main+0x179f>
    23bd: d0 06        	bne	$23c5 <checkUIEClick+0x8e>
    23bf: 84 16        	sty	$16                     ; 0x2016 <f256main+0x179f>
    23c1: a6 12        	ldx	$12                     ; 0x2012 <f256main+0x179b>
    23c3: 80 02        	bra	$23c7 <checkUIEClick+0x90>
    23c5: a6 13        	ldx	$13                     ; 0x2013 <f256main+0x179c>
    23c7: e4 16        	cpx	$16                     ; 0x2016 <f256main+0x179f>
    23c9: b0 03        	bcs	$23ce <checkUIEClick+0x97>
    23cb: 4c 75 23     	jmp	$2375 <checkUIEClick+0x3e>
    23ce: a0 11        	ldy	#$11
    23d0: 18           	clc
    23d1: a5 17        	lda	$17                     ; 0x2017 <f256main+0x17a0>
    23d3: 71 14        	adc	($14),y                 ; 0x2014 <f256main+0x179d>
    23d5: aa           	tax
    23d6: a5 18        	lda	$18                     ; 0x2018 <f256main+0x17a1>
    23d8: 69 00        	adc	#$0
    23da: c5 13        	cmp	$13                     ; 0x2013 <f256main+0x179c>
    23dc: d0 07        	bne	$23e5 <checkUIEClick+0xae>
    23de: e4 12        	cpx	$12                     ; 0x2012 <f256main+0x179b>
    23e0: b0 0a        	bcs	$23ec <checkUIEClick+0xb5>
    23e2: 4c 75 23     	jmp	$2375 <checkUIEClick+0x3e>
    23e5: c5 13        	cmp	$13                     ; 0x2013 <f256main+0x179c>
    23e7: b0 03        	bcs	$23ec <checkUIEClick+0xb5>
    23e9: 4c 75 23     	jmp	$2375 <checkUIEClick+0x3e>
    23ec: a0 12        	ldy	#$12
    23ee: b1 14        	lda	($14),y                 ; 0x2014 <f256main+0x179d>
    23f0: 18           	clc
    23f1: 85 e5        	sta	$e5                     ; 0x20e5 <f256main+0x186e>
    23f3: 69 e8        	adc	#$e8
    23f5: 85 e3        	sta	$e3                     ; 0x20e3 <f256main+0x186c>
    23f7: c9 0e        	cmp	#$e
    23f9: a6 14        	ldx	$14                     ; 0x2014 <f256main+0x179d>
    23fb: 86 12        	stx	$12                     ; 0x2012 <f256main+0x179b>
    23fd: a6 15        	ldx	$15                     ; 0x2015 <f256main+0x179e>
    23ff: 86 13        	stx	$13                     ; 0x2013 <f256main+0x179c>
    2401: a6 12        	ldx	$12                     ; 0x2012 <f256main+0x179b>
    2403: 86 e1        	stx	$e1                     ; 0x20e1 <f256main+0x186a>
    2405: a6 13        	ldx	$13                     ; 0x2013 <f256main+0x179c>
    2407: 86 e2        	stx	$e2                     ; 0x20e2 <f256main+0x186b>
    2409: 90 03        	bcc	$240e <checkUIEClick+0xd7>
    240b: 4c 76 24     	jmp	$2476 <checkUIEClick+0x13f>
    240e: a9 01        	lda	#$1
    2410: a2 00        	ldx	#$0
    2412: a4 e3        	ldy	$e3                     ; 0x20e3 <f256main+0x186c>
    2414: 84 12        	sty	$12                     ; 0x2012 <f256main+0x179b>
    2416: 20 f1 33     	jsr	$33f1 <__ashlhi3>
    2419: a6 e1        	ldx	$e1                     ; 0x20e1 <f256main+0x186a>
    241b: 86 14        	stx	$14                     ; 0x2014 <f256main+0x179d>
    241d: a6 e2        	ldx	$e2                     ; 0x20e2 <f256main+0x186b>
    241f: 86 15        	stx	$15                     ; 0x2015 <f256main+0x179e>
    2421: 29 0f        	and	#$f
    2423: f0 03        	beq	$2428 <checkUIEClick+0xf1>
    2425: 4c 7f 24     	jmp	$247f <checkUIEClick+0x148>
    2428: a9 01        	lda	#$1
    242a: a2 00        	ldx	#$0
    242c: a4 e3        	ldy	$e3                     ; 0x20e3 <f256main+0x186c>
    242e: 84 12        	sty	$12                     ; 0x2012 <f256main+0x179b>
    2430: 20 f1 33     	jsr	$33f1 <__ashlhi3>
    2433: 29 f0        	and	#$f0
    2435: f0 16        	beq	$244d <checkUIEClick+0x116>
    2437: a0 06        	ldy	#$6
    2439: a6 e1        	ldx	$e1                     ; 0x20e1 <f256main+0x186a>
    243b: 86 12        	stx	$12                     ; 0x2012 <f256main+0x179b>
    243d: a6 e2        	ldx	$e2                     ; 0x20e2 <f256main+0x186b>
    243f: 86 13        	stx	$13                     ; 0x2013 <f256main+0x179c>
    2441: a9 01        	lda	#$1
    2443: 91 12        	sta	($12),y                 ; 0x2012 <f256main+0x179b>
    2445: a0 0c        	ldy	#$c
    2447: b1 12        	lda	($12),y                 ; 0x2012 <f256main+0x179b>
    2449: 85 c0        	sta	$c0                     ; 0x20c0 <f256main+0x1849>
    244b: 80 25        	bra	$2472 <checkUIEClick+0x13b>
    244d: a9 01        	lda	#$1
    244f: a2 00        	ldx	#$0
    2451: a4 e3        	ldy	$e3                     ; 0x20e3 <f256main+0x186c>
    2453: 84 12        	sty	$12                     ; 0x2012 <f256main+0x179b>
    2455: 20 f1 33     	jsr	$33f1 <__ashlhi3>
    2458: 8a           	txa
    2459: 29 30        	and	#$30
    245b: a6 e1        	ldx	$e1                     ; 0x20e1 <f256main+0x186a>
    245d: 86 14        	stx	$14                     ; 0x2014 <f256main+0x179d>
    245f: a6 e2        	ldx	$e2                     ; 0x20e2 <f256main+0x186b>
    2461: 86 15        	stx	$15                     ; 0x2015 <f256main+0x179e>
    2463: aa           	tax
    2464: f0 10        	beq	$2476 <checkUIEClick+0x13f>
    2466: a0 06        	ldy	#$6
    2468: a9 01        	lda	#$1
    246a: 91 14        	sta	($14),y                 ; 0x2014 <f256main+0x179d>
    246c: a0 0c        	ldy	#$c
    246e: b1 14        	lda	($14),y                 ; 0x2014 <f256main+0x179d>
    2470: 85 bf        	sta	$bf                     ; 0x20bf <f256main+0x1848>
    2472: 9c e0 d6     	stz	$d6e0                   ; 0xd6e0 <__heap_start+0x9c54>
    2475: 60           	rts
    2476: a6 e5        	ldx	$e5                     ; 0x20e5 <f256main+0x186e>
    2478: e0 04        	cpx	#$4
    247a: 90 03        	bcc	$247f <checkUIEClick+0x148>
    247c: 4c 75 23     	jmp	$2375 <checkUIEClick+0x3e>
    247f: a0 06        	ldy	#$6
    2481: b1 14        	lda	($14),y                 ; 0x2014 <f256main+0x179d>
    2483: a2 01        	ldx	#$1
    2485: c9 00        	cmp	#$0
    2487: f0 02        	beq	$248b <checkUIEClick+0x154>
    2489: a2 00        	ldx	#$0
    248b: 8a           	txa
    248c: f0 04        	beq	$2492 <checkUIEClick+0x15b>
    248e: a9 01        	lda	#$1
    2490: 80 02        	bra	$2494 <checkUIEClick+0x15d>
    2492: a9 00        	lda	#$0
    2494: 91 14        	sta	($14),y                 ; 0x2014 <f256main+0x179d>
    2496: a0 0c        	ldy	#$c
    2498: b1 14        	lda	($14),y                 ; 0x2014 <f256main+0x179d>
    249a: a2 15        	ldx	#$15
    249c: 86 12        	stx	$12                     ; 0x2012 <f256main+0x179b>
    249e: 64 13        	stz	$13                     ; 0x2013 <f256main+0x179c>
    24a0: a2 00        	ldx	#$0
    24a2: 20 04 34     	jsr	$3404 <__mulhi3>
    24a5: 85 12        	sta	$12                     ; 0x2012 <f256main+0x179b>
    24a7: 86 13        	stx	$13                     ; 0x2013 <f256main+0x179c>
    24a9: a9 e0        	lda	#$e0
    24ab: 18           	clc
    24ac: 65 12        	adc	$12                     ; 0x2012 <f256main+0x179b>
    24ae: 85 12        	sta	$12                     ; 0x2012 <f256main+0x179b>
    24b0: a9 38        	lda	#$38
    24b2: 65 13        	adc	$13                     ; 0x2013 <f256main+0x179c>
    24b4: 85 13        	sta	$13                     ; 0x2013 <f256main+0x179c>
    24b6: 20 6f 2a     	jsr	$2a6f <updateRadioB>
    24b9: a6 e1        	ldx	$e1                     ; 0x20e1 <f256main+0x186a>
    24bb: 86 12        	stx	$12                     ; 0x2012 <f256main+0x179b>
    24bd: a6 e2        	ldx	$e2                     ; 0x20e2 <f256main+0x186b>
    24bf: 86 13        	stx	$13                     ; 0x2013 <f256main+0x179c>
    24c1: a0 06        	ldy	#$6
    24c3: b1 12        	lda	($12),y                 ; 0x2012 <f256main+0x179b>
    24c5: d0 03        	bne	$24ca <checkUIEClick+0x193>
    24c7: 4c b4 25     	jmp	$25b4 <checkUIEClick+0x27d>
    24ca: a0 0c        	ldy	#$c
    24cc: b1 12        	lda	($12),y                 ; 0x2012 <f256main+0x179b>
    24ce: a2 15        	ldx	#$15
    24d0: 86 12        	stx	$12                     ; 0x2012 <f256main+0x179b>
    24d2: 64 13        	stz	$13                     ; 0x2013 <f256main+0x179c>
    24d4: a2 00        	ldx	#$0
    24d6: 20 04 34     	jsr	$3404 <__mulhi3>
    24d9: a4 e1        	ldy	$e1                     ; 0x20e1 <f256main+0x186a>
    24db: 84 12        	sty	$12                     ; 0x2012 <f256main+0x179b>
    24dd: a4 e2        	ldy	$e2                     ; 0x20e2 <f256main+0x186b>
    24df: 84 13        	sty	$13                     ; 0x2013 <f256main+0x179c>
    24e1: 85 14        	sta	$14                     ; 0x2014 <f256main+0x179d>
    24e3: 86 15        	stx	$15                     ; 0x2015 <f256main+0x179e>
    24e5: a9 e0        	lda	#$e0
    24e7: 18           	clc
    24e8: 65 14        	adc	$14                     ; 0x2014 <f256main+0x179d>
    24ea: 85 14        	sta	$14                     ; 0x2014 <f256main+0x179d>
    24ec: a9 38        	lda	#$38
    24ee: 65 15        	adc	$15                     ; 0x2015 <f256main+0x179e>
    24f0: 85 15        	sta	$15                     ; 0x2015 <f256main+0x179e>
    24f2: a0 13        	ldy	#$13
    24f4: b1 14        	lda	($14),y                 ; 0x2014 <f256main+0x179d>
    24f6: d0 03        	bne	$24fb <checkUIEClick+0x1c4>
    24f8: 4c b4 25     	jmp	$25b4 <checkUIEClick+0x27d>
    24fb: a2 e0        	ldx	#$e0
    24fd: 86 14        	stx	$14                     ; 0x2014 <f256main+0x179d>
    24ff: a2 38        	ldx	#$38
    2501: 86 15        	stx	$15                     ; 0x2015 <f256main+0x179e>
    2503: a2 00        	ldx	#$0
    2505: 80 3c        	bra	$2543 <checkUIEClick+0x20c>
    2507: a9 00        	lda	#$0
    2509: 91 14        	sta	($14),y                 ; 0x2014 <f256main+0x179d>
    250b: a6 e3        	ldx	$e3                     ; 0x20e3 <f256main+0x186c>
    250d: 86 12        	stx	$12                     ; 0x2012 <f256main+0x179b>
    250f: a6 e4        	ldx	$e4                     ; 0x20e4 <f256main+0x186d>
    2511: 86 13        	stx	$13                     ; 0x2013 <f256main+0x179c>
    2513: 20 6f 2a     	jsr	$2a6f <updateRadioB>
    2516: a6 e3        	ldx	$e3                     ; 0x20e3 <f256main+0x186c>
    2518: 86 12        	stx	$12                     ; 0x2012 <f256main+0x179b>
    251a: a6 e4        	ldx	$e4                     ; 0x20e4 <f256main+0x186d>
    251c: 86 13        	stx	$13                     ; 0x2013 <f256main+0x179c>
    251e: a4 12        	ldy	$12                     ; 0x2012 <f256main+0x179b>
    2520: 84 14        	sty	$14                     ; 0x2014 <f256main+0x179d>
    2522: 86 15        	stx	$15                     ; 0x2015 <f256main+0x179e>
    2524: a6 e1        	ldx	$e1                     ; 0x20e1 <f256main+0x186a>
    2526: 86 12        	stx	$12                     ; 0x2012 <f256main+0x179b>
    2528: a6 e2        	ldx	$e2                     ; 0x20e2 <f256main+0x186b>
    252a: 86 13        	stx	$13                     ; 0x2013 <f256main+0x179c>
    252c: a6 e5        	ldx	$e5                     ; 0x20e5 <f256main+0x186e>
    252e: e8           	inx
    252f: a5 14        	lda	$14                     ; 0x2014 <f256main+0x179d>
    2531: 18           	clc
    2532: 69 15        	adc	#$15
    2534: 85 14        	sta	$14                     ; 0x2014 <f256main+0x179d>
    2536: a5 15        	lda	$15                     ; 0x2015 <f256main+0x179e>
    2538: 69 00        	adc	#$0
    253a: 85 15        	sta	$15                     ; 0x2015 <f256main+0x179e>
    253c: e0 08        	cpx	#$8
    253e: d0 03        	bne	$2543 <checkUIEClick+0x20c>
    2540: 4c b4 25     	jmp	$25b4 <checkUIEClick+0x27d>
    2543: a0 0c        	ldy	#$c
    2545: b1 12        	lda	($12),y                 ; 0x2012 <f256main+0x179b>
    2547: 85 16        	sta	$16                     ; 0x2016 <f256main+0x179f>
    2549: e4 16        	cpx	$16                     ; 0x2016 <f256main+0x179f>
    254b: f0 e1        	beq	$252e <checkUIEClick+0x1f7>
    254d: a0 13        	ldy	#$13
    254f: b1 14        	lda	($14),y                 ; 0x2014 <f256main+0x179d>
    2551: f0 db        	beq	$252e <checkUIEClick+0x1f7>
    2553: a4 14        	ldy	$14                     ; 0x2014 <f256main+0x179d>
    2555: 84 12        	sty	$12                     ; 0x2012 <f256main+0x179b>
    2557: a4 15        	ldy	$15                     ; 0x2015 <f256main+0x179e>
    2559: 84 13        	sty	$13                     ; 0x2013 <f256main+0x179c>
    255b: 86 e5        	stx	$e5                     ; 0x20e5 <f256main+0x186e>
    255d: a6 12        	ldx	$12                     ; 0x2012 <f256main+0x179b>
    255f: 86 e3        	stx	$e3                     ; 0x20e3 <f256main+0x186c>
    2561: a6 13        	ldx	$13                     ; 0x2013 <f256main+0x179c>
    2563: 86 e4        	stx	$e4                     ; 0x20e4 <f256main+0x186d>
    2565: a2 15        	ldx	#$15
    2567: 86 12        	stx	$12                     ; 0x2012 <f256main+0x179b>
    2569: 64 13        	stz	$13                     ; 0x2013 <f256main+0x179c>
    256b: a2 00        	ldx	#$0
    256d: a5 16        	lda	$16                     ; 0x2016 <f256main+0x179f>
    256f: 20 04 34     	jsr	$3404 <__mulhi3>
    2572: a4 e3        	ldy	$e3                     ; 0x20e3 <f256main+0x186c>
    2574: 84 12        	sty	$12                     ; 0x2012 <f256main+0x179b>
    2576: a4 e4        	ldy	$e4                     ; 0x20e4 <f256main+0x186d>
    2578: 84 13        	sty	$13                     ; 0x2013 <f256main+0x179c>
    257a: 48           	pha
    257b: a5 12        	lda	$12                     ; 0x2012 <f256main+0x179b>
    257d: 85 14        	sta	$14                     ; 0x2014 <f256main+0x179d>
    257f: 68           	pla
    2580: 84 15        	sty	$15                     ; 0x2015 <f256main+0x179e>
    2582: a4 e1        	ldy	$e1                     ; 0x20e1 <f256main+0x186a>
    2584: 84 12        	sty	$12                     ; 0x2012 <f256main+0x179b>
    2586: a4 e2        	ldy	$e2                     ; 0x20e2 <f256main+0x186b>
    2588: 84 13        	sty	$13                     ; 0x2013 <f256main+0x179c>
    258a: 85 16        	sta	$16                     ; 0x2016 <f256main+0x179f>
    258c: 86 17        	stx	$17                     ; 0x2017 <f256main+0x17a0>
    258e: a6 e5        	ldx	$e5                     ; 0x20e5 <f256main+0x186e>
    2590: a9 e0        	lda	#$e0
    2592: 18           	clc
    2593: 65 16        	adc	$16                     ; 0x2016 <f256main+0x179f>
    2595: 85 16        	sta	$16                     ; 0x2016 <f256main+0x179f>
    2597: a9 38        	lda	#$38
    2599: 65 17        	adc	$17                     ; 0x2017 <f256main+0x17a0>
    259b: 85 17        	sta	$17                     ; 0x2017 <f256main+0x17a0>
    259d: a0 14        	ldy	#$14
    259f: b1 16        	lda	($16),y                 ; 0x2016 <f256main+0x179f>
    25a1: d1 14        	cmp	($14),y                 ; 0x2014 <f256main+0x179d>
    25a3: f0 03        	beq	$25a8 <checkUIEClick+0x271>
    25a5: 4c 2e 25     	jmp	$252e <checkUIEClick+0x1f7>
    25a8: a0 06        	ldy	#$6
    25aa: b1 14        	lda	($14),y                 ; 0x2014 <f256main+0x179d>
    25ac: f0 03        	beq	$25b1 <checkUIEClick+0x27a>
    25ae: 4c 07 25     	jmp	$2507 <checkUIEClick+0x1d0>
    25b1: 4c 2e 25     	jmp	$252e <checkUIEClick+0x1f7>
    25b4: a0 12        	ldy	#$12
    25b6: b1 12        	lda	($12),y                 ; 0x2012 <f256main+0x179b>
    25b8: c9 04        	cmp	#$4
    25ba: b0 0d        	bcs	$25c9 <checkUIEClick+0x292>
    25bc: a6 df        	ldx	$df                     ; 0x20df <f256main+0x1868>
    25be: a4 e0        	ldy	$e0                     ; 0x20e0 <f256main+0x1869>
    25c0: 86 12        	stx	$12                     ; 0x2012 <f256main+0x179b>
    25c2: 84 13        	sty	$13                     ; 0x2013 <f256main+0x179c>
    25c4: a0 03        	ldy	#$3
    25c6: 91 12        	sta	($12),y                 ; 0x2012 <f256main+0x179b>
    25c8: 60           	rts
    25c9: 18           	clc
    25ca: 69 e8        	adc	#$e8
    25cc: c9 04        	cmp	#$4
    25ce: 90 03        	bcc	$25d3 <checkUIEClick+0x29c>
    25d0: 4c 75 23     	jmp	$2375 <checkUIEClick+0x3e>
    25d3: aa           	tax
    25d4: a5 df        	lda	$df                     ; 0x20df <f256main+0x1868>
    25d6: a4 e0        	ldy	$e0                     ; 0x20e0 <f256main+0x1869>
    25d8: 84 14        	sty	$14                     ; 0x2014 <f256main+0x179d>
    25da: 85 12        	sta	$12                     ; 0x2012 <f256main+0x179b>
    25dc: 84 13        	sty	$13                     ; 0x2013 <f256main+0x179c>
    25de: a0 04        	ldy	#$4
    25e0: 18           	clc
    25e1: 69 04        	adc	#$4
    25e3: 85 16        	sta	$16                     ; 0x2016 <f256main+0x179f>
    25e5: a5 14        	lda	$14                     ; 0x2014 <f256main+0x179d>
    25e7: 69 00        	adc	#$0
    25e9: 5a           	phy
    25ea: a4 16        	ldy	$16                     ; 0x2016 <f256main+0x179f>
    25ec: 84 14        	sty	$14                     ; 0x2014 <f256main+0x179d>
    25ee: 7a           	ply
    25ef: 85 15        	sta	$15                     ; 0x2015 <f256main+0x179e>
    25f1: b1 12        	lda	($12),y                 ; 0x2012 <f256main+0x179b>
    25f3: 85 12        	sta	$12                     ; 0x2012 <f256main+0x179b>
    25f5: a0 01        	ldy	#$1
    25f7: b1 14        	lda	($14),y                 ; 0x2014 <f256main+0x179d>
    25f9: 85 13        	sta	$13                     ; 0x2013 <f256main+0x179c>
    25fb: a9 0f        	lda	#$f
    25fd: a0 05        	ldy	#$5
    25ff: 31 12        	and	($12),y                 ; 0x2012 <f256main+0x179b>
    2601: 1d a9 37     	ora	$37a9,x                 ; 0x37a9 <sidHigh+0x82>
    2604: 91 12        	sta	($12),y                 ; 0x2012 <f256main+0x179b>
    2606: a2 82        	ldx	#$82
    2608: a0 3a        	ldy	#$3a
    260a: 86 12        	stx	$12                     ; 0x2012 <f256main+0x179b>
    260c: 84 13        	sty	$13                     ; 0x2013 <f256main+0x179c>
    260e: a2 00        	ldx	#$0
    2610: 86 e3        	stx	$e3                     ; 0x20e3 <f256main+0x186c>
    2612: a5 df        	lda	$df                     ; 0x20df <f256main+0x1868>
    2614: a6 e0        	ldx	$e0                     ; 0x20e0 <f256main+0x1869>
    2616: 85 14        	sta	$14                     ; 0x2014 <f256main+0x179d>
    2618: 86 15        	stx	$15                     ; 0x2015 <f256main+0x179e>
    261a: 18           	clc
    261b: 69 04        	adc	#$4
    261d: 85 16        	sta	$16                     ; 0x2016 <f256main+0x179f>
    261f: 8a           	txa
    2620: 69 00        	adc	#$0
    2622: 85 17        	sta	$17                     ; 0x2017 <f256main+0x17a0>
    2624: a0 04        	ldy	#$4
    2626: b1 14        	lda	($14),y                 ; 0x2014 <f256main+0x179d>
    2628: 85 14        	sta	$14                     ; 0x2014 <f256main+0x179d>
    262a: a0 01        	ldy	#$1
    262c: b1 16        	lda	($16),y                 ; 0x2016 <f256main+0x179f>
    262e: 85 15        	sta	$15                     ; 0x2015 <f256main+0x179e>
    2630: a6 12        	ldx	$12                     ; 0x2012 <f256main+0x179b>
    2632: 86 16        	stx	$16                     ; 0x2016 <f256main+0x179f>
    2634: a6 13        	ldx	$13                     ; 0x2013 <f256main+0x179c>
    2636: 86 17        	stx	$17                     ; 0x2017 <f256main+0x17a0>
    2638: a6 12        	ldx	$12                     ; 0x2012 <f256main+0x179b>
    263a: 86 18        	stx	$18                     ; 0x2018 <f256main+0x17a1>
    263c: a6 13        	ldx	$13                     ; 0x2013 <f256main+0x179c>
    263e: 86 19        	stx	$19                     ; 0x2019 <f256main+0x17a2>
    2640: a6 18        	ldx	$18                     ; 0x2018 <f256main+0x17a1>
    2642: 86 e1        	stx	$e1                     ; 0x20e1 <f256main+0x186a>
    2644: a6 19        	ldx	$19                     ; 0x2019 <f256main+0x17a2>
    2646: 86 e2        	stx	$e2                     ; 0x20e2 <f256main+0x186b>
    2648: a6 16        	ldx	$16                     ; 0x2016 <f256main+0x179f>
    264a: 86 e1        	stx	$e1                     ; 0x20e1 <f256main+0x186a>
    264c: a6 17        	ldx	$17                     ; 0x2017 <f256main+0x17a0>
    264e: 86 e2        	stx	$e2                     ; 0x20e2 <f256main+0x186b>
    2650: a2 00        	ldx	#$0
    2652: a9 09        	lda	#$9
    2654: 20 a5 33     	jsr	$33a5 <memcpy>
    2657: a6 e1        	ldx	$e1                     ; 0x20e1 <f256main+0x186a>
    2659: 86 12        	stx	$12                     ; 0x2012 <f256main+0x179b>
    265b: a6 e2        	ldx	$e2                     ; 0x20e2 <f256main+0x186b>
    265d: 86 13        	stx	$13                     ; 0x2013 <f256main+0x179c>
    265f: a6 e3        	ldx	$e3                     ; 0x20e3 <f256main+0x186c>
    2661: 86 e3        	stx	$e3                     ; 0x20e3 <f256main+0x186c>
    2663: a9 00        	lda	#$0
    2665: 20 62 30     	jsr	$3062 <sid_setInstrument>
    2668: a5 df        	lda	$df                     ; 0x20df <f256main+0x1868>
    266a: a6 e0        	ldx	$e0                     ; 0x20e0 <f256main+0x1869>
    266c: 85 12        	sta	$12                     ; 0x2012 <f256main+0x179b>
    266e: 86 13        	stx	$13                     ; 0x2013 <f256main+0x179c>
    2670: 18           	clc
    2671: 69 04        	adc	#$4
    2673: 85 14        	sta	$14                     ; 0x2014 <f256main+0x179d>
    2675: 8a           	txa
    2676: 69 00        	adc	#$0
    2678: 85 15        	sta	$15                     ; 0x2015 <f256main+0x179e>
    267a: a0 04        	ldy	#$4
    267c: b1 12        	lda	($12),y                 ; 0x2012 <f256main+0x179b>
    267e: aa           	tax
    267f: a0 01        	ldy	#$1
    2681: b1 14        	lda	($14),y                 ; 0x2014 <f256main+0x179d>
    2683: 86 14        	stx	$14                     ; 0x2014 <f256main+0x179d>
    2685: 85 15        	sta	$15                     ; 0x2015 <f256main+0x179e>
    2687: a6 e1        	ldx	$e1                     ; 0x20e1 <f256main+0x186a>
    2689: 86 12        	stx	$12                     ; 0x2012 <f256main+0x179b>
    268b: a6 e2        	ldx	$e2                     ; 0x20e2 <f256main+0x186b>
    268d: 86 13        	stx	$13                     ; 0x2013 <f256main+0x179c>
    268f: a2 00        	ldx	#$0
    2691: a9 09        	lda	#$9
    2693: 20 a5 33     	jsr	$33a5 <memcpy>
    2696: a6 e1        	ldx	$e1                     ; 0x20e1 <f256main+0x186a>
    2698: 86 12        	stx	$12                     ; 0x2012 <f256main+0x179b>
    269a: a6 e2        	ldx	$e2                     ; 0x20e2 <f256main+0x186b>
    269c: 86 13        	stx	$13                     ; 0x2013 <f256main+0x179c>
    269e: a4 12        	ldy	$12                     ; 0x2012 <f256main+0x179b>
    26a0: 84 14        	sty	$14                     ; 0x2014 <f256main+0x179d>
    26a2: 86 15        	stx	$15                     ; 0x2015 <f256main+0x179e>
    26a4: a6 14        	ldx	$14                     ; 0x2014 <f256main+0x179d>
    26a6: 86 e1        	stx	$e1                     ; 0x20e1 <f256main+0x186a>
    26a8: a6 15        	ldx	$15                     ; 0x2015 <f256main+0x179e>
    26aa: 86 e2        	stx	$e2                     ; 0x20e2 <f256main+0x186b>
    26ac: a6 e3        	ldx	$e3                     ; 0x20e3 <f256main+0x186c>
    26ae: a9 01        	lda	#$1
    26b0: 20 62 30     	jsr	$3062 <sid_setInstrument>
    26b3: a6 e1        	ldx	$e1                     ; 0x20e1 <f256main+0x186a>
    26b5: 86 12        	stx	$12                     ; 0x2012 <f256main+0x179b>
    26b7: a6 e2        	ldx	$e2                     ; 0x20e2 <f256main+0x186b>
    26b9: 86 13        	stx	$13                     ; 0x2013 <f256main+0x179c>
    26bb: a5 e3        	lda	$e3                     ; 0x20e3 <f256main+0x186c>
    26bd: 1a           	inc
    26be: 85 e3        	sta	$e3                     ; 0x20e3 <f256main+0x186c>
    26c0: c9 03        	cmp	#$3
    26c2: f0 03        	beq	$26c7 <checkUIEClick+0x390>
    26c4: 4c 12 26     	jmp	$2612 <checkUIEClick+0x2db>
    26c7: 4c 75 23     	jmp	$2375 <checkUIEClick+0x3e>

000026ca <textPrint>:
    26ca: a6 01        	ldx	$1                      ; 0x2001 <f256main+0x178a>
    26cc: 86 e1        	stx	$e1                     ; 0x20e1 <f256main+0x186a>
    26ce: a6 44        	ldx	$44                     ; 0x2044 <f256main+0x17cd>
    26d0: a0 50        	ldy	#$50
    26d2: 8c 00 de     	sty	$de00                   ; 0xde00 <__heap_start+0xa374>
    26d5: 9c 01 de     	stz	$de01                   ; 0xde01 <__heap_start+0xa375>
    26d8: 8e 02 de     	stx	$de02                   ; 0xde02 <__heap_start+0xa376>
    26db: 9c 03 de     	stz	$de03                   ; 0xde03 <__heap_start+0xa377>
    26de: ae 10 de     	ldx	$de10                   ; 0xde10 <__heap_start+0xa384>
    26e1: ac 11 de     	ldy	$de11                   ; 0xde11 <__heap_start+0xa385>
    26e4: 84 15        	sty	$15                     ; 0x2015 <f256main+0x179e>
    26e6: ad 12 de     	lda	$de12                   ; 0xde12 <__heap_start+0xa386>
    26e9: ac 13 de     	ldy	$de13                   ; 0xde13 <__heap_start+0xa387>
    26ec: 84 1c        	sty	$1c                     ; 0x201c <f256main+0x17a5>
    26ee: 9c 08 de     	stz	$de08                   ; 0xde08 <__heap_start+0xa37c>
    26f1: a0 c0        	ldy	#$c0
    26f3: 8c 09 de     	sty	$de09                   ; 0xde09 <__heap_start+0xa37d>
    26f6: 9c 0a de     	stz	$de0a                   ; 0xde0a <__heap_start+0xa37e>
    26f9: 9c 0b de     	stz	$de0b                   ; 0xde0b <__heap_start+0xa37f>
    26fc: 8e 0c de     	stx	$de0c                   ; 0xde0c <__heap_start+0xa380>
    26ff: 64 14        	stz	$14                     ; 0x2014 <f256main+0x179d>
    2701: a2 00        	ldx	#$0
    2703: 86 16        	stx	$16                     ; 0x2016 <f256main+0x179f>
    2705: a2 c0        	ldx	#$c0
    2707: 86 17        	stx	$17                     ; 0x2017 <f256main+0x17a0>
    2709: a2 11        	ldx	#$11
    270b: 86 18        	stx	$18                     ; 0x2018 <f256main+0x17a1>
    270d: a2 c9        	ldx	#$c9
    270f: 86 19        	stx	$19                     ; 0x2019 <f256main+0x17a2>
    2711: a2 10        	ldx	#$10
    2713: 86 1a        	stx	$1a                     ; 0x201a <f256main+0x17a3>
    2715: a2 c9        	ldx	#$c9
    2717: 86 1b        	stx	$1b                     ; 0x201b <f256main+0x17a4>
    2719: a6 15        	ldx	$15                     ; 0x2015 <f256main+0x179e>
    271b: 8e 0d de     	stx	$de0d                   ; 0xde0d <__heap_start+0xa381>
    271e: 8d 0e de     	sta	$de0e                   ; 0xde0e <__heap_start+0xa382>
    2721: a6 1c        	ldx	$1c                     ; 0x201c <f256main+0x17a5>
    2723: 8e 0f de     	stx	$de0f                   ; 0xde0f <__heap_start+0xa383>
    2726: ac 18 de     	ldy	$de18                   ; 0xde18 <__heap_start+0xa38c>
    2729: ad 19 de     	lda	$de19                   ; 0xde19 <__heap_start+0xa38d>
    272c: ae 1a de     	ldx	$de1a                   ; 0xde1a <__heap_start+0xa38e>
    272f: ae 1b de     	ldx	$de1b                   ; 0xde1b <__heap_start+0xa38f>
    2732: 84 1c        	sty	$1c                     ; 0x201c <f256main+0x17a5>
    2734: 85 1d        	sta	$1d                     ; 0x201d <f256main+0x17a6>
    2736: 64 15        	stz	$15                     ; 0x2015 <f256main+0x179e>
    2738: 80 13        	bra	$274d <textPrint+0x83>
    273a: a5 1c        	lda	$1c                     ; 0x201c <f256main+0x17a5>
    273c: 18           	clc
    273d: 69 50        	adc	#$50
    273f: 85 1c        	sta	$1c                     ; 0x201c <f256main+0x17a5>
    2741: a5 1d        	lda	$1d                     ; 0x201d <f256main+0x17a6>
    2743: 69 00        	adc	#$0
    2745: 85 1d        	sta	$1d                     ; 0x201d <f256main+0x17a6>
    2747: e6 14        	inc	$14                     ; 0x2014 <f256main+0x179d>
    2749: d0 02        	bne	$274d <textPrint+0x83>
    274b: e6 15        	inc	$15                     ; 0x2015 <f256main+0x179e>
    274d: a5 12        	lda	$12                     ; 0x2012 <f256main+0x179b>
    274f: 18           	clc
    2750: 65 14        	adc	$14                     ; 0x2014 <f256main+0x179d>
    2752: 85 1e        	sta	$1e                     ; 0x201e <f256main+0x17a7>
    2754: a5 13        	lda	$13                     ; 0x2013 <f256main+0x179c>
    2756: 65 15        	adc	$15                     ; 0x2015 <f256main+0x179e>
    2758: 85 1f        	sta	$1f                     ; 0x201f <f256main+0x17a8>
    275a: b2 1e        	lda	($1e)                   ; 0x201e <f256main+0x17a7>
    275c: c9 0a        	cmp	#$a
    275e: f0 26        	beq	$2786 <textPrint+0xbc>
    2760: c9 0d        	cmp	#$d
    2762: f0 22        	beq	$2786 <textPrint+0xbc>
    2764: aa           	tax
    2765: d0 03        	bne	$276a <textPrint+0xa0>
    2767: 4c 6b 28     	jmp	$286b <textPrint+0x1a1>
    276a: a2 03        	ldx	#$3
    276c: 86 01        	stx	$1                      ; 0x2001 <f256main+0x178a>
    276e: a4 43        	ldy	$43                     ; 0x2043 <f256main+0x17cc>
    2770: a9 f0        	lda	#$f0
    2772: 91 1c        	sta	($1c),y                 ; 0x201c <f256main+0x17a5>
    2774: ca           	dex
    2775: 86 01        	stx	$1                      ; 0x2001 <f256main+0x178a>
    2777: b2 1e        	lda	($1e)                   ; 0x201e <f256main+0x17a7>
    2779: a4 43        	ldy	$43                     ; 0x2043 <f256main+0x17cc>
    277b: 91 1c        	sta	($1c),y                 ; 0x201c <f256main+0x17a5>
    277d: a6 43        	ldx	$43                     ; 0x2043 <f256main+0x17cc>
    277f: e8           	inx
    2780: e6 43        	inc	$43                     ; 0x2043 <f256main+0x17cc>
    2782: e0 50        	cpx	#$50
    2784: d0 c1        	bne	$2747 <textPrint+0x7d>
    2786: 64 43        	stz	$43                     ; 0x2043 <f256main+0x17cc>
    2788: a6 44        	ldx	$44                     ; 0x2044 <f256main+0x17cd>
    278a: e8           	inx
    278b: e6 44        	inc	$44                     ; 0x2044 <f256main+0x17cd>
    278d: e0 1e        	cpx	#$1e
    278f: f0 03        	beq	$2794 <textPrint+0xca>
    2791: 4c 3a 27     	jmp	$273a <textPrint+0x70>
    2794: a2 03        	ldx	#$3
    2796: 86 01        	stx	$1                      ; 0x2001 <f256main+0x178a>
    2798: a2 01        	ldx	#$1
    279a: 86 1c        	stx	$1c                     ; 0x201c <f256main+0x17a5>
    279c: a2 09        	ldx	#$9
    279e: a0 10        	ldy	#$10
    27a0: a9 00        	lda	#$0
    27a2: 85 1e        	sta	$1e                     ; 0x201e <f256main+0x17a7>
    27a4: a9 c0        	lda	#$c0
    27a6: 85 1f        	sta	$1f                     ; 0x201f <f256main+0x17a8>
    27a8: 84 1d        	sty	$1d                     ; 0x201d <f256main+0x17a6>
    27aa: a0 50        	ldy	#$50
    27ac: b1 1e        	lda	($1e),y                 ; 0x201e <f256main+0x17a7>
    27ae: 92 1e        	sta	($1e)                   ; 0x201e <f256main+0x17a7>
    27b0: a9 ff        	lda	#$ff
    27b2: c6 1d        	dec	$1d                     ; 0x201d <f256main+0x17a6>
    27b4: c5 1d        	cmp	$1d                     ; 0x201d <f256main+0x17a6>
    27b6: d0 01        	bne	$27b9 <textPrint+0xef>
    27b8: ca           	dex
    27b9: e6 1e        	inc	$1e                     ; 0x201e <f256main+0x17a7>
    27bb: d0 02        	bne	$27bf <textPrint+0xf5>
    27bd: e6 1f        	inc	$1f                     ; 0x201f <f256main+0x17a8>
    27bf: 8a           	txa
    27c0: d0 ea        	bne	$27ac <textPrint+0xe2>
    27c2: a5 1d        	lda	$1d                     ; 0x201d <f256main+0x17a6>
    27c4: d0 e6        	bne	$27ac <textPrint+0xe2>
    27c6: a2 02        	ldx	#$2
    27c8: 86 01        	stx	$1                      ; 0x2001 <f256main+0x178a>
    27ca: a2 00        	ldx	#$0
    27cc: a5 1c        	lda	$1c                     ; 0x201c <f256main+0x17a5>
    27ce: d0 ca        	bne	$279a <textPrint+0xd0>
    27d0: a2 03        	ldx	#$3
    27d2: 86 01        	stx	$1                      ; 0x2001 <f256main+0x178a>
    27d4: a2 50        	ldx	#$50
    27d6: a0 11        	ldy	#$11
    27d8: 84 1c        	sty	$1c                     ; 0x201c <f256main+0x17a5>
    27da: a0 c9        	ldy	#$c9
    27dc: 84 1d        	sty	$1d                     ; 0x201d <f256main+0x17a6>
    27de: a0 10        	ldy	#$10
    27e0: 84 1e        	sty	$1e                     ; 0x201e <f256main+0x17a7>
    27e2: a0 c9        	ldy	#$c9
    27e4: 84 1f        	sty	$1f                     ; 0x201f <f256main+0x17a8>
    27e6: a9 f0        	lda	#$f0
    27e8: a4 1c        	ldy	$1c                     ; 0x201c <f256main+0x17a5>
    27ea: 84 22        	sty	$22                     ; 0x2022 <f256main+0x17ab>
    27ec: a4 1d        	ldy	$1d                     ; 0x201d <f256main+0x17a6>
    27ee: 84 23        	sty	$23                     ; 0x2023 <f256main+0x17ac>
    27f0: 92 1e        	sta	($1e)                   ; 0x201e <f256main+0x17a7>
    27f2: e6 1c        	inc	$1c                     ; 0x201c <f256main+0x17a5>
    27f4: d0 02        	bne	$27f8 <textPrint+0x12e>
    27f6: e6 1d        	inc	$1d                     ; 0x201d <f256main+0x17a6>
    27f8: ca           	dex
    27f9: a4 22        	ldy	$22                     ; 0x2022 <f256main+0x17ab>
    27fb: 84 1e        	sty	$1e                     ; 0x201e <f256main+0x17a7>
    27fd: a4 23        	ldy	$23                     ; 0x2023 <f256main+0x17ac>
    27ff: 84 1f        	sty	$1f                     ; 0x201f <f256main+0x17a8>
    2801: e0 00        	cpx	#$0
    2803: d0 e3        	bne	$27e8 <textPrint+0x11e>
    2805: a2 02        	ldx	#$2
    2807: 86 01        	stx	$1                      ; 0x2001 <f256main+0x178a>
    2809: a2 50        	ldx	#$50
    280b: a0 11        	ldy	#$11
    280d: 84 1c        	sty	$1c                     ; 0x201c <f256main+0x17a5>
    280f: a0 c9        	ldy	#$c9
    2811: 84 1d        	sty	$1d                     ; 0x201d <f256main+0x17a6>
    2813: a0 10        	ldy	#$10
    2815: 84 1e        	sty	$1e                     ; 0x201e <f256main+0x17a7>
    2817: a0 c9        	ldy	#$c9
    2819: 84 1f        	sty	$1f                     ; 0x201f <f256main+0x17a8>
    281b: a9 20        	lda	#$20
    281d: a4 1c        	ldy	$1c                     ; 0x201c <f256main+0x17a5>
    281f: 84 22        	sty	$22                     ; 0x2022 <f256main+0x17ab>
    2821: a4 1d        	ldy	$1d                     ; 0x201d <f256main+0x17a6>
    2823: 84 23        	sty	$23                     ; 0x2023 <f256main+0x17ac>
    2825: 92 1e        	sta	($1e)                   ; 0x201e <f256main+0x17a7>
    2827: e6 1c        	inc	$1c                     ; 0x201c <f256main+0x17a5>
    2829: d0 02        	bne	$282d <textPrint+0x163>
    282b: e6 1d        	inc	$1d                     ; 0x201d <f256main+0x17a6>
    282d: ca           	dex
    282e: a4 22        	ldy	$22                     ; 0x2022 <f256main+0x17ab>
    2830: 84 1e        	sty	$1e                     ; 0x201e <f256main+0x17a7>
    2832: a4 23        	ldy	$23                     ; 0x2023 <f256main+0x17ac>
    2834: 84 1f        	sty	$1f                     ; 0x201f <f256main+0x17a8>
    2836: e0 00        	cpx	#$0
    2838: d0 e3        	bne	$281d <textPrint+0x153>
    283a: c6 44        	dec	$44                     ; 0x2044 <f256main+0x17cd>
    283c: 9c 08 de     	stz	$de08                   ; 0xde08 <__heap_start+0xa37c>
    283f: a2 c0        	ldx	#$c0
    2841: 8e 09 de     	stx	$de09                   ; 0xde09 <__heap_start+0xa37d>
    2844: 9c 0a de     	stz	$de0a                   ; 0xde0a <__heap_start+0xa37e>
    2847: 9c 0b de     	stz	$de0b                   ; 0xde0b <__heap_start+0xa37f>
    284a: a2 1d        	ldx	#$1d
    284c: 8e 0c de     	stx	$de0c                   ; 0xde0c <__heap_start+0xa380>
    284f: 9c 0d de     	stz	$de0d                   ; 0xde0d <__heap_start+0xa381>
    2852: 9c 0e de     	stz	$de0e                   ; 0xde0e <__heap_start+0xa382>
    2855: 9c 0f de     	stz	$de0f                   ; 0xde0f <__heap_start+0xa383>
    2858: ae 18 de     	ldx	$de18                   ; 0xde18 <__heap_start+0xa38c>
    285b: ac 19 de     	ldy	$de19                   ; 0xde19 <__heap_start+0xa38d>
    285e: ad 1a de     	lda	$de1a                   ; 0xde1a <__heap_start+0xa38e>
    2861: ad 1b de     	lda	$de1b                   ; 0xde1b <__heap_start+0xa38f>
    2864: 86 1c        	stx	$1c                     ; 0x201c <f256main+0x17a5>
    2866: 84 1d        	sty	$1d                     ; 0x201d <f256main+0x17a6>
    2868: 4c 47 27     	jmp	$2747 <textPrint+0x7d>
    286b: a6 e1        	ldx	$e1                     ; 0x20e1 <f256main+0x186a>
    286d: 86 01        	stx	$1                      ; 0x2001 <f256main+0x178a>
    286f: a6 43        	ldx	$43                     ; 0x2043 <f256main+0x17cc>
    2871: a4 44        	ldy	$44                     ; 0x2044 <f256main+0x17cd>
    2873: 8e 14 d0     	stx	$d014                   ; 0xd014 <__heap_start+0x9588>
    2876: 9c 15 d0     	stz	$d015                   ; 0xd015 <__heap_start+0x9589>
    2879: 84 44        	sty	$44                     ; 0x2044 <f256main+0x17cd>
    287b: 8c 16 d0     	sty	$d016                   ; 0xd016 <__heap_start+0x958a>
    287e: 9c 17 d0     	stz	$d017                   ; 0xd017 <__heap_start+0x958b>
    2881: 60           	rts

00002882 <bitmapClear>:
    2882: a2 00        	ldx	#$0
    2884: a0 00        	ldy	#$0
    2886: 84 12        	sty	$12                     ; 0x2012 <f256main+0x179b>
    2888: a0 e0        	ldy	#$e0
    288a: 84 13        	sty	$13                     ; 0x2013 <f256main+0x179c>
    288c: a9 01        	lda	#$1
    288e: 25 45        	and	$45                     ; 0x2045 <f256main+0x17ce>
    2890: 0a           	asl
    2891: 0a           	asl
    2892: a8           	tay
    2893: b9 d4 38     	lda	$38d4,y                 ; 0x38d4 <_BITMAP_BASE+0x1>
    2896: 48           	pha
    2897: b9 d5 38     	lda	$38d5,y                 ; 0x38d5 <_BITMAP_BASE+0x2>
    289a: a8           	tay
    289b: 68           	pla
    289c: 84 14        	sty	$14                     ; 0x2014 <f256main+0x179d>
    289e: 0a           	asl
    289f: 26 14        	rol	$14                     ; 0x2014 <f256main+0x179d>
    28a1: 0a           	asl
    28a2: 26 14        	rol	$14                     ; 0x2014 <f256main+0x179d>
    28a4: 0a           	asl
    28a5: a5 14        	lda	$14                     ; 0x2014 <f256main+0x179d>
    28a7: 2a           	rol
    28a8: a4 0f        	ldy	$f                      ; 0x200f <f256main+0x1798>
    28aa: 84 18        	sty	$18                     ; 0x2018 <f256main+0x17a1>
    28ac: 78           	sei
    28ad: 85 19        	sta	$19                     ; 0x2019 <f256main+0x17a2>
    28af: 85 0f        	sta	$f                      ; 0x200f <f256main+0x1798>
    28b1: a5 46        	lda	$46                     ; 0x2046 <f256main+0x17cf>
    28b3: a0 20        	ldy	#$20
    28b5: 48           	pha
    28b6: a9 00        	lda	#$0
    28b8: 85 14        	sta	$14                     ; 0x2014 <f256main+0x179d>
    28ba: a9 e0        	lda	#$e0
    28bc: 85 15        	sta	$15                     ; 0x2015 <f256main+0x179e>
    28be: 68           	pla
    28bf: 64 16        	stz	$16                     ; 0x2016 <f256main+0x179f>
    28c1: 84 17        	sty	$17                     ; 0x2017 <f256main+0x17a0>
    28c3: 92 14        	sta	($14)                   ; 0x2014 <f256main+0x179d>
    28c5: a0 ff        	ldy	#$ff
    28c7: c6 16        	dec	$16                     ; 0x2016 <f256main+0x179f>
    28c9: c4 16        	cpy	$16                     ; 0x2016 <f256main+0x179f>
    28cb: d0 02        	bne	$28cf <bitmapClear+0x4d>
    28cd: c6 17        	dec	$17                     ; 0x2017 <f256main+0x17a0>
    28cf: e6 14        	inc	$14                     ; 0x2014 <f256main+0x179d>
    28d1: d0 02        	bne	$28d5 <bitmapClear+0x53>
    28d3: e6 15        	inc	$15                     ; 0x2015 <f256main+0x179e>
    28d5: a4 17        	ldy	$17                     ; 0x2017 <f256main+0x17a0>
    28d7: d0 ea        	bne	$28c3 <bitmapClear+0x41>
    28d9: a4 16        	ldy	$16                     ; 0x2016 <f256main+0x179f>
    28db: d0 e6        	bne	$28c3 <bitmapClear+0x41>
    28dd: a5 19        	lda	$19                     ; 0x2019 <f256main+0x17a2>
    28df: 1a           	inc
    28e0: e8           	inx
    28e1: e0 09        	cpx	#$9
    28e3: d0 c8        	bne	$28ad <bitmapClear+0x2b>
    28e5: 85 0f        	sta	$f                      ; 0x200f <f256main+0x1798>
    28e7: a5 46        	lda	$46                     ; 0x2046 <f256main+0x17cf>
    28e9: a0 14        	ldy	#$14
    28eb: a2 00        	ldx	#$0
    28ed: 84 14        	sty	$14                     ; 0x2014 <f256main+0x179d>
    28ef: 92 12        	sta	($12)                   ; 0x2012 <f256main+0x179b>
    28f1: ca           	dex
    28f2: e0 ff        	cpx	#$ff
    28f4: d0 02        	bne	$28f8 <bitmapClear+0x76>
    28f6: c6 14        	dec	$14                     ; 0x2014 <f256main+0x179d>
    28f8: e6 12        	inc	$12                     ; 0x2012 <f256main+0x179b>
    28fa: d0 02        	bne	$28fe <bitmapClear+0x7c>
    28fc: e6 13        	inc	$13                     ; 0x2013 <f256main+0x179c>
    28fe: a4 14        	ldy	$14                     ; 0x2014 <f256main+0x179d>
    2900: d0 ed        	bne	$28ef <bitmapClear+0x6d>
    2902: e0 00        	cpx	#$0
    2904: d0 e9        	bne	$28ef <bitmapClear+0x6d>
    2906: a6 18        	ldx	$18                     ; 0x2018 <f256main+0x17a1>
    2908: 86 0f        	stx	$f                      ; 0x200f <f256main+0x1798>
    290a: 58           	cli
    290b: 60           	rts

0000290c <spriteDefine>:
    290c: a8           	tay
    290d: 86 16        	stx	$16                     ; 0x2016 <f256main+0x179f>
    290f: a6 13        	ldx	$13                     ; 0x2013 <f256main+0x179c>
    2911: a5 15        	lda	$15                     ; 0x2015 <f256main+0x179e>
    2913: 18           	clc
    2914: 69 f8        	adc	#$f8
    2916: 85 13        	sta	$13                     ; 0x2013 <f256main+0x179c>
    2918: 46 13        	lsr	$13                     ; 0x2013 <f256main+0x179c>
    291a: 6a           	ror
    291b: 85 13        	sta	$13                     ; 0x2013 <f256main+0x179c>
    291d: 46 13        	lsr	$13                     ; 0x2013 <f256main+0x179c>
    291f: 6a           	ror
    2920: 85 13        	sta	$13                     ; 0x2013 <f256main+0x179c>
    2922: 46 13        	lsr	$13                     ; 0x2013 <f256main+0x179c>
    2924: 6a           	ror
    2925: c9 03        	cmp	#$3
    2927: 64 17        	stz	$17                     ; 0x2017 <f256main+0x17a0>
    2929: b0 0e        	bcs	$2939 <spriteDefine+0x2d>
    292b: 0a           	asl
    292c: 0a           	asl
    292d: 0a           	asl
    292e: 0a           	asl
    292f: 0a           	asl
    2930: 85 13        	sta	$13                     ; 0x2013 <f256main+0x179c>
    2932: a9 60        	lda	#$60
    2934: 38           	sec
    2935: e5 13        	sbc	$13                     ; 0x2013 <f256main+0x179c>
    2937: 85 17        	sta	$17                     ; 0x2017 <f256main+0x17a0>
    2939: 98           	tya
    293a: 0a           	asl
    293b: 64 13        	stz	$13                     ; 0x2013 <f256main+0x179c>
    293d: 26 13        	rol	$13                     ; 0x2013 <f256main+0x179c>
    293f: 0a           	asl
    2940: 26 13        	rol	$13                     ; 0x2013 <f256main+0x179c>
    2942: 0a           	asl
    2943: 26 13        	rol	$13                     ; 0x2013 <f256main+0x179c>
    2945: 85 18        	sta	$18                     ; 0x2018 <f256main+0x17a1>
    2947: 18           	clc
    2948: 69 00        	adc	#$0
    294a: 85 19        	sta	$19                     ; 0x2019 <f256main+0x17a2>
    294c: a5 13        	lda	$13                     ; 0x2013 <f256main+0x179c>
    294e: 69 d9        	adc	#$d9
    2950: 5a           	phy
    2951: a4 19        	ldy	$19                     ; 0x2019 <f256main+0x17a2>
    2953: 84 14        	sty	$14                     ; 0x2014 <f256main+0x179d>
    2955: 7a           	ply
    2956: 85 15        	sta	$15                     ; 0x2015 <f256main+0x179e>
    2958: a5 17        	lda	$17                     ; 0x2017 <f256main+0x17a0>
    295a: 99 47 00     	sta	$47,y                   ; 0x47 <_spriteCtl>
    295d: 92 14        	sta	($14)                   ; 0x2014 <f256main+0x179d>
    295f: a5 18        	lda	$18                     ; 0x2018 <f256main+0x17a1>
    2961: 18           	clc
    2962: 69 01        	adc	#$1
    2964: 85 14        	sta	$14                     ; 0x2014 <f256main+0x179d>
    2966: a5 13        	lda	$13                     ; 0x2013 <f256main+0x179c>
    2968: 69 d9        	adc	#$d9
    296a: 85 15        	sta	$15                     ; 0x2015 <f256main+0x179e>
    296c: a5 16        	lda	$16                     ; 0x2016 <f256main+0x179f>
    296e: 92 14        	sta	($14)                   ; 0x2014 <f256main+0x179d>
    2970: a5 18        	lda	$18                     ; 0x2018 <f256main+0x17a1>
    2972: 18           	clc
    2973: 69 02        	adc	#$2
    2975: 85 14        	sta	$14                     ; 0x2014 <f256main+0x179d>
    2977: a5 13        	lda	$13                     ; 0x2013 <f256main+0x179c>
    2979: 69 d9        	adc	#$d9
    297b: 85 15        	sta	$15                     ; 0x2015 <f256main+0x179e>
    297d: 18           	clc
    297e: a5 12        	lda	$12                     ; 0x2012 <f256main+0x179b>
    2980: 92 14        	sta	($14)                   ; 0x2014 <f256main+0x179d>
    2982: a5 18        	lda	$18                     ; 0x2018 <f256main+0x17a1>
    2984: 69 03        	adc	#$3
    2986: 85 12        	sta	$12                     ; 0x2012 <f256main+0x179b>
    2988: a5 13        	lda	$13                     ; 0x2013 <f256main+0x179c>
    298a: 69 d9        	adc	#$d9
    298c: 85 13        	sta	$13                     ; 0x2013 <f256main+0x179c>
    298e: 8a           	txa
    298f: 92 12        	sta	($12)                   ; 0x2012 <f256main+0x179b>
    2991: 60           	rts

00002992 <showGeneric>:
    2992: b2 12        	lda	($12)                   ; 0x2012 <f256main+0x179b>
    2994: 85 16        	sta	$16                     ; 0x2016 <f256main+0x179f>
    2996: a5 12        	lda	$12                     ; 0x2012 <f256main+0x179b>
    2998: 85 e5        	sta	$e5                     ; 0x20e5 <f256main+0x186e>
    299a: a6 13        	ldx	$13                     ; 0x2013 <f256main+0x179c>
    299c: 86 e3        	stx	$e3                     ; 0x20e3 <f256main+0x186c>
    299e: a6 12        	ldx	$12                     ; 0x2012 <f256main+0x179b>
    29a0: 86 14        	stx	$14                     ; 0x2014 <f256main+0x179d>
    29a2: a6 13        	ldx	$13                     ; 0x2013 <f256main+0x179c>
    29a4: 86 15        	stx	$15                     ; 0x2015 <f256main+0x179e>
    29a6: a6 12        	ldx	$12                     ; 0x2012 <f256main+0x179b>
    29a8: 86 e1        	stx	$e1                     ; 0x20e1 <f256main+0x186a>
    29aa: a6 13        	ldx	$13                     ; 0x2013 <f256main+0x179c>
    29ac: 86 e2        	stx	$e2                     ; 0x20e2 <f256main+0x186b>
    29ae: 18           	clc
    29af: 69 08        	adc	#$8
    29b1: 85 18        	sta	$18                     ; 0x2018 <f256main+0x17a1>
    29b3: a5 e3        	lda	$e3                     ; 0x20e3 <f256main+0x186c>
    29b5: 69 00        	adc	#$0
    29b7: a0 08        	ldy	#$8
    29b9: 85 19        	sta	$19                     ; 0x2019 <f256main+0x17a2>
    29bb: b1 12        	lda	($12),y                 ; 0x2012 <f256main+0x179b>
    29bd: 85 17        	sta	$17                     ; 0x2017 <f256main+0x17a0>
    29bf: a0 02        	ldy	#$2
    29c1: b1 18        	lda	($18),y                 ; 0x2018 <f256main+0x17a1>
    29c3: 85 13        	sta	$13                     ; 0x2013 <f256main+0x179c>
    29c5: a0 0d        	ldy	#$d
    29c7: b1 14        	lda	($14),y                 ; 0x2014 <f256main+0x179d>
    29c9: 85 15        	sta	$15                     ; 0x2015 <f256main+0x179e>
    29cb: a0 01        	ldy	#$1
    29cd: 84 e4        	sty	$e4                     ; 0x20e4 <f256main+0x186d>
    29cf: b1 18        	lda	($18),y                 ; 0x2018 <f256main+0x17a1>
    29d1: 85 12        	sta	$12                     ; 0x2012 <f256main+0x179b>
    29d3: a0 03        	ldy	#$3
    29d5: b1 18        	lda	($18),y                 ; 0x2018 <f256main+0x17a1>
    29d7: 85 14        	sta	$14                     ; 0x2014 <f256main+0x179d>
    29d9: a6 17        	ldx	$17                     ; 0x2017 <f256main+0x17a0>
    29db: a5 16        	lda	$16                     ; 0x2016 <f256main+0x179f>
    29dd: 20 0c 29     	jsr	$290c <spriteDefine>
    29e0: 18           	clc
    29e1: a6 e5        	ldx	$e5                     ; 0x20e5 <f256main+0x186e>
    29e3: 8a           	txa
    29e4: 69 03        	adc	#$3
    29e6: a8           	tay
    29e7: a5 e3        	lda	$e3                     ; 0x20e3 <f256main+0x186c>
    29e9: 69 00        	adc	#$0
    29eb: 84 12        	sty	$12                     ; 0x2012 <f256main+0x179b>
    29ed: 85 13        	sta	$13                     ; 0x2013 <f256main+0x179c>
    29ef: a6 e1        	ldx	$e1                     ; 0x20e1 <f256main+0x186a>
    29f1: 86 1a        	stx	$1a                     ; 0x201a <f256main+0x17a3>
    29f3: a6 e2        	ldx	$e2                     ; 0x20e2 <f256main+0x186b>
    29f5: 86 1b        	stx	$1b                     ; 0x201b <f256main+0x17a4>
    29f7: b2 1a        	lda	($1a)                   ; 0x201a <f256main+0x17a3>
    29f9: aa           	tax
    29fa: 0a           	asl
    29fb: 64 14        	stz	$14                     ; 0x2014 <f256main+0x179d>
    29fd: 26 14        	rol	$14                     ; 0x2014 <f256main+0x179d>
    29ff: 0a           	asl
    2a00: 26 14        	rol	$14                     ; 0x2014 <f256main+0x179d>
    2a02: 0a           	asl
    2a03: 26 14        	rol	$14                     ; 0x2014 <f256main+0x179d>
    2a05: a4 14        	ldy	$14                     ; 0x2014 <f256main+0x179d>
    2a07: 84 18        	sty	$18                     ; 0x2018 <f256main+0x17a1>
    2a09: 85 1c        	sta	$1c                     ; 0x201c <f256main+0x17a5>
    2a0b: 18           	clc
    2a0c: 69 04        	adc	#$4
    2a0e: 85 14        	sta	$14                     ; 0x2014 <f256main+0x179d>
    2a10: a5 18        	lda	$18                     ; 0x2018 <f256main+0x17a1>
    2a12: 69 d9        	adc	#$d9
    2a14: 85 15        	sta	$15                     ; 0x2015 <f256main+0x179e>
    2a16: a4 1a        	ldy	$1a                     ; 0x201a <f256main+0x17a3>
    2a18: 84 16        	sty	$16                     ; 0x2016 <f256main+0x179f>
    2a1a: a4 1b        	ldy	$1b                     ; 0x201b <f256main+0x17a4>
    2a1c: 84 17        	sty	$17                     ; 0x2017 <f256main+0x17a0>
    2a1e: e6 16        	inc	$16                     ; 0x2016 <f256main+0x179f>
    2a20: d0 02        	bne	$2a24 <showGeneric+0x92>
    2a22: e6 17        	inc	$17                     ; 0x2017 <f256main+0x17a0>
    2a24: a0 03        	ldy	#$3
    2a26: b1 1a        	lda	($1a),y                 ; 0x201a <f256main+0x17a3>
    2a28: 85 19        	sta	$19                     ; 0x2019 <f256main+0x17a2>
    2a2a: a4 e4        	ldy	$e4                     ; 0x20e4 <f256main+0x186d>
    2a2c: b1 1a        	lda	($1a),y                 ; 0x201a <f256main+0x17a3>
    2a2e: 85 1a        	sta	$1a                     ; 0x201a <f256main+0x17a3>
    2a30: b1 16        	lda	($16),y                 ; 0x2016 <f256main+0x179f>
    2a32: 85 17        	sta	$17                     ; 0x2017 <f256main+0x17a0>
    2a34: b1 12        	lda	($12),y                 ; 0x2012 <f256main+0x179b>
    2a36: 85 16        	sta	$16                     ; 0x2016 <f256main+0x179f>
    2a38: a5 1a        	lda	$1a                     ; 0x201a <f256main+0x17a3>
    2a3a: 92 14        	sta	($14)                   ; 0x2014 <f256main+0x179d>
    2a3c: a5 17        	lda	$17                     ; 0x2017 <f256main+0x17a0>
    2a3e: 91 14        	sta	($14),y                 ; 0x2014 <f256main+0x179d>
    2a40: a5 1c        	lda	$1c                     ; 0x201c <f256main+0x17a5>
    2a42: 18           	clc
    2a43: 69 06        	adc	#$6
    2a45: 85 14        	sta	$14                     ; 0x2014 <f256main+0x179d>
    2a47: a5 18        	lda	$18                     ; 0x2018 <f256main+0x17a1>
    2a49: 69 d9        	adc	#$d9
    2a4b: 5a           	phy
    2a4c: a4 14        	ldy	$14                     ; 0x2014 <f256main+0x179d>
    2a4e: 84 12        	sty	$12                     ; 0x2012 <f256main+0x179b>
    2a50: 7a           	ply
    2a51: 85 13        	sta	$13                     ; 0x2013 <f256main+0x179c>
    2a53: a5 19        	lda	$19                     ; 0x2019 <f256main+0x17a2>
    2a55: 92 12        	sta	($12)                   ; 0x2012 <f256main+0x179b>
    2a57: a5 16        	lda	$16                     ; 0x2016 <f256main+0x179f>
    2a59: 91 12        	sta	($12),y                 ; 0x2012 <f256main+0x179b>
    2a5b: 18           	clc
    2a5c: a5 1c        	lda	$1c                     ; 0x201c <f256main+0x17a5>
    2a5e: 69 00        	adc	#$0
    2a60: 85 12        	sta	$12                     ; 0x2012 <f256main+0x179b>
    2a62: a5 18        	lda	$18                     ; 0x2018 <f256main+0x17a1>
    2a64: 69 d9        	adc	#$d9
    2a66: 85 13        	sta	$13                     ; 0x2013 <f256main+0x179c>
    2a68: a9 01        	lda	#$1
    2a6a: 15 47        	ora	$47,x                   ; 0x2047 <f256main+0x17d0>
    2a6c: 92 12        	sta	($12)                   ; 0x2012 <f256main+0x179b>
    2a6e: 60           	rts

00002a6f <updateRadioB>:
    2a6f: a6 12        	ldx	$12                     ; 0x2012 <f256main+0x179b>
    2a71: 86 e6        	stx	$e6                     ; 0x20e6 <f256main+0x186f>
    2a73: a6 13        	ldx	$13                     ; 0x2013 <f256main+0x179c>
    2a75: 86 e7        	stx	$e7                     ; 0x20e7 <f256main+0x1870>
    2a77: a0 06        	ldy	#$6
    2a79: b1 12        	lda	($12),y                 ; 0x2012 <f256main+0x179b>
    2a7b: 85 e8        	sta	$e8                     ; 0x20e8 <f256main+0x1871>
    2a7d: a0 0d        	ldy	#$d
    2a7f: b1 12        	lda	($12),y                 ; 0x2012 <f256main+0x179b>
    2a81: 85 12        	sta	$12                     ; 0x2012 <f256main+0x179b>
    2a83: 64 13        	stz	$13                     ; 0x2013 <f256main+0x179c>
    2a85: a2 00        	ldx	#$0
    2a87: 85 e9        	sta	$e9                     ; 0x20e9 <f256main+0x1872>
    2a89: 20 04 34     	jsr	$3404 <__mulhi3>
    2a8c: 85 13        	sta	$13                     ; 0x2013 <f256main+0x179c>
    2a8e: 86 12        	stx	$12                     ; 0x2012 <f256main+0x179b>
    2a90: a5 e6        	lda	$e6                     ; 0x20e6 <f256main+0x186f>
    2a92: a0 08        	ldy	#$8
    2a94: 18           	clc
    2a95: 69 08        	adc	#$8
    2a97: 85 14        	sta	$14                     ; 0x2014 <f256main+0x179d>
    2a99: a5 e7        	lda	$e7                     ; 0x20e7 <f256main+0x1870>
    2a9b: 69 00        	adc	#$0
    2a9d: 85 15        	sta	$15                     ; 0x2015 <f256main+0x179e>
    2a9f: b1 e6        	lda	($e6),y                 ; 0x20e6 <f256main+0x186f>
    2aa1: aa           	tax
    2aa2: a0 01        	ldy	#$1
    2aa4: b1 14        	lda	($14),y                 ; 0x2014 <f256main+0x179d>
    2aa6: 85 16        	sta	$16                     ; 0x2016 <f256main+0x179f>
    2aa8: c8           	iny
    2aa9: b1 14        	lda	($14),y                 ; 0x2014 <f256main+0x179d>
    2aab: 85 17        	sta	$17                     ; 0x2017 <f256main+0x17a0>
    2aad: c8           	iny
    2aae: b1 14        	lda	($14),y                 ; 0x2014 <f256main+0x179d>
    2ab0: 85 18        	sta	$18                     ; 0x2018 <f256main+0x17a1>
    2ab2: a5 e8        	lda	$e8                     ; 0x20e8 <f256main+0x1871>
    2ab4: f0 18        	beq	$2ace <updateRadioB+0x5f>
    2ab6: 18           	clc
    2ab7: 8a           	txa
    2ab8: 65 13        	adc	$13                     ; 0x2013 <f256main+0x179c>
    2aba: 85 14        	sta	$14                     ; 0x2014 <f256main+0x179d>
    2abc: a5 16        	lda	$16                     ; 0x2016 <f256main+0x179f>
    2abe: 65 12        	adc	$12                     ; 0x2012 <f256main+0x179b>
    2ac0: 85 15        	sta	$15                     ; 0x2015 <f256main+0x179e>
    2ac2: a5 17        	lda	$17                     ; 0x2017 <f256main+0x17a0>
    2ac4: 69 00        	adc	#$0
    2ac6: 85 16        	sta	$16                     ; 0x2016 <f256main+0x179f>
    2ac8: a5 18        	lda	$18                     ; 0x2018 <f256main+0x17a1>
    2aca: 69 00        	adc	#$0
    2acc: 80 16        	bra	$2ae4 <updateRadioB+0x75>
    2ace: 38           	sec
    2acf: 8a           	txa
    2ad0: e5 13        	sbc	$13                     ; 0x2013 <f256main+0x179c>
    2ad2: 85 14        	sta	$14                     ; 0x2014 <f256main+0x179d>
    2ad4: a5 16        	lda	$16                     ; 0x2016 <f256main+0x179f>
    2ad6: e5 12        	sbc	$12                     ; 0x2012 <f256main+0x179b>
    2ad8: 85 15        	sta	$15                     ; 0x2015 <f256main+0x179e>
    2ada: a5 17        	lda	$17                     ; 0x2017 <f256main+0x17a0>
    2adc: e9 00        	sbc	#$0
    2ade: 85 16        	sta	$16                     ; 0x2016 <f256main+0x179f>
    2ae0: a5 18        	lda	$18                     ; 0x2018 <f256main+0x17a1>
    2ae2: e9 00        	sbc	#$0
    2ae4: 85 17        	sta	$17                     ; 0x2017 <f256main+0x17a0>
    2ae6: a5 e6        	lda	$e6                     ; 0x20e6 <f256main+0x186f>
    2ae8: 18           	clc
    2ae9: 69 08        	adc	#$8
    2aeb: 85 12        	sta	$12                     ; 0x2012 <f256main+0x179b>
    2aed: a5 e7        	lda	$e7                     ; 0x20e7 <f256main+0x1870>
    2aef: 69 00        	adc	#$0
    2af1: a0 08        	ldy	#$8
    2af3: a6 12        	ldx	$12                     ; 0x2012 <f256main+0x179b>
    2af5: 86 18        	stx	$18                     ; 0x2018 <f256main+0x17a1>
    2af7: 85 19        	sta	$19                     ; 0x2019 <f256main+0x17a2>
    2af9: a5 14        	lda	$14                     ; 0x2014 <f256main+0x179d>
    2afb: 91 e6        	sta	($e6),y                 ; 0x20e6 <f256main+0x186f>
    2afd: a6 14        	ldx	$14                     ; 0x2014 <f256main+0x179d>
    2aff: a0 01        	ldy	#$1
    2b01: a5 15        	lda	$15                     ; 0x2015 <f256main+0x179e>
    2b03: 91 18        	sta	($18),y                 ; 0x2018 <f256main+0x17a1>
    2b05: 85 12        	sta	$12                     ; 0x2012 <f256main+0x179b>
    2b07: c8           	iny
    2b08: a5 16        	lda	$16                     ; 0x2016 <f256main+0x179f>
    2b0a: 91 18        	sta	($18),y                 ; 0x2018 <f256main+0x17a1>
    2b0c: 85 13        	sta	$13                     ; 0x2013 <f256main+0x179c>
    2b0e: c8           	iny
    2b0f: a5 17        	lda	$17                     ; 0x2017 <f256main+0x17a0>
    2b11: 91 18        	sta	($18),y                 ; 0x2018 <f256main+0x17a1>
    2b13: 85 14        	sta	$14                     ; 0x2014 <f256main+0x179d>
    2b15: b2 e6        	lda	($e6)                   ; 0x20e6 <f256main+0x186f>
    2b17: a4 e9        	ldy	$e9                     ; 0x20e9 <f256main+0x1872>
    2b19: 84 15        	sty	$15                     ; 0x2015 <f256main+0x179e>
    2b1b: 20 0c 29     	jsr	$290c <spriteDefine>
    2b1e: b2 e6        	lda	($e6)                   ; 0x20e6 <f256main+0x186f>
    2b20: aa           	tax
    2b21: 0a           	asl
    2b22: 64 12        	stz	$12                     ; 0x2012 <f256main+0x179b>
    2b24: 26 12        	rol	$12                     ; 0x2012 <f256main+0x179b>
    2b26: 0a           	asl
    2b27: 26 12        	rol	$12                     ; 0x2012 <f256main+0x179b>
    2b29: 0a           	asl
    2b2a: 26 12        	rol	$12                     ; 0x2012 <f256main+0x179b>
    2b2c: 18           	clc
    2b2d: 69 00        	adc	#$0
    2b2f: a8           	tay
    2b30: a5 12        	lda	$12                     ; 0x2012 <f256main+0x179b>
    2b32: 69 d9        	adc	#$d9
    2b34: 84 12        	sty	$12                     ; 0x2012 <f256main+0x179b>
    2b36: 85 13        	sta	$13                     ; 0x2013 <f256main+0x179c>
    2b38: a9 01        	lda	#$1
    2b3a: 15 47        	ora	$47,x                   ; 0x2047 <f256main+0x17d0>
    2b3c: 92 12        	sta	($12)                   ; 0x2012 <f256main+0x179b>
    2b3e: 60           	rts

00002b3f <setRadioB>:
    2b3f: 85 14        	sta	$14                     ; 0x2014 <f256main+0x179d>
    2b41: 86 e4        	stx	$e4                     ; 0x20e4 <f256main+0x186d>
    2b43: a6 12        	ldx	$12                     ; 0x2012 <f256main+0x179b>
    2b45: 86 e1        	stx	$e1                     ; 0x20e1 <f256main+0x186a>
    2b47: a6 13        	ldx	$13                     ; 0x2013 <f256main+0x179c>
    2b49: 86 e2        	stx	$e2                     ; 0x20e2 <f256main+0x186b>
    2b4b: a0 13        	ldy	#$13
    2b4d: a9 01        	lda	#$1
    2b4f: 91 12        	sta	($12),y                 ; 0x2012 <f256main+0x179b>
    2b51: c8           	iny
    2b52: a5 14        	lda	$14                     ; 0x2014 <f256main+0x179d>
    2b54: 91 12        	sta	($12),y                 ; 0x2012 <f256main+0x179b>
    2b56: a5 e1        	lda	$e1                     ; 0x20e1 <f256main+0x186a>
    2b58: 18           	clc
    2b59: 69 08        	adc	#$8
    2b5b: 85 18        	sta	$18                     ; 0x2018 <f256main+0x17a1>
    2b5d: a5 e2        	lda	$e2                     ; 0x20e2 <f256main+0x186b>
    2b5f: 69 00        	adc	#$0
    2b61: a0 08        	ldy	#$8
    2b63: 64 e3        	stz	$e3                     ; 0x20e3 <f256main+0x186c>
    2b65: 85 19        	sta	$19                     ; 0x2019 <f256main+0x17a2>
    2b67: b1 12        	lda	($12),y                 ; 0x2012 <f256main+0x179b>
    2b69: aa           	tax
    2b6a: a0 02        	ldy	#$2
    2b6c: b1 18        	lda	($18),y                 ; 0x2018 <f256main+0x17a1>
    2b6e: 85 13        	sta	$13                     ; 0x2013 <f256main+0x179c>
    2b70: a0 0d        	ldy	#$d
    2b72: b1 e1        	lda	($e1),y                 ; 0x20e1 <f256main+0x186a>
    2b74: 85 15        	sta	$15                     ; 0x2015 <f256main+0x179e>
    2b76: b2 e1        	lda	($e1)                   ; 0x20e1 <f256main+0x186a>
    2b78: 85 16        	sta	$16                     ; 0x2016 <f256main+0x179f>
    2b7a: a0 01        	ldy	#$1
    2b7c: b1 18        	lda	($18),y                 ; 0x2018 <f256main+0x17a1>
    2b7e: 85 12        	sta	$12                     ; 0x2012 <f256main+0x179b>
    2b80: a0 03        	ldy	#$3
    2b82: b1 18        	lda	($18),y                 ; 0x2018 <f256main+0x17a1>
    2b84: 85 14        	sta	$14                     ; 0x2014 <f256main+0x179d>
    2b86: a5 16        	lda	$16                     ; 0x2016 <f256main+0x179f>
    2b88: 20 0c 29     	jsr	$290c <spriteDefine>
    2b8b: b2 e1        	lda	($e1)                   ; 0x20e1 <f256main+0x186a>
    2b8d: aa           	tax
    2b8e: 18           	clc
    2b8f: a5 e1        	lda	$e1                     ; 0x20e1 <f256main+0x186a>
    2b91: 69 03        	adc	#$3
    2b93: 85 12        	sta	$12                     ; 0x2012 <f256main+0x179b>
    2b95: a5 e2        	lda	$e2                     ; 0x20e2 <f256main+0x186b>
    2b97: 69 00        	adc	#$0
    2b99: 85 13        	sta	$13                     ; 0x2013 <f256main+0x179c>
    2b9b: 86 1a        	stx	$1a                     ; 0x201a <f256main+0x17a3>
    2b9d: 06 1a        	asl	$1a                     ; 0x201a <f256main+0x17a3>
    2b9f: 64 18        	stz	$18                     ; 0x2018 <f256main+0x17a1>
    2ba1: 26 18        	rol	$18                     ; 0x2018 <f256main+0x17a1>
    2ba3: 06 1a        	asl	$1a                     ; 0x201a <f256main+0x17a3>
    2ba5: 26 18        	rol	$18                     ; 0x2018 <f256main+0x17a1>
    2ba7: 06 1a        	asl	$1a                     ; 0x201a <f256main+0x17a3>
    2ba9: 26 18        	rol	$18                     ; 0x2018 <f256main+0x17a1>
    2bab: 18           	clc
    2bac: a5 1a        	lda	$1a                     ; 0x201a <f256main+0x17a3>
    2bae: 69 04        	adc	#$4
    2bb0: 85 14        	sta	$14                     ; 0x2014 <f256main+0x179d>
    2bb2: a5 18        	lda	$18                     ; 0x2018 <f256main+0x17a1>
    2bb4: 69 d9        	adc	#$d9
    2bb6: a4 e1        	ldy	$e1                     ; 0x20e1 <f256main+0x186a>
    2bb8: 84 16        	sty	$16                     ; 0x2016 <f256main+0x179f>
    2bba: a4 e2        	ldy	$e2                     ; 0x20e2 <f256main+0x186b>
    2bbc: 84 17        	sty	$17                     ; 0x2017 <f256main+0x17a0>
    2bbe: e6 16        	inc	$16                     ; 0x2016 <f256main+0x179f>
    2bc0: d0 02        	bne	$2bc4 <setRadioB+0x85>
    2bc2: e6 17        	inc	$17                     ; 0x2017 <f256main+0x17a0>
    2bc4: 85 15        	sta	$15                     ; 0x2015 <f256main+0x179e>
    2bc6: a0 01        	ldy	#$1
    2bc8: b1 e1        	lda	($e1),y                 ; 0x20e1 <f256main+0x186a>
    2bca: 85 1b        	sta	$1b                     ; 0x201b <f256main+0x17a4>
    2bcc: a0 03        	ldy	#$3
    2bce: b1 e1        	lda	($e1),y                 ; 0x20e1 <f256main+0x186a>
    2bd0: 85 19        	sta	$19                     ; 0x2019 <f256main+0x17a2>
    2bd2: a0 01        	ldy	#$1
    2bd4: b1 16        	lda	($16),y                 ; 0x2016 <f256main+0x179f>
    2bd6: 85 17        	sta	$17                     ; 0x2017 <f256main+0x17a0>
    2bd8: b1 12        	lda	($12),y                 ; 0x2012 <f256main+0x179b>
    2bda: 85 16        	sta	$16                     ; 0x2016 <f256main+0x179f>
    2bdc: a5 1b        	lda	$1b                     ; 0x201b <f256main+0x17a4>
    2bde: 92 14        	sta	($14)                   ; 0x2014 <f256main+0x179d>
    2be0: a5 17        	lda	$17                     ; 0x2017 <f256main+0x17a0>
    2be2: 91 14        	sta	($14),y                 ; 0x2014 <f256main+0x179d>
    2be4: 18           	clc
    2be5: a5 1a        	lda	$1a                     ; 0x201a <f256main+0x17a3>
    2be7: 69 06        	adc	#$6
    2be9: 85 12        	sta	$12                     ; 0x2012 <f256main+0x179b>
    2beb: a5 18        	lda	$18                     ; 0x2018 <f256main+0x17a1>
    2bed: 85 14        	sta	$14                     ; 0x2014 <f256main+0x179d>
    2bef: a5 18        	lda	$18                     ; 0x2018 <f256main+0x17a1>
    2bf1: 69 d9        	adc	#$d9
    2bf3: 85 13        	sta	$13                     ; 0x2013 <f256main+0x179c>
    2bf5: a5 19        	lda	$19                     ; 0x2019 <f256main+0x17a2>
    2bf7: 92 12        	sta	($12)                   ; 0x2012 <f256main+0x179b>
    2bf9: a5 16        	lda	$16                     ; 0x2016 <f256main+0x179f>
    2bfb: 91 12        	sta	($12),y                 ; 0x2012 <f256main+0x179b>
    2bfd: a4 e4        	ldy	$e4                     ; 0x20e4 <f256main+0x186d>
    2bff: f0 23        	beq	$2c24 <setRadioB+0xe5>
    2c01: a0 06        	ldy	#$6
    2c03: a9 01        	lda	#$1
    2c05: 91 e1        	sta	($e1),y                 ; 0x20e1 <f256main+0x186a>
    2c07: a6 e1        	ldx	$e1                     ; 0x20e1 <f256main+0x186a>
    2c09: 86 12        	stx	$12                     ; 0x2012 <f256main+0x179b>
    2c0b: a6 e2        	ldx	$e2                     ; 0x20e2 <f256main+0x186b>
    2c0d: 86 13        	stx	$13                     ; 0x2013 <f256main+0x179c>
    2c0f: 20 6f 2a     	jsr	$2a6f <updateRadioB>
    2c12: b2 e1        	lda	($e1)                   ; 0x20e1 <f256main+0x186a>
    2c14: aa           	tax
    2c15: 0a           	asl
    2c16: 26 e3        	rol	$e3                     ; 0x20e3 <f256main+0x186c>
    2c18: 0a           	asl
    2c19: 26 e3        	rol	$e3                     ; 0x20e3 <f256main+0x186c>
    2c1b: 0a           	asl
    2c1c: 85 1a        	sta	$1a                     ; 0x201a <f256main+0x17a3>
    2c1e: 26 e3        	rol	$e3                     ; 0x20e3 <f256main+0x186c>
    2c20: a4 e3        	ldy	$e3                     ; 0x20e3 <f256main+0x186c>
    2c22: 84 14        	sty	$14                     ; 0x2014 <f256main+0x179d>
    2c24: 18           	clc
    2c25: a5 1a        	lda	$1a                     ; 0x201a <f256main+0x17a3>
    2c27: 69 00        	adc	#$0
    2c29: 85 12        	sta	$12                     ; 0x2012 <f256main+0x179b>
    2c2b: a5 14        	lda	$14                     ; 0x2014 <f256main+0x179d>
    2c2d: 69 d9        	adc	#$d9
    2c2f: 85 13        	sta	$13                     ; 0x2013 <f256main+0x179c>
    2c31: a9 01        	lda	#$1
    2c33: 15 47        	ora	$47,x                   ; 0x2047 <f256main+0x17d0>
    2c35: 92 12        	sta	($12)                   ; 0x2012 <f256main+0x179b>
    2c37: 60           	rts

00002c38 <updateDial>:
    2c38: a6 12        	ldx	$12                     ; 0x2012 <f256main+0x179b>
    2c3a: 86 e1        	stx	$e1                     ; 0x20e1 <f256main+0x186a>
    2c3c: a6 13        	ldx	$13                     ; 0x2013 <f256main+0x179c>
    2c3e: 86 e2        	stx	$e2                     ; 0x20e2 <f256main+0x186b>
    2c40: a0 0d        	ldy	#$d
    2c42: b1 12        	lda	($12),y                 ; 0x2012 <f256main+0x179b>
    2c44: 85 e3        	sta	$e3                     ; 0x20e3 <f256main+0x186c>
    2c46: a0 13        	ldy	#$13
    2c48: b1 12        	lda	($12),y                 ; 0x2012 <f256main+0x179b>
    2c4a: aa           	tax
    2c4b: c8           	iny
    2c4c: b1 12        	lda	($12),y                 ; 0x2012 <f256main+0x179b>
    2c4e: 85 15        	sta	$15                     ; 0x2015 <f256main+0x179e>
    2c50: 86 13        	stx	$13                     ; 0x2013 <f256main+0x179c>
    2c52: c5 13        	cmp	$13                     ; 0x2013 <f256main+0x179c>
    2c54: a9 00        	lda	#$0
    2c56: b0 35        	bcs	$2c8d <updateDial+0x55>
    2c58: a0 15        	ldy	#$15
    2c5a: b1 e1        	lda	($e1),y                 ; 0x20e1 <f256main+0x186a>
    2c5c: a8           	tay
    2c5d: 85 13        	sta	$13                     ; 0x2013 <f256main+0x179c>
    2c5f: e4 13        	cpx	$13                     ; 0x2013 <f256main+0x179c>
    2c61: a9 07        	lda	#$7
    2c63: b0 28        	bcs	$2c8d <updateDial+0x55>
    2c65: 38           	sec
    2c66: 98           	tya
    2c67: e5 15        	sbc	$15                     ; 0x2015 <f256main+0x179e>
    2c69: 85 12        	sta	$12                     ; 0x2012 <f256main+0x179b>
    2c6b: a9 00        	lda	#$0
    2c6d: e9 00        	sbc	#$0
    2c6f: e6 12        	inc	$12                     ; 0x2012 <f256main+0x179b>
    2c71: d0 01        	bne	$2c74 <updateDial+0x3c>
    2c73: 1a           	inc
    2c74: 4a           	lsr
    2c75: 66 12        	ror	$12                     ; 0x2012 <f256main+0x179b>
    2c77: 4a           	lsr
    2c78: 66 12        	ror	$12                     ; 0x2012 <f256main+0x179b>
    2c7a: 4a           	lsr
    2c7b: 66 12        	ror	$12                     ; 0x2012 <f256main+0x179b>
    2c7d: 8a           	txa
    2c7e: 38           	sec
    2c7f: e5 15        	sbc	$15                     ; 0x2015 <f256main+0x179e>
    2c81: a8           	tay
    2c82: a9 00        	lda	#$0
    2c84: e9 00        	sbc	#$0
    2c86: 64 13        	stz	$13                     ; 0x2013 <f256main+0x179c>
    2c88: aa           	tax
    2c89: 98           	tya
    2c8a: 20 a6 34     	jsr	$34a6 <__udivhi3>
    2c8d: 18           	clc
    2c8e: 69 20        	adc	#$20
    2c90: 85 18        	sta	$18                     ; 0x2018 <f256main+0x17a1>
    2c92: a9 00        	lda	#$0
    2c94: 69 00        	adc	#$0
    2c96: 85 e5        	sta	$e5                     ; 0x20e5 <f256main+0x186e>
    2c98: a9 00        	lda	#$0
    2c9a: 69 00        	adc	#$0
    2c9c: 85 e6        	sta	$e6                     ; 0x20e6 <f256main+0x186f>
    2c9e: a9 00        	lda	#$0
    2ca0: 69 00        	adc	#$0
    2ca2: 85 e7        	sta	$e7                     ; 0x20e7 <f256main+0x1870>
    2ca4: 64 12        	stz	$12                     ; 0x2012 <f256main+0x179b>
    2ca6: 64 13        	stz	$13                     ; 0x2013 <f256main+0x179c>
    2ca8: a4 e3        	ldy	$e3                     ; 0x20e3 <f256main+0x186c>
    2caa: a6 e3        	ldx	$e3                     ; 0x20e3 <f256main+0x186c>
    2cac: 86 e4        	stx	$e4                     ; 0x20e4 <f256main+0x186d>
    2cae: 84 14        	sty	$14                     ; 0x2014 <f256main+0x179d>
    2cb0: 64 15        	stz	$15                     ; 0x2015 <f256main+0x179e>
    2cb2: 64 16        	stz	$16                     ; 0x2016 <f256main+0x179f>
    2cb4: 64 17        	stz	$17                     ; 0x2017 <f256main+0x17a0>
    2cb6: a2 00        	ldx	#$0
    2cb8: a5 18        	lda	$18                     ; 0x2018 <f256main+0x17a1>
    2cba: 85 e3        	sta	$e3                     ; 0x20e3 <f256main+0x186c>
    2cbc: 98           	tya
    2cbd: 20 36 34     	jsr	$3436 <__mulsi3>
    2cc0: a4 e3        	ldy	$e3                     ; 0x20e3 <f256main+0x186c>
    2cc2: 84 14        	sty	$14                     ; 0x2014 <f256main+0x179d>
    2cc4: a4 e5        	ldy	$e5                     ; 0x20e5 <f256main+0x186e>
    2cc6: 84 15        	sty	$15                     ; 0x2015 <f256main+0x179e>
    2cc8: a4 e6        	ldy	$e6                     ; 0x20e6 <f256main+0x186f>
    2cca: 84 16        	sty	$16                     ; 0x2016 <f256main+0x179f>
    2ccc: a4 e7        	ldy	$e7                     ; 0x20e7 <f256main+0x1870>
    2cce: 84 17        	sty	$17                     ; 0x2017 <f256main+0x17a0>
    2cd0: 20 36 34     	jsr	$3436 <__mulsi3>
    2cd3: 86 14        	stx	$14                     ; 0x2014 <f256main+0x179d>
    2cd5: a6 13        	ldx	$13                     ; 0x2013 <f256main+0x179c>
    2cd7: 18           	clc
    2cd8: 69 00        	adc	#$0
    2cda: 85 16        	sta	$16                     ; 0x2016 <f256main+0x179f>
    2cdc: a5 14        	lda	$14                     ; 0x2014 <f256main+0x179d>
    2cde: 69 00        	adc	#$0
    2ce0: 85 17        	sta	$17                     ; 0x2017 <f256main+0x17a0>
    2ce2: a5 12        	lda	$12                     ; 0x2012 <f256main+0x179b>
    2ce4: 69 01        	adc	#$1
    2ce6: 85 13        	sta	$13                     ; 0x2013 <f256main+0x179c>
    2ce8: 8a           	txa
    2ce9: 69 00        	adc	#$0
    2ceb: 85 12        	sta	$12                     ; 0x2012 <f256main+0x179b>
    2ced: a5 e1        	lda	$e1                     ; 0x20e1 <f256main+0x186a>
    2cef: a6 e1        	ldx	$e1                     ; 0x20e1 <f256main+0x186a>
    2cf1: 86 e5        	stx	$e5                     ; 0x20e5 <f256main+0x186e>
    2cf3: 18           	clc
    2cf4: 69 08        	adc	#$8
    2cf6: 85 14        	sta	$14                     ; 0x2014 <f256main+0x179d>
    2cf8: a5 e2        	lda	$e2                     ; 0x20e2 <f256main+0x186b>
    2cfa: 69 00        	adc	#$0
    2cfc: a0 08        	ldy	#$8
    2cfe: 85 15        	sta	$15                     ; 0x2015 <f256main+0x179e>
    2d00: a5 16        	lda	$16                     ; 0x2016 <f256main+0x179f>
    2d02: 91 e1        	sta	($e1),y                 ; 0x20e1 <f256main+0x186a>
    2d04: a0 01        	ldy	#$1
    2d06: a5 17        	lda	$17                     ; 0x2017 <f256main+0x17a0>
    2d08: 91 14        	sta	($14),y                 ; 0x2014 <f256main+0x179d>
    2d0a: a6 17        	ldx	$17                     ; 0x2017 <f256main+0x17a0>
    2d0c: c8           	iny
    2d0d: a5 13        	lda	$13                     ; 0x2013 <f256main+0x179c>
    2d0f: 91 14        	sta	($14),y                 ; 0x2014 <f256main+0x179d>
    2d11: c8           	iny
    2d12: a5 12        	lda	$12                     ; 0x2012 <f256main+0x179b>
    2d14: 91 14        	sta	($14),y                 ; 0x2014 <f256main+0x179d>
    2d16: 85 14        	sta	$14                     ; 0x2014 <f256main+0x179d>
    2d18: b2 e1        	lda	($e1)                   ; 0x20e1 <f256main+0x186a>
    2d1a: 86 12        	stx	$12                     ; 0x2012 <f256main+0x179b>
    2d1c: a6 e4        	ldx	$e4                     ; 0x20e4 <f256main+0x186d>
    2d1e: 86 15        	stx	$15                     ; 0x2015 <f256main+0x179e>
    2d20: a6 16        	ldx	$16                     ; 0x2016 <f256main+0x179f>
    2d22: 20 0c 29     	jsr	$290c <spriteDefine>
    2d25: 18           	clc
    2d26: a5 e5        	lda	$e5                     ; 0x20e5 <f256main+0x186e>
    2d28: 69 03        	adc	#$3
    2d2a: 85 12        	sta	$12                     ; 0x2012 <f256main+0x179b>
    2d2c: a5 e2        	lda	$e2                     ; 0x20e2 <f256main+0x186b>
    2d2e: 69 00        	adc	#$0
    2d30: 85 13        	sta	$13                     ; 0x2013 <f256main+0x179c>
    2d32: b2 e1        	lda	($e1)                   ; 0x20e1 <f256main+0x186a>
    2d34: aa           	tax
    2d35: 0a           	asl
    2d36: 64 19        	stz	$19                     ; 0x2019 <f256main+0x17a2>
    2d38: 26 19        	rol	$19                     ; 0x2019 <f256main+0x17a2>
    2d3a: 85 14        	sta	$14                     ; 0x2014 <f256main+0x179d>
    2d3c: 06 14        	asl	$14                     ; 0x2014 <f256main+0x179d>
    2d3e: 26 19        	rol	$19                     ; 0x2019 <f256main+0x17a2>
    2d40: 06 14        	asl	$14                     ; 0x2014 <f256main+0x179d>
    2d42: a4 14        	ldy	$14                     ; 0x2014 <f256main+0x179d>
    2d44: 84 18        	sty	$18                     ; 0x2018 <f256main+0x17a1>
    2d46: 26 19        	rol	$19                     ; 0x2019 <f256main+0x17a2>
    2d48: a5 14        	lda	$14                     ; 0x2014 <f256main+0x179d>
    2d4a: 18           	clc
    2d4b: 69 04        	adc	#$4
    2d4d: 85 14        	sta	$14                     ; 0x2014 <f256main+0x179d>
    2d4f: a5 19        	lda	$19                     ; 0x2019 <f256main+0x17a2>
    2d51: 69 d9        	adc	#$d9
    2d53: 85 15        	sta	$15                     ; 0x2015 <f256main+0x179e>
    2d55: a4 e1        	ldy	$e1                     ; 0x20e1 <f256main+0x186a>
    2d57: 84 16        	sty	$16                     ; 0x2016 <f256main+0x179f>
    2d59: a4 e2        	ldy	$e2                     ; 0x20e2 <f256main+0x186b>
    2d5b: 84 17        	sty	$17                     ; 0x2017 <f256main+0x17a0>
    2d5d: e6 16        	inc	$16                     ; 0x2016 <f256main+0x179f>
    2d5f: d0 02        	bne	$2d63 <updateDial+0x12b>
    2d61: e6 17        	inc	$17                     ; 0x2017 <f256main+0x17a0>
    2d63: a0 03        	ldy	#$3
    2d65: b1 e1        	lda	($e1),y                 ; 0x20e1 <f256main+0x186a>
    2d67: 85 1a        	sta	$1a                     ; 0x201a <f256main+0x17a3>
    2d69: a0 01        	ldy	#$1
    2d6b: b1 e1        	lda	($e1),y                 ; 0x20e1 <f256main+0x186a>
    2d6d: 85 1b        	sta	$1b                     ; 0x201b <f256main+0x17a4>
    2d6f: b1 16        	lda	($16),y                 ; 0x2016 <f256main+0x179f>
    2d71: 85 17        	sta	$17                     ; 0x2017 <f256main+0x17a0>
    2d73: b1 12        	lda	($12),y                 ; 0x2012 <f256main+0x179b>
    2d75: 85 16        	sta	$16                     ; 0x2016 <f256main+0x179f>
    2d77: a5 1b        	lda	$1b                     ; 0x201b <f256main+0x17a4>
    2d79: 92 14        	sta	($14)                   ; 0x2014 <f256main+0x179d>
    2d7b: a5 17        	lda	$17                     ; 0x2017 <f256main+0x17a0>
    2d7d: 91 14        	sta	($14),y                 ; 0x2014 <f256main+0x179d>
    2d7f: a5 18        	lda	$18                     ; 0x2018 <f256main+0x17a1>
    2d81: 18           	clc
    2d82: 69 06        	adc	#$6
    2d84: 85 14        	sta	$14                     ; 0x2014 <f256main+0x179d>
    2d86: a5 19        	lda	$19                     ; 0x2019 <f256main+0x17a2>
    2d88: 69 d9        	adc	#$d9
    2d8a: 5a           	phy
    2d8b: a4 14        	ldy	$14                     ; 0x2014 <f256main+0x179d>
    2d8d: 84 12        	sty	$12                     ; 0x2012 <f256main+0x179b>
    2d8f: 7a           	ply
    2d90: 85 13        	sta	$13                     ; 0x2013 <f256main+0x179c>
    2d92: a5 1a        	lda	$1a                     ; 0x201a <f256main+0x17a3>
    2d94: 92 12        	sta	($12)                   ; 0x2012 <f256main+0x179b>
    2d96: a5 16        	lda	$16                     ; 0x2016 <f256main+0x179f>
    2d98: 91 12        	sta	($12),y                 ; 0x2012 <f256main+0x179b>
    2d9a: 18           	clc
    2d9b: a5 18        	lda	$18                     ; 0x2018 <f256main+0x17a1>
    2d9d: 69 00        	adc	#$0
    2d9f: 85 12        	sta	$12                     ; 0x2012 <f256main+0x179b>
    2da1: a5 19        	lda	$19                     ; 0x2019 <f256main+0x17a2>
    2da3: 69 d9        	adc	#$d9
    2da5: 85 13        	sta	$13                     ; 0x2013 <f256main+0x179c>
    2da7: a9 01        	lda	#$1
    2da9: 15 47        	ora	$47,x                   ; 0x2047 <f256main+0x17d0>
    2dab: 92 12        	sta	($12)                   ; 0x2012 <f256main+0x179b>
    2dad: 60           	rts

00002dae <updateSlider>:
    2dae: a6 12        	ldx	$12                     ; 0x2012 <f256main+0x179b>
    2db0: 86 e1        	stx	$e1                     ; 0x20e1 <f256main+0x186a>
    2db2: a6 13        	ldx	$13                     ; 0x2013 <f256main+0x179c>
    2db4: 86 e2        	stx	$e2                     ; 0x20e2 <f256main+0x186b>
    2db6: a0 0d        	ldy	#$d
    2db8: b1 12        	lda	($12),y                 ; 0x2012 <f256main+0x179b>
    2dba: 85 e3        	sta	$e3                     ; 0x20e3 <f256main+0x186c>
    2dbc: a0 13        	ldy	#$13
    2dbe: b1 12        	lda	($12),y                 ; 0x2012 <f256main+0x179b>
    2dc0: aa           	tax
    2dc1: c8           	iny
    2dc2: b1 12        	lda	($12),y                 ; 0x2012 <f256main+0x179b>
    2dc4: 85 15        	sta	$15                     ; 0x2015 <f256main+0x179e>
    2dc6: 86 13        	stx	$13                     ; 0x2013 <f256main+0x179c>
    2dc8: c5 13        	cmp	$13                     ; 0x2013 <f256main+0x179c>
    2dca: a9 00        	lda	#$0
    2dcc: b0 35        	bcs	$2e03 <updateSlider+0x55>
    2dce: a0 15        	ldy	#$15
    2dd0: b1 e1        	lda	($e1),y                 ; 0x20e1 <f256main+0x186a>
    2dd2: a8           	tay
    2dd3: 85 13        	sta	$13                     ; 0x2013 <f256main+0x179c>
    2dd5: e4 13        	cpx	$13                     ; 0x2013 <f256main+0x179c>
    2dd7: a9 07        	lda	#$7
    2dd9: b0 28        	bcs	$2e03 <updateSlider+0x55>
    2ddb: 38           	sec
    2ddc: 98           	tya
    2ddd: e5 15        	sbc	$15                     ; 0x2015 <f256main+0x179e>
    2ddf: 85 12        	sta	$12                     ; 0x2012 <f256main+0x179b>
    2de1: a9 00        	lda	#$0
    2de3: e9 00        	sbc	#$0
    2de5: e6 12        	inc	$12                     ; 0x2012 <f256main+0x179b>
    2de7: d0 01        	bne	$2dea <updateSlider+0x3c>
    2de9: 1a           	inc
    2dea: 4a           	lsr
    2deb: 66 12        	ror	$12                     ; 0x2012 <f256main+0x179b>
    2ded: 4a           	lsr
    2dee: 66 12        	ror	$12                     ; 0x2012 <f256main+0x179b>
    2df0: 4a           	lsr
    2df1: 66 12        	ror	$12                     ; 0x2012 <f256main+0x179b>
    2df3: 8a           	txa
    2df4: 38           	sec
    2df5: e5 15        	sbc	$15                     ; 0x2015 <f256main+0x179e>
    2df7: a8           	tay
    2df8: a9 00        	lda	#$0
    2dfa: e9 00        	sbc	#$0
    2dfc: 64 13        	stz	$13                     ; 0x2013 <f256main+0x179c>
    2dfe: aa           	tax
    2dff: 98           	tya
    2e00: 20 a6 34     	jsr	$34a6 <__udivhi3>
    2e03: 85 e7        	sta	$e7                     ; 0x20e7 <f256main+0x1870>
    2e05: a5 e3        	lda	$e3                     ; 0x20e3 <f256main+0x186c>
    2e07: a6 e3        	ldx	$e3                     ; 0x20e3 <f256main+0x186c>
    2e09: 86 e5        	stx	$e5                     ; 0x20e5 <f256main+0x186e>
    2e0b: 85 12        	sta	$12                     ; 0x2012 <f256main+0x179b>
    2e0d: 64 13        	stz	$13                     ; 0x2013 <f256main+0x179c>
    2e0f: a2 00        	ldx	#$0
    2e11: 20 04 34     	jsr	$3404 <__mulhi3>
    2e14: 85 15        	sta	$15                     ; 0x2015 <f256main+0x179e>
    2e16: 86 14        	stx	$14                     ; 0x2014 <f256main+0x179d>
    2e18: 85 12        	sta	$12                     ; 0x2012 <f256main+0x179b>
    2e1a: 06 12        	asl	$12                     ; 0x2012 <f256main+0x179b>
    2e1c: 86 13        	stx	$13                     ; 0x2013 <f256main+0x179c>
    2e1e: 26 13        	rol	$13                     ; 0x2013 <f256main+0x179c>
    2e20: 06 12        	asl	$12                     ; 0x2012 <f256main+0x179b>
    2e22: 26 13        	rol	$13                     ; 0x2013 <f256main+0x179c>
    2e24: 06 12        	asl	$12                     ; 0x2012 <f256main+0x179b>
    2e26: 26 13        	rol	$13                     ; 0x2013 <f256main+0x179c>
    2e28: a5 12        	lda	$12                     ; 0x2012 <f256main+0x179b>
    2e2a: 0a           	asl
    2e2b: a6 13        	ldx	$13                     ; 0x2013 <f256main+0x179c>
    2e2d: 86 16        	stx	$16                     ; 0x2016 <f256main+0x179f>
    2e2f: 26 16        	rol	$16                     ; 0x2016 <f256main+0x179f>
    2e31: 0a           	asl
    2e32: 26 16        	rol	$16                     ; 0x2016 <f256main+0x179f>
    2e34: 18           	clc
    2e35: 65 12        	adc	$12                     ; 0x2012 <f256main+0x179b>
    2e37: 85 e4        	sta	$e4                     ; 0x20e4 <f256main+0x186d>
    2e39: a5 16        	lda	$16                     ; 0x2016 <f256main+0x179f>
    2e3b: 65 13        	adc	$13                     ; 0x2013 <f256main+0x179c>
    2e3d: 85 e3        	sta	$e3                     ; 0x20e3 <f256main+0x186c>
    2e3f: a6 e7        	ldx	$e7                     ; 0x20e7 <f256main+0x1870>
    2e41: 86 12        	stx	$12                     ; 0x2012 <f256main+0x179b>
    2e43: 64 13        	stz	$13                     ; 0x2013 <f256main+0x179c>
    2e45: a6 14        	ldx	$14                     ; 0x2014 <f256main+0x179d>
    2e47: a5 15        	lda	$15                     ; 0x2015 <f256main+0x179e>
    2e49: 20 04 34     	jsr	$3404 <__mulhi3>
    2e4c: 85 12        	sta	$12                     ; 0x2012 <f256main+0x179b>
    2e4e: 86 13        	stx	$13                     ; 0x2013 <f256main+0x179c>
    2e50: 18           	clc
    2e51: a5 e4        	lda	$e4                     ; 0x20e4 <f256main+0x186d>
    2e53: 65 12        	adc	$12                     ; 0x2012 <f256main+0x179b>
    2e55: 85 16        	sta	$16                     ; 0x2016 <f256main+0x179f>
    2e57: a5 e3        	lda	$e3                     ; 0x20e3 <f256main+0x186c>
    2e59: 65 13        	adc	$13                     ; 0x2013 <f256main+0x179c>
    2e5b: aa           	tax
    2e5c: a9 01        	lda	#$1
    2e5e: 69 00        	adc	#$0
    2e60: 85 13        	sta	$13                     ; 0x2013 <f256main+0x179c>
    2e62: a9 00        	lda	#$0
    2e64: 69 00        	adc	#$0
    2e66: 85 14        	sta	$14                     ; 0x2014 <f256main+0x179d>
    2e68: a5 e1        	lda	$e1                     ; 0x20e1 <f256main+0x186a>
    2e6a: a4 e1        	ldy	$e1                     ; 0x20e1 <f256main+0x186a>
    2e6c: 84 e7        	sty	$e7                     ; 0x20e7 <f256main+0x1870>
    2e6e: a4 e2        	ldy	$e2                     ; 0x20e2 <f256main+0x186b>
    2e70: 84 e9        	sty	$e9                     ; 0x20e9 <f256main+0x1872>
    2e72: 18           	clc
    2e73: 69 08        	adc	#$8
    2e75: a8           	tay
    2e76: a5 e2        	lda	$e2                     ; 0x20e2 <f256main+0x186b>
    2e78: 69 00        	adc	#$0
    2e7a: 5a           	phy
    2e7b: a4 e1        	ldy	$e1                     ; 0x20e1 <f256main+0x186a>
    2e7d: 84 e3        	sty	$e3                     ; 0x20e3 <f256main+0x186c>
    2e7f: a4 e2        	ldy	$e2                     ; 0x20e2 <f256main+0x186b>
    2e81: 84 e4        	sty	$e4                     ; 0x20e4 <f256main+0x186d>
    2e83: 7a           	ply
    2e84: 84 e1        	sty	$e1                     ; 0x20e1 <f256main+0x186a>
    2e86: 85 e2        	sta	$e2                     ; 0x20e2 <f256main+0x186b>
    2e88: a0 08        	ldy	#$8
    2e8a: a5 16        	lda	$16                     ; 0x2016 <f256main+0x179f>
    2e8c: 91 e3        	sta	($e3),y                 ; 0x20e3 <f256main+0x186c>
    2e8e: 8a           	txa
    2e8f: a0 01        	ldy	#$1
    2e91: 91 e1        	sta	($e1),y                 ; 0x20e1 <f256main+0x186a>
    2e93: 86 12        	stx	$12                     ; 0x2012 <f256main+0x179b>
    2e95: c8           	iny
    2e96: a5 13        	lda	$13                     ; 0x2013 <f256main+0x179c>
    2e98: 91 e1        	sta	($e1),y                 ; 0x20e1 <f256main+0x186a>
    2e9a: c8           	iny
    2e9b: a5 14        	lda	$14                     ; 0x2014 <f256main+0x179d>
    2e9d: 91 e1        	sta	($e1),y                 ; 0x20e1 <f256main+0x186a>
    2e9f: b2 e3        	lda	($e3)                   ; 0x20e3 <f256main+0x186c>
    2ea1: a6 e5        	ldx	$e5                     ; 0x20e5 <f256main+0x186e>
    2ea3: 86 15        	stx	$15                     ; 0x2015 <f256main+0x179e>
    2ea5: a6 16        	ldx	$16                     ; 0x2016 <f256main+0x179f>
    2ea7: 20 0c 29     	jsr	$290c <spriteDefine>
    2eaa: b2 e3        	lda	($e3)                   ; 0x20e3 <f256main+0x186c>
    2eac: 85 16        	sta	$16                     ; 0x2016 <f256main+0x179f>
    2eae: 18           	clc
    2eaf: a5 e7        	lda	$e7                     ; 0x20e7 <f256main+0x1870>
    2eb1: 69 03        	adc	#$3
    2eb3: 85 12        	sta	$12                     ; 0x2012 <f256main+0x179b>
    2eb5: a5 e9        	lda	$e9                     ; 0x20e9 <f256main+0x1872>
    2eb7: 69 00        	adc	#$0
    2eb9: 85 13        	sta	$13                     ; 0x2013 <f256main+0x179c>
    2ebb: a6 12        	ldx	$12                     ; 0x2012 <f256main+0x179b>
    2ebd: 86 14        	stx	$14                     ; 0x2014 <f256main+0x179d>
    2ebf: 85 15        	sta	$15                     ; 0x2015 <f256main+0x179e>
    2ec1: a6 12        	ldx	$12                     ; 0x2012 <f256main+0x179b>
    2ec3: 86 e7        	stx	$e7                     ; 0x20e7 <f256main+0x1870>
    2ec5: 85 e8        	sta	$e8                     ; 0x20e8 <f256main+0x1871>
    2ec7: a6 16        	ldx	$16                     ; 0x2016 <f256main+0x179f>
    2ec9: 86 12        	stx	$12                     ; 0x2012 <f256main+0x179b>
    2ecb: 06 12        	asl	$12                     ; 0x2012 <f256main+0x179b>
    2ecd: 64 1b        	stz	$1b                     ; 0x201b <f256main+0x17a4>
    2ecf: 26 1b        	rol	$1b                     ; 0x201b <f256main+0x17a4>
    2ed1: 06 12        	asl	$12                     ; 0x2012 <f256main+0x179b>
    2ed3: 26 1b        	rol	$1b                     ; 0x201b <f256main+0x17a4>
    2ed5: 06 12        	asl	$12                     ; 0x2012 <f256main+0x179b>
    2ed7: a4 12        	ldy	$12                     ; 0x2012 <f256main+0x179b>
    2ed9: 84 1a        	sty	$1a                     ; 0x201a <f256main+0x17a3>
    2edb: 26 1b        	rol	$1b                     ; 0x201b <f256main+0x17a4>
    2edd: 18           	clc
    2ede: a5 12        	lda	$12                     ; 0x2012 <f256main+0x179b>
    2ee0: 69 04        	adc	#$4
    2ee2: 85 12        	sta	$12                     ; 0x2012 <f256main+0x179b>
    2ee4: a5 1b        	lda	$1b                     ; 0x201b <f256main+0x17a4>
    2ee6: 69 d9        	adc	#$d9
    2ee8: a4 e3        	ldy	$e3                     ; 0x20e3 <f256main+0x186c>
    2eea: 84 16        	sty	$16                     ; 0x2016 <f256main+0x179f>
    2eec: a4 e4        	ldy	$e4                     ; 0x20e4 <f256main+0x186d>
    2eee: 84 17        	sty	$17                     ; 0x2017 <f256main+0x17a0>
    2ef0: e6 16        	inc	$16                     ; 0x2016 <f256main+0x179f>
    2ef2: d0 02        	bne	$2ef6 <updateSlider+0x148>
    2ef4: e6 17        	inc	$17                     ; 0x2017 <f256main+0x17a0>
    2ef6: a4 16        	ldy	$16                     ; 0x2016 <f256main+0x179f>
    2ef8: 84 18        	sty	$18                     ; 0x2018 <f256main+0x17a1>
    2efa: a4 17        	ldy	$17                     ; 0x2017 <f256main+0x17a0>
    2efc: 84 19        	sty	$19                     ; 0x2019 <f256main+0x17a2>
    2efe: a4 18        	ldy	$18                     ; 0x2018 <f256main+0x17a1>
    2f00: 84 e5        	sty	$e5                     ; 0x20e5 <f256main+0x186e>
    2f02: a4 19        	ldy	$19                     ; 0x2019 <f256main+0x17a2>
    2f04: 84 e6        	sty	$e6                     ; 0x20e6 <f256main+0x186f>
    2f06: 85 13        	sta	$13                     ; 0x2013 <f256main+0x179c>
    2f08: a0 01        	ldy	#$1
    2f0a: b1 e3        	lda	($e3),y                 ; 0x20e3 <f256main+0x186c>
    2f0c: 85 18        	sta	$18                     ; 0x2018 <f256main+0x17a1>
    2f0e: b1 16        	lda	($16),y                 ; 0x2016 <f256main+0x179f>
    2f10: 85 17        	sta	$17                     ; 0x2017 <f256main+0x17a0>
    2f12: a0 03        	ldy	#$3
    2f14: b1 e3        	lda	($e3),y                 ; 0x20e3 <f256main+0x186c>
    2f16: 85 16        	sta	$16                     ; 0x2016 <f256main+0x179f>
    2f18: a0 01        	ldy	#$1
    2f1a: b1 14        	lda	($14),y                 ; 0x2014 <f256main+0x179d>
    2f1c: 85 14        	sta	$14                     ; 0x2014 <f256main+0x179d>
    2f1e: a5 18        	lda	$18                     ; 0x2018 <f256main+0x17a1>
    2f20: 92 12        	sta	($12)                   ; 0x2012 <f256main+0x179b>
    2f22: a5 17        	lda	$17                     ; 0x2017 <f256main+0x17a0>
    2f24: 91 12        	sta	($12),y                 ; 0x2012 <f256main+0x179b>
    2f26: 18           	clc
    2f27: a5 1a        	lda	$1a                     ; 0x201a <f256main+0x17a3>
    2f29: 69 06        	adc	#$6
    2f2b: 85 12        	sta	$12                     ; 0x2012 <f256main+0x179b>
    2f2d: a5 1b        	lda	$1b                     ; 0x201b <f256main+0x17a4>
    2f2f: 69 d9        	adc	#$d9
    2f31: 85 13        	sta	$13                     ; 0x2013 <f256main+0x179c>
    2f33: a5 16        	lda	$16                     ; 0x2016 <f256main+0x179f>
    2f35: 92 12        	sta	($12)                   ; 0x2012 <f256main+0x179b>
    2f37: a5 14        	lda	$14                     ; 0x2014 <f256main+0x179d>
    2f39: 91 12        	sta	($12),y                 ; 0x2012 <f256main+0x179b>
    2f3b: a0 08        	ldy	#$8
    2f3d: b1 e3        	lda	($e3),y                 ; 0x20e3 <f256main+0x186c>
    2f3f: 85 ed        	sta	$ed                     ; 0x20ed <f256main+0x1876>
    2f41: a0 02        	ldy	#$2
    2f43: b1 e1        	lda	($e1),y                 ; 0x20e1 <f256main+0x186a>
    2f45: 85 eb        	sta	$eb                     ; 0x20eb <f256main+0x1874>
    2f47: e8           	inx
    2f48: 86 ea        	stx	$ea                     ; 0x20ea <f256main+0x1873>
    2f4a: 88           	dey
    2f4b: b1 e1        	lda	($e1),y                 ; 0x20e1 <f256main+0x186a>
    2f4d: 85 ec        	sta	$ec                     ; 0x20ec <f256main+0x1875>
    2f4f: a0 0d        	ldy	#$d
    2f51: b1 e3        	lda	($e3),y                 ; 0x20e3 <f256main+0x186c>
    2f53: 85 e9        	sta	$e9                     ; 0x20e9 <f256main+0x1872>
    2f55: a5 e9        	lda	$e9                     ; 0x20e9 <f256main+0x1872>
    2f57: 85 15        	sta	$15                     ; 0x2015 <f256main+0x179e>
    2f59: 06 15        	asl	$15                     ; 0x2015 <f256main+0x179e>
    2f5b: 64 14        	stz	$14                     ; 0x2014 <f256main+0x179d>
    2f5d: 26 14        	rol	$14                     ; 0x2014 <f256main+0x179d>
    2f5f: 06 15        	asl	$15                     ; 0x2015 <f256main+0x179e>
    2f61: 26 14        	rol	$14                     ; 0x2014 <f256main+0x179d>
    2f63: 06 15        	asl	$15                     ; 0x2015 <f256main+0x179e>
    2f65: 26 14        	rol	$14                     ; 0x2014 <f256main+0x179d>
    2f67: a0 03        	ldy	#$3
    2f69: b1 e1        	lda	($e1),y                 ; 0x20e1 <f256main+0x186a>
    2f6b: 85 e1        	sta	$e1                     ; 0x20e1 <f256main+0x186a>
    2f6d: a6 e9        	ldx	$e9                     ; 0x20e9 <f256main+0x1872>
    2f6f: 86 12        	stx	$12                     ; 0x2012 <f256main+0x179b>
    2f71: 64 13        	stz	$13                     ; 0x2013 <f256main+0x179c>
    2f73: a6 14        	ldx	$14                     ; 0x2014 <f256main+0x179d>
    2f75: a5 15        	lda	$15                     ; 0x2015 <f256main+0x179e>
    2f77: 20 04 34     	jsr	$3404 <__mulhi3>
    2f7a: 85 12        	sta	$12                     ; 0x2012 <f256main+0x179b>
    2f7c: 86 13        	stx	$13                     ; 0x2013 <f256main+0x179c>
    2f7e: 18           	clc
    2f7f: a5 ed        	lda	$ed                     ; 0x20ed <f256main+0x1876>
    2f81: 65 12        	adc	$12                     ; 0x2012 <f256main+0x179b>
    2f83: aa           	tax
    2f84: a4 ec        	ldy	$ec                     ; 0x20ec <f256main+0x1875>
    2f86: 98           	tya
    2f87: 65 13        	adc	$13                     ; 0x2013 <f256main+0x179c>
    2f89: 85 14        	sta	$14                     ; 0x2014 <f256main+0x179d>
    2f8b: a5 eb        	lda	$eb                     ; 0x20eb <f256main+0x1874>
    2f8d: 69 00        	adc	#$0
    2f8f: 85 13        	sta	$13                     ; 0x2013 <f256main+0x179c>
    2f91: a5 e1        	lda	$e1                     ; 0x20e1 <f256main+0x186a>
    2f93: 69 00        	adc	#$0
    2f95: a4 14        	ldy	$14                     ; 0x2014 <f256main+0x179d>
    2f97: 84 12        	sty	$12                     ; 0x2012 <f256main+0x179b>
    2f99: 85 14        	sta	$14                     ; 0x2014 <f256main+0x179d>
    2f9b: a4 e9        	ldy	$e9                     ; 0x20e9 <f256main+0x1872>
    2f9d: 84 15        	sty	$15                     ; 0x2015 <f256main+0x179e>
    2f9f: a5 ea        	lda	$ea                     ; 0x20ea <f256main+0x1873>
    2fa1: 20 0c 29     	jsr	$290c <spriteDefine>
    2fa4: a0 0d        	ldy	#$d
    2fa6: b1 e3        	lda	($e3),y                 ; 0x20e3 <f256main+0x186c>
    2fa8: 85 16        	sta	$16                     ; 0x2016 <f256main+0x179f>
    2faa: b2 e3        	lda	($e3)                   ; 0x20e3 <f256main+0x186c>
    2fac: 85 18        	sta	$18                     ; 0x2018 <f256main+0x17a1>
    2fae: a0 01        	ldy	#$1
    2fb0: b1 e3        	lda	($e3),y                 ; 0x20e3 <f256main+0x186c>
    2fb2: 85 19        	sta	$19                     ; 0x2019 <f256main+0x17a2>
    2fb4: a6 e5        	ldx	$e5                     ; 0x20e5 <f256main+0x186e>
    2fb6: 86 12        	stx	$12                     ; 0x2012 <f256main+0x179b>
    2fb8: a6 e6        	ldx	$e6                     ; 0x20e6 <f256main+0x186f>
    2fba: 86 13        	stx	$13                     ; 0x2013 <f256main+0x179c>
    2fbc: b1 12        	lda	($12),y                 ; 0x2012 <f256main+0x179b>
    2fbe: 85 1a        	sta	$1a                     ; 0x201a <f256main+0x17a3>
    2fc0: a6 e7        	ldx	$e7                     ; 0x20e7 <f256main+0x1870>
    2fc2: 86 12        	stx	$12                     ; 0x2012 <f256main+0x179b>
    2fc4: a6 e8        	ldx	$e8                     ; 0x20e8 <f256main+0x1871>
    2fc6: 86 13        	stx	$13                     ; 0x2013 <f256main+0x179c>
    2fc8: b1 12        	lda	($12),y                 ; 0x2012 <f256main+0x179b>
    2fca: 85 12        	sta	$12                     ; 0x2012 <f256main+0x179b>
    2fcc: 18           	clc
    2fcd: a0 03        	ldy	#$3
    2fcf: a5 16        	lda	$16                     ; 0x2016 <f256main+0x179f>
    2fd1: 71 e3        	adc	($e3),y                 ; 0x20e3 <f256main+0x186c>
    2fd3: 85 16        	sta	$16                     ; 0x2016 <f256main+0x179f>
    2fd5: a5 12        	lda	$12                     ; 0x2012 <f256main+0x179b>
    2fd7: 69 00        	adc	#$0
    2fd9: 85 17        	sta	$17                     ; 0x2017 <f256main+0x17a0>
    2fdb: a6 18        	ldx	$18                     ; 0x2018 <f256main+0x17a1>
    2fdd: a5 18        	lda	$18                     ; 0x2018 <f256main+0x17a1>
    2fdf: 1a           	inc
    2fe0: 0a           	asl
    2fe1: 64 1b        	stz	$1b                     ; 0x201b <f256main+0x17a4>
    2fe3: 26 1b        	rol	$1b                     ; 0x201b <f256main+0x17a4>
    2fe5: 0a           	asl
    2fe6: 26 1b        	rol	$1b                     ; 0x201b <f256main+0x17a4>
    2fe8: 0a           	asl
    2fe9: 26 1b        	rol	$1b                     ; 0x201b <f256main+0x17a4>
    2feb: 85 1c        	sta	$1c                     ; 0x201c <f256main+0x17a5>
    2fed: 18           	clc
    2fee: 69 04        	adc	#$4
    2ff0: 85 12        	sta	$12                     ; 0x2012 <f256main+0x179b>
    2ff2: a5 1b        	lda	$1b                     ; 0x201b <f256main+0x17a4>
    2ff4: 69 d9        	adc	#$d9
    2ff6: 85 13        	sta	$13                     ; 0x2013 <f256main+0x179c>
    2ff8: a5 19        	lda	$19                     ; 0x2019 <f256main+0x17a2>
    2ffa: 92 12        	sta	($12)                   ; 0x2012 <f256main+0x179b>
    2ffc: a0 01        	ldy	#$1
    2ffe: a5 1a        	lda	$1a                     ; 0x201a <f256main+0x17a3>
    3000: 91 12        	sta	($12),y                 ; 0x2012 <f256main+0x179b>
    3002: 18           	clc
    3003: a5 1c        	lda	$1c                     ; 0x201c <f256main+0x17a5>
    3005: 69 06        	adc	#$6
    3007: 85 12        	sta	$12                     ; 0x2012 <f256main+0x179b>
    3009: a5 1b        	lda	$1b                     ; 0x201b <f256main+0x17a4>
    300b: 69 d9        	adc	#$d9
    300d: 85 13        	sta	$13                     ; 0x2013 <f256main+0x179c>
    300f: a5 16        	lda	$16                     ; 0x2016 <f256main+0x179f>
    3011: 92 12        	sta	($12)                   ; 0x2012 <f256main+0x179b>
    3013: a5 17        	lda	$17                     ; 0x2017 <f256main+0x17a0>
    3015: 91 12        	sta	($12),y                 ; 0x2012 <f256main+0x179b>
    3017: a5 18        	lda	$18                     ; 0x2018 <f256main+0x17a1>
    3019: 0a           	asl
    301a: 85 12        	sta	$12                     ; 0x2012 <f256main+0x179b>
    301c: a9 00        	lda	#$0
    301e: 2a           	rol
    301f: 06 12        	asl	$12                     ; 0x2012 <f256main+0x179b>
    3021: 2a           	rol
    3022: 06 12        	asl	$12                     ; 0x2012 <f256main+0x179b>
    3024: 2a           	rol
    3025: a8           	tay
    3026: 18           	clc
    3027: a5 12        	lda	$12                     ; 0x2012 <f256main+0x179b>
    3029: 69 00        	adc	#$0
    302b: 85 12        	sta	$12                     ; 0x2012 <f256main+0x179b>
    302d: 98           	tya
    302e: 69 d9        	adc	#$d9
    3030: 85 13        	sta	$13                     ; 0x2013 <f256main+0x179c>
    3032: a9 01        	lda	#$1
    3034: 15 47        	ora	$47,x                   ; 0x2047 <f256main+0x17d0>
    3036: 92 12        	sta	($12)                   ; 0x2012 <f256main+0x179b>
    3038: b2 e3        	lda	($e3)                   ; 0x20e3 <f256main+0x186c>
    303a: 1a           	inc
    303b: aa           	tax
    303c: 85 12        	sta	$12                     ; 0x2012 <f256main+0x179b>
    303e: a9 01        	lda	#$1
    3040: 15 47        	ora	$47,x                   ; 0x2047 <f256main+0x17d0>
    3042: 85 14        	sta	$14                     ; 0x2014 <f256main+0x179d>
    3044: a5 12        	lda	$12                     ; 0x2012 <f256main+0x179b>
    3046: 0a           	asl
    3047: 64 12        	stz	$12                     ; 0x2012 <f256main+0x179b>
    3049: 26 12        	rol	$12                     ; 0x2012 <f256main+0x179b>
    304b: 0a           	asl
    304c: 26 12        	rol	$12                     ; 0x2012 <f256main+0x179b>
    304e: 0a           	asl
    304f: 26 12        	rol	$12                     ; 0x2012 <f256main+0x179b>
    3051: 18           	clc
    3052: 69 00        	adc	#$0
    3054: aa           	tax
    3055: a5 12        	lda	$12                     ; 0x2012 <f256main+0x179b>
    3057: 69 d9        	adc	#$d9
    3059: 86 12        	stx	$12                     ; 0x2012 <f256main+0x179b>
    305b: 85 13        	sta	$13                     ; 0x2013 <f256main+0x179c>
    305d: a5 14        	lda	$14                     ; 0x2014 <f256main+0x179d>
    305f: 92 12        	sta	($12)                   ; 0x2012 <f256main+0x179b>
    3061: 60           	rts

00003062 <sid_setInstrument>:
    3062: a8           	tay
    3063: a9 00        	lda	#$0
    3065: 85 e6        	sta	$e6                     ; 0x20e6 <f256main+0x186f>
    3067: 98           	tya
    3068: f0 04        	beq	$306e <sid_setInstrument+0xc>
    306a: a0 d5        	ldy	#$d5
    306c: 80 02        	bra	$3070 <sid_setInstrument+0xe>
    306e: a0 d4        	ldy	#$d4
    3070: 84 e7        	sty	$e7                     ; 0x20e7 <f256main+0x1870>
    3072: e0 02        	cpx	#$2
    3074: f0 08        	beq	$307e <sid_setInstrument+0x1c>
    3076: e0 01        	cpx	#$1
    3078: d0 08        	bne	$3082 <sid_setInstrument+0x20>
    307a: a2 07        	ldx	#$7
    307c: 80 02        	bra	$3080 <sid_setInstrument+0x1e>
    307e: a2 0e        	ldx	#$e
    3080: 86 e6        	stx	$e6                     ; 0x20e6 <f256main+0x186f>
    3082: a0 01        	ldy	#$1
    3084: b1 12        	lda	($12),y                 ; 0x2012 <f256main+0x179b>
    3086: 85 17        	sta	$17                     ; 0x2017 <f256main+0x17a0>
    3088: a6 e6        	ldx	$e6                     ; 0x20e6 <f256main+0x186f>
    308a: 86 16        	stx	$16                     ; 0x2016 <f256main+0x179f>
    308c: 8a           	txa
    308d: 18           	clc
    308e: 69 02        	adc	#$2
    3090: 85 14        	sta	$14                     ; 0x2014 <f256main+0x179d>
    3092: a6 e7        	ldx	$e7                     ; 0x20e7 <f256main+0x1870>
    3094: 8a           	txa
    3095: 69 00        	adc	#$0
    3097: 85 15        	sta	$15                     ; 0x2015 <f256main+0x179e>
    3099: a5 17        	lda	$17                     ; 0x2017 <f256main+0x17a0>
    309b: 92 14        	sta	($14)                   ; 0x2014 <f256main+0x179d>
    309d: c8           	iny
    309e: b1 12        	lda	($12),y                 ; 0x2012 <f256main+0x179b>
    30a0: 85 17        	sta	$17                     ; 0x2017 <f256main+0x17a0>
    30a2: a5 16        	lda	$16                     ; 0x2016 <f256main+0x179f>
    30a4: 18           	clc
    30a5: 69 03        	adc	#$3
    30a7: 85 14        	sta	$14                     ; 0x2014 <f256main+0x179d>
    30a9: 8a           	txa
    30aa: 69 00        	adc	#$0
    30ac: 85 15        	sta	$15                     ; 0x2015 <f256main+0x179e>
    30ae: a5 17        	lda	$17                     ; 0x2017 <f256main+0x17a0>
    30b0: 92 14        	sta	($14)                   ; 0x2014 <f256main+0x179d>
    30b2: c8           	iny
    30b3: b1 12        	lda	($12),y                 ; 0x2012 <f256main+0x179b>
    30b5: 85 17        	sta	$17                     ; 0x2017 <f256main+0x17a0>
    30b7: a5 16        	lda	$16                     ; 0x2016 <f256main+0x179f>
    30b9: 18           	clc
    30ba: 69 05        	adc	#$5
    30bc: 85 14        	sta	$14                     ; 0x2014 <f256main+0x179d>
    30be: 8a           	txa
    30bf: 69 00        	adc	#$0
    30c1: 85 15        	sta	$15                     ; 0x2015 <f256main+0x179e>
    30c3: a5 17        	lda	$17                     ; 0x2017 <f256main+0x17a0>
    30c5: 92 14        	sta	($14)                   ; 0x2014 <f256main+0x179d>
    30c7: a5 16        	lda	$16                     ; 0x2016 <f256main+0x179f>
    30c9: 18           	clc
    30ca: 69 06        	adc	#$6
    30cc: 85 14        	sta	$14                     ; 0x2014 <f256main+0x179d>
    30ce: 8a           	txa
    30cf: 69 00        	adc	#$0
    30d1: 18           	clc
    30d2: 85 15        	sta	$15                     ; 0x2015 <f256main+0x179e>
    30d4: c8           	iny
    30d5: b1 12        	lda	($12),y                 ; 0x2012 <f256main+0x179b>
    30d7: 92 14        	sta	($14)                   ; 0x2014 <f256main+0x179d>
    30d9: a5 16        	lda	$16                     ; 0x2016 <f256main+0x179f>
    30db: 69 04        	adc	#$4
    30dd: 85 14        	sta	$14                     ; 0x2014 <f256main+0x179d>
    30df: 8a           	txa
    30e0: 69 00        	adc	#$0
    30e2: 85 15        	sta	$15                     ; 0x2015 <f256main+0x179e>
    30e4: c8           	iny
    30e5: b1 12        	lda	($12),y                 ; 0x2012 <f256main+0x179b>
    30e7: 92 14        	sta	($14)                   ; 0x2014 <f256main+0x179d>
    30e9: 60           	rts

000030ea <exit>:
    30ea: 20 23 03     	jsr	$323 <_fini>
    30ed: 80 fe        	bra	$30ed <exit+0x3>

000030ef <malloc>:
    30ef: a8           	tay
    30f0: 8a           	txa
    30f1: a2 00        	ldx	#$0
    30f3: 86 12        	stx	$12                     ; 0x2012 <f256main+0x179b>
    30f5: a2 00        	ldx	#$0
    30f7: 86 13        	stx	$13                     ; 0x2013 <f256main+0x179c>
    30f9: aa           	tax
    30fa: d0 07        	bne	$3103 <malloc+0x14>
    30fc: c0 00        	cpy	#$0
    30fe: d0 03        	bne	$3103 <malloc+0x14>
    3100: 4c ff 31     	jmp	$31ff <malloc+0x110>
    3103: 84 16        	sty	$16                     ; 0x2016 <f256main+0x179f>
    3105: aa           	tax
    3106: d0 0e        	bne	$3116 <malloc+0x27>
    3108: a6 16        	ldx	$16                     ; 0x2016 <f256main+0x179f>
    310a: e0 07        	cpx	#$7
    310c: b0 0c        	bcs	$311a <malloc+0x2b>
    310e: a2 08        	ldx	#$8
    3110: 86 e1        	stx	$e1                     ; 0x20e1 <f256main+0x186a>
    3112: a9 00        	lda	#$0
    3114: 80 2f        	bra	$3145 <malloc+0x56>
    3116: c9 00        	cmp	#$0
    3118: 90 f4        	bcc	$310e <malloc+0x1f>
    311a: a8           	tay
    311b: a5 16        	lda	$16                     ; 0x2016 <f256main+0x179f>
    311d: 29 01        	and	#$1
    311f: a2 02        	ldx	#$2
    3121: 64 14        	stz	$14                     ; 0x2014 <f256main+0x179d>
    3123: c9 00        	cmp	#$0
    3125: f0 02        	beq	$3129 <malloc+0x3a>
    3127: a2 03        	ldx	#$3
    3129: 86 15        	stx	$15                     ; 0x2015 <f256main+0x179e>
    312b: 18           	clc
    312c: a5 16        	lda	$16                     ; 0x2016 <f256main+0x179f>
    312e: 65 15        	adc	$15                     ; 0x2015 <f256main+0x179e>
    3130: aa           	tax
    3131: 98           	tya
    3132: 65 14        	adc	$14                     ; 0x2014 <f256main+0x179d>
    3134: 90 03        	bcc	$3139 <malloc+0x4a>
    3136: 4c ff 31     	jmp	$31ff <malloc+0x110>
    3139: 86 e1        	stx	$e1                     ; 0x20e1 <f256main+0x186a>
    313b: a8           	tay
    313c: d0 07        	bne	$3145 <malloc+0x56>
    313e: e0 00        	cpx	#$0
    3140: d0 03        	bne	$3145 <malloc+0x56>
    3142: 4c ff 31     	jmp	$31ff <malloc+0x110>
    3145: 85 e2        	sta	$e2                     ; 0x20e2 <f256main+0x186b>
    3147: ad 7d 3a     	lda	$3a7d                   ; 0x3a7d <_ZN12_GLOBAL__N_111initializedE>
    314a: 29 01        	and	#$1
    314c: d0 2a        	bne	$3178 <malloc+0x89>
    314e: a9 00        	lda	#$0
    3150: a2 10        	ldx	#$10
    3152: a0 8c        	ldy	#$8c
    3154: 84 12        	sty	$12                     ; 0x2012 <f256main+0x179b>
    3156: a0 3a        	ldy	#$3a
    3158: 84 13        	sty	$13                     ; 0x2013 <f256main+0x179c>
    315a: 20 24 03     	jsr	$324 <_ZN12_GLOBAL__N_19FreeChunk6insertEPvj>
    315d: a2 00        	ldx	#$0
    315f: 86 12        	stx	$12                     ; 0x2012 <f256main+0x179b>
    3161: a2 00        	ldx	#$0
    3163: 86 13        	stx	$13                     ; 0x2013 <f256main+0x179c>
    3165: ae 8d 3a     	ldx	$3a8d                   ; 0x3a8d <__heap_start+0x1>
    3168: a9 fe        	lda	#$fe
    316a: 2d 8c 3a     	and	$3a8c                   ; 0x3a8c <__heap_start>
    316d: 8d 8c 3a     	sta	$3a8c                   ; 0x3a8c <__heap_start>
    3170: 8e 8d 3a     	stx	$3a8d                   ; 0x3a8d <__heap_start+0x1>
    3173: a2 01        	ldx	#$1
    3175: 8e 7d 3a     	stx	$3a7d                   ; 0x3a7d <_ZN12_GLOBAL__N_111initializedE>
    3178: ad 80 3a     	lda	$3a80                   ; 0x3a80 <_ZN12_GLOBAL__N_19free_listE>
    317b: ae 81 3a     	ldx	$3a81                   ; 0x3a81 <_ZN12_GLOBAL__N_19free_listE+0x1>
    317e: a0 00        	ldy	#$0
    3180: 84 14        	sty	$14                     ; 0x2014 <f256main+0x179d>
    3182: a0 00        	ldy	#$0
    3184: 84 15        	sty	$15                     ; 0x2015 <f256main+0x179e>
    3186: 86 1d        	stx	$1d                     ; 0x201d <f256main+0x17a6>
    3188: e4 15        	cpx	$15                     ; 0x2015 <f256main+0x179e>
    318a: d0 07        	bne	$3193 <malloc+0xa4>
    318c: c5 14        	cmp	$14                     ; 0x2014 <f256main+0x179d>
    318e: d0 03        	bne	$3193 <malloc+0xa4>
    3190: 4c ff 31     	jmp	$31ff <malloc+0x110>
    3193: a0 00        	ldy	#$0
    3195: a2 10        	ldx	#$10
    3197: 85 18        	sta	$18                     ; 0x2018 <f256main+0x17a1>
    3199: 84 14        	sty	$14                     ; 0x2014 <f256main+0x179d>
    319b: 86 15        	stx	$15                     ; 0x2015 <f256main+0x179e>
    319d: 18           	clc
    319e: a9 8c        	lda	#$8c
    31a0: 65 14        	adc	$14                     ; 0x2014 <f256main+0x179d>
    31a2: 85 14        	sta	$14                     ; 0x2014 <f256main+0x179d>
    31a4: a9 3a        	lda	#$3a
    31a6: 65 15        	adc	$15                     ; 0x2015 <f256main+0x179e>
    31a8: a6 14        	ldx	$14                     ; 0x2014 <f256main+0x179d>
    31aa: 86 e3        	stx	$e3                     ; 0x20e3 <f256main+0x186c>
    31ac: 85 17        	sta	$17                     ; 0x2017 <f256main+0x17a0>
    31ae: a6 18        	ldx	$18                     ; 0x2018 <f256main+0x17a1>
    31b0: 86 1c        	stx	$1c                     ; 0x201c <f256main+0x17a5>
    31b2: a6 18        	ldx	$18                     ; 0x2018 <f256main+0x17a1>
    31b4: 86 14        	stx	$14                     ; 0x2014 <f256main+0x179d>
    31b6: a6 1d        	ldx	$1d                     ; 0x201d <f256main+0x17a6>
    31b8: 86 15        	stx	$15                     ; 0x2015 <f256main+0x179e>
    31ba: a0 01        	ldy	#$1
    31bc: a6 e2        	ldx	$e2                     ; 0x20e2 <f256main+0x186b>
    31be: 86 18        	stx	$18                     ; 0x2018 <f256main+0x17a1>
    31c0: b1 14        	lda	($14),y                 ; 0x2014 <f256main+0x179d>
    31c2: 85 19        	sta	$19                     ; 0x2019 <f256main+0x17a2>
    31c4: aa           	tax
    31c5: a9 fe        	lda	#$fe
    31c7: 32 14        	and	($14)                   ; 0x2014 <f256main+0x179d>
    31c9: 85 1a        	sta	$1a                     ; 0x201a <f256main+0x17a3>
    31cb: e4 18        	cpx	$18                     ; 0x2018 <f256main+0x17a1>
    31cd: d0 0a        	bne	$31d9 <malloc+0xea>
    31cf: a6 e1        	ldx	$e1                     ; 0x20e1 <f256main+0x186a>
    31d1: 86 1b        	stx	$1b                     ; 0x201b <f256main+0x17a4>
    31d3: c5 1b        	cmp	$1b                     ; 0x201b <f256main+0x17a4>
    31d5: b0 29        	bcs	$3200 <malloc+0x111>
    31d7: 80 04        	bra	$31dd <malloc+0xee>
    31d9: e4 18        	cpx	$18                     ; 0x2018 <f256main+0x17a1>
    31db: b0 23        	bcs	$3200 <malloc+0x111>
    31dd: a5 14        	lda	$14                     ; 0x2014 <f256main+0x179d>
    31df: 18           	clc
    31e0: 69 02        	adc	#$2
    31e2: 85 1a        	sta	$1a                     ; 0x201a <f256main+0x17a3>
    31e4: a5 15        	lda	$15                     ; 0x2015 <f256main+0x179e>
    31e6: 69 00        	adc	#$0
    31e8: 85 1b        	sta	$1b                     ; 0x201b <f256main+0x17a4>
    31ea: a0 02        	ldy	#$2
    31ec: b1 14        	lda	($14),y                 ; 0x2014 <f256main+0x179d>
    31ee: 85 14        	sta	$14                     ; 0x2014 <f256main+0x179d>
    31f0: 88           	dey
    31f1: b1 1a        	lda	($1a),y                 ; 0x201a <f256main+0x17a3>
    31f3: 85 15        	sta	$15                     ; 0x2015 <f256main+0x179e>
    31f5: c5 1d        	cmp	$1d                     ; 0x201d <f256main+0x17a6>
    31f7: d0 c7        	bne	$31c0 <malloc+0xd1>
    31f9: a5 14        	lda	$14                     ; 0x2014 <f256main+0x179d>
    31fb: c5 1c        	cmp	$1c                     ; 0x201c <f256main+0x17a5>
    31fd: d0 c1        	bne	$31c0 <malloc+0xd1>
    31ff: 60           	rts
    3200: ad 7e 3a     	lda	$3a7e                   ; 0x3a7e <_ZN12_GLOBAL__N_19free_sizeE>
    3203: ae 7f 3a     	ldx	$3a7f                   ; 0x3a7f <_ZN12_GLOBAL__N_19free_sizeE+0x1>
    3206: 86 12        	stx	$12                     ; 0x2012 <f256main+0x179b>
    3208: 38           	sec
    3209: e5 1a        	sbc	$1a                     ; 0x201a <f256main+0x17a3>
    320b: aa           	tax
    320c: a5 12        	lda	$12                     ; 0x2012 <f256main+0x179b>
    320e: e5 19        	sbc	$19                     ; 0x2019 <f256main+0x17a2>
    3210: 85 12        	sta	$12                     ; 0x2012 <f256main+0x179b>
    3212: 18           	clc
    3213: 8a           	txa
    3214: 69 02        	adc	#$2
    3216: 85 13        	sta	$13                     ; 0x2013 <f256main+0x179c>
    3218: a5 12        	lda	$12                     ; 0x2012 <f256main+0x179b>
    321a: 69 00        	adc	#$0
    321c: a6 13        	ldx	$13                     ; 0x2013 <f256main+0x179c>
    321e: 8e 7e 3a     	stx	$3a7e                   ; 0x3a7e <_ZN12_GLOBAL__N_19free_sizeE>
    3221: 8d 7f 3a     	sta	$3a7f                   ; 0x3a7f <_ZN12_GLOBAL__N_19free_sizeE+0x1>
    3224: a0 02        	ldy	#$2
    3226: a5 14        	lda	$14                     ; 0x2014 <f256main+0x179d>
    3228: 18           	clc
    3229: 69 02        	adc	#$2
    322b: 85 12        	sta	$12                     ; 0x2012 <f256main+0x179b>
    322d: a5 15        	lda	$15                     ; 0x2015 <f256main+0x179e>
    322f: 69 00        	adc	#$0
    3231: 85 13        	sta	$13                     ; 0x2013 <f256main+0x179c>
    3233: b1 14        	lda	($14),y                 ; 0x2014 <f256main+0x179d>
    3235: 85 1e        	sta	$1e                     ; 0x201e <f256main+0x17a7>
    3237: 88           	dey
    3238: b1 12        	lda	($12),y                 ; 0x2012 <f256main+0x179b>
    323a: 85 1f        	sta	$1f                     ; 0x201f <f256main+0x17a8>
    323c: c5 15        	cmp	$15                     ; 0x2015 <f256main+0x179e>
    323e: d0 15        	bne	$3255 <malloc+0x166>
    3240: a5 e2        	lda	$e2                     ; 0x20e2 <f256main+0x186b>
    3242: a6 1e        	ldx	$1e                     ; 0x201e <f256main+0x17a7>
    3244: e4 14        	cpx	$14                     ; 0x2014 <f256main+0x179d>
    3246: d0 0d        	bne	$3255 <malloc+0x166>
    3248: 85 1a        	sta	$1a                     ; 0x201a <f256main+0x17a3>
    324a: a2 00        	ldx	#$0
    324c: 86 18        	stx	$18                     ; 0x2018 <f256main+0x17a1>
    324e: a2 00        	ldx	#$0
    3250: 86 19        	stx	$19                     ; 0x2019 <f256main+0x17a2>
    3252: 4c cf 32     	jmp	$32cf <malloc+0x1e0>
    3255: 18           	clc
    3256: a5 14        	lda	$14                     ; 0x2014 <f256main+0x179d>
    3258: 69 04        	adc	#$4
    325a: 85 18        	sta	$18                     ; 0x2018 <f256main+0x17a1>
    325c: a5 15        	lda	$15                     ; 0x2015 <f256main+0x179e>
    325e: 69 00        	adc	#$0
    3260: 85 19        	sta	$19                     ; 0x2019 <f256main+0x17a2>
    3262: a0 04        	ldy	#$4
    3264: b1 14        	lda	($14),y                 ; 0x2014 <f256main+0x179d>
    3266: 85 23        	sta	$23                     ; 0x2023 <f256main+0x17ac>
    3268: 18           	clc
    3269: 69 02        	adc	#$2
    326b: 85 1a        	sta	$1a                     ; 0x201a <f256main+0x17a3>
    326d: a0 01        	ldy	#$1
    326f: b1 18        	lda	($18),y                 ; 0x2018 <f256main+0x17a1>
    3271: 85 22        	sta	$22                     ; 0x2022 <f256main+0x17ab>
    3273: 69 00        	adc	#$0
    3275: a6 1a        	ldx	$1a                     ; 0x201a <f256main+0x17a3>
    3277: 86 18        	stx	$18                     ; 0x2018 <f256main+0x17a1>
    3279: 85 19        	sta	$19                     ; 0x2019 <f256main+0x17a2>
    327b: a6 23        	ldx	$23                     ; 0x2023 <f256main+0x17ac>
    327d: 86 1a        	stx	$1a                     ; 0x201a <f256main+0x17a3>
    327f: a6 22        	ldx	$22                     ; 0x2022 <f256main+0x17ab>
    3281: 86 1b        	stx	$1b                     ; 0x201b <f256main+0x17a4>
    3283: c8           	iny
    3284: a5 1e        	lda	$1e                     ; 0x201e <f256main+0x17a7>
    3286: 91 1a        	sta	($1a),y                 ; 0x201a <f256main+0x17a3>
    3288: a5 1f        	lda	$1f                     ; 0x201f <f256main+0x17a8>
    328a: 88           	dey
    328b: 91 18        	sta	($18),y                 ; 0x2018 <f256main+0x17a1>
    328d: 18           	clc
    328e: a5 14        	lda	$14                     ; 0x2014 <f256main+0x179d>
    3290: 69 02        	adc	#$2
    3292: 85 1a        	sta	$1a                     ; 0x201a <f256main+0x17a3>
    3294: a5 15        	lda	$15                     ; 0x2015 <f256main+0x179e>
    3296: 69 00        	adc	#$0
    3298: 85 1b        	sta	$1b                     ; 0x201b <f256main+0x17a4>
    329a: c8           	iny
    329b: b1 14        	lda	($14),y                 ; 0x2014 <f256main+0x179d>
    329d: 85 18        	sta	$18                     ; 0x2018 <f256main+0x17a1>
    329f: aa           	tax
    32a0: 88           	dey
    32a1: b1 1a        	lda	($1a),y                 ; 0x201a <f256main+0x17a3>
    32a3: 85 19        	sta	$19                     ; 0x2019 <f256main+0x17a2>
    32a5: 85 16        	sta	$16                     ; 0x2016 <f256main+0x179f>
    32a7: a0 04        	ldy	#$4
    32a9: a5 23        	lda	$23                     ; 0x2023 <f256main+0x17ac>
    32ab: 91 18        	sta	($18),y                 ; 0x2018 <f256main+0x17a1>
    32ad: 18           	clc
    32ae: 8a           	txa
    32af: 69 04        	adc	#$4
    32b1: 85 1a        	sta	$1a                     ; 0x201a <f256main+0x17a3>
    32b3: a5 16        	lda	$16                     ; 0x2016 <f256main+0x179f>
    32b5: 69 00        	adc	#$0
    32b7: 85 1b        	sta	$1b                     ; 0x201b <f256main+0x17a4>
    32b9: a5 22        	lda	$22                     ; 0x2022 <f256main+0x17ab>
    32bb: a0 01        	ldy	#$1
    32bd: 91 1a        	sta	($1a),y                 ; 0x201a <f256main+0x17a3>
    32bf: a5 e2        	lda	$e2                     ; 0x20e2 <f256main+0x186b>
    32c1: 85 1a        	sta	$1a                     ; 0x201a <f256main+0x17a3>
    32c3: a6 1d        	ldx	$1d                     ; 0x201d <f256main+0x17a6>
    32c5: e4 15        	cpx	$15                     ; 0x2015 <f256main+0x179e>
    32c7: d0 10        	bne	$32d9 <malloc+0x1ea>
    32c9: a6 1c        	ldx	$1c                     ; 0x201c <f256main+0x17a5>
    32cb: e4 14        	cpx	$14                     ; 0x2014 <f256main+0x179d>
    32cd: d0 0a        	bne	$32d9 <malloc+0x1ea>
    32cf: a6 18        	ldx	$18                     ; 0x2018 <f256main+0x17a1>
    32d1: a4 19        	ldy	$19                     ; 0x2019 <f256main+0x17a2>
    32d3: 8e 80 3a     	stx	$3a80                   ; 0x3a80 <_ZN12_GLOBAL__N_19free_listE>
    32d6: 8c 81 3a     	sty	$3a81                   ; 0x3a81 <_ZN12_GLOBAL__N_19free_listE+0x1>
    32d9: a0 01        	ldy	#$1
    32db: b1 14        	lda	($14),y                 ; 0x2014 <f256main+0x179d>
    32dd: 85 16        	sta	$16                     ; 0x2016 <f256main+0x179f>
    32df: a9 fe        	lda	#$fe
    32e1: 32 14        	and	($14)                   ; 0x2014 <f256main+0x179d>
    32e3: 38           	sec
    32e4: a6 e1        	ldx	$e1                     ; 0x20e1 <f256main+0x186a>
    32e6: 86 18        	stx	$18                     ; 0x2018 <f256main+0x17a1>
    32e8: a8           	tay
    32e9: e5 18        	sbc	$18                     ; 0x2018 <f256main+0x17a1>
    32eb: 85 19        	sta	$19                     ; 0x2019 <f256main+0x17a2>
    32ed: a5 16        	lda	$16                     ; 0x2016 <f256main+0x179f>
    32ef: a6 16        	ldx	$16                     ; 0x2016 <f256main+0x179f>
    32f1: e5 1a        	sbc	$1a                     ; 0x201a <f256main+0x17a3>
    32f3: f0 03        	beq	$32f8 <malloc+0x209>
    32f5: 4c 83 33     	jmp	$3383 <malloc+0x294>
    32f8: 85 16        	sta	$16                     ; 0x2016 <f256main+0x179f>
    32fa: a5 19        	lda	$19                     ; 0x2019 <f256main+0x17a2>
    32fc: c9 08        	cmp	#$8
    32fe: 86 18        	stx	$18                     ; 0x2018 <f256main+0x17a1>
    3300: b0 03        	bcs	$3305 <malloc+0x216>
    3302: 4c 66 33     	jmp	$3366 <malloc+0x277>
    3305: a6 17        	ldx	$17                     ; 0x2017 <f256main+0x17a0>
    3307: 86 e8        	stx	$e8                     ; 0x20e8 <f256main+0x1871>
    3309: a6 e3        	ldx	$e3                     ; 0x20e3 <f256main+0x186c>
    330b: 86 e3        	stx	$e3                     ; 0x20e3 <f256main+0x186c>
    330d: a6 12        	ldx	$12                     ; 0x2012 <f256main+0x179b>
    330f: 86 e4        	stx	$e4                     ; 0x20e4 <f256main+0x186d>
    3311: a6 13        	ldx	$13                     ; 0x2013 <f256main+0x179c>
    3313: 86 e5        	stx	$e5                     ; 0x20e5 <f256main+0x186e>
    3315: a8           	tay
    3316: 18           	clc
    3317: a5 e1        	lda	$e1                     ; 0x20e1 <f256main+0x186a>
    3319: 85 e1        	sta	$e1                     ; 0x20e1 <f256main+0x186a>
    331b: 65 14        	adc	$14                     ; 0x2014 <f256main+0x179d>
    331d: 85 12        	sta	$12                     ; 0x2012 <f256main+0x179b>
    331f: a5 1a        	lda	$1a                     ; 0x201a <f256main+0x17a3>
    3321: a6 1a        	ldx	$1a                     ; 0x201a <f256main+0x17a3>
    3323: 86 e2        	stx	$e2                     ; 0x20e2 <f256main+0x186b>
    3325: 65 15        	adc	$15                     ; 0x2015 <f256main+0x179e>
    3327: 85 13        	sta	$13                     ; 0x2013 <f256main+0x179c>
    3329: a6 16        	ldx	$16                     ; 0x2016 <f256main+0x179f>
    332b: 98           	tya
    332c: a4 14        	ldy	$14                     ; 0x2014 <f256main+0x179d>
    332e: 84 e6        	sty	$e6                     ; 0x20e6 <f256main+0x186f>
    3330: a4 15        	ldy	$15                     ; 0x2015 <f256main+0x179e>
    3332: 84 e7        	sty	$e7                     ; 0x20e7 <f256main+0x1870>
    3334: 20 24 03     	jsr	$324 <_ZN12_GLOBAL__N_19FreeChunk6insertEPvj>
    3337: a6 e6        	ldx	$e6                     ; 0x20e6 <f256main+0x186f>
    3339: 86 14        	stx	$14                     ; 0x2014 <f256main+0x179d>
    333b: a6 e7        	ldx	$e7                     ; 0x20e7 <f256main+0x1870>
    333d: 86 15        	stx	$15                     ; 0x2015 <f256main+0x179e>
    333f: a5 e1        	lda	$e1                     ; 0x20e1 <f256main+0x186a>
    3341: 29 fe        	and	#$fe
    3343: 85 12        	sta	$12                     ; 0x2012 <f256main+0x179b>
    3345: a0 01        	ldy	#$1
    3347: 98           	tya
    3348: 32 14        	and	($14)                   ; 0x2014 <f256main+0x179d>
    334a: 05 12        	ora	$12                     ; 0x2012 <f256main+0x179b>
    334c: 92 14        	sta	($14)                   ; 0x2014 <f256main+0x179d>
    334e: a5 e2        	lda	$e2                     ; 0x20e2 <f256main+0x186b>
    3350: 91 14        	sta	($14),y                 ; 0x2014 <f256main+0x179d>
    3352: a4 12        	ldy	$12                     ; 0x2012 <f256main+0x179b>
    3354: 85 18        	sta	$18                     ; 0x2018 <f256main+0x17a1>
    3356: a6 e4        	ldx	$e4                     ; 0x20e4 <f256main+0x186d>
    3358: 86 12        	stx	$12                     ; 0x2012 <f256main+0x179b>
    335a: a6 e5        	ldx	$e5                     ; 0x20e5 <f256main+0x186e>
    335c: 86 13        	stx	$13                     ; 0x2013 <f256main+0x179c>
    335e: a6 e3        	ldx	$e3                     ; 0x20e3 <f256main+0x186c>
    3360: 86 e3        	stx	$e3                     ; 0x20e3 <f256main+0x186c>
    3362: a6 e8        	ldx	$e8                     ; 0x20e8 <f256main+0x1871>
    3364: 86 17        	stx	$17                     ; 0x2017 <f256main+0x17a0>
    3366: 18           	clc
    3367: 98           	tya
    3368: 65 14        	adc	$14                     ; 0x2014 <f256main+0x179d>
    336a: 85 16        	sta	$16                     ; 0x2016 <f256main+0x179f>
    336c: a5 15        	lda	$15                     ; 0x2015 <f256main+0x179e>
    336e: 65 18        	adc	$18                     ; 0x2018 <f256main+0x17a1>
    3370: 85 15        	sta	$15                     ; 0x2015 <f256main+0x179e>
    3372: c5 17        	cmp	$17                     ; 0x2017 <f256main+0x17a0>
    3374: d0 1a        	bne	$3390 <malloc+0x2a1>
    3376: a6 e3        	ldx	$e3                     ; 0x20e3 <f256main+0x186c>
    3378: 86 14        	stx	$14                     ; 0x2014 <f256main+0x179d>
    337a: a6 16        	ldx	$16                     ; 0x2016 <f256main+0x179f>
    337c: e4 14        	cpx	$14                     ; 0x2014 <f256main+0x179d>
    337e: d0 12        	bne	$3392 <malloc+0x2a3>
    3380: 4c ff 31     	jmp	$31ff <malloc+0x110>
    3383: 85 16        	sta	$16                     ; 0x2016 <f256main+0x179f>
    3385: c9 00        	cmp	#$0
    3387: 86 18        	stx	$18                     ; 0x2018 <f256main+0x17a1>
    3389: a5 19        	lda	$19                     ; 0x2019 <f256main+0x17a2>
    338b: 90 d9        	bcc	$3366 <malloc+0x277>
    338d: 4c 05 33     	jmp	$3305 <malloc+0x216>
    3390: a6 16        	ldx	$16                     ; 0x2016 <f256main+0x179f>
    3392: 86 14        	stx	$14                     ; 0x2014 <f256main+0x179d>
    3394: a0 01        	ldy	#$1
    3396: b1 14        	lda	($14),y                 ; 0x2014 <f256main+0x179d>
    3398: 85 16        	sta	$16                     ; 0x2016 <f256main+0x179f>
    339a: a9 fe        	lda	#$fe
    339c: 32 14        	and	($14)                   ; 0x2014 <f256main+0x179d>
    339e: 92 14        	sta	($14)                   ; 0x2014 <f256main+0x179d>
    33a0: a5 16        	lda	$16                     ; 0x2016 <f256main+0x179f>
    33a2: 91 14        	sta	($14),y                 ; 0x2014 <f256main+0x179d>
    33a4: 60           	rts

000033a5 <memcpy>:
    33a5: a8           	tay
    33a6: 8a           	txa
    33a7: d0 03        	bne	$33ac <memcpy+0x7>
    33a9: 98           	tya
    33aa: f0 24        	beq	$33d0 <memcpy+0x2b>
    33ac: a5 12        	lda	$12                     ; 0x2012 <f256main+0x179b>
    33ae: 85 16        	sta	$16                     ; 0x2016 <f256main+0x179f>
    33b0: a5 13        	lda	$13                     ; 0x2013 <f256main+0x179c>
    33b2: 85 17        	sta	$17                     ; 0x2017 <f256main+0x17a0>
    33b4: b2 14        	lda	($14)                   ; 0x2014 <f256main+0x179d>
    33b6: 92 16        	sta	($16)                   ; 0x2016 <f256main+0x179f>
    33b8: e6 16        	inc	$16                     ; 0x2016 <f256main+0x179f>
    33ba: d0 02        	bne	$33be <memcpy+0x19>
    33bc: e6 17        	inc	$17                     ; 0x2017 <f256main+0x17a0>
    33be: e6 14        	inc	$14                     ; 0x2014 <f256main+0x179d>
    33c0: d0 02        	bne	$33c4 <memcpy+0x1f>
    33c2: e6 15        	inc	$15                     ; 0x2015 <f256main+0x179e>
    33c4: 88           	dey
    33c5: c0 ff        	cpy	#$ff
    33c7: d0 01        	bne	$33ca <memcpy+0x25>
    33c9: ca           	dex
    33ca: 8a           	txa
    33cb: d0 e7        	bne	$33b4 <memcpy+0xf>
    33cd: 98           	tya
    33ce: d0 e4        	bne	$33b4 <memcpy+0xf>
    33d0: 60           	rts

000033d1 <__memset>:
    33d1: a4 14        	ldy	$14                     ; 0x2014 <f256main+0x179d>
    33d3: d0 04        	bne	$33d9 <__memset+0x8>
    33d5: e0 00        	cpx	#$0
    33d7: f0 17        	beq	$33f0 <__memset+0x1f>
    33d9: 92 12        	sta	($12)                   ; 0x2012 <f256main+0x179b>
    33db: e6 12        	inc	$12                     ; 0x2012 <f256main+0x179b>
    33dd: d0 02        	bne	$33e1 <__memset+0x10>
    33df: e6 13        	inc	$13                     ; 0x2013 <f256main+0x179c>
    33e1: ca           	dex
    33e2: e0 ff        	cpx	#$ff
    33e4: d0 02        	bne	$33e8 <__memset+0x17>
    33e6: c6 14        	dec	$14                     ; 0x2014 <f256main+0x179d>
    33e8: a4 14        	ldy	$14                     ; 0x2014 <f256main+0x179d>
    33ea: d0 ed        	bne	$33d9 <__memset+0x8>
    33ec: e0 00        	cpx	#$0
    33ee: d0 e9        	bne	$33d9 <__memset+0x8>
    33f0: 60           	rts

000033f1 <__ashlhi3>:
    33f1: 86 13        	stx	$13                     ; 0x2013 <f256main+0x179c>
    33f3: a6 12        	ldx	$12                     ; 0x2012 <f256main+0x179b>
    33f5: f0 0a        	beq	$3401 <__ashlhi3+0x10>
    33f7: a6 12        	ldx	$12                     ; 0x2012 <f256main+0x179b>
    33f9: ca           	dex
    33fa: 0a           	asl
    33fb: 26 13        	rol	$13                     ; 0x2013 <f256main+0x179c>
    33fd: e0 00        	cpx	#$0
    33ff: d0 f8        	bne	$33f9 <__ashlhi3+0x8>
    3401: a6 13        	ldx	$13                     ; 0x2013 <f256main+0x179c>
    3403: 60           	rts

00003404 <__mulhi3>:
    3404: a4 13        	ldy	$13                     ; 0x2013 <f256main+0x179c>
    3406: d0 04        	bne	$340c <__mulhi3+0x8>
    3408: a4 12        	ldy	$12                     ; 0x2012 <f256main+0x179b>
    340a: f0 25        	beq	$3431 <__mulhi3+0x2d>
    340c: 85 14        	sta	$14                     ; 0x2014 <f256main+0x179d>
    340e: 86 15        	stx	$15                     ; 0x2015 <f256main+0x179e>
    3410: a0 00        	ldy	#$0
    3412: 98           	tya
    3413: 46 13        	lsr	$13                     ; 0x2013 <f256main+0x179c>
    3415: 66 12        	ror	$12                     ; 0x2012 <f256main+0x179b>
    3417: 90 09        	bcc	$3422 <__mulhi3+0x1e>
    3419: aa           	tax
    341a: 98           	tya
    341b: 18           	clc
    341c: 65 14        	adc	$14                     ; 0x2014 <f256main+0x179d>
    341e: a8           	tay
    341f: 8a           	txa
    3420: 65 15        	adc	$15                     ; 0x2015 <f256main+0x179e>
    3422: 06 14        	asl	$14                     ; 0x2014 <f256main+0x179d>
    3424: 26 15        	rol	$15                     ; 0x2015 <f256main+0x179e>
    3426: a6 13        	ldx	$13                     ; 0x2013 <f256main+0x179c>
    3428: d0 e9        	bne	$3413 <__mulhi3+0xf>
    342a: a6 12        	ldx	$12                     ; 0x2012 <f256main+0x179b>
    342c: d0 e5        	bne	$3413 <__mulhi3+0xf>
    342e: aa           	tax
    342f: 98           	tya
    3430: 60           	rts
    3431: a0 00        	ldy	#$0
    3433: 98           	tya
    3434: 80 f8        	bra	$342e <__mulhi3+0x2a>

00003436 <__mulsi3>:
    3436: a4 17        	ldy	$17                     ; 0x2017 <f256main+0x17a0>
    3438: d0 0f        	bne	$3449 <__mulsi3+0x13>
    343a: a4 16        	ldy	$16                     ; 0x2016 <f256main+0x179f>
    343c: d0 0b        	bne	$3449 <__mulsi3+0x13>
    343e: a4 15        	ldy	$15                     ; 0x2015 <f256main+0x179e>
    3440: d0 07        	bne	$3449 <__mulsi3+0x13>
    3442: a4 14        	ldy	$14                     ; 0x2014 <f256main+0x179d>
    3444: d0 03        	bne	$3449 <__mulsi3+0x13>
    3446: 4c 9d 34     	jmp	$349d <__mulsi3+0x67>
    3449: 85 18        	sta	$18                     ; 0x2018 <f256main+0x17a1>
    344b: 86 19        	stx	$19                     ; 0x2019 <f256main+0x17a2>
    344d: a0 00        	ldy	#$0
    344f: a2 00        	ldx	#$0
    3451: 64 1a        	stz	$1a                     ; 0x201a <f256main+0x17a3>
    3453: 98           	tya
    3454: 46 17        	lsr	$17                     ; 0x2017 <f256main+0x17a0>
    3456: 66 16        	ror	$16                     ; 0x2016 <f256main+0x179f>
    3458: 66 15        	ror	$15                     ; 0x2015 <f256main+0x179e>
    345a: 66 14        	ror	$14                     ; 0x2014 <f256main+0x179d>
    345c: 90 15        	bcc	$3473 <__mulsi3+0x3d>
    345e: 85 1b        	sta	$1b                     ; 0x201b <f256main+0x17a4>
    3460: 98           	tya
    3461: 18           	clc
    3462: 65 18        	adc	$18                     ; 0x2018 <f256main+0x17a1>
    3464: a8           	tay
    3465: 8a           	txa
    3466: 65 19        	adc	$19                     ; 0x2019 <f256main+0x17a2>
    3468: aa           	tax
    3469: a5 1a        	lda	$1a                     ; 0x201a <f256main+0x17a3>
    346b: 65 12        	adc	$12                     ; 0x2012 <f256main+0x179b>
    346d: 85 1a        	sta	$1a                     ; 0x201a <f256main+0x17a3>
    346f: a5 1b        	lda	$1b                     ; 0x201b <f256main+0x17a4>
    3471: 65 13        	adc	$13                     ; 0x2013 <f256main+0x179c>
    3473: 06 18        	asl	$18                     ; 0x2018 <f256main+0x17a1>
    3475: 26 19        	rol	$19                     ; 0x2019 <f256main+0x17a2>
    3477: 26 12        	rol	$12                     ; 0x2012 <f256main+0x179b>
    3479: 26 13        	rol	$13                     ; 0x2013 <f256main+0x179c>
    347b: e6 17        	inc	$17                     ; 0x2017 <f256main+0x17a0>
    347d: c6 17        	dec	$17                     ; 0x2017 <f256main+0x17a0>
    347f: d0 d3        	bne	$3454 <__mulsi3+0x1e>
    3481: e6 16        	inc	$16                     ; 0x2016 <f256main+0x179f>
    3483: c6 16        	dec	$16                     ; 0x2016 <f256main+0x179f>
    3485: d0 cd        	bne	$3454 <__mulsi3+0x1e>
    3487: e6 15        	inc	$15                     ; 0x2015 <f256main+0x179e>
    3489: c6 15        	dec	$15                     ; 0x2015 <f256main+0x179e>
    348b: d0 c7        	bne	$3454 <__mulsi3+0x1e>
    348d: e6 14        	inc	$14                     ; 0x2014 <f256main+0x179d>
    348f: c6 14        	dec	$14                     ; 0x2014 <f256main+0x179d>
    3491: d0 c1        	bne	$3454 <__mulsi3+0x1e>
    3493: 5a           	phy
    3494: a4 1a        	ldy	$1a                     ; 0x201a <f256main+0x17a3>
    3496: 84 12        	sty	$12                     ; 0x2012 <f256main+0x179b>
    3498: 7a           	ply
    3499: 85 13        	sta	$13                     ; 0x2013 <f256main+0x179c>
    349b: 98           	tya
    349c: 60           	rts
    349d: a0 00        	ldy	#$0
    349f: a2 00        	ldx	#$0
    34a1: 64 1a        	stz	$1a                     ; 0x201a <f256main+0x17a3>
    34a3: 98           	tya
    34a4: 80 ed        	bra	$3493 <__mulsi3+0x5d>

000034a6 <__udivhi3>:
    34a6: 64 14        	stz	$14                     ; 0x2014 <f256main+0x179d>
    34a8: a4 13        	ldy	$13                     ; 0x2013 <f256main+0x179c>
    34aa: d0 04        	bne	$34b0 <__udivhi3+0xa>
    34ac: a4 12        	ldy	$12                     ; 0x2012 <f256main+0x179b>
    34ae: f0 0e        	beq	$34be <__udivhi3+0x18>
    34b0: 85 17        	sta	$17                     ; 0x2017 <f256main+0x17a0>
    34b2: 8a           	txa
    34b3: e4 13        	cpx	$13                     ; 0x2013 <f256main+0x179c>
    34b5: d0 0e        	bne	$34c5 <__udivhi3+0x1f>
    34b7: a5 17        	lda	$17                     ; 0x2017 <f256main+0x17a0>
    34b9: c5 12        	cmp	$12                     ; 0x2012 <f256main+0x179b>
    34bb: 8a           	txa
    34bc: b0 0b        	bcs	$34c9 <__udivhi3+0x23>
    34be: a2 00        	ldx	#$0
    34c0: 86 ee        	stx	$ee                     ; 0x20ee <f256main+0x1877>
    34c2: 4c 61 35     	jmp	$3561 <__udivhi3+0xbb>
    34c5: c5 13        	cmp	$13                     ; 0x2013 <f256main+0x179c>
    34c7: 90 f5        	bcc	$34be <__udivhi3+0x18>
    34c9: a2 01        	ldx	#$1
    34cb: 86 ee        	stx	$ee                     ; 0x20ee <f256main+0x1877>
    34cd: a6 13        	ldx	$13                     ; 0x2013 <f256main+0x179c>
    34cf: 10 03        	bpl	$34d4 <__udivhi3+0x2e>
    34d1: 4c 61 35     	jmp	$3561 <__udivhi3+0xbb>
    34d4: a2 00        	ldx	#$0
    34d6: a4 12        	ldy	$12                     ; 0x2012 <f256main+0x179b>
    34d8: 84 15        	sty	$15                     ; 0x2015 <f256main+0x179e>
    34da: a4 13        	ldy	$13                     ; 0x2013 <f256main+0x179c>
    34dc: 84 16        	sty	$16                     ; 0x2016 <f256main+0x179f>
    34de: 06 15        	asl	$15                     ; 0x2015 <f256main+0x179e>
    34e0: 26 16        	rol	$16                     ; 0x2016 <f256main+0x179f>
    34e2: c5 16        	cmp	$16                     ; 0x2016 <f256main+0x179f>
    34e4: d0 08        	bne	$34ee <__udivhi3+0x48>
    34e6: a4 17        	ldy	$17                     ; 0x2017 <f256main+0x17a0>
    34e8: c4 15        	cpy	$15                     ; 0x2015 <f256main+0x179e>
    34ea: 90 13        	bcc	$34ff <__udivhi3+0x59>
    34ec: 80 04        	bra	$34f2 <__udivhi3+0x4c>
    34ee: c5 16        	cmp	$16                     ; 0x2016 <f256main+0x179f>
    34f0: 90 0d        	bcc	$34ff <__udivhi3+0x59>
    34f2: e8           	inx
    34f3: a4 15        	ldy	$15                     ; 0x2015 <f256main+0x179e>
    34f5: 84 12        	sty	$12                     ; 0x2012 <f256main+0x179b>
    34f7: a4 16        	ldy	$16                     ; 0x2016 <f256main+0x179f>
    34f9: 84 13        	sty	$13                     ; 0x2013 <f256main+0x179c>
    34fb: 10 e1        	bpl	$34de <__udivhi3+0x38>
    34fd: 80 08        	bra	$3507 <__udivhi3+0x61>
    34ff: a4 12        	ldy	$12                     ; 0x2012 <f256main+0x179b>
    3501: 84 15        	sty	$15                     ; 0x2015 <f256main+0x179e>
    3503: a4 13        	ldy	$13                     ; 0x2013 <f256main+0x179c>
    3505: 84 16        	sty	$16                     ; 0x2016 <f256main+0x179f>
    3507: e0 00        	cpx	#$0
    3509: d0 03        	bne	$350e <__udivhi3+0x68>
    350b: 4c 61 35     	jmp	$3561 <__udivhi3+0xbb>
    350e: 38           	sec
    350f: a8           	tay
    3510: a5 17        	lda	$17                     ; 0x2017 <f256main+0x17a0>
    3512: e5 15        	sbc	$15                     ; 0x2015 <f256main+0x179e>
    3514: 85 12        	sta	$12                     ; 0x2012 <f256main+0x179b>
    3516: 98           	tya
    3517: e5 16        	sbc	$16                     ; 0x2016 <f256main+0x179f>
    3519: a0 01        	ldy	#$1
    351b: 84 ee        	sty	$ee                     ; 0x20ee <f256main+0x1877>
    351d: 64 14        	stz	$14                     ; 0x2014 <f256main+0x179d>
    351f: 46 16        	lsr	$16                     ; 0x2016 <f256main+0x179f>
    3521: 66 15        	ror	$15                     ; 0x2015 <f256main+0x179e>
    3523: a4 ee        	ldy	$ee                     ; 0x20ee <f256main+0x1877>
    3525: 84 13        	sty	$13                     ; 0x2013 <f256main+0x179c>
    3527: 06 13        	asl	$13                     ; 0x2013 <f256main+0x179c>
    3529: a0 01        	ldy	#$1
    352b: b0 02        	bcs	$352f <__udivhi3+0x89>
    352d: a0 00        	ldy	#$0
    352f: 84 17        	sty	$17                     ; 0x2017 <f256main+0x17a0>
    3531: a4 13        	ldy	$13                     ; 0x2013 <f256main+0x179c>
    3533: 84 ee        	sty	$ee                     ; 0x20ee <f256main+0x1877>
    3535: c5 16        	cmp	$16                     ; 0x2016 <f256main+0x179f>
    3537: d0 22        	bne	$355b <__udivhi3+0xb5>
    3539: a4 12        	ldy	$12                     ; 0x2012 <f256main+0x179b>
    353b: c4 15        	cpy	$15                     ; 0x2015 <f256main+0x179e>
    353d: 90 11        	bcc	$3550 <__udivhi3+0xaa>
    353f: a8           	tay
    3540: a5 ee        	lda	$ee                     ; 0x20ee <f256main+0x1877>
    3542: 09 01        	ora	#$1
    3544: 85 ee        	sta	$ee                     ; 0x20ee <f256main+0x1877>
    3546: 38           	sec
    3547: a5 12        	lda	$12                     ; 0x2012 <f256main+0x179b>
    3549: e5 15        	sbc	$15                     ; 0x2015 <f256main+0x179e>
    354b: 85 12        	sta	$12                     ; 0x2012 <f256main+0x179b>
    354d: 98           	tya
    354e: e5 16        	sbc	$16                     ; 0x2016 <f256main+0x179f>
    3550: a4 17        	ldy	$17                     ; 0x2017 <f256main+0x17a0>
    3552: c0 01        	cpy	#$1
    3554: 26 14        	rol	$14                     ; 0x2014 <f256main+0x179d>
    3556: ca           	dex
    3557: d0 c6        	bne	$351f <__udivhi3+0x79>
    3559: 80 06        	bra	$3561 <__udivhi3+0xbb>
    355b: c5 16        	cmp	$16                     ; 0x2016 <f256main+0x179f>
    355d: b0 e0        	bcs	$353f <__udivhi3+0x99>
    355f: 80 ef        	bra	$3550 <__udivhi3+0xaa>
    3561: a6 14        	ldx	$14                     ; 0x2014 <f256main+0x179d>
    3563: a5 ee        	lda	$ee                     ; 0x20ee <f256main+0x1877>
    3565: 60           	rts

00003566 <__udivmodhi4>:
    3566: 86 1a        	stx	$1a                     ; 0x201a <f256main+0x17a3>
    3568: 64 16        	stz	$16                     ; 0x2016 <f256main+0x179f>
    356a: a4 13        	ldy	$13                     ; 0x2013 <f256main+0x179c>
    356c: d0 04        	bne	$3572 <__udivmodhi4+0xc>
    356e: a4 12        	ldy	$12                     ; 0x2012 <f256main+0x179b>
    3570: f0 08        	beq	$357a <__udivmodhi4+0x14>
    3572: e4 13        	cpx	$13                     ; 0x2013 <f256main+0x179c>
    3574: d0 0d        	bne	$3583 <__udivmodhi4+0x1d>
    3576: c5 12        	cmp	$12                     ; 0x2012 <f256main+0x179b>
    3578: b0 0d        	bcs	$3587 <__udivmodhi4+0x21>
    357a: a6 1a        	ldx	$1a                     ; 0x201a <f256main+0x17a3>
    357c: 86 12        	stx	$12                     ; 0x2012 <f256main+0x179b>
    357e: a2 00        	ldx	#$0
    3580: 4c 2b 36     	jmp	$362b <__udivmodhi4+0xc5>
    3583: e4 13        	cpx	$13                     ; 0x2013 <f256main+0x179c>
    3585: 90 f3        	bcc	$357a <__udivmodhi4+0x14>
    3587: a6 13        	ldx	$13                     ; 0x2013 <f256main+0x179c>
    3589: 10 03        	bpl	$358e <__udivmodhi4+0x28>
    358b: 4c 1e 36     	jmp	$361e <__udivmodhi4+0xb8>
    358e: a2 00        	ldx	#$0
    3590: a4 12        	ldy	$12                     ; 0x2012 <f256main+0x179b>
    3592: 84 17        	sty	$17                     ; 0x2017 <f256main+0x17a0>
    3594: a4 13        	ldy	$13                     ; 0x2013 <f256main+0x179c>
    3596: 84 18        	sty	$18                     ; 0x2018 <f256main+0x17a1>
    3598: 06 17        	asl	$17                     ; 0x2017 <f256main+0x17a0>
    359a: 26 18        	rol	$18                     ; 0x2018 <f256main+0x17a1>
    359c: a4 1a        	ldy	$1a                     ; 0x201a <f256main+0x17a3>
    359e: c4 18        	cpy	$18                     ; 0x2018 <f256main+0x17a1>
    35a0: d0 06        	bne	$35a8 <__udivmodhi4+0x42>
    35a2: c5 17        	cmp	$17                     ; 0x2017 <f256main+0x17a0>
    35a4: b0 08        	bcs	$35ae <__udivmodhi4+0x48>
    35a6: 80 13        	bra	$35bb <__udivmodhi4+0x55>
    35a8: a4 1a        	ldy	$1a                     ; 0x201a <f256main+0x17a3>
    35aa: c4 18        	cpy	$18                     ; 0x2018 <f256main+0x17a1>
    35ac: 90 0d        	bcc	$35bb <__udivmodhi4+0x55>
    35ae: e8           	inx
    35af: a4 17        	ldy	$17                     ; 0x2017 <f256main+0x17a0>
    35b1: 84 12        	sty	$12                     ; 0x2012 <f256main+0x179b>
    35b3: a4 18        	ldy	$18                     ; 0x2018 <f256main+0x17a1>
    35b5: 84 13        	sty	$13                     ; 0x2013 <f256main+0x179c>
    35b7: 10 df        	bpl	$3598 <__udivmodhi4+0x32>
    35b9: 80 08        	bra	$35c3 <__udivmodhi4+0x5d>
    35bb: a4 12        	ldy	$12                     ; 0x2012 <f256main+0x179b>
    35bd: 84 17        	sty	$17                     ; 0x2017 <f256main+0x17a0>
    35bf: a4 13        	ldy	$13                     ; 0x2013 <f256main+0x179c>
    35c1: 84 18        	sty	$18                     ; 0x2018 <f256main+0x17a1>
    35c3: 38           	sec
    35c4: e5 17        	sbc	$17                     ; 0x2017 <f256main+0x17a0>
    35c6: a8           	tay
    35c7: a5 1a        	lda	$1a                     ; 0x201a <f256main+0x17a3>
    35c9: e5 18        	sbc	$18                     ; 0x2018 <f256main+0x17a1>
    35cb: 85 12        	sta	$12                     ; 0x2012 <f256main+0x179b>
    35cd: 8a           	txa
    35ce: d0 03        	bne	$35d3 <__udivmodhi4+0x6d>
    35d0: 4c 3a 36     	jmp	$363a <__udivmodhi4+0xd4>
    35d3: a9 01        	lda	#$1
    35d5: 85 e1        	sta	$e1                     ; 0x20e1 <f256main+0x186a>
    35d7: 64 16        	stz	$16                     ; 0x2016 <f256main+0x179f>
    35d9: 98           	tya
    35da: 46 18        	lsr	$18                     ; 0x2018 <f256main+0x17a1>
    35dc: 66 17        	ror	$17                     ; 0x2017 <f256main+0x17a0>
    35de: a4 e1        	ldy	$e1                     ; 0x20e1 <f256main+0x186a>
    35e0: 84 13        	sty	$13                     ; 0x2013 <f256main+0x179c>
    35e2: 06 13        	asl	$13                     ; 0x2013 <f256main+0x179c>
    35e4: a0 01        	ldy	#$1
    35e6: b0 02        	bcs	$35ea <__udivmodhi4+0x84>
    35e8: a0 00        	ldy	#$0
    35ea: 84 19        	sty	$19                     ; 0x2019 <f256main+0x17a2>
    35ec: a4 13        	ldy	$13                     ; 0x2013 <f256main+0x179c>
    35ee: 84 e1        	sty	$e1                     ; 0x20e1 <f256main+0x186a>
    35f0: a4 12        	ldy	$12                     ; 0x2012 <f256main+0x179b>
    35f2: c4 18        	cpy	$18                     ; 0x2018 <f256main+0x17a1>
    35f4: d0 22        	bne	$3618 <__udivmodhi4+0xb2>
    35f6: c5 17        	cmp	$17                     ; 0x2017 <f256main+0x17a0>
    35f8: 90 13        	bcc	$360d <__udivmodhi4+0xa7>
    35fa: a8           	tay
    35fb: a5 e1        	lda	$e1                     ; 0x20e1 <f256main+0x186a>
    35fd: 09 01        	ora	#$1
    35ff: 85 e1        	sta	$e1                     ; 0x20e1 <f256main+0x186a>
    3601: 38           	sec
    3602: 98           	tya
    3603: e5 17        	sbc	$17                     ; 0x2017 <f256main+0x17a0>
    3605: a8           	tay
    3606: a5 12        	lda	$12                     ; 0x2012 <f256main+0x179b>
    3608: e5 18        	sbc	$18                     ; 0x2018 <f256main+0x17a1>
    360a: 85 12        	sta	$12                     ; 0x2012 <f256main+0x179b>
    360c: 98           	tya
    360d: a4 19        	ldy	$19                     ; 0x2019 <f256main+0x17a2>
    360f: c0 01        	cpy	#$1
    3611: 26 16        	rol	$16                     ; 0x2016 <f256main+0x179f>
    3613: ca           	dex
    3614: d0 c4        	bne	$35da <__udivmodhi4+0x74>
    3616: 80 15        	bra	$362d <__udivmodhi4+0xc7>
    3618: c4 18        	cpy	$18                     ; 0x2018 <f256main+0x17a1>
    361a: b0 de        	bcs	$35fa <__udivmodhi4+0x94>
    361c: 80 ef        	bra	$360d <__udivmodhi4+0xa7>
    361e: 38           	sec
    361f: e5 12        	sbc	$12                     ; 0x2012 <f256main+0x179b>
    3621: aa           	tax
    3622: a5 1a        	lda	$1a                     ; 0x201a <f256main+0x17a3>
    3624: e5 13        	sbc	$13                     ; 0x2013 <f256main+0x179c>
    3626: 85 12        	sta	$12                     ; 0x2012 <f256main+0x179b>
    3628: 8a           	txa
    3629: a2 01        	ldx	#$1
    362b: 86 e1        	stx	$e1                     ; 0x20e1 <f256main+0x186a>
    362d: 92 14        	sta	($14)                   ; 0x2014 <f256main+0x179d>
    362f: a0 01        	ldy	#$1
    3631: a5 12        	lda	$12                     ; 0x2012 <f256main+0x179b>
    3633: 91 14        	sta	($14),y                 ; 0x2014 <f256main+0x179d>
    3635: a6 16        	ldx	$16                     ; 0x2016 <f256main+0x179f>
    3637: a5 e1        	lda	$e1                     ; 0x20e1 <f256main+0x186a>
    3639: 60           	rts
    363a: a2 01        	ldx	#$1
    363c: 86 e1        	stx	$e1                     ; 0x20e1 <f256main+0x186a>
    363e: 98           	tya
    363f: 80 ec        	bra	$362d <__udivmodhi4+0xc7>
