
modu.elf:	file format elf32-mos

SYMBOL TABLE:
00000000 l    df *ABS*	00000000 zero-bss.c
00000000 l    df *ABS*	00000000 zero-zp-bss.c
00000000 l    df *ABS*	00000000 copy-zp-data.c
00000000 l    df *ABS*	00000000 ld-temp.o
00000675 l     F .text	0000018f f256Init
00006cf4 l     O .bss	00000002 kernelArgs
0000008b l     O .zp.bss	00000007 kernelEventData
00000804 l     F .text	00000176 textReset
0000097a l     F .text	00000170 bitmapReset
00006d09 l     O .bss	00000003 _tileSize
00006d0c l     O .bss	00000040 _spriteCtl
00006d4c l     O .bss	00000008 _dirStream
00006cf6 l     O .bss	00000001 kernelError
00000032 l     O .zp.data	00000001 _ccolor
00000030 l     O .zp.data	00000001 _MAX_COL
00000031 l     O .zp.data	00000001 _MAX_ROW
00006c32 l     O .data	00000030 textColors
00000092 l     O .zp.bss	00000001 _col
00000093 l     O .zp.bss	00000001 _row
00006d04 l     O .bss	00000001 _MAX_X
00006d05 l     O .bss	00000001 _MAX_Y
00006d03 l     O .bss	00000001 _active
00000094 l     O .zp.bss	00000001 _color
00006cf7 l     O .bss	0000000c _BITMAP_BASE
00006d06 l     O .bss	00000003 _BITMAP_CLUT
00000aea l     F .text	00000029 FAR_POKEW
00000b19 l     F .text	00000964 f256main
0000147d l     F .text	000001b0 setup
00000095 l     O .zp.bss	00000003 polyTimer
000000e1 l     O .zp.bss	00000002 gPtr
0000470f l     F .text	000004ee dispatchNote
00000033 l     O .zp.data	00000058 noteColors
000000a0 l     O .zp.bss	00000005 chipAct
00006e91 l     O .bss	000001a4 lights
00004552 l     F .text	000000a7 updateLighter
00000098 l     O .zp.bss	00000002 mX
0000009a l     O .zp.bss	00000002 mY
000072dd l     O .bss	00000008 sliAct
00007035 l     O .bss	000000f0 sliders
00004149 l     F .text	0000034f updateSlider
0000162d l     F .text	0000011b updateChip
000072d5 l     O .bss	00000008 diaAct
00007125 l     O .bss	000001b0 dials
00003c95 l     F .text	00000348 updateDial
00001748 l     F .text	000001da updateChipDial
00004c41 l     F .text	00000006 showMouse
0000009c l     O .zp.bss	00000002 oldMX
0000009e l     O .zp.bss	00000002 oldMY
00001922 l     F .text	0000033a checkUIClicks
00003659 l     F .text	000002cb backgroundSetup
00005041 l     F .text	0000002c clearSIDRegisters
00005223 l     F .text	000001aa sid_setInstrumentAllChannels
000053cd l     F .text	00000009 setMonoSID
00005017 l     F .text	00000009 setMonoPSG
00004c59 l     F .text	00000068 opl3_initialize
00004e8c l     F .text	000000d2 opl3_setInstrumentAllChannels
00004c47 l     F .text	00000012 prepMouse
00006430 l     F .text	00000107 malloc
00004700 l     F .text	0000000f resetGlobals
00005111 l     F .text	000000d5 sid_set_all
00006d56 l     O .bss	0000013b radios
00006c62 l     O .data	00000040 sidSpriteAction
00003a2d l     F .text	0000009d setGeneric
00003b87 l     F .text	0000010e setRadioB
000026e9 l     F .text	00000c63 loadGUISID
000050ec l     F .text	00000025 sid_adsr
000050e5 l     F .text	00000007 sid_setFILT
00005094 l     F .text	00000025 sid_setPWM
000050b9 l     F .text	00000025 sid_setFF
000051e6 l     F .text	0000003d sid_setV3
00001c5c l     F .text	00000754 dispatchAction
000066d0 l     F .text	00000032 __mulhi3
00003aca l     F .text	000000bd updateRadioB
00004c3d l     F .text	00000004 hideMouse
000023b0 l     F .text	000000df textLayerGen
0000248f l     F .text	0000025a textPrint
0000469c l     F .text	00000064 setATile
00005081 l     F .text	00000013 sid_setCTRL
000050de l     F .text	00000007 sid_setModVol
000000ab l     O .zp.bss	00000006 reservedSID
000045f9 l     F .text	000000a3 setLighter
0000334c l     F .text	0000011d loadGUIOPL
00006397 l     F .text	00000059 printf
00003469 l     F .text	000001f0 textLayerSID
00004498 l     F .text	000000ba setSlider
00003fdd l     F .text	0000016c setDial
00003924 l     F .text	00000091 spriteDefine
000039b5 l     F .text	00000047 spriteSetPosition
000039fc l     F .text	00000023 spriteSetVisible
00003a1f l     F .text	0000000e __putchar
00006d54 l     O .bss	00000002 __putchar.s
00006772 l     F .text	000000c0 __udivhi3
000066bd l     F .text	00000013 __lshrhi3
000066aa l     F .text	00000013 __ashlhi3
00006702 l     F .text	00000070 __mulsi3
00004c1d l     F .text	00000020 midiNoteOn
000000cf l     O .zp.bss	00000012 reservedOPL3
000000bd l     O .zp.bss	00000012 polyOPL3Buffer
000000a5 l     O .zp.bss	00000006 polySIDBuffer
000000b7 l     O .zp.bss	00000006 reservedPSG
000000b1 l     O .zp.bss	00000006 polyPSGBuffer
00004bfd l     F .text	00000020 midiNoteOff
00006832 l     F .text	000000db __udivmodhi4
00006ac8 l     O .rodata	00000018 opl3_fnums
00004f5e l     F .text	0000008e opl3_note
00006ca8 l     O .data	00000006 polyPSGChanBits
0000500c l     F .text	0000000b psgNoteOff
00006ca2 l     O .data	00000006 sidChoiceToVoice
00006bc0 l     O .rodata	00000060 sidLow
00006b60 l     O .rodata	00000060 sidHigh
00005020 l     F .text	00000021 fetchCtrl
00006ae0 l     O .rodata	00000040 psgLow
00006b20 l     O .rodata	00000040 psgHigh
00004fec l     F .text	00000020 psgNoteOn
0000506d l     F .text	00000014 sidNoteOnOrOff
00004cc1 l     F .text	000001cb opl3_setInstrument
00006cae l     O .data	0000000b opl3_instrument_defs
00006cb9 l     O .data	00000037 sid_instrument_defs
00006c26 l     O .rodata	0000000c chipMap
00006c20 l     O .rodata	00000006 voiceMap
000053e4 l     F .text	00000002 _Exit
000053e6 l     F .text	00000218 vfprintf
00006422 l     F .text	00000003 putc
000055fe l     F .text	00000b44 _ZN12_GLOBAL__N_15printEPKcP6Status
00006142 l     F .text	000000e1 _ZN12_GLOBAL__N_13putEcP6Status
0000663c l     F .text	0000006e __simple_strtoui
00006223 l     F .text	00000174 _ZN12_GLOBAL__N_112print_stringEPKcP6Status
00000592 l     F .text	00000003 _ZN6__impl6VarInt4makeEPvc
000005a4 l     F .text	0000000d _ZNK6__impl6VarInt8negativeEv
000005b2 l     F .text	00000047 _ZN6__impl6VarInt6negateEv
00000596 l     F .text	0000000d _ZNK6__impl6VarInt8high_bitEv
000005fa l     F .text	0000003b _ZN6__impl6VarInt3shlEv
00006cf0 l     O .data	00000002 stdout
000063f0 l     F .text	00000003 fputc
000063f3 l     F .text	00000028 putchar
0000641b l     F .text	00000007 putchar_wrapper
00006425 l     F .text	0000000b __from_ascii
000072e5 l     O .bss	00000001 _ZN12_GLOBAL__N_111initializedE
00006cf2 l     O .data	00000002 _ZN12_GLOBAL__N_110heap_limitE
00000374 l     F .text	0000013d _ZN12_GLOBAL__N_19FreeChunk6insertEPvj
000072e6 l     O .bss	00000001 _ZN12_GLOBAL__N_19last_freeE
000072e9 l     O .bss	00000002 _ZN12_GLOBAL__N_19free_listE
00006537 l     F .text	000000b9 _ZN12_GLOBAL__N_119allocate_free_chunkEPNS_9FreeChunkEj
000072e7 l     O .bss	00000002 _ZN12_GLOBAL__N_19free_sizeE
000004b2 l     F .text	000000df _ZN12_GLOBAL__N_19FreeChunk6removeEv
00000b13 g     F .text	00000006 main
00014000 g       .gui8	00000000 gui8_start
000303fc g       .pianopal	00000000 pianopal_end
00043000 g       .keys	00000000 keys_end
00015400 g       .pal	00000000 pal_end
00015000 g       .pal	00000000 pal_start
00030400 g       .keys	00000000 keys_start
00015000 g       .gui8	00000000 gui8_end
00014000 g       .gui16	00000000 gui16_end
00030000 g       .pianopal	00000000 pianopal_start
00010000 g       .gui16	00000000 gui16_start
00000370 g       .text	00000000 __after_main
0000035c g       .text	00000000 __do_init_stack
0000036a g       .text	00000000 __do_copy_zp_data
0000065e g     F .text	00000017 __copy_zp_data
00000364 g       .text	00000000 __do_zero_bss
00000638 g     F .text	00000013 __zero_bss
00000367 g       .text	00000000 __do_zero_zp_bss
0000064b g     F .text	00000013 __zero_zp_bss
000053d6 g     F .text	0000000e exit
00000373 g       .text	00000000 _fini
0000690d g       .rodata	00000000 __set_v
00000635 g       .text	00000000 __call_indir
0000661c  w    F .text	00000020 __memset
00001000  w      *ABS*	00000000 __heap_default_limit
000072f6 g       .noinit	00000000 __heap_start
000065f0  w    F .text	0000002c memcpy
00000010 g       *ABS*	00000000 __rc0
00000012 g       *ABS*	00000000 __rc2
00000014 g       *ABS*	00000000 __rc4
00000016 g       *ABS*	00000000 __rc6
00000018 g       *ABS*	00000000 __rc8
0000001a g       *ABS*	00000000 __rc10
0000001c g       *ABS*	00000000 __rc12
0000001e g       *ABS*	00000000 __rc14
00000020 g       *ABS*	00000000 __rc16
00000022 g       *ABS*	00000000 __rc18
00000024 g       *ABS*	00000000 __rc20
00000026 g       *ABS*	00000000 __rc22
00000028 g       *ABS*	00000000 __rc24
0000002a g       *ABS*	00000000 __rc26
0000002c g       *ABS*	00000000 __rc28
0000002e g       *ABS*	00000000 __rc30
0000002f g       *ABS*	00000000 __rc31
00000300 g       *ABS*	00000000 __f256_start
0000c000 g       *ABS*	00000000 __stack
0000c000 g       *ABS*	00000000 __SLOT_ADDR
0800c000 g       *ABS*	00000000 __block8_lma
00002000 g       *ABS*	00000000 __BLOCK_SIZE
0900c000 g       *ABS*	00000000 __block9_lma
0a00c000 g       *ABS*	00000000 __block10_lma
0b00c000 g       *ABS*	00000000 __block11_lma
0c00c000 g       *ABS*	00000000 __block12_lma
0d00c000 g       *ABS*	00000000 __block13_lma
0e00c000 g       *ABS*	00000000 __block14_lma
0f00c000 g       *ABS*	00000000 __block15_lma
1000c000 g       *ABS*	00000000 __block16_lma
1100c000 g       *ABS*	00000000 __block17_lma
1200c000 g       *ABS*	00000000 __block18_lma
1300c000 g       *ABS*	00000000 __block19_lma
1400c000 g       *ABS*	00000000 __block20_lma
1500c000 g       *ABS*	00000000 __block21_lma
1600c000 g       *ABS*	00000000 __block22_lma
1700c000 g       *ABS*	00000000 __block23_lma
00010000 g       *ABS*	00000000 __gui16_lma
00004000 g       *ABS*	00000000 __gui16_size
00014000 g       *ABS*	00000000 __gui8_lma
00001000 g       *ABS*	00000000 __gui8_size
00015000 g       *ABS*	00000000 __pal_lma
00000400 g       *ABS*	00000000 __pal_size
00030000 g       *ABS*	00000000 __pianopal_lma
000003fc g       *ABS*	00000000 __pianopal_size
00030400 g       *ABS*	00000000 __keys_lma
00012c00 g       *ABS*	00000000 __keys_size
00006cf4 g       .bss	00000000 __bss_start
00014000 g       .gui16	00000000 end_gui16
00015000 g       .gui8	00000000 end_gui8
00015400 g       .pal	00000000 end_pal
000303fc g       .pianopal	00000000 end_pianopal
00043000 g       .keys	00000000 end_keys
0000035c g       .text	00000000 _start
0000002d g       *ABS*	00000000 __rc29
0000002b g       *ABS*	00000000 __rc27
00000029 g       *ABS*	00000000 __rc25
00000027 g       *ABS*	00000000 __rc23
00000025 g       *ABS*	00000000 __rc21
00000023 g       *ABS*	00000000 __rc19
00000021 g       *ABS*	00000000 __rc17
0000001f g       *ABS*	00000000 __rc15
0000001d g       *ABS*	00000000 __rc13
0000001b g       *ABS*	00000000 __rc11
00000019 g       *ABS*	00000000 __rc9
00000017 g       *ABS*	00000000 __rc7
00000015 g       *ABS*	00000000 __rc5
00000013 g       *ABS*	00000000 __rc3
00000011 g       *ABS*	00000000 __rc1
00000030 g       .zp.data	00000000 __zp_data_start
00000300 g       *ABS*	00000000 __zp_data_load_start
0000005b g       *ABS*	00000000 __zp_data_size
0000008b g       .zp.bss	00000000 __zp_bss_start
00000058 g       *ABS*	00000000 __zp_bss_size
0000035c g       .text	00000000 _init
0000690d g       .text	00000000 __init_array_start
0000690d g       .text	00000000 __init_array_end
0000690d g       .text	00000000 __fini_array_start
0000690d g       .text	00000000 __fini_array_end
00006c32 g       .data	00000000 __data_start
00006cf4 g       .data	00000000 __data_end
00006c32 g       *ABS*	00000000 __data_load_start
000000c2 g       *ABS*	00000000 __data_size
000072eb g       .bss	00000000 __bss_end
000005f7 g       *ABS*	00000000 __bss_size
000072f6 g       .noinit	00000000 end_block8
000072f6 g       .noinit	00000000 end_block9
000072f6 g       .noinit	00000000 end_block10
000072f6 g       .noinit	00000000 end_block11
000072f6 g       .noinit	00000000 end_block12
000072f6 g       .noinit	00000000 end_block13
000072f6 g       .noinit	00000000 end_block14
000072f6 g       .noinit	00000000 end_block15
000072f6 g       .noinit	00000000 end_block16
000072f6 g       .noinit	00000000 end_block17
000072f6 g       .noinit	00000000 end_block18
000072f6 g       .noinit	00000000 end_block19
000072f6 g       .noinit	00000000 end_block20
000072f6 g       .noinit	00000000 end_block21
000072f6 g       .noinit	00000000 end_block22
000072f6 g       .noinit	00000000 end_block23

Disassembly of section .text:

0000035c <_start>:
     35c: a9 00        	lda	#$0
     35e: 85 10        	sta	$10                     ; 0x2010 <dispatchAction+0x3b4>
     360: a9 c0        	lda	#$c0
     362: 85 11        	sta	$11                     ; 0x2011 <dispatchAction+0x3b5>

00000364 <__do_zero_bss>:
     364: 20 38 06     	jsr	$638 <__zero_bss>

00000367 <__do_zero_zp_bss>:
     367: 20 4b 06     	jsr	$64b <__zero_zp_bss>

0000036a <__do_copy_zp_data>:
     36a: 20 5e 06     	jsr	$65e <__copy_zp_data>
     36d: 20 13 0b     	jsr	$b13 <main>

00000370 <__after_main>:
     370: 4c d6 53     	jmp	$53d6 <exit>

00000373 <_fini>:
     373: 60           	rts

00000374 <_ZN12_GLOBAL__N_19FreeChunk6insertEPvj>:
     374: 85 16        	sta	$16                     ; 0x2016 <dispatchAction+0x3ba>
     376: 29 fe        	and	#$fe
     378: 85 14        	sta	$14                     ; 0x2014 <dispatchAction+0x3b8>
     37a: a0 01        	ldy	#$1
     37c: 98           	tya
     37d: 32 12        	and	($12)                   ; 0x2012 <dispatchAction+0x3b6>
     37f: 05 14        	ora	$14                     ; 0x2014 <dispatchAction+0x3b8>
     381: 92 12        	sta	($12)                   ; 0x2012 <dispatchAction+0x3b6>
     383: a5 12        	lda	$12                     ; 0x2012 <dispatchAction+0x3b6>
     385: 18           	clc
     386: 65 14        	adc	$14                     ; 0x2014 <dispatchAction+0x3b8>
     388: 85 15        	sta	$15                     ; 0x2015 <dispatchAction+0x3b9>
     38a: 8a           	txa
     38b: 65 13        	adc	$13                     ; 0x2013 <dispatchAction+0x3b7>
     38d: 85 14        	sta	$14                     ; 0x2014 <dispatchAction+0x3b8>
     38f: 18           	clc
     390: a5 15        	lda	$15                     ; 0x2015 <dispatchAction+0x3b9>
     392: 69 fe        	adc	#$fe
     394: 85 17        	sta	$17                     ; 0x2017 <dispatchAction+0x3bb>
     396: a5 14        	lda	$14                     ; 0x2014 <dispatchAction+0x3b8>
     398: 69 ff        	adc	#$ff
     39a: 85 15        	sta	$15                     ; 0x2015 <dispatchAction+0x3b9>
     39c: a5 17        	lda	$17                     ; 0x2017 <dispatchAction+0x3bb>
     39e: 85 14        	sta	$14                     ; 0x2014 <dispatchAction+0x3b8>
     3a0: 8a           	txa
     3a1: 91 12        	sta	($12),y                 ; 0x2012 <dispatchAction+0x3b6>
     3a3: a5 16        	lda	$16                     ; 0x2016 <dispatchAction+0x3ba>
     3a5: 92 14        	sta	($14)                   ; 0x2014 <dispatchAction+0x3b8>
     3a7: 8a           	txa
     3a8: 91 14        	sta	($14),y                 ; 0x2014 <dispatchAction+0x3b8>
     3aa: b1 12        	lda	($12),y                 ; 0x2012 <dispatchAction+0x3b6>
     3ac: 85 14        	sta	$14                     ; 0x2014 <dispatchAction+0x3b8>
     3ae: a9 fe        	lda	#$fe
     3b0: 32 12        	and	($12)                   ; 0x2012 <dispatchAction+0x3b6>
     3b2: 18           	clc
     3b3: 6d e7 72     	adc	$72e7                   ; 0x72e7 <_ZN12_GLOBAL__N_19free_sizeE>
     3b6: aa           	tax
     3b7: a5 14        	lda	$14                     ; 0x2014 <dispatchAction+0x3b8>
     3b9: 6d e8 72     	adc	$72e8                   ; 0x72e8 <_ZN12_GLOBAL__N_19free_sizeE+0x1>
     3bc: a8           	tay
     3bd: 18           	clc
     3be: 8a           	txa
     3bf: 69 fe        	adc	#$fe
     3c1: aa           	tax
     3c2: 98           	tya
     3c3: 69 ff        	adc	#$ff
     3c5: 8e e7 72     	stx	$72e7                   ; 0x72e7 <_ZN12_GLOBAL__N_19free_sizeE>
     3c8: 8d e8 72     	sta	$72e8                   ; 0x72e8 <_ZN12_GLOBAL__N_19free_sizeE+0x1>
     3cb: ae e9 72     	ldx	$72e9                   ; 0x72e9 <_ZN12_GLOBAL__N_19free_listE>
     3ce: 86 16        	stx	$16                     ; 0x2016 <dispatchAction+0x3ba>
     3d0: ac ea 72     	ldy	$72ea                   ; 0x72ea <_ZN12_GLOBAL__N_19free_listE+0x1>
     3d3: a2 00        	ldx	#$0
     3d5: 86 14        	stx	$14                     ; 0x2014 <dispatchAction+0x3b8>
     3d7: a2 00        	ldx	#$0
     3d9: 86 15        	stx	$15                     ; 0x2015 <dispatchAction+0x3b9>
     3db: c4 15        	cpy	$15                     ; 0x2015 <dispatchAction+0x3b9>
     3dd: d0 3e        	bne	$41d <_ZN12_GLOBAL__N_19FreeChunk6insertEPvj+0xa9>
     3df: a6 16        	ldx	$16                     ; 0x2016 <dispatchAction+0x3ba>
     3e1: e4 14        	cpx	$14                     ; 0x2014 <dispatchAction+0x3b8>
     3e3: d0 38        	bne	$41d <_ZN12_GLOBAL__N_19FreeChunk6insertEPvj+0xa9>
     3e5: a0 04        	ldy	#$4
     3e7: a5 12        	lda	$12                     ; 0x2012 <dispatchAction+0x3b6>
     3e9: 18           	clc
     3ea: 69 04        	adc	#$4
     3ec: 85 14        	sta	$14                     ; 0x2014 <dispatchAction+0x3b8>
     3ee: a5 13        	lda	$13                     ; 0x2013 <dispatchAction+0x3b7>
     3f0: 69 00        	adc	#$0
     3f2: 18           	clc
     3f3: 85 15        	sta	$15                     ; 0x2015 <dispatchAction+0x3b9>
     3f5: a5 12        	lda	$12                     ; 0x2012 <dispatchAction+0x3b6>
     3f7: 91 12        	sta	($12),y                 ; 0x2012 <dispatchAction+0x3b6>
     3f9: a0 02        	ldy	#$2
     3fb: 85 17        	sta	$17                     ; 0x2017 <dispatchAction+0x3bb>
     3fd: 69 02        	adc	#$2
     3ff: 85 16        	sta	$16                     ; 0x2016 <dispatchAction+0x3ba>
     401: a5 17        	lda	$17                     ; 0x2017 <dispatchAction+0x3bb>
     403: 91 12        	sta	($12),y                 ; 0x2012 <dispatchAction+0x3b6>
     405: a5 13        	lda	$13                     ; 0x2013 <dispatchAction+0x3b7>
     407: 69 00        	adc	#$0
     409: 85 17        	sta	$17                     ; 0x2017 <dispatchAction+0x3bb>
     40b: 88           	dey
     40c: a5 13        	lda	$13                     ; 0x2013 <dispatchAction+0x3b7>
     40e: 91 14        	sta	($14),y                 ; 0x2014 <dispatchAction+0x3b8>
     410: 91 16        	sta	($16),y                 ; 0x2016 <dispatchAction+0x3ba>
     412: a6 12        	ldx	$12                     ; 0x2012 <dispatchAction+0x3b6>
     414: 8e e9 72     	stx	$72e9                   ; 0x72e9 <_ZN12_GLOBAL__N_19free_listE>
     417: a6 13        	ldx	$13                     ; 0x2013 <dispatchAction+0x3b7>
     419: 8e ea 72     	stx	$72ea                   ; 0x72ea <_ZN12_GLOBAL__N_19free_listE+0x1>
     41c: 60           	rts
     41d: a6 12        	ldx	$12                     ; 0x2012 <dispatchAction+0x3b6>
     41f: a5 12        	lda	$12                     ; 0x2012 <dispatchAction+0x3b6>
     421: 18           	clc
     422: 69 02        	adc	#$2
     424: 85 14        	sta	$14                     ; 0x2014 <dispatchAction+0x3b8>
     426: 84 18        	sty	$18                     ; 0x2018 <dispatchAction+0x3bc>
     428: a5 13        	lda	$13                     ; 0x2013 <dispatchAction+0x3b7>
     42a: 69 00        	adc	#$0
     42c: 85 15        	sta	$15                     ; 0x2015 <dispatchAction+0x3b9>
     42e: a5 16        	lda	$16                     ; 0x2016 <dispatchAction+0x3ba>
     430: 84 17        	sty	$17                     ; 0x2017 <dispatchAction+0x3bb>
     432: a0 02        	ldy	#$2
     434: 91 12        	sta	($12),y                 ; 0x2012 <dispatchAction+0x3b6>
     436: 85 19        	sta	$19                     ; 0x2019 <dispatchAction+0x3bd>
     438: 88           	dey
     439: a5 18        	lda	$18                     ; 0x2018 <dispatchAction+0x3bc>
     43b: 91 14        	sta	($14),y                 ; 0x2014 <dispatchAction+0x3b8>
     43d: 18           	clc
     43e: a5 19        	lda	$19                     ; 0x2019 <dispatchAction+0x3bd>
     440: 69 04        	adc	#$4
     442: a8           	tay
     443: a5 18        	lda	$18                     ; 0x2018 <dispatchAction+0x3bc>
     445: 69 00        	adc	#$0
     447: 85 19        	sta	$19                     ; 0x2019 <dispatchAction+0x3bd>
     449: 84 18        	sty	$18                     ; 0x2018 <dispatchAction+0x3bc>
     44b: 8a           	txa
     44c: 18           	clc
     44d: 69 04        	adc	#$4
     44f: 85 1a        	sta	$1a                     ; 0x201a <dispatchAction+0x3be>
     451: a5 13        	lda	$13                     ; 0x2013 <dispatchAction+0x3b7>
     453: 69 00        	adc	#$0
     455: 85 1b        	sta	$1b                     ; 0x201b <dispatchAction+0x3bf>
     457: a0 04        	ldy	#$4
     459: b1 16        	lda	($16),y                 ; 0x2016 <dispatchAction+0x3ba>
     45b: 85 16        	sta	$16                     ; 0x2016 <dispatchAction+0x3ba>
     45d: 85 1d        	sta	$1d                     ; 0x201d <dispatchAction+0x3c1>
     45f: a0 01        	ldy	#$1
     461: b1 18        	lda	($18),y                 ; 0x2018 <dispatchAction+0x3bc>
     463: 85 17        	sta	$17                     ; 0x2017 <dispatchAction+0x3bb>
     465: 85 19        	sta	$19                     ; 0x2019 <dispatchAction+0x3bd>
     467: a0 04        	ldy	#$4
     469: a5 1d        	lda	$1d                     ; 0x201d <dispatchAction+0x3c1>
     46b: 91 12        	sta	($12),y                 ; 0x2012 <dispatchAction+0x3b6>
     46d: a5 19        	lda	$19                     ; 0x2019 <dispatchAction+0x3bd>
     46f: a0 01        	ldy	#$1
     471: 91 1a        	sta	($1a),y                 ; 0x201a <dispatchAction+0x3be>
     473: 18           	clc
     474: a5 1d        	lda	$1d                     ; 0x201d <dispatchAction+0x3c1>
     476: 69 02        	adc	#$2
     478: 85 18        	sta	$18                     ; 0x2018 <dispatchAction+0x3bc>
     47a: a5 19        	lda	$19                     ; 0x2019 <dispatchAction+0x3bd>
     47c: 69 00        	adc	#$0
     47e: 85 19        	sta	$19                     ; 0x2019 <dispatchAction+0x3bd>
     480: 8a           	txa
     481: c8           	iny
     482: 91 16        	sta	($16),y                 ; 0x2016 <dispatchAction+0x3ba>
     484: a5 13        	lda	$13                     ; 0x2013 <dispatchAction+0x3b7>
     486: 88           	dey
     487: 91 18        	sta	($18),y                 ; 0x2018 <dispatchAction+0x3bc>
     489: c8           	iny
     48a: b1 12        	lda	($12),y                 ; 0x2012 <dispatchAction+0x3b6>
     48c: 85 16        	sta	$16                     ; 0x2016 <dispatchAction+0x3ba>
     48e: 85 18        	sta	$18                     ; 0x2018 <dispatchAction+0x3bc>
     490: 88           	dey
     491: b1 14        	lda	($14),y                 ; 0x2014 <dispatchAction+0x3b8>
     493: 85 17        	sta	$17                     ; 0x2017 <dispatchAction+0x3bb>
     495: 85 14        	sta	$14                     ; 0x2014 <dispatchAction+0x3b8>
     497: 8a           	txa
     498: a0 04        	ldy	#$4
     49a: 91 16        	sta	($16),y                 ; 0x2016 <dispatchAction+0x3ba>
     49c: 18           	clc
     49d: a5 18        	lda	$18                     ; 0x2018 <dispatchAction+0x3bc>
     49f: 69 04        	adc	#$4
     4a1: a8           	tay
     4a2: a5 14        	lda	$14                     ; 0x2014 <dispatchAction+0x3b8>
     4a4: 69 00        	adc	#$0
     4a6: 84 14        	sty	$14                     ; 0x2014 <dispatchAction+0x3b8>
     4a8: 85 15        	sta	$15                     ; 0x2015 <dispatchAction+0x3b9>
     4aa: a5 13        	lda	$13                     ; 0x2013 <dispatchAction+0x3b7>
     4ac: a0 01        	ldy	#$1
     4ae: 91 14        	sta	($14),y                 ; 0x2014 <dispatchAction+0x3b8>
     4b0: 60           	rts
     4b1: 00           	brk

000004b2 <_ZN12_GLOBAL__N_19FreeChunk6removeEv>:
     4b2: a0 01        	ldy	#$1
     4b4: a9 fe        	lda	#$fe
     4b6: 32 12        	and	($12)                   ; 0x2012 <dispatchAction+0x3b6>
     4b8: 85 14        	sta	$14                     ; 0x2014 <dispatchAction+0x3b8>
     4ba: ad e7 72     	lda	$72e7                   ; 0x72e7 <_ZN12_GLOBAL__N_19free_sizeE>
     4bd: ae e8 72     	ldx	$72e8                   ; 0x72e8 <_ZN12_GLOBAL__N_19free_sizeE+0x1>
     4c0: 86 15        	stx	$15                     ; 0x2015 <dispatchAction+0x3b9>
     4c2: 38           	sec
     4c3: e5 14        	sbc	$14                     ; 0x2014 <dispatchAction+0x3b8>
     4c5: aa           	tax
     4c6: a5 15        	lda	$15                     ; 0x2015 <dispatchAction+0x3b9>
     4c8: f1 12        	sbc	($12),y                 ; 0x2012 <dispatchAction+0x3b6>
     4ca: 85 14        	sta	$14                     ; 0x2014 <dispatchAction+0x3b8>
     4cc: 18           	clc
     4cd: 8a           	txa
     4ce: 69 02        	adc	#$2
     4d0: 85 15        	sta	$15                     ; 0x2015 <dispatchAction+0x3b9>
     4d2: a5 14        	lda	$14                     ; 0x2014 <dispatchAction+0x3b8>
     4d4: 69 00        	adc	#$0
     4d6: a6 15        	ldx	$15                     ; 0x2015 <dispatchAction+0x3b9>
     4d8: 8e e7 72     	stx	$72e7                   ; 0x72e7 <_ZN12_GLOBAL__N_19free_sizeE>
     4db: 8d e8 72     	sta	$72e8                   ; 0x72e8 <_ZN12_GLOBAL__N_19free_sizeE+0x1>
     4de: a5 12        	lda	$12                     ; 0x2012 <dispatchAction+0x3b6>
     4e0: 18           	clc
     4e1: 69 02        	adc	#$2
     4e3: 85 14        	sta	$14                     ; 0x2014 <dispatchAction+0x3b8>
     4e5: a5 13        	lda	$13                     ; 0x2013 <dispatchAction+0x3b7>
     4e7: 69 00        	adc	#$0
     4e9: c8           	iny
     4ea: 85 15        	sta	$15                     ; 0x2015 <dispatchAction+0x3b9>
     4ec: b1 12        	lda	($12),y                 ; 0x2012 <dispatchAction+0x3b6>
     4ee: aa           	tax
     4ef: 88           	dey
     4f0: b1 14        	lda	($14),y                 ; 0x2014 <dispatchAction+0x3b8>
     4f2: 85 19        	sta	$19                     ; 0x2019 <dispatchAction+0x3bd>
     4f4: c5 13        	cmp	$13                     ; 0x2013 <dispatchAction+0x3b7>
     4f6: d0 0f        	bne	$507 <_ZN12_GLOBAL__N_19FreeChunk6removeEv+0x55>
     4f8: e4 12        	cpx	$12                     ; 0x2012 <dispatchAction+0x3b6>
     4fa: d0 0b        	bne	$507 <_ZN12_GLOBAL__N_19FreeChunk6removeEv+0x55>
     4fc: a2 00        	ldx	#$0
     4fe: 86 14        	stx	$14                     ; 0x2014 <dispatchAction+0x3b8>
     500: a2 00        	ldx	#$0
     502: 86 15        	stx	$15                     ; 0x2015 <dispatchAction+0x3b9>
     504: 4c 86 05     	jmp	$586 <_ZN12_GLOBAL__N_19FreeChunk6removeEv+0xd4>
     507: 86 18        	stx	$18                     ; 0x2018 <dispatchAction+0x3bc>
     509: a6 12        	ldx	$12                     ; 0x2012 <dispatchAction+0x3b6>
     50b: a5 12        	lda	$12                     ; 0x2012 <dispatchAction+0x3b6>
     50d: 86 1b        	stx	$1b                     ; 0x201b <dispatchAction+0x3bf>
     50f: 18           	clc
     510: 69 04        	adc	#$4
     512: 85 14        	sta	$14                     ; 0x2014 <dispatchAction+0x3b8>
     514: a5 13        	lda	$13                     ; 0x2013 <dispatchAction+0x3b7>
     516: 69 00        	adc	#$0
     518: a0 04        	ldy	#$4
     51a: 85 15        	sta	$15                     ; 0x2015 <dispatchAction+0x3b9>
     51c: b1 12        	lda	($12),y                 ; 0x2012 <dispatchAction+0x3b6>
     51e: 85 1c        	sta	$1c                     ; 0x201c <dispatchAction+0x3c0>
     520: 18           	clc
     521: 69 02        	adc	#$2
     523: 85 16        	sta	$16                     ; 0x2016 <dispatchAction+0x3ba>
     525: a0 01        	ldy	#$1
     527: b1 14        	lda	($14),y                 ; 0x2014 <dispatchAction+0x3b8>
     529: aa           	tax
     52a: 69 00        	adc	#$0
     52c: a4 16        	ldy	$16                     ; 0x2016 <dispatchAction+0x3ba>
     52e: 84 14        	sty	$14                     ; 0x2014 <dispatchAction+0x3b8>
     530: 85 15        	sta	$15                     ; 0x2015 <dispatchAction+0x3b9>
     532: a4 1c        	ldy	$1c                     ; 0x201c <dispatchAction+0x3c0>
     534: 84 16        	sty	$16                     ; 0x2016 <dispatchAction+0x3ba>
     536: 86 17        	stx	$17                     ; 0x2017 <dispatchAction+0x3bb>
     538: a0 02        	ldy	#$2
     53a: a5 18        	lda	$18                     ; 0x2018 <dispatchAction+0x3bc>
     53c: 91 16        	sta	($16),y                 ; 0x2016 <dispatchAction+0x3ba>
     53e: a5 19        	lda	$19                     ; 0x2019 <dispatchAction+0x3bd>
     540: 88           	dey
     541: 91 14        	sta	($14),y                 ; 0x2014 <dispatchAction+0x3b8>
     543: 18           	clc
     544: a5 1b        	lda	$1b                     ; 0x201b <dispatchAction+0x3bf>
     546: 69 02        	adc	#$2
     548: 85 14        	sta	$14                     ; 0x2014 <dispatchAction+0x3b8>
     54a: a5 13        	lda	$13                     ; 0x2013 <dispatchAction+0x3b7>
     54c: 69 00        	adc	#$0
     54e: 85 15        	sta	$15                     ; 0x2015 <dispatchAction+0x3b9>
     550: c8           	iny
     551: b1 12        	lda	($12),y                 ; 0x2012 <dispatchAction+0x3b6>
     553: 85 16        	sta	$16                     ; 0x2016 <dispatchAction+0x3ba>
     555: 88           	dey
     556: b1 14        	lda	($14),y                 ; 0x2014 <dispatchAction+0x3b8>
     558: a4 16        	ldy	$16                     ; 0x2016 <dispatchAction+0x3ba>
     55a: 84 14        	sty	$14                     ; 0x2014 <dispatchAction+0x3b8>
     55c: 85 15        	sta	$15                     ; 0x2015 <dispatchAction+0x3b9>
     55e: 85 17        	sta	$17                     ; 0x2017 <dispatchAction+0x3bb>
     560: a0 04        	ldy	#$4
     562: a5 1c        	lda	$1c                     ; 0x201c <dispatchAction+0x3c0>
     564: 91 14        	sta	($14),y                 ; 0x2014 <dispatchAction+0x3b8>
     566: 18           	clc
     567: a5 16        	lda	$16                     ; 0x2016 <dispatchAction+0x3ba>
     569: 69 04        	adc	#$4
     56b: 85 16        	sta	$16                     ; 0x2016 <dispatchAction+0x3ba>
     56d: a5 17        	lda	$17                     ; 0x2017 <dispatchAction+0x3bb>
     56f: 69 00        	adc	#$0
     571: 85 17        	sta	$17                     ; 0x2017 <dispatchAction+0x3bb>
     573: 8a           	txa
     574: a0 01        	ldy	#$1
     576: 91 16        	sta	($16),y                 ; 0x2016 <dispatchAction+0x3ba>
     578: ae ea 72     	ldx	$72ea                   ; 0x72ea <_ZN12_GLOBAL__N_19free_listE+0x1>
     57b: e4 13        	cpx	$13                     ; 0x2013 <dispatchAction+0x3b7>
     57d: d0 11        	bne	$590 <_ZN12_GLOBAL__N_19FreeChunk6removeEv+0xde>
     57f: ae e9 72     	ldx	$72e9                   ; 0x72e9 <_ZN12_GLOBAL__N_19free_listE>
     582: e4 12        	cpx	$12                     ; 0x2012 <dispatchAction+0x3b6>
     584: d0 0a        	bne	$590 <_ZN12_GLOBAL__N_19FreeChunk6removeEv+0xde>
     586: a6 14        	ldx	$14                     ; 0x2014 <dispatchAction+0x3b8>
     588: a4 15        	ldy	$15                     ; 0x2015 <dispatchAction+0x3b9>
     58a: 8e e9 72     	stx	$72e9                   ; 0x72e9 <_ZN12_GLOBAL__N_19free_listE>
     58d: 8c ea 72     	sty	$72ea                   ; 0x72ea <_ZN12_GLOBAL__N_19free_listE+0x1>
     590: 60           	rts
     591: 00           	brk

00000592 <_ZN6__impl6VarInt4makeEPvc>:
     592: 92 12        	sta	($12)                   ; 0x2012 <dispatchAction+0x3b6>
     594: 60           	rts
     595: 00           	brk

00000596 <_ZNK6__impl6VarInt8high_bitEv>:
     596: b2 12        	lda	($12)                   ; 0x2012 <dispatchAction+0x3b6>
     598: a8           	tay
     599: b1 12        	lda	($12),y                 ; 0x2012 <dispatchAction+0x3b6>
     59b: 10 03        	bpl	$5a0 <_ZNK6__impl6VarInt8high_bitEv+0xa>
     59d: a9 01        	lda	#$1
     59f: 60           	rts
     5a0: a9 00        	lda	#$0
     5a2: 60           	rts
     5a3: 00           	brk

000005a4 <_ZNK6__impl6VarInt8negativeEv>:
     5a4: b2 12        	lda	($12)                   ; 0x2012 <dispatchAction+0x3b6>
     5a6: a8           	tay
     5a7: b1 12        	lda	($12),y                 ; 0x2012 <dispatchAction+0x3b6>
     5a9: 10 03        	bpl	$5ae <_ZNK6__impl6VarInt8negativeEv+0xa>
     5ab: a9 01        	lda	#$1
     5ad: 60           	rts
     5ae: a9 00        	lda	#$0
     5b0: 60           	rts
     5b1: 00           	brk

000005b2 <_ZN6__impl6VarInt6negateEv>:
     5b2: b2 12        	lda	($12)                   ; 0x2012 <dispatchAction+0x3b6>
     5b4: f0 42        	beq	$5f8 <_ZN6__impl6VarInt6negateEv+0x46>
     5b6: aa           	tax
     5b7: a4 12        	ldy	$12                     ; 0x2012 <dispatchAction+0x3b6>
     5b9: 84 16        	sty	$16                     ; 0x2016 <dispatchAction+0x3ba>
     5bb: a4 13        	ldy	$13                     ; 0x2013 <dispatchAction+0x3b7>
     5bd: 84 17        	sty	$17                     ; 0x2017 <dispatchAction+0x3bb>
     5bf: 64 12        	stz	$12                     ; 0x2012 <dispatchAction+0x3b6>
     5c1: 64 13        	stz	$13                     ; 0x2013 <dispatchAction+0x3b7>
     5c3: a0 01        	ldy	#$1
     5c5: a5 16        	lda	$16                     ; 0x2016 <dispatchAction+0x3ba>
     5c7: 18           	clc
     5c8: 65 12        	adc	$12                     ; 0x2012 <dispatchAction+0x3b6>
     5ca: 85 14        	sta	$14                     ; 0x2014 <dispatchAction+0x3b8>
     5cc: a5 17        	lda	$17                     ; 0x2017 <dispatchAction+0x3bb>
     5ce: 69 00        	adc	#$0
     5d0: 85 15        	sta	$15                     ; 0x2015 <dispatchAction+0x3b9>
     5d2: a9 00        	lda	#$0
     5d4: 38           	sec
     5d5: f1 14        	sbc	($14),y                 ; 0x2014 <dispatchAction+0x3b8>
     5d7: 64 19        	stz	$19                     ; 0x2019 <dispatchAction+0x3bd>
     5d9: b0 02        	bcs	$5dd <_ZN6__impl6VarInt6negateEv+0x2b>
     5db: 84 19        	sty	$19                     ; 0x2019 <dispatchAction+0x3bd>
     5dd: 38           	sec
     5de: e5 13        	sbc	$13                     ; 0x2013 <dispatchAction+0x3b7>
     5e0: 85 18        	sta	$18                     ; 0x2018 <dispatchAction+0x3bc>
     5e2: 64 13        	stz	$13                     ; 0x2013 <dispatchAction+0x3b7>
     5e4: b0 02        	bcs	$5e8 <_ZN6__impl6VarInt6negateEv+0x36>
     5e6: 84 13        	sty	$13                     ; 0x2013 <dispatchAction+0x3b7>
     5e8: a5 19        	lda	$19                     ; 0x2019 <dispatchAction+0x3bd>
     5ea: 05 13        	ora	$13                     ; 0x2013 <dispatchAction+0x3b7>
     5ec: 85 13        	sta	$13                     ; 0x2013 <dispatchAction+0x3b7>
     5ee: a5 18        	lda	$18                     ; 0x2018 <dispatchAction+0x3bc>
     5f0: 91 14        	sta	($14),y                 ; 0x2014 <dispatchAction+0x3b8>
     5f2: e6 12        	inc	$12                     ; 0x2012 <dispatchAction+0x3b6>
     5f4: e4 12        	cpx	$12                     ; 0x2012 <dispatchAction+0x3b6>
     5f6: d0 cd        	bne	$5c5 <_ZN6__impl6VarInt6negateEv+0x13>
     5f8: 60           	rts
     5f9: 00           	brk

000005fa <_ZN6__impl6VarInt3shlEv>:
     5fa: b2 12        	lda	($12)                   ; 0x2012 <dispatchAction+0x3b6>
     5fc: f0 36        	beq	$634 <_ZN6__impl6VarInt3shlEv+0x3a>
     5fe: 85 17        	sta	$17                     ; 0x2017 <dispatchAction+0x3bb>
     600: 64 14        	stz	$14                     ; 0x2014 <dispatchAction+0x3b8>
     602: a6 12        	ldx	$12                     ; 0x2012 <dispatchAction+0x3b6>
     604: 86 15        	stx	$15                     ; 0x2015 <dispatchAction+0x3b9>
     606: a6 13        	ldx	$13                     ; 0x2013 <dispatchAction+0x3b7>
     608: 86 18        	stx	$18                     ; 0x2018 <dispatchAction+0x3bc>
     60a: a0 01        	ldy	#$1
     60c: 64 12        	stz	$12                     ; 0x2012 <dispatchAction+0x3b6>
     60e: a5 15        	lda	$15                     ; 0x2015 <dispatchAction+0x3b9>
     610: 18           	clc
     611: 65 12        	adc	$12                     ; 0x2012 <dispatchAction+0x3b6>
     613: 85 16        	sta	$16                     ; 0x2016 <dispatchAction+0x3ba>
     615: a6 17        	ldx	$17                     ; 0x2017 <dispatchAction+0x3bb>
     617: a5 18        	lda	$18                     ; 0x2018 <dispatchAction+0x3bc>
     619: 69 00        	adc	#$0
     61b: 85 17        	sta	$17                     ; 0x2017 <dispatchAction+0x3bb>
     61d: b1 16        	lda	($16),y                 ; 0x2016 <dispatchAction+0x3ba>
     61f: 0a           	asl
     620: 64 13        	stz	$13                     ; 0x2013 <dispatchAction+0x3b7>
     622: 26 13        	rol	$13                     ; 0x2013 <dispatchAction+0x3b7>
     624: 05 14        	ora	$14                     ; 0x2014 <dispatchAction+0x3b8>
     626: 91 16        	sta	($16),y                 ; 0x2016 <dispatchAction+0x3ba>
     628: e6 12        	inc	$12                     ; 0x2012 <dispatchAction+0x3b6>
     62a: a5 13        	lda	$13                     ; 0x2013 <dispatchAction+0x3b7>
     62c: 85 14        	sta	$14                     ; 0x2014 <dispatchAction+0x3b8>
     62e: 86 17        	stx	$17                     ; 0x2017 <dispatchAction+0x3bb>
     630: e4 12        	cpx	$12                     ; 0x2012 <dispatchAction+0x3b6>
     632: d0 da        	bne	$60e <_ZN6__impl6VarInt3shlEv+0x14>
     634: 60           	rts

00000635 <__call_indir>:
     635: 6c 22 00     	jmp	($22)                   ; 0x22 <__rc18>

00000638 <__zero_bss>:
     638: a2 f7        	ldx	#$f7
     63a: a0 05        	ldy	#$5
     63c: a9 f4        	lda	#$f4
     63e: 85 12        	sta	$12                     ; 0x2012 <dispatchAction+0x3b6>
     640: a9 6c        	lda	#$6c
     642: 85 13        	sta	$13                     ; 0x2013 <dispatchAction+0x3b7>
     644: a9 00        	lda	#$0
     646: 84 14        	sty	$14                     ; 0x2014 <dispatchAction+0x3b8>
     648: 4c 1c 66     	jmp	$661c <__memset>

0000064b <__zero_zp_bss>:
     64b: a2 58        	ldx	#$58
     64d: a0 00        	ldy	#$0
     64f: a9 8b        	lda	#$8b
     651: 85 12        	sta	$12                     ; 0x2012 <dispatchAction+0x3b6>
     653: a9 00        	lda	#$0
     655: 85 13        	sta	$13                     ; 0x2013 <dispatchAction+0x3b7>
     657: a9 00        	lda	#$0
     659: 84 14        	sty	$14                     ; 0x2014 <dispatchAction+0x3b8>
     65b: 4c 1c 66     	jmp	$661c <__memset>

0000065e <__copy_zp_data>:
     65e: a9 5b        	lda	#$5b
     660: a2 00        	ldx	#$0
     662: a0 30        	ldy	#$30
     664: 84 12        	sty	$12                     ; 0x2012 <dispatchAction+0x3b6>
     666: a0 00        	ldy	#$0
     668: 84 13        	sty	$13                     ; 0x2013 <dispatchAction+0x3b7>
     66a: a0 00        	ldy	#$0
     66c: 84 14        	sty	$14                     ; 0x2014 <dispatchAction+0x3b8>
     66e: a0 03        	ldy	#$3
     670: 84 15        	sty	$15                     ; 0x2015 <dispatchAction+0x3b9>
     672: 4c f0 65     	jmp	$65f0 <memcpy>

00000675 <f256Init>:
     675: 64 12        	stz	$12                     ; 0x2012 <dispatchAction+0x3b6>
     677: 64 01        	stz	$1                      ; 0x2001 <dispatchAction+0x3a5>
     679: a2 3f        	ldx	#$3f
     67b: 8e 00 d0     	stx	$d000                   ; 0xd000 <end_block9+0x5d0a>
     67e: a2 b3        	ldx	#$b3
     680: 86 00        	stx	$0                      ; 0x2000 <dispatchAction+0x3a4>
     682: 64 08        	stz	$8                      ; 0x2008 <dispatchAction+0x3ac>
     684: a2 01        	ldx	#$1
     686: 86 09        	stx	$9                      ; 0x2009 <dispatchAction+0x3ad>
     688: e8           	inx
     689: 86 0a        	stx	$a                      ; 0x200a <dispatchAction+0x3ae>
     68b: e8           	inx
     68c: 86 0b        	stx	$b                      ; 0x200b <dispatchAction+0x3af>
     68e: e8           	inx
     68f: 86 0c        	stx	$c                      ; 0x200c <dispatchAction+0x3b0>
     691: e8           	inx
     692: 86 0d        	stx	$d                      ; 0x200d <dispatchAction+0x3b1>
     694: a2 f0        	ldx	#$f0
     696: 8e f4 6c     	stx	$6cf4                   ; 0x6cf4 <kernelArgs>
     699: 9c f5 6c     	stz	$6cf5                   ; 0x6cf5 <kernelArgs+0x1>
     69c: a2 8b        	ldx	#$8b
     69e: a0 00        	ldy	#$0
     6a0: 86 f0        	stx	$f0                     ; 0x20f0 <dispatchAction+0x494>
     6a2: 84 f1        	sty	$f1                     ; 0x20f1 <dispatchAction+0x495>
     6a4: a2 00        	ldx	#$0
     6a6: 86 16        	stx	$16                     ; 0x2016 <dispatchAction+0x3ba>
     6a8: ca           	dex
     6a9: 86 17        	stx	$17                     ; 0x2017 <dispatchAction+0x3bb>
     6ab: 8a           	txa
     6ac: 0a           	asl
     6ad: 0a           	asl
     6ae: 18           	clc
     6af: 69 d4        	adc	#$d4
     6b1: 85 18        	sta	$18                     ; 0x2018 <dispatchAction+0x3bc>
     6b3: a0 00        	ldy	#$0
     6b5: 64 15        	stz	$15                     ; 0x2015 <dispatchAction+0x3b9>
     6b7: 64 14        	stz	$14                     ; 0x2014 <dispatchAction+0x3b8>
     6b9: a6 17        	ldx	$17                     ; 0x2017 <dispatchAction+0x3bb>
     6bb: e0 03        	cpx	#$3
     6bd: a6 01        	ldx	$1                      ; 0x2001 <dispatchAction+0x3a5>
     6bf: 86 1a        	stx	$1a                     ; 0x201a <dispatchAction+0x3be>
     6c1: a2 d0        	ldx	#$d0
     6c3: 84 19        	sty	$19                     ; 0x2019 <dispatchAction+0x3bd>
     6c5: b0 02        	bcs	$6c9 <f256Init+0x54>
     6c7: a6 18        	ldx	$18                     ; 0x2018 <dispatchAction+0x3bc>
     6c9: 86 13        	stx	$13                     ; 0x2013 <dispatchAction+0x3b7>
     6cb: a5 15        	lda	$15                     ; 0x2015 <dispatchAction+0x3b9>
     6cd: 18           	clc
     6ce: 65 12        	adc	$12                     ; 0x2012 <dispatchAction+0x3b6>
     6d0: a8           	tay
     6d1: a6 15        	ldx	$15                     ; 0x2015 <dispatchAction+0x3b9>
     6d3: a5 14        	lda	$14                     ; 0x2014 <dispatchAction+0x3b8>
     6d5: 85 1b        	sta	$1b                     ; 0x201b <dispatchAction+0x3bf>
     6d7: a5 14        	lda	$14                     ; 0x2014 <dispatchAction+0x3b8>
     6d9: 65 13        	adc	$13                     ; 0x2013 <dispatchAction+0x3b7>
     6db: 84 14        	sty	$14                     ; 0x2014 <dispatchAction+0x3b8>
     6dd: a0 01        	ldy	#$1
     6df: 84 01        	sty	$1                      ; 0x2001 <dispatchAction+0x3a5>
     6e1: 85 15        	sta	$15                     ; 0x2015 <dispatchAction+0x3b9>
     6e3: a5 19        	lda	$19                     ; 0x2019 <dispatchAction+0x3bd>
     6e5: 92 14        	sta	($14)                   ; 0x2014 <dispatchAction+0x3b8>
     6e7: 91 14        	sta	($14),y                 ; 0x2014 <dispatchAction+0x3b8>
     6e9: c8           	iny
     6ea: 91 14        	sta	($14),y                 ; 0x2014 <dispatchAction+0x3b8>
     6ec: 85 13        	sta	$13                     ; 0x2013 <dispatchAction+0x3b7>
     6ee: c8           	iny
     6ef: a9 ff        	lda	#$ff
     6f1: 91 14        	sta	($14),y                 ; 0x2014 <dispatchAction+0x3b8>
     6f3: 8a           	txa
     6f4: a6 1a        	ldx	$1a                     ; 0x201a <dispatchAction+0x3be>
     6f6: 86 01        	stx	$1                      ; 0x2001 <dispatchAction+0x3a5>
     6f8: 18           	clc
     6f9: 69 04        	adc	#$4
     6fb: 85 15        	sta	$15                     ; 0x2015 <dispatchAction+0x3b9>
     6fd: a5 1b        	lda	$1b                     ; 0x201b <dispatchAction+0x3bf>
     6ff: 69 00        	adc	#$0
     701: e6 13        	inc	$13                     ; 0x2013 <dispatchAction+0x3b7>
     703: a4 13        	ldy	$13                     ; 0x2013 <dispatchAction+0x3b7>
     705: 85 14        	sta	$14                     ; 0x2014 <dispatchAction+0x3b8>
     707: c9 04        	cmp	#$4
     709: f0 03        	beq	$70e <f256Init+0x99>
     70b: 4c b9 06     	jmp	$6b9 <f256Init+0x44>
     70e: a5 15        	lda	$15                     ; 0x2015 <dispatchAction+0x3b9>
     710: f0 03        	beq	$715 <f256Init+0xa0>
     712: 4c b9 06     	jmp	$6b9 <f256Init+0x44>
     715: a6 16        	ldx	$16                     ; 0x2016 <dispatchAction+0x3ba>
     717: e8           	inx
     718: e0 04        	cpx	#$4
     71a: f0 03        	beq	$71f <f256Init+0xaa>
     71c: 4c a6 06     	jmp	$6a6 <f256Init+0x31>
     71f: ad 02 d0     	lda	$d002                   ; 0xd002 <end_block9+0x5d0c>
     722: 29 f0        	and	#$f0
     724: 8d 02 d0     	sta	$d002                   ; 0xd002 <end_block9+0x5d0c>
     727: ad 02 d0     	lda	$d002                   ; 0xd002 <end_block9+0x5d0c>
     72a: 29 0f        	and	#$f
     72c: 09 10        	ora	#$10
     72e: 8d 02 d0     	sta	$d002                   ; 0xd002 <end_block9+0x5d0c>
     731: a2 02        	ldx	#$2
     733: 8e 03 d0     	stx	$d003                   ; 0xd003 <end_block9+0x5d0d>
     736: 20 04 08     	jsr	$804 <textReset>
     739: 20 7a 09     	jsr	$97a <bitmapReset>
     73c: a9 10        	lda	#$10
     73e: a2 08        	ldx	#$8
     740: 8e 09 6d     	stx	$6d09                   ; 0x6d09 <_tileSize>
     743: 8e 0a 6d     	stx	$6d0a                   ; 0x6d0a <_tileSize+0x1>
     746: 8e 0b 6d     	stx	$6d0b                   ; 0x6d0b <_tileSize+0x2>
     749: 8d 00 d2     	sta	$d200                   ; 0xd200 <end_block9+0x5f0a>
     74c: ac 0a 6d     	ldy	$6d0a                   ; 0x6d0a <_tileSize+0x1>
     74f: aa           	tax
     750: c0 08        	cpy	#$8
     752: f0 02        	beq	$756 <f256Init+0xe1>
     754: a2 00        	ldx	#$0
     756: 8e 0c d2     	stx	$d20c                   ; 0xd20c <end_block9+0x5f16>
     759: ae 0b 6d     	ldx	$6d0b                   ; 0x6d0b <_tileSize+0x2>
     75c: e0 08        	cpx	#$8
     75e: f0 02        	beq	$762 <f256Init+0xed>
     760: a9 00        	lda	#$0
     762: 8d 18 d2     	sta	$d218                   ; 0xd218 <end_block9+0x5f22>
     765: a0 d9        	ldy	#$d9
     767: a2 00        	ldx	#$0
     769: 64 12        	stz	$12                     ; 0x2012 <dispatchAction+0x3b6>
     76b: 84 13        	sty	$13                     ; 0x2013 <dispatchAction+0x3b7>
     76d: bd 0c 6d     	lda	$6d0c,x                 ; 0x6d0c <_spriteCtl>
     770: 92 12        	sta	($12)                   ; 0x2012 <dispatchAction+0x3b6>
     772: e8           	inx
     773: 18           	clc
     774: a5 12        	lda	$12                     ; 0x2012 <dispatchAction+0x3b6>
     776: 69 08        	adc	#$8
     778: 85 12        	sta	$12                     ; 0x2012 <dispatchAction+0x3b6>
     77a: 98           	tya
     77b: 69 00        	adc	#$0
     77d: a8           	tay
     77e: e0 40        	cpx	#$40
     780: d0 e9        	bne	$76b <f256Init+0xf6>
     782: 9c 4c 6d     	stz	$6d4c                   ; 0x6d4c <_dirStream>
     785: 9c 4d 6d     	stz	$6d4d                   ; 0x6d4d <_dirStream+0x1>
     788: 9c 4e 6d     	stz	$6d4e                   ; 0x6d4e <_dirStream+0x2>
     78b: 9c 4f 6d     	stz	$6d4f                   ; 0x6d4f <_dirStream+0x3>
     78e: 9c 50 6d     	stz	$6d50                   ; 0x6d50 <_dirStream+0x4>
     791: 9c 51 6d     	stz	$6d51                   ; 0x6d51 <_dirStream+0x5>
     794: 9c 52 6d     	stz	$6d52                   ; 0x6d52 <_dirStream+0x6>
     797: 9c 53 6d     	stz	$6d53                   ; 0x6d53 <_dirStream+0x7>
     79a: ad f4 6c     	lda	$6cf4                   ; 0x6cf4 <kernelArgs>
     79d: ae f5 6c     	ldx	$6cf5                   ; 0x6cf5 <kernelArgs+0x1>
     7a0: 85 12        	sta	$12                     ; 0x2012 <dispatchAction+0x3b6>
     7a2: 86 13        	stx	$13                     ; 0x2013 <dispatchAction+0x3b7>
     7a4: a0 0b        	ldy	#$b
     7a6: 18           	clc
     7a7: 69 0b        	adc	#$b
     7a9: 85 14        	sta	$14                     ; 0x2014 <dispatchAction+0x3b8>
     7ab: 8a           	txa
     7ac: 69 00        	adc	#$0
     7ae: 85 15        	sta	$15                     ; 0x2015 <dispatchAction+0x3b9>
     7b0: a9 eb        	lda	#$eb
     7b2: 91 12        	sta	($12),y                 ; 0x2012 <dispatchAction+0x3b6>
     7b4: a0 01        	ldy	#$1
     7b6: a9 72        	lda	#$72
     7b8: 91 14        	sta	($14),y                 ; 0x2014 <dispatchAction+0x3b8>
     7ba: a0 0d        	ldy	#$d
     7bc: a9 08        	lda	#$8
     7be: 91 12        	sta	($12),y                 ; 0x2012 <dispatchAction+0x3b6>
     7c0: a2 e3        	ldx	#$e3
     7c2: a0 00        	ldy	#$0
     7c4: 86 12        	stx	$12                     ; 0x2012 <dispatchAction+0x3b6>
     7c6: 84 13        	sty	$13                     ; 0x2013 <dispatchAction+0x3b7>
     7c8: a2 f6        	ldx	#$f6
     7ca: 86 14        	stx	$14                     ; 0x2014 <dispatchAction+0x3b8>
     7cc: a2 6c        	ldx	#$6c
     7ce: 86 15        	stx	$15                     ; 0x2015 <dispatchAction+0x3b9>
     7d0: 20 dc ff     	jsr	$ffdc <end_block9+0x8ce6>
     7d3: 92 12        	sta	($12)                   ; 0x2012 <dispatchAction+0x3b6>
     7d5: a9 00        	lda	#$0
     7d7: 6a           	ror
     7d8: 85 14        	sta	$14                     ; 0x2014 <dispatchAction+0x3b8>
     7da: ae f1 72     	ldx	$72f1                   ; 0x72f1 <__data_load_start+0x6bf>
     7dd: ac f2 72     	ldy	$72f2                   ; 0x72f2 <__data_load_start+0x6c0>
     7e0: 8e 00 de     	stx	$de00                   ; 0xde00 <end_block9+0x6b0a>
     7e3: 9c 01 de     	stz	$de01                   ; 0xde01 <end_block9+0x6b0b>
     7e6: 8c 02 de     	sty	$de02                   ; 0xde02 <end_block9+0x6b0c>
     7e9: 9c 03 de     	stz	$de03                   ; 0xde03 <end_block9+0x6b0d>
     7ec: ae 10 de     	ldx	$de10                   ; 0xde10 <end_block9+0x6b1a>
     7ef: ac 11 de     	ldy	$de11                   ; 0xde11 <end_block9+0x6b1b>
     7f2: ad 12 de     	lda	$de12                   ; 0xde12 <end_block9+0x6b1c>
     7f5: ad 13 de     	lda	$de13                   ; 0xde13 <end_block9+0x6b1d>
     7f8: 8e a4 d6     	stx	$d6a4                   ; 0xd6a4 <end_block9+0x63ae>
     7fb: 8c a5 d6     	sty	$d6a5                   ; 0xd6a5 <end_block9+0x63af>
     7fe: a2 03        	ldx	#$3
     800: 8e a6 d6     	stx	$d6a6                   ; 0xd6a6 <end_block9+0x63b0>
     803: 60           	rts

00000804 <textReset>:
     804: 64 14        	stz	$14                     ; 0x2014 <dispatchAction+0x3b8>
     806: a2 00        	ldx	#$0
     808: 86 12        	stx	$12                     ; 0x2012 <dispatchAction+0x3b6>
     80a: a2 c0        	ldx	#$c0
     80c: 86 13        	stx	$13                     ; 0x2013 <dispatchAction+0x3b7>
     80e: a2 f0        	ldx	#$f0
     810: 86 32        	stx	$32                     ; 0x2032 <dispatchAction+0x3d6>
     812: ad 01 d0     	lda	$d001                   ; 0xd001 <end_block9+0x5d0b>
     815: 29 f9        	and	#$f9
     817: 09 04        	ora	#$4
     819: 8d 01 d0     	sta	$d001                   ; 0xd001 <end_block9+0x5d0b>
     81c: a2 50        	ldx	#$50
     81e: 86 30        	stx	$30                     ; 0x2030 <dispatchAction+0x3d4>
     820: a2 1e        	ldx	#$1e
     822: 86 31        	stx	$31                     ; 0x2031 <dispatchAction+0x3d5>
     824: 9c 10 d0     	stz	$d010                   ; 0xd010 <end_block9+0x5d1a>
     827: a0 00        	ldy	#$0
     829: a2 00        	ldx	#$0
     82b: 84 18        	sty	$18                     ; 0x2018 <dispatchAction+0x3bc>
     82d: b9 32 6c     	lda	$6c32,y                 ; 0x6c32 <textColors>
     830: 85 1b        	sta	$1b                     ; 0x201b <dispatchAction+0x3bf>
     832: b9 33 6c     	lda	$6c33,y                 ; 0x6c33 <textColors+0x1>
     835: 85 1c        	sta	$1c                     ; 0x201c <dispatchAction+0x3c0>
     837: b9 34 6c     	lda	$6c34,y                 ; 0x6c34 <textColors+0x2>
     83a: 85 1d        	sta	$1d                     ; 0x201d <dispatchAction+0x3c1>
     83c: 84 1a        	sty	$1a                     ; 0x201a <dispatchAction+0x3be>
     83e: 8e 00 de     	stx	$de00                   ; 0xde00 <end_block9+0x6b0a>
     841: 9c 01 de     	stz	$de01                   ; 0xde01 <end_block9+0x6b0b>
     844: a0 04        	ldy	#$4
     846: 8c 02 de     	sty	$de02                   ; 0xde02 <end_block9+0x6b0c>
     849: 9c 03 de     	stz	$de03                   ; 0xde03 <end_block9+0x6b0d>
     84c: ac 10 de     	ldy	$de10                   ; 0xde10 <end_block9+0x6b1a>
     84f: ad 11 de     	lda	$de11                   ; 0xde11 <end_block9+0x6b1b>
     852: 85 15        	sta	$15                     ; 0x2015 <dispatchAction+0x3b9>
     854: 18           	clc
     855: 98           	tya
     856: 65 14        	adc	$14                     ; 0x2014 <dispatchAction+0x3b8>
     858: 85 16        	sta	$16                     ; 0x2016 <dispatchAction+0x3ba>
     85a: a9 d8        	lda	#$d8
     85c: 65 15        	adc	$15                     ; 0x2015 <dispatchAction+0x3b9>
     85e: 86 19        	stx	$19                     ; 0x2019 <dispatchAction+0x3bd>
     860: ae 12 de     	ldx	$de12                   ; 0xde12 <end_block9+0x6b1c>
     863: ae 13 de     	ldx	$de13                   ; 0xde13 <end_block9+0x6b1d>
     866: 85 17        	sta	$17                     ; 0x2017 <dispatchAction+0x3bb>
     868: a5 1d        	lda	$1d                     ; 0x201d <dispatchAction+0x3c1>
     86a: 92 16        	sta	($16)                   ; 0x2016 <dispatchAction+0x3ba>
     86c: a0 01        	ldy	#$1
     86e: a5 1c        	lda	$1c                     ; 0x201c <dispatchAction+0x3c0>
     870: 91 16        	sta	($16),y                 ; 0x2016 <dispatchAction+0x3ba>
     872: c8           	iny
     873: a5 1b        	lda	$1b                     ; 0x201b <dispatchAction+0x3bf>
     875: 91 16        	sta	($16),y                 ; 0x2016 <dispatchAction+0x3ba>
     877: c8           	iny
     878: a9 ff        	lda	#$ff
     87a: 91 16        	sta	($16),y                 ; 0x2016 <dispatchAction+0x3ba>
     87c: a6 1a        	ldx	$1a                     ; 0x201a <dispatchAction+0x3be>
     87e: bc 32 6c     	ldy	$6c32,x                 ; 0x6c32 <textColors>
     881: 84 1a        	sty	$1a                     ; 0x201a <dispatchAction+0x3be>
     883: bc 33 6c     	ldy	$6c33,x                 ; 0x6c33 <textColors+0x1>
     886: 84 1b        	sty	$1b                     ; 0x201b <dispatchAction+0x3bf>
     888: bd 34 6c     	lda	$6c34,x                 ; 0x6c34 <textColors+0x2>
     88b: aa           	tax
     88c: 86 1c        	stx	$1c                     ; 0x201c <dispatchAction+0x3c0>
     88e: a6 19        	ldx	$19                     ; 0x2019 <dispatchAction+0x3bd>
     890: 8e 00 de     	stx	$de00                   ; 0xde00 <end_block9+0x6b0a>
     893: 9c 01 de     	stz	$de01                   ; 0xde01 <end_block9+0x6b0b>
     896: a2 04        	ldx	#$4
     898: 8e 02 de     	stx	$de02                   ; 0xde02 <end_block9+0x6b0c>
     89b: 9c 03 de     	stz	$de03                   ; 0xde03 <end_block9+0x6b0d>
     89e: ae 10 de     	ldx	$de10                   ; 0xde10 <end_block9+0x6b1a>
     8a1: 86 15        	stx	$15                     ; 0x2015 <dispatchAction+0x3b9>
     8a3: ae 11 de     	ldx	$de11                   ; 0xde11 <end_block9+0x6b1b>
     8a6: 86 16        	stx	$16                     ; 0x2016 <dispatchAction+0x3ba>
     8a8: a9 40        	lda	#$40
     8aa: 18           	clc
     8ab: 65 15        	adc	$15                     ; 0x2015 <dispatchAction+0x3b9>
     8ad: aa           	tax
     8ae: a9 d8        	lda	#$d8
     8b0: 65 16        	adc	$16                     ; 0x2016 <dispatchAction+0x3ba>
     8b2: 86 16        	stx	$16                     ; 0x2016 <dispatchAction+0x3ba>
     8b4: ae 12 de     	ldx	$de12                   ; 0xde12 <end_block9+0x6b1c>
     8b7: 85 17        	sta	$17                     ; 0x2017 <dispatchAction+0x3bb>
     8b9: ae 13 de     	ldx	$de13                   ; 0xde13 <end_block9+0x6b1d>
     8bc: a6 19        	ldx	$19                     ; 0x2019 <dispatchAction+0x3bd>
     8be: a5 1c        	lda	$1c                     ; 0x201c <dispatchAction+0x3c0>
     8c0: 92 16        	sta	($16)                   ; 0x2016 <dispatchAction+0x3ba>
     8c2: a0 01        	ldy	#$1
     8c4: a5 1b        	lda	$1b                     ; 0x201b <dispatchAction+0x3bf>
     8c6: 91 16        	sta	($16),y                 ; 0x2016 <dispatchAction+0x3ba>
     8c8: c8           	iny
     8c9: a5 1a        	lda	$1a                     ; 0x201a <dispatchAction+0x3be>
     8cb: 91 16        	sta	($16),y                 ; 0x2016 <dispatchAction+0x3ba>
     8cd: a9 ff        	lda	#$ff
     8cf: c8           	iny
     8d0: 91 16        	sta	($16),y                 ; 0x2016 <dispatchAction+0x3ba>
     8d2: e8           	inx
     8d3: 18           	clc
     8d4: a5 18        	lda	$18                     ; 0x2018 <dispatchAction+0x3bc>
     8d6: 69 03        	adc	#$3
     8d8: a8           	tay
     8d9: c9 30        	cmp	#$30
     8db: f0 03        	beq	$8e0 <textReset+0xdc>
     8dd: 4c 2b 08     	jmp	$82b <textReset+0x27>
     8e0: a6 01        	ldx	$1                      ; 0x2001 <dispatchAction+0x3a5>
     8e2: 86 18        	stx	$18                     ; 0x2018 <dispatchAction+0x3bc>
     8e4: a6 30        	ldx	$30                     ; 0x2030 <dispatchAction+0x3d4>
     8e6: a4 31        	ldy	$31                     ; 0x2031 <dispatchAction+0x3d5>
     8e8: 8e 00 de     	stx	$de00                   ; 0xde00 <end_block9+0x6b0a>
     8eb: 9c 01 de     	stz	$de01                   ; 0xde01 <end_block9+0x6b0b>
     8ee: 8c 02 de     	sty	$de02                   ; 0xde02 <end_block9+0x6b0c>
     8f1: 9c 03 de     	stz	$de03                   ; 0xde03 <end_block9+0x6b0d>
     8f4: ae 10 de     	ldx	$de10                   ; 0xde10 <end_block9+0x6b1a>
     8f7: ac 11 de     	ldy	$de11                   ; 0xde11 <end_block9+0x6b1b>
     8fa: ad 12 de     	lda	$de12                   ; 0xde12 <end_block9+0x6b1c>
     8fd: ad 13 de     	lda	$de13                   ; 0xde13 <end_block9+0x6b1d>
     900: a9 02        	lda	#$2
     902: 85 01        	sta	$1                      ; 0x2001 <dispatchAction+0x3a5>
     904: e0 01        	cpx	#$1
     906: 98           	tya
     907: e9 00        	sbc	#$0
     909: 50 02        	bvc	$90d <textReset+0x109>
     90b: 49 80        	eor	#$80
     90d: c9 00        	cmp	#$0
     90f: 30 50        	bmi	$961 <textReset+0x15d>
     911: a9 20        	lda	#$20
     913: 86 19        	stx	$19                     ; 0x2019 <dispatchAction+0x3bd>
     915: 86 14        	stx	$14                     ; 0x2014 <dispatchAction+0x3b8>
     917: 84 15        	sty	$15                     ; 0x2015 <dispatchAction+0x3b9>
     919: a2 00        	ldx	#$0
     91b: 86 16        	stx	$16                     ; 0x2016 <dispatchAction+0x3ba>
     91d: a2 c0        	ldx	#$c0
     91f: 86 17        	stx	$17                     ; 0x2017 <dispatchAction+0x3bb>
     921: 80 04        	bra	$927 <textReset+0x123>
     923: a6 15        	ldx	$15                     ; 0x2015 <dispatchAction+0x3b9>
     925: f0 14        	beq	$93b <textReset+0x137>
     927: 92 16        	sta	($16)                   ; 0x2016 <dispatchAction+0x3ba>
     929: e6 16        	inc	$16                     ; 0x2016 <dispatchAction+0x3ba>
     92b: d0 02        	bne	$92f <textReset+0x12b>
     92d: e6 17        	inc	$17                     ; 0x2017 <dispatchAction+0x3bb>
     92f: a2 ff        	ldx	#$ff
     931: c6 14        	dec	$14                     ; 0x2014 <dispatchAction+0x3b8>
     933: e4 14        	cpx	$14                     ; 0x2014 <dispatchAction+0x3b8>
     935: d0 ec        	bne	$923 <textReset+0x11f>
     937: c6 15        	dec	$15                     ; 0x2015 <dispatchAction+0x3b9>
     939: 80 e8        	bra	$923 <textReset+0x11f>
     93b: a6 14        	ldx	$14                     ; 0x2014 <dispatchAction+0x3b8>
     93d: d0 e8        	bne	$927 <textReset+0x123>
     93f: a2 03        	ldx	#$3
     941: 86 01        	stx	$1                      ; 0x2001 <dispatchAction+0x3a5>
     943: a6 19        	ldx	$19                     ; 0x2019 <dispatchAction+0x3bd>
     945: 80 03        	bra	$94a <textReset+0x146>
     947: 98           	tya
     948: f0 12        	beq	$95c <textReset+0x158>
     94a: a5 32        	lda	$32                     ; 0x2032 <dispatchAction+0x3d6>
     94c: 92 12        	sta	($12)                   ; 0x2012 <dispatchAction+0x3b6>
     94e: e6 12        	inc	$12                     ; 0x2012 <dispatchAction+0x3b6>
     950: d0 02        	bne	$954 <textReset+0x150>
     952: e6 13        	inc	$13                     ; 0x2013 <dispatchAction+0x3b7>
     954: ca           	dex
     955: e0 ff        	cpx	#$ff
     957: d0 ee        	bne	$947 <textReset+0x143>
     959: 88           	dey
     95a: 80 eb        	bra	$947 <textReset+0x143>
     95c: 8a           	txa
     95d: d0 eb        	bne	$94a <textReset+0x146>
     95f: 80 04        	bra	$965 <textReset+0x161>
     961: a2 03        	ldx	#$3
     963: 86 01        	stx	$1                      ; 0x2001 <dispatchAction+0x3a5>
     965: a6 18        	ldx	$18                     ; 0x2018 <dispatchAction+0x3bc>
     967: 86 01        	stx	$1                      ; 0x2001 <dispatchAction+0x3a5>
     969: 64 92        	stz	$92                     ; 0x2092 <dispatchAction+0x436>
     96b: 9c 14 d0     	stz	$d014                   ; 0xd014 <end_block9+0x5d1e>
     96e: 9c 15 d0     	stz	$d015                   ; 0xd015 <end_block9+0x5d1f>
     971: 64 93        	stz	$93                     ; 0x2093 <dispatchAction+0x437>
     973: 9c 16 d0     	stz	$d016                   ; 0xd016 <end_block9+0x5d20>
     976: 9c 17 d0     	stz	$d017                   ; 0xd017 <end_block9+0x5d21>
     979: 60           	rts

0000097a <bitmapReset>:
     97a: a2 01        	ldx	#$1
     97c: 8e 04 6d     	stx	$6d04                   ; 0x6d04 <_MAX_X>
     97f: 8e 05 6d     	stx	$6d05                   ; 0x6d05 <_MAX_Y>
     982: a0 40        	ldy	#$40
     984: 8c 00 de     	sty	$de00                   ; 0xde00 <end_block9+0x6b0a>
     987: 8e 01 de     	stx	$de01                   ; 0xde01 <end_block9+0x6b0b>
     98a: a2 f0        	ldx	#$f0
     98c: 8e 02 de     	stx	$de02                   ; 0xde02 <end_block9+0x6b0c>
     98f: 9c 03 de     	stz	$de03                   ; 0xde03 <end_block9+0x6b0d>
     992: ae 10 de     	ldx	$de10                   ; 0xde10 <end_block9+0x6b1a>
     995: 86 17        	stx	$17                     ; 0x2017 <dispatchAction+0x3bb>
     997: ae 11 de     	ldx	$de11                   ; 0xde11 <end_block9+0x6b1b>
     99a: 86 12        	stx	$12                     ; 0x2012 <dispatchAction+0x3b6>
     99c: ae 12 de     	ldx	$de12                   ; 0xde12 <end_block9+0x6b1c>
     99f: 86 13        	stx	$13                     ; 0x2013 <dispatchAction+0x3b7>
     9a1: ae 13 de     	ldx	$de13                   ; 0xde13 <end_block9+0x6b1d>
     9a4: 86 14        	stx	$14                     ; 0x2014 <dispatchAction+0x3b8>
     9a6: 9c 03 6d     	stz	$6d03                   ; 0x6d03 <_active>
     9a9: a2 ff        	ldx	#$ff
     9ab: 86 94        	stx	$94                     ; 0x2094 <dispatchAction+0x438>
     9ad: a6 12        	ldx	$12                     ; 0x2012 <dispatchAction+0x3b6>
     9af: 86 15        	stx	$15                     ; 0x2015 <dispatchAction+0x3b9>
     9b1: 06 15        	asl	$15                     ; 0x2015 <dispatchAction+0x3b9>
     9b3: a5 13        	lda	$13                     ; 0x2013 <dispatchAction+0x3b7>
     9b5: 2a           	rol
     9b6: a6 14        	ldx	$14                     ; 0x2014 <dispatchAction+0x3b8>
     9b8: 86 16        	stx	$16                     ; 0x2016 <dispatchAction+0x3ba>
     9ba: 26 16        	rol	$16                     ; 0x2016 <dispatchAction+0x3ba>
     9bc: 06 15        	asl	$15                     ; 0x2015 <dispatchAction+0x3b9>
     9be: 2a           	rol
     9bf: 26 16        	rol	$16                     ; 0x2016 <dispatchAction+0x3ba>
     9c1: 06 15        	asl	$15                     ; 0x2015 <dispatchAction+0x3b9>
     9c3: 2a           	rol
     9c4: 26 16        	rol	$16                     ; 0x2016 <dispatchAction+0x3ba>
     9c6: 85 15        	sta	$15                     ; 0x2015 <dispatchAction+0x3b9>
     9c8: 8d 00 de     	sta	$de00                   ; 0xde00 <end_block9+0x6b0a>
     9cb: a5 16        	lda	$16                     ; 0x2016 <dispatchAction+0x3ba>
     9cd: 8d 01 de     	sta	$de01                   ; 0xde01 <end_block9+0x6b0b>
     9d0: 9c 02 de     	stz	$de02                   ; 0xde02 <end_block9+0x6b0c>
     9d3: a2 20        	ldx	#$20
     9d5: 8e 03 de     	stx	$de03                   ; 0xde03 <end_block9+0x6b0d>
     9d8: ae 10 de     	ldx	$de10                   ; 0xde10 <end_block9+0x6b1a>
     9db: 86 16        	stx	$16                     ; 0x2016 <dispatchAction+0x3ba>
     9dd: ae 11 de     	ldx	$de11                   ; 0xde11 <end_block9+0x6b1b>
     9e0: 86 18        	stx	$18                     ; 0x2018 <dispatchAction+0x3bc>
     9e2: ac 12 de     	ldy	$de12                   ; 0xde12 <end_block9+0x6b1c>
     9e5: ae 13 de     	ldx	$de13                   ; 0xde13 <end_block9+0x6b1d>
     9e8: e4 14        	cpx	$14                     ; 0x2014 <dispatchAction+0x3b8>
     9ea: d0 14        	bne	$a00 <bitmapReset+0x86>
     9ec: c4 13        	cpy	$13                     ; 0x2013 <dispatchAction+0x3b7>
     9ee: d0 10        	bne	$a00 <bitmapReset+0x86>
     9f0: a6 18        	ldx	$18                     ; 0x2018 <dispatchAction+0x3bc>
     9f2: e4 12        	cpx	$12                     ; 0x2012 <dispatchAction+0x3b6>
     9f4: d0 0a        	bne	$a00 <bitmapReset+0x86>
     9f6: a6 16        	ldx	$16                     ; 0x2016 <dispatchAction+0x3ba>
     9f8: e4 17        	cpx	$17                     ; 0x2017 <dispatchAction+0x3bb>
     9fa: d0 04        	bne	$a00 <bitmapReset+0x86>
     9fc: a6 15        	ldx	$15                     ; 0x2015 <dispatchAction+0x3b9>
     9fe: 80 06        	bra	$a06 <bitmapReset+0x8c>
     a00: a6 15        	ldx	$15                     ; 0x2015 <dispatchAction+0x3b9>
     a02: e8           	inx
     a03: d0 01        	bne	$a06 <bitmapReset+0x8c>
     a05: 1a           	inc
     a06: 8e 00 de     	stx	$de00                   ; 0xde00 <end_block9+0x6b0a>
     a09: 8d 01 de     	sta	$de01                   ; 0xde01 <end_block9+0x6b0b>
     a0c: 9c 02 de     	stz	$de02                   ; 0xde02 <end_block9+0x6b0c>
     a0f: a2 20        	ldx	#$20
     a11: 8e 03 de     	stx	$de03                   ; 0xde03 <end_block9+0x6b0d>
     a14: ae 10 de     	ldx	$de10                   ; 0xde10 <end_block9+0x6b1a>
     a17: 86 12        	stx	$12                     ; 0x2012 <dispatchAction+0x3b6>
     a19: ae 11 de     	ldx	$de11                   ; 0xde11 <end_block9+0x6b1b>
     a1c: 86 13        	stx	$13                     ; 0x2013 <dispatchAction+0x3b7>
     a1e: ae 12 de     	ldx	$de12                   ; 0xde12 <end_block9+0x6b1c>
     a21: 86 14        	stx	$14                     ; 0x2014 <dispatchAction+0x3b8>
     a23: ae 13 de     	ldx	$de13                   ; 0xde13 <end_block9+0x6b1d>
     a26: 86 15        	stx	$15                     ; 0x2015 <dispatchAction+0x3b9>
     a28: a9 00        	lda	#$0
     a2a: 38           	sec
     a2b: e5 12        	sbc	$12                     ; 0x2012 <dispatchAction+0x3b6>
     a2d: 85 1a        	sta	$1a                     ; 0x201a <dispatchAction+0x3be>
     a2f: a9 00        	lda	#$0
     a31: e5 13        	sbc	$13                     ; 0x2013 <dispatchAction+0x3b7>
     a33: 85 18        	sta	$18                     ; 0x2018 <dispatchAction+0x3bc>
     a35: a9 08        	lda	#$8
     a37: e5 14        	sbc	$14                     ; 0x2014 <dispatchAction+0x3b8>
     a39: a8           	tay
     a3a: a9 00        	lda	#$0
     a3c: e5 15        	sbc	$15                     ; 0x2015 <dispatchAction+0x3b9>
     a3e: 85 16        	sta	$16                     ; 0x2016 <dispatchAction+0x3ba>
     a40: a6 18        	ldx	$18                     ; 0x2018 <dispatchAction+0x3bc>
     a42: 8e f8 6c     	stx	$6cf8                   ; 0x6cf8 <_BITMAP_BASE+0x1>
     a45: 8c f9 6c     	sty	$6cf9                   ; 0x6cf9 <_BITMAP_BASE+0x2>
     a48: 8d fa 6c     	sta	$6cfa                   ; 0x6cfa <_BITMAP_BASE+0x3>
     a4b: a5 1a        	lda	$1a                     ; 0x201a <dispatchAction+0x3be>
     a4d: 38           	sec
     a4e: e5 12        	sbc	$12                     ; 0x2012 <dispatchAction+0x3b6>
     a50: 85 17        	sta	$17                     ; 0x2017 <dispatchAction+0x3bb>
     a52: a5 18        	lda	$18                     ; 0x2018 <dispatchAction+0x3bc>
     a54: e5 13        	sbc	$13                     ; 0x2013 <dispatchAction+0x3b7>
     a56: 85 18        	sta	$18                     ; 0x2018 <dispatchAction+0x3bc>
     a58: 98           	tya
     a59: e5 14        	sbc	$14                     ; 0x2014 <dispatchAction+0x3b8>
     a5b: 85 19        	sta	$19                     ; 0x2019 <dispatchAction+0x3bd>
     a5d: a5 16        	lda	$16                     ; 0x2016 <dispatchAction+0x3ba>
     a5f: e5 15        	sbc	$15                     ; 0x2015 <dispatchAction+0x3b9>
     a61: 85 16        	sta	$16                     ; 0x2016 <dispatchAction+0x3ba>
     a63: 38           	sec
     a64: a6 17        	ldx	$17                     ; 0x2017 <dispatchAction+0x3bb>
     a66: 8e fb 6c     	stx	$6cfb                   ; 0x6cfb <_BITMAP_BASE+0x4>
     a69: a4 18        	ldy	$18                     ; 0x2018 <dispatchAction+0x3bc>
     a6b: 8c fc 6c     	sty	$6cfc                   ; 0x6cfc <_BITMAP_BASE+0x5>
     a6e: a6 19        	ldx	$19                     ; 0x2019 <dispatchAction+0x3bd>
     a70: 8e fd 6c     	stx	$6cfd                   ; 0x6cfd <_BITMAP_BASE+0x6>
     a73: 8d fe 6c     	sta	$6cfe                   ; 0x6cfe <_BITMAP_BASE+0x7>
     a76: a5 17        	lda	$17                     ; 0x2017 <dispatchAction+0x3bb>
     a78: e5 12        	sbc	$12                     ; 0x2012 <dispatchAction+0x3b6>
     a7a: 85 17        	sta	$17                     ; 0x2017 <dispatchAction+0x3bb>
     a7c: a5 18        	lda	$18                     ; 0x2018 <dispatchAction+0x3bc>
     a7e: e5 13        	sbc	$13                     ; 0x2013 <dispatchAction+0x3b7>
     a80: aa           	tax
     a81: a5 19        	lda	$19                     ; 0x2019 <dispatchAction+0x3bd>
     a83: e5 14        	sbc	$14                     ; 0x2014 <dispatchAction+0x3b8>
     a85: 85 13        	sta	$13                     ; 0x2013 <dispatchAction+0x3b7>
     a87: a5 16        	lda	$16                     ; 0x2016 <dispatchAction+0x3ba>
     a89: e5 15        	sbc	$15                     ; 0x2015 <dispatchAction+0x3b9>
     a8b: 85 12        	sta	$12                     ; 0x2012 <dispatchAction+0x3b6>
     a8d: a5 17        	lda	$17                     ; 0x2017 <dispatchAction+0x3bb>
     a8f: 8d ff 6c     	sta	$6cff                   ; 0x6cff <_BITMAP_BASE+0x8>
     a92: 8e 00 6d     	stx	$6d00                   ; 0x6d00 <_BITMAP_BASE+0x9>
     a95: a6 13        	ldx	$13                     ; 0x2013 <dispatchAction+0x3b7>
     a97: 8e 01 6d     	stx	$6d01                   ; 0x6d01 <_BITMAP_BASE+0xa>
     a9a: a6 12        	ldx	$12                     ; 0x2012 <dispatchAction+0x3b6>
     a9c: 8e 02 6d     	stx	$6d02                   ; 0x6d02 <_BITMAP_BASE+0xb>
     a9f: a6 1a        	ldx	$1a                     ; 0x201a <dispatchAction+0x3be>
     aa1: 8e f7 6c     	stx	$6cf7                   ; 0x6cf7 <_BITMAP_BASE>
     aa4: 9c 06 6d     	stz	$6d06                   ; 0x6d06 <_BITMAP_CLUT>
     aa7: 9c 07 6d     	stz	$6d07                   ; 0x6d07 <_BITMAP_CLUT+0x1>
     aaa: 9c 08 6d     	stz	$6d08                   ; 0x6d08 <_BITMAP_CLUT+0x2>
     aad: 8e 01 d1     	stx	$d101                   ; 0xd101 <end_block9+0x5e0b>
     ab0: ae f8 6c     	ldx	$6cf8                   ; 0x6cf8 <_BITMAP_BASE+0x1>
     ab3: 8e 02 d1     	stx	$d102                   ; 0xd102 <end_block9+0x5e0c>
     ab6: ae f9 6c     	ldx	$6cf9                   ; 0x6cf9 <_BITMAP_BASE+0x2>
     ab9: 8e 03 d1     	stx	$d103                   ; 0xd103 <end_block9+0x5e0d>
     abc: ae fb 6c     	ldx	$6cfb                   ; 0x6cfb <_BITMAP_BASE+0x4>
     abf: 8e 09 d1     	stx	$d109                   ; 0xd109 <end_block9+0x5e13>
     ac2: ae fc 6c     	ldx	$6cfc                   ; 0x6cfc <_BITMAP_BASE+0x5>
     ac5: 8e 0a d1     	stx	$d10a                   ; 0xd10a <end_block9+0x5e14>
     ac8: ae fd 6c     	ldx	$6cfd                   ; 0x6cfd <_BITMAP_BASE+0x6>
     acb: 8e 0b d1     	stx	$d10b                   ; 0xd10b <end_block9+0x5e15>
     ace: ae ff 6c     	ldx	$6cff                   ; 0x6cff <_BITMAP_BASE+0x8>
     ad1: 8e 11 d1     	stx	$d111                   ; 0xd111 <end_block9+0x5e1b>
     ad4: ae 00 6d     	ldx	$6d00                   ; 0x6d00 <_BITMAP_BASE+0x9>
     ad7: 8e 12 d1     	stx	$d112                   ; 0xd112 <end_block9+0x5e1c>
     ada: ae 01 6d     	ldx	$6d01                   ; 0x6d01 <_BITMAP_BASE+0xa>
     add: 8e 13 d1     	stx	$d113                   ; 0xd113 <end_block9+0x5e1d>
     ae0: 9c 00 d1     	stz	$d100                   ; 0xd100 <end_block9+0x5e0a>
     ae3: 9c 08 d1     	stz	$d108                   ; 0xd108 <end_block9+0x5e12>
     ae6: 9c 10 d1     	stz	$d110                   ; 0xd110 <end_block9+0x5e1a>
     ae9: 60           	rts

00000aea <FAR_POKEW>:
     aea: 85 16        	sta	$16                     ; 0x2016 <dispatchAction+0x3ba>
     aec: da           	phx
     aed: 7a           	ply
     aee: a5 12        	lda	$12                     ; 0x2012 <dispatchAction+0x3b6>
     af0: a6 0f        	ldx	$f                      ; 0x200f <dispatchAction+0x3b3>
     af2: 78           	sei
     af3: 84 12        	sty	$12                     ; 0x2012 <dispatchAction+0x3b6>
     af5: 06 12        	asl	$12                     ; 0x2012 <dispatchAction+0x3b6>
     af7: 2a           	rol
     af8: 06 12        	asl	$12                     ; 0x2012 <dispatchAction+0x3b6>
     afa: 2a           	rol
     afb: 06 12        	asl	$12                     ; 0x2012 <dispatchAction+0x3b6>
     afd: 2a           	rol
     afe: 85 0f        	sta	$f                      ; 0x200f <dispatchAction+0x3b3>
     b00: 98           	tya
     b01: 09 e0        	ora	#$e0
     b03: 85 17        	sta	$17                     ; 0x2017 <dispatchAction+0x3bb>
     b05: a5 14        	lda	$14                     ; 0x2014 <dispatchAction+0x3b8>
     b07: 92 16        	sta	($16)                   ; 0x2016 <dispatchAction+0x3ba>
     b09: a0 01        	ldy	#$1
     b0b: a5 15        	lda	$15                     ; 0x2015 <dispatchAction+0x3b9>
     b0d: 91 16        	sta	($16),y                 ; 0x2016 <dispatchAction+0x3ba>
     b0f: 86 0f        	stx	$f                      ; 0x200f <dispatchAction+0x3b3>
     b11: 58           	cli
     b12: 60           	rts

00000b13 <main>:
     b13: 20 75 06     	jsr	$675 <f256Init>
     b16: 20 19 0b     	jsr	$b19 <f256main>

00000b19 <f256main>:
     b19: 18           	clc
     b1a: a5 10        	lda	$10                     ; 0x2010 <dispatchAction+0x3b4>
     b1c: 69 f7        	adc	#$f7
     b1e: 85 10        	sta	$10                     ; 0x2010 <dispatchAction+0x3b4>
     b20: a5 11        	lda	$11                     ; 0x2011 <dispatchAction+0x3b5>
     b22: 69 ff        	adc	#$ff
     b24: 85 11        	sta	$11                     ; 0x2011 <dispatchAction+0x3b5>
     b26: 20 7d 14     	jsr	$147d <setup>
     b29: a2 80        	ldx	#$80
     b2b: 86 f3        	stx	$f3                     ; 0x20f3 <dispatchAction+0x497>
     b2d: 18           	clc
     b2e: a5 10        	lda	$10                     ; 0x2010 <dispatchAction+0x3b4>
     b30: 69 05        	adc	#$5
     b32: 85 12        	sta	$12                     ; 0x2012 <dispatchAction+0x3b6>
     b34: a5 11        	lda	$11                     ; 0x2011 <dispatchAction+0x3b5>
     b36: 69 00        	adc	#$0
     b38: 85 13        	sta	$13                     ; 0x2013 <dispatchAction+0x3b7>
     b3a: a2 f6        	ldx	#$f6
     b3c: 86 28        	stx	$28                     ; 0x2028 <dispatchAction+0x3cc>
     b3e: a2 6c        	ldx	#$6c
     b40: 86 29        	stx	$29                     ; 0x2029 <dispatchAction+0x3cd>
     b42: 20 f0 ff     	jsr	$fff0 <end_block9+0x8cfa>
     b45: 92 12        	sta	($12)                   ; 0x2012 <dispatchAction+0x3b6>
     b47: a9 00        	lda	#$0
     b49: 6a           	ror
     b4a: 85 28        	sta	$28                     ; 0x2028 <dispatchAction+0x3cc>
     b4c: b2 12        	lda	($12)                   ; 0x2012 <dispatchAction+0x3b6>
     b4e: 1a           	inc
     b4f: 85 96        	sta	$96                     ; 0x2096 <dispatchAction+0x43a>
     b51: a6 95        	ldx	$95                     ; 0x2095 <dispatchAction+0x439>
     b53: 86 f3        	stx	$f3                     ; 0x20f3 <dispatchAction+0x497>
     b55: a6 96        	ldx	$96                     ; 0x2096 <dispatchAction+0x43a>
     b57: 86 f4        	stx	$f4                     ; 0x20f4 <dispatchAction+0x498>
     b59: a6 97        	ldx	$97                     ; 0x2097 <dispatchAction+0x43b>
     b5b: 86 f5        	stx	$f5                     ; 0x20f5 <dispatchAction+0x499>
     b5d: 18           	clc
     b5e: a5 10        	lda	$10                     ; 0x2010 <dispatchAction+0x3b4>
     b60: 69 06        	adc	#$6
     b62: 85 12        	sta	$12                     ; 0x2012 <dispatchAction+0x3b6>
     b64: a5 11        	lda	$11                     ; 0x2011 <dispatchAction+0x3b5>
     b66: 69 00        	adc	#$0
     b68: 85 13        	sta	$13                     ; 0x2013 <dispatchAction+0x3b7>
     b6a: a2 90        	ldx	#$90
     b6c: 8a           	txa
     b6d: a0 01        	ldy	#$1
     b6f: 91 10        	sta	($10),y                 ; 0x2010 <dispatchAction+0x3b4>
     b71: 64 14        	stz	$14                     ; 0x2014 <dispatchAction+0x3b8>
     b73: a9 00        	lda	#$0
     b75: c8           	iny
     b76: 91 10        	sta	($10),y                 ; 0x2010 <dispatchAction+0x3b4>
     b78: c8           	iny
     b79: 91 10        	sta	($10),y                 ; 0x2010 <dispatchAction+0x3b4>
     b7b: a8           	tay
     b7c: aa           	tax
     b7d: 20 f0 ff     	jsr	$fff0 <end_block9+0x8cfa>
     b80: 92 12        	sta	($12)                   ; 0x2012 <dispatchAction+0x3b6>
     b82: a9 00        	lda	#$0
     b84: 6a           	ror
     b85: 85 28        	sta	$28                     ; 0x2028 <dispatchAction+0x3cc>
     b87: 4c 78 14     	jmp	$1478 <f256main+0x95f>
     b8a: 64 12        	stz	$12                     ; 0x2012 <dispatchAction+0x3b6>
     b8c: a9 00        	lda	#$0
     b8e: 80 07        	bra	$b97 <f256main+0x7e>
     b90: a6 16        	ldx	$16                     ; 0x2016 <dispatchAction+0x3ba>
     b92: 86 24        	stx	$24                     ; 0x2024 <dispatchAction+0x3c8>
     b94: a2 01        	ldx	#$1
     b96: 8a           	txa
     b97: a0 03        	ldy	#$3
     b99: 91 10        	sta	($10),y                 ; 0x2010 <dispatchAction+0x3b4>
     b9b: a0 00        	ldy	#$0
     b9d: a9 00        	lda	#$0
     b9f: a6 27        	ldx	$27                     ; 0x2027 <dispatchAction+0x3cb>
     ba1: 86 12        	stx	$12                     ; 0x2012 <dispatchAction+0x3b6>
     ba3: a2 ff        	ldx	#$ff
     ba5: c6 25        	dec	$25                     ; 0x2025 <dispatchAction+0x3c9>
     ba7: e4 25        	cpx	$25                     ; 0x2025 <dispatchAction+0x3c9>
     ba9: d0 02        	bne	$bad <f256main+0x94>
     bab: c6 12        	dec	$12                     ; 0x2012 <dispatchAction+0x3b6>
     bad: a6 12        	ldx	$12                     ; 0x2012 <dispatchAction+0x3b6>
     baf: 86 27        	stx	$27                     ; 0x2027 <dispatchAction+0x3cb>
     bb1: d0 03        	bne	$bb6 <f256main+0x9d>
     bb3: 4c 18 0d     	jmp	$d18 <f256main+0x1ff>
     bb6: ae a1 dd     	ldx	$dda1                   ; 0xdda1 <end_block9+0x6aab>
     bb9: e0 fe        	cpx	#$fe
     bbb: f0 e2        	beq	$b9f <f256main+0x86>
     bbd: 86 16        	stx	$16                     ; 0x2016 <dispatchAction+0x3ba>
     bbf: 48           	pha
     bc0: 5a           	phy
     bc1: a0 03        	ldy	#$3
     bc3: b1 10        	lda	($10),y                 ; 0x2010 <dispatchAction+0x3b4>
     bc5: 7a           	ply
     bc6: aa           	tax
     bc7: 68           	pla
     bc8: e0 00        	cpx	#$0
     bca: f0 03        	beq	$bcf <f256main+0xb6>
     bcc: 4c 27 0c     	jmp	$c27 <f256main+0x10e>
     bcf: 98           	tya
     bd0: d0 03        	bne	$bd5 <f256main+0xbc>
     bd2: 4c 58 0c     	jmp	$c58 <f256main+0x13f>
     bd5: 18           	clc
     bd6: a5 16        	lda	$16                     ; 0x2016 <dispatchAction+0x3ba>
     bd8: 69 ec        	adc	#$ec
     bda: 48           	pha
     bdb: a0 02        	ldy	#$2
     bdd: b1 10        	lda	($10),y                 ; 0x2010 <dispatchAction+0x3b4>
     bdf: aa           	tax
     be0: 68           	pla
     be1: e0 00        	cpx	#$0
     be3: d0 03        	bne	$be8 <f256main+0xcf>
     be5: 4c 78 0c     	jmp	$c78 <f256main+0x15f>
     be8: a6 16        	ldx	$16                     ; 0x2016 <dispatchAction+0x3ba>
     bea: 86 24        	stx	$24                     ; 0x2024 <dispatchAction+0x3c8>
     bec: 0a           	asl
     bed: 64 12        	stz	$12                     ; 0x2012 <dispatchAction+0x3b6>
     bef: 26 12        	rol	$12                     ; 0x2012 <dispatchAction+0x3b6>
     bf1: 0a           	asl
     bf2: 85 13        	sta	$13                     ; 0x2013 <dispatchAction+0x3b7>
     bf4: 26 12        	rol	$12                     ; 0x2012 <dispatchAction+0x3b6>
     bf6: a9 00        	lda	#$0
     bf8: 18           	clc
     bf9: 65 13        	adc	$13                     ; 0x2013 <dispatchAction+0x3b7>
     bfb: aa           	tax
     bfc: a9 d4        	lda	#$d4
     bfe: 65 12        	adc	$12                     ; 0x2012 <dispatchAction+0x3b6>
     c00: 86 12        	stx	$12                     ; 0x2012 <dispatchAction+0x3b6>
     c02: 85 13        	sta	$13                     ; 0x2013 <dispatchAction+0x3b7>
     c04: a6 01        	ldx	$1                      ; 0x2001 <dispatchAction+0x3a5>
     c06: a0 01        	ldy	#$1
     c08: 84 01        	sty	$1                      ; 0x2001 <dispatchAction+0x3a5>
     c0a: a9 ff        	lda	#$ff
     c0c: 92 12        	sta	($12)                   ; 0x2012 <dispatchAction+0x3b6>
     c0e: 1a           	inc
     c0f: 91 12        	sta	($12),y                 ; 0x2012 <dispatchAction+0x3b6>
     c11: c8           	iny
     c12: 3a           	dec
     c13: 91 12        	sta	($12),y                 ; 0x2012 <dispatchAction+0x3b6>
     c15: c8           	iny
     c16: 91 12        	sta	($12),y                 ; 0x2012 <dispatchAction+0x3b6>
     c18: 1a           	inc
     c19: 86 01        	stx	$1                      ; 0x2001 <dispatchAction+0x3a5>
     c1b: a2 01        	ldx	#$1
     c1d: 48           	pha
     c1e: 8a           	txa
     c1f: 91 10        	sta	($10),y                 ; 0x2010 <dispatchAction+0x3b4>
     c21: 68           	pla
     c22: a0 00        	ldy	#$0
     c24: 4c 9f 0b     	jmp	$b9f <f256main+0x86>
     c27: a6 e1        	ldx	$e1                     ; 0x20e1 <dispatchAction+0x485>
     c29: 84 26        	sty	$26                     ; 0x2026 <dispatchAction+0x3ca>
     c2b: a4 e2        	ldy	$e2                     ; 0x20e2 <dispatchAction+0x486>
     c2d: 86 16        	stx	$16                     ; 0x2016 <dispatchAction+0x3ba>
     c2f: 84 17        	sty	$17                     ; 0x2017 <dispatchAction+0x3bb>
     c31: a6 24        	ldx	$24                     ; 0x2024 <dispatchAction+0x3c8>
     c33: 86 12        	stx	$12                     ; 0x2012 <dispatchAction+0x3b6>
     c35: a2 7f        	ldx	#$7f
     c37: 86 13        	stx	$13                     ; 0x2013 <dispatchAction+0x3b7>
     c39: 85 14        	sta	$14                     ; 0x2014 <dispatchAction+0x3b8>
     c3b: 85 15        	sta	$15                     ; 0x2015 <dispatchAction+0x3b9>
     c3d: aa           	tax
     c3e: a0 02        	ldy	#$2
     c40: b1 10        	lda	($10),y                 ; 0x2010 <dispatchAction+0x3b4>
     c42: 20 0f 47     	jsr	$470f <dispatchNote>
     c45: a4 26        	ldy	$26                     ; 0x2026 <dispatchAction+0x3ca>
     c47: a9 00        	lda	#$0
     c49: 64 12        	stz	$12                     ; 0x2012 <dispatchAction+0x3b6>
     c4b: 48           	pha
     c4c: a9 00        	lda	#$0
     c4e: 5a           	phy
     c4f: a0 03        	ldy	#$3
     c51: 91 10        	sta	($10),y                 ; 0x2010 <dispatchAction+0x3b4>
     c53: 7a           	ply
     c54: 68           	pla
     c55: 4c 9f 0b     	jmp	$b9f <f256main+0x86>
     c58: a5 16        	lda	$16                     ; 0x2016 <dispatchAction+0x3ba>
     c5a: 29 f0        	and	#$f0
     c5c: a0 01        	ldy	#$1
     c5e: c9 90        	cmp	#$90
     c60: d0 03        	bne	$c65 <f256main+0x14c>
     c62: 4c da 0c     	jmp	$cda <f256main+0x1c1>
     c65: c9 80        	cmp	#$80
     c67: f0 03        	beq	$c6c <f256main+0x153>
     c69: 4c f4 0c     	jmp	$cf4 <f256main+0x1db>
     c6c: 64 12        	stz	$12                     ; 0x2012 <dispatchAction+0x3b6>
     c6e: 5a           	phy
     c6f: a9 00        	lda	#$0
     c71: a0 02        	ldy	#$2
     c73: 91 10        	sta	($10),y                 ; 0x2010 <dispatchAction+0x3b4>
     c75: 4c e4 0c     	jmp	$ce4 <f256main+0x1cb>
     c78: aa           	tax
     c79: b4 32        	ldy	$32,x                   ; 0x2032 <dispatchAction+0x3d6>
     c7b: a2 01        	ldx	#$1
     c7d: c0 00        	cpy	#$0
     c7f: f0 02        	beq	$c83 <f256main+0x16a>
     c81: a2 00        	ldx	#$0
     c83: 64 12        	stz	$12                     ; 0x2012 <dispatchAction+0x3b6>
     c85: a0 01        	ldy	#$1
     c87: 64 13        	stz	$13                     ; 0x2013 <dispatchAction+0x3b7>
     c89: e0 00        	cpx	#$0
     c8b: d0 02        	bne	$c8f <f256main+0x176>
     c8d: 84 13        	sty	$13                     ; 0x2013 <dispatchAction+0x3b7>
     c8f: 46 13        	lsr	$13                     ; 0x2013 <dispatchAction+0x3b7>
     c91: 64 13        	stz	$13                     ; 0x2013 <dispatchAction+0x3b7>
     c93: 66 13        	ror	$13                     ; 0x2013 <dispatchAction+0x3b7>
     c95: 10 04        	bpl	$c9b <f256main+0x182>
     c97: a2 ff        	ldx	#$ff
     c99: 80 02        	bra	$c9d <f256main+0x184>
     c9b: a2 00        	ldx	#$0
     c9d: 06 13        	asl	$13                     ; 0x2013 <dispatchAction+0x3b7>
     c9f: 86 14        	stx	$14                     ; 0x2014 <dispatchAction+0x3b8>
     ca1: 26 14        	rol	$14                     ; 0x2014 <dispatchAction+0x3b8>
     ca3: 0a           	asl
     ca4: 26 12        	rol	$12                     ; 0x2012 <dispatchAction+0x3b6>
     ca6: 0a           	asl
     ca7: 85 13        	sta	$13                     ; 0x2013 <dispatchAction+0x3b7>
     ca9: 26 12        	rol	$12                     ; 0x2012 <dispatchAction+0x3b6>
     cab: a9 00        	lda	#$0
     cad: 18           	clc
     cae: 65 13        	adc	$13                     ; 0x2013 <dispatchAction+0x3b7>
     cb0: aa           	tax
     cb1: a9 d4        	lda	#$d4
     cb3: 65 12        	adc	$12                     ; 0x2012 <dispatchAction+0x3b6>
     cb5: 86 12        	stx	$12                     ; 0x2012 <dispatchAction+0x3b6>
     cb7: 85 13        	sta	$13                     ; 0x2013 <dispatchAction+0x3b7>
     cb9: a6 01        	ldx	$1                      ; 0x2001 <dispatchAction+0x3a5>
     cbb: a9 01        	lda	#$1
     cbd: 85 01        	sta	$1                      ; 0x2001 <dispatchAction+0x3a5>
     cbf: a5 14        	lda	$14                     ; 0x2014 <dispatchAction+0x3b8>
     cc1: 91 12        	sta	($12),y                 ; 0x2012 <dispatchAction+0x3b6>
     cc3: 92 12        	sta	($12)                   ; 0x2012 <dispatchAction+0x3b6>
     cc5: a0 02        	ldy	#$2
     cc7: 91 12        	sta	($12),y                 ; 0x2012 <dispatchAction+0x3b6>
     cc9: c8           	iny
     cca: a9 ff        	lda	#$ff
     ccc: 91 12        	sta	($12),y                 ; 0x2012 <dispatchAction+0x3b6>
     cce: 86 01        	stx	$1                      ; 0x2001 <dispatchAction+0x3a5>
     cd0: a6 16        	ldx	$16                     ; 0x2016 <dispatchAction+0x3ba>
     cd2: 86 24        	stx	$24                     ; 0x2024 <dispatchAction+0x3c8>
     cd4: a2 01        	ldx	#$1
     cd6: 8a           	txa
     cd7: 4c 99 0b     	jmp	$b99 <f256main+0x80>
     cda: a2 01        	ldx	#$1
     cdc: 5a           	phy
     cdd: 8a           	txa
     cde: a0 02        	ldy	#$2
     ce0: 91 10        	sta	($10),y                 ; 0x2010 <dispatchAction+0x3b4>
     ce2: 64 12        	stz	$12                     ; 0x2012 <dispatchAction+0x3b6>
     ce4: a9 00        	lda	#$0
     ce6: a0 03        	ldy	#$3
     ce8: 91 10        	sta	($10),y                 ; 0x2010 <dispatchAction+0x3b4>
     cea: a5 16        	lda	$16                     ; 0x2016 <dispatchAction+0x3ba>
     cec: a0 01        	ldy	#$1
     cee: 91 10        	sta	($10),y                 ; 0x2010 <dispatchAction+0x3b4>
     cf0: 7a           	ply
     cf1: 4c 9d 0b     	jmp	$b9d <f256main+0x84>
     cf4: a5 16        	lda	$16                     ; 0x2016 <dispatchAction+0x3ba>
     cf6: 10 03        	bpl	$cfb <f256main+0x1e2>
     cf8: 4c 8a 0b     	jmp	$b8a <f256main+0x71>
     cfb: b1 10        	lda	($10),y                 ; 0x2010 <dispatchAction+0x3b4>
     cfd: 29 f0        	and	#$f0
     cff: c9 80        	cmp	#$80
     d01: f0 07        	beq	$d0a <f256main+0x1f1>
     d03: c9 90        	cmp	#$90
     d05: f0 03        	beq	$d0a <f256main+0x1f1>
     d07: 4c 90 0b     	jmp	$b90 <f256main+0x77>
     d0a: a2 01        	ldx	#$1
     d0c: 8a           	txa
     d0d: a0 02        	ldy	#$2
     d0f: 91 10        	sta	($10),y                 ; 0x2010 <dispatchAction+0x3b4>
     d11: a4 16        	ldy	$16                     ; 0x2016 <dispatchAction+0x3ba>
     d13: 84 24        	sty	$24                     ; 0x2024 <dispatchAction+0x3c8>
     d15: 4c 96 0b     	jmp	$b96 <f256main+0x7d>
     d18: a6 25        	ldx	$25                     ; 0x2025 <dispatchAction+0x3c9>
     d1a: f0 03        	beq	$d1f <f256main+0x206>
     d1c: 4c b6 0b     	jmp	$bb6 <f256main+0x9d>
     d1f: 64 8b        	stz	$8b                     ; 0x208b <dispatchAction+0x42f>
     d21: 18           	clc
     d22: a5 10        	lda	$10                     ; 0x2010 <dispatchAction+0x3b4>
     d24: 69 04        	adc	#$4
     d26: 85 12        	sta	$12                     ; 0x2012 <dispatchAction+0x3b6>
     d28: a5 11        	lda	$11                     ; 0x2011 <dispatchAction+0x3b5>
     d2a: 69 00        	adc	#$0
     d2c: 85 13        	sta	$13                     ; 0x2013 <dispatchAction+0x3b7>
     d2e: 20 00 ff     	jsr	$ff00 <end_block9+0x8c0a>
     d31: 92 12        	sta	($12)                   ; 0x2012 <dispatchAction+0x3b6>
     d33: a9 00        	lda	#$0
     d35: 6a           	ror
     d36: 85 28        	sta	$28                     ; 0x2028 <dispatchAction+0x3cc>
     d38: a6 8b        	ldx	$8b                     ; 0x208b <dispatchAction+0x42f>
     d3a: e0 52        	cpx	#$52
     d3c: f0 03        	beq	$d41 <f256main+0x228>
     d3e: 4c 15 10     	jmp	$1015 <f256main+0x4fc>
     d41: a6 8f        	ldx	$8f                     ; 0x208f <dispatchAction+0x433>
     d43: e0 01        	cpx	#$1
     d45: f0 03        	beq	$d4a <f256main+0x231>
     d47: 4c 15 10     	jmp	$1015 <f256main+0x4fc>
     d4a: 84 25        	sty	$25                     ; 0x2025 <dispatchAction+0x3c9>
     d4c: a6 e1        	ldx	$e1                     ; 0x20e1 <dispatchAction+0x485>
     d4e: a4 e2        	ldy	$e2                     ; 0x20e2 <dispatchAction+0x486>
     d50: 86 12        	stx	$12                     ; 0x2012 <dispatchAction+0x3b6>
     d52: 84 13        	sty	$13                     ; 0x2013 <dispatchAction+0x3b7>
     d54: a0 03        	ldy	#$3
     d56: b1 12        	lda	($12),y                 ; 0x2012 <dispatchAction+0x3b6>
     d58: c9 01        	cmp	#$1
     d5a: d0 03        	bne	$d5f <f256main+0x246>
     d5c: 4c 3f 0f     	jmp	$f3f <f256main+0x426>
     d5f: c9 03        	cmp	#$3
     d61: d0 03        	bne	$d66 <f256main+0x24d>
     d63: 4c 54 0e     	jmp	$e54 <f256main+0x33b>
     d66: c9 02        	cmp	#$2
     d68: f0 03        	beq	$d6d <f256main+0x254>
     d6a: 4c d0 0f     	jmp	$fd0 <f256main+0x4b7>
     d6d: a6 a3        	ldx	$a3                     ; 0x20a3 <dispatchAction+0x447>
     d6f: 8a           	txa
     d70: 18           	clc
     d71: 69 0f        	adc	#$f
     d73: a0 01        	ldy	#$1
     d75: b0 02        	bcs	$d79 <f256main+0x260>
     d77: a0 00        	ldy	#$0
     d79: 84 12        	sty	$12                     ; 0x2012 <dispatchAction+0x3b6>
     d7b: 85 16        	sta	$16                     ; 0x2016 <dispatchAction+0x3ba>
     d7d: a0 13        	ldy	#$13
     d7f: 8a           	txa
     d80: d0 03        	bne	$d85 <f256main+0x26c>
     d82: 4c da 0d     	jmp	$dda <f256main+0x2c1>
     d85: a9 00        	lda	#$0
     d87: a6 12        	ldx	$12                     ; 0x2012 <dispatchAction+0x3b6>
     d89: e0 01        	cpx	#$1
     d8b: 69 00        	adc	#$0
     d8d: 85 12        	sta	$12                     ; 0x2012 <dispatchAction+0x3b6>
     d8f: a2 10        	ldx	#$10
     d91: 8a           	txa
     d92: 3a           	dec
     d93: 0a           	asl
     d94: 64 13        	stz	$13                     ; 0x2013 <dispatchAction+0x3b7>
     d96: 26 13        	rol	$13                     ; 0x2013 <dispatchAction+0x3b7>
     d98: 0a           	asl
     d99: 85 14        	sta	$14                     ; 0x2014 <dispatchAction+0x3b8>
     d9b: 26 13        	rol	$13                     ; 0x2013 <dispatchAction+0x3b7>
     d9d: 0a           	asl
     d9e: 5a           	phy
     d9f: a4 13        	ldy	$13                     ; 0x2013 <dispatchAction+0x3b7>
     da1: 84 15        	sty	$15                     ; 0x2015 <dispatchAction+0x3b9>
     da3: 7a           	ply
     da4: 26 15        	rol	$15                     ; 0x2015 <dispatchAction+0x3b9>
     da6: 0a           	asl
     da7: 26 15        	rol	$15                     ; 0x2015 <dispatchAction+0x3b9>
     da9: 18           	clc
     daa: 65 14        	adc	$14                     ; 0x2014 <dispatchAction+0x3b8>
     dac: 85 14        	sta	$14                     ; 0x2014 <dispatchAction+0x3b8>
     dae: a5 15        	lda	$15                     ; 0x2015 <dispatchAction+0x3b9>
     db0: 65 13        	adc	$13                     ; 0x2013 <dispatchAction+0x3b7>
     db2: 85 13        	sta	$13                     ; 0x2013 <dispatchAction+0x3b7>
     db4: a9 91        	lda	#$91
     db6: 18           	clc
     db7: 65 14        	adc	$14                     ; 0x2014 <dispatchAction+0x3b8>
     db9: 85 14        	sta	$14                     ; 0x2014 <dispatchAction+0x3b8>
     dbb: a9 6e        	lda	#$6e
     dbd: 65 13        	adc	$13                     ; 0x2013 <dispatchAction+0x3b7>
     dbf: 85 15        	sta	$15                     ; 0x2015 <dispatchAction+0x3b9>
     dc1: a9 3b        	lda	#$3b
     dc3: 91 14        	sta	($14),y                 ; 0x2014 <dispatchAction+0x3b8>
     dc5: 8a           	txa
     dc6: 1a           	inc
     dc7: a0 00        	ldy	#$0
     dc9: c4 12        	cpy	$12                     ; 0x2012 <dispatchAction+0x3b6>
     dcb: d0 04        	bne	$dd1 <f256main+0x2b8>
     dcd: e4 16        	cpx	$16                     ; 0x2016 <dispatchAction+0x3ba>
     dcf: 80 04        	bra	$dd5 <f256main+0x2bc>
     dd1: a2 00        	ldx	#$0
     dd3: e4 12        	cpx	$12                     ; 0x2012 <dispatchAction+0x3b6>
     dd5: aa           	tax
     dd6: a0 13        	ldy	#$13
     dd8: 90 b7        	bcc	$d91 <f256main+0x278>
     dda: a6 16        	ldx	$16                     ; 0x2016 <dispatchAction+0x3ba>
     ddc: e0 15        	cpx	#$15
     dde: b0 3c        	bcs	$e1c <f256main+0x303>
     de0: 8a           	txa
     de1: 0a           	asl
     de2: 64 12        	stz	$12                     ; 0x2012 <dispatchAction+0x3b6>
     de4: 26 12        	rol	$12                     ; 0x2012 <dispatchAction+0x3b6>
     de6: 0a           	asl
     de7: 85 13        	sta	$13                     ; 0x2013 <dispatchAction+0x3b7>
     de9: 26 12        	rol	$12                     ; 0x2012 <dispatchAction+0x3b6>
     deb: 0a           	asl
     dec: 5a           	phy
     ded: a4 12        	ldy	$12                     ; 0x2012 <dispatchAction+0x3b6>
     def: 84 14        	sty	$14                     ; 0x2014 <dispatchAction+0x3b8>
     df1: 26 14        	rol	$14                     ; 0x2014 <dispatchAction+0x3b8>
     df3: 0a           	asl
     df4: 26 14        	rol	$14                     ; 0x2014 <dispatchAction+0x3b8>
     df6: 18           	clc
     df7: 65 13        	adc	$13                     ; 0x2013 <dispatchAction+0x3b7>
     df9: 85 13        	sta	$13                     ; 0x2013 <dispatchAction+0x3b7>
     dfb: a5 14        	lda	$14                     ; 0x2014 <dispatchAction+0x3b8>
     dfd: 65 12        	adc	$12                     ; 0x2012 <dispatchAction+0x3b6>
     dff: 85 12        	sta	$12                     ; 0x2012 <dispatchAction+0x3b6>
     e01: a9 91        	lda	#$91
     e03: 18           	clc
     e04: 65 13        	adc	$13                     ; 0x2013 <dispatchAction+0x3b7>
     e06: 85 13        	sta	$13                     ; 0x2013 <dispatchAction+0x3b7>
     e08: a9 6e        	lda	#$6e
     e0a: 65 12        	adc	$12                     ; 0x2012 <dispatchAction+0x3b6>
     e0c: a4 13        	ldy	$13                     ; 0x2013 <dispatchAction+0x3b7>
     e0e: 84 12        	sty	$12                     ; 0x2012 <dispatchAction+0x3b6>
     e10: 7a           	ply
     e11: 85 13        	sta	$13                     ; 0x2013 <dispatchAction+0x3b7>
     e13: a9 3a        	lda	#$3a
     e15: 91 12        	sta	($12),y                 ; 0x2012 <dispatchAction+0x3b6>
     e17: e8           	inx
     e18: e0 15        	cpx	#$15
     e1a: d0 c4        	bne	$de0 <f256main+0x2c7>
     e1c: a2 bd        	ldx	#$bd
     e1e: 86 26        	stx	$26                     ; 0x2026 <dispatchAction+0x3ca>
     e20: a2 6f        	ldx	#$6f
     e22: 86 27        	stx	$27                     ; 0x2027 <dispatchAction+0x3cb>
     e24: a0 06        	ldy	#$6
     e26: a2 01        	ldx	#$1
     e28: a5 26        	lda	$26                     ; 0x2026 <dispatchAction+0x3ca>
     e2a: 85 12        	sta	$12                     ; 0x2012 <dispatchAction+0x3b6>
     e2c: a5 27        	lda	$27                     ; 0x2027 <dispatchAction+0x3cb>
     e2e: 85 13        	sta	$13                     ; 0x2013 <dispatchAction+0x3b7>
     e30: 86 14        	stx	$14                     ; 0x2014 <dispatchAction+0x3b8>
     e32: 64 15        	stz	$15                     ; 0x2015 <dispatchAction+0x3b9>
     e34: a2 54        	ldx	#$54
     e36: a9 00        	lda	#$0
     e38: 84 2b        	sty	$2b                     ; 0x202b <dispatchAction+0x3cf>
     e3a: 20 52 45     	jsr	$4552 <updateLighter>
     e3d: a4 2b        	ldy	$2b                     ; 0x202b <dispatchAction+0x3cf>
     e3f: a2 01        	ldx	#$1
     e41: a5 26        	lda	$26                     ; 0x2026 <dispatchAction+0x3ca>
     e43: 18           	clc
     e44: 69 14        	adc	#$14
     e46: 85 26        	sta	$26                     ; 0x2026 <dispatchAction+0x3ca>
     e48: a5 27        	lda	$27                     ; 0x2027 <dispatchAction+0x3cb>
     e4a: 69 00        	adc	#$0
     e4c: 85 27        	sta	$27                     ; 0x2027 <dispatchAction+0x3cb>
     e4e: 88           	dey
     e4f: d0 d7        	bne	$e28 <f256main+0x30f>
     e51: 4c d0 0f     	jmp	$fd0 <f256main+0x4b7>
     e54: a6 a4        	ldx	$a4                     ; 0x20a4 <dispatchAction+0x448>
     e56: 8a           	txa
     e57: 18           	clc
     e58: 69 06        	adc	#$6
     e5a: a0 01        	ldy	#$1
     e5c: b0 02        	bcs	$e60 <f256main+0x347>
     e5e: a0 00        	ldy	#$0
     e60: 84 12        	sty	$12                     ; 0x2012 <dispatchAction+0x3b6>
     e62: 85 16        	sta	$16                     ; 0x2016 <dispatchAction+0x3ba>
     e64: 8a           	txa
     e65: d0 03        	bne	$e6a <f256main+0x351>
     e67: 4c c3 0e     	jmp	$ec3 <f256main+0x3aa>
     e6a: a9 00        	lda	#$0
     e6c: a6 12        	ldx	$12                     ; 0x2012 <dispatchAction+0x3b6>
     e6e: e0 01        	cpx	#$1
     e70: 69 00        	adc	#$0
     e72: 85 12        	sta	$12                     ; 0x2012 <dispatchAction+0x3b6>
     e74: a2 07        	ldx	#$7
     e76: 8a           	txa
     e77: 3a           	dec
     e78: 0a           	asl
     e79: 64 13        	stz	$13                     ; 0x2013 <dispatchAction+0x3b7>
     e7b: 26 13        	rol	$13                     ; 0x2013 <dispatchAction+0x3b7>
     e7d: 0a           	asl
     e7e: 85 14        	sta	$14                     ; 0x2014 <dispatchAction+0x3b8>
     e80: 26 13        	rol	$13                     ; 0x2013 <dispatchAction+0x3b7>
     e82: 0a           	asl
     e83: a8           	tay
     e84: a5 13        	lda	$13                     ; 0x2013 <dispatchAction+0x3b7>
     e86: 2a           	rol
     e87: 84 15        	sty	$15                     ; 0x2015 <dispatchAction+0x3b9>
     e89: 06 15        	asl	$15                     ; 0x2015 <dispatchAction+0x3b9>
     e8b: 2a           	rol
     e8c: a8           	tay
     e8d: 18           	clc
     e8e: a5 15        	lda	$15                     ; 0x2015 <dispatchAction+0x3b9>
     e90: 65 14        	adc	$14                     ; 0x2014 <dispatchAction+0x3b8>
     e92: 85 14        	sta	$14                     ; 0x2014 <dispatchAction+0x3b8>
     e94: 98           	tya
     e95: 65 13        	adc	$13                     ; 0x2013 <dispatchAction+0x3b7>
     e97: 85 13        	sta	$13                     ; 0x2013 <dispatchAction+0x3b7>
     e99: a9 91        	lda	#$91
     e9b: 18           	clc
     e9c: 65 14        	adc	$14                     ; 0x2014 <dispatchAction+0x3b8>
     e9e: 85 14        	sta	$14                     ; 0x2014 <dispatchAction+0x3b8>
     ea0: a9 6e        	lda	#$6e
     ea2: 65 13        	adc	$13                     ; 0x2013 <dispatchAction+0x3b7>
     ea4: 85 15        	sta	$15                     ; 0x2015 <dispatchAction+0x3b9>
     ea6: a9 3b        	lda	#$3b
     ea8: a0 13        	ldy	#$13
     eaa: 91 14        	sta	($14),y                 ; 0x2014 <dispatchAction+0x3b8>
     eac: 8a           	txa
     ead: 1a           	inc
     eae: a0 00        	ldy	#$0
     eb0: c4 12        	cpy	$12                     ; 0x2012 <dispatchAction+0x3b6>
     eb2: d0 07        	bne	$ebb <f256main+0x3a2>
     eb4: e4 16        	cpx	$16                     ; 0x2016 <dispatchAction+0x3ba>
     eb6: aa           	tax
     eb7: 90 bd        	bcc	$e76 <f256main+0x35d>
     eb9: 80 08        	bra	$ec3 <f256main+0x3aa>
     ebb: c4 12        	cpy	$12                     ; 0x2012 <dispatchAction+0x3b6>
     ebd: aa           	tax
     ebe: b0 03        	bcs	$ec3 <f256main+0x3aa>
     ec0: 4c 76 0e     	jmp	$e76 <f256main+0x35d>
     ec3: a6 16        	ldx	$16                     ; 0x2016 <dispatchAction+0x3ba>
     ec5: e0 0f        	cpx	#$f
     ec7: a0 13        	ldy	#$13
     ec9: b0 3c        	bcs	$f07 <f256main+0x3ee>
     ecb: 8a           	txa
     ecc: 0a           	asl
     ecd: 64 12        	stz	$12                     ; 0x2012 <dispatchAction+0x3b6>
     ecf: 26 12        	rol	$12                     ; 0x2012 <dispatchAction+0x3b6>
     ed1: 0a           	asl
     ed2: 85 13        	sta	$13                     ; 0x2013 <dispatchAction+0x3b7>
     ed4: 26 12        	rol	$12                     ; 0x2012 <dispatchAction+0x3b6>
     ed6: 0a           	asl
     ed7: 5a           	phy
     ed8: a4 12        	ldy	$12                     ; 0x2012 <dispatchAction+0x3b6>
     eda: 84 14        	sty	$14                     ; 0x2014 <dispatchAction+0x3b8>
     edc: 26 14        	rol	$14                     ; 0x2014 <dispatchAction+0x3b8>
     ede: 0a           	asl
     edf: 26 14        	rol	$14                     ; 0x2014 <dispatchAction+0x3b8>
     ee1: 18           	clc
     ee2: 65 13        	adc	$13                     ; 0x2013 <dispatchAction+0x3b7>
     ee4: 85 13        	sta	$13                     ; 0x2013 <dispatchAction+0x3b7>
     ee6: a5 14        	lda	$14                     ; 0x2014 <dispatchAction+0x3b8>
     ee8: 65 12        	adc	$12                     ; 0x2012 <dispatchAction+0x3b6>
     eea: 85 12        	sta	$12                     ; 0x2012 <dispatchAction+0x3b6>
     eec: a9 91        	lda	#$91
     eee: 18           	clc
     eef: 65 13        	adc	$13                     ; 0x2013 <dispatchAction+0x3b7>
     ef1: 85 13        	sta	$13                     ; 0x2013 <dispatchAction+0x3b7>
     ef3: a9 6e        	lda	#$6e
     ef5: 65 12        	adc	$12                     ; 0x2012 <dispatchAction+0x3b6>
     ef7: a4 13        	ldy	$13                     ; 0x2013 <dispatchAction+0x3b7>
     ef9: 84 12        	sty	$12                     ; 0x2012 <dispatchAction+0x3b6>
     efb: 7a           	ply
     efc: 85 13        	sta	$13                     ; 0x2013 <dispatchAction+0x3b7>
     efe: a9 3a        	lda	#$3a
     f00: 91 12        	sta	($12),y                 ; 0x2012 <dispatchAction+0x3b6>
     f02: e8           	inx
     f03: e0 0f        	cpx	#$f
     f05: d0 c4        	bne	$ecb <f256main+0x3b2>
     f07: a2 09        	ldx	#$9
     f09: 86 26        	stx	$26                     ; 0x2026 <dispatchAction+0x3ca>
     f0b: a2 6f        	ldx	#$6f
     f0d: 86 27        	stx	$27                     ; 0x2027 <dispatchAction+0x3cb>
     f0f: a0 09        	ldy	#$9
     f11: a2 01        	ldx	#$1
     f13: a5 26        	lda	$26                     ; 0x2026 <dispatchAction+0x3ca>
     f15: 85 12        	sta	$12                     ; 0x2012 <dispatchAction+0x3b6>
     f17: a5 27        	lda	$27                     ; 0x2027 <dispatchAction+0x3cb>
     f19: 85 13        	sta	$13                     ; 0x2013 <dispatchAction+0x3b7>
     f1b: 86 14        	stx	$14                     ; 0x2014 <dispatchAction+0x3b8>
     f1d: 64 15        	stz	$15                     ; 0x2015 <dispatchAction+0x3b9>
     f1f: a2 54        	ldx	#$54
     f21: a9 00        	lda	#$0
     f23: 84 2b        	sty	$2b                     ; 0x202b <dispatchAction+0x3cf>
     f25: 20 52 45     	jsr	$4552 <updateLighter>
     f28: a4 2b        	ldy	$2b                     ; 0x202b <dispatchAction+0x3cf>
     f2a: a2 01        	ldx	#$1
     f2c: a5 26        	lda	$26                     ; 0x2026 <dispatchAction+0x3ca>
     f2e: 18           	clc
     f2f: 69 14        	adc	#$14
     f31: 85 26        	sta	$26                     ; 0x2026 <dispatchAction+0x3ca>
     f33: a5 27        	lda	$27                     ; 0x2027 <dispatchAction+0x3cb>
     f35: 69 00        	adc	#$0
     f37: 85 27        	sta	$27                     ; 0x2027 <dispatchAction+0x3cb>
     f39: 88           	dey
     f3a: d0 d7        	bne	$f13 <f256main+0x3fa>
     f3c: 4c d0 0f     	jmp	$fd0 <f256main+0x4b7>
     f3f: a4 a2        	ldy	$a2                     ; 0x20a2 <dispatchAction+0x446>
     f41: a9 3b        	lda	#$3b
     f43: c0 00        	cpy	#$0
     f45: f0 20        	beq	$f67 <f256main+0x44e>
     f47: a2 a4        	ldx	#$a4
     f49: 86 12        	stx	$12                     ; 0x2012 <dispatchAction+0x3b6>
     f4b: a2 6e        	ldx	#$6e
     f4d: 86 13        	stx	$13                     ; 0x2013 <dispatchAction+0x3b7>
     f4f: 5a           	phy
     f50: fa           	plx
     f51: 92 12        	sta	($12)                   ; 0x2012 <dispatchAction+0x3b6>
     f53: ca           	dex
     f54: a5 12        	lda	$12                     ; 0x2012 <dispatchAction+0x3b6>
     f56: 18           	clc
     f57: 69 14        	adc	#$14
     f59: 85 12        	sta	$12                     ; 0x2012 <dispatchAction+0x3b6>
     f5b: a5 13        	lda	$13                     ; 0x2013 <dispatchAction+0x3b7>
     f5d: 69 00        	adc	#$0
     f5f: 85 13        	sta	$13                     ; 0x2013 <dispatchAction+0x3b7>
     f61: a9 3b        	lda	#$3b
     f63: e0 00        	cpx	#$0
     f65: d0 ea        	bne	$f51 <f256main+0x438>
     f67: c0 06        	cpy	#$6
     f69: b0 30        	bcs	$f9b <f256main+0x482>
     f6b: 98           	tya
     f6c: aa           	tax
     f6d: 0a           	asl
     f6e: 0a           	asl
     f6f: 85 12        	sta	$12                     ; 0x2012 <dispatchAction+0x3b6>
     f71: 0a           	asl
     f72: 0a           	asl
     f73: 18           	clc
     f74: 65 12        	adc	$12                     ; 0x2012 <dispatchAction+0x3b6>
     f76: 85 12        	sta	$12                     ; 0x2012 <dispatchAction+0x3b6>
     f78: a9 91        	lda	#$91
     f7a: 18           	clc
     f7b: 65 12        	adc	$12                     ; 0x2012 <dispatchAction+0x3b6>
     f7d: 85 12        	sta	$12                     ; 0x2012 <dispatchAction+0x3b6>
     f7f: a9 6e        	lda	#$6e
     f81: 69 00        	adc	#$0
     f83: 85 13        	sta	$13                     ; 0x2013 <dispatchAction+0x3b7>
     f85: 18           	clc
     f86: 8a           	txa
     f87: 69 fa        	adc	#$fa
     f89: aa           	tax
     f8a: a9 13        	lda	#$13
     f8c: a8           	tay
     f8d: 85 14        	sta	$14                     ; 0x2014 <dispatchAction+0x3b8>
     f8f: a9 3a        	lda	#$3a
     f91: 91 12        	sta	($12),y                 ; 0x2012 <dispatchAction+0x3b6>
     f93: a5 14        	lda	$14                     ; 0x2014 <dispatchAction+0x3b8>
     f95: 18           	clc
     f96: 69 14        	adc	#$14
     f98: e8           	inx
     f99: d0 f1        	bne	$f8c <f256main+0x473>
     f9b: a0 06        	ldy	#$6
     f9d: a2 91        	ldx	#$91
     f9f: 86 26        	stx	$26                     ; 0x2026 <dispatchAction+0x3ca>
     fa1: a2 6e        	ldx	#$6e
     fa3: 86 27        	stx	$27                     ; 0x2027 <dispatchAction+0x3cb>
     fa5: a2 01        	ldx	#$1
     fa7: a5 26        	lda	$26                     ; 0x2026 <dispatchAction+0x3ca>
     fa9: 85 12        	sta	$12                     ; 0x2012 <dispatchAction+0x3b6>
     fab: a5 27        	lda	$27                     ; 0x2027 <dispatchAction+0x3cb>
     fad: 85 13        	sta	$13                     ; 0x2013 <dispatchAction+0x3b7>
     faf: 86 14        	stx	$14                     ; 0x2014 <dispatchAction+0x3b8>
     fb1: 64 15        	stz	$15                     ; 0x2015 <dispatchAction+0x3b9>
     fb3: a2 54        	ldx	#$54
     fb5: a9 00        	lda	#$0
     fb7: 84 2b        	sty	$2b                     ; 0x202b <dispatchAction+0x3cf>
     fb9: 20 52 45     	jsr	$4552 <updateLighter>
     fbc: a4 2b        	ldy	$2b                     ; 0x202b <dispatchAction+0x3cf>
     fbe: a2 01        	ldx	#$1
     fc0: a5 26        	lda	$26                     ; 0x2026 <dispatchAction+0x3ca>
     fc2: 18           	clc
     fc3: 69 14        	adc	#$14
     fc5: 85 26        	sta	$26                     ; 0x2026 <dispatchAction+0x3ca>
     fc7: a5 27        	lda	$27                     ; 0x2027 <dispatchAction+0x3cb>
     fc9: 69 00        	adc	#$0
     fcb: 85 27        	sta	$27                     ; 0x2027 <dispatchAction+0x3cb>
     fcd: 88           	dey
     fce: d0 d7        	bne	$fa7 <f256main+0x48e>
     fd0: a2 80        	ldx	#$80
     fd2: 86 f3        	stx	$f3                     ; 0x20f3 <dispatchAction+0x497>
     fd4: 18           	clc
     fd5: a5 10        	lda	$10                     ; 0x2010 <dispatchAction+0x3b4>
     fd7: 69 07        	adc	#$7
     fd9: 85 12        	sta	$12                     ; 0x2012 <dispatchAction+0x3b6>
     fdb: a5 11        	lda	$11                     ; 0x2011 <dispatchAction+0x3b5>
     fdd: 69 00        	adc	#$0
     fdf: 85 13        	sta	$13                     ; 0x2013 <dispatchAction+0x3b7>
     fe1: 20 f0 ff     	jsr	$fff0 <end_block9+0x8cfa>
     fe4: 92 12        	sta	($12)                   ; 0x2012 <dispatchAction+0x3b6>
     fe6: a9 00        	lda	#$0
     fe8: 6a           	ror
     fe9: 85 28        	sta	$28                     ; 0x2028 <dispatchAction+0x3cc>
     feb: b2 12        	lda	($12)                   ; 0x2012 <dispatchAction+0x3b6>
     fed: 1a           	inc
     fee: 85 96        	sta	$96                     ; 0x2096 <dispatchAction+0x43a>
     ff0: a6 95        	ldx	$95                     ; 0x2095 <dispatchAction+0x439>
     ff2: 86 f3        	stx	$f3                     ; 0x20f3 <dispatchAction+0x497>
     ff4: a6 96        	ldx	$96                     ; 0x2096 <dispatchAction+0x43a>
     ff6: 86 f4        	stx	$f4                     ; 0x20f4 <dispatchAction+0x498>
     ff8: a6 97        	ldx	$97                     ; 0x2097 <dispatchAction+0x43b>
     ffa: 86 f5        	stx	$f5                     ; 0x20f5 <dispatchAction+0x499>
     ffc: 18           	clc
     ffd: a5 10        	lda	$10                     ; 0x2010 <dispatchAction+0x3b4>
     fff: 69 08        	adc	#$8
    1001: 85 12        	sta	$12                     ; 0x2012 <dispatchAction+0x3b6>
    1003: a5 11        	lda	$11                     ; 0x2011 <dispatchAction+0x3b5>
    1005: 69 00        	adc	#$0
    1007: 85 13        	sta	$13                     ; 0x2013 <dispatchAction+0x3b7>
    1009: 20 f0 ff     	jsr	$fff0 <end_block9+0x8cfa>
    100c: 92 12        	sta	($12)                   ; 0x2012 <dispatchAction+0x3b6>
    100e: a9 00        	lda	#$0
    1010: 6a           	ror
    1011: 85 28        	sta	$28                     ; 0x2028 <dispatchAction+0x3cc>
    1013: a4 25        	ldy	$25                     ; 0x2025 <dispatchAction+0x3c9>
    1015: a6 8b        	ldx	$8b                     ; 0x208b <dispatchAction+0x42f>
    1017: e0 0c        	cpx	#$c
    1019: f0 24        	beq	$103f <f256main+0x526>
    101b: ad a0 dd     	lda	$dda0                   ; 0xdda0 <end_block9+0x6aaa>
    101e: 29 02        	and	#$2
    1020: f0 03        	beq	$1025 <f256main+0x50c>
    1022: 4c 1f 0d     	jmp	$d1f <f256main+0x206>
    1025: ae a2 dd     	ldx	$dda2                   ; 0xdda2 <end_block9+0x6aac>
    1028: ad a3 dd     	lda	$dda3                   ; 0xdda3 <end_block9+0x6aad>
    102b: 29 0f        	and	#$f
    102d: d0 07        	bne	$1036 <f256main+0x51d>
    102f: e0 00        	cpx	#$0
    1031: d0 03        	bne	$1036 <f256main+0x51d>
    1033: 4c 1f 0d     	jmp	$d1f <f256main+0x206>
    1036: 85 27        	sta	$27                     ; 0x2027 <dispatchAction+0x3cb>
    1038: 86 25        	stx	$25                     ; 0x2025 <dispatchAction+0x3c9>
    103a: a9 00        	lda	#$0
    103c: 4c b6 0b     	jmp	$bb6 <f256main+0x9d>
    103f: a5 8e        	lda	$8e                     ; 0x208e <dispatchAction+0x432>
    1041: 18           	clc
    1042: 48           	pha
    1043: a9 00        	lda	#$0
    1045: 5a           	phy
    1046: a8           	tay
    1047: 91 10        	sta	($10),y                 ; 0x2010 <dispatchAction+0x3b4>
    1049: 7a           	ply
    104a: 68           	pla
    104b: b8           	clv
    104c: f0 08        	beq	$1056 <f256main+0x53d>
    104e: c9 11        	cmp	#$11
    1050: 2c 0d 69     	bit	$690d                   ; 0x690d <__set_v>
    1053: b0 01        	bcs	$1056 <f256main+0x53d>
    1055: b8           	clv
    1056: a6 8f        	ldx	$8f                     ; 0x208f <dispatchAction+0x433>
    1058: f0 10        	beq	$106a <f256main+0x551>
    105a: e0 11        	cpx	#$11
    105c: 48           	pha
    105d: a9 01        	lda	#$1
    105f: b0 02        	bcs	$1063 <f256main+0x54a>
    1061: a9 00        	lda	#$0
    1063: 5a           	phy
    1064: a0 00        	ldy	#$0
    1066: 91 10        	sta	($10),y                 ; 0x2010 <dispatchAction+0x3b4>
    1068: 7a           	ply
    1069: 68           	pla
    106a: 86 18        	stx	$18                     ; 0x2018 <dispatchAction+0x3bc>
    106c: ae e2 d6     	ldx	$d6e2                   ; 0xd6e2 <end_block9+0x63ec>
    106f: 86 15        	stx	$15                     ; 0x2015 <dispatchAction+0x3b9>
    1071: ae e3 d6     	ldx	$d6e3                   ; 0xd6e3 <end_block9+0x63ed>
    1074: 86 14        	stx	$14                     ; 0x2014 <dispatchAction+0x3b8>
    1076: 50 01        	bvc	$1079 <f256main+0x560>
    1078: 0a           	asl
    1079: 85 12        	sta	$12                     ; 0x2012 <dispatchAction+0x3b6>
    107b: aa           	tax
    107c: 10 06        	bpl	$1084 <f256main+0x56b>
    107e: a2 ff        	ldx	#$ff
    1080: 86 13        	stx	$13                     ; 0x2013 <dispatchAction+0x3b7>
    1082: 80 02        	bra	$1086 <f256main+0x56d>
    1084: 64 13        	stz	$13                     ; 0x2013 <dispatchAction+0x3b7>
    1086: 18           	clc
    1087: a5 15        	lda	$15                     ; 0x2015 <dispatchAction+0x3b9>
    1089: 65 12        	adc	$12                     ; 0x2012 <dispatchAction+0x3b6>
    108b: aa           	tax
    108c: a5 14        	lda	$14                     ; 0x2014 <dispatchAction+0x3b8>
    108e: 65 13        	adc	$13                     ; 0x2013 <dispatchAction+0x3b7>
    1090: 86 98        	stx	$98                     ; 0x2098 <dispatchAction+0x43c>
    1092: 85 14        	sta	$14                     ; 0x2014 <dispatchAction+0x3b8>
    1094: 85 99        	sta	$99                     ; 0x2099 <dispatchAction+0x43d>
    1096: ad e4 d6     	lda	$d6e4                   ; 0xd6e4 <end_block9+0x63ee>
    1099: ae e5 d6     	ldx	$d6e5                   ; 0xd6e5 <end_block9+0x63ef>
    109c: 86 15        	stx	$15                     ; 0x2015 <dispatchAction+0x3b9>
    109e: 48           	pha
    109f: 5a           	phy
    10a0: a0 00        	ldy	#$0
    10a2: b1 10        	lda	($10),y                 ; 0x2010 <dispatchAction+0x3b4>
    10a4: 7a           	ply
    10a5: 85 12        	sta	$12                     ; 0x2012 <dispatchAction+0x3b6>
    10a7: 68           	pla
    10a8: a6 12        	ldx	$12                     ; 0x2012 <dispatchAction+0x3b6>
    10aa: f0 0e        	beq	$10ba <f256main+0x5a1>
    10ac: a6 18        	ldx	$18                     ; 0x2018 <dispatchAction+0x3bc>
    10ae: 86 12        	stx	$12                     ; 0x2012 <dispatchAction+0x3b6>
    10b0: 06 12        	asl	$12                     ; 0x2012 <dispatchAction+0x3b6>
    10b2: a6 12        	ldx	$12                     ; 0x2012 <dispatchAction+0x3b6>
    10b4: 30 0c        	bmi	$10c2 <f256main+0x5a9>
    10b6: 64 13        	stz	$13                     ; 0x2013 <dispatchAction+0x3b7>
    10b8: 80 0c        	bra	$10c6 <f256main+0x5ad>
    10ba: a6 18        	ldx	$18                     ; 0x2018 <dispatchAction+0x3bc>
    10bc: 86 12        	stx	$12                     ; 0x2012 <dispatchAction+0x3b6>
    10be: a6 12        	ldx	$12                     ; 0x2012 <dispatchAction+0x3b6>
    10c0: 10 f4        	bpl	$10b6 <f256main+0x59d>
    10c2: a2 ff        	ldx	#$ff
    10c4: 86 13        	stx	$13                     ; 0x2013 <dispatchAction+0x3b7>
    10c6: 18           	clc
    10c7: 65 12        	adc	$12                     ; 0x2012 <dispatchAction+0x3b6>
    10c9: aa           	tax
    10ca: a5 15        	lda	$15                     ; 0x2015 <dispatchAction+0x3b9>
    10cc: 65 13        	adc	$13                     ; 0x2013 <dispatchAction+0x3b7>
    10ce: 86 9a        	stx	$9a                     ; 0x209a <dispatchAction+0x43e>
    10d0: 85 12        	sta	$12                     ; 0x2012 <dispatchAction+0x3b6>
    10d2: 85 9b        	sta	$9b                     ; 0x209b <dispatchAction+0x43f>
    10d4: a5 14        	lda	$14                     ; 0x2014 <dispatchAction+0x3b8>
    10d6: 10 04        	bpl	$10dc <f256main+0x5c3>
    10d8: 64 98        	stz	$98                     ; 0x2098 <dispatchAction+0x43c>
    10da: 64 99        	stz	$99                     ; 0x2099 <dispatchAction+0x43d>
    10dc: a6 98        	ldx	$98                     ; 0x2098 <dispatchAction+0x43c>
    10de: a5 99        	lda	$99                     ; 0x2099 <dispatchAction+0x43d>
    10e0: e0 71        	cpx	#$71
    10e2: e9 02        	sbc	#$2
    10e4: 50 03        	bvc	$10e9 <f256main+0x5d0>
    10e6: 4c 71 11     	jmp	$1171 <f256main+0x658>
    10e9: aa           	tax
    10ea: 30 03        	bmi	$10ef <f256main+0x5d6>
    10ec: 4c 79 11     	jmp	$1179 <f256main+0x660>
    10ef: a5 12        	lda	$12                     ; 0x2012 <dispatchAction+0x3b6>
    10f1: 10 03        	bpl	$10f6 <f256main+0x5dd>
    10f3: 4c 88 11     	jmp	$1188 <f256main+0x66f>
    10f6: a6 9a        	ldx	$9a                     ; 0x209a <dispatchAction+0x43e>
    10f8: a5 9b        	lda	$9b                     ; 0x209b <dispatchAction+0x43f>
    10fa: e0 d1        	cpx	#$d1
    10fc: e9 01        	sbc	#$1
    10fe: 50 02        	bvc	$1102 <f256main+0x5e9>
    1100: 49 80        	eor	#$80
    1102: 84 25        	sty	$25                     ; 0x2025 <dispatchAction+0x3c9>
    1104: aa           	tax
    1105: 30 08        	bmi	$110f <f256main+0x5f6>
    1107: a2 d0        	ldx	#$d0
    1109: 86 9a        	stx	$9a                     ; 0x209a <dispatchAction+0x43e>
    110b: a2 01        	ldx	#$1
    110d: 86 9b        	stx	$9b                     ; 0x209b <dispatchAction+0x43f>
    110f: a6 98        	ldx	$98                     ; 0x2098 <dispatchAction+0x43c>
    1111: a4 99        	ldy	$99                     ; 0x2099 <dispatchAction+0x43d>
    1113: 8e e2 d6     	stx	$d6e2                   ; 0xd6e2 <end_block9+0x63ec>
    1116: 8c e3 d6     	sty	$d6e3                   ; 0xd6e3 <end_block9+0x63ed>
    1119: a6 9a        	ldx	$9a                     ; 0x209a <dispatchAction+0x43e>
    111b: a4 9b        	ldy	$9b                     ; 0x209b <dispatchAction+0x43f>
    111d: 8e e4 d6     	stx	$d6e4                   ; 0xd6e4 <end_block9+0x63ee>
    1120: 8c e5 d6     	sty	$d6e5                   ; 0xd6e5 <end_block9+0x63ef>
    1123: ad dd 72     	lda	$72dd                   ; 0x72dd <sliAct>
    1126: c9 ff        	cmp	#$ff
    1128: d0 03        	bne	$112d <f256main+0x614>
    112a: 4c 49 12     	jmp	$1249 <f256main+0x730>
    112d: 0a           	asl
    112e: 64 12        	stz	$12                     ; 0x2012 <dispatchAction+0x3b6>
    1130: 26 12        	rol	$12                     ; 0x2012 <dispatchAction+0x3b6>
    1132: 0a           	asl
    1133: 26 12        	rol	$12                     ; 0x2012 <dispatchAction+0x3b6>
    1135: 0a           	asl
    1136: 26 12        	rol	$12                     ; 0x2012 <dispatchAction+0x3b6>
    1138: 0a           	asl
    1139: 85 13        	sta	$13                     ; 0x2013 <dispatchAction+0x3b7>
    113b: 26 12        	rol	$12                     ; 0x2012 <dispatchAction+0x3b6>
    113d: 0a           	asl
    113e: a6 12        	ldx	$12                     ; 0x2012 <dispatchAction+0x3b6>
    1140: 86 14        	stx	$14                     ; 0x2014 <dispatchAction+0x3b8>
    1142: 26 14        	rol	$14                     ; 0x2014 <dispatchAction+0x3b8>
    1144: 18           	clc
    1145: 65 13        	adc	$13                     ; 0x2013 <dispatchAction+0x3b7>
    1147: 85 1a        	sta	$1a                     ; 0x201a <dispatchAction+0x3be>
    1149: 85 13        	sta	$13                     ; 0x2013 <dispatchAction+0x3b7>
    114b: a5 14        	lda	$14                     ; 0x2014 <dispatchAction+0x3b8>
    114d: 65 12        	adc	$12                     ; 0x2012 <dispatchAction+0x3b6>
    114f: 85 1b        	sta	$1b                     ; 0x201b <dispatchAction+0x3bf>
    1151: 85 12        	sta	$12                     ; 0x2012 <dispatchAction+0x3b6>
    1153: a9 35        	lda	#$35
    1155: 18           	clc
    1156: 65 13        	adc	$13                     ; 0x2013 <dispatchAction+0x3b7>
    1158: aa           	tax
    1159: a9 70        	lda	#$70
    115b: 65 12        	adc	$12                     ; 0x2012 <dispatchAction+0x3b6>
    115d: 86 12        	stx	$12                     ; 0x2012 <dispatchAction+0x3b6>
    115f: 64 15        	stz	$15                     ; 0x2015 <dispatchAction+0x3b9>
    1161: 85 13        	sta	$13                     ; 0x2013 <dispatchAction+0x3b7>
    1163: a6 8f        	ldx	$8f                     ; 0x208f <dispatchAction+0x433>
    1165: 86 14        	stx	$14                     ; 0x2014 <dispatchAction+0x3b8>
    1167: 10 26        	bpl	$118f <f256main+0x676>
    1169: 64 17        	stz	$17                     ; 0x2017 <dispatchAction+0x3bb>
    116b: a2 ff        	ldx	#$ff
    116d: 86 15        	stx	$15                     ; 0x2015 <dispatchAction+0x3b9>
    116f: 80 20        	bra	$1191 <f256main+0x678>
    1171: 49 80        	eor	#$80
    1173: aa           	tax
    1174: 10 03        	bpl	$1179 <f256main+0x660>
    1176: 4c ef 10     	jmp	$10ef <f256main+0x5d6>
    1179: a2 70        	ldx	#$70
    117b: 86 98        	stx	$98                     ; 0x2098 <dispatchAction+0x43c>
    117d: a2 02        	ldx	#$2
    117f: 86 99        	stx	$99                     ; 0x2099 <dispatchAction+0x43d>
    1181: a5 12        	lda	$12                     ; 0x2012 <dispatchAction+0x3b6>
    1183: 30 03        	bmi	$1188 <f256main+0x66f>
    1185: 4c f6 10     	jmp	$10f6 <f256main+0x5dd>
    1188: 64 9a        	stz	$9a                     ; 0x209a <dispatchAction+0x43e>
    118a: 64 9b        	stz	$9b                     ; 0x209b <dispatchAction+0x43f>
    118c: 4c f6 10     	jmp	$10f6 <f256main+0x5dd>
    118f: 64 17        	stz	$17                     ; 0x2017 <dispatchAction+0x3bb>
    1191: a2 01        	ldx	#$1
    1193: a0 27        	ldy	#$27
    1195: b1 12        	lda	($12),y                 ; 0x2012 <dispatchAction+0x3b6>
    1197: 38           	sec
    1198: e5 14        	sbc	$14                     ; 0x2014 <dispatchAction+0x3b8>
    119a: 85 14        	sta	$14                     ; 0x2014 <dispatchAction+0x3b8>
    119c: a9 00        	lda	#$0
    119e: e5 15        	sbc	$15                     ; 0x2015 <dispatchAction+0x3b9>
    11a0: 85 16        	sta	$16                     ; 0x2016 <dispatchAction+0x3ba>
    11a2: c8           	iny
    11a3: b1 12        	lda	($12),y                 ; 0x2012 <dispatchAction+0x3b6>
    11a5: 85 15        	sta	$15                     ; 0x2015 <dispatchAction+0x3b9>
    11a7: a4 14        	ldy	$14                     ; 0x2014 <dispatchAction+0x3b8>
    11a9: c4 15        	cpy	$15                     ; 0x2015 <dispatchAction+0x3b9>
    11ab: a5 16        	lda	$16                     ; 0x2016 <dispatchAction+0x3ba>
    11ad: e9 00        	sbc	#$0
    11af: 50 02        	bvc	$11b3 <f256main+0x69a>
    11b1: 49 80        	eor	#$80
    11b3: a8           	tay
    11b4: 10 06        	bpl	$11bc <f256main+0x6a3>
    11b6: a4 15        	ldy	$15                     ; 0x2015 <dispatchAction+0x3b9>
    11b8: 84 14        	sty	$14                     ; 0x2014 <dispatchAction+0x3b8>
    11ba: 64 16        	stz	$16                     ; 0x2016 <dispatchAction+0x3ba>
    11bc: a4 1a        	ldy	$1a                     ; 0x201a <dispatchAction+0x3be>
    11be: 84 15        	sty	$15                     ; 0x2015 <dispatchAction+0x3b9>
    11c0: a4 1b        	ldy	$1b                     ; 0x201b <dispatchAction+0x3bf>
    11c2: 84 17        	sty	$17                     ; 0x2017 <dispatchAction+0x3bb>
    11c4: a9 35        	lda	#$35
    11c6: 18           	clc
    11c7: 65 15        	adc	$15                     ; 0x2015 <dispatchAction+0x3b9>
    11c9: 85 18        	sta	$18                     ; 0x2018 <dispatchAction+0x3bc>
    11cb: a9 70        	lda	#$70
    11cd: 65 17        	adc	$17                     ; 0x2017 <dispatchAction+0x3bb>
    11cf: 85 19        	sta	$19                     ; 0x2019 <dispatchAction+0x3bd>
    11d1: a0 29        	ldy	#$29
    11d3: b1 18        	lda	($18),y                 ; 0x2018 <dispatchAction+0x3bc>
    11d5: 85 15        	sta	$15                     ; 0x2015 <dispatchAction+0x3b9>
    11d7: c5 14        	cmp	$14                     ; 0x2014 <dispatchAction+0x3b8>
    11d9: a9 00        	lda	#$0
    11db: e5 16        	sbc	$16                     ; 0x2016 <dispatchAction+0x3ba>
    11dd: 50 02        	bvc	$11e1 <f256main+0x6c8>
    11df: 49 80        	eor	#$80
    11e1: a4 14        	ldy	$14                     ; 0x2014 <dispatchAction+0x3b8>
    11e3: 84 16        	sty	$16                     ; 0x2016 <dispatchAction+0x3ba>
    11e5: a8           	tay
    11e6: 10 04        	bpl	$11ec <f256main+0x6d3>
    11e8: a4 15        	ldy	$15                     ; 0x2015 <dispatchAction+0x3b9>
    11ea: 84 16        	sty	$16                     ; 0x2016 <dispatchAction+0x3ba>
    11ec: a9 35        	lda	#$35
    11ee: 18           	clc
    11ef: 65 1a        	adc	$1a                     ; 0x201a <dispatchAction+0x3be>
    11f1: 85 14        	sta	$14                     ; 0x2014 <dispatchAction+0x3b8>
    11f3: a9 70        	lda	#$70
    11f5: 65 1b        	adc	$1b                     ; 0x201b <dispatchAction+0x3bf>
    11f7: 85 15        	sta	$15                     ; 0x2015 <dispatchAction+0x3b9>
    11f9: a0 27        	ldy	#$27
    11fb: a5 16        	lda	$16                     ; 0x2016 <dispatchAction+0x3ba>
    11fd: 91 14        	sta	($14),y                 ; 0x2014 <dispatchAction+0x3b8>
    11ff: 86 14        	stx	$14                     ; 0x2014 <dispatchAction+0x3b8>
    1201: 64 15        	stz	$15                     ; 0x2015 <dispatchAction+0x3b9>
    1203: 64 16        	stz	$16                     ; 0x2016 <dispatchAction+0x3ba>
    1205: a0 54        	ldy	#$54
    1207: 84 17        	sty	$17                     ; 0x2017 <dispatchAction+0x3bb>
    1209: 86 18        	stx	$18                     ; 0x2018 <dispatchAction+0x3bc>
    120b: 64 19        	stz	$19                     ; 0x2019 <dispatchAction+0x3bd>
    120d: a2 00        	ldx	#$0
    120f: 8a           	txa
    1210: 20 49 41     	jsr	$4149 <updateSlider>
    1213: ad dd 72     	lda	$72dd                   ; 0x72dd <sliAct>
    1216: 0a           	asl
    1217: 64 12        	stz	$12                     ; 0x2012 <dispatchAction+0x3b6>
    1219: 26 12        	rol	$12                     ; 0x2012 <dispatchAction+0x3b6>
    121b: 0a           	asl
    121c: 26 12        	rol	$12                     ; 0x2012 <dispatchAction+0x3b6>
    121e: 0a           	asl
    121f: 26 12        	rol	$12                     ; 0x2012 <dispatchAction+0x3b6>
    1221: 0a           	asl
    1222: 85 13        	sta	$13                     ; 0x2013 <dispatchAction+0x3b7>
    1224: 26 12        	rol	$12                     ; 0x2012 <dispatchAction+0x3b6>
    1226: 0a           	asl
    1227: a6 12        	ldx	$12                     ; 0x2012 <dispatchAction+0x3b6>
    1229: 86 14        	stx	$14                     ; 0x2014 <dispatchAction+0x3b8>
    122b: 26 14        	rol	$14                     ; 0x2014 <dispatchAction+0x3b8>
    122d: 18           	clc
    122e: 65 13        	adc	$13                     ; 0x2013 <dispatchAction+0x3b7>
    1230: 85 13        	sta	$13                     ; 0x2013 <dispatchAction+0x3b7>
    1232: a5 14        	lda	$14                     ; 0x2014 <dispatchAction+0x3b8>
    1234: 65 12        	adc	$12                     ; 0x2012 <dispatchAction+0x3b6>
    1236: 85 12        	sta	$12                     ; 0x2012 <dispatchAction+0x3b6>
    1238: a9 35        	lda	#$35
    123a: 18           	clc
    123b: 65 13        	adc	$13                     ; 0x2013 <dispatchAction+0x3b7>
    123d: aa           	tax
    123e: a9 70        	lda	#$70
    1240: 65 12        	adc	$12                     ; 0x2012 <dispatchAction+0x3b6>
    1242: 86 12        	stx	$12                     ; 0x2012 <dispatchAction+0x3b6>
    1244: 85 13        	sta	$13                     ; 0x2013 <dispatchAction+0x3b7>
    1246: 20 2d 16     	jsr	$162d <updateChip>
    1249: ad d5 72     	lda	$72d5                   ; 0x72d5 <diaAct>
    124c: c9 ff        	cmp	#$ff
    124e: d0 03        	bne	$1253 <f256main+0x73a>
    1250: 4c 4d 13     	jmp	$134d <f256main+0x834>
    1253: 0a           	asl
    1254: 64 12        	stz	$12                     ; 0x2012 <dispatchAction+0x3b6>
    1256: 26 12        	rol	$12                     ; 0x2012 <dispatchAction+0x3b6>
    1258: 0a           	asl
    1259: 26 12        	rol	$12                     ; 0x2012 <dispatchAction+0x3b6>
    125b: 0a           	asl
    125c: 85 13        	sta	$13                     ; 0x2013 <dispatchAction+0x3b7>
    125e: 26 12        	rol	$12                     ; 0x2012 <dispatchAction+0x3b6>
    1260: 0a           	asl
    1261: a6 12        	ldx	$12                     ; 0x2012 <dispatchAction+0x3b6>
    1263: 86 15        	stx	$15                     ; 0x2015 <dispatchAction+0x3b9>
    1265: 26 15        	rol	$15                     ; 0x2015 <dispatchAction+0x3b9>
    1267: 0a           	asl
    1268: 26 15        	rol	$15                     ; 0x2015 <dispatchAction+0x3b9>
    126a: 0a           	asl
    126b: 26 15        	rol	$15                     ; 0x2015 <dispatchAction+0x3b9>
    126d: 18           	clc
    126e: 65 13        	adc	$13                     ; 0x2013 <dispatchAction+0x3b7>
    1270: 85 1a        	sta	$1a                     ; 0x201a <dispatchAction+0x3be>
    1272: 85 13        	sta	$13                     ; 0x2013 <dispatchAction+0x3b7>
    1274: a5 15        	lda	$15                     ; 0x2015 <dispatchAction+0x3b9>
    1276: 65 12        	adc	$12                     ; 0x2012 <dispatchAction+0x3b6>
    1278: 85 1b        	sta	$1b                     ; 0x201b <dispatchAction+0x3bf>
    127a: 85 12        	sta	$12                     ; 0x2012 <dispatchAction+0x3b6>
    127c: a9 25        	lda	#$25
    127e: 18           	clc
    127f: 65 13        	adc	$13                     ; 0x2013 <dispatchAction+0x3b7>
    1281: aa           	tax
    1282: a9 71        	lda	#$71
    1284: 65 12        	adc	$12                     ; 0x2012 <dispatchAction+0x3b6>
    1286: 86 12        	stx	$12                     ; 0x2012 <dispatchAction+0x3b6>
    1288: 85 13        	sta	$13                     ; 0x2013 <dispatchAction+0x3b7>
    128a: a0 3f        	ldy	#$3f
    128c: b1 12        	lda	($12),y                 ; 0x2012 <dispatchAction+0x3b6>
    128e: 85 14        	sta	$14                     ; 0x2014 <dispatchAction+0x3b8>
    1290: a5 8e        	lda	$8e                     ; 0x208e <dispatchAction+0x432>
    1292: 10 04        	bpl	$1298 <f256main+0x77f>
    1294: a2 ff        	ldx	#$ff
    1296: 80 02        	bra	$129a <f256main+0x781>
    1298: a2 00        	ldx	#$0
    129a: 18           	clc
    129b: 65 14        	adc	$14                     ; 0x2014 <dispatchAction+0x3b8>
    129d: 85 14        	sta	$14                     ; 0x2014 <dispatchAction+0x3b8>
    129f: 8a           	txa
    12a0: 69 00        	adc	#$0
    12a2: 85 16        	sta	$16                     ; 0x2016 <dispatchAction+0x3ba>
    12a4: a0 40        	ldy	#$40
    12a6: a6 14        	ldx	$14                     ; 0x2014 <dispatchAction+0x3b8>
    12a8: b1 12        	lda	($12),y                 ; 0x2012 <dispatchAction+0x3b6>
    12aa: 85 15        	sta	$15                     ; 0x2015 <dispatchAction+0x3b9>
    12ac: e4 15        	cpx	$15                     ; 0x2015 <dispatchAction+0x3b9>
    12ae: a5 16        	lda	$16                     ; 0x2016 <dispatchAction+0x3ba>
    12b0: e9 00        	sbc	#$0
    12b2: 50 02        	bvc	$12b6 <f256main+0x79d>
    12b4: 49 80        	eor	#$80
    12b6: aa           	tax
    12b7: 10 06        	bpl	$12bf <f256main+0x7a6>
    12b9: a6 15        	ldx	$15                     ; 0x2015 <dispatchAction+0x3b9>
    12bb: 86 14        	stx	$14                     ; 0x2014 <dispatchAction+0x3b8>
    12bd: 64 16        	stz	$16                     ; 0x2016 <dispatchAction+0x3ba>
    12bf: a4 1a        	ldy	$1a                     ; 0x201a <dispatchAction+0x3be>
    12c1: 84 15        	sty	$15                     ; 0x2015 <dispatchAction+0x3b9>
    12c3: a4 1b        	ldy	$1b                     ; 0x201b <dispatchAction+0x3bf>
    12c5: 84 17        	sty	$17                     ; 0x2017 <dispatchAction+0x3bb>
    12c7: a9 25        	lda	#$25
    12c9: 18           	clc
    12ca: 65 15        	adc	$15                     ; 0x2015 <dispatchAction+0x3b9>
    12cc: 85 18        	sta	$18                     ; 0x2018 <dispatchAction+0x3bc>
    12ce: a9 71        	lda	#$71
    12d0: 65 17        	adc	$17                     ; 0x2017 <dispatchAction+0x3bb>
    12d2: 85 19        	sta	$19                     ; 0x2019 <dispatchAction+0x3bd>
    12d4: a0 41        	ldy	#$41
    12d6: b1 18        	lda	($18),y                 ; 0x2018 <dispatchAction+0x3bc>
    12d8: 85 15        	sta	$15                     ; 0x2015 <dispatchAction+0x3b9>
    12da: c5 14        	cmp	$14                     ; 0x2014 <dispatchAction+0x3b8>
    12dc: a9 00        	lda	#$0
    12de: e5 16        	sbc	$16                     ; 0x2016 <dispatchAction+0x3ba>
    12e0: 50 02        	bvc	$12e4 <f256main+0x7cb>
    12e2: 49 80        	eor	#$80
    12e4: a6 14        	ldx	$14                     ; 0x2014 <dispatchAction+0x3b8>
    12e6: a8           	tay
    12e7: 10 02        	bpl	$12eb <f256main+0x7d2>
    12e9: a6 15        	ldx	$15                     ; 0x2015 <dispatchAction+0x3b9>
    12eb: a9 25        	lda	#$25
    12ed: 18           	clc
    12ee: 65 1a        	adc	$1a                     ; 0x201a <dispatchAction+0x3be>
    12f0: 85 14        	sta	$14                     ; 0x2014 <dispatchAction+0x3b8>
    12f2: a9 71        	lda	#$71
    12f4: 65 1b        	adc	$1b                     ; 0x201b <dispatchAction+0x3bf>
    12f6: 85 15        	sta	$15                     ; 0x2015 <dispatchAction+0x3b9>
    12f8: a0 3f        	ldy	#$3f
    12fa: 8a           	txa
    12fb: 91 14        	sta	($14),y                 ; 0x2014 <dispatchAction+0x3b8>
    12fd: a2 01        	ldx	#$1
    12ff: 86 14        	stx	$14                     ; 0x2014 <dispatchAction+0x3b8>
    1301: 64 15        	stz	$15                     ; 0x2015 <dispatchAction+0x3b9>
    1303: 64 16        	stz	$16                     ; 0x2016 <dispatchAction+0x3ba>
    1305: a0 54        	ldy	#$54
    1307: 84 17        	sty	$17                     ; 0x2017 <dispatchAction+0x3bb>
    1309: 86 18        	stx	$18                     ; 0x2018 <dispatchAction+0x3bc>
    130b: 64 19        	stz	$19                     ; 0x2019 <dispatchAction+0x3bd>
    130d: ca           	dex
    130e: 8a           	txa
    130f: 20 95 3c     	jsr	$3c95 <updateDial>
    1312: ad d5 72     	lda	$72d5                   ; 0x72d5 <diaAct>
    1315: 0a           	asl
    1316: 64 12        	stz	$12                     ; 0x2012 <dispatchAction+0x3b6>
    1318: 26 12        	rol	$12                     ; 0x2012 <dispatchAction+0x3b6>
    131a: 0a           	asl
    131b: 26 12        	rol	$12                     ; 0x2012 <dispatchAction+0x3b6>
    131d: 0a           	asl
    131e: 85 13        	sta	$13                     ; 0x2013 <dispatchAction+0x3b7>
    1320: 26 12        	rol	$12                     ; 0x2012 <dispatchAction+0x3b6>
    1322: 0a           	asl
    1323: aa           	tax
    1324: a5 12        	lda	$12                     ; 0x2012 <dispatchAction+0x3b6>
    1326: 2a           	rol
    1327: 86 14        	stx	$14                     ; 0x2014 <dispatchAction+0x3b8>
    1329: 06 14        	asl	$14                     ; 0x2014 <dispatchAction+0x3b8>
    132b: 2a           	rol
    132c: 06 14        	asl	$14                     ; 0x2014 <dispatchAction+0x3b8>
    132e: 2a           	rol
    132f: aa           	tax
    1330: 18           	clc
    1331: a5 14        	lda	$14                     ; 0x2014 <dispatchAction+0x3b8>
    1333: 65 13        	adc	$13                     ; 0x2013 <dispatchAction+0x3b7>
    1335: 85 13        	sta	$13                     ; 0x2013 <dispatchAction+0x3b7>
    1337: 8a           	txa
    1338: 65 12        	adc	$12                     ; 0x2012 <dispatchAction+0x3b6>
    133a: 85 12        	sta	$12                     ; 0x2012 <dispatchAction+0x3b6>
    133c: a9 25        	lda	#$25
    133e: 18           	clc
    133f: 65 13        	adc	$13                     ; 0x2013 <dispatchAction+0x3b7>
    1341: aa           	tax
    1342: a9 71        	lda	#$71
    1344: 65 12        	adc	$12                     ; 0x2012 <dispatchAction+0x3b6>
    1346: 86 12        	stx	$12                     ; 0x2012 <dispatchAction+0x3b6>
    1348: 85 13        	sta	$13                     ; 0x2013 <dispatchAction+0x3b7>
    134a: 20 48 17     	jsr	$1748 <updateChipDial>
    134d: a9 01        	lda	#$1
    134f: 25 91        	and	$91                     ; 0x2091 <dispatchAction+0x435>
    1351: a6 2a        	ldx	$2a                     ; 0x202a <dispatchAction+0x3ce>
    1353: a8           	tay
    1354: d0 09        	bne	$135f <f256main+0x846>
    1356: a4 25        	ldy	$25                     ; 0x2025 <dispatchAction+0x3c9>
    1358: e0 01        	cpx	#$1
    135a: f0 12        	beq	$136e <f256main+0x855>
    135c: 4c 78 14     	jmp	$1478 <f256main+0x95f>
    135f: a4 25        	ldy	$25                     ; 0x2025 <dispatchAction+0x3c9>
    1361: 8a           	txa
    1362: d0 03        	bne	$1367 <f256main+0x84e>
    1364: 4c 3c 14     	jmp	$143c <f256main+0x923>
    1367: e0 01        	cpx	#$1
    1369: f0 03        	beq	$136e <f256main+0x855>
    136b: 4c 78 14     	jmp	$1478 <f256main+0x95f>
    136e: a5 91        	lda	$91                     ; 0x2091 <dispatchAction+0x435>
    1370: 29 01        	and	#$1
    1372: f0 03        	beq	$1377 <f256main+0x85e>
    1374: 4c 78 14     	jmp	$1478 <f256main+0x95f>
    1377: ad dd 72     	lda	$72dd                   ; 0x72dd <sliAct>
    137a: c9 ff        	cmp	#$ff
    137c: d0 03        	bne	$1381 <f256main+0x868>
    137e: 4c d5 13     	jmp	$13d5 <f256main+0x8bc>
    1381: 0a           	asl
    1382: 64 12        	stz	$12                     ; 0x2012 <dispatchAction+0x3b6>
    1384: 26 12        	rol	$12                     ; 0x2012 <dispatchAction+0x3b6>
    1386: 0a           	asl
    1387: 26 12        	rol	$12                     ; 0x2012 <dispatchAction+0x3b6>
    1389: 0a           	asl
    138a: 26 12        	rol	$12                     ; 0x2012 <dispatchAction+0x3b6>
    138c: 0a           	asl
    138d: 85 13        	sta	$13                     ; 0x2013 <dispatchAction+0x3b7>
    138f: 26 12        	rol	$12                     ; 0x2012 <dispatchAction+0x3b6>
    1391: 0a           	asl
    1392: a6 12        	ldx	$12                     ; 0x2012 <dispatchAction+0x3b6>
    1394: 86 14        	stx	$14                     ; 0x2014 <dispatchAction+0x3b8>
    1396: 26 14        	rol	$14                     ; 0x2014 <dispatchAction+0x3b8>
    1398: 18           	clc
    1399: 65 13        	adc	$13                     ; 0x2013 <dispatchAction+0x3b7>
    139b: 85 13        	sta	$13                     ; 0x2013 <dispatchAction+0x3b7>
    139d: a5 14        	lda	$14                     ; 0x2014 <dispatchAction+0x3b8>
    139f: 65 12        	adc	$12                     ; 0x2012 <dispatchAction+0x3b6>
    13a1: 85 12        	sta	$12                     ; 0x2012 <dispatchAction+0x3b6>
    13a3: a9 35        	lda	#$35
    13a5: 18           	clc
    13a6: 65 13        	adc	$13                     ; 0x2013 <dispatchAction+0x3b7>
    13a8: aa           	tax
    13a9: a9 70        	lda	#$70
    13ab: 65 12        	adc	$12                     ; 0x2012 <dispatchAction+0x3b6>
    13ad: 86 12        	stx	$12                     ; 0x2012 <dispatchAction+0x3b6>
    13af: 85 13        	sta	$13                     ; 0x2013 <dispatchAction+0x3b7>
    13b1: a9 00        	lda	#$0
    13b3: a0 06        	ldy	#$6
    13b5: 91 12        	sta	($12),y                 ; 0x2012 <dispatchAction+0x3b6>
    13b7: a2 ff        	ldx	#$ff
    13b9: 8e dd 72     	stx	$72dd                   ; 0x72dd <sliAct>
    13bc: 20 41 4c     	jsr	$4c41 <showMouse>
    13bf: a6 9c        	ldx	$9c                     ; 0x209c <dispatchAction+0x440>
    13c1: a4 9d        	ldy	$9d                     ; 0x209d <dispatchAction+0x441>
    13c3: 8e e2 d6     	stx	$d6e2                   ; 0xd6e2 <end_block9+0x63ec>
    13c6: 8c e3 d6     	sty	$d6e3                   ; 0xd6e3 <end_block9+0x63ed>
    13c9: a6 9e        	ldx	$9e                     ; 0x209e <dispatchAction+0x442>
    13cb: a4 9f        	ldy	$9f                     ; 0x209f <dispatchAction+0x443>
    13cd: 8e e4 d6     	stx	$d6e4                   ; 0xd6e4 <end_block9+0x63ee>
    13d0: 8c e5 d6     	sty	$d6e5                   ; 0xd6e5 <end_block9+0x63ef>
    13d3: a4 25        	ldy	$25                     ; 0x2025 <dispatchAction+0x3c9>
    13d5: ad d5 72     	lda	$72d5                   ; 0x72d5 <diaAct>
    13d8: a2 00        	ldx	#$0
    13da: c9 ff        	cmp	#$ff
    13dc: d0 03        	bne	$13e1 <f256main+0x8c8>
    13de: 4c 78 14     	jmp	$1478 <f256main+0x95f>
    13e1: 0a           	asl
    13e2: 64 12        	stz	$12                     ; 0x2012 <dispatchAction+0x3b6>
    13e4: 26 12        	rol	$12                     ; 0x2012 <dispatchAction+0x3b6>
    13e6: 0a           	asl
    13e7: 26 12        	rol	$12                     ; 0x2012 <dispatchAction+0x3b6>
    13e9: 0a           	asl
    13ea: 85 13        	sta	$13                     ; 0x2013 <dispatchAction+0x3b7>
    13ec: 26 12        	rol	$12                     ; 0x2012 <dispatchAction+0x3b6>
    13ee: 0a           	asl
    13ef: a6 12        	ldx	$12                     ; 0x2012 <dispatchAction+0x3b6>
    13f1: 86 14        	stx	$14                     ; 0x2014 <dispatchAction+0x3b8>
    13f3: 26 14        	rol	$14                     ; 0x2014 <dispatchAction+0x3b8>
    13f5: 0a           	asl
    13f6: 26 14        	rol	$14                     ; 0x2014 <dispatchAction+0x3b8>
    13f8: 0a           	asl
    13f9: 26 14        	rol	$14                     ; 0x2014 <dispatchAction+0x3b8>
    13fb: 18           	clc
    13fc: 65 13        	adc	$13                     ; 0x2013 <dispatchAction+0x3b7>
    13fe: 85 13        	sta	$13                     ; 0x2013 <dispatchAction+0x3b7>
    1400: a5 14        	lda	$14                     ; 0x2014 <dispatchAction+0x3b8>
    1402: 65 12        	adc	$12                     ; 0x2012 <dispatchAction+0x3b6>
    1404: 85 12        	sta	$12                     ; 0x2012 <dispatchAction+0x3b6>
    1406: a9 25        	lda	#$25
    1408: 18           	clc
    1409: 65 13        	adc	$13                     ; 0x2013 <dispatchAction+0x3b7>
    140b: aa           	tax
    140c: a9 71        	lda	#$71
    140e: 65 12        	adc	$12                     ; 0x2012 <dispatchAction+0x3b6>
    1410: 86 12        	stx	$12                     ; 0x2012 <dispatchAction+0x3b6>
    1412: 85 13        	sta	$13                     ; 0x2013 <dispatchAction+0x3b7>
    1414: a9 00        	lda	#$0
    1416: a0 06        	ldy	#$6
    1418: 91 12        	sta	($12),y                 ; 0x2012 <dispatchAction+0x3b6>
    141a: a2 ff        	ldx	#$ff
    141c: 8e d5 72     	stx	$72d5                   ; 0x72d5 <diaAct>
    141f: 20 41 4c     	jsr	$4c41 <showMouse>
    1422: a6 9c        	ldx	$9c                     ; 0x209c <dispatchAction+0x440>
    1424: a4 9d        	ldy	$9d                     ; 0x209d <dispatchAction+0x441>
    1426: 8e e2 d6     	stx	$d6e2                   ; 0xd6e2 <end_block9+0x63ec>
    1429: 8c e3 d6     	sty	$d6e3                   ; 0xd6e3 <end_block9+0x63ed>
    142c: a6 9e        	ldx	$9e                     ; 0x209e <dispatchAction+0x442>
    142e: a4 9f        	ldy	$9f                     ; 0x209f <dispatchAction+0x443>
    1430: 8e e4 d6     	stx	$d6e4                   ; 0xd6e4 <end_block9+0x63ee>
    1433: 8c e5 d6     	sty	$d6e5                   ; 0xd6e5 <end_block9+0x63ef>
    1436: a4 25        	ldy	$25                     ; 0x2025 <dispatchAction+0x3c9>
    1438: a2 00        	ldx	#$0
    143a: 80 3c        	bra	$1478 <f256main+0x95f>
    143c: a5 98        	lda	$98                     ; 0x2098 <dispatchAction+0x43c>
    143e: a6 99        	ldx	$99                     ; 0x2099 <dispatchAction+0x43d>
    1440: 86 12        	stx	$12                     ; 0x2012 <dispatchAction+0x3b6>
    1442: e0 80        	cpx	#$80
    1444: 66 12        	ror	$12                     ; 0x2012 <dispatchAction+0x3b6>
    1446: 6a           	ror
    1447: 18           	clc
    1448: 69 20        	adc	#$20
    144a: a8           	tay
    144b: a5 12        	lda	$12                     ; 0x2012 <dispatchAction+0x3b6>
    144d: 69 00        	adc	#$0
    144f: aa           	tax
    1450: a5 9a        	lda	$9a                     ; 0x209a <dispatchAction+0x43e>
    1452: 85 12        	sta	$12                     ; 0x2012 <dispatchAction+0x3b6>
    1454: a5 9b        	lda	$9b                     ; 0x209b <dispatchAction+0x43f>
    1456: c9 80        	cmp	#$80
    1458: 6a           	ror
    1459: 85 13        	sta	$13                     ; 0x2013 <dispatchAction+0x3b7>
    145b: a5 12        	lda	$12                     ; 0x2012 <dispatchAction+0x3b6>
    145d: 6a           	ror
    145e: 18           	clc
    145f: 69 20        	adc	#$20
    1461: 85 12        	sta	$12                     ; 0x2012 <dispatchAction+0x3b6>
    1463: a5 13        	lda	$13                     ; 0x2013 <dispatchAction+0x3b7>
    1465: 69 00        	adc	#$0
    1467: 85 13        	sta	$13                     ; 0x2013 <dispatchAction+0x3b7>
    1469: 98           	tya
    146a: 20 22 19     	jsr	$1922 <checkUIClicks>
    146d: a4 25        	ldy	$25                     ; 0x2025 <dispatchAction+0x3c9>
    146f: a2 01        	ldx	#$1
    1471: e0 01        	cpx	#$1
    1473: d0 03        	bne	$1478 <f256main+0x95f>
    1475: 4c 6e 13     	jmp	$136e <f256main+0x855>
    1478: 86 2a        	stx	$2a                     ; 0x202a <dispatchAction+0x3ce>
    147a: 4c 1b 10     	jmp	$101b <f256main+0x502>

0000147d <setup>:
    147d: 18           	clc
    147e: a5 10        	lda	$10                     ; 0x2010 <dispatchAction+0x3b4>
    1480: 69 f2        	adc	#$f2
    1482: 85 10        	sta	$10                     ; 0x2010 <dispatchAction+0x3b4>
    1484: a5 11        	lda	$11                     ; 0x2011 <dispatchAction+0x3b5>
    1486: 69 ff        	adc	#$ff
    1488: 85 11        	sta	$11                     ; 0x2011 <dispatchAction+0x3b5>
    148a: a6 24        	ldx	$24                     ; 0x2024 <dispatchAction+0x3c8>
    148c: da           	phx
    148d: a6 25        	ldx	$25                     ; 0x2025 <dispatchAction+0x3c9>
    148f: da           	phx
    1490: a6 26        	ldx	$26                     ; 0x2026 <dispatchAction+0x3ca>
    1492: da           	phx
    1493: a6 27        	ldx	$27                     ; 0x2027 <dispatchAction+0x3cb>
    1495: da           	phx
    1496: a5 28        	lda	$28                     ; 0x2028 <dispatchAction+0x3cc>
    1498: a0 02        	ldy	#$2
    149a: 91 10        	sta	($10),y                 ; 0x2010 <dispatchAction+0x3b4>
    149c: 20 59 36     	jsr	$3659 <backgroundSetup>
    149f: 20 41 50     	jsr	$5041 <clearSIDRegisters>
    14a2: 64 26        	stz	$26                     ; 0x2026 <dispatchAction+0x3ca>
    14a4: a9 00        	lda	#$0
    14a6: 20 23 52     	jsr	$5223 <sid_setInstrumentAllChannels>
    14a9: 20 cd 53     	jsr	$53cd <setMonoSID>
    14ac: 20 17 50     	jsr	$5017 <setMonoPSG>
    14af: 20 59 4c     	jsr	$4c59 <opl3_initialize>
    14b2: a9 00        	lda	#$0
    14b4: 20 8c 4e     	jsr	$4e8c <opl3_setInstrumentAllChannels>
    14b7: 20 47 4c     	jsr	$4c47 <prepMouse>
    14ba: a9 11        	lda	#$11
    14bc: a2 00        	ldx	#$0
    14be: 20 30 64     	jsr	$6430 <malloc>
    14c1: a6 12        	ldx	$12                     ; 0x2012 <dispatchAction+0x3b6>
    14c3: a4 13        	ldy	$13                     ; 0x2013 <dispatchAction+0x3b7>
    14c5: 86 e1        	stx	$e1                     ; 0x20e1 <dispatchAction+0x485>
    14c7: 84 e2        	sty	$e2                     ; 0x20e2 <dispatchAction+0x486>
    14c9: 20 00 47     	jsr	$4700 <resetGlobals>
    14cc: a2 00        	ldx	#$0
    14ce: a9 0b        	lda	#$b
    14d0: 20 30 64     	jsr	$6430 <malloc>
    14d3: a6 12        	ldx	$12                     ; 0x2012 <dispatchAction+0x3b6>
    14d5: 86 14        	stx	$14                     ; 0x2014 <dispatchAction+0x3b8>
    14d7: a6 13        	ldx	$13                     ; 0x2013 <dispatchAction+0x3b7>
    14d9: 86 15        	stx	$15                     ; 0x2015 <dispatchAction+0x3b9>
    14db: a5 e1        	lda	$e1                     ; 0x20e1 <dispatchAction+0x485>
    14dd: a6 e2        	ldx	$e2                     ; 0x20e2 <dispatchAction+0x486>
    14df: 85 12        	sta	$12                     ; 0x2012 <dispatchAction+0x3b6>
    14e1: 86 13        	stx	$13                     ; 0x2013 <dispatchAction+0x3b7>
    14e3: 18           	clc
    14e4: a0 04        	ldy	#$4
    14e6: 69 04        	adc	#$4
    14e8: 85 16        	sta	$16                     ; 0x2016 <dispatchAction+0x3ba>
    14ea: 8a           	txa
    14eb: 69 00        	adc	#$0
    14ed: 85 17        	sta	$17                     ; 0x2017 <dispatchAction+0x3bb>
    14ef: a5 14        	lda	$14                     ; 0x2014 <dispatchAction+0x3b8>
    14f1: 91 12        	sta	($12),y                 ; 0x2012 <dispatchAction+0x3b6>
    14f3: a0 01        	ldy	#$1
    14f5: a5 15        	lda	$15                     ; 0x2015 <dispatchAction+0x3b9>
    14f7: 91 16        	sta	($16),y                 ; 0x2016 <dispatchAction+0x3ba>
    14f9: 84 16        	sty	$16                     ; 0x2016 <dispatchAction+0x3ba>
    14fb: a0 03        	ldy	#$3
    14fd: a9 01        	lda	#$1
    14ff: 91 12        	sta	($12),y                 ; 0x2012 <dispatchAction+0x3b6>
    1501: a9 0f        	lda	#$f
    1503: 92 14        	sta	($14)                   ; 0x2014 <dispatchAction+0x3b8>
    1505: a9 8b        	lda	#$8b
    1507: a4 16        	ldy	$16                     ; 0x2016 <dispatchAction+0x3ba>
    1509: 91 14        	sta	($14),y                 ; 0x2014 <dispatchAction+0x3b8>
    150b: a9 02        	lda	#$2
    150d: a8           	tay
    150e: 91 14        	sta	($14),y                 ; 0x2014 <dispatchAction+0x3b8>
    1510: a9 19        	lda	#$19
    1512: c8           	iny
    1513: 91 14        	sta	($14),y                 ; 0x2014 <dispatchAction+0x3b8>
    1515: a9 23        	lda	#$23
    1517: c8           	iny
    1518: 91 14        	sta	($14),y                 ; 0x2014 <dispatchAction+0x3b8>
    151a: c8           	iny
    151b: a9 20        	lda	#$20
    151d: 91 14        	sta	($14),y                 ; 0x2014 <dispatchAction+0x3b8>
    151f: c8           	iny
    1520: a9 34        	lda	#$34
    1522: 91 14        	sta	($14),y                 ; 0x2014 <dispatchAction+0x3b8>
    1524: c8           	iny
    1525: a9 01        	lda	#$1
    1527: 91 14        	sta	($14),y                 ; 0x2014 <dispatchAction+0x3b8>
    1529: c8           	iny
    152a: a9 20        	lda	#$20
    152c: 91 14        	sta	($14),y                 ; 0x2014 <dispatchAction+0x3b8>
    152e: c8           	iny
    152f: a9 55        	lda	#$55
    1531: 91 14        	sta	($14),y                 ; 0x2014 <dispatchAction+0x3b8>
    1533: c8           	iny
    1534: a9 01        	lda	#$1
    1536: 91 14        	sta	($14),y                 ; 0x2014 <dispatchAction+0x3b8>
    1538: 18           	clc
    1539: a5 10        	lda	$10                     ; 0x2010 <dispatchAction+0x3b4>
    153b: 69 03        	adc	#$3
    153d: 85 24        	sta	$24                     ; 0x2024 <dispatchAction+0x3c8>
    153f: a5 11        	lda	$11                     ; 0x2011 <dispatchAction+0x3b5>
    1541: 69 00        	adc	#$0
    1543: 85 25        	sta	$25                     ; 0x2025 <dispatchAction+0x3c9>
    1545: a6 24        	ldx	$24                     ; 0x2024 <dispatchAction+0x3c8>
    1547: 86 12        	stx	$12                     ; 0x2012 <dispatchAction+0x3b6>
    1549: 85 13        	sta	$13                     ; 0x2013 <dispatchAction+0x3b7>
    154b: a2 00        	ldx	#$0
    154d: a9 0b        	lda	#$b
    154f: 20 f0 65     	jsr	$65f0 <memcpy>
    1552: a6 24        	ldx	$24                     ; 0x2024 <dispatchAction+0x3c8>
    1554: 86 12        	stx	$12                     ; 0x2012 <dispatchAction+0x3b6>
    1556: a6 25        	ldx	$25                     ; 0x2025 <dispatchAction+0x3c9>
    1558: 86 13        	stx	$13                     ; 0x2013 <dispatchAction+0x3b7>
    155a: 20 11 51     	jsr	$5111 <sid_set_all>
    155d: a2 56        	ldx	#$56
    155f: 86 24        	stx	$24                     ; 0x2024 <dispatchAction+0x3c8>
    1561: a2 6d        	ldx	#$6d
    1563: 86 25        	stx	$25                     ; 0x2025 <dispatchAction+0x3c9>
    1565: a9 2c        	lda	#$2c
    1567: a2 01        	ldx	#$1
    1569: 86 19        	stx	$19                     ; 0x2019 <dispatchAction+0x3bd>
    156b: c6 19        	dec	$19                     ; 0x2019 <dispatchAction+0x3bd>
    156d: da           	phx
    156e: 7a           	ply
    156f: 48           	pha
    1570: bd 62 6c     	lda	$6c62,x                 ; 0x6c62 <sidSpriteAction>
    1573: aa           	tax
    1574: 68           	pla
    1575: 84 28        	sty	$28                     ; 0x2028 <dispatchAction+0x3cc>
    1577: a0 01        	ldy	#$1
    1579: 85 13        	sta	$13                     ; 0x2013 <dispatchAction+0x3b7>
    157b: a5 24        	lda	$24                     ; 0x2024 <dispatchAction+0x3c8>
    157d: 92 10        	sta	($10)                   ; 0x2010 <dispatchAction+0x3b4>
    157f: a5 25        	lda	$25                     ; 0x2025 <dispatchAction+0x3c9>
    1581: 91 10        	sta	($10),y                 ; 0x2010 <dispatchAction+0x3b4>
    1583: 98           	tya
    1584: 64 12        	stz	$12                     ; 0x2012 <dispatchAction+0x3b6>
    1586: a4 13        	ldy	$13                     ; 0x2013 <dispatchAction+0x3b7>
    1588: 84 27        	sty	$27                     ; 0x2027 <dispatchAction+0x3cb>
    158a: 64 14        	stz	$14                     ; 0x2014 <dispatchAction+0x3b8>
    158c: 64 15        	stz	$15                     ; 0x2015 <dispatchAction+0x3b9>
    158e: a0 38        	ldy	#$38
    1590: 84 16        	sty	$16                     ; 0x2016 <dispatchAction+0x3ba>
    1592: 85 17        	sta	$17                     ; 0x2017 <dispatchAction+0x3bb>
    1594: 64 18        	stz	$18                     ; 0x2018 <dispatchAction+0x3bc>
    1596: a0 10        	ldy	#$10
    1598: 84 1a        	sty	$1a                     ; 0x201a <dispatchAction+0x3be>
    159a: 64 1b        	stz	$1b                     ; 0x201b <dispatchAction+0x3bf>
    159c: a0 0d        	ldy	#$d
    159e: 84 1c        	sty	$1c                     ; 0x201c <dispatchAction+0x3c0>
    15a0: a0 04        	ldy	#$4
    15a2: 84 1d        	sty	$1d                     ; 0x201d <dispatchAction+0x3c1>
    15a4: a0 0b        	ldy	#$b
    15a6: 84 1e        	sty	$1e                     ; 0x201e <dispatchAction+0x3c2>
    15a8: 86 1f        	stx	$1f                     ; 0x201f <dispatchAction+0x3c3>
    15aa: a2 28        	ldx	#$28
    15ac: a5 28        	lda	$28                     ; 0x2028 <dispatchAction+0x3cc>
    15ae: 20 2d 3a     	jsr	$3a2d <setGeneric>
    15b1: a2 01        	ldx	#$1
    15b3: a4 28        	ldy	$28                     ; 0x2028 <dispatchAction+0x3cc>
    15b5: c0 02        	cpy	#$2
    15b7: f0 02        	beq	$15bb <setup+0x13e>
    15b9: a2 00        	ldx	#$0
    15bb: a4 24        	ldy	$24                     ; 0x2024 <dispatchAction+0x3c8>
    15bd: 84 12        	sty	$12                     ; 0x2012 <dispatchAction+0x3b6>
    15bf: a4 25        	ldy	$25                     ; 0x2025 <dispatchAction+0x3c9>
    15c1: 84 13        	sty	$13                     ; 0x2013 <dispatchAction+0x3b7>
    15c3: 86 14        	stx	$14                     ; 0x2014 <dispatchAction+0x3b8>
    15c5: 64 26        	stz	$26                     ; 0x2026 <dispatchAction+0x3ca>
    15c7: a2 00        	ldx	#$0
    15c9: a9 01        	lda	#$1
    15cb: 20 87 3b     	jsr	$3b87 <setRadioB>
    15ce: a6 28        	ldx	$28                     ; 0x2028 <dispatchAction+0x3cc>
    15d0: e8           	inx
    15d1: a5 24        	lda	$24                     ; 0x2024 <dispatchAction+0x3c8>
    15d3: 18           	clc
    15d4: 69 15        	adc	#$15
    15d6: 85 24        	sta	$24                     ; 0x2024 <dispatchAction+0x3c8>
    15d8: a5 25        	lda	$25                     ; 0x2025 <dispatchAction+0x3c9>
    15da: 69 00        	adc	#$0
    15dc: 85 25        	sta	$25                     ; 0x2025 <dispatchAction+0x3c9>
    15de: 18           	clc
    15df: a5 27        	lda	$27                     ; 0x2027 <dispatchAction+0x3cb>
    15e1: 69 10        	adc	#$10
    15e3: e0 05        	cpx	#$5
    15e5: f0 03        	beq	$15ea <setup+0x16d>
    15e7: 4c 69 15     	jmp	$1569 <setup+0xec>
    15ea: 20 e9 26     	jsr	$26e9 <loadGUISID>
    15ed: a2 ff        	ldx	#$ff
    15ef: 8e d5 72     	stx	$72d5                   ; 0x72d5 <diaAct>
    15f2: 9c da 72     	stz	$72da                   ; 0x72da <diaAct+0x5>
    15f5: 9c db 72     	stz	$72db                   ; 0x72db <diaAct+0x6>
    15f8: 9c dc 72     	stz	$72dc                   ; 0x72dc <diaAct+0x7>
    15fb: 8e dd 72     	stx	$72dd                   ; 0x72dd <sliAct>
    15fe: 9c e2 72     	stz	$72e2                   ; 0x72e2 <sliAct+0x5>
    1601: 9c e3 72     	stz	$72e3                   ; 0x72e3 <sliAct+0x6>
    1604: 9c e4 72     	stz	$72e4                   ; 0x72e4 <sliAct+0x7>
    1607: 64 95        	stz	$95                     ; 0x2095 <dispatchAction+0x439>
    1609: a2 01        	ldx	#$1
    160b: 86 97        	stx	$97                     ; 0x2097 <dispatchAction+0x43b>
    160d: a0 02        	ldy	#$2
    160f: b1 10        	lda	($10),y                 ; 0x2010 <dispatchAction+0x3b4>
    1611: 85 28        	sta	$28                     ; 0x2028 <dispatchAction+0x3cc>
    1613: fa           	plx
    1614: 86 27        	stx	$27                     ; 0x2027 <dispatchAction+0x3cb>
    1616: fa           	plx
    1617: 86 26        	stx	$26                     ; 0x2026 <dispatchAction+0x3ca>
    1619: fa           	plx
    161a: 86 25        	stx	$25                     ; 0x2025 <dispatchAction+0x3c9>
    161c: fa           	plx
    161d: 86 24        	stx	$24                     ; 0x2024 <dispatchAction+0x3c8>
    161f: 18           	clc
    1620: a5 10        	lda	$10                     ; 0x2010 <dispatchAction+0x3b4>
    1622: 69 0e        	adc	#$e
    1624: 85 10        	sta	$10                     ; 0x2010 <dispatchAction+0x3b4>
    1626: a5 11        	lda	$11                     ; 0x2011 <dispatchAction+0x3b5>
    1628: 69 00        	adc	#$0
    162a: 85 11        	sta	$11                     ; 0x2011 <dispatchAction+0x3b5>
    162c: 60           	rts

0000162d <updateChip>:
    162d: a0 12        	ldy	#$12
    162f: a9 e4        	lda	#$e4
    1631: 18           	clc
    1632: 71 12        	adc	($12),y                 ; 0x2012 <dispatchAction+0x3b6>
    1634: c9 17        	cmp	#$17
    1636: 90 03        	bcc	$163b <updateChip+0xe>
    1638: 4c 47 17     	jmp	$1747 <updateChip+0x11a>
    163b: 0a           	asl
    163c: aa           	tax
    163d: 7c 0e 69     	jmp	($690e,x)               ; 0x690e <__set_v+0x1>
    1640: a5 e1        	lda	$e1                     ; 0x20e1 <dispatchAction+0x485>
    1642: a6 e2        	ldx	$e2                     ; 0x20e2 <dispatchAction+0x486>
    1644: 85 14        	sta	$14                     ; 0x2014 <dispatchAction+0x3b8>
    1646: 86 15        	stx	$15                     ; 0x2015 <dispatchAction+0x3b9>
    1648: a0 04        	ldy	#$4
    164a: 18           	clc
    164b: 69 04        	adc	#$4
    164d: 85 16        	sta	$16                     ; 0x2016 <dispatchAction+0x3ba>
    164f: 8a           	txa
    1650: 69 00        	adc	#$0
    1652: 85 17        	sta	$17                     ; 0x2017 <dispatchAction+0x3bb>
    1654: b1 14        	lda	($14),y                 ; 0x2014 <dispatchAction+0x3b8>
    1656: 85 14        	sta	$14                     ; 0x2014 <dispatchAction+0x3b8>
    1658: a0 01        	ldy	#$1
    165a: b1 16        	lda	($16),y                 ; 0x2016 <dispatchAction+0x3ba>
    165c: 85 15        	sta	$15                     ; 0x2015 <dispatchAction+0x3b9>
    165e: a0 03        	ldy	#$3
    1660: a9 0f        	lda	#$f
    1662: 31 14        	and	($14),y                 ; 0x2014 <dispatchAction+0x3b8>
    1664: 85 16        	sta	$16                     ; 0x2016 <dispatchAction+0x3ba>
    1666: a0 27        	ldy	#$27
    1668: b1 12        	lda	($12),y                 ; 0x2012 <dispatchAction+0x3b6>
    166a: 0a           	asl
    166b: 0a           	asl
    166c: 0a           	asl
    166d: 0a           	asl
    166e: 05 16        	ora	$16                     ; 0x2016 <dispatchAction+0x3ba>
    1670: 4c ce 16     	jmp	$16ce <updateChip+0xa1>
    1673: a5 e1        	lda	$e1                     ; 0x20e1 <dispatchAction+0x485>
    1675: a6 e2        	ldx	$e2                     ; 0x20e2 <dispatchAction+0x486>
    1677: 85 14        	sta	$14                     ; 0x2014 <dispatchAction+0x3b8>
    1679: 86 15        	stx	$15                     ; 0x2015 <dispatchAction+0x3b9>
    167b: a0 04        	ldy	#$4
    167d: 18           	clc
    167e: 69 04        	adc	#$4
    1680: 85 16        	sta	$16                     ; 0x2016 <dispatchAction+0x3ba>
    1682: 8a           	txa
    1683: 69 00        	adc	#$0
    1685: 85 17        	sta	$17                     ; 0x2017 <dispatchAction+0x3bb>
    1687: b1 14        	lda	($14),y                 ; 0x2014 <dispatchAction+0x3b8>
    1689: 85 14        	sta	$14                     ; 0x2014 <dispatchAction+0x3b8>
    168b: a0 01        	ldy	#$1
    168d: b1 16        	lda	($16),y                 ; 0x2016 <dispatchAction+0x3ba>
    168f: 85 15        	sta	$15                     ; 0x2015 <dispatchAction+0x3b9>
    1691: a9 0f        	lda	#$f
    1693: a0 04        	ldy	#$4
    1695: 31 14        	and	($14),y                 ; 0x2014 <dispatchAction+0x3b8>
    1697: 85 16        	sta	$16                     ; 0x2016 <dispatchAction+0x3ba>
    1699: a0 27        	ldy	#$27
    169b: b1 12        	lda	($12),y                 ; 0x2012 <dispatchAction+0x3b6>
    169d: 0a           	asl
    169e: 0a           	asl
    169f: 0a           	asl
    16a0: 0a           	asl
    16a1: 05 16        	ora	$16                     ; 0x2016 <dispatchAction+0x3ba>
    16a3: 4c 05 17     	jmp	$1705 <updateChip+0xd8>
    16a6: a5 e1        	lda	$e1                     ; 0x20e1 <dispatchAction+0x485>
    16a8: a6 e2        	ldx	$e2                     ; 0x20e2 <dispatchAction+0x486>
    16aa: 85 14        	sta	$14                     ; 0x2014 <dispatchAction+0x3b8>
    16ac: 86 15        	stx	$15                     ; 0x2015 <dispatchAction+0x3b9>
    16ae: a0 04        	ldy	#$4
    16b0: 18           	clc
    16b1: 69 04        	adc	#$4
    16b3: 85 16        	sta	$16                     ; 0x2016 <dispatchAction+0x3ba>
    16b5: 8a           	txa
    16b6: 69 00        	adc	#$0
    16b8: 85 17        	sta	$17                     ; 0x2017 <dispatchAction+0x3bb>
    16ba: b1 14        	lda	($14),y                 ; 0x2014 <dispatchAction+0x3b8>
    16bc: 85 14        	sta	$14                     ; 0x2014 <dispatchAction+0x3b8>
    16be: a0 01        	ldy	#$1
    16c0: b1 16        	lda	($16),y                 ; 0x2016 <dispatchAction+0x3ba>
    16c2: 85 15        	sta	$15                     ; 0x2015 <dispatchAction+0x3b9>
    16c4: a0 03        	ldy	#$3
    16c6: a9 f0        	lda	#$f0
    16c8: 31 14        	and	($14),y                 ; 0x2014 <dispatchAction+0x3b8>
    16ca: a0 27        	ldy	#$27
    16cc: 11 12        	ora	($12),y                 ; 0x2012 <dispatchAction+0x3b6>
    16ce: a0 03        	ldy	#$3
    16d0: 91 14        	sta	($14),y                 ; 0x2014 <dispatchAction+0x3b8>
    16d2: 85 12        	sta	$12                     ; 0x2012 <dispatchAction+0x3b6>
    16d4: c8           	iny
    16d5: b1 14        	lda	($14),y                 ; 0x2014 <dispatchAction+0x3b8>
    16d7: aa           	tax
    16d8: a5 12        	lda	$12                     ; 0x2012 <dispatchAction+0x3b6>
    16da: 4c ec 50     	jmp	$50ec <sid_adsr>
    16dd: a5 e1        	lda	$e1                     ; 0x20e1 <dispatchAction+0x485>
    16df: a6 e2        	ldx	$e2                     ; 0x20e2 <dispatchAction+0x486>
    16e1: 85 14        	sta	$14                     ; 0x2014 <dispatchAction+0x3b8>
    16e3: 86 15        	stx	$15                     ; 0x2015 <dispatchAction+0x3b9>
    16e5: a0 04        	ldy	#$4
    16e7: 18           	clc
    16e8: 69 04        	adc	#$4
    16ea: 85 16        	sta	$16                     ; 0x2016 <dispatchAction+0x3ba>
    16ec: 8a           	txa
    16ed: 69 00        	adc	#$0
    16ef: 85 17        	sta	$17                     ; 0x2017 <dispatchAction+0x3bb>
    16f1: b1 14        	lda	($14),y                 ; 0x2014 <dispatchAction+0x3b8>
    16f3: 85 14        	sta	$14                     ; 0x2014 <dispatchAction+0x3b8>
    16f5: a0 01        	ldy	#$1
    16f7: b1 16        	lda	($16),y                 ; 0x2016 <dispatchAction+0x3ba>
    16f9: 85 15        	sta	$15                     ; 0x2015 <dispatchAction+0x3b9>
    16fb: a9 f0        	lda	#$f0
    16fd: a0 04        	ldy	#$4
    16ff: 31 14        	and	($14),y                 ; 0x2014 <dispatchAction+0x3b8>
    1701: a0 27        	ldy	#$27
    1703: 11 12        	ora	($12),y                 ; 0x2012 <dispatchAction+0x3b6>
    1705: a0 04        	ldy	#$4
    1707: 91 14        	sta	($14),y                 ; 0x2014 <dispatchAction+0x3b8>
    1709: aa           	tax
    170a: 88           	dey
    170b: b1 14        	lda	($14),y                 ; 0x2014 <dispatchAction+0x3b8>
    170d: 4c ec 50     	jmp	$50ec <sid_adsr>
    1710: a5 e1        	lda	$e1                     ; 0x20e1 <dispatchAction+0x485>
    1712: a6 e2        	ldx	$e2                     ; 0x20e2 <dispatchAction+0x486>
    1714: 85 14        	sta	$14                     ; 0x2014 <dispatchAction+0x3b8>
    1716: 86 15        	stx	$15                     ; 0x2015 <dispatchAction+0x3b9>
    1718: a0 04        	ldy	#$4
    171a: 18           	clc
    171b: 69 04        	adc	#$4
    171d: 85 16        	sta	$16                     ; 0x2016 <dispatchAction+0x3ba>
    171f: 8a           	txa
    1720: 69 00        	adc	#$0
    1722: 85 17        	sta	$17                     ; 0x2017 <dispatchAction+0x3bb>
    1724: b1 14        	lda	($14),y                 ; 0x2014 <dispatchAction+0x3b8>
    1726: 85 14        	sta	$14                     ; 0x2014 <dispatchAction+0x3b8>
    1728: a0 01        	ldy	#$1
    172a: b1 16        	lda	($16),y                 ; 0x2016 <dispatchAction+0x3ba>
    172c: 85 15        	sta	$15                     ; 0x2015 <dispatchAction+0x3b9>
    172e: a0 08        	ldy	#$8
    1730: a9 0f        	lda	#$f
    1732: 31 14        	and	($14),y                 ; 0x2014 <dispatchAction+0x3b8>
    1734: 85 16        	sta	$16                     ; 0x2016 <dispatchAction+0x3ba>
    1736: a0 27        	ldy	#$27
    1738: b1 12        	lda	($12),y                 ; 0x2012 <dispatchAction+0x3b6>
    173a: 0a           	asl
    173b: 0a           	asl
    173c: 0a           	asl
    173d: 0a           	asl
    173e: 05 16        	ora	$16                     ; 0x2016 <dispatchAction+0x3ba>
    1740: a0 08        	ldy	#$8
    1742: 91 14        	sta	($14),y                 ; 0x2014 <dispatchAction+0x3b8>
    1744: 20 e5 50     	jsr	$50e5 <sid_setFILT>
    1747: 60           	rts

00001748 <updateChipDial>:
    1748: a0 12        	ldy	#$12
    174a: a9 dc        	lda	#$dc
    174c: 18           	clc
    174d: 71 12        	adc	($12),y                 ; 0x2012 <dispatchAction+0x3b6>
    174f: c9 11        	cmp	#$11
    1751: 90 03        	bcc	$1756 <updateChipDial+0xe>
    1753: 4c 21 19     	jmp	$1921 <updateChipDial+0x1d9>
    1756: 0a           	asl
    1757: aa           	tax
    1758: 7c 3c 69     	jmp	($693c,x)               ; 0x693c <__set_v+0x2f>
    175b: a0 3f        	ldy	#$3f
    175d: b1 12        	lda	($12),y                 ; 0x2012 <dispatchAction+0x3b6>
    175f: 85 16        	sta	$16                     ; 0x2016 <dispatchAction+0x3ba>
    1761: 85 17        	sta	$17                     ; 0x2017 <dispatchAction+0x3bb>
    1763: 46 16        	lsr	$16                     ; 0x2016 <dispatchAction+0x3ba>
    1765: 46 16        	lsr	$16                     ; 0x2016 <dispatchAction+0x3ba>
    1767: a5 e1        	lda	$e1                     ; 0x20e1 <dispatchAction+0x485>
    1769: a4 e2        	ldy	$e2                     ; 0x20e2 <dispatchAction+0x486>
    176b: 85 12        	sta	$12                     ; 0x2012 <dispatchAction+0x3b6>
    176d: 84 13        	sty	$13                     ; 0x2013 <dispatchAction+0x3b7>
    176f: 18           	clc
    1770: 69 04        	adc	#$4
    1772: 85 14        	sta	$14                     ; 0x2014 <dispatchAction+0x3b8>
    1774: 98           	tya
    1775: 69 00        	adc	#$0
    1777: 46 16        	lsr	$16                     ; 0x2016 <dispatchAction+0x3ba>
    1779: 85 15        	sta	$15                     ; 0x2015 <dispatchAction+0x3b9>
    177b: a0 04        	ldy	#$4
    177d: b1 12        	lda	($12),y                 ; 0x2012 <dispatchAction+0x3b6>
    177f: 85 12        	sta	$12                     ; 0x2012 <dispatchAction+0x3b6>
    1781: a0 01        	ldy	#$1
    1783: b1 14        	lda	($14),y                 ; 0x2014 <dispatchAction+0x3b8>
    1785: 85 13        	sta	$13                     ; 0x2013 <dispatchAction+0x3b7>
    1787: a5 16        	lda	$16                     ; 0x2016 <dispatchAction+0x3ba>
    1789: 4a           	lsr
    178a: c8           	iny
    178b: 91 12        	sta	($12),y                 ; 0x2012 <dispatchAction+0x3b6>
    178d: aa           	tax
    178e: a5 17        	lda	$17                     ; 0x2017 <dispatchAction+0x3bb>
    1790: 0a           	asl
    1791: 0a           	asl
    1792: 0a           	asl
    1793: 0a           	asl
    1794: 85 14        	sta	$14                     ; 0x2014 <dispatchAction+0x3b8>
    1796: a9 0f        	lda	#$f
    1798: 88           	dey
    1799: 31 12        	and	($12),y                 ; 0x2012 <dispatchAction+0x3b6>
    179b: 05 14        	ora	$14                     ; 0x2014 <dispatchAction+0x3b8>
    179d: 91 12        	sta	($12),y                 ; 0x2012 <dispatchAction+0x3b6>
    179f: 4c 94 50     	jmp	$5094 <sid_setPWM>
    17a2: a0 3f        	ldy	#$3f
    17a4: b1 12        	lda	($12),y                 ; 0x2012 <dispatchAction+0x3b6>
    17a6: 85 16        	sta	$16                     ; 0x2016 <dispatchAction+0x3ba>
    17a8: 85 12        	sta	$12                     ; 0x2012 <dispatchAction+0x3b6>
    17aa: 46 12        	lsr	$12                     ; 0x2012 <dispatchAction+0x3b6>
    17ac: 46 12        	lsr	$12                     ; 0x2012 <dispatchAction+0x3b6>
    17ae: a6 12        	ldx	$12                     ; 0x2012 <dispatchAction+0x3b6>
    17b0: 86 15        	stx	$15                     ; 0x2015 <dispatchAction+0x3b9>
    17b2: 46 15        	lsr	$15                     ; 0x2015 <dispatchAction+0x3b9>
    17b4: a5 e1        	lda	$e1                     ; 0x20e1 <dispatchAction+0x485>
    17b6: a4 e2        	ldy	$e2                     ; 0x20e2 <dispatchAction+0x486>
    17b8: 85 12        	sta	$12                     ; 0x2012 <dispatchAction+0x3b6>
    17ba: 84 13        	sty	$13                     ; 0x2013 <dispatchAction+0x3b7>
    17bc: 18           	clc
    17bd: 69 04        	adc	#$4
    17bf: 85 14        	sta	$14                     ; 0x2014 <dispatchAction+0x3b8>
    17c1: 98           	tya
    17c2: 69 00        	adc	#$0
    17c4: 46 15        	lsr	$15                     ; 0x2015 <dispatchAction+0x3b9>
    17c6: a6 15        	ldx	$15                     ; 0x2015 <dispatchAction+0x3b9>
    17c8: 85 15        	sta	$15                     ; 0x2015 <dispatchAction+0x3b9>
    17ca: a0 04        	ldy	#$4
    17cc: b1 12        	lda	($12),y                 ; 0x2012 <dispatchAction+0x3b6>
    17ce: 85 12        	sta	$12                     ; 0x2012 <dispatchAction+0x3b6>
    17d0: a0 01        	ldy	#$1
    17d2: b1 14        	lda	($14),y                 ; 0x2014 <dispatchAction+0x3b8>
    17d4: 85 13        	sta	$13                     ; 0x2013 <dispatchAction+0x3b7>
    17d6: a0 07        	ldy	#$7
    17d8: 8a           	txa
    17d9: 91 12        	sta	($12),y                 ; 0x2012 <dispatchAction+0x3b6>
    17db: 88           	dey
    17dc: a5 16        	lda	$16                     ; 0x2016 <dispatchAction+0x3ba>
    17de: 0a           	asl
    17df: 0a           	asl
    17e0: 0a           	asl
    17e1: 0a           	asl
    17e2: 85 14        	sta	$14                     ; 0x2014 <dispatchAction+0x3b8>
    17e4: a9 0f        	lda	#$f
    17e6: 31 12        	and	($12),y                 ; 0x2012 <dispatchAction+0x3b6>
    17e8: 05 14        	ora	$14                     ; 0x2014 <dispatchAction+0x3b8>
    17ea: 91 12        	sta	($12),y                 ; 0x2012 <dispatchAction+0x3b6>
    17ec: 4c b9 50     	jmp	$50b9 <sid_setFF>
    17ef: a0 3f        	ldy	#$3f
    17f1: b1 12        	lda	($12),y                 ; 0x2012 <dispatchAction+0x3b6>
    17f3: 85 18        	sta	$18                     ; 0x2018 <dispatchAction+0x3bc>
    17f5: a5 e1        	lda	$e1                     ; 0x20e1 <dispatchAction+0x485>
    17f7: a6 e2        	ldx	$e2                     ; 0x20e2 <dispatchAction+0x486>
    17f9: 85 12        	sta	$12                     ; 0x2012 <dispatchAction+0x3b6>
    17fb: 86 13        	stx	$13                     ; 0x2013 <dispatchAction+0x3b7>
    17fd: 18           	clc
    17fe: 69 04        	adc	#$4
    1800: 85 16        	sta	$16                     ; 0x2016 <dispatchAction+0x3ba>
    1802: 8a           	txa
    1803: 69 00        	adc	#$0
    1805: a0 04        	ldy	#$4
    1807: 85 17        	sta	$17                     ; 0x2017 <dispatchAction+0x3bb>
    1809: b1 12        	lda	($12),y                 ; 0x2012 <dispatchAction+0x3b6>
    180b: a0 01        	ldy	#$1
    180d: 85 14        	sta	$14                     ; 0x2014 <dispatchAction+0x3b8>
    180f: b1 16        	lda	($16),y                 ; 0x2016 <dispatchAction+0x3ba>
    1811: 85 15        	sta	$15                     ; 0x2015 <dispatchAction+0x3b9>
    1813: a0 09        	ldy	#$9
    1815: 4c b0 18     	jmp	$18b0 <updateChipDial+0x168>
    1818: a5 e1        	lda	$e1                     ; 0x20e1 <dispatchAction+0x485>
    181a: a6 e2        	ldx	$e2                     ; 0x20e2 <dispatchAction+0x486>
    181c: 85 14        	sta	$14                     ; 0x2014 <dispatchAction+0x3b8>
    181e: 86 15        	stx	$15                     ; 0x2015 <dispatchAction+0x3b9>
    1820: a0 04        	ldy	#$4
    1822: 18           	clc
    1823: 69 04        	adc	#$4
    1825: 85 16        	sta	$16                     ; 0x2016 <dispatchAction+0x3ba>
    1827: 8a           	txa
    1828: 69 00        	adc	#$0
    182a: 85 17        	sta	$17                     ; 0x2017 <dispatchAction+0x3bb>
    182c: b1 14        	lda	($14),y                 ; 0x2014 <dispatchAction+0x3b8>
    182e: 85 14        	sta	$14                     ; 0x2014 <dispatchAction+0x3b8>
    1830: a0 01        	ldy	#$1
    1832: b1 16        	lda	($16),y                 ; 0x2016 <dispatchAction+0x3ba>
    1834: 85 15        	sta	$15                     ; 0x2015 <dispatchAction+0x3b9>
    1836: a9 f0        	lda	#$f0
    1838: 31 14        	and	($14),y                 ; 0x2014 <dispatchAction+0x3b8>
    183a: 85 16        	sta	$16                     ; 0x2016 <dispatchAction+0x3ba>
    183c: a9 0f        	lda	#$f
    183e: a0 3f        	ldy	#$3f
    1840: 31 12        	and	($12),y                 ; 0x2012 <dispatchAction+0x3b6>
    1842: 05 16        	ora	$16                     ; 0x2016 <dispatchAction+0x3ba>
    1844: a0 01        	ldy	#$1
    1846: 91 14        	sta	($14),y                 ; 0x2014 <dispatchAction+0x3b8>
    1848: 85 12        	sta	$12                     ; 0x2012 <dispatchAction+0x3b6>
    184a: c8           	iny
    184b: b1 14        	lda	($14),y                 ; 0x2014 <dispatchAction+0x3b8>
    184d: aa           	tax
    184e: a5 12        	lda	$12                     ; 0x2012 <dispatchAction+0x3b6>
    1850: 4c 94 50     	jmp	$5094 <sid_setPWM>
    1853: a5 e1        	lda	$e1                     ; 0x20e1 <dispatchAction+0x485>
    1855: a6 e2        	ldx	$e2                     ; 0x20e2 <dispatchAction+0x486>
    1857: 85 14        	sta	$14                     ; 0x2014 <dispatchAction+0x3b8>
    1859: 86 15        	stx	$15                     ; 0x2015 <dispatchAction+0x3b9>
    185b: a0 04        	ldy	#$4
    185d: 18           	clc
    185e: 69 04        	adc	#$4
    1860: 85 16        	sta	$16                     ; 0x2016 <dispatchAction+0x3ba>
    1862: 8a           	txa
    1863: 69 00        	adc	#$0
    1865: 85 17        	sta	$17                     ; 0x2017 <dispatchAction+0x3bb>
    1867: b1 14        	lda	($14),y                 ; 0x2014 <dispatchAction+0x3b8>
    1869: 85 14        	sta	$14                     ; 0x2014 <dispatchAction+0x3b8>
    186b: a0 01        	ldy	#$1
    186d: b1 16        	lda	($16),y                 ; 0x2016 <dispatchAction+0x3ba>
    186f: 85 15        	sta	$15                     ; 0x2015 <dispatchAction+0x3b9>
    1871: a0 06        	ldy	#$6
    1873: a9 f0        	lda	#$f0
    1875: 31 14        	and	($14),y                 ; 0x2014 <dispatchAction+0x3b8>
    1877: a0 3f        	ldy	#$3f
    1879: 11 12        	ora	($12),y                 ; 0x2012 <dispatchAction+0x3b6>
    187b: a0 06        	ldy	#$6
    187d: 91 14        	sta	($14),y                 ; 0x2014 <dispatchAction+0x3b8>
    187f: 85 12        	sta	$12                     ; 0x2012 <dispatchAction+0x3b6>
    1881: c8           	iny
    1882: b1 14        	lda	($14),y                 ; 0x2014 <dispatchAction+0x3b8>
    1884: aa           	tax
    1885: a5 12        	lda	$12                     ; 0x2012 <dispatchAction+0x3b6>
    1887: 4c b9 50     	jmp	$50b9 <sid_setFF>
    188a: a0 3f        	ldy	#$3f
    188c: b1 12        	lda	($12),y                 ; 0x2012 <dispatchAction+0x3b6>
    188e: 85 18        	sta	$18                     ; 0x2018 <dispatchAction+0x3bc>
    1890: a5 e1        	lda	$e1                     ; 0x20e1 <dispatchAction+0x485>
    1892: a6 e2        	ldx	$e2                     ; 0x20e2 <dispatchAction+0x486>
    1894: 85 12        	sta	$12                     ; 0x2012 <dispatchAction+0x3b6>
    1896: 86 13        	stx	$13                     ; 0x2013 <dispatchAction+0x3b7>
    1898: 18           	clc
    1899: 69 04        	adc	#$4
    189b: 85 16        	sta	$16                     ; 0x2016 <dispatchAction+0x3ba>
    189d: 8a           	txa
    189e: 69 00        	adc	#$0
    18a0: a0 04        	ldy	#$4
    18a2: 85 17        	sta	$17                     ; 0x2017 <dispatchAction+0x3bb>
    18a4: b1 12        	lda	($12),y                 ; 0x2012 <dispatchAction+0x3b6>
    18a6: a0 01        	ldy	#$1
    18a8: 85 14        	sta	$14                     ; 0x2014 <dispatchAction+0x3b8>
    18aa: b1 16        	lda	($16),y                 ; 0x2016 <dispatchAction+0x3ba>
    18ac: 85 15        	sta	$15                     ; 0x2015 <dispatchAction+0x3b9>
    18ae: a0 0a        	ldy	#$a
    18b0: a5 18        	lda	$18                     ; 0x2018 <dispatchAction+0x3bc>
    18b2: 91 14        	sta	($14),y                 ; 0x2014 <dispatchAction+0x3b8>
    18b4: a2 eb        	ldx	#$eb
    18b6: a0 72        	ldy	#$72
    18b8: 86 12        	stx	$12                     ; 0x2012 <dispatchAction+0x3b6>
    18ba: 84 13        	sty	$13                     ; 0x2013 <dispatchAction+0x3b7>
    18bc: 86 16        	stx	$16                     ; 0x2016 <dispatchAction+0x3ba>
    18be: 84 17        	sty	$17                     ; 0x2017 <dispatchAction+0x3bb>
    18c0: 86 18        	stx	$18                     ; 0x2018 <dispatchAction+0x3bc>
    18c2: 84 19        	sty	$19                     ; 0x2019 <dispatchAction+0x3bd>
    18c4: 86 e3        	stx	$e3                     ; 0x20e3 <dispatchAction+0x487>
    18c6: a6 19        	ldx	$19                     ; 0x2019 <dispatchAction+0x3bd>
    18c8: 86 e4        	stx	$e4                     ; 0x20e4 <dispatchAction+0x488>
    18ca: a6 16        	ldx	$16                     ; 0x2016 <dispatchAction+0x3ba>
    18cc: 86 e3        	stx	$e3                     ; 0x20e3 <dispatchAction+0x487>
    18ce: a6 17        	ldx	$17                     ; 0x2017 <dispatchAction+0x3bb>
    18d0: 86 e4        	stx	$e4                     ; 0x20e4 <dispatchAction+0x488>
    18d2: a2 00        	ldx	#$0
    18d4: a9 0b        	lda	#$b
    18d6: 20 f0 65     	jsr	$65f0 <memcpy>
    18d9: a6 e3        	ldx	$e3                     ; 0x20e3 <dispatchAction+0x487>
    18db: 86 12        	stx	$12                     ; 0x2012 <dispatchAction+0x3b6>
    18dd: a6 e4        	ldx	$e4                     ; 0x20e4 <dispatchAction+0x488>
    18df: 86 13        	stx	$13                     ; 0x2013 <dispatchAction+0x3b7>
    18e1: a9 00        	lda	#$0
    18e3: 20 e6 51     	jsr	$51e6 <sid_setV3>
    18e6: a5 e1        	lda	$e1                     ; 0x20e1 <dispatchAction+0x485>
    18e8: a6 e2        	ldx	$e2                     ; 0x20e2 <dispatchAction+0x486>
    18ea: 85 12        	sta	$12                     ; 0x2012 <dispatchAction+0x3b6>
    18ec: 86 13        	stx	$13                     ; 0x2013 <dispatchAction+0x3b7>
    18ee: 18           	clc
    18ef: 69 04        	adc	#$4
    18f1: 85 14        	sta	$14                     ; 0x2014 <dispatchAction+0x3b8>
    18f3: 8a           	txa
    18f4: 69 00        	adc	#$0
    18f6: 85 15        	sta	$15                     ; 0x2015 <dispatchAction+0x3b9>
    18f8: a0 04        	ldy	#$4
    18fa: b1 12        	lda	($12),y                 ; 0x2012 <dispatchAction+0x3b6>
    18fc: aa           	tax
    18fd: a0 01        	ldy	#$1
    18ff: b1 14        	lda	($14),y                 ; 0x2014 <dispatchAction+0x3b8>
    1901: 86 14        	stx	$14                     ; 0x2014 <dispatchAction+0x3b8>
    1903: 85 15        	sta	$15                     ; 0x2015 <dispatchAction+0x3b9>
    1905: a6 e3        	ldx	$e3                     ; 0x20e3 <dispatchAction+0x487>
    1907: 86 12        	stx	$12                     ; 0x2012 <dispatchAction+0x3b6>
    1909: a6 e4        	ldx	$e4                     ; 0x20e4 <dispatchAction+0x488>
    190b: 86 13        	stx	$13                     ; 0x2013 <dispatchAction+0x3b7>
    190d: a2 00        	ldx	#$0
    190f: a9 0b        	lda	#$b
    1911: 20 f0 65     	jsr	$65f0 <memcpy>
    1914: a9 01        	lda	#$1
    1916: a6 e3        	ldx	$e3                     ; 0x20e3 <dispatchAction+0x487>
    1918: 86 12        	stx	$12                     ; 0x2012 <dispatchAction+0x3b6>
    191a: a6 e4        	ldx	$e4                     ; 0x20e4 <dispatchAction+0x488>
    191c: 86 13        	stx	$13                     ; 0x2013 <dispatchAction+0x3b7>
    191e: 20 e6 51     	jsr	$51e6 <sid_setV3>
    1921: 60           	rts

00001922 <checkUIClicks>:
    1922: 48           	pha
    1923: 18           	clc
    1924: a5 10        	lda	$10                     ; 0x2010 <dispatchAction+0x3b4>
    1926: 69 fc        	adc	#$fc
    1928: 85 10        	sta	$10                     ; 0x2010 <dispatchAction+0x3b4>
    192a: a5 11        	lda	$11                     ; 0x2011 <dispatchAction+0x3b5>
    192c: 69 ff        	adc	#$ff
    192e: 85 11        	sta	$11                     ; 0x2011 <dispatchAction+0x3b5>
    1930: 68           	pla
    1931: a4 24        	ldy	$24                     ; 0x2024 <dispatchAction+0x3c8>
    1933: 5a           	phy
    1934: a4 25        	ldy	$25                     ; 0x2025 <dispatchAction+0x3c9>
    1936: 5a           	phy
    1937: a4 26        	ldy	$26                     ; 0x2026 <dispatchAction+0x3ca>
    1939: 5a           	phy
    193a: a4 27        	ldy	$27                     ; 0x2027 <dispatchAction+0x3cb>
    193c: 5a           	phy
    193d: 48           	pha
    193e: a5 28        	lda	$28                     ; 0x2028 <dispatchAction+0x3cc>
    1940: a0 02        	ldy	#$2
    1942: 91 10        	sta	($10),y                 ; 0x2010 <dispatchAction+0x3b4>
    1944: a5 29        	lda	$29                     ; 0x2029 <dispatchAction+0x3cd>
    1946: 88           	dey
    1947: 91 10        	sta	($10),y                 ; 0x2010 <dispatchAction+0x3b4>
    1949: a5 2a        	lda	$2a                     ; 0x202a <dispatchAction+0x3ce>
    194b: 88           	dey
    194c: 91 10        	sta	($10),y                 ; 0x2010 <dispatchAction+0x3b4>
    194e: 68           	pla
    194f: 85 28        	sta	$28                     ; 0x2028 <dispatchAction+0x3cc>
    1951: 86 29        	stx	$29                     ; 0x2029 <dispatchAction+0x3cd>
    1953: a6 12        	ldx	$12                     ; 0x2012 <dispatchAction+0x3b6>
    1955: 86 24        	stx	$24                     ; 0x2024 <dispatchAction+0x3c8>
    1957: a6 13        	ldx	$13                     ; 0x2013 <dispatchAction+0x3b7>
    1959: 86 25        	stx	$25                     ; 0x2025 <dispatchAction+0x3c9>
    195b: a2 56        	ldx	#$56
    195d: 86 26        	stx	$26                     ; 0x2026 <dispatchAction+0x3ca>
    195f: a2 6d        	ldx	#$6d
    1961: 86 27        	stx	$27                     ; 0x2027 <dispatchAction+0x3cb>
    1963: a2 0f        	ldx	#$f
    1965: 4c 06 1a     	jmp	$1a06 <checkUIClicks+0xe4>
    1968: a6 29        	ldx	$29                     ; 0x2029 <dispatchAction+0x3cd>
    196a: e4 12        	cpx	$12                     ; 0x2012 <dispatchAction+0x3b6>
    196c: a6 2a        	ldx	$2a                     ; 0x202a <dispatchAction+0x3ce>
    196e: b0 03        	bcs	$1973 <checkUIClicks+0x51>
    1970: 4c f5 19     	jmp	$19f5 <checkUIClicks+0xd3>
    1973: 18           	clc
    1974: a0 0f        	ldy	#$f
    1976: a5 13        	lda	$13                     ; 0x2013 <dispatchAction+0x3b7>
    1978: 71 26        	adc	($26),y                 ; 0x2026 <dispatchAction+0x3ca>
    197a: a8           	tay
    197b: a5 14        	lda	$14                     ; 0x2014 <dispatchAction+0x3b8>
    197d: 69 00        	adc	#$0
    197f: c5 29        	cmp	$29                     ; 0x2029 <dispatchAction+0x3cd>
    1981: d0 07        	bne	$198a <checkUIClicks+0x68>
    1983: c4 28        	cpy	$28                     ; 0x2028 <dispatchAction+0x3cc>
    1985: b0 0a        	bcs	$1991 <checkUIClicks+0x6f>
    1987: 4c f5 19     	jmp	$19f5 <checkUIClicks+0xd3>
    198a: c5 29        	cmp	$29                     ; 0x2029 <dispatchAction+0x3cd>
    198c: b0 03        	bcs	$1991 <checkUIClicks+0x6f>
    198e: 4c f5 19     	jmp	$19f5 <checkUIClicks+0xd3>
    1991: a5 26        	lda	$26                     ; 0x2026 <dispatchAction+0x3ca>
    1993: 18           	clc
    1994: 69 03        	adc	#$3
    1996: 85 12        	sta	$12                     ; 0x2012 <dispatchAction+0x3b6>
    1998: a5 27        	lda	$27                     ; 0x2027 <dispatchAction+0x3cb>
    199a: 69 00        	adc	#$0
    199c: 85 13        	sta	$13                     ; 0x2013 <dispatchAction+0x3b7>
    199e: a0 03        	ldy	#$3
    19a0: b1 26        	lda	($26),y                 ; 0x2026 <dispatchAction+0x3ca>
    19a2: 85 14        	sta	$14                     ; 0x2014 <dispatchAction+0x3b8>
    19a4: a0 01        	ldy	#$1
    19a6: b1 12        	lda	($12),y                 ; 0x2012 <dispatchAction+0x3b6>
    19a8: aa           	tax
    19a9: a5 14        	lda	$14                     ; 0x2014 <dispatchAction+0x3b8>
    19ab: 85 13        	sta	$13                     ; 0x2013 <dispatchAction+0x3b7>
    19ad: 18           	clc
    19ae: a0 10        	ldy	#$10
    19b0: 71 26        	adc	($26),y                 ; 0x2026 <dispatchAction+0x3ca>
    19b2: a8           	tay
    19b3: 8a           	txa
    19b4: 86 14        	stx	$14                     ; 0x2014 <dispatchAction+0x3b8>
    19b6: 69 00        	adc	#$0
    19b8: 85 12        	sta	$12                     ; 0x2012 <dispatchAction+0x3b6>
    19ba: a6 25        	ldx	$25                     ; 0x2025 <dispatchAction+0x3c9>
    19bc: e4 12        	cpx	$12                     ; 0x2012 <dispatchAction+0x3b6>
    19be: d0 06        	bne	$19c6 <checkUIClicks+0xa4>
    19c0: 84 12        	sty	$12                     ; 0x2012 <dispatchAction+0x3b6>
    19c2: a6 24        	ldx	$24                     ; 0x2024 <dispatchAction+0x3c8>
    19c4: 80 02        	bra	$19c8 <checkUIClicks+0xa6>
    19c6: a6 25        	ldx	$25                     ; 0x2025 <dispatchAction+0x3c9>
    19c8: e4 12        	cpx	$12                     ; 0x2012 <dispatchAction+0x3b6>
    19ca: a6 2a        	ldx	$2a                     ; 0x202a <dispatchAction+0x3ce>
    19cc: 90 27        	bcc	$19f5 <checkUIClicks+0xd3>
    19ce: 18           	clc
    19cf: a0 11        	ldy	#$11
    19d1: a5 13        	lda	$13                     ; 0x2013 <dispatchAction+0x3b7>
    19d3: 71 26        	adc	($26),y                 ; 0x2026 <dispatchAction+0x3ca>
    19d5: a8           	tay
    19d6: a5 14        	lda	$14                     ; 0x2014 <dispatchAction+0x3b8>
    19d8: 69 00        	adc	#$0
    19da: c5 25        	cmp	$25                     ; 0x2025 <dispatchAction+0x3c9>
    19dc: d0 06        	bne	$19e4 <checkUIClicks+0xc2>
    19de: c4 24        	cpy	$24                     ; 0x2024 <dispatchAction+0x3c8>
    19e0: b0 06        	bcs	$19e8 <checkUIClicks+0xc6>
    19e2: 80 11        	bra	$19f5 <checkUIClicks+0xd3>
    19e4: c5 25        	cmp	$25                     ; 0x2025 <dispatchAction+0x3c9>
    19e6: 90 0d        	bcc	$19f5 <checkUIClicks+0xd3>
    19e8: a6 26        	ldx	$26                     ; 0x2026 <dispatchAction+0x3ca>
    19ea: 86 12        	stx	$12                     ; 0x2012 <dispatchAction+0x3b6>
    19ec: a6 27        	ldx	$27                     ; 0x2027 <dispatchAction+0x3cb>
    19ee: 86 13        	stx	$13                     ; 0x2013 <dispatchAction+0x3b7>
    19f0: 20 5c 1c     	jsr	$1c5c <dispatchAction>
    19f3: a6 2a        	ldx	$2a                     ; 0x202a <dispatchAction+0x3ce>
    19f5: ca           	dex
    19f6: a5 26        	lda	$26                     ; 0x2026 <dispatchAction+0x3ca>
    19f8: 18           	clc
    19f9: 69 15        	adc	#$15
    19fb: 85 26        	sta	$26                     ; 0x2026 <dispatchAction+0x3ca>
    19fd: a5 27        	lda	$27                     ; 0x2027 <dispatchAction+0x3cb>
    19ff: 69 00        	adc	#$0
    1a01: 85 27        	sta	$27                     ; 0x2027 <dispatchAction+0x3cb>
    1a03: 8a           	txa
    1a04: f0 3a        	beq	$1a40 <checkUIClicks+0x11e>
    1a06: 86 2a        	stx	$2a                     ; 0x202a <dispatchAction+0x3ce>
    1a08: a6 26        	ldx	$26                     ; 0x2026 <dispatchAction+0x3ca>
    1a0a: 86 12        	stx	$12                     ; 0x2012 <dispatchAction+0x3b6>
    1a0c: a6 27        	ldx	$27                     ; 0x2027 <dispatchAction+0x3cb>
    1a0e: 86 13        	stx	$13                     ; 0x2013 <dispatchAction+0x3b7>
    1a10: e6 12        	inc	$12                     ; 0x2012 <dispatchAction+0x3b6>
    1a12: d0 02        	bne	$1a16 <checkUIClicks+0xf4>
    1a14: e6 13        	inc	$13                     ; 0x2013 <dispatchAction+0x3b7>
    1a16: a0 01        	ldy	#$1
    1a18: b1 26        	lda	($26),y                 ; 0x2026 <dispatchAction+0x3ca>
    1a1a: 85 14        	sta	$14                     ; 0x2014 <dispatchAction+0x3b8>
    1a1c: b1 12        	lda	($12),y                 ; 0x2012 <dispatchAction+0x3b6>
    1a1e: aa           	tax
    1a1f: 18           	clc
    1a20: a5 14        	lda	$14                     ; 0x2014 <dispatchAction+0x3b8>
    1a22: 85 13        	sta	$13                     ; 0x2013 <dispatchAction+0x3b7>
    1a24: a0 0e        	ldy	#$e
    1a26: 71 26        	adc	($26),y                 ; 0x2026 <dispatchAction+0x3ca>
    1a28: a8           	tay
    1a29: 8a           	txa
    1a2a: 86 14        	stx	$14                     ; 0x2014 <dispatchAction+0x3b8>
    1a2c: 69 00        	adc	#$0
    1a2e: 85 12        	sta	$12                     ; 0x2012 <dispatchAction+0x3b6>
    1a30: a6 29        	ldx	$29                     ; 0x2029 <dispatchAction+0x3cd>
    1a32: e4 12        	cpx	$12                     ; 0x2012 <dispatchAction+0x3b6>
    1a34: f0 03        	beq	$1a39 <checkUIClicks+0x117>
    1a36: 4c 68 19     	jmp	$1968 <checkUIClicks+0x46>
    1a39: 84 12        	sty	$12                     ; 0x2012 <dispatchAction+0x3b6>
    1a3b: a6 28        	ldx	$28                     ; 0x2028 <dispatchAction+0x3cc>
    1a3d: 4c 6a 19     	jmp	$196a <checkUIClicks+0x48>
    1a40: a2 35        	ldx	#$35
    1a42: 86 26        	stx	$26                     ; 0x2026 <dispatchAction+0x3ca>
    1a44: a2 70        	ldx	#$70
    1a46: 86 27        	stx	$27                     ; 0x2027 <dispatchAction+0x3cb>
    1a48: a2 05        	ldx	#$5
    1a4a: 8a           	txa
    1a4b: a0 03        	ldy	#$3
    1a4d: 91 10        	sta	($10),y                 ; 0x2010 <dispatchAction+0x3b4>
    1a4f: 4c fb 1a     	jmp	$1afb <checkUIClicks+0x1d9>
    1a52: a6 29        	ldx	$29                     ; 0x2029 <dispatchAction+0x3cd>
    1a54: e4 12        	cpx	$12                     ; 0x2012 <dispatchAction+0x3b6>
    1a56: b0 03        	bcs	$1a5b <checkUIClicks+0x139>
    1a58: 4c e1 1a     	jmp	$1ae1 <checkUIClicks+0x1bf>
    1a5b: 18           	clc
    1a5c: a0 0f        	ldy	#$f
    1a5e: a5 13        	lda	$13                     ; 0x2013 <dispatchAction+0x3b7>
    1a60: 71 26        	adc	($26),y                 ; 0x2026 <dispatchAction+0x3ca>
    1a62: aa           	tax
    1a63: a5 14        	lda	$14                     ; 0x2014 <dispatchAction+0x3b8>
    1a65: 69 00        	adc	#$0
    1a67: c5 29        	cmp	$29                     ; 0x2029 <dispatchAction+0x3cd>
    1a69: d0 07        	bne	$1a72 <checkUIClicks+0x150>
    1a6b: e4 28        	cpx	$28                     ; 0x2028 <dispatchAction+0x3cc>
    1a6d: b0 0a        	bcs	$1a79 <checkUIClicks+0x157>
    1a6f: 4c e1 1a     	jmp	$1ae1 <checkUIClicks+0x1bf>
    1a72: c5 29        	cmp	$29                     ; 0x2029 <dispatchAction+0x3cd>
    1a74: b0 03        	bcs	$1a79 <checkUIClicks+0x157>
    1a76: 4c e1 1a     	jmp	$1ae1 <checkUIClicks+0x1bf>
    1a79: a5 26        	lda	$26                     ; 0x2026 <dispatchAction+0x3ca>
    1a7b: 18           	clc
    1a7c: 69 03        	adc	#$3
    1a7e: 85 12        	sta	$12                     ; 0x2012 <dispatchAction+0x3b6>
    1a80: a5 27        	lda	$27                     ; 0x2027 <dispatchAction+0x3cb>
    1a82: 69 00        	adc	#$0
    1a84: 85 13        	sta	$13                     ; 0x2013 <dispatchAction+0x3b7>
    1a86: a0 03        	ldy	#$3
    1a88: b1 26        	lda	($26),y                 ; 0x2026 <dispatchAction+0x3ca>
    1a8a: 85 14        	sta	$14                     ; 0x2014 <dispatchAction+0x3b8>
    1a8c: a0 01        	ldy	#$1
    1a8e: b1 12        	lda	($12),y                 ; 0x2012 <dispatchAction+0x3b6>
    1a90: aa           	tax
    1a91: a5 14        	lda	$14                     ; 0x2014 <dispatchAction+0x3b8>
    1a93: 85 13        	sta	$13                     ; 0x2013 <dispatchAction+0x3b7>
    1a95: 18           	clc
    1a96: a0 10        	ldy	#$10
    1a98: 71 26        	adc	($26),y                 ; 0x2026 <dispatchAction+0x3ca>
    1a9a: a8           	tay
    1a9b: 8a           	txa
    1a9c: 86 14        	stx	$14                     ; 0x2014 <dispatchAction+0x3b8>
    1a9e: 69 00        	adc	#$0
    1aa0: 85 12        	sta	$12                     ; 0x2012 <dispatchAction+0x3b6>
    1aa2: a6 25        	ldx	$25                     ; 0x2025 <dispatchAction+0x3c9>
    1aa4: e4 12        	cpx	$12                     ; 0x2012 <dispatchAction+0x3b6>
    1aa6: d0 0a        	bne	$1ab2 <checkUIClicks+0x190>
    1aa8: 84 12        	sty	$12                     ; 0x2012 <dispatchAction+0x3b6>
    1aaa: a6 24        	ldx	$24                     ; 0x2024 <dispatchAction+0x3c8>
    1aac: e4 12        	cpx	$12                     ; 0x2012 <dispatchAction+0x3b6>
    1aae: b0 08        	bcs	$1ab8 <checkUIClicks+0x196>
    1ab0: 80 2f        	bra	$1ae1 <checkUIClicks+0x1bf>
    1ab2: a6 25        	ldx	$25                     ; 0x2025 <dispatchAction+0x3c9>
    1ab4: e4 12        	cpx	$12                     ; 0x2012 <dispatchAction+0x3b6>
    1ab6: 90 29        	bcc	$1ae1 <checkUIClicks+0x1bf>
    1ab8: 18           	clc
    1ab9: a0 11        	ldy	#$11
    1abb: a5 13        	lda	$13                     ; 0x2013 <dispatchAction+0x3b7>
    1abd: 71 26        	adc	($26),y                 ; 0x2026 <dispatchAction+0x3ca>
    1abf: aa           	tax
    1ac0: a5 14        	lda	$14                     ; 0x2014 <dispatchAction+0x3b8>
    1ac2: 69 00        	adc	#$0
    1ac4: c5 25        	cmp	$25                     ; 0x2025 <dispatchAction+0x3c9>
    1ac6: d0 06        	bne	$1ace <checkUIClicks+0x1ac>
    1ac8: e4 24        	cpx	$24                     ; 0x2024 <dispatchAction+0x3c8>
    1aca: b0 06        	bcs	$1ad2 <checkUIClicks+0x1b0>
    1acc: 80 13        	bra	$1ae1 <checkUIClicks+0x1bf>
    1ace: c5 25        	cmp	$25                     ; 0x2025 <dispatchAction+0x3c9>
    1ad0: 90 0f        	bcc	$1ae1 <checkUIClicks+0x1bf>
    1ad2: a0 03        	ldy	#$3
    1ad4: b1 10        	lda	($10),y                 ; 0x2010 <dispatchAction+0x3b4>
    1ad6: a6 26        	ldx	$26                     ; 0x2026 <dispatchAction+0x3ca>
    1ad8: 86 12        	stx	$12                     ; 0x2012 <dispatchAction+0x3b6>
    1ada: a6 27        	ldx	$27                     ; 0x2027 <dispatchAction+0x3cb>
    1adc: 86 13        	stx	$13                     ; 0x2013 <dispatchAction+0x3b7>
    1ade: 20 5c 1c     	jsr	$1c5c <dispatchAction>
    1ae1: a5 26        	lda	$26                     ; 0x2026 <dispatchAction+0x3ca>
    1ae3: 18           	clc
    1ae4: 69 30        	adc	#$30
    1ae6: 85 26        	sta	$26                     ; 0x2026 <dispatchAction+0x3ca>
    1ae8: a5 27        	lda	$27                     ; 0x2027 <dispatchAction+0x3cb>
    1aea: 69 00        	adc	#$0
    1aec: 85 27        	sta	$27                     ; 0x2027 <dispatchAction+0x3cb>
    1aee: a0 03        	ldy	#$3
    1af0: b1 10        	lda	($10),y                 ; 0x2010 <dispatchAction+0x3b4>
    1af2: aa           	tax
    1af3: ca           	dex
    1af4: 8a           	txa
    1af5: 91 10        	sta	($10),y                 ; 0x2010 <dispatchAction+0x3b4>
    1af7: b1 10        	lda	($10),y                 ; 0x2010 <dispatchAction+0x3b4>
    1af9: f0 3f        	beq	$1b3a <checkUIClicks+0x218>
    1afb: a6 26        	ldx	$26                     ; 0x2026 <dispatchAction+0x3ca>
    1afd: 86 12        	stx	$12                     ; 0x2012 <dispatchAction+0x3b6>
    1aff: a6 27        	ldx	$27                     ; 0x2027 <dispatchAction+0x3cb>
    1b01: 86 13        	stx	$13                     ; 0x2013 <dispatchAction+0x3b7>
    1b03: e6 12        	inc	$12                     ; 0x2012 <dispatchAction+0x3b6>
    1b05: d0 02        	bne	$1b09 <checkUIClicks+0x1e7>
    1b07: e6 13        	inc	$13                     ; 0x2013 <dispatchAction+0x3b7>
    1b09: a0 01        	ldy	#$1
    1b0b: b1 26        	lda	($26),y                 ; 0x2026 <dispatchAction+0x3ca>
    1b0d: 85 14        	sta	$14                     ; 0x2014 <dispatchAction+0x3b8>
    1b0f: b1 12        	lda	($12),y                 ; 0x2012 <dispatchAction+0x3b6>
    1b11: aa           	tax
    1b12: a5 14        	lda	$14                     ; 0x2014 <dispatchAction+0x3b8>
    1b14: 85 13        	sta	$13                     ; 0x2013 <dispatchAction+0x3b7>
    1b16: 18           	clc
    1b17: a0 0e        	ldy	#$e
    1b19: 71 26        	adc	($26),y                 ; 0x2026 <dispatchAction+0x3ca>
    1b1b: a8           	tay
    1b1c: 8a           	txa
    1b1d: 86 14        	stx	$14                     ; 0x2014 <dispatchAction+0x3b8>
    1b1f: 69 00        	adc	#$0
    1b21: 85 12        	sta	$12                     ; 0x2012 <dispatchAction+0x3b6>
    1b23: a6 29        	ldx	$29                     ; 0x2029 <dispatchAction+0x3cd>
    1b25: e4 12        	cpx	$12                     ; 0x2012 <dispatchAction+0x3b6>
    1b27: f0 03        	beq	$1b2c <checkUIClicks+0x20a>
    1b29: 4c 52 1a     	jmp	$1a52 <checkUIClicks+0x130>
    1b2c: 84 12        	sty	$12                     ; 0x2012 <dispatchAction+0x3b6>
    1b2e: a6 28        	ldx	$28                     ; 0x2028 <dispatchAction+0x3cc>
    1b30: e4 12        	cpx	$12                     ; 0x2012 <dispatchAction+0x3b6>
    1b32: 90 03        	bcc	$1b37 <checkUIClicks+0x215>
    1b34: 4c 5b 1a     	jmp	$1a5b <checkUIClicks+0x139>
    1b37: 4c e1 1a     	jmp	$1ae1 <checkUIClicks+0x1bf>
    1b3a: a2 06        	ldx	#$6
    1b3c: 8a           	txa
    1b3d: 91 10        	sta	($10),y                 ; 0x2010 <dispatchAction+0x3b4>
    1b3f: a2 25        	ldx	#$25
    1b41: 86 26        	stx	$26                     ; 0x2026 <dispatchAction+0x3ca>
    1b43: a2 71        	ldx	#$71
    1b45: 86 27        	stx	$27                     ; 0x2027 <dispatchAction+0x3cb>
    1b47: 4c f3 1b     	jmp	$1bf3 <checkUIClicks+0x2d1>
    1b4a: a6 29        	ldx	$29                     ; 0x2029 <dispatchAction+0x3cd>
    1b4c: e4 12        	cpx	$12                     ; 0x2012 <dispatchAction+0x3b6>
    1b4e: b0 03        	bcs	$1b53 <checkUIClicks+0x231>
    1b50: 4c d9 1b     	jmp	$1bd9 <checkUIClicks+0x2b7>
    1b53: 18           	clc
    1b54: a0 0f        	ldy	#$f
    1b56: a5 13        	lda	$13                     ; 0x2013 <dispatchAction+0x3b7>
    1b58: 71 26        	adc	($26),y                 ; 0x2026 <dispatchAction+0x3ca>
    1b5a: aa           	tax
    1b5b: a5 14        	lda	$14                     ; 0x2014 <dispatchAction+0x3b8>
    1b5d: 69 00        	adc	#$0
    1b5f: c5 29        	cmp	$29                     ; 0x2029 <dispatchAction+0x3cd>
    1b61: d0 07        	bne	$1b6a <checkUIClicks+0x248>
    1b63: e4 28        	cpx	$28                     ; 0x2028 <dispatchAction+0x3cc>
    1b65: b0 0a        	bcs	$1b71 <checkUIClicks+0x24f>
    1b67: 4c d9 1b     	jmp	$1bd9 <checkUIClicks+0x2b7>
    1b6a: c5 29        	cmp	$29                     ; 0x2029 <dispatchAction+0x3cd>
    1b6c: b0 03        	bcs	$1b71 <checkUIClicks+0x24f>
    1b6e: 4c d9 1b     	jmp	$1bd9 <checkUIClicks+0x2b7>
    1b71: a5 26        	lda	$26                     ; 0x2026 <dispatchAction+0x3ca>
    1b73: 18           	clc
    1b74: 69 03        	adc	#$3
    1b76: 85 12        	sta	$12                     ; 0x2012 <dispatchAction+0x3b6>
    1b78: a5 27        	lda	$27                     ; 0x2027 <dispatchAction+0x3cb>
    1b7a: 69 00        	adc	#$0
    1b7c: 85 13        	sta	$13                     ; 0x2013 <dispatchAction+0x3b7>
    1b7e: a0 03        	ldy	#$3
    1b80: b1 26        	lda	($26),y                 ; 0x2026 <dispatchAction+0x3ca>
    1b82: 85 14        	sta	$14                     ; 0x2014 <dispatchAction+0x3b8>
    1b84: a0 01        	ldy	#$1
    1b86: b1 12        	lda	($12),y                 ; 0x2012 <dispatchAction+0x3b6>
    1b88: aa           	tax
    1b89: a5 14        	lda	$14                     ; 0x2014 <dispatchAction+0x3b8>
    1b8b: 85 13        	sta	$13                     ; 0x2013 <dispatchAction+0x3b7>
    1b8d: 18           	clc
    1b8e: a0 10        	ldy	#$10
    1b90: 71 26        	adc	($26),y                 ; 0x2026 <dispatchAction+0x3ca>
    1b92: a8           	tay
    1b93: 8a           	txa
    1b94: 86 14        	stx	$14                     ; 0x2014 <dispatchAction+0x3b8>
    1b96: 69 00        	adc	#$0
    1b98: 85 12        	sta	$12                     ; 0x2012 <dispatchAction+0x3b6>
    1b9a: a6 25        	ldx	$25                     ; 0x2025 <dispatchAction+0x3c9>
    1b9c: e4 12        	cpx	$12                     ; 0x2012 <dispatchAction+0x3b6>
    1b9e: d0 0a        	bne	$1baa <checkUIClicks+0x288>
    1ba0: 84 12        	sty	$12                     ; 0x2012 <dispatchAction+0x3b6>
    1ba2: a6 24        	ldx	$24                     ; 0x2024 <dispatchAction+0x3c8>
    1ba4: e4 12        	cpx	$12                     ; 0x2012 <dispatchAction+0x3b6>
    1ba6: b0 08        	bcs	$1bb0 <checkUIClicks+0x28e>
    1ba8: 80 2f        	bra	$1bd9 <checkUIClicks+0x2b7>
    1baa: a6 25        	ldx	$25                     ; 0x2025 <dispatchAction+0x3c9>
    1bac: e4 12        	cpx	$12                     ; 0x2012 <dispatchAction+0x3b6>
    1bae: 90 29        	bcc	$1bd9 <checkUIClicks+0x2b7>
    1bb0: 18           	clc
    1bb1: a0 11        	ldy	#$11
    1bb3: a5 13        	lda	$13                     ; 0x2013 <dispatchAction+0x3b7>
    1bb5: 71 26        	adc	($26),y                 ; 0x2026 <dispatchAction+0x3ca>
    1bb7: aa           	tax
    1bb8: a5 14        	lda	$14                     ; 0x2014 <dispatchAction+0x3b8>
    1bba: 69 00        	adc	#$0
    1bbc: c5 25        	cmp	$25                     ; 0x2025 <dispatchAction+0x3c9>
    1bbe: d0 06        	bne	$1bc6 <checkUIClicks+0x2a4>
    1bc0: e4 24        	cpx	$24                     ; 0x2024 <dispatchAction+0x3c8>
    1bc2: b0 06        	bcs	$1bca <checkUIClicks+0x2a8>
    1bc4: 80 13        	bra	$1bd9 <checkUIClicks+0x2b7>
    1bc6: c5 25        	cmp	$25                     ; 0x2025 <dispatchAction+0x3c9>
    1bc8: 90 0f        	bcc	$1bd9 <checkUIClicks+0x2b7>
    1bca: a0 03        	ldy	#$3
    1bcc: b1 10        	lda	($10),y                 ; 0x2010 <dispatchAction+0x3b4>
    1bce: a6 26        	ldx	$26                     ; 0x2026 <dispatchAction+0x3ca>
    1bd0: 86 12        	stx	$12                     ; 0x2012 <dispatchAction+0x3b6>
    1bd2: a6 27        	ldx	$27                     ; 0x2027 <dispatchAction+0x3cb>
    1bd4: 86 13        	stx	$13                     ; 0x2013 <dispatchAction+0x3b7>
    1bd6: 20 5c 1c     	jsr	$1c5c <dispatchAction>
    1bd9: a0 03        	ldy	#$3
    1bdb: b1 10        	lda	($10),y                 ; 0x2010 <dispatchAction+0x3b4>
    1bdd: aa           	tax
    1bde: ca           	dex
    1bdf: 8a           	txa
    1be0: 91 10        	sta	($10),y                 ; 0x2010 <dispatchAction+0x3b4>
    1be2: a5 26        	lda	$26                     ; 0x2026 <dispatchAction+0x3ca>
    1be4: 18           	clc
    1be5: 69 48        	adc	#$48
    1be7: 85 26        	sta	$26                     ; 0x2026 <dispatchAction+0x3ca>
    1be9: a5 27        	lda	$27                     ; 0x2027 <dispatchAction+0x3cb>
    1beb: 69 00        	adc	#$0
    1bed: 85 27        	sta	$27                     ; 0x2027 <dispatchAction+0x3cb>
    1bef: b1 10        	lda	($10),y                 ; 0x2010 <dispatchAction+0x3b4>
    1bf1: f0 3f        	beq	$1c32 <checkUIClicks+0x310>
    1bf3: a6 26        	ldx	$26                     ; 0x2026 <dispatchAction+0x3ca>
    1bf5: 86 12        	stx	$12                     ; 0x2012 <dispatchAction+0x3b6>
    1bf7: a6 27        	ldx	$27                     ; 0x2027 <dispatchAction+0x3cb>
    1bf9: 86 13        	stx	$13                     ; 0x2013 <dispatchAction+0x3b7>
    1bfb: e6 12        	inc	$12                     ; 0x2012 <dispatchAction+0x3b6>
    1bfd: d0 02        	bne	$1c01 <checkUIClicks+0x2df>
    1bff: e6 13        	inc	$13                     ; 0x2013 <dispatchAction+0x3b7>
    1c01: a0 01        	ldy	#$1
    1c03: b1 26        	lda	($26),y                 ; 0x2026 <dispatchAction+0x3ca>
    1c05: 85 14        	sta	$14                     ; 0x2014 <dispatchAction+0x3b8>
    1c07: b1 12        	lda	($12),y                 ; 0x2012 <dispatchAction+0x3b6>
    1c09: aa           	tax
    1c0a: 18           	clc
    1c0b: a5 14        	lda	$14                     ; 0x2014 <dispatchAction+0x3b8>
    1c0d: 85 13        	sta	$13                     ; 0x2013 <dispatchAction+0x3b7>
    1c0f: a0 0e        	ldy	#$e
    1c11: 71 26        	adc	($26),y                 ; 0x2026 <dispatchAction+0x3ca>
    1c13: a8           	tay
    1c14: 8a           	txa
    1c15: 86 14        	stx	$14                     ; 0x2014 <dispatchAction+0x3b8>
    1c17: 69 00        	adc	#$0
    1c19: 85 12        	sta	$12                     ; 0x2012 <dispatchAction+0x3b6>
    1c1b: a6 29        	ldx	$29                     ; 0x2029 <dispatchAction+0x3cd>
    1c1d: e4 12        	cpx	$12                     ; 0x2012 <dispatchAction+0x3b6>
    1c1f: f0 03        	beq	$1c24 <checkUIClicks+0x302>
    1c21: 4c 4a 1b     	jmp	$1b4a <checkUIClicks+0x228>
    1c24: 84 12        	sty	$12                     ; 0x2012 <dispatchAction+0x3b6>
    1c26: a6 28        	ldx	$28                     ; 0x2028 <dispatchAction+0x3cc>
    1c28: e4 12        	cpx	$12                     ; 0x2012 <dispatchAction+0x3b6>
    1c2a: 90 03        	bcc	$1c2f <checkUIClicks+0x30d>
    1c2c: 4c 53 1b     	jmp	$1b53 <checkUIClicks+0x231>
    1c2f: 4c d9 1b     	jmp	$1bd9 <checkUIClicks+0x2b7>
    1c32: a0 00        	ldy	#$0
    1c34: b1 10        	lda	($10),y                 ; 0x2010 <dispatchAction+0x3b4>
    1c36: 85 2a        	sta	$2a                     ; 0x202a <dispatchAction+0x3ce>
    1c38: c8           	iny
    1c39: b1 10        	lda	($10),y                 ; 0x2010 <dispatchAction+0x3b4>
    1c3b: 85 29        	sta	$29                     ; 0x2029 <dispatchAction+0x3cd>
    1c3d: c8           	iny
    1c3e: b1 10        	lda	($10),y                 ; 0x2010 <dispatchAction+0x3b4>
    1c40: 85 28        	sta	$28                     ; 0x2028 <dispatchAction+0x3cc>
    1c42: fa           	plx
    1c43: 86 27        	stx	$27                     ; 0x2027 <dispatchAction+0x3cb>
    1c45: fa           	plx
    1c46: 86 26        	stx	$26                     ; 0x2026 <dispatchAction+0x3ca>
    1c48: fa           	plx
    1c49: 86 25        	stx	$25                     ; 0x2025 <dispatchAction+0x3c9>
    1c4b: fa           	plx
    1c4c: 86 24        	stx	$24                     ; 0x2024 <dispatchAction+0x3c8>
    1c4e: 18           	clc
    1c4f: a5 10        	lda	$10                     ; 0x2010 <dispatchAction+0x3b4>
    1c51: 69 04        	adc	#$4
    1c53: 85 10        	sta	$10                     ; 0x2010 <dispatchAction+0x3b4>
    1c55: a5 11        	lda	$11                     ; 0x2011 <dispatchAction+0x3b5>
    1c57: 69 00        	adc	#$0
    1c59: 85 11        	sta	$11                     ; 0x2011 <dispatchAction+0x3b5>
    1c5b: 60           	rts

00001c5c <dispatchAction>:
    1c5c: 18           	clc
    1c5d: a5 10        	lda	$10                     ; 0x2010 <dispatchAction+0x3b4>
    1c5f: 69 fd        	adc	#$fd
    1c61: 85 10        	sta	$10                     ; 0x2010 <dispatchAction+0x3b4>
    1c63: a5 11        	lda	$11                     ; 0x2011 <dispatchAction+0x3b5>
    1c65: 69 ff        	adc	#$ff
    1c67: 85 11        	sta	$11                     ; 0x2011 <dispatchAction+0x3b5>
    1c69: a6 24        	ldx	$24                     ; 0x2024 <dispatchAction+0x3c8>
    1c6b: da           	phx
    1c6c: a6 25        	ldx	$25                     ; 0x2025 <dispatchAction+0x3c9>
    1c6e: da           	phx
    1c6f: a6 26        	ldx	$26                     ; 0x2026 <dispatchAction+0x3ca>
    1c71: da           	phx
    1c72: a6 27        	ldx	$27                     ; 0x2027 <dispatchAction+0x3cb>
    1c74: da           	phx
    1c75: a5 28        	lda	$28                     ; 0x2028 <dispatchAction+0x3cc>
    1c77: a0 00        	ldy	#$0
    1c79: 91 10        	sta	($10),y                 ; 0x2010 <dispatchAction+0x3b4>
    1c7b: a0 12        	ldy	#$12
    1c7d: b1 12        	lda	($12),y                 ; 0x2012 <dispatchAction+0x3b6>
    1c7f: c9 35        	cmp	#$35
    1c81: 90 03        	bcc	$1c86 <dispatchAction+0x2a>
    1c83: 4c 84 23     	jmp	$2384 <dispatchAction+0x728>
    1c86: a6 12        	ldx	$12                     ; 0x2012 <dispatchAction+0x3b6>
    1c88: 86 24        	stx	$24                     ; 0x2024 <dispatchAction+0x3c8>
    1c8a: a6 13        	ldx	$13                     ; 0x2013 <dispatchAction+0x3b7>
    1c8c: 86 25        	stx	$25                     ; 0x2025 <dispatchAction+0x3c9>
    1c8e: 0a           	asl
    1c8f: aa           	tax
    1c90: 7c 5e 69     	jmp	($695e,x)               ; 0x695e <__set_v+0x51>
    1c93: a0 06        	ldy	#$6
    1c95: b1 24        	lda	($24),y                 ; 0x2024 <dispatchAction+0x3c8>
    1c97: a2 01        	ldx	#$1
    1c99: c9 00        	cmp	#$0
    1c9b: f0 02        	beq	$1c9f <dispatchAction+0x43>
    1c9d: a2 00        	ldx	#$0
    1c9f: 8a           	txa
    1ca0: f0 04        	beq	$1ca6 <dispatchAction+0x4a>
    1ca2: a9 01        	lda	#$1
    1ca4: 80 02        	bra	$1ca8 <dispatchAction+0x4c>
    1ca6: a9 00        	lda	#$0
    1ca8: 91 24        	sta	($24),y                 ; 0x2024 <dispatchAction+0x3c8>
    1caa: a0 0c        	ldy	#$c
    1cac: b1 24        	lda	($24),y                 ; 0x2024 <dispatchAction+0x3c8>
    1cae: a2 15        	ldx	#$15
    1cb0: 86 12        	stx	$12                     ; 0x2012 <dispatchAction+0x3b6>
    1cb2: 64 13        	stz	$13                     ; 0x2013 <dispatchAction+0x3b7>
    1cb4: a2 00        	ldx	#$0
    1cb6: 20 d0 66     	jsr	$66d0 <__mulhi3>
    1cb9: 85 12        	sta	$12                     ; 0x2012 <dispatchAction+0x3b6>
    1cbb: 86 13        	stx	$13                     ; 0x2013 <dispatchAction+0x3b7>
    1cbd: a9 56        	lda	#$56
    1cbf: 18           	clc
    1cc0: 65 12        	adc	$12                     ; 0x2012 <dispatchAction+0x3b6>
    1cc2: 85 12        	sta	$12                     ; 0x2012 <dispatchAction+0x3b6>
    1cc4: a9 6d        	lda	#$6d
    1cc6: 65 13        	adc	$13                     ; 0x2013 <dispatchAction+0x3b7>
    1cc8: 85 13        	sta	$13                     ; 0x2013 <dispatchAction+0x3b7>
    1cca: 20 ca 3a     	jsr	$3aca <updateRadioB>
    1ccd: a0 06        	ldy	#$6
    1ccf: b1 24        	lda	($24),y                 ; 0x2024 <dispatchAction+0x3c8>
    1cd1: d0 03        	bne	$1cd6 <dispatchAction+0x7a>
    1cd3: 4c 71 1d     	jmp	$1d71 <dispatchAction+0x115>
    1cd6: a0 0c        	ldy	#$c
    1cd8: b1 24        	lda	($24),y                 ; 0x2024 <dispatchAction+0x3c8>
    1cda: a2 15        	ldx	#$15
    1cdc: 86 12        	stx	$12                     ; 0x2012 <dispatchAction+0x3b6>
    1cde: 64 13        	stz	$13                     ; 0x2013 <dispatchAction+0x3b7>
    1ce0: a2 00        	ldx	#$0
    1ce2: 20 d0 66     	jsr	$66d0 <__mulhi3>
    1ce5: 85 12        	sta	$12                     ; 0x2012 <dispatchAction+0x3b6>
    1ce7: 86 13        	stx	$13                     ; 0x2013 <dispatchAction+0x3b7>
    1ce9: a9 56        	lda	#$56
    1ceb: 18           	clc
    1cec: 65 12        	adc	$12                     ; 0x2012 <dispatchAction+0x3b6>
    1cee: 85 12        	sta	$12                     ; 0x2012 <dispatchAction+0x3b6>
    1cf0: a9 6d        	lda	#$6d
    1cf2: 65 13        	adc	$13                     ; 0x2013 <dispatchAction+0x3b7>
    1cf4: 85 13        	sta	$13                     ; 0x2013 <dispatchAction+0x3b7>
    1cf6: a0 13        	ldy	#$13
    1cf8: b1 12        	lda	($12),y                 ; 0x2012 <dispatchAction+0x3b6>
    1cfa: d0 03        	bne	$1cff <dispatchAction+0xa3>
    1cfc: 4c 71 1d     	jmp	$1d71 <dispatchAction+0x115>
    1cff: a2 56        	ldx	#$56
    1d01: 86 26        	stx	$26                     ; 0x2026 <dispatchAction+0x3ca>
    1d03: a2 6d        	ldx	#$6d
    1d05: 86 27        	stx	$27                     ; 0x2027 <dispatchAction+0x3cb>
    1d07: a2 00        	ldx	#$0
    1d09: 80 23        	bra	$1d2e <dispatchAction+0xd2>
    1d0b: a9 00        	lda	#$0
    1d0d: 91 26        	sta	($26),y                 ; 0x2026 <dispatchAction+0x3ca>
    1d0f: a6 26        	ldx	$26                     ; 0x2026 <dispatchAction+0x3ca>
    1d11: 86 12        	stx	$12                     ; 0x2012 <dispatchAction+0x3b6>
    1d13: a6 27        	ldx	$27                     ; 0x2027 <dispatchAction+0x3cb>
    1d15: 86 13        	stx	$13                     ; 0x2013 <dispatchAction+0x3b7>
    1d17: 20 ca 3a     	jsr	$3aca <updateRadioB>
    1d1a: a6 28        	ldx	$28                     ; 0x2028 <dispatchAction+0x3cc>
    1d1c: e8           	inx
    1d1d: a5 26        	lda	$26                     ; 0x2026 <dispatchAction+0x3ca>
    1d1f: 18           	clc
    1d20: 69 15        	adc	#$15
    1d22: 85 26        	sta	$26                     ; 0x2026 <dispatchAction+0x3ca>
    1d24: a5 27        	lda	$27                     ; 0x2027 <dispatchAction+0x3cb>
    1d26: 69 00        	adc	#$0
    1d28: 85 27        	sta	$27                     ; 0x2027 <dispatchAction+0x3cb>
    1d2a: e0 0f        	cpx	#$f
    1d2c: f0 43        	beq	$1d71 <dispatchAction+0x115>
    1d2e: a0 0c        	ldy	#$c
    1d30: b1 24        	lda	($24),y                 ; 0x2024 <dispatchAction+0x3c8>
    1d32: 85 14        	sta	$14                     ; 0x2014 <dispatchAction+0x3b8>
    1d34: e4 14        	cpx	$14                     ; 0x2014 <dispatchAction+0x3b8>
    1d36: f0 e4        	beq	$1d1c <dispatchAction+0xc0>
    1d38: a0 13        	ldy	#$13
    1d3a: b1 26        	lda	($26),y                 ; 0x2026 <dispatchAction+0x3ca>
    1d3c: f0 de        	beq	$1d1c <dispatchAction+0xc0>
    1d3e: 86 28        	stx	$28                     ; 0x2028 <dispatchAction+0x3cc>
    1d40: a2 15        	ldx	#$15
    1d42: 86 12        	stx	$12                     ; 0x2012 <dispatchAction+0x3b6>
    1d44: 64 13        	stz	$13                     ; 0x2013 <dispatchAction+0x3b7>
    1d46: a2 00        	ldx	#$0
    1d48: a5 14        	lda	$14                     ; 0x2014 <dispatchAction+0x3b8>
    1d4a: 20 d0 66     	jsr	$66d0 <__mulhi3>
    1d4d: 85 12        	sta	$12                     ; 0x2012 <dispatchAction+0x3b6>
    1d4f: 86 13        	stx	$13                     ; 0x2013 <dispatchAction+0x3b7>
    1d51: a6 28        	ldx	$28                     ; 0x2028 <dispatchAction+0x3cc>
    1d53: a9 56        	lda	#$56
    1d55: 18           	clc
    1d56: 65 12        	adc	$12                     ; 0x2012 <dispatchAction+0x3b6>
    1d58: 85 12        	sta	$12                     ; 0x2012 <dispatchAction+0x3b6>
    1d5a: a9 6d        	lda	#$6d
    1d5c: 65 13        	adc	$13                     ; 0x2013 <dispatchAction+0x3b7>
    1d5e: 85 13        	sta	$13                     ; 0x2013 <dispatchAction+0x3b7>
    1d60: a0 14        	ldy	#$14
    1d62: b1 12        	lda	($12),y                 ; 0x2012 <dispatchAction+0x3b6>
    1d64: d1 26        	cmp	($26),y                 ; 0x2026 <dispatchAction+0x3ca>
    1d66: d0 b4        	bne	$1d1c <dispatchAction+0xc0>
    1d68: a0 06        	ldy	#$6
    1d6a: b1 26        	lda	($26),y                 ; 0x2026 <dispatchAction+0x3ca>
    1d6c: f0 ae        	beq	$1d1c <dispatchAction+0xc0>
    1d6e: 4c 0b 1d     	jmp	$1d0b <dispatchAction+0xaf>
    1d71: a0 12        	ldy	#$12
    1d73: b1 24        	lda	($24),y                 ; 0x2024 <dispatchAction+0x3c8>
    1d75: c9 04        	cmp	#$4
    1d77: b0 11        	bcs	$1d8a <dispatchAction+0x12e>
    1d79: a6 e1        	ldx	$e1                     ; 0x20e1 <dispatchAction+0x485>
    1d7b: a4 e2        	ldy	$e2                     ; 0x20e2 <dispatchAction+0x486>
    1d7d: 86 12        	stx	$12                     ; 0x2012 <dispatchAction+0x3b6>
    1d7f: 84 13        	sty	$13                     ; 0x2013 <dispatchAction+0x3b7>
    1d81: a0 03        	ldy	#$3
    1d83: d1 12        	cmp	($12),y                 ; 0x2012 <dispatchAction+0x3b6>
    1d85: f0 03        	beq	$1d8a <dispatchAction+0x12e>
    1d87: 4c 45 1e     	jmp	$1e45 <dispatchAction+0x1e9>
    1d8a: a0 12        	ldy	#$12
    1d8c: b1 24        	lda	($24),y                 ; 0x2024 <dispatchAction+0x3c8>
    1d8e: c9 18        	cmp	#$18
    1d90: f0 03        	beq	$1d95 <dispatchAction+0x139>
    1d92: 4c 5c 1f     	jmp	$1f5c <dispatchAction+0x300>
    1d95: a0 06        	ldy	#$6
    1d97: b1 24        	lda	($24),y                 ; 0x2024 <dispatchAction+0x3c8>
    1d99: aa           	tax
    1d9a: a5 e1        	lda	$e1                     ; 0x20e1 <dispatchAction+0x485>
    1d9c: a4 e2        	ldy	$e2                     ; 0x20e2 <dispatchAction+0x486>
    1d9e: 84 14        	sty	$14                     ; 0x2014 <dispatchAction+0x3b8>
    1da0: 85 12        	sta	$12                     ; 0x2012 <dispatchAction+0x3b6>
    1da2: 84 13        	sty	$13                     ; 0x2013 <dispatchAction+0x3b7>
    1da4: a0 04        	ldy	#$4
    1da6: 18           	clc
    1da7: 69 04        	adc	#$4
    1da9: 85 16        	sta	$16                     ; 0x2016 <dispatchAction+0x3ba>
    1dab: a5 14        	lda	$14                     ; 0x2014 <dispatchAction+0x3b8>
    1dad: 69 00        	adc	#$0
    1daf: 5a           	phy
    1db0: a4 16        	ldy	$16                     ; 0x2016 <dispatchAction+0x3ba>
    1db2: 84 14        	sty	$14                     ; 0x2014 <dispatchAction+0x3b8>
    1db4: 7a           	ply
    1db5: 85 15        	sta	$15                     ; 0x2015 <dispatchAction+0x3b9>
    1db7: b1 12        	lda	($12),y                 ; 0x2012 <dispatchAction+0x3b6>
    1db9: 85 12        	sta	$12                     ; 0x2012 <dispatchAction+0x3b6>
    1dbb: a0 01        	ldy	#$1
    1dbd: b1 14        	lda	($14),y                 ; 0x2014 <dispatchAction+0x3b8>
    1dbf: 85 13        	sta	$13                     ; 0x2013 <dispatchAction+0x3b7>
    1dc1: a0 05        	ldy	#$5
    1dc3: b1 12        	lda	($12),y                 ; 0x2012 <dispatchAction+0x3b6>
    1dc5: e0 00        	cpx	#$0
    1dc7: d0 03        	bne	$1dcc <dispatchAction+0x170>
    1dc9: 4c 33 1f     	jmp	$1f33 <dispatchAction+0x2d7>
    1dcc: 09 10        	ora	#$10
    1dce: 4c 35 1f     	jmp	$1f35 <dispatchAction+0x2d9>
    1dd1: a0 06        	ldy	#$6
    1dd3: a9 01        	lda	#$1
    1dd5: 91 24        	sta	($24),y                 ; 0x2024 <dispatchAction+0x3c8>
    1dd7: a6 98        	ldx	$98                     ; 0x2098 <dispatchAction+0x43c>
    1dd9: 86 12        	stx	$12                     ; 0x2012 <dispatchAction+0x3b6>
    1ddb: a6 99        	ldx	$99                     ; 0x2099 <dispatchAction+0x43d>
    1ddd: 86 13        	stx	$13                     ; 0x2013 <dispatchAction+0x3b7>
    1ddf: a6 98        	ldx	$98                     ; 0x2098 <dispatchAction+0x43c>
    1de1: 8e d6 72     	stx	$72d6                   ; 0x72d6 <diaAct+0x1>
    1de4: a6 99        	ldx	$99                     ; 0x2099 <dispatchAction+0x43d>
    1de6: 8e d7 72     	stx	$72d7                   ; 0x72d7 <diaAct+0x2>
    1de9: a6 9a        	ldx	$9a                     ; 0x209a <dispatchAction+0x43e>
    1deb: 86 14        	stx	$14                     ; 0x2014 <dispatchAction+0x3b8>
    1ded: a6 9b        	ldx	$9b                     ; 0x209b <dispatchAction+0x43f>
    1def: a4 9a        	ldy	$9a                     ; 0x209a <dispatchAction+0x43e>
    1df1: 8c d8 72     	sty	$72d8                   ; 0x72d8 <diaAct+0x3>
    1df4: a4 9b        	ldy	$9b                     ; 0x209b <dispatchAction+0x43f>
    1df6: 8c d9 72     	sty	$72d9                   ; 0x72d9 <diaAct+0x4>
    1df9: a0 0c        	ldy	#$c
    1dfb: b1 24        	lda	($24),y                 ; 0x2024 <dispatchAction+0x3c8>
    1dfd: 8d d5 72     	sta	$72d5                   ; 0x72d5 <diaAct>
    1e00: 80 2f        	bra	$1e31 <dispatchAction+0x1d5>
    1e02: a0 06        	ldy	#$6
    1e04: a9 01        	lda	#$1
    1e06: 91 24        	sta	($24),y                 ; 0x2024 <dispatchAction+0x3c8>
    1e08: a6 98        	ldx	$98                     ; 0x2098 <dispatchAction+0x43c>
    1e0a: 86 12        	stx	$12                     ; 0x2012 <dispatchAction+0x3b6>
    1e0c: a6 99        	ldx	$99                     ; 0x2099 <dispatchAction+0x43d>
    1e0e: 86 13        	stx	$13                     ; 0x2013 <dispatchAction+0x3b7>
    1e10: a6 98        	ldx	$98                     ; 0x2098 <dispatchAction+0x43c>
    1e12: 8e de 72     	stx	$72de                   ; 0x72de <sliAct+0x1>
    1e15: a6 99        	ldx	$99                     ; 0x2099 <dispatchAction+0x43d>
    1e17: 8e df 72     	stx	$72df                   ; 0x72df <sliAct+0x2>
    1e1a: a6 9a        	ldx	$9a                     ; 0x209a <dispatchAction+0x43e>
    1e1c: 86 14        	stx	$14                     ; 0x2014 <dispatchAction+0x3b8>
    1e1e: a6 9b        	ldx	$9b                     ; 0x209b <dispatchAction+0x43f>
    1e20: a4 9a        	ldy	$9a                     ; 0x209a <dispatchAction+0x43e>
    1e22: 8c e0 72     	sty	$72e0                   ; 0x72e0 <sliAct+0x3>
    1e25: a4 9b        	ldy	$9b                     ; 0x209b <dispatchAction+0x43f>
    1e27: 8c e1 72     	sty	$72e1                   ; 0x72e1 <sliAct+0x4>
    1e2a: a0 0c        	ldy	#$c
    1e2c: b1 24        	lda	($24),y                 ; 0x2024 <dispatchAction+0x3c8>
    1e2e: 8d dd 72     	sta	$72dd                   ; 0x72dd <sliAct>
    1e31: a4 12        	ldy	$12                     ; 0x2012 <dispatchAction+0x3b6>
    1e33: 84 9c        	sty	$9c                     ; 0x209c <dispatchAction+0x440>
    1e35: a4 13        	ldy	$13                     ; 0x2013 <dispatchAction+0x3b7>
    1e37: 84 9d        	sty	$9d                     ; 0x209d <dispatchAction+0x441>
    1e39: a4 14        	ldy	$14                     ; 0x2014 <dispatchAction+0x3b8>
    1e3b: 84 9e        	sty	$9e                     ; 0x209e <dispatchAction+0x442>
    1e3d: 86 9f        	stx	$9f                     ; 0x209f <dispatchAction+0x443>
    1e3f: 20 3d 4c     	jsr	$4c3d <hideMouse>
    1e42: 4c 84 23     	jmp	$2384 <dispatchAction+0x728>
    1e45: 91 12        	sta	($12),y                 ; 0x2012 <dispatchAction+0x3b6>
    1e47: a2 05        	ldx	#$5
    1e49: a9 d9        	lda	#$d9
    1e4b: a0 28        	ldy	#$28
    1e4d: 84 14        	sty	$14                     ; 0x2014 <dispatchAction+0x3b8>
    1e4f: 84 12        	sty	$12                     ; 0x2012 <dispatchAction+0x3b6>
    1e51: a8           	tay
    1e52: 85 13        	sta	$13                     ; 0x2013 <dispatchAction+0x3b7>
    1e54: bd 0c 6d     	lda	$6d0c,x                 ; 0x6d0c <_spriteCtl>
    1e57: 92 12        	sta	($12)                   ; 0x2012 <dispatchAction+0x3b6>
    1e59: 84 12        	sty	$12                     ; 0x2012 <dispatchAction+0x3b6>
    1e5b: e8           	inx
    1e5c: 18           	clc
    1e5d: a5 14        	lda	$14                     ; 0x2014 <dispatchAction+0x3b8>
    1e5f: 69 08        	adc	#$8
    1e61: a8           	tay
    1e62: a5 12        	lda	$12                     ; 0x2012 <dispatchAction+0x3b6>
    1e64: 69 00        	adc	#$0
    1e66: e0 3f        	cpx	#$3f
    1e68: d0 e3        	bne	$1e4d <dispatchAction+0x1f1>
    1e6a: a2 02        	ldx	#$2
    1e6c: 86 01        	stx	$1                      ; 0x2001 <dispatchAction+0x3a5>
    1e6e: a9 50        	lda	#$50
    1e70: 64 12        	stz	$12                     ; 0x2012 <dispatchAction+0x3b6>
    1e72: a0 01        	ldy	#$1
    1e74: aa           	tax
    1e75: 85 14        	sta	$14                     ; 0x2014 <dispatchAction+0x3b8>
    1e77: a9 c0        	lda	#$c0
    1e79: 5a           	phy
    1e7a: c8           	iny
    1e7b: 91 10        	sta	($10),y                 ; 0x2010 <dispatchAction+0x3b4>
    1e7d: 8a           	txa
    1e7e: 88           	dey
    1e7f: 91 10        	sta	($10),y                 ; 0x2010 <dispatchAction+0x3b4>
    1e81: 7a           	ply
    1e82: a9 c0        	lda	#$c0
    1e84: 85 15        	sta	$15                     ; 0x2015 <dispatchAction+0x3b9>
    1e86: 80 2d        	bra	$1eb5 <dispatchAction+0x259>
    1e88: e6 12        	inc	$12                     ; 0x2012 <dispatchAction+0x3b6>
    1e8a: a5 12        	lda	$12                     ; 0x2012 <dispatchAction+0x3b6>
    1e8c: f0 3b        	beq	$1ec9 <dispatchAction+0x26d>
    1e8e: 18           	clc
    1e8f: 5a           	phy
    1e90: a0 01        	ldy	#$1
    1e92: b1 10        	lda	($10),y                 ; 0x2010 <dispatchAction+0x3b4>
    1e94: 69 50        	adc	#$50
    1e96: 85 13        	sta	$13                     ; 0x2013 <dispatchAction+0x3b7>
    1e98: c8           	iny
    1e99: b1 10        	lda	($10),y                 ; 0x2010 <dispatchAction+0x3b4>
    1e9b: 69 00        	adc	#$0
    1e9d: 48           	pha
    1e9e: a5 13        	lda	$13                     ; 0x2013 <dispatchAction+0x3b7>
    1ea0: 88           	dey
    1ea1: 91 10        	sta	($10),y                 ; 0x2010 <dispatchAction+0x3b4>
    1ea3: 68           	pla
    1ea4: a6 13        	ldx	$13                     ; 0x2013 <dispatchAction+0x3b7>
    1ea6: 86 14        	stx	$14                     ; 0x2014 <dispatchAction+0x3b8>
    1ea8: c8           	iny
    1ea9: 91 10        	sta	($10),y                 ; 0x2010 <dispatchAction+0x3b4>
    1eab: 7a           	ply
    1eac: 85 15        	sta	$15                     ; 0x2015 <dispatchAction+0x3b9>
    1eae: a2 50        	ldx	#$50
    1eb0: 80 03        	bra	$1eb5 <dispatchAction+0x259>
    1eb2: 8a           	txa
    1eb3: f0 0d        	beq	$1ec2 <dispatchAction+0x266>
    1eb5: a9 20        	lda	#$20
    1eb7: 92 14        	sta	($14)                   ; 0x2014 <dispatchAction+0x3b8>
    1eb9: ca           	dex
    1eba: e6 14        	inc	$14                     ; 0x2014 <dispatchAction+0x3b8>
    1ebc: d0 f4        	bne	$1eb2 <dispatchAction+0x256>
    1ebe: e6 15        	inc	$15                     ; 0x2015 <dispatchAction+0x3b9>
    1ec0: 80 f0        	bra	$1eb2 <dispatchAction+0x256>
    1ec2: c8           	iny
    1ec3: f0 c3        	beq	$1e88 <dispatchAction+0x22c>
    1ec5: a5 12        	lda	$12                     ; 0x2012 <dispatchAction+0x3b6>
    1ec7: d0 c5        	bne	$1e8e <dispatchAction+0x232>
    1ec9: c0 1e        	cpy	#$1e
    1ecb: d0 c1        	bne	$1e8e <dispatchAction+0x232>
    1ecd: 64 01        	stz	$1                      ; 0x2001 <dispatchAction+0x3a5>
    1ecf: a6 e1        	ldx	$e1                     ; 0x20e1 <dispatchAction+0x485>
    1ed1: a4 e2        	ldy	$e2                     ; 0x20e2 <dispatchAction+0x486>
    1ed3: 86 12        	stx	$12                     ; 0x2012 <dispatchAction+0x3b6>
    1ed5: 84 13        	sty	$13                     ; 0x2013 <dispatchAction+0x3b7>
    1ed7: a0 03        	ldy	#$3
    1ed9: b1 12        	lda	($12),y                 ; 0x2012 <dispatchAction+0x3b6>
    1edb: c9 04        	cmp	#$4
    1edd: 90 03        	bcc	$1ee2 <dispatchAction+0x286>
    1edf: 4c 8a 1d     	jmp	$1d8a <dispatchAction+0x12e>
    1ee2: 0a           	asl
    1ee3: aa           	tax
    1ee4: 7c c8 69     	jmp	($69c8,x)               ; 0x69c8 <__set_v+0xbb>
    1ee7: 20 b0 23     	jsr	$23b0 <textLayerGen>
    1eea: a2 0c        	ldx	#$c
    1eec: 86 92        	stx	$92                     ; 0x2092 <dispatchAction+0x436>
    1eee: 8e 14 d0     	stx	$d014                   ; 0xd014 <end_block9+0x5d1e>
    1ef1: 9c 15 d0     	stz	$d015                   ; 0xd015 <end_block9+0x5d1f>
    1ef4: a2 1c        	ldx	#$1c
    1ef6: 86 93        	stx	$93                     ; 0x2093 <dispatchAction+0x437>
    1ef8: 8e 16 d0     	stx	$d016                   ; 0xd016 <end_block9+0x5d20>
    1efb: 9c 17 d0     	stz	$d017                   ; 0xd017 <end_block9+0x5d21>
    1efe: a2 62        	ldx	#$62
    1f00: 86 12        	stx	$12                     ; 0x2012 <dispatchAction+0x3b6>
    1f02: a2 6a        	ldx	#$6a
    1f04: 86 13        	stx	$13                     ; 0x2013 <dispatchAction+0x3b7>
    1f06: 20 8f 24     	jsr	$248f <textPrint>
    1f09: 4c 8a 1d     	jmp	$1d8a <dispatchAction+0x12e>
    1f0c: a2 3f        	ldx	#$3f
    1f0e: 86 12        	stx	$12                     ; 0x2012 <dispatchAction+0x3b6>
    1f10: 64 13        	stz	$13                     ; 0x2013 <dispatchAction+0x3b7>
    1f12: 64 14        	stz	$14                     ; 0x2014 <dispatchAction+0x3b8>
    1f14: a2 54        	ldx	#$54
    1f16: 86 15        	stx	$15                     ; 0x2015 <dispatchAction+0x3b9>
    1f18: a2 01        	ldx	#$1
    1f1a: 86 16        	stx	$16                     ; 0x2016 <dispatchAction+0x3ba>
    1f1c: 64 17        	stz	$17                     ; 0x2017 <dispatchAction+0x3bb>
    1f1e: a2 0e        	ldx	#$e
    1f20: 84 26        	sty	$26                     ; 0x2026 <dispatchAction+0x3ca>
    1f22: 98           	tya
    1f23: 20 9c 46     	jsr	$469c <setATile>
    1f26: a4 26        	ldy	$26                     ; 0x2026 <dispatchAction+0x3ca>
    1f28: c8           	iny
    1f29: c0 0c        	cpy	#$c
    1f2b: d0 df        	bne	$1f0c <dispatchAction+0x2b0>
    1f2d: 20 b0 23     	jsr	$23b0 <textLayerGen>
    1f30: 4c 8a 1d     	jmp	$1d8a <dispatchAction+0x12e>
    1f33: 49 10        	eor	#$10
    1f35: 91 12        	sta	($12),y                 ; 0x2012 <dispatchAction+0x3b6>
    1f37: a5 e1        	lda	$e1                     ; 0x20e1 <dispatchAction+0x485>
    1f39: a6 e2        	ldx	$e2                     ; 0x20e2 <dispatchAction+0x486>
    1f3b: 85 12        	sta	$12                     ; 0x2012 <dispatchAction+0x3b6>
    1f3d: 86 13        	stx	$13                     ; 0x2013 <dispatchAction+0x3b7>
    1f3f: a0 04        	ldy	#$4
    1f41: 18           	clc
    1f42: 69 04        	adc	#$4
    1f44: 85 14        	sta	$14                     ; 0x2014 <dispatchAction+0x3b8>
    1f46: 8a           	txa
    1f47: 69 00        	adc	#$0
    1f49: 85 15        	sta	$15                     ; 0x2015 <dispatchAction+0x3b9>
    1f4b: b1 12        	lda	($12),y                 ; 0x2012 <dispatchAction+0x3b6>
    1f4d: 85 12        	sta	$12                     ; 0x2012 <dispatchAction+0x3b6>
    1f4f: a0 01        	ldy	#$1
    1f51: b1 14        	lda	($14),y                 ; 0x2014 <dispatchAction+0x3b8>
    1f53: 85 13        	sta	$13                     ; 0x2013 <dispatchAction+0x3b7>
    1f55: a0 05        	ldy	#$5
    1f57: b1 12        	lda	($12),y                 ; 0x2012 <dispatchAction+0x3b6>
    1f59: 20 81 50     	jsr	$5081 <sid_setCTRL>
    1f5c: a0 12        	ldy	#$12
    1f5e: b1 24        	lda	($24),y                 ; 0x2024 <dispatchAction+0x3c8>
    1f60: c9 19        	cmp	#$19
    1f62: f0 03        	beq	$1f67 <dispatchAction+0x30b>
    1f64: 4c ca 1f     	jmp	$1fca <dispatchAction+0x36e>
    1f67: a0 06        	ldy	#$6
    1f69: b1 24        	lda	($24),y                 ; 0x2024 <dispatchAction+0x3c8>
    1f6b: aa           	tax
    1f6c: a5 e1        	lda	$e1                     ; 0x20e1 <dispatchAction+0x485>
    1f6e: a4 e2        	ldy	$e2                     ; 0x20e2 <dispatchAction+0x486>
    1f70: 84 14        	sty	$14                     ; 0x2014 <dispatchAction+0x3b8>
    1f72: 85 12        	sta	$12                     ; 0x2012 <dispatchAction+0x3b6>
    1f74: 84 13        	sty	$13                     ; 0x2013 <dispatchAction+0x3b7>
    1f76: a0 04        	ldy	#$4
    1f78: 18           	clc
    1f79: 69 04        	adc	#$4
    1f7b: 85 16        	sta	$16                     ; 0x2016 <dispatchAction+0x3ba>
    1f7d: a5 14        	lda	$14                     ; 0x2014 <dispatchAction+0x3b8>
    1f7f: 69 00        	adc	#$0
    1f81: 5a           	phy
    1f82: a4 16        	ldy	$16                     ; 0x2016 <dispatchAction+0x3ba>
    1f84: 84 14        	sty	$14                     ; 0x2014 <dispatchAction+0x3b8>
    1f86: 7a           	ply
    1f87: 85 15        	sta	$15                     ; 0x2015 <dispatchAction+0x3b9>
    1f89: b1 12        	lda	($12),y                 ; 0x2012 <dispatchAction+0x3b6>
    1f8b: 85 12        	sta	$12                     ; 0x2012 <dispatchAction+0x3b6>
    1f8d: a0 01        	ldy	#$1
    1f8f: b1 14        	lda	($14),y                 ; 0x2014 <dispatchAction+0x3b8>
    1f91: 85 13        	sta	$13                     ; 0x2013 <dispatchAction+0x3b7>
    1f93: a0 05        	ldy	#$5
    1f95: b1 12        	lda	($12),y                 ; 0x2012 <dispatchAction+0x3b6>
    1f97: e0 00        	cpx	#$0
    1f99: f0 04        	beq	$1f9f <dispatchAction+0x343>
    1f9b: 09 20        	ora	#$20
    1f9d: 80 02        	bra	$1fa1 <dispatchAction+0x345>
    1f9f: 49 20        	eor	#$20
    1fa1: 91 12        	sta	($12),y                 ; 0x2012 <dispatchAction+0x3b6>
    1fa3: a5 e1        	lda	$e1                     ; 0x20e1 <dispatchAction+0x485>
    1fa5: a6 e2        	ldx	$e2                     ; 0x20e2 <dispatchAction+0x486>
    1fa7: 85 12        	sta	$12                     ; 0x2012 <dispatchAction+0x3b6>
    1fa9: 86 13        	stx	$13                     ; 0x2013 <dispatchAction+0x3b7>
    1fab: a0 04        	ldy	#$4
    1fad: 18           	clc
    1fae: 69 04        	adc	#$4
    1fb0: 85 14        	sta	$14                     ; 0x2014 <dispatchAction+0x3b8>
    1fb2: 8a           	txa
    1fb3: 69 00        	adc	#$0
    1fb5: 85 15        	sta	$15                     ; 0x2015 <dispatchAction+0x3b9>
    1fb7: b1 12        	lda	($12),y                 ; 0x2012 <dispatchAction+0x3b6>
    1fb9: 85 12        	sta	$12                     ; 0x2012 <dispatchAction+0x3b6>
    1fbb: a0 01        	ldy	#$1
    1fbd: b1 14        	lda	($14),y                 ; 0x2014 <dispatchAction+0x3b8>
    1fbf: 85 13        	sta	$13                     ; 0x2013 <dispatchAction+0x3b7>
    1fc1: a0 05        	ldy	#$5
    1fc3: b1 12        	lda	($12),y                 ; 0x2012 <dispatchAction+0x3b6>
    1fc5: 20 81 50     	jsr	$5081 <sid_setCTRL>
    1fc8: a0 12        	ldy	#$12
    1fca: b1 24        	lda	($24),y                 ; 0x2024 <dispatchAction+0x3c8>
    1fcc: c9 1a        	cmp	#$1a
    1fce: f0 03        	beq	$1fd3 <dispatchAction+0x377>
    1fd0: 4c 34 20     	jmp	$2034 <dispatchAction+0x3d8>
    1fd3: a0 06        	ldy	#$6
    1fd5: b1 24        	lda	($24),y                 ; 0x2024 <dispatchAction+0x3c8>
    1fd7: aa           	tax
    1fd8: a5 e1        	lda	$e1                     ; 0x20e1 <dispatchAction+0x485>
    1fda: a4 e2        	ldy	$e2                     ; 0x20e2 <dispatchAction+0x486>
    1fdc: 84 14        	sty	$14                     ; 0x2014 <dispatchAction+0x3b8>
    1fde: 85 12        	sta	$12                     ; 0x2012 <dispatchAction+0x3b6>
    1fe0: 84 13        	sty	$13                     ; 0x2013 <dispatchAction+0x3b7>
    1fe2: a0 04        	ldy	#$4
    1fe4: 18           	clc
    1fe5: 69 04        	adc	#$4
    1fe7: 85 16        	sta	$16                     ; 0x2016 <dispatchAction+0x3ba>
    1fe9: a5 14        	lda	$14                     ; 0x2014 <dispatchAction+0x3b8>
    1feb: 69 00        	adc	#$0
    1fed: 5a           	phy
    1fee: a4 16        	ldy	$16                     ; 0x2016 <dispatchAction+0x3ba>
    1ff0: 84 14        	sty	$14                     ; 0x2014 <dispatchAction+0x3b8>
    1ff2: 7a           	ply
    1ff3: 85 15        	sta	$15                     ; 0x2015 <dispatchAction+0x3b9>
    1ff5: b1 12        	lda	($12),y                 ; 0x2012 <dispatchAction+0x3b6>
    1ff7: 85 12        	sta	$12                     ; 0x2012 <dispatchAction+0x3b6>
    1ff9: a0 01        	ldy	#$1
    1ffb: b1 14        	lda	($14),y                 ; 0x2014 <dispatchAction+0x3b8>
    1ffd: 85 13        	sta	$13                     ; 0x2013 <dispatchAction+0x3b7>
    1fff: a0 05        	ldy	#$5
    2001: b1 12        	lda	($12),y                 ; 0x2012 <dispatchAction+0x3b6>
    2003: e0 00        	cpx	#$0
    2005: f0 04        	beq	$200b <dispatchAction+0x3af>
    2007: 09 40        	ora	#$40
    2009: 80 02        	bra	$200d <dispatchAction+0x3b1>
    200b: 49 40        	eor	#$40
    200d: 91 12        	sta	($12),y                 ; 0x2012 <dispatchAction+0x3b6>
    200f: a5 e1        	lda	$e1                     ; 0x20e1 <dispatchAction+0x485>
    2011: a6 e2        	ldx	$e2                     ; 0x20e2 <dispatchAction+0x486>
    2013: 85 12        	sta	$12                     ; 0x2012 <dispatchAction+0x3b6>
    2015: 86 13        	stx	$13                     ; 0x2013 <dispatchAction+0x3b7>
    2017: a0 04        	ldy	#$4
    2019: 18           	clc
    201a: 69 04        	adc	#$4
    201c: 85 14        	sta	$14                     ; 0x2014 <dispatchAction+0x3b8>
    201e: 8a           	txa
    201f: 69 00        	adc	#$0
    2021: 85 15        	sta	$15                     ; 0x2015 <dispatchAction+0x3b9>
    2023: b1 12        	lda	($12),y                 ; 0x2012 <dispatchAction+0x3b6>
    2025: 85 12        	sta	$12                     ; 0x2012 <dispatchAction+0x3b6>
    2027: a0 01        	ldy	#$1
    2029: b1 14        	lda	($14),y                 ; 0x2014 <dispatchAction+0x3b8>
    202b: 85 13        	sta	$13                     ; 0x2013 <dispatchAction+0x3b7>
    202d: a0 05        	ldy	#$5
    202f: b1 12        	lda	($12),y                 ; 0x2012 <dispatchAction+0x3b6>
    2031: 20 81 50     	jsr	$5081 <sid_setCTRL>
    2034: a0 12        	ldy	#$12
    2036: b1 24        	lda	($24),y                 ; 0x2024 <dispatchAction+0x3c8>
    2038: c9 1b        	cmp	#$1b
    203a: f0 03        	beq	$203f <dispatchAction+0x3e3>
    203c: 4c a2 20     	jmp	$20a2 <dispatchAction+0x446>
    203f: a0 06        	ldy	#$6
    2041: b1 24        	lda	($24),y                 ; 0x2024 <dispatchAction+0x3c8>
    2043: aa           	tax
    2044: a5 e1        	lda	$e1                     ; 0x20e1 <dispatchAction+0x485>
    2046: a4 e2        	ldy	$e2                     ; 0x20e2 <dispatchAction+0x486>
    2048: 84 14        	sty	$14                     ; 0x2014 <dispatchAction+0x3b8>
    204a: 85 12        	sta	$12                     ; 0x2012 <dispatchAction+0x3b6>
    204c: 84 13        	sty	$13                     ; 0x2013 <dispatchAction+0x3b7>
    204e: a0 04        	ldy	#$4
    2050: 18           	clc
    2051: 69 04        	adc	#$4
    2053: 85 16        	sta	$16                     ; 0x2016 <dispatchAction+0x3ba>
    2055: a5 14        	lda	$14                     ; 0x2014 <dispatchAction+0x3b8>
    2057: 69 00        	adc	#$0
    2059: 5a           	phy
    205a: a4 16        	ldy	$16                     ; 0x2016 <dispatchAction+0x3ba>
    205c: 84 14        	sty	$14                     ; 0x2014 <dispatchAction+0x3b8>
    205e: 7a           	ply
    205f: 85 15        	sta	$15                     ; 0x2015 <dispatchAction+0x3b9>
    2061: b1 12        	lda	($12),y                 ; 0x2012 <dispatchAction+0x3b6>
    2063: 85 12        	sta	$12                     ; 0x2012 <dispatchAction+0x3b6>
    2065: a0 01        	ldy	#$1
    2067: b1 14        	lda	($14),y                 ; 0x2014 <dispatchAction+0x3b8>
    2069: 85 13        	sta	$13                     ; 0x2013 <dispatchAction+0x3b7>
    206b: a0 05        	ldy	#$5
    206d: b1 12        	lda	($12),y                 ; 0x2012 <dispatchAction+0x3b6>
    206f: e0 00        	cpx	#$0
    2071: f0 04        	beq	$2077 <dispatchAction+0x41b>
    2073: 09 80        	ora	#$80
    2075: 80 02        	bra	$2079 <dispatchAction+0x41d>
    2077: 49 80        	eor	#$80
    2079: 91 12        	sta	($12),y                 ; 0x2012 <dispatchAction+0x3b6>
    207b: a5 e1        	lda	$e1                     ; 0x20e1 <dispatchAction+0x485>
    207d: a6 e2        	ldx	$e2                     ; 0x20e2 <dispatchAction+0x486>
    207f: 85 12        	sta	$12                     ; 0x2012 <dispatchAction+0x3b6>
    2081: 86 13        	stx	$13                     ; 0x2013 <dispatchAction+0x3b7>
    2083: a0 04        	ldy	#$4
    2085: 18           	clc
    2086: 69 04        	adc	#$4
    2088: 85 14        	sta	$14                     ; 0x2014 <dispatchAction+0x3b8>
    208a: 8a           	txa
    208b: 69 00        	adc	#$0
    208d: 85 15        	sta	$15                     ; 0x2015 <dispatchAction+0x3b9>
    208f: b1 12        	lda	($12),y                 ; 0x2012 <dispatchAction+0x3b6>
    2091: 85 12        	sta	$12                     ; 0x2012 <dispatchAction+0x3b6>
    2093: a0 01        	ldy	#$1
    2095: b1 14        	lda	($14),y                 ; 0x2014 <dispatchAction+0x3b8>
    2097: 85 13        	sta	$13                     ; 0x2013 <dispatchAction+0x3b7>
    2099: a0 05        	ldy	#$5
    209b: b1 12        	lda	($12),y                 ; 0x2012 <dispatchAction+0x3b6>
    209d: 20 81 50     	jsr	$5081 <sid_setCTRL>
    20a0: a0 12        	ldy	#$12
    20a2: b1 24        	lda	($24),y                 ; 0x2024 <dispatchAction+0x3c8>
    20a4: c9 31        	cmp	#$31
    20a6: f0 03        	beq	$20ab <dispatchAction+0x44f>
    20a8: 4c 0c 21     	jmp	$210c <dispatchAction+0x4b0>
    20ab: a0 06        	ldy	#$6
    20ad: b1 24        	lda	($24),y                 ; 0x2024 <dispatchAction+0x3c8>
    20af: aa           	tax
    20b0: a5 e1        	lda	$e1                     ; 0x20e1 <dispatchAction+0x485>
    20b2: a4 e2        	ldy	$e2                     ; 0x20e2 <dispatchAction+0x486>
    20b4: 84 14        	sty	$14                     ; 0x2014 <dispatchAction+0x3b8>
    20b6: 85 12        	sta	$12                     ; 0x2012 <dispatchAction+0x3b6>
    20b8: 84 13        	sty	$13                     ; 0x2013 <dispatchAction+0x3b7>
    20ba: a0 04        	ldy	#$4
    20bc: 18           	clc
    20bd: 69 04        	adc	#$4
    20bf: 85 16        	sta	$16                     ; 0x2016 <dispatchAction+0x3ba>
    20c1: a5 14        	lda	$14                     ; 0x2014 <dispatchAction+0x3b8>
    20c3: 69 00        	adc	#$0
    20c5: 5a           	phy
    20c6: a4 16        	ldy	$16                     ; 0x2016 <dispatchAction+0x3ba>
    20c8: 84 14        	sty	$14                     ; 0x2014 <dispatchAction+0x3b8>
    20ca: 7a           	ply
    20cb: 85 15        	sta	$15                     ; 0x2015 <dispatchAction+0x3b9>
    20cd: b1 12        	lda	($12),y                 ; 0x2012 <dispatchAction+0x3b6>
    20cf: 85 12        	sta	$12                     ; 0x2012 <dispatchAction+0x3b6>
    20d1: a0 01        	ldy	#$1
    20d3: b1 14        	lda	($14),y                 ; 0x2014 <dispatchAction+0x3b8>
    20d5: 85 13        	sta	$13                     ; 0x2013 <dispatchAction+0x3b7>
    20d7: a0 05        	ldy	#$5
    20d9: b1 12        	lda	($12),y                 ; 0x2012 <dispatchAction+0x3b6>
    20db: e0 00        	cpx	#$0
    20dd: f0 04        	beq	$20e3 <dispatchAction+0x487>
    20df: 09 02        	ora	#$2
    20e1: 80 02        	bra	$20e5 <dispatchAction+0x489>
    20e3: 49 02        	eor	#$2
    20e5: 91 12        	sta	($12),y                 ; 0x2012 <dispatchAction+0x3b6>
    20e7: a5 e1        	lda	$e1                     ; 0x20e1 <dispatchAction+0x485>
    20e9: a6 e2        	ldx	$e2                     ; 0x20e2 <dispatchAction+0x486>
    20eb: 85 12        	sta	$12                     ; 0x2012 <dispatchAction+0x3b6>
    20ed: 86 13        	stx	$13                     ; 0x2013 <dispatchAction+0x3b7>
    20ef: a0 04        	ldy	#$4
    20f1: 18           	clc
    20f2: 69 04        	adc	#$4
    20f4: 85 14        	sta	$14                     ; 0x2014 <dispatchAction+0x3b8>
    20f6: 8a           	txa
    20f7: 69 00        	adc	#$0
    20f9: 85 15        	sta	$15                     ; 0x2015 <dispatchAction+0x3b9>
    20fb: b1 12        	lda	($12),y                 ; 0x2012 <dispatchAction+0x3b6>
    20fd: 85 12        	sta	$12                     ; 0x2012 <dispatchAction+0x3b6>
    20ff: a0 01        	ldy	#$1
    2101: b1 14        	lda	($14),y                 ; 0x2014 <dispatchAction+0x3b8>
    2103: 85 13        	sta	$13                     ; 0x2013 <dispatchAction+0x3b7>
    2105: a0 05        	ldy	#$5
    2107: b1 12        	lda	($12),y                 ; 0x2012 <dispatchAction+0x3b6>
    2109: 20 81 50     	jsr	$5081 <sid_setCTRL>
    210c: a0 12        	ldy	#$12
    210e: b1 24        	lda	($24),y                 ; 0x2024 <dispatchAction+0x3c8>
    2110: c9 31        	cmp	#$31
    2112: f0 03        	beq	$2117 <dispatchAction+0x4bb>
    2114: 4c 7a 21     	jmp	$217a <dispatchAction+0x51e>
    2117: a0 06        	ldy	#$6
    2119: b1 24        	lda	($24),y                 ; 0x2024 <dispatchAction+0x3c8>
    211b: aa           	tax
    211c: a5 e1        	lda	$e1                     ; 0x20e1 <dispatchAction+0x485>
    211e: a4 e2        	ldy	$e2                     ; 0x20e2 <dispatchAction+0x486>
    2120: 84 14        	sty	$14                     ; 0x2014 <dispatchAction+0x3b8>
    2122: 85 12        	sta	$12                     ; 0x2012 <dispatchAction+0x3b6>
    2124: 84 13        	sty	$13                     ; 0x2013 <dispatchAction+0x3b7>
    2126: a0 04        	ldy	#$4
    2128: 18           	clc
    2129: 69 04        	adc	#$4
    212b: 85 16        	sta	$16                     ; 0x2016 <dispatchAction+0x3ba>
    212d: a5 14        	lda	$14                     ; 0x2014 <dispatchAction+0x3b8>
    212f: 69 00        	adc	#$0
    2131: 5a           	phy
    2132: a4 16        	ldy	$16                     ; 0x2016 <dispatchAction+0x3ba>
    2134: 84 14        	sty	$14                     ; 0x2014 <dispatchAction+0x3b8>
    2136: 7a           	ply
    2137: 85 15        	sta	$15                     ; 0x2015 <dispatchAction+0x3b9>
    2139: b1 12        	lda	($12),y                 ; 0x2012 <dispatchAction+0x3b6>
    213b: 85 12        	sta	$12                     ; 0x2012 <dispatchAction+0x3b6>
    213d: a0 01        	ldy	#$1
    213f: b1 14        	lda	($14),y                 ; 0x2014 <dispatchAction+0x3b8>
    2141: 85 13        	sta	$13                     ; 0x2013 <dispatchAction+0x3b7>
    2143: a0 08        	ldy	#$8
    2145: b1 12        	lda	($12),y                 ; 0x2012 <dispatchAction+0x3b6>
    2147: e0 00        	cpx	#$0
    2149: f0 04        	beq	$214f <dispatchAction+0x4f3>
    214b: 09 01        	ora	#$1
    214d: 80 02        	bra	$2151 <dispatchAction+0x4f5>
    214f: 49 01        	eor	#$1
    2151: 91 12        	sta	($12),y                 ; 0x2012 <dispatchAction+0x3b6>
    2153: a5 e1        	lda	$e1                     ; 0x20e1 <dispatchAction+0x485>
    2155: a6 e2        	ldx	$e2                     ; 0x20e2 <dispatchAction+0x486>
    2157: 85 12        	sta	$12                     ; 0x2012 <dispatchAction+0x3b6>
    2159: 86 13        	stx	$13                     ; 0x2013 <dispatchAction+0x3b7>
    215b: a0 04        	ldy	#$4
    215d: 18           	clc
    215e: 69 04        	adc	#$4
    2160: 85 14        	sta	$14                     ; 0x2014 <dispatchAction+0x3b8>
    2162: 8a           	txa
    2163: 69 00        	adc	#$0
    2165: 85 15        	sta	$15                     ; 0x2015 <dispatchAction+0x3b9>
    2167: b1 12        	lda	($12),y                 ; 0x2012 <dispatchAction+0x3b6>
    2169: 85 12        	sta	$12                     ; 0x2012 <dispatchAction+0x3b6>
    216b: a0 01        	ldy	#$1
    216d: b1 14        	lda	($14),y                 ; 0x2014 <dispatchAction+0x3b8>
    216f: 85 13        	sta	$13                     ; 0x2013 <dispatchAction+0x3b7>
    2171: a0 08        	ldy	#$8
    2173: b1 12        	lda	($12),y                 ; 0x2012 <dispatchAction+0x3b6>
    2175: 20 e5 50     	jsr	$50e5 <sid_setFILT>
    2178: a0 12        	ldy	#$12
    217a: b1 24        	lda	($24),y                 ; 0x2024 <dispatchAction+0x3c8>
    217c: c9 2c        	cmp	#$2c
    217e: f0 03        	beq	$2183 <dispatchAction+0x527>
    2180: 4c e0 21     	jmp	$21e0 <dispatchAction+0x584>
    2183: a0 06        	ldy	#$6
    2185: b1 24        	lda	($24),y                 ; 0x2024 <dispatchAction+0x3c8>
    2187: aa           	tax
    2188: a5 e1        	lda	$e1                     ; 0x20e1 <dispatchAction+0x485>
    218a: a4 e2        	ldy	$e2                     ; 0x20e2 <dispatchAction+0x486>
    218c: 84 14        	sty	$14                     ; 0x2014 <dispatchAction+0x3b8>
    218e: 85 12        	sta	$12                     ; 0x2012 <dispatchAction+0x3b6>
    2190: 84 13        	sty	$13                     ; 0x2013 <dispatchAction+0x3b7>
    2192: a0 04        	ldy	#$4
    2194: 18           	clc
    2195: 69 04        	adc	#$4
    2197: 85 16        	sta	$16                     ; 0x2016 <dispatchAction+0x3ba>
    2199: a5 14        	lda	$14                     ; 0x2014 <dispatchAction+0x3b8>
    219b: 69 00        	adc	#$0
    219d: 5a           	phy
    219e: a4 16        	ldy	$16                     ; 0x2016 <dispatchAction+0x3ba>
    21a0: 84 14        	sty	$14                     ; 0x2014 <dispatchAction+0x3b8>
    21a2: 7a           	ply
    21a3: 85 15        	sta	$15                     ; 0x2015 <dispatchAction+0x3b9>
    21a5: b1 12        	lda	($12),y                 ; 0x2012 <dispatchAction+0x3b6>
    21a7: 85 12        	sta	$12                     ; 0x2012 <dispatchAction+0x3b6>
    21a9: a0 01        	ldy	#$1
    21ab: b1 14        	lda	($14),y                 ; 0x2014 <dispatchAction+0x3b8>
    21ad: 85 13        	sta	$13                     ; 0x2013 <dispatchAction+0x3b7>
    21af: b2 12        	lda	($12)                   ; 0x2012 <dispatchAction+0x3b6>
    21b1: e0 00        	cpx	#$0
    21b3: f0 04        	beq	$21b9 <dispatchAction+0x55d>
    21b5: 09 10        	ora	#$10
    21b7: 80 02        	bra	$21bb <dispatchAction+0x55f>
    21b9: 49 10        	eor	#$10
    21bb: 92 12        	sta	($12)                   ; 0x2012 <dispatchAction+0x3b6>
    21bd: a5 e1        	lda	$e1                     ; 0x20e1 <dispatchAction+0x485>
    21bf: a6 e2        	ldx	$e2                     ; 0x20e2 <dispatchAction+0x486>
    21c1: 85 12        	sta	$12                     ; 0x2012 <dispatchAction+0x3b6>
    21c3: 86 13        	stx	$13                     ; 0x2013 <dispatchAction+0x3b7>
    21c5: a0 04        	ldy	#$4
    21c7: 18           	clc
    21c8: 69 04        	adc	#$4
    21ca: 85 14        	sta	$14                     ; 0x2014 <dispatchAction+0x3b8>
    21cc: 8a           	txa
    21cd: 69 00        	adc	#$0
    21cf: 85 15        	sta	$15                     ; 0x2015 <dispatchAction+0x3b9>
    21d1: b1 12        	lda	($12),y                 ; 0x2012 <dispatchAction+0x3b6>
    21d3: 85 12        	sta	$12                     ; 0x2012 <dispatchAction+0x3b6>
    21d5: a0 01        	ldy	#$1
    21d7: b1 14        	lda	($14),y                 ; 0x2014 <dispatchAction+0x3b8>
    21d9: 85 13        	sta	$13                     ; 0x2013 <dispatchAction+0x3b7>
    21db: b2 12        	lda	($12)                   ; 0x2012 <dispatchAction+0x3b6>
    21dd: 20 de 50     	jsr	$50de <sid_setModVol>
    21e0: a0 12        	ldy	#$12
    21e2: b1 24        	lda	($24),y                 ; 0x2024 <dispatchAction+0x3c8>
    21e4: c9 2d        	cmp	#$2d
    21e6: f0 03        	beq	$21eb <dispatchAction+0x58f>
    21e8: 4c 4a 22     	jmp	$224a <dispatchAction+0x5ee>
    21eb: a0 06        	ldy	#$6
    21ed: b1 24        	lda	($24),y                 ; 0x2024 <dispatchAction+0x3c8>
    21ef: aa           	tax
    21f0: a5 e1        	lda	$e1                     ; 0x20e1 <dispatchAction+0x485>
    21f2: a4 e2        	ldy	$e2                     ; 0x20e2 <dispatchAction+0x486>
    21f4: 84 14        	sty	$14                     ; 0x2014 <dispatchAction+0x3b8>
    21f6: 85 12        	sta	$12                     ; 0x2012 <dispatchAction+0x3b6>
    21f8: 84 13        	sty	$13                     ; 0x2013 <dispatchAction+0x3b7>
    21fa: a0 04        	ldy	#$4
    21fc: 18           	clc
    21fd: 69 04        	adc	#$4
    21ff: 85 16        	sta	$16                     ; 0x2016 <dispatchAction+0x3ba>
    2201: a5 14        	lda	$14                     ; 0x2014 <dispatchAction+0x3b8>
    2203: 69 00        	adc	#$0
    2205: 5a           	phy
    2206: a4 16        	ldy	$16                     ; 0x2016 <dispatchAction+0x3ba>
    2208: 84 14        	sty	$14                     ; 0x2014 <dispatchAction+0x3b8>
    220a: 7a           	ply
    220b: 85 15        	sta	$15                     ; 0x2015 <dispatchAction+0x3b9>
    220d: b1 12        	lda	($12),y                 ; 0x2012 <dispatchAction+0x3b6>
    220f: 85 12        	sta	$12                     ; 0x2012 <dispatchAction+0x3b6>
    2211: a0 01        	ldy	#$1
    2213: b1 14        	lda	($14),y                 ; 0x2014 <dispatchAction+0x3b8>
    2215: 85 13        	sta	$13                     ; 0x2013 <dispatchAction+0x3b7>
    2217: b2 12        	lda	($12)                   ; 0x2012 <dispatchAction+0x3b6>
    2219: e0 00        	cpx	#$0
    221b: f0 04        	beq	$2221 <dispatchAction+0x5c5>
    221d: 09 20        	ora	#$20
    221f: 80 02        	bra	$2223 <dispatchAction+0x5c7>
    2221: 49 20        	eor	#$20
    2223: 92 12        	sta	($12)                   ; 0x2012 <dispatchAction+0x3b6>
    2225: a5 e1        	lda	$e1                     ; 0x20e1 <dispatchAction+0x485>
    2227: a6 e2        	ldx	$e2                     ; 0x20e2 <dispatchAction+0x486>
    2229: 85 12        	sta	$12                     ; 0x2012 <dispatchAction+0x3b6>
    222b: 86 13        	stx	$13                     ; 0x2013 <dispatchAction+0x3b7>
    222d: a0 04        	ldy	#$4
    222f: 18           	clc
    2230: 69 04        	adc	#$4
    2232: 85 14        	sta	$14                     ; 0x2014 <dispatchAction+0x3b8>
    2234: 8a           	txa
    2235: 69 00        	adc	#$0
    2237: 85 15        	sta	$15                     ; 0x2015 <dispatchAction+0x3b9>
    2239: b1 12        	lda	($12),y                 ; 0x2012 <dispatchAction+0x3b6>
    223b: 85 12        	sta	$12                     ; 0x2012 <dispatchAction+0x3b6>
    223d: a0 01        	ldy	#$1
    223f: b1 14        	lda	($14),y                 ; 0x2014 <dispatchAction+0x3b8>
    2241: 85 13        	sta	$13                     ; 0x2013 <dispatchAction+0x3b7>
    2243: b2 12        	lda	($12)                   ; 0x2012 <dispatchAction+0x3b6>
    2245: 20 de 50     	jsr	$50de <sid_setModVol>
    2248: a0 12        	ldy	#$12
    224a: b1 24        	lda	($24),y                 ; 0x2024 <dispatchAction+0x3c8>
    224c: c9 2e        	cmp	#$2e
    224e: f0 03        	beq	$2253 <dispatchAction+0x5f7>
    2250: 4c b0 22     	jmp	$22b0 <dispatchAction+0x654>
    2253: a0 06        	ldy	#$6
    2255: b1 24        	lda	($24),y                 ; 0x2024 <dispatchAction+0x3c8>
    2257: aa           	tax
    2258: a5 e1        	lda	$e1                     ; 0x20e1 <dispatchAction+0x485>
    225a: a4 e2        	ldy	$e2                     ; 0x20e2 <dispatchAction+0x486>
    225c: 84 14        	sty	$14                     ; 0x2014 <dispatchAction+0x3b8>
    225e: 85 12        	sta	$12                     ; 0x2012 <dispatchAction+0x3b6>
    2260: 84 13        	sty	$13                     ; 0x2013 <dispatchAction+0x3b7>
    2262: a0 04        	ldy	#$4
    2264: 18           	clc
    2265: 69 04        	adc	#$4
    2267: 85 16        	sta	$16                     ; 0x2016 <dispatchAction+0x3ba>
    2269: a5 14        	lda	$14                     ; 0x2014 <dispatchAction+0x3b8>
    226b: 69 00        	adc	#$0
    226d: 5a           	phy
    226e: a4 16        	ldy	$16                     ; 0x2016 <dispatchAction+0x3ba>
    2270: 84 14        	sty	$14                     ; 0x2014 <dispatchAction+0x3b8>
    2272: 7a           	ply
    2273: 85 15        	sta	$15                     ; 0x2015 <dispatchAction+0x3b9>
    2275: b1 12        	lda	($12),y                 ; 0x2012 <dispatchAction+0x3b6>
    2277: 85 12        	sta	$12                     ; 0x2012 <dispatchAction+0x3b6>
    2279: a0 01        	ldy	#$1
    227b: b1 14        	lda	($14),y                 ; 0x2014 <dispatchAction+0x3b8>
    227d: 85 13        	sta	$13                     ; 0x2013 <dispatchAction+0x3b7>
    227f: b2 12        	lda	($12)                   ; 0x2012 <dispatchAction+0x3b6>
    2281: e0 00        	cpx	#$0
    2283: f0 04        	beq	$2289 <dispatchAction+0x62d>
    2285: 09 40        	ora	#$40
    2287: 80 02        	bra	$228b <dispatchAction+0x62f>
    2289: 49 40        	eor	#$40
    228b: 92 12        	sta	($12)                   ; 0x2012 <dispatchAction+0x3b6>
    228d: a5 e1        	lda	$e1                     ; 0x20e1 <dispatchAction+0x485>
    228f: a6 e2        	ldx	$e2                     ; 0x20e2 <dispatchAction+0x486>
    2291: 85 12        	sta	$12                     ; 0x2012 <dispatchAction+0x3b6>
    2293: 86 13        	stx	$13                     ; 0x2013 <dispatchAction+0x3b7>
    2295: a0 04        	ldy	#$4
    2297: 18           	clc
    2298: 69 04        	adc	#$4
    229a: 85 14        	sta	$14                     ; 0x2014 <dispatchAction+0x3b8>
    229c: 8a           	txa
    229d: 69 00        	adc	#$0
    229f: 85 15        	sta	$15                     ; 0x2015 <dispatchAction+0x3b9>
    22a1: b1 12        	lda	($12),y                 ; 0x2012 <dispatchAction+0x3b6>
    22a3: 85 12        	sta	$12                     ; 0x2012 <dispatchAction+0x3b6>
    22a5: a0 01        	ldy	#$1
    22a7: b1 14        	lda	($14),y                 ; 0x2014 <dispatchAction+0x3b8>
    22a9: 85 13        	sta	$13                     ; 0x2013 <dispatchAction+0x3b7>
    22ab: b2 12        	lda	($12)                   ; 0x2012 <dispatchAction+0x3b6>
    22ad: 20 de 50     	jsr	$50de <sid_setModVol>
    22b0: a0 12        	ldy	#$12
    22b2: b1 24        	lda	($24),y                 ; 0x2024 <dispatchAction+0x3c8>
    22b4: c9 2f        	cmp	#$2f
    22b6: f0 03        	beq	$22bb <dispatchAction+0x65f>
    22b8: 4c 33 23     	jmp	$2333 <dispatchAction+0x6d7>
    22bb: a0 06        	ldy	#$6
    22bd: b1 24        	lda	($24),y                 ; 0x2024 <dispatchAction+0x3c8>
    22bf: aa           	tax
    22c0: a5 e1        	lda	$e1                     ; 0x20e1 <dispatchAction+0x485>
    22c2: a4 e2        	ldy	$e2                     ; 0x20e2 <dispatchAction+0x486>
    22c4: 84 14        	sty	$14                     ; 0x2014 <dispatchAction+0x3b8>
    22c6: 85 12        	sta	$12                     ; 0x2012 <dispatchAction+0x3b6>
    22c8: 84 13        	sty	$13                     ; 0x2013 <dispatchAction+0x3b7>
    22ca: a0 04        	ldy	#$4
    22cc: 18           	clc
    22cd: 69 04        	adc	#$4
    22cf: 85 16        	sta	$16                     ; 0x2016 <dispatchAction+0x3ba>
    22d1: a5 14        	lda	$14                     ; 0x2014 <dispatchAction+0x3b8>
    22d3: 69 00        	adc	#$0
    22d5: 5a           	phy
    22d6: a4 16        	ldy	$16                     ; 0x2016 <dispatchAction+0x3ba>
    22d8: 84 14        	sty	$14                     ; 0x2014 <dispatchAction+0x3b8>
    22da: 7a           	ply
    22db: 85 15        	sta	$15                     ; 0x2015 <dispatchAction+0x3b9>
    22dd: b1 12        	lda	($12),y                 ; 0x2012 <dispatchAction+0x3b6>
    22df: 85 12        	sta	$12                     ; 0x2012 <dispatchAction+0x3b6>
    22e1: a0 01        	ldy	#$1
    22e3: b1 14        	lda	($14),y                 ; 0x2014 <dispatchAction+0x3b8>
    22e5: 85 13        	sta	$13                     ; 0x2013 <dispatchAction+0x3b7>
    22e7: b2 12        	lda	($12)                   ; 0x2012 <dispatchAction+0x3b6>
    22e9: e0 00        	cpx	#$0
    22eb: f0 08        	beq	$22f5 <dispatchAction+0x699>
    22ed: 09 80        	ora	#$80
    22ef: 92 12        	sta	($12)                   ; 0x2012 <dispatchAction+0x3b6>
    22f1: a9 3f        	lda	#$3f
    22f3: 80 0b        	bra	$2300 <dispatchAction+0x6a4>
    22f5: 49 80        	eor	#$80
    22f7: 92 12        	sta	($12)                   ; 0x2012 <dispatchAction+0x3b6>
    22f9: 20 de 50     	jsr	$50de <sid_setModVol>
    22fc: a9 3a        	lda	#$3a
    22fe: a0 00        	ldy	#$0
    2300: 84 b0        	sty	$b0                     ; 0x20b0 <dispatchAction+0x454>
    2302: 84 ad        	sty	$ad                     ; 0x20ad <dispatchAction+0x451>
    2304: a0 01        	ldy	#$1
    2306: a2 e1        	ldx	#$e1
    2308: 86 12        	stx	$12                     ; 0x2012 <dispatchAction+0x3b6>
    230a: a2 6e        	ldx	#$6e
    230c: 86 13        	stx	$13                     ; 0x2013 <dispatchAction+0x3b7>
    230e: 64 14        	stz	$14                     ; 0x2014 <dispatchAction+0x3b8>
    2310: 84 15        	sty	$15                     ; 0x2015 <dispatchAction+0x3b9>
    2312: 64 16        	stz	$16                     ; 0x2016 <dispatchAction+0x3ba>
    2314: a2 00        	ldx	#$0
    2316: 85 26        	sta	$26                     ; 0x2026 <dispatchAction+0x3ca>
    2318: 20 f9 45     	jsr	$45f9 <setLighter>
    231b: a2 f5        	ldx	#$f5
    231d: 86 12        	stx	$12                     ; 0x2012 <dispatchAction+0x3b6>
    231f: a2 6e        	ldx	#$6e
    2321: 86 13        	stx	$13                     ; 0x2013 <dispatchAction+0x3b7>
    2323: 64 14        	stz	$14                     ; 0x2014 <dispatchAction+0x3b8>
    2325: a2 01        	ldx	#$1
    2327: 86 15        	stx	$15                     ; 0x2015 <dispatchAction+0x3b9>
    2329: 64 16        	stz	$16                     ; 0x2016 <dispatchAction+0x3ba>
    232b: ca           	dex
    232c: a5 26        	lda	$26                     ; 0x2026 <dispatchAction+0x3ca>
    232e: 20 f9 45     	jsr	$45f9 <setLighter>
    2331: a0 12        	ldy	#$12
    2333: b1 24        	lda	($24),y                 ; 0x2024 <dispatchAction+0x3c8>
    2335: c9 30        	cmp	#$30
    2337: d0 4b        	bne	$2384 <dispatchAction+0x728>
    2339: a0 06        	ldy	#$6
    233b: b1 24        	lda	($24),y                 ; 0x2024 <dispatchAction+0x3c8>
    233d: aa           	tax
    233e: a5 e1        	lda	$e1                     ; 0x20e1 <dispatchAction+0x485>
    2340: a4 e2        	ldy	$e2                     ; 0x20e2 <dispatchAction+0x486>
    2342: 84 14        	sty	$14                     ; 0x2014 <dispatchAction+0x3b8>
    2344: 85 12        	sta	$12                     ; 0x2012 <dispatchAction+0x3b6>
    2346: 84 13        	sty	$13                     ; 0x2013 <dispatchAction+0x3b7>
    2348: a0 04        	ldy	#$4
    234a: 18           	clc
    234b: 69 04        	adc	#$4
    234d: 85 16        	sta	$16                     ; 0x2016 <dispatchAction+0x3ba>
    234f: a5 14        	lda	$14                     ; 0x2014 <dispatchAction+0x3b8>
    2351: 69 00        	adc	#$0
    2353: 5a           	phy
    2354: a4 16        	ldy	$16                     ; 0x2016 <dispatchAction+0x3ba>
    2356: 84 14        	sty	$14                     ; 0x2014 <dispatchAction+0x3b8>
    2358: 7a           	ply
    2359: 85 15        	sta	$15                     ; 0x2015 <dispatchAction+0x3b9>
    235b: b1 12        	lda	($12),y                 ; 0x2012 <dispatchAction+0x3b6>
    235d: 85 12        	sta	$12                     ; 0x2012 <dispatchAction+0x3b6>
    235f: a0 01        	ldy	#$1
    2361: b1 14        	lda	($14),y                 ; 0x2014 <dispatchAction+0x3b8>
    2363: 85 13        	sta	$13                     ; 0x2013 <dispatchAction+0x3b7>
    2365: a0 05        	ldy	#$5
    2367: b1 12        	lda	($12),y                 ; 0x2012 <dispatchAction+0x3b6>
    2369: e0 00        	cpx	#$0
    236b: f0 0c        	beq	$2379 <dispatchAction+0x71d>
    236d: 09 04        	ora	#$4
    236f: 91 12        	sta	($12),y                 ; 0x2012 <dispatchAction+0x3b6>
    2371: a2 01        	ldx	#$1
    2373: 86 ad        	stx	$ad                     ; 0x20ad <dispatchAction+0x451>
    2375: 86 b0        	stx	$b0                     ; 0x20b0 <dispatchAction+0x454>
    2377: 80 0b        	bra	$2384 <dispatchAction+0x728>
    2379: 49 04        	eor	#$4
    237b: 91 12        	sta	($12),y                 ; 0x2012 <dispatchAction+0x3b6>
    237d: 20 81 50     	jsr	$5081 <sid_setCTRL>
    2380: 64 ad        	stz	$ad                     ; 0x20ad <dispatchAction+0x451>
    2382: 64 b0        	stz	$b0                     ; 0x20b0 <dispatchAction+0x454>
    2384: a0 00        	ldy	#$0
    2386: b1 10        	lda	($10),y                 ; 0x2010 <dispatchAction+0x3b4>
    2388: 85 28        	sta	$28                     ; 0x2028 <dispatchAction+0x3cc>
    238a: fa           	plx
    238b: 86 27        	stx	$27                     ; 0x2027 <dispatchAction+0x3cb>
    238d: fa           	plx
    238e: 86 26        	stx	$26                     ; 0x2026 <dispatchAction+0x3ca>
    2390: fa           	plx
    2391: 86 25        	stx	$25                     ; 0x2025 <dispatchAction+0x3c9>
    2393: fa           	plx
    2394: 86 24        	stx	$24                     ; 0x2024 <dispatchAction+0x3c8>
    2396: 18           	clc
    2397: a5 10        	lda	$10                     ; 0x2010 <dispatchAction+0x3b4>
    2399: 69 03        	adc	#$3
    239b: 85 10        	sta	$10                     ; 0x2010 <dispatchAction+0x3b4>
    239d: a5 11        	lda	$11                     ; 0x2011 <dispatchAction+0x3b5>
    239f: 69 00        	adc	#$0
    23a1: 85 11        	sta	$11                     ; 0x2011 <dispatchAction+0x3b5>
    23a3: 60           	rts
    23a4: 20 4c 33     	jsr	$334c <loadGUIOPL>
    23a7: 4c 8a 1d     	jmp	$1d8a <dispatchAction+0x12e>
    23aa: 20 e9 26     	jsr	$26e9 <loadGUISID>
    23ad: 4c 8a 1d     	jmp	$1d8a <dispatchAction+0x12e>

000023b0 <textLayerGen>:
    23b0: 18           	clc
    23b1: a5 10        	lda	$10                     ; 0x2010 <dispatchAction+0x3b4>
    23b3: 69 fc        	adc	#$fc
    23b5: 85 10        	sta	$10                     ; 0x2010 <dispatchAction+0x3b4>
    23b7: a5 11        	lda	$11                     ; 0x2011 <dispatchAction+0x3b5>
    23b9: 69 ff        	adc	#$ff
    23bb: 85 11        	sta	$11                     ; 0x2011 <dispatchAction+0x3b5>
    23bd: a9 00        	lda	#$0
    23bf: 64 92        	stz	$92                     ; 0x2092 <dispatchAction+0x436>
    23c1: 9c 14 d0     	stz	$d014                   ; 0xd014 <end_block9+0x5d1e>
    23c4: 9c 15 d0     	stz	$d015                   ; 0xd015 <end_block9+0x5d1f>
    23c7: 64 93        	stz	$93                     ; 0x2093 <dispatchAction+0x437>
    23c9: 9c 16 d0     	stz	$d016                   ; 0xd016 <end_block9+0x5d20>
    23cc: 9c 17 d0     	stz	$d017                   ; 0xd017 <end_block9+0x5d21>
    23cf: 92 10        	sta	($10)                   ; 0x2010 <dispatchAction+0x3b4>
    23d1: a0 01        	ldy	#$1
    23d3: 91 10        	sta	($10),y                 ; 0x2010 <dispatchAction+0x3b4>
    23d5: c8           	iny
    23d6: 1a           	inc
    23d7: 91 10        	sta	($10),y                 ; 0x2010 <dispatchAction+0x3b4>
    23d9: c8           	iny
    23da: 3a           	dec
    23db: 91 10        	sta	($10),y                 ; 0x2010 <dispatchAction+0x3b4>
    23dd: a2 3c        	ldx	#$3c
    23df: 86 12        	stx	$12                     ; 0x2012 <dispatchAction+0x3b6>
    23e1: a2 6a        	ldx	#$6a
    23e3: 86 13        	stx	$13                     ; 0x2013 <dispatchAction+0x3b7>
    23e5: 20 97 63     	jsr	$6397 <printf>
    23e8: a2 06        	ldx	#$6
    23ea: 86 92        	stx	$92                     ; 0x2092 <dispatchAction+0x436>
    23ec: 8e 14 d0     	stx	$d014                   ; 0xd014 <end_block9+0x5d1e>
    23ef: 9c 15 d0     	stz	$d015                   ; 0xd015 <end_block9+0x5d1f>
    23f2: a2 02        	ldx	#$2
    23f4: 86 93        	stx	$93                     ; 0x2093 <dispatchAction+0x437>
    23f6: 8e 16 d0     	stx	$d016                   ; 0xd016 <end_block9+0x5d20>
    23f9: 9c 17 d0     	stz	$d017                   ; 0xd017 <end_block9+0x5d21>
    23fc: a2 8c        	ldx	#$8c
    23fe: 86 12        	stx	$12                     ; 0x2012 <dispatchAction+0x3b6>
    2400: a2 6a        	ldx	#$6a
    2402: 86 13        	stx	$13                     ; 0x2013 <dispatchAction+0x3b7>
    2404: 20 8f 24     	jsr	$248f <textPrint>
    2407: a2 06        	ldx	#$6
    2409: 86 92        	stx	$92                     ; 0x2092 <dispatchAction+0x436>
    240b: 8e 14 d0     	stx	$d014                   ; 0xd014 <end_block9+0x5d1e>
    240e: 9c 15 d0     	stz	$d015                   ; 0xd015 <end_block9+0x5d1f>
    2411: a2 04        	ldx	#$4
    2413: 86 93        	stx	$93                     ; 0x2093 <dispatchAction+0x437>
    2415: 8e 16 d0     	stx	$d016                   ; 0xd016 <end_block9+0x5d20>
    2418: 9c 17 d0     	stz	$d017                   ; 0xd017 <end_block9+0x5d21>
    241b: a2 1e        	ldx	#$1e
    241d: 86 12        	stx	$12                     ; 0x2012 <dispatchAction+0x3b6>
    241f: a2 6a        	ldx	#$6a
    2421: 86 13        	stx	$13                     ; 0x2013 <dispatchAction+0x3b7>
    2423: 20 8f 24     	jsr	$248f <textPrint>
    2426: a2 06        	ldx	#$6
    2428: 86 92        	stx	$92                     ; 0x2092 <dispatchAction+0x436>
    242a: 8e 14 d0     	stx	$d014                   ; 0xd014 <end_block9+0x5d1e>
    242d: 9c 15 d0     	stz	$d015                   ; 0xd015 <end_block9+0x5d1f>
    2430: 86 93        	stx	$93                     ; 0x2093 <dispatchAction+0x437>
    2432: 8e 16 d0     	stx	$d016                   ; 0xd016 <end_block9+0x5d20>
    2435: 9c 17 d0     	stz	$d017                   ; 0xd017 <end_block9+0x5d21>
    2438: a2 14        	ldx	#$14
    243a: 86 12        	stx	$12                     ; 0x2012 <dispatchAction+0x3b6>
    243c: a2 6a        	ldx	#$6a
    243e: 86 13        	stx	$13                     ; 0x2013 <dispatchAction+0x3b7>
    2440: 20 8f 24     	jsr	$248f <textPrint>
    2443: a2 06        	ldx	#$6
    2445: 86 92        	stx	$92                     ; 0x2092 <dispatchAction+0x436>
    2447: 8e 14 d0     	stx	$d014                   ; 0xd014 <end_block9+0x5d1e>
    244a: 9c 15 d0     	stz	$d015                   ; 0xd015 <end_block9+0x5d1f>
    244d: a2 08        	ldx	#$8
    244f: 86 93        	stx	$93                     ; 0x2093 <dispatchAction+0x437>
    2451: 8e 16 d0     	stx	$d016                   ; 0xd016 <end_block9+0x5d20>
    2454: 9c 17 d0     	stz	$d017                   ; 0xd017 <end_block9+0x5d21>
    2457: a2 5d        	ldx	#$5d
    2459: 86 12        	stx	$12                     ; 0x2012 <dispatchAction+0x3b6>
    245b: a2 6a        	ldx	#$6a
    245d: 86 13        	stx	$13                     ; 0x2013 <dispatchAction+0x3b7>
    245f: 20 8f 24     	jsr	$248f <textPrint>
    2462: a2 01        	ldx	#$1
    2464: 86 92        	stx	$92                     ; 0x2092 <dispatchAction+0x436>
    2466: 8e 14 d0     	stx	$d014                   ; 0xd014 <end_block9+0x5d1e>
    2469: 9c 15 d0     	stz	$d015                   ; 0xd015 <end_block9+0x5d1f>
    246c: a2 1c        	ldx	#$1c
    246e: 86 93        	stx	$93                     ; 0x2093 <dispatchAction+0x437>
    2470: 8e 16 d0     	stx	$d016                   ; 0xd016 <end_block9+0x5d20>
    2473: 9c 17 d0     	stz	$d017                   ; 0xd017 <end_block9+0x5d21>
    2476: a2 b5        	ldx	#$b5
    2478: 86 12        	stx	$12                     ; 0x2012 <dispatchAction+0x3b6>
    247a: a2 6a        	ldx	#$6a
    247c: 86 13        	stx	$13                     ; 0x2013 <dispatchAction+0x3b7>
    247e: 20 8f 24     	jsr	$248f <textPrint>
    2481: 18           	clc
    2482: a5 10        	lda	$10                     ; 0x2010 <dispatchAction+0x3b4>
    2484: 69 04        	adc	#$4
    2486: 85 10        	sta	$10                     ; 0x2010 <dispatchAction+0x3b4>
    2488: a5 11        	lda	$11                     ; 0x2011 <dispatchAction+0x3b5>
    248a: 69 00        	adc	#$0
    248c: 85 11        	sta	$11                     ; 0x2011 <dispatchAction+0x3b5>
    248e: 60           	rts

0000248f <textPrint>:
    248f: a6 12        	ldx	$12                     ; 0x2012 <dispatchAction+0x3b6>
    2491: 86 e3        	stx	$e3                     ; 0x20e3 <dispatchAction+0x487>
    2493: a6 13        	ldx	$13                     ; 0x2013 <dispatchAction+0x3b7>
    2495: 86 e4        	stx	$e4                     ; 0x20e4 <dispatchAction+0x488>
    2497: a2 00        	ldx	#$0
    2499: 86 e5        	stx	$e5                     ; 0x20e5 <dispatchAction+0x489>
    249b: a2 c0        	ldx	#$c0
    249d: 86 e6        	stx	$e6                     ; 0x20e6 <dispatchAction+0x48a>
    249f: a6 01        	ldx	$1                      ; 0x2001 <dispatchAction+0x3a5>
    24a1: 86 ea        	stx	$ea                     ; 0x20ea <dispatchAction+0x48e>
    24a3: a6 30        	ldx	$30                     ; 0x2030 <dispatchAction+0x3d4>
    24a5: a4 93        	ldy	$93                     ; 0x2093 <dispatchAction+0x437>
    24a7: 8e 00 de     	stx	$de00                   ; 0xde00 <end_block9+0x6b0a>
    24aa: 9c 01 de     	stz	$de01                   ; 0xde01 <end_block9+0x6b0b>
    24ad: 8c 02 de     	sty	$de02                   ; 0xde02 <end_block9+0x6b0c>
    24b0: 9c 03 de     	stz	$de03                   ; 0xde03 <end_block9+0x6b0d>
    24b3: ae 10 de     	ldx	$de10                   ; 0xde10 <end_block9+0x6b1a>
    24b6: 86 12        	stx	$12                     ; 0x2012 <dispatchAction+0x3b6>
    24b8: ac 11 de     	ldy	$de11                   ; 0xde11 <end_block9+0x6b1b>
    24bb: ad 12 de     	lda	$de12                   ; 0xde12 <end_block9+0x6b1c>
    24be: ae 13 de     	ldx	$de13                   ; 0xde13 <end_block9+0x6b1d>
    24c1: 86 13        	stx	$13                     ; 0x2013 <dispatchAction+0x3b7>
    24c3: 9c 08 de     	stz	$de08                   ; 0xde08 <end_block9+0x6b12>
    24c6: a2 c0        	ldx	#$c0
    24c8: 8e 09 de     	stx	$de09                   ; 0xde09 <end_block9+0x6b13>
    24cb: 9c 0a de     	stz	$de0a                   ; 0xde0a <end_block9+0x6b14>
    24ce: 9c 0b de     	stz	$de0b                   ; 0xde0b <end_block9+0x6b15>
    24d1: a6 12        	ldx	$12                     ; 0x2012 <dispatchAction+0x3b6>
    24d3: 8e 0c de     	stx	$de0c                   ; 0xde0c <end_block9+0x6b16>
    24d6: 8c 0d de     	sty	$de0d                   ; 0xde0d <end_block9+0x6b17>
    24d9: 8d 0e de     	sta	$de0e                   ; 0xde0e <end_block9+0x6b18>
    24dc: a6 13        	ldx	$13                     ; 0x2013 <dispatchAction+0x3b7>
    24de: 8e 0f de     	stx	$de0f                   ; 0xde0f <end_block9+0x6b19>
    24e1: ae 18 de     	ldx	$de18                   ; 0xde18 <end_block9+0x6b22>
    24e4: ac 19 de     	ldy	$de19                   ; 0xde19 <end_block9+0x6b23>
    24e7: ad 1a de     	lda	$de1a                   ; 0xde1a <end_block9+0x6b24>
    24ea: ad 1b de     	lda	$de1b                   ; 0xde1b <end_block9+0x6b25>
    24ed: 86 12        	stx	$12                     ; 0x2012 <dispatchAction+0x3b6>
    24ef: 84 13        	sty	$13                     ; 0x2013 <dispatchAction+0x3b7>
    24f1: 64 e7        	stz	$e7                     ; 0x20e7 <dispatchAction+0x48b>
    24f3: 64 e8        	stz	$e8                     ; 0x20e8 <dispatchAction+0x48c>
    24f5: 80 00        	bra	$24f7 <textPrint+0x68>
    24f7: a5 e3        	lda	$e3                     ; 0x20e3 <dispatchAction+0x487>
    24f9: 18           	clc
    24fa: 65 e7        	adc	$e7                     ; 0x20e7 <dispatchAction+0x48b>
    24fc: 85 14        	sta	$14                     ; 0x2014 <dispatchAction+0x3b8>
    24fe: a5 e4        	lda	$e4                     ; 0x20e4 <dispatchAction+0x488>
    2500: 65 e8        	adc	$e8                     ; 0x20e8 <dispatchAction+0x48c>
    2502: 85 15        	sta	$15                     ; 0x2015 <dispatchAction+0x3b9>
    2504: b2 14        	lda	($14)                   ; 0x2014 <dispatchAction+0x3b8>
    2506: c9 0a        	cmp	#$a
    2508: f0 29        	beq	$2533 <textPrint+0xa4>
    250a: c9 0d        	cmp	#$d
    250c: f0 25        	beq	$2533 <textPrint+0xa4>
    250e: aa           	tax
    250f: d0 03        	bne	$2514 <textPrint+0x85>
    2511: 4c d2 26     	jmp	$26d2 <textPrint+0x243>
    2514: a2 03        	ldx	#$3
    2516: 86 01        	stx	$1                      ; 0x2001 <dispatchAction+0x3a5>
    2518: a5 32        	lda	$32                     ; 0x2032 <dispatchAction+0x3d6>
    251a: a4 92        	ldy	$92                     ; 0x2092 <dispatchAction+0x436>
    251c: 91 12        	sta	($12),y                 ; 0x2012 <dispatchAction+0x3b6>
    251e: ca           	dex
    251f: 86 01        	stx	$1                      ; 0x2001 <dispatchAction+0x3a5>
    2521: b2 14        	lda	($14)                   ; 0x2014 <dispatchAction+0x3b8>
    2523: a4 92        	ldy	$92                     ; 0x2092 <dispatchAction+0x436>
    2525: 91 12        	sta	($12),y                 ; 0x2012 <dispatchAction+0x3b6>
    2527: a6 92        	ldx	$92                     ; 0x2092 <dispatchAction+0x436>
    2529: e8           	inx
    252a: e6 92        	inc	$92                     ; 0x2092 <dispatchAction+0x436>
    252c: e4 30        	cpx	$30                     ; 0x2030 <dispatchAction+0x3d4>
    252e: f0 03        	beq	$2533 <textPrint+0xa4>
    2530: 4c 04 26     	jmp	$2604 <textPrint+0x175>
    2533: 64 92        	stz	$92                     ; 0x2092 <dispatchAction+0x436>
    2535: a6 93        	ldx	$93                     ; 0x2093 <dispatchAction+0x437>
    2537: e8           	inx
    2538: e6 93        	inc	$93                     ; 0x2093 <dispatchAction+0x437>
    253a: a4 31        	ldy	$31                     ; 0x2031 <dispatchAction+0x3d5>
    253c: 84 e9        	sty	$e9                     ; 0x20e9 <dispatchAction+0x48d>
    253e: e4 e9        	cpx	$e9                     ; 0x20e9 <dispatchAction+0x48d>
    2540: f0 03        	beq	$2545 <textPrint+0xb6>
    2542: 4c f7 25     	jmp	$25f7 <textPrint+0x168>
    2545: a6 30        	ldx	$30                     ; 0x2030 <dispatchAction+0x3d4>
    2547: 86 ed        	stx	$ed                     ; 0x20ed <dispatchAction+0x491>
    2549: 98           	tya
    254a: a2 00        	ldx	#$0
    254c: 3a           	dec
    254d: c9 ff        	cmp	#$ff
    254f: d0 01        	bne	$2552 <textPrint+0xc3>
    2551: ca           	dex
    2552: a4 ed        	ldy	$ed                     ; 0x20ed <dispatchAction+0x491>
    2554: 84 12        	sty	$12                     ; 0x2012 <dispatchAction+0x3b6>
    2556: 64 13        	stz	$13                     ; 0x2013 <dispatchAction+0x3b7>
    2558: 20 d0 66     	jsr	$66d0 <__mulhi3>
    255b: 85 eb        	sta	$eb                     ; 0x20eb <dispatchAction+0x48f>
    255d: 86 ec        	stx	$ec                     ; 0x20ec <dispatchAction+0x490>
    255f: a2 03        	ldx	#$3
    2561: 86 01        	stx	$1                      ; 0x2001 <dispatchAction+0x3a5>
    2563: 38           	sec
    2564: a9 01        	lda	#$1
    2566: e5 e9        	sbc	$e9                     ; 0x20e9 <dispatchAction+0x48d>
    2568: a8           	tay
    2569: 64 e9        	stz	$e9                     ; 0x20e9 <dispatchAction+0x48d>
    256b: a9 00        	lda	#$0
    256d: e9 00        	sbc	#$0
    256f: a6 ed        	ldx	$ed                     ; 0x20ed <dispatchAction+0x491>
    2571: 86 12        	stx	$12                     ; 0x2012 <dispatchAction+0x3b6>
    2573: 64 13        	stz	$13                     ; 0x2013 <dispatchAction+0x3b7>
    2575: aa           	tax
    2576: 98           	tya
    2577: 20 d0 66     	jsr	$66d0 <__mulhi3>
    257a: 85 1a        	sta	$1a                     ; 0x201a <dispatchAction+0x3be>
    257c: a9 00        	lda	#$0
    257e: 80 1d        	bra	$259d <textPrint+0x10e>
    2580: 64 14        	stz	$14                     ; 0x2014 <dispatchAction+0x3b8>
    2582: 64 15        	stz	$15                     ; 0x2015 <dispatchAction+0x3b9>
    2584: a0 02        	ldy	#$2
    2586: 84 01        	sty	$1                      ; 0x2001 <dispatchAction+0x3a5>
    2588: a5 12        	lda	$12                     ; 0x2012 <dispatchAction+0x3b6>
    258a: e6 e9        	inc	$e9                     ; 0x20e9 <dispatchAction+0x48d>
    258c: d0 01        	bne	$258f <textPrint+0x100>
    258e: 1a           	inc
    258f: a4 12        	ldy	$12                     ; 0x2012 <dispatchAction+0x3b6>
    2591: f0 03        	beq	$2596 <textPrint+0x107>
    2593: 4c 10 26     	jmp	$2610 <textPrint+0x181>
    2596: a4 13        	ldy	$13                     ; 0x2013 <dispatchAction+0x3b7>
    2598: f0 03        	beq	$259d <textPrint+0x10e>
    259a: 4c 10 26     	jmp	$2610 <textPrint+0x181>
    259d: 85 12        	sta	$12                     ; 0x2012 <dispatchAction+0x3b6>
    259f: a4 e9        	ldy	$e9                     ; 0x20e9 <dispatchAction+0x48d>
    25a1: 84 13        	sty	$13                     ; 0x2013 <dispatchAction+0x3b7>
    25a3: a4 eb        	ldy	$eb                     ; 0x20eb <dispatchAction+0x48f>
    25a5: c0 01        	cpy	#$1
    25a7: a5 ec        	lda	$ec                     ; 0x20ec <dispatchAction+0x490>
    25a9: e9 00        	sbc	#$0
    25ab: 50 02        	bvc	$25af <textPrint+0x120>
    25ad: 49 80        	eor	#$80
    25af: a8           	tay
    25b0: 30 ce        	bmi	$2580 <textPrint+0xf1>
    25b2: 64 15        	stz	$15                     ; 0x2015 <dispatchAction+0x3b9>
    25b4: a0 00        	ldy	#$0
    25b6: 84 18        	sty	$18                     ; 0x2018 <dispatchAction+0x3bc>
    25b8: a0 c0        	ldy	#$c0
    25ba: 84 19        	sty	$19                     ; 0x2019 <dispatchAction+0x3bd>
    25bc: 64 17        	stz	$17                     ; 0x2017 <dispatchAction+0x3bb>
    25be: a4 17        	ldy	$17                     ; 0x2017 <dispatchAction+0x3bb>
    25c0: 84 14        	sty	$14                     ; 0x2014 <dispatchAction+0x3b8>
    25c2: a4 15        	ldy	$15                     ; 0x2015 <dispatchAction+0x3b9>
    25c4: 84 16        	sty	$16                     ; 0x2016 <dispatchAction+0x3ba>
    25c6: a4 30        	ldy	$30                     ; 0x2030 <dispatchAction+0x3d4>
    25c8: b1 18        	lda	($18),y                 ; 0x2018 <dispatchAction+0x3bc>
    25ca: 92 18        	sta	($18)                   ; 0x2018 <dispatchAction+0x3bc>
    25cc: a0 ff        	ldy	#$ff
    25ce: c6 15        	dec	$15                     ; 0x2015 <dispatchAction+0x3b9>
    25d0: c4 15        	cpy	$15                     ; 0x2015 <dispatchAction+0x3b9>
    25d2: d0 02        	bne	$25d6 <textPrint+0x147>
    25d4: c6 17        	dec	$17                     ; 0x2017 <dispatchAction+0x3bb>
    25d6: e6 18        	inc	$18                     ; 0x2018 <dispatchAction+0x3bc>
    25d8: d0 02        	bne	$25dc <textPrint+0x14d>
    25da: e6 19        	inc	$19                     ; 0x2019 <dispatchAction+0x3bd>
    25dc: e4 17        	cpx	$17                     ; 0x2017 <dispatchAction+0x3bb>
    25de: d0 de        	bne	$25be <textPrint+0x12f>
    25e0: a4 1a        	ldy	$1a                     ; 0x201a <dispatchAction+0x3be>
    25e2: c4 15        	cpy	$15                     ; 0x2015 <dispatchAction+0x3b9>
    25e4: d0 d8        	bne	$25be <textPrint+0x12f>
    25e6: 38           	sec
    25e7: a9 01        	lda	#$1
    25e9: e5 16        	sbc	$16                     ; 0x2016 <dispatchAction+0x3ba>
    25eb: a8           	tay
    25ec: a9 00        	lda	#$0
    25ee: e5 14        	sbc	$14                     ; 0x2014 <dispatchAction+0x3b8>
    25f0: 84 14        	sty	$14                     ; 0x2014 <dispatchAction+0x3b8>
    25f2: 85 15        	sta	$15                     ; 0x2015 <dispatchAction+0x3b9>
    25f4: 4c 84 25     	jmp	$2584 <textPrint+0xf5>
    25f7: a5 12        	lda	$12                     ; 0x2012 <dispatchAction+0x3b6>
    25f9: 18           	clc
    25fa: 65 30        	adc	$30                     ; 0x2030 <dispatchAction+0x3d4>
    25fc: 85 12        	sta	$12                     ; 0x2012 <dispatchAction+0x3b6>
    25fe: a5 13        	lda	$13                     ; 0x2013 <dispatchAction+0x3b7>
    2600: 69 00        	adc	#$0
    2602: 85 13        	sta	$13                     ; 0x2013 <dispatchAction+0x3b7>
    2604: e6 e7        	inc	$e7                     ; 0x20e7 <dispatchAction+0x48b>
    2606: f0 03        	beq	$260b <textPrint+0x17c>
    2608: 4c f7 24     	jmp	$24f7 <textPrint+0x68>
    260b: e6 e8        	inc	$e8                     ; 0x20e8 <dispatchAction+0x48c>
    260d: 4c f7 24     	jmp	$24f7 <textPrint+0x68>
    2610: a9 00        	lda	#$0
    2612: 18           	clc
    2613: 65 14        	adc	$14                     ; 0x2014 <dispatchAction+0x3b8>
    2615: 85 12        	sta	$12                     ; 0x2012 <dispatchAction+0x3b6>
    2617: a9 c0        	lda	#$c0
    2619: 65 15        	adc	$15                     ; 0x2015 <dispatchAction+0x3b9>
    261b: 85 13        	sta	$13                     ; 0x2013 <dispatchAction+0x3b7>
    261d: a2 03        	ldx	#$3
    261f: 86 01        	stx	$1                      ; 0x2001 <dispatchAction+0x3a5>
    2621: a6 30        	ldx	$30                     ; 0x2030 <dispatchAction+0x3d4>
    2623: f0 37        	beq	$265c <textPrint+0x1cd>
    2625: a9 01        	lda	#$1
    2627: 18           	clc
    2628: 65 14        	adc	$14                     ; 0x2014 <dispatchAction+0x3b8>
    262a: 85 17        	sta	$17                     ; 0x2017 <dispatchAction+0x3bb>
    262c: a9 c0        	lda	#$c0
    262e: 65 15        	adc	$15                     ; 0x2015 <dispatchAction+0x3b9>
    2630: a8           	tay
    2631: 64 16        	stz	$16                     ; 0x2016 <dispatchAction+0x3ba>
    2633: a6 12        	ldx	$12                     ; 0x2012 <dispatchAction+0x3b6>
    2635: 86 18        	stx	$18                     ; 0x2018 <dispatchAction+0x3bc>
    2637: a6 13        	ldx	$13                     ; 0x2013 <dispatchAction+0x3b7>
    2639: 86 19        	stx	$19                     ; 0x2019 <dispatchAction+0x3bd>
    263b: a5 17        	lda	$17                     ; 0x2017 <dispatchAction+0x3bb>
    263d: 18           	clc
    263e: 65 16        	adc	$16                     ; 0x2016 <dispatchAction+0x3ba>
    2640: 85 1a        	sta	$1a                     ; 0x201a <dispatchAction+0x3be>
    2642: 98           	tya
    2643: 69 00        	adc	#$0
    2645: 85 1b        	sta	$1b                     ; 0x201b <dispatchAction+0x3bf>
    2647: a5 32        	lda	$32                     ; 0x2032 <dispatchAction+0x3d6>
    2649: 92 18        	sta	($18)                   ; 0x2018 <dispatchAction+0x3bc>
    264b: a6 16        	ldx	$16                     ; 0x2016 <dispatchAction+0x3ba>
    264d: e8           	inx
    264e: 86 16        	stx	$16                     ; 0x2016 <dispatchAction+0x3ba>
    2650: e4 30        	cpx	$30                     ; 0x2030 <dispatchAction+0x3d4>
    2652: a6 1a        	ldx	$1a                     ; 0x201a <dispatchAction+0x3be>
    2654: 86 18        	stx	$18                     ; 0x2018 <dispatchAction+0x3bc>
    2656: a6 1b        	ldx	$1b                     ; 0x201b <dispatchAction+0x3bf>
    2658: 86 19        	stx	$19                     ; 0x2019 <dispatchAction+0x3bd>
    265a: 90 df        	bcc	$263b <textPrint+0x1ac>
    265c: a2 02        	ldx	#$2
    265e: 86 01        	stx	$1                      ; 0x2001 <dispatchAction+0x3a5>
    2660: a6 30        	ldx	$30                     ; 0x2030 <dispatchAction+0x3d4>
    2662: f0 2f        	beq	$2693 <textPrint+0x204>
    2664: a9 01        	lda	#$1
    2666: 18           	clc
    2667: 65 14        	adc	$14                     ; 0x2014 <dispatchAction+0x3b8>
    2669: 85 18        	sta	$18                     ; 0x2018 <dispatchAction+0x3bc>
    266b: a9 c0        	lda	#$c0
    266d: 65 15        	adc	$15                     ; 0x2015 <dispatchAction+0x3b9>
    266f: a8           	tay
    2670: 64 14        	stz	$14                     ; 0x2014 <dispatchAction+0x3b8>
    2672: a5 18        	lda	$18                     ; 0x2018 <dispatchAction+0x3bc>
    2674: 18           	clc
    2675: 65 14        	adc	$14                     ; 0x2014 <dispatchAction+0x3b8>
    2677: 85 16        	sta	$16                     ; 0x2016 <dispatchAction+0x3ba>
    2679: 98           	tya
    267a: 69 00        	adc	#$0
    267c: 85 17        	sta	$17                     ; 0x2017 <dispatchAction+0x3bb>
    267e: a9 20        	lda	#$20
    2680: 92 12        	sta	($12)                   ; 0x2012 <dispatchAction+0x3b6>
    2682: a6 14        	ldx	$14                     ; 0x2014 <dispatchAction+0x3b8>
    2684: e8           	inx
    2685: 86 14        	stx	$14                     ; 0x2014 <dispatchAction+0x3b8>
    2687: e4 30        	cpx	$30                     ; 0x2030 <dispatchAction+0x3d4>
    2689: a6 16        	ldx	$16                     ; 0x2016 <dispatchAction+0x3ba>
    268b: 86 12        	stx	$12                     ; 0x2012 <dispatchAction+0x3b6>
    268d: a6 17        	ldx	$17                     ; 0x2017 <dispatchAction+0x3bb>
    268f: 86 13        	stx	$13                     ; 0x2013 <dispatchAction+0x3b7>
    2691: 90 df        	bcc	$2672 <textPrint+0x1e3>
    2693: c6 93        	dec	$93                     ; 0x2093 <dispatchAction+0x437>
    2695: a6 31        	ldx	$31                     ; 0x2031 <dispatchAction+0x3d5>
    2697: a0 00        	ldy	#$0
    2699: ca           	dex
    269a: e0 ff        	cpx	#$ff
    269c: d0 01        	bne	$269f <textPrint+0x210>
    269e: 88           	dey
    269f: 9c 08 de     	stz	$de08                   ; 0xde08 <end_block9+0x6b12>
    26a2: a9 c0        	lda	#$c0
    26a4: 8d 09 de     	sta	$de09                   ; 0xde09 <end_block9+0x6b13>
    26a7: 9c 0a de     	stz	$de0a                   ; 0xde0a <end_block9+0x6b14>
    26aa: 9c 0b de     	stz	$de0b                   ; 0xde0b <end_block9+0x6b15>
    26ad: 8e 0c de     	stx	$de0c                   ; 0xde0c <end_block9+0x6b16>
    26b0: 8c 0d de     	sty	$de0d                   ; 0xde0d <end_block9+0x6b17>
    26b3: 9c 0e de     	stz	$de0e                   ; 0xde0e <end_block9+0x6b18>
    26b6: 9c 0f de     	stz	$de0f                   ; 0xde0f <end_block9+0x6b19>
    26b9: ae 18 de     	ldx	$de18                   ; 0xde18 <end_block9+0x6b22>
    26bc: ac 19 de     	ldy	$de19                   ; 0xde19 <end_block9+0x6b23>
    26bf: ad 1a de     	lda	$de1a                   ; 0xde1a <end_block9+0x6b24>
    26c2: ad 1b de     	lda	$de1b                   ; 0xde1b <end_block9+0x6b25>
    26c5: 86 12        	stx	$12                     ; 0x2012 <dispatchAction+0x3b6>
    26c7: 84 13        	sty	$13                     ; 0x2013 <dispatchAction+0x3b7>
    26c9: e6 e7        	inc	$e7                     ; 0x20e7 <dispatchAction+0x48b>
    26cb: d0 02        	bne	$26cf <textPrint+0x240>
    26cd: e6 e8        	inc	$e8                     ; 0x20e8 <dispatchAction+0x48c>
    26cf: 4c f7 24     	jmp	$24f7 <textPrint+0x68>
    26d2: a6 ea        	ldx	$ea                     ; 0x20ea <dispatchAction+0x48e>
    26d4: 86 01        	stx	$1                      ; 0x2001 <dispatchAction+0x3a5>
    26d6: a6 92        	ldx	$92                     ; 0x2092 <dispatchAction+0x436>
    26d8: a4 93        	ldy	$93                     ; 0x2093 <dispatchAction+0x437>
    26da: 8e 14 d0     	stx	$d014                   ; 0xd014 <end_block9+0x5d1e>
    26dd: 9c 15 d0     	stz	$d015                   ; 0xd015 <end_block9+0x5d1f>
    26e0: 84 93        	sty	$93                     ; 0x2093 <dispatchAction+0x437>
    26e2: 8c 16 d0     	sty	$d016                   ; 0xd016 <end_block9+0x5d20>
    26e5: 9c 17 d0     	stz	$d017                   ; 0xd017 <end_block9+0x5d21>
    26e8: 60           	rts

000026e9 <loadGUISID>:
    26e9: 18           	clc
    26ea: a5 10        	lda	$10                     ; 0x2010 <dispatchAction+0x3b4>
    26ec: 69 f6        	adc	#$f6
    26ee: 85 10        	sta	$10                     ; 0x2010 <dispatchAction+0x3b4>
    26f0: a5 11        	lda	$11                     ; 0x2011 <dispatchAction+0x3b5>
    26f2: 69 ff        	adc	#$ff
    26f4: 85 11        	sta	$11                     ; 0x2011 <dispatchAction+0x3b5>
    26f6: a6 24        	ldx	$24                     ; 0x2024 <dispatchAction+0x3c8>
    26f8: da           	phx
    26f9: a6 25        	ldx	$25                     ; 0x2025 <dispatchAction+0x3c9>
    26fb: da           	phx
    26fc: a6 26        	ldx	$26                     ; 0x2026 <dispatchAction+0x3ca>
    26fe: da           	phx
    26ff: a6 27        	ldx	$27                     ; 0x2027 <dispatchAction+0x3cb>
    2701: da           	phx
    2702: a5 28        	lda	$28                     ; 0x2028 <dispatchAction+0x3cc>
    2704: a0 08        	ldy	#$8
    2706: 91 10        	sta	($10),y                 ; 0x2010 <dispatchAction+0x3b4>
    2708: a5 29        	lda	$29                     ; 0x2029 <dispatchAction+0x3cd>
    270a: 88           	dey
    270b: 91 10        	sta	($10),y                 ; 0x2010 <dispatchAction+0x3b4>
    270d: 20 b0 23     	jsr	$23b0 <textLayerGen>
    2710: 20 69 34     	jsr	$3469 <textLayerSID>
    2713: a2 aa        	ldx	#$aa
    2715: 86 24        	stx	$24                     ; 0x2024 <dispatchAction+0x3c8>
    2717: a2 6d        	ldx	#$6d
    2719: 86 25        	stx	$25                     ; 0x2025 <dispatchAction+0x3c9>
    271b: a9 2c        	lda	#$2c
    271d: a2 05        	ldx	#$5
    271f: 64 28        	stz	$28                     ; 0x2028 <dispatchAction+0x3cc>
    2721: 86 19        	stx	$19                     ; 0x2019 <dispatchAction+0x3bd>
    2723: c6 19        	dec	$19                     ; 0x2019 <dispatchAction+0x3bd>
    2725: bc 62 6c     	ldy	$6c62,x                 ; 0x6c62 <sidSpriteAction>
    2728: 84 1f        	sty	$1f                     ; 0x201f <dispatchAction+0x3c3>
    272a: 86 27        	stx	$27                     ; 0x2027 <dispatchAction+0x3cb>
    272c: 85 13        	sta	$13                     ; 0x2013 <dispatchAction+0x3b7>
    272e: a5 24        	lda	$24                     ; 0x2024 <dispatchAction+0x3c8>
    2730: 92 10        	sta	($10)                   ; 0x2010 <dispatchAction+0x3b4>
    2732: a5 25        	lda	$25                     ; 0x2025 <dispatchAction+0x3c9>
    2734: a0 01        	ldy	#$1
    2736: 91 10        	sta	($10),y                 ; 0x2010 <dispatchAction+0x3b4>
    2738: 64 12        	stz	$12                     ; 0x2012 <dispatchAction+0x3b6>
    273a: a6 13        	ldx	$13                     ; 0x2013 <dispatchAction+0x3b7>
    273c: 86 26        	stx	$26                     ; 0x2026 <dispatchAction+0x3ca>
    273e: 64 14        	stz	$14                     ; 0x2014 <dispatchAction+0x3b8>
    2740: 64 15        	stz	$15                     ; 0x2015 <dispatchAction+0x3b9>
    2742: 98           	tya
    2743: a0 38        	ldy	#$38
    2745: 84 16        	sty	$16                     ; 0x2016 <dispatchAction+0x3ba>
    2747: 85 17        	sta	$17                     ; 0x2017 <dispatchAction+0x3bb>
    2749: 64 18        	stz	$18                     ; 0x2018 <dispatchAction+0x3bc>
    274b: a0 10        	ldy	#$10
    274d: 84 1a        	sty	$1a                     ; 0x201a <dispatchAction+0x3be>
    274f: 64 1b        	stz	$1b                     ; 0x201b <dispatchAction+0x3bf>
    2751: a0 0d        	ldy	#$d
    2753: 84 1c        	sty	$1c                     ; 0x201c <dispatchAction+0x3c0>
    2755: a0 04        	ldy	#$4
    2757: 84 1d        	sty	$1d                     ; 0x201d <dispatchAction+0x3c1>
    2759: a0 0b        	ldy	#$b
    275b: 84 1e        	sty	$1e                     ; 0x201e <dispatchAction+0x3c2>
    275d: a2 95        	ldx	#$95
    275f: a5 27        	lda	$27                     ; 0x2027 <dispatchAction+0x3cb>
    2761: 20 2d 3a     	jsr	$3a2d <setGeneric>
    2764: a2 01        	ldx	#$1
    2766: a4 27        	ldy	$27                     ; 0x2027 <dispatchAction+0x3cb>
    2768: c0 06        	cpy	#$6
    276a: f0 02        	beq	$276e <loadGUISID+0x85>
    276c: a2 00        	ldx	#$0
    276e: a4 24        	ldy	$24                     ; 0x2024 <dispatchAction+0x3c8>
    2770: 84 12        	sty	$12                     ; 0x2012 <dispatchAction+0x3b6>
    2772: a4 25        	ldy	$25                     ; 0x2025 <dispatchAction+0x3c9>
    2774: 84 13        	sty	$13                     ; 0x2013 <dispatchAction+0x3b7>
    2776: 86 14        	stx	$14                     ; 0x2014 <dispatchAction+0x3b8>
    2778: a2 01        	ldx	#$1
    277a: 64 28        	stz	$28                     ; 0x2028 <dispatchAction+0x3cc>
    277c: a9 00        	lda	#$0
    277e: 20 87 3b     	jsr	$3b87 <setRadioB>
    2781: a6 27        	ldx	$27                     ; 0x2027 <dispatchAction+0x3cb>
    2783: e8           	inx
    2784: a5 24        	lda	$24                     ; 0x2024 <dispatchAction+0x3c8>
    2786: 18           	clc
    2787: 69 15        	adc	#$15
    2789: 85 24        	sta	$24                     ; 0x2024 <dispatchAction+0x3c8>
    278b: a5 25        	lda	$25                     ; 0x2025 <dispatchAction+0x3c9>
    278d: 69 00        	adc	#$0
    278f: 85 25        	sta	$25                     ; 0x2025 <dispatchAction+0x3c9>
    2791: 18           	clc
    2792: a5 26        	lda	$26                     ; 0x2026 <dispatchAction+0x3ca>
    2794: 69 10        	adc	#$10
    2796: e0 09        	cpx	#$9
    2798: f0 03        	beq	$279d <loadGUISID+0xb4>
    279a: 4c 21 27     	jmp	$2721 <loadGUISID+0x38>
    279d: a2 51        	ldx	#$51
    279f: 8a           	txa
    27a0: a0 09        	ldy	#$9
    27a2: 91 10        	sta	($10),y                 ; 0x2010 <dispatchAction+0x3b4>
    27a4: a2 35        	ldx	#$35
    27a6: 86 12        	stx	$12                     ; 0x2012 <dispatchAction+0x3b6>
    27a8: a2 70        	ldx	#$70
    27aa: 86 13        	stx	$13                     ; 0x2013 <dispatchAction+0x3b7>
    27ac: a2 09        	ldx	#$9
    27ae: a0 03        	ldy	#$3
    27b0: 84 25        	sty	$25                     ; 0x2025 <dispatchAction+0x3c9>
    27b2: 98           	tya
    27b3: 18           	clc
    27b4: 69 fd        	adc	#$fd
    27b6: 85 29        	sta	$29                     ; 0x2029 <dispatchAction+0x3cd>
    27b8: 86 26        	stx	$26                     ; 0x2026 <dispatchAction+0x3ca>
    27ba: bd 62 6c     	lda	$6c62,x                 ; 0x6c62 <sidSpriteAction>
    27bd: aa           	tax
    27be: a5 12        	lda	$12                     ; 0x2012 <dispatchAction+0x3b6>
    27c0: a4 13        	ldy	$13                     ; 0x2013 <dispatchAction+0x3b7>
    27c2: 84 28        	sty	$28                     ; 0x2028 <dispatchAction+0x3cc>
    27c4: 92 10        	sta	($10)                   ; 0x2010 <dispatchAction+0x3b4>
    27c6: 85 27        	sta	$27                     ; 0x2027 <dispatchAction+0x3cb>
    27c8: a5 13        	lda	$13                     ; 0x2013 <dispatchAction+0x3b7>
    27ca: a0 01        	ldy	#$1
    27cc: 91 10        	sta	($10),y                 ; 0x2010 <dispatchAction+0x3b4>
    27ce: 64 12        	stz	$12                     ; 0x2012 <dispatchAction+0x3b6>
    27d0: a0 31        	ldy	#$31
    27d2: 84 13        	sty	$13                     ; 0x2013 <dispatchAction+0x3b7>
    27d4: 64 14        	stz	$14                     ; 0x2014 <dispatchAction+0x3b8>
    27d6: 64 15        	stz	$15                     ; 0x2015 <dispatchAction+0x3b9>
    27d8: a0 28        	ldy	#$28
    27da: 84 16        	sty	$16                     ; 0x2016 <dispatchAction+0x3ba>
    27dc: a0 01        	ldy	#$1
    27de: 84 17        	sty	$17                     ; 0x2017 <dispatchAction+0x3bb>
    27e0: 64 18        	stz	$18                     ; 0x2018 <dispatchAction+0x3bc>
    27e2: a4 29        	ldy	$29                     ; 0x2029 <dispatchAction+0x3cd>
    27e4: 84 19        	sty	$19                     ; 0x2019 <dispatchAction+0x3bd>
    27e6: a0 10        	ldy	#$10
    27e8: 84 1a        	sty	$1a                     ; 0x201a <dispatchAction+0x3be>
    27ea: a0 03        	ldy	#$3
    27ec: 84 1b        	sty	$1b                     ; 0x201b <dispatchAction+0x3bf>
    27ee: a0 0a        	ldy	#$a
    27f0: 84 1c        	sty	$1c                     ; 0x201c <dispatchAction+0x3c0>
    27f2: a0 06        	ldy	#$6
    27f4: 84 1d        	sty	$1d                     ; 0x201d <dispatchAction+0x3c1>
    27f6: a0 19        	ldy	#$19
    27f8: 84 1e        	sty	$1e                     ; 0x201e <dispatchAction+0x3c2>
    27fa: 86 1f        	stx	$1f                     ; 0x201f <dispatchAction+0x3c3>
    27fc: a0 09        	ldy	#$9
    27fe: b1 10        	lda	($10),y                 ; 0x2010 <dispatchAction+0x3b4>
    2800: aa           	tax
    2801: 85 24        	sta	$24                     ; 0x2024 <dispatchAction+0x3c8>
    2803: a5 26        	lda	$26                     ; 0x2026 <dispatchAction+0x3ca>
    2805: 20 2d 3a     	jsr	$3a2d <setGeneric>
    2808: a5 27        	lda	$27                     ; 0x2027 <dispatchAction+0x3cb>
    280a: 18           	clc
    280b: 69 13        	adc	#$13
    280d: aa           	tax
    280e: a5 28        	lda	$28                     ; 0x2028 <dispatchAction+0x3cc>
    2810: 69 00        	adc	#$0
    2812: 85 12        	sta	$12                     ; 0x2012 <dispatchAction+0x3b6>
    2814: 8a           	txa
    2815: 92 10        	sta	($10)                   ; 0x2010 <dispatchAction+0x3b4>
    2817: a0 01        	ldy	#$1
    2819: a5 12        	lda	$12                     ; 0x2012 <dispatchAction+0x3b6>
    281b: 91 10        	sta	($10),y                 ; 0x2010 <dispatchAction+0x3b4>
    281d: 64 12        	stz	$12                     ; 0x2012 <dispatchAction+0x3b6>
    281f: a2 03        	ldx	#$3
    2821: 86 13        	stx	$13                     ; 0x2013 <dispatchAction+0x3b7>
    2823: 64 14        	stz	$14                     ; 0x2014 <dispatchAction+0x3b8>
    2825: 64 15        	stz	$15                     ; 0x2015 <dispatchAction+0x3b9>
    2827: a2 54        	ldx	#$54
    2829: 86 16        	stx	$16                     ; 0x2016 <dispatchAction+0x3ba>
    282b: 84 17        	sty	$17                     ; 0x2017 <dispatchAction+0x3bb>
    282d: 64 18        	stz	$18                     ; 0x2018 <dispatchAction+0x3bc>
    282f: a6 29        	ldx	$29                     ; 0x2029 <dispatchAction+0x3cd>
    2831: 86 19        	stx	$19                     ; 0x2019 <dispatchAction+0x3bd>
    2833: a2 10        	ldx	#$10
    2835: 86 1a        	stx	$1a                     ; 0x201a <dispatchAction+0x3be>
    2837: 64 1b        	stz	$1b                     ; 0x201b <dispatchAction+0x3bf>
    2839: 64 1c        	stz	$1c                     ; 0x201c <dispatchAction+0x3c0>
    283b: 64 1d        	stz	$1d                     ; 0x201d <dispatchAction+0x3c1>
    283d: 64 1e        	stz	$1e                     ; 0x201e <dispatchAction+0x3c2>
    283f: a9 ff        	lda	#$ff
    2841: 85 1f        	sta	$1f                     ; 0x201f <dispatchAction+0x3c3>
    2843: a6 25        	ldx	$25                     ; 0x2025 <dispatchAction+0x3c9>
    2845: 20 2d 3a     	jsr	$3a2d <setGeneric>
    2848: 18           	clc
    2849: a5 26        	lda	$26                     ; 0x2026 <dispatchAction+0x3ca>
    284b: 69 02        	adc	#$2
    284d: 85 14        	sta	$14                     ; 0x2014 <dispatchAction+0x3b8>
    284f: 18           	clc
    2850: a5 27        	lda	$27                     ; 0x2027 <dispatchAction+0x3cb>
    2852: 69 30        	adc	#$30
    2854: 85 12        	sta	$12                     ; 0x2012 <dispatchAction+0x3b6>
    2856: a5 28        	lda	$28                     ; 0x2028 <dispatchAction+0x3cc>
    2858: 69 00        	adc	#$0
    285a: 85 13        	sta	$13                     ; 0x2013 <dispatchAction+0x3b7>
    285c: e6 25        	inc	$25                     ; 0x2025 <dispatchAction+0x3c9>
    285e: a4 25        	ldy	$25                     ; 0x2025 <dispatchAction+0x3c9>
    2860: 18           	clc
    2861: a5 24        	lda	$24                     ; 0x2024 <dispatchAction+0x3c8>
    2863: 69 10        	adc	#$10
    2865: 5a           	phy
    2866: a0 09        	ldy	#$9
    2868: 91 10        	sta	($10),y                 ; 0x2010 <dispatchAction+0x3b4>
    286a: 7a           	ply
    286b: a6 14        	ldx	$14                     ; 0x2014 <dispatchAction+0x3b8>
    286d: a5 14        	lda	$14                     ; 0x2014 <dispatchAction+0x3b8>
    286f: c9 11        	cmp	#$11
    2871: f0 03        	beq	$2876 <loadGUISID+0x18d>
    2873: 4c b0 27     	jmp	$27b0 <loadGUISID+0xc7>
    2876: a5 e1        	lda	$e1                     ; 0x20e1 <dispatchAction+0x485>
    2878: a6 e2        	ldx	$e2                     ; 0x20e2 <dispatchAction+0x486>
    287a: 85 12        	sta	$12                     ; 0x2012 <dispatchAction+0x3b6>
    287c: 86 13        	stx	$13                     ; 0x2013 <dispatchAction+0x3b7>
    287e: a0 04        	ldy	#$4
    2880: 18           	clc
    2881: 69 04        	adc	#$4
    2883: 85 14        	sta	$14                     ; 0x2014 <dispatchAction+0x3b8>
    2885: 8a           	txa
    2886: 69 00        	adc	#$0
    2888: 85 15        	sta	$15                     ; 0x2015 <dispatchAction+0x3b9>
    288a: b1 12        	lda	($12),y                 ; 0x2012 <dispatchAction+0x3b6>
    288c: 85 12        	sta	$12                     ; 0x2012 <dispatchAction+0x3b6>
    288e: a0 01        	ldy	#$1
    2890: b1 14        	lda	($14),y                 ; 0x2014 <dispatchAction+0x3b8>
    2892: 84 24        	sty	$24                     ; 0x2024 <dispatchAction+0x3c8>
    2894: 85 13        	sta	$13                     ; 0x2013 <dispatchAction+0x3b7>
    2896: a0 03        	ldy	#$3
    2898: b1 12        	lda	($12),y                 ; 0x2012 <dispatchAction+0x3b6>
    289a: 4a           	lsr
    289b: 4a           	lsr
    289c: 4a           	lsr
    289d: 4a           	lsr
    289e: 85 22        	sta	$22                     ; 0x2022 <dispatchAction+0x3c6>
    28a0: a9 54        	lda	#$54
    28a2: 92 10        	sta	($10)                   ; 0x2010 <dispatchAction+0x3b4>
    28a4: a9 01        	lda	#$1
    28a6: a4 24        	ldy	$24                     ; 0x2024 <dispatchAction+0x3c8>
    28a8: 91 10        	sta	($10),y                 ; 0x2010 <dispatchAction+0x3b4>
    28aa: 3a           	dec
    28ab: a0 02        	ldy	#$2
    28ad: 91 10        	sta	($10),y                 ; 0x2010 <dispatchAction+0x3b4>
    28af: a2 35        	ldx	#$35
    28b1: 86 12        	stx	$12                     ; 0x2012 <dispatchAction+0x3b6>
    28b3: a2 70        	ldx	#$70
    28b5: 86 13        	stx	$13                     ; 0x2013 <dispatchAction+0x3b7>
    28b7: a2 0f        	ldx	#$f
    28b9: 86 14        	stx	$14                     ; 0x2014 <dispatchAction+0x3b8>
    28bb: 64 15        	stz	$15                     ; 0x2015 <dispatchAction+0x3b9>
    28bd: 64 16        	stz	$16                     ; 0x2016 <dispatchAction+0x3ba>
    28bf: 64 17        	stz	$17                     ; 0x2017 <dispatchAction+0x3bb>
    28c1: 64 18        	stz	$18                     ; 0x2018 <dispatchAction+0x3bc>
    28c3: 64 19        	stz	$19                     ; 0x2019 <dispatchAction+0x3bd>
    28c5: 64 1a        	stz	$1a                     ; 0x201a <dispatchAction+0x3be>
    28c7: 64 1b        	stz	$1b                     ; 0x201b <dispatchAction+0x3bf>
    28c9: 64 1c        	stz	$1c                     ; 0x201c <dispatchAction+0x3c0>
    28cb: a2 01        	ldx	#$1
    28cd: 86 1d        	stx	$1d                     ; 0x201d <dispatchAction+0x3c1>
    28cf: 64 1e        	stz	$1e                     ; 0x201e <dispatchAction+0x3c2>
    28d1: 64 1f        	stz	$1f                     ; 0x201f <dispatchAction+0x3c3>
    28d3: aa           	tax
    28d4: a5 22        	lda	$22                     ; 0x2022 <dispatchAction+0x3c6>
    28d6: 20 98 44     	jsr	$4498 <setSlider>
    28d9: a5 e1        	lda	$e1                     ; 0x20e1 <dispatchAction+0x485>
    28db: a6 e2        	ldx	$e2                     ; 0x20e2 <dispatchAction+0x486>
    28dd: 85 12        	sta	$12                     ; 0x2012 <dispatchAction+0x3b6>
    28df: 86 13        	stx	$13                     ; 0x2013 <dispatchAction+0x3b7>
    28e1: 18           	clc
    28e2: 69 04        	adc	#$4
    28e4: 85 14        	sta	$14                     ; 0x2014 <dispatchAction+0x3b8>
    28e6: 8a           	txa
    28e7: 69 00        	adc	#$0
    28e9: 85 15        	sta	$15                     ; 0x2015 <dispatchAction+0x3b9>
    28eb: a0 04        	ldy	#$4
    28ed: b1 12        	lda	($12),y                 ; 0x2012 <dispatchAction+0x3b6>
    28ef: 85 12        	sta	$12                     ; 0x2012 <dispatchAction+0x3b6>
    28f1: a4 24        	ldy	$24                     ; 0x2024 <dispatchAction+0x3c8>
    28f3: b1 14        	lda	($14),y                 ; 0x2014 <dispatchAction+0x3b8>
    28f5: 85 13        	sta	$13                     ; 0x2013 <dispatchAction+0x3b7>
    28f7: a9 0f        	lda	#$f
    28f9: a0 03        	ldy	#$3
    28fb: 31 12        	and	($12),y                 ; 0x2012 <dispatchAction+0x3b6>
    28fd: 85 22        	sta	$22                     ; 0x2022 <dispatchAction+0x3c6>
    28ff: a9 54        	lda	#$54
    2901: 92 10        	sta	($10)                   ; 0x2010 <dispatchAction+0x3b4>
    2903: a4 24        	ldy	$24                     ; 0x2024 <dispatchAction+0x3c8>
    2905: a9 01        	lda	#$1
    2907: 91 10        	sta	($10),y                 ; 0x2010 <dispatchAction+0x3b4>
    2909: a0 02        	ldy	#$2
    290b: 3a           	dec
    290c: 91 10        	sta	($10),y                 ; 0x2010 <dispatchAction+0x3b4>
    290e: a2 65        	ldx	#$65
    2910: 86 12        	stx	$12                     ; 0x2012 <dispatchAction+0x3b6>
    2912: a2 70        	ldx	#$70
    2914: 86 13        	stx	$13                     ; 0x2013 <dispatchAction+0x3b7>
    2916: a2 0f        	ldx	#$f
    2918: 86 14        	stx	$14                     ; 0x2014 <dispatchAction+0x3b8>
    291a: 64 15        	stz	$15                     ; 0x2015 <dispatchAction+0x3b9>
    291c: 64 16        	stz	$16                     ; 0x2016 <dispatchAction+0x3ba>
    291e: 64 17        	stz	$17                     ; 0x2017 <dispatchAction+0x3bb>
    2920: 64 18        	stz	$18                     ; 0x2018 <dispatchAction+0x3bc>
    2922: 64 19        	stz	$19                     ; 0x2019 <dispatchAction+0x3bd>
    2924: 64 1a        	stz	$1a                     ; 0x201a <dispatchAction+0x3be>
    2926: 64 1b        	stz	$1b                     ; 0x201b <dispatchAction+0x3bf>
    2928: 64 1c        	stz	$1c                     ; 0x201c <dispatchAction+0x3c0>
    292a: a2 01        	ldx	#$1
    292c: 86 1d        	stx	$1d                     ; 0x201d <dispatchAction+0x3c1>
    292e: 64 1e        	stz	$1e                     ; 0x201e <dispatchAction+0x3c2>
    2930: 64 1f        	stz	$1f                     ; 0x201f <dispatchAction+0x3c3>
    2932: aa           	tax
    2933: a5 22        	lda	$22                     ; 0x2022 <dispatchAction+0x3c6>
    2935: 20 98 44     	jsr	$4498 <setSlider>
    2938: a5 e1        	lda	$e1                     ; 0x20e1 <dispatchAction+0x485>
    293a: a6 e2        	ldx	$e2                     ; 0x20e2 <dispatchAction+0x486>
    293c: 85 12        	sta	$12                     ; 0x2012 <dispatchAction+0x3b6>
    293e: 86 13        	stx	$13                     ; 0x2013 <dispatchAction+0x3b7>
    2940: 18           	clc
    2941: 69 04        	adc	#$4
    2943: 85 14        	sta	$14                     ; 0x2014 <dispatchAction+0x3b8>
    2945: 8a           	txa
    2946: 69 00        	adc	#$0
    2948: 85 15        	sta	$15                     ; 0x2015 <dispatchAction+0x3b9>
    294a: a0 04        	ldy	#$4
    294c: b1 12        	lda	($12),y                 ; 0x2012 <dispatchAction+0x3b6>
    294e: 85 12        	sta	$12                     ; 0x2012 <dispatchAction+0x3b6>
    2950: a4 24        	ldy	$24                     ; 0x2024 <dispatchAction+0x3c8>
    2952: b1 14        	lda	($14),y                 ; 0x2014 <dispatchAction+0x3b8>
    2954: 84 14        	sty	$14                     ; 0x2014 <dispatchAction+0x3b8>
    2956: 85 13        	sta	$13                     ; 0x2013 <dispatchAction+0x3b7>
    2958: a0 04        	ldy	#$4
    295a: b1 12        	lda	($12),y                 ; 0x2012 <dispatchAction+0x3b6>
    295c: 4a           	lsr
    295d: 4a           	lsr
    295e: 4a           	lsr
    295f: 4a           	lsr
    2960: 85 22        	sta	$22                     ; 0x2022 <dispatchAction+0x3c6>
    2962: a9 54        	lda	#$54
    2964: 92 10        	sta	($10)                   ; 0x2010 <dispatchAction+0x3b4>
    2966: a9 01        	lda	#$1
    2968: a4 14        	ldy	$14                     ; 0x2014 <dispatchAction+0x3b8>
    296a: 91 10        	sta	($10),y                 ; 0x2010 <dispatchAction+0x3b4>
    296c: 84 24        	sty	$24                     ; 0x2024 <dispatchAction+0x3c8>
    296e: a0 02        	ldy	#$2
    2970: 3a           	dec
    2971: 91 10        	sta	($10),y                 ; 0x2010 <dispatchAction+0x3b4>
    2973: a2 95        	ldx	#$95
    2975: 86 12        	stx	$12                     ; 0x2012 <dispatchAction+0x3b6>
    2977: a2 70        	ldx	#$70
    2979: 86 13        	stx	$13                     ; 0x2013 <dispatchAction+0x3b7>
    297b: a2 0f        	ldx	#$f
    297d: 86 14        	stx	$14                     ; 0x2014 <dispatchAction+0x3b8>
    297f: 64 15        	stz	$15                     ; 0x2015 <dispatchAction+0x3b9>
    2981: 64 16        	stz	$16                     ; 0x2016 <dispatchAction+0x3ba>
    2983: 64 17        	stz	$17                     ; 0x2017 <dispatchAction+0x3bb>
    2985: 64 18        	stz	$18                     ; 0x2018 <dispatchAction+0x3bc>
    2987: 64 19        	stz	$19                     ; 0x2019 <dispatchAction+0x3bd>
    2989: 64 1a        	stz	$1a                     ; 0x201a <dispatchAction+0x3be>
    298b: 64 1b        	stz	$1b                     ; 0x201b <dispatchAction+0x3bf>
    298d: 64 1c        	stz	$1c                     ; 0x201c <dispatchAction+0x3c0>
    298f: a2 01        	ldx	#$1
    2991: 86 1d        	stx	$1d                     ; 0x201d <dispatchAction+0x3c1>
    2993: 64 1e        	stz	$1e                     ; 0x201e <dispatchAction+0x3c2>
    2995: 64 1f        	stz	$1f                     ; 0x201f <dispatchAction+0x3c3>
    2997: aa           	tax
    2998: a5 22        	lda	$22                     ; 0x2022 <dispatchAction+0x3c6>
    299a: 20 98 44     	jsr	$4498 <setSlider>
    299d: a5 e1        	lda	$e1                     ; 0x20e1 <dispatchAction+0x485>
    299f: a6 e2        	ldx	$e2                     ; 0x20e2 <dispatchAction+0x486>
    29a1: 85 12        	sta	$12                     ; 0x2012 <dispatchAction+0x3b6>
    29a3: 86 13        	stx	$13                     ; 0x2013 <dispatchAction+0x3b7>
    29a5: 18           	clc
    29a6: 69 04        	adc	#$4
    29a8: 85 14        	sta	$14                     ; 0x2014 <dispatchAction+0x3b8>
    29aa: 8a           	txa
    29ab: 69 00        	adc	#$0
    29ad: 85 15        	sta	$15                     ; 0x2015 <dispatchAction+0x3b9>
    29af: a0 04        	ldy	#$4
    29b1: b1 12        	lda	($12),y                 ; 0x2012 <dispatchAction+0x3b6>
    29b3: 85 12        	sta	$12                     ; 0x2012 <dispatchAction+0x3b6>
    29b5: a4 24        	ldy	$24                     ; 0x2024 <dispatchAction+0x3c8>
    29b7: b1 14        	lda	($14),y                 ; 0x2014 <dispatchAction+0x3b8>
    29b9: 84 14        	sty	$14                     ; 0x2014 <dispatchAction+0x3b8>
    29bb: 85 13        	sta	$13                     ; 0x2013 <dispatchAction+0x3b7>
    29bd: a9 0f        	lda	#$f
    29bf: a0 04        	ldy	#$4
    29c1: 31 12        	and	($12),y                 ; 0x2012 <dispatchAction+0x3b6>
    29c3: 85 22        	sta	$22                     ; 0x2022 <dispatchAction+0x3c6>
    29c5: a9 54        	lda	#$54
    29c7: 92 10        	sta	($10)                   ; 0x2010 <dispatchAction+0x3b4>
    29c9: a9 01        	lda	#$1
    29cb: a4 14        	ldy	$14                     ; 0x2014 <dispatchAction+0x3b8>
    29cd: 91 10        	sta	($10),y                 ; 0x2010 <dispatchAction+0x3b4>
    29cf: 84 24        	sty	$24                     ; 0x2024 <dispatchAction+0x3c8>
    29d1: a0 02        	ldy	#$2
    29d3: 3a           	dec
    29d4: 91 10        	sta	($10),y                 ; 0x2010 <dispatchAction+0x3b4>
    29d6: a2 c5        	ldx	#$c5
    29d8: 86 12        	stx	$12                     ; 0x2012 <dispatchAction+0x3b6>
    29da: a2 70        	ldx	#$70
    29dc: 86 13        	stx	$13                     ; 0x2013 <dispatchAction+0x3b7>
    29de: a2 0f        	ldx	#$f
    29e0: 86 14        	stx	$14                     ; 0x2014 <dispatchAction+0x3b8>
    29e2: 64 15        	stz	$15                     ; 0x2015 <dispatchAction+0x3b9>
    29e4: 64 16        	stz	$16                     ; 0x2016 <dispatchAction+0x3ba>
    29e6: 64 17        	stz	$17                     ; 0x2017 <dispatchAction+0x3bb>
    29e8: 64 18        	stz	$18                     ; 0x2018 <dispatchAction+0x3bc>
    29ea: 64 19        	stz	$19                     ; 0x2019 <dispatchAction+0x3bd>
    29ec: 64 1a        	stz	$1a                     ; 0x201a <dispatchAction+0x3be>
    29ee: 64 1b        	stz	$1b                     ; 0x201b <dispatchAction+0x3bf>
    29f0: 64 1c        	stz	$1c                     ; 0x201c <dispatchAction+0x3c0>
    29f2: a2 01        	ldx	#$1
    29f4: 86 1d        	stx	$1d                     ; 0x201d <dispatchAction+0x3c1>
    29f6: 64 1e        	stz	$1e                     ; 0x201e <dispatchAction+0x3c2>
    29f8: 64 1f        	stz	$1f                     ; 0x201f <dispatchAction+0x3c3>
    29fa: aa           	tax
    29fb: a5 22        	lda	$22                     ; 0x2022 <dispatchAction+0x3c6>
    29fd: 20 98 44     	jsr	$4498 <setSlider>
    2a00: ae 73 6c     	ldx	$6c73                   ; 0x6c73 <sidSpriteAction+0x11>
    2a03: a9 25        	lda	#$25
    2a05: 92 10        	sta	($10)                   ; 0x2010 <dispatchAction+0x3b4>
    2a07: a4 24        	ldy	$24                     ; 0x2024 <dispatchAction+0x3c8>
    2a09: a9 71        	lda	#$71
    2a0b: 91 10        	sta	($10),y                 ; 0x2010 <dispatchAction+0x3b4>
    2a0d: a9 10        	lda	#$10
    2a0f: 86 1f        	stx	$1f                     ; 0x201f <dispatchAction+0x3c3>
    2a11: 64 12        	stz	$12                     ; 0x2012 <dispatchAction+0x3b6>
    2a13: a0 5d        	ldy	#$5d
    2a15: 84 13        	sty	$13                     ; 0x2013 <dispatchAction+0x3b7>
    2a17: 64 14        	stz	$14                     ; 0x2014 <dispatchAction+0x3b8>
    2a19: 64 15        	stz	$15                     ; 0x2015 <dispatchAction+0x3b9>
    2a1b: a0 20        	ldy	#$20
    2a1d: 84 16        	sty	$16                     ; 0x2016 <dispatchAction+0x3ba>
    2a1f: a0 01        	ldy	#$1
    2a21: 84 17        	sty	$17                     ; 0x2017 <dispatchAction+0x3bb>
    2a23: 64 18        	stz	$18                     ; 0x2018 <dispatchAction+0x3bc>
    2a25: 64 19        	stz	$19                     ; 0x2019 <dispatchAction+0x3bd>
    2a27: 85 1a        	sta	$1a                     ; 0x201a <dispatchAction+0x3be>
    2a29: 64 1b        	stz	$1b                     ; 0x201b <dispatchAction+0x3bf>
    2a2b: a2 0d        	ldx	#$d
    2a2d: 86 1c        	stx	$1c                     ; 0x201c <dispatchAction+0x3c0>
    2a2f: 64 1d        	stz	$1d                     ; 0x201d <dispatchAction+0x3c1>
    2a31: 86 1e        	stx	$1e                     ; 0x201e <dispatchAction+0x3c2>
    2a33: a2 6a        	ldx	#$6a
    2a35: 1a           	inc
    2a36: 20 2d 3a     	jsr	$3a2d <setGeneric>
    2a39: a2 05        	ldx	#$5
    2a3b: a9 38        	lda	#$38
    2a3d: 92 10        	sta	($10)                   ; 0x2010 <dispatchAction+0x3b4>
    2a3f: a4 24        	ldy	$24                     ; 0x2024 <dispatchAction+0x3c8>
    2a41: a9 71        	lda	#$71
    2a43: 91 10        	sta	($10),y                 ; 0x2010 <dispatchAction+0x3b4>
    2a45: a9 ff        	lda	#$ff
    2a47: 64 12        	stz	$12                     ; 0x2012 <dispatchAction+0x3b6>
    2a49: 86 13        	stx	$13                     ; 0x2013 <dispatchAction+0x3b7>
    2a4b: 64 14        	stz	$14                     ; 0x2014 <dispatchAction+0x3b8>
    2a4d: 64 15        	stz	$15                     ; 0x2015 <dispatchAction+0x3b9>
    2a4f: a2 54        	ldx	#$54
    2a51: 86 16        	stx	$16                     ; 0x2016 <dispatchAction+0x3ba>
    2a53: a2 01        	ldx	#$1
    2a55: 86 17        	stx	$17                     ; 0x2017 <dispatchAction+0x3bb>
    2a57: 64 18        	stz	$18                     ; 0x2018 <dispatchAction+0x3bc>
    2a59: 64 19        	stz	$19                     ; 0x2019 <dispatchAction+0x3bd>
    2a5b: a2 10        	ldx	#$10
    2a5d: 86 1a        	stx	$1a                     ; 0x201a <dispatchAction+0x3be>
    2a5f: 64 1b        	stz	$1b                     ; 0x201b <dispatchAction+0x3bf>
    2a61: 64 1c        	stz	$1c                     ; 0x201c <dispatchAction+0x3c0>
    2a63: 64 1d        	stz	$1d                     ; 0x201d <dispatchAction+0x3c1>
    2a65: 64 1e        	stz	$1e                     ; 0x201e <dispatchAction+0x3c2>
    2a67: 85 1f        	sta	$1f                     ; 0x201f <dispatchAction+0x3c3>
    2a69: a2 04        	ldx	#$4
    2a6b: 20 2d 3a     	jsr	$3a2d <setGeneric>
    2a6e: a9 4c        	lda	#$4c
    2a70: 92 10        	sta	($10)                   ; 0x2010 <dispatchAction+0x3b4>
    2a72: a4 24        	ldy	$24                     ; 0x2024 <dispatchAction+0x3c8>
    2a74: a9 71        	lda	#$71
    2a76: 91 10        	sta	($10),y                 ; 0x2010 <dispatchAction+0x3b4>
    2a78: 64 12        	stz	$12                     ; 0x2012 <dispatchAction+0x3b6>
    2a7a: a0 05        	ldy	#$5
    2a7c: 84 13        	sty	$13                     ; 0x2013 <dispatchAction+0x3b7>
    2a7e: 64 14        	stz	$14                     ; 0x2014 <dispatchAction+0x3b8>
    2a80: 64 15        	stz	$15                     ; 0x2015 <dispatchAction+0x3b9>
    2a82: a2 54        	ldx	#$54
    2a84: 86 16        	stx	$16                     ; 0x2016 <dispatchAction+0x3ba>
    2a86: a2 01        	ldx	#$1
    2a88: 86 17        	stx	$17                     ; 0x2017 <dispatchAction+0x3bb>
    2a8a: 64 18        	stz	$18                     ; 0x2018 <dispatchAction+0x3bc>
    2a8c: 64 19        	stz	$19                     ; 0x2019 <dispatchAction+0x3bd>
    2a8e: a2 10        	ldx	#$10
    2a90: 86 1a        	stx	$1a                     ; 0x201a <dispatchAction+0x3be>
    2a92: 64 1b        	stz	$1b                     ; 0x201b <dispatchAction+0x3bf>
    2a94: 64 1c        	stz	$1c                     ; 0x201c <dispatchAction+0x3c0>
    2a96: 64 1d        	stz	$1d                     ; 0x201d <dispatchAction+0x3c1>
    2a98: 64 1e        	stz	$1e                     ; 0x201e <dispatchAction+0x3c2>
    2a9a: a9 ff        	lda	#$ff
    2a9c: 85 1f        	sta	$1f                     ; 0x201f <dispatchAction+0x3c3>
    2a9e: a2 05        	ldx	#$5
    2aa0: 20 2d 3a     	jsr	$3a2d <setGeneric>
    2aa3: a5 e1        	lda	$e1                     ; 0x20e1 <dispatchAction+0x485>
    2aa5: a6 e2        	ldx	$e2                     ; 0x20e2 <dispatchAction+0x486>
    2aa7: 85 12        	sta	$12                     ; 0x2012 <dispatchAction+0x3b6>
    2aa9: 86 13        	stx	$13                     ; 0x2013 <dispatchAction+0x3b7>
    2aab: 18           	clc
    2aac: 69 04        	adc	#$4
    2aae: 85 14        	sta	$14                     ; 0x2014 <dispatchAction+0x3b8>
    2ab0: 8a           	txa
    2ab1: 69 00        	adc	#$0
    2ab3: 85 15        	sta	$15                     ; 0x2015 <dispatchAction+0x3b9>
    2ab5: a0 04        	ldy	#$4
    2ab7: b1 12        	lda	($12),y                 ; 0x2012 <dispatchAction+0x3b6>
    2ab9: 85 12        	sta	$12                     ; 0x2012 <dispatchAction+0x3b6>
    2abb: a4 24        	ldy	$24                     ; 0x2024 <dispatchAction+0x3c8>
    2abd: b1 14        	lda	($14),y                 ; 0x2014 <dispatchAction+0x3b8>
    2abf: 84 14        	sty	$14                     ; 0x2014 <dispatchAction+0x3b8>
    2ac1: 85 13        	sta	$13                     ; 0x2013 <dispatchAction+0x3b7>
    2ac3: a0 02        	ldy	#$2
    2ac5: b1 12        	lda	($12),y                 ; 0x2012 <dispatchAction+0x3b6>
    2ac7: 85 15        	sta	$15                     ; 0x2015 <dispatchAction+0x3b9>
    2ac9: a4 14        	ldy	$14                     ; 0x2014 <dispatchAction+0x3b8>
    2acb: b1 12        	lda	($12),y                 ; 0x2012 <dispatchAction+0x3b6>
    2acd: aa           	tax
    2ace: a5 15        	lda	$15                     ; 0x2015 <dispatchAction+0x3b9>
    2ad0: 0a           	asl
    2ad1: 0a           	asl
    2ad2: 0a           	asl
    2ad3: 0a           	asl
    2ad4: 85 12        	sta	$12                     ; 0x2012 <dispatchAction+0x3b6>
    2ad6: 8a           	txa
    2ad7: 4a           	lsr
    2ad8: 4a           	lsr
    2ad9: 4a           	lsr
    2ada: 4a           	lsr
    2adb: 05 12        	ora	$12                     ; 0x2012 <dispatchAction+0x3b6>
    2add: 85 22        	sta	$22                     ; 0x2022 <dispatchAction+0x3c6>
    2adf: a9 54        	lda	#$54
    2ae1: 92 10        	sta	($10)                   ; 0x2010 <dispatchAction+0x3b4>
    2ae3: a9 01        	lda	#$1
    2ae5: 91 10        	sta	($10),y                 ; 0x2010 <dispatchAction+0x3b4>
    2ae7: 84 24        	sty	$24                     ; 0x2024 <dispatchAction+0x3c8>
    2ae9: a0 02        	ldy	#$2
    2aeb: 3a           	dec
    2aec: 91 10        	sta	($10),y                 ; 0x2010 <dispatchAction+0x3b4>
    2aee: a9 f0        	lda	#$f0
    2af0: c8           	iny
    2af1: 91 10        	sta	($10),y                 ; 0x2010 <dispatchAction+0x3b4>
    2af3: a9 04        	lda	#$4
    2af5: a8           	tay
    2af6: 91 10        	sta	($10),y                 ; 0x2010 <dispatchAction+0x3b4>
    2af8: a9 0f        	lda	#$f
    2afa: c8           	iny
    2afb: 91 10        	sta	($10),y                 ; 0x2010 <dispatchAction+0x3b4>
    2afd: c8           	iny
    2afe: a9 00        	lda	#$0
    2b00: 91 10        	sta	($10),y                 ; 0x2010 <dispatchAction+0x3b4>
    2b02: a2 25        	ldx	#$25
    2b04: 86 12        	stx	$12                     ; 0x2012 <dispatchAction+0x3b6>
    2b06: a2 71        	ldx	#$71
    2b08: 86 13        	stx	$13                     ; 0x2013 <dispatchAction+0x3b7>
    2b0a: a2 ff        	ldx	#$ff
    2b0c: 86 14        	stx	$14                     ; 0x2014 <dispatchAction+0x3b8>
    2b0e: 64 15        	stz	$15                     ; 0x2015 <dispatchAction+0x3b9>
    2b10: 64 16        	stz	$16                     ; 0x2016 <dispatchAction+0x3ba>
    2b12: 64 17        	stz	$17                     ; 0x2017 <dispatchAction+0x3bb>
    2b14: 64 18        	stz	$18                     ; 0x2018 <dispatchAction+0x3bc>
    2b16: 64 19        	stz	$19                     ; 0x2019 <dispatchAction+0x3bd>
    2b18: 64 1a        	stz	$1a                     ; 0x201a <dispatchAction+0x3be>
    2b1a: 64 1b        	stz	$1b                     ; 0x201b <dispatchAction+0x3bf>
    2b1c: 64 1c        	stz	$1c                     ; 0x201c <dispatchAction+0x3c0>
    2b1e: a2 01        	ldx	#$1
    2b20: 86 1d        	stx	$1d                     ; 0x201d <dispatchAction+0x3c1>
    2b22: 64 1e        	stz	$1e                     ; 0x201e <dispatchAction+0x3c2>
    2b24: 64 1f        	stz	$1f                     ; 0x201f <dispatchAction+0x3c3>
    2b26: aa           	tax
    2b27: a5 22        	lda	$22                     ; 0x2022 <dispatchAction+0x3c6>
    2b29: 20 dd 3f     	jsr	$3fdd <setDial>
    2b2c: ae 74 6c     	ldx	$6c74                   ; 0x6c74 <sidSpriteAction+0x12>
    2b2f: a9 6d        	lda	#$6d
    2b31: 92 10        	sta	($10)                   ; 0x2010 <dispatchAction+0x3b4>
    2b33: a9 71        	lda	#$71
    2b35: a4 24        	ldy	$24                     ; 0x2024 <dispatchAction+0x3c8>
    2b37: 91 10        	sta	($10),y                 ; 0x2010 <dispatchAction+0x3b4>
    2b39: a9 01        	lda	#$1
    2b3b: a0 5d        	ldy	#$5d
    2b3d: 84 13        	sty	$13                     ; 0x2013 <dispatchAction+0x3b7>
    2b3f: a0 20        	ldy	#$20
    2b41: 84 16        	sty	$16                     ; 0x2016 <dispatchAction+0x3ba>
    2b43: a0 0d        	ldy	#$d
    2b45: 84 1c        	sty	$1c                     ; 0x201c <dispatchAction+0x3c0>
    2b47: 84 1e        	sty	$1e                     ; 0x201e <dispatchAction+0x3c2>
    2b49: 86 1f        	stx	$1f                     ; 0x201f <dispatchAction+0x3c3>
    2b4b: 64 12        	stz	$12                     ; 0x2012 <dispatchAction+0x3b6>
    2b4d: 64 14        	stz	$14                     ; 0x2014 <dispatchAction+0x3b8>
    2b4f: 64 15        	stz	$15                     ; 0x2015 <dispatchAction+0x3b9>
    2b51: aa           	tax
    2b52: 86 17        	stx	$17                     ; 0x2017 <dispatchAction+0x3bb>
    2b54: 64 18        	stz	$18                     ; 0x2018 <dispatchAction+0x3bc>
    2b56: 85 19        	sta	$19                     ; 0x2019 <dispatchAction+0x3bd>
    2b58: a2 10        	ldx	#$10
    2b5a: 86 1a        	stx	$1a                     ; 0x201a <dispatchAction+0x3be>
    2b5c: 64 1b        	stz	$1b                     ; 0x201b <dispatchAction+0x3bf>
    2b5e: 64 1d        	stz	$1d                     ; 0x201d <dispatchAction+0x3c1>
    2b60: a2 81        	ldx	#$81
    2b62: a9 12        	lda	#$12
    2b64: 20 2d 3a     	jsr	$3a2d <setGeneric>
    2b67: a9 80        	lda	#$80
    2b69: 92 10        	sta	($10)                   ; 0x2010 <dispatchAction+0x3b4>
    2b6b: a4 24        	ldy	$24                     ; 0x2024 <dispatchAction+0x3c8>
    2b6d: a9 71        	lda	#$71
    2b6f: 91 10        	sta	($10),y                 ; 0x2010 <dispatchAction+0x3b4>
    2b71: 64 12        	stz	$12                     ; 0x2012 <dispatchAction+0x3b6>
    2b73: a2 05        	ldx	#$5
    2b75: 86 13        	stx	$13                     ; 0x2013 <dispatchAction+0x3b7>
    2b77: 64 14        	stz	$14                     ; 0x2014 <dispatchAction+0x3b8>
    2b79: 64 15        	stz	$15                     ; 0x2015 <dispatchAction+0x3b9>
    2b7b: a2 54        	ldx	#$54
    2b7d: 86 16        	stx	$16                     ; 0x2016 <dispatchAction+0x3ba>
    2b7f: a2 01        	ldx	#$1
    2b81: 86 17        	stx	$17                     ; 0x2017 <dispatchAction+0x3bb>
    2b83: 64 18        	stz	$18                     ; 0x2018 <dispatchAction+0x3bc>
    2b85: 64 19        	stz	$19                     ; 0x2019 <dispatchAction+0x3bd>
    2b87: a2 10        	ldx	#$10
    2b89: 86 1a        	stx	$1a                     ; 0x201a <dispatchAction+0x3be>
    2b8b: 64 1b        	stz	$1b                     ; 0x201b <dispatchAction+0x3bf>
    2b8d: 64 1c        	stz	$1c                     ; 0x201c <dispatchAction+0x3c0>
    2b8f: 64 1d        	stz	$1d                     ; 0x201d <dispatchAction+0x3c1>
    2b91: 64 1e        	stz	$1e                     ; 0x201e <dispatchAction+0x3c2>
    2b93: a9 ff        	lda	#$ff
    2b95: 85 1f        	sta	$1f                     ; 0x201f <dispatchAction+0x3c3>
    2b97: a2 06        	ldx	#$6
    2b99: 20 2d 3a     	jsr	$3a2d <setGeneric>
    2b9c: a5 e1        	lda	$e1                     ; 0x20e1 <dispatchAction+0x485>
    2b9e: a6 e2        	ldx	$e2                     ; 0x20e2 <dispatchAction+0x486>
    2ba0: 85 12        	sta	$12                     ; 0x2012 <dispatchAction+0x3b6>
    2ba2: 86 13        	stx	$13                     ; 0x2013 <dispatchAction+0x3b7>
    2ba4: 18           	clc
    2ba5: 69 04        	adc	#$4
    2ba7: 85 14        	sta	$14                     ; 0x2014 <dispatchAction+0x3b8>
    2ba9: 8a           	txa
    2baa: 69 00        	adc	#$0
    2bac: 85 15        	sta	$15                     ; 0x2015 <dispatchAction+0x3b9>
    2bae: a0 04        	ldy	#$4
    2bb0: b1 12        	lda	($12),y                 ; 0x2012 <dispatchAction+0x3b6>
    2bb2: 85 12        	sta	$12                     ; 0x2012 <dispatchAction+0x3b6>
    2bb4: a4 24        	ldy	$24                     ; 0x2024 <dispatchAction+0x3c8>
    2bb6: b1 14        	lda	($14),y                 ; 0x2014 <dispatchAction+0x3b8>
    2bb8: 85 13        	sta	$13                     ; 0x2013 <dispatchAction+0x3b7>
    2bba: a9 0f        	lda	#$f
    2bbc: 31 12        	and	($12),y                 ; 0x2012 <dispatchAction+0x3b6>
    2bbe: 85 22        	sta	$22                     ; 0x2022 <dispatchAction+0x3c6>
    2bc0: a9 01        	lda	#$1
    2bc2: 91 10        	sta	($10),y                 ; 0x2010 <dispatchAction+0x3b4>
    2bc4: a0 02        	ldy	#$2
    2bc6: 3a           	dec
    2bc7: 91 10        	sta	($10),y                 ; 0x2010 <dispatchAction+0x3b4>
    2bc9: a9 54        	lda	#$54
    2bcb: 92 10        	sta	($10)                   ; 0x2010 <dispatchAction+0x3b4>
    2bcd: a2 03        	ldx	#$3
    2bcf: 8a           	txa
    2bd0: a0 09        	ldy	#$9
    2bd2: 91 10        	sta	($10),y                 ; 0x2010 <dispatchAction+0x3b4>
    2bd4: a0 03        	ldy	#$3
    2bd6: a9 0f        	lda	#$f
    2bd8: 91 10        	sta	($10),y                 ; 0x2010 <dispatchAction+0x3b4>
    2bda: aa           	tax
    2bdb: c8           	iny
    2bdc: a9 00        	lda	#$0
    2bde: 91 10        	sta	($10),y                 ; 0x2010 <dispatchAction+0x3b4>
    2be0: c8           	iny
    2be1: 91 10        	sta	($10),y                 ; 0x2010 <dispatchAction+0x3b4>
    2be3: c8           	iny
    2be4: 91 10        	sta	($10),y                 ; 0x2010 <dispatchAction+0x3b4>
    2be6: a0 6d        	ldy	#$6d
    2be8: 84 12        	sty	$12                     ; 0x2012 <dispatchAction+0x3b6>
    2bea: a0 71        	ldy	#$71
    2bec: 84 13        	sty	$13                     ; 0x2013 <dispatchAction+0x3b7>
    2bee: 86 14        	stx	$14                     ; 0x2014 <dispatchAction+0x3b8>
    2bf0: 64 15        	stz	$15                     ; 0x2015 <dispatchAction+0x3b9>
    2bf2: 64 16        	stz	$16                     ; 0x2016 <dispatchAction+0x3ba>
    2bf4: 64 17        	stz	$17                     ; 0x2017 <dispatchAction+0x3bb>
    2bf6: 64 18        	stz	$18                     ; 0x2018 <dispatchAction+0x3bc>
    2bf8: 64 19        	stz	$19                     ; 0x2019 <dispatchAction+0x3bd>
    2bfa: 64 1a        	stz	$1a                     ; 0x201a <dispatchAction+0x3be>
    2bfc: 64 1b        	stz	$1b                     ; 0x201b <dispatchAction+0x3bf>
    2bfe: 64 1c        	stz	$1c                     ; 0x201c <dispatchAction+0x3c0>
    2c00: a2 01        	ldx	#$1
    2c02: 86 1d        	stx	$1d                     ; 0x201d <dispatchAction+0x3c1>
    2c04: 64 1e        	stz	$1e                     ; 0x201e <dispatchAction+0x3c2>
    2c06: 64 1f        	stz	$1f                     ; 0x201f <dispatchAction+0x3c3>
    2c08: aa           	tax
    2c09: a5 22        	lda	$22                     ; 0x2022 <dispatchAction+0x3c6>
    2c0b: 20 dd 3f     	jsr	$3fdd <setDial>
    2c0e: a2 91        	ldx	#$91
    2c10: 86 24        	stx	$24                     ; 0x2024 <dispatchAction+0x3c8>
    2c12: a2 6e        	ldx	#$6e
    2c14: 86 25        	stx	$25                     ; 0x2025 <dispatchAction+0x3c9>
    2c16: 18           	clc
    2c17: a0 09        	ldy	#$9
    2c19: b1 10        	lda	($10),y                 ; 0x2010 <dispatchAction+0x3b4>
    2c1b: 85 26        	sta	$26                     ; 0x2026 <dispatchAction+0x3ca>
    2c1d: 69 fd        	adc	#$fd
    2c1f: 85 19        	sta	$19                     ; 0x2019 <dispatchAction+0x3bd>
    2c21: a5 24        	lda	$24                     ; 0x2024 <dispatchAction+0x3c8>
    2c23: 92 10        	sta	($10)                   ; 0x2010 <dispatchAction+0x3b4>
    2c25: a0 01        	ldy	#$1
    2c27: a5 25        	lda	$25                     ; 0x2025 <dispatchAction+0x3c9>
    2c29: 91 10        	sta	($10),y                 ; 0x2010 <dispatchAction+0x3b4>
    2c2b: 85 27        	sta	$27                     ; 0x2027 <dispatchAction+0x3cb>
    2c2d: 64 12        	stz	$12                     ; 0x2012 <dispatchAction+0x3b6>
    2c2f: a2 0e        	ldx	#$e
    2c31: 86 13        	stx	$13                     ; 0x2013 <dispatchAction+0x3b7>
    2c33: 64 14        	stz	$14                     ; 0x2014 <dispatchAction+0x3b8>
    2c35: a2 3a        	ldx	#$3a
    2c37: 86 15        	stx	$15                     ; 0x2015 <dispatchAction+0x3b9>
    2c39: 64 16        	stz	$16                     ; 0x2016 <dispatchAction+0x3ba>
    2c3b: 84 17        	sty	$17                     ; 0x2017 <dispatchAction+0x3bb>
    2c3d: 64 18        	stz	$18                     ; 0x2018 <dispatchAction+0x3bc>
    2c3f: a2 10        	ldx	#$10
    2c41: 86 1a        	stx	$1a                     ; 0x201a <dispatchAction+0x3be>
    2c43: 64 1b        	stz	$1b                     ; 0x201b <dispatchAction+0x3bf>
    2c45: 64 1c        	stz	$1c                     ; 0x201c <dispatchAction+0x3c0>
    2c47: 64 1d        	stz	$1d                     ; 0x201d <dispatchAction+0x3c1>
    2c49: 64 1e        	stz	$1e                     ; 0x201e <dispatchAction+0x3c2>
    2c4b: a9 ff        	lda	#$ff
    2c4d: 85 1f        	sta	$1f                     ; 0x201f <dispatchAction+0x3c3>
    2c4f: a6 26        	ldx	$26                     ; 0x2026 <dispatchAction+0x3ca>
    2c51: 20 2d 3a     	jsr	$3a2d <setGeneric>
    2c54: a6 24        	ldx	$24                     ; 0x2024 <dispatchAction+0x3c8>
    2c56: 86 12        	stx	$12                     ; 0x2012 <dispatchAction+0x3b6>
    2c58: a6 25        	ldx	$25                     ; 0x2025 <dispatchAction+0x3c9>
    2c5a: 86 13        	stx	$13                     ; 0x2013 <dispatchAction+0x3b7>
    2c5c: 64 14        	stz	$14                     ; 0x2014 <dispatchAction+0x3b8>
    2c5e: a2 01        	ldx	#$1
    2c60: 86 15        	stx	$15                     ; 0x2015 <dispatchAction+0x3b9>
    2c62: 64 16        	stz	$16                     ; 0x2016 <dispatchAction+0x3ba>
    2c64: ca           	dex
    2c65: 8a           	txa
    2c66: 20 f9 45     	jsr	$45f9 <setLighter>
    2c69: 18           	clc
    2c6a: a5 24        	lda	$24                     ; 0x2024 <dispatchAction+0x3c8>
    2c6c: 69 14        	adc	#$14
    2c6e: 85 24        	sta	$24                     ; 0x2024 <dispatchAction+0x3c8>
    2c70: a5 27        	lda	$27                     ; 0x2027 <dispatchAction+0x3cb>
    2c72: 69 00        	adc	#$0
    2c74: 85 25        	sta	$25                     ; 0x2025 <dispatchAction+0x3c9>
    2c76: e6 26        	inc	$26                     ; 0x2026 <dispatchAction+0x3ca>
    2c78: a5 26        	lda	$26                     ; 0x2026 <dispatchAction+0x3ca>
    2c7a: a0 09        	ldy	#$9
    2c7c: 91 10        	sta	($10),y                 ; 0x2010 <dispatchAction+0x3b4>
    2c7e: a6 26        	ldx	$26                     ; 0x2026 <dispatchAction+0x3ca>
    2c80: e0 09        	cpx	#$9
    2c82: f0 03        	beq	$2c87 <loadGUISID+0x59e>
    2c84: 4c 16 2c     	jmp	$2c16 <loadGUISID+0x52d>
    2c87: ae 75 6c     	ldx	$6c75                   ; 0x6c75 <sidSpriteAction+0x13>
    2c8a: a0 01        	ldy	#$1
    2c8c: a9 fe        	lda	#$fe
    2c8e: 92 10        	sta	($10)                   ; 0x2010 <dispatchAction+0x3b4>
    2c90: a9 6d        	lda	#$6d
    2c92: 91 10        	sta	($10),y                 ; 0x2010 <dispatchAction+0x3b4>
    2c94: 84 24        	sty	$24                     ; 0x2024 <dispatchAction+0x3c8>
    2c96: a0 08        	ldy	#$8
    2c98: a9 83        	lda	#$83
    2c9a: 85 13        	sta	$13                     ; 0x2013 <dispatchAction+0x3b7>
    2c9c: 84 19        	sty	$19                     ; 0x2019 <dispatchAction+0x3bd>
    2c9e: 86 1f        	stx	$1f                     ; 0x201f <dispatchAction+0x3c3>
    2ca0: 64 12        	stz	$12                     ; 0x2012 <dispatchAction+0x3b6>
    2ca2: 64 14        	stz	$14                     ; 0x2014 <dispatchAction+0x3b8>
    2ca4: 64 15        	stz	$15                     ; 0x2015 <dispatchAction+0x3b9>
    2ca6: a2 38        	ldx	#$38
    2ca8: 86 16        	stx	$16                     ; 0x2016 <dispatchAction+0x3ba>
    2caa: a2 01        	ldx	#$1
    2cac: 86 17        	stx	$17                     ; 0x2017 <dispatchAction+0x3bb>
    2cae: 64 18        	stz	$18                     ; 0x2018 <dispatchAction+0x3bc>
    2cb0: a2 10        	ldx	#$10
    2cb2: 86 1a        	stx	$1a                     ; 0x201a <dispatchAction+0x3be>
    2cb4: 64 1b        	stz	$1b                     ; 0x201b <dispatchAction+0x3bf>
    2cb6: a2 0d        	ldx	#$d
    2cb8: 86 1c        	stx	$1c                     ; 0x201c <dispatchAction+0x3c0>
    2cba: a2 04        	ldx	#$4
    2cbc: 86 1d        	stx	$1d                     ; 0x201d <dispatchAction+0x3c1>
    2cbe: a2 0b        	ldx	#$b
    2cc0: 86 1e        	stx	$1e                     ; 0x201e <dispatchAction+0x3c2>
    2cc2: a2 d5        	ldx	#$d5
    2cc4: a9 13        	lda	#$13
    2cc6: 20 2d 3a     	jsr	$3a2d <setGeneric>
    2cc9: a2 fe        	ldx	#$fe
    2ccb: 86 12        	stx	$12                     ; 0x2012 <dispatchAction+0x3b6>
    2ccd: a2 6d        	ldx	#$6d
    2ccf: 86 13        	stx	$13                     ; 0x2013 <dispatchAction+0x3b7>
    2cd1: 64 14        	stz	$14                     ; 0x2014 <dispatchAction+0x3b8>
    2cd3: a2 ff        	ldx	#$ff
    2cd5: a9 00        	lda	#$0
    2cd7: 20 87 3b     	jsr	$3b87 <setRadioB>
    2cda: ae 76 6c     	ldx	$6c76                   ; 0x6c76 <sidSpriteAction+0x14>
    2cdd: 86 1f        	stx	$1f                     ; 0x201f <dispatchAction+0x3c3>
    2cdf: a9 b5        	lda	#$b5
    2ce1: 92 10        	sta	($10)                   ; 0x2010 <dispatchAction+0x3b4>
    2ce3: a4 24        	ldy	$24                     ; 0x2024 <dispatchAction+0x3c8>
    2ce5: a9 71        	lda	#$71
    2ce7: 91 10        	sta	($10),y                 ; 0x2010 <dispatchAction+0x3b4>
    2ce9: a9 02        	lda	#$2
    2ceb: a2 01        	ldx	#$1
    2ced: 86 12        	stx	$12                     ; 0x2012 <dispatchAction+0x3b6>
    2cef: a0 a7        	ldy	#$a7
    2cf1: 84 13        	sty	$13                     ; 0x2013 <dispatchAction+0x3b7>
    2cf3: 64 14        	stz	$14                     ; 0x2014 <dispatchAction+0x3b8>
    2cf5: 64 15        	stz	$15                     ; 0x2015 <dispatchAction+0x3b9>
    2cf7: a0 20        	ldy	#$20
    2cf9: 84 16        	sty	$16                     ; 0x2016 <dispatchAction+0x3ba>
    2cfb: 86 17        	stx	$17                     ; 0x2017 <dispatchAction+0x3bb>
    2cfd: 64 18        	stz	$18                     ; 0x2018 <dispatchAction+0x3bc>
    2cff: 85 19        	sta	$19                     ; 0x2019 <dispatchAction+0x3bd>
    2d01: a0 10        	ldy	#$10
    2d03: 84 1a        	sty	$1a                     ; 0x201a <dispatchAction+0x3be>
    2d05: 64 1b        	stz	$1b                     ; 0x201b <dispatchAction+0x3bf>
    2d07: a0 0d        	ldy	#$d
    2d09: 84 1c        	sty	$1c                     ; 0x201c <dispatchAction+0x3c0>
    2d0b: 64 1d        	stz	$1d                     ; 0x201d <dispatchAction+0x3c1>
    2d0d: 84 1e        	sty	$1e                     ; 0x201e <dispatchAction+0x3c2>
    2d0f: a2 05        	ldx	#$5
    2d11: a9 14        	lda	#$14
    2d13: 20 2d 3a     	jsr	$3a2d <setGeneric>
    2d16: a2 0a        	ldx	#$a
    2d18: a9 c8        	lda	#$c8
    2d1a: 92 10        	sta	($10)                   ; 0x2010 <dispatchAction+0x3b4>
    2d1c: a9 71        	lda	#$71
    2d1e: a4 24        	ldy	$24                     ; 0x2024 <dispatchAction+0x3c8>
    2d20: 91 10        	sta	($10),y                 ; 0x2010 <dispatchAction+0x3b4>
    2d22: 64 12        	stz	$12                     ; 0x2012 <dispatchAction+0x3b6>
    2d24: 86 13        	stx	$13                     ; 0x2013 <dispatchAction+0x3b7>
    2d26: 64 14        	stz	$14                     ; 0x2014 <dispatchAction+0x3b8>
    2d28: 64 15        	stz	$15                     ; 0x2015 <dispatchAction+0x3b9>
    2d2a: a0 54        	ldy	#$54
    2d2c: 84 16        	sty	$16                     ; 0x2016 <dispatchAction+0x3ba>
    2d2e: a2 01        	ldx	#$1
    2d30: 86 17        	stx	$17                     ; 0x2017 <dispatchAction+0x3bb>
    2d32: 64 18        	stz	$18                     ; 0x2018 <dispatchAction+0x3bc>
    2d34: 64 19        	stz	$19                     ; 0x2019 <dispatchAction+0x3bd>
    2d36: a0 10        	ldy	#$10
    2d38: 84 1a        	sty	$1a                     ; 0x201a <dispatchAction+0x3be>
    2d3a: 64 1b        	stz	$1b                     ; 0x201b <dispatchAction+0x3bf>
    2d3c: 64 1c        	stz	$1c                     ; 0x201c <dispatchAction+0x3c0>
    2d3e: 64 1d        	stz	$1d                     ; 0x201d <dispatchAction+0x3c1>
    2d40: 64 1e        	stz	$1e                     ; 0x201e <dispatchAction+0x3c2>
    2d42: a0 ff        	ldy	#$ff
    2d44: 84 1f        	sty	$1f                     ; 0x201f <dispatchAction+0x3c3>
    2d46: a2 0e        	ldx	#$e
    2d48: 98           	tya
    2d49: 20 2d 3a     	jsr	$3a2d <setGeneric>
    2d4c: a9 dc        	lda	#$dc
    2d4e: 92 10        	sta	($10)                   ; 0x2010 <dispatchAction+0x3b4>
    2d50: a4 24        	ldy	$24                     ; 0x2024 <dispatchAction+0x3c8>
    2d52: a9 71        	lda	#$71
    2d54: 91 10        	sta	($10),y                 ; 0x2010 <dispatchAction+0x3b4>
    2d56: 64 12        	stz	$12                     ; 0x2012 <dispatchAction+0x3b6>
    2d58: a2 0a        	ldx	#$a
    2d5a: 86 13        	stx	$13                     ; 0x2013 <dispatchAction+0x3b7>
    2d5c: 64 14        	stz	$14                     ; 0x2014 <dispatchAction+0x3b8>
    2d5e: 64 15        	stz	$15                     ; 0x2015 <dispatchAction+0x3b9>
    2d60: a2 54        	ldx	#$54
    2d62: 86 16        	stx	$16                     ; 0x2016 <dispatchAction+0x3ba>
    2d64: a2 01        	ldx	#$1
    2d66: 86 17        	stx	$17                     ; 0x2017 <dispatchAction+0x3bb>
    2d68: 64 18        	stz	$18                     ; 0x2018 <dispatchAction+0x3bc>
    2d6a: 64 19        	stz	$19                     ; 0x2019 <dispatchAction+0x3bd>
    2d6c: a2 10        	ldx	#$10
    2d6e: 86 1a        	stx	$1a                     ; 0x201a <dispatchAction+0x3be>
    2d70: 64 1b        	stz	$1b                     ; 0x201b <dispatchAction+0x3bf>
    2d72: 64 1c        	stz	$1c                     ; 0x201c <dispatchAction+0x3c0>
    2d74: 64 1d        	stz	$1d                     ; 0x201d <dispatchAction+0x3c1>
    2d76: 64 1e        	stz	$1e                     ; 0x201e <dispatchAction+0x3c2>
    2d78: a2 ff        	ldx	#$ff
    2d7a: 86 1f        	stx	$1f                     ; 0x201f <dispatchAction+0x3c3>
    2d7c: a2 0f        	ldx	#$f
    2d7e: a9 ff        	lda	#$ff
    2d80: 20 2d 3a     	jsr	$3a2d <setGeneric>
    2d83: a5 e1        	lda	$e1                     ; 0x20e1 <dispatchAction+0x485>
    2d85: a6 e2        	ldx	$e2                     ; 0x20e2 <dispatchAction+0x486>
    2d87: 85 12        	sta	$12                     ; 0x2012 <dispatchAction+0x3b6>
    2d89: 86 13        	stx	$13                     ; 0x2013 <dispatchAction+0x3b7>
    2d8b: a0 04        	ldy	#$4
    2d8d: 18           	clc
    2d8e: 69 04        	adc	#$4
    2d90: 85 14        	sta	$14                     ; 0x2014 <dispatchAction+0x3b8>
    2d92: 8a           	txa
    2d93: 69 00        	adc	#$0
    2d95: 85 15        	sta	$15                     ; 0x2015 <dispatchAction+0x3b9>
    2d97: b1 12        	lda	($12),y                 ; 0x2012 <dispatchAction+0x3b6>
    2d99: 85 12        	sta	$12                     ; 0x2012 <dispatchAction+0x3b6>
    2d9b: a4 24        	ldy	$24                     ; 0x2024 <dispatchAction+0x3c8>
    2d9d: b1 14        	lda	($14),y                 ; 0x2014 <dispatchAction+0x3b8>
    2d9f: 85 13        	sta	$13                     ; 0x2013 <dispatchAction+0x3b7>
    2da1: a0 07        	ldy	#$7
    2da3: b1 12        	lda	($12),y                 ; 0x2012 <dispatchAction+0x3b6>
    2da5: 85 14        	sta	$14                     ; 0x2014 <dispatchAction+0x3b8>
    2da7: 88           	dey
    2da8: b1 12        	lda	($12),y                 ; 0x2012 <dispatchAction+0x3b6>
    2daa: aa           	tax
    2dab: a5 14        	lda	$14                     ; 0x2014 <dispatchAction+0x3b8>
    2dad: 0a           	asl
    2dae: 0a           	asl
    2daf: 0a           	asl
    2db0: 0a           	asl
    2db1: 85 12        	sta	$12                     ; 0x2012 <dispatchAction+0x3b6>
    2db3: 8a           	txa
    2db4: 4a           	lsr
    2db5: 4a           	lsr
    2db6: 4a           	lsr
    2db7: 4a           	lsr
    2db8: 05 12        	ora	$12                     ; 0x2012 <dispatchAction+0x3b6>
    2dba: 85 22        	sta	$22                     ; 0x2022 <dispatchAction+0x3c6>
    2dbc: a9 54        	lda	#$54
    2dbe: 92 10        	sta	($10)                   ; 0x2010 <dispatchAction+0x3b4>
    2dc0: a4 24        	ldy	$24                     ; 0x2024 <dispatchAction+0x3c8>
    2dc2: a9 01        	lda	#$1
    2dc4: 91 10        	sta	($10),y                 ; 0x2010 <dispatchAction+0x3b4>
    2dc6: a0 02        	ldy	#$2
    2dc8: 3a           	dec
    2dc9: 91 10        	sta	($10),y                 ; 0x2010 <dispatchAction+0x3b4>
    2dcb: a9 f0        	lda	#$f0
    2dcd: c8           	iny
    2dce: 91 10        	sta	($10),y                 ; 0x2010 <dispatchAction+0x3b4>
    2dd0: a9 04        	lda	#$4
    2dd2: a8           	tay
    2dd3: 91 10        	sta	($10),y                 ; 0x2010 <dispatchAction+0x3b4>
    2dd5: c8           	iny
    2dd6: a9 0f        	lda	#$f
    2dd8: 91 10        	sta	($10),y                 ; 0x2010 <dispatchAction+0x3b4>
    2dda: a9 00        	lda	#$0
    2ddc: c8           	iny
    2ddd: 91 10        	sta	($10),y                 ; 0x2010 <dispatchAction+0x3b4>
    2ddf: a2 b5        	ldx	#$b5
    2de1: 86 12        	stx	$12                     ; 0x2012 <dispatchAction+0x3b6>
    2de3: a2 71        	ldx	#$71
    2de5: 86 13        	stx	$13                     ; 0x2013 <dispatchAction+0x3b7>
    2de7: a2 7f        	ldx	#$7f
    2de9: 86 14        	stx	$14                     ; 0x2014 <dispatchAction+0x3b8>
    2deb: 64 15        	stz	$15                     ; 0x2015 <dispatchAction+0x3b9>
    2ded: 64 16        	stz	$16                     ; 0x2016 <dispatchAction+0x3ba>
    2def: 64 17        	stz	$17                     ; 0x2017 <dispatchAction+0x3bb>
    2df1: 64 18        	stz	$18                     ; 0x2018 <dispatchAction+0x3bc>
    2df3: 64 19        	stz	$19                     ; 0x2019 <dispatchAction+0x3bd>
    2df5: 64 1a        	stz	$1a                     ; 0x201a <dispatchAction+0x3be>
    2df7: 64 1b        	stz	$1b                     ; 0x201b <dispatchAction+0x3bf>
    2df9: 64 1c        	stz	$1c                     ; 0x201c <dispatchAction+0x3c0>
    2dfb: a2 01        	ldx	#$1
    2dfd: 86 1d        	stx	$1d                     ; 0x201d <dispatchAction+0x3c1>
    2dff: 64 1e        	stz	$1e                     ; 0x201e <dispatchAction+0x3c2>
    2e01: 64 1f        	stz	$1f                     ; 0x201f <dispatchAction+0x3c3>
    2e03: aa           	tax
    2e04: a5 22        	lda	$22                     ; 0x2022 <dispatchAction+0x3c6>
    2e06: 20 dd 3f     	jsr	$3fdd <setDial>
    2e09: ae 77 6c     	ldx	$6c77                   ; 0x6c77 <sidSpriteAction+0x15>
    2e0c: a9 fd        	lda	#$fd
    2e0e: 92 10        	sta	($10)                   ; 0x2010 <dispatchAction+0x3b4>
    2e10: a4 24        	ldy	$24                     ; 0x2024 <dispatchAction+0x3c8>
    2e12: a9 71        	lda	#$71
    2e14: 91 10        	sta	($10),y                 ; 0x2010 <dispatchAction+0x3b4>
    2e16: a9 03        	lda	#$3
    2e18: a0 a7        	ldy	#$a7
    2e1a: 84 13        	sty	$13                     ; 0x2013 <dispatchAction+0x3b7>
    2e1c: a0 20        	ldy	#$20
    2e1e: 84 16        	sty	$16                     ; 0x2016 <dispatchAction+0x3ba>
    2e20: 85 19        	sta	$19                     ; 0x2019 <dispatchAction+0x3bd>
    2e22: 86 1f        	stx	$1f                     ; 0x201f <dispatchAction+0x3c3>
    2e24: a2 01        	ldx	#$1
    2e26: 86 12        	stx	$12                     ; 0x2012 <dispatchAction+0x3b6>
    2e28: 64 14        	stz	$14                     ; 0x2014 <dispatchAction+0x3b8>
    2e2a: 64 15        	stz	$15                     ; 0x2015 <dispatchAction+0x3b9>
    2e2c: 86 17        	stx	$17                     ; 0x2017 <dispatchAction+0x3bb>
    2e2e: 64 18        	stz	$18                     ; 0x2018 <dispatchAction+0x3bc>
    2e30: a2 10        	ldx	#$10
    2e32: 86 1a        	stx	$1a                     ; 0x201a <dispatchAction+0x3be>
    2e34: 64 1b        	stz	$1b                     ; 0x201b <dispatchAction+0x3bf>
    2e36: a2 0d        	ldx	#$d
    2e38: 86 1c        	stx	$1c                     ; 0x201c <dispatchAction+0x3c0>
    2e3a: 64 1d        	stz	$1d                     ; 0x201d <dispatchAction+0x3c1>
    2e3c: 86 1e        	stx	$1e                     ; 0x201e <dispatchAction+0x3c2>
    2e3e: a2 1c        	ldx	#$1c
    2e40: a9 15        	lda	#$15
    2e42: 20 2d 3a     	jsr	$3a2d <setGeneric>
    2e45: a9 10        	lda	#$10
    2e47: 92 10        	sta	($10)                   ; 0x2010 <dispatchAction+0x3b4>
    2e49: a9 72        	lda	#$72
    2e4b: a4 24        	ldy	$24                     ; 0x2024 <dispatchAction+0x3c8>
    2e4d: 91 10        	sta	($10),y                 ; 0x2010 <dispatchAction+0x3b4>
    2e4f: a2 10        	ldx	#$10
    2e51: 64 12        	stz	$12                     ; 0x2012 <dispatchAction+0x3b6>
    2e53: a0 0a        	ldy	#$a
    2e55: 84 13        	sty	$13                     ; 0x2013 <dispatchAction+0x3b7>
    2e57: 64 14        	stz	$14                     ; 0x2014 <dispatchAction+0x3b8>
    2e59: 64 15        	stz	$15                     ; 0x2015 <dispatchAction+0x3b9>
    2e5b: a0 54        	ldy	#$54
    2e5d: 84 16        	sty	$16                     ; 0x2016 <dispatchAction+0x3ba>
    2e5f: a0 01        	ldy	#$1
    2e61: 84 17        	sty	$17                     ; 0x2017 <dispatchAction+0x3bb>
    2e63: 64 18        	stz	$18                     ; 0x2018 <dispatchAction+0x3bc>
    2e65: 64 19        	stz	$19                     ; 0x2019 <dispatchAction+0x3bd>
    2e67: a0 10        	ldy	#$10
    2e69: 84 1a        	sty	$1a                     ; 0x201a <dispatchAction+0x3be>
    2e6b: 64 1b        	stz	$1b                     ; 0x201b <dispatchAction+0x3bf>
    2e6d: 64 1c        	stz	$1c                     ; 0x201c <dispatchAction+0x3c0>
    2e6f: 64 1d        	stz	$1d                     ; 0x201d <dispatchAction+0x3c1>
    2e71: 64 1e        	stz	$1e                     ; 0x201e <dispatchAction+0x3c2>
    2e73: a0 ff        	ldy	#$ff
    2e75: 84 1f        	sty	$1f                     ; 0x201f <dispatchAction+0x3c3>
    2e77: 98           	tya
    2e78: 20 2d 3a     	jsr	$3a2d <setGeneric>
    2e7b: a5 e1        	lda	$e1                     ; 0x20e1 <dispatchAction+0x485>
    2e7d: a6 e2        	ldx	$e2                     ; 0x20e2 <dispatchAction+0x486>
    2e7f: 85 12        	sta	$12                     ; 0x2012 <dispatchAction+0x3b6>
    2e81: 86 13        	stx	$13                     ; 0x2013 <dispatchAction+0x3b7>
    2e83: 18           	clc
    2e84: 69 04        	adc	#$4
    2e86: 85 14        	sta	$14                     ; 0x2014 <dispatchAction+0x3b8>
    2e88: 8a           	txa
    2e89: 69 00        	adc	#$0
    2e8b: 85 15        	sta	$15                     ; 0x2015 <dispatchAction+0x3b9>
    2e8d: a0 04        	ldy	#$4
    2e8f: b1 12        	lda	($12),y                 ; 0x2012 <dispatchAction+0x3b6>
    2e91: 85 12        	sta	$12                     ; 0x2012 <dispatchAction+0x3b6>
    2e93: a4 24        	ldy	$24                     ; 0x2024 <dispatchAction+0x3c8>
    2e95: b1 14        	lda	($14),y                 ; 0x2014 <dispatchAction+0x3b8>
    2e97: 84 14        	sty	$14                     ; 0x2014 <dispatchAction+0x3b8>
    2e99: 85 13        	sta	$13                     ; 0x2013 <dispatchAction+0x3b7>
    2e9b: a9 0f        	lda	#$f
    2e9d: a0 06        	ldy	#$6
    2e9f: 31 12        	and	($12),y                 ; 0x2012 <dispatchAction+0x3b6>
    2ea1: 85 22        	sta	$22                     ; 0x2022 <dispatchAction+0x3c6>
    2ea3: a9 01        	lda	#$1
    2ea5: a4 14        	ldy	$14                     ; 0x2014 <dispatchAction+0x3b8>
    2ea7: 91 10        	sta	($10),y                 ; 0x2010 <dispatchAction+0x3b4>
    2ea9: a0 02        	ldy	#$2
    2eab: 3a           	dec
    2eac: 91 10        	sta	($10),y                 ; 0x2010 <dispatchAction+0x3b4>
    2eae: a9 0f        	lda	#$f
    2eb0: aa           	tax
    2eb1: c8           	iny
    2eb2: 91 10        	sta	($10),y                 ; 0x2010 <dispatchAction+0x3b4>
    2eb4: a9 54        	lda	#$54
    2eb6: 92 10        	sta	($10)                   ; 0x2010 <dispatchAction+0x3b4>
    2eb8: c8           	iny
    2eb9: a9 00        	lda	#$0
    2ebb: 91 10        	sta	($10),y                 ; 0x2010 <dispatchAction+0x3b4>
    2ebd: c8           	iny
    2ebe: 91 10        	sta	($10),y                 ; 0x2010 <dispatchAction+0x3b4>
    2ec0: c8           	iny
    2ec1: 91 10        	sta	($10),y                 ; 0x2010 <dispatchAction+0x3b4>
    2ec3: a0 fd        	ldy	#$fd
    2ec5: 84 12        	sty	$12                     ; 0x2012 <dispatchAction+0x3b6>
    2ec7: a0 71        	ldy	#$71
    2ec9: 84 13        	sty	$13                     ; 0x2013 <dispatchAction+0x3b7>
    2ecb: 86 14        	stx	$14                     ; 0x2014 <dispatchAction+0x3b8>
    2ecd: 64 15        	stz	$15                     ; 0x2015 <dispatchAction+0x3b9>
    2ecf: 64 16        	stz	$16                     ; 0x2016 <dispatchAction+0x3ba>
    2ed1: 64 17        	stz	$17                     ; 0x2017 <dispatchAction+0x3bb>
    2ed3: 64 18        	stz	$18                     ; 0x2018 <dispatchAction+0x3bc>
    2ed5: 64 19        	stz	$19                     ; 0x2019 <dispatchAction+0x3bd>
    2ed7: 64 1a        	stz	$1a                     ; 0x201a <dispatchAction+0x3be>
    2ed9: 64 1b        	stz	$1b                     ; 0x201b <dispatchAction+0x3bf>
    2edb: 64 1c        	stz	$1c                     ; 0x201c <dispatchAction+0x3c0>
    2edd: a2 01        	ldx	#$1
    2edf: 86 1d        	stx	$1d                     ; 0x201d <dispatchAction+0x3c1>
    2ee1: 64 1e        	stz	$1e                     ; 0x201e <dispatchAction+0x3c2>
    2ee3: 64 1f        	stz	$1f                     ; 0x201f <dispatchAction+0x3c3>
    2ee5: aa           	tax
    2ee6: a5 22        	lda	$22                     ; 0x2022 <dispatchAction+0x3c6>
    2ee8: 20 dd 3f     	jsr	$3fdd <setDial>
    2eeb: a9 16        	lda	#$16
    2eed: a2 13        	ldx	#$13
    2eef: 86 24        	stx	$24                     ; 0x2024 <dispatchAction+0x3c8>
    2ef1: a2 6e        	ldx	#$6e
    2ef3: 86 25        	stx	$25                     ; 0x2025 <dispatchAction+0x3c9>
    2ef5: a2 93        	ldx	#$93
    2ef7: 48           	pha
    2ef8: 8a           	txa
    2ef9: a0 09        	ldy	#$9
    2efb: 91 10        	sta	($10),y                 ; 0x2010 <dispatchAction+0x3b4>
    2efd: 68           	pla
    2efe: aa           	tax
    2eff: 18           	clc
    2f00: 69 f3        	adc	#$f3
    2f02: 85 19        	sta	$19                     ; 0x2019 <dispatchAction+0x3bd>
    2f04: bd 62 6c     	lda	$6c62,x                 ; 0x6c62 <sidSpriteAction>
    2f07: 85 1f        	sta	$1f                     ; 0x201f <dispatchAction+0x3c3>
    2f09: a5 24        	lda	$24                     ; 0x2024 <dispatchAction+0x3c8>
    2f0b: 92 10        	sta	($10)                   ; 0x2010 <dispatchAction+0x3b4>
    2f0d: a0 01        	ldy	#$1
    2f0f: a5 25        	lda	$25                     ; 0x2025 <dispatchAction+0x3c9>
    2f11: 91 10        	sta	($10),y                 ; 0x2010 <dispatchAction+0x3b4>
    2f13: 85 28        	sta	$28                     ; 0x2028 <dispatchAction+0x3cc>
    2f15: 64 12        	stz	$12                     ; 0x2012 <dispatchAction+0x3b6>
    2f17: a0 09        	ldy	#$9
    2f19: b1 10        	lda	($10),y                 ; 0x2010 <dispatchAction+0x3b4>
    2f1b: 85 27        	sta	$27                     ; 0x2027 <dispatchAction+0x3cb>
    2f1d: 85 13        	sta	$13                     ; 0x2013 <dispatchAction+0x3b7>
    2f1f: 64 14        	stz	$14                     ; 0x2014 <dispatchAction+0x3b8>
    2f21: 64 15        	stz	$15                     ; 0x2015 <dispatchAction+0x3b9>
    2f23: 86 26        	stx	$26                     ; 0x2026 <dispatchAction+0x3ca>
    2f25: a0 38        	ldy	#$38
    2f27: 84 16        	sty	$16                     ; 0x2016 <dispatchAction+0x3ba>
    2f29: a2 01        	ldx	#$1
    2f2b: 86 17        	stx	$17                     ; 0x2017 <dispatchAction+0x3bb>
    2f2d: 64 18        	stz	$18                     ; 0x2018 <dispatchAction+0x3bc>
    2f2f: a0 10        	ldy	#$10
    2f31: 84 1a        	sty	$1a                     ; 0x201a <dispatchAction+0x3be>
    2f33: 64 1b        	stz	$1b                     ; 0x201b <dispatchAction+0x3bf>
    2f35: a0 0d        	ldy	#$d
    2f37: 84 1c        	sty	$1c                     ; 0x201c <dispatchAction+0x3c0>
    2f39: a0 04        	ldy	#$4
    2f3b: 84 1d        	sty	$1d                     ; 0x201d <dispatchAction+0x3c1>
    2f3d: a0 0b        	ldy	#$b
    2f3f: 84 1e        	sty	$1e                     ; 0x201e <dispatchAction+0x3c2>
    2f41: a2 d5        	ldx	#$d5
    2f43: a5 26        	lda	$26                     ; 0x2026 <dispatchAction+0x3ca>
    2f45: 20 2d 3a     	jsr	$3a2d <setGeneric>
    2f48: a6 24        	ldx	$24                     ; 0x2024 <dispatchAction+0x3c8>
    2f4a: 86 12        	stx	$12                     ; 0x2012 <dispatchAction+0x3b6>
    2f4c: a6 25        	ldx	$25                     ; 0x2025 <dispatchAction+0x3c9>
    2f4e: 86 13        	stx	$13                     ; 0x2013 <dispatchAction+0x3b7>
    2f50: 64 14        	stz	$14                     ; 0x2014 <dispatchAction+0x3b8>
    2f52: a2 ff        	ldx	#$ff
    2f54: a9 00        	lda	#$0
    2f56: 20 87 3b     	jsr	$3b87 <setRadioB>
    2f59: a6 26        	ldx	$26                     ; 0x2026 <dispatchAction+0x3ca>
    2f5b: e8           	inx
    2f5c: 18           	clc
    2f5d: a5 24        	lda	$24                     ; 0x2024 <dispatchAction+0x3c8>
    2f5f: 69 15        	adc	#$15
    2f61: 85 24        	sta	$24                     ; 0x2024 <dispatchAction+0x3c8>
    2f63: a5 28        	lda	$28                     ; 0x2028 <dispatchAction+0x3cc>
    2f65: 69 00        	adc	#$0
    2f67: 85 25        	sta	$25                     ; 0x2025 <dispatchAction+0x3c9>
    2f69: 18           	clc
    2f6a: a5 27        	lda	$27                     ; 0x2027 <dispatchAction+0x3cb>
    2f6c: 69 10        	adc	#$10
    2f6e: a0 09        	ldy	#$9
    2f70: 91 10        	sta	($10),y                 ; 0x2010 <dispatchAction+0x3b4>
    2f72: 8a           	txa
    2f73: e0 1a        	cpx	#$1a
    2f75: f0 03        	beq	$2f7a <loadGUISID+0x891>
    2f77: 4c fe 2e     	jmp	$2efe <loadGUISID+0x815>
    2f7a: ae 7c 6c     	ldx	$6c7c                   ; 0x6c7c <sidSpriteAction+0x1a>
    2f7d: 86 1f        	stx	$1f                     ; 0x201f <dispatchAction+0x3c3>
    2f7f: a0 01        	ldy	#$1
    2f81: a9 f5        	lda	#$f5
    2f83: 92 10        	sta	($10)                   ; 0x2010 <dispatchAction+0x3b4>
    2f85: a9 70        	lda	#$70
    2f87: 91 10        	sta	($10),y                 ; 0x2010 <dispatchAction+0x3b4>
    2f89: 84 24        	sty	$24                     ; 0x2024 <dispatchAction+0x3c8>
    2f8b: a2 19        	ldx	#$19
    2f8d: a9 06        	lda	#$6
    2f8f: a0 8f        	ldy	#$8f
    2f91: 84 13        	sty	$13                     ; 0x2013 <dispatchAction+0x3b7>
    2f93: a0 28        	ldy	#$28
    2f95: 84 16        	sty	$16                     ; 0x2016 <dispatchAction+0x3ba>
    2f97: 86 1e        	stx	$1e                     ; 0x201e <dispatchAction+0x3c2>
    2f99: a2 01        	ldx	#$1
    2f9b: 86 12        	stx	$12                     ; 0x2012 <dispatchAction+0x3b6>
    2f9d: 64 14        	stz	$14                     ; 0x2014 <dispatchAction+0x3b8>
    2f9f: 64 15        	stz	$15                     ; 0x2015 <dispatchAction+0x3b9>
    2fa1: 86 17        	stx	$17                     ; 0x2017 <dispatchAction+0x3bb>
    2fa3: 64 18        	stz	$18                     ; 0x2018 <dispatchAction+0x3bc>
    2fa5: a2 04        	ldx	#$4
    2fa7: 86 19        	stx	$19                     ; 0x2019 <dispatchAction+0x3bd>
    2fa9: a2 10        	ldx	#$10
    2fab: 86 1a        	stx	$1a                     ; 0x201a <dispatchAction+0x3be>
    2fad: a2 03        	ldx	#$3
    2faf: 86 1b        	stx	$1b                     ; 0x201b <dispatchAction+0x3bf>
    2fb1: a2 0a        	ldx	#$a
    2fb3: 86 1c        	stx	$1c                     ; 0x201c <dispatchAction+0x3c0>
    2fb5: 85 1d        	sta	$1d                     ; 0x201d <dispatchAction+0x3c1>
    2fb7: a2 40        	ldx	#$40
    2fb9: a9 1a        	lda	#$1a
    2fbb: 20 2d 3a     	jsr	$3a2d <setGeneric>
    2fbe: a2 09        	ldx	#$9
    2fc0: a9 08        	lda	#$8
    2fc2: 92 10        	sta	($10)                   ; 0x2010 <dispatchAction+0x3b4>
    2fc4: a4 24        	ldy	$24                     ; 0x2024 <dispatchAction+0x3c8>
    2fc6: a9 71        	lda	#$71
    2fc8: 91 10        	sta	($10),y                 ; 0x2010 <dispatchAction+0x3b4>
    2fca: 64 12        	stz	$12                     ; 0x2012 <dispatchAction+0x3b6>
    2fcc: 86 13        	stx	$13                     ; 0x2013 <dispatchAction+0x3b7>
    2fce: 64 14        	stz	$14                     ; 0x2014 <dispatchAction+0x3b8>
    2fd0: 64 15        	stz	$15                     ; 0x2015 <dispatchAction+0x3b9>
    2fd2: a2 54        	ldx	#$54
    2fd4: 86 16        	stx	$16                     ; 0x2016 <dispatchAction+0x3ba>
    2fd6: a2 01        	ldx	#$1
    2fd8: 86 17        	stx	$17                     ; 0x2017 <dispatchAction+0x3bb>
    2fda: 64 18        	stz	$18                     ; 0x2018 <dispatchAction+0x3bc>
    2fdc: a0 04        	ldy	#$4
    2fde: 84 19        	sty	$19                     ; 0x2019 <dispatchAction+0x3bd>
    2fe0: a2 10        	ldx	#$10
    2fe2: 86 1a        	stx	$1a                     ; 0x201a <dispatchAction+0x3be>
    2fe4: 64 1b        	stz	$1b                     ; 0x201b <dispatchAction+0x3bf>
    2fe6: 64 1c        	stz	$1c                     ; 0x201c <dispatchAction+0x3c0>
    2fe8: 64 1d        	stz	$1d                     ; 0x201d <dispatchAction+0x3c1>
    2fea: 64 1e        	stz	$1e                     ; 0x201e <dispatchAction+0x3c2>
    2fec: a9 ff        	lda	#$ff
    2fee: 85 1f        	sta	$1f                     ; 0x201f <dispatchAction+0x3c3>
    2ff0: a2 12        	ldx	#$12
    2ff2: 20 2d 3a     	jsr	$3a2d <setGeneric>
    2ff5: a5 e1        	lda	$e1                     ; 0x20e1 <dispatchAction+0x485>
    2ff7: a6 e2        	ldx	$e2                     ; 0x20e2 <dispatchAction+0x486>
    2ff9: 85 12        	sta	$12                     ; 0x2012 <dispatchAction+0x3b6>
    2ffb: 86 13        	stx	$13                     ; 0x2013 <dispatchAction+0x3b7>
    2ffd: a0 04        	ldy	#$4
    2fff: 18           	clc
    3000: 69 04        	adc	#$4
    3002: 85 14        	sta	$14                     ; 0x2014 <dispatchAction+0x3b8>
    3004: 8a           	txa
    3005: 69 00        	adc	#$0
    3007: 85 15        	sta	$15                     ; 0x2015 <dispatchAction+0x3b9>
    3009: b1 12        	lda	($12),y                 ; 0x2012 <dispatchAction+0x3b6>
    300b: 85 12        	sta	$12                     ; 0x2012 <dispatchAction+0x3b6>
    300d: a4 24        	ldy	$24                     ; 0x2024 <dispatchAction+0x3c8>
    300f: b1 14        	lda	($14),y                 ; 0x2014 <dispatchAction+0x3b8>
    3011: 85 13        	sta	$13                     ; 0x2013 <dispatchAction+0x3b7>
    3013: a0 08        	ldy	#$8
    3015: b1 12        	lda	($12),y                 ; 0x2012 <dispatchAction+0x3b6>
    3017: 4a           	lsr
    3018: 4a           	lsr
    3019: 4a           	lsr
    301a: 4a           	lsr
    301b: 85 22        	sta	$22                     ; 0x2022 <dispatchAction+0x3c6>
    301d: a9 54        	lda	#$54
    301f: 92 10        	sta	($10)                   ; 0x2010 <dispatchAction+0x3b4>
    3021: a4 24        	ldy	$24                     ; 0x2024 <dispatchAction+0x3c8>
    3023: a9 01        	lda	#$1
    3025: 91 10        	sta	($10),y                 ; 0x2010 <dispatchAction+0x3b4>
    3027: 3a           	dec
    3028: a0 02        	ldy	#$2
    302a: 91 10        	sta	($10),y                 ; 0x2010 <dispatchAction+0x3b4>
    302c: a2 f5        	ldx	#$f5
    302e: 86 12        	stx	$12                     ; 0x2012 <dispatchAction+0x3b6>
    3030: a2 70        	ldx	#$70
    3032: 86 13        	stx	$13                     ; 0x2013 <dispatchAction+0x3b7>
    3034: a2 0f        	ldx	#$f
    3036: 86 14        	stx	$14                     ; 0x2014 <dispatchAction+0x3b8>
    3038: 64 15        	stz	$15                     ; 0x2015 <dispatchAction+0x3b9>
    303a: 64 16        	stz	$16                     ; 0x2016 <dispatchAction+0x3ba>
    303c: 64 17        	stz	$17                     ; 0x2017 <dispatchAction+0x3bb>
    303e: 64 18        	stz	$18                     ; 0x2018 <dispatchAction+0x3bc>
    3040: 64 19        	stz	$19                     ; 0x2019 <dispatchAction+0x3bd>
    3042: 64 1a        	stz	$1a                     ; 0x201a <dispatchAction+0x3be>
    3044: 64 1b        	stz	$1b                     ; 0x201b <dispatchAction+0x3bf>
    3046: 64 1c        	stz	$1c                     ; 0x201c <dispatchAction+0x3c0>
    3048: a2 01        	ldx	#$1
    304a: 86 1d        	stx	$1d                     ; 0x201d <dispatchAction+0x3c1>
    304c: 64 1e        	stz	$1e                     ; 0x201e <dispatchAction+0x3c2>
    304e: 64 1f        	stz	$1f                     ; 0x201f <dispatchAction+0x3c3>
    3050: aa           	tax
    3051: a5 22        	lda	$22                     ; 0x2022 <dispatchAction+0x3c6>
    3053: 20 98 44     	jsr	$4498 <setSlider>
    3056: ae 7e 6c     	ldx	$6c7e                   ; 0x6c7e <sidSpriteAction+0x1c>
    3059: 86 1f        	stx	$1f                     ; 0x201f <dispatchAction+0x3c3>
    305b: a2 83        	ldx	#$83
    305d: a9 67        	lda	#$67
    305f: 92 10        	sta	($10)                   ; 0x2010 <dispatchAction+0x3b4>
    3061: a4 24        	ldy	$24                     ; 0x2024 <dispatchAction+0x3c8>
    3063: a9 6e        	lda	#$6e
    3065: 91 10        	sta	($10),y                 ; 0x2010 <dispatchAction+0x3b4>
    3067: a9 0b        	lda	#$b
    3069: 86 13        	stx	$13                     ; 0x2013 <dispatchAction+0x3b7>
    306b: a0 01        	ldy	#$1
    306d: 84 12        	sty	$12                     ; 0x2012 <dispatchAction+0x3b6>
    306f: 64 14        	stz	$14                     ; 0x2014 <dispatchAction+0x3b8>
    3071: 64 15        	stz	$15                     ; 0x2015 <dispatchAction+0x3b9>
    3073: a2 38        	ldx	#$38
    3075: 86 16        	stx	$16                     ; 0x2016 <dispatchAction+0x3ba>
    3077: 84 17        	sty	$17                     ; 0x2017 <dispatchAction+0x3bb>
    3079: 64 18        	stz	$18                     ; 0x2018 <dispatchAction+0x3bc>
    307b: a2 0d        	ldx	#$d
    307d: 86 19        	stx	$19                     ; 0x2019 <dispatchAction+0x3bd>
    307f: a0 10        	ldy	#$10
    3081: 84 1a        	sty	$1a                     ; 0x201a <dispatchAction+0x3be>
    3083: 64 1b        	stz	$1b                     ; 0x201b <dispatchAction+0x3bf>
    3085: 86 1c        	stx	$1c                     ; 0x201c <dispatchAction+0x3c0>
    3087: a0 04        	ldy	#$4
    3089: 84 1d        	sty	$1d                     ; 0x201d <dispatchAction+0x3c1>
    308b: 85 1e        	sta	$1e                     ; 0x201e <dispatchAction+0x3c2>
    308d: a9 1c        	lda	#$1c
    308f: 20 2d 3a     	jsr	$3a2d <setGeneric>
    3092: a2 67        	ldx	#$67
    3094: 86 12        	stx	$12                     ; 0x2012 <dispatchAction+0x3b6>
    3096: a2 6e        	ldx	#$6e
    3098: 86 13        	stx	$13                     ; 0x2013 <dispatchAction+0x3b7>
    309a: 64 14        	stz	$14                     ; 0x2014 <dispatchAction+0x3b8>
    309c: a2 ff        	ldx	#$ff
    309e: a9 00        	lda	#$0
    30a0: 20 87 3b     	jsr	$3b87 <setRadioB>
    30a3: ae 7f 6c     	ldx	$6c7f                   ; 0x6c7f <sidSpriteAction+0x1d>
    30a6: 86 1f        	stx	$1f                     ; 0x201f <dispatchAction+0x3c3>
    30a8: a2 93        	ldx	#$93
    30aa: a9 7c        	lda	#$7c
    30ac: 92 10        	sta	($10)                   ; 0x2010 <dispatchAction+0x3b4>
    30ae: a4 24        	ldy	$24                     ; 0x2024 <dispatchAction+0x3c8>
    30b0: a9 6e        	lda	#$6e
    30b2: 91 10        	sta	($10),y                 ; 0x2010 <dispatchAction+0x3b4>
    30b4: a9 1d        	lda	#$1d
    30b6: a0 0e        	ldy	#$e
    30b8: 86 13        	stx	$13                     ; 0x2013 <dispatchAction+0x3b7>
    30ba: a2 38        	ldx	#$38
    30bc: 86 16        	stx	$16                     ; 0x2016 <dispatchAction+0x3ba>
    30be: 84 19        	sty	$19                     ; 0x2019 <dispatchAction+0x3bd>
    30c0: a2 0b        	ldx	#$b
    30c2: 86 1e        	stx	$1e                     ; 0x201e <dispatchAction+0x3c2>
    30c4: a0 01        	ldy	#$1
    30c6: 84 12        	sty	$12                     ; 0x2012 <dispatchAction+0x3b6>
    30c8: 64 14        	stz	$14                     ; 0x2014 <dispatchAction+0x3b8>
    30ca: 64 15        	stz	$15                     ; 0x2015 <dispatchAction+0x3b9>
    30cc: 84 17        	sty	$17                     ; 0x2017 <dispatchAction+0x3bb>
    30ce: 64 18        	stz	$18                     ; 0x2018 <dispatchAction+0x3bc>
    30d0: a0 10        	ldy	#$10
    30d2: 84 1a        	sty	$1a                     ; 0x201a <dispatchAction+0x3be>
    30d4: 64 1b        	stz	$1b                     ; 0x201b <dispatchAction+0x3bf>
    30d6: a0 0d        	ldy	#$d
    30d8: 84 1c        	sty	$1c                     ; 0x201c <dispatchAction+0x3c0>
    30da: a0 04        	ldy	#$4
    30dc: 84 1d        	sty	$1d                     ; 0x201d <dispatchAction+0x3c1>
    30de: a2 0d        	ldx	#$d
    30e0: 20 2d 3a     	jsr	$3a2d <setGeneric>
    30e3: a2 7c        	ldx	#$7c
    30e5: 86 12        	stx	$12                     ; 0x2012 <dispatchAction+0x3b6>
    30e7: a2 6e        	ldx	#$6e
    30e9: 86 13        	stx	$13                     ; 0x2013 <dispatchAction+0x3b7>
    30eb: 64 14        	stz	$14                     ; 0x2014 <dispatchAction+0x3b8>
    30ed: a2 ff        	ldx	#$ff
    30ef: a9 00        	lda	#$0
    30f1: 20 87 3b     	jsr	$3b87 <setRadioB>
    30f4: ae 80 6c     	ldx	$6c80                   ; 0x6c80 <sidSpriteAction+0x1e>
    30f7: a9 45        	lda	#$45
    30f9: 92 10        	sta	($10)                   ; 0x2010 <dispatchAction+0x3b4>
    30fb: a4 24        	ldy	$24                     ; 0x2024 <dispatchAction+0x3c8>
    30fd: a9 72        	lda	#$72
    30ff: 91 10        	sta	($10),y                 ; 0x2010 <dispatchAction+0x3b4>
    3101: a9 1e        	lda	#$1e
    3103: 86 1f        	stx	$1f                     ; 0x201f <dispatchAction+0x3c3>
    3105: 64 12        	stz	$12                     ; 0x2012 <dispatchAction+0x3b6>
    3107: a2 3c        	ldx	#$3c
    3109: 86 13        	stx	$13                     ; 0x2013 <dispatchAction+0x3b7>
    310b: 64 14        	stz	$14                     ; 0x2014 <dispatchAction+0x3b8>
    310d: 64 15        	stz	$15                     ; 0x2015 <dispatchAction+0x3b9>
    310f: a2 20        	ldx	#$20
    3111: 86 16        	stx	$16                     ; 0x2016 <dispatchAction+0x3ba>
    3113: a2 01        	ldx	#$1
    3115: 86 17        	stx	$17                     ; 0x2017 <dispatchAction+0x3bb>
    3117: 64 18        	stz	$18                     ; 0x2018 <dispatchAction+0x3bc>
    3119: a0 04        	ldy	#$4
    311b: 84 19        	sty	$19                     ; 0x2019 <dispatchAction+0x3bd>
    311d: a0 10        	ldy	#$10
    311f: 84 1a        	sty	$1a                     ; 0x201a <dispatchAction+0x3be>
    3121: 64 1b        	stz	$1b                     ; 0x201b <dispatchAction+0x3bf>
    3123: a2 0d        	ldx	#$d
    3125: 86 1c        	stx	$1c                     ; 0x201c <dispatchAction+0x3c0>
    3127: 64 1d        	stz	$1d                     ; 0x201d <dispatchAction+0x3c1>
    3129: 86 1e        	stx	$1e                     ; 0x201e <dispatchAction+0x3c2>
    312b: a2 ca        	ldx	#$ca
    312d: 20 2d 3a     	jsr	$3a2d <setGeneric>
    3130: a9 58        	lda	#$58
    3132: 92 10        	sta	($10)                   ; 0x2010 <dispatchAction+0x3b4>
    3134: a4 24        	ldy	$24                     ; 0x2024 <dispatchAction+0x3c8>
    3136: a9 72        	lda	#$72
    3138: 91 10        	sta	($10),y                 ; 0x2010 <dispatchAction+0x3b4>
    313a: 64 12        	stz	$12                     ; 0x2012 <dispatchAction+0x3b6>
    313c: a2 03        	ldx	#$3
    313e: 86 13        	stx	$13                     ; 0x2013 <dispatchAction+0x3b7>
    3140: 64 14        	stz	$14                     ; 0x2014 <dispatchAction+0x3b8>
    3142: 64 15        	stz	$15                     ; 0x2015 <dispatchAction+0x3b9>
    3144: a2 54        	ldx	#$54
    3146: 86 16        	stx	$16                     ; 0x2016 <dispatchAction+0x3ba>
    3148: a2 01        	ldx	#$1
    314a: 86 17        	stx	$17                     ; 0x2017 <dispatchAction+0x3bb>
    314c: 64 18        	stz	$18                     ; 0x2018 <dispatchAction+0x3bc>
    314e: 64 19        	stz	$19                     ; 0x2019 <dispatchAction+0x3bd>
    3150: a2 10        	ldx	#$10
    3152: 86 1a        	stx	$1a                     ; 0x201a <dispatchAction+0x3be>
    3154: 64 1b        	stz	$1b                     ; 0x201b <dispatchAction+0x3bf>
    3156: 64 1c        	stz	$1c                     ; 0x201c <dispatchAction+0x3c0>
    3158: 64 1d        	stz	$1d                     ; 0x201d <dispatchAction+0x3c1>
    315a: 64 1e        	stz	$1e                     ; 0x201e <dispatchAction+0x3c2>
    315c: a2 ff        	ldx	#$ff
    315e: 86 1f        	stx	$1f                     ; 0x201f <dispatchAction+0x3c3>
    3160: a2 0a        	ldx	#$a
    3162: a9 ff        	lda	#$ff
    3164: 20 2d 3a     	jsr	$3a2d <setGeneric>
    3167: a2 0b        	ldx	#$b
    3169: a9 6c        	lda	#$6c
    316b: 92 10        	sta	($10)                   ; 0x2010 <dispatchAction+0x3b4>
    316d: a9 72        	lda	#$72
    316f: a4 24        	ldy	$24                     ; 0x2024 <dispatchAction+0x3c8>
    3171: 91 10        	sta	($10),y                 ; 0x2010 <dispatchAction+0x3b4>
    3173: 64 12        	stz	$12                     ; 0x2012 <dispatchAction+0x3b6>
    3175: a0 03        	ldy	#$3
    3177: 84 13        	sty	$13                     ; 0x2013 <dispatchAction+0x3b7>
    3179: 64 14        	stz	$14                     ; 0x2014 <dispatchAction+0x3b8>
    317b: 64 15        	stz	$15                     ; 0x2015 <dispatchAction+0x3b9>
    317d: a0 54        	ldy	#$54
    317f: 84 16        	sty	$16                     ; 0x2016 <dispatchAction+0x3ba>
    3181: a0 01        	ldy	#$1
    3183: 84 17        	sty	$17                     ; 0x2017 <dispatchAction+0x3bb>
    3185: 64 18        	stz	$18                     ; 0x2018 <dispatchAction+0x3bc>
    3187: 64 19        	stz	$19                     ; 0x2019 <dispatchAction+0x3bd>
    3189: a0 10        	ldy	#$10
    318b: 84 1a        	sty	$1a                     ; 0x201a <dispatchAction+0x3be>
    318d: 64 1b        	stz	$1b                     ; 0x201b <dispatchAction+0x3bf>
    318f: 64 1c        	stz	$1c                     ; 0x201c <dispatchAction+0x3c0>
    3191: 64 1d        	stz	$1d                     ; 0x201d <dispatchAction+0x3c1>
    3193: 64 1e        	stz	$1e                     ; 0x201e <dispatchAction+0x3c2>
    3195: a9 ff        	lda	#$ff
    3197: 85 1f        	sta	$1f                     ; 0x201f <dispatchAction+0x3c3>
    3199: 20 2d 3a     	jsr	$3a2d <setGeneric>
    319c: a5 e1        	lda	$e1                     ; 0x20e1 <dispatchAction+0x485>
    319e: a6 e2        	ldx	$e2                     ; 0x20e2 <dispatchAction+0x486>
    31a0: 85 12        	sta	$12                     ; 0x2012 <dispatchAction+0x3b6>
    31a2: 86 13        	stx	$13                     ; 0x2013 <dispatchAction+0x3b7>
    31a4: 18           	clc
    31a5: 69 04        	adc	#$4
    31a7: 85 14        	sta	$14                     ; 0x2014 <dispatchAction+0x3b8>
    31a9: 8a           	txa
    31aa: 69 00        	adc	#$0
    31ac: 85 15        	sta	$15                     ; 0x2015 <dispatchAction+0x3b9>
    31ae: a0 04        	ldy	#$4
    31b0: b1 12        	lda	($12),y                 ; 0x2012 <dispatchAction+0x3b6>
    31b2: 85 12        	sta	$12                     ; 0x2012 <dispatchAction+0x3b6>
    31b4: a4 24        	ldy	$24                     ; 0x2024 <dispatchAction+0x3c8>
    31b6: b1 14        	lda	($14),y                 ; 0x2014 <dispatchAction+0x3b8>
    31b8: 84 14        	sty	$14                     ; 0x2014 <dispatchAction+0x3b8>
    31ba: 85 13        	sta	$13                     ; 0x2013 <dispatchAction+0x3b7>
    31bc: a0 0a        	ldy	#$a
    31be: b1 12        	lda	($12),y                 ; 0x2012 <dispatchAction+0x3b6>
    31c0: 85 22        	sta	$22                     ; 0x2022 <dispatchAction+0x3c6>
    31c2: a9 54        	lda	#$54
    31c4: 92 10        	sta	($10)                   ; 0x2010 <dispatchAction+0x3b4>
    31c6: a9 01        	lda	#$1
    31c8: a4 14        	ldy	$14                     ; 0x2014 <dispatchAction+0x3b8>
    31ca: 91 10        	sta	($10),y                 ; 0x2010 <dispatchAction+0x3b4>
    31cc: 84 24        	sty	$24                     ; 0x2024 <dispatchAction+0x3c8>
    31ce: a0 02        	ldy	#$2
    31d0: 3a           	dec
    31d1: 91 10        	sta	($10),y                 ; 0x2010 <dispatchAction+0x3b4>
    31d3: a9 f0        	lda	#$f0
    31d5: c8           	iny
    31d6: 91 10        	sta	($10),y                 ; 0x2010 <dispatchAction+0x3b4>
    31d8: a9 04        	lda	#$4
    31da: a8           	tay
    31db: 91 10        	sta	($10),y                 ; 0x2010 <dispatchAction+0x3b4>
    31dd: c8           	iny
    31de: a9 0f        	lda	#$f
    31e0: 91 10        	sta	($10),y                 ; 0x2010 <dispatchAction+0x3b4>
    31e2: c8           	iny
    31e3: a9 00        	lda	#$0
    31e5: 91 10        	sta	($10),y                 ; 0x2010 <dispatchAction+0x3b4>
    31e7: a2 45        	ldx	#$45
    31e9: 86 12        	stx	$12                     ; 0x2012 <dispatchAction+0x3b6>
    31eb: a2 72        	ldx	#$72
    31ed: 86 13        	stx	$13                     ; 0x2013 <dispatchAction+0x3b7>
    31ef: a2 ff        	ldx	#$ff
    31f1: 86 14        	stx	$14                     ; 0x2014 <dispatchAction+0x3b8>
    31f3: 64 15        	stz	$15                     ; 0x2015 <dispatchAction+0x3b9>
    31f5: 64 16        	stz	$16                     ; 0x2016 <dispatchAction+0x3ba>
    31f7: 64 17        	stz	$17                     ; 0x2017 <dispatchAction+0x3bb>
    31f9: 64 18        	stz	$18                     ; 0x2018 <dispatchAction+0x3bc>
    31fb: 64 19        	stz	$19                     ; 0x2019 <dispatchAction+0x3bd>
    31fd: 64 1a        	stz	$1a                     ; 0x201a <dispatchAction+0x3be>
    31ff: 64 1b        	stz	$1b                     ; 0x201b <dispatchAction+0x3bf>
    3201: 64 1c        	stz	$1c                     ; 0x201c <dispatchAction+0x3c0>
    3203: a2 01        	ldx	#$1
    3205: 86 1d        	stx	$1d                     ; 0x201d <dispatchAction+0x3c1>
    3207: 64 1e        	stz	$1e                     ; 0x201e <dispatchAction+0x3c2>
    3209: 64 1f        	stz	$1f                     ; 0x201f <dispatchAction+0x3c3>
    320b: aa           	tax
    320c: a5 22        	lda	$22                     ; 0x2022 <dispatchAction+0x3c6>
    320e: 20 dd 3f     	jsr	$3fdd <setDial>
    3211: ae 81 6c     	ldx	$6c81                   ; 0x6c81 <sidSpriteAction+0x1f>
    3214: 86 1f        	stx	$1f                     ; 0x201f <dispatchAction+0x3c3>
    3216: a9 8d        	lda	#$8d
    3218: 92 10        	sta	($10)                   ; 0x2010 <dispatchAction+0x3b4>
    321a: a9 72        	lda	#$72
    321c: a4 24        	ldy	$24                     ; 0x2024 <dispatchAction+0x3c8>
    321e: 91 10        	sta	($10),y                 ; 0x2010 <dispatchAction+0x3b4>
    3220: a9 1f        	lda	#$1f
    3222: a0 05        	ldy	#$5
    3224: a2 3c        	ldx	#$3c
    3226: 86 13        	stx	$13                     ; 0x2013 <dispatchAction+0x3b7>
    3228: a2 20        	ldx	#$20
    322a: 86 16        	stx	$16                     ; 0x2016 <dispatchAction+0x3ba>
    322c: 84 19        	sty	$19                     ; 0x2019 <dispatchAction+0x3bd>
    322e: a2 0d        	ldx	#$d
    3230: 86 1c        	stx	$1c                     ; 0x201c <dispatchAction+0x3c0>
    3232: 86 1e        	stx	$1e                     ; 0x201e <dispatchAction+0x3c2>
    3234: 64 12        	stz	$12                     ; 0x2012 <dispatchAction+0x3b6>
    3236: 64 14        	stz	$14                     ; 0x2014 <dispatchAction+0x3b8>
    3238: 64 15        	stz	$15                     ; 0x2015 <dispatchAction+0x3b9>
    323a: a2 01        	ldx	#$1
    323c: 86 17        	stx	$17                     ; 0x2017 <dispatchAction+0x3bb>
    323e: 64 18        	stz	$18                     ; 0x2018 <dispatchAction+0x3bc>
    3240: a2 10        	ldx	#$10
    3242: 86 1a        	stx	$1a                     ; 0x201a <dispatchAction+0x3be>
    3244: 64 1b        	stz	$1b                     ; 0x201b <dispatchAction+0x3bf>
    3246: 64 1d        	stz	$1d                     ; 0x201d <dispatchAction+0x3c1>
    3248: a2 e8        	ldx	#$e8
    324a: 20 2d 3a     	jsr	$3a2d <setGeneric>
    324d: a2 0c        	ldx	#$c
    324f: a9 a0        	lda	#$a0
    3251: 92 10        	sta	($10)                   ; 0x2010 <dispatchAction+0x3b4>
    3253: a9 72        	lda	#$72
    3255: a4 24        	ldy	$24                     ; 0x2024 <dispatchAction+0x3c8>
    3257: 91 10        	sta	($10),y                 ; 0x2010 <dispatchAction+0x3b4>
    3259: 64 12        	stz	$12                     ; 0x2012 <dispatchAction+0x3b6>
    325b: a0 03        	ldy	#$3
    325d: 84 13        	sty	$13                     ; 0x2013 <dispatchAction+0x3b7>
    325f: 64 14        	stz	$14                     ; 0x2014 <dispatchAction+0x3b8>
    3261: 64 15        	stz	$15                     ; 0x2015 <dispatchAction+0x3b9>
    3263: a0 54        	ldy	#$54
    3265: 84 16        	sty	$16                     ; 0x2016 <dispatchAction+0x3ba>
    3267: a0 01        	ldy	#$1
    3269: 84 17        	sty	$17                     ; 0x2017 <dispatchAction+0x3bb>
    326b: 64 18        	stz	$18                     ; 0x2018 <dispatchAction+0x3bc>
    326d: 64 19        	stz	$19                     ; 0x2019 <dispatchAction+0x3bd>
    326f: a0 10        	ldy	#$10
    3271: 84 1a        	sty	$1a                     ; 0x201a <dispatchAction+0x3be>
    3273: 64 1b        	stz	$1b                     ; 0x201b <dispatchAction+0x3bf>
    3275: 64 1c        	stz	$1c                     ; 0x201c <dispatchAction+0x3c0>
    3277: 64 1d        	stz	$1d                     ; 0x201d <dispatchAction+0x3c1>
    3279: 64 1e        	stz	$1e                     ; 0x201e <dispatchAction+0x3c2>
    327b: a9 ff        	lda	#$ff
    327d: 85 1f        	sta	$1f                     ; 0x201f <dispatchAction+0x3c3>
    327f: 20 2d 3a     	jsr	$3a2d <setGeneric>
    3282: a9 b4        	lda	#$b4
    3284: 92 10        	sta	($10)                   ; 0x2010 <dispatchAction+0x3b4>
    3286: a9 72        	lda	#$72
    3288: a4 24        	ldy	$24                     ; 0x2024 <dispatchAction+0x3c8>
    328a: 91 10        	sta	($10),y                 ; 0x2010 <dispatchAction+0x3b4>
    328c: 64 12        	stz	$12                     ; 0x2012 <dispatchAction+0x3b6>
    328e: a2 03        	ldx	#$3
    3290: 86 13        	stx	$13                     ; 0x2013 <dispatchAction+0x3b7>
    3292: 64 14        	stz	$14                     ; 0x2014 <dispatchAction+0x3b8>
    3294: 64 15        	stz	$15                     ; 0x2015 <dispatchAction+0x3b9>
    3296: a2 54        	ldx	#$54
    3298: 86 16        	stx	$16                     ; 0x2016 <dispatchAction+0x3ba>
    329a: a2 01        	ldx	#$1
    329c: 86 17        	stx	$17                     ; 0x2017 <dispatchAction+0x3bb>
    329e: 64 18        	stz	$18                     ; 0x2018 <dispatchAction+0x3bc>
    32a0: 64 19        	stz	$19                     ; 0x2019 <dispatchAction+0x3bd>
    32a2: a2 10        	ldx	#$10
    32a4: 86 1a        	stx	$1a                     ; 0x201a <dispatchAction+0x3be>
    32a6: 64 1b        	stz	$1b                     ; 0x201b <dispatchAction+0x3bf>
    32a8: 64 1c        	stz	$1c                     ; 0x201c <dispatchAction+0x3c0>
    32aa: 64 1d        	stz	$1d                     ; 0x201d <dispatchAction+0x3c1>
    32ac: 64 1e        	stz	$1e                     ; 0x201e <dispatchAction+0x3c2>
    32ae: a9 ff        	lda	#$ff
    32b0: 85 1f        	sta	$1f                     ; 0x201f <dispatchAction+0x3c3>
    32b2: a2 0d        	ldx	#$d
    32b4: 20 2d 3a     	jsr	$3a2d <setGeneric>
    32b7: a5 e1        	lda	$e1                     ; 0x20e1 <dispatchAction+0x485>
    32b9: a6 e2        	ldx	$e2                     ; 0x20e2 <dispatchAction+0x486>
    32bb: 85 12        	sta	$12                     ; 0x2012 <dispatchAction+0x3b6>
    32bd: 86 13        	stx	$13                     ; 0x2013 <dispatchAction+0x3b7>
    32bf: 18           	clc
    32c0: 69 04        	adc	#$4
    32c2: 85 14        	sta	$14                     ; 0x2014 <dispatchAction+0x3b8>
    32c4: 8a           	txa
    32c5: 69 00        	adc	#$0
    32c7: 85 15        	sta	$15                     ; 0x2015 <dispatchAction+0x3b9>
    32c9: a0 04        	ldy	#$4
    32cb: b1 12        	lda	($12),y                 ; 0x2012 <dispatchAction+0x3b6>
    32cd: 85 12        	sta	$12                     ; 0x2012 <dispatchAction+0x3b6>
    32cf: a4 24        	ldy	$24                     ; 0x2024 <dispatchAction+0x3c8>
    32d1: b1 14        	lda	($14),y                 ; 0x2014 <dispatchAction+0x3b8>
    32d3: 85 13        	sta	$13                     ; 0x2013 <dispatchAction+0x3b7>
    32d5: a0 09        	ldy	#$9
    32d7: b1 12        	lda	($12),y                 ; 0x2012 <dispatchAction+0x3b6>
    32d9: 85 22        	sta	$22                     ; 0x2022 <dispatchAction+0x3c6>
    32db: a9 01        	lda	#$1
    32dd: aa           	tax
    32de: a4 24        	ldy	$24                     ; 0x2024 <dispatchAction+0x3c8>
    32e0: 91 10        	sta	($10),y                 ; 0x2010 <dispatchAction+0x3b4>
    32e2: a0 02        	ldy	#$2
    32e4: 3a           	dec
    32e5: 91 10        	sta	($10),y                 ; 0x2010 <dispatchAction+0x3b4>
    32e7: c8           	iny
    32e8: a9 f0        	lda	#$f0
    32ea: 91 10        	sta	($10),y                 ; 0x2010 <dispatchAction+0x3b4>
    32ec: a9 04        	lda	#$4
    32ee: a8           	tay
    32ef: 91 10        	sta	($10),y                 ; 0x2010 <dispatchAction+0x3b4>
    32f1: a9 0f        	lda	#$f
    32f3: c8           	iny
    32f4: 91 10        	sta	($10),y                 ; 0x2010 <dispatchAction+0x3b4>
    32f6: a9 54        	lda	#$54
    32f8: 92 10        	sta	($10)                   ; 0x2010 <dispatchAction+0x3b4>
    32fa: c8           	iny
    32fb: a9 00        	lda	#$0
    32fd: 91 10        	sta	($10),y                 ; 0x2010 <dispatchAction+0x3b4>
    32ff: a0 8d        	ldy	#$8d
    3301: 84 12        	sty	$12                     ; 0x2012 <dispatchAction+0x3b6>
    3303: a0 72        	ldy	#$72
    3305: 84 13        	sty	$13                     ; 0x2013 <dispatchAction+0x3b7>
    3307: a0 ff        	ldy	#$ff
    3309: 84 14        	sty	$14                     ; 0x2014 <dispatchAction+0x3b8>
    330b: 86 1d        	stx	$1d                     ; 0x201d <dispatchAction+0x3c1>
    330d: 64 15        	stz	$15                     ; 0x2015 <dispatchAction+0x3b9>
    330f: 64 16        	stz	$16                     ; 0x2016 <dispatchAction+0x3ba>
    3311: 64 17        	stz	$17                     ; 0x2017 <dispatchAction+0x3bb>
    3313: 64 18        	stz	$18                     ; 0x2018 <dispatchAction+0x3bc>
    3315: 64 19        	stz	$19                     ; 0x2019 <dispatchAction+0x3bd>
    3317: 64 1a        	stz	$1a                     ; 0x201a <dispatchAction+0x3be>
    3319: 64 1b        	stz	$1b                     ; 0x201b <dispatchAction+0x3bf>
    331b: 64 1c        	stz	$1c                     ; 0x201c <dispatchAction+0x3c0>
    331d: 64 1e        	stz	$1e                     ; 0x201e <dispatchAction+0x3c2>
    331f: 64 1f        	stz	$1f                     ; 0x201f <dispatchAction+0x3c3>
    3321: aa           	tax
    3322: a5 22        	lda	$22                     ; 0x2022 <dispatchAction+0x3c6>
    3324: 20 dd 3f     	jsr	$3fdd <setDial>
    3327: a0 07        	ldy	#$7
    3329: b1 10        	lda	($10),y                 ; 0x2010 <dispatchAction+0x3b4>
    332b: 85 29        	sta	$29                     ; 0x2029 <dispatchAction+0x3cd>
    332d: c8           	iny
    332e: b1 10        	lda	($10),y                 ; 0x2010 <dispatchAction+0x3b4>
    3330: 85 28        	sta	$28                     ; 0x2028 <dispatchAction+0x3cc>
    3332: fa           	plx
    3333: 86 27        	stx	$27                     ; 0x2027 <dispatchAction+0x3cb>
    3335: fa           	plx
    3336: 86 26        	stx	$26                     ; 0x2026 <dispatchAction+0x3ca>
    3338: fa           	plx
    3339: 86 25        	stx	$25                     ; 0x2025 <dispatchAction+0x3c9>
    333b: fa           	plx
    333c: 86 24        	stx	$24                     ; 0x2024 <dispatchAction+0x3c8>
    333e: 18           	clc
    333f: a5 10        	lda	$10                     ; 0x2010 <dispatchAction+0x3b4>
    3341: 69 0a        	adc	#$a
    3343: 85 10        	sta	$10                     ; 0x2010 <dispatchAction+0x3b4>
    3345: a5 11        	lda	$11                     ; 0x2011 <dispatchAction+0x3b5>
    3347: 69 00        	adc	#$0
    3349: 85 11        	sta	$11                     ; 0x2011 <dispatchAction+0x3b5>
    334b: 60           	rts

0000334c <loadGUIOPL>:
    334c: 18           	clc
    334d: a5 10        	lda	$10                     ; 0x2010 <dispatchAction+0x3b4>
    334f: 69 fe        	adc	#$fe
    3351: 85 10        	sta	$10                     ; 0x2010 <dispatchAction+0x3b4>
    3353: a5 11        	lda	$11                     ; 0x2011 <dispatchAction+0x3b5>
    3355: 69 ff        	adc	#$ff
    3357: 85 11        	sta	$11                     ; 0x2011 <dispatchAction+0x3b5>
    3359: a6 24        	ldx	$24                     ; 0x2024 <dispatchAction+0x3c8>
    335b: da           	phx
    335c: a6 25        	ldx	$25                     ; 0x2025 <dispatchAction+0x3c9>
    335e: da           	phx
    335f: a6 26        	ldx	$26                     ; 0x2026 <dispatchAction+0x3ca>
    3361: da           	phx
    3362: a6 27        	ldx	$27                     ; 0x2027 <dispatchAction+0x3cb>
    3364: da           	phx
    3365: a2 91        	ldx	#$91
    3367: 86 24        	stx	$24                     ; 0x2024 <dispatchAction+0x3c8>
    3369: a2 6e        	ldx	#$6e
    336b: 86 25        	stx	$25                     ; 0x2025 <dispatchAction+0x3c9>
    336d: a2 03        	ldx	#$3
    336f: 8a           	txa
    3370: 18           	clc
    3371: 69 fd        	adc	#$fd
    3373: 85 19        	sta	$19                     ; 0x2019 <dispatchAction+0x3bd>
    3375: a5 24        	lda	$24                     ; 0x2024 <dispatchAction+0x3c8>
    3377: 92 10        	sta	($10)                   ; 0x2010 <dispatchAction+0x3b4>
    3379: a0 01        	ldy	#$1
    337b: a5 25        	lda	$25                     ; 0x2025 <dispatchAction+0x3c9>
    337d: 91 10        	sta	($10),y                 ; 0x2010 <dispatchAction+0x3b4>
    337f: 85 27        	sta	$27                     ; 0x2027 <dispatchAction+0x3cb>
    3381: 64 12        	stz	$12                     ; 0x2012 <dispatchAction+0x3b6>
    3383: a0 0e        	ldy	#$e
    3385: 84 13        	sty	$13                     ; 0x2013 <dispatchAction+0x3b7>
    3387: 64 14        	stz	$14                     ; 0x2014 <dispatchAction+0x3b8>
    3389: a0 3a        	ldy	#$3a
    338b: 84 15        	sty	$15                     ; 0x2015 <dispatchAction+0x3b9>
    338d: 64 16        	stz	$16                     ; 0x2016 <dispatchAction+0x3ba>
    338f: a0 01        	ldy	#$1
    3391: 84 17        	sty	$17                     ; 0x2017 <dispatchAction+0x3bb>
    3393: 64 18        	stz	$18                     ; 0x2018 <dispatchAction+0x3bc>
    3395: a0 10        	ldy	#$10
    3397: 84 1a        	sty	$1a                     ; 0x201a <dispatchAction+0x3be>
    3399: 64 1b        	stz	$1b                     ; 0x201b <dispatchAction+0x3bf>
    339b: 64 1c        	stz	$1c                     ; 0x201c <dispatchAction+0x3c0>
    339d: 64 1d        	stz	$1d                     ; 0x201d <dispatchAction+0x3c1>
    339f: 64 1e        	stz	$1e                     ; 0x201e <dispatchAction+0x3c2>
    33a1: a9 ff        	lda	#$ff
    33a3: 85 1f        	sta	$1f                     ; 0x201f <dispatchAction+0x3c3>
    33a5: 86 26        	stx	$26                     ; 0x2026 <dispatchAction+0x3ca>
    33a7: 20 2d 3a     	jsr	$3a2d <setGeneric>
    33aa: a6 24        	ldx	$24                     ; 0x2024 <dispatchAction+0x3c8>
    33ac: 86 12        	stx	$12                     ; 0x2012 <dispatchAction+0x3b6>
    33ae: a6 25        	ldx	$25                     ; 0x2025 <dispatchAction+0x3c9>
    33b0: 86 13        	stx	$13                     ; 0x2013 <dispatchAction+0x3b7>
    33b2: 64 14        	stz	$14                     ; 0x2014 <dispatchAction+0x3b8>
    33b4: a2 01        	ldx	#$1
    33b6: 86 15        	stx	$15                     ; 0x2015 <dispatchAction+0x3b9>
    33b8: 64 16        	stz	$16                     ; 0x2016 <dispatchAction+0x3ba>
    33ba: ca           	dex
    33bb: 8a           	txa
    33bc: 20 f9 45     	jsr	$45f9 <setLighter>
    33bf: a6 26        	ldx	$26                     ; 0x2026 <dispatchAction+0x3ca>
    33c1: 18           	clc
    33c2: a5 24        	lda	$24                     ; 0x2024 <dispatchAction+0x3c8>
    33c4: 69 14        	adc	#$14
    33c6: 85 24        	sta	$24                     ; 0x2024 <dispatchAction+0x3c8>
    33c8: a5 27        	lda	$27                     ; 0x2027 <dispatchAction+0x3cb>
    33ca: 69 00        	adc	#$0
    33cc: 85 25        	sta	$25                     ; 0x2025 <dispatchAction+0x3c9>
    33ce: e8           	inx
    33cf: e0 0c        	cpx	#$c
    33d1: f0 03        	beq	$33d6 <loadGUIOPL+0x8a>
    33d3: 4c 6f 33     	jmp	$336f <loadGUIOPL+0x23>
    33d6: a2 45        	ldx	#$45
    33d8: 86 24        	stx	$24                     ; 0x2024 <dispatchAction+0x3c8>
    33da: a2 6f        	ldx	#$6f
    33dc: 86 25        	stx	$25                     ; 0x2025 <dispatchAction+0x3c9>
    33de: a2 09        	ldx	#$9
    33e0: 86 26        	stx	$26                     ; 0x2026 <dispatchAction+0x3ca>
    33e2: 8a           	txa
    33e3: 18           	clc
    33e4: 69 fa        	adc	#$fa
    33e6: 85 22        	sta	$22                     ; 0x2022 <dispatchAction+0x3c6>
    33e8: a5 24        	lda	$24                     ; 0x2024 <dispatchAction+0x3c8>
    33ea: 92 10        	sta	($10)                   ; 0x2010 <dispatchAction+0x3b4>
    33ec: a0 01        	ldy	#$1
    33ee: a5 25        	lda	$25                     ; 0x2025 <dispatchAction+0x3c9>
    33f0: 91 10        	sta	($10),y                 ; 0x2010 <dispatchAction+0x3b4>
    33f2: 85 27        	sta	$27                     ; 0x2027 <dispatchAction+0x3cb>
    33f4: 64 12        	stz	$12                     ; 0x2012 <dispatchAction+0x3b6>
    33f6: a2 0f        	ldx	#$f
    33f8: 86 13        	stx	$13                     ; 0x2013 <dispatchAction+0x3b7>
    33fa: 64 14        	stz	$14                     ; 0x2014 <dispatchAction+0x3b8>
    33fc: a2 3a        	ldx	#$3a
    33fe: 86 15        	stx	$15                     ; 0x2015 <dispatchAction+0x3b9>
    3400: 64 16        	stz	$16                     ; 0x2016 <dispatchAction+0x3ba>
    3402: 84 17        	sty	$17                     ; 0x2017 <dispatchAction+0x3bb>
    3404: 64 18        	stz	$18                     ; 0x2018 <dispatchAction+0x3bc>
    3406: a6 26        	ldx	$26                     ; 0x2026 <dispatchAction+0x3ca>
    3408: 86 19        	stx	$19                     ; 0x2019 <dispatchAction+0x3bd>
    340a: a2 10        	ldx	#$10
    340c: 86 1a        	stx	$1a                     ; 0x201a <dispatchAction+0x3be>
    340e: 64 1b        	stz	$1b                     ; 0x201b <dispatchAction+0x3bf>
    3410: 64 1c        	stz	$1c                     ; 0x201c <dispatchAction+0x3c0>
    3412: 64 1d        	stz	$1d                     ; 0x201d <dispatchAction+0x3c1>
    3414: 64 1e        	stz	$1e                     ; 0x201e <dispatchAction+0x3c2>
    3416: a0 ff        	ldy	#$ff
    3418: 84 1f        	sty	$1f                     ; 0x201f <dispatchAction+0x3c3>
    341a: a6 22        	ldx	$22                     ; 0x2022 <dispatchAction+0x3c6>
    341c: 98           	tya
    341d: 20 2d 3a     	jsr	$3a2d <setGeneric>
    3420: a6 24        	ldx	$24                     ; 0x2024 <dispatchAction+0x3c8>
    3422: 86 12        	stx	$12                     ; 0x2012 <dispatchAction+0x3b6>
    3424: a6 25        	ldx	$25                     ; 0x2025 <dispatchAction+0x3c9>
    3426: 86 13        	stx	$13                     ; 0x2013 <dispatchAction+0x3b7>
    3428: 64 14        	stz	$14                     ; 0x2014 <dispatchAction+0x3b8>
    342a: a2 01        	ldx	#$1
    342c: 86 15        	stx	$15                     ; 0x2015 <dispatchAction+0x3b9>
    342e: 64 16        	stz	$16                     ; 0x2016 <dispatchAction+0x3ba>
    3430: ca           	dex
    3431: 8a           	txa
    3432: 20 f9 45     	jsr	$45f9 <setLighter>
    3435: a6 26        	ldx	$26                     ; 0x2026 <dispatchAction+0x3ca>
    3437: 18           	clc
    3438: a5 24        	lda	$24                     ; 0x2024 <dispatchAction+0x3c8>
    343a: 69 14        	adc	#$14
    343c: 85 24        	sta	$24                     ; 0x2024 <dispatchAction+0x3c8>
    343e: a5 27        	lda	$27                     ; 0x2027 <dispatchAction+0x3cb>
    3440: 69 00        	adc	#$0
    3442: 85 25        	sta	$25                     ; 0x2025 <dispatchAction+0x3c9>
    3444: e8           	inx
    3445: e0 12        	cpx	#$12
    3447: f0 03        	beq	$344c <loadGUIOPL+0x100>
    3449: 4c e0 33     	jmp	$33e0 <loadGUIOPL+0x94>
    344c: 20 b0 23     	jsr	$23b0 <textLayerGen>
    344f: fa           	plx
    3450: 86 27        	stx	$27                     ; 0x2027 <dispatchAction+0x3cb>
    3452: fa           	plx
    3453: 86 26        	stx	$26                     ; 0x2026 <dispatchAction+0x3ca>
    3455: fa           	plx
    3456: 86 25        	stx	$25                     ; 0x2025 <dispatchAction+0x3c9>
    3458: fa           	plx
    3459: 86 24        	stx	$24                     ; 0x2024 <dispatchAction+0x3c8>
    345b: 18           	clc
    345c: a5 10        	lda	$10                     ; 0x2010 <dispatchAction+0x3b4>
    345e: 69 02        	adc	#$2
    3460: 85 10        	sta	$10                     ; 0x2010 <dispatchAction+0x3b4>
    3462: a5 11        	lda	$11                     ; 0x2011 <dispatchAction+0x3b5>
    3464: 69 00        	adc	#$0
    3466: 85 11        	sta	$11                     ; 0x2011 <dispatchAction+0x3b5>
    3468: 60           	rts

00003469 <textLayerSID>:
    3469: a2 0c        	ldx	#$c
    346b: 86 92        	stx	$92                     ; 0x2092 <dispatchAction+0x436>
    346d: 8e 14 d0     	stx	$d014                   ; 0xd014 <end_block9+0x5d1e>
    3470: 9c 15 d0     	stz	$d015                   ; 0xd015 <end_block9+0x5d1f>
    3473: a2 02        	ldx	#$2
    3475: 86 93        	stx	$93                     ; 0x2093 <dispatchAction+0x437>
    3477: 8e 16 d0     	stx	$d016                   ; 0xd016 <end_block9+0x5d20>
    347a: 9c 17 d0     	stz	$d017                   ; 0xd017 <end_block9+0x5d21>
    347d: a2 91        	ldx	#$91
    347f: 86 12        	stx	$12                     ; 0x2012 <dispatchAction+0x3b6>
    3481: a2 6a        	ldx	#$6a
    3483: 86 13        	stx	$13                     ; 0x2013 <dispatchAction+0x3b7>
    3485: 20 8f 24     	jsr	$248f <textPrint>
    3488: a2 21        	ldx	#$21
    348a: 86 92        	stx	$92                     ; 0x2092 <dispatchAction+0x436>
    348c: 8e 14 d0     	stx	$d014                   ; 0xd014 <end_block9+0x5d1e>
    348f: 9c 15 d0     	stz	$d015                   ; 0xd015 <end_block9+0x5d1f>
    3492: a2 02        	ldx	#$2
    3494: 86 93        	stx	$93                     ; 0x2093 <dispatchAction+0x437>
    3496: 8e 16 d0     	stx	$d016                   ; 0xd016 <end_block9+0x5d20>
    3499: 9c 17 d0     	stz	$d017                   ; 0xd017 <end_block9+0x5d21>
    349c: a2 34        	ldx	#$34
    349e: 86 12        	stx	$12                     ; 0x2012 <dispatchAction+0x3b6>
    34a0: a2 6a        	ldx	#$6a
    34a2: 86 13        	stx	$13                     ; 0x2013 <dispatchAction+0x3b7>
    34a4: 20 8f 24     	jsr	$248f <textPrint>
    34a7: a2 21        	ldx	#$21
    34a9: 86 92        	stx	$92                     ; 0x2092 <dispatchAction+0x436>
    34ab: 8e 14 d0     	stx	$d014                   ; 0xd014 <end_block9+0x5d1e>
    34ae: 9c 15 d0     	stz	$d015                   ; 0xd015 <end_block9+0x5d1f>
    34b1: a2 04        	ldx	#$4
    34b3: 86 93        	stx	$93                     ; 0x2093 <dispatchAction+0x437>
    34b5: 8e 16 d0     	stx	$d016                   ; 0xd016 <end_block9+0x5d20>
    34b8: 9c 17 d0     	stz	$d017                   ; 0xd017 <end_block9+0x5d21>
    34bb: a2 59        	ldx	#$59
    34bd: 86 12        	stx	$12                     ; 0x2012 <dispatchAction+0x3b6>
    34bf: a2 6a        	ldx	#$6a
    34c1: 86 13        	stx	$13                     ; 0x2013 <dispatchAction+0x3b7>
    34c3: 20 8f 24     	jsr	$248f <textPrint>
    34c6: a2 21        	ldx	#$21
    34c8: 86 92        	stx	$92                     ; 0x2092 <dispatchAction+0x436>
    34ca: 8e 14 d0     	stx	$d014                   ; 0xd014 <end_block9+0x5d1e>
    34cd: 9c 15 d0     	stz	$d015                   ; 0xd015 <end_block9+0x5d1f>
    34d0: a2 06        	ldx	#$6
    34d2: 86 93        	stx	$93                     ; 0x2093 <dispatchAction+0x437>
    34d4: 8e 16 d0     	stx	$d016                   ; 0xd016 <end_block9+0x5d20>
    34d7: 9c 17 d0     	stz	$d017                   ; 0xd017 <end_block9+0x5d21>
    34da: a2 55        	ldx	#$55
    34dc: 86 12        	stx	$12                     ; 0x2012 <dispatchAction+0x3b6>
    34de: a2 6a        	ldx	#$6a
    34e0: 86 13        	stx	$13                     ; 0x2013 <dispatchAction+0x3b7>
    34e2: 20 8f 24     	jsr	$248f <textPrint>
    34e5: a2 21        	ldx	#$21
    34e7: 86 92        	stx	$92                     ; 0x2092 <dispatchAction+0x436>
    34e9: 8e 14 d0     	stx	$d014                   ; 0xd014 <end_block9+0x5d1e>
    34ec: 9c 15 d0     	stz	$d015                   ; 0xd015 <end_block9+0x5d1f>
    34ef: a2 08        	ldx	#$8
    34f1: 86 93        	stx	$93                     ; 0x2093 <dispatchAction+0x437>
    34f3: 8e 16 d0     	stx	$d016                   ; 0xd016 <end_block9+0x5d20>
    34f6: 9c 17 d0     	stz	$d017                   ; 0xd017 <end_block9+0x5d21>
    34f9: a2 b1        	ldx	#$b1
    34fb: 86 12        	stx	$12                     ; 0x2012 <dispatchAction+0x3b6>
    34fd: a2 6a        	ldx	#$6a
    34ff: 86 13        	stx	$13                     ; 0x2013 <dispatchAction+0x3b7>
    3501: 20 8f 24     	jsr	$248f <textPrint>
    3504: a2 0c        	ldx	#$c
    3506: 86 92        	stx	$92                     ; 0x2092 <dispatchAction+0x436>
    3508: 8e 14 d0     	stx	$d014                   ; 0xd014 <end_block9+0x5d1e>
    350b: 9c 15 d0     	stz	$d015                   ; 0xd015 <end_block9+0x5d1f>
    350e: a2 04        	ldx	#$4
    3510: 86 93        	stx	$93                     ; 0x2093 <dispatchAction+0x437>
    3512: 8e 16 d0     	stx	$d016                   ; 0xd016 <end_block9+0x5d20>
    3515: 9c 17 d0     	stz	$d017                   ; 0xd017 <end_block9+0x5d21>
    3518: a2 22        	ldx	#$22
    351a: 86 12        	stx	$12                     ; 0x2012 <dispatchAction+0x3b6>
    351c: a2 6a        	ldx	#$6a
    351e: 86 13        	stx	$13                     ; 0x2013 <dispatchAction+0x3b7>
    3520: 20 8f 24     	jsr	$248f <textPrint>
    3523: a2 0d        	ldx	#$d
    3525: 86 92        	stx	$92                     ; 0x2092 <dispatchAction+0x436>
    3527: 8e 14 d0     	stx	$d014                   ; 0xd014 <end_block9+0x5d1e>
    352a: 9c 15 d0     	stz	$d015                   ; 0xd015 <end_block9+0x5d1f>
    352d: a2 08        	ldx	#$8
    352f: 86 93        	stx	$93                     ; 0x2093 <dispatchAction+0x437>
    3531: 8e 16 d0     	stx	$d016                   ; 0xd016 <end_block9+0x5d20>
    3534: 9c 17 d0     	stz	$d017                   ; 0xd017 <end_block9+0x5d21>
    3537: a2 71        	ldx	#$71
    3539: 86 12        	stx	$12                     ; 0x2012 <dispatchAction+0x3b6>
    353b: a2 6a        	ldx	#$6a
    353d: 86 13        	stx	$13                     ; 0x2013 <dispatchAction+0x3b7>
    353f: 20 8f 24     	jsr	$248f <textPrint>
    3542: a2 32        	ldx	#$32
    3544: 86 92        	stx	$92                     ; 0x2092 <dispatchAction+0x436>
    3546: 8e 14 d0     	stx	$d014                   ; 0xd014 <end_block9+0x5d1e>
    3549: 9c 15 d0     	stz	$d015                   ; 0xd015 <end_block9+0x5d1f>
    354c: a2 0d        	ldx	#$d
    354e: 86 93        	stx	$93                     ; 0x2093 <dispatchAction+0x437>
    3550: 8e 16 d0     	stx	$d016                   ; 0xd016 <end_block9+0x5d20>
    3553: 9c 17 d0     	stz	$d017                   ; 0xd017 <end_block9+0x5d21>
    3556: a2 7a        	ldx	#$7a
    3558: 86 12        	stx	$12                     ; 0x2012 <dispatchAction+0x3b6>
    355a: a2 6a        	ldx	#$6a
    355c: 86 13        	stx	$13                     ; 0x2013 <dispatchAction+0x3b7>
    355e: 20 8f 24     	jsr	$248f <textPrint>
    3561: a2 32        	ldx	#$32
    3563: 86 92        	stx	$92                     ; 0x2092 <dispatchAction+0x436>
    3565: 8e 14 d0     	stx	$d014                   ; 0xd014 <end_block9+0x5d1e>
    3568: 9c 15 d0     	stz	$d015                   ; 0xd015 <end_block9+0x5d1f>
    356b: a2 0f        	ldx	#$f
    356d: 86 93        	stx	$93                     ; 0x2093 <dispatchAction+0x437>
    356f: 8e 16 d0     	stx	$d016                   ; 0xd016 <end_block9+0x5d20>
    3572: 9c 17 d0     	stz	$d017                   ; 0xd017 <end_block9+0x5d21>
    3575: a2 9a        	ldx	#$9a
    3577: 86 12        	stx	$12                     ; 0x2012 <dispatchAction+0x3b6>
    3579: a2 6a        	ldx	#$6a
    357b: 86 13        	stx	$13                     ; 0x2013 <dispatchAction+0x3b7>
    357d: 20 8f 24     	jsr	$248f <textPrint>
    3580: a2 32        	ldx	#$32
    3582: 86 92        	stx	$92                     ; 0x2092 <dispatchAction+0x436>
    3584: 8e 14 d0     	stx	$d014                   ; 0xd014 <end_block9+0x5d1e>
    3587: 9c 15 d0     	stz	$d015                   ; 0xd015 <end_block9+0x5d1f>
    358a: a2 11        	ldx	#$11
    358c: 86 93        	stx	$93                     ; 0x2093 <dispatchAction+0x437>
    358e: 8e 16 d0     	stx	$d016                   ; 0xd016 <end_block9+0x5d20>
    3591: 9c 17 d0     	stz	$d017                   ; 0xd017 <end_block9+0x5d21>
    3594: a2 6c        	ldx	#$6c
    3596: 86 12        	stx	$12                     ; 0x2012 <dispatchAction+0x3b6>
    3598: a2 6a        	ldx	#$6a
    359a: 86 13        	stx	$13                     ; 0x2013 <dispatchAction+0x3b7>
    359c: 20 8f 24     	jsr	$248f <textPrint>
    359f: a2 32        	ldx	#$32
    35a1: 86 92        	stx	$92                     ; 0x2092 <dispatchAction+0x436>
    35a3: 8e 14 d0     	stx	$d014                   ; 0xd014 <end_block9+0x5d1e>
    35a6: 9c 15 d0     	stz	$d015                   ; 0xd015 <end_block9+0x5d1f>
    35a9: a2 13        	ldx	#$13
    35ab: 86 93        	stx	$93                     ; 0x2093 <dispatchAction+0x437>
    35ad: 8e 16 d0     	stx	$d016                   ; 0xd016 <end_block9+0x5d20>
    35b0: 9c 17 d0     	stz	$d017                   ; 0xd017 <end_block9+0x5d21>
    35b3: a2 75        	ldx	#$75
    35b5: 86 12        	stx	$12                     ; 0x2012 <dispatchAction+0x3b6>
    35b7: a2 6a        	ldx	#$6a
    35b9: 86 13        	stx	$13                     ; 0x2013 <dispatchAction+0x3b7>
    35bb: 20 8f 24     	jsr	$248f <textPrint>
    35be: a2 32        	ldx	#$32
    35c0: 86 92        	stx	$92                     ; 0x2092 <dispatchAction+0x436>
    35c2: 8e 14 d0     	stx	$d014                   ; 0xd014 <end_block9+0x5d1e>
    35c5: 9c 15 d0     	stz	$d015                   ; 0xd015 <end_block9+0x5d1f>
    35c8: a2 15        	ldx	#$15
    35ca: 86 93        	stx	$93                     ; 0x2093 <dispatchAction+0x437>
    35cc: 8e 16 d0     	stx	$d016                   ; 0xd016 <end_block9+0x5d20>
    35cf: 9c 17 d0     	stz	$d017                   ; 0xd017 <end_block9+0x5d21>
    35d2: a2 18        	ldx	#$18
    35d4: 86 12        	stx	$12                     ; 0x2012 <dispatchAction+0x3b6>
    35d6: a2 6a        	ldx	#$6a
    35d8: 86 13        	stx	$13                     ; 0x2013 <dispatchAction+0x3b7>
    35da: 20 8f 24     	jsr	$248f <textPrint>
    35dd: a2 46        	ldx	#$46
    35df: 86 92        	stx	$92                     ; 0x2092 <dispatchAction+0x436>
    35e1: 8e 14 d0     	stx	$d014                   ; 0xd014 <end_block9+0x5d1e>
    35e4: 9c 15 d0     	stz	$d015                   ; 0xd015 <end_block9+0x5d1f>
    35e7: a2 0e        	ldx	#$e
    35e9: 86 93        	stx	$93                     ; 0x2093 <dispatchAction+0x437>
    35eb: 8e 16 d0     	stx	$d016                   ; 0xd016 <end_block9+0x5d20>
    35ee: 9c 17 d0     	stz	$d017                   ; 0xd017 <end_block9+0x5d21>
    35f1: a2 30        	ldx	#$30
    35f3: 86 12        	stx	$12                     ; 0x2012 <dispatchAction+0x3b6>
    35f5: a2 6a        	ldx	#$6a
    35f7: 86 13        	stx	$13                     ; 0x2013 <dispatchAction+0x3b7>
    35f9: 20 8f 24     	jsr	$248f <textPrint>
    35fc: a2 43        	ldx	#$43
    35fe: 86 92        	stx	$92                     ; 0x2092 <dispatchAction+0x436>
    3600: 8e 14 d0     	stx	$d014                   ; 0xd014 <end_block9+0x5d1e>
    3603: 9c 15 d0     	stz	$d015                   ; 0xd015 <end_block9+0x5d1f>
    3606: a2 11        	ldx	#$11
    3608: 86 93        	stx	$93                     ; 0x2093 <dispatchAction+0x437>
    360a: 8e 16 d0     	stx	$d016                   ; 0xd016 <end_block9+0x5d20>
    360d: 9c 17 d0     	stz	$d017                   ; 0xd017 <end_block9+0x5d21>
    3610: a2 ac        	ldx	#$ac
    3612: 86 12        	stx	$12                     ; 0x2012 <dispatchAction+0x3b6>
    3614: a2 6a        	ldx	#$6a
    3616: 86 13        	stx	$13                     ; 0x2013 <dispatchAction+0x3b7>
    3618: 20 8f 24     	jsr	$248f <textPrint>
    361b: a2 28        	ldx	#$28
    361d: 86 92        	stx	$92                     ; 0x2092 <dispatchAction+0x436>
    361f: 8e 14 d0     	stx	$d014                   ; 0xd014 <end_block9+0x5d1e>
    3622: 9c 15 d0     	stz	$d015                   ; 0xd015 <end_block9+0x5d1f>
    3625: a2 02        	ldx	#$2
    3627: 86 93        	stx	$93                     ; 0x2093 <dispatchAction+0x437>
    3629: 8e 16 d0     	stx	$d016                   ; 0xd016 <end_block9+0x5d20>
    362c: 9c 17 d0     	stz	$d017                   ; 0xd017 <end_block9+0x5d21>
    362f: a2 c0        	ldx	#$c0
    3631: 86 12        	stx	$12                     ; 0x2012 <dispatchAction+0x3b6>
    3633: a2 6a        	ldx	#$6a
    3635: 86 13        	stx	$13                     ; 0x2013 <dispatchAction+0x3b7>
    3637: 20 8f 24     	jsr	$248f <textPrint>
    363a: a2 2e        	ldx	#$2e
    363c: 86 92        	stx	$92                     ; 0x2092 <dispatchAction+0x436>
    363e: 8e 14 d0     	stx	$d014                   ; 0xd014 <end_block9+0x5d1e>
    3641: 9c 15 d0     	stz	$d015                   ; 0xd015 <end_block9+0x5d1f>
    3644: a2 04        	ldx	#$4
    3646: 86 93        	stx	$93                     ; 0x2093 <dispatchAction+0x437>
    3648: 8e 16 d0     	stx	$d016                   ; 0xd016 <end_block9+0x5d20>
    364b: 9c 17 d0     	stz	$d017                   ; 0xd017 <end_block9+0x5d21>
    364e: a2 38        	ldx	#$38
    3650: 86 12        	stx	$12                     ; 0x2012 <dispatchAction+0x3b6>
    3652: a2 6a        	ldx	#$6a
    3654: 86 13        	stx	$13                     ; 0x2013 <dispatchAction+0x3b7>
    3656: 4c 8f 24     	jmp	$248f <textPrint>

00003659 <backgroundSetup>:
    3659: a6 24        	ldx	$24                     ; 0x2024 <dispatchAction+0x3c8>
    365b: da           	phx
    365c: a6 25        	ldx	$25                     ; 0x2025 <dispatchAction+0x3c9>
    365e: da           	phx
    365f: a2 00        	ldx	#$0
    3661: a0 00        	ldy	#$0
    3663: 84 12        	sty	$12                     ; 0x2012 <dispatchAction+0x3b6>
    3665: a0 e0        	ldy	#$e0
    3667: 84 13        	sty	$13                     ; 0x2013 <dispatchAction+0x3b7>
    3669: 64 01        	stz	$1                      ; 0x2001 <dispatchAction+0x3a5>
    366b: a0 3f        	ldy	#$3f
    366d: 8c 00 d0     	sty	$d000                   ; 0xd000 <end_block9+0x5d0a>
    3670: a0 04        	ldy	#$4
    3672: 8c 01 d0     	sty	$d001                   ; 0xd001 <end_block9+0x5d0b>
    3675: a0 14        	ldy	#$14
    3677: 8c 02 d0     	sty	$d002                   ; 0xd002 <end_block9+0x5d0c>
    367a: 9c 03 d0     	stz	$d003                   ; 0xd003 <end_block9+0x5d0d>
    367d: 9c 0d d0     	stz	$d00d                   ; 0xd00d <end_block9+0x5d17>
    3680: 9c 0e d0     	stz	$d00e                   ; 0xd00e <end_block9+0x5d18>
    3683: 9c 0f d0     	stz	$d00f                   ; 0xd00f <end_block9+0x5d19>
    3686: a0 01        	ldy	#$1
    3688: 84 01        	sty	$1                      ; 0x2001 <dispatchAction+0x3a5>
    368a: a0 f0        	ldy	#$f0
    368c: 80 05        	bra	$3693 <backgroundSetup+0x3a>
    368e: c8           	iny
    368f: c0 f3        	cpy	#$f3
    3691: f0 30        	beq	$36c3 <backgroundSetup+0x6a>
    3693: 86 14        	stx	$14                     ; 0x2014 <dispatchAction+0x3b8>
    3695: 84 15        	sty	$15                     ; 0x2015 <dispatchAction+0x3b9>
    3697: a5 0f        	lda	$f                      ; 0x200f <dispatchAction+0x3b3>
    3699: 85 17        	sta	$17                     ; 0x2017 <dispatchAction+0x3bb>
    369b: 78           	sei
    369c: 86 16        	stx	$16                     ; 0x2016 <dispatchAction+0x3ba>
    369e: a2 0a        	ldx	#$a
    36a0: 86 0f        	stx	$f                      ; 0x200f <dispatchAction+0x3b3>
    36a2: a6 16        	ldx	$16                     ; 0x2016 <dispatchAction+0x3ba>
    36a4: b2 14        	lda	($14)                   ; 0x2014 <dispatchAction+0x3b8>
    36a6: 85 16        	sta	$16                     ; 0x2016 <dispatchAction+0x3ba>
    36a8: a5 17        	lda	$17                     ; 0x2017 <dispatchAction+0x3bb>
    36aa: 85 0f        	sta	$f                      ; 0x200f <dispatchAction+0x3b3>
    36ac: 8a           	txa
    36ad: 18           	clc
    36ae: 69 00        	adc	#$0
    36b0: 85 14        	sta	$14                     ; 0x2014 <dispatchAction+0x3b8>
    36b2: 98           	tya
    36b3: 69 e0        	adc	#$e0
    36b5: 58           	cli
    36b6: 85 15        	sta	$15                     ; 0x2015 <dispatchAction+0x3b9>
    36b8: a5 16        	lda	$16                     ; 0x2016 <dispatchAction+0x3ba>
    36ba: 92 14        	sta	($14)                   ; 0x2014 <dispatchAction+0x3b8>
    36bc: e8           	inx
    36bd: f0 cf        	beq	$368e <backgroundSetup+0x35>
    36bf: c0 f3        	cpy	#$f3
    36c1: d0 d0        	bne	$3693 <backgroundSetup+0x3a>
    36c3: e0 ff        	cpx	#$ff
    36c5: d0 cc        	bne	$3693 <backgroundSetup+0x3a>
    36c7: a2 d4        	ldx	#$d4
    36c9: a0 00        	ldy	#$0
    36cb: 80 05        	bra	$36d2 <backgroundSetup+0x79>
    36cd: e8           	inx
    36ce: e0 d7        	cpx	#$d7
    36d0: f0 28        	beq	$36fa <backgroundSetup+0xa1>
    36d2: 84 19        	sty	$19                     ; 0x2019 <dispatchAction+0x3bd>
    36d4: 98           	tya
    36d5: 18           	clc
    36d6: 69 00        	adc	#$0
    36d8: 85 16        	sta	$16                     ; 0x2016 <dispatchAction+0x3ba>
    36da: 8a           	txa
    36db: 69 0c        	adc	#$c
    36dd: 85 17        	sta	$17                     ; 0x2017 <dispatchAction+0x3bb>
    36df: 84 14        	sty	$14                     ; 0x2014 <dispatchAction+0x3b8>
    36e1: 86 15        	stx	$15                     ; 0x2015 <dispatchAction+0x3b9>
    36e3: a4 0f        	ldy	$f                      ; 0x200f <dispatchAction+0x3b3>
    36e5: 78           	sei
    36e6: a9 18        	lda	#$18
    36e8: 85 0f        	sta	$f                      ; 0x200f <dispatchAction+0x3b3>
    36ea: b2 16        	lda	($16)                   ; 0x2016 <dispatchAction+0x3ba>
    36ec: 84 0f        	sty	$f                      ; 0x200f <dispatchAction+0x3b3>
    36ee: 58           	cli
    36ef: 92 14        	sta	($14)                   ; 0x2014 <dispatchAction+0x3b8>
    36f1: a4 19        	ldy	$19                     ; 0x2019 <dispatchAction+0x3bd>
    36f3: c8           	iny
    36f4: f0 d7        	beq	$36cd <backgroundSetup+0x74>
    36f6: e0 d7        	cpx	#$d7
    36f8: d0 d8        	bne	$36d2 <backgroundSetup+0x79>
    36fa: c0 ff        	cpy	#$ff
    36fc: d0 d4        	bne	$36d2 <backgroundSetup+0x79>
    36fe: a2 00        	ldx	#$0
    3700: 64 01        	stz	$1                      ; 0x2001 <dispatchAction+0x3a5>
    3702: 9c 03 6d     	stz	$6d03                   ; 0x6d03 <_active>
    3705: 9c 06 6d     	stz	$6d06                   ; 0x6d06 <_BITMAP_CLUT>
    3708: ad 00 d1     	lda	$d100                   ; 0xd100 <end_block9+0x5e0a>
    370b: 29 f9        	and	#$f9
    370d: 8d 00 d1     	sta	$d100                   ; 0xd100 <end_block9+0x5e0a>
    3710: a0 03        	ldy	#$3
    3712: 84 94        	sty	$94                     ; 0x2094 <dispatchAction+0x438>
    3714: ad 03 6d     	lda	$6d03                   ; 0x6d03 <_active>
    3717: 64 14        	stz	$14                     ; 0x2014 <dispatchAction+0x3b8>
    3719: 0a           	asl
    371a: 26 14        	rol	$14                     ; 0x2014 <dispatchAction+0x3b8>
    371c: 0a           	asl
    371d: 85 15        	sta	$15                     ; 0x2015 <dispatchAction+0x3b9>
    371f: 26 14        	rol	$14                     ; 0x2014 <dispatchAction+0x3b8>
    3721: a9 f7        	lda	#$f7
    3723: 18           	clc
    3724: 65 15        	adc	$15                     ; 0x2015 <dispatchAction+0x3b9>
    3726: a8           	tay
    3727: a9 6c        	lda	#$6c
    3729: 65 14        	adc	$14                     ; 0x2014 <dispatchAction+0x3b8>
    372b: 84 14        	sty	$14                     ; 0x2014 <dispatchAction+0x3b8>
    372d: a0 01        	ldy	#$1
    372f: 85 15        	sta	$15                     ; 0x2015 <dispatchAction+0x3b9>
    3731: b1 14        	lda	($14),y                 ; 0x2014 <dispatchAction+0x3b8>
    3733: 85 16        	sta	$16                     ; 0x2016 <dispatchAction+0x3ba>
    3735: c8           	iny
    3736: b1 14        	lda	($14),y                 ; 0x2014 <dispatchAction+0x3b8>
    3738: a4 16        	ldy	$16                     ; 0x2016 <dispatchAction+0x3ba>
    373a: 84 14        	sty	$14                     ; 0x2014 <dispatchAction+0x3b8>
    373c: 06 14        	asl	$14                     ; 0x2014 <dispatchAction+0x3b8>
    373e: 2a           	rol
    373f: 06 14        	asl	$14                     ; 0x2014 <dispatchAction+0x3b8>
    3741: 2a           	rol
    3742: 06 14        	asl	$14                     ; 0x2014 <dispatchAction+0x3b8>
    3744: 2a           	rol
    3745: a4 0f        	ldy	$f                      ; 0x200f <dispatchAction+0x3b3>
    3747: 84 18        	sty	$18                     ; 0x2018 <dispatchAction+0x3bc>
    3749: 78           	sei
    374a: 80 26        	bra	$3772 <backgroundSetup+0x119>
    374c: a5 17        	lda	$17                     ; 0x2017 <dispatchAction+0x3bb>
    374e: f0 16        	beq	$3766 <backgroundSetup+0x10d>
    3750: a5 94        	lda	$94                     ; 0x2094 <dispatchAction+0x438>
    3752: 92 14        	sta	($14)                   ; 0x2014 <dispatchAction+0x3b8>
    3754: a0 ff        	ldy	#$ff
    3756: c6 16        	dec	$16                     ; 0x2016 <dispatchAction+0x3ba>
    3758: c4 16        	cpy	$16                     ; 0x2016 <dispatchAction+0x3ba>
    375a: d0 02        	bne	$375e <backgroundSetup+0x105>
    375c: c6 17        	dec	$17                     ; 0x2017 <dispatchAction+0x3bb>
    375e: e6 14        	inc	$14                     ; 0x2014 <dispatchAction+0x3b8>
    3760: d0 ea        	bne	$374c <backgroundSetup+0xf3>
    3762: e6 15        	inc	$15                     ; 0x2015 <dispatchAction+0x3b9>
    3764: 80 e6        	bra	$374c <backgroundSetup+0xf3>
    3766: a5 16        	lda	$16                     ; 0x2016 <dispatchAction+0x3ba>
    3768: d0 e6        	bne	$3750 <backgroundSetup+0xf7>
    376a: a5 19        	lda	$19                     ; 0x2019 <dispatchAction+0x3bd>
    376c: 1a           	inc
    376d: e8           	inx
    376e: e0 09        	cpx	#$9
    3770: f0 14        	beq	$3786 <backgroundSetup+0x12d>
    3772: 85 19        	sta	$19                     ; 0x2019 <dispatchAction+0x3bd>
    3774: 85 0f        	sta	$f                      ; 0x200f <dispatchAction+0x3b3>
    3776: a0 20        	ldy	#$20
    3778: a9 00        	lda	#$0
    377a: 85 14        	sta	$14                     ; 0x2014 <dispatchAction+0x3b8>
    377c: a9 e0        	lda	#$e0
    377e: 85 15        	sta	$15                     ; 0x2015 <dispatchAction+0x3b9>
    3780: 64 16        	stz	$16                     ; 0x2016 <dispatchAction+0x3ba>
    3782: 84 17        	sty	$17                     ; 0x2017 <dispatchAction+0x3bb>
    3784: 80 ca        	bra	$3750 <backgroundSetup+0xf7>
    3786: 85 0f        	sta	$f                      ; 0x200f <dispatchAction+0x3b3>
    3788: a0 14        	ldy	#$14
    378a: a2 00        	ldx	#$0
    378c: 8a           	txa
    378d: 85 14        	sta	$14                     ; 0x2014 <dispatchAction+0x3b8>
    378f: a9 e0        	lda	#$e0
    3791: 85 15        	sta	$15                     ; 0x2015 <dispatchAction+0x3b9>
    3793: 80 03        	bra	$3798 <backgroundSetup+0x13f>
    3795: 98           	tya
    3796: f0 12        	beq	$37aa <backgroundSetup+0x151>
    3798: a5 94        	lda	$94                     ; 0x2094 <dispatchAction+0x438>
    379a: 92 14        	sta	($14)                   ; 0x2014 <dispatchAction+0x3b8>
    379c: ca           	dex
    379d: e0 ff        	cpx	#$ff
    379f: d0 01        	bne	$37a2 <backgroundSetup+0x149>
    37a1: 88           	dey
    37a2: e6 14        	inc	$14                     ; 0x2014 <dispatchAction+0x3b8>
    37a4: d0 ef        	bne	$3795 <backgroundSetup+0x13c>
    37a6: e6 15        	inc	$15                     ; 0x2015 <dispatchAction+0x3b9>
    37a8: 80 eb        	bra	$3795 <backgroundSetup+0x13c>
    37aa: 8a           	txa
    37ab: d0 eb        	bne	$3798 <backgroundSetup+0x13f>
    37ad: a6 18        	ldx	$18                     ; 0x2018 <dispatchAction+0x3bc>
    37af: 86 0f        	stx	$f                      ; 0x200f <dispatchAction+0x3b3>
    37b1: 58           	cli
    37b2: a2 01        	ldx	#$1
    37b4: 8e 03 6d     	stx	$6d03                   ; 0x6d03 <_active>
    37b7: e8           	inx
    37b8: 8e 07 6d     	stx	$6d07                   ; 0x6d07 <_BITMAP_CLUT+0x1>
    37bb: ad 08 d1     	lda	$d108                   ; 0xd108 <end_block9+0x5e12>
    37be: 29 f9        	and	#$f9
    37c0: 09 02        	ora	#$2
    37c2: 8d 08 d1     	sta	$d108                   ; 0xd108 <end_block9+0x5e12>
    37c5: ad 03 6d     	lda	$6d03                   ; 0x6d03 <_active>
    37c8: 0a           	asl
    37c9: 64 14        	stz	$14                     ; 0x2014 <dispatchAction+0x3b8>
    37cb: 26 14        	rol	$14                     ; 0x2014 <dispatchAction+0x3b8>
    37cd: 0a           	asl
    37ce: 85 15        	sta	$15                     ; 0x2015 <dispatchAction+0x3b9>
    37d0: 26 14        	rol	$14                     ; 0x2014 <dispatchAction+0x3b8>
    37d2: a9 f7        	lda	#$f7
    37d4: 18           	clc
    37d5: 65 15        	adc	$15                     ; 0x2015 <dispatchAction+0x3b9>
    37d7: aa           	tax
    37d8: a9 6c        	lda	#$6c
    37da: 65 14        	adc	$14                     ; 0x2014 <dispatchAction+0x3b8>
    37dc: 86 14        	stx	$14                     ; 0x2014 <dispatchAction+0x3b8>
    37de: 85 15        	sta	$15                     ; 0x2015 <dispatchAction+0x3b9>
    37e0: a0 01        	ldy	#$1
    37e2: b1 14        	lda	($14),y                 ; 0x2014 <dispatchAction+0x3b8>
    37e4: 85 16        	sta	$16                     ; 0x2016 <dispatchAction+0x3ba>
    37e6: 64 1a        	stz	$1a                     ; 0x201a <dispatchAction+0x3be>
    37e8: c8           	iny
    37e9: b1 14        	lda	($14),y                 ; 0x2014 <dispatchAction+0x3b8>
    37eb: a6 16        	ldx	$16                     ; 0x2016 <dispatchAction+0x3ba>
    37ed: 86 14        	stx	$14                     ; 0x2014 <dispatchAction+0x3b8>
    37ef: 06 14        	asl	$14                     ; 0x2014 <dispatchAction+0x3b8>
    37f1: 2a           	rol
    37f2: 06 14        	asl	$14                     ; 0x2014 <dispatchAction+0x3b8>
    37f4: 2a           	rol
    37f5: 06 14        	asl	$14                     ; 0x2014 <dispatchAction+0x3b8>
    37f7: 2a           	rol
    37f8: a6 0f        	ldx	$f                      ; 0x200f <dispatchAction+0x3b3>
    37fa: 86 18        	stx	$18                     ; 0x2018 <dispatchAction+0x3bc>
    37fc: 78           	sei
    37fd: 80 2a        	bra	$3829 <backgroundSetup+0x1d0>
    37ff: a5 17        	lda	$17                     ; 0x2017 <dispatchAction+0x3bb>
    3801: f0 16        	beq	$3819 <backgroundSetup+0x1c0>
    3803: a5 94        	lda	$94                     ; 0x2094 <dispatchAction+0x438>
    3805: 92 14        	sta	($14)                   ; 0x2014 <dispatchAction+0x3b8>
    3807: a2 ff        	ldx	#$ff
    3809: c6 16        	dec	$16                     ; 0x2016 <dispatchAction+0x3ba>
    380b: e4 16        	cpx	$16                     ; 0x2016 <dispatchAction+0x3ba>
    380d: d0 02        	bne	$3811 <backgroundSetup+0x1b8>
    380f: c6 17        	dec	$17                     ; 0x2017 <dispatchAction+0x3bb>
    3811: e6 14        	inc	$14                     ; 0x2014 <dispatchAction+0x3b8>
    3813: d0 ea        	bne	$37ff <backgroundSetup+0x1a6>
    3815: e6 15        	inc	$15                     ; 0x2015 <dispatchAction+0x3b9>
    3817: 80 e6        	bra	$37ff <backgroundSetup+0x1a6>
    3819: a5 16        	lda	$16                     ; 0x2016 <dispatchAction+0x3ba>
    381b: d0 e6        	bne	$3803 <backgroundSetup+0x1aa>
    381d: a5 19        	lda	$19                     ; 0x2019 <dispatchAction+0x3bd>
    381f: 1a           	inc
    3820: a6 1a        	ldx	$1a                     ; 0x201a <dispatchAction+0x3be>
    3822: e8           	inx
    3823: 86 1a        	stx	$1a                     ; 0x201a <dispatchAction+0x3be>
    3825: e0 09        	cpx	#$9
    3827: f0 14        	beq	$383d <backgroundSetup+0x1e4>
    3829: 85 19        	sta	$19                     ; 0x2019 <dispatchAction+0x3bd>
    382b: 85 0f        	sta	$f                      ; 0x200f <dispatchAction+0x3b3>
    382d: a2 20        	ldx	#$20
    382f: a0 00        	ldy	#$0
    3831: 84 14        	sty	$14                     ; 0x2014 <dispatchAction+0x3b8>
    3833: a0 e0        	ldy	#$e0
    3835: 84 15        	sty	$15                     ; 0x2015 <dispatchAction+0x3b9>
    3837: 64 16        	stz	$16                     ; 0x2016 <dispatchAction+0x3ba>
    3839: 86 17        	stx	$17                     ; 0x2017 <dispatchAction+0x3bb>
    383b: 80 c6        	bra	$3803 <backgroundSetup+0x1aa>
    383d: 85 0f        	sta	$f                      ; 0x200f <dispatchAction+0x3b3>
    383f: a2 14        	ldx	#$14
    3841: a0 00        	ldy	#$0
    3843: 80 03        	bra	$3848 <backgroundSetup+0x1ef>
    3845: 8a           	txa
    3846: f0 12        	beq	$385a <backgroundSetup+0x201>
    3848: a5 94        	lda	$94                     ; 0x2094 <dispatchAction+0x438>
    384a: 92 12        	sta	($12)                   ; 0x2012 <dispatchAction+0x3b6>
    384c: 88           	dey
    384d: c0 ff        	cpy	#$ff
    384f: d0 01        	bne	$3852 <backgroundSetup+0x1f9>
    3851: ca           	dex
    3852: e6 12        	inc	$12                     ; 0x2012 <dispatchAction+0x3b6>
    3854: d0 ef        	bne	$3845 <backgroundSetup+0x1ec>
    3856: e6 13        	inc	$13                     ; 0x2013 <dispatchAction+0x3b7>
    3858: 80 eb        	bra	$3845 <backgroundSetup+0x1ec>
    385a: 98           	tya
    385b: d0 eb        	bne	$3848 <backgroundSetup+0x1ef>
    385d: a6 18        	ldx	$18                     ; 0x2018 <dispatchAction+0x3bc>
    385f: 86 0f        	stx	$f                      ; 0x200f <dispatchAction+0x3b3>
    3861: 58           	cli
    3862: 9c fb 6c     	stz	$6cfb                   ; 0x6cfb <_BITMAP_BASE+0x4>
    3865: a2 04        	ldx	#$4
    3867: 8e fc 6c     	stx	$6cfc                   ; 0x6cfc <_BITMAP_BASE+0x5>
    386a: a0 03        	ldy	#$3
    386c: 8c fd 6c     	sty	$6cfd                   ; 0x6cfd <_BITMAP_BASE+0x6>
    386f: 9c fe 6c     	stz	$6cfe                   ; 0x6cfe <_BITMAP_BASE+0x7>
    3872: 9c 09 d1     	stz	$d109                   ; 0xd109 <end_block9+0x5e13>
    3875: 8e 0a d1     	stx	$d10a                   ; 0xd10a <end_block9+0x5e14>
    3878: 8c 0b d1     	sty	$d10b                   ; 0xd10b <end_block9+0x5e15>
    387b: a9 01        	lda	#$1
    387d: 0d 06 6d     	ora	$6d06                   ; 0x6d06 <_BITMAP_CLUT>
    3880: 8d 00 d1     	sta	$d100                   ; 0xd100 <end_block9+0x5e0a>
    3883: a9 01        	lda	#$1
    3885: 0d 07 6d     	ora	$6d07                   ; 0x6d07 <_BITMAP_CLUT+0x1>
    3888: 8d 08 d1     	sta	$d108                   ; 0xd108 <end_block9+0x5e12>
    388b: 9c 10 d1     	stz	$d110                   ; 0xd110 <end_block9+0x5e1a>
    388e: a0 10        	ldy	#$10
    3890: 8c 09 6d     	sty	$6d09                   ; 0x6d09 <_tileSize>
    3893: 9c 01 d2     	stz	$d201                   ; 0xd201 <end_block9+0x5f0b>
    3896: a9 54        	lda	#$54
    3898: 8d 02 d2     	sta	$d202                   ; 0xd202 <end_block9+0x5f0c>
    389b: a9 01        	lda	#$1
    389d: 8d 03 d2     	sta	$d203                   ; 0xd203 <end_block9+0x5f0d>
    38a0: a9 14        	lda	#$14
    38a2: 8d 04 d2     	sta	$d204                   ; 0xd204 <end_block9+0x5f0e>
    38a5: 9c 05 d2     	stz	$d205                   ; 0xd205 <end_block9+0x5f0f>
    38a8: 8c 06 d2     	sty	$d206                   ; 0xd206 <end_block9+0x5f10>
    38ab: 9c 07 d2     	stz	$d207                   ; 0xd207 <end_block9+0x5f11>
    38ae: 9c 08 d2     	stz	$d208                   ; 0xd208 <end_block9+0x5f12>
    38b1: 9c 09 d2     	stz	$d209                   ; 0xd209 <end_block9+0x5f13>
    38b4: 9c 0a d2     	stz	$d20a                   ; 0xd20a <end_block9+0x5f14>
    38b7: 9c 0b d2     	stz	$d20b                   ; 0xd20b <end_block9+0x5f15>
    38ba: 9c 80 d2     	stz	$d280                   ; 0xd280 <end_block9+0x5f8a>
    38bd: 9c 81 d2     	stz	$d281                   ; 0xd281 <end_block9+0x5f8b>
    38c0: a0 01        	ldy	#$1
    38c2: 8c 82 d2     	sty	$d282                   ; 0xd282 <end_block9+0x5f8c>
    38c5: 9c 83 d2     	stz	$d283                   ; 0xd283 <end_block9+0x5f8d>
    38c8: ad 09 6d     	lda	$6d09                   ; 0x6d09 <_tileSize>
    38cb: a0 11        	ldy	#$11
    38cd: c9 08        	cmp	#$8
    38cf: f0 02        	beq	$38d3 <backgroundSetup+0x27a>
    38d1: a0 01        	ldy	#$1
    38d3: 8c 00 d2     	sty	$d200                   ; 0xd200 <end_block9+0x5f0a>
    38d6: 9c 08 d2     	stz	$d208                   ; 0xd208 <end_block9+0x5f12>
    38d9: 9c 09 d2     	stz	$d209                   ; 0xd209 <end_block9+0x5f13>
    38dc: 8e 0a d2     	stx	$d20a                   ; 0xd20a <end_block9+0x5f14>
    38df: 9c 0b d2     	stz	$d20b                   ; 0xd20b <end_block9+0x5f15>
    38e2: a2 3f        	ldx	#$3f
    38e4: a9 54        	lda	#$54
    38e6: 64 12        	stz	$12                     ; 0x2012 <dispatchAction+0x3b6>
    38e8: 64 18        	stz	$18                     ; 0x2018 <dispatchAction+0x3bc>
    38ea: a4 12        	ldy	$12                     ; 0x2012 <dispatchAction+0x3b6>
    38ec: 84 24        	sty	$24                     ; 0x2024 <dispatchAction+0x3c8>
    38ee: 86 12        	stx	$12                     ; 0x2012 <dispatchAction+0x3b6>
    38f0: 64 13        	stz	$13                     ; 0x2013 <dispatchAction+0x3b7>
    38f2: 64 14        	stz	$14                     ; 0x2014 <dispatchAction+0x3b8>
    38f4: 85 15        	sta	$15                     ; 0x2015 <dispatchAction+0x3b9>
    38f6: a2 01        	ldx	#$1
    38f8: 86 16        	stx	$16                     ; 0x2016 <dispatchAction+0x3ba>
    38fa: 64 17        	stz	$17                     ; 0x2017 <dispatchAction+0x3bb>
    38fc: a6 24        	ldx	$24                     ; 0x2024 <dispatchAction+0x3c8>
    38fe: a5 18        	lda	$18                     ; 0x2018 <dispatchAction+0x3bc>
    3900: a4 18        	ldy	$18                     ; 0x2018 <dispatchAction+0x3bc>
    3902: 84 25        	sty	$25                     ; 0x2025 <dispatchAction+0x3c9>
    3904: 20 9c 46     	jsr	$469c <setATile>
    3907: a9 54        	lda	#$54
    3909: a2 3f        	ldx	#$3f
    390b: a4 25        	ldy	$25                     ; 0x2025 <dispatchAction+0x3c9>
    390d: c8           	iny
    390e: 84 18        	sty	$18                     ; 0x2018 <dispatchAction+0x3bc>
    3910: c0 14        	cpy	#$14
    3912: d0 da        	bne	$38ee <backgroundSetup+0x295>
    3914: a4 24        	ldy	$24                     ; 0x2024 <dispatchAction+0x3c8>
    3916: c8           	iny
    3917: 84 12        	sty	$12                     ; 0x2012 <dispatchAction+0x3b6>
    3919: c0 10        	cpy	#$10
    391b: d0 cb        	bne	$38e8 <backgroundSetup+0x28f>
    391d: fa           	plx
    391e: 86 25        	stx	$25                     ; 0x2025 <dispatchAction+0x3c9>
    3920: fa           	plx
    3921: 86 24        	stx	$24                     ; 0x2024 <dispatchAction+0x3c8>
    3923: 60           	rts

00003924 <spriteDefine>:
    3924: a8           	tay
    3925: 86 18        	stx	$18                     ; 0x2018 <dispatchAction+0x3bc>
    3927: a6 13        	ldx	$13                     ; 0x2013 <dispatchAction+0x3b7>
    3929: a5 15        	lda	$15                     ; 0x2015 <dispatchAction+0x3b9>
    392b: 18           	clc
    392c: 69 f8        	adc	#$f8
    392e: 85 13        	sta	$13                     ; 0x2013 <dispatchAction+0x3b7>
    3930: 46 13        	lsr	$13                     ; 0x2013 <dispatchAction+0x3b7>
    3932: 6a           	ror
    3933: 85 13        	sta	$13                     ; 0x2013 <dispatchAction+0x3b7>
    3935: 46 13        	lsr	$13                     ; 0x2013 <dispatchAction+0x3b7>
    3937: 6a           	ror
    3938: 85 13        	sta	$13                     ; 0x2013 <dispatchAction+0x3b7>
    393a: 46 13        	lsr	$13                     ; 0x2013 <dispatchAction+0x3b7>
    393c: 6a           	ror
    393d: 64 13        	stz	$13                     ; 0x2013 <dispatchAction+0x3b7>
    393f: c9 03        	cmp	#$3
    3941: b0 0e        	bcs	$3951 <spriteDefine+0x2d>
    3943: 0a           	asl
    3944: 0a           	asl
    3945: 0a           	asl
    3946: 0a           	asl
    3947: 0a           	asl
    3948: 85 13        	sta	$13                     ; 0x2013 <dispatchAction+0x3b7>
    394a: a9 60        	lda	#$60
    394c: 38           	sec
    394d: e5 13        	sbc	$13                     ; 0x2013 <dispatchAction+0x3b7>
    394f: 85 13        	sta	$13                     ; 0x2013 <dispatchAction+0x3b7>
    3951: 98           	tya
    3952: 0a           	asl
    3953: 64 19        	stz	$19                     ; 0x2019 <dispatchAction+0x3bd>
    3955: 26 19        	rol	$19                     ; 0x2019 <dispatchAction+0x3bd>
    3957: 0a           	asl
    3958: 26 19        	rol	$19                     ; 0x2019 <dispatchAction+0x3bd>
    395a: 0a           	asl
    395b: 26 19        	rol	$19                     ; 0x2019 <dispatchAction+0x3bd>
    395d: 18           	clc
    395e: 85 1a        	sta	$1a                     ; 0x201a <dispatchAction+0x3be>
    3960: 69 00        	adc	#$0
    3962: 85 1b        	sta	$1b                     ; 0x201b <dispatchAction+0x3bf>
    3964: a5 19        	lda	$19                     ; 0x2019 <dispatchAction+0x3bd>
    3966: 69 d9        	adc	#$d9
    3968: 5a           	phy
    3969: a4 1b        	ldy	$1b                     ; 0x201b <dispatchAction+0x3bf>
    396b: 84 14        	sty	$14                     ; 0x2014 <dispatchAction+0x3b8>
    396d: 7a           	ply
    396e: 85 15        	sta	$15                     ; 0x2015 <dispatchAction+0x3b9>
    3970: 06 17        	asl	$17                     ; 0x2017 <dispatchAction+0x3bb>
    3972: 06 17        	asl	$17                     ; 0x2017 <dispatchAction+0x3bb>
    3974: 06 17        	asl	$17                     ; 0x2017 <dispatchAction+0x3bb>
    3976: a5 16        	lda	$16                     ; 0x2016 <dispatchAction+0x3ba>
    3978: 0a           	asl
    3979: 05 17        	ora	$17                     ; 0x2017 <dispatchAction+0x3bb>
    397b: 05 13        	ora	$13                     ; 0x2013 <dispatchAction+0x3b7>
    397d: 99 0c 6d     	sta	$6d0c,y                 ; 0x6d0c <_spriteCtl>
    3980: 92 14        	sta	($14)                   ; 0x2014 <dispatchAction+0x3b8>
    3982: 18           	clc
    3983: a5 1a        	lda	$1a                     ; 0x201a <dispatchAction+0x3be>
    3985: 69 01        	adc	#$1
    3987: 85 14        	sta	$14                     ; 0x2014 <dispatchAction+0x3b8>
    3989: a5 19        	lda	$19                     ; 0x2019 <dispatchAction+0x3bd>
    398b: 69 d9        	adc	#$d9
    398d: 85 15        	sta	$15                     ; 0x2015 <dispatchAction+0x3b9>
    398f: a5 18        	lda	$18                     ; 0x2018 <dispatchAction+0x3bc>
    3991: 92 14        	sta	($14)                   ; 0x2014 <dispatchAction+0x3b8>
    3993: 18           	clc
    3994: a5 1a        	lda	$1a                     ; 0x201a <dispatchAction+0x3be>
    3996: 69 02        	adc	#$2
    3998: 85 14        	sta	$14                     ; 0x2014 <dispatchAction+0x3b8>
    399a: a5 19        	lda	$19                     ; 0x2019 <dispatchAction+0x3bd>
    399c: 69 d9        	adc	#$d9
    399e: 85 15        	sta	$15                     ; 0x2015 <dispatchAction+0x3b9>
    39a0: 18           	clc
    39a1: a5 12        	lda	$12                     ; 0x2012 <dispatchAction+0x3b6>
    39a3: 92 14        	sta	($14)                   ; 0x2014 <dispatchAction+0x3b8>
    39a5: a5 1a        	lda	$1a                     ; 0x201a <dispatchAction+0x3be>
    39a7: 69 03        	adc	#$3
    39a9: 85 12        	sta	$12                     ; 0x2012 <dispatchAction+0x3b6>
    39ab: a5 19        	lda	$19                     ; 0x2019 <dispatchAction+0x3bd>
    39ad: 69 d9        	adc	#$d9
    39af: 85 13        	sta	$13                     ; 0x2013 <dispatchAction+0x3b7>
    39b1: 8a           	txa
    39b2: 92 12        	sta	($12)                   ; 0x2012 <dispatchAction+0x3b6>
    39b4: 60           	rts

000039b5 <spriteSetPosition>:
    39b5: 86 17        	stx	$17                     ; 0x2017 <dispatchAction+0x3bb>
    39b7: a6 12        	ldx	$12                     ; 0x2012 <dispatchAction+0x3b6>
    39b9: 86 16        	stx	$16                     ; 0x2016 <dispatchAction+0x3ba>
    39bb: a6 13        	ldx	$13                     ; 0x2013 <dispatchAction+0x3b7>
    39bd: 0a           	asl
    39be: 64 18        	stz	$18                     ; 0x2018 <dispatchAction+0x3bc>
    39c0: 26 18        	rol	$18                     ; 0x2018 <dispatchAction+0x3bc>
    39c2: 85 12        	sta	$12                     ; 0x2012 <dispatchAction+0x3b6>
    39c4: 06 12        	asl	$12                     ; 0x2012 <dispatchAction+0x3b6>
    39c6: 26 18        	rol	$18                     ; 0x2018 <dispatchAction+0x3bc>
    39c8: 06 12        	asl	$12                     ; 0x2012 <dispatchAction+0x3b6>
    39ca: a4 12        	ldy	$12                     ; 0x2012 <dispatchAction+0x3b6>
    39cc: 84 15        	sty	$15                     ; 0x2015 <dispatchAction+0x3b9>
    39ce: 26 18        	rol	$18                     ; 0x2018 <dispatchAction+0x3bc>
    39d0: 18           	clc
    39d1: a5 12        	lda	$12                     ; 0x2012 <dispatchAction+0x3b6>
    39d3: 69 04        	adc	#$4
    39d5: 85 12        	sta	$12                     ; 0x2012 <dispatchAction+0x3b6>
    39d7: a5 18        	lda	$18                     ; 0x2018 <dispatchAction+0x3bc>
    39d9: 69 d9        	adc	#$d9
    39db: 85 13        	sta	$13                     ; 0x2013 <dispatchAction+0x3b7>
    39dd: a5 17        	lda	$17                     ; 0x2017 <dispatchAction+0x3bb>
    39df: 92 12        	sta	($12)                   ; 0x2012 <dispatchAction+0x3b6>
    39e1: a0 01        	ldy	#$1
    39e3: a5 16        	lda	$16                     ; 0x2016 <dispatchAction+0x3ba>
    39e5: 91 12        	sta	($12),y                 ; 0x2012 <dispatchAction+0x3b6>
    39e7: 18           	clc
    39e8: a5 15        	lda	$15                     ; 0x2015 <dispatchAction+0x3b9>
    39ea: 69 06        	adc	#$6
    39ec: 85 12        	sta	$12                     ; 0x2012 <dispatchAction+0x3b6>
    39ee: a5 18        	lda	$18                     ; 0x2018 <dispatchAction+0x3bc>
    39f0: 69 d9        	adc	#$d9
    39f2: 85 13        	sta	$13                     ; 0x2013 <dispatchAction+0x3b7>
    39f4: 8a           	txa
    39f5: 92 12        	sta	($12)                   ; 0x2012 <dispatchAction+0x3b6>
    39f7: a5 14        	lda	$14                     ; 0x2014 <dispatchAction+0x3b8>
    39f9: 91 12        	sta	($12),y                 ; 0x2012 <dispatchAction+0x3b6>
    39fb: 60           	rts

000039fc <spriteSetVisible>:
    39fc: a8           	tay
    39fd: 0a           	asl
    39fe: 85 12        	sta	$12                     ; 0x2012 <dispatchAction+0x3b6>
    3a00: a9 00        	lda	#$0
    3a02: 2a           	rol
    3a03: 06 12        	asl	$12                     ; 0x2012 <dispatchAction+0x3b6>
    3a05: 2a           	rol
    3a06: 06 12        	asl	$12                     ; 0x2012 <dispatchAction+0x3b6>
    3a08: 2a           	rol
    3a09: 85 13        	sta	$13                     ; 0x2013 <dispatchAction+0x3b7>
    3a0b: 18           	clc
    3a0c: a5 12        	lda	$12                     ; 0x2012 <dispatchAction+0x3b6>
    3a0e: 69 00        	adc	#$0
    3a10: 85 12        	sta	$12                     ; 0x2012 <dispatchAction+0x3b6>
    3a12: a5 13        	lda	$13                     ; 0x2013 <dispatchAction+0x3b7>
    3a14: 69 d9        	adc	#$d9
    3a16: 85 13        	sta	$13                     ; 0x2013 <dispatchAction+0x3b7>
    3a18: 8a           	txa
    3a19: 19 0c 6d     	ora	$6d0c,y                 ; 0x6d0c <_spriteCtl>
    3a1c: 92 12        	sta	($12)                   ; 0x2012 <dispatchAction+0x3b6>
    3a1e: 60           	rts

00003a1f <__putchar>:
    3a1f: 8d 54 6d     	sta	$6d54                   ; 0x6d54 <__putchar.s>
    3a22: a2 54        	ldx	#$54
    3a24: 86 12        	stx	$12                     ; 0x2012 <dispatchAction+0x3b6>
    3a26: a2 6d        	ldx	#$6d
    3a28: 86 13        	stx	$13                     ; 0x2013 <dispatchAction+0x3b7>
    3a2a: 4c 8f 24     	jmp	$248f <textPrint>

00003a2d <setGeneric>:
    3a2d: 85 e7        	sta	$e7                     ; 0x20e7 <dispatchAction+0x48b>
    3a2f: 18           	clc
    3a30: a4 10        	ldy	$10                     ; 0x2010 <dispatchAction+0x3b4>
    3a32: 84 e3        	sty	$e3                     ; 0x20e3 <dispatchAction+0x487>
    3a34: a4 11        	ldy	$11                     ; 0x2011 <dispatchAction+0x3b5>
    3a36: 84 e4        	sty	$e4                     ; 0x20e4 <dispatchAction+0x488>
    3a38: b2 e3        	lda	($e3)                   ; 0x20e3 <dispatchAction+0x487>
    3a3a: 85 e6        	sta	$e6                     ; 0x20e6 <dispatchAction+0x48a>
    3a3c: 85 22        	sta	$22                     ; 0x2022 <dispatchAction+0x3c6>
    3a3e: a0 01        	ldy	#$1
    3a40: b1 e3        	lda	($e3),y                 ; 0x20e3 <dispatchAction+0x487>
    3a42: 85 e5        	sta	$e5                     ; 0x20e5 <dispatchAction+0x489>
    3a44: 85 23        	sta	$23                     ; 0x2023 <dispatchAction+0x3c7>
    3a46: a9 00        	lda	#$0
    3a48: a0 05        	ldy	#$5
    3a4a: 91 22        	sta	($22),y                 ; 0x2022 <dispatchAction+0x3c6>
    3a4c: c8           	iny
    3a4d: 91 22        	sta	($22),y                 ; 0x2022 <dispatchAction+0x3c6>
    3a4f: c8           	iny
    3a50: 91 22        	sta	($22),y                 ; 0x2022 <dispatchAction+0x3c6>
    3a52: c8           	iny
    3a53: a5 15        	lda	$15                     ; 0x2015 <dispatchAction+0x3b9>
    3a55: 91 22        	sta	($22),y                 ; 0x2022 <dispatchAction+0x3c6>
    3a57: 8a           	txa
    3a58: a0 01        	ldy	#$1
    3a5a: 91 22        	sta	($22),y                 ; 0x2022 <dispatchAction+0x3c6>
    3a5c: a6 22        	ldx	$22                     ; 0x2022 <dispatchAction+0x3c6>
    3a5e: 86 e3        	stx	$e3                     ; 0x20e3 <dispatchAction+0x487>
    3a60: a6 23        	ldx	$23                     ; 0x2023 <dispatchAction+0x3c7>
    3a62: 86 e4        	stx	$e4                     ; 0x20e4 <dispatchAction+0x488>
    3a64: e6 e3        	inc	$e3                     ; 0x20e3 <dispatchAction+0x487>
    3a66: d0 02        	bne	$3a6a <setGeneric+0x3d>
    3a68: e6 e4        	inc	$e4                     ; 0x20e4 <dispatchAction+0x488>
    3a6a: a5 12        	lda	$12                     ; 0x2012 <dispatchAction+0x3b6>
    3a6c: 91 e3        	sta	($e3),y                 ; 0x20e3 <dispatchAction+0x487>
    3a6e: 18           	clc
    3a6f: a6 e6        	ldx	$e6                     ; 0x20e6 <dispatchAction+0x48a>
    3a71: 8a           	txa
    3a72: 69 03        	adc	#$3
    3a74: 85 e3        	sta	$e3                     ; 0x20e3 <dispatchAction+0x487>
    3a76: a5 e5        	lda	$e5                     ; 0x20e5 <dispatchAction+0x489>
    3a78: 69 00        	adc	#$0
    3a7a: 85 e4        	sta	$e4                     ; 0x20e4 <dispatchAction+0x488>
    3a7c: a5 14        	lda	$14                     ; 0x2014 <dispatchAction+0x3b8>
    3a7e: 91 e3        	sta	($e3),y                 ; 0x20e3 <dispatchAction+0x487>
    3a80: 18           	clc
    3a81: a6 e6        	ldx	$e6                     ; 0x20e6 <dispatchAction+0x48a>
    3a83: 8a           	txa
    3a84: 69 08        	adc	#$8
    3a86: 85 14        	sta	$14                     ; 0x2014 <dispatchAction+0x3b8>
    3a88: a5 e5        	lda	$e5                     ; 0x20e5 <dispatchAction+0x489>
    3a8a: 69 00        	adc	#$0
    3a8c: 85 15        	sta	$15                     ; 0x2015 <dispatchAction+0x3b9>
    3a8e: a5 16        	lda	$16                     ; 0x2016 <dispatchAction+0x3ba>
    3a90: 91 14        	sta	($14),y                 ; 0x2014 <dispatchAction+0x3b8>
    3a92: a0 02        	ldy	#$2
    3a94: a5 17        	lda	$17                     ; 0x2017 <dispatchAction+0x3bb>
    3a96: 91 14        	sta	($14),y                 ; 0x2014 <dispatchAction+0x3b8>
    3a98: c8           	iny
    3a99: a5 13        	lda	$13                     ; 0x2013 <dispatchAction+0x3b7>
    3a9b: 91 22        	sta	($22),y                 ; 0x2022 <dispatchAction+0x3c6>
    3a9d: a5 18        	lda	$18                     ; 0x2018 <dispatchAction+0x3bc>
    3a9f: 91 14        	sta	($14),y                 ; 0x2014 <dispatchAction+0x3b8>
    3aa1: a0 0c        	ldy	#$c
    3aa3: a5 19        	lda	$19                     ; 0x2019 <dispatchAction+0x3bd>
    3aa5: 91 22        	sta	($22),y                 ; 0x2022 <dispatchAction+0x3c6>
    3aa7: c8           	iny
    3aa8: a5 1a        	lda	$1a                     ; 0x201a <dispatchAction+0x3be>
    3aaa: 91 22        	sta	($22),y                 ; 0x2022 <dispatchAction+0x3c6>
    3aac: c8           	iny
    3aad: a5 1b        	lda	$1b                     ; 0x201b <dispatchAction+0x3bf>
    3aaf: 91 22        	sta	($22),y                 ; 0x2022 <dispatchAction+0x3c6>
    3ab1: c8           	iny
    3ab2: a5 1c        	lda	$1c                     ; 0x201c <dispatchAction+0x3c0>
    3ab4: 91 22        	sta	($22),y                 ; 0x2022 <dispatchAction+0x3c6>
    3ab6: c8           	iny
    3ab7: a5 1d        	lda	$1d                     ; 0x201d <dispatchAction+0x3c1>
    3ab9: 91 22        	sta	($22),y                 ; 0x2022 <dispatchAction+0x3c6>
    3abb: c8           	iny
    3abc: a5 1e        	lda	$1e                     ; 0x201e <dispatchAction+0x3c2>
    3abe: 91 22        	sta	($22),y                 ; 0x2022 <dispatchAction+0x3c6>
    3ac0: c8           	iny
    3ac1: a5 1f        	lda	$1f                     ; 0x201f <dispatchAction+0x3c3>
    3ac3: 91 22        	sta	($22),y                 ; 0x2022 <dispatchAction+0x3c6>
    3ac5: a5 e7        	lda	$e7                     ; 0x20e7 <dispatchAction+0x48b>
    3ac7: 92 22        	sta	($22)                   ; 0x2022 <dispatchAction+0x3c6>
    3ac9: 60           	rts

00003aca <updateRadioB>:
    3aca: a6 12        	ldx	$12                     ; 0x2012 <dispatchAction+0x3b6>
    3acc: 86 e3        	stx	$e3                     ; 0x20e3 <dispatchAction+0x487>
    3ace: a6 13        	ldx	$13                     ; 0x2013 <dispatchAction+0x3b7>
    3ad0: 86 e4        	stx	$e4                     ; 0x20e4 <dispatchAction+0x488>
    3ad2: a0 06        	ldy	#$6
    3ad4: b1 12        	lda	($12),y                 ; 0x2012 <dispatchAction+0x3b6>
    3ad6: 85 e5        	sta	$e5                     ; 0x20e5 <dispatchAction+0x489>
    3ad8: a0 0d        	ldy	#$d
    3ada: b1 12        	lda	($12),y                 ; 0x2012 <dispatchAction+0x3b6>
    3adc: 85 12        	sta	$12                     ; 0x2012 <dispatchAction+0x3b6>
    3ade: 64 13        	stz	$13                     ; 0x2013 <dispatchAction+0x3b7>
    3ae0: a2 00        	ldx	#$0
    3ae2: 20 d0 66     	jsr	$66d0 <__mulhi3>
    3ae5: 85 13        	sta	$13                     ; 0x2013 <dispatchAction+0x3b7>
    3ae7: 86 12        	stx	$12                     ; 0x2012 <dispatchAction+0x3b6>
    3ae9: a5 e3        	lda	$e3                     ; 0x20e3 <dispatchAction+0x487>
    3aeb: a0 08        	ldy	#$8
    3aed: 18           	clc
    3aee: 69 08        	adc	#$8
    3af0: 85 14        	sta	$14                     ; 0x2014 <dispatchAction+0x3b8>
    3af2: a5 e4        	lda	$e4                     ; 0x20e4 <dispatchAction+0x488>
    3af4: 69 00        	adc	#$0
    3af6: 85 15        	sta	$15                     ; 0x2015 <dispatchAction+0x3b9>
    3af8: b1 e3        	lda	($e3),y                 ; 0x20e3 <dispatchAction+0x487>
    3afa: 85 19        	sta	$19                     ; 0x2019 <dispatchAction+0x3bd>
    3afc: a0 01        	ldy	#$1
    3afe: b1 14        	lda	($14),y                 ; 0x2014 <dispatchAction+0x3b8>
    3b00: 85 16        	sta	$16                     ; 0x2016 <dispatchAction+0x3ba>
    3b02: c8           	iny
    3b03: b1 14        	lda	($14),y                 ; 0x2014 <dispatchAction+0x3b8>
    3b05: 85 17        	sta	$17                     ; 0x2017 <dispatchAction+0x3bb>
    3b07: c8           	iny
    3b08: b1 14        	lda	($14),y                 ; 0x2014 <dispatchAction+0x3b8>
    3b0a: 85 18        	sta	$18                     ; 0x2018 <dispatchAction+0x3bc>
    3b0c: a6 e5        	ldx	$e5                     ; 0x20e5 <dispatchAction+0x489>
    3b0e: f0 19        	beq	$3b29 <updateRadioB+0x5f>
    3b10: 18           	clc
    3b11: a5 19        	lda	$19                     ; 0x2019 <dispatchAction+0x3bd>
    3b13: 65 13        	adc	$13                     ; 0x2013 <dispatchAction+0x3b7>
    3b15: 85 14        	sta	$14                     ; 0x2014 <dispatchAction+0x3b8>
    3b17: a5 16        	lda	$16                     ; 0x2016 <dispatchAction+0x3ba>
    3b19: 65 12        	adc	$12                     ; 0x2012 <dispatchAction+0x3b6>
    3b1b: 85 15        	sta	$15                     ; 0x2015 <dispatchAction+0x3b9>
    3b1d: a5 17        	lda	$17                     ; 0x2017 <dispatchAction+0x3bb>
    3b1f: 69 00        	adc	#$0
    3b21: 85 16        	sta	$16                     ; 0x2016 <dispatchAction+0x3ba>
    3b23: a5 18        	lda	$18                     ; 0x2018 <dispatchAction+0x3bc>
    3b25: 69 00        	adc	#$0
    3b27: 80 17        	bra	$3b40 <updateRadioB+0x76>
    3b29: 38           	sec
    3b2a: a5 19        	lda	$19                     ; 0x2019 <dispatchAction+0x3bd>
    3b2c: e5 13        	sbc	$13                     ; 0x2013 <dispatchAction+0x3b7>
    3b2e: 85 14        	sta	$14                     ; 0x2014 <dispatchAction+0x3b8>
    3b30: a5 16        	lda	$16                     ; 0x2016 <dispatchAction+0x3ba>
    3b32: e5 12        	sbc	$12                     ; 0x2012 <dispatchAction+0x3b6>
    3b34: 85 15        	sta	$15                     ; 0x2015 <dispatchAction+0x3b9>
    3b36: a5 17        	lda	$17                     ; 0x2017 <dispatchAction+0x3bb>
    3b38: e9 00        	sbc	#$0
    3b3a: 85 16        	sta	$16                     ; 0x2016 <dispatchAction+0x3ba>
    3b3c: a5 18        	lda	$18                     ; 0x2018 <dispatchAction+0x3bc>
    3b3e: e9 00        	sbc	#$0
    3b40: 85 17        	sta	$17                     ; 0x2017 <dispatchAction+0x3bb>
    3b42: a5 e3        	lda	$e3                     ; 0x20e3 <dispatchAction+0x487>
    3b44: 18           	clc
    3b45: 69 08        	adc	#$8
    3b47: 85 18        	sta	$18                     ; 0x2018 <dispatchAction+0x3bc>
    3b49: a5 e4        	lda	$e4                     ; 0x20e4 <dispatchAction+0x488>
    3b4b: 69 00        	adc	#$0
    3b4d: a0 08        	ldy	#$8
    3b4f: 85 19        	sta	$19                     ; 0x2019 <dispatchAction+0x3bd>
    3b51: a5 14        	lda	$14                     ; 0x2014 <dispatchAction+0x3b8>
    3b53: 91 e3        	sta	($e3),y                 ; 0x20e3 <dispatchAction+0x487>
    3b55: a6 14        	ldx	$14                     ; 0x2014 <dispatchAction+0x3b8>
    3b57: a0 01        	ldy	#$1
    3b59: a5 15        	lda	$15                     ; 0x2015 <dispatchAction+0x3b9>
    3b5b: 91 18        	sta	($18),y                 ; 0x2018 <dispatchAction+0x3bc>
    3b5d: 85 12        	sta	$12                     ; 0x2012 <dispatchAction+0x3b6>
    3b5f: c8           	iny
    3b60: a5 16        	lda	$16                     ; 0x2016 <dispatchAction+0x3ba>
    3b62: 91 18        	sta	($18),y                 ; 0x2018 <dispatchAction+0x3bc>
    3b64: 85 13        	sta	$13                     ; 0x2013 <dispatchAction+0x3b7>
    3b66: c8           	iny
    3b67: a5 17        	lda	$17                     ; 0x2017 <dispatchAction+0x3bb>
    3b69: 91 18        	sta	($18),y                 ; 0x2018 <dispatchAction+0x3bc>
    3b6b: 85 14        	sta	$14                     ; 0x2014 <dispatchAction+0x3b8>
    3b6d: b2 e3        	lda	($e3)                   ; 0x20e3 <dispatchAction+0x487>
    3b6f: 85 18        	sta	$18                     ; 0x2018 <dispatchAction+0x3bc>
    3b71: a0 0d        	ldy	#$d
    3b73: b1 e3        	lda	($e3),y                 ; 0x20e3 <dispatchAction+0x487>
    3b75: 85 15        	sta	$15                     ; 0x2015 <dispatchAction+0x3b9>
    3b77: 64 16        	stz	$16                     ; 0x2016 <dispatchAction+0x3ba>
    3b79: 64 17        	stz	$17                     ; 0x2017 <dispatchAction+0x3bb>
    3b7b: a5 18        	lda	$18                     ; 0x2018 <dispatchAction+0x3bc>
    3b7d: 20 24 39     	jsr	$3924 <spriteDefine>
    3b80: b2 e3        	lda	($e3)                   ; 0x20e3 <dispatchAction+0x487>
    3b82: a2 01        	ldx	#$1
    3b84: 4c fc 39     	jmp	$39fc <spriteSetVisible>

00003b87 <setRadioB>:
    3b87: 86 15        	stx	$15                     ; 0x2015 <dispatchAction+0x3b9>
    3b89: a6 14        	ldx	$14                     ; 0x2014 <dispatchAction+0x3b8>
    3b8b: 86 e5        	stx	$e5                     ; 0x20e5 <dispatchAction+0x489>
    3b8d: a6 12        	ldx	$12                     ; 0x2012 <dispatchAction+0x3b6>
    3b8f: 86 e3        	stx	$e3                     ; 0x20e3 <dispatchAction+0x487>
    3b91: a6 13        	ldx	$13                     ; 0x2013 <dispatchAction+0x3b7>
    3b93: 86 e4        	stx	$e4                     ; 0x20e4 <dispatchAction+0x488>
    3b95: a0 13        	ldy	#$13
    3b97: 91 12        	sta	($12),y                 ; 0x2012 <dispatchAction+0x3b6>
    3b99: c8           	iny
    3b9a: a5 15        	lda	$15                     ; 0x2015 <dispatchAction+0x3b9>
    3b9c: 91 12        	sta	($12),y                 ; 0x2012 <dispatchAction+0x3b6>
    3b9e: b2 12        	lda	($12)                   ; 0x2012 <dispatchAction+0x3b6>
    3ba0: 85 18        	sta	$18                     ; 0x2018 <dispatchAction+0x3bc>
    3ba2: a5 e3        	lda	$e3                     ; 0x20e3 <dispatchAction+0x487>
    3ba4: a6 e3        	ldx	$e3                     ; 0x20e3 <dispatchAction+0x487>
    3ba6: 86 e6        	stx	$e6                     ; 0x20e6 <dispatchAction+0x48a>
    3ba8: a4 e4        	ldy	$e4                     ; 0x20e4 <dispatchAction+0x488>
    3baa: 84 e7        	sty	$e7                     ; 0x20e7 <dispatchAction+0x48b>
    3bac: 18           	clc
    3bad: 69 08        	adc	#$8
    3baf: 85 14        	sta	$14                     ; 0x2014 <dispatchAction+0x3b8>
    3bb1: a5 e4        	lda	$e4                     ; 0x20e4 <dispatchAction+0x488>
    3bb3: 69 00        	adc	#$0
    3bb5: a0 08        	ldy	#$8
    3bb7: 85 15        	sta	$15                     ; 0x2015 <dispatchAction+0x3b9>
    3bb9: b1 12        	lda	($12),y                 ; 0x2012 <dispatchAction+0x3b6>
    3bbb: aa           	tax
    3bbc: a0 01        	ldy	#$1
    3bbe: b1 14        	lda	($14),y                 ; 0x2014 <dispatchAction+0x3b8>
    3bc0: 85 12        	sta	$12                     ; 0x2012 <dispatchAction+0x3b6>
    3bc2: c8           	iny
    3bc3: b1 14        	lda	($14),y                 ; 0x2014 <dispatchAction+0x3b8>
    3bc5: 85 13        	sta	$13                     ; 0x2013 <dispatchAction+0x3b7>
    3bc7: c8           	iny
    3bc8: b1 14        	lda	($14),y                 ; 0x2014 <dispatchAction+0x3b8>
    3bca: 85 14        	sta	$14                     ; 0x2014 <dispatchAction+0x3b8>
    3bcc: a0 0d        	ldy	#$d
    3bce: b1 e3        	lda	($e3),y                 ; 0x20e3 <dispatchAction+0x487>
    3bd0: 85 15        	sta	$15                     ; 0x2015 <dispatchAction+0x3b9>
    3bd2: 64 16        	stz	$16                     ; 0x2016 <dispatchAction+0x3ba>
    3bd4: 64 17        	stz	$17                     ; 0x2017 <dispatchAction+0x3bb>
    3bd6: a5 18        	lda	$18                     ; 0x2018 <dispatchAction+0x3bc>
    3bd8: 20 24 39     	jsr	$3924 <spriteDefine>
    3bdb: b2 e3        	lda	($e3)                   ; 0x20e3 <dispatchAction+0x487>
    3bdd: 85 16        	sta	$16                     ; 0x2016 <dispatchAction+0x3ba>
    3bdf: a6 e3        	ldx	$e3                     ; 0x20e3 <dispatchAction+0x487>
    3be1: 86 12        	stx	$12                     ; 0x2012 <dispatchAction+0x3b6>
    3be3: a6 e4        	ldx	$e4                     ; 0x20e4 <dispatchAction+0x488>
    3be5: 86 13        	stx	$13                     ; 0x2013 <dispatchAction+0x3b7>
    3be7: e6 12        	inc	$12                     ; 0x2012 <dispatchAction+0x3b6>
    3be9: d0 02        	bne	$3bed <setRadioB+0x66>
    3beb: e6 13        	inc	$13                     ; 0x2013 <dispatchAction+0x3b7>
    3bed: 18           	clc
    3bee: a5 e6        	lda	$e6                     ; 0x20e6 <dispatchAction+0x48a>
    3bf0: 69 03        	adc	#$3
    3bf2: 85 14        	sta	$14                     ; 0x2014 <dispatchAction+0x3b8>
    3bf4: a5 e7        	lda	$e7                     ; 0x20e7 <dispatchAction+0x48b>
    3bf6: 69 00        	adc	#$0
    3bf8: 85 15        	sta	$15                     ; 0x2015 <dispatchAction+0x3b9>
    3bfa: a0 01        	ldy	#$1
    3bfc: b1 e3        	lda	($e3),y                 ; 0x20e3 <dispatchAction+0x487>
    3bfe: aa           	tax
    3bff: b1 12        	lda	($12),y                 ; 0x2012 <dispatchAction+0x3b6>
    3c01: 85 12        	sta	$12                     ; 0x2012 <dispatchAction+0x3b6>
    3c03: a0 03        	ldy	#$3
    3c05: b1 e3        	lda	($e3),y                 ; 0x20e3 <dispatchAction+0x487>
    3c07: 85 13        	sta	$13                     ; 0x2013 <dispatchAction+0x3b7>
    3c09: a0 01        	ldy	#$1
    3c0b: b1 14        	lda	($14),y                 ; 0x2014 <dispatchAction+0x3b8>
    3c0d: 85 14        	sta	$14                     ; 0x2014 <dispatchAction+0x3b8>
    3c0f: a5 16        	lda	$16                     ; 0x2016 <dispatchAction+0x3ba>
    3c11: 20 b5 39     	jsr	$39b5 <spriteSetPosition>
    3c14: a6 e5        	ldx	$e5                     ; 0x20e5 <dispatchAction+0x489>
    3c16: d0 03        	bne	$3c1b <setRadioB+0x94>
    3c18: 4c 8e 3c     	jmp	$3c8e <setRadioB+0x107>
    3c1b: a0 06        	ldy	#$6
    3c1d: a9 01        	lda	#$1
    3c1f: 91 e3        	sta	($e3),y                 ; 0x20e3 <dispatchAction+0x487>
    3c21: a0 0d        	ldy	#$d
    3c23: b1 e3        	lda	($e3),y                 ; 0x20e3 <dispatchAction+0x487>
    3c25: 85 12        	sta	$12                     ; 0x2012 <dispatchAction+0x3b6>
    3c27: 64 13        	stz	$13                     ; 0x2013 <dispatchAction+0x3b7>
    3c29: a2 00        	ldx	#$0
    3c2b: 20 d0 66     	jsr	$66d0 <__mulhi3>
    3c2e: 85 12        	sta	$12                     ; 0x2012 <dispatchAction+0x3b6>
    3c30: a5 e3        	lda	$e3                     ; 0x20e3 <dispatchAction+0x487>
    3c32: 18           	clc
    3c33: 69 08        	adc	#$8
    3c35: 85 14        	sta	$14                     ; 0x2014 <dispatchAction+0x3b8>
    3c37: a5 e4        	lda	$e4                     ; 0x20e4 <dispatchAction+0x488>
    3c39: 69 00        	adc	#$0
    3c3b: 85 15        	sta	$15                     ; 0x2015 <dispatchAction+0x3b9>
    3c3d: a0 02        	ldy	#$2
    3c3f: b1 14        	lda	($14),y                 ; 0x2014 <dispatchAction+0x3b8>
    3c41: 85 13        	sta	$13                     ; 0x2013 <dispatchAction+0x3b7>
    3c43: c8           	iny
    3c44: b1 14        	lda	($14),y                 ; 0x2014 <dispatchAction+0x3b8>
    3c46: 85 16        	sta	$16                     ; 0x2016 <dispatchAction+0x3ba>
    3c48: 18           	clc
    3c49: a0 08        	ldy	#$8
    3c4b: a5 12        	lda	$12                     ; 0x2012 <dispatchAction+0x3b6>
    3c4d: 71 e3        	adc	($e3),y                 ; 0x20e3 <dispatchAction+0x487>
    3c4f: 85 17        	sta	$17                     ; 0x2017 <dispatchAction+0x3bb>
    3c51: a0 01        	ldy	#$1
    3c53: 8a           	txa
    3c54: 71 14        	adc	($14),y                 ; 0x2014 <dispatchAction+0x3b8>
    3c56: 85 12        	sta	$12                     ; 0x2012 <dispatchAction+0x3b6>
    3c58: a5 17        	lda	$17                     ; 0x2017 <dispatchAction+0x3bb>
    3c5a: a0 08        	ldy	#$8
    3c5c: 91 e3        	sta	($e3),y                 ; 0x20e3 <dispatchAction+0x487>
    3c5e: a6 17        	ldx	$17                     ; 0x2017 <dispatchAction+0x3bb>
    3c60: a5 12        	lda	$12                     ; 0x2012 <dispatchAction+0x3b6>
    3c62: a0 01        	ldy	#$1
    3c64: 91 14        	sta	($14),y                 ; 0x2014 <dispatchAction+0x3b8>
    3c66: a5 13        	lda	$13                     ; 0x2013 <dispatchAction+0x3b7>
    3c68: 69 00        	adc	#$0
    3c6a: c8           	iny
    3c6b: 91 14        	sta	($14),y                 ; 0x2014 <dispatchAction+0x3b8>
    3c6d: 85 13        	sta	$13                     ; 0x2013 <dispatchAction+0x3b7>
    3c6f: a5 16        	lda	$16                     ; 0x2016 <dispatchAction+0x3ba>
    3c71: 69 00        	adc	#$0
    3c73: c8           	iny
    3c74: 91 14        	sta	($14),y                 ; 0x2014 <dispatchAction+0x3b8>
    3c76: 85 14        	sta	$14                     ; 0x2014 <dispatchAction+0x3b8>
    3c78: a0 0d        	ldy	#$d
    3c7a: b1 e3        	lda	($e3),y                 ; 0x20e3 <dispatchAction+0x487>
    3c7c: 85 15        	sta	$15                     ; 0x2015 <dispatchAction+0x3b9>
    3c7e: b2 e3        	lda	($e3)                   ; 0x20e3 <dispatchAction+0x487>
    3c80: 64 16        	stz	$16                     ; 0x2016 <dispatchAction+0x3ba>
    3c82: 64 17        	stz	$17                     ; 0x2017 <dispatchAction+0x3bb>
    3c84: 20 24 39     	jsr	$3924 <spriteDefine>
    3c87: b2 e3        	lda	($e3)                   ; 0x20e3 <dispatchAction+0x487>
    3c89: a2 01        	ldx	#$1
    3c8b: 20 fc 39     	jsr	$39fc <spriteSetVisible>
    3c8e: b2 e3        	lda	($e3)                   ; 0x20e3 <dispatchAction+0x487>
    3c90: a2 01        	ldx	#$1
    3c92: 4c fc 39     	jmp	$39fc <spriteSetVisible>

00003c95 <updateDial>:
    3c95: 48           	pha
    3c96: 18           	clc
    3c97: a5 10        	lda	$10                     ; 0x2010 <dispatchAction+0x3b4>
    3c99: 69 f8        	adc	#$f8
    3c9b: 85 10        	sta	$10                     ; 0x2010 <dispatchAction+0x3b4>
    3c9d: a5 11        	lda	$11                     ; 0x2011 <dispatchAction+0x3b5>
    3c9f: 69 ff        	adc	#$ff
    3ca1: 85 11        	sta	$11                     ; 0x2011 <dispatchAction+0x3b5>
    3ca3: 68           	pla
    3ca4: a4 24        	ldy	$24                     ; 0x2024 <dispatchAction+0x3c8>
    3ca6: 5a           	phy
    3ca7: a4 25        	ldy	$25                     ; 0x2025 <dispatchAction+0x3c9>
    3ca9: 5a           	phy
    3caa: a4 26        	ldy	$26                     ; 0x2026 <dispatchAction+0x3ca>
    3cac: 5a           	phy
    3cad: a4 27        	ldy	$27                     ; 0x2027 <dispatchAction+0x3cb>
    3caf: 5a           	phy
    3cb0: 48           	pha
    3cb1: a5 28        	lda	$28                     ; 0x2028 <dispatchAction+0x3cc>
    3cb3: a0 06        	ldy	#$6
    3cb5: 91 10        	sta	($10),y                 ; 0x2010 <dispatchAction+0x3b4>
    3cb7: a5 29        	lda	$29                     ; 0x2029 <dispatchAction+0x3cd>
    3cb9: 88           	dey
    3cba: 91 10        	sta	($10),y                 ; 0x2010 <dispatchAction+0x3b4>
    3cbc: a5 2a        	lda	$2a                     ; 0x202a <dispatchAction+0x3ce>
    3cbe: 88           	dey
    3cbf: 91 10        	sta	($10),y                 ; 0x2010 <dispatchAction+0x3b4>
    3cc1: a5 2b        	lda	$2b                     ; 0x202b <dispatchAction+0x3cf>
    3cc3: 88           	dey
    3cc4: 91 10        	sta	($10),y                 ; 0x2010 <dispatchAction+0x3b4>
    3cc6: a5 2c        	lda	$2c                     ; 0x202c <dispatchAction+0x3d0>
    3cc8: 88           	dey
    3cc9: 91 10        	sta	($10),y                 ; 0x2010 <dispatchAction+0x3b4>
    3ccb: a5 2d        	lda	$2d                     ; 0x202d <dispatchAction+0x3d1>
    3ccd: 88           	dey
    3cce: 91 10        	sta	($10),y                 ; 0x2010 <dispatchAction+0x3b4>
    3cd0: a5 2e        	lda	$2e                     ; 0x202e <dispatchAction+0x3d2>
    3cd2: 88           	dey
    3cd3: 91 10        	sta	($10),y                 ; 0x2010 <dispatchAction+0x3b4>
    3cd5: 68           	pla
    3cd6: 85 26        	sta	$26                     ; 0x2026 <dispatchAction+0x3ca>
    3cd8: 86 27        	stx	$27                     ; 0x2027 <dispatchAction+0x3cb>
    3cda: a6 14        	ldx	$14                     ; 0x2014 <dispatchAction+0x3b8>
    3cdc: 86 28        	stx	$28                     ; 0x2028 <dispatchAction+0x3cc>
    3cde: a6 15        	ldx	$15                     ; 0x2015 <dispatchAction+0x3b9>
    3ce0: 86 29        	stx	$29                     ; 0x2029 <dispatchAction+0x3cd>
    3ce2: a6 16        	ldx	$16                     ; 0x2016 <dispatchAction+0x3ba>
    3ce4: 86 2a        	stx	$2a                     ; 0x202a <dispatchAction+0x3ce>
    3ce6: a6 17        	ldx	$17                     ; 0x2017 <dispatchAction+0x3bb>
    3ce8: 86 2b        	stx	$2b                     ; 0x202b <dispatchAction+0x3cf>
    3cea: a6 18        	ldx	$18                     ; 0x2018 <dispatchAction+0x3bc>
    3cec: 86 2c        	stx	$2c                     ; 0x202c <dispatchAction+0x3d0>
    3cee: a6 19        	ldx	$19                     ; 0x2019 <dispatchAction+0x3bd>
    3cf0: 86 2d        	stx	$2d                     ; 0x202d <dispatchAction+0x3d1>
    3cf2: a6 12        	ldx	$12                     ; 0x2012 <dispatchAction+0x3b6>
    3cf4: 86 24        	stx	$24                     ; 0x2024 <dispatchAction+0x3c8>
    3cf6: a6 13        	ldx	$13                     ; 0x2013 <dispatchAction+0x3b7>
    3cf8: 86 25        	stx	$25                     ; 0x2025 <dispatchAction+0x3c9>
    3cfa: a0 3f        	ldy	#$3f
    3cfc: b1 12        	lda	($12),y                 ; 0x2012 <dispatchAction+0x3b6>
    3cfe: aa           	tax
    3cff: c8           	iny
    3d00: b1 12        	lda	($12),y                 ; 0x2012 <dispatchAction+0x3b6>
    3d02: 86 2e        	stx	$2e                     ; 0x202e <dispatchAction+0x3d2>
    3d04: 86 13        	stx	$13                     ; 0x2013 <dispatchAction+0x3b7>
    3d06: c5 13        	cmp	$13                     ; 0x2013 <dispatchAction+0x3b7>
    3d08: 64 13        	stz	$13                     ; 0x2013 <dispatchAction+0x3b7>
    3d0a: 48           	pha
    3d0b: a9 00        	lda	#$0
    3d0d: a0 07        	ldy	#$7
    3d0f: 91 10        	sta	($10),y                 ; 0x2010 <dispatchAction+0x3b4>
    3d11: 68           	pla
    3d12: b0 41        	bcs	$3d55 <updateDial+0xc0>
    3d14: 85 16        	sta	$16                     ; 0x2016 <dispatchAction+0x3ba>
    3d16: a0 41        	ldy	#$41
    3d18: b1 24        	lda	($24),y                 ; 0x2024 <dispatchAction+0x3c8>
    3d1a: 85 13        	sta	$13                     ; 0x2013 <dispatchAction+0x3b7>
    3d1c: e4 13        	cpx	$13                     ; 0x2013 <dispatchAction+0x3b7>
    3d1e: a2 07        	ldx	#$7
    3d20: 48           	pha
    3d21: 8a           	txa
    3d22: a0 07        	ldy	#$7
    3d24: 91 10        	sta	($10),y                 ; 0x2010 <dispatchAction+0x3b4>
    3d26: 68           	pla
    3d27: b0 2c        	bcs	$3d55 <updateDial+0xc0>
    3d29: 38           	sec
    3d2a: e5 16        	sbc	$16                     ; 0x2016 <dispatchAction+0x3ba>
    3d2c: 85 12        	sta	$12                     ; 0x2012 <dispatchAction+0x3b6>
    3d2e: a9 00        	lda	#$0
    3d30: e9 00        	sbc	#$0
    3d32: e6 12        	inc	$12                     ; 0x2012 <dispatchAction+0x3b6>
    3d34: d0 01        	bne	$3d37 <updateDial+0xa2>
    3d36: 1a           	inc
    3d37: 4a           	lsr
    3d38: 66 12        	ror	$12                     ; 0x2012 <dispatchAction+0x3b6>
    3d3a: 4a           	lsr
    3d3b: 66 12        	ror	$12                     ; 0x2012 <dispatchAction+0x3b6>
    3d3d: 4a           	lsr
    3d3e: 66 12        	ror	$12                     ; 0x2012 <dispatchAction+0x3b6>
    3d40: a5 2e        	lda	$2e                     ; 0x202e <dispatchAction+0x3d2>
    3d42: 38           	sec
    3d43: e5 16        	sbc	$16                     ; 0x2016 <dispatchAction+0x3ba>
    3d45: a8           	tay
    3d46: a9 00        	lda	#$0
    3d48: e9 00        	sbc	#$0
    3d4a: 64 13        	stz	$13                     ; 0x2013 <dispatchAction+0x3b7>
    3d4c: aa           	tax
    3d4d: 98           	tya
    3d4e: 20 72 67     	jsr	$6772 <__udivhi3>
    3d51: a0 07        	ldy	#$7
    3d53: 91 10        	sta	($10),y                 ; 0x2010 <dispatchAction+0x3b4>
    3d55: a6 2e        	ldx	$2e                     ; 0x202e <dispatchAction+0x3d2>
    3d57: a0 3d        	ldy	#$3d
    3d59: b1 24        	lda	($24),y                 ; 0x2024 <dispatchAction+0x3c8>
    3d5b: 85 12        	sta	$12                     ; 0x2012 <dispatchAction+0x3b6>
    3d5d: 30 0c        	bmi	$3d6b <updateDial+0xd6>
    3d5f: a0 3b        	ldy	#$3b
    3d61: 8a           	txa
    3d62: 31 24        	and	($24),y                 ; 0x2024 <dispatchAction+0x3c8>
    3d64: a2 00        	ldx	#$0
    3d66: 20 bd 66     	jsr	$66bd <__lshrhi3>
    3d69: 80 11        	bra	$3d7c <updateDial+0xe7>
    3d6b: a9 00        	lda	#$0
    3d6d: 38           	sec
    3d6e: e5 12        	sbc	$12                     ; 0x2012 <dispatchAction+0x3b6>
    3d70: 85 12        	sta	$12                     ; 0x2012 <dispatchAction+0x3b6>
    3d72: a0 3b        	ldy	#$3b
    3d74: 8a           	txa
    3d75: 31 24        	and	($24),y                 ; 0x2024 <dispatchAction+0x3c8>
    3d77: a2 00        	ldx	#$0
    3d79: 20 aa 66     	jsr	$66aa <__ashlhi3>
    3d7c: 29 0f        	and	#$f
    3d7e: a0 26        	ldy	#$26
    3d80: 85 14        	sta	$14                     ; 0x2014 <dispatchAction+0x3b8>
    3d82: 91 24        	sta	($24),y                 ; 0x2024 <dispatchAction+0x3c8>
    3d84: a0 14        	ldy	#$14
    3d86: 18           	clc
    3d87: a5 24        	lda	$24                     ; 0x2024 <dispatchAction+0x3c8>
    3d89: 69 14        	adc	#$14
    3d8b: 85 16        	sta	$16                     ; 0x2016 <dispatchAction+0x3ba>
    3d8d: a5 25        	lda	$25                     ; 0x2025 <dispatchAction+0x3c9>
    3d8f: 69 00        	adc	#$0
    3d91: 85 17        	sta	$17                     ; 0x2017 <dispatchAction+0x3bb>
    3d93: b1 24        	lda	($24),y                 ; 0x2024 <dispatchAction+0x3c8>
    3d95: a0 01        	ldy	#$1
    3d97: 0a           	asl
    3d98: 85 12        	sta	$12                     ; 0x2012 <dispatchAction+0x3b6>
    3d9a: b1 16        	lda	($16),y                 ; 0x2016 <dispatchAction+0x3ba>
    3d9c: 2a           	rol
    3d9d: 85 13        	sta	$13                     ; 0x2013 <dispatchAction+0x3b7>
    3d9f: 18           	clc
    3da0: a5 24        	lda	$24                     ; 0x2024 <dispatchAction+0x3c8>
    3da2: 69 16        	adc	#$16
    3da4: 85 16        	sta	$16                     ; 0x2016 <dispatchAction+0x3ba>
    3da6: a5 25        	lda	$25                     ; 0x2025 <dispatchAction+0x3c9>
    3da8: 69 00        	adc	#$0
    3daa: a0 16        	ldy	#$16
    3dac: 85 17        	sta	$17                     ; 0x2017 <dispatchAction+0x3bb>
    3dae: b1 24        	lda	($24),y                 ; 0x2024 <dispatchAction+0x3c8>
    3db0: aa           	tax
    3db1: a0 01        	ldy	#$1
    3db3: b1 16        	lda	($16),y                 ; 0x2016 <dispatchAction+0x3ba>
    3db5: 85 15        	sta	$15                     ; 0x2015 <dispatchAction+0x3b9>
    3db7: 8a           	txa
    3db8: 0a           	asl
    3db9: 26 15        	rol	$15                     ; 0x2015 <dispatchAction+0x3b9>
    3dbb: 0a           	asl
    3dbc: 26 15        	rol	$15                     ; 0x2015 <dispatchAction+0x3b9>
    3dbe: 0a           	asl
    3dbf: 85 16        	sta	$16                     ; 0x2016 <dispatchAction+0x3ba>
    3dc1: 26 15        	rol	$15                     ; 0x2015 <dispatchAction+0x3b9>
    3dc3: 0a           	asl
    3dc4: a6 15        	ldx	$15                     ; 0x2015 <dispatchAction+0x3b9>
    3dc6: 86 17        	stx	$17                     ; 0x2017 <dispatchAction+0x3bb>
    3dc8: 26 17        	rol	$17                     ; 0x2017 <dispatchAction+0x3bb>
    3dca: 0a           	asl
    3dcb: 26 17        	rol	$17                     ; 0x2017 <dispatchAction+0x3bb>
    3dcd: 18           	clc
    3dce: 65 16        	adc	$16                     ; 0x2016 <dispatchAction+0x3ba>
    3dd0: a8           	tay
    3dd1: a5 17        	lda	$17                     ; 0x2017 <dispatchAction+0x3bb>
    3dd3: 65 15        	adc	$15                     ; 0x2015 <dispatchAction+0x3b9>
    3dd5: aa           	tax
    3dd6: 18           	clc
    3dd7: 98           	tya
    3dd8: 65 12        	adc	$12                     ; 0x2012 <dispatchAction+0x3b6>
    3dda: 85 12        	sta	$12                     ; 0x2012 <dispatchAction+0x3b6>
    3ddc: 8a           	txa
    3ddd: 65 13        	adc	$13                     ; 0x2013 <dispatchAction+0x3b7>
    3ddf: 64 15        	stz	$15                     ; 0x2015 <dispatchAction+0x3b9>
    3de1: 85 13        	sta	$13                     ; 0x2013 <dispatchAction+0x3b7>
    3de3: 10 06        	bpl	$3deb <updateDial+0x156>
    3de5: a2 ff        	ldx	#$ff
    3de7: 86 16        	stx	$16                     ; 0x2016 <dispatchAction+0x3ba>
    3de9: 80 02        	bra	$3ded <updateDial+0x158>
    3deb: 64 16        	stz	$16                     ; 0x2016 <dispatchAction+0x3ba>
    3ded: a5 2a        	lda	$2a                     ; 0x202a <dispatchAction+0x3ce>
    3def: 18           	clc
    3df0: 65 12        	adc	$12                     ; 0x2012 <dispatchAction+0x3b6>
    3df2: a8           	tay
    3df3: a5 2b        	lda	$2b                     ; 0x202b <dispatchAction+0x3cf>
    3df5: 65 13        	adc	$13                     ; 0x2013 <dispatchAction+0x3b7>
    3df7: 85 17        	sta	$17                     ; 0x2017 <dispatchAction+0x3bb>
    3df9: a5 2c        	lda	$2c                     ; 0x202c <dispatchAction+0x3d0>
    3dfb: 65 16        	adc	$16                     ; 0x2016 <dispatchAction+0x3ba>
    3dfd: 85 12        	sta	$12                     ; 0x2012 <dispatchAction+0x3b6>
    3dff: a5 2d        	lda	$2d                     ; 0x202d <dispatchAction+0x3d1>
    3e01: 65 16        	adc	$16                     ; 0x2016 <dispatchAction+0x3ba>
    3e03: 85 13        	sta	$13                     ; 0x2013 <dispatchAction+0x3b7>
    3e05: a6 17        	ldx	$17                     ; 0x2017 <dispatchAction+0x3bb>
    3e07: 98           	tya
    3e08: 20 ea 0a     	jsr	$aea <FAR_POKEW>
    3e0b: a0 3c        	ldy	#$3c
    3e0d: b1 24        	lda	($24),y                 ; 0x2024 <dispatchAction+0x3c8>
    3e0f: d0 03        	bne	$3e14 <updateDial+0x17f>
    3e11: 4c c6 3e     	jmp	$3ec6 <updateDial+0x231>
    3e14: aa           	tax
    3e15: a0 3e        	ldy	#$3e
    3e17: b1 24        	lda	($24),y                 ; 0x2024 <dispatchAction+0x3c8>
    3e19: 85 12        	sta	$12                     ; 0x2012 <dispatchAction+0x3b6>
    3e1b: 30 0c        	bmi	$3e29 <updateDial+0x194>
    3e1d: a0 3f        	ldy	#$3f
    3e1f: 8a           	txa
    3e20: 31 24        	and	($24),y                 ; 0x2024 <dispatchAction+0x3c8>
    3e22: a2 00        	ldx	#$0
    3e24: 20 bd 66     	jsr	$66bd <__lshrhi3>
    3e27: 80 11        	bra	$3e3a <updateDial+0x1a5>
    3e29: a9 00        	lda	#$0
    3e2b: 38           	sec
    3e2c: e5 12        	sbc	$12                     ; 0x2012 <dispatchAction+0x3b6>
    3e2e: 85 12        	sta	$12                     ; 0x2012 <dispatchAction+0x3b6>
    3e30: a0 3f        	ldy	#$3f
    3e32: 8a           	txa
    3e33: 31 24        	and	($24),y                 ; 0x2024 <dispatchAction+0x3c8>
    3e35: a2 00        	ldx	#$0
    3e37: 20 aa 66     	jsr	$66aa <__ashlhi3>
    3e3a: 29 0f        	and	#$f
    3e3c: a0 3a        	ldy	#$3a
    3e3e: 85 14        	sta	$14                     ; 0x2014 <dispatchAction+0x3b8>
    3e40: 91 24        	sta	($24),y                 ; 0x2024 <dispatchAction+0x3c8>
    3e42: a0 28        	ldy	#$28
    3e44: 18           	clc
    3e45: a5 24        	lda	$24                     ; 0x2024 <dispatchAction+0x3c8>
    3e47: 69 28        	adc	#$28
    3e49: 85 16        	sta	$16                     ; 0x2016 <dispatchAction+0x3ba>
    3e4b: a5 25        	lda	$25                     ; 0x2025 <dispatchAction+0x3c9>
    3e4d: 69 00        	adc	#$0
    3e4f: 85 17        	sta	$17                     ; 0x2017 <dispatchAction+0x3bb>
    3e51: b1 24        	lda	($24),y                 ; 0x2024 <dispatchAction+0x3c8>
    3e53: a0 01        	ldy	#$1
    3e55: 0a           	asl
    3e56: 85 12        	sta	$12                     ; 0x2012 <dispatchAction+0x3b6>
    3e58: b1 16        	lda	($16),y                 ; 0x2016 <dispatchAction+0x3ba>
    3e5a: 2a           	rol
    3e5b: 85 13        	sta	$13                     ; 0x2013 <dispatchAction+0x3b7>
    3e5d: 18           	clc
    3e5e: a5 24        	lda	$24                     ; 0x2024 <dispatchAction+0x3c8>
    3e60: 69 2a        	adc	#$2a
    3e62: 85 16        	sta	$16                     ; 0x2016 <dispatchAction+0x3ba>
    3e64: a5 25        	lda	$25                     ; 0x2025 <dispatchAction+0x3c9>
    3e66: 69 00        	adc	#$0
    3e68: a0 2a        	ldy	#$2a
    3e6a: 85 17        	sta	$17                     ; 0x2017 <dispatchAction+0x3bb>
    3e6c: b1 24        	lda	($24),y                 ; 0x2024 <dispatchAction+0x3c8>
    3e6e: aa           	tax
    3e6f: a0 01        	ldy	#$1
    3e71: b1 16        	lda	($16),y                 ; 0x2016 <dispatchAction+0x3ba>
    3e73: 85 15        	sta	$15                     ; 0x2015 <dispatchAction+0x3b9>
    3e75: 8a           	txa
    3e76: 0a           	asl
    3e77: 26 15        	rol	$15                     ; 0x2015 <dispatchAction+0x3b9>
    3e79: 0a           	asl
    3e7a: 26 15        	rol	$15                     ; 0x2015 <dispatchAction+0x3b9>
    3e7c: 0a           	asl
    3e7d: 85 16        	sta	$16                     ; 0x2016 <dispatchAction+0x3ba>
    3e7f: 26 15        	rol	$15                     ; 0x2015 <dispatchAction+0x3b9>
    3e81: 0a           	asl
    3e82: a6 15        	ldx	$15                     ; 0x2015 <dispatchAction+0x3b9>
    3e84: 86 17        	stx	$17                     ; 0x2017 <dispatchAction+0x3bb>
    3e86: 26 17        	rol	$17                     ; 0x2017 <dispatchAction+0x3bb>
    3e88: 0a           	asl
    3e89: 26 17        	rol	$17                     ; 0x2017 <dispatchAction+0x3bb>
    3e8b: 18           	clc
    3e8c: 65 16        	adc	$16                     ; 0x2016 <dispatchAction+0x3ba>
    3e8e: a8           	tay
    3e8f: a5 17        	lda	$17                     ; 0x2017 <dispatchAction+0x3bb>
    3e91: 65 15        	adc	$15                     ; 0x2015 <dispatchAction+0x3b9>
    3e93: aa           	tax
    3e94: 18           	clc
    3e95: 98           	tya
    3e96: 65 12        	adc	$12                     ; 0x2012 <dispatchAction+0x3b6>
    3e98: 85 12        	sta	$12                     ; 0x2012 <dispatchAction+0x3b6>
    3e9a: 8a           	txa
    3e9b: 65 13        	adc	$13                     ; 0x2013 <dispatchAction+0x3b7>
    3e9d: 64 15        	stz	$15                     ; 0x2015 <dispatchAction+0x3b9>
    3e9f: 85 13        	sta	$13                     ; 0x2013 <dispatchAction+0x3b7>
    3ea1: 10 06        	bpl	$3ea9 <updateDial+0x214>
    3ea3: a2 ff        	ldx	#$ff
    3ea5: 86 16        	stx	$16                     ; 0x2016 <dispatchAction+0x3ba>
    3ea7: 80 02        	bra	$3eab <updateDial+0x216>
    3ea9: 64 16        	stz	$16                     ; 0x2016 <dispatchAction+0x3ba>
    3eab: a5 2a        	lda	$2a                     ; 0x202a <dispatchAction+0x3ce>
    3ead: 18           	clc
    3eae: 65 12        	adc	$12                     ; 0x2012 <dispatchAction+0x3b6>
    3eb0: a8           	tay
    3eb1: a5 2b        	lda	$2b                     ; 0x202b <dispatchAction+0x3cf>
    3eb3: 65 13        	adc	$13                     ; 0x2013 <dispatchAction+0x3b7>
    3eb5: aa           	tax
    3eb6: a5 2c        	lda	$2c                     ; 0x202c <dispatchAction+0x3d0>
    3eb8: 65 16        	adc	$16                     ; 0x2016 <dispatchAction+0x3ba>
    3eba: 85 12        	sta	$12                     ; 0x2012 <dispatchAction+0x3b6>
    3ebc: a5 2d        	lda	$2d                     ; 0x202d <dispatchAction+0x3d1>
    3ebe: 65 16        	adc	$16                     ; 0x2016 <dispatchAction+0x3ba>
    3ec0: 85 13        	sta	$13                     ; 0x2013 <dispatchAction+0x3b7>
    3ec2: 98           	tya
    3ec3: 20 ea 0a     	jsr	$aea <FAR_POKEW>
    3ec6: a0 0d        	ldy	#$d
    3ec8: b1 24        	lda	($24),y                 ; 0x2024 <dispatchAction+0x3c8>
    3eca: 85 2a        	sta	$2a                     ; 0x202a <dispatchAction+0x3ce>
    3ecc: 18           	clc
    3ecd: a0 07        	ldy	#$7
    3ecf: b1 10        	lda	($10),y                 ; 0x2010 <dispatchAction+0x3b4>
    3ed1: 69 20        	adc	#$20
    3ed3: a8           	tay
    3ed4: a9 00        	lda	#$0
    3ed6: 69 00        	adc	#$0
    3ed8: aa           	tax
    3ed9: a9 00        	lda	#$0
    3edb: 69 00        	adc	#$0
    3edd: 85 12        	sta	$12                     ; 0x2012 <dispatchAction+0x3b6>
    3edf: a9 00        	lda	#$0
    3ee1: 69 00        	adc	#$0
    3ee3: 85 13        	sta	$13                     ; 0x2013 <dispatchAction+0x3b7>
    3ee5: a5 2a        	lda	$2a                     ; 0x202a <dispatchAction+0x3ce>
    3ee7: 85 14        	sta	$14                     ; 0x2014 <dispatchAction+0x3b8>
    3ee9: 64 15        	stz	$15                     ; 0x2015 <dispatchAction+0x3b9>
    3eeb: 64 16        	stz	$16                     ; 0x2016 <dispatchAction+0x3ba>
    3eed: 64 17        	stz	$17                     ; 0x2017 <dispatchAction+0x3bb>
    3eef: 98           	tya
    3ef0: 20 02 67     	jsr	$6702 <__mulsi3>
    3ef3: a4 2a        	ldy	$2a                     ; 0x202a <dispatchAction+0x3ce>
    3ef5: 84 14        	sty	$14                     ; 0x2014 <dispatchAction+0x3b8>
    3ef7: 64 15        	stz	$15                     ; 0x2015 <dispatchAction+0x3b9>
    3ef9: 64 16        	stz	$16                     ; 0x2016 <dispatchAction+0x3ba>
    3efb: 64 17        	stz	$17                     ; 0x2017 <dispatchAction+0x3bb>
    3efd: 20 02 67     	jsr	$6702 <__mulsi3>
    3f00: 85 14        	sta	$14                     ; 0x2014 <dispatchAction+0x3b8>
    3f02: 86 15        	stx	$15                     ; 0x2015 <dispatchAction+0x3b9>
    3f04: a5 26        	lda	$26                     ; 0x2026 <dispatchAction+0x3ca>
    3f06: 18           	clc
    3f07: 65 14        	adc	$14                     ; 0x2014 <dispatchAction+0x3b8>
    3f09: 85 14        	sta	$14                     ; 0x2014 <dispatchAction+0x3b8>
    3f0b: a5 27        	lda	$27                     ; 0x2027 <dispatchAction+0x3cb>
    3f0d: 65 15        	adc	$15                     ; 0x2015 <dispatchAction+0x3b9>
    3f0f: 85 15        	sta	$15                     ; 0x2015 <dispatchAction+0x3b9>
    3f11: a5 28        	lda	$28                     ; 0x2028 <dispatchAction+0x3cc>
    3f13: 65 12        	adc	$12                     ; 0x2012 <dispatchAction+0x3b6>
    3f15: 85 16        	sta	$16                     ; 0x2016 <dispatchAction+0x3ba>
    3f17: a5 29        	lda	$29                     ; 0x2029 <dispatchAction+0x3cd>
    3f19: 65 13        	adc	$13                     ; 0x2013 <dispatchAction+0x3b7>
    3f1b: 85 17        	sta	$17                     ; 0x2017 <dispatchAction+0x3bb>
    3f1d: a6 24        	ldx	$24                     ; 0x2024 <dispatchAction+0x3c8>
    3f1f: 18           	clc
    3f20: a5 24        	lda	$24                     ; 0x2024 <dispatchAction+0x3c8>
    3f22: 86 27        	stx	$27                     ; 0x2027 <dispatchAction+0x3cb>
    3f24: 69 08        	adc	#$8
    3f26: 85 12        	sta	$12                     ; 0x2012 <dispatchAction+0x3b6>
    3f28: a5 25        	lda	$25                     ; 0x2025 <dispatchAction+0x3c9>
    3f2a: 69 00        	adc	#$0
    3f2c: a0 08        	ldy	#$8
    3f2e: 85 13        	sta	$13                     ; 0x2013 <dispatchAction+0x3b7>
    3f30: a6 14        	ldx	$14                     ; 0x2014 <dispatchAction+0x3b8>
    3f32: a5 14        	lda	$14                     ; 0x2014 <dispatchAction+0x3b8>
    3f34: 91 24        	sta	($24),y                 ; 0x2024 <dispatchAction+0x3c8>
    3f36: a0 01        	ldy	#$1
    3f38: a5 15        	lda	$15                     ; 0x2015 <dispatchAction+0x3b9>
    3f3a: 91 12        	sta	($12),y                 ; 0x2012 <dispatchAction+0x3b6>
    3f3c: c8           	iny
    3f3d: a5 16        	lda	$16                     ; 0x2016 <dispatchAction+0x3ba>
    3f3f: 91 12        	sta	($12),y                 ; 0x2012 <dispatchAction+0x3b6>
    3f41: c8           	iny
    3f42: a5 17        	lda	$17                     ; 0x2017 <dispatchAction+0x3bb>
    3f44: 85 14        	sta	$14                     ; 0x2014 <dispatchAction+0x3b8>
    3f46: a5 17        	lda	$17                     ; 0x2017 <dispatchAction+0x3bb>
    3f48: 91 12        	sta	($12),y                 ; 0x2012 <dispatchAction+0x3b6>
    3f4a: b2 24        	lda	($24)                   ; 0x2024 <dispatchAction+0x3c8>
    3f4c: a4 15        	ldy	$15                     ; 0x2015 <dispatchAction+0x3b9>
    3f4e: 84 12        	sty	$12                     ; 0x2012 <dispatchAction+0x3b6>
    3f50: a4 16        	ldy	$16                     ; 0x2016 <dispatchAction+0x3ba>
    3f52: 84 13        	sty	$13                     ; 0x2013 <dispatchAction+0x3b7>
    3f54: a4 2a        	ldy	$2a                     ; 0x202a <dispatchAction+0x3ce>
    3f56: 84 15        	sty	$15                     ; 0x2015 <dispatchAction+0x3b9>
    3f58: 64 16        	stz	$16                     ; 0x2016 <dispatchAction+0x3ba>
    3f5a: 64 17        	stz	$17                     ; 0x2017 <dispatchAction+0x3bb>
    3f5c: 20 24 39     	jsr	$3924 <spriteDefine>
    3f5f: b2 24        	lda	($24)                   ; 0x2024 <dispatchAction+0x3c8>
    3f61: 85 16        	sta	$16                     ; 0x2016 <dispatchAction+0x3ba>
    3f63: a6 24        	ldx	$24                     ; 0x2024 <dispatchAction+0x3c8>
    3f65: 86 12        	stx	$12                     ; 0x2012 <dispatchAction+0x3b6>
    3f67: a6 25        	ldx	$25                     ; 0x2025 <dispatchAction+0x3c9>
    3f69: 86 13        	stx	$13                     ; 0x2013 <dispatchAction+0x3b7>
    3f6b: 18           	clc
    3f6c: a5 27        	lda	$27                     ; 0x2027 <dispatchAction+0x3cb>
    3f6e: 69 03        	adc	#$3
    3f70: 85 14        	sta	$14                     ; 0x2014 <dispatchAction+0x3b8>
    3f72: a5 25        	lda	$25                     ; 0x2025 <dispatchAction+0x3c9>
    3f74: 69 00        	adc	#$0
    3f76: 85 15        	sta	$15                     ; 0x2015 <dispatchAction+0x3b9>
    3f78: e6 12        	inc	$12                     ; 0x2012 <dispatchAction+0x3b6>
    3f7a: d0 02        	bne	$3f7e <updateDial+0x2e9>
    3f7c: e6 13        	inc	$13                     ; 0x2013 <dispatchAction+0x3b7>
    3f7e: a0 01        	ldy	#$1
    3f80: b1 24        	lda	($24),y                 ; 0x2024 <dispatchAction+0x3c8>
    3f82: aa           	tax
    3f83: b1 12        	lda	($12),y                 ; 0x2012 <dispatchAction+0x3b6>
    3f85: 85 12        	sta	$12                     ; 0x2012 <dispatchAction+0x3b6>
    3f87: a0 03        	ldy	#$3
    3f89: b1 24        	lda	($24),y                 ; 0x2024 <dispatchAction+0x3c8>
    3f8b: 85 13        	sta	$13                     ; 0x2013 <dispatchAction+0x3b7>
    3f8d: a0 01        	ldy	#$1
    3f8f: b1 14        	lda	($14),y                 ; 0x2014 <dispatchAction+0x3b8>
    3f91: 85 14        	sta	$14                     ; 0x2014 <dispatchAction+0x3b8>
    3f93: a5 16        	lda	$16                     ; 0x2016 <dispatchAction+0x3ba>
    3f95: 20 b5 39     	jsr	$39b5 <spriteSetPosition>
    3f98: b2 24        	lda	($24)                   ; 0x2024 <dispatchAction+0x3c8>
    3f9a: a2 01        	ldx	#$1
    3f9c: 20 fc 39     	jsr	$39fc <spriteSetVisible>
    3f9f: a0 00        	ldy	#$0
    3fa1: b1 10        	lda	($10),y                 ; 0x2010 <dispatchAction+0x3b4>
    3fa3: 85 2e        	sta	$2e                     ; 0x202e <dispatchAction+0x3d2>
    3fa5: c8           	iny
    3fa6: b1 10        	lda	($10),y                 ; 0x2010 <dispatchAction+0x3b4>
    3fa8: 85 2d        	sta	$2d                     ; 0x202d <dispatchAction+0x3d1>
    3faa: c8           	iny
    3fab: b1 10        	lda	($10),y                 ; 0x2010 <dispatchAction+0x3b4>
    3fad: 85 2c        	sta	$2c                     ; 0x202c <dispatchAction+0x3d0>
    3faf: c8           	iny
    3fb0: b1 10        	lda	($10),y                 ; 0x2010 <dispatchAction+0x3b4>
    3fb2: 85 2b        	sta	$2b                     ; 0x202b <dispatchAction+0x3cf>
    3fb4: c8           	iny
    3fb5: b1 10        	lda	($10),y                 ; 0x2010 <dispatchAction+0x3b4>
    3fb7: 85 2a        	sta	$2a                     ; 0x202a <dispatchAction+0x3ce>
    3fb9: c8           	iny
    3fba: b1 10        	lda	($10),y                 ; 0x2010 <dispatchAction+0x3b4>
    3fbc: 85 29        	sta	$29                     ; 0x2029 <dispatchAction+0x3cd>
    3fbe: c8           	iny
    3fbf: b1 10        	lda	($10),y                 ; 0x2010 <dispatchAction+0x3b4>
    3fc1: 85 28        	sta	$28                     ; 0x2028 <dispatchAction+0x3cc>
    3fc3: fa           	plx
    3fc4: 86 27        	stx	$27                     ; 0x2027 <dispatchAction+0x3cb>
    3fc6: fa           	plx
    3fc7: 86 26        	stx	$26                     ; 0x2026 <dispatchAction+0x3ca>
    3fc9: fa           	plx
    3fca: 86 25        	stx	$25                     ; 0x2025 <dispatchAction+0x3c9>
    3fcc: fa           	plx
    3fcd: 86 24        	stx	$24                     ; 0x2024 <dispatchAction+0x3c8>
    3fcf: 18           	clc
    3fd0: a5 10        	lda	$10                     ; 0x2010 <dispatchAction+0x3b4>
    3fd2: 69 08        	adc	#$8
    3fd4: 85 10        	sta	$10                     ; 0x2010 <dispatchAction+0x3b4>
    3fd6: a5 11        	lda	$11                     ; 0x2011 <dispatchAction+0x3b5>
    3fd8: 69 00        	adc	#$0
    3fda: 85 11        	sta	$11                     ; 0x2011 <dispatchAction+0x3b5>
    3fdc: 60           	rts

00003fdd <setDial>:
    3fdd: 48           	pha
    3fde: 18           	clc
    3fdf: a5 10        	lda	$10                     ; 0x2010 <dispatchAction+0x3b4>
    3fe1: 69 fa        	adc	#$fa
    3fe3: 85 10        	sta	$10                     ; 0x2010 <dispatchAction+0x3b4>
    3fe5: a5 11        	lda	$11                     ; 0x2011 <dispatchAction+0x3b5>
    3fe7: 69 ff        	adc	#$ff
    3fe9: 85 11        	sta	$11                     ; 0x2011 <dispatchAction+0x3b5>
    3feb: 68           	pla
    3fec: a4 24        	ldy	$24                     ; 0x2024 <dispatchAction+0x3c8>
    3fee: 5a           	phy
    3fef: a4 25        	ldy	$25                     ; 0x2025 <dispatchAction+0x3c9>
    3ff1: 5a           	phy
    3ff2: a4 26        	ldy	$26                     ; 0x2026 <dispatchAction+0x3ca>
    3ff4: 5a           	phy
    3ff5: a4 27        	ldy	$27                     ; 0x2027 <dispatchAction+0x3cb>
    3ff7: 5a           	phy
    3ff8: 48           	pha
    3ff9: a5 28        	lda	$28                     ; 0x2028 <dispatchAction+0x3cc>
    3ffb: a0 05        	ldy	#$5
    3ffd: 91 10        	sta	($10),y                 ; 0x2010 <dispatchAction+0x3b4>
    3fff: a5 29        	lda	$29                     ; 0x2029 <dispatchAction+0x3cd>
    4001: 88           	dey
    4002: 91 10        	sta	($10),y                 ; 0x2010 <dispatchAction+0x3b4>
    4004: a5 2a        	lda	$2a                     ; 0x202a <dispatchAction+0x3ce>
    4006: 88           	dey
    4007: 91 10        	sta	($10),y                 ; 0x2010 <dispatchAction+0x3b4>
    4009: a5 2b        	lda	$2b                     ; 0x202b <dispatchAction+0x3cf>
    400b: 88           	dey
    400c: 91 10        	sta	($10),y                 ; 0x2010 <dispatchAction+0x3b4>
    400e: a5 2c        	lda	$2c                     ; 0x202c <dispatchAction+0x3d0>
    4010: 88           	dey
    4011: 91 10        	sta	($10),y                 ; 0x2010 <dispatchAction+0x3b4>
    4013: a5 2d        	lda	$2d                     ; 0x202d <dispatchAction+0x3d1>
    4015: 88           	dey
    4016: 91 10        	sta	($10),y                 ; 0x2010 <dispatchAction+0x3b4>
    4018: 68           	pla
    4019: 86 22        	stx	$22                     ; 0x2022 <dispatchAction+0x3c6>
    401b: a6 1d        	ldx	$1d                     ; 0x201d <dispatchAction+0x3c1>
    401d: a0 3f        	ldy	#$3f
    401f: 91 12        	sta	($12),y                 ; 0x2012 <dispatchAction+0x3b6>
    4021: c8           	iny
    4022: a5 22        	lda	$22                     ; 0x2022 <dispatchAction+0x3c6>
    4024: 91 12        	sta	($12),y                 ; 0x2012 <dispatchAction+0x3b6>
    4026: c8           	iny
    4027: a5 14        	lda	$14                     ; 0x2014 <dispatchAction+0x3b8>
    4029: 91 12        	sta	($12),y                 ; 0x2012 <dispatchAction+0x3b6>
    402b: c8           	iny
    402c: a5 15        	lda	$15                     ; 0x2015 <dispatchAction+0x3b9>
    402e: 91 12        	sta	($12),y                 ; 0x2012 <dispatchAction+0x3b6>
    4030: 18           	clc
    4031: a5 10        	lda	$10                     ; 0x2010 <dispatchAction+0x3b4>
    4033: 69 06        	adc	#$6
    4035: 85 26        	sta	$26                     ; 0x2026 <dispatchAction+0x3ca>
    4037: a5 11        	lda	$11                     ; 0x2011 <dispatchAction+0x3b5>
    4039: 69 00        	adc	#$0
    403b: 85 27        	sta	$27                     ; 0x2027 <dispatchAction+0x3cb>
    403d: 18           	clc
    403e: a5 10        	lda	$10                     ; 0x2010 <dispatchAction+0x3b4>
    4040: 69 07        	adc	#$7
    4042: 85 2c        	sta	$2c                     ; 0x202c <dispatchAction+0x3d0>
    4044: a5 11        	lda	$11                     ; 0x2011 <dispatchAction+0x3b5>
    4046: 69 00        	adc	#$0
    4048: 85 2d        	sta	$2d                     ; 0x202d <dispatchAction+0x3d1>
    404a: 18           	clc
    404b: a5 10        	lda	$10                     ; 0x2010 <dispatchAction+0x3b4>
    404d: 69 08        	adc	#$8
    404f: 85 14        	sta	$14                     ; 0x2014 <dispatchAction+0x3b8>
    4051: a5 11        	lda	$11                     ; 0x2011 <dispatchAction+0x3b5>
    4053: 69 00        	adc	#$0
    4055: 85 15        	sta	$15                     ; 0x2015 <dispatchAction+0x3b9>
    4057: 18           	clc
    4058: a5 10        	lda	$10                     ; 0x2010 <dispatchAction+0x3b4>
    405a: 69 09        	adc	#$9
    405c: 85 2a        	sta	$2a                     ; 0x202a <dispatchAction+0x3ce>
    405e: a5 11        	lda	$11                     ; 0x2011 <dispatchAction+0x3b5>
    4060: 69 00        	adc	#$0
    4062: 85 2b        	sta	$2b                     ; 0x202b <dispatchAction+0x3cf>
    4064: 18           	clc
    4065: a5 10        	lda	$10                     ; 0x2010 <dispatchAction+0x3b4>
    4067: 69 0a        	adc	#$a
    4069: 85 22        	sta	$22                     ; 0x2022 <dispatchAction+0x3c6>
    406b: a5 11        	lda	$11                     ; 0x2011 <dispatchAction+0x3b5>
    406d: 69 00        	adc	#$0
    406f: 85 23        	sta	$23                     ; 0x2023 <dispatchAction+0x3c7>
    4071: 18           	clc
    4072: a5 10        	lda	$10                     ; 0x2010 <dispatchAction+0x3b4>
    4074: 69 0b        	adc	#$b
    4076: 85 24        	sta	$24                     ; 0x2024 <dispatchAction+0x3c8>
    4078: a5 11        	lda	$11                     ; 0x2011 <dispatchAction+0x3b5>
    407a: 69 00        	adc	#$0
    407c: 85 25        	sta	$25                     ; 0x2025 <dispatchAction+0x3c9>
    407e: a0 44        	ldy	#$44
    4080: a5 17        	lda	$17                     ; 0x2017 <dispatchAction+0x3bb>
    4082: 91 12        	sta	($12),y                 ; 0x2012 <dispatchAction+0x3b6>
    4084: a0 46        	ldy	#$46
    4086: a5 19        	lda	$19                     ; 0x2019 <dispatchAction+0x3bd>
    4088: 91 12        	sta	($12),y                 ; 0x2012 <dispatchAction+0x3b6>
    408a: a5 12        	lda	$12                     ; 0x2012 <dispatchAction+0x3b6>
    408c: 18           	clc
    408d: 69 42        	adc	#$42
    408f: 85 28        	sta	$28                     ; 0x2028 <dispatchAction+0x3cc>
    4091: a5 13        	lda	$13                     ; 0x2013 <dispatchAction+0x3b7>
    4093: 69 00        	adc	#$0
    4095: 85 29        	sta	$29                     ; 0x2029 <dispatchAction+0x3cd>
    4097: a0 01        	ldy	#$1
    4099: a5 16        	lda	$16                     ; 0x2016 <dispatchAction+0x3ba>
    409b: 91 28        	sta	($28),y                 ; 0x2028 <dispatchAction+0x3cc>
    409d: a5 12        	lda	$12                     ; 0x2012 <dispatchAction+0x3b6>
    409f: 18           	clc
    40a0: 69 44        	adc	#$44
    40a2: 85 28        	sta	$28                     ; 0x2028 <dispatchAction+0x3cc>
    40a4: a5 13        	lda	$13                     ; 0x2013 <dispatchAction+0x3b7>
    40a6: 69 00        	adc	#$0
    40a8: 85 29        	sta	$29                     ; 0x2029 <dispatchAction+0x3cd>
    40aa: b2 26        	lda	($26)                   ; 0x2026 <dispatchAction+0x3ca>
    40ac: 85 17        	sta	$17                     ; 0x2017 <dispatchAction+0x3bb>
    40ae: a5 18        	lda	$18                     ; 0x2018 <dispatchAction+0x3bc>
    40b0: 91 28        	sta	($28),y                 ; 0x2028 <dispatchAction+0x3cc>
    40b2: 18           	clc
    40b3: a5 12        	lda	$12                     ; 0x2012 <dispatchAction+0x3b6>
    40b5: 69 46        	adc	#$46
    40b7: 85 26        	sta	$26                     ; 0x2026 <dispatchAction+0x3ca>
    40b9: a5 13        	lda	$13                     ; 0x2013 <dispatchAction+0x3b7>
    40bb: 69 00        	adc	#$0
    40bd: 85 27        	sta	$27                     ; 0x2027 <dispatchAction+0x3cb>
    40bf: b2 2c        	lda	($2c)                   ; 0x202c <dispatchAction+0x3d0>
    40c1: 85 18        	sta	$18                     ; 0x2018 <dispatchAction+0x3bc>
    40c3: b2 2a        	lda	($2a)                   ; 0x202a <dispatchAction+0x3ce>
    40c5: 85 1d        	sta	$1d                     ; 0x201d <dispatchAction+0x3c1>
    40c7: b2 22        	lda	($22)                   ; 0x2022 <dispatchAction+0x3c6>
    40c9: 85 16        	sta	$16                     ; 0x2016 <dispatchAction+0x3ba>
    40cb: a5 1a        	lda	$1a                     ; 0x201a <dispatchAction+0x3be>
    40cd: 91 26        	sta	($26),y                 ; 0x2026 <dispatchAction+0x3ca>
    40cf: b2 24        	lda	($24)                   ; 0x2024 <dispatchAction+0x3c8>
    40d1: 85 19        	sta	$19                     ; 0x2019 <dispatchAction+0x3bd>
    40d3: 18           	clc
    40d4: a5 10        	lda	$10                     ; 0x2010 <dispatchAction+0x3b4>
    40d6: 69 0c        	adc	#$c
    40d8: 85 22        	sta	$22                     ; 0x2022 <dispatchAction+0x3c6>
    40da: a5 11        	lda	$11                     ; 0x2011 <dispatchAction+0x3b5>
    40dc: 69 00        	adc	#$0
    40de: 85 23        	sta	$23                     ; 0x2023 <dispatchAction+0x3c7>
    40e0: a0 3b        	ldy	#$3b
    40e2: a5 1d        	lda	$1d                     ; 0x201d <dispatchAction+0x3c1>
    40e4: 91 12        	sta	($12),y                 ; 0x2012 <dispatchAction+0x3b6>
    40e6: b2 22        	lda	($22)                   ; 0x2022 <dispatchAction+0x3c6>
    40e8: 85 1a        	sta	$1a                     ; 0x201a <dispatchAction+0x3be>
    40ea: a0 3d        	ldy	#$3d
    40ec: a5 16        	lda	$16                     ; 0x2016 <dispatchAction+0x3ba>
    40ee: 91 12        	sta	($12),y                 ; 0x2012 <dispatchAction+0x3b6>
    40f0: 88           	dey
    40f1: a5 19        	lda	$19                     ; 0x2019 <dispatchAction+0x3bd>
    40f3: 91 12        	sta	($12),y                 ; 0x2012 <dispatchAction+0x3b6>
    40f5: a0 3e        	ldy	#$3e
    40f7: a5 1a        	lda	$1a                     ; 0x201a <dispatchAction+0x3be>
    40f9: 91 12        	sta	($12),y                 ; 0x2012 <dispatchAction+0x3b6>
    40fb: b2 14        	lda	($14)                   ; 0x2014 <dispatchAction+0x3b8>
    40fd: 86 14        	stx	$14                     ; 0x2014 <dispatchAction+0x3b8>
    40ff: a6 1e        	ldx	$1e                     ; 0x201e <dispatchAction+0x3c2>
    4101: 86 15        	stx	$15                     ; 0x2015 <dispatchAction+0x3b9>
    4103: a6 1f        	ldx	$1f                     ; 0x201f <dispatchAction+0x3c3>
    4105: 86 16        	stx	$16                     ; 0x2016 <dispatchAction+0x3ba>
    4107: 85 19        	sta	$19                     ; 0x2019 <dispatchAction+0x3bd>
    4109: a6 1c        	ldx	$1c                     ; 0x201c <dispatchAction+0x3c0>
    410b: a5 1b        	lda	$1b                     ; 0x201b <dispatchAction+0x3bf>
    410d: 20 95 3c     	jsr	$3c95 <updateDial>
    4110: a0 00        	ldy	#$0
    4112: b1 10        	lda	($10),y                 ; 0x2010 <dispatchAction+0x3b4>
    4114: 85 2d        	sta	$2d                     ; 0x202d <dispatchAction+0x3d1>
    4116: c8           	iny
    4117: b1 10        	lda	($10),y                 ; 0x2010 <dispatchAction+0x3b4>
    4119: 85 2c        	sta	$2c                     ; 0x202c <dispatchAction+0x3d0>
    411b: c8           	iny
    411c: b1 10        	lda	($10),y                 ; 0x2010 <dispatchAction+0x3b4>
    411e: 85 2b        	sta	$2b                     ; 0x202b <dispatchAction+0x3cf>
    4120: c8           	iny
    4121: b1 10        	lda	($10),y                 ; 0x2010 <dispatchAction+0x3b4>
    4123: 85 2a        	sta	$2a                     ; 0x202a <dispatchAction+0x3ce>
    4125: c8           	iny
    4126: b1 10        	lda	($10),y                 ; 0x2010 <dispatchAction+0x3b4>
    4128: 85 29        	sta	$29                     ; 0x2029 <dispatchAction+0x3cd>
    412a: c8           	iny
    412b: b1 10        	lda	($10),y                 ; 0x2010 <dispatchAction+0x3b4>
    412d: 85 28        	sta	$28                     ; 0x2028 <dispatchAction+0x3cc>
    412f: fa           	plx
    4130: 86 27        	stx	$27                     ; 0x2027 <dispatchAction+0x3cb>
    4132: fa           	plx
    4133: 86 26        	stx	$26                     ; 0x2026 <dispatchAction+0x3ca>
    4135: fa           	plx
    4136: 86 25        	stx	$25                     ; 0x2025 <dispatchAction+0x3c9>
    4138: fa           	plx
    4139: 86 24        	stx	$24                     ; 0x2024 <dispatchAction+0x3c8>
    413b: 18           	clc
    413c: a5 10        	lda	$10                     ; 0x2010 <dispatchAction+0x3b4>
    413e: 69 06        	adc	#$6
    4140: 85 10        	sta	$10                     ; 0x2010 <dispatchAction+0x3b4>
    4142: a5 11        	lda	$11                     ; 0x2011 <dispatchAction+0x3b5>
    4144: 69 00        	adc	#$0
    4146: 85 11        	sta	$11                     ; 0x2011 <dispatchAction+0x3b5>
    4148: 60           	rts

00004149 <updateSlider>:
    4149: 48           	pha
    414a: 18           	clc
    414b: a5 10        	lda	$10                     ; 0x2010 <dispatchAction+0x3b4>
    414d: 69 f1        	adc	#$f1
    414f: 85 10        	sta	$10                     ; 0x2010 <dispatchAction+0x3b4>
    4151: a5 11        	lda	$11                     ; 0x2011 <dispatchAction+0x3b5>
    4153: 69 ff        	adc	#$ff
    4155: 85 11        	sta	$11                     ; 0x2011 <dispatchAction+0x3b5>
    4157: 68           	pla
    4158: a4 24        	ldy	$24                     ; 0x2024 <dispatchAction+0x3c8>
    415a: 5a           	phy
    415b: a4 25        	ldy	$25                     ; 0x2025 <dispatchAction+0x3c9>
    415d: 5a           	phy
    415e: a4 26        	ldy	$26                     ; 0x2026 <dispatchAction+0x3ca>
    4160: 5a           	phy
    4161: a4 27        	ldy	$27                     ; 0x2027 <dispatchAction+0x3cb>
    4163: 5a           	phy
    4164: 48           	pha
    4165: a5 28        	lda	$28                     ; 0x2028 <dispatchAction+0x3cc>
    4167: a0 07        	ldy	#$7
    4169: 91 10        	sta	($10),y                 ; 0x2010 <dispatchAction+0x3b4>
    416b: a5 29        	lda	$29                     ; 0x2029 <dispatchAction+0x3cd>
    416d: 88           	dey
    416e: 91 10        	sta	($10),y                 ; 0x2010 <dispatchAction+0x3b4>
    4170: a5 2a        	lda	$2a                     ; 0x202a <dispatchAction+0x3ce>
    4172: 88           	dey
    4173: 91 10        	sta	($10),y                 ; 0x2010 <dispatchAction+0x3b4>
    4175: a5 2b        	lda	$2b                     ; 0x202b <dispatchAction+0x3cf>
    4177: 88           	dey
    4178: 91 10        	sta	($10),y                 ; 0x2010 <dispatchAction+0x3b4>
    417a: a5 2c        	lda	$2c                     ; 0x202c <dispatchAction+0x3d0>
    417c: 88           	dey
    417d: 91 10        	sta	($10),y                 ; 0x2010 <dispatchAction+0x3b4>
    417f: a5 2d        	lda	$2d                     ; 0x202d <dispatchAction+0x3d1>
    4181: 88           	dey
    4182: 91 10        	sta	($10),y                 ; 0x2010 <dispatchAction+0x3b4>
    4184: a5 2e        	lda	$2e                     ; 0x202e <dispatchAction+0x3d2>
    4186: 88           	dey
    4187: 91 10        	sta	($10),y                 ; 0x2010 <dispatchAction+0x3b4>
    4189: a5 2f        	lda	$2f                     ; 0x202f <dispatchAction+0x3d3>
    418b: 88           	dey
    418c: 91 10        	sta	($10),y                 ; 0x2010 <dispatchAction+0x3b4>
    418e: 68           	pla
    418f: 85 26        	sta	$26                     ; 0x2026 <dispatchAction+0x3ca>
    4191: 86 27        	stx	$27                     ; 0x2027 <dispatchAction+0x3cb>
    4193: a6 14        	ldx	$14                     ; 0x2014 <dispatchAction+0x3b8>
    4195: 86 28        	stx	$28                     ; 0x2028 <dispatchAction+0x3cc>
    4197: a6 15        	ldx	$15                     ; 0x2015 <dispatchAction+0x3b9>
    4199: 86 29        	stx	$29                     ; 0x2029 <dispatchAction+0x3cd>
    419b: a5 16        	lda	$16                     ; 0x2016 <dispatchAction+0x3ba>
    419d: a0 0a        	ldy	#$a
    419f: 91 10        	sta	($10),y                 ; 0x2010 <dispatchAction+0x3b4>
    41a1: a5 17        	lda	$17                     ; 0x2017 <dispatchAction+0x3bb>
    41a3: c8           	iny
    41a4: 91 10        	sta	($10),y                 ; 0x2010 <dispatchAction+0x3b4>
    41a6: a5 18        	lda	$18                     ; 0x2018 <dispatchAction+0x3bc>
    41a8: c8           	iny
    41a9: 91 10        	sta	($10),y                 ; 0x2010 <dispatchAction+0x3b4>
    41ab: a5 19        	lda	$19                     ; 0x2019 <dispatchAction+0x3bd>
    41ad: c8           	iny
    41ae: 91 10        	sta	($10),y                 ; 0x2010 <dispatchAction+0x3b4>
    41b0: a6 12        	ldx	$12                     ; 0x2012 <dispatchAction+0x3b6>
    41b2: 86 24        	stx	$24                     ; 0x2024 <dispatchAction+0x3c8>
    41b4: a6 13        	ldx	$13                     ; 0x2013 <dispatchAction+0x3b7>
    41b6: 86 25        	stx	$25                     ; 0x2025 <dispatchAction+0x3c9>
    41b8: a0 28        	ldy	#$28
    41ba: b1 12        	lda	($12),y                 ; 0x2012 <dispatchAction+0x3b6>
    41bc: 85 14        	sta	$14                     ; 0x2014 <dispatchAction+0x3b8>
    41be: aa           	tax
    41bf: 88           	dey
    41c0: b1 12        	lda	($12),y                 ; 0x2012 <dispatchAction+0x3b6>
    41c2: 85 15        	sta	$15                     ; 0x2015 <dispatchAction+0x3b9>
    41c4: 85 13        	sta	$13                     ; 0x2013 <dispatchAction+0x3b7>
    41c6: e4 13        	cpx	$13                     ; 0x2013 <dispatchAction+0x3b7>
    41c8: a9 00        	lda	#$0
    41ca: b0 38        	bcs	$4204 <updateSlider+0xbb>
    41cc: a0 29        	ldy	#$29
    41ce: b1 24        	lda	($24),y                 ; 0x2024 <dispatchAction+0x3c8>
    41d0: a8           	tay
    41d1: 85 13        	sta	$13                     ; 0x2013 <dispatchAction+0x3b7>
    41d3: a5 15        	lda	$15                     ; 0x2015 <dispatchAction+0x3b9>
    41d5: c5 13        	cmp	$13                     ; 0x2013 <dispatchAction+0x3b7>
    41d7: a9 07        	lda	#$7
    41d9: b0 29        	bcs	$4204 <updateSlider+0xbb>
    41db: 38           	sec
    41dc: 98           	tya
    41dd: e5 14        	sbc	$14                     ; 0x2014 <dispatchAction+0x3b8>
    41df: 85 12        	sta	$12                     ; 0x2012 <dispatchAction+0x3b6>
    41e1: a9 00        	lda	#$0
    41e3: e9 00        	sbc	#$0
    41e5: e6 12        	inc	$12                     ; 0x2012 <dispatchAction+0x3b6>
    41e7: d0 01        	bne	$41ea <updateSlider+0xa1>
    41e9: 1a           	inc
    41ea: 4a           	lsr
    41eb: 66 12        	ror	$12                     ; 0x2012 <dispatchAction+0x3b6>
    41ed: 4a           	lsr
    41ee: 66 12        	ror	$12                     ; 0x2012 <dispatchAction+0x3b6>
    41f0: 4a           	lsr
    41f1: 66 12        	ror	$12                     ; 0x2012 <dispatchAction+0x3b6>
    41f3: a5 15        	lda	$15                     ; 0x2015 <dispatchAction+0x3b9>
    41f5: 38           	sec
    41f6: e5 14        	sbc	$14                     ; 0x2014 <dispatchAction+0x3b8>
    41f8: a8           	tay
    41f9: a9 00        	lda	#$0
    41fb: e9 00        	sbc	#$0
    41fd: 64 13        	stz	$13                     ; 0x2013 <dispatchAction+0x3b7>
    41ff: aa           	tax
    4200: 98           	tya
    4201: 20 72 67     	jsr	$6772 <__udivhi3>
    4204: a0 0d        	ldy	#$d
    4206: 85 2a        	sta	$2a                     ; 0x202a <dispatchAction+0x3ce>
    4208: b1 24        	lda	($24),y                 ; 0x2024 <dispatchAction+0x3c8>
    420a: 85 12        	sta	$12                     ; 0x2012 <dispatchAction+0x3b6>
    420c: 85 2d        	sta	$2d                     ; 0x202d <dispatchAction+0x3d1>
    420e: 64 13        	stz	$13                     ; 0x2013 <dispatchAction+0x3b7>
    4210: a2 00        	ldx	#$0
    4212: 20 d0 66     	jsr	$66d0 <__mulhi3>
    4215: 86 12        	stx	$12                     ; 0x2012 <dispatchAction+0x3b6>
    4217: 0a           	asl
    4218: 26 12        	rol	$12                     ; 0x2012 <dispatchAction+0x3b6>
    421a: 0a           	asl
    421b: 26 12        	rol	$12                     ; 0x2012 <dispatchAction+0x3b6>
    421d: 0a           	asl
    421e: 85 13        	sta	$13                     ; 0x2013 <dispatchAction+0x3b7>
    4220: 26 12        	rol	$12                     ; 0x2012 <dispatchAction+0x3b6>
    4222: 0a           	asl
    4223: a6 12        	ldx	$12                     ; 0x2012 <dispatchAction+0x3b6>
    4225: 86 14        	stx	$14                     ; 0x2014 <dispatchAction+0x3b8>
    4227: 26 14        	rol	$14                     ; 0x2014 <dispatchAction+0x3b8>
    4229: 0a           	asl
    422a: 26 14        	rol	$14                     ; 0x2014 <dispatchAction+0x3b8>
    422c: 18           	clc
    422d: 65 13        	adc	$13                     ; 0x2013 <dispatchAction+0x3b7>
    422f: 85 13        	sta	$13                     ; 0x2013 <dispatchAction+0x3b7>
    4231: a5 14        	lda	$14                     ; 0x2014 <dispatchAction+0x3b8>
    4233: 65 12        	adc	$12                     ; 0x2012 <dispatchAction+0x3b6>
    4235: 85 12        	sta	$12                     ; 0x2012 <dispatchAction+0x3b6>
    4237: 18           	clc
    4238: a5 26        	lda	$26                     ; 0x2026 <dispatchAction+0x3ca>
    423a: 65 13        	adc	$13                     ; 0x2013 <dispatchAction+0x3b7>
    423c: 85 2b        	sta	$2b                     ; 0x202b <dispatchAction+0x3cf>
    423e: a5 27        	lda	$27                     ; 0x2027 <dispatchAction+0x3cb>
    4240: 65 12        	adc	$12                     ; 0x2012 <dispatchAction+0x3b6>
    4242: 85 27        	sta	$27                     ; 0x2027 <dispatchAction+0x3cb>
    4244: a5 28        	lda	$28                     ; 0x2028 <dispatchAction+0x3cc>
    4246: 69 00        	adc	#$0
    4248: 85 26        	sta	$26                     ; 0x2026 <dispatchAction+0x3ca>
    424a: a5 29        	lda	$29                     ; 0x2029 <dispatchAction+0x3cd>
    424c: 69 00        	adc	#$0
    424e: 85 28        	sta	$28                     ; 0x2028 <dispatchAction+0x3cc>
    4250: a6 2d        	ldx	$2d                     ; 0x202d <dispatchAction+0x3d1>
    4252: 86 12        	stx	$12                     ; 0x2012 <dispatchAction+0x3b6>
    4254: 64 13        	stz	$13                     ; 0x2013 <dispatchAction+0x3b7>
    4256: a2 00        	ldx	#$0
    4258: a5 2d        	lda	$2d                     ; 0x202d <dispatchAction+0x3d1>
    425a: 20 d0 66     	jsr	$66d0 <__mulhi3>
    425d: a4 2a        	ldy	$2a                     ; 0x202a <dispatchAction+0x3ce>
    425f: 84 12        	sty	$12                     ; 0x2012 <dispatchAction+0x3b6>
    4261: 64 13        	stz	$13                     ; 0x2013 <dispatchAction+0x3b7>
    4263: 20 d0 66     	jsr	$66d0 <__mulhi3>
    4266: 85 12        	sta	$12                     ; 0x2012 <dispatchAction+0x3b6>
    4268: 86 13        	stx	$13                     ; 0x2013 <dispatchAction+0x3b7>
    426a: 18           	clc
    426b: a5 2b        	lda	$2b                     ; 0x202b <dispatchAction+0x3cf>
    426d: 65 12        	adc	$12                     ; 0x2012 <dispatchAction+0x3b6>
    426f: 85 12        	sta	$12                     ; 0x2012 <dispatchAction+0x3b6>
    4271: a5 27        	lda	$27                     ; 0x2027 <dispatchAction+0x3cb>
    4273: 65 13        	adc	$13                     ; 0x2013 <dispatchAction+0x3b7>
    4275: 85 14        	sta	$14                     ; 0x2014 <dispatchAction+0x3b8>
    4277: a5 26        	lda	$26                     ; 0x2026 <dispatchAction+0x3ca>
    4279: 69 00        	adc	#$0
    427b: 85 13        	sta	$13                     ; 0x2013 <dispatchAction+0x3b7>
    427d: a5 28        	lda	$28                     ; 0x2028 <dispatchAction+0x3cc>
    427f: 69 00        	adc	#$0
    4281: aa           	tax
    4282: a4 25        	ldy	$25                     ; 0x2025 <dispatchAction+0x3c9>
    4284: 98           	tya
    4285: a0 0e        	ldy	#$e
    4287: 91 10        	sta	($10),y                 ; 0x2010 <dispatchAction+0x3b4>
    4289: 18           	clc
    428a: a5 24        	lda	$24                     ; 0x2024 <dispatchAction+0x3c8>
    428c: 48           	pha
    428d: a0 09        	ldy	#$9
    428f: 91 10        	sta	($10),y                 ; 0x2010 <dispatchAction+0x3b4>
    4291: 68           	pla
    4292: 69 08        	adc	#$8
    4294: 85 2a        	sta	$2a                     ; 0x202a <dispatchAction+0x3ce>
    4296: a0 0e        	ldy	#$e
    4298: b1 10        	lda	($10),y                 ; 0x2010 <dispatchAction+0x3b4>
    429a: 69 00        	adc	#$0
    429c: a0 08        	ldy	#$8
    429e: 85 2b        	sta	$2b                     ; 0x202b <dispatchAction+0x3cf>
    42a0: a5 12        	lda	$12                     ; 0x2012 <dispatchAction+0x3b6>
    42a2: 91 24        	sta	($24),y                 ; 0x2024 <dispatchAction+0x3c8>
    42a4: 85 18        	sta	$18                     ; 0x2018 <dispatchAction+0x3bc>
    42a6: a5 14        	lda	$14                     ; 0x2014 <dispatchAction+0x3b8>
    42a8: a0 01        	ldy	#$1
    42aa: 91 2a        	sta	($2a),y                 ; 0x202a <dispatchAction+0x3ce>
    42ac: 85 12        	sta	$12                     ; 0x2012 <dispatchAction+0x3b6>
    42ae: c8           	iny
    42af: a5 13        	lda	$13                     ; 0x2013 <dispatchAction+0x3b7>
    42b1: 91 2a        	sta	($2a),y                 ; 0x202a <dispatchAction+0x3ce>
    42b3: c8           	iny
    42b4: 8a           	txa
    42b5: 91 2a        	sta	($2a),y                 ; 0x202a <dispatchAction+0x3ce>
    42b7: 86 14        	stx	$14                     ; 0x2014 <dispatchAction+0x3b8>
    42b9: b2 24        	lda	($24)                   ; 0x2024 <dispatchAction+0x3c8>
    42bb: a6 2d        	ldx	$2d                     ; 0x202d <dispatchAction+0x3d1>
    42bd: 86 15        	stx	$15                     ; 0x2015 <dispatchAction+0x3b9>
    42bf: 64 16        	stz	$16                     ; 0x2016 <dispatchAction+0x3ba>
    42c1: 64 17        	stz	$17                     ; 0x2017 <dispatchAction+0x3bb>
    42c3: a6 18        	ldx	$18                     ; 0x2018 <dispatchAction+0x3bc>
    42c5: 20 24 39     	jsr	$3924 <spriteDefine>
    42c8: b2 24        	lda	($24)                   ; 0x2024 <dispatchAction+0x3c8>
    42ca: 85 15        	sta	$15                     ; 0x2015 <dispatchAction+0x3b9>
    42cc: a6 24        	ldx	$24                     ; 0x2024 <dispatchAction+0x3c8>
    42ce: 86 26        	stx	$26                     ; 0x2026 <dispatchAction+0x3ca>
    42d0: a6 25        	ldx	$25                     ; 0x2025 <dispatchAction+0x3c9>
    42d2: 86 27        	stx	$27                     ; 0x2027 <dispatchAction+0x3cb>
    42d4: e6 26        	inc	$26                     ; 0x2026 <dispatchAction+0x3ca>
    42d6: d0 02        	bne	$42da <updateSlider+0x191>
    42d8: e6 27        	inc	$27                     ; 0x2027 <dispatchAction+0x3cb>
    42da: a0 01        	ldy	#$1
    42dc: b1 24        	lda	($24),y                 ; 0x2024 <dispatchAction+0x3c8>
    42de: aa           	tax
    42df: 18           	clc
    42e0: a5 24        	lda	$24                     ; 0x2024 <dispatchAction+0x3c8>
    42e2: 69 03        	adc	#$3
    42e4: 85 28        	sta	$28                     ; 0x2028 <dispatchAction+0x3cc>
    42e6: 5a           	phy
    42e7: a0 0e        	ldy	#$e
    42e9: b1 10        	lda	($10),y                 ; 0x2010 <dispatchAction+0x3b4>
    42eb: 7a           	ply
    42ec: 69 00        	adc	#$0
    42ee: 85 29        	sta	$29                     ; 0x2029 <dispatchAction+0x3cd>
    42f0: b1 26        	lda	($26),y                 ; 0x2026 <dispatchAction+0x3ca>
    42f2: 85 12        	sta	$12                     ; 0x2012 <dispatchAction+0x3b6>
    42f4: a0 03        	ldy	#$3
    42f6: b1 24        	lda	($24),y                 ; 0x2024 <dispatchAction+0x3c8>
    42f8: 85 13        	sta	$13                     ; 0x2013 <dispatchAction+0x3b7>
    42fa: a0 01        	ldy	#$1
    42fc: b1 28        	lda	($28),y                 ; 0x2028 <dispatchAction+0x3cc>
    42fe: 85 14        	sta	$14                     ; 0x2014 <dispatchAction+0x3b8>
    4300: a5 15        	lda	$15                     ; 0x2015 <dispatchAction+0x3b9>
    4302: 20 b5 39     	jsr	$39b5 <spriteSetPosition>
    4305: a0 08        	ldy	#$8
    4307: b1 24        	lda	($24),y                 ; 0x2024 <dispatchAction+0x3c8>
    4309: 85 2f        	sta	$2f                     ; 0x202f <dispatchAction+0x3d3>
    430b: a0 02        	ldy	#$2
    430d: b1 2a        	lda	($2a),y                 ; 0x202a <dispatchAction+0x3ce>
    430f: 85 2c        	sta	$2c                     ; 0x202c <dispatchAction+0x3d0>
    4311: b2 24        	lda	($24)                   ; 0x2024 <dispatchAction+0x3c8>
    4313: 1a           	inc
    4314: a0 08        	ldy	#$8
    4316: 91 10        	sta	($10),y                 ; 0x2010 <dispatchAction+0x3b4>
    4318: a0 0d        	ldy	#$d
    431a: b1 24        	lda	($24),y                 ; 0x2024 <dispatchAction+0x3c8>
    431c: 85 2e        	sta	$2e                     ; 0x202e <dispatchAction+0x3d2>
    431e: 85 15        	sta	$15                     ; 0x2015 <dispatchAction+0x3b9>
    4320: 06 15        	asl	$15                     ; 0x2015 <dispatchAction+0x3b9>
    4322: 64 14        	stz	$14                     ; 0x2014 <dispatchAction+0x3b8>
    4324: 26 14        	rol	$14                     ; 0x2014 <dispatchAction+0x3b8>
    4326: 06 15        	asl	$15                     ; 0x2015 <dispatchAction+0x3b9>
    4328: 26 14        	rol	$14                     ; 0x2014 <dispatchAction+0x3b8>
    432a: 06 15        	asl	$15                     ; 0x2015 <dispatchAction+0x3b9>
    432c: 26 14        	rol	$14                     ; 0x2014 <dispatchAction+0x3b8>
    432e: a0 01        	ldy	#$1
    4330: b1 2a        	lda	($2a),y                 ; 0x202a <dispatchAction+0x3ce>
    4332: 85 2d        	sta	$2d                     ; 0x202d <dispatchAction+0x3d1>
    4334: a0 03        	ldy	#$3
    4336: b1 2a        	lda	($2a),y                 ; 0x202a <dispatchAction+0x3ce>
    4338: 85 2a        	sta	$2a                     ; 0x202a <dispatchAction+0x3ce>
    433a: a6 2e        	ldx	$2e                     ; 0x202e <dispatchAction+0x3d2>
    433c: 86 12        	stx	$12                     ; 0x2012 <dispatchAction+0x3b6>
    433e: 64 13        	stz	$13                     ; 0x2013 <dispatchAction+0x3b7>
    4340: a6 14        	ldx	$14                     ; 0x2014 <dispatchAction+0x3b8>
    4342: a5 15        	lda	$15                     ; 0x2015 <dispatchAction+0x3b9>
    4344: 20 d0 66     	jsr	$66d0 <__mulhi3>
    4347: 85 12        	sta	$12                     ; 0x2012 <dispatchAction+0x3b6>
    4349: 86 13        	stx	$13                     ; 0x2013 <dispatchAction+0x3b7>
    434b: 18           	clc
    434c: a5 2f        	lda	$2f                     ; 0x202f <dispatchAction+0x3d3>
    434e: 65 12        	adc	$12                     ; 0x2012 <dispatchAction+0x3b6>
    4350: aa           	tax
    4351: a5 2d        	lda	$2d                     ; 0x202d <dispatchAction+0x3d1>
    4353: 65 13        	adc	$13                     ; 0x2013 <dispatchAction+0x3b7>
    4355: 85 12        	sta	$12                     ; 0x2012 <dispatchAction+0x3b6>
    4357: a5 2c        	lda	$2c                     ; 0x202c <dispatchAction+0x3d0>
    4359: 69 00        	adc	#$0
    435b: 85 13        	sta	$13                     ; 0x2013 <dispatchAction+0x3b7>
    435d: a5 2a        	lda	$2a                     ; 0x202a <dispatchAction+0x3ce>
    435f: 69 00        	adc	#$0
    4361: 85 14        	sta	$14                     ; 0x2014 <dispatchAction+0x3b8>
    4363: a4 2e        	ldy	$2e                     ; 0x202e <dispatchAction+0x3d2>
    4365: 84 15        	sty	$15                     ; 0x2015 <dispatchAction+0x3b9>
    4367: 64 16        	stz	$16                     ; 0x2016 <dispatchAction+0x3ba>
    4369: 64 17        	stz	$17                     ; 0x2017 <dispatchAction+0x3bb>
    436b: a0 08        	ldy	#$8
    436d: b1 10        	lda	($10),y                 ; 0x2010 <dispatchAction+0x3b4>
    436f: 20 24 39     	jsr	$3924 <spriteDefine>
    4372: b2 24        	lda	($24)                   ; 0x2024 <dispatchAction+0x3c8>
    4374: 85 15        	sta	$15                     ; 0x2015 <dispatchAction+0x3b9>
    4376: a0 01        	ldy	#$1
    4378: b1 24        	lda	($24),y                 ; 0x2024 <dispatchAction+0x3c8>
    437a: aa           	tax
    437b: b1 26        	lda	($26),y                 ; 0x2026 <dispatchAction+0x3ca>
    437d: 85 13        	sta	$13                     ; 0x2013 <dispatchAction+0x3b7>
    437f: b1 28        	lda	($28),y                 ; 0x2028 <dispatchAction+0x3cc>
    4381: 85 12        	sta	$12                     ; 0x2012 <dispatchAction+0x3b6>
    4383: a0 0d        	ldy	#$d
    4385: b1 24        	lda	($24),y                 ; 0x2024 <dispatchAction+0x3c8>
    4387: 18           	clc
    4388: a0 03        	ldy	#$3
    438a: 71 24        	adc	($24),y                 ; 0x2024 <dispatchAction+0x3c8>
    438c: a8           	tay
    438d: a5 12        	lda	$12                     ; 0x2012 <dispatchAction+0x3b6>
    438f: 69 00        	adc	#$0
    4391: e6 15        	inc	$15                     ; 0x2015 <dispatchAction+0x3b9>
    4393: 5a           	phy
    4394: a4 13        	ldy	$13                     ; 0x2013 <dispatchAction+0x3b7>
    4396: 84 12        	sty	$12                     ; 0x2012 <dispatchAction+0x3b6>
    4398: 7a           	ply
    4399: 84 13        	sty	$13                     ; 0x2013 <dispatchAction+0x3b7>
    439b: 85 14        	sta	$14                     ; 0x2014 <dispatchAction+0x3b8>
    439d: a5 15        	lda	$15                     ; 0x2015 <dispatchAction+0x3b9>
    439f: 20 b5 39     	jsr	$39b5 <spriteSetPosition>
    43a2: b2 24        	lda	($24)                   ; 0x2024 <dispatchAction+0x3c8>
    43a4: a2 01        	ldx	#$1
    43a6: 20 fc 39     	jsr	$39fc <spriteSetVisible>
    43a9: b2 24        	lda	($24)                   ; 0x2024 <dispatchAction+0x3c8>
    43ab: 1a           	inc
    43ac: a2 01        	ldx	#$1
    43ae: 20 fc 39     	jsr	$39fc <spriteSetVisible>
    43b1: a9 0f        	lda	#$f
    43b3: a0 27        	ldy	#$27
    43b5: 31 24        	and	($24),y                 ; 0x2024 <dispatchAction+0x3c8>
    43b7: 88           	dey
    43b8: 85 14        	sta	$14                     ; 0x2014 <dispatchAction+0x3b8>
    43ba: 91 24        	sta	($24),y                 ; 0x2024 <dispatchAction+0x3c8>
    43bc: 18           	clc
    43bd: a0 09        	ldy	#$9
    43bf: b1 10        	lda	($10),y                 ; 0x2010 <dispatchAction+0x3b4>
    43c1: aa           	tax
    43c2: 69 14        	adc	#$14
    43c4: 85 16        	sta	$16                     ; 0x2016 <dispatchAction+0x3ba>
    43c6: a0 0e        	ldy	#$e
    43c8: b1 10        	lda	($10),y                 ; 0x2010 <dispatchAction+0x3b4>
    43ca: 69 00        	adc	#$0
    43cc: a0 14        	ldy	#$14
    43ce: 85 17        	sta	$17                     ; 0x2017 <dispatchAction+0x3bb>
    43d0: b1 24        	lda	($24),y                 ; 0x2024 <dispatchAction+0x3c8>
    43d2: 0a           	asl
    43d3: 85 12        	sta	$12                     ; 0x2012 <dispatchAction+0x3b6>
    43d5: a0 01        	ldy	#$1
    43d7: b1 16        	lda	($16),y                 ; 0x2016 <dispatchAction+0x3ba>
    43d9: 2a           	rol
    43da: 85 13        	sta	$13                     ; 0x2013 <dispatchAction+0x3b7>
    43dc: 18           	clc
    43dd: 8a           	txa
    43de: 69 16        	adc	#$16
    43e0: aa           	tax
    43e1: a0 0e        	ldy	#$e
    43e3: b1 10        	lda	($10),y                 ; 0x2010 <dispatchAction+0x3b4>
    43e5: 69 00        	adc	#$0
    43e7: a0 16        	ldy	#$16
    43e9: 86 16        	stx	$16                     ; 0x2016 <dispatchAction+0x3ba>
    43eb: 85 17        	sta	$17                     ; 0x2017 <dispatchAction+0x3bb>
    43ed: b1 24        	lda	($24),y                 ; 0x2024 <dispatchAction+0x3c8>
    43ef: aa           	tax
    43f0: a0 01        	ldy	#$1
    43f2: b1 16        	lda	($16),y                 ; 0x2016 <dispatchAction+0x3ba>
    43f4: 85 15        	sta	$15                     ; 0x2015 <dispatchAction+0x3b9>
    43f6: 8a           	txa
    43f7: 0a           	asl
    43f8: 26 15        	rol	$15                     ; 0x2015 <dispatchAction+0x3b9>
    43fa: 0a           	asl
    43fb: 26 15        	rol	$15                     ; 0x2015 <dispatchAction+0x3b9>
    43fd: 0a           	asl
    43fe: 85 16        	sta	$16                     ; 0x2016 <dispatchAction+0x3ba>
    4400: 26 15        	rol	$15                     ; 0x2015 <dispatchAction+0x3b9>
    4402: 0a           	asl
    4403: a6 15        	ldx	$15                     ; 0x2015 <dispatchAction+0x3b9>
    4405: 86 17        	stx	$17                     ; 0x2017 <dispatchAction+0x3bb>
    4407: 26 17        	rol	$17                     ; 0x2017 <dispatchAction+0x3bb>
    4409: 0a           	asl
    440a: 26 17        	rol	$17                     ; 0x2017 <dispatchAction+0x3bb>
    440c: 18           	clc
    440d: 65 16        	adc	$16                     ; 0x2016 <dispatchAction+0x3ba>
    440f: a8           	tay
    4410: a5 17        	lda	$17                     ; 0x2017 <dispatchAction+0x3bb>
    4412: 65 15        	adc	$15                     ; 0x2015 <dispatchAction+0x3b9>
    4414: aa           	tax
    4415: 18           	clc
    4416: 98           	tya
    4417: 65 12        	adc	$12                     ; 0x2012 <dispatchAction+0x3b6>
    4419: 85 12        	sta	$12                     ; 0x2012 <dispatchAction+0x3b6>
    441b: 8a           	txa
    441c: 65 13        	adc	$13                     ; 0x2013 <dispatchAction+0x3b7>
    441e: 85 13        	sta	$13                     ; 0x2013 <dispatchAction+0x3b7>
    4420: 10 06        	bpl	$4428 <updateSlider+0x2df>
    4422: a2 ff        	ldx	#$ff
    4424: 86 15        	stx	$15                     ; 0x2015 <dispatchAction+0x3b9>
    4426: 80 02        	bra	$442a <updateSlider+0x2e1>
    4428: 64 15        	stz	$15                     ; 0x2015 <dispatchAction+0x3b9>
    442a: a0 0a        	ldy	#$a
    442c: b1 10        	lda	($10),y                 ; 0x2010 <dispatchAction+0x3b4>
    442e: 18           	clc
    442f: 65 12        	adc	$12                     ; 0x2012 <dispatchAction+0x3b6>
    4431: a8           	tay
    4432: 5a           	phy
    4433: a0 0b        	ldy	#$b
    4435: b1 10        	lda	($10),y                 ; 0x2010 <dispatchAction+0x3b4>
    4437: 65 13        	adc	$13                     ; 0x2013 <dispatchAction+0x3b7>
    4439: aa           	tax
    443a: c8           	iny
    443b: b1 10        	lda	($10),y                 ; 0x2010 <dispatchAction+0x3b4>
    443d: 65 15        	adc	$15                     ; 0x2015 <dispatchAction+0x3b9>
    443f: 85 16        	sta	$16                     ; 0x2016 <dispatchAction+0x3ba>
    4441: c8           	iny
    4442: b1 10        	lda	($10),y                 ; 0x2010 <dispatchAction+0x3b4>
    4444: 7a           	ply
    4445: 65 15        	adc	$15                     ; 0x2015 <dispatchAction+0x3b9>
    4447: 5a           	phy
    4448: a4 16        	ldy	$16                     ; 0x2016 <dispatchAction+0x3ba>
    444a: 84 12        	sty	$12                     ; 0x2012 <dispatchAction+0x3b6>
    444c: 7a           	ply
    444d: 85 13        	sta	$13                     ; 0x2013 <dispatchAction+0x3b7>
    444f: 64 15        	stz	$15                     ; 0x2015 <dispatchAction+0x3b9>
    4451: 98           	tya
    4452: 20 ea 0a     	jsr	$aea <FAR_POKEW>
    4455: a0 00        	ldy	#$0
    4457: b1 10        	lda	($10),y                 ; 0x2010 <dispatchAction+0x3b4>
    4459: 85 2f        	sta	$2f                     ; 0x202f <dispatchAction+0x3d3>
    445b: c8           	iny
    445c: b1 10        	lda	($10),y                 ; 0x2010 <dispatchAction+0x3b4>
    445e: 85 2e        	sta	$2e                     ; 0x202e <dispatchAction+0x3d2>
    4460: c8           	iny
    4461: b1 10        	lda	($10),y                 ; 0x2010 <dispatchAction+0x3b4>
    4463: 85 2d        	sta	$2d                     ; 0x202d <dispatchAction+0x3d1>
    4465: c8           	iny
    4466: b1 10        	lda	($10),y                 ; 0x2010 <dispatchAction+0x3b4>
    4468: 85 2c        	sta	$2c                     ; 0x202c <dispatchAction+0x3d0>
    446a: c8           	iny
    446b: b1 10        	lda	($10),y                 ; 0x2010 <dispatchAction+0x3b4>
    446d: 85 2b        	sta	$2b                     ; 0x202b <dispatchAction+0x3cf>
    446f: c8           	iny
    4470: b1 10        	lda	($10),y                 ; 0x2010 <dispatchAction+0x3b4>
    4472: 85 2a        	sta	$2a                     ; 0x202a <dispatchAction+0x3ce>
    4474: c8           	iny
    4475: b1 10        	lda	($10),y                 ; 0x2010 <dispatchAction+0x3b4>
    4477: 85 29        	sta	$29                     ; 0x2029 <dispatchAction+0x3cd>
    4479: c8           	iny
    447a: b1 10        	lda	($10),y                 ; 0x2010 <dispatchAction+0x3b4>
    447c: 85 28        	sta	$28                     ; 0x2028 <dispatchAction+0x3cc>
    447e: fa           	plx
    447f: 86 27        	stx	$27                     ; 0x2027 <dispatchAction+0x3cb>
    4481: fa           	plx
    4482: 86 26        	stx	$26                     ; 0x2026 <dispatchAction+0x3ca>
    4484: fa           	plx
    4485: 86 25        	stx	$25                     ; 0x2025 <dispatchAction+0x3c9>
    4487: fa           	plx
    4488: 86 24        	stx	$24                     ; 0x2024 <dispatchAction+0x3c8>
    448a: 18           	clc
    448b: a5 10        	lda	$10                     ; 0x2010 <dispatchAction+0x3b4>
    448d: 69 0f        	adc	#$f
    448f: 85 10        	sta	$10                     ; 0x2010 <dispatchAction+0x3b4>
    4491: a5 11        	lda	$11                     ; 0x2011 <dispatchAction+0x3b5>
    4493: 69 00        	adc	#$0
    4495: 85 11        	sta	$11                     ; 0x2011 <dispatchAction+0x3b5>
    4497: 60           	rts

00004498 <setSlider>:
    4498: a4 24        	ldy	$24                     ; 0x2024 <dispatchAction+0x3c8>
    449a: 5a           	phy
    449b: a4 25        	ldy	$25                     ; 0x2025 <dispatchAction+0x3c9>
    449d: 5a           	phy
    449e: a4 26        	ldy	$26                     ; 0x2026 <dispatchAction+0x3ca>
    44a0: 5a           	phy
    44a1: a4 27        	ldy	$27                     ; 0x2027 <dispatchAction+0x3cb>
    44a3: 5a           	phy
    44a4: 86 22        	stx	$22                     ; 0x2022 <dispatchAction+0x3c6>
    44a6: a6 1d        	ldx	$1d                     ; 0x201d <dispatchAction+0x3c1>
    44a8: a0 27        	ldy	#$27
    44aa: 91 12        	sta	($12),y                 ; 0x2012 <dispatchAction+0x3b6>
    44ac: c8           	iny
    44ad: a5 22        	lda	$22                     ; 0x2022 <dispatchAction+0x3c6>
    44af: 91 12        	sta	($12),y                 ; 0x2012 <dispatchAction+0x3b6>
    44b1: c8           	iny
    44b2: a5 14        	lda	$14                     ; 0x2014 <dispatchAction+0x3b8>
    44b4: 91 12        	sta	($12),y                 ; 0x2012 <dispatchAction+0x3b6>
    44b6: c8           	iny
    44b7: a5 15        	lda	$15                     ; 0x2015 <dispatchAction+0x3b9>
    44b9: 91 12        	sta	($12),y                 ; 0x2012 <dispatchAction+0x3b6>
    44bb: 18           	clc
    44bc: a4 10        	ldy	$10                     ; 0x2010 <dispatchAction+0x3b4>
    44be: 84 26        	sty	$26                     ; 0x2026 <dispatchAction+0x3ca>
    44c0: a4 11        	ldy	$11                     ; 0x2011 <dispatchAction+0x3b5>
    44c2: 84 27        	sty	$27                     ; 0x2027 <dispatchAction+0x3cb>
    44c4: a5 10        	lda	$10                     ; 0x2010 <dispatchAction+0x3b4>
    44c6: 69 01        	adc	#$1
    44c8: 85 24        	sta	$24                     ; 0x2024 <dispatchAction+0x3c8>
    44ca: a5 11        	lda	$11                     ; 0x2011 <dispatchAction+0x3b5>
    44cc: 69 00        	adc	#$0
    44ce: 85 25        	sta	$25                     ; 0x2025 <dispatchAction+0x3c9>
    44d0: 18           	clc
    44d1: a5 10        	lda	$10                     ; 0x2010 <dispatchAction+0x3b4>
    44d3: 69 02        	adc	#$2
    44d5: 85 14        	sta	$14                     ; 0x2014 <dispatchAction+0x3b8>
    44d7: a5 11        	lda	$11                     ; 0x2011 <dispatchAction+0x3b5>
    44d9: 69 00        	adc	#$0
    44db: 85 15        	sta	$15                     ; 0x2015 <dispatchAction+0x3b9>
    44dd: a0 2c        	ldy	#$2c
    44df: a5 17        	lda	$17                     ; 0x2017 <dispatchAction+0x3bb>
    44e1: 91 12        	sta	($12),y                 ; 0x2012 <dispatchAction+0x3b6>
    44e3: a4 12        	ldy	$12                     ; 0x2012 <dispatchAction+0x3b6>
    44e5: a5 12        	lda	$12                     ; 0x2012 <dispatchAction+0x3b6>
    44e7: 84 1d        	sty	$1d                     ; 0x201d <dispatchAction+0x3c1>
    44e9: 18           	clc
    44ea: 69 2a        	adc	#$2a
    44ec: 85 22        	sta	$22                     ; 0x2022 <dispatchAction+0x3c6>
    44ee: a5 13        	lda	$13                     ; 0x2013 <dispatchAction+0x3b7>
    44f0: 69 00        	adc	#$0
    44f2: 85 23        	sta	$23                     ; 0x2023 <dispatchAction+0x3c7>
    44f4: a0 01        	ldy	#$1
    44f6: a5 16        	lda	$16                     ; 0x2016 <dispatchAction+0x3ba>
    44f8: 91 22        	sta	($22),y                 ; 0x2022 <dispatchAction+0x3c6>
    44fa: a5 1d        	lda	$1d                     ; 0x201d <dispatchAction+0x3c1>
    44fc: 18           	clc
    44fd: 69 2c        	adc	#$2c
    44ff: 85 22        	sta	$22                     ; 0x2022 <dispatchAction+0x3c6>
    4501: a5 13        	lda	$13                     ; 0x2013 <dispatchAction+0x3b7>
    4503: 69 00        	adc	#$0
    4505: 85 23        	sta	$23                     ; 0x2023 <dispatchAction+0x3c7>
    4507: a5 18        	lda	$18                     ; 0x2018 <dispatchAction+0x3bc>
    4509: 91 22        	sta	($22),y                 ; 0x2022 <dispatchAction+0x3c6>
    450b: 18           	clc
    450c: a5 1d        	lda	$1d                     ; 0x201d <dispatchAction+0x3c1>
    450e: 69 2e        	adc	#$2e
    4510: 85 16        	sta	$16                     ; 0x2016 <dispatchAction+0x3ba>
    4512: a5 13        	lda	$13                     ; 0x2013 <dispatchAction+0x3b7>
    4514: 69 00        	adc	#$0
    4516: 85 17        	sta	$17                     ; 0x2017 <dispatchAction+0x3bb>
    4518: b2 26        	lda	($26)                   ; 0x2026 <dispatchAction+0x3ca>
    451a: 85 1d        	sta	$1d                     ; 0x201d <dispatchAction+0x3c1>
    451c: b2 24        	lda	($24)                   ; 0x2024 <dispatchAction+0x3c8>
    451e: 85 18        	sta	$18                     ; 0x2018 <dispatchAction+0x3bc>
    4520: a0 2e        	ldy	#$2e
    4522: a5 19        	lda	$19                     ; 0x2019 <dispatchAction+0x3bd>
    4524: 91 12        	sta	($12),y                 ; 0x2012 <dispatchAction+0x3b6>
    4526: a5 1a        	lda	$1a                     ; 0x201a <dispatchAction+0x3be>
    4528: a0 01        	ldy	#$1
    452a: 91 16        	sta	($16),y                 ; 0x2016 <dispatchAction+0x3ba>
    452c: b2 14        	lda	($14)                   ; 0x2014 <dispatchAction+0x3b8>
    452e: 86 14        	stx	$14                     ; 0x2014 <dispatchAction+0x3b8>
    4530: a6 1e        	ldx	$1e                     ; 0x201e <dispatchAction+0x3c2>
    4532: 86 15        	stx	$15                     ; 0x2015 <dispatchAction+0x3b9>
    4534: a6 1f        	ldx	$1f                     ; 0x201f <dispatchAction+0x3c3>
    4536: 86 16        	stx	$16                     ; 0x2016 <dispatchAction+0x3ba>
    4538: a6 1d        	ldx	$1d                     ; 0x201d <dispatchAction+0x3c1>
    453a: 86 17        	stx	$17                     ; 0x2017 <dispatchAction+0x3bb>
    453c: 85 19        	sta	$19                     ; 0x2019 <dispatchAction+0x3bd>
    453e: a6 1c        	ldx	$1c                     ; 0x201c <dispatchAction+0x3c0>
    4540: a5 1b        	lda	$1b                     ; 0x201b <dispatchAction+0x3bf>
    4542: 20 49 41     	jsr	$4149 <updateSlider>
    4545: fa           	plx
    4546: 86 27        	stx	$27                     ; 0x2027 <dispatchAction+0x3cb>
    4548: fa           	plx
    4549: 86 26        	stx	$26                     ; 0x2026 <dispatchAction+0x3ca>
    454b: fa           	plx
    454c: 86 25        	stx	$25                     ; 0x2025 <dispatchAction+0x3c9>
    454e: fa           	plx
    454f: 86 24        	stx	$24                     ; 0x2024 <dispatchAction+0x3c8>
    4551: 60           	rts

00004552 <updateLighter>:
    4552: 85 1b        	sta	$1b                     ; 0x201b <dispatchAction+0x3bf>
    4554: 86 18        	stx	$18                     ; 0x2018 <dispatchAction+0x3bc>
    4556: a0 01        	ldy	#$1
    4558: b1 12        	lda	($12),y                 ; 0x2012 <dispatchAction+0x3b6>
    455a: 0a           	asl
    455b: a2 01        	ldx	#$1
    455d: b0 02        	bcs	$4561 <updateLighter+0xf>
    455f: a2 00        	ldx	#$0
    4561: 86 1a        	stx	$1a                     ; 0x201a <dispatchAction+0x3be>
    4563: 85 19        	sta	$19                     ; 0x2019 <dispatchAction+0x3bd>
    4565: a6 12        	ldx	$12                     ; 0x2012 <dispatchAction+0x3b6>
    4567: 86 16        	stx	$16                     ; 0x2016 <dispatchAction+0x3ba>
    4569: a6 13        	ldx	$13                     ; 0x2013 <dispatchAction+0x3b7>
    456b: 86 17        	stx	$17                     ; 0x2017 <dispatchAction+0x3bb>
    456d: e6 16        	inc	$16                     ; 0x2016 <dispatchAction+0x3ba>
    456f: d0 02        	bne	$4573 <updateLighter+0x21>
    4571: e6 17        	inc	$17                     ; 0x2017 <dispatchAction+0x3bb>
    4573: b1 16        	lda	($16),y                 ; 0x2016 <dispatchAction+0x3ba>
    4575: a6 1a        	ldx	$1a                     ; 0x201a <dispatchAction+0x3be>
    4577: e0 01        	cpx	#$1
    4579: 2a           	rol
    457a: 85 1a        	sta	$1a                     ; 0x201a <dispatchAction+0x3be>
    457c: a5 12        	lda	$12                     ; 0x2012 <dispatchAction+0x3b6>
    457e: 18           	clc
    457f: 69 03        	adc	#$3
    4581: 85 16        	sta	$16                     ; 0x2016 <dispatchAction+0x3ba>
    4583: a5 13        	lda	$13                     ; 0x2013 <dispatchAction+0x3b7>
    4585: 69 00        	adc	#$0
    4587: 85 17        	sta	$17                     ; 0x2017 <dispatchAction+0x3bb>
    4589: a0 03        	ldy	#$3
    458b: b1 12        	lda	($12),y                 ; 0x2012 <dispatchAction+0x3b6>
    458d: 85 1c        	sta	$1c                     ; 0x201c <dispatchAction+0x3c0>
    458f: a0 01        	ldy	#$1
    4591: b1 16        	lda	($16),y                 ; 0x2016 <dispatchAction+0x3ba>
    4593: a6 1c        	ldx	$1c                     ; 0x201c <dispatchAction+0x3c0>
    4595: 86 16        	stx	$16                     ; 0x2016 <dispatchAction+0x3ba>
    4597: 06 16        	asl	$16                     ; 0x2016 <dispatchAction+0x3ba>
    4599: 2a           	rol
    459a: 06 16        	asl	$16                     ; 0x2016 <dispatchAction+0x3ba>
    459c: 2a           	rol
    459d: 06 16        	asl	$16                     ; 0x2016 <dispatchAction+0x3ba>
    459f: 2a           	rol
    45a0: 85 17        	sta	$17                     ; 0x2017 <dispatchAction+0x3bb>
    45a2: a5 16        	lda	$16                     ; 0x2016 <dispatchAction+0x3ba>
    45a4: 0a           	asl
    45a5: a6 17        	ldx	$17                     ; 0x2017 <dispatchAction+0x3bb>
    45a7: 86 1c        	stx	$1c                     ; 0x201c <dispatchAction+0x3c0>
    45a9: 26 1c        	rol	$1c                     ; 0x201c <dispatchAction+0x3c0>
    45ab: 0a           	asl
    45ac: 26 1c        	rol	$1c                     ; 0x201c <dispatchAction+0x3c0>
    45ae: 18           	clc
    45af: 65 16        	adc	$16                     ; 0x2016 <dispatchAction+0x3ba>
    45b1: a8           	tay
    45b2: a5 1c        	lda	$1c                     ; 0x201c <dispatchAction+0x3c0>
    45b4: 65 17        	adc	$17                     ; 0x2017 <dispatchAction+0x3bb>
    45b6: aa           	tax
    45b7: 18           	clc
    45b8: 98           	tya
    45b9: 65 19        	adc	$19                     ; 0x2019 <dispatchAction+0x3bd>
    45bb: 85 17        	sta	$17                     ; 0x2017 <dispatchAction+0x3bb>
    45bd: 8a           	txa
    45be: 65 1a        	adc	$1a                     ; 0x201a <dispatchAction+0x3be>
    45c0: 85 19        	sta	$19                     ; 0x2019 <dispatchAction+0x3bd>
    45c2: 10 06        	bpl	$45ca <updateLighter+0x78>
    45c4: a2 ff        	ldx	#$ff
    45c6: 86 16        	stx	$16                     ; 0x2016 <dispatchAction+0x3ba>
    45c8: 80 02        	bra	$45cc <updateLighter+0x7a>
    45ca: 64 16        	stz	$16                     ; 0x2016 <dispatchAction+0x3ba>
    45cc: 18           	clc
    45cd: a5 1b        	lda	$1b                     ; 0x201b <dispatchAction+0x3bf>
    45cf: 65 17        	adc	$17                     ; 0x2017 <dispatchAction+0x3bb>
    45d1: 85 17        	sta	$17                     ; 0x2017 <dispatchAction+0x3bb>
    45d3: a5 18        	lda	$18                     ; 0x2018 <dispatchAction+0x3bc>
    45d5: 65 19        	adc	$19                     ; 0x2019 <dispatchAction+0x3bd>
    45d7: aa           	tax
    45d8: a5 14        	lda	$14                     ; 0x2014 <dispatchAction+0x3b8>
    45da: 65 16        	adc	$16                     ; 0x2016 <dispatchAction+0x3ba>
    45dc: 85 14        	sta	$14                     ; 0x2014 <dispatchAction+0x3b8>
    45de: a5 15        	lda	$15                     ; 0x2015 <dispatchAction+0x3b9>
    45e0: 65 16        	adc	$16                     ; 0x2016 <dispatchAction+0x3ba>
    45e2: 85 16        	sta	$16                     ; 0x2016 <dispatchAction+0x3ba>
    45e4: a0 13        	ldy	#$13
    45e6: b1 12        	lda	($12),y                 ; 0x2012 <dispatchAction+0x3b6>
    45e8: 64 15        	stz	$15                     ; 0x2015 <dispatchAction+0x3b9>
    45ea: a4 14        	ldy	$14                     ; 0x2014 <dispatchAction+0x3b8>
    45ec: 84 12        	sty	$12                     ; 0x2012 <dispatchAction+0x3b6>
    45ee: a4 16        	ldy	$16                     ; 0x2016 <dispatchAction+0x3ba>
    45f0: 84 13        	sty	$13                     ; 0x2013 <dispatchAction+0x3b7>
    45f2: 85 14        	sta	$14                     ; 0x2014 <dispatchAction+0x3b8>
    45f4: a5 17        	lda	$17                     ; 0x2017 <dispatchAction+0x3bb>
    45f6: 4c ea 0a     	jmp	$aea <FAR_POKEW>

000045f9 <setLighter>:
    45f9: 86 18        	stx	$18                     ; 0x2018 <dispatchAction+0x3bc>
    45fb: a6 14        	ldx	$14                     ; 0x2014 <dispatchAction+0x3b8>
    45fd: 86 1a        	stx	$1a                     ; 0x201a <dispatchAction+0x3be>
    45ff: a0 13        	ldy	#$13
    4601: 85 14        	sta	$14                     ; 0x2014 <dispatchAction+0x3b8>
    4603: 91 12        	sta	($12),y                 ; 0x2012 <dispatchAction+0x3b6>
    4605: a0 01        	ldy	#$1
    4607: b1 12        	lda	($12),y                 ; 0x2012 <dispatchAction+0x3b6>
    4609: 0a           	asl
    460a: a2 01        	ldx	#$1
    460c: b0 02        	bcs	$4610 <setLighter+0x17>
    460e: a2 00        	ldx	#$0
    4610: 86 17        	stx	$17                     ; 0x2017 <dispatchAction+0x3bb>
    4612: 85 19        	sta	$19                     ; 0x2019 <dispatchAction+0x3bd>
    4614: a6 12        	ldx	$12                     ; 0x2012 <dispatchAction+0x3b6>
    4616: 86 1c        	stx	$1c                     ; 0x201c <dispatchAction+0x3c0>
    4618: a6 13        	ldx	$13                     ; 0x2013 <dispatchAction+0x3b7>
    461a: 86 1d        	stx	$1d                     ; 0x201d <dispatchAction+0x3c1>
    461c: e6 1c        	inc	$1c                     ; 0x201c <dispatchAction+0x3c0>
    461e: d0 02        	bne	$4622 <setLighter+0x29>
    4620: e6 1d        	inc	$1d                     ; 0x201d <dispatchAction+0x3c1>
    4622: b1 1c        	lda	($1c),y                 ; 0x201c <dispatchAction+0x3c0>
    4624: a6 17        	ldx	$17                     ; 0x2017 <dispatchAction+0x3bb>
    4626: e0 01        	cpx	#$1
    4628: 2a           	rol
    4629: 85 1b        	sta	$1b                     ; 0x201b <dispatchAction+0x3bf>
    462b: a5 12        	lda	$12                     ; 0x2012 <dispatchAction+0x3b6>
    462d: 18           	clc
    462e: 69 03        	adc	#$3
    4630: 85 1c        	sta	$1c                     ; 0x201c <dispatchAction+0x3c0>
    4632: a5 13        	lda	$13                     ; 0x2013 <dispatchAction+0x3b7>
    4634: 69 00        	adc	#$0
    4636: 85 1d        	sta	$1d                     ; 0x201d <dispatchAction+0x3c1>
    4638: a0 03        	ldy	#$3
    463a: b1 12        	lda	($12),y                 ; 0x2012 <dispatchAction+0x3b6>
    463c: aa           	tax
    463d: a0 01        	ldy	#$1
    463f: b1 1c        	lda	($1c),y                 ; 0x201c <dispatchAction+0x3c0>
    4641: 85 12        	sta	$12                     ; 0x2012 <dispatchAction+0x3b6>
    4643: 8a           	txa
    4644: 0a           	asl
    4645: 26 12        	rol	$12                     ; 0x2012 <dispatchAction+0x3b6>
    4647: 0a           	asl
    4648: 26 12        	rol	$12                     ; 0x2012 <dispatchAction+0x3b6>
    464a: a6 12        	ldx	$12                     ; 0x2012 <dispatchAction+0x3b6>
    464c: 86 13        	stx	$13                     ; 0x2013 <dispatchAction+0x3b7>
    464e: 0a           	asl
    464f: 85 12        	sta	$12                     ; 0x2012 <dispatchAction+0x3b6>
    4651: 26 13        	rol	$13                     ; 0x2013 <dispatchAction+0x3b7>
    4653: 0a           	asl
    4654: aa           	tax
    4655: a5 13        	lda	$13                     ; 0x2013 <dispatchAction+0x3b7>
    4657: 2a           	rol
    4658: 86 17        	stx	$17                     ; 0x2017 <dispatchAction+0x3bb>
    465a: 06 17        	asl	$17                     ; 0x2017 <dispatchAction+0x3bb>
    465c: 2a           	rol
    465d: aa           	tax
    465e: a5 17        	lda	$17                     ; 0x2017 <dispatchAction+0x3bb>
    4660: 18           	clc
    4661: 65 12        	adc	$12                     ; 0x2012 <dispatchAction+0x3b6>
    4663: 85 12        	sta	$12                     ; 0x2012 <dispatchAction+0x3b6>
    4665: 8a           	txa
    4666: 65 13        	adc	$13                     ; 0x2013 <dispatchAction+0x3b7>
    4668: aa           	tax
    4669: a5 12        	lda	$12                     ; 0x2012 <dispatchAction+0x3b6>
    466b: 18           	clc
    466c: 65 19        	adc	$19                     ; 0x2019 <dispatchAction+0x3bd>
    466e: 85 12        	sta	$12                     ; 0x2012 <dispatchAction+0x3b6>
    4670: 8a           	txa
    4671: 65 1b        	adc	$1b                     ; 0x201b <dispatchAction+0x3bf>
    4673: 85 13        	sta	$13                     ; 0x2013 <dispatchAction+0x3b7>
    4675: 10 06        	bpl	$467d <setLighter+0x84>
    4677: a2 ff        	ldx	#$ff
    4679: 86 17        	stx	$17                     ; 0x2017 <dispatchAction+0x3bb>
    467b: 80 02        	bra	$467f <setLighter+0x86>
    467d: 64 17        	stz	$17                     ; 0x2017 <dispatchAction+0x3bb>
    467f: 18           	clc
    4680: a5 18        	lda	$18                     ; 0x2018 <dispatchAction+0x3bc>
    4682: 65 12        	adc	$12                     ; 0x2012 <dispatchAction+0x3b6>
    4684: a8           	tay
    4685: a5 1a        	lda	$1a                     ; 0x201a <dispatchAction+0x3be>
    4687: 65 13        	adc	$13                     ; 0x2013 <dispatchAction+0x3b7>
    4689: aa           	tax
    468a: a5 15        	lda	$15                     ; 0x2015 <dispatchAction+0x3b9>
    468c: 65 17        	adc	$17                     ; 0x2017 <dispatchAction+0x3bb>
    468e: 85 12        	sta	$12                     ; 0x2012 <dispatchAction+0x3b6>
    4690: a5 16        	lda	$16                     ; 0x2016 <dispatchAction+0x3ba>
    4692: 65 17        	adc	$17                     ; 0x2017 <dispatchAction+0x3bb>
    4694: 64 15        	stz	$15                     ; 0x2015 <dispatchAction+0x3b9>
    4696: 85 13        	sta	$13                     ; 0x2013 <dispatchAction+0x3b7>
    4698: 98           	tya
    4699: 4c ea 0a     	jmp	$aea <FAR_POKEW>

0000469c <setATile>:
    469c: 86 18        	stx	$18                     ; 0x2018 <dispatchAction+0x3bc>
    469e: a6 12        	ldx	$12                     ; 0x2012 <dispatchAction+0x3b6>
    46a0: a4 13        	ldy	$13                     ; 0x2013 <dispatchAction+0x3b7>
    46a2: 0a           	asl
    46a3: 85 12        	sta	$12                     ; 0x2012 <dispatchAction+0x3b6>
    46a5: a9 00        	lda	#$0
    46a7: 64 13        	stz	$13                     ; 0x2013 <dispatchAction+0x3b7>
    46a9: 26 13        	rol	$13                     ; 0x2013 <dispatchAction+0x3b7>
    46ab: 06 18        	asl	$18                     ; 0x2018 <dispatchAction+0x3bc>
    46ad: 2a           	rol
    46ae: 06 18        	asl	$18                     ; 0x2018 <dispatchAction+0x3bc>
    46b0: 2a           	rol
    46b1: 06 18        	asl	$18                     ; 0x2018 <dispatchAction+0x3bc>
    46b3: 2a           	rol
    46b4: 85 19        	sta	$19                     ; 0x2019 <dispatchAction+0x3bd>
    46b6: a5 18        	lda	$18                     ; 0x2018 <dispatchAction+0x3bc>
    46b8: 0a           	asl
    46b9: 5a           	phy
    46ba: a4 19        	ldy	$19                     ; 0x2019 <dispatchAction+0x3bd>
    46bc: 84 1a        	sty	$1a                     ; 0x201a <dispatchAction+0x3be>
    46be: 7a           	ply
    46bf: 26 1a        	rol	$1a                     ; 0x201a <dispatchAction+0x3be>
    46c1: 0a           	asl
    46c2: 26 1a        	rol	$1a                     ; 0x201a <dispatchAction+0x3be>
    46c4: 18           	clc
    46c5: 65 18        	adc	$18                     ; 0x2018 <dispatchAction+0x3bc>
    46c7: 85 1b        	sta	$1b                     ; 0x201b <dispatchAction+0x3bf>
    46c9: a5 1a        	lda	$1a                     ; 0x201a <dispatchAction+0x3be>
    46cb: 65 19        	adc	$19                     ; 0x2019 <dispatchAction+0x3bd>
    46cd: 85 18        	sta	$18                     ; 0x2018 <dispatchAction+0x3bc>
    46cf: 18           	clc
    46d0: a5 1b        	lda	$1b                     ; 0x201b <dispatchAction+0x3bf>
    46d2: 65 12        	adc	$12                     ; 0x2012 <dispatchAction+0x3b6>
    46d4: 85 19        	sta	$19                     ; 0x2019 <dispatchAction+0x3bd>
    46d6: a5 18        	lda	$18                     ; 0x2018 <dispatchAction+0x3bc>
    46d8: 65 13        	adc	$13                     ; 0x2013 <dispatchAction+0x3b7>
    46da: 85 12        	sta	$12                     ; 0x2012 <dispatchAction+0x3b6>
    46dc: 18           	clc
    46dd: a5 19        	lda	$19                     ; 0x2019 <dispatchAction+0x3bd>
    46df: 65 14        	adc	$14                     ; 0x2014 <dispatchAction+0x3b8>
    46e1: 85 18        	sta	$18                     ; 0x2018 <dispatchAction+0x3bc>
    46e3: a5 12        	lda	$12                     ; 0x2012 <dispatchAction+0x3b6>
    46e5: 65 15        	adc	$15                     ; 0x2015 <dispatchAction+0x3b9>
    46e7: 85 19        	sta	$19                     ; 0x2019 <dispatchAction+0x3bd>
    46e9: a5 16        	lda	$16                     ; 0x2016 <dispatchAction+0x3ba>
    46eb: 69 00        	adc	#$0
    46ed: 85 12        	sta	$12                     ; 0x2012 <dispatchAction+0x3b6>
    46ef: a5 17        	lda	$17                     ; 0x2017 <dispatchAction+0x3bb>
    46f1: 69 00        	adc	#$0
    46f3: 85 13        	sta	$13                     ; 0x2013 <dispatchAction+0x3b7>
    46f5: 86 14        	stx	$14                     ; 0x2014 <dispatchAction+0x3b8>
    46f7: 84 15        	sty	$15                     ; 0x2015 <dispatchAction+0x3b9>
    46f9: a6 19        	ldx	$19                     ; 0x2019 <dispatchAction+0x3bd>
    46fb: a5 18        	lda	$18                     ; 0x2018 <dispatchAction+0x3bc>
    46fd: 4c ea 0a     	jmp	$aea <FAR_POKEW>

00004700 <resetGlobals>:
    4700: a9 00        	lda	#$0
    4702: 92 12        	sta	($12)                   ; 0x2012 <dispatchAction+0x3b6>
    4704: a0 01        	ldy	#$1
    4706: 91 12        	sta	($12),y                 ; 0x2012 <dispatchAction+0x3b6>
    4708: c8           	iny
    4709: 91 12        	sta	($12),y                 ; 0x2012 <dispatchAction+0x3b6>
    470b: c8           	iny
    470c: 91 12        	sta	($12),y                 ; 0x2012 <dispatchAction+0x3b6>
    470e: 60           	rts

0000470f <dispatchNote>:
    470f: 85 18        	sta	$18                     ; 0x2018 <dispatchAction+0x3bc>
    4711: 86 19        	stx	$19                     ; 0x2019 <dispatchAction+0x3bd>
    4713: a6 12        	ldx	$12                     ; 0x2012 <dispatchAction+0x3b6>
    4715: a4 13        	ldy	$13                     ; 0x2013 <dispatchAction+0x3b7>
    4717: 84 12        	sty	$12                     ; 0x2012 <dispatchAction+0x3b6>
    4719: a8           	tay
    471a: f0 06        	beq	$4722 <dispatchNote+0x13>
    471c: 8a           	txa
    471d: d0 03        	bne	$4722 <dispatchNote+0x13>
    471f: 4c 06 48     	jmp	$4806 <dispatchNote+0xf7>
    4722: a0 03        	ldy	#$3
    4724: b1 16        	lda	($16),y                 ; 0x2016 <dispatchAction+0x3ba>
    4726: c9 05        	cmp	#$5
    4728: 90 03        	bcc	$472d <dispatchNote+0x1e>
    472a: 4c 06 48     	jmp	$4806 <dispatchNote+0xf7>
    472d: 86 e7        	stx	$e7                     ; 0x20e7 <dispatchAction+0x48b>
    472f: 85 13        	sta	$13                     ; 0x2013 <dispatchAction+0x3b7>
    4731: 06 13        	asl	$13                     ; 0x2013 <dispatchAction+0x3b7>
    4733: a6 13        	ldx	$13                     ; 0x2013 <dispatchAction+0x3b7>
    4735: 7c d0 69     	jmp	($69d0,x)               ; 0x69d0 <__set_v+0xc3>
    4738: a6 18        	ldx	$18                     ; 0x2018 <dispatchAction+0x3bc>
    473a: d0 03        	bne	$473f <dispatchNote+0x30>
    473c: 4c d3 47     	jmp	$47d3 <dispatchNote+0xc4>
    473f: a0 01        	ldy	#$1
    4741: a6 e7        	ldx	$e7                     ; 0x20e7 <dispatchAction+0x48b>
    4743: c9 04        	cmp	#$4
    4745: f0 03        	beq	$474a <dispatchNote+0x3b>
    4747: b2 16        	lda	($16)                   ; 0x2016 <dispatchAction+0x3ba>
    4749: a8           	tay
    474a: 84 13        	sty	$13                     ; 0x2013 <dispatchAction+0x3b7>
    474c: a5 19        	lda	$19                     ; 0x2019 <dispatchAction+0x3bd>
    474e: a4 16        	ldy	$16                     ; 0x2016 <dispatchAction+0x3ba>
    4750: 84 e7        	sty	$e7                     ; 0x20e7 <dispatchAction+0x48b>
    4752: a4 17        	ldy	$17                     ; 0x2017 <dispatchAction+0x3bb>
    4754: 84 e8        	sty	$e8                     ; 0x20e8 <dispatchAction+0x48c>
    4756: 20 1d 4c     	jsr	$4c1d <midiNoteOn>
    4759: a6 e7        	ldx	$e7                     ; 0x20e7 <dispatchAction+0x48b>
    475b: 86 12        	stx	$12                     ; 0x2012 <dispatchAction+0x3b6>
    475d: a6 e8        	ldx	$e8                     ; 0x20e8 <dispatchAction+0x48c>
    475f: 86 13        	stx	$13                     ; 0x2013 <dispatchAction+0x3b7>
    4761: b2 12        	lda	($12)                   ; 0x2012 <dispatchAction+0x3b6>
    4763: d0 03        	bne	$4768 <dispatchNote+0x59>
    4765: 4c 04 48     	jmp	$4804 <dispatchNote+0xf5>
    4768: e6 a1        	inc	$a1                     ; 0x20a1 <dispatchAction+0x445>
    476a: 60           	rts
    476b: a5 18        	lda	$18                     ; 0x2018 <dispatchAction+0x3bc>
    476d: d0 03        	bne	$4772 <dispatchNote+0x63>
    476f: 4c 07 48     	jmp	$4807 <dispatchNote+0xf8>
    4772: a6 19        	ldx	$19                     ; 0x2019 <dispatchAction+0x3bd>
    4774: a5 14        	lda	$14                     ; 0x2014 <dispatchAction+0x3b8>
    4776: f0 03        	beq	$477b <dispatchNote+0x6c>
    4778: 4c 35 49     	jmp	$4935 <dispatchNote+0x226>
    477b: a2 00        	ldx	#$0
    477d: 80 08        	bra	$4787 <dispatchNote+0x78>
    477f: e8           	inx
    4780: e0 12        	cpx	#$12
    4782: d0 03        	bne	$4787 <dispatchNote+0x78>
    4784: 4c 33 49     	jmp	$4933 <dispatchNote+0x224>
    4787: b4 cf        	ldy	$cf,x                   ; 0x20cf <dispatchAction+0x473>
    4789: d0 f4        	bne	$477f <dispatchNote+0x70>
    478b: b4 bd        	ldy	$bd,x                   ; 0x20bd <dispatchAction+0x461>
    478d: d0 f0        	bne	$477f <dispatchNote+0x70>
    478f: 4c 35 49     	jmp	$4935 <dispatchNote+0x226>
    4792: a5 18        	lda	$18                     ; 0x2018 <dispatchAction+0x3bc>
    4794: d0 03        	bne	$4799 <dispatchNote+0x8a>
    4796: 4c 7a 48     	jmp	$487a <dispatchNote+0x16b>
    4799: a5 14        	lda	$14                     ; 0x2014 <dispatchAction+0x3b8>
    479b: d0 03        	bne	$47a0 <dispatchNote+0x91>
    479d: 4c b1 48     	jmp	$48b1 <dispatchNote+0x1a2>
    47a0: a5 e7        	lda	$e7                     ; 0x20e7 <dispatchAction+0x48b>
    47a2: a6 19        	ldx	$19                     ; 0x2019 <dispatchAction+0x3bd>
    47a4: 9d a5 00     	sta	$a5,x                   ; 0xa5 <polySIDBuffer>
    47a7: 4c c5 49     	jmp	$49c5 <dispatchNote+0x2b6>
    47aa: a5 18        	lda	$18                     ; 0x2018 <dispatchAction+0x3bc>
    47ac: d0 03        	bne	$47b1 <dispatchNote+0xa2>
    47ae: 4c 88 48     	jmp	$4888 <dispatchNote+0x179>
    47b1: a6 19        	ldx	$19                     ; 0x2019 <dispatchAction+0x3bd>
    47b3: 86 13        	stx	$13                     ; 0x2013 <dispatchAction+0x3b7>
    47b5: a5 14        	lda	$14                     ; 0x2014 <dispatchAction+0x3b8>
    47b7: f0 03        	beq	$47bc <dispatchNote+0xad>
    47b9: 4c 54 4a     	jmp	$4a54 <dispatchNote+0x345>
    47bc: a2 00        	ldx	#$0
    47be: 80 08        	bra	$47c8 <dispatchNote+0xb9>
    47c0: e8           	inx
    47c1: e0 06        	cpx	#$6
    47c3: d0 03        	bne	$47c8 <dispatchNote+0xb9>
    47c5: 4c 50 4a     	jmp	$4a50 <dispatchNote+0x341>
    47c8: b4 b7        	ldy	$b7,x                   ; 0x20b7 <dispatchAction+0x45b>
    47ca: d0 f4        	bne	$47c0 <dispatchNote+0xb1>
    47cc: b4 b1        	ldy	$b1,x                   ; 0x20b1 <dispatchAction+0x455>
    47ce: d0 f0        	bne	$47c0 <dispatchNote+0xb1>
    47d0: 4c 52 4a     	jmp	$4a52 <dispatchNote+0x343>
    47d3: a0 01        	ldy	#$1
    47d5: a6 e7        	ldx	$e7                     ; 0x20e7 <dispatchAction+0x48b>
    47d7: c9 04        	cmp	#$4
    47d9: f0 03        	beq	$47de <dispatchNote+0xcf>
    47db: b2 16        	lda	($16)                   ; 0x2016 <dispatchAction+0x3ba>
    47dd: a8           	tay
    47de: 84 13        	sty	$13                     ; 0x2013 <dispatchAction+0x3b7>
    47e0: a5 19        	lda	$19                     ; 0x2019 <dispatchAction+0x3bd>
    47e2: a4 16        	ldy	$16                     ; 0x2016 <dispatchAction+0x3ba>
    47e4: 84 e7        	sty	$e7                     ; 0x20e7 <dispatchAction+0x48b>
    47e6: a4 17        	ldy	$17                     ; 0x2017 <dispatchAction+0x3bb>
    47e8: 84 e8        	sty	$e8                     ; 0x20e8 <dispatchAction+0x48c>
    47ea: 20 fd 4b     	jsr	$4bfd <midiNoteOff>
    47ed: a6 e7        	ldx	$e7                     ; 0x20e7 <dispatchAction+0x48b>
    47ef: 86 12        	stx	$12                     ; 0x2012 <dispatchAction+0x3b6>
    47f1: a6 e8        	ldx	$e8                     ; 0x20e8 <dispatchAction+0x48c>
    47f3: 86 13        	stx	$13                     ; 0x2013 <dispatchAction+0x3b7>
    47f5: b2 12        	lda	($12)                   ; 0x2012 <dispatchAction+0x3b6>
    47f7: d0 03        	bne	$47fc <dispatchNote+0xed>
    47f9: 4c a6 48     	jmp	$48a6 <dispatchNote+0x197>
    47fc: a6 a1        	ldx	$a1                     ; 0x20a1 <dispatchAction+0x445>
    47fe: f0 06        	beq	$4806 <dispatchNote+0xf7>
    4800: ca           	dex
    4801: 86 a1        	stx	$a1                     ; 0x20a1 <dispatchAction+0x445>
    4803: 60           	rts
    4804: e6 a0        	inc	$a0                     ; 0x20a0 <dispatchAction+0x444>
    4806: 60           	rts
    4807: a2 00        	ldx	#$0
    4809: a4 e7        	ldy	$e7                     ; 0x20e7 <dispatchAction+0x48b>
    480b: 84 12        	sty	$12                     ; 0x2012 <dispatchAction+0x3b6>
    480d: b4 bd        	ldy	$bd,x                   ; 0x20bd <dispatchAction+0x461>
    480f: c4 12        	cpy	$12                     ; 0x2012 <dispatchAction+0x3b6>
    4811: f0 07        	beq	$481a <dispatchNote+0x10b>
    4813: e8           	inx
    4814: e0 12        	cpx	#$12
    4816: d0 f5        	bne	$480d <dispatchNote+0xfe>
    4818: a2 ff        	ldx	#$ff
    481a: 86 e9        	stx	$e9                     ; 0x20e9 <dispatchAction+0x48d>
    481c: a6 e7        	ldx	$e7                     ; 0x20e7 <dispatchAction+0x48b>
    481e: 8a           	txa
    481f: 18           	clc
    4820: 69 05        	adc	#$5
    4822: 85 16        	sta	$16                     ; 0x2016 <dispatchAction+0x3ba>
    4824: a9 00        	lda	#$0
    4826: 69 00        	adc	#$0
    4828: a2 e3        	ldx	#$e3
    482a: a0 00        	ldy	#$0
    482c: 86 14        	stx	$14                     ; 0x2014 <dispatchAction+0x3b8>
    482e: 84 15        	sty	$15                     ; 0x2015 <dispatchAction+0x3b9>
    4830: a2 0c        	ldx	#$c
    4832: 86 12        	stx	$12                     ; 0x2012 <dispatchAction+0x3b6>
    4834: 64 13        	stz	$13                     ; 0x2013 <dispatchAction+0x3b7>
    4836: aa           	tax
    4837: a5 16        	lda	$16                     ; 0x2016 <dispatchAction+0x3ba>
    4839: 20 32 68     	jsr	$6832 <__udivmodhi4>
    483c: aa           	tax
    483d: a5 e3        	lda	$e3                     ; 0x20e3 <dispatchAction+0x487>
    483f: a4 e4        	ldy	$e4                     ; 0x20e4 <dispatchAction+0x488>
    4841: 0a           	asl
    4842: 85 12        	sta	$12                     ; 0x2012 <dispatchAction+0x3b6>
    4844: 84 13        	sty	$13                     ; 0x2013 <dispatchAction+0x3b7>
    4846: 26 13        	rol	$13                     ; 0x2013 <dispatchAction+0x3b7>
    4848: a9 c8        	lda	#$c8
    484a: 18           	clc
    484b: 65 12        	adc	$12                     ; 0x2012 <dispatchAction+0x3b6>
    484d: 85 14        	sta	$14                     ; 0x2014 <dispatchAction+0x3b8>
    484f: a9 6a        	lda	#$6a
    4851: 65 13        	adc	$13                     ; 0x2013 <dispatchAction+0x3b7>
    4853: a0 01        	ldy	#$1
    4855: 85 15        	sta	$15                     ; 0x2015 <dispatchAction+0x3b9>
    4857: 18           	clc
    4858: 8a           	txa
    4859: 69 fe        	adc	#$fe
    485b: 85 13        	sta	$13                     ; 0x2013 <dispatchAction+0x3b7>
    485d: b2 14        	lda	($14)                   ; 0x2014 <dispatchAction+0x3b8>
    485f: aa           	tax
    4860: b1 14        	lda	($14),y                 ; 0x2014 <dispatchAction+0x3b8>
    4862: 85 12        	sta	$12                     ; 0x2012 <dispatchAction+0x3b6>
    4864: 64 14        	stz	$14                     ; 0x2014 <dispatchAction+0x3b8>
    4866: a4 e9        	ldy	$e9                     ; 0x20e9 <dispatchAction+0x48d>
    4868: 84 e9        	sty	$e9                     ; 0x20e9 <dispatchAction+0x48d>
    486a: 98           	tya
    486b: 20 5e 4f     	jsr	$4f5e <opl3_note>
    486e: a6 e9        	ldx	$e9                     ; 0x20e9 <dispatchAction+0x48d>
    4870: 86 12        	stx	$12                     ; 0x2012 <dispatchAction+0x3b6>
    4872: 10 54        	bpl	$48c8 <dispatchNote+0x1b9>
    4874: a2 ff        	ldx	#$ff
    4876: 86 13        	stx	$13                     ; 0x2013 <dispatchAction+0x3b7>
    4878: 80 50        	bra	$48ca <dispatchNote+0x1bb>
    487a: a5 14        	lda	$14                     ; 0x2014 <dispatchAction+0x3b8>
    487c: d0 03        	bne	$4881 <dispatchNote+0x172>
    487e: 4c 31 4b     	jmp	$4b31 <dispatchNote+0x422>
    4881: a6 19        	ldx	$19                     ; 0x2019 <dispatchAction+0x3bd>
    4883: 74 a5        	stz	$a5,x                   ; 0x20a5 <dispatchAction+0x449>
    4885: 4c 44 4b     	jmp	$4b44 <dispatchNote+0x435>
    4888: a2 00        	ldx	#$0
    488a: a4 e7        	ldy	$e7                     ; 0x20e7 <dispatchAction+0x48b>
    488c: 84 12        	sty	$12                     ; 0x2012 <dispatchAction+0x3b6>
    488e: b4 b1        	ldy	$b1,x                   ; 0x20b1 <dispatchAction+0x455>
    4890: c4 12        	cpy	$12                     ; 0x2012 <dispatchAction+0x3b6>
    4892: f0 07        	beq	$489b <dispatchNote+0x18c>
    4894: e8           	inx
    4895: e0 06        	cpx	#$6
    4897: d0 f5        	bne	$488e <dispatchNote+0x17f>
    4899: a2 ff        	ldx	#$ff
    489b: 8a           	txa
    489c: 10 48        	bpl	$48e6 <dispatchNote+0x1d7>
    489e: 86 13        	stx	$13                     ; 0x2013 <dispatchAction+0x3b7>
    48a0: a2 ff        	ldx	#$ff
    48a2: 86 12        	stx	$12                     ; 0x2012 <dispatchAction+0x3b6>
    48a4: 80 44        	bra	$48ea <dispatchNote+0x1db>
    48a6: a6 a0        	ldx	$a0                     ; 0x20a0 <dispatchAction+0x444>
    48a8: d0 03        	bne	$48ad <dispatchNote+0x19e>
    48aa: 4c 06 48     	jmp	$4806 <dispatchNote+0xf7>
    48ad: ca           	dex
    48ae: 86 a0        	stx	$a0                     ; 0x20a0 <dispatchAction+0x444>
    48b0: 60           	rts
    48b1: a2 00        	ldx	#$0
    48b3: 80 08        	bra	$48bd <dispatchNote+0x1ae>
    48b5: e8           	inx
    48b6: e0 06        	cpx	#$6
    48b8: d0 03        	bne	$48bd <dispatchNote+0x1ae>
    48ba: 4c c3 49     	jmp	$49c3 <dispatchNote+0x2b4>
    48bd: b4 ab        	ldy	$ab,x                   ; 0x20ab <dispatchAction+0x44f>
    48bf: d0 f4        	bne	$48b5 <dispatchNote+0x1a6>
    48c1: b4 a5        	ldy	$a5,x                   ; 0x20a5 <dispatchAction+0x449>
    48c3: d0 f0        	bne	$48b5 <dispatchNote+0x1a6>
    48c5: 4c c5 49     	jmp	$49c5 <dispatchNote+0x2b6>
    48c8: 64 13        	stz	$13                     ; 0x2013 <dispatchAction+0x3b7>
    48ca: a9 bd        	lda	#$bd
    48cc: 18           	clc
    48cd: 65 12        	adc	$12                     ; 0x2012 <dispatchAction+0x3b6>
    48cf: 85 12        	sta	$12                     ; 0x2012 <dispatchAction+0x3b6>
    48d1: a9 00        	lda	#$0
    48d3: 65 13        	adc	$13                     ; 0x2013 <dispatchAction+0x3b7>
    48d5: 85 13        	sta	$13                     ; 0x2013 <dispatchAction+0x3b7>
    48d7: a9 00        	lda	#$0
    48d9: 92 12        	sta	($12)                   ; 0x2012 <dispatchAction+0x3b6>
    48db: a6 a4        	ldx	$a4                     ; 0x20a4 <dispatchAction+0x448>
    48dd: d0 03        	bne	$48e2 <dispatchNote+0x1d3>
    48df: 4c 06 48     	jmp	$4806 <dispatchNote+0xf7>
    48e2: ca           	dex
    48e3: 86 a4        	stx	$a4                     ; 0x20a4 <dispatchAction+0x448>
    48e5: 60           	rts
    48e6: 86 13        	stx	$13                     ; 0x2013 <dispatchAction+0x3b7>
    48e8: 64 12        	stz	$12                     ; 0x2012 <dispatchAction+0x3b6>
    48ea: a9 b1        	lda	#$b1
    48ec: a6 13        	ldx	$13                     ; 0x2013 <dispatchAction+0x3b7>
    48ee: 18           	clc
    48ef: 65 13        	adc	$13                     ; 0x2013 <dispatchAction+0x3b7>
    48f1: 85 14        	sta	$14                     ; 0x2014 <dispatchAction+0x3b8>
    48f3: a9 00        	lda	#$0
    48f5: 65 12        	adc	$12                     ; 0x2012 <dispatchAction+0x3b6>
    48f7: 85 15        	sta	$15                     ; 0x2015 <dispatchAction+0x3b9>
    48f9: a9 00        	lda	#$0
    48fb: 92 14        	sta	($14)                   ; 0x2014 <dispatchAction+0x3b8>
    48fd: a9 a8        	lda	#$a8
    48ff: 18           	clc
    4900: 65 13        	adc	$13                     ; 0x2013 <dispatchAction+0x3b7>
    4902: a8           	tay
    4903: a9 6c        	lda	#$6c
    4905: 65 12        	adc	$12                     ; 0x2012 <dispatchAction+0x3b6>
    4907: 85 13        	sta	$13                     ; 0x2013 <dispatchAction+0x3b7>
    4909: 84 12        	sty	$12                     ; 0x2012 <dispatchAction+0x3b6>
    490b: 8a           	txa
    490c: 38           	sec
    490d: e9 03        	sbc	#$3
    490f: 50 02        	bvc	$4913 <dispatchNote+0x204>
    4911: 49 80        	eor	#$80
    4913: 85 14        	sta	$14                     ; 0x2014 <dispatchAction+0x3b8>
    4915: b2 12        	lda	($12)                   ; 0x2012 <dispatchAction+0x3b6>
    4917: a0 d6        	ldy	#$d6
    4919: a2 10        	ldx	#$10
    491b: e6 14        	inc	$14                     ; 0x2014 <dispatchAction+0x3b8>
    491d: c6 14        	dec	$14                     ; 0x2014 <dispatchAction+0x3b8>
    491f: 10 02        	bpl	$4923 <dispatchNote+0x214>
    4921: a2 00        	ldx	#$0
    4923: 84 12        	sty	$12                     ; 0x2012 <dispatchAction+0x3b6>
    4925: 20 0c 50     	jsr	$500c <psgNoteOff>
    4928: a6 a3        	ldx	$a3                     ; 0x20a3 <dispatchAction+0x447>
    492a: d0 03        	bne	$492f <dispatchNote+0x220>
    492c: 4c 06 48     	jmp	$4806 <dispatchNote+0xf7>
    492f: ca           	dex
    4930: 86 a3        	stx	$a3                     ; 0x20a3 <dispatchAction+0x447>
    4932: 60           	rts
    4933: a2 ff        	ldx	#$ff
    4935: e0 ff        	cpx	#$ff
    4937: d0 03        	bne	$493c <dispatchNote+0x22d>
    4939: 4c c0 49     	jmp	$49c0 <dispatchNote+0x2b1>
    493c: 64 12        	stz	$12                     ; 0x2012 <dispatchAction+0x3b6>
    493e: 8a           	txa
    493f: 10 06        	bpl	$4947 <dispatchNote+0x238>
    4941: 86 e9        	stx	$e9                     ; 0x20e9 <dispatchAction+0x48d>
    4943: a2 ff        	ldx	#$ff
    4945: 80 04        	bra	$494b <dispatchNote+0x23c>
    4947: 86 e9        	stx	$e9                     ; 0x20e9 <dispatchAction+0x48d>
    4949: a2 00        	ldx	#$0
    494b: 86 ea        	stx	$ea                     ; 0x20ea <dispatchAction+0x48e>
    494d: a6 e7        	ldx	$e7                     ; 0x20e7 <dispatchAction+0x48b>
    494f: 86 e7        	stx	$e7                     ; 0x20e7 <dispatchAction+0x48b>
    4951: 8a           	txa
    4952: 18           	clc
    4953: 69 05        	adc	#$5
    4955: 85 16        	sta	$16                     ; 0x2016 <dispatchAction+0x3ba>
    4957: 64 13        	stz	$13                     ; 0x2013 <dispatchAction+0x3b7>
    4959: a9 00        	lda	#$0
    495b: 69 00        	adc	#$0
    495d: a2 e5        	ldx	#$e5
    495f: a0 00        	ldy	#$0
    4961: 86 14        	stx	$14                     ; 0x2014 <dispatchAction+0x3b8>
    4963: 84 15        	sty	$15                     ; 0x2015 <dispatchAction+0x3b9>
    4965: a2 0c        	ldx	#$c
    4967: 86 12        	stx	$12                     ; 0x2012 <dispatchAction+0x3b6>
    4969: aa           	tax
    496a: a5 16        	lda	$16                     ; 0x2016 <dispatchAction+0x3ba>
    496c: 20 32 68     	jsr	$6832 <__udivmodhi4>
    496f: aa           	tax
    4970: a5 e5        	lda	$e5                     ; 0x20e5 <dispatchAction+0x489>
    4972: a4 e6        	ldy	$e6                     ; 0x20e6 <dispatchAction+0x48a>
    4974: 0a           	asl
    4975: 85 12        	sta	$12                     ; 0x2012 <dispatchAction+0x3b6>
    4977: 84 13        	sty	$13                     ; 0x2013 <dispatchAction+0x3b7>
    4979: 26 13        	rol	$13                     ; 0x2013 <dispatchAction+0x3b7>
    497b: a9 c8        	lda	#$c8
    497d: 18           	clc
    497e: 65 12        	adc	$12                     ; 0x2012 <dispatchAction+0x3b6>
    4980: 85 16        	sta	$16                     ; 0x2016 <dispatchAction+0x3ba>
    4982: a9 6a        	lda	#$6a
    4984: 65 13        	adc	$13                     ; 0x2013 <dispatchAction+0x3b7>
    4986: a0 01        	ldy	#$1
    4988: 85 17        	sta	$17                     ; 0x2017 <dispatchAction+0x3bb>
    498a: 18           	clc
    498b: 8a           	txa
    498c: 69 fe        	adc	#$fe
    498e: 85 13        	sta	$13                     ; 0x2013 <dispatchAction+0x3b7>
    4990: b2 16        	lda	($16)                   ; 0x2016 <dispatchAction+0x3ba>
    4992: 85 15        	sta	$15                     ; 0x2015 <dispatchAction+0x3b9>
    4994: b1 16        	lda	($16),y                 ; 0x2016 <dispatchAction+0x3ba>
    4996: a2 01        	ldx	#$1
    4998: 85 12        	sta	$12                     ; 0x2012 <dispatchAction+0x3b6>
    499a: 86 14        	stx	$14                     ; 0x2014 <dispatchAction+0x3b8>
    499c: a6 15        	ldx	$15                     ; 0x2015 <dispatchAction+0x3b9>
    499e: a4 e9        	ldy	$e9                     ; 0x20e9 <dispatchAction+0x48d>
    49a0: 84 e9        	sty	$e9                     ; 0x20e9 <dispatchAction+0x48d>
    49a2: 98           	tya
    49a3: 20 5e 4f     	jsr	$4f5e <opl3_note>
    49a6: a9 bd        	lda	#$bd
    49a8: 18           	clc
    49a9: a6 e9        	ldx	$e9                     ; 0x20e9 <dispatchAction+0x48d>
    49ab: 86 12        	stx	$12                     ; 0x2012 <dispatchAction+0x3b6>
    49ad: 65 12        	adc	$12                     ; 0x2012 <dispatchAction+0x3b6>
    49af: a8           	tay
    49b0: a6 ea        	ldx	$ea                     ; 0x20ea <dispatchAction+0x48e>
    49b2: 86 12        	stx	$12                     ; 0x2012 <dispatchAction+0x3b6>
    49b4: a9 00        	lda	#$0
    49b6: 65 12        	adc	$12                     ; 0x2012 <dispatchAction+0x3b6>
    49b8: 84 12        	sty	$12                     ; 0x2012 <dispatchAction+0x3b6>
    49ba: 85 13        	sta	$13                     ; 0x2013 <dispatchAction+0x3b7>
    49bc: a5 e7        	lda	$e7                     ; 0x20e7 <dispatchAction+0x48b>
    49be: 92 12        	sta	($12)                   ; 0x2012 <dispatchAction+0x3b6>
    49c0: e6 a4        	inc	$a4                     ; 0x20a4 <dispatchAction+0x448>
    49c2: 60           	rts
    49c3: a2 ff        	ldx	#$ff
    49c5: 86 12        	stx	$12                     ; 0x2012 <dispatchAction+0x3b6>
    49c7: 8a           	txa
    49c8: 10 06        	bpl	$49d0 <dispatchNote+0x2c1>
    49ca: a2 ff        	ldx	#$ff
    49cc: 86 13        	stx	$13                     ; 0x2013 <dispatchAction+0x3b7>
    49ce: 80 02        	bra	$49d2 <dispatchNote+0x2c3>
    49d0: 64 13        	stz	$13                     ; 0x2013 <dispatchAction+0x3b7>
    49d2: a6 12        	ldx	$12                     ; 0x2012 <dispatchAction+0x3b6>
    49d4: e0 ff        	cpx	#$ff
    49d6: d0 03        	bne	$49db <dispatchNote+0x2cc>
    49d8: 4c 2e 4b     	jmp	$4b2e <dispatchNote+0x41f>
    49db: 38           	sec
    49dc: a5 12        	lda	$12                     ; 0x2012 <dispatchAction+0x3b6>
    49de: e9 03        	sbc	#$3
    49e0: 50 02        	bvc	$49e4 <dispatchNote+0x2d5>
    49e2: 49 80        	eor	#$80
    49e4: a2 d5        	ldx	#$d5
    49e6: 86 e9        	stx	$e9                     ; 0x20e9 <dispatchAction+0x48d>
    49e8: aa           	tax
    49e9: 10 04        	bpl	$49ef <dispatchNote+0x2e0>
    49eb: a2 d4        	ldx	#$d4
    49ed: 86 e9        	stx	$e9                     ; 0x20e9 <dispatchAction+0x48d>
    49ef: a9 a2        	lda	#$a2
    49f1: 18           	clc
    49f2: a6 12        	ldx	$12                     ; 0x2012 <dispatchAction+0x3b6>
    49f4: 86 ea        	stx	$ea                     ; 0x20ea <dispatchAction+0x48e>
    49f6: 65 12        	adc	$12                     ; 0x2012 <dispatchAction+0x3b6>
    49f8: 85 12        	sta	$12                     ; 0x2012 <dispatchAction+0x3b6>
    49fa: a6 13        	ldx	$13                     ; 0x2013 <dispatchAction+0x3b7>
    49fc: 86 eb        	stx	$eb                     ; 0x20eb <dispatchAction+0x48f>
    49fe: a9 6c        	lda	#$6c
    4a00: 65 13        	adc	$13                     ; 0x2013 <dispatchAction+0x3b7>
    4a02: 85 13        	sta	$13                     ; 0x2013 <dispatchAction+0x3b7>
    4a04: b2 12        	lda	($12)                   ; 0x2012 <dispatchAction+0x3b6>
    4a06: a6 e7        	ldx	$e7                     ; 0x20e7 <dispatchAction+0x48b>
    4a08: bc b5 6b     	ldy	$6bb5,x                 ; 0x6bb5 <sidHigh+0x55>
    4a0b: 84 17        	sty	$17                     ; 0x2017 <dispatchAction+0x3bb>
    4a0d: 85 12        	sta	$12                     ; 0x2012 <dispatchAction+0x3b6>
    4a0f: 85 19        	sta	$19                     ; 0x2019 <dispatchAction+0x3bd>
    4a11: a4 e9        	ldy	$e9                     ; 0x20e9 <dispatchAction+0x48d>
    4a13: 84 16        	sty	$16                     ; 0x2016 <dispatchAction+0x3ba>
    4a15: 84 13        	sty	$13                     ; 0x2013 <dispatchAction+0x3b7>
    4a17: a5 17        	lda	$17                     ; 0x2017 <dispatchAction+0x3bb>
    4a19: 92 12        	sta	($12)                   ; 0x2012 <dispatchAction+0x3b6>
    4a1b: bd 55 6b     	lda	$6b55,x                 ; 0x6b55 <psgHigh+0x35>
    4a1e: a6 16        	ldx	$16                     ; 0x2016 <dispatchAction+0x3ba>
    4a20: a4 19        	ldy	$19                     ; 0x2019 <dispatchAction+0x3bd>
    4a22: c8           	iny
    4a23: d0 01        	bne	$4a26 <dispatchNote+0x317>
    4a25: e8           	inx
    4a26: 84 12        	sty	$12                     ; 0x2012 <dispatchAction+0x3b6>
    4a28: 86 13        	stx	$13                     ; 0x2013 <dispatchAction+0x3b7>
    4a2a: 92 12        	sta	($12)                   ; 0x2012 <dispatchAction+0x3b6>
    4a2c: 18           	clc
    4a2d: a5 19        	lda	$19                     ; 0x2019 <dispatchAction+0x3bd>
    4a2f: 69 04        	adc	#$4
    4a31: 85 ec        	sta	$ec                     ; 0x20ec <dispatchAction+0x490>
    4a33: a5 16        	lda	$16                     ; 0x2016 <dispatchAction+0x3ba>
    4a35: 69 00        	adc	#$0
    4a37: 85 e9        	sta	$e9                     ; 0x20e9 <dispatchAction+0x48d>
    4a39: a5 14        	lda	$14                     ; 0x2014 <dispatchAction+0x3b8>
    4a3b: d0 03        	bne	$4a40 <dispatchNote+0x331>
    4a3d: 4c e5 4a     	jmp	$4ae5 <dispatchNote+0x3d6>
    4a40: a5 15        	lda	$15                     ; 0x2015 <dispatchAction+0x3b9>
    4a42: a6 18        	ldx	$18                     ; 0x2018 <dispatchAction+0x3bc>
    4a44: 86 ed        	stx	$ed                     ; 0x20ed <dispatchAction+0x491>
    4a46: 20 20 50     	jsr	$5020 <fetchCtrl>
    4a49: a6 ed        	ldx	$ed                     ; 0x20ed <dispatchAction+0x491>
    4a4b: 86 18        	stx	$18                     ; 0x2018 <dispatchAction+0x3bc>
    4a4d: 4c 07 4b     	jmp	$4b07 <dispatchNote+0x3f8>
    4a50: a2 ff        	ldx	#$ff
    4a52: 86 13        	stx	$13                     ; 0x2013 <dispatchAction+0x3b7>
    4a54: a6 13        	ldx	$13                     ; 0x2013 <dispatchAction+0x3b7>
    4a56: e0 ff        	cpx	#$ff
    4a58: d0 03        	bne	$4a5d <dispatchNote+0x34e>
    4a5a: 4c e2 4a     	jmp	$4ae2 <dispatchNote+0x3d3>
    4a5d: a5 13        	lda	$13                     ; 0x2013 <dispatchAction+0x3b7>
    4a5f: 10 06        	bpl	$4a67 <dispatchNote+0x358>
    4a61: a2 ff        	ldx	#$ff
    4a63: 86 14        	stx	$14                     ; 0x2014 <dispatchAction+0x3b8>
    4a65: 80 02        	bra	$4a69 <dispatchNote+0x35a>
    4a67: 64 14        	stz	$14                     ; 0x2014 <dispatchAction+0x3b8>
    4a69: a9 a8        	lda	#$a8
    4a6b: 18           	clc
    4a6c: 65 13        	adc	$13                     ; 0x2013 <dispatchAction+0x3b7>
    4a6e: 85 16        	sta	$16                     ; 0x2016 <dispatchAction+0x3ba>
    4a70: a9 6c        	lda	#$6c
    4a72: 65 14        	adc	$14                     ; 0x2014 <dispatchAction+0x3b8>
    4a74: 85 17        	sta	$17                     ; 0x2017 <dispatchAction+0x3bb>
    4a76: a5 13        	lda	$13                     ; 0x2013 <dispatchAction+0x3b7>
    4a78: 38           	sec
    4a79: e9 03        	sbc	#$3
    4a7b: 50 02        	bvc	$4a7f <dispatchNote+0x370>
    4a7d: 49 80        	eor	#$80
    4a7f: aa           	tax
    4a80: b2 16        	lda	($16)                   ; 0x2016 <dispatchAction+0x3ba>
    4a82: 85 16        	sta	$16                     ; 0x2016 <dispatchAction+0x3ba>
    4a84: 8a           	txa
    4a85: 30 14        	bmi	$4a9b <dispatchNote+0x38c>
    4a87: a2 d6        	ldx	#$d6
    4a89: 86 eb        	stx	$eb                     ; 0x20eb <dispatchAction+0x48f>
    4a8b: a4 14        	ldy	$14                     ; 0x2014 <dispatchAction+0x3b8>
    4a8d: 84 e9        	sty	$e9                     ; 0x20e9 <dispatchAction+0x48d>
    4a8f: a4 13        	ldy	$13                     ; 0x2013 <dispatchAction+0x3b7>
    4a91: 84 ea        	sty	$ea                     ; 0x20ea <dispatchAction+0x48e>
    4a93: a6 12        	ldx	$12                     ; 0x2012 <dispatchAction+0x3b6>
    4a95: 86 15        	stx	$15                     ; 0x2015 <dispatchAction+0x3b9>
    4a97: a2 10        	ldx	#$10
    4a99: 80 12        	bra	$4aad <dispatchNote+0x39e>
    4a9b: a2 d6        	ldx	#$d6
    4a9d: 86 eb        	stx	$eb                     ; 0x20eb <dispatchAction+0x48f>
    4a9f: a6 14        	ldx	$14                     ; 0x2014 <dispatchAction+0x3b8>
    4aa1: 86 e9        	stx	$e9                     ; 0x20e9 <dispatchAction+0x48d>
    4aa3: a6 13        	ldx	$13                     ; 0x2013 <dispatchAction+0x3b7>
    4aa5: 86 ea        	stx	$ea                     ; 0x20ea <dispatchAction+0x48e>
    4aa7: a6 12        	ldx	$12                     ; 0x2012 <dispatchAction+0x3b6>
    4aa9: 86 15        	stx	$15                     ; 0x2015 <dispatchAction+0x3b9>
    4aab: a2 00        	ldx	#$0
    4aad: 86 ec        	stx	$ec                     ; 0x20ec <dispatchAction+0x490>
    4aaf: a4 e7        	ldy	$e7                     ; 0x20e7 <dispatchAction+0x48b>
    4ab1: be b3 6a     	ldx	$6ab3,y                 ; 0x6ab3 <__set_v+0x1a6>
    4ab4: 84 e7        	sty	$e7                     ; 0x20e7 <dispatchAction+0x48b>
    4ab6: b9 f3 6a     	lda	$6af3,y                 ; 0x6af3 <psgLow+0x13>
    4ab9: a4 eb        	ldy	$eb                     ; 0x20eb <dispatchAction+0x48f>
    4abb: 84 12        	sty	$12                     ; 0x2012 <dispatchAction+0x3b6>
    4abd: 86 13        	stx	$13                     ; 0x2013 <dispatchAction+0x3b7>
    4abf: 85 14        	sta	$14                     ; 0x2014 <dispatchAction+0x3b8>
    4ac1: a6 ec        	ldx	$ec                     ; 0x20ec <dispatchAction+0x490>
    4ac3: a5 16        	lda	$16                     ; 0x2016 <dispatchAction+0x3ba>
    4ac5: 20 ec 4f     	jsr	$4fec <psgNoteOn>
    4ac8: a9 b1        	lda	#$b1
    4aca: 18           	clc
    4acb: a6 ea        	ldx	$ea                     ; 0x20ea <dispatchAction+0x48e>
    4acd: 86 12        	stx	$12                     ; 0x2012 <dispatchAction+0x3b6>
    4acf: 65 12        	adc	$12                     ; 0x2012 <dispatchAction+0x3b6>
    4ad1: a8           	tay
    4ad2: a6 e9        	ldx	$e9                     ; 0x20e9 <dispatchAction+0x48d>
    4ad4: 86 12        	stx	$12                     ; 0x2012 <dispatchAction+0x3b6>
    4ad6: a9 00        	lda	#$0
    4ad8: 65 12        	adc	$12                     ; 0x2012 <dispatchAction+0x3b6>
    4ada: 84 12        	sty	$12                     ; 0x2012 <dispatchAction+0x3b6>
    4adc: 85 13        	sta	$13                     ; 0x2013 <dispatchAction+0x3b7>
    4ade: a5 e7        	lda	$e7                     ; 0x20e7 <dispatchAction+0x48b>
    4ae0: 92 12        	sta	($12)                   ; 0x2012 <dispatchAction+0x3b6>
    4ae2: e6 a3        	inc	$a3                     ; 0x20a3 <dispatchAction+0x447>
    4ae4: 60           	rts
    4ae5: a5 e1        	lda	$e1                     ; 0x20e1 <dispatchAction+0x485>
    4ae7: a6 e2        	ldx	$e2                     ; 0x20e2 <dispatchAction+0x486>
    4ae9: 85 12        	sta	$12                     ; 0x2012 <dispatchAction+0x3b6>
    4aeb: 86 13        	stx	$13                     ; 0x2013 <dispatchAction+0x3b7>
    4aed: a0 04        	ldy	#$4
    4aef: 18           	clc
    4af0: 69 04        	adc	#$4
    4af2: 85 14        	sta	$14                     ; 0x2014 <dispatchAction+0x3b8>
    4af4: 8a           	txa
    4af5: 69 00        	adc	#$0
    4af7: 85 15        	sta	$15                     ; 0x2015 <dispatchAction+0x3b9>
    4af9: b1 12        	lda	($12),y                 ; 0x2012 <dispatchAction+0x3b6>
    4afb: 85 12        	sta	$12                     ; 0x2012 <dispatchAction+0x3b6>
    4afd: a0 01        	ldy	#$1
    4aff: b1 14        	lda	($14),y                 ; 0x2014 <dispatchAction+0x3b8>
    4b01: 85 13        	sta	$13                     ; 0x2013 <dispatchAction+0x3b7>
    4b03: a0 05        	ldy	#$5
    4b05: b1 12        	lda	($12),y                 ; 0x2012 <dispatchAction+0x3b6>
    4b07: 85 12        	sta	$12                     ; 0x2012 <dispatchAction+0x3b6>
    4b09: a6 18        	ldx	$18                     ; 0x2018 <dispatchAction+0x3bc>
    4b0b: 86 13        	stx	$13                     ; 0x2013 <dispatchAction+0x3b7>
    4b0d: a6 e9        	ldx	$e9                     ; 0x20e9 <dispatchAction+0x48d>
    4b0f: a5 ec        	lda	$ec                     ; 0x20ec <dispatchAction+0x490>
    4b11: 20 6d 50     	jsr	$506d <sidNoteOnOrOff>
    4b14: a9 a5        	lda	#$a5
    4b16: 18           	clc
    4b17: a6 ea        	ldx	$ea                     ; 0x20ea <dispatchAction+0x48e>
    4b19: 86 12        	stx	$12                     ; 0x2012 <dispatchAction+0x3b6>
    4b1b: 65 12        	adc	$12                     ; 0x2012 <dispatchAction+0x3b6>
    4b1d: a8           	tay
    4b1e: a6 eb        	ldx	$eb                     ; 0x20eb <dispatchAction+0x48f>
    4b20: 86 12        	stx	$12                     ; 0x2012 <dispatchAction+0x3b6>
    4b22: a9 00        	lda	#$0
    4b24: 65 12        	adc	$12                     ; 0x2012 <dispatchAction+0x3b6>
    4b26: 84 12        	sty	$12                     ; 0x2012 <dispatchAction+0x3b6>
    4b28: 85 13        	sta	$13                     ; 0x2013 <dispatchAction+0x3b7>
    4b2a: a5 e7        	lda	$e7                     ; 0x20e7 <dispatchAction+0x48b>
    4b2c: 92 12        	sta	($12)                   ; 0x2012 <dispatchAction+0x3b6>
    4b2e: e6 a2        	inc	$a2                     ; 0x20a2 <dispatchAction+0x446>
    4b30: 60           	rts
    4b31: a2 00        	ldx	#$0
    4b33: a4 e7        	ldy	$e7                     ; 0x20e7 <dispatchAction+0x48b>
    4b35: 84 12        	sty	$12                     ; 0x2012 <dispatchAction+0x3b6>
    4b37: b4 a5        	ldy	$a5,x                   ; 0x20a5 <dispatchAction+0x449>
    4b39: c4 12        	cpy	$12                     ; 0x2012 <dispatchAction+0x3b6>
    4b3b: f0 07        	beq	$4b44 <dispatchNote+0x435>
    4b3d: e8           	inx
    4b3e: e0 06        	cpx	#$6
    4b40: d0 f5        	bne	$4b37 <dispatchNote+0x428>
    4b42: a2 ff        	ldx	#$ff
    4b44: 86 12        	stx	$12                     ; 0x2012 <dispatchAction+0x3b6>
    4b46: 8a           	txa
    4b47: 10 06        	bpl	$4b4f <dispatchNote+0x440>
    4b49: a2 ff        	ldx	#$ff
    4b4b: 86 13        	stx	$13                     ; 0x2013 <dispatchAction+0x3b7>
    4b4d: 80 02        	bra	$4b51 <dispatchNote+0x442>
    4b4f: 64 13        	stz	$13                     ; 0x2013 <dispatchAction+0x3b7>
    4b51: a6 e7        	ldx	$e7                     ; 0x20e7 <dispatchAction+0x48b>
    4b53: a5 12        	lda	$12                     ; 0x2012 <dispatchAction+0x3b6>
    4b55: 38           	sec
    4b56: e9 03        	sbc	#$3
    4b58: 50 02        	bvc	$4b5c <dispatchNote+0x44d>
    4b5a: 49 80        	eor	#$80
    4b5c: a0 d5        	ldy	#$d5
    4b5e: c9 00        	cmp	#$0
    4b60: 10 02        	bpl	$4b64 <dispatchNote+0x455>
    4b62: a0 d4        	ldy	#$d4
    4b64: a9 a2        	lda	#$a2
    4b66: 18           	clc
    4b67: 65 12        	adc	$12                     ; 0x2012 <dispatchAction+0x3b6>
    4b69: 85 16        	sta	$16                     ; 0x2016 <dispatchAction+0x3ba>
    4b6b: a9 6c        	lda	#$6c
    4b6d: 65 13        	adc	$13                     ; 0x2013 <dispatchAction+0x3b7>
    4b6f: 85 17        	sta	$17                     ; 0x2017 <dispatchAction+0x3bb>
    4b71: a9 a5        	lda	#$a5
    4b73: 18           	clc
    4b74: 65 12        	adc	$12                     ; 0x2012 <dispatchAction+0x3b6>
    4b76: 85 12        	sta	$12                     ; 0x2012 <dispatchAction+0x3b6>
    4b78: a9 00        	lda	#$0
    4b7a: 65 13        	adc	$13                     ; 0x2013 <dispatchAction+0x3b7>
    4b7c: 85 13        	sta	$13                     ; 0x2013 <dispatchAction+0x3b7>
    4b7e: b2 16        	lda	($16)                   ; 0x2016 <dispatchAction+0x3ba>
    4b80: 85 16        	sta	$16                     ; 0x2016 <dispatchAction+0x3ba>
    4b82: a9 00        	lda	#$0
    4b84: 92 12        	sta	($12)                   ; 0x2012 <dispatchAction+0x3b6>
    4b86: bd b5 6b     	lda	$6bb5,x                 ; 0x6bb5 <sidHigh+0x55>
    4b89: 85 17        	sta	$17                     ; 0x2017 <dispatchAction+0x3bb>
    4b8b: a5 16        	lda	$16                     ; 0x2016 <dispatchAction+0x3ba>
    4b8d: 85 12        	sta	$12                     ; 0x2012 <dispatchAction+0x3b6>
    4b8f: 84 13        	sty	$13                     ; 0x2013 <dispatchAction+0x3b7>
    4b91: a5 17        	lda	$17                     ; 0x2017 <dispatchAction+0x3bb>
    4b93: 92 12        	sta	($12)                   ; 0x2012 <dispatchAction+0x3b6>
    4b95: bd 55 6b     	lda	$6b55,x                 ; 0x6b55 <psgHigh+0x35>
    4b98: aa           	tax
    4b99: 86 18        	stx	$18                     ; 0x2018 <dispatchAction+0x3bc>
    4b9b: 5a           	phy
    4b9c: fa           	plx
    4b9d: 84 17        	sty	$17                     ; 0x2017 <dispatchAction+0x3bb>
    4b9f: a4 16        	ldy	$16                     ; 0x2016 <dispatchAction+0x3ba>
    4ba1: c8           	iny
    4ba2: d0 01        	bne	$4ba5 <dispatchNote+0x496>
    4ba4: e8           	inx
    4ba5: 84 12        	sty	$12                     ; 0x2012 <dispatchAction+0x3b6>
    4ba7: 86 13        	stx	$13                     ; 0x2013 <dispatchAction+0x3b7>
    4ba9: a5 18        	lda	$18                     ; 0x2018 <dispatchAction+0x3bc>
    4bab: 92 12        	sta	($12)                   ; 0x2012 <dispatchAction+0x3b6>
    4bad: 18           	clc
    4bae: a5 16        	lda	$16                     ; 0x2016 <dispatchAction+0x3ba>
    4bb0: 69 04        	adc	#$4
    4bb2: 85 e9        	sta	$e9                     ; 0x20e9 <dispatchAction+0x48d>
    4bb4: a5 17        	lda	$17                     ; 0x2017 <dispatchAction+0x3bb>
    4bb6: 69 00        	adc	#$0
    4bb8: 85 e7        	sta	$e7                     ; 0x20e7 <dispatchAction+0x48b>
    4bba: a5 14        	lda	$14                     ; 0x2014 <dispatchAction+0x3b8>
    4bbc: f0 07        	beq	$4bc5 <dispatchNote+0x4b6>
    4bbe: a5 15        	lda	$15                     ; 0x2015 <dispatchAction+0x3b9>
    4bc0: 20 20 50     	jsr	$5020 <fetchCtrl>
    4bc3: 80 22        	bra	$4be7 <dispatchNote+0x4d8>
    4bc5: a5 e1        	lda	$e1                     ; 0x20e1 <dispatchAction+0x485>
    4bc7: a6 e2        	ldx	$e2                     ; 0x20e2 <dispatchAction+0x486>
    4bc9: 85 12        	sta	$12                     ; 0x2012 <dispatchAction+0x3b6>
    4bcb: 86 13        	stx	$13                     ; 0x2013 <dispatchAction+0x3b7>
    4bcd: a0 04        	ldy	#$4
    4bcf: 18           	clc
    4bd0: 69 04        	adc	#$4
    4bd2: 85 14        	sta	$14                     ; 0x2014 <dispatchAction+0x3b8>
    4bd4: 8a           	txa
    4bd5: 69 00        	adc	#$0
    4bd7: 85 15        	sta	$15                     ; 0x2015 <dispatchAction+0x3b9>
    4bd9: b1 12        	lda	($12),y                 ; 0x2012 <dispatchAction+0x3b6>
    4bdb: 85 12        	sta	$12                     ; 0x2012 <dispatchAction+0x3b6>
    4bdd: a0 01        	ldy	#$1
    4bdf: b1 14        	lda	($14),y                 ; 0x2014 <dispatchAction+0x3b8>
    4be1: 85 13        	sta	$13                     ; 0x2013 <dispatchAction+0x3b7>
    4be3: a0 05        	ldy	#$5
    4be5: b1 12        	lda	($12),y                 ; 0x2012 <dispatchAction+0x3b6>
    4be7: 64 13        	stz	$13                     ; 0x2013 <dispatchAction+0x3b7>
    4be9: 85 12        	sta	$12                     ; 0x2012 <dispatchAction+0x3b6>
    4beb: a6 e7        	ldx	$e7                     ; 0x20e7 <dispatchAction+0x48b>
    4bed: a5 e9        	lda	$e9                     ; 0x20e9 <dispatchAction+0x48d>
    4bef: 20 6d 50     	jsr	$506d <sidNoteOnOrOff>
    4bf2: a6 a2        	ldx	$a2                     ; 0x20a2 <dispatchAction+0x446>
    4bf4: d0 03        	bne	$4bf9 <dispatchNote+0x4ea>
    4bf6: 4c 06 48     	jmp	$4806 <dispatchNote+0xf7>
    4bf9: ca           	dex
    4bfa: 86 a2        	stx	$a2                     ; 0x20a2 <dispatchAction+0x446>
    4bfc: 60           	rts

00004bfd <midiNoteOff>:
    4bfd: 86 14        	stx	$14                     ; 0x2014 <dispatchAction+0x3b8>
    4bff: a4 12        	ldy	$12                     ; 0x2012 <dispatchAction+0x3b6>
    4c01: 09 80        	ora	#$80
    4c03: a6 13        	ldx	$13                     ; 0x2013 <dispatchAction+0x3b7>
    4c05: f0 04        	beq	$4c0b <midiNoteOff+0xe>
    4c07: a2 b1        	ldx	#$b1
    4c09: 80 02        	bra	$4c0d <midiNoteOff+0x10>
    4c0b: a2 a1        	ldx	#$a1
    4c0d: 86 12        	stx	$12                     ; 0x2012 <dispatchAction+0x3b6>
    4c0f: a2 dd        	ldx	#$dd
    4c11: 86 13        	stx	$13                     ; 0x2013 <dispatchAction+0x3b7>
    4c13: 92 12        	sta	($12)                   ; 0x2012 <dispatchAction+0x3b6>
    4c15: a5 14        	lda	$14                     ; 0x2014 <dispatchAction+0x3b8>
    4c17: 92 12        	sta	($12)                   ; 0x2012 <dispatchAction+0x3b6>
    4c19: 98           	tya
    4c1a: 92 12        	sta	($12)                   ; 0x2012 <dispatchAction+0x3b6>
    4c1c: 60           	rts

00004c1d <midiNoteOn>:
    4c1d: 86 14        	stx	$14                     ; 0x2014 <dispatchAction+0x3b8>
    4c1f: a4 12        	ldy	$12                     ; 0x2012 <dispatchAction+0x3b6>
    4c21: 09 90        	ora	#$90
    4c23: a6 13        	ldx	$13                     ; 0x2013 <dispatchAction+0x3b7>
    4c25: f0 04        	beq	$4c2b <midiNoteOn+0xe>
    4c27: a2 b1        	ldx	#$b1
    4c29: 80 02        	bra	$4c2d <midiNoteOn+0x10>
    4c2b: a2 a1        	ldx	#$a1
    4c2d: 86 12        	stx	$12                     ; 0x2012 <dispatchAction+0x3b6>
    4c2f: a2 dd        	ldx	#$dd
    4c31: 86 13        	stx	$13                     ; 0x2013 <dispatchAction+0x3b7>
    4c33: 92 12        	sta	($12)                   ; 0x2012 <dispatchAction+0x3b6>
    4c35: a5 14        	lda	$14                     ; 0x2014 <dispatchAction+0x3b8>
    4c37: 92 12        	sta	($12)                   ; 0x2012 <dispatchAction+0x3b6>
    4c39: 98           	tya
    4c3a: 92 12        	sta	($12)                   ; 0x2012 <dispatchAction+0x3b6>
    4c3c: 60           	rts

00004c3d <hideMouse>:
    4c3d: 9c e0 d6     	stz	$d6e0                   ; 0xd6e0 <end_block9+0x63ea>
    4c40: 60           	rts

00004c41 <showMouse>:
    4c41: a2 01        	ldx	#$1
    4c43: 8e e0 d6     	stx	$d6e0                   ; 0xd6e0 <end_block9+0x63ea>
    4c46: 60           	rts

00004c47 <prepMouse>:
    4c47: a2 01        	ldx	#$1
    4c49: 8e e0 d6     	stx	$d6e0                   ; 0xd6e0 <end_block9+0x63ea>
    4c4c: 9c e2 d6     	stz	$d6e2                   ; 0xd6e2 <end_block9+0x63ec>
    4c4f: 8e e3 d6     	stx	$d6e3                   ; 0xd6e3 <end_block9+0x63ed>
    4c52: 9c e4 d6     	stz	$d6e4                   ; 0xd6e4 <end_block9+0x63ee>
    4c55: 8e e5 d6     	stx	$d6e5                   ; 0xd6e5 <end_block9+0x63ef>
    4c58: 60           	rts

00004c59 <opl3_initialize>:
    4c59: a2 01        	ldx	#$1
    4c5b: 8e 80 d5     	stx	$d580                   ; 0xd580 <end_block9+0x628a>
    4c5e: a0 20        	ldy	#$20
    4c60: 8c 81 d5     	sty	$d581                   ; 0xd581 <end_block9+0x628b>
    4c63: a0 02        	ldy	#$2
    4c65: 8c 80 d5     	sty	$d580                   ; 0xd580 <end_block9+0x628a>
    4c68: 9c 81 d5     	stz	$d581                   ; 0xd581 <end_block9+0x628b>
    4c6b: c8           	iny
    4c6c: 8c 80 d5     	sty	$d580                   ; 0xd580 <end_block9+0x628a>
    4c6f: 9c 81 d5     	stz	$d581                   ; 0xd581 <end_block9+0x628b>
    4c72: c8           	iny
    4c73: 8c 82 d5     	sty	$d582                   ; 0xd582 <end_block9+0x628c>
    4c76: 9c 81 d5     	stz	$d581                   ; 0xd581 <end_block9+0x628b>
    4c79: c8           	iny
    4c7a: 8c 82 d5     	sty	$d582                   ; 0xd582 <end_block9+0x628c>
    4c7d: 8e 81 d5     	stx	$d581                   ; 0xd581 <end_block9+0x628b>
    4c80: a2 08        	ldx	#$8
    4c82: 8e 80 d5     	stx	$d580                   ; 0xd580 <end_block9+0x628a>
    4c85: 9c 81 d5     	stz	$d581                   ; 0xd581 <end_block9+0x628b>
    4c88: a2 c0        	ldx	#$c0
    4c8a: a0 30        	ldy	#$30
    4c8c: 8e 80 d5     	stx	$d580                   ; 0xd580 <end_block9+0x628a>
    4c8f: 8c 81 d5     	sty	$d581                   ; 0xd581 <end_block9+0x628b>
    4c92: e8           	inx
    4c93: e0 c9        	cpx	#$c9
    4c95: d0 f5        	bne	$4c8c <opl3_initialize+0x33>
    4c97: a2 c0        	ldx	#$c0
    4c99: a0 30        	ldy	#$30
    4c9b: 8e 82 d5     	stx	$d582                   ; 0xd582 <end_block9+0x628c>
    4c9e: 8c 81 d5     	sty	$d581                   ; 0xd581 <end_block9+0x628b>
    4ca1: e8           	inx
    4ca2: e0 c9        	cpx	#$c9
    4ca4: d0 f5        	bne	$4c9b <opl3_initialize+0x42>
    4ca6: a2 b0        	ldx	#$b0
    4ca8: 8e 80 d5     	stx	$d580                   ; 0xd580 <end_block9+0x628a>
    4cab: 9c 81 d5     	stz	$d581                   ; 0xd581 <end_block9+0x628b>
    4cae: e8           	inx
    4caf: e0 b9        	cpx	#$b9
    4cb1: d0 f5        	bne	$4ca8 <opl3_initialize+0x4f>
    4cb3: a2 b0        	ldx	#$b0
    4cb5: 8e 82 d5     	stx	$d582                   ; 0xd582 <end_block9+0x628c>
    4cb8: 9c 81 d5     	stz	$d581                   ; 0xd581 <end_block9+0x628b>
    4cbb: e8           	inx
    4cbc: e0 b9        	cpx	#$b9
    4cbe: d0 f5        	bne	$4cb5 <opl3_initialize+0x5c>
    4cc0: 60           	rts

00004cc1 <opl3_setInstrument>:
    4cc1: c9 03        	cmp	#$3
    4cc3: a8           	tay
    4cc4: 85 16        	sta	$16                     ; 0x2016 <dispatchAction+0x3ba>
    4cc6: 90 06        	bcc	$4cce <opl3_setInstrument+0xd>
    4cc8: 18           	clc
    4cc9: 69 05        	adc	#$5
    4ccb: a8           	tay
    4ccc: a5 16        	lda	$16                     ; 0x2016 <dispatchAction+0x3ba>
    4cce: c9 06        	cmp	#$6
    4cd0: 90 07        	bcc	$4cd9 <opl3_setInstrument+0x18>
    4cd2: 18           	clc
    4cd3: 98           	tya
    4cd4: 69 05        	adc	#$5
    4cd6: a8           	tay
    4cd7: a5 16        	lda	$16                     ; 0x2016 <dispatchAction+0x3ba>
    4cd9: c9 09        	cmp	#$9
    4cdb: 64 14        	stz	$14                     ; 0x2014 <dispatchAction+0x3b8>
    4cdd: a2 01        	ldx	#$1
    4cdf: 90 12        	bcc	$4cf3 <opl3_setInstrument+0x32>
    4ce1: 86 15        	stx	$15                     ; 0x2015 <dispatchAction+0x3b9>
    4ce3: b0 14        	bcs	$4cf9 <opl3_setInstrument+0x38>
    4ce5: c9 0c        	cmp	#$c
    4ce7: b0 1f        	bcs	$4d08 <opl3_setInstrument+0x47>
    4ce9: c9 0f        	cmp	#$f
    4ceb: 90 26        	bcc	$4d13 <opl3_setInstrument+0x52>
    4ced: 18           	clc
    4cee: 98           	tya
    4cef: 69 05        	adc	#$5
    4cf1: 80 21        	bra	$4d14 <opl3_setInstrument+0x53>
    4cf3: a2 00        	ldx	#$0
    4cf5: 86 15        	stx	$15                     ; 0x2015 <dispatchAction+0x3b9>
    4cf7: 90 ec        	bcc	$4ce5 <opl3_setInstrument+0x24>
    4cf9: 18           	clc
    4cfa: 98           	tya
    4cfb: 69 ed        	adc	#$ed
    4cfd: a8           	tay
    4cfe: a5 16        	lda	$16                     ; 0x2016 <dispatchAction+0x3ba>
    4d00: a2 01        	ldx	#$1
    4d02: 86 14        	stx	$14                     ; 0x2014 <dispatchAction+0x3b8>
    4d04: c9 0c        	cmp	#$c
    4d06: 90 e1        	bcc	$4ce9 <opl3_setInstrument+0x28>
    4d08: 18           	clc
    4d09: 98           	tya
    4d0a: 69 05        	adc	#$5
    4d0c: a8           	tay
    4d0d: a5 16        	lda	$16                     ; 0x2016 <dispatchAction+0x3ba>
    4d0f: c9 0f        	cmp	#$f
    4d11: b0 da        	bcs	$4ced <opl3_setInstrument+0x2c>
    4d13: 98           	tya
    4d14: aa           	tax
    4d15: 09 20        	ora	#$20
    4d17: 85 17        	sta	$17                     ; 0x2017 <dispatchAction+0x3bb>
    4d19: a0 01        	ldy	#$1
    4d1b: b1 12        	lda	($12),y                 ; 0x2012 <dispatchAction+0x3b6>
    4d1d: a4 15        	ldy	$15                     ; 0x2015 <dispatchAction+0x3b9>
    4d1f: d0 07        	bne	$4d28 <opl3_setInstrument+0x67>
    4d21: a4 17        	ldy	$17                     ; 0x2017 <dispatchAction+0x3bb>
    4d23: 8c 80 d5     	sty	$d580                   ; 0xd580 <end_block9+0x628a>
    4d26: 80 05        	bra	$4d2d <opl3_setInstrument+0x6c>
    4d28: a4 17        	ldy	$17                     ; 0x2017 <dispatchAction+0x3bb>
    4d2a: 8c 82 d5     	sty	$d582                   ; 0xd582 <end_block9+0x628c>
    4d2d: 8d 81 d5     	sta	$d581                   ; 0xd581 <end_block9+0x628b>
    4d30: 18           	clc
    4d31: 8a           	txa
    4d32: 69 03        	adc	#$3
    4d34: a8           	tay
    4d35: a9 00        	lda	#$0
    4d37: 69 00        	adc	#$0
    4d39: 85 17        	sta	$17                     ; 0x2017 <dispatchAction+0x3bb>
    4d3b: 98           	tya
    4d3c: 84 16        	sty	$16                     ; 0x2016 <dispatchAction+0x3ba>
    4d3e: 09 20        	ora	#$20
    4d40: a8           	tay
    4d41: a5 17        	lda	$17                     ; 0x2017 <dispatchAction+0x3bb>
    4d43: 05 14        	ora	$14                     ; 0x2014 <dispatchAction+0x3b8>
    4d45: 85 14        	sta	$14                     ; 0x2014 <dispatchAction+0x3b8>
    4d47: b2 12        	lda	($12)                   ; 0x2012 <dispatchAction+0x3b6>
    4d49: 85 18        	sta	$18                     ; 0x2018 <dispatchAction+0x3bc>
    4d4b: a5 14        	lda	$14                     ; 0x2014 <dispatchAction+0x3b8>
    4d4d: c9 01        	cmp	#$1
    4d4f: 2c 0d 69     	bit	$690d                   ; 0x690d <__set_v>
    4d52: b0 01        	bcs	$4d55 <opl3_setInstrument+0x94>
    4d54: b8           	clv
    4d55: 5a           	phy
    4d56: a0 01        	ldy	#$1
    4d58: b0 02        	bcs	$4d5c <opl3_setInstrument+0x9b>
    4d5a: a0 00        	ldy	#$0
    4d5c: 84 17        	sty	$17                     ; 0x2017 <dispatchAction+0x3bb>
    4d5e: 7a           	ply
    4d5f: c9 01        	cmp	#$1
    4d61: d0 09        	bne	$4d6c <opl3_setInstrument+0xab>
    4d63: c0 00        	cpy	#$0
    4d65: 90 07        	bcc	$4d6e <opl3_setInstrument+0xad>
    4d67: 8c 82 d5     	sty	$d582                   ; 0xd582 <end_block9+0x628c>
    4d6a: 80 05        	bra	$4d71 <opl3_setInstrument+0xb0>
    4d6c: 70 f9        	bvs	$4d67 <opl3_setInstrument+0xa6>
    4d6e: 8c 80 d5     	sty	$d580                   ; 0xd580 <end_block9+0x628a>
    4d71: a4 18        	ldy	$18                     ; 0x2018 <dispatchAction+0x3bc>
    4d73: 8c 81 d5     	sty	$d581                   ; 0xd581 <end_block9+0x628b>
    4d76: 8a           	txa
    4d77: 09 40        	ora	#$40
    4d79: 85 19        	sta	$19                     ; 0x2019 <dispatchAction+0x3bd>
    4d7b: a0 03        	ldy	#$3
    4d7d: b1 12        	lda	($12),y                 ; 0x2012 <dispatchAction+0x3b6>
    4d7f: a4 15        	ldy	$15                     ; 0x2015 <dispatchAction+0x3b9>
    4d81: d0 07        	bne	$4d8a <opl3_setInstrument+0xc9>
    4d83: a4 19        	ldy	$19                     ; 0x2019 <dispatchAction+0x3bd>
    4d85: 8c 80 d5     	sty	$d580                   ; 0xd580 <end_block9+0x628a>
    4d88: 80 05        	bra	$4d8f <opl3_setInstrument+0xce>
    4d8a: a4 19        	ldy	$19                     ; 0x2019 <dispatchAction+0x3bd>
    4d8c: 8c 82 d5     	sty	$d582                   ; 0xd582 <end_block9+0x628c>
    4d8f: 8d 81 d5     	sta	$d581                   ; 0xd581 <end_block9+0x628b>
    4d92: a5 16        	lda	$16                     ; 0x2016 <dispatchAction+0x3ba>
    4d94: 09 40        	ora	#$40
    4d96: 85 19        	sta	$19                     ; 0x2019 <dispatchAction+0x3bd>
    4d98: a0 02        	ldy	#$2
    4d9a: b1 12        	lda	($12),y                 ; 0x2012 <dispatchAction+0x3b6>
    4d9c: 85 18        	sta	$18                     ; 0x2018 <dispatchAction+0x3bc>
    4d9e: a4 14        	ldy	$14                     ; 0x2014 <dispatchAction+0x3b8>
    4da0: c0 01        	cpy	#$1
    4da2: d0 0b        	bne	$4daf <opl3_setInstrument+0xee>
    4da4: a5 19        	lda	$19                     ; 0x2019 <dispatchAction+0x3bd>
    4da6: c9 00        	cmp	#$0
    4da8: 90 0b        	bcc	$4db5 <opl3_setInstrument+0xf4>
    4daa: 8d 82 d5     	sta	$d582                   ; 0xd582 <end_block9+0x628c>
    4dad: 80 09        	bra	$4db8 <opl3_setInstrument+0xf7>
    4daf: a5 19        	lda	$19                     ; 0x2019 <dispatchAction+0x3bd>
    4db1: a4 17        	ldy	$17                     ; 0x2017 <dispatchAction+0x3bb>
    4db3: d0 f5        	bne	$4daa <opl3_setInstrument+0xe9>
    4db5: 8d 80 d5     	sta	$d580                   ; 0xd580 <end_block9+0x628a>
    4db8: a4 18        	ldy	$18                     ; 0x2018 <dispatchAction+0x3bc>
    4dba: 8c 81 d5     	sty	$d581                   ; 0xd581 <end_block9+0x628b>
    4dbd: 8a           	txa
    4dbe: 09 60        	ora	#$60
    4dc0: 85 19        	sta	$19                     ; 0x2019 <dispatchAction+0x3bd>
    4dc2: a0 05        	ldy	#$5
    4dc4: b1 12        	lda	($12),y                 ; 0x2012 <dispatchAction+0x3b6>
    4dc6: a4 15        	ldy	$15                     ; 0x2015 <dispatchAction+0x3b9>
    4dc8: d0 07        	bne	$4dd1 <opl3_setInstrument+0x110>
    4dca: a4 19        	ldy	$19                     ; 0x2019 <dispatchAction+0x3bd>
    4dcc: 8c 80 d5     	sty	$d580                   ; 0xd580 <end_block9+0x628a>
    4dcf: 80 05        	bra	$4dd6 <opl3_setInstrument+0x115>
    4dd1: a4 19        	ldy	$19                     ; 0x2019 <dispatchAction+0x3bd>
    4dd3: 8c 82 d5     	sty	$d582                   ; 0xd582 <end_block9+0x628c>
    4dd6: 8d 81 d5     	sta	$d581                   ; 0xd581 <end_block9+0x628b>
    4dd9: a5 16        	lda	$16                     ; 0x2016 <dispatchAction+0x3ba>
    4ddb: 09 60        	ora	#$60
    4ddd: 85 19        	sta	$19                     ; 0x2019 <dispatchAction+0x3bd>
    4ddf: a0 04        	ldy	#$4
    4de1: b1 12        	lda	($12),y                 ; 0x2012 <dispatchAction+0x3b6>
    4de3: 85 18        	sta	$18                     ; 0x2018 <dispatchAction+0x3bc>
    4de5: a4 14        	ldy	$14                     ; 0x2014 <dispatchAction+0x3b8>
    4de7: c0 01        	cpy	#$1
    4de9: d0 0b        	bne	$4df6 <opl3_setInstrument+0x135>
    4deb: a5 19        	lda	$19                     ; 0x2019 <dispatchAction+0x3bd>
    4ded: c9 00        	cmp	#$0
    4def: 90 0b        	bcc	$4dfc <opl3_setInstrument+0x13b>
    4df1: 8d 82 d5     	sta	$d582                   ; 0xd582 <end_block9+0x628c>
    4df4: 80 09        	bra	$4dff <opl3_setInstrument+0x13e>
    4df6: a5 19        	lda	$19                     ; 0x2019 <dispatchAction+0x3bd>
    4df8: a4 17        	ldy	$17                     ; 0x2017 <dispatchAction+0x3bb>
    4dfa: d0 f5        	bne	$4df1 <opl3_setInstrument+0x130>
    4dfc: 8d 80 d5     	sta	$d580                   ; 0xd580 <end_block9+0x628a>
    4dff: a4 18        	ldy	$18                     ; 0x2018 <dispatchAction+0x3bc>
    4e01: 8c 81 d5     	sty	$d581                   ; 0xd581 <end_block9+0x628b>
    4e04: 8a           	txa
    4e05: 09 80        	ora	#$80
    4e07: 85 19        	sta	$19                     ; 0x2019 <dispatchAction+0x3bd>
    4e09: a0 07        	ldy	#$7
    4e0b: b1 12        	lda	($12),y                 ; 0x2012 <dispatchAction+0x3b6>
    4e0d: a4 15        	ldy	$15                     ; 0x2015 <dispatchAction+0x3b9>
    4e0f: d0 07        	bne	$4e18 <opl3_setInstrument+0x157>
    4e11: a4 19        	ldy	$19                     ; 0x2019 <dispatchAction+0x3bd>
    4e13: 8c 80 d5     	sty	$d580                   ; 0xd580 <end_block9+0x628a>
    4e16: 80 05        	bra	$4e1d <opl3_setInstrument+0x15c>
    4e18: a4 19        	ldy	$19                     ; 0x2019 <dispatchAction+0x3bd>
    4e1a: 8c 82 d5     	sty	$d582                   ; 0xd582 <end_block9+0x628c>
    4e1d: 8d 81 d5     	sta	$d581                   ; 0xd581 <end_block9+0x628b>
    4e20: a5 16        	lda	$16                     ; 0x2016 <dispatchAction+0x3ba>
    4e22: 09 80        	ora	#$80
    4e24: 85 19        	sta	$19                     ; 0x2019 <dispatchAction+0x3bd>
    4e26: a0 06        	ldy	#$6
    4e28: b1 12        	lda	($12),y                 ; 0x2012 <dispatchAction+0x3b6>
    4e2a: 85 18        	sta	$18                     ; 0x2018 <dispatchAction+0x3bc>
    4e2c: a4 14        	ldy	$14                     ; 0x2014 <dispatchAction+0x3b8>
    4e2e: c0 01        	cpy	#$1
    4e30: d0 0b        	bne	$4e3d <opl3_setInstrument+0x17c>
    4e32: a5 19        	lda	$19                     ; 0x2019 <dispatchAction+0x3bd>
    4e34: c9 00        	cmp	#$0
    4e36: 90 0b        	bcc	$4e43 <opl3_setInstrument+0x182>
    4e38: 8d 82 d5     	sta	$d582                   ; 0xd582 <end_block9+0x628c>
    4e3b: 80 09        	bra	$4e46 <opl3_setInstrument+0x185>
    4e3d: a5 19        	lda	$19                     ; 0x2019 <dispatchAction+0x3bd>
    4e3f: a4 17        	ldy	$17                     ; 0x2017 <dispatchAction+0x3bb>
    4e41: d0 f5        	bne	$4e38 <opl3_setInstrument+0x177>
    4e43: 8d 80 d5     	sta	$d580                   ; 0xd580 <end_block9+0x628a>
    4e46: a4 18        	ldy	$18                     ; 0x2018 <dispatchAction+0x3bc>
    4e48: 8c 81 d5     	sty	$d581                   ; 0xd581 <end_block9+0x628b>
    4e4b: 8a           	txa
    4e4c: 09 e0        	ora	#$e0
    4e4e: aa           	tax
    4e4f: a0 09        	ldy	#$9
    4e51: b1 12        	lda	($12),y                 ; 0x2012 <dispatchAction+0x3b6>
    4e53: a4 15        	ldy	$15                     ; 0x2015 <dispatchAction+0x3b9>
    4e55: d0 05        	bne	$4e5c <opl3_setInstrument+0x19b>
    4e57: 8e 80 d5     	stx	$d580                   ; 0xd580 <end_block9+0x628a>
    4e5a: 80 03        	bra	$4e5f <opl3_setInstrument+0x19e>
    4e5c: 8e 82 d5     	stx	$d582                   ; 0xd582 <end_block9+0x628c>
    4e5f: 8d 81 d5     	sta	$d581                   ; 0xd581 <end_block9+0x628b>
    4e62: a5 16        	lda	$16                     ; 0x2016 <dispatchAction+0x3ba>
    4e64: 09 e0        	ora	#$e0
    4e66: 85 15        	sta	$15                     ; 0x2015 <dispatchAction+0x3b9>
    4e68: a0 08        	ldy	#$8
    4e6a: b1 12        	lda	($12),y                 ; 0x2012 <dispatchAction+0x3b6>
    4e6c: a6 14        	ldx	$14                     ; 0x2014 <dispatchAction+0x3b8>
    4e6e: e0 01        	cpx	#$1
    4e70: d0 0d        	bne	$4e7f <opl3_setInstrument+0x1be>
    4e72: a6 15        	ldx	$15                     ; 0x2015 <dispatchAction+0x3b9>
    4e74: e0 00        	cpx	#$0
    4e76: 90 0d        	bcc	$4e85 <opl3_setInstrument+0x1c4>
    4e78: 8e 82 d5     	stx	$d582                   ; 0xd582 <end_block9+0x628c>
    4e7b: 8d 81 d5     	sta	$d581                   ; 0xd581 <end_block9+0x628b>
    4e7e: 60           	rts
    4e7f: a6 15        	ldx	$15                     ; 0x2015 <dispatchAction+0x3b9>
    4e81: a4 17        	ldy	$17                     ; 0x2017 <dispatchAction+0x3bb>
    4e83: d0 f3        	bne	$4e78 <opl3_setInstrument+0x1b7>
    4e85: 8e 80 d5     	stx	$d580                   ; 0xd580 <end_block9+0x628a>
    4e88: 8d 81 d5     	sta	$d581                   ; 0xd581 <end_block9+0x628b>
    4e8b: 60           	rts

00004e8c <opl3_setInstrumentAllChannels>:
    4e8c: 85 e3        	sta	$e3                     ; 0x20e3 <dispatchAction+0x487>
    4e8e: a2 0b        	ldx	#$b
    4e90: 86 12        	stx	$12                     ; 0x2012 <dispatchAction+0x3b6>
    4e92: 64 13        	stz	$13                     ; 0x2013 <dispatchAction+0x3b7>
    4e94: a2 00        	ldx	#$0
    4e96: 20 d0 66     	jsr	$66d0 <__mulhi3>
    4e99: 85 12        	sta	$12                     ; 0x2012 <dispatchAction+0x3b6>
    4e9b: 86 13        	stx	$13                     ; 0x2013 <dispatchAction+0x3b7>
    4e9d: a9 ae        	lda	#$ae
    4e9f: 18           	clc
    4ea0: 65 12        	adc	$12                     ; 0x2012 <dispatchAction+0x3b6>
    4ea2: 85 e5        	sta	$e5                     ; 0x20e5 <dispatchAction+0x489>
    4ea4: a9 6c        	lda	#$6c
    4ea6: 65 13        	adc	$13                     ; 0x2013 <dispatchAction+0x3b7>
    4ea8: 85 e6        	sta	$e6                     ; 0x20e6 <dispatchAction+0x48a>
    4eaa: a2 eb        	ldx	#$eb
    4eac: a0 72        	ldy	#$72
    4eae: 86 e7        	stx	$e7                     ; 0x20e7 <dispatchAction+0x48b>
    4eb0: 84 e8        	sty	$e8                     ; 0x20e8 <dispatchAction+0x48c>
    4eb2: 64 e4        	stz	$e4                     ; 0x20e4 <dispatchAction+0x488>
    4eb4: a6 e7        	ldx	$e7                     ; 0x20e7 <dispatchAction+0x48b>
    4eb6: 86 12        	stx	$12                     ; 0x2012 <dispatchAction+0x3b6>
    4eb8: a6 e8        	ldx	$e8                     ; 0x20e8 <dispatchAction+0x48c>
    4eba: 86 13        	stx	$13                     ; 0x2013 <dispatchAction+0x3b7>
    4ebc: a6 e5        	ldx	$e5                     ; 0x20e5 <dispatchAction+0x489>
    4ebe: 86 14        	stx	$14                     ; 0x2014 <dispatchAction+0x3b8>
    4ec0: a6 e6        	ldx	$e6                     ; 0x20e6 <dispatchAction+0x48a>
    4ec2: 86 15        	stx	$15                     ; 0x2015 <dispatchAction+0x3b9>
    4ec4: a2 00        	ldx	#$0
    4ec6: a9 0b        	lda	#$b
    4ec8: 20 f0 65     	jsr	$65f0 <memcpy>
    4ecb: a6 e7        	ldx	$e7                     ; 0x20e7 <dispatchAction+0x48b>
    4ecd: 86 12        	stx	$12                     ; 0x2012 <dispatchAction+0x3b6>
    4ecf: a6 e8        	ldx	$e8                     ; 0x20e8 <dispatchAction+0x48c>
    4ed1: 86 13        	stx	$13                     ; 0x2013 <dispatchAction+0x3b7>
    4ed3: a5 e4        	lda	$e4                     ; 0x20e4 <dispatchAction+0x488>
    4ed5: 20 c1 4c     	jsr	$4cc1 <opl3_setInstrument>
    4ed8: a0 0a        	ldy	#$a
    4eda: b1 e5        	lda	($e5),y                 ; 0x20e5 <dispatchAction+0x489>
    4edc: 85 12        	sta	$12                     ; 0x2012 <dispatchAction+0x3b6>
    4ede: a6 e4        	ldx	$e4                     ; 0x20e4 <dispatchAction+0x488>
    4ee0: a5 e4        	lda	$e4                     ; 0x20e4 <dispatchAction+0x488>
    4ee2: 18           	clc
    4ee3: 69 c0        	adc	#$c0
    4ee5: 8d 80 d5     	sta	$d580                   ; 0xd580 <end_block9+0x628a>
    4ee8: a4 12        	ldy	$12                     ; 0x2012 <dispatchAction+0x3b6>
    4eea: 8c 81 d5     	sty	$d581                   ; 0xd581 <end_block9+0x628b>
    4eed: e8           	inx
    4eee: 86 e4        	stx	$e4                     ; 0x20e4 <dispatchAction+0x488>
    4ef0: e0 09        	cpx	#$9
    4ef2: d0 c0        	bne	$4eb4 <opl3_setInstrumentAllChannels+0x28>
    4ef4: a2 0b        	ldx	#$b
    4ef6: 86 12        	stx	$12                     ; 0x2012 <dispatchAction+0x3b6>
    4ef8: 64 13        	stz	$13                     ; 0x2013 <dispatchAction+0x3b7>
    4efa: a2 00        	ldx	#$0
    4efc: a5 e3        	lda	$e3                     ; 0x20e3 <dispatchAction+0x487>
    4efe: 20 d0 66     	jsr	$66d0 <__mulhi3>
    4f01: 85 12        	sta	$12                     ; 0x2012 <dispatchAction+0x3b6>
    4f03: 86 13        	stx	$13                     ; 0x2013 <dispatchAction+0x3b7>
    4f05: a9 ae        	lda	#$ae
    4f07: 18           	clc
    4f08: 65 12        	adc	$12                     ; 0x2012 <dispatchAction+0x3b6>
    4f0a: 85 e3        	sta	$e3                     ; 0x20e3 <dispatchAction+0x487>
    4f0c: a9 6c        	lda	#$6c
    4f0e: 65 13        	adc	$13                     ; 0x2013 <dispatchAction+0x3b7>
    4f10: 85 e4        	sta	$e4                     ; 0x20e4 <dispatchAction+0x488>
    4f12: a2 09        	ldx	#$9
    4f14: 86 e9        	stx	$e9                     ; 0x20e9 <dispatchAction+0x48d>
    4f16: a2 eb        	ldx	#$eb
    4f18: a0 72        	ldy	#$72
    4f1a: 86 e5        	stx	$e5                     ; 0x20e5 <dispatchAction+0x489>
    4f1c: 84 e6        	sty	$e6                     ; 0x20e6 <dispatchAction+0x48a>
    4f1e: a6 e5        	ldx	$e5                     ; 0x20e5 <dispatchAction+0x489>
    4f20: 86 12        	stx	$12                     ; 0x2012 <dispatchAction+0x3b6>
    4f22: a6 e6        	ldx	$e6                     ; 0x20e6 <dispatchAction+0x48a>
    4f24: 86 13        	stx	$13                     ; 0x2013 <dispatchAction+0x3b7>
    4f26: a6 e3        	ldx	$e3                     ; 0x20e3 <dispatchAction+0x487>
    4f28: 86 14        	stx	$14                     ; 0x2014 <dispatchAction+0x3b8>
    4f2a: a6 e4        	ldx	$e4                     ; 0x20e4 <dispatchAction+0x488>
    4f2c: 86 15        	stx	$15                     ; 0x2015 <dispatchAction+0x3b9>
    4f2e: a2 00        	ldx	#$0
    4f30: a9 0b        	lda	#$b
    4f32: 20 f0 65     	jsr	$65f0 <memcpy>
    4f35: a6 e5        	ldx	$e5                     ; 0x20e5 <dispatchAction+0x489>
    4f37: 86 12        	stx	$12                     ; 0x2012 <dispatchAction+0x3b6>
    4f39: a6 e6        	ldx	$e6                     ; 0x20e6 <dispatchAction+0x48a>
    4f3b: 86 13        	stx	$13                     ; 0x2013 <dispatchAction+0x3b7>
    4f3d: a5 e9        	lda	$e9                     ; 0x20e9 <dispatchAction+0x48d>
    4f3f: 85 e7        	sta	$e7                     ; 0x20e7 <dispatchAction+0x48b>
    4f41: 20 c1 4c     	jsr	$4cc1 <opl3_setInstrument>
    4f44: a5 e7        	lda	$e7                     ; 0x20e7 <dispatchAction+0x48b>
    4f46: 18           	clc
    4f47: 69 b7        	adc	#$b7
    4f49: aa           	tax
    4f4a: a0 0a        	ldy	#$a
    4f4c: b1 e3        	lda	($e3),y                 ; 0x20e3 <dispatchAction+0x487>
    4f4e: 8e 82 d5     	stx	$d582                   ; 0xd582 <end_block9+0x628c>
    4f51: 8d 81 d5     	sta	$d581                   ; 0xd581 <end_block9+0x628b>
    4f54: a6 e7        	ldx	$e7                     ; 0x20e7 <dispatchAction+0x48b>
    4f56: e8           	inx
    4f57: 86 e9        	stx	$e9                     ; 0x20e9 <dispatchAction+0x48d>
    4f59: e0 12        	cpx	#$12
    4f5b: d0 c1        	bne	$4f1e <opl3_setInstrumentAllChannels+0x92>
    4f5d: 60           	rts

00004f5e <opl3_note>:
    4f5e: 86 19        	stx	$19                     ; 0x2019 <dispatchAction+0x3bd>
    4f60: c9 09        	cmp	#$9
    4f62: 64 17        	stz	$17                     ; 0x2017 <dispatchAction+0x3bb>
    4f64: 64 15        	stz	$15                     ; 0x2015 <dispatchAction+0x3b9>
    4f66: 64 16        	stz	$16                     ; 0x2016 <dispatchAction+0x3ba>
    4f68: 90 08        	bcc	$4f72 <opl3_note+0x14>
    4f6a: a2 09        	ldx	#$9
    4f6c: a0 01        	ldy	#$1
    4f6e: 84 17        	sty	$17                     ; 0x2017 <dispatchAction+0x3bb>
    4f70: 86 15        	stx	$15                     ; 0x2015 <dispatchAction+0x3b9>
    4f72: 38           	sec
    4f73: e5 15        	sbc	$15                     ; 0x2015 <dispatchAction+0x3b9>
    4f75: aa           	tax
    4f76: a9 00        	lda	#$0
    4f78: e5 16        	sbc	$16                     ; 0x2016 <dispatchAction+0x3ba>
    4f7a: 05 17        	ora	$17                     ; 0x2017 <dispatchAction+0x3bb>
    4f7c: 85 16        	sta	$16                     ; 0x2016 <dispatchAction+0x3ba>
    4f7e: c9 01        	cmp	#$1
    4f80: a0 01        	ldy	#$1
    4f82: b0 02        	bcs	$4f86 <opl3_note+0x28>
    4f84: a0 00        	ldy	#$0
    4f86: 84 17        	sty	$17                     ; 0x2017 <dispatchAction+0x3bb>
    4f88: 8a           	txa
    4f89: 09 a0        	ora	#$a0
    4f8b: 86 15        	stx	$15                     ; 0x2015 <dispatchAction+0x3b9>
    4f8d: e0 00        	cpx	#$0
    4f8f: a2 01        	ldx	#$1
    4f91: b0 02        	bcs	$4f95 <opl3_note+0x37>
    4f93: a2 00        	ldx	#$0
    4f95: 86 18        	stx	$18                     ; 0x2018 <dispatchAction+0x3bc>
    4f97: a4 16        	ldy	$16                     ; 0x2016 <dispatchAction+0x3ba>
    4f99: c0 01        	cpy	#$1
    4f9b: d0 09        	bne	$4fa6 <opl3_note+0x48>
    4f9d: a6 18        	ldx	$18                     ; 0x2018 <dispatchAction+0x3bc>
    4f9f: f0 09        	beq	$4faa <opl3_note+0x4c>
    4fa1: 8d 82 d5     	sta	$d582                   ; 0xd582 <end_block9+0x628c>
    4fa4: 80 07        	bra	$4fad <opl3_note+0x4f>
    4fa6: a6 17        	ldx	$17                     ; 0x2017 <dispatchAction+0x3bb>
    4fa8: d0 f7        	bne	$4fa1 <opl3_note+0x43>
    4faa: 8d 80 d5     	sta	$d580                   ; 0xd580 <end_block9+0x628a>
    4fad: a6 19        	ldx	$19                     ; 0x2019 <dispatchAction+0x3bd>
    4faf: 8e 81 d5     	stx	$d581                   ; 0xd581 <end_block9+0x628b>
    4fb2: a5 15        	lda	$15                     ; 0x2015 <dispatchAction+0x3b9>
    4fb4: 09 b0        	ora	#$b0
    4fb6: a6 16        	ldx	$16                     ; 0x2016 <dispatchAction+0x3ba>
    4fb8: e0 01        	cpx	#$1
    4fba: d0 0a        	bne	$4fc6 <opl3_note+0x68>
    4fbc: a6 18        	ldx	$18                     ; 0x2018 <dispatchAction+0x3bc>
    4fbe: f0 0a        	beq	$4fca <opl3_note+0x6c>
    4fc0: aa           	tax
    4fc1: 8e 82 d5     	stx	$d582                   ; 0xd582 <end_block9+0x628c>
    4fc4: 80 08        	bra	$4fce <opl3_note+0x70>
    4fc6: a6 17        	ldx	$17                     ; 0x2017 <dispatchAction+0x3bb>
    4fc8: d0 f6        	bne	$4fc0 <opl3_note+0x62>
    4fca: aa           	tax
    4fcb: 8e 80 d5     	stx	$d580                   ; 0xd580 <end_block9+0x628a>
    4fce: a5 12        	lda	$12                     ; 0x2012 <dispatchAction+0x3b6>
    4fd0: 29 03        	and	#$3
    4fd2: 85 12        	sta	$12                     ; 0x2012 <dispatchAction+0x3b6>
    4fd4: a5 13        	lda	$13                     ; 0x2013 <dispatchAction+0x3b7>
    4fd6: 0a           	asl
    4fd7: 0a           	asl
    4fd8: 05 12        	ora	$12                     ; 0x2012 <dispatchAction+0x3b6>
    4fda: a6 14        	ldx	$14                     ; 0x2014 <dispatchAction+0x3b8>
    4fdc: f0 06        	beq	$4fe4 <opl3_note+0x86>
    4fde: a2 20        	ldx	#$20
    4fe0: 86 12        	stx	$12                     ; 0x2012 <dispatchAction+0x3b6>
    4fe2: 80 02        	bra	$4fe6 <opl3_note+0x88>
    4fe4: 64 12        	stz	$12                     ; 0x2012 <dispatchAction+0x3b6>
    4fe6: 05 12        	ora	$12                     ; 0x2012 <dispatchAction+0x3b6>
    4fe8: 8d 81 d5     	sta	$d581                   ; 0xd581 <end_block9+0x628b>
    4feb: 60           	rts

00004fec <psgNoteOn>:
    4fec: 85 16        	sta	$16                     ; 0x2016 <dispatchAction+0x3ba>
    4fee: 86 18        	stx	$18                     ; 0x2018 <dispatchAction+0x3bc>
    4ff0: a6 12        	ldx	$12                     ; 0x2012 <dispatchAction+0x3b6>
    4ff2: 86 19        	stx	$19                     ; 0x2019 <dispatchAction+0x3bd>
    4ff4: a5 15        	lda	$15                     ; 0x2015 <dispatchAction+0x3b9>
    4ff6: 4a           	lsr
    4ff7: 4a           	lsr
    4ff8: 4a           	lsr
    4ff9: 49 0f        	eor	#$f
    4ffb: 05 16        	ora	$16                     ; 0x2016 <dispatchAction+0x3ba>
    4ffd: 09 90        	ora	#$90
    4fff: 92 18        	sta	($18)                   ; 0x2018 <dispatchAction+0x3bc>
    5001: a5 13        	lda	$13                     ; 0x2013 <dispatchAction+0x3b7>
    5003: 05 16        	ora	$16                     ; 0x2016 <dispatchAction+0x3ba>
    5005: 92 18        	sta	($18)                   ; 0x2018 <dispatchAction+0x3bc>
    5007: a5 14        	lda	$14                     ; 0x2014 <dispatchAction+0x3b8>
    5009: 92 18        	sta	($18)                   ; 0x2018 <dispatchAction+0x3bc>
    500b: 60           	rts

0000500c <psgNoteOff>:
    500c: 86 14        	stx	$14                     ; 0x2014 <dispatchAction+0x3b8>
    500e: a6 12        	ldx	$12                     ; 0x2012 <dispatchAction+0x3b6>
    5010: 86 15        	stx	$15                     ; 0x2015 <dispatchAction+0x3b9>
    5012: 09 9f        	ora	#$9f
    5014: 92 14        	sta	($14)                   ; 0x2014 <dispatchAction+0x3b8>
    5016: 60           	rts

00005017 <setMonoPSG>:
    5017: ad a1 d6     	lda	$d6a1                   ; 0xd6a1 <end_block9+0x63ab>
    501a: 29 fb        	and	#$fb
    501c: 8d a1 d6     	sta	$d6a1                   ; 0xd6a1 <end_block9+0x63ab>
    501f: 60           	rts

00005020 <fetchCtrl>:
    5020: a2 0b        	ldx	#$b
    5022: 86 12        	stx	$12                     ; 0x2012 <dispatchAction+0x3b6>
    5024: 64 13        	stz	$13                     ; 0x2013 <dispatchAction+0x3b7>
    5026: a2 00        	ldx	#$0
    5028: 20 d0 66     	jsr	$66d0 <__mulhi3>
    502b: 85 12        	sta	$12                     ; 0x2012 <dispatchAction+0x3b6>
    502d: 86 13        	stx	$13                     ; 0x2013 <dispatchAction+0x3b7>
    502f: a9 b9        	lda	#$b9
    5031: 18           	clc
    5032: 65 12        	adc	$12                     ; 0x2012 <dispatchAction+0x3b6>
    5034: 85 12        	sta	$12                     ; 0x2012 <dispatchAction+0x3b6>
    5036: a9 6c        	lda	#$6c
    5038: 65 13        	adc	$13                     ; 0x2013 <dispatchAction+0x3b7>
    503a: 85 13        	sta	$13                     ; 0x2013 <dispatchAction+0x3b7>
    503c: a0 05        	ldy	#$5
    503e: b1 12        	lda	($12),y                 ; 0x2012 <dispatchAction+0x3b6>
    5040: 60           	rts

00005041 <clearSIDRegisters>:
    5041: a2 d4        	ldx	#$d4
    5043: a0 00        	ldy	#$0
    5045: 18           	clc
    5046: 98           	tya
    5047: 69 00        	adc	#$0
    5049: 85 14        	sta	$14                     ; 0x2014 <dispatchAction+0x3b8>
    504b: 8a           	txa
    504c: 69 01        	adc	#$1
    504e: 85 15        	sta	$15                     ; 0x2015 <dispatchAction+0x3b9>
    5050: 84 12        	sty	$12                     ; 0x2012 <dispatchAction+0x3b6>
    5052: 86 13        	stx	$13                     ; 0x2013 <dispatchAction+0x3b7>
    5054: a9 00        	lda	#$0
    5056: 92 12        	sta	($12)                   ; 0x2012 <dispatchAction+0x3b6>
    5058: 5a           	phy
    5059: a4 14        	ldy	$14                     ; 0x2014 <dispatchAction+0x3b8>
    505b: 84 12        	sty	$12                     ; 0x2012 <dispatchAction+0x3b6>
    505d: a4 15        	ldy	$15                     ; 0x2015 <dispatchAction+0x3b9>
    505f: 84 13        	sty	$13                     ; 0x2013 <dispatchAction+0x3b7>
    5061: 7a           	ply
    5062: 92 12        	sta	($12)                   ; 0x2012 <dispatchAction+0x3b6>
    5064: c8           	iny
    5065: d0 01        	bne	$5068 <clearSIDRegisters+0x27>
    5067: e8           	inx
    5068: c0 19        	cpy	#$19
    506a: d0 d9        	bne	$5045 <clearSIDRegisters+0x4>
    506c: 60           	rts

0000506d <sidNoteOnOrOff>:
    506d: 85 14        	sta	$14                     ; 0x2014 <dispatchAction+0x3b8>
    506f: 86 15        	stx	$15                     ; 0x2015 <dispatchAction+0x3b9>
    5071: a5 12        	lda	$12                     ; 0x2012 <dispatchAction+0x3b6>
    5073: a6 13        	ldx	$13                     ; 0x2013 <dispatchAction+0x3b7>
    5075: f0 05        	beq	$507c <sidNoteOnOrOff+0xf>
    5077: 09 01        	ora	#$1
    5079: 92 14        	sta	($14)                   ; 0x2014 <dispatchAction+0x3b8>
    507b: 60           	rts
    507c: 29 fe        	and	#$fe
    507e: 92 14        	sta	($14)                   ; 0x2014 <dispatchAction+0x3b8>
    5080: 60           	rts

00005081 <sid_setCTRL>:
    5081: 8d 04 d4     	sta	$d404                   ; 0xd404 <end_block9+0x610e>
    5084: 8d 0b d4     	sta	$d40b                   ; 0xd40b <end_block9+0x6115>
    5087: 8d 12 d4     	sta	$d412                   ; 0xd412 <end_block9+0x611c>
    508a: 8d 04 d5     	sta	$d504                   ; 0xd504 <end_block9+0x620e>
    508d: 8d 0b d5     	sta	$d50b                   ; 0xd50b <end_block9+0x6215>
    5090: 8d 12 d5     	sta	$d512                   ; 0xd512 <end_block9+0x621c>
    5093: 60           	rts

00005094 <sid_setPWM>:
    5094: 8d 02 d4     	sta	$d402                   ; 0xd402 <end_block9+0x610c>
    5097: 8d 09 d4     	sta	$d409                   ; 0xd409 <end_block9+0x6113>
    509a: 8d 10 d4     	sta	$d410                   ; 0xd410 <end_block9+0x611a>
    509d: 8d 02 d5     	sta	$d502                   ; 0xd502 <end_block9+0x620c>
    50a0: 8d 09 d5     	sta	$d509                   ; 0xd509 <end_block9+0x6213>
    50a3: 8d 10 d5     	sta	$d510                   ; 0xd510 <end_block9+0x621a>
    50a6: 8e 03 d4     	stx	$d403                   ; 0xd403 <end_block9+0x610d>
    50a9: 8e 0a d4     	stx	$d40a                   ; 0xd40a <end_block9+0x6114>
    50ac: 8e 11 d4     	stx	$d411                   ; 0xd411 <end_block9+0x611b>
    50af: 8e 03 d5     	stx	$d503                   ; 0xd503 <end_block9+0x620d>
    50b2: 8e 0a d5     	stx	$d50a                   ; 0xd50a <end_block9+0x6214>
    50b5: 8e 11 d5     	stx	$d511                   ; 0xd511 <end_block9+0x621b>
    50b8: 60           	rts

000050b9 <sid_setFF>:
    50b9: 8d 14 d4     	sta	$d414                   ; 0xd414 <end_block9+0x611e>
    50bc: 8d 1b d4     	sta	$d41b                   ; 0xd41b <end_block9+0x6125>
    50bf: 8d 22 d4     	sta	$d422                   ; 0xd422 <end_block9+0x612c>
    50c2: 8d 14 d5     	sta	$d514                   ; 0xd514 <end_block9+0x621e>
    50c5: 8d 1b d5     	sta	$d51b                   ; 0xd51b <end_block9+0x6225>
    50c8: 8d 22 d5     	sta	$d522                   ; 0xd522 <end_block9+0x622c>
    50cb: 8e 15 d4     	stx	$d415                   ; 0xd415 <end_block9+0x611f>
    50ce: 8e 1c d4     	stx	$d41c                   ; 0xd41c <end_block9+0x6126>
    50d1: 8e 23 d4     	stx	$d423                   ; 0xd423 <end_block9+0x612d>
    50d4: 8e 15 d5     	stx	$d515                   ; 0xd515 <end_block9+0x621f>
    50d7: 8e 1c d5     	stx	$d51c                   ; 0xd51c <end_block9+0x6226>
    50da: 8e 23 d5     	stx	$d523                   ; 0xd523 <end_block9+0x622d>
    50dd: 60           	rts

000050de <sid_setModVol>:
    50de: 8d 18 d4     	sta	$d418                   ; 0xd418 <end_block9+0x6122>
    50e1: 8d 18 d5     	sta	$d518                   ; 0xd518 <end_block9+0x6222>
    50e4: 60           	rts

000050e5 <sid_setFILT>:
    50e5: 8d 17 d4     	sta	$d417                   ; 0xd417 <end_block9+0x6121>
    50e8: 8d 17 d5     	sta	$d517                   ; 0xd517 <end_block9+0x6221>
    50eb: 60           	rts

000050ec <sid_adsr>:
    50ec: 8d 05 d4     	sta	$d405                   ; 0xd405 <end_block9+0x610f>
    50ef: 8d 0c d4     	sta	$d40c                   ; 0xd40c <end_block9+0x6116>
    50f2: 8d 13 d4     	sta	$d413                   ; 0xd413 <end_block9+0x611d>
    50f5: 8d 05 d5     	sta	$d505                   ; 0xd505 <end_block9+0x620f>
    50f8: 8d 0c d5     	sta	$d50c                   ; 0xd50c <end_block9+0x6216>
    50fb: 8d 13 d5     	sta	$d513                   ; 0xd513 <end_block9+0x621d>
    50fe: 8e 06 d4     	stx	$d406                   ; 0xd406 <end_block9+0x6110>
    5101: 8e 0d d4     	stx	$d40d                   ; 0xd40d <end_block9+0x6117>
    5104: 8e 14 d4     	stx	$d414                   ; 0xd414 <end_block9+0x611e>
    5107: 8e 06 d5     	stx	$d506                   ; 0xd506 <end_block9+0x6210>
    510a: 8e 0d d5     	stx	$d50d                   ; 0xd50d <end_block9+0x6217>
    510d: 8e 14 d5     	stx	$d514                   ; 0xd514 <end_block9+0x621e>
    5110: 60           	rts

00005111 <sid_set_all>:
    5111: 64 14        	stz	$14                     ; 0x2014 <dispatchAction+0x3b8>
    5113: a0 01        	ldy	#$1
    5115: b1 12        	lda	($12),y                 ; 0x2012 <dispatchAction+0x3b6>
    5117: 85 15        	sta	$15                     ; 0x2015 <dispatchAction+0x3b9>
    5119: c8           	iny
    511a: b1 12        	lda	($12),y                 ; 0x2012 <dispatchAction+0x3b6>
    511c: 85 22        	sta	$22                     ; 0x2022 <dispatchAction+0x3c6>
    511e: c8           	iny
    511f: b1 12        	lda	($12),y                 ; 0x2012 <dispatchAction+0x3b6>
    5121: 85 23        	sta	$23                     ; 0x2023 <dispatchAction+0x3c7>
    5123: c8           	iny
    5124: b1 12        	lda	($12),y                 ; 0x2012 <dispatchAction+0x3b6>
    5126: 85 e3        	sta	$e3                     ; 0x20e3 <dispatchAction+0x487>
    5128: c8           	iny
    5129: b1 12        	lda	($12),y                 ; 0x2012 <dispatchAction+0x3b6>
    512b: 85 e4        	sta	$e4                     ; 0x20e4 <dispatchAction+0x488>
    512d: a0 00        	ldy	#$0
    512f: a2 00        	ldx	#$0
    5131: 84 e5        	sty	$e5                     ; 0x20e5 <dispatchAction+0x489>
    5133: 8a           	txa
    5134: 25 14        	and	$14                     ; 0x2014 <dispatchAction+0x3b8>
    5136: d0 03        	bne	$513b <sid_set_all+0x2a>
    5138: 4c 9e 51     	jmp	$519e <sid_set_all+0x8d>
    513b: b9 27 6c     	lda	$6c27,y                 ; 0x6c27 <chipMap+0x1>
    513e: 85 16        	sta	$16                     ; 0x2016 <dispatchAction+0x3ba>
    5140: bd 20 6c     	lda	$6c20,x                 ; 0x6c20 <voiceMap>
    5143: 18           	clc
    5144: 79 26 6c     	adc	$6c26,y                 ; 0x6c26 <chipMap>
    5147: 85 1e        	sta	$1e                     ; 0x201e <dispatchAction+0x3c2>
    5149: a5 16        	lda	$16                     ; 0x2016 <dispatchAction+0x3ba>
    514b: 69 00        	adc	#$0
    514d: a8           	tay
    514e: 18           	clc
    514f: a5 1e        	lda	$1e                     ; 0x201e <dispatchAction+0x3c2>
    5151: 69 05        	adc	#$5
    5153: 85 16        	sta	$16                     ; 0x2016 <dispatchAction+0x3ba>
    5155: 98           	tya
    5156: 69 00        	adc	#$0
    5158: 85 17        	sta	$17                     ; 0x2017 <dispatchAction+0x3bb>
    515a: 18           	clc
    515b: a5 1e        	lda	$1e                     ; 0x201e <dispatchAction+0x3c2>
    515d: 69 06        	adc	#$6
    515f: 85 18        	sta	$18                     ; 0x2018 <dispatchAction+0x3bc>
    5161: 98           	tya
    5162: 69 00        	adc	#$0
    5164: 85 19        	sta	$19                     ; 0x2019 <dispatchAction+0x3bd>
    5166: 18           	clc
    5167: a5 1e        	lda	$1e                     ; 0x201e <dispatchAction+0x3c2>
    5169: 69 04        	adc	#$4
    516b: 85 1a        	sta	$1a                     ; 0x201a <dispatchAction+0x3be>
    516d: 98           	tya
    516e: 69 00        	adc	#$0
    5170: 85 1b        	sta	$1b                     ; 0x201b <dispatchAction+0x3bf>
    5172: 18           	clc
    5173: a5 1e        	lda	$1e                     ; 0x201e <dispatchAction+0x3c2>
    5175: 69 02        	adc	#$2
    5177: 85 1c        	sta	$1c                     ; 0x201c <dispatchAction+0x3c0>
    5179: 98           	tya
    517a: 69 00        	adc	#$0
    517c: 85 1d        	sta	$1d                     ; 0x201d <dispatchAction+0x3c1>
    517e: 18           	clc
    517f: a5 1e        	lda	$1e                     ; 0x201e <dispatchAction+0x3c2>
    5181: 69 03        	adc	#$3
    5183: 85 1e        	sta	$1e                     ; 0x201e <dispatchAction+0x3c2>
    5185: 98           	tya
    5186: 69 00        	adc	#$0
    5188: 85 1f        	sta	$1f                     ; 0x201f <dispatchAction+0x3c3>
    518a: a5 23        	lda	$23                     ; 0x2023 <dispatchAction+0x3c7>
    518c: 92 16        	sta	($16)                   ; 0x2016 <dispatchAction+0x3ba>
    518e: a5 e3        	lda	$e3                     ; 0x20e3 <dispatchAction+0x487>
    5190: 92 18        	sta	($18)                   ; 0x2018 <dispatchAction+0x3bc>
    5192: a5 e4        	lda	$e4                     ; 0x20e4 <dispatchAction+0x488>
    5194: 92 1a        	sta	($1a)                   ; 0x201a <dispatchAction+0x3be>
    5196: a5 15        	lda	$15                     ; 0x2015 <dispatchAction+0x3b9>
    5198: 92 1c        	sta	($1c)                   ; 0x201c <dispatchAction+0x3c0>
    519a: a5 22        	lda	$22                     ; 0x2022 <dispatchAction+0x3c6>
    519c: 92 1e        	sta	($1e)                   ; 0x201e <dispatchAction+0x3c2>
    519e: e8           	inx
    519f: 18           	clc
    51a0: a5 e5        	lda	$e5                     ; 0x20e5 <dispatchAction+0x489>
    51a2: 69 02        	adc	#$2
    51a4: a8           	tay
    51a5: c9 0c        	cmp	#$c
    51a7: f0 03        	beq	$51ac <sid_set_all+0x9b>
    51a9: 4c 31 51     	jmp	$5131 <sid_set_all+0x20>
    51ac: a6 14        	ldx	$14                     ; 0x2014 <dispatchAction+0x3b8>
    51ae: e8           	inx
    51af: 86 14        	stx	$14                     ; 0x2014 <dispatchAction+0x3b8>
    51b1: e0 06        	cpx	#$6
    51b3: f0 03        	beq	$51b8 <sid_set_all+0xa7>
    51b5: 4c 13 51     	jmp	$5113 <sid_set_all+0x2>
    51b8: b2 12        	lda	($12)                   ; 0x2012 <dispatchAction+0x3b6>
    51ba: 85 14        	sta	$14                     ; 0x2014 <dispatchAction+0x3b8>
    51bc: a0 06        	ldy	#$6
    51be: b1 12        	lda	($12),y                 ; 0x2012 <dispatchAction+0x3b6>
    51c0: 85 15        	sta	$15                     ; 0x2015 <dispatchAction+0x3b9>
    51c2: c8           	iny
    51c3: b1 12        	lda	($12),y                 ; 0x2012 <dispatchAction+0x3b6>
    51c5: 85 16        	sta	$16                     ; 0x2016 <dispatchAction+0x3ba>
    51c7: c8           	iny
    51c8: b1 12        	lda	($12),y                 ; 0x2012 <dispatchAction+0x3b6>
    51ca: a2 01        	ldx	#$1
    51cc: e0 00        	cpx	#$0
    51ce: d0 12        	bne	$51e2 <sid_set_all+0xd1>
    51d0: a4 15        	ldy	$15                     ; 0x2015 <dispatchAction+0x3b9>
    51d2: 8c 14 d5     	sty	$d514                   ; 0xd514 <end_block9+0x621e>
    51d5: a4 16        	ldy	$16                     ; 0x2016 <dispatchAction+0x3ba>
    51d7: 8c 15 d5     	sty	$d515                   ; 0xd515 <end_block9+0x621f>
    51da: 8d 17 d5     	sta	$d517                   ; 0xd517 <end_block9+0x6221>
    51dd: a4 14        	ldy	$14                     ; 0x2014 <dispatchAction+0x3b8>
    51df: 8c 18 d5     	sty	$d518                   ; 0xd518 <end_block9+0x6222>
    51e2: ca           	dex
    51e3: f0 e7        	beq	$51cc <sid_set_all+0xbb>
    51e5: 60           	rts

000051e6 <sid_setV3>:
    51e6: 85 14        	sta	$14                     ; 0x2014 <dispatchAction+0x3b8>
    51e8: a9 00        	lda	#$0
    51ea: 80 26        	bra	$5212 <sid_setV3+0x2c>
    51ec: a0 d5        	ldy	#$d5
    51ee: 84 17        	sty	$17                     ; 0x2017 <dispatchAction+0x3bb>
    51f0: a0 09        	ldy	#$9
    51f2: b1 12        	lda	($12),y                 ; 0x2012 <dispatchAction+0x3b6>
    51f4: a4 e5        	ldy	$e5                     ; 0x20e5 <dispatchAction+0x489>
    51f6: 84 18        	sty	$18                     ; 0x2018 <dispatchAction+0x3bc>
    51f8: 84 16        	sty	$16                     ; 0x2016 <dispatchAction+0x3ba>
    51fa: 92 16        	sta	($16)                   ; 0x2016 <dispatchAction+0x3ba>
    51fc: a0 0a        	ldy	#$a
    51fe: b1 12        	lda	($12),y                 ; 0x2012 <dispatchAction+0x3b6>
    5200: 85 15        	sta	$15                     ; 0x2015 <dispatchAction+0x3b9>
    5202: a5 18        	lda	$18                     ; 0x2018 <dispatchAction+0x3bc>
    5204: 09 01        	ora	#$1
    5206: 85 16        	sta	$16                     ; 0x2016 <dispatchAction+0x3ba>
    5208: a5 15        	lda	$15                     ; 0x2015 <dispatchAction+0x3b9>
    520a: 92 16        	sta	($16)                   ; 0x2016 <dispatchAction+0x3ba>
    520c: 8a           	txa
    520d: 1a           	inc
    520e: e0 00        	cpx	#$0
    5210: d0 10        	bne	$5222 <sid_setV3+0x3c>
    5212: aa           	tax
    5213: 25 14        	and	$14                     ; 0x2014 <dispatchAction+0x3b8>
    5215: f0 f5        	beq	$520c <sid_setV3+0x26>
    5217: a0 0e        	ldy	#$e
    5219: 84 e5        	sty	$e5                     ; 0x20e5 <dispatchAction+0x489>
    521b: 8a           	txa
    521c: d0 ce        	bne	$51ec <sid_setV3+0x6>
    521e: a0 d4        	ldy	#$d4
    5220: 80 cc        	bra	$51ee <sid_setV3+0x8>
    5222: 60           	rts

00005223 <sid_setInstrumentAllChannels>:
    5223: 85 e3        	sta	$e3                     ; 0x20e3 <dispatchAction+0x487>
    5225: a2 0b        	ldx	#$b
    5227: 86 12        	stx	$12                     ; 0x2012 <dispatchAction+0x3b6>
    5229: 64 13        	stz	$13                     ; 0x2013 <dispatchAction+0x3b7>
    522b: a2 00        	ldx	#$0
    522d: 20 d0 66     	jsr	$66d0 <__mulhi3>
    5230: 85 12        	sta	$12                     ; 0x2012 <dispatchAction+0x3b6>
    5232: 86 13        	stx	$13                     ; 0x2013 <dispatchAction+0x3b7>
    5234: a9 b9        	lda	#$b9
    5236: 18           	clc
    5237: 65 12        	adc	$12                     ; 0x2012 <dispatchAction+0x3b6>
    5239: 85 12        	sta	$12                     ; 0x2012 <dispatchAction+0x3b6>
    523b: a9 6c        	lda	#$6c
    523d: 65 13        	adc	$13                     ; 0x2013 <dispatchAction+0x3b7>
    523f: 85 13        	sta	$13                     ; 0x2013 <dispatchAction+0x3b7>
    5241: a0 03        	ldy	#$3
    5243: 4c b2 52     	jmp	$52b2 <sid_setInstrumentAllChannels+0x8f>
    5246: 18           	clc
    5247: 8a           	txa
    5248: 69 0e        	adc	#$e
    524a: aa           	tax
    524b: a5 e4        	lda	$e4                     ; 0x20e4 <dispatchAction+0x488>
    524d: 69 00        	adc	#$0
    524f: 85 14        	sta	$14                     ; 0x2014 <dispatchAction+0x3b8>
    5251: 88           	dey
    5252: 18           	clc
    5253: 8a           	txa
    5254: 69 02        	adc	#$2
    5256: 85 15        	sta	$15                     ; 0x2015 <dispatchAction+0x3b9>
    5258: 86 17        	stx	$17                     ; 0x2017 <dispatchAction+0x3bb>
    525a: a6 14        	ldx	$14                     ; 0x2014 <dispatchAction+0x3b8>
    525c: a5 14        	lda	$14                     ; 0x2014 <dispatchAction+0x3b8>
    525e: 69 00        	adc	#$0
    5260: 5a           	phy
    5261: a4 15        	ldy	$15                     ; 0x2015 <dispatchAction+0x3b9>
    5263: 84 14        	sty	$14                     ; 0x2014 <dispatchAction+0x3b8>
    5265: 7a           	ply
    5266: 85 15        	sta	$15                     ; 0x2015 <dispatchAction+0x3b9>
    5268: a5 1b        	lda	$1b                     ; 0x201b <dispatchAction+0x3bf>
    526a: 92 14        	sta	($14)                   ; 0x2014 <dispatchAction+0x3b8>
    526c: 18           	clc
    526d: a5 17        	lda	$17                     ; 0x2017 <dispatchAction+0x3bb>
    526f: 69 03        	adc	#$3
    5271: 85 14        	sta	$14                     ; 0x2014 <dispatchAction+0x3b8>
    5273: 8a           	txa
    5274: 69 00        	adc	#$0
    5276: 85 15        	sta	$15                     ; 0x2015 <dispatchAction+0x3b9>
    5278: a5 1a        	lda	$1a                     ; 0x201a <dispatchAction+0x3be>
    527a: 92 14        	sta	($14)                   ; 0x2014 <dispatchAction+0x3b8>
    527c: 18           	clc
    527d: a5 17        	lda	$17                     ; 0x2017 <dispatchAction+0x3bb>
    527f: 69 05        	adc	#$5
    5281: 85 14        	sta	$14                     ; 0x2014 <dispatchAction+0x3b8>
    5283: 8a           	txa
    5284: 69 00        	adc	#$0
    5286: 85 15        	sta	$15                     ; 0x2015 <dispatchAction+0x3b9>
    5288: a5 19        	lda	$19                     ; 0x2019 <dispatchAction+0x3bd>
    528a: 92 14        	sta	($14)                   ; 0x2014 <dispatchAction+0x3b8>
    528c: 18           	clc
    528d: a5 17        	lda	$17                     ; 0x2017 <dispatchAction+0x3bb>
    528f: 69 06        	adc	#$6
    5291: 85 14        	sta	$14                     ; 0x2014 <dispatchAction+0x3b8>
    5293: 8a           	txa
    5294: 69 00        	adc	#$0
    5296: 85 15        	sta	$15                     ; 0x2015 <dispatchAction+0x3b9>
    5298: a5 18        	lda	$18                     ; 0x2018 <dispatchAction+0x3bc>
    529a: 92 14        	sta	($14)                   ; 0x2014 <dispatchAction+0x3b8>
    529c: 18           	clc
    529d: a5 17        	lda	$17                     ; 0x2017 <dispatchAction+0x3bb>
    529f: 69 04        	adc	#$4
    52a1: 85 14        	sta	$14                     ; 0x2014 <dispatchAction+0x3b8>
    52a3: 8a           	txa
    52a4: 69 00        	adc	#$0
    52a6: 85 15        	sta	$15                     ; 0x2015 <dispatchAction+0x3b9>
    52a8: a5 16        	lda	$16                     ; 0x2016 <dispatchAction+0x3ba>
    52aa: 92 14        	sta	($14)                   ; 0x2014 <dispatchAction+0x3b8>
    52ac: 98           	tya
    52ad: d0 03        	bne	$52b2 <sid_setInstrumentAllChannels+0x8f>
    52af: 4c 7e 53     	jmp	$537e <sid_setInstrumentAllChannels+0x15b>
    52b2: a2 d4        	ldx	#$d4
    52b4: 86 e4        	stx	$e4                     ; 0x20e4 <dispatchAction+0x488>
    52b6: 84 17        	sty	$17                     ; 0x2017 <dispatchAction+0x3bb>
    52b8: c0 02        	cpy	#$2
    52ba: d0 04        	bne	$52c0 <sid_setInstrumentAllChannels+0x9d>
    52bc: a9 07        	lda	#$7
    52be: 80 02        	bra	$52c2 <sid_setInstrumentAllChannels+0x9f>
    52c0: a9 00        	lda	#$0
    52c2: a6 17        	ldx	$17                     ; 0x2017 <dispatchAction+0x3bb>
    52c4: e0 01        	cpx	#$1
    52c6: d0 0d        	bne	$52d5 <sid_setInstrumentAllChannels+0xb2>
    52c8: 18           	clc
    52c9: 69 0e        	adc	#$e
    52cb: 85 14        	sta	$14                     ; 0x2014 <dispatchAction+0x3b8>
    52cd: a5 e4        	lda	$e4                     ; 0x20e4 <dispatchAction+0x488>
    52cf: 69 00        	adc	#$0
    52d1: 85 e4        	sta	$e4                     ; 0x20e4 <dispatchAction+0x488>
    52d3: 80 02        	bra	$52d7 <sid_setInstrumentAllChannels+0xb4>
    52d5: 85 14        	sta	$14                     ; 0x2014 <dispatchAction+0x3b8>
    52d7: a0 01        	ldy	#$1
    52d9: b1 12        	lda	($12),y                 ; 0x2012 <dispatchAction+0x3b6>
    52db: 85 1b        	sta	$1b                     ; 0x201b <dispatchAction+0x3bf>
    52dd: a5 14        	lda	$14                     ; 0x2014 <dispatchAction+0x3b8>
    52df: a6 14        	ldx	$14                     ; 0x2014 <dispatchAction+0x3b8>
    52e1: 18           	clc
    52e2: 69 02        	adc	#$2
    52e4: 85 14        	sta	$14                     ; 0x2014 <dispatchAction+0x3b8>
    52e6: a4 e4        	ldy	$e4                     ; 0x20e4 <dispatchAction+0x488>
    52e8: 84 16        	sty	$16                     ; 0x2016 <dispatchAction+0x3ba>
    52ea: 98           	tya
    52eb: 69 00        	adc	#$0
    52ed: 85 15        	sta	$15                     ; 0x2015 <dispatchAction+0x3b9>
    52ef: a0 02        	ldy	#$2
    52f1: b1 12        	lda	($12),y                 ; 0x2012 <dispatchAction+0x3b6>
    52f3: 85 1c        	sta	$1c                     ; 0x201c <dispatchAction+0x3c0>
    52f5: c8           	iny
    52f6: b1 12        	lda	($12),y                 ; 0x2012 <dispatchAction+0x3b6>
    52f8: 85 1a        	sta	$1a                     ; 0x201a <dispatchAction+0x3be>
    52fa: c8           	iny
    52fb: b1 12        	lda	($12),y                 ; 0x2012 <dispatchAction+0x3b6>
    52fd: 85 19        	sta	$19                     ; 0x2019 <dispatchAction+0x3bd>
    52ff: c8           	iny
    5300: b1 12        	lda	($12),y                 ; 0x2012 <dispatchAction+0x3b6>
    5302: 85 18        	sta	$18                     ; 0x2018 <dispatchAction+0x3bc>
    5304: a5 1b        	lda	$1b                     ; 0x201b <dispatchAction+0x3bf>
    5306: 92 14        	sta	($14)                   ; 0x2014 <dispatchAction+0x3b8>
    5308: 8a           	txa
    5309: 18           	clc
    530a: 69 03        	adc	#$3
    530c: 85 14        	sta	$14                     ; 0x2014 <dispatchAction+0x3b8>
    530e: a5 16        	lda	$16                     ; 0x2016 <dispatchAction+0x3ba>
    5310: 69 00        	adc	#$0
    5312: 85 15        	sta	$15                     ; 0x2015 <dispatchAction+0x3b9>
    5314: a5 1c        	lda	$1c                     ; 0x201c <dispatchAction+0x3c0>
    5316: 92 14        	sta	($14)                   ; 0x2014 <dispatchAction+0x3b8>
    5318: 8a           	txa
    5319: 18           	clc
    531a: 69 05        	adc	#$5
    531c: 85 14        	sta	$14                     ; 0x2014 <dispatchAction+0x3b8>
    531e: a5 16        	lda	$16                     ; 0x2016 <dispatchAction+0x3ba>
    5320: 69 00        	adc	#$0
    5322: 85 15        	sta	$15                     ; 0x2015 <dispatchAction+0x3b9>
    5324: a5 1a        	lda	$1a                     ; 0x201a <dispatchAction+0x3be>
    5326: 92 14        	sta	($14)                   ; 0x2014 <dispatchAction+0x3b8>
    5328: 8a           	txa
    5329: 18           	clc
    532a: 69 06        	adc	#$6
    532c: 85 14        	sta	$14                     ; 0x2014 <dispatchAction+0x3b8>
    532e: a5 16        	lda	$16                     ; 0x2016 <dispatchAction+0x3ba>
    5330: 69 00        	adc	#$0
    5332: 85 15        	sta	$15                     ; 0x2015 <dispatchAction+0x3b9>
    5334: a5 19        	lda	$19                     ; 0x2019 <dispatchAction+0x3bd>
    5336: 92 14        	sta	($14)                   ; 0x2014 <dispatchAction+0x3b8>
    5338: 18           	clc
    5339: 8a           	txa
    533a: 69 04        	adc	#$4
    533c: 85 14        	sta	$14                     ; 0x2014 <dispatchAction+0x3b8>
    533e: a5 16        	lda	$16                     ; 0x2016 <dispatchAction+0x3ba>
    5340: 69 00        	adc	#$0
    5342: a2 00        	ldx	#$0
    5344: 85 15        	sta	$15                     ; 0x2015 <dispatchAction+0x3b9>
    5346: a5 18        	lda	$18                     ; 0x2018 <dispatchAction+0x3bc>
    5348: 92 14        	sta	($14)                   ; 0x2014 <dispatchAction+0x3b8>
    534a: a0 d5        	ldy	#$d5
    534c: 84 e4        	sty	$e4                     ; 0x20e4 <dispatchAction+0x488>
    534e: a4 17        	ldy	$17                     ; 0x2017 <dispatchAction+0x3bb>
    5350: c0 02        	cpy	#$2
    5352: d0 02        	bne	$5356 <sid_setInstrumentAllChannels+0x133>
    5354: a2 07        	ldx	#$7
    5356: a0 01        	ldy	#$1
    5358: b1 12        	lda	($12),y                 ; 0x2012 <dispatchAction+0x3b6>
    535a: 85 1b        	sta	$1b                     ; 0x201b <dispatchAction+0x3bf>
    535c: c8           	iny
    535d: b1 12        	lda	($12),y                 ; 0x2012 <dispatchAction+0x3b6>
    535f: 85 1a        	sta	$1a                     ; 0x201a <dispatchAction+0x3be>
    5361: c8           	iny
    5362: b1 12        	lda	($12),y                 ; 0x2012 <dispatchAction+0x3b6>
    5364: 85 19        	sta	$19                     ; 0x2019 <dispatchAction+0x3bd>
    5366: c8           	iny
    5367: b1 12        	lda	($12),y                 ; 0x2012 <dispatchAction+0x3b6>
    5369: 85 18        	sta	$18                     ; 0x2018 <dispatchAction+0x3bc>
    536b: c8           	iny
    536c: b1 12        	lda	($12),y                 ; 0x2012 <dispatchAction+0x3b6>
    536e: 85 16        	sta	$16                     ; 0x2016 <dispatchAction+0x3ba>
    5370: a4 17        	ldy	$17                     ; 0x2017 <dispatchAction+0x3bb>
    5372: c0 01        	cpy	#$1
    5374: d0 03        	bne	$5379 <sid_setInstrumentAllChannels+0x156>
    5376: 4c 46 52     	jmp	$5246 <sid_setInstrumentAllChannels+0x23>
    5379: a5 e4        	lda	$e4                     ; 0x20e4 <dispatchAction+0x488>
    537b: 4c 4f 52     	jmp	$524f <sid_setInstrumentAllChannels+0x2c>
    537e: a2 0b        	ldx	#$b
    5380: 86 12        	stx	$12                     ; 0x2012 <dispatchAction+0x3b6>
    5382: 64 13        	stz	$13                     ; 0x2013 <dispatchAction+0x3b7>
    5384: a2 00        	ldx	#$0
    5386: a5 e3        	lda	$e3                     ; 0x20e3 <dispatchAction+0x487>
    5388: 20 d0 66     	jsr	$66d0 <__mulhi3>
    538b: 85 12        	sta	$12                     ; 0x2012 <dispatchAction+0x3b6>
    538d: 86 13        	stx	$13                     ; 0x2013 <dispatchAction+0x3b7>
    538f: a9 b9        	lda	#$b9
    5391: 18           	clc
    5392: 65 12        	adc	$12                     ; 0x2012 <dispatchAction+0x3b6>
    5394: 85 12        	sta	$12                     ; 0x2012 <dispatchAction+0x3b6>
    5396: a9 6c        	lda	#$6c
    5398: 65 13        	adc	$13                     ; 0x2013 <dispatchAction+0x3b7>
    539a: 85 13        	sta	$13                     ; 0x2013 <dispatchAction+0x3b7>
    539c: a0 06        	ldy	#$6
    539e: b1 12        	lda	($12),y                 ; 0x2012 <dispatchAction+0x3b6>
    53a0: 8d 14 d4     	sta	$d414                   ; 0xd414 <end_block9+0x611e>
    53a3: c8           	iny
    53a4: b1 12        	lda	($12),y                 ; 0x2012 <dispatchAction+0x3b6>
    53a6: 8d 15 d4     	sta	$d415                   ; 0xd415 <end_block9+0x611f>
    53a9: c8           	iny
    53aa: b1 12        	lda	($12),y                 ; 0x2012 <dispatchAction+0x3b6>
    53ac: 8d 17 d4     	sta	$d417                   ; 0xd417 <end_block9+0x6121>
    53af: b2 12        	lda	($12)                   ; 0x2012 <dispatchAction+0x3b6>
    53b1: 8d 18 d4     	sta	$d418                   ; 0xd418 <end_block9+0x6122>
    53b4: a0 06        	ldy	#$6
    53b6: b1 12        	lda	($12),y                 ; 0x2012 <dispatchAction+0x3b6>
    53b8: 8d 14 d5     	sta	$d514                   ; 0xd514 <end_block9+0x621e>
    53bb: c8           	iny
    53bc: b1 12        	lda	($12),y                 ; 0x2012 <dispatchAction+0x3b6>
    53be: 8d 15 d5     	sta	$d515                   ; 0xd515 <end_block9+0x621f>
    53c1: c8           	iny
    53c2: b1 12        	lda	($12),y                 ; 0x2012 <dispatchAction+0x3b6>
    53c4: 8d 17 d5     	sta	$d517                   ; 0xd517 <end_block9+0x6221>
    53c7: b2 12        	lda	($12)                   ; 0x2012 <dispatchAction+0x3b6>
    53c9: 8d 18 d5     	sta	$d518                   ; 0xd518 <end_block9+0x6222>
    53cc: 60           	rts

000053cd <setMonoSID>:
    53cd: ad a1 d6     	lda	$d6a1                   ; 0xd6a1 <end_block9+0x63ab>
    53d0: 29 f7        	and	#$f7
    53d2: 8d a1 d6     	sta	$d6a1                   ; 0xd6a1 <end_block9+0x63ab>
    53d5: 60           	rts

000053d6 <exit>:
    53d6: 85 e3        	sta	$e3                     ; 0x20e3 <dispatchAction+0x487>
    53d8: 86 e4        	stx	$e4                     ; 0x20e4 <dispatchAction+0x488>
    53da: 20 73 03     	jsr	$373 <_fini>
    53dd: a6 e4        	ldx	$e4                     ; 0x20e4 <dispatchAction+0x488>
    53df: a5 e3        	lda	$e3                     ; 0x20e3 <dispatchAction+0x487>
    53e1: 20 e4 53     	jsr	$53e4 <_Exit>

000053e4 <_Exit>:
    53e4: 80 fe        	bra	$53e4 <_Exit>

000053e6 <vfprintf>:
    53e6: 18           	clc
    53e7: a5 10        	lda	$10                     ; 0x2010 <dispatchAction+0x3b4>
    53e9: 69 e8        	adc	#$e8
    53eb: 85 10        	sta	$10                     ; 0x2010 <dispatchAction+0x3b4>
    53ed: a5 11        	lda	$11                     ; 0x2011 <dispatchAction+0x3b5>
    53ef: 69 ff        	adc	#$ff
    53f1: 85 11        	sta	$11                     ; 0x2011 <dispatchAction+0x3b5>
    53f3: a6 24        	ldx	$24                     ; 0x2024 <dispatchAction+0x3c8>
    53f5: da           	phx
    53f6: a6 25        	ldx	$25                     ; 0x2025 <dispatchAction+0x3c9>
    53f8: da           	phx
    53f9: a6 26        	ldx	$26                     ; 0x2026 <dispatchAction+0x3ca>
    53fb: da           	phx
    53fc: a6 27        	ldx	$27                     ; 0x2027 <dispatchAction+0x3cb>
    53fe: da           	phx
    53ff: a5 28        	lda	$28                     ; 0x2028 <dispatchAction+0x3cc>
    5401: a0 01        	ldy	#$1
    5403: 91 10        	sta	($10),y                 ; 0x2010 <dispatchAction+0x3b4>
    5405: a5 29        	lda	$29                     ; 0x2029 <dispatchAction+0x3cd>
    5407: 88           	dey
    5408: 91 10        	sta	($10),y                 ; 0x2010 <dispatchAction+0x3b4>
    540a: a6 12        	ldx	$12                     ; 0x2012 <dispatchAction+0x3b6>
    540c: 86 24        	stx	$24                     ; 0x2024 <dispatchAction+0x3c8>
    540e: a6 13        	ldx	$13                     ; 0x2013 <dispatchAction+0x3b7>
    5410: 86 25        	stx	$25                     ; 0x2025 <dispatchAction+0x3c9>
    5412: a5 16        	lda	$16                     ; 0x2016 <dispatchAction+0x3ba>
    5414: 18           	clc
    5415: 48           	pha
    5416: a5 10        	lda	$10                     ; 0x2010 <dispatchAction+0x3b4>
    5418: 69 16        	adc	#$16
    541a: 85 12        	sta	$12                     ; 0x2012 <dispatchAction+0x3b6>
    541c: a5 11        	lda	$11                     ; 0x2011 <dispatchAction+0x3b5>
    541e: 69 00        	adc	#$0
    5420: 85 13        	sta	$13                     ; 0x2013 <dispatchAction+0x3b7>
    5422: 68           	pla
    5423: 92 12        	sta	($12)                   ; 0x2012 <dispatchAction+0x3b6>
    5425: c8           	iny
    5426: a5 17        	lda	$17                     ; 0x2017 <dispatchAction+0x3bb>
    5428: 91 12        	sta	($12),y                 ; 0x2012 <dispatchAction+0x3b6>
    542a: 18           	clc
    542b: a5 10        	lda	$10                     ; 0x2010 <dispatchAction+0x3b4>
    542d: 69 03        	adc	#$3
    542f: 48           	pha
    5430: a5 11        	lda	$11                     ; 0x2011 <dispatchAction+0x3b5>
    5432: 69 00        	adc	#$0
    5434: a8           	tay
    5435: 68           	pla
    5436: 85 16        	sta	$16                     ; 0x2016 <dispatchAction+0x3ba>
    5438: 84 17        	sty	$17                     ; 0x2017 <dispatchAction+0x3bb>
    543a: 85 28        	sta	$28                     ; 0x2028 <dispatchAction+0x3cc>
    543c: 18           	clc
    543d: 69 03        	adc	#$3
    543f: 85 18        	sta	$18                     ; 0x2018 <dispatchAction+0x3bc>
    5441: 84 29        	sty	$29                     ; 0x2029 <dispatchAction+0x3cd>
    5443: 98           	tya
    5444: 69 00        	adc	#$0
    5446: a0 03        	ldy	#$3
    5448: 85 19        	sta	$19                     ; 0x2019 <dispatchAction+0x3bd>
    544a: a9 ff        	lda	#$ff
    544c: 91 16        	sta	($16),y                 ; 0x2016 <dispatchAction+0x3ba>
    544e: 18           	clc
    544f: a5 10        	lda	$10                     ; 0x2010 <dispatchAction+0x3b4>
    5451: 69 03        	adc	#$3
    5453: 85 1b        	sta	$1b                     ; 0x201b <dispatchAction+0x3bf>
    5455: a5 11        	lda	$11                     ; 0x2011 <dispatchAction+0x3b5>
    5457: 69 00        	adc	#$0
    5459: 85 1a        	sta	$1a                     ; 0x201a <dispatchAction+0x3be>
    545b: a0 01        	ldy	#$1
    545d: a9 ff        	lda	#$ff
    545f: 91 18        	sta	($18),y                 ; 0x2018 <dispatchAction+0x3bc>
    5461: 18           	clc
    5462: a5 1b        	lda	$1b                     ; 0x201b <dispatchAction+0x3bf>
    5464: 69 05        	adc	#$5
    5466: 85 18        	sta	$18                     ; 0x2018 <dispatchAction+0x3bc>
    5468: a5 1a        	lda	$1a                     ; 0x201a <dispatchAction+0x3be>
    546a: 69 00        	adc	#$0
    546c: 85 19        	sta	$19                     ; 0x2019 <dispatchAction+0x3bd>
    546e: 18           	clc
    546f: a5 10        	lda	$10                     ; 0x2010 <dispatchAction+0x3b4>
    5471: 69 03        	adc	#$3
    5473: 48           	pha
    5474: a5 11        	lda	$11                     ; 0x2011 <dispatchAction+0x3b5>
    5476: 69 00        	adc	#$0
    5478: 85 1b        	sta	$1b                     ; 0x201b <dispatchAction+0x3bf>
    547a: 68           	pla
    547b: 18           	clc
    547c: 69 09        	adc	#$9
    547e: 85 1a        	sta	$1a                     ; 0x201a <dispatchAction+0x3be>
    5480: a5 1b        	lda	$1b                     ; 0x201b <dispatchAction+0x3bf>
    5482: 69 00        	adc	#$0
    5484: 85 1b        	sta	$1b                     ; 0x201b <dispatchAction+0x3bf>
    5486: a0 09        	ldy	#$9
    5488: a2 00        	ldx	#$0
    548a: 86 1c        	stx	$1c                     ; 0x201c <dispatchAction+0x3c0>
    548c: a2 00        	ldx	#$0
    548e: 86 1d        	stx	$1d                     ; 0x201d <dispatchAction+0x3c1>
    5490: a5 1c        	lda	$1c                     ; 0x201c <dispatchAction+0x3c0>
    5492: 91 16        	sta	($16),y                 ; 0x2016 <dispatchAction+0x3ba>
    5494: a0 0f        	ldy	#$f
    5496: a5 24        	lda	$24                     ; 0x2024 <dispatchAction+0x3c8>
    5498: 91 16        	sta	($16),y                 ; 0x2016 <dispatchAction+0x3ba>
    549a: 18           	clc
    549b: a5 10        	lda	$10                     ; 0x2010 <dispatchAction+0x3b4>
    549d: 69 03        	adc	#$3
    549f: 85 1c        	sta	$1c                     ; 0x201c <dispatchAction+0x3c0>
    54a1: a5 11        	lda	$11                     ; 0x2011 <dispatchAction+0x3b5>
    54a3: 69 00        	adc	#$0
    54a5: aa           	tax
    54a6: a5 1d        	lda	$1d                     ; 0x201d <dispatchAction+0x3c1>
    54a8: a0 01        	ldy	#$1
    54aa: 91 1a        	sta	($1a),y                 ; 0x201a <dispatchAction+0x3be>
    54ac: 18           	clc
    54ad: a5 1c        	lda	$1c                     ; 0x201c <dispatchAction+0x3c0>
    54af: 69 0f        	adc	#$f
    54b1: 85 1a        	sta	$1a                     ; 0x201a <dispatchAction+0x3be>
    54b3: 8a           	txa
    54b4: 69 00        	adc	#$0
    54b6: aa           	tax
    54b7: a0 05        	ldy	#$5
    54b9: a9 00        	lda	#$0
    54bb: 91 16        	sta	($16),y                 ; 0x2016 <dispatchAction+0x3ba>
    54bd: 64 1b        	stz	$1b                     ; 0x201b <dispatchAction+0x3bf>
    54bf: a9 00        	lda	#$0
    54c1: a0 02        	ldy	#$2
    54c3: 91 10        	sta	($10),y                 ; 0x2010 <dispatchAction+0x3b4>
    54c5: 88           	dey
    54c6: a9 00        	lda	#$0
    54c8: 91 18        	sta	($18),y                 ; 0x2018 <dispatchAction+0x3bc>
    54ca: 86 1b        	stx	$1b                     ; 0x201b <dispatchAction+0x3bf>
    54cc: a5 25        	lda	$25                     ; 0x2025 <dispatchAction+0x3c9>
    54ce: 91 1a        	sta	($1a),y                 ; 0x201a <dispatchAction+0x3be>
    54d0: b2 12        	lda	($12)                   ; 0x2012 <dispatchAction+0x3b6>
    54d2: 85 19        	sta	$19                     ; 0x2019 <dispatchAction+0x3bd>
    54d4: b1 12        	lda	($12),y                 ; 0x2012 <dispatchAction+0x3b6>
    54d6: 85 18        	sta	$18                     ; 0x2018 <dispatchAction+0x3bc>
    54d8: a0 11        	ldy	#$11
    54da: a5 19        	lda	$19                     ; 0x2019 <dispatchAction+0x3bd>
    54dc: 91 16        	sta	($16),y                 ; 0x2016 <dispatchAction+0x3ba>
    54de: 18           	clc
    54df: a5 10        	lda	$10                     ; 0x2010 <dispatchAction+0x3b4>
    54e1: 69 03        	adc	#$3
    54e3: 48           	pha
    54e4: a5 11        	lda	$11                     ; 0x2011 <dispatchAction+0x3b5>
    54e6: 69 00        	adc	#$0
    54e8: 85 12        	sta	$12                     ; 0x2012 <dispatchAction+0x3b6>
    54ea: 68           	pla
    54eb: 18           	clc
    54ec: 69 11        	adc	#$11
    54ee: aa           	tax
    54ef: a5 12        	lda	$12                     ; 0x2012 <dispatchAction+0x3b6>
    54f1: 69 00        	adc	#$0
    54f3: 86 12        	stx	$12                     ; 0x2012 <dispatchAction+0x3b6>
    54f5: 85 13        	sta	$13                     ; 0x2013 <dispatchAction+0x3b7>
    54f7: a5 18        	lda	$18                     ; 0x2018 <dispatchAction+0x3bc>
    54f9: a0 01        	ldy	#$1
    54fb: 91 12        	sta	($12),y                 ; 0x2012 <dispatchAction+0x3b6>
    54fd: a6 14        	ldx	$14                     ; 0x2014 <dispatchAction+0x3b8>
    54ff: 86 12        	stx	$12                     ; 0x2012 <dispatchAction+0x3b6>
    5501: a6 15        	ldx	$15                     ; 0x2015 <dispatchAction+0x3b9>
    5503: 86 13        	stx	$13                     ; 0x2013 <dispatchAction+0x3b7>
    5505: a6 12        	ldx	$12                     ; 0x2012 <dispatchAction+0x3b6>
    5507: 86 26        	stx	$26                     ; 0x2026 <dispatchAction+0x3ca>
    5509: a6 13        	ldx	$13                     ; 0x2013 <dispatchAction+0x3b7>
    550b: 86 27        	stx	$27                     ; 0x2027 <dispatchAction+0x3cb>
    550d: b2 12        	lda	($12)                   ; 0x2012 <dispatchAction+0x3b6>
    550f: c9 25        	cmp	#$25
    5511: d0 03        	bne	$5516 <vfprintf+0x130>
    5513: 4c 7e 55     	jmp	$557e <vfprintf+0x198>
    5516: aa           	tax
    5517: d0 03        	bne	$551c <vfprintf+0x136>
    5519: 4c d6 55     	jmp	$55d6 <vfprintf+0x1f0>
    551c: a6 24        	ldx	$24                     ; 0x2024 <dispatchAction+0x3c8>
    551e: 86 12        	stx	$12                     ; 0x2012 <dispatchAction+0x3b6>
    5520: a6 25        	ldx	$25                     ; 0x2025 <dispatchAction+0x3c9>
    5522: 86 13        	stx	$13                     ; 0x2013 <dispatchAction+0x3b7>
    5524: 48           	pha
    5525: a0 02        	ldy	#$2
    5527: b1 10        	lda	($10),y                 ; 0x2010 <dispatchAction+0x3b4>
    5529: aa           	tax
    552a: 68           	pla
    552b: 20 22 64     	jsr	$6422 <putc>
    552e: e0 ff        	cpx	#$ff
    5530: d0 07        	bne	$5539 <vfprintf+0x153>
    5532: c9 ff        	cmp	#$ff
    5534: d0 03        	bne	$5539 <vfprintf+0x153>
    5536: 4c a0 55     	jmp	$55a0 <vfprintf+0x1ba>
    5539: e6 26        	inc	$26                     ; 0x2026 <dispatchAction+0x3ca>
    553b: d0 02        	bne	$553f <vfprintf+0x159>
    553d: e6 27        	inc	$27                     ; 0x2027 <dispatchAction+0x3cb>
    553f: 18           	clc
    5540: a5 10        	lda	$10                     ; 0x2010 <dispatchAction+0x3b4>
    5542: 69 03        	adc	#$3
    5544: 48           	pha
    5545: a5 11        	lda	$11                     ; 0x2011 <dispatchAction+0x3b5>
    5547: 69 00        	adc	#$0
    5549: aa           	tax
    554a: 68           	pla
    554b: 85 12        	sta	$12                     ; 0x2012 <dispatchAction+0x3b6>
    554d: 86 13        	stx	$13                     ; 0x2013 <dispatchAction+0x3b7>
    554f: 18           	clc
    5550: 69 05        	adc	#$5
    5552: 85 14        	sta	$14                     ; 0x2014 <dispatchAction+0x3b8>
    5554: 8a           	txa
    5555: 69 00        	adc	#$0
    5557: 85 15        	sta	$15                     ; 0x2015 <dispatchAction+0x3b9>
    5559: a0 05        	ldy	#$5
    555b: b1 12        	lda	($12),y                 ; 0x2012 <dispatchAction+0x3b6>
    555d: 85 16        	sta	$16                     ; 0x2016 <dispatchAction+0x3ba>
    555f: a0 01        	ldy	#$1
    5561: b1 14        	lda	($14),y                 ; 0x2014 <dispatchAction+0x3b8>
    5563: aa           	tax
    5564: a5 16        	lda	$16                     ; 0x2016 <dispatchAction+0x3ba>
    5566: 1a           	inc
    5567: d0 01        	bne	$556a <vfprintf+0x184>
    5569: e8           	inx
    556a: a0 05        	ldy	#$5
    556c: 91 12        	sta	($12),y                 ; 0x2012 <dispatchAction+0x3b6>
    556e: 8a           	txa
    556f: a0 01        	ldy	#$1
    5571: 91 14        	sta	($14),y                 ; 0x2014 <dispatchAction+0x3b8>
    5573: a6 26        	ldx	$26                     ; 0x2026 <dispatchAction+0x3ca>
    5575: 86 12        	stx	$12                     ; 0x2012 <dispatchAction+0x3b6>
    5577: a6 27        	ldx	$27                     ; 0x2027 <dispatchAction+0x3cb>
    5579: 86 13        	stx	$13                     ; 0x2013 <dispatchAction+0x3b7>
    557b: 4c 05 55     	jmp	$5505 <vfprintf+0x11f>
    557e: a6 28        	ldx	$28                     ; 0x2028 <dispatchAction+0x3cc>
    5580: 86 14        	stx	$14                     ; 0x2014 <dispatchAction+0x3b8>
    5582: a6 29        	ldx	$29                     ; 0x2029 <dispatchAction+0x3cd>
    5584: 86 15        	stx	$15                     ; 0x2015 <dispatchAction+0x3b9>
    5586: 20 fe 55     	jsr	$55fe <_ZN12_GLOBAL__N_15printEPKcP6Status>
    5589: a6 13        	ldx	$13                     ; 0x2013 <dispatchAction+0x3b7>
    558b: e4 27        	cpx	$27                     ; 0x2027 <dispatchAction+0x3cb>
    558d: f0 03        	beq	$5592 <vfprintf+0x1ac>
    558f: 4c 05 55     	jmp	$5505 <vfprintf+0x11f>
    5592: a6 12        	ldx	$12                     ; 0x2012 <dispatchAction+0x3b6>
    5594: e4 26        	cpx	$26                     ; 0x2026 <dispatchAction+0x3ca>
    5596: f0 03        	beq	$559b <vfprintf+0x1b5>
    5598: 4c 05 55     	jmp	$5505 <vfprintf+0x11f>
    559b: b2 26        	lda	($26)                   ; 0x2026 <dispatchAction+0x3ca>
    559d: 4c 1c 55     	jmp	$551c <vfprintf+0x136>
    55a0: a2 ff        	ldx	#$ff
    55a2: 8a           	txa
    55a3: a0 02        	ldy	#$2
    55a5: 91 10        	sta	($10),y                 ; 0x2010 <dispatchAction+0x3b4>
    55a7: 8a           	txa
    55a8: aa           	tax
    55a9: a0 02        	ldy	#$2
    55ab: b1 10        	lda	($10),y                 ; 0x2010 <dispatchAction+0x3b4>
    55ad: 85 20        	sta	$20                     ; 0x2020 <dispatchAction+0x3c4>
    55af: a0 00        	ldy	#$0
    55b1: b1 10        	lda	($10),y                 ; 0x2010 <dispatchAction+0x3b4>
    55b3: 85 29        	sta	$29                     ; 0x2029 <dispatchAction+0x3cd>
    55b5: c8           	iny
    55b6: b1 10        	lda	($10),y                 ; 0x2010 <dispatchAction+0x3b4>
    55b8: 85 28        	sta	$28                     ; 0x2028 <dispatchAction+0x3cc>
    55ba: 7a           	ply
    55bb: 84 27        	sty	$27                     ; 0x2027 <dispatchAction+0x3cb>
    55bd: 7a           	ply
    55be: 84 26        	sty	$26                     ; 0x2026 <dispatchAction+0x3ca>
    55c0: 7a           	ply
    55c1: 84 25        	sty	$25                     ; 0x2025 <dispatchAction+0x3c9>
    55c3: 7a           	ply
    55c4: 84 24        	sty	$24                     ; 0x2024 <dispatchAction+0x3c8>
    55c6: 18           	clc
    55c7: a5 10        	lda	$10                     ; 0x2010 <dispatchAction+0x3b4>
    55c9: 69 18        	adc	#$18
    55cb: 85 10        	sta	$10                     ; 0x2010 <dispatchAction+0x3b4>
    55cd: a5 11        	lda	$11                     ; 0x2011 <dispatchAction+0x3b5>
    55cf: 69 00        	adc	#$0
    55d1: 85 11        	sta	$11                     ; 0x2011 <dispatchAction+0x3b5>
    55d3: a5 20        	lda	$20                     ; 0x2020 <dispatchAction+0x3c4>
    55d5: 60           	rts
    55d6: a0 05        	ldy	#$5
    55d8: 18           	clc
    55d9: a5 10        	lda	$10                     ; 0x2010 <dispatchAction+0x3b4>
    55db: 69 03        	adc	#$3
    55dd: 48           	pha
    55de: a5 11        	lda	$11                     ; 0x2011 <dispatchAction+0x3b5>
    55e0: 69 00        	adc	#$0
    55e2: aa           	tax
    55e3: 68           	pla
    55e4: 85 12        	sta	$12                     ; 0x2012 <dispatchAction+0x3b6>
    55e6: 86 13        	stx	$13                     ; 0x2013 <dispatchAction+0x3b7>
    55e8: 18           	clc
    55e9: 69 05        	adc	#$5
    55eb: 85 14        	sta	$14                     ; 0x2014 <dispatchAction+0x3b8>
    55ed: 8a           	txa
    55ee: 69 00        	adc	#$0
    55f0: 85 15        	sta	$15                     ; 0x2015 <dispatchAction+0x3b9>
    55f2: b1 12        	lda	($12),y                 ; 0x2012 <dispatchAction+0x3b6>
    55f4: a0 02        	ldy	#$2
    55f6: 91 10        	sta	($10),y                 ; 0x2010 <dispatchAction+0x3b4>
    55f8: 88           	dey
    55f9: b1 14        	lda	($14),y                 ; 0x2014 <dispatchAction+0x3b8>
    55fb: 4c a8 55     	jmp	$55a8 <vfprintf+0x1c2>

000055fe <_ZN12_GLOBAL__N_15printEPKcP6Status>:
    55fe: 18           	clc
    55ff: a5 10        	lda	$10                     ; 0x2010 <dispatchAction+0x3b4>
    5601: 69 d1        	adc	#$d1
    5603: 85 10        	sta	$10                     ; 0x2010 <dispatchAction+0x3b4>
    5605: a5 11        	lda	$11                     ; 0x2011 <dispatchAction+0x3b5>
    5607: 69 ff        	adc	#$ff
    5609: 85 11        	sta	$11                     ; 0x2011 <dispatchAction+0x3b5>
    560b: a6 24        	ldx	$24                     ; 0x2024 <dispatchAction+0x3c8>
    560d: da           	phx
    560e: a6 25        	ldx	$25                     ; 0x2025 <dispatchAction+0x3c9>
    5610: da           	phx
    5611: a6 26        	ldx	$26                     ; 0x2026 <dispatchAction+0x3ca>
    5613: da           	phx
    5614: a6 27        	ldx	$27                     ; 0x2027 <dispatchAction+0x3cb>
    5616: da           	phx
    5617: a5 28        	lda	$28                     ; 0x2028 <dispatchAction+0x3cc>
    5619: a0 07        	ldy	#$7
    561b: 91 10        	sta	($10),y                 ; 0x2010 <dispatchAction+0x3b4>
    561d: a5 29        	lda	$29                     ; 0x2029 <dispatchAction+0x3cd>
    561f: 88           	dey
    5620: 91 10        	sta	($10),y                 ; 0x2010 <dispatchAction+0x3b4>
    5622: a5 2a        	lda	$2a                     ; 0x202a <dispatchAction+0x3ce>
    5624: 88           	dey
    5625: 91 10        	sta	($10),y                 ; 0x2010 <dispatchAction+0x3b4>
    5627: a5 2b        	lda	$2b                     ; 0x202b <dispatchAction+0x3cf>
    5629: 88           	dey
    562a: 91 10        	sta	($10),y                 ; 0x2010 <dispatchAction+0x3b4>
    562c: a5 2c        	lda	$2c                     ; 0x202c <dispatchAction+0x3d0>
    562e: 88           	dey
    562f: 91 10        	sta	($10),y                 ; 0x2010 <dispatchAction+0x3b4>
    5631: a5 2d        	lda	$2d                     ; 0x202d <dispatchAction+0x3d1>
    5633: 88           	dey
    5634: 91 10        	sta	($10),y                 ; 0x2010 <dispatchAction+0x3b4>
    5636: a5 2e        	lda	$2e                     ; 0x202e <dispatchAction+0x3d2>
    5638: 88           	dey
    5639: 91 10        	sta	($10),y                 ; 0x2010 <dispatchAction+0x3b4>
    563b: a5 2f        	lda	$2f                     ; 0x202f <dispatchAction+0x3d3>
    563d: 88           	dey
    563e: 91 10        	sta	($10),y                 ; 0x2010 <dispatchAction+0x3b4>
    5640: a6 12        	ldx	$12                     ; 0x2012 <dispatchAction+0x3b6>
    5642: 86 28        	stx	$28                     ; 0x2028 <dispatchAction+0x3cc>
    5644: a6 13        	ldx	$13                     ; 0x2013 <dispatchAction+0x3b7>
    5646: 86 29        	stx	$29                     ; 0x2029 <dispatchAction+0x3cd>
    5648: a6 14        	ldx	$14                     ; 0x2014 <dispatchAction+0x3b8>
    564a: 86 24        	stx	$24                     ; 0x2024 <dispatchAction+0x3c8>
    564c: a6 15        	ldx	$15                     ; 0x2015 <dispatchAction+0x3b9>
    564e: 86 25        	stx	$25                     ; 0x2025 <dispatchAction+0x3c9>
    5650: e6 12        	inc	$12                     ; 0x2012 <dispatchAction+0x3b6>
    5652: d0 02        	bne	$5656 <_ZN12_GLOBAL__N_15printEPKcP6Status+0x58>
    5654: e6 13        	inc	$13                     ; 0x2013 <dispatchAction+0x3b7>
    5656: a5 12        	lda	$12                     ; 0x2012 <dispatchAction+0x3b6>
    5658: 18           	clc
    5659: 48           	pha
    565a: a5 10        	lda	$10                     ; 0x2010 <dispatchAction+0x3b4>
    565c: 69 16        	adc	#$16
    565e: 85 26        	sta	$26                     ; 0x2026 <dispatchAction+0x3ca>
    5660: a5 11        	lda	$11                     ; 0x2011 <dispatchAction+0x3b5>
    5662: 69 00        	adc	#$0
    5664: 85 27        	sta	$27                     ; 0x2027 <dispatchAction+0x3cb>
    5666: 68           	pla
    5667: 92 26        	sta	($26)                   ; 0x2026 <dispatchAction+0x3ca>
    5669: a0 01        	ldy	#$1
    566b: a5 13        	lda	$13                     ; 0x2013 <dispatchAction+0x3b7>
    566d: 91 26        	sta	($26),y                 ; 0x2026 <dispatchAction+0x3ca>
    566f: b1 28        	lda	($28),y                 ; 0x2028 <dispatchAction+0x3cc>
    5671: c9 25        	cmp	#$25
    5673: d0 1d        	bne	$5692 <_ZN12_GLOBAL__N_15printEPKcP6Status+0x94>
    5675: a9 25        	lda	#$25
    5677: a6 14        	ldx	$14                     ; 0x2014 <dispatchAction+0x3b8>
    5679: 86 12        	stx	$12                     ; 0x2012 <dispatchAction+0x3b6>
    567b: a6 15        	ldx	$15                     ; 0x2015 <dispatchAction+0x3b9>
    567d: 86 13        	stx	$13                     ; 0x2013 <dispatchAction+0x3b7>
    567f: 20 42 61     	jsr	$6142 <_ZN12_GLOBAL__N_13putEcP6Status>
    5682: a5 28        	lda	$28                     ; 0x2028 <dispatchAction+0x3cc>
    5684: 18           	clc
    5685: 69 02        	adc	#$2
    5687: 85 28        	sta	$28                     ; 0x2028 <dispatchAction+0x3cc>
    5689: a5 29        	lda	$29                     ; 0x2029 <dispatchAction+0x3cd>
    568b: 69 00        	adc	#$0
    568d: 85 29        	sta	$29                     ; 0x2029 <dispatchAction+0x3cd>
    568f: 4c f7 60     	jmp	$60f7 <_ZN12_GLOBAL__N_15printEPKcP6Status+0xaf9>
    5692: 64 2a        	stz	$2a                     ; 0x202a <dispatchAction+0x3ce>
    5694: 18           	clc
    5695: a5 24        	lda	$24                     ; 0x2024 <dispatchAction+0x3c8>
    5697: 69 0b        	adc	#$b
    5699: 85 16        	sta	$16                     ; 0x2016 <dispatchAction+0x3ba>
    569b: a5 25        	lda	$25                     ; 0x2025 <dispatchAction+0x3c9>
    569d: 69 00        	adc	#$0
    569f: 85 17        	sta	$17                     ; 0x2017 <dispatchAction+0x3bb>
    56a1: 18           	clc
    56a2: a9 00        	lda	#$0
    56a4: a0 0b        	ldy	#$b
    56a6: 91 10        	sta	($10),y                 ; 0x2010 <dispatchAction+0x3b4>
    56a8: a9 00        	lda	#$0
    56aa: 91 24        	sta	($24),y                 ; 0x2024 <dispatchAction+0x3c8>
    56ac: a5 24        	lda	$24                     ; 0x2024 <dispatchAction+0x3c8>
    56ae: 69 0d        	adc	#$d
    56b0: 85 18        	sta	$18                     ; 0x2018 <dispatchAction+0x3bc>
    56b2: a5 25        	lda	$25                     ; 0x2025 <dispatchAction+0x3c9>
    56b4: 69 00        	adc	#$0
    56b6: e6 14        	inc	$14                     ; 0x2014 <dispatchAction+0x3b8>
    56b8: d0 02        	bne	$56bc <_ZN12_GLOBAL__N_15printEPKcP6Status+0xbe>
    56ba: e6 15        	inc	$15                     ; 0x2015 <dispatchAction+0x3b9>
    56bc: a0 0d        	ldy	#$d
    56be: 85 19        	sta	$19                     ; 0x2019 <dispatchAction+0x3bd>
    56c0: a9 ff        	lda	#$ff
    56c2: 91 24        	sta	($24),y                 ; 0x2024 <dispatchAction+0x3c8>
    56c4: a0 01        	ldy	#$1
    56c6: 1a           	inc
    56c7: 91 24        	sta	($24),y                 ; 0x2024 <dispatchAction+0x3c8>
    56c9: 91 14        	sta	($14),y                 ; 0x2014 <dispatchAction+0x3b8>
    56cb: 92 24        	sta	($24)                   ; 0x2024 <dispatchAction+0x3c8>
    56cd: 91 16        	sta	($16),y                 ; 0x2016 <dispatchAction+0x3ba>
    56cf: 3a           	dec
    56d0: 91 18        	sta	($18),y                 ; 0x2018 <dispatchAction+0x3bc>
    56d2: 64 18        	stz	$18                     ; 0x2018 <dispatchAction+0x3bc>
    56d4: 80 35        	bra	$570b <_ZN12_GLOBAL__N_15printEPKcP6Status+0x10d>
    56d6: a2 02        	ldx	#$2
    56d8: 80 15        	bra	$56ef <_ZN12_GLOBAL__N_15printEPKcP6Status+0xf1>
    56da: e0 20        	cpx	#$20
    56dc: f0 0f        	beq	$56ed <_ZN12_GLOBAL__N_15printEPKcP6Status+0xef>
    56de: e0 23        	cpx	#$23
    56e0: f0 03        	beq	$56e5 <_ZN12_GLOBAL__N_15printEPKcP6Status+0xe7>
    56e2: 4c 50 57     	jmp	$5750 <_ZN12_GLOBAL__N_15printEPKcP6Status+0x152>
    56e5: a2 04        	ldx	#$4
    56e7: 80 06        	bra	$56ef <_ZN12_GLOBAL__N_15printEPKcP6Status+0xf1>
    56e9: a2 10        	ldx	#$10
    56eb: 80 02        	bra	$56ef <_ZN12_GLOBAL__N_15printEPKcP6Status+0xf1>
    56ed: a2 08        	ldx	#$8
    56ef: 86 16        	stx	$16                     ; 0x2016 <dispatchAction+0x3ba>
    56f1: a5 18        	lda	$18                     ; 0x2018 <dispatchAction+0x3bc>
    56f3: 05 16        	ora	$16                     ; 0x2016 <dispatchAction+0x3ba>
    56f5: 85 18        	sta	$18                     ; 0x2018 <dispatchAction+0x3bc>
    56f7: 91 24        	sta	($24),y                 ; 0x2024 <dispatchAction+0x3c8>
    56f9: a9 00        	lda	#$0
    56fb: 91 14        	sta	($14),y                 ; 0x2014 <dispatchAction+0x3b8>
    56fd: e6 12        	inc	$12                     ; 0x2012 <dispatchAction+0x3b6>
    56ff: d0 02        	bne	$5703 <_ZN12_GLOBAL__N_15printEPKcP6Status+0x105>
    5701: e6 13        	inc	$13                     ; 0x2013 <dispatchAction+0x3b7>
    5703: a5 12        	lda	$12                     ; 0x2012 <dispatchAction+0x3b6>
    5705: 92 26        	sta	($26)                   ; 0x2026 <dispatchAction+0x3ca>
    5707: a5 13        	lda	$13                     ; 0x2013 <dispatchAction+0x3b7>
    5709: 91 26        	sta	($26),y                 ; 0x2026 <dispatchAction+0x3ca>
    570b: b2 12        	lda	($12)                   ; 0x2012 <dispatchAction+0x3b6>
    570d: 18           	clc
    570e: aa           	tax
    570f: 69 d6        	adc	#$d6
    5711: c9 07        	cmp	#$7
    5713: b0 c5        	bcs	$56da <_ZN12_GLOBAL__N_15printEPKcP6Status+0xdc>
    5715: 0a           	asl
    5716: aa           	tax
    5717: a9 01        	lda	#$1
    5719: 85 16        	sta	$16                     ; 0x2016 <dispatchAction+0x3ba>
    571b: 7c da 69     	jmp	($69da,x)               ; 0x69da <__set_v+0xcd>
    571e: a0 11        	ldy	#$11
    5720: a5 24        	lda	$24                     ; 0x2024 <dispatchAction+0x3c8>
    5722: 18           	clc
    5723: 69 11        	adc	#$11
    5725: 85 14        	sta	$14                     ; 0x2014 <dispatchAction+0x3b8>
    5727: a5 25        	lda	$25                     ; 0x2025 <dispatchAction+0x3c9>
    5729: 69 00        	adc	#$0
    572b: 85 15        	sta	$15                     ; 0x2015 <dispatchAction+0x3b9>
    572d: b1 24        	lda	($24),y                 ; 0x2024 <dispatchAction+0x3c8>
    572f: 85 16        	sta	$16                     ; 0x2016 <dispatchAction+0x3ba>
    5731: 18           	clc
    5732: 69 02        	adc	#$2
    5734: 91 24        	sta	($24),y                 ; 0x2024 <dispatchAction+0x3c8>
    5736: a0 01        	ldy	#$1
    5738: b1 14        	lda	($14),y                 ; 0x2014 <dispatchAction+0x3b8>
    573a: 85 17        	sta	$17                     ; 0x2017 <dispatchAction+0x3bb>
    573c: 69 00        	adc	#$0
    573e: 91 14        	sta	($14),y                 ; 0x2014 <dispatchAction+0x3b8>
    5740: b2 16        	lda	($16)                   ; 0x2016 <dispatchAction+0x3ba>
    5742: 85 15        	sta	$15                     ; 0x2015 <dispatchAction+0x3b9>
    5744: b1 16        	lda	($16),y                 ; 0x2016 <dispatchAction+0x3ba>
    5746: 85 14        	sta	$14                     ; 0x2014 <dispatchAction+0x3b8>
    5748: 30 31        	bmi	$577b <_ZN12_GLOBAL__N_15printEPKcP6Status+0x17d>
    574a: a5 15        	lda	$15                     ; 0x2015 <dispatchAction+0x3b9>
    574c: a6 14        	ldx	$14                     ; 0x2014 <dispatchAction+0x3b8>
    574e: 80 4d        	bra	$579d <_ZN12_GLOBAL__N_15printEPKcP6Status+0x19f>
    5750: a6 26        	ldx	$26                     ; 0x2026 <dispatchAction+0x3ca>
    5752: 86 14        	stx	$14                     ; 0x2014 <dispatchAction+0x3b8>
    5754: a6 27        	ldx	$27                     ; 0x2027 <dispatchAction+0x3cb>
    5756: 86 15        	stx	$15                     ; 0x2015 <dispatchAction+0x3b9>
    5758: 20 3c 66     	jsr	$663c <__simple_strtoui>
    575b: a0 0b        	ldy	#$b
    575d: 91 24        	sta	($24),y                 ; 0x2024 <dispatchAction+0x3c8>
    575f: 18           	clc
    5760: a5 24        	lda	$24                     ; 0x2024 <dispatchAction+0x3c8>
    5762: 69 0b        	adc	#$b
    5764: 85 12        	sta	$12                     ; 0x2012 <dispatchAction+0x3b6>
    5766: a5 25        	lda	$25                     ; 0x2025 <dispatchAction+0x3c9>
    5768: 69 00        	adc	#$0
    576a: 85 13        	sta	$13                     ; 0x2013 <dispatchAction+0x3b7>
    576c: a0 01        	ldy	#$1
    576e: 8a           	txa
    576f: 91 12        	sta	($12),y                 ; 0x2012 <dispatchAction+0x3b6>
    5771: b2 26        	lda	($26)                   ; 0x2026 <dispatchAction+0x3ca>
    5773: 85 12        	sta	$12                     ; 0x2012 <dispatchAction+0x3b6>
    5775: b1 26        	lda	($26),y                 ; 0x2026 <dispatchAction+0x3ca>
    5777: 85 13        	sta	$13                     ; 0x2013 <dispatchAction+0x3b7>
    5779: 80 46        	bra	$57c1 <_ZN12_GLOBAL__N_15printEPKcP6Status+0x1c3>
    577b: a5 18        	lda	$18                     ; 0x2018 <dispatchAction+0x3bc>
    577d: 09 01        	ora	#$1
    577f: a6 24        	ldx	$24                     ; 0x2024 <dispatchAction+0x3c8>
    5781: 86 16        	stx	$16                     ; 0x2016 <dispatchAction+0x3ba>
    5783: a6 25        	ldx	$25                     ; 0x2025 <dispatchAction+0x3c9>
    5785: 86 17        	stx	$17                     ; 0x2017 <dispatchAction+0x3bb>
    5787: e6 16        	inc	$16                     ; 0x2016 <dispatchAction+0x3ba>
    5789: d0 02        	bne	$578d <_ZN12_GLOBAL__N_15printEPKcP6Status+0x18f>
    578b: e6 17        	inc	$17                     ; 0x2017 <dispatchAction+0x3bb>
    578d: 91 24        	sta	($24),y                 ; 0x2024 <dispatchAction+0x3c8>
    578f: a9 00        	lda	#$0
    5791: 91 16        	sta	($16),y                 ; 0x2016 <dispatchAction+0x3ba>
    5793: 38           	sec
    5794: e5 15        	sbc	$15                     ; 0x2015 <dispatchAction+0x3b9>
    5796: a8           	tay
    5797: a9 00        	lda	#$0
    5799: e5 14        	sbc	$14                     ; 0x2014 <dispatchAction+0x3b8>
    579b: aa           	tax
    579c: 98           	tya
    579d: a0 0b        	ldy	#$b
    579f: 91 24        	sta	($24),y                 ; 0x2024 <dispatchAction+0x3c8>
    57a1: 18           	clc
    57a2: a5 24        	lda	$24                     ; 0x2024 <dispatchAction+0x3c8>
    57a4: 69 0b        	adc	#$b
    57a6: 85 14        	sta	$14                     ; 0x2014 <dispatchAction+0x3b8>
    57a8: a5 25        	lda	$25                     ; 0x2025 <dispatchAction+0x3c9>
    57aa: 69 00        	adc	#$0
    57ac: 85 15        	sta	$15                     ; 0x2015 <dispatchAction+0x3b9>
    57ae: 8a           	txa
    57af: a0 01        	ldy	#$1
    57b1: 91 14        	sta	($14),y                 ; 0x2014 <dispatchAction+0x3b8>
    57b3: e6 12        	inc	$12                     ; 0x2012 <dispatchAction+0x3b6>
    57b5: d0 02        	bne	$57b9 <_ZN12_GLOBAL__N_15printEPKcP6Status+0x1bb>
    57b7: e6 13        	inc	$13                     ; 0x2013 <dispatchAction+0x3b7>
    57b9: a5 13        	lda	$13                     ; 0x2013 <dispatchAction+0x3b7>
    57bb: 91 26        	sta	($26),y                 ; 0x2026 <dispatchAction+0x3ca>
    57bd: a5 12        	lda	$12                     ; 0x2012 <dispatchAction+0x3b6>
    57bf: 92 26        	sta	($26)                   ; 0x2026 <dispatchAction+0x3ca>
    57c1: b2 12        	lda	($12)                   ; 0x2012 <dispatchAction+0x3b6>
    57c3: c9 2e        	cmp	#$2e
    57c5: f0 03        	beq	$57ca <_ZN12_GLOBAL__N_15printEPKcP6Status+0x1cc>
    57c7: 4c df 58     	jmp	$58df <_ZN12_GLOBAL__N_15printEPKcP6Status+0x2e1>
    57ca: a6 12        	ldx	$12                     ; 0x2012 <dispatchAction+0x3b6>
    57cc: 86 14        	stx	$14                     ; 0x2014 <dispatchAction+0x3b8>
    57ce: a6 13        	ldx	$13                     ; 0x2013 <dispatchAction+0x3b7>
    57d0: 86 15        	stx	$15                     ; 0x2015 <dispatchAction+0x3b9>
    57d2: e6 14        	inc	$14                     ; 0x2014 <dispatchAction+0x3b8>
    57d4: d0 02        	bne	$57d8 <_ZN12_GLOBAL__N_15printEPKcP6Status+0x1da>
    57d6: e6 15        	inc	$15                     ; 0x2015 <dispatchAction+0x3b9>
    57d8: a5 14        	lda	$14                     ; 0x2014 <dispatchAction+0x3b8>
    57da: 92 26        	sta	($26)                   ; 0x2026 <dispatchAction+0x3ca>
    57dc: a5 15        	lda	$15                     ; 0x2015 <dispatchAction+0x3b9>
    57de: 91 26        	sta	($26),y                 ; 0x2026 <dispatchAction+0x3ca>
    57e0: b1 12        	lda	($12),y                 ; 0x2012 <dispatchAction+0x3b6>
    57e2: c9 2a        	cmp	#$2a
    57e4: f0 03        	beq	$57e9 <_ZN12_GLOBAL__N_15printEPKcP6Status+0x1eb>
    57e6: 4c 54 58     	jmp	$5854 <_ZN12_GLOBAL__N_15printEPKcP6Status+0x256>
    57e9: a4 24        	ldy	$24                     ; 0x2024 <dispatchAction+0x3c8>
    57eb: a5 24        	lda	$24                     ; 0x2024 <dispatchAction+0x3c8>
    57ed: 84 18        	sty	$18                     ; 0x2018 <dispatchAction+0x3bc>
    57ef: 18           	clc
    57f0: 69 11        	adc	#$11
    57f2: 85 14        	sta	$14                     ; 0x2014 <dispatchAction+0x3b8>
    57f4: a5 25        	lda	$25                     ; 0x2025 <dispatchAction+0x3c9>
    57f6: 69 00        	adc	#$0
    57f8: a0 11        	ldy	#$11
    57fa: 85 15        	sta	$15                     ; 0x2015 <dispatchAction+0x3b9>
    57fc: b1 24        	lda	($24),y                 ; 0x2024 <dispatchAction+0x3c8>
    57fe: 85 16        	sta	$16                     ; 0x2016 <dispatchAction+0x3ba>
    5800: a0 01        	ldy	#$1
    5802: b1 14        	lda	($14),y                 ; 0x2014 <dispatchAction+0x3b8>
    5804: 85 19        	sta	$19                     ; 0x2019 <dispatchAction+0x3bd>
    5806: a5 16        	lda	$16                     ; 0x2016 <dispatchAction+0x3ba>
    5808: a6 19        	ldx	$19                     ; 0x2019 <dispatchAction+0x3bd>
    580a: 86 17        	stx	$17                     ; 0x2017 <dispatchAction+0x3bb>
    580c: 18           	clc
    580d: 69 02        	adc	#$2
    580f: 85 1a        	sta	$1a                     ; 0x201a <dispatchAction+0x3be>
    5811: a5 19        	lda	$19                     ; 0x2019 <dispatchAction+0x3bd>
    5813: 69 00        	adc	#$0
    5815: 85 19        	sta	$19                     ; 0x2019 <dispatchAction+0x3bd>
    5817: a0 11        	ldy	#$11
    5819: a5 1a        	lda	$1a                     ; 0x201a <dispatchAction+0x3be>
    581b: 91 24        	sta	($24),y                 ; 0x2024 <dispatchAction+0x3c8>
    581d: a5 19        	lda	$19                     ; 0x2019 <dispatchAction+0x3bd>
    581f: a0 01        	ldy	#$1
    5821: 91 14        	sta	($14),y                 ; 0x2014 <dispatchAction+0x3b8>
    5823: b2 16        	lda	($16)                   ; 0x2016 <dispatchAction+0x3ba>
    5825: 85 14        	sta	$14                     ; 0x2014 <dispatchAction+0x3b8>
    5827: b1 16        	lda	($16),y                 ; 0x2016 <dispatchAction+0x3ba>
    5829: 85 16        	sta	$16                     ; 0x2016 <dispatchAction+0x3ba>
    582b: a0 0d        	ldy	#$d
    582d: a5 14        	lda	$14                     ; 0x2014 <dispatchAction+0x3b8>
    582f: 91 24        	sta	($24),y                 ; 0x2024 <dispatchAction+0x3c8>
    5831: 18           	clc
    5832: a5 18        	lda	$18                     ; 0x2018 <dispatchAction+0x3bc>
    5834: 69 0d        	adc	#$d
    5836: 85 14        	sta	$14                     ; 0x2014 <dispatchAction+0x3b8>
    5838: a5 25        	lda	$25                     ; 0x2025 <dispatchAction+0x3c9>
    583a: 69 00        	adc	#$0
    583c: 18           	clc
    583d: 85 15        	sta	$15                     ; 0x2015 <dispatchAction+0x3b9>
    583f: a5 16        	lda	$16                     ; 0x2016 <dispatchAction+0x3ba>
    5841: a0 01        	ldy	#$1
    5843: 91 14        	sta	($14),y                 ; 0x2014 <dispatchAction+0x3b8>
    5845: a5 12        	lda	$12                     ; 0x2012 <dispatchAction+0x3b6>
    5847: 69 02        	adc	#$2
    5849: 85 12        	sta	$12                     ; 0x2012 <dispatchAction+0x3b6>
    584b: a5 13        	lda	$13                     ; 0x2013 <dispatchAction+0x3b7>
    584d: 69 00        	adc	#$0
    584f: 85 13        	sta	$13                     ; 0x2013 <dispatchAction+0x3b7>
    5851: 4c c3 58     	jmp	$58c3 <_ZN12_GLOBAL__N_15printEPKcP6Status+0x2c5>
    5854: a6 28        	ldx	$28                     ; 0x2028 <dispatchAction+0x3cc>
    5856: 86 2c        	stx	$2c                     ; 0x202c <dispatchAction+0x3d0>
    5858: a6 29        	ldx	$29                     ; 0x2029 <dispatchAction+0x3cd>
    585a: 86 2d        	stx	$2d                     ; 0x202d <dispatchAction+0x3d1>
    585c: a6 14        	ldx	$14                     ; 0x2014 <dispatchAction+0x3b8>
    585e: 86 12        	stx	$12                     ; 0x2012 <dispatchAction+0x3b6>
    5860: a6 15        	ldx	$15                     ; 0x2015 <dispatchAction+0x3b9>
    5862: 86 13        	stx	$13                     ; 0x2013 <dispatchAction+0x3b7>
    5864: 18           	clc
    5865: a5 10        	lda	$10                     ; 0x2010 <dispatchAction+0x3b4>
    5867: 69 18        	adc	#$18
    5869: 85 28        	sta	$28                     ; 0x2028 <dispatchAction+0x3cc>
    586b: a5 11        	lda	$11                     ; 0x2011 <dispatchAction+0x3b5>
    586d: 69 00        	adc	#$0
    586f: 85 29        	sta	$29                     ; 0x2029 <dispatchAction+0x3cd>
    5871: a6 28        	ldx	$28                     ; 0x2028 <dispatchAction+0x3cc>
    5873: 86 14        	stx	$14                     ; 0x2014 <dispatchAction+0x3b8>
    5875: 85 15        	sta	$15                     ; 0x2015 <dispatchAction+0x3b9>
    5877: 20 3c 66     	jsr	$663c <__simple_strtoui>
    587a: a0 0d        	ldy	#$d
    587c: 91 24        	sta	($24),y                 ; 0x2024 <dispatchAction+0x3c8>
    587e: 18           	clc
    587f: a5 24        	lda	$24                     ; 0x2024 <dispatchAction+0x3c8>
    5881: 69 0d        	adc	#$d
    5883: 85 12        	sta	$12                     ; 0x2012 <dispatchAction+0x3b6>
    5885: a5 25        	lda	$25                     ; 0x2025 <dispatchAction+0x3c9>
    5887: 69 00        	adc	#$0
    5889: 85 13        	sta	$13                     ; 0x2013 <dispatchAction+0x3b7>
    588b: a0 01        	ldy	#$1
    588d: 8a           	txa
    588e: 91 12        	sta	($12),y                 ; 0x2012 <dispatchAction+0x3b6>
    5890: b2 28        	lda	($28)                   ; 0x2028 <dispatchAction+0x3cc>
    5892: 85 12        	sta	$12                     ; 0x2012 <dispatchAction+0x3b6>
    5894: b1 28        	lda	($28),y                 ; 0x2028 <dispatchAction+0x3cc>
    5896: 85 13        	sta	$13                     ; 0x2013 <dispatchAction+0x3b7>
    5898: b1 26        	lda	($26),y                 ; 0x2026 <dispatchAction+0x3ca>
    589a: c5 13        	cmp	$13                     ; 0x2013 <dispatchAction+0x3b7>
    589c: d0 1d        	bne	$58bb <_ZN12_GLOBAL__N_15printEPKcP6Status+0x2bd>
    589e: b2 26        	lda	($26)                   ; 0x2026 <dispatchAction+0x3ca>
    58a0: c5 12        	cmp	$12                     ; 0x2012 <dispatchAction+0x3b6>
    58a2: d0 17        	bne	$58bb <_ZN12_GLOBAL__N_15printEPKcP6Status+0x2bd>
    58a4: a0 0d        	ldy	#$d
    58a6: a5 24        	lda	$24                     ; 0x2024 <dispatchAction+0x3c8>
    58a8: 18           	clc
    58a9: 69 0d        	adc	#$d
    58ab: 85 14        	sta	$14                     ; 0x2014 <dispatchAction+0x3b8>
    58ad: a5 25        	lda	$25                     ; 0x2025 <dispatchAction+0x3c9>
    58af: 69 00        	adc	#$0
    58b1: 85 15        	sta	$15                     ; 0x2015 <dispatchAction+0x3b9>
    58b3: a9 00        	lda	#$0
    58b5: 91 24        	sta	($24),y                 ; 0x2024 <dispatchAction+0x3c8>
    58b7: a0 01        	ldy	#$1
    58b9: 91 14        	sta	($14),y                 ; 0x2014 <dispatchAction+0x3b8>
    58bb: a6 2c        	ldx	$2c                     ; 0x202c <dispatchAction+0x3d0>
    58bd: 86 28        	stx	$28                     ; 0x2028 <dispatchAction+0x3cc>
    58bf: a6 2d        	ldx	$2d                     ; 0x202d <dispatchAction+0x3d1>
    58c1: 86 29        	stx	$29                     ; 0x2029 <dispatchAction+0x3cd>
    58c3: a6 24        	ldx	$24                     ; 0x2024 <dispatchAction+0x3c8>
    58c5: 86 14        	stx	$14                     ; 0x2014 <dispatchAction+0x3b8>
    58c7: a6 25        	ldx	$25                     ; 0x2025 <dispatchAction+0x3c9>
    58c9: 86 15        	stx	$15                     ; 0x2015 <dispatchAction+0x3b9>
    58cb: e6 14        	inc	$14                     ; 0x2014 <dispatchAction+0x3b8>
    58cd: d0 02        	bne	$58d1 <_ZN12_GLOBAL__N_15printEPKcP6Status+0x2d3>
    58cf: e6 15        	inc	$15                     ; 0x2015 <dispatchAction+0x3b9>
    58d1: b1 14        	lda	($14),y                 ; 0x2014 <dispatchAction+0x3b8>
    58d3: 85 16        	sta	$16                     ; 0x2016 <dispatchAction+0x3ba>
    58d5: a9 ef        	lda	#$ef
    58d7: 31 24        	and	($24),y                 ; 0x2024 <dispatchAction+0x3c8>
    58d9: 91 24        	sta	($24),y                 ; 0x2024 <dispatchAction+0x3c8>
    58db: a5 16        	lda	$16                     ; 0x2016 <dispatchAction+0x3ba>
    58dd: 91 14        	sta	($14),y                 ; 0x2014 <dispatchAction+0x3b8>
    58df: a6 12        	ldx	$12                     ; 0x2012 <dispatchAction+0x3b6>
    58e1: 86 14        	stx	$14                     ; 0x2014 <dispatchAction+0x3b8>
    58e3: a6 13        	ldx	$13                     ; 0x2013 <dispatchAction+0x3b7>
    58e5: 86 15        	stx	$15                     ; 0x2015 <dispatchAction+0x3b9>
    58e7: e6 14        	inc	$14                     ; 0x2014 <dispatchAction+0x3b8>
    58e9: d0 02        	bne	$58ed <_ZN12_GLOBAL__N_15printEPKcP6Status+0x2ef>
    58eb: e6 15        	inc	$15                     ; 0x2015 <dispatchAction+0x3b9>
    58ed: a5 14        	lda	$14                     ; 0x2014 <dispatchAction+0x3b8>
    58ef: 92 26        	sta	($26)                   ; 0x2026 <dispatchAction+0x3ca>
    58f1: a5 15        	lda	$15                     ; 0x2015 <dispatchAction+0x3b9>
    58f3: 91 26        	sta	($26),y                 ; 0x2026 <dispatchAction+0x3ca>
    58f5: b2 12        	lda	($12)                   ; 0x2012 <dispatchAction+0x3b6>
    58f7: 38           	sec
    58f8: aa           	tax
    58f9: e9 6c        	sbc	#$6c
    58fb: 50 02        	bvc	$58ff <_ZN12_GLOBAL__N_15printEPKcP6Status+0x301>
    58fd: 49 80        	eor	#$80
    58ff: c9 00        	cmp	#$0
    5901: 10 16        	bpl	$5919 <_ZN12_GLOBAL__N_15printEPKcP6Status+0x31b>
    5903: e0 4c        	cpx	#$4c
    5905: f0 3c        	beq	$5943 <_ZN12_GLOBAL__N_15printEPKcP6Status+0x345>
    5907: 8a           	txa
    5908: e0 68        	cpx	#$68
    590a: d0 03        	bne	$590f <_ZN12_GLOBAL__N_15printEPKcP6Status+0x311>
    590c: 4c bf 59     	jmp	$59bf <_ZN12_GLOBAL__N_15printEPKcP6Status+0x3c1>
    590f: a2 08        	ldx	#$8
    5911: a0 08        	ldy	#$8
    5913: c9 6a        	cmp	#$6a
    5915: d0 14        	bne	$592b <_ZN12_GLOBAL__N_15printEPKcP6Status+0x32d>
    5917: 80 4a        	bra	$5963 <_ZN12_GLOBAL__N_15printEPKcP6Status+0x365>
    5919: e0 6c        	cpx	#$6c
    591b: d0 03        	bne	$5920 <_ZN12_GLOBAL__N_15printEPKcP6Status+0x322>
    591d: 4c 8a 59     	jmp	$598a <_ZN12_GLOBAL__N_15printEPKcP6Status+0x38c>
    5920: 8a           	txa
    5921: e0 74        	cpx	#$74
    5923: f0 3a        	beq	$595f <_ZN12_GLOBAL__N_15printEPKcP6Status+0x361>
    5925: a2 02        	ldx	#$2
    5927: c9 7a        	cmp	#$7a
    5929: f0 14        	beq	$593f <_ZN12_GLOBAL__N_15printEPKcP6Status+0x341>
    592b: a5 12        	lda	$12                     ; 0x2012 <dispatchAction+0x3b6>
    592d: 92 26        	sta	($26)                   ; 0x2026 <dispatchAction+0x3ca>
    592f: a0 01        	ldy	#$1
    5931: a5 13        	lda	$13                     ; 0x2013 <dispatchAction+0x3b7>
    5933: 91 26        	sta	($26),y                 ; 0x2026 <dispatchAction+0x3ca>
    5935: a6 12        	ldx	$12                     ; 0x2012 <dispatchAction+0x3b6>
    5937: 86 14        	stx	$14                     ; 0x2014 <dispatchAction+0x3b8>
    5939: a6 13        	ldx	$13                     ; 0x2013 <dispatchAction+0x3b7>
    593b: 86 15        	stx	$15                     ; 0x2015 <dispatchAction+0x3b9>
    593d: a2 02        	ldx	#$2
    593f: a0 02        	ldy	#$2
    5941: 80 20        	bra	$5963 <_ZN12_GLOBAL__N_15printEPKcP6Status+0x365>
    5943: a6 24        	ldx	$24                     ; 0x2024 <dispatchAction+0x3c8>
    5945: 86 12        	stx	$12                     ; 0x2012 <dispatchAction+0x3b6>
    5947: a6 25        	ldx	$25                     ; 0x2025 <dispatchAction+0x3c9>
    5949: 86 13        	stx	$13                     ; 0x2013 <dispatchAction+0x3b7>
    594b: e6 12        	inc	$12                     ; 0x2012 <dispatchAction+0x3b6>
    594d: d0 02        	bne	$5951 <_ZN12_GLOBAL__N_15printEPKcP6Status+0x353>
    594f: e6 13        	inc	$13                     ; 0x2013 <dispatchAction+0x3b7>
    5951: b1 12        	lda	($12),y                 ; 0x2012 <dispatchAction+0x3b6>
    5953: 85 16        	sta	$16                     ; 0x2016 <dispatchAction+0x3ba>
    5955: a9 40        	lda	#$40
    5957: 11 24        	ora	($24),y                 ; 0x2024 <dispatchAction+0x3c8>
    5959: 91 24        	sta	($24),y                 ; 0x2024 <dispatchAction+0x3c8>
    595b: a5 16        	lda	$16                     ; 0x2016 <dispatchAction+0x3ba>
    595d: 91 12        	sta	($12),y                 ; 0x2012 <dispatchAction+0x3b6>
    595f: a0 02        	ldy	#$2
    5961: a2 02        	ldx	#$2
    5963: b2 14        	lda	($14)                   ; 0x2014 <dispatchAction+0x3b8>
    5965: 85 16        	sta	$16                     ; 0x2016 <dispatchAction+0x3ba>
    5967: 86 2b        	stx	$2b                     ; 0x202b <dispatchAction+0x3cf>
    5969: 98           	tya
    596a: a0 0c        	ldy	#$c
    596c: 91 10        	sta	($10),y                 ; 0x2010 <dispatchAction+0x3b4>
    596e: 18           	clc
    596f: a5 16        	lda	$16                     ; 0x2016 <dispatchAction+0x3ba>
    5971: 69 9d        	adc	#$9d
    5973: c9 16        	cmp	#$16
    5975: 90 03        	bcc	$597a <_ZN12_GLOBAL__N_15printEPKcP6Status+0x37c>
    5977: 4c f3 59     	jmp	$59f3 <_ZN12_GLOBAL__N_15printEPKcP6Status+0x3f5>
    597a: aa           	tax
    597b: b1 10        	lda	($10),y                 ; 0x2010 <dispatchAction+0x3b4>
    597d: 8a           	txa
    597e: 0a           	asl
    597f: aa           	tax
    5980: 7c e8 69     	jmp	($69e8,x)               ; 0x69e8 <__set_v+0xdb>
    5983: a9 0a        	lda	#$a
    5985: 92 24        	sta	($24)                   ; 0x2024 <dispatchAction+0x3c8>
    5987: 4c 5c 5b     	jmp	$5b5c <_ZN12_GLOBAL__N_15printEPKcP6Status+0x55e>
    598a: b1 12        	lda	($12),y                 ; 0x2012 <dispatchAction+0x3b6>
    598c: a2 04        	ldx	#$4
    598e: a0 04        	ldy	#$4
    5990: 48           	pha
    5991: 98           	tya
    5992: a0 0c        	ldy	#$c
    5994: 91 10        	sta	($10),y                 ; 0x2010 <dispatchAction+0x3b4>
    5996: 68           	pla
    5997: 86 2b        	stx	$2b                     ; 0x202b <dispatchAction+0x3cf>
    5999: 85 16        	sta	$16                     ; 0x2016 <dispatchAction+0x3ba>
    599b: c9 6c        	cmp	#$6c
    599d: d0 cf        	bne	$596e <_ZN12_GLOBAL__N_15printEPKcP6Status+0x370>
    599f: a5 12        	lda	$12                     ; 0x2012 <dispatchAction+0x3b6>
    59a1: 18           	clc
    59a2: 69 02        	adc	#$2
    59a4: aa           	tax
    59a5: a5 13        	lda	$13                     ; 0x2013 <dispatchAction+0x3b7>
    59a7: 69 00        	adc	#$0
    59a9: 86 14        	stx	$14                     ; 0x2014 <dispatchAction+0x3b8>
    59ab: 85 15        	sta	$15                     ; 0x2015 <dispatchAction+0x3b9>
    59ad: 85 12        	sta	$12                     ; 0x2012 <dispatchAction+0x3b6>
    59af: 8a           	txa
    59b0: 92 26        	sta	($26)                   ; 0x2026 <dispatchAction+0x3ca>
    59b2: a0 01        	ldy	#$1
    59b4: a5 12        	lda	$12                     ; 0x2012 <dispatchAction+0x3b6>
    59b6: 91 26        	sta	($26),y                 ; 0x2026 <dispatchAction+0x3ca>
    59b8: a2 08        	ldx	#$8
    59ba: a0 08        	ldy	#$8
    59bc: 4c 63 59     	jmp	$5963 <_ZN12_GLOBAL__N_15printEPKcP6Status+0x365>
    59bf: b1 12        	lda	($12),y                 ; 0x2012 <dispatchAction+0x3b6>
    59c1: a2 02        	ldx	#$2
    59c3: a0 02        	ldy	#$2
    59c5: 48           	pha
    59c6: 98           	tya
    59c7: a0 0c        	ldy	#$c
    59c9: 91 10        	sta	($10),y                 ; 0x2010 <dispatchAction+0x3b4>
    59cb: 68           	pla
    59cc: 86 2b        	stx	$2b                     ; 0x202b <dispatchAction+0x3cf>
    59ce: 85 16        	sta	$16                     ; 0x2016 <dispatchAction+0x3ba>
    59d0: c9 68        	cmp	#$68
    59d2: f0 03        	beq	$59d7 <_ZN12_GLOBAL__N_15printEPKcP6Status+0x3d9>
    59d4: 4c 6e 59     	jmp	$596e <_ZN12_GLOBAL__N_15printEPKcP6Status+0x370>
    59d7: a5 12        	lda	$12                     ; 0x2012 <dispatchAction+0x3b6>
    59d9: 18           	clc
    59da: 69 02        	adc	#$2
    59dc: aa           	tax
    59dd: a5 13        	lda	$13                     ; 0x2013 <dispatchAction+0x3b7>
    59df: 69 00        	adc	#$0
    59e1: 86 14        	stx	$14                     ; 0x2014 <dispatchAction+0x3b8>
    59e3: 85 15        	sta	$15                     ; 0x2015 <dispatchAction+0x3b9>
    59e5: 85 12        	sta	$12                     ; 0x2012 <dispatchAction+0x3b6>
    59e7: 8a           	txa
    59e8: 92 26        	sta	($26)                   ; 0x2026 <dispatchAction+0x3ca>
    59ea: a0 01        	ldy	#$1
    59ec: a5 12        	lda	$12                     ; 0x2012 <dispatchAction+0x3b6>
    59ee: 91 26        	sta	($26),y                 ; 0x2026 <dispatchAction+0x3ca>
    59f0: 4c 61 59     	jmp	$5961 <_ZN12_GLOBAL__N_15printEPKcP6Status+0x363>
    59f3: a6 16        	ldx	$16                     ; 0x2016 <dispatchAction+0x3ba>
    59f5: e0 58        	cpx	#$58
    59f7: f0 03        	beq	$59fc <_ZN12_GLOBAL__N_15printEPKcP6Status+0x3fe>
    59f9: 4c f7 60     	jmp	$60f7 <_ZN12_GLOBAL__N_15printEPKcP6Status+0xaf9>
    59fc: a9 10        	lda	#$10
    59fe: 4c 3b 5b     	jmp	$5b3b <_ZN12_GLOBAL__N_15printEPKcP6Status+0x53d>
    5a01: a9 10        	lda	#$10
    5a03: 92 24        	sta	($24)                   ; 0x2024 <dispatchAction+0x3c8>
    5a05: a6 24        	ldx	$24                     ; 0x2024 <dispatchAction+0x3c8>
    5a07: 86 12        	stx	$12                     ; 0x2012 <dispatchAction+0x3b6>
    5a09: a6 25        	ldx	$25                     ; 0x2025 <dispatchAction+0x3c9>
    5a0b: 86 13        	stx	$13                     ; 0x2013 <dispatchAction+0x3b7>
    5a0d: e6 12        	inc	$12                     ; 0x2012 <dispatchAction+0x3b6>
    5a0f: d0 02        	bne	$5a13 <_ZN12_GLOBAL__N_15printEPKcP6Status+0x415>
    5a11: e6 13        	inc	$13                     ; 0x2013 <dispatchAction+0x3b7>
    5a13: a0 01        	ldy	#$1
    5a15: a9 84        	lda	#$84
    5a17: 80 16        	bra	$5a2f <_ZN12_GLOBAL__N_15printEPKcP6Status+0x431>
    5a19: a9 10        	lda	#$10
    5a1b: 92 24        	sta	($24)                   ; 0x2024 <dispatchAction+0x3c8>
    5a1d: a6 24        	ldx	$24                     ; 0x2024 <dispatchAction+0x3c8>
    5a1f: 86 12        	stx	$12                     ; 0x2012 <dispatchAction+0x3b6>
    5a21: a6 25        	ldx	$25                     ; 0x2025 <dispatchAction+0x3c9>
    5a23: 86 13        	stx	$13                     ; 0x2013 <dispatchAction+0x3b7>
    5a25: e6 12        	inc	$12                     ; 0x2012 <dispatchAction+0x3b6>
    5a27: d0 02        	bne	$5a2b <_ZN12_GLOBAL__N_15printEPKcP6Status+0x42d>
    5a29: e6 13        	inc	$13                     ; 0x2013 <dispatchAction+0x3b7>
    5a2b: a0 01        	ldy	#$1
    5a2d: a9 80        	lda	#$80
    5a2f: 11 24        	ora	($24),y                 ; 0x2024 <dispatchAction+0x3c8>
    5a31: aa           	tax
    5a32: a9 01        	lda	#$1
    5a34: 11 12        	ora	($12),y                 ; 0x2012 <dispatchAction+0x3b6>
    5a36: 85 14        	sta	$14                     ; 0x2014 <dispatchAction+0x3b8>
    5a38: 8a           	txa
    5a39: 91 24        	sta	($24),y                 ; 0x2024 <dispatchAction+0x3c8>
    5a3b: a5 14        	lda	$14                     ; 0x2014 <dispatchAction+0x3b8>
    5a3d: 4c 5a 5b     	jmp	$5b5a <_ZN12_GLOBAL__N_15printEPKcP6Status+0x55c>
    5a40: a4 24        	ldy	$24                     ; 0x2024 <dispatchAction+0x3c8>
    5a42: 18           	clc
    5a43: a5 24        	lda	$24                     ; 0x2024 <dispatchAction+0x3c8>
    5a45: 84 18        	sty	$18                     ; 0x2018 <dispatchAction+0x3bc>
    5a47: 69 11        	adc	#$11
    5a49: 85 12        	sta	$12                     ; 0x2012 <dispatchAction+0x3b6>
    5a4b: a5 25        	lda	$25                     ; 0x2025 <dispatchAction+0x3c9>
    5a4d: 69 00        	adc	#$0
    5a4f: 85 13        	sta	$13                     ; 0x2013 <dispatchAction+0x3b7>
    5a51: a0 11        	ldy	#$11
    5a53: b1 24        	lda	($24),y                 ; 0x2024 <dispatchAction+0x3c8>
    5a55: 85 16        	sta	$16                     ; 0x2016 <dispatchAction+0x3ba>
    5a57: 18           	clc
    5a58: 69 02        	adc	#$2
    5a5a: 91 24        	sta	($24),y                 ; 0x2024 <dispatchAction+0x3c8>
    5a5c: a0 01        	ldy	#$1
    5a5e: b1 12        	lda	($12),y                 ; 0x2012 <dispatchAction+0x3b6>
    5a60: 85 17        	sta	$17                     ; 0x2017 <dispatchAction+0x3bb>
    5a62: 69 00        	adc	#$0
    5a64: 18           	clc
    5a65: 91 12        	sta	($12),y                 ; 0x2012 <dispatchAction+0x3b6>
    5a67: b2 16        	lda	($16)                   ; 0x2016 <dispatchAction+0x3ba>
    5a69: 85 12        	sta	$12                     ; 0x2012 <dispatchAction+0x3b6>
    5a6b: b1 16        	lda	($16),y                 ; 0x2016 <dispatchAction+0x3ba>
    5a6d: 85 13        	sta	$13                     ; 0x2013 <dispatchAction+0x3b7>
    5a6f: a5 18        	lda	$18                     ; 0x2018 <dispatchAction+0x3bc>
    5a71: 69 05        	adc	#$5
    5a73: 85 16        	sta	$16                     ; 0x2016 <dispatchAction+0x3ba>
    5a75: a5 25        	lda	$25                     ; 0x2025 <dispatchAction+0x3c9>
    5a77: 69 00        	adc	#$0
    5a79: 85 17        	sta	$17                     ; 0x2017 <dispatchAction+0x3bb>
    5a7b: a0 05        	ldy	#$5
    5a7d: b1 24        	lda	($24),y                 ; 0x2024 <dispatchAction+0x3c8>
    5a7f: 85 18        	sta	$18                     ; 0x2018 <dispatchAction+0x3bc>
    5a81: a0 01        	ldy	#$1
    5a83: b1 16        	lda	($16),y                 ; 0x2016 <dispatchAction+0x3ba>
    5a85: 85 16        	sta	$16                     ; 0x2016 <dispatchAction+0x3ba>
    5a87: a5 18        	lda	$18                     ; 0x2018 <dispatchAction+0x3bc>
    5a89: 92 12        	sta	($12)                   ; 0x2012 <dispatchAction+0x3b6>
    5a8b: a5 16        	lda	$16                     ; 0x2016 <dispatchAction+0x3ba>
    5a8d: 91 12        	sta	($12),y                 ; 0x2012 <dispatchAction+0x3b6>
    5a8f: e6 14        	inc	$14                     ; 0x2014 <dispatchAction+0x3b8>
    5a91: d0 02        	bne	$5a95 <_ZN12_GLOBAL__N_15printEPKcP6Status+0x497>
    5a93: e6 15        	inc	$15                     ; 0x2015 <dispatchAction+0x3b9>
    5a95: a6 14        	ldx	$14                     ; 0x2014 <dispatchAction+0x3b8>
    5a97: 86 28        	stx	$28                     ; 0x2028 <dispatchAction+0x3cc>
    5a99: a6 15        	ldx	$15                     ; 0x2015 <dispatchAction+0x3b9>
    5a9b: 86 29        	stx	$29                     ; 0x2029 <dispatchAction+0x3cd>
    5a9d: 4c f7 60     	jmp	$60f7 <_ZN12_GLOBAL__N_15printEPKcP6Status+0xaf9>
    5aa0: a0 11        	ldy	#$11
    5aa2: a5 24        	lda	$24                     ; 0x2024 <dispatchAction+0x3c8>
    5aa4: 18           	clc
    5aa5: 69 11        	adc	#$11
    5aa7: 85 12        	sta	$12                     ; 0x2012 <dispatchAction+0x3b6>
    5aa9: a5 25        	lda	$25                     ; 0x2025 <dispatchAction+0x3c9>
    5aab: 69 00        	adc	#$0
    5aad: 85 13        	sta	$13                     ; 0x2013 <dispatchAction+0x3b7>
    5aaf: b1 24        	lda	($24),y                 ; 0x2024 <dispatchAction+0x3c8>
    5ab1: aa           	tax
    5ab2: a0 01        	ldy	#$1
    5ab4: b1 12        	lda	($12),y                 ; 0x2012 <dispatchAction+0x3b6>
    5ab6: 86 14        	stx	$14                     ; 0x2014 <dispatchAction+0x3b8>
    5ab8: 85 15        	sta	$15                     ; 0x2015 <dispatchAction+0x3b9>
    5aba: a8           	tay
    5abb: 18           	clc
    5abc: 8a           	txa
    5abd: 69 02        	adc	#$2
    5abf: 85 16        	sta	$16                     ; 0x2016 <dispatchAction+0x3ba>
    5ac1: 98           	tya
    5ac2: 69 00        	adc	#$0
    5ac4: 85 17        	sta	$17                     ; 0x2017 <dispatchAction+0x3bb>
    5ac6: a5 16        	lda	$16                     ; 0x2016 <dispatchAction+0x3ba>
    5ac8: a0 11        	ldy	#$11
    5aca: 91 24        	sta	($24),y                 ; 0x2024 <dispatchAction+0x3c8>
    5acc: a0 01        	ldy	#$1
    5ace: a5 17        	lda	$17                     ; 0x2017 <dispatchAction+0x3bb>
    5ad0: 91 12        	sta	($12),y                 ; 0x2012 <dispatchAction+0x3b6>
    5ad2: b2 14        	lda	($14)                   ; 0x2014 <dispatchAction+0x3b8>
    5ad4: 85 12        	sta	$12                     ; 0x2012 <dispatchAction+0x3b6>
    5ad6: b1 14        	lda	($14),y                 ; 0x2014 <dispatchAction+0x3b8>
    5ad8: 85 13        	sta	$13                     ; 0x2013 <dispatchAction+0x3b7>
    5ada: 4c 2b 5b     	jmp	$5b2b <_ZN12_GLOBAL__N_15printEPKcP6Status+0x52d>
    5add: a9 08        	lda	#$8
    5adf: 4c 3b 5b     	jmp	$5b3b <_ZN12_GLOBAL__N_15printEPKcP6Status+0x53d>
    5ae2: a0 11        	ldy	#$11
    5ae4: a5 24        	lda	$24                     ; 0x2024 <dispatchAction+0x3c8>
    5ae6: 18           	clc
    5ae7: 69 11        	adc	#$11
    5ae9: 85 12        	sta	$12                     ; 0x2012 <dispatchAction+0x3b6>
    5aeb: a5 25        	lda	$25                     ; 0x2025 <dispatchAction+0x3c9>
    5aed: 69 00        	adc	#$0
    5aef: 85 13        	sta	$13                     ; 0x2013 <dispatchAction+0x3b7>
    5af1: b1 24        	lda	($24),y                 ; 0x2024 <dispatchAction+0x3c8>
    5af3: aa           	tax
    5af4: a0 01        	ldy	#$1
    5af6: b1 12        	lda	($12),y                 ; 0x2012 <dispatchAction+0x3b6>
    5af8: 86 14        	stx	$14                     ; 0x2014 <dispatchAction+0x3b8>
    5afa: 85 15        	sta	$15                     ; 0x2015 <dispatchAction+0x3b9>
    5afc: a8           	tay
    5afd: 18           	clc
    5afe: 8a           	txa
    5aff: 69 02        	adc	#$2
    5b01: 85 16        	sta	$16                     ; 0x2016 <dispatchAction+0x3ba>
    5b03: 98           	tya
    5b04: 69 00        	adc	#$0
    5b06: 85 17        	sta	$17                     ; 0x2017 <dispatchAction+0x3bb>
    5b08: a5 16        	lda	$16                     ; 0x2016 <dispatchAction+0x3ba>
    5b0a: a0 11        	ldy	#$11
    5b0c: 91 24        	sta	($24),y                 ; 0x2024 <dispatchAction+0x3c8>
    5b0e: a0 01        	ldy	#$1
    5b10: a5 17        	lda	$17                     ; 0x2017 <dispatchAction+0x3bb>
    5b12: 91 12        	sta	($12),y                 ; 0x2012 <dispatchAction+0x3b6>
    5b14: b2 14        	lda	($14)                   ; 0x2014 <dispatchAction+0x3b8>
    5b16: 18           	clc
    5b17: 48           	pha
    5b18: a5 10        	lda	$10                     ; 0x2010 <dispatchAction+0x3b4>
    5b1a: 69 18        	adc	#$18
    5b1c: 85 12        	sta	$12                     ; 0x2012 <dispatchAction+0x3b6>
    5b1e: a5 11        	lda	$11                     ; 0x2011 <dispatchAction+0x3b5>
    5b20: 69 00        	adc	#$0
    5b22: 85 13        	sta	$13                     ; 0x2013 <dispatchAction+0x3b7>
    5b24: 68           	pla
    5b25: 92 12        	sta	($12)                   ; 0x2012 <dispatchAction+0x3b6>
    5b27: a9 00        	lda	#$0
    5b29: 91 12        	sta	($12),y                 ; 0x2012 <dispatchAction+0x3b6>
    5b2b: a6 24        	ldx	$24                     ; 0x2024 <dispatchAction+0x3c8>
    5b2d: 86 14        	stx	$14                     ; 0x2014 <dispatchAction+0x3b8>
    5b2f: a6 25        	ldx	$25                     ; 0x2025 <dispatchAction+0x3c9>
    5b31: 86 15        	stx	$15                     ; 0x2015 <dispatchAction+0x3b9>
    5b33: 20 23 62     	jsr	$6223 <_ZN12_GLOBAL__N_112print_stringEPKcP6Status>
    5b36: 4c e7 60     	jmp	$60e7 <_ZN12_GLOBAL__N_15printEPKcP6Status+0xae9>
    5b39: a9 0a        	lda	#$a
    5b3b: 92 24        	sta	($24)                   ; 0x2024 <dispatchAction+0x3c8>
    5b3d: a6 24        	ldx	$24                     ; 0x2024 <dispatchAction+0x3c8>
    5b3f: 86 12        	stx	$12                     ; 0x2012 <dispatchAction+0x3b6>
    5b41: a6 25        	ldx	$25                     ; 0x2025 <dispatchAction+0x3c9>
    5b43: 86 13        	stx	$13                     ; 0x2013 <dispatchAction+0x3b7>
    5b45: e6 12        	inc	$12                     ; 0x2012 <dispatchAction+0x3b6>
    5b47: d0 02        	bne	$5b4b <_ZN12_GLOBAL__N_15printEPKcP6Status+0x54d>
    5b49: e6 13        	inc	$13                     ; 0x2013 <dispatchAction+0x3b7>
    5b4b: a0 01        	ldy	#$1
    5b4d: b1 24        	lda	($24),y                 ; 0x2024 <dispatchAction+0x3c8>
    5b4f: 85 14        	sta	$14                     ; 0x2014 <dispatchAction+0x3b8>
    5b51: 98           	tya
    5b52: 11 12        	ora	($12),y                 ; 0x2012 <dispatchAction+0x3b6>
    5b54: aa           	tax
    5b55: a5 14        	lda	$14                     ; 0x2014 <dispatchAction+0x3b8>
    5b57: 91 24        	sta	($24),y                 ; 0x2024 <dispatchAction+0x3c8>
    5b59: 8a           	txa
    5b5a: 91 12        	sta	($12),y                 ; 0x2012 <dispatchAction+0x3b6>
    5b5c: 18           	clc
    5b5d: a5 10        	lda	$10                     ; 0x2010 <dispatchAction+0x3b4>
    5b5f: 69 0d        	adc	#$d
    5b61: 85 28        	sta	$28                     ; 0x2028 <dispatchAction+0x3cc>
    5b63: a5 11        	lda	$11                     ; 0x2011 <dispatchAction+0x3b5>
    5b65: 69 00        	adc	#$0
    5b67: 85 29        	sta	$29                     ; 0x2029 <dispatchAction+0x3cd>
    5b69: a6 28        	ldx	$28                     ; 0x2028 <dispatchAction+0x3cc>
    5b6b: 86 12        	stx	$12                     ; 0x2012 <dispatchAction+0x3b6>
    5b6d: 85 13        	sta	$13                     ; 0x2013 <dispatchAction+0x3b7>
    5b6f: a0 0c        	ldy	#$c
    5b71: b1 10        	lda	($10),y                 ; 0x2010 <dispatchAction+0x3b4>
    5b73: 20 92 05     	jsr	$592 <_ZN6__impl6VarInt4makeEPvc>
    5b76: a6 28        	ldx	$28                     ; 0x2028 <dispatchAction+0x3cc>
    5b78: 86 12        	stx	$12                     ; 0x2012 <dispatchAction+0x3b6>
    5b7a: a6 29        	ldx	$29                     ; 0x2029 <dispatchAction+0x3cd>
    5b7c: 86 13        	stx	$13                     ; 0x2013 <dispatchAction+0x3b7>
    5b7e: e6 12        	inc	$12                     ; 0x2012 <dispatchAction+0x3b6>
    5b80: d0 02        	bne	$5b84 <_ZN12_GLOBAL__N_15printEPKcP6Status+0x586>
    5b82: e6 13        	inc	$13                     ; 0x2013 <dispatchAction+0x3b7>
    5b84: a0 11        	ldy	#$11
    5b86: a2 00        	ldx	#$0
    5b88: a5 24        	lda	$24                     ; 0x2024 <dispatchAction+0x3c8>
    5b8a: 18           	clc
    5b8b: 69 11        	adc	#$11
    5b8d: 85 2c        	sta	$2c                     ; 0x202c <dispatchAction+0x3d0>
    5b8f: a5 25        	lda	$25                     ; 0x2025 <dispatchAction+0x3c9>
    5b91: 69 00        	adc	#$0
    5b93: 85 2d        	sta	$2d                     ; 0x202d <dispatchAction+0x3d1>
    5b95: b1 24        	lda	($24),y                 ; 0x2024 <dispatchAction+0x3c8>
    5b97: 85 2f        	sta	$2f                     ; 0x202f <dispatchAction+0x3d3>
    5b99: a0 01        	ldy	#$1
    5b9b: b1 2c        	lda	($2c),y                 ; 0x202c <dispatchAction+0x3d0>
    5b9d: a4 2f        	ldy	$2f                     ; 0x202f <dispatchAction+0x3d3>
    5b9f: 84 14        	sty	$14                     ; 0x2014 <dispatchAction+0x3b8>
    5ba1: 85 15        	sta	$15                     ; 0x2015 <dispatchAction+0x3b9>
    5ba3: 85 2e        	sta	$2e                     ; 0x202e <dispatchAction+0x3d2>
    5ba5: b2 28        	lda	($28)                   ; 0x2028 <dispatchAction+0x3cc>
    5ba7: 64 16        	stz	$16                     ; 0x2016 <dispatchAction+0x3ba>
    5ba9: 48           	pha
    5baa: 8a           	txa
    5bab: a0 0c        	ldy	#$c
    5bad: 91 10        	sta	($10),y                 ; 0x2010 <dispatchAction+0x3b4>
    5baf: 68           	pla
    5bb0: 20 f0 65     	jsr	$65f0 <memcpy>
    5bb3: 18           	clc
    5bb4: a9 00        	lda	#$0
    5bb6: a0 0a        	ldy	#$a
    5bb8: 91 10        	sta	($10),y                 ; 0x2010 <dispatchAction+0x3b4>
    5bba: a5 2f        	lda	$2f                     ; 0x202f <dispatchAction+0x3d3>
    5bbc: 65 2b        	adc	$2b                     ; 0x202b <dispatchAction+0x3cf>
    5bbe: aa           	tax
    5bbf: a5 2e        	lda	$2e                     ; 0x202e <dispatchAction+0x3d2>
    5bc1: 69 00        	adc	#$0
    5bc3: 85 12        	sta	$12                     ; 0x2012 <dispatchAction+0x3b6>
    5bc5: a0 11        	ldy	#$11
    5bc7: 8a           	txa
    5bc8: 91 24        	sta	($24),y                 ; 0x2024 <dispatchAction+0x3c8>
    5bca: a0 01        	ldy	#$1
    5bcc: a5 12        	lda	$12                     ; 0x2012 <dispatchAction+0x3b6>
    5bce: 91 2c        	sta	($2c),y                 ; 0x202c <dispatchAction+0x3d0>
    5bd0: a6 24        	ldx	$24                     ; 0x2024 <dispatchAction+0x3c8>
    5bd2: 86 12        	stx	$12                     ; 0x2012 <dispatchAction+0x3b6>
    5bd4: a6 25        	ldx	$25                     ; 0x2025 <dispatchAction+0x3c9>
    5bd6: 86 13        	stx	$13                     ; 0x2013 <dispatchAction+0x3b7>
    5bd8: e6 12        	inc	$12                     ; 0x2012 <dispatchAction+0x3b6>
    5bda: d0 02        	bne	$5bde <_ZN12_GLOBAL__N_15printEPKcP6Status+0x5e0>
    5bdc: e6 13        	inc	$13                     ; 0x2013 <dispatchAction+0x3b7>
    5bde: a9 01        	lda	#$1
    5be0: 31 12        	and	($12),y                 ; 0x2012 <dispatchAction+0x3b6>
    5be2: d0 21        	bne	$5c05 <_ZN12_GLOBAL__N_15printEPKcP6Status+0x607>
    5be4: a6 28        	ldx	$28                     ; 0x2028 <dispatchAction+0x3cc>
    5be6: 86 12        	stx	$12                     ; 0x2012 <dispatchAction+0x3b6>
    5be8: a6 29        	ldx	$29                     ; 0x2029 <dispatchAction+0x3cd>
    5bea: 86 13        	stx	$13                     ; 0x2013 <dispatchAction+0x3b7>
    5bec: 20 a4 05     	jsr	$5a4 <_ZNK6__impl6VarInt8negativeEv>
    5bef: 29 01        	and	#$1
    5bf1: f0 12        	beq	$5c05 <_ZN12_GLOBAL__N_15printEPKcP6Status+0x607>
    5bf3: a6 28        	ldx	$28                     ; 0x2028 <dispatchAction+0x3cc>
    5bf5: 86 12        	stx	$12                     ; 0x2012 <dispatchAction+0x3b6>
    5bf7: a6 29        	ldx	$29                     ; 0x2029 <dispatchAction+0x3cd>
    5bf9: 86 13        	stx	$13                     ; 0x2013 <dispatchAction+0x3b7>
    5bfb: 20 b2 05     	jsr	$5b2 <_ZN6__impl6VarInt6negateEv>
    5bfe: 38           	sec
    5bff: a9 01        	lda	#$1
    5c01: a0 0a        	ldy	#$a
    5c03: 91 10        	sta	($10),y                 ; 0x2010 <dispatchAction+0x3b4>
    5c05: b2 28        	lda	($28)                   ; 0x2028 <dispatchAction+0x3cc>
    5c07: d0 03        	bne	$5c0c <_ZN12_GLOBAL__N_15printEPKcP6Status+0x60e>
    5c09: 4c 03 5d     	jmp	$5d03 <_ZN12_GLOBAL__N_15printEPKcP6Status+0x705>
    5c0c: b2 24        	lda	($24)                   ; 0x2024 <dispatchAction+0x3c8>
    5c0e: 85 2b        	sta	$2b                     ; 0x202b <dispatchAction+0x3cf>
    5c10: 18           	clc
    5c11: a5 10        	lda	$10                     ; 0x2010 <dispatchAction+0x3b4>
    5c13: 69 18        	adc	#$18
    5c15: 48           	pha
    5c16: a5 11        	lda	$11                     ; 0x2011 <dispatchAction+0x3b5>
    5c18: 69 00        	adc	#$0
    5c1a: 85 12        	sta	$12                     ; 0x2012 <dispatchAction+0x3b6>
    5c1c: 68           	pla
    5c1d: 18           	clc
    5c1e: 69 02        	adc	#$2
    5c20: 85 2c        	sta	$2c                     ; 0x202c <dispatchAction+0x3d0>
    5c22: a5 12        	lda	$12                     ; 0x2012 <dispatchAction+0x3b6>
    5c24: 69 00        	adc	#$0
    5c26: 85 2d        	sta	$2d                     ; 0x202d <dispatchAction+0x3d1>
    5c28: a2 00        	ldx	#$0
    5c2a: a0 00        	ldy	#$0
    5c2c: 8a           	txa
    5c2d: d0 03        	bne	$5c32 <_ZN12_GLOBAL__N_15printEPKcP6Status+0x634>
    5c2f: 4c ac 5c     	jmp	$5cac <_ZN12_GLOBAL__N_15printEPKcP6Status+0x6ae>
    5c32: 84 2f        	sty	$2f                     ; 0x202f <dispatchAction+0x3d3>
    5c34: 86 2e        	stx	$2e                     ; 0x202e <dispatchAction+0x3d2>
    5c36: ca           	dex
    5c37: 86 13        	stx	$13                     ; 0x2013 <dispatchAction+0x3b7>
    5c39: a2 00        	ldx	#$0
    5c3b: 64 12        	stz	$12                     ; 0x2012 <dispatchAction+0x3b6>
    5c3d: 80 0c        	bra	$5c4b <_ZN12_GLOBAL__N_15printEPKcP6Status+0x64d>
    5c3f: a4 12        	ldy	$12                     ; 0x2012 <dispatchAction+0x3b6>
    5c41: 91 2c        	sta	($2c),y                 ; 0x202c <dispatchAction+0x3d0>
    5c43: a4 13        	ldy	$13                     ; 0x2013 <dispatchAction+0x3b7>
    5c45: c4 12        	cpy	$12                     ; 0x2012 <dispatchAction+0x3b6>
    5c47: f0 2f        	beq	$5c78 <_ZN12_GLOBAL__N_15printEPKcP6Status+0x67a>
    5c49: e6 12        	inc	$12                     ; 0x2012 <dispatchAction+0x3b6>
    5c4b: a4 12        	ldy	$12                     ; 0x2012 <dispatchAction+0x3b6>
    5c4d: b1 2c        	lda	($2c),y                 ; 0x202c <dispatchAction+0x3d0>
    5c4f: 0a           	asl
    5c50: e0 00        	cpx	#$0
    5c52: f0 02        	beq	$5c56 <_ZN12_GLOBAL__N_15printEPKcP6Status+0x658>
    5c54: 09 01        	ora	#$1
    5c56: c5 2b        	cmp	$2b                     ; 0x202b <dispatchAction+0x3cf>
    5c58: a2 01        	ldx	#$1
    5c5a: b0 02        	bcs	$5c5e <_ZN12_GLOBAL__N_15printEPKcP6Status+0x660>
    5c5c: a2 00        	ldx	#$0
    5c5e: 90 df        	bcc	$5c3f <_ZN12_GLOBAL__N_15printEPKcP6Status+0x641>
    5c60: 38           	sec
    5c61: e5 2b        	sbc	$2b                     ; 0x202b <dispatchAction+0x3cf>
    5c63: a4 12        	ldy	$12                     ; 0x2012 <dispatchAction+0x3b6>
    5c65: 91 2c        	sta	($2c),y                 ; 0x202c <dispatchAction+0x3d0>
    5c67: a4 13        	ldy	$13                     ; 0x2013 <dispatchAction+0x3b7>
    5c69: c4 12        	cpy	$12                     ; 0x2012 <dispatchAction+0x3b6>
    5c6b: d0 dc        	bne	$5c49 <_ZN12_GLOBAL__N_15printEPKcP6Status+0x64b>
    5c6d: a4 2e        	ldy	$2e                     ; 0x202e <dispatchAction+0x3d2>
    5c6f: a6 2e        	ldx	$2e                     ; 0x202e <dispatchAction+0x3d2>
    5c71: e8           	inx
    5c72: a9 01        	lda	#$1
    5c74: 91 2c        	sta	($2c),y                 ; 0x202c <dispatchAction+0x3d0>
    5c76: 86 2e        	stx	$2e                     ; 0x202e <dispatchAction+0x3d2>
    5c78: a6 28        	ldx	$28                     ; 0x2028 <dispatchAction+0x3cc>
    5c7a: 86 12        	stx	$12                     ; 0x2012 <dispatchAction+0x3b6>
    5c7c: a6 29        	ldx	$29                     ; 0x2029 <dispatchAction+0x3cd>
    5c7e: 86 13        	stx	$13                     ; 0x2013 <dispatchAction+0x3b7>
    5c80: 20 96 05     	jsr	$596 <_ZNK6__impl6VarInt8high_bitEv>
    5c83: 29 01        	and	#$1
    5c85: f0 21        	beq	$5ca8 <_ZN12_GLOBAL__N_15printEPKcP6Status+0x6aa>
    5c87: a0 00        	ldy	#$0
    5c89: a5 2e        	lda	$2e                     ; 0x202e <dispatchAction+0x3d2>
    5c8b: f0 33        	beq	$5cc0 <_ZN12_GLOBAL__N_15printEPKcP6Status+0x6c2>
    5c8d: b1 2c        	lda	($2c),y                 ; 0x202c <dispatchAction+0x3d0>
    5c8f: 1a           	inc
    5c90: 91 2c        	sta	($2c),y                 ; 0x202c <dispatchAction+0x3d0>
    5c92: c5 2b        	cmp	$2b                     ; 0x202b <dispatchAction+0x3cf>
    5c94: 90 12        	bcc	$5ca8 <_ZN12_GLOBAL__N_15printEPKcP6Status+0x6aa>
    5c96: 38           	sec
    5c97: e5 2b        	sbc	$2b                     ; 0x202b <dispatchAction+0x3cf>
    5c99: 91 2c        	sta	($2c),y                 ; 0x202c <dispatchAction+0x3d0>
    5c9b: c8           	iny
    5c9c: 84 12        	sty	$12                     ; 0x2012 <dispatchAction+0x3b6>
    5c9e: a6 2e        	ldx	$2e                     ; 0x202e <dispatchAction+0x3d2>
    5ca0: e4 12        	cpx	$12                     ; 0x2012 <dispatchAction+0x3b6>
    5ca2: d0 e9        	bne	$5c8d <_ZN12_GLOBAL__N_15printEPKcP6Status+0x68f>
    5ca4: a4 2e        	ldy	$2e                     ; 0x202e <dispatchAction+0x3d2>
    5ca6: 80 18        	bra	$5cc0 <_ZN12_GLOBAL__N_15printEPKcP6Status+0x6c2>
    5ca8: a4 2e        	ldy	$2e                     ; 0x202e <dispatchAction+0x3d2>
    5caa: 80 1d        	bra	$5cc9 <_ZN12_GLOBAL__N_15printEPKcP6Status+0x6cb>
    5cac: 84 2f        	sty	$2f                     ; 0x202f <dispatchAction+0x3d3>
    5cae: a6 28        	ldx	$28                     ; 0x2028 <dispatchAction+0x3cc>
    5cb0: 86 12        	stx	$12                     ; 0x2012 <dispatchAction+0x3b6>
    5cb2: a6 29        	ldx	$29                     ; 0x2029 <dispatchAction+0x3cd>
    5cb4: 86 13        	stx	$13                     ; 0x2013 <dispatchAction+0x3b7>
    5cb6: 20 96 05     	jsr	$596 <_ZNK6__impl6VarInt8high_bitEv>
    5cb9: 29 01        	and	#$1
    5cbb: a0 00        	ldy	#$0
    5cbd: aa           	tax
    5cbe: f0 09        	beq	$5cc9 <_ZN12_GLOBAL__N_15printEPKcP6Status+0x6cb>
    5cc0: 5a           	phy
    5cc1: fa           	plx
    5cc2: e8           	inx
    5cc3: a9 01        	lda	#$1
    5cc5: 91 2c        	sta	($2c),y                 ; 0x202c <dispatchAction+0x3d0>
    5cc7: da           	phx
    5cc8: 7a           	ply
    5cc9: 98           	tya
    5cca: a0 0c        	ldy	#$c
    5ccc: 91 10        	sta	($10),y                 ; 0x2010 <dispatchAction+0x3b4>
    5cce: a6 28        	ldx	$28                     ; 0x2028 <dispatchAction+0x3cc>
    5cd0: 86 12        	stx	$12                     ; 0x2012 <dispatchAction+0x3b6>
    5cd2: a6 29        	ldx	$29                     ; 0x2029 <dispatchAction+0x3cd>
    5cd4: 86 13        	stx	$13                     ; 0x2013 <dispatchAction+0x3b7>
    5cd6: 20 fa 05     	jsr	$5fa <_ZN6__impl6VarInt3shlEv>
    5cd9: a4 2f        	ldy	$2f                     ; 0x202f <dispatchAction+0x3d3>
    5cdb: c8           	iny
    5cdc: b2 28        	lda	($28)                   ; 0x2028 <dispatchAction+0x3cc>
    5cde: 0a           	asl
    5cdf: 64 13        	stz	$13                     ; 0x2013 <dispatchAction+0x3b7>
    5ce1: 26 13        	rol	$13                     ; 0x2013 <dispatchAction+0x3b7>
    5ce3: 0a           	asl
    5ce4: 26 13        	rol	$13                     ; 0x2013 <dispatchAction+0x3b7>
    5ce6: 0a           	asl
    5ce7: 26 13        	rol	$13                     ; 0x2013 <dispatchAction+0x3b7>
    5ce9: a2 00        	ldx	#$0
    5ceb: e4 13        	cpx	$13                     ; 0x2013 <dispatchAction+0x3b7>
    5ced: d0 06        	bne	$5cf5 <_ZN12_GLOBAL__N_15printEPKcP6Status+0x6f7>
    5cef: 85 12        	sta	$12                     ; 0x2012 <dispatchAction+0x3b6>
    5cf1: c4 12        	cpy	$12                     ; 0x2012 <dispatchAction+0x3b6>
    5cf3: 80 02        	bra	$5cf7 <_ZN12_GLOBAL__N_15printEPKcP6Status+0x6f9>
    5cf5: e4 13        	cpx	$13                     ; 0x2013 <dispatchAction+0x3b7>
    5cf7: 5a           	phy
    5cf8: a0 0c        	ldy	#$c
    5cfa: b1 10        	lda	($10),y                 ; 0x2010 <dispatchAction+0x3b4>
    5cfc: 7a           	ply
    5cfd: aa           	tax
    5cfe: b0 03        	bcs	$5d03 <_ZN12_GLOBAL__N_15printEPKcP6Status+0x705>
    5d00: 4c 2c 5c     	jmp	$5c2c <_ZN12_GLOBAL__N_15printEPKcP6Status+0x62e>
    5d03: a5 24        	lda	$24                     ; 0x2024 <dispatchAction+0x3c8>
    5d05: 18           	clc
    5d06: 69 0d        	adc	#$d
    5d08: 85 12        	sta	$12                     ; 0x2012 <dispatchAction+0x3b6>
    5d0a: a5 25        	lda	$25                     ; 0x2025 <dispatchAction+0x3c9>
    5d0c: 69 00        	adc	#$0
    5d0e: 85 13        	sta	$13                     ; 0x2013 <dispatchAction+0x3b7>
    5d10: a0 01        	ldy	#$1
    5d12: b1 12        	lda	($12),y                 ; 0x2012 <dispatchAction+0x3b6>
    5d14: 30 0a        	bmi	$5d20 <_ZN12_GLOBAL__N_15printEPKcP6Status+0x722>
    5d16: a0 0d        	ldy	#$d
    5d18: 85 29        	sta	$29                     ; 0x2029 <dispatchAction+0x3cd>
    5d1a: b1 24        	lda	($24),y                 ; 0x2024 <dispatchAction+0x3c8>
    5d1c: 85 28        	sta	$28                     ; 0x2028 <dispatchAction+0x3cc>
    5d1e: 80 04        	bra	$5d24 <_ZN12_GLOBAL__N_15printEPKcP6Status+0x726>
    5d20: 64 29        	stz	$29                     ; 0x2029 <dispatchAction+0x3cd>
    5d22: 84 28        	sty	$28                     ; 0x2028 <dispatchAction+0x3cc>
    5d24: a0 01        	ldy	#$1
    5d26: b1 24        	lda	($24),y                 ; 0x2024 <dispatchAction+0x3c8>
    5d28: 85 18        	sta	$18                     ; 0x2018 <dispatchAction+0x3bc>
    5d2a: 29 04        	and	#$4
    5d2c: f0 35        	beq	$5d63 <_ZN12_GLOBAL__N_15printEPKcP6Status+0x765>
    5d2e: b2 24        	lda	($24)                   ; 0x2024 <dispatchAction+0x3c8>
    5d30: c9 10        	cmp	#$10
    5d32: f0 18        	beq	$5d4c <_ZN12_GLOBAL__N_15printEPKcP6Status+0x74e>
    5d34: c9 08        	cmp	#$8
    5d36: d0 2b        	bne	$5d63 <_ZN12_GLOBAL__N_15printEPKcP6Status+0x765>
    5d38: a2 00        	ldx	#$0
    5d3a: e4 29        	cpx	$29                     ; 0x2029 <dispatchAction+0x3cd>
    5d3c: f0 03        	beq	$5d41 <_ZN12_GLOBAL__N_15printEPKcP6Status+0x743>
    5d3e: 4c 02 5f     	jmp	$5f02 <_ZN12_GLOBAL__N_15printEPKcP6Status+0x904>
    5d41: 5a           	phy
    5d42: a0 0c        	ldy	#$c
    5d44: b1 10        	lda	($10),y                 ; 0x2010 <dispatchAction+0x3b4>
    5d46: 7a           	ply
    5d47: c5 28        	cmp	$28                     ; 0x2028 <dispatchAction+0x3cc>
    5d49: 4c 04 5f     	jmp	$5f04 <_ZN12_GLOBAL__N_15printEPKcP6Status+0x906>
    5d4c: 5a           	phy
    5d4d: a0 0c        	ldy	#$c
    5d4f: b1 10        	lda	($10),y                 ; 0x2010 <dispatchAction+0x3b4>
    5d51: 7a           	ply
    5d52: aa           	tax
    5d53: f0 0e        	beq	$5d63 <_ZN12_GLOBAL__N_15printEPKcP6Status+0x765>
    5d55: a5 18        	lda	$18                     ; 0x2018 <dispatchAction+0x3bc>
    5d57: 29 80        	and	#$80
    5d59: d0 03        	bne	$5d5e <_ZN12_GLOBAL__N_15printEPKcP6Status+0x760>
    5d5b: 4c 1f 5f     	jmp	$5f1f <_ZN12_GLOBAL__N_15printEPKcP6Status+0x921>
    5d5e: a2 78        	ldx	#$78
    5d60: 4c 21 5f     	jmp	$5f21 <_ZN12_GLOBAL__N_15printEPKcP6Status+0x923>
    5d63: a5 18        	lda	$18                     ; 0x2018 <dispatchAction+0x3bc>
    5d65: a2 2d        	ldx	#$2d
    5d67: 48           	pha
    5d68: 5a           	phy
    5d69: 8a           	txa
    5d6a: a0 09        	ldy	#$9
    5d6c: 91 10        	sta	($10),y                 ; 0x2010 <dispatchAction+0x3b4>
    5d6e: c8           	iny
    5d6f: b1 10        	lda	($10),y                 ; 0x2010 <dispatchAction+0x3b4>
    5d71: 7a           	ply
    5d72: 85 12        	sta	$12                     ; 0x2012 <dispatchAction+0x3b6>
    5d74: 68           	pla
    5d75: a6 12        	ldx	$12                     ; 0x2012 <dispatchAction+0x3b6>
    5d77: f0 0d        	beq	$5d86 <_ZN12_GLOBAL__N_15printEPKcP6Status+0x788>
    5d79: 18           	clc
    5d7a: a9 00        	lda	#$0
    5d7c: 5a           	phy
    5d7d: a0 0a        	ldy	#$a
    5d7f: 91 10        	sta	($10),y                 ; 0x2010 <dispatchAction+0x3b4>
    5d81: 7a           	ply
    5d82: 84 12        	sty	$12                     ; 0x2012 <dispatchAction+0x3b6>
    5d84: 80 2f        	bra	$5db5 <_ZN12_GLOBAL__N_15printEPKcP6Status+0x7b7>
    5d86: aa           	tax
    5d87: 29 02        	and	#$2
    5d89: a0 2b        	ldy	#$2b
    5d8b: 48           	pha
    5d8c: 98           	tya
    5d8d: a0 09        	ldy	#$9
    5d8f: 91 10        	sta	($10),y                 ; 0x2010 <dispatchAction+0x3b4>
    5d91: 68           	pla
    5d92: d0 16        	bne	$5daa <_ZN12_GLOBAL__N_15printEPKcP6Status+0x7ac>
    5d94: 8a           	txa
    5d95: 29 08        	and	#$8
    5d97: a0 01        	ldy	#$1
    5d99: aa           	tax
    5d9a: f0 03        	beq	$5d9f <_ZN12_GLOBAL__N_15printEPKcP6Status+0x7a1>
    5d9c: 4c f4 5e     	jmp	$5ef4 <_ZN12_GLOBAL__N_15printEPKcP6Status+0x8f6>
    5d9f: 38           	sec
    5da0: a9 01        	lda	#$1
    5da2: a0 0a        	ldy	#$a
    5da4: 91 10        	sta	($10),y                 ; 0x2010 <dispatchAction+0x3b4>
    5da6: 64 12        	stz	$12                     ; 0x2012 <dispatchAction+0x3b6>
    5da8: 80 0b        	bra	$5db5 <_ZN12_GLOBAL__N_15printEPKcP6Status+0x7b7>
    5daa: 18           	clc
    5dab: a9 00        	lda	#$0
    5dad: a0 0a        	ldy	#$a
    5daf: 91 10        	sta	($10),y                 ; 0x2010 <dispatchAction+0x3b4>
    5db1: a2 01        	ldx	#$1
    5db3: 86 12        	stx	$12                     ; 0x2012 <dispatchAction+0x3b6>
    5db5: a0 0c        	ldy	#$c
    5db7: b1 10        	lda	($10),y                 ; 0x2010 <dispatchAction+0x3b4>
    5db9: a8           	tay
    5dba: a5 29        	lda	$29                     ; 0x2029 <dispatchAction+0x3cd>
    5dbc: d0 4d        	bne	$5e0b <_ZN12_GLOBAL__N_15printEPKcP6Status+0x80d>
    5dbe: a6 28        	ldx	$28                     ; 0x2028 <dispatchAction+0x3cc>
    5dc0: 84 13        	sty	$13                     ; 0x2013 <dispatchAction+0x3b7>
    5dc2: e4 13        	cpx	$13                     ; 0x2013 <dispatchAction+0x3b7>
    5dc4: a5 28        	lda	$28                     ; 0x2028 <dispatchAction+0x3cc>
    5dc6: a6 29        	ldx	$29                     ; 0x2029 <dispatchAction+0x3cd>
    5dc8: b0 03        	bcs	$5dcd <_ZN12_GLOBAL__N_15printEPKcP6Status+0x7cf>
    5dca: 98           	tya
    5dcb: a2 00        	ldx	#$0
    5dcd: 18           	clc
    5dce: 85 19        	sta	$19                     ; 0x2019 <dispatchAction+0x3bd>
    5dd0: 65 12        	adc	$12                     ; 0x2012 <dispatchAction+0x3b6>
    5dd2: 85 1c        	sta	$1c                     ; 0x201c <dispatchAction+0x3c0>
    5dd4: 85 13        	sta	$13                     ; 0x2013 <dispatchAction+0x3b7>
    5dd6: 86 1a        	stx	$1a                     ; 0x201a <dispatchAction+0x3be>
    5dd8: 8a           	txa
    5dd9: 69 00        	adc	#$0
    5ddb: 85 14        	sta	$14                     ; 0x2014 <dispatchAction+0x3b8>
    5ddd: 85 1d        	sta	$1d                     ; 0x201d <dispatchAction+0x3c1>
    5ddf: a5 24        	lda	$24                     ; 0x2024 <dispatchAction+0x3c8>
    5de1: 18           	clc
    5de2: 69 0b        	adc	#$b
    5de4: 85 16        	sta	$16                     ; 0x2016 <dispatchAction+0x3ba>
    5de6: a5 25        	lda	$25                     ; 0x2025 <dispatchAction+0x3c9>
    5de8: 69 00        	adc	#$0
    5dea: a0 0b        	ldy	#$b
    5dec: 85 17        	sta	$17                     ; 0x2017 <dispatchAction+0x3bb>
    5dee: b1 24        	lda	($24),y                 ; 0x2024 <dispatchAction+0x3c8>
    5df0: 85 1b        	sta	$1b                     ; 0x201b <dispatchAction+0x3bf>
    5df2: 85 15        	sta	$15                     ; 0x2015 <dispatchAction+0x3b9>
    5df4: a0 01        	ldy	#$1
    5df6: b1 16        	lda	($16),y                 ; 0x2016 <dispatchAction+0x3ba>
    5df8: 85 17        	sta	$17                     ; 0x2017 <dispatchAction+0x3bb>
    5dfa: 85 16        	sta	$16                     ; 0x2016 <dispatchAction+0x3ba>
    5dfc: a5 1d        	lda	$1d                     ; 0x201d <dispatchAction+0x3c1>
    5dfe: c5 16        	cmp	$16                     ; 0x2016 <dispatchAction+0x3ba>
    5e00: d0 13        	bne	$5e15 <_ZN12_GLOBAL__N_15printEPKcP6Status+0x817>
    5e02: a6 1c        	ldx	$1c                     ; 0x201c <dispatchAction+0x3c0>
    5e04: e4 15        	cpx	$15                     ; 0x2015 <dispatchAction+0x3b9>
    5e06: 90 13        	bcc	$5e1b <_ZN12_GLOBAL__N_15printEPKcP6Status+0x81d>
    5e08: 4c 63 5e     	jmp	$5e63 <_ZN12_GLOBAL__N_15printEPKcP6Status+0x865>
    5e0b: a6 29        	ldx	$29                     ; 0x2029 <dispatchAction+0x3cd>
    5e0d: e0 00        	cpx	#$0
    5e0f: a5 28        	lda	$28                     ; 0x2028 <dispatchAction+0x3cc>
    5e11: 90 b7        	bcc	$5dca <_ZN12_GLOBAL__N_15printEPKcP6Status+0x7cc>
    5e13: 80 b8        	bra	$5dcd <_ZN12_GLOBAL__N_15printEPKcP6Status+0x7cf>
    5e15: a6 1d        	ldx	$1d                     ; 0x201d <dispatchAction+0x3c1>
    5e17: e4 16        	cpx	$16                     ; 0x2016 <dispatchAction+0x3ba>
    5e19: b0 48        	bcs	$5e63 <_ZN12_GLOBAL__N_15printEPKcP6Status+0x865>
    5e1b: a5 18        	lda	$18                     ; 0x2018 <dispatchAction+0x3bc>
    5e1d: 29 11        	and	#$11
    5e1f: f0 0d        	beq	$5e2e <_ZN12_GLOBAL__N_15printEPKcP6Status+0x830>
    5e21: a5 1b        	lda	$1b                     ; 0x201b <dispatchAction+0x3bf>
    5e23: 38           	sec
    5e24: e5 13        	sbc	$13                     ; 0x2013 <dispatchAction+0x3b7>
    5e26: 85 2a        	sta	$2a                     ; 0x202a <dispatchAction+0x3ce>
    5e28: a5 17        	lda	$17                     ; 0x2017 <dispatchAction+0x3bb>
    5e2a: e5 14        	sbc	$14                     ; 0x2014 <dispatchAction+0x3b8>
    5e2c: 80 37        	bra	$5e65 <_ZN12_GLOBAL__N_15printEPKcP6Status+0x867>
    5e2e: 18           	clc
    5e2f: a5 19        	lda	$19                     ; 0x2019 <dispatchAction+0x3bd>
    5e31: 65 12        	adc	$12                     ; 0x2012 <dispatchAction+0x3b6>
    5e33: aa           	tax
    5e34: a5 1a        	lda	$1a                     ; 0x201a <dispatchAction+0x3be>
    5e36: 69 00        	adc	#$0
    5e38: 85 12        	sta	$12                     ; 0x2012 <dispatchAction+0x3b6>
    5e3a: 38           	sec
    5e3b: 8a           	txa
    5e3c: e5 15        	sbc	$15                     ; 0x2015 <dispatchAction+0x3b9>
    5e3e: 85 2b        	sta	$2b                     ; 0x202b <dispatchAction+0x3cf>
    5e40: a5 12        	lda	$12                     ; 0x2012 <dispatchAction+0x3b6>
    5e42: e5 16        	sbc	$16                     ; 0x2016 <dispatchAction+0x3ba>
    5e44: 85 2c        	sta	$2c                     ; 0x202c <dispatchAction+0x3d0>
    5e46: a6 24        	ldx	$24                     ; 0x2024 <dispatchAction+0x3c8>
    5e48: 86 12        	stx	$12                     ; 0x2012 <dispatchAction+0x3b6>
    5e4a: a6 25        	ldx	$25                     ; 0x2025 <dispatchAction+0x3c9>
    5e4c: 86 13        	stx	$13                     ; 0x2013 <dispatchAction+0x3b7>
    5e4e: a9 20        	lda	#$20
    5e50: 20 42 61     	jsr	$6142 <_ZN12_GLOBAL__N_13putEcP6Status>
    5e53: a6 2c        	ldx	$2c                     ; 0x202c <dispatchAction+0x3d0>
    5e55: e6 2b        	inc	$2b                     ; 0x202b <dispatchAction+0x3cf>
    5e57: d0 01        	bne	$5e5a <_ZN12_GLOBAL__N_15printEPKcP6Status+0x85c>
    5e59: e8           	inx
    5e5a: 86 2c        	stx	$2c                     ; 0x202c <dispatchAction+0x3d0>
    5e5c: 8a           	txa
    5e5d: d0 e7        	bne	$5e46 <_ZN12_GLOBAL__N_15printEPKcP6Status+0x848>
    5e5f: a5 2b        	lda	$2b                     ; 0x202b <dispatchAction+0x3cf>
    5e61: d0 e3        	bne	$5e46 <_ZN12_GLOBAL__N_15printEPKcP6Status+0x848>
    5e63: a9 00        	lda	#$0
    5e65: 85 2b        	sta	$2b                     ; 0x202b <dispatchAction+0x3cf>
    5e67: a0 0a        	ldy	#$a
    5e69: b1 10        	lda	($10),y                 ; 0x2010 <dispatchAction+0x3b4>
    5e6b: 85 12        	sta	$12                     ; 0x2012 <dispatchAction+0x3b6>
    5e6d: a5 12        	lda	$12                     ; 0x2012 <dispatchAction+0x3b6>
    5e6f: d0 0f        	bne	$5e80 <_ZN12_GLOBAL__N_15printEPKcP6Status+0x882>
    5e71: a6 24        	ldx	$24                     ; 0x2024 <dispatchAction+0x3c8>
    5e73: 86 12        	stx	$12                     ; 0x2012 <dispatchAction+0x3b6>
    5e75: a6 25        	ldx	$25                     ; 0x2025 <dispatchAction+0x3c9>
    5e77: 86 13        	stx	$13                     ; 0x2013 <dispatchAction+0x3b7>
    5e79: a0 09        	ldy	#$9
    5e7b: b1 10        	lda	($10),y                 ; 0x2010 <dispatchAction+0x3b4>
    5e7d: 20 42 61     	jsr	$6142 <_ZN12_GLOBAL__N_13putEcP6Status>
    5e80: a0 0b        	ldy	#$b
    5e82: b1 10        	lda	($10),y                 ; 0x2010 <dispatchAction+0x3b4>
    5e84: 85 12        	sta	$12                     ; 0x2012 <dispatchAction+0x3b6>
    5e86: a5 12        	lda	$12                     ; 0x2012 <dispatchAction+0x3b6>
    5e88: f0 0f        	beq	$5e99 <_ZN12_GLOBAL__N_15printEPKcP6Status+0x89b>
    5e8a: a6 24        	ldx	$24                     ; 0x2024 <dispatchAction+0x3c8>
    5e8c: 86 12        	stx	$12                     ; 0x2012 <dispatchAction+0x3b6>
    5e8e: a6 25        	ldx	$25                     ; 0x2025 <dispatchAction+0x3c9>
    5e90: 86 13        	stx	$13                     ; 0x2013 <dispatchAction+0x3b7>
    5e92: a0 08        	ldy	#$8
    5e94: b1 10        	lda	($10),y                 ; 0x2010 <dispatchAction+0x3b4>
    5e96: 20 42 61     	jsr	$6142 <_ZN12_GLOBAL__N_13putEcP6Status>
    5e99: a0 01        	ldy	#$1
    5e9b: b1 24        	lda	($24),y                 ; 0x2024 <dispatchAction+0x3c8>
    5e9d: aa           	tax
    5e9e: 29 10        	and	#$10
    5ea0: f0 3a        	beq	$5edc <_ZN12_GLOBAL__N_15printEPKcP6Status+0x8de>
    5ea2: 8a           	txa
    5ea3: 29 01        	and	#$1
    5ea5: 48           	pha
    5ea6: a0 0c        	ldy	#$c
    5ea8: b1 10        	lda	($10),y                 ; 0x2010 <dispatchAction+0x3b4>
    5eaa: aa           	tax
    5eab: 68           	pla
    5eac: d0 33        	bne	$5ee1 <_ZN12_GLOBAL__N_15printEPKcP6Status+0x8e3>
    5eae: a5 2b        	lda	$2b                     ; 0x202b <dispatchAction+0x3cf>
    5eb0: d0 07        	bne	$5eb9 <_ZN12_GLOBAL__N_15printEPKcP6Status+0x8bb>
    5eb2: a5 2a        	lda	$2a                     ; 0x202a <dispatchAction+0x3ce>
    5eb4: d0 03        	bne	$5eb9 <_ZN12_GLOBAL__N_15printEPKcP6Status+0x8bb>
    5eb6: 4c 48 5f     	jmp	$5f48 <_ZN12_GLOBAL__N_15printEPKcP6Status+0x94a>
    5eb9: a6 24        	ldx	$24                     ; 0x2024 <dispatchAction+0x3c8>
    5ebb: 86 12        	stx	$12                     ; 0x2012 <dispatchAction+0x3b6>
    5ebd: a6 25        	ldx	$25                     ; 0x2025 <dispatchAction+0x3c9>
    5ebf: 86 13        	stx	$13                     ; 0x2013 <dispatchAction+0x3b7>
    5ec1: a9 30        	lda	#$30
    5ec3: 20 42 61     	jsr	$6142 <_ZN12_GLOBAL__N_13putEcP6Status>
    5ec6: a2 ff        	ldx	#$ff
    5ec8: c6 2a        	dec	$2a                     ; 0x202a <dispatchAction+0x3ce>
    5eca: e4 2a        	cpx	$2a                     ; 0x202a <dispatchAction+0x3ce>
    5ecc: d0 02        	bne	$5ed0 <_ZN12_GLOBAL__N_15printEPKcP6Status+0x8d2>
    5ece: c6 2b        	dec	$2b                     ; 0x202b <dispatchAction+0x3cf>
    5ed0: a5 2b        	lda	$2b                     ; 0x202b <dispatchAction+0x3cf>
    5ed2: d0 e5        	bne	$5eb9 <_ZN12_GLOBAL__N_15printEPKcP6Status+0x8bb>
    5ed4: a5 2a        	lda	$2a                     ; 0x202a <dispatchAction+0x3ce>
    5ed6: d0 e1        	bne	$5eb9 <_ZN12_GLOBAL__N_15printEPKcP6Status+0x8bb>
    5ed8: 64 2a        	stz	$2a                     ; 0x202a <dispatchAction+0x3ce>
    5eda: 64 2b        	stz	$2b                     ; 0x202b <dispatchAction+0x3cf>
    5edc: a0 0c        	ldy	#$c
    5ede: b1 10        	lda	($10),y                 ; 0x2010 <dispatchAction+0x3b4>
    5ee0: aa           	tax
    5ee1: a0 00        	ldy	#$0
    5ee3: c4 29        	cpy	$29                     ; 0x2029 <dispatchAction+0x3cd>
    5ee5: d0 03        	bne	$5eea <_ZN12_GLOBAL__N_15printEPKcP6Status+0x8ec>
    5ee7: 4c 54 5f     	jmp	$5f54 <_ZN12_GLOBAL__N_15printEPKcP6Status+0x956>
    5eea: c4 29        	cpy	$29                     ; 0x2029 <dispatchAction+0x3cd>
    5eec: b0 03        	bcs	$5ef1 <_ZN12_GLOBAL__N_15printEPKcP6Status+0x8f3>
    5eee: 4c 58 5f     	jmp	$5f58 <_ZN12_GLOBAL__N_15printEPKcP6Status+0x95a>
    5ef1: 4c 7e 5f     	jmp	$5f7e <_ZN12_GLOBAL__N_15printEPKcP6Status+0x980>
    5ef4: a2 20        	ldx	#$20
    5ef6: 5a           	phy
    5ef7: 8a           	txa
    5ef8: a0 09        	ldy	#$9
    5efa: 91 10        	sta	($10),y                 ; 0x2010 <dispatchAction+0x3b4>
    5efc: 18           	clc
    5efd: a9 00        	lda	#$0
    5eff: 4c 7d 5d     	jmp	$5d7d <_ZN12_GLOBAL__N_15printEPKcP6Status+0x77f>
    5f02: e4 29        	cpx	$29                     ; 0x2029 <dispatchAction+0x3cd>
    5f04: a5 18        	lda	$18                     ; 0x2018 <dispatchAction+0x3bc>
    5f06: b0 03        	bcs	$5f0b <_ZN12_GLOBAL__N_15printEPKcP6Status+0x90d>
    5f08: 4c 65 5d     	jmp	$5d65 <_ZN12_GLOBAL__N_15printEPKcP6Status+0x767>
    5f0b: 48           	pha
    5f0c: 5a           	phy
    5f0d: a0 0c        	ldy	#$c
    5f0f: b1 10        	lda	($10),y                 ; 0x2010 <dispatchAction+0x3b4>
    5f11: 7a           	ply
    5f12: 85 28        	sta	$28                     ; 0x2028 <dispatchAction+0x3cc>
    5f14: 68           	pla
    5f15: e6 28        	inc	$28                     ; 0x2028 <dispatchAction+0x3cc>
    5f17: d0 01        	bne	$5f1a <_ZN12_GLOBAL__N_15printEPKcP6Status+0x91c>
    5f19: e8           	inx
    5f1a: 86 29        	stx	$29                     ; 0x2029 <dispatchAction+0x3cd>
    5f1c: 4c 65 5d     	jmp	$5d65 <_ZN12_GLOBAL__N_15printEPKcP6Status+0x767>
    5f1f: a2 58        	ldx	#$58
    5f21: 8a           	txa
    5f22: a0 08        	ldy	#$8
    5f24: 91 10        	sta	($10),y                 ; 0x2010 <dispatchAction+0x3b4>
    5f26: a0 0c        	ldy	#$c
    5f28: b1 10        	lda	($10),y                 ; 0x2010 <dispatchAction+0x3b4>
    5f2a: a8           	tay
    5f2b: 38           	sec
    5f2c: 5a           	phy
    5f2d: a9 01        	lda	#$1
    5f2f: a0 0b        	ldy	#$b
    5f31: 91 10        	sta	($10),y                 ; 0x2010 <dispatchAction+0x3b4>
    5f33: a2 30        	ldx	#$30
    5f35: 8a           	txa
    5f36: a0 09        	ldy	#$9
    5f38: 91 10        	sta	($10),y                 ; 0x2010 <dispatchAction+0x3b4>
    5f3a: a2 02        	ldx	#$2
    5f3c: 18           	clc
    5f3d: a9 00        	lda	#$0
    5f3f: c8           	iny
    5f40: 91 10        	sta	($10),y                 ; 0x2010 <dispatchAction+0x3b4>
    5f42: 7a           	ply
    5f43: 86 12        	stx	$12                     ; 0x2012 <dispatchAction+0x3b6>
    5f45: 4c ba 5d     	jmp	$5dba <_ZN12_GLOBAL__N_15printEPKcP6Status+0x7bc>
    5f48: 64 2a        	stz	$2a                     ; 0x202a <dispatchAction+0x3ce>
    5f4a: 64 2b        	stz	$2b                     ; 0x202b <dispatchAction+0x3cf>
    5f4c: 4c e1 5e     	jmp	$5ee1 <_ZN12_GLOBAL__N_15printEPKcP6Status+0x8e3>
    5f4f: a0 0c        	ldy	#$c
    5f51: b1 10        	lda	($10),y                 ; 0x2010 <dispatchAction+0x3b4>
    5f53: aa           	tax
    5f54: e4 28        	cpx	$28                     ; 0x2028 <dispatchAction+0x3cc>
    5f56: b0 26        	bcs	$5f7e <_ZN12_GLOBAL__N_15printEPKcP6Status+0x980>
    5f58: a2 ff        	ldx	#$ff
    5f5a: c6 28        	dec	$28                     ; 0x2028 <dispatchAction+0x3cc>
    5f5c: e4 28        	cpx	$28                     ; 0x2028 <dispatchAction+0x3cc>
    5f5e: d0 02        	bne	$5f62 <_ZN12_GLOBAL__N_15printEPKcP6Status+0x964>
    5f60: c6 29        	dec	$29                     ; 0x2029 <dispatchAction+0x3cd>
    5f62: a6 24        	ldx	$24                     ; 0x2024 <dispatchAction+0x3c8>
    5f64: 86 12        	stx	$12                     ; 0x2012 <dispatchAction+0x3b6>
    5f66: a6 25        	ldx	$25                     ; 0x2025 <dispatchAction+0x3c9>
    5f68: 86 13        	stx	$13                     ; 0x2013 <dispatchAction+0x3b7>
    5f6a: a9 30        	lda	#$30
    5f6c: 20 42 61     	jsr	$6142 <_ZN12_GLOBAL__N_13putEcP6Status>
    5f6f: a2 00        	ldx	#$0
    5f71: e4 29        	cpx	$29                     ; 0x2029 <dispatchAction+0x3cd>
    5f73: f0 da        	beq	$5f4f <_ZN12_GLOBAL__N_15printEPKcP6Status+0x951>
    5f75: e4 29        	cpx	$29                     ; 0x2029 <dispatchAction+0x3cd>
    5f77: a0 0c        	ldy	#$c
    5f79: b1 10        	lda	($10),y                 ; 0x2010 <dispatchAction+0x3b4>
    5f7b: aa           	tax
    5f7c: 90 da        	bcc	$5f58 <_ZN12_GLOBAL__N_15printEPKcP6Status+0x95a>
    5f7e: a4 2b        	ldy	$2b                     ; 0x202b <dispatchAction+0x3cf>
    5f80: 84 2c        	sty	$2c                     ; 0x202c <dispatchAction+0x3d0>
    5f82: 8a           	txa
    5f83: d0 03        	bne	$5f88 <_ZN12_GLOBAL__N_15printEPKcP6Status+0x98a>
    5f85: 4c 32 60     	jmp	$6032 <_ZN12_GLOBAL__N_15printEPKcP6Status+0xa34>
    5f88: ca           	dex
    5f89: d0 03        	bne	$5f8e <_ZN12_GLOBAL__N_15printEPKcP6Status+0x990>
    5f8b: 4c f4 5f     	jmp	$5ff4 <_ZN12_GLOBAL__N_15printEPKcP6Status+0x9f6>
    5f8e: 86 2b        	stx	$2b                     ; 0x202b <dispatchAction+0x3cf>
    5f90: 18           	clc
    5f91: a5 10        	lda	$10                     ; 0x2010 <dispatchAction+0x3b4>
    5f93: 69 18        	adc	#$18
    5f95: 48           	pha
    5f96: a5 11        	lda	$11                     ; 0x2011 <dispatchAction+0x3b5>
    5f98: 69 00        	adc	#$0
    5f9a: 85 12        	sta	$12                     ; 0x2012 <dispatchAction+0x3b6>
    5f9c: 68           	pla
    5f9d: 18           	clc
    5f9e: 65 2b        	adc	$2b                     ; 0x202b <dispatchAction+0x3cf>
    5fa0: aa           	tax
    5fa1: a5 12        	lda	$12                     ; 0x2012 <dispatchAction+0x3b6>
    5fa3: 69 00        	adc	#$0
    5fa5: 85 12        	sta	$12                     ; 0x2012 <dispatchAction+0x3b6>
    5fa7: 18           	clc
    5fa8: 8a           	txa
    5fa9: 69 02        	adc	#$2
    5fab: 85 28        	sta	$28                     ; 0x2028 <dispatchAction+0x3cc>
    5fad: a5 12        	lda	$12                     ; 0x2012 <dispatchAction+0x3b6>
    5faf: 69 00        	adc	#$0
    5fb1: 85 29        	sta	$29                     ; 0x2029 <dispatchAction+0x3cd>
    5fb3: 80 35        	bra	$5fea <_ZN12_GLOBAL__N_15printEPKcP6Status+0x9ec>
    5fb5: 85 13        	sta	$13                     ; 0x2013 <dispatchAction+0x3b7>
    5fb7: a9 80        	lda	#$80
    5fb9: a0 01        	ldy	#$1
    5fbb: 31 24        	and	($24),y                 ; 0x2024 <dispatchAction+0x3c8>
    5fbd: f0 04        	beq	$5fc3 <_ZN12_GLOBAL__N_15printEPKcP6Status+0x9c5>
    5fbf: a2 61        	ldx	#$61
    5fc1: 80 02        	bra	$5fc5 <_ZN12_GLOBAL__N_15printEPKcP6Status+0x9c7>
    5fc3: a2 41        	ldx	#$41
    5fc5: 86 12        	stx	$12                     ; 0x2012 <dispatchAction+0x3b6>
    5fc7: 18           	clc
    5fc8: a5 13        	lda	$13                     ; 0x2013 <dispatchAction+0x3b7>
    5fca: 65 12        	adc	$12                     ; 0x2012 <dispatchAction+0x3b6>
    5fcc: 18           	clc
    5fcd: 69 f6        	adc	#$f6
    5fcf: a6 24        	ldx	$24                     ; 0x2024 <dispatchAction+0x3c8>
    5fd1: 86 12        	stx	$12                     ; 0x2012 <dispatchAction+0x3b6>
    5fd3: a6 25        	ldx	$25                     ; 0x2025 <dispatchAction+0x3c9>
    5fd5: 86 13        	stx	$13                     ; 0x2013 <dispatchAction+0x3b7>
    5fd7: 20 42 61     	jsr	$6142 <_ZN12_GLOBAL__N_13putEcP6Status>
    5fda: c6 2b        	dec	$2b                     ; 0x202b <dispatchAction+0x3cf>
    5fdc: a2 ff        	ldx	#$ff
    5fde: c6 28        	dec	$28                     ; 0x2028 <dispatchAction+0x3cc>
    5fe0: e4 28        	cpx	$28                     ; 0x2028 <dispatchAction+0x3cc>
    5fe2: d0 02        	bne	$5fe6 <_ZN12_GLOBAL__N_15printEPKcP6Status+0x9e8>
    5fe4: c6 29        	dec	$29                     ; 0x2029 <dispatchAction+0x3cd>
    5fe6: a5 2b        	lda	$2b                     ; 0x202b <dispatchAction+0x3cf>
    5fe8: f0 0a        	beq	$5ff4 <_ZN12_GLOBAL__N_15printEPKcP6Status+0x9f6>
    5fea: b2 28        	lda	($28)                   ; 0x2028 <dispatchAction+0x3cc>
    5fec: c9 0a        	cmp	#$a
    5fee: b0 c5        	bcs	$5fb5 <_ZN12_GLOBAL__N_15printEPKcP6Status+0x9b7>
    5ff0: 09 30        	ora	#$30
    5ff2: 80 db        	bra	$5fcf <_ZN12_GLOBAL__N_15printEPKcP6Status+0x9d1>
    5ff4: a0 02        	ldy	#$2
    5ff6: 18           	clc
    5ff7: a5 10        	lda	$10                     ; 0x2010 <dispatchAction+0x3b4>
    5ff9: 69 18        	adc	#$18
    5ffb: 85 12        	sta	$12                     ; 0x2012 <dispatchAction+0x3b6>
    5ffd: a5 11        	lda	$11                     ; 0x2011 <dispatchAction+0x3b5>
    5fff: 69 00        	adc	#$0
    6001: 85 13        	sta	$13                     ; 0x2013 <dispatchAction+0x3b7>
    6003: b1 12        	lda	($12),y                 ; 0x2012 <dispatchAction+0x3b6>
    6005: c9 0a        	cmp	#$a
    6007: b0 04        	bcs	$600d <_ZN12_GLOBAL__N_15printEPKcP6Status+0xa0f>
    6009: 09 30        	ora	#$30
    600b: 80 1a        	bra	$6027 <_ZN12_GLOBAL__N_15printEPKcP6Status+0xa29>
    600d: 85 13        	sta	$13                     ; 0x2013 <dispatchAction+0x3b7>
    600f: a0 01        	ldy	#$1
    6011: a9 80        	lda	#$80
    6013: 31 24        	and	($24),y                 ; 0x2024 <dispatchAction+0x3c8>
    6015: f0 04        	beq	$601b <_ZN12_GLOBAL__N_15printEPKcP6Status+0xa1d>
    6017: a2 61        	ldx	#$61
    6019: 80 02        	bra	$601d <_ZN12_GLOBAL__N_15printEPKcP6Status+0xa1f>
    601b: a2 41        	ldx	#$41
    601d: 86 12        	stx	$12                     ; 0x2012 <dispatchAction+0x3b6>
    601f: a5 13        	lda	$13                     ; 0x2013 <dispatchAction+0x3b7>
    6021: 18           	clc
    6022: 65 12        	adc	$12                     ; 0x2012 <dispatchAction+0x3b6>
    6024: 18           	clc
    6025: 69 f6        	adc	#$f6
    6027: a6 24        	ldx	$24                     ; 0x2024 <dispatchAction+0x3c8>
    6029: 86 12        	stx	$12                     ; 0x2012 <dispatchAction+0x3b6>
    602b: a6 25        	ldx	$25                     ; 0x2025 <dispatchAction+0x3c9>
    602d: 86 13        	stx	$13                     ; 0x2013 <dispatchAction+0x3b7>
    602f: 20 42 61     	jsr	$6142 <_ZN12_GLOBAL__N_13putEcP6Status>
    6032: a0 01        	ldy	#$1
    6034: 98           	tya
    6035: 31 24        	and	($24),y                 ; 0x2024 <dispatchAction+0x3c8>
    6037: f0 21        	beq	$605a <_ZN12_GLOBAL__N_15printEPKcP6Status+0xa5c>
    6039: a5 2c        	lda	$2c                     ; 0x202c <dispatchAction+0x3d0>
    603b: f0 19        	beq	$6056 <_ZN12_GLOBAL__N_15printEPKcP6Status+0xa58>
    603d: a6 24        	ldx	$24                     ; 0x2024 <dispatchAction+0x3c8>
    603f: 86 12        	stx	$12                     ; 0x2012 <dispatchAction+0x3b6>
    6041: a6 25        	ldx	$25                     ; 0x2025 <dispatchAction+0x3c9>
    6043: 86 13        	stx	$13                     ; 0x2013 <dispatchAction+0x3b7>
    6045: a9 20        	lda	#$20
    6047: 20 42 61     	jsr	$6142 <_ZN12_GLOBAL__N_13putEcP6Status>
    604a: a2 ff        	ldx	#$ff
    604c: c6 2a        	dec	$2a                     ; 0x202a <dispatchAction+0x3ce>
    604e: e4 2a        	cpx	$2a                     ; 0x202a <dispatchAction+0x3ce>
    6050: d0 e7        	bne	$6039 <_ZN12_GLOBAL__N_15printEPKcP6Status+0xa3b>
    6052: c6 2c        	dec	$2c                     ; 0x202c <dispatchAction+0x3d0>
    6054: 80 e3        	bra	$6039 <_ZN12_GLOBAL__N_15printEPKcP6Status+0xa3b>
    6056: a5 2a        	lda	$2a                     ; 0x202a <dispatchAction+0x3ce>
    6058: d0 e3        	bne	$603d <_ZN12_GLOBAL__N_15printEPKcP6Status+0xa3f>
    605a: a4 24        	ldy	$24                     ; 0x2024 <dispatchAction+0x3c8>
    605c: a5 24        	lda	$24                     ; 0x2024 <dispatchAction+0x3c8>
    605e: 84 14        	sty	$14                     ; 0x2014 <dispatchAction+0x3b8>
    6060: 18           	clc
    6061: 69 05        	adc	#$5
    6063: 85 12        	sta	$12                     ; 0x2012 <dispatchAction+0x3b6>
    6065: a5 25        	lda	$25                     ; 0x2025 <dispatchAction+0x3c9>
    6067: 69 00        	adc	#$0
    6069: 18           	clc
    606a: 85 13        	sta	$13                     ; 0x2013 <dispatchAction+0x3b7>
    606c: a0 01        	ldy	#$1
    606e: a5 14        	lda	$14                     ; 0x2014 <dispatchAction+0x3b8>
    6070: 69 03        	adc	#$3
    6072: 85 14        	sta	$14                     ; 0x2014 <dispatchAction+0x3b8>
    6074: a5 25        	lda	$25                     ; 0x2025 <dispatchAction+0x3c9>
    6076: 69 00        	adc	#$0
    6078: aa           	tax
    6079: b1 12        	lda	($12),y                 ; 0x2012 <dispatchAction+0x3b6>
    607b: 85 15        	sta	$15                     ; 0x2015 <dispatchAction+0x3b9>
    607d: a4 14        	ldy	$14                     ; 0x2014 <dispatchAction+0x3b8>
    607f: 84 12        	sty	$12                     ; 0x2012 <dispatchAction+0x3b6>
    6081: 86 13        	stx	$13                     ; 0x2013 <dispatchAction+0x3b7>
    6083: a0 03        	ldy	#$3
    6085: b1 24        	lda	($24),y                 ; 0x2024 <dispatchAction+0x3c8>
    6087: aa           	tax
    6088: a0 01        	ldy	#$1
    608a: b1 12        	lda	($12),y                 ; 0x2012 <dispatchAction+0x3b6>
    608c: 85 12        	sta	$12                     ; 0x2012 <dispatchAction+0x3b6>
    608e: a4 15        	ldy	$15                     ; 0x2015 <dispatchAction+0x3b9>
    6090: c4 12        	cpy	$12                     ; 0x2012 <dispatchAction+0x3b6>
    6092: d0 10        	bne	$60a4 <_ZN12_GLOBAL__N_15printEPKcP6Status+0xaa6>
    6094: a0 05        	ldy	#$5
    6096: 85 15        	sta	$15                     ; 0x2015 <dispatchAction+0x3b9>
    6098: b1 24        	lda	($24),y                 ; 0x2024 <dispatchAction+0x3c8>
    609a: 86 13        	stx	$13                     ; 0x2013 <dispatchAction+0x3b7>
    609c: 86 12        	stx	$12                     ; 0x2012 <dispatchAction+0x3b6>
    609e: c5 12        	cmp	$12                     ; 0x2012 <dispatchAction+0x3b6>
    60a0: b0 10        	bcs	$60b2 <_ZN12_GLOBAL__N_15printEPKcP6Status+0xab4>
    60a2: 80 43        	bra	$60e7 <_ZN12_GLOBAL__N_15printEPKcP6Status+0xae9>
    60a4: 84 14        	sty	$14                     ; 0x2014 <dispatchAction+0x3b8>
    60a6: 86 13        	stx	$13                     ; 0x2013 <dispatchAction+0x3b7>
    60a8: 85 12        	sta	$12                     ; 0x2012 <dispatchAction+0x3b6>
    60aa: a6 14        	ldx	$14                     ; 0x2014 <dispatchAction+0x3b8>
    60ac: e4 12        	cpx	$12                     ; 0x2012 <dispatchAction+0x3b6>
    60ae: 85 15        	sta	$15                     ; 0x2015 <dispatchAction+0x3b9>
    60b0: 90 35        	bcc	$60e7 <_ZN12_GLOBAL__N_15printEPKcP6Status+0xae9>
    60b2: a6 13        	ldx	$13                     ; 0x2013 <dispatchAction+0x3b7>
    60b4: a5 15        	lda	$15                     ; 0x2015 <dispatchAction+0x3b9>
    60b6: d0 03        	bne	$60bb <_ZN12_GLOBAL__N_15printEPKcP6Status+0xabd>
    60b8: 8a           	txa
    60b9: f0 2c        	beq	$60e7 <_ZN12_GLOBAL__N_15printEPKcP6Status+0xae9>
    60bb: a5 24        	lda	$24                     ; 0x2024 <dispatchAction+0x3c8>
    60bd: 18           	clc
    60be: 69 09        	adc	#$9
    60c0: 85 12        	sta	$12                     ; 0x2012 <dispatchAction+0x3b6>
    60c2: a5 25        	lda	$25                     ; 0x2025 <dispatchAction+0x3c9>
    60c4: 69 00        	adc	#$0
    60c6: a0 09        	ldy	#$9
    60c8: 85 13        	sta	$13                     ; 0x2013 <dispatchAction+0x3b7>
    60ca: 18           	clc
    60cb: 8a           	txa
    60cc: 71 24        	adc	($24),y                 ; 0x2024 <dispatchAction+0x3c8>
    60ce: aa           	tax
    60cf: a0 01        	ldy	#$1
    60d1: a5 15        	lda	$15                     ; 0x2015 <dispatchAction+0x3b9>
    60d3: 71 12        	adc	($12),y                 ; 0x2012 <dispatchAction+0x3b6>
    60d5: 86 12        	stx	$12                     ; 0x2012 <dispatchAction+0x3b6>
    60d7: 85 13        	sta	$13                     ; 0x2013 <dispatchAction+0x3b7>
    60d9: a2 ff        	ldx	#$ff
    60db: c6 12        	dec	$12                     ; 0x2012 <dispatchAction+0x3b6>
    60dd: e4 12        	cpx	$12                     ; 0x2012 <dispatchAction+0x3b6>
    60df: d0 02        	bne	$60e3 <_ZN12_GLOBAL__N_15printEPKcP6Status+0xae5>
    60e1: c6 13        	dec	$13                     ; 0x2013 <dispatchAction+0x3b7>
    60e3: a9 00        	lda	#$0
    60e5: 92 12        	sta	($12)                   ; 0x2012 <dispatchAction+0x3b6>
    60e7: b2 26        	lda	($26)                   ; 0x2026 <dispatchAction+0x3ca>
    60e9: 85 28        	sta	$28                     ; 0x2028 <dispatchAction+0x3cc>
    60eb: a0 01        	ldy	#$1
    60ed: b1 26        	lda	($26),y                 ; 0x2026 <dispatchAction+0x3ca>
    60ef: 85 29        	sta	$29                     ; 0x2029 <dispatchAction+0x3cd>
    60f1: e6 28        	inc	$28                     ; 0x2028 <dispatchAction+0x3cc>
    60f3: d0 02        	bne	$60f7 <_ZN12_GLOBAL__N_15printEPKcP6Status+0xaf9>
    60f5: e6 29        	inc	$29                     ; 0x2029 <dispatchAction+0x3cd>
    60f7: a6 28        	ldx	$28                     ; 0x2028 <dispatchAction+0x3cc>
    60f9: 86 12        	stx	$12                     ; 0x2012 <dispatchAction+0x3b6>
    60fb: a6 29        	ldx	$29                     ; 0x2029 <dispatchAction+0x3cd>
    60fd: 86 13        	stx	$13                     ; 0x2013 <dispatchAction+0x3b7>
    60ff: a0 00        	ldy	#$0
    6101: b1 10        	lda	($10),y                 ; 0x2010 <dispatchAction+0x3b4>
    6103: 85 2f        	sta	$2f                     ; 0x202f <dispatchAction+0x3d3>
    6105: c8           	iny
    6106: b1 10        	lda	($10),y                 ; 0x2010 <dispatchAction+0x3b4>
    6108: 85 2e        	sta	$2e                     ; 0x202e <dispatchAction+0x3d2>
    610a: c8           	iny
    610b: b1 10        	lda	($10),y                 ; 0x2010 <dispatchAction+0x3b4>
    610d: 85 2d        	sta	$2d                     ; 0x202d <dispatchAction+0x3d1>
    610f: c8           	iny
    6110: b1 10        	lda	($10),y                 ; 0x2010 <dispatchAction+0x3b4>
    6112: 85 2c        	sta	$2c                     ; 0x202c <dispatchAction+0x3d0>
    6114: c8           	iny
    6115: b1 10        	lda	($10),y                 ; 0x2010 <dispatchAction+0x3b4>
    6117: 85 2b        	sta	$2b                     ; 0x202b <dispatchAction+0x3cf>
    6119: c8           	iny
    611a: b1 10        	lda	($10),y                 ; 0x2010 <dispatchAction+0x3b4>
    611c: 85 2a        	sta	$2a                     ; 0x202a <dispatchAction+0x3ce>
    611e: c8           	iny
    611f: b1 10        	lda	($10),y                 ; 0x2010 <dispatchAction+0x3b4>
    6121: 85 29        	sta	$29                     ; 0x2029 <dispatchAction+0x3cd>
    6123: c8           	iny
    6124: b1 10        	lda	($10),y                 ; 0x2010 <dispatchAction+0x3b4>
    6126: 85 28        	sta	$28                     ; 0x2028 <dispatchAction+0x3cc>
    6128: fa           	plx
    6129: 86 27        	stx	$27                     ; 0x2027 <dispatchAction+0x3cb>
    612b: fa           	plx
    612c: 86 26        	stx	$26                     ; 0x2026 <dispatchAction+0x3ca>
    612e: fa           	plx
    612f: 86 25        	stx	$25                     ; 0x2025 <dispatchAction+0x3c9>
    6131: fa           	plx
    6132: 86 24        	stx	$24                     ; 0x2024 <dispatchAction+0x3c8>
    6134: 18           	clc
    6135: a5 10        	lda	$10                     ; 0x2010 <dispatchAction+0x3b4>
    6137: 69 2f        	adc	#$2f
    6139: 85 10        	sta	$10                     ; 0x2010 <dispatchAction+0x3b4>
    613b: a5 11        	lda	$11                     ; 0x2011 <dispatchAction+0x3b5>
    613d: 69 00        	adc	#$0
    613f: 85 11        	sta	$11                     ; 0x2011 <dispatchAction+0x3b5>
    6141: 60           	rts

00006142 <_ZN12_GLOBAL__N_13putEcP6Status>:
    6142: a6 24        	ldx	$24                     ; 0x2024 <dispatchAction+0x3c8>
    6144: da           	phx
    6145: a6 25        	ldx	$25                     ; 0x2025 <dispatchAction+0x3c9>
    6147: da           	phx
    6148: 85 16        	sta	$16                     ; 0x2016 <dispatchAction+0x3ba>
    614a: a6 12        	ldx	$12                     ; 0x2012 <dispatchAction+0x3b6>
    614c: 86 24        	stx	$24                     ; 0x2024 <dispatchAction+0x3c8>
    614e: a6 13        	ldx	$13                     ; 0x2013 <dispatchAction+0x3b7>
    6150: 86 25        	stx	$25                     ; 0x2025 <dispatchAction+0x3c9>
    6152: a6 25        	ldx	$25                     ; 0x2025 <dispatchAction+0x3c9>
    6154: 18           	clc
    6155: a5 12        	lda	$12                     ; 0x2012 <dispatchAction+0x3b6>
    6157: 69 05        	adc	#$5
    6159: a8           	tay
    615a: a5 25        	lda	$25                     ; 0x2025 <dispatchAction+0x3c9>
    615c: 86 13        	stx	$13                     ; 0x2013 <dispatchAction+0x3b7>
    615e: 69 00        	adc	#$0
    6160: 18           	clc
    6161: 84 14        	sty	$14                     ; 0x2014 <dispatchAction+0x3b8>
    6163: a0 05        	ldy	#$5
    6165: 85 15        	sta	$15                     ; 0x2015 <dispatchAction+0x3b9>
    6167: b1 24        	lda	($24),y                 ; 0x2024 <dispatchAction+0x3c8>
    6169: aa           	tax
    616a: a5 12        	lda	$12                     ; 0x2012 <dispatchAction+0x3b6>
    616c: 69 03        	adc	#$3
    616e: 85 12        	sta	$12                     ; 0x2012 <dispatchAction+0x3b6>
    6170: a5 13        	lda	$13                     ; 0x2013 <dispatchAction+0x3b7>
    6172: 69 00        	adc	#$0
    6174: 85 13        	sta	$13                     ; 0x2013 <dispatchAction+0x3b7>
    6176: a0 01        	ldy	#$1
    6178: b1 14        	lda	($14),y                 ; 0x2014 <dispatchAction+0x3b8>
    617a: d1 12        	cmp	($12),y                 ; 0x2012 <dispatchAction+0x3b6>
    617c: d0 11        	bne	$618f <_ZN12_GLOBAL__N_13putEcP6Status+0x4d>
    617e: a0 03        	ldy	#$3
    6180: 85 15        	sta	$15                     ; 0x2015 <dispatchAction+0x3b9>
    6182: b1 24        	lda	($24),y                 ; 0x2024 <dispatchAction+0x3c8>
    6184: 85 12        	sta	$12                     ; 0x2012 <dispatchAction+0x3b6>
    6186: 86 14        	stx	$14                     ; 0x2014 <dispatchAction+0x3b8>
    6188: e4 12        	cpx	$12                     ; 0x2012 <dispatchAction+0x3b6>
    618a: 90 0e        	bcc	$619a <_ZN12_GLOBAL__N_13putEcP6Status+0x58>
    618c: 4c f5 61     	jmp	$61f5 <_ZN12_GLOBAL__N_13putEcP6Status+0xb3>
    618f: 86 14        	stx	$14                     ; 0x2014 <dispatchAction+0x3b8>
    6191: d1 12        	cmp	($12),y                 ; 0x2012 <dispatchAction+0x3b6>
    6193: 85 15        	sta	$15                     ; 0x2015 <dispatchAction+0x3b9>
    6195: 90 03        	bcc	$619a <_ZN12_GLOBAL__N_13putEcP6Status+0x58>
    6197: 4c f5 61     	jmp	$61f5 <_ZN12_GLOBAL__N_13putEcP6Status+0xb3>
    619a: a0 0f        	ldy	#$f
    619c: a5 24        	lda	$24                     ; 0x2024 <dispatchAction+0x3c8>
    619e: 18           	clc
    619f: 69 0f        	adc	#$f
    61a1: 85 12        	sta	$12                     ; 0x2012 <dispatchAction+0x3b6>
    61a3: a5 25        	lda	$25                     ; 0x2025 <dispatchAction+0x3c9>
    61a5: 69 00        	adc	#$0
    61a7: 85 13        	sta	$13                     ; 0x2013 <dispatchAction+0x3b7>
    61a9: b1 24        	lda	($24),y                 ; 0x2024 <dispatchAction+0x3c8>
    61ab: 85 17        	sta	$17                     ; 0x2017 <dispatchAction+0x3bb>
    61ad: a0 01        	ldy	#$1
    61af: b1 12        	lda	($12),y                 ; 0x2012 <dispatchAction+0x3b6>
    61b1: a2 00        	ldx	#$0
    61b3: 86 12        	stx	$12                     ; 0x2012 <dispatchAction+0x3b6>
    61b5: a2 00        	ldx	#$0
    61b7: 86 13        	stx	$13                     ; 0x2013 <dispatchAction+0x3b7>
    61b9: c5 13        	cmp	$13                     ; 0x2013 <dispatchAction+0x3b7>
    61bb: d0 2b        	bne	$61e8 <_ZN12_GLOBAL__N_13putEcP6Status+0xa6>
    61bd: a4 17        	ldy	$17                     ; 0x2017 <dispatchAction+0x3bb>
    61bf: c4 12        	cpy	$12                     ; 0x2012 <dispatchAction+0x3b6>
    61c1: d0 27        	bne	$61ea <_ZN12_GLOBAL__N_13putEcP6Status+0xa8>
    61c3: a5 24        	lda	$24                     ; 0x2024 <dispatchAction+0x3c8>
    61c5: 18           	clc
    61c6: 69 09        	adc	#$9
    61c8: 85 12        	sta	$12                     ; 0x2012 <dispatchAction+0x3b6>
    61ca: a5 25        	lda	$25                     ; 0x2025 <dispatchAction+0x3c9>
    61cc: 69 00        	adc	#$0
    61ce: a0 09        	ldy	#$9
    61d0: 85 13        	sta	$13                     ; 0x2013 <dispatchAction+0x3b7>
    61d2: 18           	clc
    61d3: a5 14        	lda	$14                     ; 0x2014 <dispatchAction+0x3b8>
    61d5: 71 24        	adc	($24),y                 ; 0x2024 <dispatchAction+0x3c8>
    61d7: aa           	tax
    61d8: a0 01        	ldy	#$1
    61da: a5 15        	lda	$15                     ; 0x2015 <dispatchAction+0x3b9>
    61dc: 71 12        	adc	($12),y                 ; 0x2012 <dispatchAction+0x3b6>
    61de: 86 12        	stx	$12                     ; 0x2012 <dispatchAction+0x3b6>
    61e0: 85 13        	sta	$13                     ; 0x2013 <dispatchAction+0x3b7>
    61e2: a5 16        	lda	$16                     ; 0x2016 <dispatchAction+0x3ba>
    61e4: 92 12        	sta	($12)                   ; 0x2012 <dispatchAction+0x3b6>
    61e6: 80 0d        	bra	$61f5 <_ZN12_GLOBAL__N_13putEcP6Status+0xb3>
    61e8: a4 17        	ldy	$17                     ; 0x2017 <dispatchAction+0x3bb>
    61ea: 84 12        	sty	$12                     ; 0x2012 <dispatchAction+0x3b6>
    61ec: 85 13        	sta	$13                     ; 0x2013 <dispatchAction+0x3b7>
    61ee: a2 00        	ldx	#$0
    61f0: a5 16        	lda	$16                     ; 0x2016 <dispatchAction+0x3ba>
    61f2: 20 22 64     	jsr	$6422 <putc>
    61f5: a0 05        	ldy	#$5
    61f7: a5 24        	lda	$24                     ; 0x2024 <dispatchAction+0x3c8>
    61f9: 18           	clc
    61fa: 69 05        	adc	#$5
    61fc: 85 12        	sta	$12                     ; 0x2012 <dispatchAction+0x3b6>
    61fe: a5 25        	lda	$25                     ; 0x2025 <dispatchAction+0x3c9>
    6200: 69 00        	adc	#$0
    6202: 85 13        	sta	$13                     ; 0x2013 <dispatchAction+0x3b7>
    6204: b1 24        	lda	($24),y                 ; 0x2024 <dispatchAction+0x3c8>
    6206: aa           	tax
    6207: a0 01        	ldy	#$1
    6209: b1 12        	lda	($12),y                 ; 0x2012 <dispatchAction+0x3b6>
    620b: e8           	inx
    620c: d0 01        	bne	$620f <_ZN12_GLOBAL__N_13putEcP6Status+0xcd>
    620e: 1a           	inc
    620f: 85 14        	sta	$14                     ; 0x2014 <dispatchAction+0x3b8>
    6211: 8a           	txa
    6212: a0 05        	ldy	#$5
    6214: 91 24        	sta	($24),y                 ; 0x2024 <dispatchAction+0x3c8>
    6216: a0 01        	ldy	#$1
    6218: a5 14        	lda	$14                     ; 0x2014 <dispatchAction+0x3b8>
    621a: 91 12        	sta	($12),y                 ; 0x2012 <dispatchAction+0x3b6>
    621c: fa           	plx
    621d: 86 25        	stx	$25                     ; 0x2025 <dispatchAction+0x3c9>
    621f: fa           	plx
    6220: 86 24        	stx	$24                     ; 0x2024 <dispatchAction+0x3c8>
    6222: 60           	rts

00006223 <_ZN12_GLOBAL__N_112print_stringEPKcP6Status>:
    6223: 18           	clc
    6224: a5 10        	lda	$10                     ; 0x2010 <dispatchAction+0x3b4>
    6226: 69 fc        	adc	#$fc
    6228: 85 10        	sta	$10                     ; 0x2010 <dispatchAction+0x3b4>
    622a: a5 11        	lda	$11                     ; 0x2011 <dispatchAction+0x3b5>
    622c: 69 ff        	adc	#$ff
    622e: 85 11        	sta	$11                     ; 0x2011 <dispatchAction+0x3b5>
    6230: a6 24        	ldx	$24                     ; 0x2024 <dispatchAction+0x3c8>
    6232: da           	phx
    6233: a6 25        	ldx	$25                     ; 0x2025 <dispatchAction+0x3c9>
    6235: da           	phx
    6236: a6 26        	ldx	$26                     ; 0x2026 <dispatchAction+0x3ca>
    6238: da           	phx
    6239: a6 27        	ldx	$27                     ; 0x2027 <dispatchAction+0x3cb>
    623b: da           	phx
    623c: a5 28        	lda	$28                     ; 0x2028 <dispatchAction+0x3cc>
    623e: a0 02        	ldy	#$2
    6240: 91 10        	sta	($10),y                 ; 0x2010 <dispatchAction+0x3b4>
    6242: a5 29        	lda	$29                     ; 0x2029 <dispatchAction+0x3cd>
    6244: 88           	dey
    6245: 91 10        	sta	($10),y                 ; 0x2010 <dispatchAction+0x3b4>
    6247: a5 2a        	lda	$2a                     ; 0x202a <dispatchAction+0x3ce>
    6249: 88           	dey
    624a: 91 10        	sta	($10),y                 ; 0x2010 <dispatchAction+0x3b4>
    624c: a6 12        	ldx	$12                     ; 0x2012 <dispatchAction+0x3b6>
    624e: 86 24        	stx	$24                     ; 0x2024 <dispatchAction+0x3c8>
    6250: a6 13        	ldx	$13                     ; 0x2013 <dispatchAction+0x3b7>
    6252: 86 25        	stx	$25                     ; 0x2025 <dispatchAction+0x3c9>
    6254: a6 14        	ldx	$14                     ; 0x2014 <dispatchAction+0x3b8>
    6256: 86 26        	stx	$26                     ; 0x2026 <dispatchAction+0x3ca>
    6258: a6 15        	ldx	$15                     ; 0x2015 <dispatchAction+0x3b9>
    625a: 86 27        	stx	$27                     ; 0x2027 <dispatchAction+0x3cb>
    625c: a5 26        	lda	$26                     ; 0x2026 <dispatchAction+0x3ca>
    625e: 18           	clc
    625f: 69 0d        	adc	#$d
    6261: 85 12        	sta	$12                     ; 0x2012 <dispatchAction+0x3b6>
    6263: a5 27        	lda	$27                     ; 0x2027 <dispatchAction+0x3cb>
    6265: 69 00        	adc	#$0
    6267: 85 13        	sta	$13                     ; 0x2013 <dispatchAction+0x3b7>
    6269: c8           	iny
    626a: b1 12        	lda	($12),y                 ; 0x2012 <dispatchAction+0x3b6>
    626c: 30 1c        	bmi	$628a <_ZN12_GLOBAL__N_112print_stringEPKcP6Status+0x67>
    626e: a0 0d        	ldy	#$d
    6270: aa           	tax
    6271: b1 26        	lda	($26),y                 ; 0x2026 <dispatchAction+0x3ca>
    6273: 48           	pha
    6274: 8a           	txa
    6275: a0 03        	ldy	#$3
    6277: 91 10        	sta	($10),y                 ; 0x2010 <dispatchAction+0x3b4>
    6279: 68           	pla
    627a: e0 00        	cpx	#$0
    627c: d0 16        	bne	$6294 <_ZN12_GLOBAL__N_112print_stringEPKcP6Status+0x71>
    627e: aa           	tax
    627f: d0 13        	bne	$6294 <_ZN12_GLOBAL__N_112print_stringEPKcP6Status+0x71>
    6281: 64 28        	stz	$28                     ; 0x2028 <dispatchAction+0x3cc>
    6283: 64 12        	stz	$12                     ; 0x2012 <dispatchAction+0x3b6>
    6285: a9 00        	lda	#$0
    6287: 4c 92 63     	jmp	$6392 <_ZN12_GLOBAL__N_112print_stringEPKcP6Status+0x16f>
    628a: a9 ff        	lda	#$ff
    628c: aa           	tax
    628d: 48           	pha
    628e: 8a           	txa
    628f: a0 03        	ldy	#$3
    6291: 91 10        	sta	($10),y                 ; 0x2010 <dispatchAction+0x3b4>
    6293: 68           	pla
    6294: 85 28        	sta	$28                     ; 0x2028 <dispatchAction+0x3cc>
    6296: 64 12        	stz	$12                     ; 0x2012 <dispatchAction+0x3b6>
    6298: a4 24        	ldy	$24                     ; 0x2024 <dispatchAction+0x3c8>
    629a: a6 25        	ldx	$25                     ; 0x2025 <dispatchAction+0x3c9>
    629c: 86 16        	stx	$16                     ; 0x2016 <dispatchAction+0x3ba>
    629e: 64 13        	stz	$13                     ; 0x2013 <dispatchAction+0x3b7>
    62a0: 98           	tya
    62a1: 18           	clc
    62a2: 65 12        	adc	$12                     ; 0x2012 <dispatchAction+0x3b6>
    62a4: 85 14        	sta	$14                     ; 0x2014 <dispatchAction+0x3b8>
    62a6: a5 25        	lda	$25                     ; 0x2025 <dispatchAction+0x3c9>
    62a8: 65 13        	adc	$13                     ; 0x2013 <dispatchAction+0x3b7>
    62aa: 85 15        	sta	$15                     ; 0x2015 <dispatchAction+0x3b9>
    62ac: b2 14        	lda	($14)                   ; 0x2014 <dispatchAction+0x3b8>
    62ae: d0 03        	bne	$62b3 <_ZN12_GLOBAL__N_112print_stringEPKcP6Status+0x90>
    62b0: 4c 8a 63     	jmp	$638a <_ZN12_GLOBAL__N_112print_stringEPKcP6Status+0x167>
    62b3: e6 12        	inc	$12                     ; 0x2012 <dispatchAction+0x3b6>
    62b5: d0 02        	bne	$62b9 <_ZN12_GLOBAL__N_112print_stringEPKcP6Status+0x96>
    62b7: e6 13        	inc	$13                     ; 0x2013 <dispatchAction+0x3b7>
    62b9: 5a           	phy
    62ba: a0 03        	ldy	#$3
    62bc: b1 10        	lda	($10),y                 ; 0x2010 <dispatchAction+0x3b4>
    62be: 7a           	ply
    62bf: c5 13        	cmp	$13                     ; 0x2013 <dispatchAction+0x3b7>
    62c1: d0 dd        	bne	$62a0 <_ZN12_GLOBAL__N_112print_stringEPKcP6Status+0x7d>
    62c3: a6 28        	ldx	$28                     ; 0x2028 <dispatchAction+0x3cc>
    62c5: e4 12        	cpx	$12                     ; 0x2012 <dispatchAction+0x3b6>
    62c7: d0 d7        	bne	$62a0 <_ZN12_GLOBAL__N_112print_stringEPKcP6Status+0x7d>
    62c9: a0 01        	ldy	#$1
    62cb: b1 26        	lda	($26),y                 ; 0x2026 <dispatchAction+0x3ca>
    62cd: 29 01        	and	#$1
    62cf: f0 03        	beq	$62d4 <_ZN12_GLOBAL__N_112print_stringEPKcP6Status+0xb1>
    62d1: 4c 2f 63     	jmp	$632f <_ZN12_GLOBAL__N_112print_stringEPKcP6Status+0x10c>
    62d4: a5 26        	lda	$26                     ; 0x2026 <dispatchAction+0x3ca>
    62d6: 18           	clc
    62d7: 69 0b        	adc	#$b
    62d9: 85 14        	sta	$14                     ; 0x2014 <dispatchAction+0x3b8>
    62db: a5 27        	lda	$27                     ; 0x2027 <dispatchAction+0x3cb>
    62dd: 69 00        	adc	#$0
    62df: 85 15        	sta	$15                     ; 0x2015 <dispatchAction+0x3b9>
    62e1: a0 0b        	ldy	#$b
    62e3: b1 26        	lda	($26),y                 ; 0x2026 <dispatchAction+0x3ca>
    62e5: 85 13        	sta	$13                     ; 0x2013 <dispatchAction+0x3b7>
    62e7: a0 01        	ldy	#$1
    62e9: b1 14        	lda	($14),y                 ; 0x2014 <dispatchAction+0x3b8>
    62eb: 85 12        	sta	$12                     ; 0x2012 <dispatchAction+0x3b6>
    62ed: a0 03        	ldy	#$3
    62ef: b1 10        	lda	($10),y                 ; 0x2010 <dispatchAction+0x3b4>
    62f1: aa           	tax
    62f2: c5 12        	cmp	$12                     ; 0x2012 <dispatchAction+0x3b6>
    62f4: d0 08        	bne	$62fe <_ZN12_GLOBAL__N_112print_stringEPKcP6Status+0xdb>
    62f6: a6 28        	ldx	$28                     ; 0x2028 <dispatchAction+0x3cc>
    62f8: e4 13        	cpx	$13                     ; 0x2013 <dispatchAction+0x3b7>
    62fa: 90 06        	bcc	$6302 <_ZN12_GLOBAL__N_112print_stringEPKcP6Status+0xdf>
    62fc: 80 31        	bra	$632f <_ZN12_GLOBAL__N_112print_stringEPKcP6Status+0x10c>
    62fe: e4 12        	cpx	$12                     ; 0x2012 <dispatchAction+0x3b6>
    6300: b0 2d        	bcs	$632f <_ZN12_GLOBAL__N_112print_stringEPKcP6Status+0x10c>
    6302: 38           	sec
    6303: a5 28        	lda	$28                     ; 0x2028 <dispatchAction+0x3cc>
    6305: e5 13        	sbc	$13                     ; 0x2013 <dispatchAction+0x3b7>
    6307: aa           	tax
    6308: b1 10        	lda	($10),y                 ; 0x2010 <dispatchAction+0x3b4>
    630a: e5 12        	sbc	$12                     ; 0x2012 <dispatchAction+0x3b6>
    630c: 85 2a        	sta	$2a                     ; 0x202a <dispatchAction+0x3ce>
    630e: a4 26        	ldy	$26                     ; 0x2026 <dispatchAction+0x3ca>
    6310: 84 12        	sty	$12                     ; 0x2012 <dispatchAction+0x3b6>
    6312: a4 27        	ldy	$27                     ; 0x2027 <dispatchAction+0x3cb>
    6314: 84 13        	sty	$13                     ; 0x2013 <dispatchAction+0x3b7>
    6316: 86 29        	stx	$29                     ; 0x2029 <dispatchAction+0x3cd>
    6318: a9 20        	lda	#$20
    631a: 20 42 61     	jsr	$6142 <_ZN12_GLOBAL__N_13putEcP6Status>
    631d: a4 2a        	ldy	$2a                     ; 0x202a <dispatchAction+0x3ce>
    631f: e6 29        	inc	$29                     ; 0x2029 <dispatchAction+0x3cd>
    6321: d0 01        	bne	$6324 <_ZN12_GLOBAL__N_112print_stringEPKcP6Status+0x101>
    6323: c8           	iny
    6324: 84 2a        	sty	$2a                     ; 0x202a <dispatchAction+0x3ce>
    6326: a6 29        	ldx	$29                     ; 0x2029 <dispatchAction+0x3cd>
    6328: 98           	tya
    6329: d0 e3        	bne	$630e <_ZN12_GLOBAL__N_112print_stringEPKcP6Status+0xeb>
    632b: a5 29        	lda	$29                     ; 0x2029 <dispatchAction+0x3cd>
    632d: d0 df        	bne	$630e <_ZN12_GLOBAL__N_112print_stringEPKcP6Status+0xeb>
    632f: a0 03        	ldy	#$3
    6331: b1 10        	lda	($10),y                 ; 0x2010 <dispatchAction+0x3b4>
    6333: a8           	tay
    6334: d0 04        	bne	$633a <_ZN12_GLOBAL__N_112print_stringEPKcP6Status+0x117>
    6336: a5 28        	lda	$28                     ; 0x2028 <dispatchAction+0x3cc>
    6338: f0 26        	beq	$6360 <_ZN12_GLOBAL__N_112print_stringEPKcP6Status+0x13d>
    633a: a2 ff        	ldx	#$ff
    633c: c6 28        	dec	$28                     ; 0x2028 <dispatchAction+0x3cc>
    633e: e4 28        	cpx	$28                     ; 0x2028 <dispatchAction+0x3cc>
    6340: d0 01        	bne	$6343 <_ZN12_GLOBAL__N_112print_stringEPKcP6Status+0x120>
    6342: 88           	dey
    6343: 84 29        	sty	$29                     ; 0x2029 <dispatchAction+0x3cd>
    6345: b2 24        	lda	($24)                   ; 0x2024 <dispatchAction+0x3c8>
    6347: e6 24        	inc	$24                     ; 0x2024 <dispatchAction+0x3c8>
    6349: d0 02        	bne	$634d <_ZN12_GLOBAL__N_112print_stringEPKcP6Status+0x12a>
    634b: e6 25        	inc	$25                     ; 0x2025 <dispatchAction+0x3c9>
    634d: a6 26        	ldx	$26                     ; 0x2026 <dispatchAction+0x3ca>
    634f: 86 12        	stx	$12                     ; 0x2012 <dispatchAction+0x3b6>
    6351: a6 27        	ldx	$27                     ; 0x2027 <dispatchAction+0x3cb>
    6353: 86 13        	stx	$13                     ; 0x2013 <dispatchAction+0x3b7>
    6355: 20 42 61     	jsr	$6142 <_ZN12_GLOBAL__N_13putEcP6Status>
    6358: a4 29        	ldy	$29                     ; 0x2029 <dispatchAction+0x3cd>
    635a: d0 de        	bne	$633a <_ZN12_GLOBAL__N_112print_stringEPKcP6Status+0x117>
    635c: a5 28        	lda	$28                     ; 0x2028 <dispatchAction+0x3cc>
    635e: d0 da        	bne	$633a <_ZN12_GLOBAL__N_112print_stringEPKcP6Status+0x117>
    6360: a0 00        	ldy	#$0
    6362: b1 10        	lda	($10),y                 ; 0x2010 <dispatchAction+0x3b4>
    6364: 85 2a        	sta	$2a                     ; 0x202a <dispatchAction+0x3ce>
    6366: c8           	iny
    6367: b1 10        	lda	($10),y                 ; 0x2010 <dispatchAction+0x3b4>
    6369: 85 29        	sta	$29                     ; 0x2029 <dispatchAction+0x3cd>
    636b: c8           	iny
    636c: b1 10        	lda	($10),y                 ; 0x2010 <dispatchAction+0x3b4>
    636e: 85 28        	sta	$28                     ; 0x2028 <dispatchAction+0x3cc>
    6370: fa           	plx
    6371: 86 27        	stx	$27                     ; 0x2027 <dispatchAction+0x3cb>
    6373: fa           	plx
    6374: 86 26        	stx	$26                     ; 0x2026 <dispatchAction+0x3ca>
    6376: fa           	plx
    6377: 86 25        	stx	$25                     ; 0x2025 <dispatchAction+0x3c9>
    6379: fa           	plx
    637a: 86 24        	stx	$24                     ; 0x2024 <dispatchAction+0x3c8>
    637c: 18           	clc
    637d: a5 10        	lda	$10                     ; 0x2010 <dispatchAction+0x3b4>
    637f: 69 04        	adc	#$4
    6381: 85 10        	sta	$10                     ; 0x2010 <dispatchAction+0x3b4>
    6383: a5 11        	lda	$11                     ; 0x2011 <dispatchAction+0x3b5>
    6385: 69 00        	adc	#$0
    6387: 85 11        	sta	$11                     ; 0x2011 <dispatchAction+0x3b5>
    6389: 60           	rts
    638a: a6 12        	ldx	$12                     ; 0x2012 <dispatchAction+0x3b6>
    638c: 86 28        	stx	$28                     ; 0x2028 <dispatchAction+0x3cc>
    638e: a5 13        	lda	$13                     ; 0x2013 <dispatchAction+0x3b7>
    6390: a0 03        	ldy	#$3
    6392: 91 10        	sta	($10),y                 ; 0x2010 <dispatchAction+0x3b4>
    6394: 4c c9 62     	jmp	$62c9 <_ZN12_GLOBAL__N_112print_stringEPKcP6Status+0xa6>

00006397 <printf>:
    6397: 18           	clc
    6398: a5 10        	lda	$10                     ; 0x2010 <dispatchAction+0x3b4>
    639a: 69 fe        	adc	#$fe
    639c: 85 10        	sta	$10                     ; 0x2010 <dispatchAction+0x3b4>
    639e: a5 11        	lda	$11                     ; 0x2011 <dispatchAction+0x3b5>
    63a0: 69 ff        	adc	#$ff
    63a2: 85 11        	sta	$11                     ; 0x2011 <dispatchAction+0x3b5>
    63a4: a6 12        	ldx	$12                     ; 0x2012 <dispatchAction+0x3b6>
    63a6: 86 14        	stx	$14                     ; 0x2014 <dispatchAction+0x3b8>
    63a8: a6 13        	ldx	$13                     ; 0x2013 <dispatchAction+0x3b7>
    63aa: 86 15        	stx	$15                     ; 0x2015 <dispatchAction+0x3b9>
    63ac: 18           	clc
    63ad: a5 10        	lda	$10                     ; 0x2010 <dispatchAction+0x3b4>
    63af: 69 02        	adc	#$2
    63b1: 48           	pha
    63b2: a5 11        	lda	$11                     ; 0x2011 <dispatchAction+0x3b5>
    63b4: 69 00        	adc	#$0
    63b6: 85 12        	sta	$12                     ; 0x2012 <dispatchAction+0x3b6>
    63b8: 68           	pla
    63b9: 18           	clc
    63ba: a6 10        	ldx	$10                     ; 0x2010 <dispatchAction+0x3b4>
    63bc: 86 16        	stx	$16                     ; 0x2016 <dispatchAction+0x3ba>
    63be: a6 11        	ldx	$11                     ; 0x2011 <dispatchAction+0x3b5>
    63c0: 86 17        	stx	$17                     ; 0x2017 <dispatchAction+0x3bb>
    63c2: 92 16        	sta	($16)                   ; 0x2016 <dispatchAction+0x3ba>
    63c4: a0 01        	ldy	#$1
    63c6: a5 12        	lda	$12                     ; 0x2012 <dispatchAction+0x3b6>
    63c8: 91 16        	sta	($16),y                 ; 0x2016 <dispatchAction+0x3ba>
    63ca: ae f0 6c     	ldx	$6cf0                   ; 0x6cf0 <stdout>
    63cd: ad f1 6c     	lda	$6cf1                   ; 0x6cf1 <stdout+0x1>
    63d0: 86 12        	stx	$12                     ; 0x2012 <dispatchAction+0x3b6>
    63d2: 85 13        	sta	$13                     ; 0x2013 <dispatchAction+0x3b7>
    63d4: b2 16        	lda	($16)                   ; 0x2016 <dispatchAction+0x3ba>
    63d6: aa           	tax
    63d7: b1 16        	lda	($16),y                 ; 0x2016 <dispatchAction+0x3ba>
    63d9: 86 16        	stx	$16                     ; 0x2016 <dispatchAction+0x3ba>
    63db: 85 17        	sta	$17                     ; 0x2017 <dispatchAction+0x3bb>
    63dd: 20 e6 53     	jsr	$53e6 <vfprintf>
    63e0: 48           	pha
    63e1: 18           	clc
    63e2: a5 10        	lda	$10                     ; 0x2010 <dispatchAction+0x3b4>
    63e4: 69 02        	adc	#$2
    63e6: 85 10        	sta	$10                     ; 0x2010 <dispatchAction+0x3b4>
    63e8: a5 11        	lda	$11                     ; 0x2011 <dispatchAction+0x3b5>
    63ea: 69 00        	adc	#$0
    63ec: 85 11        	sta	$11                     ; 0x2011 <dispatchAction+0x3b5>
    63ee: 68           	pla
    63ef: 60           	rts

000063f0 <fputc>:
    63f0: 4c f3 63     	jmp	$63f3 <putchar>

000063f3 <putchar>:
    63f3: a4 24        	ldy	$24                     ; 0x2024 <dispatchAction+0x3c8>
    63f5: 5a           	phy
    63f6: a4 25        	ldy	$25                     ; 0x2025 <dispatchAction+0x3c9>
    63f8: 5a           	phy
    63f9: 85 24        	sta	$24                     ; 0x2024 <dispatchAction+0x3c8>
    63fb: 86 25        	stx	$25                     ; 0x2025 <dispatchAction+0x3c9>
    63fd: a2 00        	ldx	#$0
    63ff: 86 12        	stx	$12                     ; 0x2012 <dispatchAction+0x3b6>
    6401: a2 00        	ldx	#$0
    6403: 86 13        	stx	$13                     ; 0x2013 <dispatchAction+0x3b7>
    6405: a2 1b        	ldx	#$1b
    6407: 86 14        	stx	$14                     ; 0x2014 <dispatchAction+0x3b8>
    6409: a2 64        	ldx	#$64
    640b: 86 15        	stx	$15                     ; 0x2015 <dispatchAction+0x3b9>
    640d: 20 25 64     	jsr	$6425 <__from_ascii>
    6410: a6 25        	ldx	$25                     ; 0x2025 <dispatchAction+0x3c9>
    6412: a5 24        	lda	$24                     ; 0x2024 <dispatchAction+0x3c8>
    6414: 7a           	ply
    6415: 84 25        	sty	$25                     ; 0x2025 <dispatchAction+0x3c9>
    6417: 7a           	ply
    6418: 84 24        	sty	$24                     ; 0x2024 <dispatchAction+0x3c8>
    641a: 60           	rts

0000641b <putchar_wrapper>:
    641b: 20 1f 3a     	jsr	$3a1f <__putchar>
    641e: a2 00        	ldx	#$0
    6420: 8a           	txa
    6421: 60           	rts

00006422 <putc>:
    6422: 4c f0 63     	jmp	$63f0 <fputc>

00006425 <__from_ascii>:
    6425: a6 14        	ldx	$14                     ; 0x2014 <dispatchAction+0x3b8>
    6427: 86 22        	stx	$22                     ; 0x2022 <dispatchAction+0x3c6>
    6429: a6 15        	ldx	$15                     ; 0x2015 <dispatchAction+0x3b9>
    642b: 86 23        	stx	$23                     ; 0x2023 <dispatchAction+0x3c7>
    642d: 4c 35 06     	jmp	$635 <__call_indir>

00006430 <malloc>:
    6430: a8           	tay
    6431: 8a           	txa
    6432: a2 00        	ldx	#$0
    6434: 86 12        	stx	$12                     ; 0x2012 <dispatchAction+0x3b6>
    6436: a2 00        	ldx	#$0
    6438: 86 13        	stx	$13                     ; 0x2013 <dispatchAction+0x3b7>
    643a: aa           	tax
    643b: d0 07        	bne	$6444 <malloc+0x14>
    643d: c0 00        	cpy	#$0
    643f: d0 03        	bne	$6444 <malloc+0x14>
    6441: 4c 27 65     	jmp	$6527 <malloc+0xf7>
    6444: 84 16        	sty	$16                     ; 0x2016 <dispatchAction+0x3ba>
    6446: aa           	tax
    6447: d0 0e        	bne	$6457 <malloc+0x27>
    6449: a6 16        	ldx	$16                     ; 0x2016 <dispatchAction+0x3ba>
    644b: e0 07        	cpx	#$7
    644d: b0 0c        	bcs	$645b <malloc+0x2b>
    644f: a2 08        	ldx	#$8
    6451: 64 17        	stz	$17                     ; 0x2017 <dispatchAction+0x3bb>
    6453: 86 16        	stx	$16                     ; 0x2016 <dispatchAction+0x3ba>
    6455: 80 30        	bra	$6487 <malloc+0x57>
    6457: c9 00        	cmp	#$0
    6459: 90 f4        	bcc	$644f <malloc+0x1f>
    645b: a8           	tay
    645c: a5 16        	lda	$16                     ; 0x2016 <dispatchAction+0x3ba>
    645e: 29 01        	and	#$1
    6460: a2 02        	ldx	#$2
    6462: 64 14        	stz	$14                     ; 0x2014 <dispatchAction+0x3b8>
    6464: c9 00        	cmp	#$0
    6466: f0 02        	beq	$646a <malloc+0x3a>
    6468: a2 03        	ldx	#$3
    646a: 86 15        	stx	$15                     ; 0x2015 <dispatchAction+0x3b9>
    646c: 18           	clc
    646d: a5 16        	lda	$16                     ; 0x2016 <dispatchAction+0x3ba>
    646f: 65 15        	adc	$15                     ; 0x2015 <dispatchAction+0x3b9>
    6471: aa           	tax
    6472: 98           	tya
    6473: 65 14        	adc	$14                     ; 0x2014 <dispatchAction+0x3b8>
    6475: 90 03        	bcc	$647a <malloc+0x4a>
    6477: 4c 27 65     	jmp	$6527 <malloc+0xf7>
    647a: 86 16        	stx	$16                     ; 0x2016 <dispatchAction+0x3ba>
    647c: 85 17        	sta	$17                     ; 0x2017 <dispatchAction+0x3bb>
    647e: a8           	tay
    647f: d0 06        	bne	$6487 <malloc+0x57>
    6481: 8a           	txa
    6482: d0 03        	bne	$6487 <malloc+0x57>
    6484: 4c 27 65     	jmp	$6527 <malloc+0xf7>
    6487: ad e5 72     	lda	$72e5                   ; 0x72e5 <_ZN12_GLOBAL__N_111initializedE>
    648a: 29 01        	and	#$1
    648c: d0 3f        	bne	$64cd <malloc+0x9d>
    648e: ad f2 6c     	lda	$6cf2                   ; 0x6cf2 <_ZN12_GLOBAL__N_110heap_limitE>
    6491: ae f3 6c     	ldx	$6cf3                   ; 0x6cf3 <_ZN12_GLOBAL__N_110heap_limitE+0x1>
    6494: a0 f6        	ldy	#$f6
    6496: 84 12        	sty	$12                     ; 0x2012 <dispatchAction+0x3b6>
    6498: a0 72        	ldy	#$72
    649a: 84 13        	sty	$13                     ; 0x2013 <dispatchAction+0x3b7>
    649c: a4 16        	ldy	$16                     ; 0x2016 <dispatchAction+0x3ba>
    649e: 84 e3        	sty	$e3                     ; 0x20e3 <dispatchAction+0x487>
    64a0: a4 17        	ldy	$17                     ; 0x2017 <dispatchAction+0x3bb>
    64a2: 84 e4        	sty	$e4                     ; 0x20e4 <dispatchAction+0x488>
    64a4: 20 74 03     	jsr	$374 <_ZN12_GLOBAL__N_19FreeChunk6insertEPvj>
    64a7: a6 e4        	ldx	$e4                     ; 0x20e4 <dispatchAction+0x488>
    64a9: 86 17        	stx	$17                     ; 0x2017 <dispatchAction+0x3bb>
    64ab: a6 e3        	ldx	$e3                     ; 0x20e3 <dispatchAction+0x487>
    64ad: 86 16        	stx	$16                     ; 0x2016 <dispatchAction+0x3ba>
    64af: a2 00        	ldx	#$0
    64b1: 86 12        	stx	$12                     ; 0x2012 <dispatchAction+0x3b6>
    64b3: a2 00        	ldx	#$0
    64b5: 86 13        	stx	$13                     ; 0x2013 <dispatchAction+0x3b7>
    64b7: ae f7 72     	ldx	$72f7                   ; 0x72f7 <end_block9+0x1>
    64ba: a9 fe        	lda	#$fe
    64bc: 2d f6 72     	and	$72f6                   ; 0x72f6 <end_block9>
    64bf: 8d f6 72     	sta	$72f6                   ; 0x72f6 <end_block9>
    64c2: 8e f7 72     	stx	$72f7                   ; 0x72f7 <end_block9+0x1>
    64c5: a2 01        	ldx	#$1
    64c7: 8e e6 72     	stx	$72e6                   ; 0x72e6 <_ZN12_GLOBAL__N_19last_freeE>
    64ca: 8e e5 72     	stx	$72e5                   ; 0x72e5 <_ZN12_GLOBAL__N_111initializedE>
    64cd: ae e9 72     	ldx	$72e9                   ; 0x72e9 <_ZN12_GLOBAL__N_19free_listE>
    64d0: 86 18        	stx	$18                     ; 0x2018 <dispatchAction+0x3bc>
    64d2: ac ea 72     	ldy	$72ea                   ; 0x72ea <_ZN12_GLOBAL__N_19free_listE+0x1>
    64d5: 84 19        	sty	$19                     ; 0x2019 <dispatchAction+0x3bd>
    64d7: a9 00        	lda	#$0
    64d9: 85 14        	sta	$14                     ; 0x2014 <dispatchAction+0x3b8>
    64db: a9 00        	lda	#$0
    64dd: 85 15        	sta	$15                     ; 0x2015 <dispatchAction+0x3b9>
    64df: c4 15        	cpy	$15                     ; 0x2015 <dispatchAction+0x3b9>
    64e1: d0 04        	bne	$64e7 <malloc+0xb7>
    64e3: e4 14        	cpx	$14                     ; 0x2014 <dispatchAction+0x3b8>
    64e5: f0 40        	beq	$6527 <malloc+0xf7>
    64e7: a0 01        	ldy	#$1
    64e9: a6 18        	ldx	$18                     ; 0x2018 <dispatchAction+0x3bc>
    64eb: 86 14        	stx	$14                     ; 0x2014 <dispatchAction+0x3b8>
    64ed: a6 19        	ldx	$19                     ; 0x2019 <dispatchAction+0x3bd>
    64ef: 86 15        	stx	$15                     ; 0x2015 <dispatchAction+0x3b9>
    64f1: b1 14        	lda	($14),y                 ; 0x2014 <dispatchAction+0x3b8>
    64f3: c5 17        	cmp	$17                     ; 0x2017 <dispatchAction+0x3bb>
    64f5: d0 0a        	bne	$6501 <malloc+0xd1>
    64f7: b2 14        	lda	($14)                   ; 0x2014 <dispatchAction+0x3b8>
    64f9: 29 fe        	and	#$fe
    64fb: c5 16        	cmp	$16                     ; 0x2016 <dispatchAction+0x3ba>
    64fd: b0 29        	bcs	$6528 <malloc+0xf8>
    64ff: 80 04        	bra	$6505 <malloc+0xd5>
    6501: c5 17        	cmp	$17                     ; 0x2017 <dispatchAction+0x3bb>
    6503: b0 23        	bcs	$6528 <malloc+0xf8>
    6505: a5 14        	lda	$14                     ; 0x2014 <dispatchAction+0x3b8>
    6507: 18           	clc
    6508: 69 02        	adc	#$2
    650a: 85 1a        	sta	$1a                     ; 0x201a <dispatchAction+0x3be>
    650c: a5 15        	lda	$15                     ; 0x2015 <dispatchAction+0x3b9>
    650e: 69 00        	adc	#$0
    6510: 85 1b        	sta	$1b                     ; 0x201b <dispatchAction+0x3bf>
    6512: a0 02        	ldy	#$2
    6514: b1 14        	lda	($14),y                 ; 0x2014 <dispatchAction+0x3b8>
    6516: 85 14        	sta	$14                     ; 0x2014 <dispatchAction+0x3b8>
    6518: 88           	dey
    6519: b1 1a        	lda	($1a),y                 ; 0x201a <dispatchAction+0x3be>
    651b: 85 15        	sta	$15                     ; 0x2015 <dispatchAction+0x3b9>
    651d: c5 19        	cmp	$19                     ; 0x2019 <dispatchAction+0x3bd>
    651f: d0 d0        	bne	$64f1 <malloc+0xc1>
    6521: a5 14        	lda	$14                     ; 0x2014 <dispatchAction+0x3b8>
    6523: c5 18        	cmp	$18                     ; 0x2018 <dispatchAction+0x3bc>
    6525: d0 ca        	bne	$64f1 <malloc+0xc1>
    6527: 60           	rts
    6528: a6 14        	ldx	$14                     ; 0x2014 <dispatchAction+0x3b8>
    652a: 86 12        	stx	$12                     ; 0x2012 <dispatchAction+0x3b6>
    652c: a6 15        	ldx	$15                     ; 0x2015 <dispatchAction+0x3b9>
    652e: 86 13        	stx	$13                     ; 0x2013 <dispatchAction+0x3b7>
    6530: a6 17        	ldx	$17                     ; 0x2017 <dispatchAction+0x3bb>
    6532: a5 16        	lda	$16                     ; 0x2016 <dispatchAction+0x3ba>
    6534: 4c 37 65     	jmp	$6537 <_ZN12_GLOBAL__N_119allocate_free_chunkEPNS_9FreeChunkEj>

00006537 <_ZN12_GLOBAL__N_119allocate_free_chunkEPNS_9FreeChunkEj>:
    6537: 85 e5        	sta	$e5                     ; 0x20e5 <dispatchAction+0x489>
    6539: 86 e8        	stx	$e8                     ; 0x20e8 <dispatchAction+0x48c>
    653b: a6 12        	ldx	$12                     ; 0x2012 <dispatchAction+0x3b6>
    653d: 86 e6        	stx	$e6                     ; 0x20e6 <dispatchAction+0x48a>
    653f: a6 13        	ldx	$13                     ; 0x2013 <dispatchAction+0x3b7>
    6541: 86 e7        	stx	$e7                     ; 0x20e7 <dispatchAction+0x48b>
    6543: 20 b2 04     	jsr	$4b2 <_ZN12_GLOBAL__N_19FreeChunk6removeEv>
    6546: a0 01        	ldy	#$1
    6548: b1 e6        	lda	($e6),y                 ; 0x20e6 <dispatchAction+0x48a>
    654a: 85 14        	sta	$14                     ; 0x2014 <dispatchAction+0x3b8>
    654c: a9 fe        	lda	#$fe
    654e: 32 e6        	and	($e6)                   ; 0x20e6 <dispatchAction+0x48a>
    6550: 38           	sec
    6551: a6 e5        	ldx	$e5                     ; 0x20e5 <dispatchAction+0x489>
    6553: a8           	tay
    6554: e5 e5        	sbc	$e5                     ; 0x20e5 <dispatchAction+0x489>
    6556: 85 16        	sta	$16                     ; 0x2016 <dispatchAction+0x3ba>
    6558: a5 e8        	lda	$e8                     ; 0x20e8 <dispatchAction+0x48c>
    655a: 85 13        	sta	$13                     ; 0x2013 <dispatchAction+0x3b7>
    655c: 85 12        	sta	$12                     ; 0x2012 <dispatchAction+0x3b6>
    655e: a5 14        	lda	$14                     ; 0x2014 <dispatchAction+0x3b8>
    6560: e5 12        	sbc	$12                     ; 0x2012 <dispatchAction+0x3b6>
    6562: f0 03        	beq	$6567 <_ZN12_GLOBAL__N_119allocate_free_chunkEPNS_9FreeChunkEj+0x30>
    6564: 4c e5 65     	jmp	$65e5 <_ZN12_GLOBAL__N_119allocate_free_chunkEPNS_9FreeChunkEj+0xae>
    6567: 85 15        	sta	$15                     ; 0x2015 <dispatchAction+0x3b9>
    6569: a5 16        	lda	$16                     ; 0x2016 <dispatchAction+0x3ba>
    656b: c9 08        	cmp	#$8
    656d: 90 2e        	bcc	$659d <_ZN12_GLOBAL__N_119allocate_free_chunkEPNS_9FreeChunkEj+0x66>
    656f: a8           	tay
    6570: 18           	clc
    6571: 8a           	txa
    6572: 65 e6        	adc	$e6                     ; 0x20e6 <dispatchAction+0x48a>
    6574: 85 12        	sta	$12                     ; 0x2012 <dispatchAction+0x3b6>
    6576: a5 13        	lda	$13                     ; 0x2013 <dispatchAction+0x3b7>
    6578: a6 13        	ldx	$13                     ; 0x2013 <dispatchAction+0x3b7>
    657a: 86 e8        	stx	$e8                     ; 0x20e8 <dispatchAction+0x48c>
    657c: 65 e7        	adc	$e7                     ; 0x20e7 <dispatchAction+0x48b>
    657e: 85 13        	sta	$13                     ; 0x2013 <dispatchAction+0x3b7>
    6580: a6 15        	ldx	$15                     ; 0x2015 <dispatchAction+0x3b9>
    6582: 98           	tya
    6583: 20 74 03     	jsr	$374 <_ZN12_GLOBAL__N_19FreeChunk6insertEPvj>
    6586: a5 e5        	lda	$e5                     ; 0x20e5 <dispatchAction+0x489>
    6588: 29 fe        	and	#$fe
    658a: 85 12        	sta	$12                     ; 0x2012 <dispatchAction+0x3b6>
    658c: a0 01        	ldy	#$1
    658e: 98           	tya
    658f: 32 e6        	and	($e6)                   ; 0x20e6 <dispatchAction+0x48a>
    6591: 05 12        	ora	$12                     ; 0x2012 <dispatchAction+0x3b6>
    6593: 92 e6        	sta	($e6)                   ; 0x20e6 <dispatchAction+0x48a>
    6595: a5 e8        	lda	$e8                     ; 0x20e8 <dispatchAction+0x48c>
    6597: 91 e6        	sta	($e6),y                 ; 0x20e6 <dispatchAction+0x48a>
    6599: a4 12        	ldy	$12                     ; 0x2012 <dispatchAction+0x3b6>
    659b: 85 14        	sta	$14                     ; 0x2014 <dispatchAction+0x3b8>
    659d: 18           	clc
    659e: 98           	tya
    659f: 65 e6        	adc	$e6                     ; 0x20e6 <dispatchAction+0x48a>
    65a1: a8           	tay
    65a2: a5 14        	lda	$14                     ; 0x2014 <dispatchAction+0x3b8>
    65a4: 65 e7        	adc	$e7                     ; 0x20e7 <dispatchAction+0x48b>
    65a6: aa           	tax
    65a7: 18           	clc
    65a8: a9 f6        	lda	#$f6
    65aa: 6d f2 6c     	adc	$6cf2                   ; 0x6cf2 <_ZN12_GLOBAL__N_110heap_limitE>
    65ad: 85 13        	sta	$13                     ; 0x2013 <dispatchAction+0x3b7>
    65af: a9 72        	lda	#$72
    65b1: 6d f3 6c     	adc	$6cf3                   ; 0x6cf3 <_ZN12_GLOBAL__N_110heap_limitE+0x1>
    65b4: 85 12        	sta	$12                     ; 0x2012 <dispatchAction+0x3b6>
    65b6: e4 12        	cpx	$12                     ; 0x2012 <dispatchAction+0x3b6>
    65b8: d0 09        	bne	$65c3 <_ZN12_GLOBAL__N_119allocate_free_chunkEPNS_9FreeChunkEj+0x8c>
    65ba: c4 13        	cpy	$13                     ; 0x2013 <dispatchAction+0x3b7>
    65bc: d0 05        	bne	$65c3 <_ZN12_GLOBAL__N_119allocate_free_chunkEPNS_9FreeChunkEj+0x8c>
    65be: 9c e6 72     	stz	$72e6                   ; 0x72e6 <_ZN12_GLOBAL__N_19last_freeE>
    65c1: 80 14        	bra	$65d7 <_ZN12_GLOBAL__N_119allocate_free_chunkEPNS_9FreeChunkEj+0xa0>
    65c3: 84 12        	sty	$12                     ; 0x2012 <dispatchAction+0x3b6>
    65c5: 86 13        	stx	$13                     ; 0x2013 <dispatchAction+0x3b7>
    65c7: a0 01        	ldy	#$1
    65c9: b1 12        	lda	($12),y                 ; 0x2012 <dispatchAction+0x3b6>
    65cb: 85 14        	sta	$14                     ; 0x2014 <dispatchAction+0x3b8>
    65cd: a9 fe        	lda	#$fe
    65cf: 32 12        	and	($12)                   ; 0x2012 <dispatchAction+0x3b6>
    65d1: 92 12        	sta	($12)                   ; 0x2012 <dispatchAction+0x3b6>
    65d3: a5 14        	lda	$14                     ; 0x2014 <dispatchAction+0x3b8>
    65d5: 91 12        	sta	($12),y                 ; 0x2012 <dispatchAction+0x3b6>
    65d7: a5 e6        	lda	$e6                     ; 0x20e6 <dispatchAction+0x48a>
    65d9: 18           	clc
    65da: 69 02        	adc	#$2
    65dc: 85 12        	sta	$12                     ; 0x2012 <dispatchAction+0x3b6>
    65de: a5 e7        	lda	$e7                     ; 0x20e7 <dispatchAction+0x48b>
    65e0: 69 00        	adc	#$0
    65e2: 85 13        	sta	$13                     ; 0x2013 <dispatchAction+0x3b7>
    65e4: 60           	rts
    65e5: 85 15        	sta	$15                     ; 0x2015 <dispatchAction+0x3b9>
    65e7: c9 00        	cmp	#$0
    65e9: a5 16        	lda	$16                     ; 0x2016 <dispatchAction+0x3ba>
    65eb: 90 b0        	bcc	$659d <_ZN12_GLOBAL__N_119allocate_free_chunkEPNS_9FreeChunkEj+0x66>
    65ed: 4c 6f 65     	jmp	$656f <_ZN12_GLOBAL__N_119allocate_free_chunkEPNS_9FreeChunkEj+0x38>

000065f0 <memcpy>:
    65f0: a8           	tay
    65f1: 8a           	txa
    65f2: d0 03        	bne	$65f7 <memcpy+0x7>
    65f4: 98           	tya
    65f5: f0 24        	beq	$661b <memcpy+0x2b>
    65f7: a5 12        	lda	$12                     ; 0x2012 <dispatchAction+0x3b6>
    65f9: 85 16        	sta	$16                     ; 0x2016 <dispatchAction+0x3ba>
    65fb: a5 13        	lda	$13                     ; 0x2013 <dispatchAction+0x3b7>
    65fd: 85 17        	sta	$17                     ; 0x2017 <dispatchAction+0x3bb>
    65ff: b2 14        	lda	($14)                   ; 0x2014 <dispatchAction+0x3b8>
    6601: 92 16        	sta	($16)                   ; 0x2016 <dispatchAction+0x3ba>
    6603: e6 16        	inc	$16                     ; 0x2016 <dispatchAction+0x3ba>
    6605: d0 02        	bne	$6609 <memcpy+0x19>
    6607: e6 17        	inc	$17                     ; 0x2017 <dispatchAction+0x3bb>
    6609: e6 14        	inc	$14                     ; 0x2014 <dispatchAction+0x3b8>
    660b: d0 02        	bne	$660f <memcpy+0x1f>
    660d: e6 15        	inc	$15                     ; 0x2015 <dispatchAction+0x3b9>
    660f: 88           	dey
    6610: c0 ff        	cpy	#$ff
    6612: d0 01        	bne	$6615 <memcpy+0x25>
    6614: ca           	dex
    6615: 8a           	txa
    6616: d0 e7        	bne	$65ff <memcpy+0xf>
    6618: 98           	tya
    6619: d0 e4        	bne	$65ff <memcpy+0xf>
    661b: 60           	rts

0000661c <__memset>:
    661c: a4 14        	ldy	$14                     ; 0x2014 <dispatchAction+0x3b8>
    661e: d0 04        	bne	$6624 <__memset+0x8>
    6620: e0 00        	cpx	#$0
    6622: f0 17        	beq	$663b <__memset+0x1f>
    6624: 92 12        	sta	($12)                   ; 0x2012 <dispatchAction+0x3b6>
    6626: e6 12        	inc	$12                     ; 0x2012 <dispatchAction+0x3b6>
    6628: d0 02        	bne	$662c <__memset+0x10>
    662a: e6 13        	inc	$13                     ; 0x2013 <dispatchAction+0x3b7>
    662c: ca           	dex
    662d: e0 ff        	cpx	#$ff
    662f: d0 02        	bne	$6633 <__memset+0x17>
    6631: c6 14        	dec	$14                     ; 0x2014 <dispatchAction+0x3b8>
    6633: a4 14        	ldy	$14                     ; 0x2014 <dispatchAction+0x3b8>
    6635: d0 ed        	bne	$6624 <__memset+0x8>
    6637: e0 00        	cpx	#$0
    6639: d0 e9        	bne	$6624 <__memset+0x8>
    663b: 60           	rts

0000663c <__simple_strtoui>:
    663c: a9 d0        	lda	#$d0
    663e: 18           	clc
    663f: 72 12        	adc	($12)                   ; 0x2012 <dispatchAction+0x3b6>
    6641: c9 0a        	cmp	#$a
    6643: 90 03        	bcc	$6648 <__simple_strtoui+0xc>
    6645: 4c 99 66     	jmp	$6699 <__simple_strtoui+0x5d>
    6648: b2 12        	lda	($12)                   ; 0x2012 <dispatchAction+0x3b6>
    664a: 64 16        	stz	$16                     ; 0x2016 <dispatchAction+0x3ba>
    664c: a0 01        	ldy	#$1
    664e: 85 17        	sta	$17                     ; 0x2017 <dispatchAction+0x3bb>
    6650: 64 18        	stz	$18                     ; 0x2018 <dispatchAction+0x3bc>
    6652: a2 00        	ldx	#$0
    6654: 06 18        	asl	$18                     ; 0x2018 <dispatchAction+0x3bc>
    6656: 8a           	txa
    6657: 2a           	rol
    6658: 85 19        	sta	$19                     ; 0x2019 <dispatchAction+0x3bd>
    665a: a5 18        	lda	$18                     ; 0x2018 <dispatchAction+0x3bc>
    665c: 0a           	asl
    665d: a6 19        	ldx	$19                     ; 0x2019 <dispatchAction+0x3bd>
    665f: 86 1a        	stx	$1a                     ; 0x201a <dispatchAction+0x3be>
    6661: 26 1a        	rol	$1a                     ; 0x201a <dispatchAction+0x3be>
    6663: 0a           	asl
    6664: 26 1a        	rol	$1a                     ; 0x201a <dispatchAction+0x3be>
    6666: 18           	clc
    6667: 65 18        	adc	$18                     ; 0x2018 <dispatchAction+0x3bc>
    6669: aa           	tax
    666a: a5 1a        	lda	$1a                     ; 0x201a <dispatchAction+0x3be>
    666c: 65 19        	adc	$19                     ; 0x2019 <dispatchAction+0x3bd>
    666e: 85 18        	sta	$18                     ; 0x2018 <dispatchAction+0x3bc>
    6670: 8a           	txa
    6671: 18           	clc
    6672: 65 17        	adc	$17                     ; 0x2017 <dispatchAction+0x3bb>
    6674: 85 17        	sta	$17                     ; 0x2017 <dispatchAction+0x3bb>
    6676: a5 18        	lda	$18                     ; 0x2018 <dispatchAction+0x3bc>
    6678: 65 16        	adc	$16                     ; 0x2016 <dispatchAction+0x3ba>
    667a: aa           	tax
    667b: 18           	clc
    667c: a5 17        	lda	$17                     ; 0x2017 <dispatchAction+0x3bb>
    667e: 69 d0        	adc	#$d0
    6680: 85 18        	sta	$18                     ; 0x2018 <dispatchAction+0x3bc>
    6682: 8a           	txa
    6683: 69 ff        	adc	#$ff
    6685: aa           	tax
    6686: b1 12        	lda	($12),y                 ; 0x2012 <dispatchAction+0x3b6>
    6688: 85 17        	sta	$17                     ; 0x2017 <dispatchAction+0x3bb>
    668a: 18           	clc
    668b: 69 d0        	adc	#$d0
    668d: e6 12        	inc	$12                     ; 0x2012 <dispatchAction+0x3b6>
    668f: d0 02        	bne	$6693 <__simple_strtoui+0x57>
    6691: e6 13        	inc	$13                     ; 0x2013 <dispatchAction+0x3b7>
    6693: c9 0a        	cmp	#$a
    6695: 90 bd        	bcc	$6654 <__simple_strtoui+0x18>
    6697: 80 04        	bra	$669d <__simple_strtoui+0x61>
    6699: 64 18        	stz	$18                     ; 0x2018 <dispatchAction+0x3bc>
    669b: a2 00        	ldx	#$0
    669d: a5 12        	lda	$12                     ; 0x2012 <dispatchAction+0x3b6>
    669f: 92 14        	sta	($14)                   ; 0x2014 <dispatchAction+0x3b8>
    66a1: a0 01        	ldy	#$1
    66a3: a5 13        	lda	$13                     ; 0x2013 <dispatchAction+0x3b7>
    66a5: 91 14        	sta	($14),y                 ; 0x2014 <dispatchAction+0x3b8>
    66a7: a5 18        	lda	$18                     ; 0x2018 <dispatchAction+0x3bc>
    66a9: 60           	rts

000066aa <__ashlhi3>:
    66aa: 86 13        	stx	$13                     ; 0x2013 <dispatchAction+0x3b7>
    66ac: a6 12        	ldx	$12                     ; 0x2012 <dispatchAction+0x3b6>
    66ae: f0 0a        	beq	$66ba <__ashlhi3+0x10>
    66b0: a6 12        	ldx	$12                     ; 0x2012 <dispatchAction+0x3b6>
    66b2: ca           	dex
    66b3: 0a           	asl
    66b4: 26 13        	rol	$13                     ; 0x2013 <dispatchAction+0x3b7>
    66b6: e0 00        	cpx	#$0
    66b8: d0 f8        	bne	$66b2 <__ashlhi3+0x8>
    66ba: a6 13        	ldx	$13                     ; 0x2013 <dispatchAction+0x3b7>
    66bc: 60           	rts

000066bd <__lshrhi3>:
    66bd: 86 13        	stx	$13                     ; 0x2013 <dispatchAction+0x3b7>
    66bf: a6 12        	ldx	$12                     ; 0x2012 <dispatchAction+0x3b6>
    66c1: f0 0a        	beq	$66cd <__lshrhi3+0x10>
    66c3: a6 12        	ldx	$12                     ; 0x2012 <dispatchAction+0x3b6>
    66c5: ca           	dex
    66c6: 46 13        	lsr	$13                     ; 0x2013 <dispatchAction+0x3b7>
    66c8: 6a           	ror
    66c9: e0 00        	cpx	#$0
    66cb: d0 f8        	bne	$66c5 <__lshrhi3+0x8>
    66cd: a6 13        	ldx	$13                     ; 0x2013 <dispatchAction+0x3b7>
    66cf: 60           	rts

000066d0 <__mulhi3>:
    66d0: a4 13        	ldy	$13                     ; 0x2013 <dispatchAction+0x3b7>
    66d2: d0 04        	bne	$66d8 <__mulhi3+0x8>
    66d4: a4 12        	ldy	$12                     ; 0x2012 <dispatchAction+0x3b6>
    66d6: f0 25        	beq	$66fd <__mulhi3+0x2d>
    66d8: 85 14        	sta	$14                     ; 0x2014 <dispatchAction+0x3b8>
    66da: 86 15        	stx	$15                     ; 0x2015 <dispatchAction+0x3b9>
    66dc: a0 00        	ldy	#$0
    66de: 98           	tya
    66df: 46 13        	lsr	$13                     ; 0x2013 <dispatchAction+0x3b7>
    66e1: 66 12        	ror	$12                     ; 0x2012 <dispatchAction+0x3b6>
    66e3: 90 09        	bcc	$66ee <__mulhi3+0x1e>
    66e5: aa           	tax
    66e6: 98           	tya
    66e7: 18           	clc
    66e8: 65 14        	adc	$14                     ; 0x2014 <dispatchAction+0x3b8>
    66ea: a8           	tay
    66eb: 8a           	txa
    66ec: 65 15        	adc	$15                     ; 0x2015 <dispatchAction+0x3b9>
    66ee: 06 14        	asl	$14                     ; 0x2014 <dispatchAction+0x3b8>
    66f0: 26 15        	rol	$15                     ; 0x2015 <dispatchAction+0x3b9>
    66f2: a6 13        	ldx	$13                     ; 0x2013 <dispatchAction+0x3b7>
    66f4: d0 e9        	bne	$66df <__mulhi3+0xf>
    66f6: a6 12        	ldx	$12                     ; 0x2012 <dispatchAction+0x3b6>
    66f8: d0 e5        	bne	$66df <__mulhi3+0xf>
    66fa: aa           	tax
    66fb: 98           	tya
    66fc: 60           	rts
    66fd: a0 00        	ldy	#$0
    66ff: 98           	tya
    6700: 80 f8        	bra	$66fa <__mulhi3+0x2a>

00006702 <__mulsi3>:
    6702: a4 17        	ldy	$17                     ; 0x2017 <dispatchAction+0x3bb>
    6704: d0 0f        	bne	$6715 <__mulsi3+0x13>
    6706: a4 16        	ldy	$16                     ; 0x2016 <dispatchAction+0x3ba>
    6708: d0 0b        	bne	$6715 <__mulsi3+0x13>
    670a: a4 15        	ldy	$15                     ; 0x2015 <dispatchAction+0x3b9>
    670c: d0 07        	bne	$6715 <__mulsi3+0x13>
    670e: a4 14        	ldy	$14                     ; 0x2014 <dispatchAction+0x3b8>
    6710: d0 03        	bne	$6715 <__mulsi3+0x13>
    6712: 4c 69 67     	jmp	$6769 <__mulsi3+0x67>
    6715: 85 18        	sta	$18                     ; 0x2018 <dispatchAction+0x3bc>
    6717: 86 19        	stx	$19                     ; 0x2019 <dispatchAction+0x3bd>
    6719: a0 00        	ldy	#$0
    671b: a2 00        	ldx	#$0
    671d: 64 1a        	stz	$1a                     ; 0x201a <dispatchAction+0x3be>
    671f: 98           	tya
    6720: 46 17        	lsr	$17                     ; 0x2017 <dispatchAction+0x3bb>
    6722: 66 16        	ror	$16                     ; 0x2016 <dispatchAction+0x3ba>
    6724: 66 15        	ror	$15                     ; 0x2015 <dispatchAction+0x3b9>
    6726: 66 14        	ror	$14                     ; 0x2014 <dispatchAction+0x3b8>
    6728: 90 15        	bcc	$673f <__mulsi3+0x3d>
    672a: 85 1b        	sta	$1b                     ; 0x201b <dispatchAction+0x3bf>
    672c: 98           	tya
    672d: 18           	clc
    672e: 65 18        	adc	$18                     ; 0x2018 <dispatchAction+0x3bc>
    6730: a8           	tay
    6731: 8a           	txa
    6732: 65 19        	adc	$19                     ; 0x2019 <dispatchAction+0x3bd>
    6734: aa           	tax
    6735: a5 1a        	lda	$1a                     ; 0x201a <dispatchAction+0x3be>
    6737: 65 12        	adc	$12                     ; 0x2012 <dispatchAction+0x3b6>
    6739: 85 1a        	sta	$1a                     ; 0x201a <dispatchAction+0x3be>
    673b: a5 1b        	lda	$1b                     ; 0x201b <dispatchAction+0x3bf>
    673d: 65 13        	adc	$13                     ; 0x2013 <dispatchAction+0x3b7>
    673f: 06 18        	asl	$18                     ; 0x2018 <dispatchAction+0x3bc>
    6741: 26 19        	rol	$19                     ; 0x2019 <dispatchAction+0x3bd>
    6743: 26 12        	rol	$12                     ; 0x2012 <dispatchAction+0x3b6>
    6745: 26 13        	rol	$13                     ; 0x2013 <dispatchAction+0x3b7>
    6747: e6 17        	inc	$17                     ; 0x2017 <dispatchAction+0x3bb>
    6749: c6 17        	dec	$17                     ; 0x2017 <dispatchAction+0x3bb>
    674b: d0 d3        	bne	$6720 <__mulsi3+0x1e>
    674d: e6 16        	inc	$16                     ; 0x2016 <dispatchAction+0x3ba>
    674f: c6 16        	dec	$16                     ; 0x2016 <dispatchAction+0x3ba>
    6751: d0 cd        	bne	$6720 <__mulsi3+0x1e>
    6753: e6 15        	inc	$15                     ; 0x2015 <dispatchAction+0x3b9>
    6755: c6 15        	dec	$15                     ; 0x2015 <dispatchAction+0x3b9>
    6757: d0 c7        	bne	$6720 <__mulsi3+0x1e>
    6759: e6 14        	inc	$14                     ; 0x2014 <dispatchAction+0x3b8>
    675b: c6 14        	dec	$14                     ; 0x2014 <dispatchAction+0x3b8>
    675d: d0 c1        	bne	$6720 <__mulsi3+0x1e>
    675f: 5a           	phy
    6760: a4 1a        	ldy	$1a                     ; 0x201a <dispatchAction+0x3be>
    6762: 84 12        	sty	$12                     ; 0x2012 <dispatchAction+0x3b6>
    6764: 7a           	ply
    6765: 85 13        	sta	$13                     ; 0x2013 <dispatchAction+0x3b7>
    6767: 98           	tya
    6768: 60           	rts
    6769: a0 00        	ldy	#$0
    676b: a2 00        	ldx	#$0
    676d: 64 1a        	stz	$1a                     ; 0x201a <dispatchAction+0x3be>
    676f: 98           	tya
    6770: 80 ed        	bra	$675f <__mulsi3+0x5d>

00006772 <__udivhi3>:
    6772: 64 14        	stz	$14                     ; 0x2014 <dispatchAction+0x3b8>
    6774: a4 13        	ldy	$13                     ; 0x2013 <dispatchAction+0x3b7>
    6776: d0 04        	bne	$677c <__udivhi3+0xa>
    6778: a4 12        	ldy	$12                     ; 0x2012 <dispatchAction+0x3b6>
    677a: f0 0e        	beq	$678a <__udivhi3+0x18>
    677c: 85 17        	sta	$17                     ; 0x2017 <dispatchAction+0x3bb>
    677e: 8a           	txa
    677f: e4 13        	cpx	$13                     ; 0x2013 <dispatchAction+0x3b7>
    6781: d0 0e        	bne	$6791 <__udivhi3+0x1f>
    6783: a5 17        	lda	$17                     ; 0x2017 <dispatchAction+0x3bb>
    6785: c5 12        	cmp	$12                     ; 0x2012 <dispatchAction+0x3b6>
    6787: 8a           	txa
    6788: b0 0b        	bcs	$6795 <__udivhi3+0x23>
    678a: a2 00        	ldx	#$0
    678c: 86 e3        	stx	$e3                     ; 0x20e3 <dispatchAction+0x487>
    678e: 4c 2d 68     	jmp	$682d <__udivhi3+0xbb>
    6791: c5 13        	cmp	$13                     ; 0x2013 <dispatchAction+0x3b7>
    6793: 90 f5        	bcc	$678a <__udivhi3+0x18>
    6795: a2 01        	ldx	#$1
    6797: 86 e3        	stx	$e3                     ; 0x20e3 <dispatchAction+0x487>
    6799: a6 13        	ldx	$13                     ; 0x2013 <dispatchAction+0x3b7>
    679b: 10 03        	bpl	$67a0 <__udivhi3+0x2e>
    679d: 4c 2d 68     	jmp	$682d <__udivhi3+0xbb>
    67a0: a2 00        	ldx	#$0
    67a2: a4 12        	ldy	$12                     ; 0x2012 <dispatchAction+0x3b6>
    67a4: 84 15        	sty	$15                     ; 0x2015 <dispatchAction+0x3b9>
    67a6: a4 13        	ldy	$13                     ; 0x2013 <dispatchAction+0x3b7>
    67a8: 84 16        	sty	$16                     ; 0x2016 <dispatchAction+0x3ba>
    67aa: 06 15        	asl	$15                     ; 0x2015 <dispatchAction+0x3b9>
    67ac: 26 16        	rol	$16                     ; 0x2016 <dispatchAction+0x3ba>
    67ae: c5 16        	cmp	$16                     ; 0x2016 <dispatchAction+0x3ba>
    67b0: d0 08        	bne	$67ba <__udivhi3+0x48>
    67b2: a4 17        	ldy	$17                     ; 0x2017 <dispatchAction+0x3bb>
    67b4: c4 15        	cpy	$15                     ; 0x2015 <dispatchAction+0x3b9>
    67b6: 90 13        	bcc	$67cb <__udivhi3+0x59>
    67b8: 80 04        	bra	$67be <__udivhi3+0x4c>
    67ba: c5 16        	cmp	$16                     ; 0x2016 <dispatchAction+0x3ba>
    67bc: 90 0d        	bcc	$67cb <__udivhi3+0x59>
    67be: e8           	inx
    67bf: a4 15        	ldy	$15                     ; 0x2015 <dispatchAction+0x3b9>
    67c1: 84 12        	sty	$12                     ; 0x2012 <dispatchAction+0x3b6>
    67c3: a4 16        	ldy	$16                     ; 0x2016 <dispatchAction+0x3ba>
    67c5: 84 13        	sty	$13                     ; 0x2013 <dispatchAction+0x3b7>
    67c7: 10 e1        	bpl	$67aa <__udivhi3+0x38>
    67c9: 80 08        	bra	$67d3 <__udivhi3+0x61>
    67cb: a4 12        	ldy	$12                     ; 0x2012 <dispatchAction+0x3b6>
    67cd: 84 15        	sty	$15                     ; 0x2015 <dispatchAction+0x3b9>
    67cf: a4 13        	ldy	$13                     ; 0x2013 <dispatchAction+0x3b7>
    67d1: 84 16        	sty	$16                     ; 0x2016 <dispatchAction+0x3ba>
    67d3: e0 00        	cpx	#$0
    67d5: d0 03        	bne	$67da <__udivhi3+0x68>
    67d7: 4c 2d 68     	jmp	$682d <__udivhi3+0xbb>
    67da: 38           	sec
    67db: a8           	tay
    67dc: a5 17        	lda	$17                     ; 0x2017 <dispatchAction+0x3bb>
    67de: e5 15        	sbc	$15                     ; 0x2015 <dispatchAction+0x3b9>
    67e0: 85 12        	sta	$12                     ; 0x2012 <dispatchAction+0x3b6>
    67e2: 98           	tya
    67e3: e5 16        	sbc	$16                     ; 0x2016 <dispatchAction+0x3ba>
    67e5: a0 01        	ldy	#$1
    67e7: 84 e3        	sty	$e3                     ; 0x20e3 <dispatchAction+0x487>
    67e9: 64 14        	stz	$14                     ; 0x2014 <dispatchAction+0x3b8>
    67eb: 46 16        	lsr	$16                     ; 0x2016 <dispatchAction+0x3ba>
    67ed: 66 15        	ror	$15                     ; 0x2015 <dispatchAction+0x3b9>
    67ef: a4 e3        	ldy	$e3                     ; 0x20e3 <dispatchAction+0x487>
    67f1: 84 13        	sty	$13                     ; 0x2013 <dispatchAction+0x3b7>
    67f3: 06 13        	asl	$13                     ; 0x2013 <dispatchAction+0x3b7>
    67f5: a0 01        	ldy	#$1
    67f7: b0 02        	bcs	$67fb <__udivhi3+0x89>
    67f9: a0 00        	ldy	#$0
    67fb: 84 17        	sty	$17                     ; 0x2017 <dispatchAction+0x3bb>
    67fd: a4 13        	ldy	$13                     ; 0x2013 <dispatchAction+0x3b7>
    67ff: 84 e3        	sty	$e3                     ; 0x20e3 <dispatchAction+0x487>
    6801: c5 16        	cmp	$16                     ; 0x2016 <dispatchAction+0x3ba>
    6803: d0 22        	bne	$6827 <__udivhi3+0xb5>
    6805: a4 12        	ldy	$12                     ; 0x2012 <dispatchAction+0x3b6>
    6807: c4 15        	cpy	$15                     ; 0x2015 <dispatchAction+0x3b9>
    6809: 90 11        	bcc	$681c <__udivhi3+0xaa>
    680b: a8           	tay
    680c: a5 e3        	lda	$e3                     ; 0x20e3 <dispatchAction+0x487>
    680e: 09 01        	ora	#$1
    6810: 85 e3        	sta	$e3                     ; 0x20e3 <dispatchAction+0x487>
    6812: 38           	sec
    6813: a5 12        	lda	$12                     ; 0x2012 <dispatchAction+0x3b6>
    6815: e5 15        	sbc	$15                     ; 0x2015 <dispatchAction+0x3b9>
    6817: 85 12        	sta	$12                     ; 0x2012 <dispatchAction+0x3b6>
    6819: 98           	tya
    681a: e5 16        	sbc	$16                     ; 0x2016 <dispatchAction+0x3ba>
    681c: a4 17        	ldy	$17                     ; 0x2017 <dispatchAction+0x3bb>
    681e: c0 01        	cpy	#$1
    6820: 26 14        	rol	$14                     ; 0x2014 <dispatchAction+0x3b8>
    6822: ca           	dex
    6823: d0 c6        	bne	$67eb <__udivhi3+0x79>
    6825: 80 06        	bra	$682d <__udivhi3+0xbb>
    6827: c5 16        	cmp	$16                     ; 0x2016 <dispatchAction+0x3ba>
    6829: b0 e0        	bcs	$680b <__udivhi3+0x99>
    682b: 80 ef        	bra	$681c <__udivhi3+0xaa>
    682d: a6 14        	ldx	$14                     ; 0x2014 <dispatchAction+0x3b8>
    682f: a5 e3        	lda	$e3                     ; 0x20e3 <dispatchAction+0x487>
    6831: 60           	rts

00006832 <__udivmodhi4>:
    6832: 86 1a        	stx	$1a                     ; 0x201a <dispatchAction+0x3be>
    6834: 64 16        	stz	$16                     ; 0x2016 <dispatchAction+0x3ba>
    6836: a4 13        	ldy	$13                     ; 0x2013 <dispatchAction+0x3b7>
    6838: d0 04        	bne	$683e <__udivmodhi4+0xc>
    683a: a4 12        	ldy	$12                     ; 0x2012 <dispatchAction+0x3b6>
    683c: f0 08        	beq	$6846 <__udivmodhi4+0x14>
    683e: e4 13        	cpx	$13                     ; 0x2013 <dispatchAction+0x3b7>
    6840: d0 0d        	bne	$684f <__udivmodhi4+0x1d>
    6842: c5 12        	cmp	$12                     ; 0x2012 <dispatchAction+0x3b6>
    6844: b0 0d        	bcs	$6853 <__udivmodhi4+0x21>
    6846: a6 1a        	ldx	$1a                     ; 0x201a <dispatchAction+0x3be>
    6848: 86 12        	stx	$12                     ; 0x2012 <dispatchAction+0x3b6>
    684a: a2 00        	ldx	#$0
    684c: 4c f7 68     	jmp	$68f7 <__udivmodhi4+0xc5>
    684f: e4 13        	cpx	$13                     ; 0x2013 <dispatchAction+0x3b7>
    6851: 90 f3        	bcc	$6846 <__udivmodhi4+0x14>
    6853: a6 13        	ldx	$13                     ; 0x2013 <dispatchAction+0x3b7>
    6855: 10 03        	bpl	$685a <__udivmodhi4+0x28>
    6857: 4c ea 68     	jmp	$68ea <__udivmodhi4+0xb8>
    685a: a2 00        	ldx	#$0
    685c: a4 12        	ldy	$12                     ; 0x2012 <dispatchAction+0x3b6>
    685e: 84 17        	sty	$17                     ; 0x2017 <dispatchAction+0x3bb>
    6860: a4 13        	ldy	$13                     ; 0x2013 <dispatchAction+0x3b7>
    6862: 84 18        	sty	$18                     ; 0x2018 <dispatchAction+0x3bc>
    6864: 06 17        	asl	$17                     ; 0x2017 <dispatchAction+0x3bb>
    6866: 26 18        	rol	$18                     ; 0x2018 <dispatchAction+0x3bc>
    6868: a4 1a        	ldy	$1a                     ; 0x201a <dispatchAction+0x3be>
    686a: c4 18        	cpy	$18                     ; 0x2018 <dispatchAction+0x3bc>
    686c: d0 06        	bne	$6874 <__udivmodhi4+0x42>
    686e: c5 17        	cmp	$17                     ; 0x2017 <dispatchAction+0x3bb>
    6870: b0 08        	bcs	$687a <__udivmodhi4+0x48>
    6872: 80 13        	bra	$6887 <__udivmodhi4+0x55>
    6874: a4 1a        	ldy	$1a                     ; 0x201a <dispatchAction+0x3be>
    6876: c4 18        	cpy	$18                     ; 0x2018 <dispatchAction+0x3bc>
    6878: 90 0d        	bcc	$6887 <__udivmodhi4+0x55>
    687a: e8           	inx
    687b: a4 17        	ldy	$17                     ; 0x2017 <dispatchAction+0x3bb>
    687d: 84 12        	sty	$12                     ; 0x2012 <dispatchAction+0x3b6>
    687f: a4 18        	ldy	$18                     ; 0x2018 <dispatchAction+0x3bc>
    6881: 84 13        	sty	$13                     ; 0x2013 <dispatchAction+0x3b7>
    6883: 10 df        	bpl	$6864 <__udivmodhi4+0x32>
    6885: 80 08        	bra	$688f <__udivmodhi4+0x5d>
    6887: a4 12        	ldy	$12                     ; 0x2012 <dispatchAction+0x3b6>
    6889: 84 17        	sty	$17                     ; 0x2017 <dispatchAction+0x3bb>
    688b: a4 13        	ldy	$13                     ; 0x2013 <dispatchAction+0x3b7>
    688d: 84 18        	sty	$18                     ; 0x2018 <dispatchAction+0x3bc>
    688f: 38           	sec
    6890: e5 17        	sbc	$17                     ; 0x2017 <dispatchAction+0x3bb>
    6892: a8           	tay
    6893: a5 1a        	lda	$1a                     ; 0x201a <dispatchAction+0x3be>
    6895: e5 18        	sbc	$18                     ; 0x2018 <dispatchAction+0x3bc>
    6897: 85 12        	sta	$12                     ; 0x2012 <dispatchAction+0x3b6>
    6899: 8a           	txa
    689a: d0 03        	bne	$689f <__udivmodhi4+0x6d>
    689c: 4c 06 69     	jmp	$6906 <__udivmodhi4+0xd4>
    689f: a9 01        	lda	#$1
    68a1: 85 ee        	sta	$ee                     ; 0x20ee <dispatchAction+0x492>
    68a3: 64 16        	stz	$16                     ; 0x2016 <dispatchAction+0x3ba>
    68a5: 98           	tya
    68a6: 46 18        	lsr	$18                     ; 0x2018 <dispatchAction+0x3bc>
    68a8: 66 17        	ror	$17                     ; 0x2017 <dispatchAction+0x3bb>
    68aa: a4 ee        	ldy	$ee                     ; 0x20ee <dispatchAction+0x492>
    68ac: 84 13        	sty	$13                     ; 0x2013 <dispatchAction+0x3b7>
    68ae: 06 13        	asl	$13                     ; 0x2013 <dispatchAction+0x3b7>
    68b0: a0 01        	ldy	#$1
    68b2: b0 02        	bcs	$68b6 <__udivmodhi4+0x84>
    68b4: a0 00        	ldy	#$0
    68b6: 84 19        	sty	$19                     ; 0x2019 <dispatchAction+0x3bd>
    68b8: a4 13        	ldy	$13                     ; 0x2013 <dispatchAction+0x3b7>
    68ba: 84 ee        	sty	$ee                     ; 0x20ee <dispatchAction+0x492>
    68bc: a4 12        	ldy	$12                     ; 0x2012 <dispatchAction+0x3b6>
    68be: c4 18        	cpy	$18                     ; 0x2018 <dispatchAction+0x3bc>
    68c0: d0 22        	bne	$68e4 <__udivmodhi4+0xb2>
    68c2: c5 17        	cmp	$17                     ; 0x2017 <dispatchAction+0x3bb>
    68c4: 90 13        	bcc	$68d9 <__udivmodhi4+0xa7>
    68c6: a8           	tay
    68c7: a5 ee        	lda	$ee                     ; 0x20ee <dispatchAction+0x492>
    68c9: 09 01        	ora	#$1
    68cb: 85 ee        	sta	$ee                     ; 0x20ee <dispatchAction+0x492>
    68cd: 38           	sec
    68ce: 98           	tya
    68cf: e5 17        	sbc	$17                     ; 0x2017 <dispatchAction+0x3bb>
    68d1: a8           	tay
    68d2: a5 12        	lda	$12                     ; 0x2012 <dispatchAction+0x3b6>
    68d4: e5 18        	sbc	$18                     ; 0x2018 <dispatchAction+0x3bc>
    68d6: 85 12        	sta	$12                     ; 0x2012 <dispatchAction+0x3b6>
    68d8: 98           	tya
    68d9: a4 19        	ldy	$19                     ; 0x2019 <dispatchAction+0x3bd>
    68db: c0 01        	cpy	#$1
    68dd: 26 16        	rol	$16                     ; 0x2016 <dispatchAction+0x3ba>
    68df: ca           	dex
    68e0: d0 c4        	bne	$68a6 <__udivmodhi4+0x74>
    68e2: 80 15        	bra	$68f9 <__udivmodhi4+0xc7>
    68e4: c4 18        	cpy	$18                     ; 0x2018 <dispatchAction+0x3bc>
    68e6: b0 de        	bcs	$68c6 <__udivmodhi4+0x94>
    68e8: 80 ef        	bra	$68d9 <__udivmodhi4+0xa7>
    68ea: 38           	sec
    68eb: e5 12        	sbc	$12                     ; 0x2012 <dispatchAction+0x3b6>
    68ed: aa           	tax
    68ee: a5 1a        	lda	$1a                     ; 0x201a <dispatchAction+0x3be>
    68f0: e5 13        	sbc	$13                     ; 0x2013 <dispatchAction+0x3b7>
    68f2: 85 12        	sta	$12                     ; 0x2012 <dispatchAction+0x3b6>
    68f4: 8a           	txa
    68f5: a2 01        	ldx	#$1
    68f7: 86 ee        	stx	$ee                     ; 0x20ee <dispatchAction+0x492>
    68f9: 92 14        	sta	($14)                   ; 0x2014 <dispatchAction+0x3b8>
    68fb: a0 01        	ldy	#$1
    68fd: a5 12        	lda	$12                     ; 0x2012 <dispatchAction+0x3b6>
    68ff: 91 14        	sta	($14),y                 ; 0x2014 <dispatchAction+0x3b8>
    6901: a6 16        	ldx	$16                     ; 0x2016 <dispatchAction+0x3ba>
    6903: a5 ee        	lda	$ee                     ; 0x20ee <dispatchAction+0x492>
    6905: 60           	rts
    6906: a2 01        	ldx	#$1
    6908: 86 ee        	stx	$ee                     ; 0x20ee <dispatchAction+0x492>
    690a: 98           	tya
    690b: 80 ec        	bra	$68f9 <__udivmodhi4+0xc7>
