
modu.elf:	file format elf32-mos

SYMBOL TABLE:
00000000 l    df *ABS*	00000000 zero-bss.c
00000000 l    df *ABS*	00000000 zero-zp-bss.c
00000000 l    df *ABS*	00000000 copy-zp-data.c
00000000 l    df *ABS*	00000000 ld-temp.o
000004a2 l     F .text	000003d3 f256Init
00000040 l     O .zp.bss	00000007 kernelEventData
000047a0 l     O .rodata	00000030 textColors
00000047 l     O .zp.bss	00000001 _col
00000048 l     O .zp.bss	00000001 _row
00000049 l     O .zp.bss	00000001 _active
0000004a l     O .zp.bss	00000001 _color
00004a43 l     O .bss	0000000c _BITMAP_BASE
0000004b l     O .zp.bss	00000001 _BITMAP_CLUT.1
00004a4f l     O .bss	00000040 _spriteCtl
00004a42 l     O .bss	00000001 kernelError
0000087b l     F .text	0000125c f256main
00002b70 l     F .text	0000008a bitmapClear
000049b5 l     O .rodata	0000002d sid_instrument_defs
00003356 l     F .text	00000088 sid_setInstrument
000041f9 l     F .text	000002b6 malloc
0000007c l     O .zp.bss	00000002 gPtr
00001fe9 l     F .text	000009cf loadGUISID
0000004e l     O .zp.bss	00000008 diaAct
00000056 l     O .zp.bss	00000008 sliAct
00000073 l     O .zp.bss	00000009 polyOPL3Buffer
00000067 l     O .zp.bss	00000006 polySIDBuffer
0000006d l     O .zp.bss	00000006 polyPSGBuffer
00004810 l     O .rodata	00000058 noteColors
0000005e l     O .zp.bss	00000002 mX
00000060 l     O .zp.bss	00000002 mY
00004b37 l     O .bss	00000070 sliders
000030a0 l     F .text	000002b6 updateSlider
0000450e l     F .text	00000032 __mulhi3
00004ba7 l     O .bss	00000085 sliders_labels
00002bfa l     F .text	00000086 spriteDefine
00004c2c l     O .bss	00000038 dials
00002f29 l     F .text	00000177 updateDial
00000063 l     O .zp.bss	00000001 chipAct.1
00004670 l     F .text	000000db __udivmodhi4
0000491d l     O .rodata	00000018 opl3_fnums
00000066 l     O .zp.bss	00000001 chipAct.4
00000034 l     O .zp.data	00000006 sidChoiceToVoice
000049e2 l     O .rodata	00000060 sidLow
00004898 l     O .rodata	00000060 sidHigh
00000064 l     O .zp.bss	00000001 chipAct.2
0000003a l     O .zp.data	00000006 polyPSGChanBits
00004935 l     O .rodata	00000040 psgLow
00004975 l     O .rodata	00000040 psgHigh
00000065 l     O .zp.bss	00000001 chipAct.3
00000062 l     O .zp.bss	00000001 chipAct.0
00004a8f l     O .bss	000000a8 radios
00001ad7 l     F .text	0000043b checkUIEClick
000044fb l     F .text	00000013 __ashlhi3
00002d5e l     F .text	000000d1 updateRadioB
00001f12 l     F .text	000000d7 textLayerGen
000035ca l     F .text	00000c2f printf
000029b8 l     F .text	000001b8 textPrint
000047d0 l     O .rodata	00000040 sidSpriteAction
00002e2f l     F .text	000000fa setRadioB
00002c80 l     F .text	000000de showGeneric
00004c64 l     O .bss	00000078 lights
000045b0 l     F .text	000000c0 __udivhi3
00004540 l     F .text	00000070 __mulsi3
000033e3 l     F .text	000000db _ZN12_GLOBAL__N_13putEcP6Status
0000004c l     O .zp.bss	00000002 __putchar.s
000034be l     F .text	0000010c _ZN12_GLOBAL__N_112print_stringEPKcP6Status
00004cdc l     O .bss	00000001 _ZN12_GLOBAL__N_111initializedE
00000328 l     F .text	0000013d _ZN12_GLOBAL__N_19FreeChunk6insertEPvj
00004cdf l     O .bss	00000002 _ZN12_GLOBAL__N_19free_listE
00004cdd l     O .bss	00000002 _ZN12_GLOBAL__N_19free_sizeE
00000875 g     F .text	00000006 main
00014000 g       .gui8	00000000 gui8_start
000303fc g       .pianopal	00000000 pianopal_end
00043000 g       .keys	00000000 keys_end
00015400 g       .pal	00000000 pal_end
00015000 g       .pal	00000000 pal_start
00030400 g       .keys	00000000 keys_start
00015000 g       .gui8	00000000 gui8_end
00014000 g       .gui16	00000000 gui16_end
00030000 g       .pianopal	00000000 pianopal_start
00010000 g       .gui16	00000000 gui16_start
00000324 g       .text	00000000 __after_main
00000310 g       .text	00000000 __do_init_stack
0000031e g       .text	00000000 __do_copy_zp_data
0000048b g     F .text	00000017 __copy_zp_data
00000318 g       .text	00000000 __do_zero_bss
00000465 g     F .text	00000013 __zero_bss
0000031b g       .text	00000000 __do_zero_zp_bss
00000478 g     F .text	00000013 __zero_zp_bss
000033de g     F .text	00000005 exit
00000327 g       .text	00000000 _fini
0000474b g       .rodata	00000000 __set_v
000044db  w    F .text	00000020 __memset
00001000  w      *ABS*	00000000 __heap_default_limit
00004ce2 g       .noinit	00000000 __heap_start
000044af  w    F .text	0000002c memcpy
00000010 g       *ABS*	00000000 __rc0
00000012 g       *ABS*	00000000 __rc2
00000014 g       *ABS*	00000000 __rc4
00000016 g       *ABS*	00000000 __rc6
00000018 g       *ABS*	00000000 __rc8
0000001a g       *ABS*	00000000 __rc10
0000001c g       *ABS*	00000000 __rc12
0000001e g       *ABS*	00000000 __rc14
00000020 g       *ABS*	00000000 __rc16
00000022 g       *ABS*	00000000 __rc18
00000024 g       *ABS*	00000000 __rc20
00000026 g       *ABS*	00000000 __rc22
00000028 g       *ABS*	00000000 __rc24
0000002a g       *ABS*	00000000 __rc26
0000002c g       *ABS*	00000000 __rc28
0000002e g       *ABS*	00000000 __rc30
0000002f g       *ABS*	00000000 __rc31
00000300 g       *ABS*	00000000 __f256_start
0000a000 g       *ABS*	00000000 __stack
0000a000 g       *ABS*	00000000 __SLOT_ADDR
0800a000 g       *ABS*	00000000 __block8_lma
00002000 g       *ABS*	00000000 __BLOCK_SIZE
0900a000 g       *ABS*	00000000 __block9_lma
0a00a000 g       *ABS*	00000000 __block10_lma
0b00a000 g       *ABS*	00000000 __block11_lma
0c00a000 g       *ABS*	00000000 __block12_lma
0d00a000 g       *ABS*	00000000 __block13_lma
0e00a000 g       *ABS*	00000000 __block14_lma
0f00a000 g       *ABS*	00000000 __block15_lma
1000a000 g       *ABS*	00000000 __block16_lma
1100a000 g       *ABS*	00000000 __block17_lma
1200a000 g       *ABS*	00000000 __block18_lma
1300a000 g       *ABS*	00000000 __block19_lma
1400a000 g       *ABS*	00000000 __block20_lma
1500a000 g       *ABS*	00000000 __block21_lma
1600a000 g       *ABS*	00000000 __block22_lma
1700a000 g       *ABS*	00000000 __block23_lma
00010000 g       *ABS*	00000000 __gui16_lma
00004000 g       *ABS*	00000000 __gui16_size
00014000 g       *ABS*	00000000 __gui8_lma
00001000 g       *ABS*	00000000 __gui8_size
00015000 g       *ABS*	00000000 __pal_lma
00000400 g       *ABS*	00000000 __pal_size
00030000 g       *ABS*	00000000 __pianopal_lma
000003fc g       *ABS*	00000000 __pianopal_size
00030400 g       *ABS*	00000000 __keys_lma
00012c00 g       *ABS*	00000000 __keys_size
00004a42 g       .bss	00000000 __bss_start
00014000 g       .gui16	00000000 end_gui16
00015000 g       .gui8	00000000 end_gui8
00015400 g       .pal	00000000 end_pal
000303fc g       .pianopal	00000000 end_pianopal
00043000 g       .keys	00000000 end_keys
00000310 g       .text	00000000 _start
0000002d g       *ABS*	00000000 __rc29
0000002b g       *ABS*	00000000 __rc27
00000029 g       *ABS*	00000000 __rc25
00000027 g       *ABS*	00000000 __rc23
00000025 g       *ABS*	00000000 __rc21
00000023 g       *ABS*	00000000 __rc19
00000021 g       *ABS*	00000000 __rc17
0000001f g       *ABS*	00000000 __rc15
0000001d g       *ABS*	00000000 __rc13
0000001b g       *ABS*	00000000 __rc11
00000019 g       *ABS*	00000000 __rc9
00000017 g       *ABS*	00000000 __rc7
00000015 g       *ABS*	00000000 __rc5
00000013 g       *ABS*	00000000 __rc3
00000011 g       *ABS*	00000000 __rc1
00000030 g       .zp.data	00000000 __zp_data_start
00000300 g       *ABS*	00000000 __zp_data_load_start
00000010 g       *ABS*	00000000 __zp_data_size
00000040 g       .zp.bss	00000000 __zp_bss_start
0000003e g       *ABS*	00000000 __zp_bss_size
00000310 g       .text	00000000 _init
0000474b g       .text	00000000 __init_array_start
0000474b g       .text	00000000 __init_array_end
0000474b g       .text	00000000 __fini_array_start
0000474b g       .text	00000000 __fini_array_end
00004a42 g       .data	00000000 __data_start
00004a42 g       .data	00000000 __data_end
00004a42 g       *ABS*	00000000 __data_load_start
00000000 g       *ABS*	00000000 __data_size
00004ce1 g       .bss	00000000 __bss_end
0000029f g       *ABS*	00000000 __bss_size
00004ce1 g       .noinit	00000000 end_block8
00004ce1 g       .noinit	00000000 end_block9
00004ce1 g       .noinit	00000000 end_block10
00004ce1 g       .noinit	00000000 end_block11
00004ce1 g       .noinit	00000000 end_block12
00004ce1 g       .noinit	00000000 end_block13
00004ce1 g       .noinit	00000000 end_block14
00004ce1 g       .noinit	00000000 end_block15
00004ce1 g       .noinit	00000000 end_block16
00004ce1 g       .noinit	00000000 end_block17
00004ce1 g       .noinit	00000000 end_block18
00004ce1 g       .noinit	00000000 end_block19
00004ce1 g       .noinit	00000000 end_block20
00004ce1 g       .noinit	00000000 end_block21
00004ce1 g       .noinit	00000000 end_block22
00004ce1 g       .noinit	00000000 end_block23

Disassembly of section .text:

00000310 <_start>:
     310: a9 00        	lda	#$0
     312: 85 10        	sta	$10                     ; 0x2010 <loadGUISID+0x27>
     314: a9 a0        	lda	#$a0
     316: 85 11        	sta	$11                     ; 0x2011 <loadGUISID+0x28>

00000318 <__do_zero_bss>:
     318: 20 65 04     	jsr	$465 <__zero_bss>

0000031b <__do_zero_zp_bss>:
     31b: 20 78 04     	jsr	$478 <__zero_zp_bss>

0000031e <__do_copy_zp_data>:
     31e: 20 8b 04     	jsr	$48b <__copy_zp_data>
     321: 20 75 08     	jsr	$875 <main>

00000324 <__after_main>:
     324: 4c de 33     	jmp	$33de <exit>

00000327 <_fini>:
     327: 60           	rts

00000328 <_ZN12_GLOBAL__N_19FreeChunk6insertEPvj>:
     328: 85 16        	sta	$16                     ; 0x2016 <loadGUISID+0x2d>
     32a: 29 fe        	and	#$fe
     32c: 85 14        	sta	$14                     ; 0x2014 <loadGUISID+0x2b>
     32e: a0 01        	ldy	#$1
     330: 98           	tya
     331: 32 12        	and	($12)                   ; 0x2012 <loadGUISID+0x29>
     333: 05 14        	ora	$14                     ; 0x2014 <loadGUISID+0x2b>
     335: 92 12        	sta	($12)                   ; 0x2012 <loadGUISID+0x29>
     337: a5 12        	lda	$12                     ; 0x2012 <loadGUISID+0x29>
     339: 18           	clc
     33a: 65 14        	adc	$14                     ; 0x2014 <loadGUISID+0x2b>
     33c: 85 15        	sta	$15                     ; 0x2015 <loadGUISID+0x2c>
     33e: 8a           	txa
     33f: 65 13        	adc	$13                     ; 0x2013 <loadGUISID+0x2a>
     341: 85 14        	sta	$14                     ; 0x2014 <loadGUISID+0x2b>
     343: 18           	clc
     344: a5 15        	lda	$15                     ; 0x2015 <loadGUISID+0x2c>
     346: 69 fe        	adc	#$fe
     348: 85 17        	sta	$17                     ; 0x2017 <loadGUISID+0x2e>
     34a: a5 14        	lda	$14                     ; 0x2014 <loadGUISID+0x2b>
     34c: 69 ff        	adc	#$ff
     34e: 85 15        	sta	$15                     ; 0x2015 <loadGUISID+0x2c>
     350: a5 17        	lda	$17                     ; 0x2017 <loadGUISID+0x2e>
     352: 85 14        	sta	$14                     ; 0x2014 <loadGUISID+0x2b>
     354: 8a           	txa
     355: 91 12        	sta	($12),y                 ; 0x2012 <loadGUISID+0x29>
     357: a5 16        	lda	$16                     ; 0x2016 <loadGUISID+0x2d>
     359: 92 14        	sta	($14)                   ; 0x2014 <loadGUISID+0x2b>
     35b: 8a           	txa
     35c: 91 14        	sta	($14),y                 ; 0x2014 <loadGUISID+0x2b>
     35e: b1 12        	lda	($12),y                 ; 0x2012 <loadGUISID+0x29>
     360: 85 14        	sta	$14                     ; 0x2014 <loadGUISID+0x2b>
     362: a9 fe        	lda	#$fe
     364: 32 12        	and	($12)                   ; 0x2012 <loadGUISID+0x29>
     366: 18           	clc
     367: 6d dd 4c     	adc	$4cdd                   ; 0x4cdd <_ZN12_GLOBAL__N_19free_sizeE>
     36a: aa           	tax
     36b: a5 14        	lda	$14                     ; 0x2014 <loadGUISID+0x2b>
     36d: 6d de 4c     	adc	$4cde                   ; 0x4cde <_ZN12_GLOBAL__N_19free_sizeE+0x1>
     370: a8           	tay
     371: 18           	clc
     372: 8a           	txa
     373: 69 fe        	adc	#$fe
     375: aa           	tax
     376: 98           	tya
     377: 69 ff        	adc	#$ff
     379: 8e dd 4c     	stx	$4cdd                   ; 0x4cdd <_ZN12_GLOBAL__N_19free_sizeE>
     37c: 8d de 4c     	sta	$4cde                   ; 0x4cde <_ZN12_GLOBAL__N_19free_sizeE+0x1>
     37f: ae df 4c     	ldx	$4cdf                   ; 0x4cdf <_ZN12_GLOBAL__N_19free_listE>
     382: 86 16        	stx	$16                     ; 0x2016 <loadGUISID+0x2d>
     384: ac e0 4c     	ldy	$4ce0                   ; 0x4ce0 <_ZN12_GLOBAL__N_19free_listE+0x1>
     387: a2 00        	ldx	#$0
     389: 86 14        	stx	$14                     ; 0x2014 <loadGUISID+0x2b>
     38b: a2 00        	ldx	#$0
     38d: 86 15        	stx	$15                     ; 0x2015 <loadGUISID+0x2c>
     38f: c4 15        	cpy	$15                     ; 0x2015 <loadGUISID+0x2c>
     391: d0 3e        	bne	$3d1 <_ZN12_GLOBAL__N_19FreeChunk6insertEPvj+0xa9>
     393: a6 16        	ldx	$16                     ; 0x2016 <loadGUISID+0x2d>
     395: e4 14        	cpx	$14                     ; 0x2014 <loadGUISID+0x2b>
     397: d0 38        	bne	$3d1 <_ZN12_GLOBAL__N_19FreeChunk6insertEPvj+0xa9>
     399: a0 04        	ldy	#$4
     39b: a5 12        	lda	$12                     ; 0x2012 <loadGUISID+0x29>
     39d: 18           	clc
     39e: 69 04        	adc	#$4
     3a0: 85 14        	sta	$14                     ; 0x2014 <loadGUISID+0x2b>
     3a2: a5 13        	lda	$13                     ; 0x2013 <loadGUISID+0x2a>
     3a4: 69 00        	adc	#$0
     3a6: 18           	clc
     3a7: 85 15        	sta	$15                     ; 0x2015 <loadGUISID+0x2c>
     3a9: a5 12        	lda	$12                     ; 0x2012 <loadGUISID+0x29>
     3ab: 91 12        	sta	($12),y                 ; 0x2012 <loadGUISID+0x29>
     3ad: a0 02        	ldy	#$2
     3af: 85 17        	sta	$17                     ; 0x2017 <loadGUISID+0x2e>
     3b1: 69 02        	adc	#$2
     3b3: 85 16        	sta	$16                     ; 0x2016 <loadGUISID+0x2d>
     3b5: a5 17        	lda	$17                     ; 0x2017 <loadGUISID+0x2e>
     3b7: 91 12        	sta	($12),y                 ; 0x2012 <loadGUISID+0x29>
     3b9: a5 13        	lda	$13                     ; 0x2013 <loadGUISID+0x2a>
     3bb: 69 00        	adc	#$0
     3bd: 85 17        	sta	$17                     ; 0x2017 <loadGUISID+0x2e>
     3bf: 88           	dey
     3c0: a5 13        	lda	$13                     ; 0x2013 <loadGUISID+0x2a>
     3c2: 91 14        	sta	($14),y                 ; 0x2014 <loadGUISID+0x2b>
     3c4: 91 16        	sta	($16),y                 ; 0x2016 <loadGUISID+0x2d>
     3c6: a6 12        	ldx	$12                     ; 0x2012 <loadGUISID+0x29>
     3c8: 8e df 4c     	stx	$4cdf                   ; 0x4cdf <_ZN12_GLOBAL__N_19free_listE>
     3cb: a6 13        	ldx	$13                     ; 0x2013 <loadGUISID+0x2a>
     3cd: 8e e0 4c     	stx	$4ce0                   ; 0x4ce0 <_ZN12_GLOBAL__N_19free_listE+0x1>
     3d0: 60           	rts
     3d1: a6 12        	ldx	$12                     ; 0x2012 <loadGUISID+0x29>
     3d3: a5 12        	lda	$12                     ; 0x2012 <loadGUISID+0x29>
     3d5: 18           	clc
     3d6: 69 02        	adc	#$2
     3d8: 85 14        	sta	$14                     ; 0x2014 <loadGUISID+0x2b>
     3da: 84 18        	sty	$18                     ; 0x2018 <loadGUISID+0x2f>
     3dc: a5 13        	lda	$13                     ; 0x2013 <loadGUISID+0x2a>
     3de: 69 00        	adc	#$0
     3e0: 85 15        	sta	$15                     ; 0x2015 <loadGUISID+0x2c>
     3e2: a5 16        	lda	$16                     ; 0x2016 <loadGUISID+0x2d>
     3e4: 84 17        	sty	$17                     ; 0x2017 <loadGUISID+0x2e>
     3e6: a0 02        	ldy	#$2
     3e8: 91 12        	sta	($12),y                 ; 0x2012 <loadGUISID+0x29>
     3ea: 85 19        	sta	$19                     ; 0x2019 <loadGUISID+0x30>
     3ec: 88           	dey
     3ed: a5 18        	lda	$18                     ; 0x2018 <loadGUISID+0x2f>
     3ef: 91 14        	sta	($14),y                 ; 0x2014 <loadGUISID+0x2b>
     3f1: 18           	clc
     3f2: a5 19        	lda	$19                     ; 0x2019 <loadGUISID+0x30>
     3f4: 69 04        	adc	#$4
     3f6: a8           	tay
     3f7: a5 18        	lda	$18                     ; 0x2018 <loadGUISID+0x2f>
     3f9: 69 00        	adc	#$0
     3fb: 85 19        	sta	$19                     ; 0x2019 <loadGUISID+0x30>
     3fd: 84 18        	sty	$18                     ; 0x2018 <loadGUISID+0x2f>
     3ff: 8a           	txa
     400: 18           	clc
     401: 69 04        	adc	#$4
     403: 85 1a        	sta	$1a                     ; 0x201a <loadGUISID+0x31>
     405: a5 13        	lda	$13                     ; 0x2013 <loadGUISID+0x2a>
     407: 69 00        	adc	#$0
     409: 85 1b        	sta	$1b                     ; 0x201b <loadGUISID+0x32>
     40b: a0 04        	ldy	#$4
     40d: b1 16        	lda	($16),y                 ; 0x2016 <loadGUISID+0x2d>
     40f: 85 16        	sta	$16                     ; 0x2016 <loadGUISID+0x2d>
     411: 85 1d        	sta	$1d                     ; 0x201d <loadGUISID+0x34>
     413: a0 01        	ldy	#$1
     415: b1 18        	lda	($18),y                 ; 0x2018 <loadGUISID+0x2f>
     417: 85 17        	sta	$17                     ; 0x2017 <loadGUISID+0x2e>
     419: 85 19        	sta	$19                     ; 0x2019 <loadGUISID+0x30>
     41b: a0 04        	ldy	#$4
     41d: a5 1d        	lda	$1d                     ; 0x201d <loadGUISID+0x34>
     41f: 91 12        	sta	($12),y                 ; 0x2012 <loadGUISID+0x29>
     421: a5 19        	lda	$19                     ; 0x2019 <loadGUISID+0x30>
     423: a0 01        	ldy	#$1
     425: 91 1a        	sta	($1a),y                 ; 0x201a <loadGUISID+0x31>
     427: 18           	clc
     428: a5 1d        	lda	$1d                     ; 0x201d <loadGUISID+0x34>
     42a: 69 02        	adc	#$2
     42c: 85 18        	sta	$18                     ; 0x2018 <loadGUISID+0x2f>
     42e: a5 19        	lda	$19                     ; 0x2019 <loadGUISID+0x30>
     430: 69 00        	adc	#$0
     432: 85 19        	sta	$19                     ; 0x2019 <loadGUISID+0x30>
     434: 8a           	txa
     435: c8           	iny
     436: 91 16        	sta	($16),y                 ; 0x2016 <loadGUISID+0x2d>
     438: a5 13        	lda	$13                     ; 0x2013 <loadGUISID+0x2a>
     43a: 88           	dey
     43b: 91 18        	sta	($18),y                 ; 0x2018 <loadGUISID+0x2f>
     43d: c8           	iny
     43e: b1 12        	lda	($12),y                 ; 0x2012 <loadGUISID+0x29>
     440: 85 16        	sta	$16                     ; 0x2016 <loadGUISID+0x2d>
     442: 85 18        	sta	$18                     ; 0x2018 <loadGUISID+0x2f>
     444: 88           	dey
     445: b1 14        	lda	($14),y                 ; 0x2014 <loadGUISID+0x2b>
     447: 85 17        	sta	$17                     ; 0x2017 <loadGUISID+0x2e>
     449: 85 14        	sta	$14                     ; 0x2014 <loadGUISID+0x2b>
     44b: 8a           	txa
     44c: a0 04        	ldy	#$4
     44e: 91 16        	sta	($16),y                 ; 0x2016 <loadGUISID+0x2d>
     450: 18           	clc
     451: a5 18        	lda	$18                     ; 0x2018 <loadGUISID+0x2f>
     453: 69 04        	adc	#$4
     455: a8           	tay
     456: a5 14        	lda	$14                     ; 0x2014 <loadGUISID+0x2b>
     458: 69 00        	adc	#$0
     45a: 84 14        	sty	$14                     ; 0x2014 <loadGUISID+0x2b>
     45c: 85 15        	sta	$15                     ; 0x2015 <loadGUISID+0x2c>
     45e: a5 13        	lda	$13                     ; 0x2013 <loadGUISID+0x2a>
     460: a0 01        	ldy	#$1
     462: 91 14        	sta	($14),y                 ; 0x2014 <loadGUISID+0x2b>
     464: 60           	rts

00000465 <__zero_bss>:
     465: a2 9f        	ldx	#$9f
     467: a0 02        	ldy	#$2
     469: a9 42        	lda	#$42
     46b: 85 12        	sta	$12                     ; 0x2012 <loadGUISID+0x29>
     46d: a9 4a        	lda	#$4a
     46f: 85 13        	sta	$13                     ; 0x2013 <loadGUISID+0x2a>
     471: a9 00        	lda	#$0
     473: 84 14        	sty	$14                     ; 0x2014 <loadGUISID+0x2b>
     475: 4c db 44     	jmp	$44db <__memset>

00000478 <__zero_zp_bss>:
     478: a2 3e        	ldx	#$3e
     47a: a0 00        	ldy	#$0
     47c: a9 40        	lda	#$40
     47e: 85 12        	sta	$12                     ; 0x2012 <loadGUISID+0x29>
     480: a9 00        	lda	#$0
     482: 85 13        	sta	$13                     ; 0x2013 <loadGUISID+0x2a>
     484: a9 00        	lda	#$0
     486: 84 14        	sty	$14                     ; 0x2014 <loadGUISID+0x2b>
     488: 4c db 44     	jmp	$44db <__memset>

0000048b <__copy_zp_data>:
     48b: a9 10        	lda	#$10
     48d: a2 00        	ldx	#$0
     48f: a0 30        	ldy	#$30
     491: 84 12        	sty	$12                     ; 0x2012 <loadGUISID+0x29>
     493: a0 00        	ldy	#$0
     495: 84 13        	sty	$13                     ; 0x2013 <loadGUISID+0x2a>
     497: a0 00        	ldy	#$0
     499: 84 14        	sty	$14                     ; 0x2014 <loadGUISID+0x2b>
     49b: a0 03        	ldy	#$3
     49d: 84 15        	sty	$15                     ; 0x2015 <loadGUISID+0x2c>
     49f: 4c af 44     	jmp	$44af <memcpy>

000004a2 <f256Init>:
     4a2: 64 14        	stz	$14                     ; 0x2014 <loadGUISID+0x2b>
     4a4: a2 00        	ldx	#$0
     4a6: 86 12        	stx	$12                     ; 0x2012 <loadGUISID+0x29>
     4a8: a2 c0        	ldx	#$c0
     4aa: 86 13        	stx	$13                     ; 0x2013 <loadGUISID+0x2a>
     4ac: 64 01        	stz	$1                      ; 0x2001 <loadGUISID+0x18>
     4ae: a2 3f        	ldx	#$3f
     4b0: 8e 00 d0     	stx	$d000                   ; 0xd000 <__heap_start+0x831e>
     4b3: a2 b3        	ldx	#$b3
     4b5: 86 00        	stx	$0                      ; 0x2000 <loadGUISID+0x17>
     4b7: 64 08        	stz	$8                      ; 0x2008 <loadGUISID+0x1f>
     4b9: a2 01        	ldx	#$1
     4bb: 86 09        	stx	$9                      ; 0x2009 <loadGUISID+0x20>
     4bd: e8           	inx
     4be: 86 0a        	stx	$a                      ; 0x200a <loadGUISID+0x21>
     4c0: e8           	inx
     4c1: 86 0b        	stx	$b                      ; 0x200b <loadGUISID+0x22>
     4c3: e8           	inx
     4c4: 86 0c        	stx	$c                      ; 0x200c <loadGUISID+0x23>
     4c6: e8           	inx
     4c7: 86 0d        	stx	$d                      ; 0x200d <loadGUISID+0x24>
     4c9: a2 40        	ldx	#$40
     4cb: a0 00        	ldy	#$0
     4cd: 86 f0        	stx	$f0                     ; 0x20f0 <loadGUISID+0x107>
     4cf: 84 f1        	sty	$f1                     ; 0x20f1 <loadGUISID+0x108>
     4d1: a2 00        	ldx	#$0
     4d3: 86 18        	stx	$18                     ; 0x2018 <loadGUISID+0x2f>
     4d5: ca           	dex
     4d6: 86 19        	stx	$19                     ; 0x2019 <loadGUISID+0x30>
     4d8: 8a           	txa
     4d9: 0a           	asl
     4da: 0a           	asl
     4db: 18           	clc
     4dc: 69 d4        	adc	#$d4
     4de: 85 1a        	sta	$1a                     ; 0x201a <loadGUISID+0x31>
     4e0: a0 00        	ldy	#$0
     4e2: 64 17        	stz	$17                     ; 0x2017 <loadGUISID+0x2e>
     4e4: 64 16        	stz	$16                     ; 0x2016 <loadGUISID+0x2d>
     4e6: a6 19        	ldx	$19                     ; 0x2019 <loadGUISID+0x30>
     4e8: e0 03        	cpx	#$3
     4ea: a6 01        	ldx	$1                      ; 0x2001 <loadGUISID+0x18>
     4ec: 86 1c        	stx	$1c                     ; 0x201c <loadGUISID+0x33>
     4ee: a2 d0        	ldx	#$d0
     4f0: 84 1b        	sty	$1b                     ; 0x201b <loadGUISID+0x32>
     4f2: b0 02        	bcs	$4f6 <f256Init+0x54>
     4f4: a6 1a        	ldx	$1a                     ; 0x201a <loadGUISID+0x31>
     4f6: 86 15        	stx	$15                     ; 0x2015 <loadGUISID+0x2c>
     4f8: a5 17        	lda	$17                     ; 0x2017 <loadGUISID+0x2e>
     4fa: 18           	clc
     4fb: 65 14        	adc	$14                     ; 0x2014 <loadGUISID+0x2b>
     4fd: a8           	tay
     4fe: a6 17        	ldx	$17                     ; 0x2017 <loadGUISID+0x2e>
     500: a5 16        	lda	$16                     ; 0x2016 <loadGUISID+0x2d>
     502: 85 1d        	sta	$1d                     ; 0x201d <loadGUISID+0x34>
     504: a5 16        	lda	$16                     ; 0x2016 <loadGUISID+0x2d>
     506: 65 15        	adc	$15                     ; 0x2015 <loadGUISID+0x2c>
     508: 84 16        	sty	$16                     ; 0x2016 <loadGUISID+0x2d>
     50a: a0 01        	ldy	#$1
     50c: 84 01        	sty	$1                      ; 0x2001 <loadGUISID+0x18>
     50e: 85 17        	sta	$17                     ; 0x2017 <loadGUISID+0x2e>
     510: a5 1b        	lda	$1b                     ; 0x201b <loadGUISID+0x32>
     512: 92 16        	sta	($16)                   ; 0x2016 <loadGUISID+0x2d>
     514: 91 16        	sta	($16),y                 ; 0x2016 <loadGUISID+0x2d>
     516: c8           	iny
     517: 91 16        	sta	($16),y                 ; 0x2016 <loadGUISID+0x2d>
     519: 85 15        	sta	$15                     ; 0x2015 <loadGUISID+0x2c>
     51b: c8           	iny
     51c: a9 ff        	lda	#$ff
     51e: 91 16        	sta	($16),y                 ; 0x2016 <loadGUISID+0x2d>
     520: 8a           	txa
     521: a6 1c        	ldx	$1c                     ; 0x201c <loadGUISID+0x33>
     523: 86 01        	stx	$1                      ; 0x2001 <loadGUISID+0x18>
     525: 18           	clc
     526: 69 04        	adc	#$4
     528: 85 17        	sta	$17                     ; 0x2017 <loadGUISID+0x2e>
     52a: a5 1d        	lda	$1d                     ; 0x201d <loadGUISID+0x34>
     52c: 69 00        	adc	#$0
     52e: e6 15        	inc	$15                     ; 0x2015 <loadGUISID+0x2c>
     530: a4 15        	ldy	$15                     ; 0x2015 <loadGUISID+0x2c>
     532: 85 16        	sta	$16                     ; 0x2016 <loadGUISID+0x2d>
     534: c9 04        	cmp	#$4
     536: f0 03        	beq	$53b <f256Init+0x99>
     538: 4c e6 04     	jmp	$4e6 <f256Init+0x44>
     53b: a5 17        	lda	$17                     ; 0x2017 <loadGUISID+0x2e>
     53d: f0 03        	beq	$542 <f256Init+0xa0>
     53f: 4c e6 04     	jmp	$4e6 <f256Init+0x44>
     542: a6 18        	ldx	$18                     ; 0x2018 <loadGUISID+0x2f>
     544: e8           	inx
     545: e0 04        	cpx	#$4
     547: f0 03        	beq	$54c <f256Init+0xaa>
     549: 4c d3 04     	jmp	$4d3 <f256Init+0x31>
     54c: ad 02 d0     	lda	$d002                   ; 0xd002 <__heap_start+0x8320>
     54f: 29 f0        	and	#$f0
     551: 8d 02 d0     	sta	$d002                   ; 0xd002 <__heap_start+0x8320>
     554: ad 02 d0     	lda	$d002                   ; 0xd002 <__heap_start+0x8320>
     557: 29 0f        	and	#$f
     559: 09 10        	ora	#$10
     55b: 8d 02 d0     	sta	$d002                   ; 0xd002 <__heap_start+0x8320>
     55e: a2 02        	ldx	#$2
     560: 8e 03 d0     	stx	$d003                   ; 0xd003 <__heap_start+0x8321>
     563: ad 01 d0     	lda	$d001                   ; 0xd001 <__heap_start+0x831f>
     566: 29 f9        	and	#$f9
     568: 09 04        	ora	#$4
     56a: 8d 01 d0     	sta	$d001                   ; 0xd001 <__heap_start+0x831f>
     56d: 64 14        	stz	$14                     ; 0x2014 <loadGUISID+0x2b>
     56f: 9c 10 d0     	stz	$d010                   ; 0xd010 <__heap_start+0x832e>
     572: a2 00        	ldx	#$0
     574: 64 15        	stz	$15                     ; 0x2015 <loadGUISID+0x2c>
     576: 86 18        	stx	$18                     ; 0x2018 <loadGUISID+0x2f>
     578: a4 18        	ldy	$18                     ; 0x2018 <loadGUISID+0x2f>
     57a: be a0 47     	ldx	$47a0,y                 ; 0x47a0 <textColors>
     57d: 86 19        	stx	$19                     ; 0x2019 <loadGUISID+0x30>
     57f: be a1 47     	ldx	$47a1,y                 ; 0x47a1 <textColors+0x1>
     582: 86 1a        	stx	$1a                     ; 0x201a <loadGUISID+0x31>
     584: be a2 47     	ldx	$47a2,y                 ; 0x47a2 <textColors+0x2>
     587: 86 1b        	stx	$1b                     ; 0x201b <loadGUISID+0x32>
     589: a6 15        	ldx	$15                     ; 0x2015 <loadGUISID+0x2c>
     58b: 8e 00 de     	stx	$de00                   ; 0xde00 <__heap_start+0x911e>
     58e: 86 17        	stx	$17                     ; 0x2017 <loadGUISID+0x2e>
     590: 9c 01 de     	stz	$de01                   ; 0xde01 <__heap_start+0x911f>
     593: a2 04        	ldx	#$4
     595: 8e 02 de     	stx	$de02                   ; 0xde02 <__heap_start+0x9120>
     598: 9c 03 de     	stz	$de03                   ; 0xde03 <__heap_start+0x9121>
     59b: ad 10 de     	lda	$de10                   ; 0xde10 <__heap_start+0x912e>
     59e: ac 11 de     	ldy	$de11                   ; 0xde11 <__heap_start+0x912f>
     5a1: 84 15        	sty	$15                     ; 0x2015 <loadGUISID+0x2c>
     5a3: ac 12 de     	ldy	$de12                   ; 0xde12 <__heap_start+0x9130>
     5a6: ac 13 de     	ldy	$de13                   ; 0xde13 <__heap_start+0x9131>
     5a9: 18           	clc
     5aa: 65 14        	adc	$14                     ; 0x2014 <loadGUISID+0x2b>
     5ac: 85 16        	sta	$16                     ; 0x2016 <loadGUISID+0x2d>
     5ae: a6 17        	ldx	$17                     ; 0x2017 <loadGUISID+0x2e>
     5b0: a9 d8        	lda	#$d8
     5b2: 65 15        	adc	$15                     ; 0x2015 <loadGUISID+0x2c>
     5b4: 85 17        	sta	$17                     ; 0x2017 <loadGUISID+0x2e>
     5b6: a5 1b        	lda	$1b                     ; 0x201b <loadGUISID+0x32>
     5b8: 92 16        	sta	($16)                   ; 0x2016 <loadGUISID+0x2d>
     5ba: a0 01        	ldy	#$1
     5bc: a5 1a        	lda	$1a                     ; 0x201a <loadGUISID+0x31>
     5be: 91 16        	sta	($16),y                 ; 0x2016 <loadGUISID+0x2d>
     5c0: c8           	iny
     5c1: a5 19        	lda	$19                     ; 0x2019 <loadGUISID+0x30>
     5c3: 91 16        	sta	($16),y                 ; 0x2016 <loadGUISID+0x2d>
     5c5: c8           	iny
     5c6: a9 ff        	lda	#$ff
     5c8: 91 16        	sta	($16),y                 ; 0x2016 <loadGUISID+0x2d>
     5ca: 8e 00 de     	stx	$de00                   ; 0xde00 <__heap_start+0x911e>
     5cd: 9c 01 de     	stz	$de01                   ; 0xde01 <__heap_start+0x911f>
     5d0: c8           	iny
     5d1: 8c 02 de     	sty	$de02                   ; 0xde02 <__heap_start+0x9120>
     5d4: 9c 03 de     	stz	$de03                   ; 0xde03 <__heap_start+0x9121>
     5d7: ad 10 de     	lda	$de10                   ; 0xde10 <__heap_start+0x912e>
     5da: 85 15        	sta	$15                     ; 0x2015 <loadGUISID+0x2c>
     5dc: ad 11 de     	lda	$de11                   ; 0xde11 <__heap_start+0x912f>
     5df: 85 16        	sta	$16                     ; 0x2016 <loadGUISID+0x2d>
     5e1: a9 40        	lda	#$40
     5e3: 18           	clc
     5e4: 65 15        	adc	$15                     ; 0x2015 <loadGUISID+0x2c>
     5e6: a8           	tay
     5e7: a9 d8        	lda	#$d8
     5e9: 65 16        	adc	$16                     ; 0x2016 <loadGUISID+0x2d>
     5eb: 85 17        	sta	$17                     ; 0x2017 <loadGUISID+0x2e>
     5ed: 84 16        	sty	$16                     ; 0x2016 <loadGUISID+0x2d>
     5ef: ad 12 de     	lda	$de12                   ; 0xde12 <__heap_start+0x9130>
     5f2: ad 13 de     	lda	$de13                   ; 0xde13 <__heap_start+0x9131>
     5f5: a5 1b        	lda	$1b                     ; 0x201b <loadGUISID+0x32>
     5f7: 92 16        	sta	($16)                   ; 0x2016 <loadGUISID+0x2d>
     5f9: a5 1a        	lda	$1a                     ; 0x201a <loadGUISID+0x31>
     5fb: a0 01        	ldy	#$1
     5fd: 91 16        	sta	($16),y                 ; 0x2016 <loadGUISID+0x2d>
     5ff: a5 19        	lda	$19                     ; 0x2019 <loadGUISID+0x30>
     601: c8           	iny
     602: 91 16        	sta	($16),y                 ; 0x2016 <loadGUISID+0x2d>
     604: c8           	iny
     605: a9 ff        	lda	#$ff
     607: 91 16        	sta	($16),y                 ; 0x2016 <loadGUISID+0x2d>
     609: e8           	inx
     60a: 86 15        	stx	$15                     ; 0x2015 <loadGUISID+0x2c>
     60c: 18           	clc
     60d: a5 18        	lda	$18                     ; 0x2018 <loadGUISID+0x2f>
     60f: 69 03        	adc	#$3
     611: aa           	tax
     612: c9 30        	cmp	#$30
     614: f0 03        	beq	$619 <f256Init+0x177>
     616: 4c 76 05     	jmp	$576 <f256Init+0xd4>
     619: a6 01        	ldx	$1                      ; 0x2001 <loadGUISID+0x18>
     61b: 86 18        	stx	$18                     ; 0x2018 <loadGUISID+0x2f>
     61d: a2 50        	ldx	#$50
     61f: 8e 00 de     	stx	$de00                   ; 0xde00 <__heap_start+0x911e>
     622: 9c 01 de     	stz	$de01                   ; 0xde01 <__heap_start+0x911f>
     625: a2 1e        	ldx	#$1e
     627: 8e 02 de     	stx	$de02                   ; 0xde02 <__heap_start+0x9120>
     62a: 9c 03 de     	stz	$de03                   ; 0xde03 <__heap_start+0x9121>
     62d: ae 10 de     	ldx	$de10                   ; 0xde10 <__heap_start+0x912e>
     630: ac 11 de     	ldy	$de11                   ; 0xde11 <__heap_start+0x912f>
     633: ad 12 de     	lda	$de12                   ; 0xde12 <__heap_start+0x9130>
     636: ad 13 de     	lda	$de13                   ; 0xde13 <__heap_start+0x9131>
     639: a9 02        	lda	#$2
     63b: 85 01        	sta	$1                      ; 0x2001 <loadGUISID+0x18>
     63d: e0 01        	cpx	#$1
     63f: 98           	tya
     640: e9 00        	sbc	#$0
     642: 50 02        	bvc	$646 <f256Init+0x1a4>
     644: 49 80        	eor	#$80
     646: c9 00        	cmp	#$0
     648: 30 48        	bmi	$692 <f256Init+0x1f0>
     64a: a9 20        	lda	#$20
     64c: 86 19        	stx	$19                     ; 0x2019 <loadGUISID+0x30>
     64e: 86 14        	stx	$14                     ; 0x2014 <loadGUISID+0x2b>
     650: 84 15        	sty	$15                     ; 0x2015 <loadGUISID+0x2c>
     652: a2 00        	ldx	#$0
     654: 86 16        	stx	$16                     ; 0x2016 <loadGUISID+0x2d>
     656: a2 c0        	ldx	#$c0
     658: 86 17        	stx	$17                     ; 0x2017 <loadGUISID+0x2e>
     65a: 92 16        	sta	($16)                   ; 0x2016 <loadGUISID+0x2d>
     65c: e6 16        	inc	$16                     ; 0x2016 <loadGUISID+0x2d>
     65e: d0 02        	bne	$662 <f256Init+0x1c0>
     660: e6 17        	inc	$17                     ; 0x2017 <loadGUISID+0x2e>
     662: a2 ff        	ldx	#$ff
     664: c6 14        	dec	$14                     ; 0x2014 <loadGUISID+0x2b>
     666: e4 14        	cpx	$14                     ; 0x2014 <loadGUISID+0x2b>
     668: d0 02        	bne	$66c <f256Init+0x1ca>
     66a: c6 15        	dec	$15                     ; 0x2015 <loadGUISID+0x2c>
     66c: a6 15        	ldx	$15                     ; 0x2015 <loadGUISID+0x2c>
     66e: d0 ea        	bne	$65a <f256Init+0x1b8>
     670: a6 14        	ldx	$14                     ; 0x2014 <loadGUISID+0x2b>
     672: d0 e6        	bne	$65a <f256Init+0x1b8>
     674: a2 03        	ldx	#$3
     676: 86 01        	stx	$1                      ; 0x2001 <loadGUISID+0x18>
     678: a6 19        	ldx	$19                     ; 0x2019 <loadGUISID+0x30>
     67a: a9 f0        	lda	#$f0
     67c: 92 12        	sta	($12)                   ; 0x2012 <loadGUISID+0x29>
     67e: e6 12        	inc	$12                     ; 0x2012 <loadGUISID+0x29>
     680: d0 02        	bne	$684 <f256Init+0x1e2>
     682: e6 13        	inc	$13                     ; 0x2013 <loadGUISID+0x2a>
     684: ca           	dex
     685: e0 ff        	cpx	#$ff
     687: d0 01        	bne	$68a <f256Init+0x1e8>
     689: 88           	dey
     68a: 98           	tya
     68b: d0 ed        	bne	$67a <f256Init+0x1d8>
     68d: 8a           	txa
     68e: d0 ea        	bne	$67a <f256Init+0x1d8>
     690: 80 04        	bra	$696 <f256Init+0x1f4>
     692: a2 03        	ldx	#$3
     694: 86 01        	stx	$1                      ; 0x2001 <loadGUISID+0x18>
     696: a6 18        	ldx	$18                     ; 0x2018 <loadGUISID+0x2f>
     698: 86 01        	stx	$1                      ; 0x2001 <loadGUISID+0x18>
     69a: 64 47        	stz	$47                     ; 0x2047 <loadGUISID+0x5e>
     69c: 9c 14 d0     	stz	$d014                   ; 0xd014 <__heap_start+0x8332>
     69f: 9c 15 d0     	stz	$d015                   ; 0xd015 <__heap_start+0x8333>
     6a2: 64 48        	stz	$48                     ; 0x2048 <loadGUISID+0x5f>
     6a4: 9c 16 d0     	stz	$d016                   ; 0xd016 <__heap_start+0x8334>
     6a7: 9c 17 d0     	stz	$d017                   ; 0xd017 <__heap_start+0x8335>
     6aa: a2 40        	ldx	#$40
     6ac: 8e 00 de     	stx	$de00                   ; 0xde00 <__heap_start+0x911e>
     6af: a2 01        	ldx	#$1
     6b1: 8e 01 de     	stx	$de01                   ; 0xde01 <__heap_start+0x911f>
     6b4: a2 f0        	ldx	#$f0
     6b6: 8e 02 de     	stx	$de02                   ; 0xde02 <__heap_start+0x9120>
     6b9: 9c 03 de     	stz	$de03                   ; 0xde03 <__heap_start+0x9121>
     6bc: ae 10 de     	ldx	$de10                   ; 0xde10 <__heap_start+0x912e>
     6bf: 86 17        	stx	$17                     ; 0x2017 <loadGUISID+0x2e>
     6c1: ae 11 de     	ldx	$de11                   ; 0xde11 <__heap_start+0x912f>
     6c4: 86 12        	stx	$12                     ; 0x2012 <loadGUISID+0x29>
     6c6: ae 12 de     	ldx	$de12                   ; 0xde12 <__heap_start+0x9130>
     6c9: 86 13        	stx	$13                     ; 0x2013 <loadGUISID+0x2a>
     6cb: ae 13 de     	ldx	$de13                   ; 0xde13 <__heap_start+0x9131>
     6ce: 86 14        	stx	$14                     ; 0x2014 <loadGUISID+0x2b>
     6d0: 64 49        	stz	$49                     ; 0x2049 <loadGUISID+0x60>
     6d2: a2 ff        	ldx	#$ff
     6d4: 86 4a        	stx	$4a                     ; 0x204a <loadGUISID+0x61>
     6d6: a6 12        	ldx	$12                     ; 0x2012 <loadGUISID+0x29>
     6d8: 86 15        	stx	$15                     ; 0x2015 <loadGUISID+0x2c>
     6da: 06 15        	asl	$15                     ; 0x2015 <loadGUISID+0x2c>
     6dc: a5 13        	lda	$13                     ; 0x2013 <loadGUISID+0x2a>
     6de: 2a           	rol
     6df: a6 14        	ldx	$14                     ; 0x2014 <loadGUISID+0x2b>
     6e1: 86 16        	stx	$16                     ; 0x2016 <loadGUISID+0x2d>
     6e3: 26 16        	rol	$16                     ; 0x2016 <loadGUISID+0x2d>
     6e5: 06 15        	asl	$15                     ; 0x2015 <loadGUISID+0x2c>
     6e7: 2a           	rol
     6e8: 26 16        	rol	$16                     ; 0x2016 <loadGUISID+0x2d>
     6ea: 06 15        	asl	$15                     ; 0x2015 <loadGUISID+0x2c>
     6ec: 2a           	rol
     6ed: 26 16        	rol	$16                     ; 0x2016 <loadGUISID+0x2d>
     6ef: 85 15        	sta	$15                     ; 0x2015 <loadGUISID+0x2c>
     6f1: 8d 00 de     	sta	$de00                   ; 0xde00 <__heap_start+0x911e>
     6f4: a5 16        	lda	$16                     ; 0x2016 <loadGUISID+0x2d>
     6f6: 8d 01 de     	sta	$de01                   ; 0xde01 <__heap_start+0x911f>
     6f9: 9c 02 de     	stz	$de02                   ; 0xde02 <__heap_start+0x9120>
     6fc: a2 20        	ldx	#$20
     6fe: 8e 03 de     	stx	$de03                   ; 0xde03 <__heap_start+0x9121>
     701: ae 10 de     	ldx	$de10                   ; 0xde10 <__heap_start+0x912e>
     704: 86 16        	stx	$16                     ; 0x2016 <loadGUISID+0x2d>
     706: ae 11 de     	ldx	$de11                   ; 0xde11 <__heap_start+0x912f>
     709: 86 18        	stx	$18                     ; 0x2018 <loadGUISID+0x2f>
     70b: ac 12 de     	ldy	$de12                   ; 0xde12 <__heap_start+0x9130>
     70e: ae 13 de     	ldx	$de13                   ; 0xde13 <__heap_start+0x9131>
     711: e4 14        	cpx	$14                     ; 0x2014 <loadGUISID+0x2b>
     713: d0 14        	bne	$729 <f256Init+0x287>
     715: c4 13        	cpy	$13                     ; 0x2013 <loadGUISID+0x2a>
     717: d0 10        	bne	$729 <f256Init+0x287>
     719: a6 18        	ldx	$18                     ; 0x2018 <loadGUISID+0x2f>
     71b: e4 12        	cpx	$12                     ; 0x2012 <loadGUISID+0x29>
     71d: d0 0a        	bne	$729 <f256Init+0x287>
     71f: a6 16        	ldx	$16                     ; 0x2016 <loadGUISID+0x2d>
     721: e4 17        	cpx	$17                     ; 0x2017 <loadGUISID+0x2e>
     723: d0 04        	bne	$729 <f256Init+0x287>
     725: a6 15        	ldx	$15                     ; 0x2015 <loadGUISID+0x2c>
     727: 80 06        	bra	$72f <f256Init+0x28d>
     729: a6 15        	ldx	$15                     ; 0x2015 <loadGUISID+0x2c>
     72b: e8           	inx
     72c: d0 01        	bne	$72f <f256Init+0x28d>
     72e: 1a           	inc
     72f: 8e 00 de     	stx	$de00                   ; 0xde00 <__heap_start+0x911e>
     732: 8d 01 de     	sta	$de01                   ; 0xde01 <__heap_start+0x911f>
     735: 9c 02 de     	stz	$de02                   ; 0xde02 <__heap_start+0x9120>
     738: a2 20        	ldx	#$20
     73a: 8e 03 de     	stx	$de03                   ; 0xde03 <__heap_start+0x9121>
     73d: ae 10 de     	ldx	$de10                   ; 0xde10 <__heap_start+0x912e>
     740: 86 12        	stx	$12                     ; 0x2012 <loadGUISID+0x29>
     742: ae 11 de     	ldx	$de11                   ; 0xde11 <__heap_start+0x912f>
     745: 86 13        	stx	$13                     ; 0x2013 <loadGUISID+0x2a>
     747: ae 12 de     	ldx	$de12                   ; 0xde12 <__heap_start+0x9130>
     74a: 86 14        	stx	$14                     ; 0x2014 <loadGUISID+0x2b>
     74c: ae 13 de     	ldx	$de13                   ; 0xde13 <__heap_start+0x9131>
     74f: 86 15        	stx	$15                     ; 0x2015 <loadGUISID+0x2c>
     751: a9 00        	lda	#$0
     753: 38           	sec
     754: e5 12        	sbc	$12                     ; 0x2012 <loadGUISID+0x29>
     756: 85 18        	sta	$18                     ; 0x2018 <loadGUISID+0x2f>
     758: a9 00        	lda	#$0
     75a: e5 13        	sbc	$13                     ; 0x2013 <loadGUISID+0x2a>
     75c: a8           	tay
     75d: a9 08        	lda	#$8
     75f: e5 14        	sbc	$14                     ; 0x2014 <loadGUISID+0x2b>
     761: aa           	tax
     762: a9 00        	lda	#$0
     764: e5 15        	sbc	$15                     ; 0x2015 <loadGUISID+0x2c>
     766: 85 17        	sta	$17                     ; 0x2017 <loadGUISID+0x2e>
     768: 8c 44 4a     	sty	$4a44                   ; 0x4a44 <_BITMAP_BASE+0x1>
     76b: 8e 45 4a     	stx	$4a45                   ; 0x4a45 <_BITMAP_BASE+0x2>
     76e: 8d 46 4a     	sta	$4a46                   ; 0x4a46 <_BITMAP_BASE+0x3>
     771: 38           	sec
     772: a5 18        	lda	$18                     ; 0x2018 <loadGUISID+0x2f>
     774: e5 12        	sbc	$12                     ; 0x2012 <loadGUISID+0x29>
     776: 85 19        	sta	$19                     ; 0x2019 <loadGUISID+0x30>
     778: 98           	tya
     779: e5 13        	sbc	$13                     ; 0x2013 <loadGUISID+0x2a>
     77b: 85 16        	sta	$16                     ; 0x2016 <loadGUISID+0x2d>
     77d: 8a           	txa
     77e: e5 14        	sbc	$14                     ; 0x2014 <loadGUISID+0x2b>
     780: aa           	tax
     781: a5 17        	lda	$17                     ; 0x2017 <loadGUISID+0x2e>
     783: e5 15        	sbc	$15                     ; 0x2015 <loadGUISID+0x2c>
     785: 85 17        	sta	$17                     ; 0x2017 <loadGUISID+0x2e>
     787: 38           	sec
     788: a5 19        	lda	$19                     ; 0x2019 <loadGUISID+0x30>
     78a: 8d 47 4a     	sta	$4a47                   ; 0x4a47 <_BITMAP_BASE+0x4>
     78d: a4 16        	ldy	$16                     ; 0x2016 <loadGUISID+0x2d>
     78f: 8c 48 4a     	sty	$4a48                   ; 0x4a48 <_BITMAP_BASE+0x5>
     792: 8e 49 4a     	stx	$4a49                   ; 0x4a49 <_BITMAP_BASE+0x6>
     795: a4 17        	ldy	$17                     ; 0x2017 <loadGUISID+0x2e>
     797: 8c 4a 4a     	sty	$4a4a                   ; 0x4a4a <_BITMAP_BASE+0x7>
     79a: e5 12        	sbc	$12                     ; 0x2012 <loadGUISID+0x29>
     79c: a8           	tay
     79d: a5 16        	lda	$16                     ; 0x2016 <loadGUISID+0x2d>
     79f: e5 13        	sbc	$13                     ; 0x2013 <loadGUISID+0x2a>
     7a1: 85 12        	sta	$12                     ; 0x2012 <loadGUISID+0x29>
     7a3: 8a           	txa
     7a4: e5 14        	sbc	$14                     ; 0x2014 <loadGUISID+0x2b>
     7a6: 85 14        	sta	$14                     ; 0x2014 <loadGUISID+0x2b>
     7a8: a5 17        	lda	$17                     ; 0x2017 <loadGUISID+0x2e>
     7aa: e5 15        	sbc	$15                     ; 0x2015 <loadGUISID+0x2c>
     7ac: 8c 4b 4a     	sty	$4a4b                   ; 0x4a4b <_BITMAP_BASE+0x8>
     7af: a4 12        	ldy	$12                     ; 0x2012 <loadGUISID+0x29>
     7b1: 8c 4c 4a     	sty	$4a4c                   ; 0x4a4c <_BITMAP_BASE+0x9>
     7b4: a6 14        	ldx	$14                     ; 0x2014 <loadGUISID+0x2b>
     7b6: 8e 4d 4a     	stx	$4a4d                   ; 0x4a4d <_BITMAP_BASE+0xa>
     7b9: a6 18        	ldx	$18                     ; 0x2018 <loadGUISID+0x2f>
     7bb: 8e 43 4a     	stx	$4a43                   ; 0x4a43 <_BITMAP_BASE>
     7be: 8d 4e 4a     	sta	$4a4e                   ; 0x4a4e <_BITMAP_BASE+0xb>
     7c1: 64 4b        	stz	$4b                     ; 0x204b <loadGUISID+0x62>
     7c3: 8e 01 d1     	stx	$d101                   ; 0xd101 <__heap_start+0x841f>
     7c6: ae 44 4a     	ldx	$4a44                   ; 0x4a44 <_BITMAP_BASE+0x1>
     7c9: 8e 02 d1     	stx	$d102                   ; 0xd102 <__heap_start+0x8420>
     7cc: ae 45 4a     	ldx	$4a45                   ; 0x4a45 <_BITMAP_BASE+0x2>
     7cf: 8e 03 d1     	stx	$d103                   ; 0xd103 <__heap_start+0x8421>
     7d2: ae 47 4a     	ldx	$4a47                   ; 0x4a47 <_BITMAP_BASE+0x4>
     7d5: 8e 09 d1     	stx	$d109                   ; 0xd109 <__heap_start+0x8427>
     7d8: ae 48 4a     	ldx	$4a48                   ; 0x4a48 <_BITMAP_BASE+0x5>
     7db: 8e 0a d1     	stx	$d10a                   ; 0xd10a <__heap_start+0x8428>
     7de: ae 49 4a     	ldx	$4a49                   ; 0x4a49 <_BITMAP_BASE+0x6>
     7e1: 8e 0b d1     	stx	$d10b                   ; 0xd10b <__heap_start+0x8429>
     7e4: ae 4b 4a     	ldx	$4a4b                   ; 0x4a4b <_BITMAP_BASE+0x8>
     7e7: 8e 11 d1     	stx	$d111                   ; 0xd111 <__heap_start+0x842f>
     7ea: ae 4c 4a     	ldx	$4a4c                   ; 0x4a4c <_BITMAP_BASE+0x9>
     7ed: 8e 12 d1     	stx	$d112                   ; 0xd112 <__heap_start+0x8430>
     7f0: ae 4d 4a     	ldx	$4a4d                   ; 0x4a4d <_BITMAP_BASE+0xa>
     7f3: 8e 13 d1     	stx	$d113                   ; 0xd113 <__heap_start+0x8431>
     7f6: 9c 00 d1     	stz	$d100                   ; 0xd100 <__heap_start+0x841e>
     7f9: 9c 08 d1     	stz	$d108                   ; 0xd108 <__heap_start+0x8426>
     7fc: 9c 10 d1     	stz	$d110                   ; 0xd110 <__heap_start+0x842e>
     7ff: a2 10        	ldx	#$10
     801: 8e 00 d2     	stx	$d200                   ; 0xd200 <__heap_start+0x851e>
     804: 8e 0c d2     	stx	$d20c                   ; 0xd20c <__heap_start+0x852a>
     807: 8e 18 d2     	stx	$d218                   ; 0xd218 <__heap_start+0x8536>
     80a: a0 d9        	ldy	#$d9
     80c: 64 12        	stz	$12                     ; 0x2012 <loadGUISID+0x29>
     80e: a2 00        	ldx	#$0
     810: 84 13        	sty	$13                     ; 0x2013 <loadGUISID+0x2a>
     812: bd 4f 4a     	lda	$4a4f,x                 ; 0x4a4f <_spriteCtl>
     815: 92 12        	sta	($12)                   ; 0x2012 <loadGUISID+0x29>
     817: a5 12        	lda	$12                     ; 0x2012 <loadGUISID+0x29>
     819: e8           	inx
     81a: 18           	clc
     81b: 69 08        	adc	#$8
     81d: 85 12        	sta	$12                     ; 0x2012 <loadGUISID+0x29>
     81f: 98           	tya
     820: 69 00        	adc	#$0
     822: a8           	tay
     823: e0 40        	cpx	#$40
     825: d0 e9        	bne	$810 <f256Init+0x36e>
     827: a2 7e        	ldx	#$7e
     829: a0 00        	ldy	#$0
     82b: 86 fb        	stx	$fb                     ; 0x20fb <loadGUISID+0x112>
     82d: 84 fc        	sty	$fc                     ; 0x20fc <loadGUISID+0x113>
     82f: a2 08        	ldx	#$8
     831: 86 fd        	stx	$fd                     ; 0x20fd <loadGUISID+0x114>
     833: a2 86        	ldx	#$86
     835: a0 00        	ldy	#$0
     837: 86 12        	stx	$12                     ; 0x2012 <loadGUISID+0x29>
     839: 84 13        	sty	$13                     ; 0x2013 <loadGUISID+0x2a>
     83b: a2 42        	ldx	#$42
     83d: 86 14        	stx	$14                     ; 0x2014 <loadGUISID+0x2b>
     83f: a2 4a        	ldx	#$4a
     841: 86 15        	stx	$15                     ; 0x2015 <loadGUISID+0x2c>
     843: 20 dc ff     	jsr	$ffdc <__heap_start+0xb2fa>
     846: 92 12        	sta	($12)                   ; 0x2012 <loadGUISID+0x29>
     848: a9 00        	lda	#$0
     84a: 6a           	ror
     84b: 85 14        	sta	$14                     ; 0x2014 <loadGUISID+0x2b>
     84d: a6 84        	ldx	$84                     ; 0x2084 <loadGUISID+0x9b>
     84f: a4 85        	ldy	$85                     ; 0x2085 <loadGUISID+0x9c>
     851: 8e 00 de     	stx	$de00                   ; 0xde00 <__heap_start+0x911e>
     854: 9c 01 de     	stz	$de01                   ; 0xde01 <__heap_start+0x911f>
     857: 8c 02 de     	sty	$de02                   ; 0xde02 <__heap_start+0x9120>
     85a: 9c 03 de     	stz	$de03                   ; 0xde03 <__heap_start+0x9121>
     85d: ae 10 de     	ldx	$de10                   ; 0xde10 <__heap_start+0x912e>
     860: ac 11 de     	ldy	$de11                   ; 0xde11 <__heap_start+0x912f>
     863: ad 12 de     	lda	$de12                   ; 0xde12 <__heap_start+0x9130>
     866: ad 13 de     	lda	$de13                   ; 0xde13 <__heap_start+0x9131>
     869: 8e a4 d6     	stx	$d6a4                   ; 0xd6a4 <__heap_start+0x89c2>
     86c: 8c a5 d6     	sty	$d6a5                   ; 0xd6a5 <__heap_start+0x89c3>
     86f: a2 03        	ldx	#$3
     871: 8e a6 d6     	stx	$d6a6                   ; 0xd6a6 <__heap_start+0x89c4>
     874: 60           	rts

00000875 <main>:
     875: 20 a2 04     	jsr	$4a2 <f256Init>
     878: 20 7b 08     	jsr	$87b <f256main>

0000087b <f256main>:
     87b: 18           	clc
     87c: a5 10        	lda	$10                     ; 0x2010 <loadGUISID+0x27>
     87e: 69 ed        	adc	#$ed
     880: 85 10        	sta	$10                     ; 0x2010 <loadGUISID+0x27>
     882: a5 11        	lda	$11                     ; 0x2011 <loadGUISID+0x28>
     884: 69 ff        	adc	#$ff
     886: 85 11        	sta	$11                     ; 0x2011 <loadGUISID+0x28>
     888: a2 80        	ldx	#$80
     88a: 86 24        	stx	$24                     ; 0x2024 <loadGUISID+0x3b>
     88c: a2 d5        	ldx	#$d5
     88e: 86 25        	stx	$25                     ; 0x2025 <loadGUISID+0x3c>
     890: a2 82        	ldx	#$82
     892: 86 2a        	stx	$2a                     ; 0x202a <loadGUISID+0x41>
     894: a2 d5        	ldx	#$d5
     896: 86 2b        	stx	$2b                     ; 0x202b <loadGUISID+0x42>
     898: a2 00        	ldx	#$0
     89a: 64 01        	stz	$1                      ; 0x2001 <loadGUISID+0x18>
     89c: a0 2f        	ldy	#$2f
     89e: 8c 00 d0     	sty	$d000                   ; 0xd000 <__heap_start+0x831e>
     8a1: a0 04        	ldy	#$4
     8a3: 8c 01 d0     	sty	$d001                   ; 0xd001 <__heap_start+0x831f>
     8a6: a0 01        	ldy	#$1
     8a8: 8c 02 d0     	sty	$d002                   ; 0xd002 <__heap_start+0x8320>
     8ab: a9 02        	lda	#$2
     8ad: 8d 03 d0     	sta	$d003                   ; 0xd003 <__heap_start+0x8321>
     8b0: 9c 0d d0     	stz	$d00d                   ; 0xd00d <__heap_start+0x832b>
     8b3: 9c 0e d0     	stz	$d00e                   ; 0xd00e <__heap_start+0x832c>
     8b6: 9c 0f d0     	stz	$d00f                   ; 0xd00f <__heap_start+0x832d>
     8b9: 84 01        	sty	$1                      ; 0x2001 <loadGUISID+0x18>
     8bb: a0 f0        	ldy	#$f0
     8bd: 86 12        	stx	$12                     ; 0x2012 <loadGUISID+0x29>
     8bf: 84 13        	sty	$13                     ; 0x2013 <loadGUISID+0x2a>
     8c1: a5 0f        	lda	$f                      ; 0x200f <loadGUISID+0x26>
     8c3: 85 15        	sta	$15                     ; 0x2015 <loadGUISID+0x2c>
     8c5: 78           	sei
     8c6: 86 14        	stx	$14                     ; 0x2014 <loadGUISID+0x2b>
     8c8: a2 0a        	ldx	#$a
     8ca: 86 0f        	stx	$f                      ; 0x200f <loadGUISID+0x26>
     8cc: a6 14        	ldx	$14                     ; 0x2014 <loadGUISID+0x2b>
     8ce: b2 12        	lda	($12)                   ; 0x2012 <loadGUISID+0x29>
     8d0: 85 14        	sta	$14                     ; 0x2014 <loadGUISID+0x2b>
     8d2: a5 15        	lda	$15                     ; 0x2015 <loadGUISID+0x2c>
     8d4: 85 0f        	sta	$f                      ; 0x200f <loadGUISID+0x26>
     8d6: 18           	clc
     8d7: 8a           	txa
     8d8: 69 00        	adc	#$0
     8da: 85 15        	sta	$15                     ; 0x2015 <loadGUISID+0x2c>
     8dc: 98           	tya
     8dd: 69 e0        	adc	#$e0
     8df: 5a           	phy
     8e0: a4 15        	ldy	$15                     ; 0x2015 <loadGUISID+0x2c>
     8e2: 84 12        	sty	$12                     ; 0x2012 <loadGUISID+0x29>
     8e4: 7a           	ply
     8e5: 58           	cli
     8e6: 85 13        	sta	$13                     ; 0x2013 <loadGUISID+0x2a>
     8e8: a5 14        	lda	$14                     ; 0x2014 <loadGUISID+0x2b>
     8ea: 92 12        	sta	($12)                   ; 0x2012 <loadGUISID+0x29>
     8ec: e8           	inx
     8ed: d0 01        	bne	$8f0 <f256main+0x75>
     8ef: c8           	iny
     8f0: c0 f3        	cpy	#$f3
     8f2: d0 c9        	bne	$8bd <f256main+0x42>
     8f4: e0 ff        	cpx	#$ff
     8f6: d0 c5        	bne	$8bd <f256main+0x42>
     8f8: a2 d4        	ldx	#$d4
     8fa: a0 00        	ldy	#$0
     8fc: 84 17        	sty	$17                     ; 0x2017 <loadGUISID+0x2e>
     8fe: 98           	tya
     8ff: 18           	clc
     900: 69 00        	adc	#$0
     902: 85 14        	sta	$14                     ; 0x2014 <loadGUISID+0x2b>
     904: 8a           	txa
     905: 69 0c        	adc	#$c
     907: 85 15        	sta	$15                     ; 0x2015 <loadGUISID+0x2c>
     909: 84 12        	sty	$12                     ; 0x2012 <loadGUISID+0x29>
     90b: 86 13        	stx	$13                     ; 0x2013 <loadGUISID+0x2a>
     90d: a4 0f        	ldy	$f                      ; 0x200f <loadGUISID+0x26>
     90f: 78           	sei
     910: a9 18        	lda	#$18
     912: 85 0f        	sta	$f                      ; 0x200f <loadGUISID+0x26>
     914: b2 14        	lda	($14)                   ; 0x2014 <loadGUISID+0x2b>
     916: 84 0f        	sty	$f                      ; 0x200f <loadGUISID+0x26>
     918: 58           	cli
     919: 92 12        	sta	($12)                   ; 0x2012 <loadGUISID+0x29>
     91b: a4 17        	ldy	$17                     ; 0x2017 <loadGUISID+0x2e>
     91d: c8           	iny
     91e: d0 01        	bne	$921 <f256main+0xa6>
     920: e8           	inx
     921: e0 d7        	cpx	#$d7
     923: d0 d7        	bne	$8fc <f256main+0x81>
     925: c0 ff        	cpy	#$ff
     927: d0 d3        	bne	$8fc <f256main+0x81>
     929: 64 01        	stz	$1                      ; 0x2001 <loadGUISID+0x18>
     92b: 64 49        	stz	$49                     ; 0x2049 <loadGUISID+0x60>
     92d: ad 00 d1     	lda	$d100                   ; 0xd100 <__heap_start+0x841e>
     930: 29 f9        	and	#$f9
     932: 8d 00 d1     	sta	$d100                   ; 0xd100 <__heap_start+0x841e>
     935: a2 03        	ldx	#$3
     937: 86 4a        	stx	$4a                     ; 0x204a <loadGUISID+0x61>
     939: 20 70 2b     	jsr	$2b70 <bitmapClear>
     93c: a2 01        	ldx	#$1
     93e: 86 49        	stx	$49                     ; 0x2049 <loadGUISID+0x60>
     940: 86 4b        	stx	$4b                     ; 0x204b <loadGUISID+0x62>
     942: ad 08 d1     	lda	$d108                   ; 0xd108 <__heap_start+0x8426>
     945: 29 f9        	and	#$f9
     947: 09 02        	ora	#$2
     949: 8d 08 d1     	sta	$d108                   ; 0xd108 <__heap_start+0x8426>
     94c: 20 70 2b     	jsr	$2b70 <bitmapClear>
     94f: 9c 47 4a     	stz	$4a47                   ; 0x4a47 <_BITMAP_BASE+0x4>
     952: a2 04        	ldx	#$4
     954: 8e 48 4a     	stx	$4a48                   ; 0x4a48 <_BITMAP_BASE+0x5>
     957: a0 03        	ldy	#$3
     959: 8c 49 4a     	sty	$4a49                   ; 0x4a49 <_BITMAP_BASE+0x6>
     95c: 9c 4a 4a     	stz	$4a4a                   ; 0x4a4a <_BITMAP_BASE+0x7>
     95f: 9c 09 d1     	stz	$d109                   ; 0xd109 <__heap_start+0x8427>
     962: 8e 0a d1     	stx	$d10a                   ; 0xd10a <__heap_start+0x8428>
     965: ca           	dex
     966: 8e 0b d1     	stx	$d10b                   ; 0xd10b <__heap_start+0x8429>
     969: a0 01        	ldy	#$1
     96b: 8c 00 d1     	sty	$d100                   ; 0xd100 <__heap_start+0x841e>
     96e: a5 4b        	lda	$4b                     ; 0x204b <loadGUISID+0x62>
     970: 29 01        	and	#$1
     972: d0 02        	bne	$976 <f256main+0xfb>
     974: a2 01        	ldx	#$1
     976: 8e 08 d1     	stx	$d108                   ; 0xd108 <__heap_start+0x8426>
     979: 9c 10 d1     	stz	$d110                   ; 0xd110 <__heap_start+0x842e>
     97c: a2 d4        	ldx	#$d4
     97e: a0 00        	ldy	#$0
     980: 98           	tya
     981: 18           	clc
     982: 69 00        	adc	#$0
     984: 85 14        	sta	$14                     ; 0x2014 <loadGUISID+0x2b>
     986: 8a           	txa
     987: 69 01        	adc	#$1
     989: 85 15        	sta	$15                     ; 0x2015 <loadGUISID+0x2c>
     98b: 84 12        	sty	$12                     ; 0x2012 <loadGUISID+0x29>
     98d: 86 13        	stx	$13                     ; 0x2013 <loadGUISID+0x2a>
     98f: a9 00        	lda	#$0
     991: 92 12        	sta	($12)                   ; 0x2012 <loadGUISID+0x29>
     993: 5a           	phy
     994: a4 14        	ldy	$14                     ; 0x2014 <loadGUISID+0x2b>
     996: 84 12        	sty	$12                     ; 0x2012 <loadGUISID+0x29>
     998: a4 15        	ldy	$15                     ; 0x2015 <loadGUISID+0x2c>
     99a: 84 13        	sty	$13                     ; 0x2013 <loadGUISID+0x2a>
     99c: 7a           	ply
     99d: 92 12        	sta	($12)                   ; 0x2012 <loadGUISID+0x29>
     99f: c8           	iny
     9a0: d0 01        	bne	$9a3 <f256main+0x128>
     9a2: e8           	inx
     9a3: c0 19        	cpy	#$19
     9a5: d0 d9        	bne	$980 <f256main+0x105>
     9a7: a2 00        	ldx	#$0
     9a9: a0 b5        	ldy	#$b5
     9ab: 84 12        	sty	$12                     ; 0x2012 <loadGUISID+0x29>
     9ad: a0 49        	ldy	#$49
     9af: 84 13        	sty	$13                     ; 0x2013 <loadGUISID+0x2a>
     9b1: a5 12        	lda	$12                     ; 0x2012 <loadGUISID+0x29>
     9b3: a0 04        	ldy	#$4
     9b5: 91 10        	sta	($10),y                 ; 0x2010 <loadGUISID+0x27>
     9b7: a5 13        	lda	$13                     ; 0x2013 <loadGUISID+0x2a>
     9b9: c8           	iny
     9ba: 91 10        	sta	($10),y                 ; 0x2010 <loadGUISID+0x27>
     9bc: 88           	dey
     9bd: b1 10        	lda	($10),y                 ; 0x2010 <loadGUISID+0x27>
     9bf: 85 12        	sta	$12                     ; 0x2012 <loadGUISID+0x29>
     9c1: c8           	iny
     9c2: b1 10        	lda	($10),y                 ; 0x2010 <loadGUISID+0x27>
     9c4: 85 13        	sta	$13                     ; 0x2013 <loadGUISID+0x2a>
     9c6: 86 26        	stx	$26                     ; 0x2026 <loadGUISID+0x3d>
     9c8: a9 00        	lda	#$0
     9ca: 20 56 33     	jsr	$3356 <sid_setInstrument>
     9cd: a0 04        	ldy	#$4
     9cf: b1 10        	lda	($10),y                 ; 0x2010 <loadGUISID+0x27>
     9d1: 85 12        	sta	$12                     ; 0x2012 <loadGUISID+0x29>
     9d3: c8           	iny
     9d4: b1 10        	lda	($10),y                 ; 0x2010 <loadGUISID+0x27>
     9d6: 85 13        	sta	$13                     ; 0x2013 <loadGUISID+0x2a>
     9d8: a6 26        	ldx	$26                     ; 0x2026 <loadGUISID+0x3d>
     9da: a9 01        	lda	#$1
     9dc: 20 56 33     	jsr	$3356 <sid_setInstrument>
     9df: a6 26        	ldx	$26                     ; 0x2026 <loadGUISID+0x3d>
     9e1: e8           	inx
     9e2: e0 03        	cpx	#$3
     9e4: d0 c3        	bne	$9a9 <f256main+0x12e>
     9e6: 9c 14 d4     	stz	$d414                   ; 0xd414 <__heap_start+0x8732>
     9e9: 9c 15 d4     	stz	$d415                   ; 0xd415 <__heap_start+0x8733>
     9ec: 9c 17 d4     	stz	$d417                   ; 0xd417 <__heap_start+0x8735>
     9ef: a2 0f        	ldx	#$f
     9f1: 8e 18 d4     	stx	$d418                   ; 0xd418 <__heap_start+0x8736>
     9f4: 9c 14 d5     	stz	$d514                   ; 0xd514 <__heap_start+0x8832>
     9f7: 9c 15 d5     	stz	$d515                   ; 0xd515 <__heap_start+0x8833>
     9fa: 9c 17 d5     	stz	$d517                   ; 0xd517 <__heap_start+0x8835>
     9fd: 8e 18 d5     	stx	$d518                   ; 0xd518 <__heap_start+0x8836>
     a00: ad a1 d6     	lda	$d6a1                   ; 0xd6a1 <__heap_start+0x89bf>
     a03: 29 f7        	and	#$f7
     a05: 8d a1 d6     	sta	$d6a1                   ; 0xd6a1 <__heap_start+0x89bf>
     a08: ad a1 d6     	lda	$d6a1                   ; 0xd6a1 <__heap_start+0x89bf>
     a0b: 29 fb        	and	#$fb
     a0d: 8d a1 d6     	sta	$d6a1                   ; 0xd6a1 <__heap_start+0x89bf>
     a10: a2 01        	ldx	#$1
     a12: 8e 80 d5     	stx	$d580                   ; 0xd580 <__heap_start+0x889e>
     a15: a0 20        	ldy	#$20
     a17: 8c 81 d5     	sty	$d581                   ; 0xd581 <__heap_start+0x889f>
     a1a: a0 02        	ldy	#$2
     a1c: 8c 80 d5     	sty	$d580                   ; 0xd580 <__heap_start+0x889e>
     a1f: 9c 81 d5     	stz	$d581                   ; 0xd581 <__heap_start+0x889f>
     a22: c8           	iny
     a23: 8c 80 d5     	sty	$d580                   ; 0xd580 <__heap_start+0x889e>
     a26: 9c 81 d5     	stz	$d581                   ; 0xd581 <__heap_start+0x889f>
     a29: c8           	iny
     a2a: 8c 82 d5     	sty	$d582                   ; 0xd582 <__heap_start+0x88a0>
     a2d: 9c 81 d5     	stz	$d581                   ; 0xd581 <__heap_start+0x889f>
     a30: c8           	iny
     a31: 8c 82 d5     	sty	$d582                   ; 0xd582 <__heap_start+0x88a0>
     a34: 8e 81 d5     	stx	$d581                   ; 0xd581 <__heap_start+0x889f>
     a37: a2 08        	ldx	#$8
     a39: 8e 80 d5     	stx	$d580                   ; 0xd580 <__heap_start+0x889e>
     a3c: 9c 81 d5     	stz	$d581                   ; 0xd581 <__heap_start+0x889f>
     a3f: a2 c0        	ldx	#$c0
     a41: a0 30        	ldy	#$30
     a43: 8e 80 d5     	stx	$d580                   ; 0xd580 <__heap_start+0x889e>
     a46: 8c 81 d5     	sty	$d581                   ; 0xd581 <__heap_start+0x889f>
     a49: e8           	inx
     a4a: e0 c9        	cpx	#$c9
     a4c: d0 f5        	bne	$a43 <f256main+0x1c8>
     a4e: a2 b0        	ldx	#$b0
     a50: 8e 80 d5     	stx	$d580                   ; 0xd580 <__heap_start+0x889e>
     a53: 9c 81 d5     	stz	$d581                   ; 0xd581 <__heap_start+0x889f>
     a56: e8           	inx
     a57: e0 b9        	cpx	#$b9
     a59: d0 f5        	bne	$a50 <f256main+0x1d5>
     a5b: a2 00        	ldx	#$0
     a5d: 4c fe 0a     	jmp	$afe <f256main+0x283>
     a60: 18           	clc
     a61: 69 05        	adc	#$5
     a63: a8           	tay
     a64: 09 20        	ora	#$20
     a66: 8d 80 d5     	sta	$d580                   ; 0xd580 <__heap_start+0x889e>
     a69: a9 c0        	lda	#$c0
     a6b: 8d 81 d5     	sta	$d581                   ; 0xd581 <__heap_start+0x889f>
     a6e: 98           	tya
     a6f: 18           	clc
     a70: 69 03        	adc	#$3
     a72: c0 fd        	cpy	#$fd
     a74: 85 15        	sta	$15                     ; 0x2015 <loadGUISID+0x2c>
     a76: 09 20        	ora	#$20
     a78: 5a           	phy
     a79: a0 80        	ldy	#$80
     a7b: 84 12        	sty	$12                     ; 0x2012 <loadGUISID+0x29>
     a7d: a0 d5        	ldy	#$d5
     a7f: 84 13        	sty	$13                     ; 0x2013 <loadGUISID+0x2a>
     a81: 7a           	ply
     a82: 90 0a        	bcc	$a8e <f256main+0x213>
     a84: 5a           	phy
     a85: a0 82        	ldy	#$82
     a87: 84 12        	sty	$12                     ; 0x2012 <loadGUISID+0x29>
     a89: a0 d5        	ldy	#$d5
     a8b: 84 13        	sty	$13                     ; 0x2013 <loadGUISID+0x2a>
     a8d: 7a           	ply
     a8e: 92 12        	sta	($12)                   ; 0x2012 <loadGUISID+0x29>
     a90: a9 21        	lda	#$21
     a92: 8d 81 d5     	sta	$d581                   ; 0xd581 <__heap_start+0x889f>
     a95: 98           	tya
     a96: 09 40        	ora	#$40
     a98: 8d 80 d5     	sta	$d580                   ; 0xd580 <__heap_start+0x889e>
     a9b: a9 15        	lda	#$15
     a9d: 8d 81 d5     	sta	$d581                   ; 0xd581 <__heap_start+0x889f>
     aa0: a5 15        	lda	$15                     ; 0x2015 <loadGUISID+0x2c>
     aa2: 09 40        	ora	#$40
     aa4: 92 12        	sta	($12)                   ; 0x2012 <loadGUISID+0x29>
     aa6: a9 01        	lda	#$1
     aa8: 8d 81 d5     	sta	$d581                   ; 0xd581 <__heap_start+0x889f>
     aab: 98           	tya
     aac: 09 60        	ora	#$60
     aae: 8d 80 d5     	sta	$d580                   ; 0xd580 <__heap_start+0x889e>
     ab1: a9 f2        	lda	#$f2
     ab3: 8d 81 d5     	sta	$d581                   ; 0xd581 <__heap_start+0x889f>
     ab6: a5 15        	lda	$15                     ; 0x2015 <loadGUISID+0x2c>
     ab8: 09 60        	ora	#$60
     aba: 92 12        	sta	($12)                   ; 0x2012 <loadGUISID+0x29>
     abc: a9 f4        	lda	#$f4
     abe: 8d 81 d5     	sta	$d581                   ; 0xd581 <__heap_start+0x889f>
     ac1: 98           	tya
     ac2: 09 80        	ora	#$80
     ac4: 8d 80 d5     	sta	$d580                   ; 0xd580 <__heap_start+0x889e>
     ac7: a9 40        	lda	#$40
     ac9: 8d 81 d5     	sta	$d581                   ; 0xd581 <__heap_start+0x889f>
     acc: a5 15        	lda	$15                     ; 0x2015 <loadGUISID+0x2c>
     ace: 09 80        	ora	#$80
     ad0: 92 12        	sta	($12)                   ; 0x2012 <loadGUISID+0x29>
     ad2: a9 25        	lda	#$25
     ad4: 8d 81 d5     	sta	$d581                   ; 0xd581 <__heap_start+0x889f>
     ad7: 98           	tya
     ad8: 09 e0        	ora	#$e0
     ada: 8d 80 d5     	sta	$d580                   ; 0xd580 <__heap_start+0x889e>
     add: a9 07        	lda	#$7
     adf: 8d 81 d5     	sta	$d581                   ; 0xd581 <__heap_start+0x889f>
     ae2: a5 15        	lda	$15                     ; 0x2015 <loadGUISID+0x2c>
     ae4: 09 e0        	ora	#$e0
     ae6: 92 12        	sta	($12)                   ; 0x2012 <loadGUISID+0x29>
     ae8: 8a           	txa
     ae9: 18           	clc
     aea: 69 c0        	adc	#$c0
     aec: a0 04        	ldy	#$4
     aee: 8c 81 d5     	sty	$d581                   ; 0xd581 <__heap_start+0x889f>
     af1: 8d 80 d5     	sta	$d580                   ; 0xd580 <__heap_start+0x889e>
     af4: a0 30        	ldy	#$30
     af6: 8c 81 d5     	sty	$d581                   ; 0xd581 <__heap_start+0x889f>
     af9: e8           	inx
     afa: e0 09        	cpx	#$9
     afc: f0 16        	beq	$b14 <f256main+0x299>
     afe: e0 03        	cpx	#$3
     b00: 8a           	txa
     b01: b0 03        	bcs	$b06 <f256main+0x28b>
     b03: 4c 63 0a     	jmp	$a63 <f256main+0x1e8>
     b06: 8a           	txa
     b07: e0 06        	cpx	#$6
     b09: b0 03        	bcs	$b0e <f256main+0x293>
     b0b: 4c 60 0a     	jmp	$a60 <f256main+0x1e5>
     b0e: 18           	clc
     b0f: 69 0a        	adc	#$a
     b11: 4c 63 0a     	jmp	$a63 <f256main+0x1e8>
     b14: a2 01        	ldx	#$1
     b16: 8e e0 d6     	stx	$d6e0                   ; 0xd6e0 <__heap_start+0x89fe>
     b19: 9c e2 d6     	stz	$d6e2                   ; 0xd6e2 <__heap_start+0x8a00>
     b1c: 8e e3 d6     	stx	$d6e3                   ; 0xd6e3 <__heap_start+0x8a01>
     b1f: 9c e4 d6     	stz	$d6e4                   ; 0xd6e4 <__heap_start+0x8a02>
     b22: 8e e5 d6     	stx	$d6e5                   ; 0xd6e5 <__heap_start+0x8a03>
     b25: a9 11        	lda	#$11
     b27: ca           	dex
     b28: 20 f9 41     	jsr	$41f9 <malloc>
     b2b: a6 12        	ldx	$12                     ; 0x2012 <loadGUISID+0x29>
     b2d: a4 13        	ldy	$13                     ; 0x2013 <loadGUISID+0x2a>
     b2f: 86 7c        	stx	$7c                     ; 0x207c <loadGUISID+0x93>
     b31: 84 7d        	sty	$7d                     ; 0x207d <loadGUISID+0x94>
     b33: a9 00        	lda	#$0
     b35: 92 12        	sta	($12)                   ; 0x2012 <loadGUISID+0x29>
     b37: a0 01        	ldy	#$1
     b39: 91 12        	sta	($12),y                 ; 0x2012 <loadGUISID+0x29>
     b3b: c8           	iny
     b3c: 91 12        	sta	($12),y                 ; 0x2012 <loadGUISID+0x29>
     b3e: c8           	iny
     b3f: 91 12        	sta	($12),y                 ; 0x2012 <loadGUISID+0x29>
     b41: aa           	tax
     b42: a9 09        	lda	#$9
     b44: 20 f9 41     	jsr	$41f9 <malloc>
     b47: a5 7c        	lda	$7c                     ; 0x207c <loadGUISID+0x93>
     b49: a6 7d        	ldx	$7d                     ; 0x207d <loadGUISID+0x94>
     b4b: 85 14        	sta	$14                     ; 0x2014 <loadGUISID+0x2b>
     b4d: 86 15        	stx	$15                     ; 0x2015 <loadGUISID+0x2c>
     b4f: 18           	clc
     b50: 69 04        	adc	#$4
     b52: 85 16        	sta	$16                     ; 0x2016 <loadGUISID+0x2d>
     b54: 8a           	txa
     b55: 69 00        	adc	#$0
     b57: 85 17        	sta	$17                     ; 0x2017 <loadGUISID+0x2e>
     b59: a5 12        	lda	$12                     ; 0x2012 <loadGUISID+0x29>
     b5b: a0 04        	ldy	#$4
     b5d: 91 14        	sta	($14),y                 ; 0x2014 <loadGUISID+0x2b>
     b5f: a0 01        	ldy	#$1
     b61: a5 13        	lda	$13                     ; 0x2013 <loadGUISID+0x2a>
     b63: 91 16        	sta	($16),y                 ; 0x2016 <loadGUISID+0x2d>
     b65: 98           	tya
     b66: a0 03        	ldy	#$3
     b68: 91 14        	sta	($14),y                 ; 0x2014 <loadGUISID+0x2b>
     b6a: a9 0f        	lda	#$f
     b6c: 92 12        	sta	($12)                   ; 0x2012 <loadGUISID+0x29>
     b6e: a9 88        	lda	#$88
     b70: a0 01        	ldy	#$1
     b72: 91 12        	sta	($12),y                 ; 0x2012 <loadGUISID+0x29>
     b74: a9 02        	lda	#$2
     b76: a8           	tay
     b77: 91 12        	sta	($12),y                 ; 0x2012 <loadGUISID+0x29>
     b79: a9 19        	lda	#$19
     b7b: c8           	iny
     b7c: 91 12        	sta	($12),y                 ; 0x2012 <loadGUISID+0x29>
     b7e: a9 23        	lda	#$23
     b80: c8           	iny
     b81: 91 12        	sta	($12),y                 ; 0x2012 <loadGUISID+0x29>
     b83: c8           	iny
     b84: a9 20        	lda	#$20
     b86: 91 12        	sta	($12),y                 ; 0x2012 <loadGUISID+0x29>
     b88: a0 07        	ldy	#$7
     b8a: a9 00        	lda	#$0
     b8c: 91 12        	sta	($12),y                 ; 0x2012 <loadGUISID+0x29>
     b8e: c8           	iny
     b8f: 91 12        	sta	($12),y                 ; 0x2012 <loadGUISID+0x29>
     b91: a0 06        	ldy	#$6
     b93: 91 12        	sta	($12),y                 ; 0x2012 <loadGUISID+0x29>
     b95: 20 e9 1f     	jsr	$1fe9 <loadGUISID>
     b98: a2 ff        	ldx	#$ff
     b9a: 86 4e        	stx	$4e                     ; 0x204e <loadGUISID+0x65>
     b9c: 64 53        	stz	$53                     ; 0x2053 <loadGUISID+0x6a>
     b9e: 64 54        	stz	$54                     ; 0x2054 <loadGUISID+0x6b>
     ba0: 64 55        	stz	$55                     ; 0x2055 <loadGUISID+0x6c>
     ba2: 86 56        	stx	$56                     ; 0x2056 <loadGUISID+0x6d>
     ba4: 64 5b        	stz	$5b                     ; 0x205b <loadGUISID+0x72>
     ba6: 64 5c        	stz	$5c                     ; 0x205c <loadGUISID+0x73>
     ba8: 64 5d        	stz	$5d                     ; 0x205d <loadGUISID+0x74>
     baa: 38           	sec
     bab: a9 01        	lda	#$1
     bad: a0 02        	ldy	#$2
     baf: 91 10        	sta	($10),y                 ; 0x2010 <loadGUISID+0x27>
     bb1: a2 42        	ldx	#$42
     bb3: 86 2a        	stx	$2a                     ; 0x202a <loadGUISID+0x41>
     bb5: a2 4a        	ldx	#$4a
     bb7: 86 2b        	stx	$2b                     ; 0x202b <loadGUISID+0x42>
     bb9: 64 12        	stz	$12                     ; 0x2012 <loadGUISID+0x29>
     bbb: 3a           	dec
     bbc: 88           	dey
     bbd: 91 10        	sta	($10),y                 ; 0x2010 <loadGUISID+0x27>
     bbf: 64 2e        	stz	$2e                     ; 0x202e <loadGUISID+0x45>
     bc1: a0 03        	ldy	#$3
     bc3: 91 10        	sta	($10),y                 ; 0x2010 <loadGUISID+0x27>
     bc5: a2 90        	ldx	#$90
     bc7: 8a           	txa
     bc8: a0 00        	ldy	#$0
     bca: 91 10        	sta	($10),y                 ; 0x2010 <loadGUISID+0x27>
     bcc: ad a0 dd     	lda	$dda0                   ; 0xdda0 <__heap_start+0x90be>
     bcf: 29 02        	and	#$2
     bd1: f0 03        	beq	$bd6 <f256main+0x35b>
     bd3: 4c f7 0d     	jmp	$df7 <f256main+0x57c>
     bd6: ae a2 dd     	ldx	$dda2                   ; 0xdda2 <__heap_start+0x90c0>
     bd9: 86 2c        	stx	$2c                     ; 0x202c <loadGUISID+0x43>
     bdb: ad a3 dd     	lda	$dda3                   ; 0xdda3 <__heap_start+0x90c1>
     bde: 29 0f        	and	#$f
     be0: 85 2d        	sta	$2d                     ; 0x202d <loadGUISID+0x44>
     be2: a5 2d        	lda	$2d                     ; 0x202d <loadGUISID+0x44>
     be4: d0 07        	bne	$bed <f256main+0x372>
     be6: a5 2c        	lda	$2c                     ; 0x202c <loadGUISID+0x43>
     be8: d0 03        	bne	$bed <f256main+0x372>
     bea: 4c f7 0d     	jmp	$df7 <f256main+0x57c>
     bed: a2 00        	ldx	#$0
     bef: a0 00        	ldy	#$0
     bf1: a5 2e        	lda	$2e                     ; 0x202e <loadGUISID+0x45>
     bf3: 5a           	phy
     bf4: a0 04        	ldy	#$4
     bf6: 91 10        	sta	($10),y                 ; 0x2010 <loadGUISID+0x27>
     bf8: 7a           	ply
     bf9: ad a1 dd     	lda	$dda1                   ; 0xdda1 <__heap_start+0x90bf>
     bfc: c9 fe        	cmp	#$fe
     bfe: d0 03        	bne	$c03 <f256main+0x388>
     c00: 4c 67 0d     	jmp	$d67 <f256main+0x4ec>
     c03: 86 26        	stx	$26                     ; 0x2026 <loadGUISID+0x3d>
     c05: 84 27        	sty	$27                     ; 0x2027 <loadGUISID+0x3e>
     c07: 48           	pha
     c08: 5a           	phy
     c09: a0 04        	ldy	#$4
     c0b: b1 10        	lda	($10),y                 ; 0x2010 <loadGUISID+0x27>
     c0d: 7a           	ply
     c0e: aa           	tax
     c0f: 68           	pla
     c10: e0 00        	cpx	#$0
     c12: d0 03        	bne	$c17 <f256main+0x39c>
     c14: 4c cc 0c     	jmp	$ccc <f256main+0x451>
     c17: a6 7c        	ldx	$7c                     ; 0x207c <loadGUISID+0x93>
     c19: a4 7d        	ldy	$7d                     ; 0x207d <loadGUISID+0x94>
     c1b: 86 12        	stx	$12                     ; 0x2012 <loadGUISID+0x29>
     c1d: 84 13        	sty	$13                     ; 0x2013 <loadGUISID+0x2a>
     c1f: b2 12        	lda	($12)                   ; 0x2012 <loadGUISID+0x29>
     c21: 85 14        	sta	$14                     ; 0x2014 <loadGUISID+0x2b>
     c23: a0 03        	ldy	#$3
     c25: b1 12        	lda	($12),y                 ; 0x2012 <loadGUISID+0x29>
     c27: 48           	pha
     c28: b1 10        	lda	($10),y                 ; 0x2010 <loadGUISID+0x27>
     c2a: aa           	tax
     c2b: 68           	pla
     c2c: e0 00        	cpx	#$0
     c2e: f0 07        	beq	$c37 <f256main+0x3bc>
     c30: a6 2f        	ldx	$2f                     ; 0x202f <loadGUISID+0x46>
     c32: d0 03        	bne	$c37 <f256main+0x3bc>
     c34: 4c 36 0d     	jmp	$d36 <f256main+0x4bb>
     c37: c9 05        	cmp	#$5
     c39: a4 27        	ldy	$27                     ; 0x2027 <loadGUISID+0x3e>
     c3b: b0 34        	bcs	$c71 <f256main+0x3f6>
     c3d: 85 12        	sta	$12                     ; 0x2012 <loadGUISID+0x29>
     c3f: 06 12        	asl	$12                     ; 0x2012 <loadGUISID+0x29>
     c41: a6 12        	ldx	$12                     ; 0x2012 <loadGUISID+0x29>
     c43: 7c 4c 47     	jmp	($474c,x)               ; 0x474c <__set_v+0x1>
     c46: 48           	pha
     c47: 5a           	phy
     c48: a0 03        	ldy	#$3
     c4a: b1 10        	lda	($10),y                 ; 0x2010 <loadGUISID+0x27>
     c4c: 7a           	ply
     c4d: aa           	tax
     c4e: 68           	pla
     c4f: e0 00        	cpx	#$0
     c51: d0 03        	bne	$c56 <f256main+0x3db>
     c53: 4c 3e 15     	jmp	$153e <f256main+0xcc3>
     c56: c9 04        	cmp	#$4
     c58: f0 03        	beq	$c5d <f256main+0x3e2>
     c5a: 4c 74 15     	jmp	$1574 <f256main+0xcf9>
     c5d: 4c 5e 15     	jmp	$155e <f256main+0xce3>
     c60: 86 2e        	stx	$2e                     ; 0x202e <loadGUISID+0x45>
     c62: b5 73        	lda	$73,x                   ; 0x2073 <loadGUISID+0x8a>
     c64: aa           	tax
     c65: d0 03        	bne	$c6a <f256main+0x3ef>
     c67: 4c 2f 16     	jmp	$162f <f256main+0xdb4>
     c6a: a6 2e        	ldx	$2e                     ; 0x202e <loadGUISID+0x45>
     c6c: e8           	inx
     c6d: e0 09        	cpx	#$9
     c6f: d0 ef        	bne	$c60 <f256main+0x3e5>
     c71: 64 12        	stz	$12                     ; 0x2012 <loadGUISID+0x29>
     c73: a9 00        	lda	#$0
     c75: 5a           	phy
     c76: a0 04        	ldy	#$4
     c78: 4c 62 0d     	jmp	$d62 <f256main+0x4e7>
     c7b: b4 67        	ldy	$67,x                   ; 0x2067 <loadGUISID+0x7e>
     c7d: d0 03        	bne	$c82 <f256main+0x407>
     c7f: 4c c1 16     	jmp	$16c1 <f256main+0xe46>
     c82: e8           	inx
     c83: e0 06        	cpx	#$6
     c85: d0 f4        	bne	$c7b <f256main+0x400>
     c87: 4c 38 0d     	jmp	$d38 <f256main+0x4bd>
     c8a: b4 6d        	ldy	$6d,x                   ; 0x206d <loadGUISID+0x84>
     c8c: d0 03        	bne	$c91 <f256main+0x416>
     c8e: 4c 3c 17     	jmp	$173c <f256main+0xec1>
     c91: e8           	inx
     c92: e0 06        	cpx	#$6
     c94: d0 f4        	bne	$c8a <f256main+0x40f>
     c96: 4c 38 0d     	jmp	$d38 <f256main+0x4bd>
     c99: b4 73        	ldy	$73,x                   ; 0x2073 <loadGUISID+0x8a>
     c9b: c4 12        	cpy	$12                     ; 0x2012 <loadGUISID+0x29>
     c9d: d0 03        	bne	$ca2 <f256main+0x427>
     c9f: 4c 4b 19     	jmp	$194b <f256main+0x10d0>
     ca2: e8           	inx
     ca3: e0 09        	cpx	#$9
     ca5: d0 f2        	bne	$c99 <f256main+0x41e>
     ca7: 4c 49 19     	jmp	$1949 <f256main+0x10ce>
     caa: b4 67        	ldy	$67,x                   ; 0x2067 <loadGUISID+0x7e>
     cac: c4 12        	cpy	$12                     ; 0x2012 <loadGUISID+0x29>
     cae: d0 03        	bne	$cb3 <f256main+0x438>
     cb0: 4c 23 19     	jmp	$1923 <f256main+0x10a8>
     cb3: e8           	inx
     cb4: e0 06        	cpx	#$6
     cb6: d0 f2        	bne	$caa <f256main+0x42f>
     cb8: 4c f3 19     	jmp	$19f3 <f256main+0x1178>
     cbb: b4 6d        	ldy	$6d,x                   ; 0x206d <loadGUISID+0x84>
     cbd: c4 12        	cpy	$12                     ; 0x2012 <loadGUISID+0x29>
     cbf: d0 03        	bne	$cc4 <f256main+0x449>
     cc1: 4c 33 19     	jmp	$1933 <f256main+0x10b8>
     cc4: e8           	inx
     cc5: e0 06        	cpx	#$6
     cc7: d0 f2        	bne	$cbb <f256main+0x440>
     cc9: 4c fd 19     	jmp	$19fd <f256main+0x1182>
     ccc: 85 16        	sta	$16                     ; 0x2016 <loadGUISID+0x2d>
     cce: 5a           	phy
     ccf: a0 01        	ldy	#$1
     cd1: b1 10        	lda	($10),y                 ; 0x2010 <loadGUISID+0x27>
     cd3: 7a           	ply
     cd4: aa           	tax
     cd5: d0 03        	bne	$cda <f256main+0x45f>
     cd7: 4c 46 0d     	jmp	$d46 <f256main+0x4cb>
     cda: a5 16        	lda	$16                     ; 0x2016 <loadGUISID+0x2d>
     cdc: 18           	clc
     cdd: 69 ec        	adc	#$ec
     cdf: 48           	pha
     ce0: a0 03        	ldy	#$3
     ce2: b1 10        	lda	($10),y                 ; 0x2010 <loadGUISID+0x27>
     ce4: aa           	tax
     ce5: 68           	pla
     ce6: e0 00        	cpx	#$0
     ce8: d0 03        	bne	$ced <f256main+0x472>
     cea: 4c c7 0d     	jmp	$dc7 <f256main+0x54c>
     ced: a6 16        	ldx	$16                     ; 0x2016 <loadGUISID+0x2d>
     cef: 86 2f        	stx	$2f                     ; 0x202f <loadGUISID+0x46>
     cf1: 0a           	asl
     cf2: 64 12        	stz	$12                     ; 0x2012 <loadGUISID+0x29>
     cf4: 26 12        	rol	$12                     ; 0x2012 <loadGUISID+0x29>
     cf6: 0a           	asl
     cf7: 85 13        	sta	$13                     ; 0x2013 <loadGUISID+0x2a>
     cf9: 26 12        	rol	$12                     ; 0x2012 <loadGUISID+0x29>
     cfb: a9 00        	lda	#$0
     cfd: 18           	clc
     cfe: 65 13        	adc	$13                     ; 0x2013 <loadGUISID+0x2a>
     d00: 85 14        	sta	$14                     ; 0x2014 <loadGUISID+0x2b>
     d02: a9 d4        	lda	#$d4
     d04: 65 12        	adc	$12                     ; 0x2012 <loadGUISID+0x29>
     d06: a6 01        	ldx	$1                      ; 0x2001 <loadGUISID+0x18>
     d08: a0 01        	ldy	#$1
     d0a: 84 01        	sty	$1                      ; 0x2001 <loadGUISID+0x18>
     d0c: 48           	pha
     d0d: a5 14        	lda	$14                     ; 0x2014 <loadGUISID+0x2b>
     d0f: 85 12        	sta	$12                     ; 0x2012 <loadGUISID+0x29>
     d11: 68           	pla
     d12: 85 13        	sta	$13                     ; 0x2013 <loadGUISID+0x2a>
     d14: a9 ff        	lda	#$ff
     d16: 92 12        	sta	($12)                   ; 0x2012 <loadGUISID+0x29>
     d18: 1a           	inc
     d19: 91 12        	sta	($12),y                 ; 0x2012 <loadGUISID+0x29>
     d1b: c8           	iny
     d1c: 3a           	dec
     d1d: 91 12        	sta	($12),y                 ; 0x2012 <loadGUISID+0x29>
     d1f: c8           	iny
     d20: 91 12        	sta	($12),y                 ; 0x2012 <loadGUISID+0x29>
     d22: 86 01        	stx	$1                      ; 0x2001 <loadGUISID+0x18>
     d24: 64 12        	stz	$12                     ; 0x2012 <loadGUISID+0x29>
     d26: 1a           	inc
     d27: a0 01        	ldy	#$1
     d29: 91 10        	sta	($10),y                 ; 0x2010 <loadGUISID+0x27>
     d2b: a2 01        	ldx	#$1
     d2d: 8a           	txa
     d2e: a0 04        	ldy	#$4
     d30: 91 10        	sta	($10),y                 ; 0x2010 <loadGUISID+0x27>
     d32: a0 03        	ldy	#$3
     d34: 80 08        	bra	$d3e <f256main+0x4c3>
     d36: 64 2f        	stz	$2f                     ; 0x202f <loadGUISID+0x46>
     d38: 64 12        	stz	$12                     ; 0x2012 <loadGUISID+0x29>
     d3a: a9 00        	lda	#$0
     d3c: a0 04        	ldy	#$4
     d3e: 91 10        	sta	($10),y                 ; 0x2010 <loadGUISID+0x27>
     d40: a6 26        	ldx	$26                     ; 0x2026 <loadGUISID+0x3d>
     d42: a4 27        	ldy	$27                     ; 0x2027 <loadGUISID+0x3e>
     d44: 80 21        	bra	$d67 <f256main+0x4ec>
     d46: a6 16        	ldx	$16                     ; 0x2016 <loadGUISID+0x2d>
     d48: 86 14        	stx	$14                     ; 0x2014 <loadGUISID+0x2b>
     d4a: a5 16        	lda	$16                     ; 0x2016 <loadGUISID+0x2d>
     d4c: 29 f0        	and	#$f0
     d4e: c9 90        	cmp	#$90
     d50: f0 03        	beq	$d55 <f256main+0x4da>
     d52: 4c ee 0f     	jmp	$fee <f256main+0x773>
     d55: 4c 9e 15     	jmp	$159e <f256main+0xd23>
     d58: 64 12        	stz	$12                     ; 0x2012 <loadGUISID+0x29>
     d5a: 5a           	phy
     d5b: a9 00        	lda	#$0
     d5d: a0 04        	ldy	#$4
     d5f: 91 10        	sta	($10),y                 ; 0x2010 <loadGUISID+0x27>
     d61: 88           	dey
     d62: 91 10        	sta	($10),y                 ; 0x2010 <loadGUISID+0x27>
     d64: 7a           	ply
     d65: a6 26        	ldx	$26                     ; 0x2026 <loadGUISID+0x3d>
     d67: e8           	inx
     d68: d0 01        	bne	$d6b <f256main+0x4f0>
     d6a: c8           	iny
     d6b: c4 2d        	cpy	$2d                     ; 0x202d <loadGUISID+0x44>
     d6d: f0 03        	beq	$d72 <f256main+0x4f7>
     d6f: 4c f9 0b     	jmp	$bf9 <f256main+0x37e>
     d72: e4 2c        	cpx	$2c                     ; 0x202c <loadGUISID+0x43>
     d74: f0 03        	beq	$d79 <f256main+0x4fe>
     d76: 4c f9 0b     	jmp	$bf9 <f256main+0x37e>
     d79: 4c f1 0d     	jmp	$df1 <f256main+0x576>
     d7c: 06 13        	asl	$13                     ; 0x2013 <loadGUISID+0x2a>
     d7e: 85 15        	sta	$15                     ; 0x2015 <loadGUISID+0x2c>
     d80: 26 15        	rol	$15                     ; 0x2015 <loadGUISID+0x2c>
     d82: 06 14        	asl	$14                     ; 0x2014 <loadGUISID+0x2b>
     d84: 26 12        	rol	$12                     ; 0x2012 <loadGUISID+0x29>
     d86: 06 14        	asl	$14                     ; 0x2014 <loadGUISID+0x2b>
     d88: 26 12        	rol	$12                     ; 0x2012 <loadGUISID+0x29>
     d8a: 18           	clc
     d8b: a9 00        	lda	#$0
     d8d: 65 14        	adc	$14                     ; 0x2014 <loadGUISID+0x2b>
     d8f: aa           	tax
     d90: a9 d4        	lda	#$d4
     d92: 65 12        	adc	$12                     ; 0x2012 <loadGUISID+0x29>
     d94: 86 12        	stx	$12                     ; 0x2012 <loadGUISID+0x29>
     d96: 85 13        	sta	$13                     ; 0x2013 <loadGUISID+0x2a>
     d98: a6 01        	ldx	$1                      ; 0x2001 <loadGUISID+0x18>
     d9a: 84 01        	sty	$1                      ; 0x2001 <loadGUISID+0x18>
     d9c: a5 15        	lda	$15                     ; 0x2015 <loadGUISID+0x2c>
     d9e: 92 12        	sta	($12)                   ; 0x2012 <loadGUISID+0x29>
     da0: 91 12        	sta	($12),y                 ; 0x2012 <loadGUISID+0x29>
     da2: a0 02        	ldy	#$2
     da4: 91 12        	sta	($12),y                 ; 0x2012 <loadGUISID+0x29>
     da6: c8           	iny
     da7: a9 ff        	lda	#$ff
     da9: 91 12        	sta	($12),y                 ; 0x2012 <loadGUISID+0x29>
     dab: 86 01        	stx	$1                      ; 0x2001 <loadGUISID+0x18>
     dad: 64 12        	stz	$12                     ; 0x2012 <loadGUISID+0x29>
     daf: 1a           	inc
     db0: a0 01        	ldy	#$1
     db2: 91 10        	sta	($10),y                 ; 0x2010 <loadGUISID+0x27>
     db4: a2 01        	ldx	#$1
     db6: 8a           	txa
     db7: a0 04        	ldy	#$4
     db9: 91 10        	sta	($10),y                 ; 0x2010 <loadGUISID+0x27>
     dbb: a9 00        	lda	#$0
     dbd: 88           	dey
     dbe: 91 10        	sta	($10),y                 ; 0x2010 <loadGUISID+0x27>
     dc0: a6 16        	ldx	$16                     ; 0x2016 <loadGUISID+0x2d>
     dc2: 86 2f        	stx	$2f                     ; 0x202f <loadGUISID+0x46>
     dc4: 4c 40 0d     	jmp	$d40 <f256main+0x4c5>
     dc7: aa           	tax
     dc8: bc 0f 48     	ldy	$480f,x                 ; 0x480f <sidSpriteAction+0x3f>
     dcb: a2 01        	ldx	#$1
     dcd: 85 14        	sta	$14                     ; 0x2014 <loadGUISID+0x2b>
     dcf: 98           	tya
     dd0: f0 03        	beq	$dd5 <f256main+0x55a>
     dd2: 4c 8f 15     	jmp	$158f <f256main+0xd14>
     dd5: 64 12        	stz	$12                     ; 0x2012 <loadGUISID+0x29>
     dd7: a0 01        	ldy	#$1
     dd9: 64 13        	stz	$13                     ; 0x2013 <loadGUISID+0x2a>
     ddb: 8a           	txa
     ddc: d0 03        	bne	$de1 <f256main+0x566>
     dde: 4c 94 15     	jmp	$1594 <f256main+0xd19>
     de1: 46 13        	lsr	$13                     ; 0x2013 <loadGUISID+0x2a>
     de3: 64 13        	stz	$13                     ; 0x2013 <loadGUISID+0x2a>
     de5: 66 13        	ror	$13                     ; 0x2013 <loadGUISID+0x2a>
     de7: 30 03        	bmi	$dec <f256main+0x571>
     de9: 4c 99 15     	jmp	$1599 <f256main+0xd1e>
     dec: a9 ff        	lda	#$ff
     dee: 4c 7c 0d     	jmp	$d7c <f256main+0x501>
     df1: a0 04        	ldy	#$4
     df3: b1 10        	lda	($10),y                 ; 0x2010 <loadGUISID+0x27>
     df5: 85 2e        	sta	$2e                     ; 0x202e <loadGUISID+0x45>
     df7: 64 40        	stz	$40                     ; 0x2040 <loadGUISID+0x57>
     df9: 18           	clc
     dfa: a5 10        	lda	$10                     ; 0x2010 <loadGUISID+0x27>
     dfc: 69 0a        	adc	#$a
     dfe: 85 24        	sta	$24                     ; 0x2024 <loadGUISID+0x3b>
     e00: a5 11        	lda	$11                     ; 0x2011 <loadGUISID+0x28>
     e02: 69 00        	adc	#$0
     e04: 85 25        	sta	$25                     ; 0x2025 <loadGUISID+0x3c>
     e06: 20 00 ff     	jsr	$ff00 <__heap_start+0xb21e>
     e09: 92 24        	sta	($24)                   ; 0x2024 <loadGUISID+0x3b>
     e0b: a9 00        	lda	#$0
     e0d: 6a           	ror
     e0e: 85 2a        	sta	$2a                     ; 0x202a <loadGUISID+0x41>
     e10: a6 40        	ldx	$40                     ; 0x2040 <loadGUISID+0x57>
     e12: e0 0c        	cpx	#$c
     e14: f0 03        	beq	$e19 <f256main+0x59e>
     e16: 4c cc 0b     	jmp	$bcc <f256main+0x351>
     e19: ad e2 d6     	lda	$d6e2                   ; 0xd6e2 <__heap_start+0x8a00>
     e1c: ae e3 d6     	ldx	$d6e3                   ; 0xd6e3 <__heap_start+0x8a01>
     e1f: 86 14        	stx	$14                     ; 0x2014 <loadGUISID+0x2b>
     e21: a6 43        	ldx	$43                     ; 0x2043 <loadGUISID+0x5a>
     e23: 86 12        	stx	$12                     ; 0x2012 <loadGUISID+0x29>
     e25: a2 ff        	ldx	#$ff
     e27: 86 13        	stx	$13                     ; 0x2013 <loadGUISID+0x2a>
     e29: a4 12        	ldy	$12                     ; 0x2012 <loadGUISID+0x29>
     e2b: 30 02        	bmi	$e2f <f256main+0x5b4>
     e2d: 64 13        	stz	$13                     ; 0x2013 <loadGUISID+0x2a>
     e2f: 18           	clc
     e30: 65 12        	adc	$12                     ; 0x2012 <loadGUISID+0x29>
     e32: a8           	tay
     e33: a5 14        	lda	$14                     ; 0x2014 <loadGUISID+0x2b>
     e35: 65 13        	adc	$13                     ; 0x2013 <loadGUISID+0x2a>
     e37: 84 14        	sty	$14                     ; 0x2014 <loadGUISID+0x2b>
     e39: 84 5e        	sty	$5e                     ; 0x205e <loadGUISID+0x75>
     e3b: 85 15        	sta	$15                     ; 0x2015 <loadGUISID+0x2c>
     e3d: 85 5f        	sta	$5f                     ; 0x205f <loadGUISID+0x76>
     e3f: ac e4 d6     	ldy	$d6e4                   ; 0xd6e4 <__heap_start+0x8a02>
     e42: 84 16        	sty	$16                     ; 0x2016 <loadGUISID+0x2d>
     e44: ac e5 d6     	ldy	$d6e5                   ; 0xd6e5 <__heap_start+0x8a03>
     e47: 84 17        	sty	$17                     ; 0x2017 <loadGUISID+0x2e>
     e49: a4 44        	ldy	$44                     ; 0x2044 <loadGUISID+0x5b>
     e4b: 84 12        	sty	$12                     ; 0x2012 <loadGUISID+0x29>
     e4d: 86 13        	stx	$13                     ; 0x2013 <loadGUISID+0x2a>
     e4f: 30 02        	bmi	$e53 <f256main+0x5d8>
     e51: 64 13        	stz	$13                     ; 0x2013 <loadGUISID+0x2a>
     e53: 18           	clc
     e54: a5 16        	lda	$16                     ; 0x2016 <loadGUISID+0x2d>
     e56: 65 12        	adc	$12                     ; 0x2012 <loadGUISID+0x29>
     e58: a8           	tay
     e59: a5 17        	lda	$17                     ; 0x2017 <loadGUISID+0x2e>
     e5b: 65 13        	adc	$13                     ; 0x2013 <loadGUISID+0x2a>
     e5d: 84 12        	sty	$12                     ; 0x2012 <loadGUISID+0x29>
     e5f: 84 60        	sty	$60                     ; 0x2060 <loadGUISID+0x77>
     e61: 85 61        	sta	$61                     ; 0x2061 <loadGUISID+0x78>
     e63: a6 15        	ldx	$15                     ; 0x2015 <loadGUISID+0x2c>
     e65: 30 0e        	bmi	$e75 <f256main+0x5fa>
     e67: a6 15        	ldx	$15                     ; 0x2015 <loadGUISID+0x2c>
     e69: e0 02        	cpx	#$2
     e6b: d0 0e        	bne	$e7b <f256main+0x600>
     e6d: a6 14        	ldx	$14                     ; 0x2014 <loadGUISID+0x2b>
     e6f: e0 71        	cpx	#$71
     e71: b0 0c        	bcs	$e7f <f256main+0x604>
     e73: 80 16        	bra	$e8b <f256main+0x610>
     e75: a2 00        	ldx	#$0
     e77: a0 00        	ldy	#$0
     e79: 80 08        	bra	$e83 <f256main+0x608>
     e7b: e0 02        	cpx	#$2
     e7d: 90 0c        	bcc	$e8b <f256main+0x610>
     e7f: a2 70        	ldx	#$70
     e81: a0 02        	ldy	#$2
     e83: 86 14        	stx	$14                     ; 0x2014 <loadGUISID+0x2b>
     e85: 86 5e        	stx	$5e                     ; 0x205e <loadGUISID+0x75>
     e87: 84 15        	sty	$15                     ; 0x2015 <loadGUISID+0x2c>
     e89: 84 5f        	sty	$5f                     ; 0x205f <loadGUISID+0x76>
     e8b: aa           	tax
     e8c: 30 0a        	bmi	$e98 <f256main+0x61d>
     e8e: c9 01        	cmp	#$1
     e90: d0 0e        	bne	$ea0 <f256main+0x625>
     e92: a6 12        	ldx	$12                     ; 0x2012 <loadGUISID+0x29>
     e94: e0 d1        	cpx	#$d1
     e96: 80 0a        	bra	$ea2 <f256main+0x627>
     e98: a2 00        	ldx	#$0
     e9a: a0 00        	ldy	#$0
     e9c: a5 14        	lda	$14                     ; 0x2014 <loadGUISID+0x2b>
     e9e: 80 0a        	bra	$eaa <f256main+0x62f>
     ea0: c9 01        	cmp	#$1
     ea2: a5 14        	lda	$14                     ; 0x2014 <loadGUISID+0x2b>
     ea4: 90 08        	bcc	$eae <f256main+0x633>
     ea6: a2 d0        	ldx	#$d0
     ea8: a0 01        	ldy	#$1
     eaa: 86 60        	stx	$60                     ; 0x2060 <loadGUISID+0x77>
     eac: 84 61        	sty	$61                     ; 0x2061 <loadGUISID+0x78>
     eae: 8d e2 d6     	sta	$d6e2                   ; 0xd6e2 <__heap_start+0x8a00>
     eb1: a6 15        	ldx	$15                     ; 0x2015 <loadGUISID+0x2c>
     eb3: 8e e3 d6     	stx	$d6e3                   ; 0xd6e3 <__heap_start+0x8a01>
     eb6: a6 60        	ldx	$60                     ; 0x2060 <loadGUISID+0x77>
     eb8: a4 61        	ldy	$61                     ; 0x2061 <loadGUISID+0x78>
     eba: 8e e4 d6     	stx	$d6e4                   ; 0xd6e4 <__heap_start+0x8a02>
     ebd: 8c e5 d6     	sty	$d6e5                   ; 0xd6e5 <__heap_start+0x8a03>
     ec0: a5 56        	lda	$56                     ; 0x2056 <loadGUISID+0x6d>
     ec2: c9 ff        	cmp	#$ff
     ec4: d0 03        	bne	$ec9 <f256main+0x64e>
     ec6: 4c f0 11     	jmp	$11f0 <f256main+0x975>
     ec9: 0a           	asl
     eca: 64 12        	stz	$12                     ; 0x2012 <loadGUISID+0x29>
     ecc: 26 12        	rol	$12                     ; 0x2012 <loadGUISID+0x29>
     ece: 0a           	asl
     ecf: 85 13        	sta	$13                     ; 0x2013 <loadGUISID+0x2a>
     ed1: 26 12        	rol	$12                     ; 0x2012 <loadGUISID+0x29>
     ed3: 0a           	asl
     ed4: a6 12        	ldx	$12                     ; 0x2012 <loadGUISID+0x29>
     ed6: 86 14        	stx	$14                     ; 0x2014 <loadGUISID+0x2b>
     ed8: 26 14        	rol	$14                     ; 0x2014 <loadGUISID+0x2b>
     eda: 0a           	asl
     edb: 26 14        	rol	$14                     ; 0x2014 <loadGUISID+0x2b>
     edd: 0a           	asl
     ede: 26 14        	rol	$14                     ; 0x2014 <loadGUISID+0x2b>
     ee0: 38           	sec
     ee1: e5 13        	sbc	$13                     ; 0x2013 <loadGUISID+0x2a>
     ee3: 85 1a        	sta	$1a                     ; 0x201a <loadGUISID+0x31>
     ee5: 85 13        	sta	$13                     ; 0x2013 <loadGUISID+0x2a>
     ee7: a5 14        	lda	$14                     ; 0x2014 <loadGUISID+0x2b>
     ee9: e5 12        	sbc	$12                     ; 0x2012 <loadGUISID+0x29>
     eeb: 85 1b        	sta	$1b                     ; 0x201b <loadGUISID+0x32>
     eed: 85 12        	sta	$12                     ; 0x2012 <loadGUISID+0x29>
     eef: a9 37        	lda	#$37
     ef1: 18           	clc
     ef2: 65 13        	adc	$13                     ; 0x2013 <loadGUISID+0x2a>
     ef4: aa           	tax
     ef5: a9 4b        	lda	#$4b
     ef7: 65 12        	adc	$12                     ; 0x2012 <loadGUISID+0x29>
     ef9: 86 12        	stx	$12                     ; 0x2012 <loadGUISID+0x29>
     efb: 64 15        	stz	$15                     ; 0x2015 <loadGUISID+0x2c>
     efd: 85 13        	sta	$13                     ; 0x2013 <loadGUISID+0x2a>
     eff: a6 44        	ldx	$44                     ; 0x2044 <loadGUISID+0x5b>
     f01: 86 14        	stx	$14                     ; 0x2014 <loadGUISID+0x2b>
     f03: 10 08        	bpl	$f0d <f256main+0x692>
     f05: 64 17        	stz	$17                     ; 0x2017 <loadGUISID+0x2e>
     f07: a2 ff        	ldx	#$ff
     f09: 86 15        	stx	$15                     ; 0x2015 <loadGUISID+0x2c>
     f0b: 80 02        	bra	$f0f <f256main+0x694>
     f0d: 64 17        	stz	$17                     ; 0x2017 <loadGUISID+0x2e>
     f0f: a0 13        	ldy	#$13
     f11: b1 12        	lda	($12),y                 ; 0x2012 <loadGUISID+0x29>
     f13: 38           	sec
     f14: e5 14        	sbc	$14                     ; 0x2014 <loadGUISID+0x2b>
     f16: aa           	tax
     f17: a9 00        	lda	#$0
     f19: e5 15        	sbc	$15                     ; 0x2015 <loadGUISID+0x2c>
     f1b: 85 16        	sta	$16                     ; 0x2016 <loadGUISID+0x2d>
     f1d: c8           	iny
     f1e: b1 12        	lda	($12),y                 ; 0x2012 <loadGUISID+0x29>
     f20: 85 15        	sta	$15                     ; 0x2015 <loadGUISID+0x2c>
     f22: 86 14        	stx	$14                     ; 0x2014 <loadGUISID+0x2b>
     f24: e4 15        	cpx	$15                     ; 0x2015 <loadGUISID+0x2c>
     f26: a5 16        	lda	$16                     ; 0x2016 <loadGUISID+0x2d>
     f28: e9 00        	sbc	#$0
     f2a: 50 02        	bvc	$f2e <f256main+0x6b3>
     f2c: 49 80        	eor	#$80
     f2e: aa           	tax
     f2f: 10 06        	bpl	$f37 <f256main+0x6bc>
     f31: a6 15        	ldx	$15                     ; 0x2015 <loadGUISID+0x2c>
     f33: 86 14        	stx	$14                     ; 0x2014 <loadGUISID+0x2b>
     f35: 64 16        	stz	$16                     ; 0x2016 <loadGUISID+0x2d>
     f37: a6 1a        	ldx	$1a                     ; 0x201a <loadGUISID+0x31>
     f39: 86 15        	stx	$15                     ; 0x2015 <loadGUISID+0x2c>
     f3b: a6 1b        	ldx	$1b                     ; 0x201b <loadGUISID+0x32>
     f3d: 86 17        	stx	$17                     ; 0x2017 <loadGUISID+0x2e>
     f3f: a9 37        	lda	#$37
     f41: 18           	clc
     f42: 65 15        	adc	$15                     ; 0x2015 <loadGUISID+0x2c>
     f44: 85 18        	sta	$18                     ; 0x2018 <loadGUISID+0x2f>
     f46: a9 4b        	lda	#$4b
     f48: 65 17        	adc	$17                     ; 0x2017 <loadGUISID+0x2e>
     f4a: 85 19        	sta	$19                     ; 0x2019 <loadGUISID+0x30>
     f4c: a0 15        	ldy	#$15
     f4e: b1 18        	lda	($18),y                 ; 0x2018 <loadGUISID+0x2f>
     f50: a2 00        	ldx	#$0
     f52: e4 16        	cpx	$16                     ; 0x2016 <loadGUISID+0x2d>
     f54: d0 04        	bne	$f5a <f256main+0x6df>
     f56: c5 14        	cmp	$14                     ; 0x2014 <loadGUISID+0x2b>
     f58: 80 02        	bra	$f5c <f256main+0x6e1>
     f5a: e4 16        	cpx	$16                     ; 0x2016 <loadGUISID+0x2d>
     f5c: a6 14        	ldx	$14                     ; 0x2014 <loadGUISID+0x2b>
     f5e: b0 01        	bcs	$f61 <f256main+0x6e6>
     f60: aa           	tax
     f61: a9 37        	lda	#$37
     f63: 18           	clc
     f64: 65 1a        	adc	$1a                     ; 0x201a <loadGUISID+0x31>
     f66: 85 14        	sta	$14                     ; 0x2014 <loadGUISID+0x2b>
     f68: a9 4b        	lda	#$4b
     f6a: 65 1b        	adc	$1b                     ; 0x201b <loadGUISID+0x32>
     f6c: 85 15        	sta	$15                     ; 0x2015 <loadGUISID+0x2c>
     f6e: a0 13        	ldy	#$13
     f70: 8a           	txa
     f71: 91 14        	sta	($14),y                 ; 0x2014 <loadGUISID+0x2b>
     f73: 20 a0 30     	jsr	$30a0 <updateSlider>
     f76: a5 56        	lda	$56                     ; 0x2056 <loadGUISID+0x6d>
     f78: 0a           	asl
     f79: 64 12        	stz	$12                     ; 0x2012 <loadGUISID+0x29>
     f7b: 26 12        	rol	$12                     ; 0x2012 <loadGUISID+0x29>
     f7d: 0a           	asl
     f7e: 85 13        	sta	$13                     ; 0x2013 <loadGUISID+0x2a>
     f80: 26 12        	rol	$12                     ; 0x2012 <loadGUISID+0x29>
     f82: 0a           	asl
     f83: a6 12        	ldx	$12                     ; 0x2012 <loadGUISID+0x29>
     f85: 86 14        	stx	$14                     ; 0x2014 <loadGUISID+0x2b>
     f87: 26 14        	rol	$14                     ; 0x2014 <loadGUISID+0x2b>
     f89: 0a           	asl
     f8a: 26 14        	rol	$14                     ; 0x2014 <loadGUISID+0x2b>
     f8c: 0a           	asl
     f8d: 26 14        	rol	$14                     ; 0x2014 <loadGUISID+0x2b>
     f8f: 38           	sec
     f90: e5 13        	sbc	$13                     ; 0x2013 <loadGUISID+0x2a>
     f92: 85 13        	sta	$13                     ; 0x2013 <loadGUISID+0x2a>
     f94: a5 14        	lda	$14                     ; 0x2014 <loadGUISID+0x2b>
     f96: e5 12        	sbc	$12                     ; 0x2012 <loadGUISID+0x29>
     f98: 85 12        	sta	$12                     ; 0x2012 <loadGUISID+0x29>
     f9a: a9 37        	lda	#$37
     f9c: 18           	clc
     f9d: 65 13        	adc	$13                     ; 0x2013 <loadGUISID+0x2a>
     f9f: aa           	tax
     fa0: a9 4b        	lda	#$4b
     fa2: 65 12        	adc	$12                     ; 0x2012 <loadGUISID+0x29>
     fa4: 86 12        	stx	$12                     ; 0x2012 <loadGUISID+0x29>
     fa6: 85 13        	sta	$13                     ; 0x2013 <loadGUISID+0x2a>
     fa8: 18           	clc
     fa9: a9 e4        	lda	#$e4
     fab: a0 12        	ldy	#$12
     fad: 71 12        	adc	($12),y                 ; 0x2012 <loadGUISID+0x29>
     faf: c9 04        	cmp	#$4
     fb1: 90 03        	bcc	$fb6 <f256main+0x73b>
     fb3: 4c c2 10     	jmp	$10c2 <f256main+0x847>
     fb6: 0a           	asl
     fb7: aa           	tax
     fb8: 7c 56 47     	jmp	($4756,x)               ; 0x4756 <__set_v+0xb>
     fbb: a5 7c        	lda	$7c                     ; 0x207c <loadGUISID+0x93>
     fbd: a6 7d        	ldx	$7d                     ; 0x207d <loadGUISID+0x94>
     fbf: 85 14        	sta	$14                     ; 0x2014 <loadGUISID+0x2b>
     fc1: 86 15        	stx	$15                     ; 0x2015 <loadGUISID+0x2c>
     fc3: 18           	clc
     fc4: 69 04        	adc	#$4
     fc6: 85 16        	sta	$16                     ; 0x2016 <loadGUISID+0x2d>
     fc8: 8a           	txa
     fc9: 69 00        	adc	#$0
     fcb: 85 17        	sta	$17                     ; 0x2017 <loadGUISID+0x2e>
     fcd: a0 04        	ldy	#$4
     fcf: b1 14        	lda	($14),y                 ; 0x2014 <loadGUISID+0x2b>
     fd1: 85 14        	sta	$14                     ; 0x2014 <loadGUISID+0x2b>
     fd3: a0 01        	ldy	#$1
     fd5: b1 16        	lda	($16),y                 ; 0x2016 <loadGUISID+0x2d>
     fd7: 85 15        	sta	$15                     ; 0x2015 <loadGUISID+0x2c>
     fd9: a9 0f        	lda	#$f
     fdb: a0 03        	ldy	#$3
     fdd: 31 14        	and	($14),y                 ; 0x2014 <loadGUISID+0x2b>
     fdf: 85 16        	sta	$16                     ; 0x2016 <loadGUISID+0x2d>
     fe1: a0 13        	ldy	#$13
     fe3: b1 12        	lda	($12),y                 ; 0x2012 <loadGUISID+0x29>
     fe5: 0a           	asl
     fe6: 0a           	asl
     fe7: 0a           	asl
     fe8: 0a           	asl
     fe9: 05 16        	ora	$16                     ; 0x2016 <loadGUISID+0x2d>
     feb: 4c be 10     	jmp	$10be <f256main+0x843>
     fee: c9 80        	cmp	#$80
     ff0: f0 03        	beq	$ff5 <f256main+0x77a>
     ff2: 4c bc 15     	jmp	$15bc <f256main+0xd41>
     ff5: a2 01        	ldx	#$1
     ff7: 5a           	phy
     ff8: 8a           	txa
     ff9: a0 01        	ldy	#$1
     ffb: 91 10        	sta	($10),y                 ; 0x2010 <loadGUISID+0x27>
     ffd: a5 16        	lda	$16                     ; 0x2016 <loadGUISID+0x2d>
     fff: 64 12        	stz	$12                     ; 0x2012 <loadGUISID+0x29>
    1001: 48           	pha
    1002: a9 00        	lda	#$0
    1004: a0 04        	ldy	#$4
    1006: 91 10        	sta	($10),y                 ; 0x2010 <loadGUISID+0x27>
    1008: 4c b2 15     	jmp	$15b2 <f256main+0xd37>
    100b: 5a           	phy
    100c: a0 03        	ldy	#$3
    100e: b1 10        	lda	($10),y                 ; 0x2010 <loadGUISID+0x27>
    1010: 7a           	ply
    1011: aa           	tax
    1012: d0 03        	bne	$1017 <f256main+0x79c>
    1014: 4c f1 15     	jmp	$15f1 <f256main+0xd76>
    1017: a2 00        	ldx	#$0
    1019: 4c 60 0c     	jmp	$c60 <f256main+0x3e5>
    101c: a0 03        	ldy	#$3
    101e: b1 10        	lda	($10),y                 ; 0x2010 <loadGUISID+0x27>
    1020: d0 03        	bne	$1025 <f256main+0x7aa>
    1022: 4c fa 15     	jmp	$15fa <f256main+0xd7f>
    1025: a2 00        	ldx	#$0
    1027: 4c 7b 0c     	jmp	$c7b <f256main+0x400>
    102a: a0 03        	ldy	#$3
    102c: b1 10        	lda	($10),y                 ; 0x2010 <loadGUISID+0x27>
    102e: d0 03        	bne	$1033 <f256main+0x7b8>
    1030: 4c 03 16     	jmp	$1603 <f256main+0xd88>
    1033: a2 00        	ldx	#$0
    1035: 4c 8a 0c     	jmp	$c8a <f256main+0x40f>
    1038: a5 7c        	lda	$7c                     ; 0x207c <loadGUISID+0x93>
    103a: a6 7d        	ldx	$7d                     ; 0x207d <loadGUISID+0x94>
    103c: 85 14        	sta	$14                     ; 0x2014 <loadGUISID+0x2b>
    103e: 86 15        	stx	$15                     ; 0x2015 <loadGUISID+0x2c>
    1040: 18           	clc
    1041: 69 04        	adc	#$4
    1043: 85 16        	sta	$16                     ; 0x2016 <loadGUISID+0x2d>
    1045: 8a           	txa
    1046: 69 00        	adc	#$0
    1048: 85 17        	sta	$17                     ; 0x2017 <loadGUISID+0x2e>
    104a: a0 04        	ldy	#$4
    104c: b1 14        	lda	($14),y                 ; 0x2014 <loadGUISID+0x2b>
    104e: 85 14        	sta	$14                     ; 0x2014 <loadGUISID+0x2b>
    1050: a0 01        	ldy	#$1
    1052: b1 16        	lda	($16),y                 ; 0x2016 <loadGUISID+0x2d>
    1054: 85 15        	sta	$15                     ; 0x2015 <loadGUISID+0x2c>
    1056: a9 0f        	lda	#$f
    1058: a0 04        	ldy	#$4
    105a: 31 14        	and	($14),y                 ; 0x2014 <loadGUISID+0x2b>
    105c: 85 16        	sta	$16                     ; 0x2016 <loadGUISID+0x2d>
    105e: a0 13        	ldy	#$13
    1060: b1 12        	lda	($12),y                 ; 0x2012 <loadGUISID+0x29>
    1062: 0a           	asl
    1063: 0a           	asl
    1064: 0a           	asl
    1065: 0a           	asl
    1066: 05 16        	ora	$16                     ; 0x2016 <loadGUISID+0x2d>
    1068: 80 28        	bra	$1092 <f256main+0x817>
    106a: a5 7c        	lda	$7c                     ; 0x207c <loadGUISID+0x93>
    106c: a6 7d        	ldx	$7d                     ; 0x207d <loadGUISID+0x94>
    106e: 85 14        	sta	$14                     ; 0x2014 <loadGUISID+0x2b>
    1070: 86 15        	stx	$15                     ; 0x2015 <loadGUISID+0x2c>
    1072: 18           	clc
    1073: 69 04        	adc	#$4
    1075: 85 16        	sta	$16                     ; 0x2016 <loadGUISID+0x2d>
    1077: 8a           	txa
    1078: 69 00        	adc	#$0
    107a: 85 17        	sta	$17                     ; 0x2017 <loadGUISID+0x2e>
    107c: a0 04        	ldy	#$4
    107e: b1 14        	lda	($14),y                 ; 0x2014 <loadGUISID+0x2b>
    1080: 85 14        	sta	$14                     ; 0x2014 <loadGUISID+0x2b>
    1082: a0 01        	ldy	#$1
    1084: b1 16        	lda	($16),y                 ; 0x2016 <loadGUISID+0x2d>
    1086: 85 15        	sta	$15                     ; 0x2015 <loadGUISID+0x2c>
    1088: a9 f0        	lda	#$f0
    108a: a0 04        	ldy	#$4
    108c: 31 14        	and	($14),y                 ; 0x2014 <loadGUISID+0x2b>
    108e: a0 13        	ldy	#$13
    1090: 11 12        	ora	($12),y                 ; 0x2012 <loadGUISID+0x29>
    1092: a0 04        	ldy	#$4
    1094: 80 2a        	bra	$10c0 <f256main+0x845>
    1096: a5 7c        	lda	$7c                     ; 0x207c <loadGUISID+0x93>
    1098: a6 7d        	ldx	$7d                     ; 0x207d <loadGUISID+0x94>
    109a: 85 14        	sta	$14                     ; 0x2014 <loadGUISID+0x2b>
    109c: 86 15        	stx	$15                     ; 0x2015 <loadGUISID+0x2c>
    109e: 18           	clc
    109f: 69 04        	adc	#$4
    10a1: 85 16        	sta	$16                     ; 0x2016 <loadGUISID+0x2d>
    10a3: 8a           	txa
    10a4: 69 00        	adc	#$0
    10a6: 85 17        	sta	$17                     ; 0x2017 <loadGUISID+0x2e>
    10a8: a0 04        	ldy	#$4
    10aa: b1 14        	lda	($14),y                 ; 0x2014 <loadGUISID+0x2b>
    10ac: 85 14        	sta	$14                     ; 0x2014 <loadGUISID+0x2b>
    10ae: a0 01        	ldy	#$1
    10b0: b1 16        	lda	($16),y                 ; 0x2016 <loadGUISID+0x2d>
    10b2: 85 15        	sta	$15                     ; 0x2015 <loadGUISID+0x2c>
    10b4: a9 f0        	lda	#$f0
    10b6: a0 03        	ldy	#$3
    10b8: 31 14        	and	($14),y                 ; 0x2014 <loadGUISID+0x2b>
    10ba: a0 13        	ldy	#$13
    10bc: 11 12        	ora	($12),y                 ; 0x2012 <loadGUISID+0x29>
    10be: a0 03        	ldy	#$3
    10c0: 91 14        	sta	($14),y                 ; 0x2014 <loadGUISID+0x2b>
    10c2: 64 26        	stz	$26                     ; 0x2026 <loadGUISID+0x3d>
    10c4: a5 7c        	lda	$7c                     ; 0x207c <loadGUISID+0x93>
    10c6: a6 7d        	ldx	$7d                     ; 0x207d <loadGUISID+0x94>
    10c8: 85 12        	sta	$12                     ; 0x2012 <loadGUISID+0x29>
    10ca: 86 13        	stx	$13                     ; 0x2013 <loadGUISID+0x2a>
    10cc: 18           	clc
    10cd: 69 04        	adc	#$4
    10cf: 85 14        	sta	$14                     ; 0x2014 <loadGUISID+0x2b>
    10d1: 8a           	txa
    10d2: 69 00        	adc	#$0
    10d4: 85 15        	sta	$15                     ; 0x2015 <loadGUISID+0x2c>
    10d6: a0 04        	ldy	#$4
    10d8: b1 12        	lda	($12),y                 ; 0x2012 <loadGUISID+0x29>
    10da: aa           	tax
    10db: a0 01        	ldy	#$1
    10dd: b1 14        	lda	($14),y                 ; 0x2014 <loadGUISID+0x2b>
    10df: 86 14        	stx	$14                     ; 0x2014 <loadGUISID+0x2b>
    10e1: 85 15        	sta	$15                     ; 0x2015 <loadGUISID+0x2c>
    10e3: a6 24        	ldx	$24                     ; 0x2024 <loadGUISID+0x3b>
    10e5: 86 12        	stx	$12                     ; 0x2012 <loadGUISID+0x29>
    10e7: a6 25        	ldx	$25                     ; 0x2025 <loadGUISID+0x3c>
    10e9: 86 13        	stx	$13                     ; 0x2013 <loadGUISID+0x2a>
    10eb: a2 00        	ldx	#$0
    10ed: a9 09        	lda	#$9
    10ef: 20 af 44     	jsr	$44af <memcpy>
    10f2: a6 24        	ldx	$24                     ; 0x2024 <loadGUISID+0x3b>
    10f4: 86 12        	stx	$12                     ; 0x2012 <loadGUISID+0x29>
    10f6: a6 25        	ldx	$25                     ; 0x2025 <loadGUISID+0x3c>
    10f8: 86 13        	stx	$13                     ; 0x2013 <loadGUISID+0x2a>
    10fa: a6 26        	ldx	$26                     ; 0x2026 <loadGUISID+0x3d>
    10fc: a9 00        	lda	#$0
    10fe: 20 56 33     	jsr	$3356 <sid_setInstrument>
    1101: a5 7c        	lda	$7c                     ; 0x207c <loadGUISID+0x93>
    1103: a6 7d        	ldx	$7d                     ; 0x207d <loadGUISID+0x94>
    1105: 85 12        	sta	$12                     ; 0x2012 <loadGUISID+0x29>
    1107: 86 13        	stx	$13                     ; 0x2013 <loadGUISID+0x2a>
    1109: 18           	clc
    110a: 69 04        	adc	#$4
    110c: 85 14        	sta	$14                     ; 0x2014 <loadGUISID+0x2b>
    110e: 8a           	txa
    110f: 69 00        	adc	#$0
    1111: 85 15        	sta	$15                     ; 0x2015 <loadGUISID+0x2c>
    1113: a0 04        	ldy	#$4
    1115: b1 12        	lda	($12),y                 ; 0x2012 <loadGUISID+0x29>
    1117: aa           	tax
    1118: a0 01        	ldy	#$1
    111a: b1 14        	lda	($14),y                 ; 0x2014 <loadGUISID+0x2b>
    111c: 86 14        	stx	$14                     ; 0x2014 <loadGUISID+0x2b>
    111e: 85 15        	sta	$15                     ; 0x2015 <loadGUISID+0x2c>
    1120: a6 24        	ldx	$24                     ; 0x2024 <loadGUISID+0x3b>
    1122: 86 12        	stx	$12                     ; 0x2012 <loadGUISID+0x29>
    1124: a6 25        	ldx	$25                     ; 0x2025 <loadGUISID+0x3c>
    1126: 86 13        	stx	$13                     ; 0x2013 <loadGUISID+0x2a>
    1128: a2 00        	ldx	#$0
    112a: a9 09        	lda	#$9
    112c: 20 af 44     	jsr	$44af <memcpy>
    112f: a6 24        	ldx	$24                     ; 0x2024 <loadGUISID+0x3b>
    1131: 86 12        	stx	$12                     ; 0x2012 <loadGUISID+0x29>
    1133: a6 25        	ldx	$25                     ; 0x2025 <loadGUISID+0x3c>
    1135: 86 13        	stx	$13                     ; 0x2013 <loadGUISID+0x2a>
    1137: a6 26        	ldx	$26                     ; 0x2026 <loadGUISID+0x3d>
    1139: a9 01        	lda	#$1
    113b: 20 56 33     	jsr	$3356 <sid_setInstrument>
    113e: a6 26        	ldx	$26                     ; 0x2026 <loadGUISID+0x3d>
    1140: e8           	inx
    1141: 86 26        	stx	$26                     ; 0x2026 <loadGUISID+0x3d>
    1143: e0 03        	cpx	#$3
    1145: f0 03        	beq	$114a <f256main+0x8cf>
    1147: 4c c4 10     	jmp	$10c4 <f256main+0x849>
    114a: a6 56        	ldx	$56                     ; 0x2056 <loadGUISID+0x6d>
    114c: 86 26        	stx	$26                     ; 0x2026 <loadGUISID+0x3d>
    114e: a2 13        	ldx	#$13
    1150: 86 12        	stx	$12                     ; 0x2012 <loadGUISID+0x29>
    1152: 64 13        	stz	$13                     ; 0x2013 <loadGUISID+0x2a>
    1154: a2 00        	ldx	#$0
    1156: a5 26        	lda	$26                     ; 0x2026 <loadGUISID+0x3d>
    1158: 20 0e 45     	jsr	$450e <__mulhi3>
    115b: 85 12        	sta	$12                     ; 0x2012 <loadGUISID+0x29>
    115d: 86 13        	stx	$13                     ; 0x2013 <loadGUISID+0x2a>
    115f: a9 a7        	lda	#$a7
    1161: 18           	clc
    1162: 65 12        	adc	$12                     ; 0x2012 <loadGUISID+0x29>
    1164: 85 2c        	sta	$2c                     ; 0x202c <loadGUISID+0x43>
    1166: a9 4b        	lda	#$4b
    1168: 65 13        	adc	$13                     ; 0x2013 <loadGUISID+0x2a>
    116a: 85 2d        	sta	$2d                     ; 0x202d <loadGUISID+0x44>
    116c: 06 26        	asl	$26                     ; 0x2026 <loadGUISID+0x3d>
    116e: a9 00        	lda	#$0
    1170: 2a           	rol
    1171: 06 26        	asl	$26                     ; 0x2026 <loadGUISID+0x3d>
    1173: 2a           	rol
    1174: 85 13        	sta	$13                     ; 0x2013 <loadGUISID+0x2a>
    1176: a5 26        	lda	$26                     ; 0x2026 <loadGUISID+0x3d>
    1178: 0a           	asl
    1179: a6 13        	ldx	$13                     ; 0x2013 <loadGUISID+0x2a>
    117b: 86 14        	stx	$14                     ; 0x2014 <loadGUISID+0x2b>
    117d: 26 14        	rol	$14                     ; 0x2014 <loadGUISID+0x2b>
    117f: 0a           	asl
    1180: 26 14        	rol	$14                     ; 0x2014 <loadGUISID+0x2b>
    1182: 0a           	asl
    1183: 26 14        	rol	$14                     ; 0x2014 <loadGUISID+0x2b>
    1185: 38           	sec
    1186: e5 26        	sbc	$26                     ; 0x2026 <loadGUISID+0x3d>
    1188: 85 12        	sta	$12                     ; 0x2012 <loadGUISID+0x29>
    118a: a5 14        	lda	$14                     ; 0x2014 <loadGUISID+0x2b>
    118c: e5 13        	sbc	$13                     ; 0x2013 <loadGUISID+0x2a>
    118e: 85 13        	sta	$13                     ; 0x2013 <loadGUISID+0x2a>
    1190: a9 37        	lda	#$37
    1192: 18           	clc
    1193: 65 12        	adc	$12                     ; 0x2012 <loadGUISID+0x29>
    1195: 85 12        	sta	$12                     ; 0x2012 <loadGUISID+0x29>
    1197: a9 4b        	lda	#$4b
    1199: 65 13        	adc	$13                     ; 0x2013 <loadGUISID+0x2a>
    119b: 85 13        	sta	$13                     ; 0x2013 <loadGUISID+0x2a>
    119d: a0 13        	ldy	#$13
    119f: b1 12        	lda	($12),y                 ; 0x2012 <loadGUISID+0x29>
    11a1: 85 12        	sta	$12                     ; 0x2012 <loadGUISID+0x29>
    11a3: b2 2c        	lda	($2c)                   ; 0x202c <loadGUISID+0x43>
    11a5: 85 26        	sta	$26                     ; 0x2026 <loadGUISID+0x3d>
    11a7: a0 0d        	ldy	#$d
    11a9: b1 2c        	lda	($2c),y                 ; 0x202c <loadGUISID+0x43>
    11ab: 85 27        	sta	$27                     ; 0x2027 <loadGUISID+0x3e>
    11ad: 64 13        	stz	$13                     ; 0x2013 <loadGUISID+0x2a>
    11af: a2 00        	ldx	#$0
    11b1: 20 0e 45     	jsr	$450e <__mulhi3>
    11b4: a4 27        	ldy	$27                     ; 0x2027 <loadGUISID+0x3e>
    11b6: 84 12        	sty	$12                     ; 0x2012 <loadGUISID+0x29>
    11b8: 64 13        	stz	$13                     ; 0x2013 <loadGUISID+0x2a>
    11ba: 20 0e 45     	jsr	$450e <__mulhi3>
    11bd: 86 12        	stx	$12                     ; 0x2012 <loadGUISID+0x29>
    11bf: a2 01        	ldx	#$1
    11c1: 86 13        	stx	$13                     ; 0x2013 <loadGUISID+0x2a>
    11c3: 64 14        	stz	$14                     ; 0x2014 <loadGUISID+0x2b>
    11c5: a6 27        	ldx	$27                     ; 0x2027 <loadGUISID+0x3e>
    11c7: 86 15        	stx	$15                     ; 0x2015 <loadGUISID+0x2c>
    11c9: aa           	tax
    11ca: a5 26        	lda	$26                     ; 0x2026 <loadGUISID+0x3d>
    11cc: 20 fa 2b     	jsr	$2bfa <spriteDefine>
    11cf: b2 2c        	lda	($2c)                   ; 0x202c <loadGUISID+0x43>
    11d1: aa           	tax
    11d2: 0a           	asl
    11d3: 64 12        	stz	$12                     ; 0x2012 <loadGUISID+0x29>
    11d5: 26 12        	rol	$12                     ; 0x2012 <loadGUISID+0x29>
    11d7: 0a           	asl
    11d8: 26 12        	rol	$12                     ; 0x2012 <loadGUISID+0x29>
    11da: 0a           	asl
    11db: 26 12        	rol	$12                     ; 0x2012 <loadGUISID+0x29>
    11dd: 18           	clc
    11de: 69 00        	adc	#$0
    11e0: a8           	tay
    11e1: a5 12        	lda	$12                     ; 0x2012 <loadGUISID+0x29>
    11e3: 69 d9        	adc	#$d9
    11e5: 84 12        	sty	$12                     ; 0x2012 <loadGUISID+0x29>
    11e7: 85 13        	sta	$13                     ; 0x2013 <loadGUISID+0x2a>
    11e9: a9 01        	lda	#$1
    11eb: 1d 4f 4a     	ora	$4a4f,x                 ; 0x4a4f <_spriteCtl>
    11ee: 92 12        	sta	($12)                   ; 0x2012 <loadGUISID+0x29>
    11f0: a5 4e        	lda	$4e                     ; 0x204e <loadGUISID+0x65>
    11f2: c9 ff        	cmp	#$ff
    11f4: d0 03        	bne	$11f9 <f256main+0x97e>
    11f6: 4c 23 15     	jmp	$1523 <f256main+0xca8>
    11f9: 0a           	asl
    11fa: 64 12        	stz	$12                     ; 0x2012 <loadGUISID+0x29>
    11fc: 26 12        	rol	$12                     ; 0x2012 <loadGUISID+0x29>
    11fe: 0a           	asl
    11ff: 85 13        	sta	$13                     ; 0x2013 <loadGUISID+0x2a>
    1201: 26 12        	rol	$12                     ; 0x2012 <loadGUISID+0x29>
    1203: 0a           	asl
    1204: a6 12        	ldx	$12                     ; 0x2012 <loadGUISID+0x29>
    1206: 86 14        	stx	$14                     ; 0x2014 <loadGUISID+0x2b>
    1208: 26 14        	rol	$14                     ; 0x2014 <loadGUISID+0x2b>
    120a: 0a           	asl
    120b: 26 14        	rol	$14                     ; 0x2014 <loadGUISID+0x2b>
    120d: 0a           	asl
    120e: 26 14        	rol	$14                     ; 0x2014 <loadGUISID+0x2b>
    1210: 38           	sec
    1211: e5 13        	sbc	$13                     ; 0x2013 <loadGUISID+0x2a>
    1213: 85 1a        	sta	$1a                     ; 0x201a <loadGUISID+0x31>
    1215: 85 13        	sta	$13                     ; 0x2013 <loadGUISID+0x2a>
    1217: a5 14        	lda	$14                     ; 0x2014 <loadGUISID+0x2b>
    1219: e5 12        	sbc	$12                     ; 0x2012 <loadGUISID+0x29>
    121b: 85 1b        	sta	$1b                     ; 0x201b <loadGUISID+0x32>
    121d: 85 12        	sta	$12                     ; 0x2012 <loadGUISID+0x29>
    121f: a9 2c        	lda	#$2c
    1221: 18           	clc
    1222: 65 13        	adc	$13                     ; 0x2013 <loadGUISID+0x2a>
    1224: aa           	tax
    1225: a9 4c        	lda	#$4c
    1227: 65 12        	adc	$12                     ; 0x2012 <loadGUISID+0x29>
    1229: 86 12        	stx	$12                     ; 0x2012 <loadGUISID+0x29>
    122b: 85 13        	sta	$13                     ; 0x2013 <loadGUISID+0x2a>
    122d: a0 13        	ldy	#$13
    122f: b1 12        	lda	($12),y                 ; 0x2012 <loadGUISID+0x29>
    1231: 85 14        	sta	$14                     ; 0x2014 <loadGUISID+0x2b>
    1233: a5 43        	lda	$43                     ; 0x2043 <loadGUISID+0x5a>
    1235: 10 04        	bpl	$123b <f256main+0x9c0>
    1237: a2 ff        	ldx	#$ff
    1239: 80 02        	bra	$123d <f256main+0x9c2>
    123b: a2 00        	ldx	#$0
    123d: 18           	clc
    123e: 65 14        	adc	$14                     ; 0x2014 <loadGUISID+0x2b>
    1240: 85 14        	sta	$14                     ; 0x2014 <loadGUISID+0x2b>
    1242: 8a           	txa
    1243: 69 00        	adc	#$0
    1245: 85 16        	sta	$16                     ; 0x2016 <loadGUISID+0x2d>
    1247: a0 14        	ldy	#$14
    1249: a6 14        	ldx	$14                     ; 0x2014 <loadGUISID+0x2b>
    124b: b1 12        	lda	($12),y                 ; 0x2012 <loadGUISID+0x29>
    124d: 85 15        	sta	$15                     ; 0x2015 <loadGUISID+0x2c>
    124f: e4 15        	cpx	$15                     ; 0x2015 <loadGUISID+0x2c>
    1251: a5 16        	lda	$16                     ; 0x2016 <loadGUISID+0x2d>
    1253: e9 00        	sbc	#$0
    1255: 50 02        	bvc	$1259 <f256main+0x9de>
    1257: 49 80        	eor	#$80
    1259: aa           	tax
    125a: 10 06        	bpl	$1262 <f256main+0x9e7>
    125c: a6 15        	ldx	$15                     ; 0x2015 <loadGUISID+0x2c>
    125e: 86 14        	stx	$14                     ; 0x2014 <loadGUISID+0x2b>
    1260: 64 16        	stz	$16                     ; 0x2016 <loadGUISID+0x2d>
    1262: a6 1a        	ldx	$1a                     ; 0x201a <loadGUISID+0x31>
    1264: 86 15        	stx	$15                     ; 0x2015 <loadGUISID+0x2c>
    1266: a6 1b        	ldx	$1b                     ; 0x201b <loadGUISID+0x32>
    1268: 86 17        	stx	$17                     ; 0x2017 <loadGUISID+0x2e>
    126a: a9 2c        	lda	#$2c
    126c: 18           	clc
    126d: 65 15        	adc	$15                     ; 0x2015 <loadGUISID+0x2c>
    126f: 85 18        	sta	$18                     ; 0x2018 <loadGUISID+0x2f>
    1271: a9 4c        	lda	#$4c
    1273: 65 17        	adc	$17                     ; 0x2017 <loadGUISID+0x2e>
    1275: 85 19        	sta	$19                     ; 0x2019 <loadGUISID+0x30>
    1277: a0 15        	ldy	#$15
    1279: b1 18        	lda	($18),y                 ; 0x2018 <loadGUISID+0x2f>
    127b: a2 00        	ldx	#$0
    127d: e4 16        	cpx	$16                     ; 0x2016 <loadGUISID+0x2d>
    127f: d0 04        	bne	$1285 <f256main+0xa0a>
    1281: c5 14        	cmp	$14                     ; 0x2014 <loadGUISID+0x2b>
    1283: 80 02        	bra	$1287 <f256main+0xa0c>
    1285: e4 16        	cpx	$16                     ; 0x2016 <loadGUISID+0x2d>
    1287: a6 14        	ldx	$14                     ; 0x2014 <loadGUISID+0x2b>
    1289: b0 01        	bcs	$128c <f256main+0xa11>
    128b: aa           	tax
    128c: a9 2c        	lda	#$2c
    128e: 18           	clc
    128f: 65 1a        	adc	$1a                     ; 0x201a <loadGUISID+0x31>
    1291: 85 14        	sta	$14                     ; 0x2014 <loadGUISID+0x2b>
    1293: a9 4c        	lda	#$4c
    1295: 65 1b        	adc	$1b                     ; 0x201b <loadGUISID+0x32>
    1297: 85 15        	sta	$15                     ; 0x2015 <loadGUISID+0x2c>
    1299: a0 13        	ldy	#$13
    129b: 8a           	txa
    129c: 91 14        	sta	($14),y                 ; 0x2014 <loadGUISID+0x2b>
    129e: 20 29 2f     	jsr	$2f29 <updateDial>
    12a1: a5 4e        	lda	$4e                     ; 0x204e <loadGUISID+0x65>
    12a3: 0a           	asl
    12a4: 64 12        	stz	$12                     ; 0x2012 <loadGUISID+0x29>
    12a6: 26 12        	rol	$12                     ; 0x2012 <loadGUISID+0x29>
    12a8: 0a           	asl
    12a9: 85 13        	sta	$13                     ; 0x2013 <loadGUISID+0x2a>
    12ab: 26 12        	rol	$12                     ; 0x2012 <loadGUISID+0x29>
    12ad: 0a           	asl
    12ae: a6 12        	ldx	$12                     ; 0x2012 <loadGUISID+0x29>
    12b0: 86 14        	stx	$14                     ; 0x2014 <loadGUISID+0x2b>
    12b2: 26 14        	rol	$14                     ; 0x2014 <loadGUISID+0x2b>
    12b4: 0a           	asl
    12b5: 26 14        	rol	$14                     ; 0x2014 <loadGUISID+0x2b>
    12b7: 0a           	asl
    12b8: 26 14        	rol	$14                     ; 0x2014 <loadGUISID+0x2b>
    12ba: 38           	sec
    12bb: e5 13        	sbc	$13                     ; 0x2013 <loadGUISID+0x2a>
    12bd: 85 13        	sta	$13                     ; 0x2013 <loadGUISID+0x2a>
    12bf: a5 14        	lda	$14                     ; 0x2014 <loadGUISID+0x2b>
    12c1: e5 12        	sbc	$12                     ; 0x2012 <loadGUISID+0x29>
    12c3: 85 12        	sta	$12                     ; 0x2012 <loadGUISID+0x29>
    12c5: a9 2c        	lda	#$2c
    12c7: 18           	clc
    12c8: 65 13        	adc	$13                     ; 0x2013 <loadGUISID+0x2a>
    12ca: aa           	tax
    12cb: a9 4c        	lda	#$4c
    12cd: 65 12        	adc	$12                     ; 0x2012 <loadGUISID+0x29>
    12cf: 86 12        	stx	$12                     ; 0x2012 <loadGUISID+0x29>
    12d1: 85 13        	sta	$13                     ; 0x2013 <loadGUISID+0x2a>
    12d3: a0 12        	ldy	#$12
    12d5: b1 12        	lda	($12),y                 ; 0x2012 <loadGUISID+0x29>
    12d7: c9 24        	cmp	#$24
    12d9: f0 0e        	beq	$12e9 <f256main+0xa6e>
    12db: c9 25        	cmp	#$25
    12dd: d0 38        	bne	$1317 <f256main+0xa9c>
    12df: a0 13        	ldy	#$13
    12e1: b1 12        	lda	($12),y                 ; 0x2012 <loadGUISID+0x29>
    12e3: 85 16        	sta	$16                     ; 0x2016 <loadGUISID+0x2d>
    12e5: a2 01        	ldx	#$1
    12e7: 80 0a        	bra	$12f3 <f256main+0xa78>
    12e9: a9 0f        	lda	#$f
    12eb: a0 13        	ldy	#$13
    12ed: 31 12        	and	($12),y                 ; 0x2012 <loadGUISID+0x29>
    12ef: 85 16        	sta	$16                     ; 0x2016 <loadGUISID+0x2d>
    12f1: a2 02        	ldx	#$2
    12f3: a5 7c        	lda	$7c                     ; 0x207c <loadGUISID+0x93>
    12f5: a4 7d        	ldy	$7d                     ; 0x207d <loadGUISID+0x94>
    12f7: 85 12        	sta	$12                     ; 0x2012 <loadGUISID+0x29>
    12f9: 84 13        	sty	$13                     ; 0x2013 <loadGUISID+0x2a>
    12fb: 18           	clc
    12fc: 69 04        	adc	#$4
    12fe: 85 14        	sta	$14                     ; 0x2014 <loadGUISID+0x2b>
    1300: 98           	tya
    1301: 69 00        	adc	#$0
    1303: 85 15        	sta	$15                     ; 0x2015 <loadGUISID+0x2c>
    1305: a0 04        	ldy	#$4
    1307: b1 12        	lda	($12),y                 ; 0x2012 <loadGUISID+0x29>
    1309: 85 12        	sta	$12                     ; 0x2012 <loadGUISID+0x29>
    130b: a0 01        	ldy	#$1
    130d: b1 14        	lda	($14),y                 ; 0x2014 <loadGUISID+0x2b>
    130f: 85 13        	sta	$13                     ; 0x2013 <loadGUISID+0x2a>
    1311: a5 16        	lda	$16                     ; 0x2016 <loadGUISID+0x2d>
    1313: da           	phx
    1314: 7a           	ply
    1315: 91 12        	sta	($12),y                 ; 0x2012 <loadGUISID+0x29>
    1317: 64 26        	stz	$26                     ; 0x2026 <loadGUISID+0x3d>
    1319: a5 7c        	lda	$7c                     ; 0x207c <loadGUISID+0x93>
    131b: a6 7d        	ldx	$7d                     ; 0x207d <loadGUISID+0x94>
    131d: 85 12        	sta	$12                     ; 0x2012 <loadGUISID+0x29>
    131f: 86 13        	stx	$13                     ; 0x2013 <loadGUISID+0x2a>
    1321: 18           	clc
    1322: 69 04        	adc	#$4
    1324: 85 14        	sta	$14                     ; 0x2014 <loadGUISID+0x2b>
    1326: 8a           	txa
    1327: 69 00        	adc	#$0
    1329: 85 15        	sta	$15                     ; 0x2015 <loadGUISID+0x2c>
    132b: a0 04        	ldy	#$4
    132d: b1 12        	lda	($12),y                 ; 0x2012 <loadGUISID+0x29>
    132f: aa           	tax
    1330: a0 01        	ldy	#$1
    1332: b1 14        	lda	($14),y                 ; 0x2014 <loadGUISID+0x2b>
    1334: 86 14        	stx	$14                     ; 0x2014 <loadGUISID+0x2b>
    1336: 85 15        	sta	$15                     ; 0x2015 <loadGUISID+0x2c>
    1338: a6 24        	ldx	$24                     ; 0x2024 <loadGUISID+0x3b>
    133a: 86 12        	stx	$12                     ; 0x2012 <loadGUISID+0x29>
    133c: a6 25        	ldx	$25                     ; 0x2025 <loadGUISID+0x3c>
    133e: 86 13        	stx	$13                     ; 0x2013 <loadGUISID+0x2a>
    1340: a2 00        	ldx	#$0
    1342: a9 09        	lda	#$9
    1344: 20 af 44     	jsr	$44af <memcpy>
    1347: a6 24        	ldx	$24                     ; 0x2024 <loadGUISID+0x3b>
    1349: 86 12        	stx	$12                     ; 0x2012 <loadGUISID+0x29>
    134b: a6 25        	ldx	$25                     ; 0x2025 <loadGUISID+0x3c>
    134d: 86 13        	stx	$13                     ; 0x2013 <loadGUISID+0x2a>
    134f: a6 26        	ldx	$26                     ; 0x2026 <loadGUISID+0x3d>
    1351: a9 00        	lda	#$0
    1353: 20 56 33     	jsr	$3356 <sid_setInstrument>
    1356: a5 7c        	lda	$7c                     ; 0x207c <loadGUISID+0x93>
    1358: a6 7d        	ldx	$7d                     ; 0x207d <loadGUISID+0x94>
    135a: 85 12        	sta	$12                     ; 0x2012 <loadGUISID+0x29>
    135c: 86 13        	stx	$13                     ; 0x2013 <loadGUISID+0x2a>
    135e: 18           	clc
    135f: 69 04        	adc	#$4
    1361: 85 14        	sta	$14                     ; 0x2014 <loadGUISID+0x2b>
    1363: 8a           	txa
    1364: 69 00        	adc	#$0
    1366: 85 15        	sta	$15                     ; 0x2015 <loadGUISID+0x2c>
    1368: a0 04        	ldy	#$4
    136a: b1 12        	lda	($12),y                 ; 0x2012 <loadGUISID+0x29>
    136c: aa           	tax
    136d: a0 01        	ldy	#$1
    136f: b1 14        	lda	($14),y                 ; 0x2014 <loadGUISID+0x2b>
    1371: 86 14        	stx	$14                     ; 0x2014 <loadGUISID+0x2b>
    1373: 85 15        	sta	$15                     ; 0x2015 <loadGUISID+0x2c>
    1375: a6 24        	ldx	$24                     ; 0x2024 <loadGUISID+0x3b>
    1377: 86 12        	stx	$12                     ; 0x2012 <loadGUISID+0x29>
    1379: a6 25        	ldx	$25                     ; 0x2025 <loadGUISID+0x3c>
    137b: 86 13        	stx	$13                     ; 0x2013 <loadGUISID+0x2a>
    137d: a2 00        	ldx	#$0
    137f: a9 09        	lda	#$9
    1381: 20 af 44     	jsr	$44af <memcpy>
    1384: a6 24        	ldx	$24                     ; 0x2024 <loadGUISID+0x3b>
    1386: 86 12        	stx	$12                     ; 0x2012 <loadGUISID+0x29>
    1388: a6 25        	ldx	$25                     ; 0x2025 <loadGUISID+0x3c>
    138a: 86 13        	stx	$13                     ; 0x2013 <loadGUISID+0x2a>
    138c: a6 26        	ldx	$26                     ; 0x2026 <loadGUISID+0x3d>
    138e: a9 01        	lda	#$1
    1390: 20 56 33     	jsr	$3356 <sid_setInstrument>
    1393: a6 26        	ldx	$26                     ; 0x2026 <loadGUISID+0x3d>
    1395: e8           	inx
    1396: 86 26        	stx	$26                     ; 0x2026 <loadGUISID+0x3d>
    1398: e0 03        	cpx	#$3
    139a: f0 03        	beq	$139f <f256main+0xb24>
    139c: 4c 19 13     	jmp	$1319 <f256main+0xa9e>
    139f: a5 4e        	lda	$4e                     ; 0x204e <loadGUISID+0x65>
    13a1: 0a           	asl
    13a2: 64 12        	stz	$12                     ; 0x2012 <loadGUISID+0x29>
    13a4: 26 12        	rol	$12                     ; 0x2012 <loadGUISID+0x29>
    13a6: 0a           	asl
    13a7: 85 13        	sta	$13                     ; 0x2013 <loadGUISID+0x2a>
    13a9: 26 12        	rol	$12                     ; 0x2012 <loadGUISID+0x29>
    13ab: 0a           	asl
    13ac: a6 12        	ldx	$12                     ; 0x2012 <loadGUISID+0x29>
    13ae: 86 14        	stx	$14                     ; 0x2014 <loadGUISID+0x2b>
    13b0: 26 14        	rol	$14                     ; 0x2014 <loadGUISID+0x2b>
    13b2: 0a           	asl
    13b3: 26 14        	rol	$14                     ; 0x2014 <loadGUISID+0x2b>
    13b5: 0a           	asl
    13b6: 26 14        	rol	$14                     ; 0x2014 <loadGUISID+0x2b>
    13b8: 38           	sec
    13b9: e5 13        	sbc	$13                     ; 0x2013 <loadGUISID+0x2a>
    13bb: 85 13        	sta	$13                     ; 0x2013 <loadGUISID+0x2a>
    13bd: a5 14        	lda	$14                     ; 0x2014 <loadGUISID+0x2b>
    13bf: e5 12        	sbc	$12                     ; 0x2012 <loadGUISID+0x29>
    13c1: 85 12        	sta	$12                     ; 0x2012 <loadGUISID+0x29>
    13c3: a9 2c        	lda	#$2c
    13c5: 18           	clc
    13c6: 65 13        	adc	$13                     ; 0x2013 <loadGUISID+0x2a>
    13c8: aa           	tax
    13c9: a9 4c        	lda	#$4c
    13cb: 65 12        	adc	$12                     ; 0x2012 <loadGUISID+0x29>
    13cd: 86 12        	stx	$12                     ; 0x2012 <loadGUISID+0x29>
    13cf: 85 13        	sta	$13                     ; 0x2013 <loadGUISID+0x2a>
    13d1: a0 12        	ldy	#$12
    13d3: b1 12        	lda	($12),y                 ; 0x2012 <loadGUISID+0x29>
    13d5: c9 24        	cmp	#$24
    13d7: f0 03        	beq	$13dc <f256main+0xb61>
    13d9: 4c 68 14     	jmp	$1468 <f256main+0xbed>
    13dc: ae 3f 4c     	ldx	$4c3f                   ; 0x4c3f <dials+0x13>
    13df: ac f3 4b     	ldy	$4bf3                   ; 0x4bf3 <sliders_labels+0x4c>
    13e2: 84 24        	sty	$24                     ; 0x2024 <loadGUISID+0x3b>
    13e4: ad 00 4c     	lda	$4c00                   ; 0x4c00 <sliders_labels+0x59>
    13e7: 86 12        	stx	$12                     ; 0x2012 <loadGUISID+0x29>
    13e9: 64 13        	stz	$13                     ; 0x2013 <loadGUISID+0x2a>
    13eb: a2 00        	ldx	#$0
    13ed: 85 25        	sta	$25                     ; 0x2025 <loadGUISID+0x3c>
    13ef: 20 0e 45     	jsr	$450e <__mulhi3>
    13f2: a4 25        	ldy	$25                     ; 0x2025 <loadGUISID+0x3c>
    13f4: 84 12        	sty	$12                     ; 0x2012 <loadGUISID+0x29>
    13f6: 64 13        	stz	$13                     ; 0x2013 <loadGUISID+0x2a>
    13f8: 20 0e 45     	jsr	$450e <__mulhi3>
    13fb: 86 12        	stx	$12                     ; 0x2012 <loadGUISID+0x29>
    13fd: a2 01        	ldx	#$1
    13ff: 86 13        	stx	$13                     ; 0x2013 <loadGUISID+0x2a>
    1401: 64 14        	stz	$14                     ; 0x2014 <loadGUISID+0x2b>
    1403: a6 25        	ldx	$25                     ; 0x2025 <loadGUISID+0x3c>
    1405: 86 15        	stx	$15                     ; 0x2015 <loadGUISID+0x2c>
    1407: aa           	tax
    1408: a5 24        	lda	$24                     ; 0x2024 <loadGUISID+0x3b>
    140a: 20 fa 2b     	jsr	$2bfa <spriteDefine>
    140d: ae f3 4b     	ldx	$4bf3                   ; 0x4bf3 <sliders_labels+0x4c>
    1410: 8a           	txa
    1411: 0a           	asl
    1412: a8           	tay
    1413: a9 00        	lda	#$0
    1415: 2a           	rol
    1416: 84 12        	sty	$12                     ; 0x2012 <loadGUISID+0x29>
    1418: 06 12        	asl	$12                     ; 0x2012 <loadGUISID+0x29>
    141a: 2a           	rol
    141b: 06 12        	asl	$12                     ; 0x2012 <loadGUISID+0x29>
    141d: 2a           	rol
    141e: a8           	tay
    141f: 18           	clc
    1420: a5 12        	lda	$12                     ; 0x2012 <loadGUISID+0x29>
    1422: 69 00        	adc	#$0
    1424: 85 12        	sta	$12                     ; 0x2012 <loadGUISID+0x29>
    1426: 98           	tya
    1427: 69 d9        	adc	#$d9
    1429: 85 13        	sta	$13                     ; 0x2013 <loadGUISID+0x2a>
    142b: a9 01        	lda	#$1
    142d: 1d 4f 4a     	ora	$4a4f,x                 ; 0x4a4f <_spriteCtl>
    1430: 92 12        	sta	($12)                   ; 0x2012 <loadGUISID+0x29>
    1432: a5 4e        	lda	$4e                     ; 0x204e <loadGUISID+0x65>
    1434: 0a           	asl
    1435: 64 12        	stz	$12                     ; 0x2012 <loadGUISID+0x29>
    1437: 26 12        	rol	$12                     ; 0x2012 <loadGUISID+0x29>
    1439: 0a           	asl
    143a: 85 13        	sta	$13                     ; 0x2013 <loadGUISID+0x2a>
    143c: 26 12        	rol	$12                     ; 0x2012 <loadGUISID+0x29>
    143e: 0a           	asl
    143f: a6 12        	ldx	$12                     ; 0x2012 <loadGUISID+0x29>
    1441: 86 14        	stx	$14                     ; 0x2014 <loadGUISID+0x2b>
    1443: 26 14        	rol	$14                     ; 0x2014 <loadGUISID+0x2b>
    1445: 0a           	asl
    1446: 26 14        	rol	$14                     ; 0x2014 <loadGUISID+0x2b>
    1448: 0a           	asl
    1449: 26 14        	rol	$14                     ; 0x2014 <loadGUISID+0x2b>
    144b: 38           	sec
    144c: e5 13        	sbc	$13                     ; 0x2013 <loadGUISID+0x2a>
    144e: 85 13        	sta	$13                     ; 0x2013 <loadGUISID+0x2a>
    1450: a5 14        	lda	$14                     ; 0x2014 <loadGUISID+0x2b>
    1452: e5 12        	sbc	$12                     ; 0x2012 <loadGUISID+0x29>
    1454: 85 12        	sta	$12                     ; 0x2012 <loadGUISID+0x29>
    1456: a9 2c        	lda	#$2c
    1458: 18           	clc
    1459: 65 13        	adc	$13                     ; 0x2013 <loadGUISID+0x2a>
    145b: aa           	tax
    145c: a9 4c        	lda	#$4c
    145e: 65 12        	adc	$12                     ; 0x2012 <loadGUISID+0x29>
    1460: 86 12        	stx	$12                     ; 0x2012 <loadGUISID+0x29>
    1462: 85 13        	sta	$13                     ; 0x2013 <loadGUISID+0x2a>
    1464: a0 12        	ldy	#$12
    1466: b1 12        	lda	($12),y                 ; 0x2012 <loadGUISID+0x29>
    1468: c9 25        	cmp	#$25
    146a: f0 03        	beq	$146f <f256main+0xbf4>
    146c: 4c 23 15     	jmp	$1523 <f256main+0xca8>
    146f: ad 5b 4c     	lda	$4c5b                   ; 0x4c5b <dials+0x2f>
    1472: 4a           	lsr
    1473: 4a           	lsr
    1474: 4a           	lsr
    1475: 4a           	lsr
    1476: ae 06 4c     	ldx	$4c06                   ; 0x4c06 <sliders_labels+0x5f>
    1479: 86 24        	stx	$24                     ; 0x2024 <loadGUISID+0x3b>
    147b: ac 13 4c     	ldy	$4c13                   ; 0x4c13 <sliders_labels+0x6c>
    147e: 85 12        	sta	$12                     ; 0x2012 <loadGUISID+0x29>
    1480: 64 13        	stz	$13                     ; 0x2013 <loadGUISID+0x2a>
    1482: a2 00        	ldx	#$0
    1484: 98           	tya
    1485: 84 25        	sty	$25                     ; 0x2025 <loadGUISID+0x3c>
    1487: 20 0e 45     	jsr	$450e <__mulhi3>
    148a: a4 25        	ldy	$25                     ; 0x2025 <loadGUISID+0x3c>
    148c: 84 12        	sty	$12                     ; 0x2012 <loadGUISID+0x29>
    148e: 64 13        	stz	$13                     ; 0x2013 <loadGUISID+0x2a>
    1490: 20 0e 45     	jsr	$450e <__mulhi3>
    1493: 86 12        	stx	$12                     ; 0x2012 <loadGUISID+0x29>
    1495: a2 01        	ldx	#$1
    1497: 86 13        	stx	$13                     ; 0x2013 <loadGUISID+0x2a>
    1499: 64 14        	stz	$14                     ; 0x2014 <loadGUISID+0x2b>
    149b: a6 25        	ldx	$25                     ; 0x2025 <loadGUISID+0x3c>
    149d: 86 15        	stx	$15                     ; 0x2015 <loadGUISID+0x2c>
    149f: aa           	tax
    14a0: a5 24        	lda	$24                     ; 0x2024 <loadGUISID+0x3b>
    14a2: 20 fa 2b     	jsr	$2bfa <spriteDefine>
    14a5: ae 06 4c     	ldx	$4c06                   ; 0x4c06 <sliders_labels+0x5f>
    14a8: 8a           	txa
    14a9: 0a           	asl
    14aa: a8           	tay
    14ab: a9 00        	lda	#$0
    14ad: 2a           	rol
    14ae: 84 12        	sty	$12                     ; 0x2012 <loadGUISID+0x29>
    14b0: 06 12        	asl	$12                     ; 0x2012 <loadGUISID+0x29>
    14b2: 2a           	rol
    14b3: 06 12        	asl	$12                     ; 0x2012 <loadGUISID+0x29>
    14b5: 2a           	rol
    14b6: a8           	tay
    14b7: 18           	clc
    14b8: a5 12        	lda	$12                     ; 0x2012 <loadGUISID+0x29>
    14ba: 69 00        	adc	#$0
    14bc: 85 12        	sta	$12                     ; 0x2012 <loadGUISID+0x29>
    14be: 98           	tya
    14bf: 69 d9        	adc	#$d9
    14c1: 85 13        	sta	$13                     ; 0x2013 <loadGUISID+0x2a>
    14c3: a9 01        	lda	#$1
    14c5: 1d 4f 4a     	ora	$4a4f,x                 ; 0x4a4f <_spriteCtl>
    14c8: 92 12        	sta	($12)                   ; 0x2012 <loadGUISID+0x29>
    14ca: a9 0f        	lda	#$f
    14cc: 2d 5b 4c     	and	$4c5b                   ; 0x4c5b <dials+0x2f>
    14cf: ae 19 4c     	ldx	$4c19                   ; 0x4c19 <sliders_labels+0x72>
    14d2: 86 24        	stx	$24                     ; 0x2024 <loadGUISID+0x3b>
    14d4: ac 26 4c     	ldy	$4c26                   ; 0x4c26 <sliders_labels+0x7f>
    14d7: 85 12        	sta	$12                     ; 0x2012 <loadGUISID+0x29>
    14d9: 64 13        	stz	$13                     ; 0x2013 <loadGUISID+0x2a>
    14db: a2 00        	ldx	#$0
    14dd: 98           	tya
    14de: 84 25        	sty	$25                     ; 0x2025 <loadGUISID+0x3c>
    14e0: 20 0e 45     	jsr	$450e <__mulhi3>
    14e3: a4 25        	ldy	$25                     ; 0x2025 <loadGUISID+0x3c>
    14e5: 84 12        	sty	$12                     ; 0x2012 <loadGUISID+0x29>
    14e7: 64 13        	stz	$13                     ; 0x2013 <loadGUISID+0x2a>
    14e9: 20 0e 45     	jsr	$450e <__mulhi3>
    14ec: 86 12        	stx	$12                     ; 0x2012 <loadGUISID+0x29>
    14ee: a2 01        	ldx	#$1
    14f0: 86 13        	stx	$13                     ; 0x2013 <loadGUISID+0x2a>
    14f2: 64 14        	stz	$14                     ; 0x2014 <loadGUISID+0x2b>
    14f4: a6 25        	ldx	$25                     ; 0x2025 <loadGUISID+0x3c>
    14f6: 86 15        	stx	$15                     ; 0x2015 <loadGUISID+0x2c>
    14f8: aa           	tax
    14f9: a5 24        	lda	$24                     ; 0x2024 <loadGUISID+0x3b>
    14fb: 20 fa 2b     	jsr	$2bfa <spriteDefine>
    14fe: ae 19 4c     	ldx	$4c19                   ; 0x4c19 <sliders_labels+0x72>
    1501: 8a           	txa
    1502: 0a           	asl
    1503: a8           	tay
    1504: a9 00        	lda	#$0
    1506: 2a           	rol
    1507: 84 12        	sty	$12                     ; 0x2012 <loadGUISID+0x29>
    1509: 06 12        	asl	$12                     ; 0x2012 <loadGUISID+0x29>
    150b: 2a           	rol
    150c: 06 12        	asl	$12                     ; 0x2012 <loadGUISID+0x29>
    150e: 2a           	rol
    150f: a8           	tay
    1510: 18           	clc
    1511: a5 12        	lda	$12                     ; 0x2012 <loadGUISID+0x29>
    1513: 69 00        	adc	#$0
    1515: 85 12        	sta	$12                     ; 0x2012 <loadGUISID+0x29>
    1517: 98           	tya
    1518: 69 d9        	adc	#$d9
    151a: 85 13        	sta	$13                     ; 0x2013 <loadGUISID+0x2a>
    151c: a9 01        	lda	#$1
    151e: 1d 4f 4a     	ora	$4a4f,x                 ; 0x4a4f <_spriteCtl>
    1521: 92 12        	sta	($12)                   ; 0x2012 <loadGUISID+0x29>
    1523: a6 46        	ldx	$46                     ; 0x2046 <loadGUISID+0x5d>
    1525: a9 01        	lda	#$1
    1527: 25 46        	and	$46                     ; 0x2046 <loadGUISID+0x5d>
    1529: f0 03        	beq	$152e <f256main+0xcb3>
    152b: 4c 90 17     	jmp	$1790 <f256main+0xf15>
    152e: a0 02        	ldy	#$2
    1530: b1 10        	lda	($10),y                 ; 0x2010 <loadGUISID+0x27>
    1532: 85 12        	sta	$12                     ; 0x2012 <loadGUISID+0x29>
    1534: a5 12        	lda	$12                     ; 0x2012 <loadGUISID+0x29>
    1536: f0 03        	beq	$153b <f256main+0xcc0>
    1538: 4c cc 0b     	jmp	$bcc <f256main+0x351>
    153b: 4c 6d 18     	jmp	$186d <f256main+0xff2>
    153e: c9 04        	cmp	#$4
    1540: f0 03        	beq	$1545 <f256main+0xcca>
    1542: 4c 0c 16     	jmp	$160c <f256main+0xd91>
    1545: a2 80        	ldx	#$80
    1547: 8e b1 dd     	stx	$ddb1                   ; 0xddb1 <__heap_start+0x90cf>
    154a: a6 2f        	ldx	$2f                     ; 0x202f <loadGUISID+0x46>
    154c: 8e b1 dd     	stx	$ddb1                   ; 0xddb1 <__heap_start+0x90cf>
    154f: a2 7f        	ldx	#$7f
    1551: 8e b1 dd     	stx	$ddb1                   ; 0xddb1 <__heap_start+0x90cf>
    1554: a5 14        	lda	$14                     ; 0x2014 <loadGUISID+0x2b>
    1556: f0 03        	beq	$155b <f256main+0xce0>
    1558: 4c 22 16     	jmp	$1622 <f256main+0xda7>
    155b: 4c 27 1a     	jmp	$1a27 <f256main+0x11ac>
    155e: a2 90        	ldx	#$90
    1560: 8e b1 dd     	stx	$ddb1                   ; 0xddb1 <__heap_start+0x90cf>
    1563: a6 2f        	ldx	$2f                     ; 0x202f <loadGUISID+0x46>
    1565: 8e b1 dd     	stx	$ddb1                   ; 0xddb1 <__heap_start+0x90cf>
    1568: a2 7f        	ldx	#$7f
    156a: 8e b1 dd     	stx	$ddb1                   ; 0xddb1 <__heap_start+0x90cf>
    156d: a5 14        	lda	$14                     ; 0x2014 <loadGUISID+0x2b>
    156f: d0 19        	bne	$158a <f256main+0xd0f>
    1571: 4c 8b 17     	jmp	$178b <f256main+0xf10>
    1574: a5 14        	lda	$14                     ; 0x2014 <loadGUISID+0x2b>
    1576: d0 03        	bne	$157b <f256main+0xd00>
    1578: 4c 7c 17     	jmp	$177c <f256main+0xf01>
    157b: a2 90        	ldx	#$90
    157d: 8e b1 dd     	stx	$ddb1                   ; 0xddb1 <__heap_start+0x90cf>
    1580: a6 2f        	ldx	$2f                     ; 0x202f <loadGUISID+0x46>
    1582: 8e b1 dd     	stx	$ddb1                   ; 0xddb1 <__heap_start+0x90cf>
    1585: a2 7f        	ldx	#$7f
    1587: 8e b1 dd     	stx	$ddb1                   ; 0xddb1 <__heap_start+0x90cf>
    158a: e6 63        	inc	$63                     ; 0x2063 <loadGUISID+0x7a>
    158c: 4c 71 0c     	jmp	$c71 <f256main+0x3f6>
    158f: a2 00        	ldx	#$0
    1591: 4c d5 0d     	jmp	$dd5 <f256main+0x55a>
    1594: 84 13        	sty	$13                     ; 0x2013 <loadGUISID+0x2a>
    1596: 4c e1 0d     	jmp	$de1 <f256main+0x566>
    1599: a9 00        	lda	#$0
    159b: 4c 7c 0d     	jmp	$d7c <f256main+0x501>
    159e: a2 01        	ldx	#$1
    15a0: 5a           	phy
    15a1: 8a           	txa
    15a2: a0 01        	ldy	#$1
    15a4: 91 10        	sta	($10),y                 ; 0x2010 <loadGUISID+0x27>
    15a6: a5 16        	lda	$16                     ; 0x2016 <loadGUISID+0x2d>
    15a8: 64 12        	stz	$12                     ; 0x2012 <loadGUISID+0x29>
    15aa: 48           	pha
    15ab: a9 00        	lda	#$0
    15ad: a0 04        	ldy	#$4
    15af: 91 10        	sta	($10),y                 ; 0x2010 <loadGUISID+0x27>
    15b1: 8a           	txa
    15b2: a0 03        	ldy	#$3
    15b4: 91 10        	sta	($10),y                 ; 0x2010 <loadGUISID+0x27>
    15b6: 68           	pla
    15b7: a0 00        	ldy	#$0
    15b9: 4c 62 0d     	jmp	$d62 <f256main+0x4e7>
    15bc: a6 26        	ldx	$26                     ; 0x2026 <loadGUISID+0x3d>
    15be: a5 14        	lda	$14                     ; 0x2014 <loadGUISID+0x2b>
    15c0: 10 03        	bpl	$15c5 <f256main+0xd4a>
    15c2: 4c 12 19     	jmp	$1912 <f256main+0x1097>
    15c5: 5a           	phy
    15c6: a0 00        	ldy	#$0
    15c8: b1 10        	lda	($10),y                 ; 0x2010 <loadGUISID+0x27>
    15ca: 7a           	ply
    15cb: 29 f0        	and	#$f0
    15cd: c9 80        	cmp	#$80
    15cf: f0 07        	beq	$15d8 <f256main+0xd5d>
    15d1: c9 90        	cmp	#$90
    15d3: f0 03        	beq	$15d8 <f256main+0xd5d>
    15d5: 4c 34 1a     	jmp	$1a34 <f256main+0x11b9>
    15d8: 64 12        	stz	$12                     ; 0x2012 <loadGUISID+0x29>
    15da: 5a           	phy
    15db: a9 00        	lda	#$0
    15dd: a0 01        	ldy	#$1
    15df: 91 10        	sta	($10),y                 ; 0x2010 <loadGUISID+0x27>
    15e1: a2 01        	ldx	#$1
    15e3: 8a           	txa
    15e4: a0 04        	ldy	#$4
    15e6: 91 10        	sta	($10),y                 ; 0x2010 <loadGUISID+0x27>
    15e8: 88           	dey
    15e9: 91 10        	sta	($10),y                 ; 0x2010 <loadGUISID+0x27>
    15eb: 7a           	ply
    15ec: a6 26        	ldx	$26                     ; 0x2026 <loadGUISID+0x3d>
    15ee: 4c 43 1a     	jmp	$1a43 <f256main+0x11c8>
    15f1: a2 00        	ldx	#$0
    15f3: a4 2f        	ldy	$2f                     ; 0x202f <loadGUISID+0x46>
    15f5: 84 12        	sty	$12                     ; 0x2012 <loadGUISID+0x29>
    15f7: 4c 99 0c     	jmp	$c99 <f256main+0x41e>
    15fa: a2 00        	ldx	#$0
    15fc: a4 2f        	ldy	$2f                     ; 0x202f <loadGUISID+0x46>
    15fe: 84 12        	sty	$12                     ; 0x2012 <loadGUISID+0x29>
    1600: 4c aa 0c     	jmp	$caa <f256main+0x42f>
    1603: a2 00        	ldx	#$0
    1605: a4 2f        	ldy	$2f                     ; 0x202f <loadGUISID+0x46>
    1607: 84 12        	sty	$12                     ; 0x2012 <loadGUISID+0x29>
    1609: 4c bb 0c     	jmp	$cbb <f256main+0x440>
    160c: a5 14        	lda	$14                     ; 0x2014 <loadGUISID+0x2b>
    160e: d0 03        	bne	$1613 <f256main+0xd98>
    1610: 4c 18 1a     	jmp	$1a18 <f256main+0x119d>
    1613: a2 80        	ldx	#$80
    1615: 8e b1 dd     	stx	$ddb1                   ; 0xddb1 <__heap_start+0x90cf>
    1618: a6 2f        	ldx	$2f                     ; 0x202f <loadGUISID+0x46>
    161a: 8e b1 dd     	stx	$ddb1                   ; 0xddb1 <__heap_start+0x90cf>
    161d: a2 7f        	ldx	#$7f
    161f: 8e b1 dd     	stx	$ddb1                   ; 0xddb1 <__heap_start+0x90cf>
    1622: a6 63        	ldx	$63                     ; 0x2063 <loadGUISID+0x7a>
    1624: d0 03        	bne	$1629 <f256main+0xdae>
    1626: 4c 58 0d     	jmp	$d58 <f256main+0x4dd>
    1629: ca           	dex
    162a: 86 63        	stx	$63                     ; 0x2063 <loadGUISID+0x7a>
    162c: 4c 58 0d     	jmp	$d58 <f256main+0x4dd>
    162f: a5 2f        	lda	$2f                     ; 0x202f <loadGUISID+0x46>
    1631: 18           	clc
    1632: 69 05        	adc	#$5
    1634: a8           	tay
    1635: a9 00        	lda	#$0
    1637: 69 00        	adc	#$0
    1639: 18           	clc
    163a: 48           	pha
    163b: a5 10        	lda	$10                     ; 0x2010 <loadGUISID+0x27>
    163d: 69 06        	adc	#$6
    163f: 85 24        	sta	$24                     ; 0x2024 <loadGUISID+0x3b>
    1641: a5 11        	lda	$11                     ; 0x2011 <loadGUISID+0x28>
    1643: 69 00        	adc	#$0
    1645: 85 25        	sta	$25                     ; 0x2025 <loadGUISID+0x3c>
    1647: 68           	pla
    1648: a6 24        	ldx	$24                     ; 0x2024 <loadGUISID+0x3b>
    164a: 86 14        	stx	$14                     ; 0x2014 <loadGUISID+0x2b>
    164c: a6 25        	ldx	$25                     ; 0x2025 <loadGUISID+0x3c>
    164e: 86 15        	stx	$15                     ; 0x2015 <loadGUISID+0x2c>
    1650: a2 0c        	ldx	#$c
    1652: 86 12        	stx	$12                     ; 0x2012 <loadGUISID+0x29>
    1654: 64 13        	stz	$13                     ; 0x2013 <loadGUISID+0x2a>
    1656: aa           	tax
    1657: 98           	tya
    1658: 20 70 46     	jsr	$4670 <__udivmodhi4>
    165b: aa           	tax
    165c: b2 24        	lda	($24)                   ; 0x2024 <loadGUISID+0x3b>
    165e: 85 12        	sta	$12                     ; 0x2012 <loadGUISID+0x29>
    1660: a0 01        	ldy	#$1
    1662: b1 24        	lda	($24),y                 ; 0x2024 <loadGUISID+0x3b>
    1664: 06 12        	asl	$12                     ; 0x2012 <loadGUISID+0x29>
    1666: 2a           	rol
    1667: 85 13        	sta	$13                     ; 0x2013 <loadGUISID+0x2a>
    1669: a9 1d        	lda	#$1d
    166b: 18           	clc
    166c: 65 12        	adc	$12                     ; 0x2012 <loadGUISID+0x29>
    166e: 85 12        	sta	$12                     ; 0x2012 <loadGUISID+0x29>
    1670: a9 49        	lda	#$49
    1672: 65 13        	adc	$13                     ; 0x2013 <loadGUISID+0x2a>
    1674: 85 13        	sta	$13                     ; 0x2013 <loadGUISID+0x2a>
    1676: b2 12        	lda	($12)                   ; 0x2012 <loadGUISID+0x29>
    1678: 85 16        	sta	$16                     ; 0x2016 <loadGUISID+0x2d>
    167a: 18           	clc
    167b: 8a           	txa
    167c: 69 3e        	adc	#$3e
    167e: 85 15        	sta	$15                     ; 0x2015 <loadGUISID+0x2c>
    1680: a6 2e        	ldx	$2e                     ; 0x202e <loadGUISID+0x45>
    1682: 86 14        	stx	$14                     ; 0x2014 <loadGUISID+0x2b>
    1684: 86 17        	stx	$17                     ; 0x2017 <loadGUISID+0x2e>
    1686: 8a           	txa
    1687: 09 a0        	ora	#$a0
    1689: aa           	tax
    168a: b1 12        	lda	($12),y                 ; 0x2012 <loadGUISID+0x29>
    168c: 85 12        	sta	$12                     ; 0x2012 <loadGUISID+0x29>
    168e: a4 27        	ldy	$27                     ; 0x2027 <loadGUISID+0x3e>
    1690: 8e 80 d5     	stx	$d580                   ; 0xd580 <__heap_start+0x889e>
    1693: a5 16        	lda	$16                     ; 0x2016 <loadGUISID+0x2d>
    1695: 8d 81 d5     	sta	$d581                   ; 0xd581 <__heap_start+0x889f>
    1698: a5 14        	lda	$14                     ; 0x2014 <loadGUISID+0x2b>
    169a: 09 b0        	ora	#$b0
    169c: 85 13        	sta	$13                     ; 0x2013 <loadGUISID+0x2a>
    169e: a5 12        	lda	$12                     ; 0x2012 <loadGUISID+0x29>
    16a0: 29 03        	and	#$3
    16a2: 85 12        	sta	$12                     ; 0x2012 <loadGUISID+0x29>
    16a4: 06 15        	asl	$15                     ; 0x2015 <loadGUISID+0x2c>
    16a6: a5 13        	lda	$13                     ; 0x2013 <loadGUISID+0x2a>
    16a8: 8d 80 d5     	sta	$d580                   ; 0xd580 <__heap_start+0x889e>
    16ab: a5 15        	lda	$15                     ; 0x2015 <loadGUISID+0x2c>
    16ad: 0a           	asl
    16ae: 05 12        	ora	$12                     ; 0x2012 <loadGUISID+0x29>
    16b0: 09 20        	ora	#$20
    16b2: 8d 81 d5     	sta	$d581                   ; 0xd581 <__heap_start+0x889f>
    16b5: a5 2f        	lda	$2f                     ; 0x202f <loadGUISID+0x46>
    16b7: a6 17        	ldx	$17                     ; 0x2017 <loadGUISID+0x2e>
    16b9: 9d 73 00     	sta	$73,x                   ; 0x73 <polyOPL3Buffer>
    16bc: e6 66        	inc	$66                     ; 0x2066 <loadGUISID+0x7d>
    16be: 4c 71 0c     	jmp	$c71 <f256main+0x3f6>
    16c1: e0 03        	cpx	#$3
    16c3: a0 d5        	ldy	#$d5
    16c5: b0 02        	bcs	$16c9 <f256main+0xe4e>
    16c7: a0 d4        	ldy	#$d4
    16c9: 84 16        	sty	$16                     ; 0x2016 <loadGUISID+0x2d>
    16cb: b4 34        	ldy	$34,x                   ; 0x2034 <loadGUISID+0x4b>
    16cd: 84 14        	sty	$14                     ; 0x2014 <loadGUISID+0x2b>
    16cf: a4 2f        	ldy	$2f                     ; 0x202f <loadGUISID+0x46>
    16d1: b9 d7 49     	lda	$49d7,y                 ; 0x49d7 <sid_instrument_defs+0x22>
    16d4: 5a           	phy
    16d5: a4 14        	ldy	$14                     ; 0x2014 <loadGUISID+0x2b>
    16d7: 84 12        	sty	$12                     ; 0x2012 <loadGUISID+0x29>
    16d9: a4 16        	ldy	$16                     ; 0x2016 <loadGUISID+0x2d>
    16db: 84 13        	sty	$13                     ; 0x2013 <loadGUISID+0x2a>
    16dd: 7a           	ply
    16de: 92 12        	sta	($12)                   ; 0x2012 <loadGUISID+0x29>
    16e0: b9 8d 48     	lda	$488d,y                 ; 0x488d <noteColors+0x7d>
    16e3: 85 13        	sta	$13                     ; 0x2013 <loadGUISID+0x2a>
    16e5: 84 18        	sty	$18                     ; 0x2018 <loadGUISID+0x2f>
    16e7: a5 14        	lda	$14                     ; 0x2014 <loadGUISID+0x2b>
    16e9: a4 14        	ldy	$14                     ; 0x2014 <loadGUISID+0x2b>
    16eb: 85 17        	sta	$17                     ; 0x2017 <loadGUISID+0x2e>
    16ed: a5 16        	lda	$16                     ; 0x2016 <loadGUISID+0x2d>
    16ef: 85 12        	sta	$12                     ; 0x2012 <loadGUISID+0x29>
    16f1: c8           	iny
    16f2: d0 02        	bne	$16f6 <f256main+0xe7b>
    16f4: e6 12        	inc	$12                     ; 0x2012 <loadGUISID+0x29>
    16f6: 84 14        	sty	$14                     ; 0x2014 <loadGUISID+0x2b>
    16f8: a4 12        	ldy	$12                     ; 0x2012 <loadGUISID+0x29>
    16fa: 84 15        	sty	$15                     ; 0x2015 <loadGUISID+0x2c>
    16fc: a5 13        	lda	$13                     ; 0x2013 <loadGUISID+0x2a>
    16fe: 92 14        	sta	($14)                   ; 0x2014 <loadGUISID+0x2b>
    1700: 18           	clc
    1701: a5 17        	lda	$17                     ; 0x2017 <loadGUISID+0x2e>
    1703: 69 04        	adc	#$4
    1705: 85 12        	sta	$12                     ; 0x2012 <loadGUISID+0x29>
    1707: a5 16        	lda	$16                     ; 0x2016 <loadGUISID+0x2d>
    1709: 69 00        	adc	#$0
    170b: 85 13        	sta	$13                     ; 0x2013 <loadGUISID+0x2a>
    170d: a5 7c        	lda	$7c                     ; 0x207c <loadGUISID+0x93>
    170f: a4 7d        	ldy	$7d                     ; 0x207d <loadGUISID+0x94>
    1711: 85 14        	sta	$14                     ; 0x2014 <loadGUISID+0x2b>
    1713: 84 15        	sty	$15                     ; 0x2015 <loadGUISID+0x2c>
    1715: 18           	clc
    1716: 69 04        	adc	#$4
    1718: 85 16        	sta	$16                     ; 0x2016 <loadGUISID+0x2d>
    171a: 98           	tya
    171b: 69 00        	adc	#$0
    171d: 85 17        	sta	$17                     ; 0x2017 <loadGUISID+0x2e>
    171f: a0 04        	ldy	#$4
    1721: b1 14        	lda	($14),y                 ; 0x2014 <loadGUISID+0x2b>
    1723: 85 14        	sta	$14                     ; 0x2014 <loadGUISID+0x2b>
    1725: a0 01        	ldy	#$1
    1727: b1 16        	lda	($16),y                 ; 0x2016 <loadGUISID+0x2d>
    1729: 85 15        	sta	$15                     ; 0x2015 <loadGUISID+0x2c>
    172b: 98           	tya
    172c: a0 05        	ldy	#$5
    172e: 11 14        	ora	($14),y                 ; 0x2014 <loadGUISID+0x2b>
    1730: 92 12        	sta	($12)                   ; 0x2012 <loadGUISID+0x29>
    1732: a5 18        	lda	$18                     ; 0x2018 <loadGUISID+0x2f>
    1734: 9d 67 00     	sta	$67,x                   ; 0x67 <polySIDBuffer>
    1737: e6 64        	inc	$64                     ; 0x2064 <loadGUISID+0x7b>
    1739: 4c 38 0d     	jmp	$d38 <f256main+0x4bd>
    173c: b5 3a        	lda	$3a,x                   ; 0x203a <loadGUISID+0x51>
    173e: 85 12        	sta	$12                     ; 0x2012 <loadGUISID+0x29>
    1740: e0 03        	cpx	#$3
    1742: 09 90        	ora	#$90
    1744: 85 13        	sta	$13                     ; 0x2013 <loadGUISID+0x2a>
    1746: a0 10        	ldy	#$10
    1748: 84 14        	sty	$14                     ; 0x2014 <loadGUISID+0x2b>
    174a: a0 d6        	ldy	#$d6
    174c: 84 15        	sty	$15                     ; 0x2015 <loadGUISID+0x2c>
    174e: b0 08        	bcs	$1758 <f256main+0xedd>
    1750: a0 00        	ldy	#$0
    1752: 84 14        	sty	$14                     ; 0x2014 <loadGUISID+0x2b>
    1754: a0 d6        	ldy	#$d6
    1756: 84 15        	sty	$15                     ; 0x2015 <loadGUISID+0x2c>
    1758: a4 2f        	ldy	$2f                     ; 0x202f <loadGUISID+0x46>
    175a: b9 08 49     	lda	$4908,y                 ; 0x4908 <sidHigh+0x70>
    175d: 85 17        	sta	$17                     ; 0x2017 <loadGUISID+0x2e>
    175f: b9 48 49     	lda	$4948,y                 ; 0x4948 <psgLow+0x13>
    1762: 85 16        	sta	$16                     ; 0x2016 <loadGUISID+0x2d>
    1764: a5 13        	lda	$13                     ; 0x2013 <loadGUISID+0x2a>
    1766: 92 14        	sta	($14)                   ; 0x2014 <loadGUISID+0x2b>
    1768: a5 17        	lda	$17                     ; 0x2017 <loadGUISID+0x2e>
    176a: 05 12        	ora	$12                     ; 0x2012 <loadGUISID+0x29>
    176c: 92 14        	sta	($14)                   ; 0x2014 <loadGUISID+0x2b>
    176e: a5 16        	lda	$16                     ; 0x2016 <loadGUISID+0x2d>
    1770: 92 14        	sta	($14)                   ; 0x2014 <loadGUISID+0x2b>
    1772: a5 2f        	lda	$2f                     ; 0x202f <loadGUISID+0x46>
    1774: 9d 6d 00     	sta	$6d,x                   ; 0x6d <polyPSGBuffer>
    1777: e6 65        	inc	$65                     ; 0x2065 <loadGUISID+0x7c>
    1779: 4c 38 0d     	jmp	$d38 <f256main+0x4bd>
    177c: a2 90        	ldx	#$90
    177e: 8e a1 dd     	stx	$dda1                   ; 0xdda1 <__heap_start+0x90bf>
    1781: a6 2f        	ldx	$2f                     ; 0x202f <loadGUISID+0x46>
    1783: 8e a1 dd     	stx	$dda1                   ; 0xdda1 <__heap_start+0x90bf>
    1786: a2 7f        	ldx	#$7f
    1788: 8e a1 dd     	stx	$dda1                   ; 0xdda1 <__heap_start+0x90bf>
    178b: e6 62        	inc	$62                     ; 0x2062 <loadGUISID+0x79>
    178d: 4c 71 0c     	jmp	$c71 <f256main+0x3f6>
    1790: a0 02        	ldy	#$2
    1792: b1 10        	lda	($10),y                 ; 0x2010 <loadGUISID+0x27>
    1794: 85 12        	sta	$12                     ; 0x2012 <loadGUISID+0x29>
    1796: a5 12        	lda	$12                     ; 0x2012 <loadGUISID+0x29>
    1798: d0 03        	bne	$179d <f256main+0xf22>
    179a: 4c 6d 18     	jmp	$186d <f256main+0xff2>
    179d: a5 5e        	lda	$5e                     ; 0x205e <loadGUISID+0x75>
    179f: a6 5f        	ldx	$5f                     ; 0x205f <loadGUISID+0x76>
    17a1: 86 12        	stx	$12                     ; 0x2012 <loadGUISID+0x29>
    17a3: e0 80        	cpx	#$80
    17a5: 66 12        	ror	$12                     ; 0x2012 <loadGUISID+0x29>
    17a7: 6a           	ror
    17a8: 18           	clc
    17a9: 69 20        	adc	#$20
    17ab: a8           	tay
    17ac: a5 12        	lda	$12                     ; 0x2012 <loadGUISID+0x29>
    17ae: 69 00        	adc	#$0
    17b0: 85 27        	sta	$27                     ; 0x2027 <loadGUISID+0x3e>
    17b2: a6 60        	ldx	$60                     ; 0x2060 <loadGUISID+0x77>
    17b4: 86 12        	stx	$12                     ; 0x2012 <loadGUISID+0x29>
    17b6: a5 61        	lda	$61                     ; 0x2061 <loadGUISID+0x78>
    17b8: c9 80        	cmp	#$80
    17ba: 6a           	ror
    17bb: aa           	tax
    17bc: a5 12        	lda	$12                     ; 0x2012 <loadGUISID+0x29>
    17be: 6a           	ror
    17bf: 18           	clc
    17c0: 69 20        	adc	#$20
    17c2: 85 2c        	sta	$2c                     ; 0x202c <loadGUISID+0x43>
    17c4: 8a           	txa
    17c5: 69 00        	adc	#$0
    17c7: 85 2d        	sta	$2d                     ; 0x202d <loadGUISID+0x44>
    17c9: a2 8f        	ldx	#$8f
    17cb: 86 24        	stx	$24                     ; 0x2024 <loadGUISID+0x3b>
    17cd: a2 4a        	ldx	#$4a
    17cf: 86 25        	stx	$25                     ; 0x2025 <loadGUISID+0x3c>
    17d1: a2 08        	ldx	#$8
    17d3: a5 24        	lda	$24                     ; 0x2024 <loadGUISID+0x3b>
    17d5: 85 14        	sta	$14                     ; 0x2014 <loadGUISID+0x2b>
    17d7: a5 25        	lda	$25                     ; 0x2025 <loadGUISID+0x3c>
    17d9: 85 15        	sta	$15                     ; 0x2015 <loadGUISID+0x2c>
    17db: a5 2c        	lda	$2c                     ; 0x202c <loadGUISID+0x43>
    17dd: 85 12        	sta	$12                     ; 0x2012 <loadGUISID+0x29>
    17df: a5 2d        	lda	$2d                     ; 0x202d <loadGUISID+0x44>
    17e1: 85 13        	sta	$13                     ; 0x2013 <loadGUISID+0x2a>
    17e3: 86 28        	stx	$28                     ; 0x2028 <loadGUISID+0x3f>
    17e5: a6 27        	ldx	$27                     ; 0x2027 <loadGUISID+0x3e>
    17e7: 84 26        	sty	$26                     ; 0x2026 <loadGUISID+0x3d>
    17e9: 98           	tya
    17ea: 20 d7 1a     	jsr	$1ad7 <checkUIEClick>
    17ed: a6 28        	ldx	$28                     ; 0x2028 <loadGUISID+0x3f>
    17ef: a5 24        	lda	$24                     ; 0x2024 <loadGUISID+0x3b>
    17f1: 18           	clc
    17f2: 69 15        	adc	#$15
    17f4: 85 24        	sta	$24                     ; 0x2024 <loadGUISID+0x3b>
    17f6: a5 25        	lda	$25                     ; 0x2025 <loadGUISID+0x3c>
    17f8: 69 00        	adc	#$0
    17fa: a4 26        	ldy	$26                     ; 0x2026 <loadGUISID+0x3d>
    17fc: 85 25        	sta	$25                     ; 0x2025 <loadGUISID+0x3c>
    17fe: ca           	dex
    17ff: d0 d2        	bne	$17d3 <f256main+0xf58>
    1801: a2 37        	ldx	#$37
    1803: 86 24        	stx	$24                     ; 0x2024 <loadGUISID+0x3b>
    1805: a2 4b        	ldx	#$4b
    1807: 86 25        	stx	$25                     ; 0x2025 <loadGUISID+0x3c>
    1809: a2 04        	ldx	#$4
    180b: a4 24        	ldy	$24                     ; 0x2024 <loadGUISID+0x3b>
    180d: 84 14        	sty	$14                     ; 0x2014 <loadGUISID+0x2b>
    180f: a4 25        	ldy	$25                     ; 0x2025 <loadGUISID+0x3c>
    1811: 84 15        	sty	$15                     ; 0x2015 <loadGUISID+0x2c>
    1813: a4 2c        	ldy	$2c                     ; 0x202c <loadGUISID+0x43>
    1815: 84 12        	sty	$12                     ; 0x2012 <loadGUISID+0x29>
    1817: a4 2d        	ldy	$2d                     ; 0x202d <loadGUISID+0x44>
    1819: 84 13        	sty	$13                     ; 0x2013 <loadGUISID+0x2a>
    181b: 86 28        	stx	$28                     ; 0x2028 <loadGUISID+0x3f>
    181d: a6 27        	ldx	$27                     ; 0x2027 <loadGUISID+0x3e>
    181f: a5 26        	lda	$26                     ; 0x2026 <loadGUISID+0x3d>
    1821: 20 d7 1a     	jsr	$1ad7 <checkUIEClick>
    1824: a6 28        	ldx	$28                     ; 0x2028 <loadGUISID+0x3f>
    1826: a5 24        	lda	$24                     ; 0x2024 <loadGUISID+0x3b>
    1828: 18           	clc
    1829: 69 1c        	adc	#$1c
    182b: 85 24        	sta	$24                     ; 0x2024 <loadGUISID+0x3b>
    182d: a5 25        	lda	$25                     ; 0x2025 <loadGUISID+0x3c>
    182f: 69 00        	adc	#$0
    1831: 85 25        	sta	$25                     ; 0x2025 <loadGUISID+0x3c>
    1833: ca           	dex
    1834: d0 d5        	bne	$180b <f256main+0xf90>
    1836: a2 2c        	ldx	#$2c
    1838: 86 24        	stx	$24                     ; 0x2024 <loadGUISID+0x3b>
    183a: a2 4c        	ldx	#$4c
    183c: 86 25        	stx	$25                     ; 0x2025 <loadGUISID+0x3c>
    183e: a2 04        	ldx	#$4
    1840: a4 24        	ldy	$24                     ; 0x2024 <loadGUISID+0x3b>
    1842: 84 14        	sty	$14                     ; 0x2014 <loadGUISID+0x2b>
    1844: a4 25        	ldy	$25                     ; 0x2025 <loadGUISID+0x3c>
    1846: 84 15        	sty	$15                     ; 0x2015 <loadGUISID+0x2c>
    1848: a4 2c        	ldy	$2c                     ; 0x202c <loadGUISID+0x43>
    184a: 84 12        	sty	$12                     ; 0x2012 <loadGUISID+0x29>
    184c: a4 2d        	ldy	$2d                     ; 0x202d <loadGUISID+0x44>
    184e: 84 13        	sty	$13                     ; 0x2013 <loadGUISID+0x2a>
    1850: 86 28        	stx	$28                     ; 0x2028 <loadGUISID+0x3f>
    1852: a6 27        	ldx	$27                     ; 0x2027 <loadGUISID+0x3e>
    1854: a5 26        	lda	$26                     ; 0x2026 <loadGUISID+0x3d>
    1856: 20 d7 1a     	jsr	$1ad7 <checkUIEClick>
    1859: a6 28        	ldx	$28                     ; 0x2028 <loadGUISID+0x3f>
    185b: a5 24        	lda	$24                     ; 0x2024 <loadGUISID+0x3b>
    185d: 18           	clc
    185e: 69 1c        	adc	#$1c
    1860: 85 24        	sta	$24                     ; 0x2024 <loadGUISID+0x3b>
    1862: a5 25        	lda	$25                     ; 0x2025 <loadGUISID+0x3c>
    1864: 69 00        	adc	#$0
    1866: 85 25        	sta	$25                     ; 0x2025 <loadGUISID+0x3c>
    1868: ca           	dex
    1869: d0 d5        	bne	$1840 <f256main+0xfc5>
    186b: a6 46        	ldx	$46                     ; 0x2046 <loadGUISID+0x5d>
    186d: 8a           	txa
    186e: 29 01        	and	#$1
    1870: a2 01        	ldx	#$1
    1872: a8           	tay
    1873: f0 02        	beq	$1877 <f256main+0xffc>
    1875: a2 00        	ldx	#$0
    1877: 8a           	txa
    1878: a0 02        	ldy	#$2
    187a: 91 10        	sta	($10),y                 ; 0x2010 <loadGUISID+0x27>
    187c: 8a           	txa
    187d: d0 03        	bne	$1882 <f256main+0x1007>
    187f: 4c cc 0b     	jmp	$bcc <f256main+0x351>
    1882: a5 56        	lda	$56                     ; 0x2056 <loadGUISID+0x6d>
    1884: c9 ff        	cmp	#$ff
    1886: f0 3f        	beq	$18c7 <f256main+0x104c>
    1888: 0a           	asl
    1889: 64 12        	stz	$12                     ; 0x2012 <loadGUISID+0x29>
    188b: 26 12        	rol	$12                     ; 0x2012 <loadGUISID+0x29>
    188d: 0a           	asl
    188e: 85 13        	sta	$13                     ; 0x2013 <loadGUISID+0x2a>
    1890: 26 12        	rol	$12                     ; 0x2012 <loadGUISID+0x29>
    1892: 0a           	asl
    1893: a6 12        	ldx	$12                     ; 0x2012 <loadGUISID+0x29>
    1895: 86 14        	stx	$14                     ; 0x2014 <loadGUISID+0x2b>
    1897: 26 14        	rol	$14                     ; 0x2014 <loadGUISID+0x2b>
    1899: 0a           	asl
    189a: 26 14        	rol	$14                     ; 0x2014 <loadGUISID+0x2b>
    189c: 0a           	asl
    189d: 26 14        	rol	$14                     ; 0x2014 <loadGUISID+0x2b>
    189f: 38           	sec
    18a0: e5 13        	sbc	$13                     ; 0x2013 <loadGUISID+0x2a>
    18a2: 85 13        	sta	$13                     ; 0x2013 <loadGUISID+0x2a>
    18a4: a5 14        	lda	$14                     ; 0x2014 <loadGUISID+0x2b>
    18a6: e5 12        	sbc	$12                     ; 0x2012 <loadGUISID+0x29>
    18a8: 85 12        	sta	$12                     ; 0x2012 <loadGUISID+0x29>
    18aa: a9 37        	lda	#$37
    18ac: 18           	clc
    18ad: 65 13        	adc	$13                     ; 0x2013 <loadGUISID+0x2a>
    18af: aa           	tax
    18b0: a9 4b        	lda	#$4b
    18b2: 65 12        	adc	$12                     ; 0x2012 <loadGUISID+0x29>
    18b4: 86 12        	stx	$12                     ; 0x2012 <loadGUISID+0x29>
    18b6: 85 13        	sta	$13                     ; 0x2013 <loadGUISID+0x2a>
    18b8: a9 00        	lda	#$0
    18ba: a0 06        	ldy	#$6
    18bc: 91 12        	sta	($12),y                 ; 0x2012 <loadGUISID+0x29>
    18be: a2 ff        	ldx	#$ff
    18c0: 86 56        	stx	$56                     ; 0x2056 <loadGUISID+0x6d>
    18c2: a2 01        	ldx	#$1
    18c4: 8e e0 d6     	stx	$d6e0                   ; 0xd6e0 <__heap_start+0x89fe>
    18c7: a5 4e        	lda	$4e                     ; 0x204e <loadGUISID+0x65>
    18c9: c9 ff        	cmp	#$ff
    18cb: d0 03        	bne	$18d0 <f256main+0x1055>
    18cd: 4c cc 0b     	jmp	$bcc <f256main+0x351>
    18d0: 0a           	asl
    18d1: 64 12        	stz	$12                     ; 0x2012 <loadGUISID+0x29>
    18d3: 26 12        	rol	$12                     ; 0x2012 <loadGUISID+0x29>
    18d5: 0a           	asl
    18d6: 85 13        	sta	$13                     ; 0x2013 <loadGUISID+0x2a>
    18d8: 26 12        	rol	$12                     ; 0x2012 <loadGUISID+0x29>
    18da: 0a           	asl
    18db: a6 12        	ldx	$12                     ; 0x2012 <loadGUISID+0x29>
    18dd: 86 14        	stx	$14                     ; 0x2014 <loadGUISID+0x2b>
    18df: 26 14        	rol	$14                     ; 0x2014 <loadGUISID+0x2b>
    18e1: 0a           	asl
    18e2: 26 14        	rol	$14                     ; 0x2014 <loadGUISID+0x2b>
    18e4: 0a           	asl
    18e5: 26 14        	rol	$14                     ; 0x2014 <loadGUISID+0x2b>
    18e7: 38           	sec
    18e8: e5 13        	sbc	$13                     ; 0x2013 <loadGUISID+0x2a>
    18ea: 85 13        	sta	$13                     ; 0x2013 <loadGUISID+0x2a>
    18ec: a5 14        	lda	$14                     ; 0x2014 <loadGUISID+0x2b>
    18ee: e5 12        	sbc	$12                     ; 0x2012 <loadGUISID+0x29>
    18f0: 85 12        	sta	$12                     ; 0x2012 <loadGUISID+0x29>
    18f2: a9 2c        	lda	#$2c
    18f4: 18           	clc
    18f5: 65 13        	adc	$13                     ; 0x2013 <loadGUISID+0x2a>
    18f7: aa           	tax
    18f8: a9 4c        	lda	#$4c
    18fa: 65 12        	adc	$12                     ; 0x2012 <loadGUISID+0x29>
    18fc: 86 12        	stx	$12                     ; 0x2012 <loadGUISID+0x29>
    18fe: 85 13        	sta	$13                     ; 0x2013 <loadGUISID+0x2a>
    1900: a9 00        	lda	#$0
    1902: a0 06        	ldy	#$6
    1904: 91 12        	sta	($12),y                 ; 0x2012 <loadGUISID+0x29>
    1906: a2 ff        	ldx	#$ff
    1908: 86 4e        	stx	$4e                     ; 0x204e <loadGUISID+0x65>
    190a: a2 01        	ldx	#$1
    190c: 8e e0 d6     	stx	$d6e0                   ; 0xd6e0 <__heap_start+0x89fe>
    190f: 4c cc 0b     	jmp	$bcc <f256main+0x351>
    1912: 64 12        	stz	$12                     ; 0x2012 <loadGUISID+0x29>
    1914: 5a           	phy
    1915: a9 00        	lda	#$0
    1917: a0 01        	ldy	#$1
    1919: 91 10        	sta	($10),y                 ; 0x2010 <loadGUISID+0x27>
    191b: a0 04        	ldy	#$4
    191d: 91 10        	sta	($10),y                 ; 0x2010 <loadGUISID+0x27>
    191f: 7a           	ply
    1920: 4c 67 0d     	jmp	$d67 <f256main+0x4ec>
    1923: 64 12        	stz	$12                     ; 0x2012 <loadGUISID+0x29>
    1925: e0 03        	cpx	#$3
    1927: b0 03        	bcs	$192c <f256main+0x10b1>
    1929: 4c 4a 1a     	jmp	$1a4a <f256main+0x11cf>
    192c: a0 d5        	ldy	#$d5
    192e: 86 13        	stx	$13                     ; 0x2013 <loadGUISID+0x2a>
    1930: 4c 4e 1a     	jmp	$1a4e <f256main+0x11d3>
    1933: 64 12        	stz	$12                     ; 0x2012 <loadGUISID+0x29>
    1935: 74 6d        	stz	$6d,x                   ; 0x206d <loadGUISID+0x84>
    1937: b5 3a        	lda	$3a,x                   ; 0x203a <loadGUISID+0x51>
    1939: e0 03        	cpx	#$3
    193b: a4 27        	ldy	$27                     ; 0x2027 <loadGUISID+0x3e>
    193d: b0 03        	bcs	$1942 <f256main+0x10c7>
    193f: 4c 03 1a     	jmp	$1a03 <f256main+0x1188>
    1942: a2 10        	ldx	#$10
    1944: 86 12        	stx	$12                     ; 0x2012 <loadGUISID+0x29>
    1946: 4c 03 1a     	jmp	$1a03 <f256main+0x1188>
    1949: a2 ff        	ldx	#$ff
    194b: 86 2e        	stx	$2e                     ; 0x202e <loadGUISID+0x45>
    194d: a5 2f        	lda	$2f                     ; 0x202f <loadGUISID+0x46>
    194f: 18           	clc
    1950: 69 05        	adc	#$5
    1952: a8           	tay
    1953: a9 00        	lda	#$0
    1955: 69 00        	adc	#$0
    1957: 18           	clc
    1958: 48           	pha
    1959: a5 10        	lda	$10                     ; 0x2010 <loadGUISID+0x27>
    195b: 69 08        	adc	#$8
    195d: 85 24        	sta	$24                     ; 0x2024 <loadGUISID+0x3b>
    195f: a5 11        	lda	$11                     ; 0x2011 <loadGUISID+0x28>
    1961: 69 00        	adc	#$0
    1963: 85 25        	sta	$25                     ; 0x2025 <loadGUISID+0x3c>
    1965: 68           	pla
    1966: a6 24        	ldx	$24                     ; 0x2024 <loadGUISID+0x3b>
    1968: 86 14        	stx	$14                     ; 0x2014 <loadGUISID+0x2b>
    196a: a6 25        	ldx	$25                     ; 0x2025 <loadGUISID+0x3c>
    196c: 86 15        	stx	$15                     ; 0x2015 <loadGUISID+0x2c>
    196e: a2 0c        	ldx	#$c
    1970: 86 12        	stx	$12                     ; 0x2012 <loadGUISID+0x29>
    1972: 64 13        	stz	$13                     ; 0x2013 <loadGUISID+0x2a>
    1974: aa           	tax
    1975: 98           	tya
    1976: 20 70 46     	jsr	$4670 <__udivmodhi4>
    1979: aa           	tax
    197a: b2 24        	lda	($24)                   ; 0x2024 <loadGUISID+0x3b>
    197c: 85 12        	sta	$12                     ; 0x2012 <loadGUISID+0x29>
    197e: a0 01        	ldy	#$1
    1980: b1 24        	lda	($24),y                 ; 0x2024 <loadGUISID+0x3b>
    1982: 06 12        	asl	$12                     ; 0x2012 <loadGUISID+0x29>
    1984: 2a           	rol
    1985: 85 13        	sta	$13                     ; 0x2013 <loadGUISID+0x2a>
    1987: a9 1d        	lda	#$1d
    1989: 18           	clc
    198a: 65 12        	adc	$12                     ; 0x2012 <loadGUISID+0x29>
    198c: 85 12        	sta	$12                     ; 0x2012 <loadGUISID+0x29>
    198e: a9 49        	lda	#$49
    1990: 65 13        	adc	$13                     ; 0x2013 <loadGUISID+0x2a>
    1992: 85 13        	sta	$13                     ; 0x2013 <loadGUISID+0x2a>
    1994: b2 12        	lda	($12)                   ; 0x2012 <loadGUISID+0x29>
    1996: 85 14        	sta	$14                     ; 0x2014 <loadGUISID+0x2b>
    1998: b1 12        	lda	($12),y                 ; 0x2012 <loadGUISID+0x29>
    199a: 85 12        	sta	$12                     ; 0x2012 <loadGUISID+0x29>
    199c: 18           	clc
    199d: 8a           	txa
    199e: 69 3e        	adc	#$3e
    19a0: aa           	tax
    19a1: a5 2e        	lda	$2e                     ; 0x202e <loadGUISID+0x45>
    19a3: 09 a0        	ora	#$a0
    19a5: 8d 80 d5     	sta	$d580                   ; 0xd580 <__heap_start+0x889e>
    19a8: a5 14        	lda	$14                     ; 0x2014 <loadGUISID+0x2b>
    19aa: 8d 81 d5     	sta	$d581                   ; 0xd581 <__heap_start+0x889f>
    19ad: a5 2e        	lda	$2e                     ; 0x202e <loadGUISID+0x45>
    19af: 09 b0        	ora	#$b0
    19b1: 85 13        	sta	$13                     ; 0x2013 <loadGUISID+0x2a>
    19b3: a5 12        	lda	$12                     ; 0x2012 <loadGUISID+0x29>
    19b5: 29 03        	and	#$3
    19b7: 85 12        	sta	$12                     ; 0x2012 <loadGUISID+0x29>
    19b9: 8a           	txa
    19ba: 0a           	asl
    19bb: a6 13        	ldx	$13                     ; 0x2013 <loadGUISID+0x2a>
    19bd: 8e 80 d5     	stx	$d580                   ; 0xd580 <__heap_start+0x889e>
    19c0: 0a           	asl
    19c1: 05 12        	ora	$12                     ; 0x2012 <loadGUISID+0x29>
    19c3: 8d 81 d5     	sta	$d581                   ; 0xd581 <__heap_start+0x889f>
    19c6: a5 2e        	lda	$2e                     ; 0x202e <loadGUISID+0x45>
    19c8: 10 06        	bpl	$19d0 <f256main+0x1155>
    19ca: a2 ff        	ldx	#$ff
    19cc: 86 12        	stx	$12                     ; 0x2012 <loadGUISID+0x29>
    19ce: 80 02        	bra	$19d2 <f256main+0x1157>
    19d0: 64 12        	stz	$12                     ; 0x2012 <loadGUISID+0x29>
    19d2: a4 27        	ldy	$27                     ; 0x2027 <loadGUISID+0x3e>
    19d4: a9 73        	lda	#$73
    19d6: 18           	clc
    19d7: 65 2e        	adc	$2e                     ; 0x202e <loadGUISID+0x45>
    19d9: aa           	tax
    19da: a9 00        	lda	#$0
    19dc: 65 12        	adc	$12                     ; 0x2012 <loadGUISID+0x29>
    19de: 86 12        	stx	$12                     ; 0x2012 <loadGUISID+0x29>
    19e0: 85 13        	sta	$13                     ; 0x2013 <loadGUISID+0x2a>
    19e2: a9 00        	lda	#$0
    19e4: 92 12        	sta	($12)                   ; 0x2012 <loadGUISID+0x29>
    19e6: a6 66        	ldx	$66                     ; 0x2066 <loadGUISID+0x7d>
    19e8: d0 03        	bne	$19ed <f256main+0x1172>
    19ea: 4c 58 0d     	jmp	$d58 <f256main+0x4dd>
    19ed: ca           	dex
    19ee: 86 66        	stx	$66                     ; 0x2066 <loadGUISID+0x7d>
    19f0: 4c 58 0d     	jmp	$d58 <f256main+0x4dd>
    19f3: a0 d4        	ldy	#$d4
    19f5: a2 ff        	ldx	#$ff
    19f7: 86 13        	stx	$13                     ; 0x2013 <loadGUISID+0x2a>
    19f9: 86 12        	stx	$12                     ; 0x2012 <loadGUISID+0x29>
    19fb: 80 51        	bra	$1a4e <f256main+0x11d3>
    19fd: 64 12        	stz	$12                     ; 0x2012 <loadGUISID+0x29>
    19ff: 64 6c        	stz	$6c                     ; 0x206c <loadGUISID+0x83>
    1a01: a4 27        	ldy	$27                     ; 0x2027 <loadGUISID+0x3e>
    1a03: a2 d6        	ldx	#$d6
    1a05: 86 13        	stx	$13                     ; 0x2013 <loadGUISID+0x2a>
    1a07: 09 9f        	ora	#$9f
    1a09: 92 12        	sta	($12)                   ; 0x2012 <loadGUISID+0x29>
    1a0b: a6 65        	ldx	$65                     ; 0x2065 <loadGUISID+0x7c>
    1a0d: d0 03        	bne	$1a12 <f256main+0x1197>
    1a0f: 4c 58 0d     	jmp	$d58 <f256main+0x4dd>
    1a12: ca           	dex
    1a13: 86 65        	stx	$65                     ; 0x2065 <loadGUISID+0x7c>
    1a15: 4c 58 0d     	jmp	$d58 <f256main+0x4dd>
    1a18: a2 80        	ldx	#$80
    1a1a: 8e a1 dd     	stx	$dda1                   ; 0xdda1 <__heap_start+0x90bf>
    1a1d: a6 2f        	ldx	$2f                     ; 0x202f <loadGUISID+0x46>
    1a1f: 8e a1 dd     	stx	$dda1                   ; 0xdda1 <__heap_start+0x90bf>
    1a22: a2 7f        	ldx	#$7f
    1a24: 8e a1 dd     	stx	$dda1                   ; 0xdda1 <__heap_start+0x90bf>
    1a27: a6 62        	ldx	$62                     ; 0x2062 <loadGUISID+0x79>
    1a29: d0 03        	bne	$1a2e <f256main+0x11b3>
    1a2b: 4c 58 0d     	jmp	$d58 <f256main+0x4dd>
    1a2e: ca           	dex
    1a2f: 86 62        	stx	$62                     ; 0x2062 <loadGUISID+0x79>
    1a31: 4c 58 0d     	jmp	$d58 <f256main+0x4dd>
    1a34: 64 12        	stz	$12                     ; 0x2012 <loadGUISID+0x29>
    1a36: 5a           	phy
    1a37: a9 00        	lda	#$0
    1a39: a0 01        	ldy	#$1
    1a3b: 91 10        	sta	($10),y                 ; 0x2010 <loadGUISID+0x27>
    1a3d: 98           	tya
    1a3e: a0 04        	ldy	#$4
    1a40: 91 10        	sta	($10),y                 ; 0x2010 <loadGUISID+0x27>
    1a42: 7a           	ply
    1a43: a5 16        	lda	$16                     ; 0x2016 <loadGUISID+0x2d>
    1a45: 85 2f        	sta	$2f                     ; 0x202f <loadGUISID+0x46>
    1a47: 4c 67 0d     	jmp	$d67 <f256main+0x4ec>
    1a4a: 86 13        	stx	$13                     ; 0x2013 <loadGUISID+0x2a>
    1a4c: a0 d4        	ldy	#$d4
    1a4e: a9 34        	lda	#$34
    1a50: 18           	clc
    1a51: 65 13        	adc	$13                     ; 0x2013 <loadGUISID+0x2a>
    1a53: 85 14        	sta	$14                     ; 0x2014 <loadGUISID+0x2b>
    1a55: a9 00        	lda	#$0
    1a57: 65 12        	adc	$12                     ; 0x2012 <loadGUISID+0x29>
    1a59: 85 15        	sta	$15                     ; 0x2015 <loadGUISID+0x2c>
    1a5b: b2 14        	lda	($14)                   ; 0x2014 <loadGUISID+0x2b>
    1a5d: 85 14        	sta	$14                     ; 0x2014 <loadGUISID+0x2b>
    1a5f: a9 67        	lda	#$67
    1a61: 18           	clc
    1a62: 65 13        	adc	$13                     ; 0x2013 <loadGUISID+0x2a>
    1a64: aa           	tax
    1a65: a9 00        	lda	#$0
    1a67: 65 12        	adc	$12                     ; 0x2012 <loadGUISID+0x29>
    1a69: 86 12        	stx	$12                     ; 0x2012 <loadGUISID+0x29>
    1a6b: 85 13        	sta	$13                     ; 0x2013 <loadGUISID+0x2a>
    1a6d: a9 00        	lda	#$0
    1a6f: 92 12        	sta	($12)                   ; 0x2012 <loadGUISID+0x29>
    1a71: a6 2f        	ldx	$2f                     ; 0x202f <loadGUISID+0x46>
    1a73: bd d7 49     	lda	$49d7,x                 ; 0x49d7 <sid_instrument_defs+0x22>
    1a76: 5a           	phy
    1a77: a4 14        	ldy	$14                     ; 0x2014 <loadGUISID+0x2b>
    1a79: 84 12        	sty	$12                     ; 0x2012 <loadGUISID+0x29>
    1a7b: 7a           	ply
    1a7c: 84 13        	sty	$13                     ; 0x2013 <loadGUISID+0x2a>
    1a7e: 92 12        	sta	($12)                   ; 0x2012 <loadGUISID+0x29>
    1a80: bd 8d 48     	lda	$488d,x                 ; 0x488d <noteColors+0x7d>
    1a83: aa           	tax
    1a84: 86 16        	stx	$16                     ; 0x2016 <loadGUISID+0x2d>
    1a86: a6 14        	ldx	$14                     ; 0x2014 <loadGUISID+0x2b>
    1a88: 84 15        	sty	$15                     ; 0x2015 <loadGUISID+0x2c>
    1a8a: e8           	inx
    1a8b: d0 01        	bne	$1a8e <f256main+0x1213>
    1a8d: c8           	iny
    1a8e: 86 12        	stx	$12                     ; 0x2012 <loadGUISID+0x29>
    1a90: 84 13        	sty	$13                     ; 0x2013 <loadGUISID+0x2a>
    1a92: a5 16        	lda	$16                     ; 0x2016 <loadGUISID+0x2d>
    1a94: 92 12        	sta	($12)                   ; 0x2012 <loadGUISID+0x29>
    1a96: 18           	clc
    1a97: a5 14        	lda	$14                     ; 0x2014 <loadGUISID+0x2b>
    1a99: 69 04        	adc	#$4
    1a9b: 85 12        	sta	$12                     ; 0x2012 <loadGUISID+0x29>
    1a9d: a5 15        	lda	$15                     ; 0x2015 <loadGUISID+0x2c>
    1a9f: 69 00        	adc	#$0
    1aa1: 85 13        	sta	$13                     ; 0x2013 <loadGUISID+0x2a>
    1aa3: a5 7c        	lda	$7c                     ; 0x207c <loadGUISID+0x93>
    1aa5: a6 7d        	ldx	$7d                     ; 0x207d <loadGUISID+0x94>
    1aa7: 85 14        	sta	$14                     ; 0x2014 <loadGUISID+0x2b>
    1aa9: 86 15        	stx	$15                     ; 0x2015 <loadGUISID+0x2c>
    1aab: 18           	clc
    1aac: 69 04        	adc	#$4
    1aae: 85 16        	sta	$16                     ; 0x2016 <loadGUISID+0x2d>
    1ab0: 8a           	txa
    1ab1: 69 00        	adc	#$0
    1ab3: 85 17        	sta	$17                     ; 0x2017 <loadGUISID+0x2e>
    1ab5: a0 04        	ldy	#$4
    1ab7: b1 14        	lda	($14),y                 ; 0x2014 <loadGUISID+0x2b>
    1ab9: 85 14        	sta	$14                     ; 0x2014 <loadGUISID+0x2b>
    1abb: a0 01        	ldy	#$1
    1abd: b1 16        	lda	($16),y                 ; 0x2016 <loadGUISID+0x2d>
    1abf: 85 15        	sta	$15                     ; 0x2015 <loadGUISID+0x2c>
    1ac1: a9 fe        	lda	#$fe
    1ac3: a0 05        	ldy	#$5
    1ac5: 31 14        	and	($14),y                 ; 0x2014 <loadGUISID+0x2b>
    1ac7: 92 12        	sta	($12)                   ; 0x2012 <loadGUISID+0x29>
    1ac9: a6 64        	ldx	$64                     ; 0x2064 <loadGUISID+0x7b>
    1acb: f0 03        	beq	$1ad0 <f256main+0x1255>
    1acd: ca           	dex
    1ace: 86 64        	stx	$64                     ; 0x2064 <loadGUISID+0x7b>
    1ad0: 64 12        	stz	$12                     ; 0x2012 <loadGUISID+0x29>
    1ad2: a9 00        	lda	#$0
    1ad4: 4c 2e 0d     	jmp	$d2e <f256main+0x4b3>

00001ad7 <checkUIEClick>:
    1ad7: 85 16        	sta	$16                     ; 0x2016 <loadGUISID+0x2d>
    1ad9: 86 17        	stx	$17                     ; 0x2017 <loadGUISID+0x2e>
    1adb: a6 14        	ldx	$14                     ; 0x2014 <loadGUISID+0x2b>
    1add: 86 18        	stx	$18                     ; 0x2018 <loadGUISID+0x2f>
    1adf: a6 15        	ldx	$15                     ; 0x2015 <loadGUISID+0x2c>
    1ae1: 86 19        	stx	$19                     ; 0x2019 <loadGUISID+0x30>
    1ae3: e6 18        	inc	$18                     ; 0x2018 <loadGUISID+0x2f>
    1ae5: d0 02        	bne	$1ae9 <checkUIEClick+0x12>
    1ae7: e6 19        	inc	$19                     ; 0x2019 <loadGUISID+0x30>
    1ae9: a0 01        	ldy	#$1
    1aeb: b1 14        	lda	($14),y                 ; 0x2014 <loadGUISID+0x2b>
    1aed: 85 1a        	sta	$1a                     ; 0x201a <loadGUISID+0x31>
    1aef: b1 18        	lda	($18),y                 ; 0x2018 <loadGUISID+0x2f>
    1af1: aa           	tax
    1af2: a0 0e        	ldy	#$e
    1af4: 18           	clc
    1af5: a5 1a        	lda	$1a                     ; 0x201a <loadGUISID+0x31>
    1af7: 85 19        	sta	$19                     ; 0x2019 <loadGUISID+0x30>
    1af9: 71 14        	adc	($14),y                 ; 0x2014 <loadGUISID+0x2b>
    1afb: a8           	tay
    1afc: 8a           	txa
    1afd: 86 1a        	stx	$1a                     ; 0x201a <loadGUISID+0x31>
    1aff: 69 00        	adc	#$0
    1b01: 85 18        	sta	$18                     ; 0x2018 <loadGUISID+0x2f>
    1b03: a6 17        	ldx	$17                     ; 0x2017 <loadGUISID+0x2e>
    1b05: e4 18        	cpx	$18                     ; 0x2018 <loadGUISID+0x2f>
    1b07: d0 06        	bne	$1b0f <checkUIEClick+0x38>
    1b09: 84 18        	sty	$18                     ; 0x2018 <loadGUISID+0x2f>
    1b0b: a6 16        	ldx	$16                     ; 0x2016 <loadGUISID+0x2d>
    1b0d: 80 02        	bra	$1b11 <checkUIEClick+0x3a>
    1b0f: a6 17        	ldx	$17                     ; 0x2017 <loadGUISID+0x2e>
    1b11: e4 18        	cpx	$18                     ; 0x2018 <loadGUISID+0x2f>
    1b13: b0 01        	bcs	$1b16 <checkUIEClick+0x3f>
    1b15: 60           	rts
    1b16: a0 0f        	ldy	#$f
    1b18: 18           	clc
    1b19: a5 19        	lda	$19                     ; 0x2019 <loadGUISID+0x30>
    1b1b: 71 14        	adc	($14),y                 ; 0x2014 <loadGUISID+0x2b>
    1b1d: aa           	tax
    1b1e: a5 1a        	lda	$1a                     ; 0x201a <loadGUISID+0x31>
    1b20: 69 00        	adc	#$0
    1b22: c5 17        	cmp	$17                     ; 0x2017 <loadGUISID+0x2e>
    1b24: d0 06        	bne	$1b2c <checkUIEClick+0x55>
    1b26: e4 16        	cpx	$16                     ; 0x2016 <loadGUISID+0x2d>
    1b28: b0 06        	bcs	$1b30 <checkUIEClick+0x59>
    1b2a: 80 e9        	bra	$1b15 <checkUIEClick+0x3e>
    1b2c: c5 17        	cmp	$17                     ; 0x2017 <loadGUISID+0x2e>
    1b2e: 90 e5        	bcc	$1b15 <checkUIEClick+0x3e>
    1b30: a0 03        	ldy	#$3
    1b32: a5 14        	lda	$14                     ; 0x2014 <loadGUISID+0x2b>
    1b34: 18           	clc
    1b35: 69 03        	adc	#$3
    1b37: 85 16        	sta	$16                     ; 0x2016 <loadGUISID+0x2d>
    1b39: a5 15        	lda	$15                     ; 0x2015 <loadGUISID+0x2c>
    1b3b: 69 00        	adc	#$0
    1b3d: 85 17        	sta	$17                     ; 0x2017 <loadGUISID+0x2e>
    1b3f: b1 14        	lda	($14),y                 ; 0x2014 <loadGUISID+0x2b>
    1b41: 85 18        	sta	$18                     ; 0x2018 <loadGUISID+0x2f>
    1b43: a0 01        	ldy	#$1
    1b45: b1 16        	lda	($16),y                 ; 0x2016 <loadGUISID+0x2d>
    1b47: aa           	tax
    1b48: a0 10        	ldy	#$10
    1b4a: a5 18        	lda	$18                     ; 0x2018 <loadGUISID+0x2f>
    1b4c: 85 17        	sta	$17                     ; 0x2017 <loadGUISID+0x2e>
    1b4e: 18           	clc
    1b4f: 71 14        	adc	($14),y                 ; 0x2014 <loadGUISID+0x2b>
    1b51: a8           	tay
    1b52: 8a           	txa
    1b53: 86 18        	stx	$18                     ; 0x2018 <loadGUISID+0x2f>
    1b55: 69 00        	adc	#$0
    1b57: 85 16        	sta	$16                     ; 0x2016 <loadGUISID+0x2d>
    1b59: a6 13        	ldx	$13                     ; 0x2013 <loadGUISID+0x2a>
    1b5b: e4 16        	cpx	$16                     ; 0x2016 <loadGUISID+0x2d>
    1b5d: d0 06        	bne	$1b65 <checkUIEClick+0x8e>
    1b5f: 84 16        	sty	$16                     ; 0x2016 <loadGUISID+0x2d>
    1b61: a6 12        	ldx	$12                     ; 0x2012 <loadGUISID+0x29>
    1b63: 80 02        	bra	$1b67 <checkUIEClick+0x90>
    1b65: a6 13        	ldx	$13                     ; 0x2013 <loadGUISID+0x2a>
    1b67: e4 16        	cpx	$16                     ; 0x2016 <loadGUISID+0x2d>
    1b69: b0 03        	bcs	$1b6e <checkUIEClick+0x97>
    1b6b: 4c 15 1b     	jmp	$1b15 <checkUIEClick+0x3e>
    1b6e: a0 11        	ldy	#$11
    1b70: 18           	clc
    1b71: a5 17        	lda	$17                     ; 0x2017 <loadGUISID+0x2e>
    1b73: 71 14        	adc	($14),y                 ; 0x2014 <loadGUISID+0x2b>
    1b75: aa           	tax
    1b76: a5 18        	lda	$18                     ; 0x2018 <loadGUISID+0x2f>
    1b78: 69 00        	adc	#$0
    1b7a: c5 13        	cmp	$13                     ; 0x2013 <loadGUISID+0x2a>
    1b7c: d0 07        	bne	$1b85 <checkUIEClick+0xae>
    1b7e: e4 12        	cpx	$12                     ; 0x2012 <loadGUISID+0x29>
    1b80: b0 0a        	bcs	$1b8c <checkUIEClick+0xb5>
    1b82: 4c 15 1b     	jmp	$1b15 <checkUIEClick+0x3e>
    1b85: c5 13        	cmp	$13                     ; 0x2013 <loadGUISID+0x2a>
    1b87: b0 03        	bcs	$1b8c <checkUIEClick+0xb5>
    1b89: 4c 15 1b     	jmp	$1b15 <checkUIEClick+0x3e>
    1b8c: a0 12        	ldy	#$12
    1b8e: b1 14        	lda	($14),y                 ; 0x2014 <loadGUISID+0x2b>
    1b90: 18           	clc
    1b91: 85 8b        	sta	$8b                     ; 0x208b <loadGUISID+0xa2>
    1b93: 69 e8        	adc	#$e8
    1b95: 85 89        	sta	$89                     ; 0x2089 <loadGUISID+0xa0>
    1b97: c9 0e        	cmp	#$e
    1b99: a6 14        	ldx	$14                     ; 0x2014 <loadGUISID+0x2b>
    1b9b: 86 12        	stx	$12                     ; 0x2012 <loadGUISID+0x29>
    1b9d: a6 15        	ldx	$15                     ; 0x2015 <loadGUISID+0x2c>
    1b9f: 86 13        	stx	$13                     ; 0x2013 <loadGUISID+0x2a>
    1ba1: a6 12        	ldx	$12                     ; 0x2012 <loadGUISID+0x29>
    1ba3: 86 87        	stx	$87                     ; 0x2087 <loadGUISID+0x9e>
    1ba5: a6 13        	ldx	$13                     ; 0x2013 <loadGUISID+0x2a>
    1ba7: 86 88        	stx	$88                     ; 0x2088 <loadGUISID+0x9f>
    1ba9: 90 03        	bcc	$1bae <checkUIEClick+0xd7>
    1bab: 4c 3e 1c     	jmp	$1c3e <checkUIEClick+0x167>
    1bae: a9 01        	lda	#$1
    1bb0: a2 00        	ldx	#$0
    1bb2: a4 89        	ldy	$89                     ; 0x2089 <loadGUISID+0xa0>
    1bb4: 84 12        	sty	$12                     ; 0x2012 <loadGUISID+0x29>
    1bb6: 20 fb 44     	jsr	$44fb <__ashlhi3>
    1bb9: a6 87        	ldx	$87                     ; 0x2087 <loadGUISID+0x9e>
    1bbb: 86 14        	stx	$14                     ; 0x2014 <loadGUISID+0x2b>
    1bbd: a6 88        	ldx	$88                     ; 0x2088 <loadGUISID+0x9f>
    1bbf: 86 15        	stx	$15                     ; 0x2015 <loadGUISID+0x2c>
    1bc1: 29 0f        	and	#$f
    1bc3: f0 03        	beq	$1bc8 <checkUIEClick+0xf1>
    1bc5: 4c 47 1c     	jmp	$1c47 <checkUIEClick+0x170>
    1bc8: a9 01        	lda	#$1
    1bca: a2 00        	ldx	#$0
    1bcc: a4 89        	ldy	$89                     ; 0x2089 <loadGUISID+0xa0>
    1bce: 84 12        	sty	$12                     ; 0x2012 <loadGUISID+0x29>
    1bd0: 20 fb 44     	jsr	$44fb <__ashlhi3>
    1bd3: 29 f0        	and	#$f0
    1bd5: f0 26        	beq	$1bfd <checkUIEClick+0x126>
    1bd7: a0 06        	ldy	#$6
    1bd9: a6 87        	ldx	$87                     ; 0x2087 <loadGUISID+0x9e>
    1bdb: 86 14        	stx	$14                     ; 0x2014 <loadGUISID+0x2b>
    1bdd: a6 88        	ldx	$88                     ; 0x2088 <loadGUISID+0x9f>
    1bdf: 86 15        	stx	$15                     ; 0x2015 <loadGUISID+0x2c>
    1be1: a9 01        	lda	#$1
    1be3: 91 14        	sta	($14),y                 ; 0x2014 <loadGUISID+0x2b>
    1be5: a6 5e        	ldx	$5e                     ; 0x205e <loadGUISID+0x75>
    1be7: 86 57        	stx	$57                     ; 0x2057 <loadGUISID+0x6e>
    1be9: a6 5f        	ldx	$5f                     ; 0x205f <loadGUISID+0x76>
    1beb: 86 58        	stx	$58                     ; 0x2058 <loadGUISID+0x6f>
    1bed: a6 60        	ldx	$60                     ; 0x2060 <loadGUISID+0x77>
    1bef: 86 59        	stx	$59                     ; 0x2059 <loadGUISID+0x70>
    1bf1: a6 61        	ldx	$61                     ; 0x2061 <loadGUISID+0x78>
    1bf3: 86 5a        	stx	$5a                     ; 0x205a <loadGUISID+0x71>
    1bf5: a2 56        	ldx	#$56
    1bf7: 86 12        	stx	$12                     ; 0x2012 <loadGUISID+0x29>
    1bf9: a2 00        	ldx	#$0
    1bfb: 80 35        	bra	$1c32 <checkUIEClick+0x15b>
    1bfd: a9 01        	lda	#$1
    1bff: a2 00        	ldx	#$0
    1c01: a4 89        	ldy	$89                     ; 0x2089 <loadGUISID+0xa0>
    1c03: 84 12        	sty	$12                     ; 0x2012 <loadGUISID+0x29>
    1c05: 20 fb 44     	jsr	$44fb <__ashlhi3>
    1c08: 8a           	txa
    1c09: 29 30        	and	#$30
    1c0b: a6 87        	ldx	$87                     ; 0x2087 <loadGUISID+0x9e>
    1c0d: 86 14        	stx	$14                     ; 0x2014 <loadGUISID+0x2b>
    1c0f: a6 88        	ldx	$88                     ; 0x2088 <loadGUISID+0x9f>
    1c11: 86 15        	stx	$15                     ; 0x2015 <loadGUISID+0x2c>
    1c13: aa           	tax
    1c14: f0 28        	beq	$1c3e <checkUIEClick+0x167>
    1c16: a0 06        	ldy	#$6
    1c18: a9 01        	lda	#$1
    1c1a: 91 14        	sta	($14),y                 ; 0x2014 <loadGUISID+0x2b>
    1c1c: a6 5e        	ldx	$5e                     ; 0x205e <loadGUISID+0x75>
    1c1e: 86 4f        	stx	$4f                     ; 0x204f <loadGUISID+0x66>
    1c20: a6 5f        	ldx	$5f                     ; 0x205f <loadGUISID+0x76>
    1c22: 86 50        	stx	$50                     ; 0x2050 <loadGUISID+0x67>
    1c24: a6 60        	ldx	$60                     ; 0x2060 <loadGUISID+0x77>
    1c26: 86 51        	stx	$51                     ; 0x2051 <loadGUISID+0x68>
    1c28: a6 61        	ldx	$61                     ; 0x2061 <loadGUISID+0x78>
    1c2a: 86 52        	stx	$52                     ; 0x2052 <loadGUISID+0x69>
    1c2c: a2 4e        	ldx	#$4e
    1c2e: 86 12        	stx	$12                     ; 0x2012 <loadGUISID+0x29>
    1c30: a2 00        	ldx	#$0
    1c32: 86 13        	stx	$13                     ; 0x2013 <loadGUISID+0x2a>
    1c34: a0 0c        	ldy	#$c
    1c36: b1 14        	lda	($14),y                 ; 0x2014 <loadGUISID+0x2b>
    1c38: 92 12        	sta	($12)                   ; 0x2012 <loadGUISID+0x29>
    1c3a: 9c e0 d6     	stz	$d6e0                   ; 0xd6e0 <__heap_start+0x89fe>
    1c3d: 60           	rts
    1c3e: a6 8b        	ldx	$8b                     ; 0x208b <loadGUISID+0xa2>
    1c40: e0 04        	cpx	#$4
    1c42: 90 03        	bcc	$1c47 <checkUIEClick+0x170>
    1c44: 4c 15 1b     	jmp	$1b15 <checkUIEClick+0x3e>
    1c47: a0 06        	ldy	#$6
    1c49: b1 14        	lda	($14),y                 ; 0x2014 <loadGUISID+0x2b>
    1c4b: a2 01        	ldx	#$1
    1c4d: c9 00        	cmp	#$0
    1c4f: f0 02        	beq	$1c53 <checkUIEClick+0x17c>
    1c51: a2 00        	ldx	#$0
    1c53: 8a           	txa
    1c54: f0 04        	beq	$1c5a <checkUIEClick+0x183>
    1c56: a9 01        	lda	#$1
    1c58: 80 02        	bra	$1c5c <checkUIEClick+0x185>
    1c5a: a9 00        	lda	#$0
    1c5c: 91 14        	sta	($14),y                 ; 0x2014 <loadGUISID+0x2b>
    1c5e: a0 0c        	ldy	#$c
    1c60: b1 14        	lda	($14),y                 ; 0x2014 <loadGUISID+0x2b>
    1c62: a2 15        	ldx	#$15
    1c64: 86 12        	stx	$12                     ; 0x2012 <loadGUISID+0x29>
    1c66: 64 13        	stz	$13                     ; 0x2013 <loadGUISID+0x2a>
    1c68: a2 00        	ldx	#$0
    1c6a: 20 0e 45     	jsr	$450e <__mulhi3>
    1c6d: 85 12        	sta	$12                     ; 0x2012 <loadGUISID+0x29>
    1c6f: 86 13        	stx	$13                     ; 0x2013 <loadGUISID+0x2a>
    1c71: a9 8f        	lda	#$8f
    1c73: 18           	clc
    1c74: 65 12        	adc	$12                     ; 0x2012 <loadGUISID+0x29>
    1c76: 85 12        	sta	$12                     ; 0x2012 <loadGUISID+0x29>
    1c78: a9 4a        	lda	#$4a
    1c7a: 65 13        	adc	$13                     ; 0x2013 <loadGUISID+0x2a>
    1c7c: 85 13        	sta	$13                     ; 0x2013 <loadGUISID+0x2a>
    1c7e: 20 5e 2d     	jsr	$2d5e <updateRadioB>
    1c81: a6 87        	ldx	$87                     ; 0x2087 <loadGUISID+0x9e>
    1c83: 86 12        	stx	$12                     ; 0x2012 <loadGUISID+0x29>
    1c85: a6 88        	ldx	$88                     ; 0x2088 <loadGUISID+0x9f>
    1c87: 86 13        	stx	$13                     ; 0x2013 <loadGUISID+0x2a>
    1c89: a0 06        	ldy	#$6
    1c8b: b1 12        	lda	($12),y                 ; 0x2012 <loadGUISID+0x29>
    1c8d: d0 03        	bne	$1c92 <checkUIEClick+0x1bb>
    1c8f: 4c 7c 1d     	jmp	$1d7c <checkUIEClick+0x2a5>
    1c92: a0 0c        	ldy	#$c
    1c94: b1 12        	lda	($12),y                 ; 0x2012 <loadGUISID+0x29>
    1c96: a2 15        	ldx	#$15
    1c98: 86 12        	stx	$12                     ; 0x2012 <loadGUISID+0x29>
    1c9a: 64 13        	stz	$13                     ; 0x2013 <loadGUISID+0x2a>
    1c9c: a2 00        	ldx	#$0
    1c9e: 20 0e 45     	jsr	$450e <__mulhi3>
    1ca1: a4 87        	ldy	$87                     ; 0x2087 <loadGUISID+0x9e>
    1ca3: 84 12        	sty	$12                     ; 0x2012 <loadGUISID+0x29>
    1ca5: a4 88        	ldy	$88                     ; 0x2088 <loadGUISID+0x9f>
    1ca7: 84 13        	sty	$13                     ; 0x2013 <loadGUISID+0x2a>
    1ca9: 85 14        	sta	$14                     ; 0x2014 <loadGUISID+0x2b>
    1cab: 86 15        	stx	$15                     ; 0x2015 <loadGUISID+0x2c>
    1cad: a9 8f        	lda	#$8f
    1caf: 18           	clc
    1cb0: 65 14        	adc	$14                     ; 0x2014 <loadGUISID+0x2b>
    1cb2: 85 14        	sta	$14                     ; 0x2014 <loadGUISID+0x2b>
    1cb4: a9 4a        	lda	#$4a
    1cb6: 65 15        	adc	$15                     ; 0x2015 <loadGUISID+0x2c>
    1cb8: 85 15        	sta	$15                     ; 0x2015 <loadGUISID+0x2c>
    1cba: a0 13        	ldy	#$13
    1cbc: b1 14        	lda	($14),y                 ; 0x2014 <loadGUISID+0x2b>
    1cbe: d0 03        	bne	$1cc3 <checkUIEClick+0x1ec>
    1cc0: 4c 7c 1d     	jmp	$1d7c <checkUIEClick+0x2a5>
    1cc3: a2 8f        	ldx	#$8f
    1cc5: 86 14        	stx	$14                     ; 0x2014 <loadGUISID+0x2b>
    1cc7: a2 4a        	ldx	#$4a
    1cc9: 86 15        	stx	$15                     ; 0x2015 <loadGUISID+0x2c>
    1ccb: a2 00        	ldx	#$0
    1ccd: 80 3c        	bra	$1d0b <checkUIEClick+0x234>
    1ccf: a9 00        	lda	#$0
    1cd1: 91 14        	sta	($14),y                 ; 0x2014 <loadGUISID+0x2b>
    1cd3: a6 89        	ldx	$89                     ; 0x2089 <loadGUISID+0xa0>
    1cd5: 86 12        	stx	$12                     ; 0x2012 <loadGUISID+0x29>
    1cd7: a6 8a        	ldx	$8a                     ; 0x208a <loadGUISID+0xa1>
    1cd9: 86 13        	stx	$13                     ; 0x2013 <loadGUISID+0x2a>
    1cdb: 20 5e 2d     	jsr	$2d5e <updateRadioB>
    1cde: a6 89        	ldx	$89                     ; 0x2089 <loadGUISID+0xa0>
    1ce0: 86 12        	stx	$12                     ; 0x2012 <loadGUISID+0x29>
    1ce2: a6 8a        	ldx	$8a                     ; 0x208a <loadGUISID+0xa1>
    1ce4: 86 13        	stx	$13                     ; 0x2013 <loadGUISID+0x2a>
    1ce6: a4 12        	ldy	$12                     ; 0x2012 <loadGUISID+0x29>
    1ce8: 84 14        	sty	$14                     ; 0x2014 <loadGUISID+0x2b>
    1cea: 86 15        	stx	$15                     ; 0x2015 <loadGUISID+0x2c>
    1cec: a6 87        	ldx	$87                     ; 0x2087 <loadGUISID+0x9e>
    1cee: 86 12        	stx	$12                     ; 0x2012 <loadGUISID+0x29>
    1cf0: a6 88        	ldx	$88                     ; 0x2088 <loadGUISID+0x9f>
    1cf2: 86 13        	stx	$13                     ; 0x2013 <loadGUISID+0x2a>
    1cf4: a6 8b        	ldx	$8b                     ; 0x208b <loadGUISID+0xa2>
    1cf6: e8           	inx
    1cf7: a5 14        	lda	$14                     ; 0x2014 <loadGUISID+0x2b>
    1cf9: 18           	clc
    1cfa: 69 15        	adc	#$15
    1cfc: 85 14        	sta	$14                     ; 0x2014 <loadGUISID+0x2b>
    1cfe: a5 15        	lda	$15                     ; 0x2015 <loadGUISID+0x2c>
    1d00: 69 00        	adc	#$0
    1d02: 85 15        	sta	$15                     ; 0x2015 <loadGUISID+0x2c>
    1d04: e0 08        	cpx	#$8
    1d06: d0 03        	bne	$1d0b <checkUIEClick+0x234>
    1d08: 4c 7c 1d     	jmp	$1d7c <checkUIEClick+0x2a5>
    1d0b: a0 0c        	ldy	#$c
    1d0d: b1 12        	lda	($12),y                 ; 0x2012 <loadGUISID+0x29>
    1d0f: 85 16        	sta	$16                     ; 0x2016 <loadGUISID+0x2d>
    1d11: e4 16        	cpx	$16                     ; 0x2016 <loadGUISID+0x2d>
    1d13: f0 e1        	beq	$1cf6 <checkUIEClick+0x21f>
    1d15: a0 13        	ldy	#$13
    1d17: b1 14        	lda	($14),y                 ; 0x2014 <loadGUISID+0x2b>
    1d19: f0 db        	beq	$1cf6 <checkUIEClick+0x21f>
    1d1b: a4 14        	ldy	$14                     ; 0x2014 <loadGUISID+0x2b>
    1d1d: 84 12        	sty	$12                     ; 0x2012 <loadGUISID+0x29>
    1d1f: a4 15        	ldy	$15                     ; 0x2015 <loadGUISID+0x2c>
    1d21: 84 13        	sty	$13                     ; 0x2013 <loadGUISID+0x2a>
    1d23: 86 8b        	stx	$8b                     ; 0x208b <loadGUISID+0xa2>
    1d25: a6 12        	ldx	$12                     ; 0x2012 <loadGUISID+0x29>
    1d27: 86 89        	stx	$89                     ; 0x2089 <loadGUISID+0xa0>
    1d29: a6 13        	ldx	$13                     ; 0x2013 <loadGUISID+0x2a>
    1d2b: 86 8a        	stx	$8a                     ; 0x208a <loadGUISID+0xa1>
    1d2d: a2 15        	ldx	#$15
    1d2f: 86 12        	stx	$12                     ; 0x2012 <loadGUISID+0x29>
    1d31: 64 13        	stz	$13                     ; 0x2013 <loadGUISID+0x2a>
    1d33: a2 00        	ldx	#$0
    1d35: a5 16        	lda	$16                     ; 0x2016 <loadGUISID+0x2d>
    1d37: 20 0e 45     	jsr	$450e <__mulhi3>
    1d3a: a4 89        	ldy	$89                     ; 0x2089 <loadGUISID+0xa0>
    1d3c: 84 12        	sty	$12                     ; 0x2012 <loadGUISID+0x29>
    1d3e: a4 8a        	ldy	$8a                     ; 0x208a <loadGUISID+0xa1>
    1d40: 84 13        	sty	$13                     ; 0x2013 <loadGUISID+0x2a>
    1d42: 48           	pha
    1d43: a5 12        	lda	$12                     ; 0x2012 <loadGUISID+0x29>
    1d45: 85 14        	sta	$14                     ; 0x2014 <loadGUISID+0x2b>
    1d47: 68           	pla
    1d48: 84 15        	sty	$15                     ; 0x2015 <loadGUISID+0x2c>
    1d4a: a4 87        	ldy	$87                     ; 0x2087 <loadGUISID+0x9e>
    1d4c: 84 12        	sty	$12                     ; 0x2012 <loadGUISID+0x29>
    1d4e: a4 88        	ldy	$88                     ; 0x2088 <loadGUISID+0x9f>
    1d50: 84 13        	sty	$13                     ; 0x2013 <loadGUISID+0x2a>
    1d52: 85 16        	sta	$16                     ; 0x2016 <loadGUISID+0x2d>
    1d54: 86 17        	stx	$17                     ; 0x2017 <loadGUISID+0x2e>
    1d56: a6 8b        	ldx	$8b                     ; 0x208b <loadGUISID+0xa2>
    1d58: a9 8f        	lda	#$8f
    1d5a: 18           	clc
    1d5b: 65 16        	adc	$16                     ; 0x2016 <loadGUISID+0x2d>
    1d5d: 85 16        	sta	$16                     ; 0x2016 <loadGUISID+0x2d>
    1d5f: a9 4a        	lda	#$4a
    1d61: 65 17        	adc	$17                     ; 0x2017 <loadGUISID+0x2e>
    1d63: 85 17        	sta	$17                     ; 0x2017 <loadGUISID+0x2e>
    1d65: a0 14        	ldy	#$14
    1d67: b1 16        	lda	($16),y                 ; 0x2016 <loadGUISID+0x2d>
    1d69: d1 14        	cmp	($14),y                 ; 0x2014 <loadGUISID+0x2b>
    1d6b: f0 03        	beq	$1d70 <checkUIEClick+0x299>
    1d6d: 4c f6 1c     	jmp	$1cf6 <checkUIEClick+0x21f>
    1d70: a0 06        	ldy	#$6
    1d72: b1 14        	lda	($14),y                 ; 0x2014 <loadGUISID+0x2b>
    1d74: f0 03        	beq	$1d79 <checkUIEClick+0x2a2>
    1d76: 4c cf 1c     	jmp	$1ccf <checkUIEClick+0x1f8>
    1d79: 4c f6 1c     	jmp	$1cf6 <checkUIEClick+0x21f>
    1d7c: a0 12        	ldy	#$12
    1d7e: b1 12        	lda	($12),y                 ; 0x2012 <loadGUISID+0x29>
    1d80: c9 04        	cmp	#$4
    1d82: 90 03        	bcc	$1d87 <checkUIEClick+0x2b0>
    1d84: 4c 25 1e     	jmp	$1e25 <checkUIEClick+0x34e>
    1d87: a6 7c        	ldx	$7c                     ; 0x207c <loadGUISID+0x93>
    1d89: a4 7d        	ldy	$7d                     ; 0x207d <loadGUISID+0x94>
    1d8b: 86 14        	stx	$14                     ; 0x2014 <loadGUISID+0x2b>
    1d8d: 84 15        	sty	$15                     ; 0x2015 <loadGUISID+0x2c>
    1d8f: a0 03        	ldy	#$3
    1d91: d1 14        	cmp	($14),y                 ; 0x2014 <loadGUISID+0x2b>
    1d93: d0 03        	bne	$1d98 <checkUIEClick+0x2c1>
    1d95: 4c 21 1e     	jmp	$1e21 <checkUIEClick+0x34a>
    1d98: 91 14        	sta	($14),y                 ; 0x2014 <loadGUISID+0x2b>
    1d9a: a9 d9        	lda	#$d9
    1d9c: a0 20        	ldy	#$20
    1d9e: a2 04        	ldx	#$4
    1da0: 84 16        	sty	$16                     ; 0x2016 <loadGUISID+0x2d>
    1da2: 84 14        	sty	$14                     ; 0x2014 <loadGUISID+0x2b>
    1da4: a8           	tay
    1da5: 85 15        	sta	$15                     ; 0x2015 <loadGUISID+0x2c>
    1da7: bd 4f 4a     	lda	$4a4f,x                 ; 0x4a4f <_spriteCtl>
    1daa: 92 14        	sta	($14)                   ; 0x2014 <loadGUISID+0x2b>
    1dac: 84 14        	sty	$14                     ; 0x2014 <loadGUISID+0x2b>
    1dae: e8           	inx
    1daf: 18           	clc
    1db0: a5 16        	lda	$16                     ; 0x2016 <loadGUISID+0x2d>
    1db2: 69 08        	adc	#$8
    1db4: a8           	tay
    1db5: a5 14        	lda	$14                     ; 0x2014 <loadGUISID+0x2b>
    1db7: 69 00        	adc	#$0
    1db9: e0 40        	cpx	#$40
    1dbb: d0 e3        	bne	$1da0 <checkUIEClick+0x2c9>
    1dbd: a2 02        	ldx	#$2
    1dbf: 86 01        	stx	$1                      ; 0x2001 <loadGUISID+0x18>
    1dc1: a9 c0        	lda	#$c0
    1dc3: a2 50        	ldx	#$50
    1dc5: a0 01        	ldy	#$1
    1dc7: 64 16        	stz	$16                     ; 0x2016 <loadGUISID+0x2d>
    1dc9: 86 18        	stx	$18                     ; 0x2018 <loadGUISID+0x2f>
    1dcb: 86 14        	stx	$14                     ; 0x2014 <loadGUISID+0x2b>
    1dcd: 85 17        	sta	$17                     ; 0x2017 <loadGUISID+0x2e>
    1dcf: 85 15        	sta	$15                     ; 0x2015 <loadGUISID+0x2c>
    1dd1: a2 50        	ldx	#$50
    1dd3: a9 20        	lda	#$20
    1dd5: 92 14        	sta	($14)                   ; 0x2014 <loadGUISID+0x2b>
    1dd7: ca           	dex
    1dd8: e6 14        	inc	$14                     ; 0x2014 <loadGUISID+0x2b>
    1dda: d0 02        	bne	$1dde <checkUIEClick+0x307>
    1ddc: e6 15        	inc	$15                     ; 0x2015 <loadGUISID+0x2c>
    1dde: 8a           	txa
    1ddf: d0 f2        	bne	$1dd3 <checkUIEClick+0x2fc>
    1de1: c8           	iny
    1de2: d0 02        	bne	$1de6 <checkUIEClick+0x30f>
    1de4: e6 16        	inc	$16                     ; 0x2016 <loadGUISID+0x2d>
    1de6: 18           	clc
    1de7: a5 18        	lda	$18                     ; 0x2018 <loadGUISID+0x2f>
    1de9: 69 50        	adc	#$50
    1deb: aa           	tax
    1dec: a5 17        	lda	$17                     ; 0x2017 <loadGUISID+0x2e>
    1dee: 69 00        	adc	#$0
    1df0: e6 16        	inc	$16                     ; 0x2016 <loadGUISID+0x2d>
    1df2: c6 16        	dec	$16                     ; 0x2016 <loadGUISID+0x2d>
    1df4: d0 d3        	bne	$1dc9 <checkUIEClick+0x2f2>
    1df6: c0 1e        	cpy	#$1e
    1df8: d0 cf        	bne	$1dc9 <checkUIEClick+0x2f2>
    1dfa: 64 01        	stz	$1                      ; 0x2001 <loadGUISID+0x18>
    1dfc: a6 7c        	ldx	$7c                     ; 0x207c <loadGUISID+0x93>
    1dfe: a4 7d        	ldy	$7d                     ; 0x207d <loadGUISID+0x94>
    1e00: 86 14        	stx	$14                     ; 0x2014 <loadGUISID+0x2b>
    1e02: 84 15        	sty	$15                     ; 0x2015 <loadGUISID+0x2c>
    1e04: a0 03        	ldy	#$3
    1e06: b1 14        	lda	($14),y                 ; 0x2014 <loadGUISID+0x2b>
    1e08: c9 04        	cmp	#$4
    1e0a: b0 15        	bcs	$1e21 <checkUIEClick+0x34a>
    1e0c: 0a           	asl
    1e0d: aa           	tax
    1e0e: 7c 5e 47     	jmp	($475e,x)               ; 0x475e <__set_v+0x13>
    1e11: 20 12 1f     	jsr	$1f12 <textLayerGen>
    1e14: 80 03        	bra	$1e19 <checkUIEClick+0x342>
    1e16: 20 e9 1f     	jsr	$1fe9 <loadGUISID>
    1e19: a6 87        	ldx	$87                     ; 0x2087 <loadGUISID+0x9e>
    1e1b: 86 12        	stx	$12                     ; 0x2012 <loadGUISID+0x29>
    1e1d: a6 88        	ldx	$88                     ; 0x2088 <loadGUISID+0x9f>
    1e1f: 86 13        	stx	$13                     ; 0x2013 <loadGUISID+0x2a>
    1e21: a0 12        	ldy	#$12
    1e23: b1 12        	lda	($12),y                 ; 0x2012 <loadGUISID+0x29>
    1e25: 18           	clc
    1e26: 69 e8        	adc	#$e8
    1e28: c9 04        	cmp	#$4
    1e2a: 90 03        	bcc	$1e2f <checkUIEClick+0x358>
    1e2c: 4c 15 1b     	jmp	$1b15 <checkUIEClick+0x3e>
    1e2f: aa           	tax
    1e30: a5 7c        	lda	$7c                     ; 0x207c <loadGUISID+0x93>
    1e32: a4 7d        	ldy	$7d                     ; 0x207d <loadGUISID+0x94>
    1e34: 84 14        	sty	$14                     ; 0x2014 <loadGUISID+0x2b>
    1e36: 85 12        	sta	$12                     ; 0x2012 <loadGUISID+0x29>
    1e38: 84 13        	sty	$13                     ; 0x2013 <loadGUISID+0x2a>
    1e3a: a0 04        	ldy	#$4
    1e3c: 18           	clc
    1e3d: 69 04        	adc	#$4
    1e3f: 85 16        	sta	$16                     ; 0x2016 <loadGUISID+0x2d>
    1e41: a5 14        	lda	$14                     ; 0x2014 <loadGUISID+0x2b>
    1e43: 69 00        	adc	#$0
    1e45: 5a           	phy
    1e46: a4 16        	ldy	$16                     ; 0x2016 <loadGUISID+0x2d>
    1e48: 84 14        	sty	$14                     ; 0x2014 <loadGUISID+0x2b>
    1e4a: 7a           	ply
    1e4b: 85 15        	sta	$15                     ; 0x2015 <loadGUISID+0x2c>
    1e4d: b1 12        	lda	($12),y                 ; 0x2012 <loadGUISID+0x29>
    1e4f: 85 12        	sta	$12                     ; 0x2012 <loadGUISID+0x29>
    1e51: a0 01        	ldy	#$1
    1e53: b1 14        	lda	($14),y                 ; 0x2014 <loadGUISID+0x2b>
    1e55: 85 13        	sta	$13                     ; 0x2013 <loadGUISID+0x2a>
    1e57: a9 0f        	lda	#$f
    1e59: a0 05        	ldy	#$5
    1e5b: 31 12        	and	($12),y                 ; 0x2012 <loadGUISID+0x29>
    1e5d: 15 30        	ora	$30,x                   ; 0x2030 <loadGUISID+0x47>
    1e5f: 91 12        	sta	($12),y                 ; 0x2012 <loadGUISID+0x29>
    1e61: a2 7e        	ldx	#$7e
    1e63: a0 00        	ldy	#$0
    1e65: 84 13        	sty	$13                     ; 0x2013 <loadGUISID+0x2a>
    1e67: 86 87        	stx	$87                     ; 0x2087 <loadGUISID+0x9e>
    1e69: a6 13        	ldx	$13                     ; 0x2013 <loadGUISID+0x2a>
    1e6b: 86 88        	stx	$88                     ; 0x2088 <loadGUISID+0x9f>
    1e6d: a2 00        	ldx	#$0
    1e6f: 86 89        	stx	$89                     ; 0x2089 <loadGUISID+0xa0>
    1e71: a5 7c        	lda	$7c                     ; 0x207c <loadGUISID+0x93>
    1e73: a6 7d        	ldx	$7d                     ; 0x207d <loadGUISID+0x94>
    1e75: 85 12        	sta	$12                     ; 0x2012 <loadGUISID+0x29>
    1e77: 86 13        	stx	$13                     ; 0x2013 <loadGUISID+0x2a>
    1e79: 18           	clc
    1e7a: 69 04        	adc	#$4
    1e7c: 85 14        	sta	$14                     ; 0x2014 <loadGUISID+0x2b>
    1e7e: 8a           	txa
    1e7f: 69 00        	adc	#$0
    1e81: 85 15        	sta	$15                     ; 0x2015 <loadGUISID+0x2c>
    1e83: a0 04        	ldy	#$4
    1e85: b1 12        	lda	($12),y                 ; 0x2012 <loadGUISID+0x29>
    1e87: aa           	tax
    1e88: a0 01        	ldy	#$1
    1e8a: b1 14        	lda	($14),y                 ; 0x2014 <loadGUISID+0x2b>
    1e8c: 86 14        	stx	$14                     ; 0x2014 <loadGUISID+0x2b>
    1e8e: 85 15        	sta	$15                     ; 0x2015 <loadGUISID+0x2c>
    1e90: a6 87        	ldx	$87                     ; 0x2087 <loadGUISID+0x9e>
    1e92: 86 16        	stx	$16                     ; 0x2016 <loadGUISID+0x2d>
    1e94: a6 88        	ldx	$88                     ; 0x2088 <loadGUISID+0x9f>
    1e96: 86 17        	stx	$17                     ; 0x2017 <loadGUISID+0x2e>
    1e98: a4 16        	ldy	$16                     ; 0x2016 <loadGUISID+0x2d>
    1e9a: 84 12        	sty	$12                     ; 0x2012 <loadGUISID+0x29>
    1e9c: 86 13        	stx	$13                     ; 0x2013 <loadGUISID+0x2a>
    1e9e: a6 12        	ldx	$12                     ; 0x2012 <loadGUISID+0x29>
    1ea0: 86 87        	stx	$87                     ; 0x2087 <loadGUISID+0x9e>
    1ea2: a6 13        	ldx	$13                     ; 0x2013 <loadGUISID+0x2a>
    1ea4: 86 88        	stx	$88                     ; 0x2088 <loadGUISID+0x9f>
    1ea6: a6 12        	ldx	$12                     ; 0x2012 <loadGUISID+0x29>
    1ea8: 86 87        	stx	$87                     ; 0x2087 <loadGUISID+0x9e>
    1eaa: a6 13        	ldx	$13                     ; 0x2013 <loadGUISID+0x2a>
    1eac: 86 88        	stx	$88                     ; 0x2088 <loadGUISID+0x9f>
    1eae: a2 00        	ldx	#$0
    1eb0: a9 09        	lda	#$9
    1eb2: 20 af 44     	jsr	$44af <memcpy>
    1eb5: a6 87        	ldx	$87                     ; 0x2087 <loadGUISID+0x9e>
    1eb7: 86 12        	stx	$12                     ; 0x2012 <loadGUISID+0x29>
    1eb9: a6 88        	ldx	$88                     ; 0x2088 <loadGUISID+0x9f>
    1ebb: 86 13        	stx	$13                     ; 0x2013 <loadGUISID+0x2a>
    1ebd: a6 89        	ldx	$89                     ; 0x2089 <loadGUISID+0xa0>
    1ebf: 86 89        	stx	$89                     ; 0x2089 <loadGUISID+0xa0>
    1ec1: a9 00        	lda	#$0
    1ec3: 20 56 33     	jsr	$3356 <sid_setInstrument>
    1ec6: a5 7c        	lda	$7c                     ; 0x207c <loadGUISID+0x93>
    1ec8: a6 7d        	ldx	$7d                     ; 0x207d <loadGUISID+0x94>
    1eca: 85 12        	sta	$12                     ; 0x2012 <loadGUISID+0x29>
    1ecc: 86 13        	stx	$13                     ; 0x2013 <loadGUISID+0x2a>
    1ece: 18           	clc
    1ecf: 69 04        	adc	#$4
    1ed1: 85 14        	sta	$14                     ; 0x2014 <loadGUISID+0x2b>
    1ed3: 8a           	txa
    1ed4: 69 00        	adc	#$0
    1ed6: 85 15        	sta	$15                     ; 0x2015 <loadGUISID+0x2c>
    1ed8: a0 04        	ldy	#$4
    1eda: b1 12        	lda	($12),y                 ; 0x2012 <loadGUISID+0x29>
    1edc: aa           	tax
    1edd: a0 01        	ldy	#$1
    1edf: b1 14        	lda	($14),y                 ; 0x2014 <loadGUISID+0x2b>
    1ee1: 86 14        	stx	$14                     ; 0x2014 <loadGUISID+0x2b>
    1ee3: 85 15        	sta	$15                     ; 0x2015 <loadGUISID+0x2c>
    1ee5: a6 87        	ldx	$87                     ; 0x2087 <loadGUISID+0x9e>
    1ee7: 86 12        	stx	$12                     ; 0x2012 <loadGUISID+0x29>
    1ee9: a6 88        	ldx	$88                     ; 0x2088 <loadGUISID+0x9f>
    1eeb: 86 13        	stx	$13                     ; 0x2013 <loadGUISID+0x2a>
    1eed: a2 00        	ldx	#$0
    1eef: a9 09        	lda	#$9
    1ef1: 20 af 44     	jsr	$44af <memcpy>
    1ef4: a6 87        	ldx	$87                     ; 0x2087 <loadGUISID+0x9e>
    1ef6: 86 12        	stx	$12                     ; 0x2012 <loadGUISID+0x29>
    1ef8: a6 88        	ldx	$88                     ; 0x2088 <loadGUISID+0x9f>
    1efa: 86 13        	stx	$13                     ; 0x2013 <loadGUISID+0x2a>
    1efc: a6 89        	ldx	$89                     ; 0x2089 <loadGUISID+0xa0>
    1efe: a9 01        	lda	#$1
    1f00: 20 56 33     	jsr	$3356 <sid_setInstrument>
    1f03: a5 89        	lda	$89                     ; 0x2089 <loadGUISID+0xa0>
    1f05: 1a           	inc
    1f06: 85 89        	sta	$89                     ; 0x2089 <loadGUISID+0xa0>
    1f08: c9 03        	cmp	#$3
    1f0a: f0 03        	beq	$1f0f <checkUIEClick+0x438>
    1f0c: 4c 71 1e     	jmp	$1e71 <checkUIEClick+0x39a>
    1f0f: 4c 15 1b     	jmp	$1b15 <checkUIEClick+0x3e>

00001f12 <textLayerGen>:
    1f12: 18           	clc
    1f13: a5 10        	lda	$10                     ; 0x2010 <loadGUISID+0x27>
    1f15: 69 fc        	adc	#$fc
    1f17: 85 10        	sta	$10                     ; 0x2010 <loadGUISID+0x27>
    1f19: a5 11        	lda	$11                     ; 0x2011 <loadGUISID+0x28>
    1f1b: 69 ff        	adc	#$ff
    1f1d: 85 11        	sta	$11                     ; 0x2011 <loadGUISID+0x28>
    1f1f: a9 00        	lda	#$0
    1f21: 64 47        	stz	$47                     ; 0x2047 <loadGUISID+0x5e>
    1f23: 9c 14 d0     	stz	$d014                   ; 0xd014 <__heap_start+0x8332>
    1f26: 9c 15 d0     	stz	$d015                   ; 0xd015 <__heap_start+0x8333>
    1f29: 64 48        	stz	$48                     ; 0x2048 <loadGUISID+0x5f>
    1f2b: 9c 16 d0     	stz	$d016                   ; 0xd016 <__heap_start+0x8334>
    1f2e: 9c 17 d0     	stz	$d017                   ; 0xd017 <__heap_start+0x8335>
    1f31: 92 10        	sta	($10)                   ; 0x2010 <loadGUISID+0x27>
    1f33: a0 01        	ldy	#$1
    1f35: 91 10        	sta	($10),y                 ; 0x2010 <loadGUISID+0x27>
    1f37: c8           	iny
    1f38: 1a           	inc
    1f39: 91 10        	sta	($10),y                 ; 0x2010 <loadGUISID+0x27>
    1f3b: c8           	iny
    1f3c: 3a           	dec
    1f3d: 91 10        	sta	($10),y                 ; 0x2010 <loadGUISID+0x27>
    1f3f: 20 ca 35     	jsr	$35ca <printf>
    1f42: a2 06        	ldx	#$6
    1f44: 86 47        	stx	$47                     ; 0x2047 <loadGUISID+0x5e>
    1f46: 8e 14 d0     	stx	$d014                   ; 0xd014 <__heap_start+0x8332>
    1f49: 9c 15 d0     	stz	$d015                   ; 0xd015 <__heap_start+0x8333>
    1f4c: a2 02        	ldx	#$2
    1f4e: 86 48        	stx	$48                     ; 0x2048 <loadGUISID+0x5f>
    1f50: 8e 16 d0     	stx	$d016                   ; 0xd016 <__heap_start+0x8334>
    1f53: 9c 17 d0     	stz	$d017                   ; 0xd017 <__heap_start+0x8335>
    1f56: a2 09        	ldx	#$9
    1f58: 86 12        	stx	$12                     ; 0x2012 <loadGUISID+0x29>
    1f5a: a2 49        	ldx	#$49
    1f5c: 86 13        	stx	$13                     ; 0x2013 <loadGUISID+0x2a>
    1f5e: 20 b8 29     	jsr	$29b8 <textPrint>
    1f61: a2 06        	ldx	#$6
    1f63: 86 47        	stx	$47                     ; 0x2047 <loadGUISID+0x5e>
    1f65: 8e 14 d0     	stx	$d014                   ; 0xd014 <__heap_start+0x8332>
    1f68: 9c 15 d0     	stz	$d015                   ; 0xd015 <__heap_start+0x8333>
    1f6b: a2 04        	ldx	#$4
    1f6d: 86 48        	stx	$48                     ; 0x2048 <loadGUISID+0x5f>
    1f6f: 8e 16 d0     	stx	$d016                   ; 0xd016 <__heap_start+0x8334>
    1f72: 9c 17 d0     	stz	$d017                   ; 0xd017 <__heap_start+0x8335>
    1f75: a2 6c        	ldx	#$6c
    1f77: 86 12        	stx	$12                     ; 0x2012 <loadGUISID+0x29>
    1f79: a2 48        	ldx	#$48
    1f7b: 86 13        	stx	$13                     ; 0x2013 <loadGUISID+0x2a>
    1f7d: 20 b8 29     	jsr	$29b8 <textPrint>
    1f80: a2 06        	ldx	#$6
    1f82: 86 47        	stx	$47                     ; 0x2047 <loadGUISID+0x5e>
    1f84: 8e 14 d0     	stx	$d014                   ; 0xd014 <__heap_start+0x8332>
    1f87: 9c 15 d0     	stz	$d015                   ; 0xd015 <__heap_start+0x8333>
    1f8a: 86 48        	stx	$48                     ; 0x2048 <loadGUISID+0x5f>
    1f8c: 8e 16 d0     	stx	$d016                   ; 0xd016 <__heap_start+0x8334>
    1f8f: 9c 17 d0     	stz	$d017                   ; 0xd017 <__heap_start+0x8335>
    1f92: a2 68        	ldx	#$68
    1f94: 86 12        	stx	$12                     ; 0x2012 <loadGUISID+0x29>
    1f96: a2 48        	ldx	#$48
    1f98: 86 13        	stx	$13                     ; 0x2013 <loadGUISID+0x2a>
    1f9a: 20 b8 29     	jsr	$29b8 <textPrint>
    1f9d: a2 06        	ldx	#$6
    1f9f: 86 47        	stx	$47                     ; 0x2047 <loadGUISID+0x5e>
    1fa1: 8e 14 d0     	stx	$d014                   ; 0xd014 <__heap_start+0x8332>
    1fa4: 9c 15 d0     	stz	$d015                   ; 0xd015 <__heap_start+0x8333>
    1fa7: a2 08        	ldx	#$8
    1fa9: 86 48        	stx	$48                     ; 0x2048 <loadGUISID+0x5f>
    1fab: 8e 16 d0     	stx	$d016                   ; 0xd016 <__heap_start+0x8334>
    1fae: 9c 17 d0     	stz	$d017                   ; 0xd017 <__heap_start+0x8335>
    1fb1: a2 00        	ldx	#$0
    1fb3: 86 12        	stx	$12                     ; 0x2012 <loadGUISID+0x29>
    1fb5: a2 49        	ldx	#$49
    1fb7: 86 13        	stx	$13                     ; 0x2013 <loadGUISID+0x2a>
    1fb9: 20 b8 29     	jsr	$29b8 <textPrint>
    1fbc: a2 01        	ldx	#$1
    1fbe: 86 47        	stx	$47                     ; 0x2047 <loadGUISID+0x5e>
    1fc0: 8e 14 d0     	stx	$d014                   ; 0xd014 <__heap_start+0x8332>
    1fc3: 9c 15 d0     	stz	$d015                   ; 0xd015 <__heap_start+0x8333>
    1fc6: a2 1c        	ldx	#$1c
    1fc8: 86 48        	stx	$48                     ; 0x2048 <loadGUISID+0x5f>
    1fca: 8e 16 d0     	stx	$d016                   ; 0xd016 <__heap_start+0x8334>
    1fcd: 9c 17 d0     	stz	$d017                   ; 0xd017 <__heap_start+0x8335>
    1fd0: a2 12        	ldx	#$12
    1fd2: 86 12        	stx	$12                     ; 0x2012 <loadGUISID+0x29>
    1fd4: a2 49        	ldx	#$49
    1fd6: 86 13        	stx	$13                     ; 0x2013 <loadGUISID+0x2a>
    1fd8: 20 b8 29     	jsr	$29b8 <textPrint>
    1fdb: 18           	clc
    1fdc: a5 10        	lda	$10                     ; 0x2010 <loadGUISID+0x27>
    1fde: 69 04        	adc	#$4
    1fe0: 85 10        	sta	$10                     ; 0x2010 <loadGUISID+0x27>
    1fe2: a5 11        	lda	$11                     ; 0x2011 <loadGUISID+0x28>
    1fe4: 69 00        	adc	#$0
    1fe6: 85 11        	sta	$11                     ; 0x2011 <loadGUISID+0x28>
    1fe8: 60           	rts

00001fe9 <loadGUISID>:
    1fe9: 20 12 1f     	jsr	$1f12 <textLayerGen>
    1fec: a2 1e        	ldx	#$1e
    1fee: 86 47        	stx	$47                     ; 0x2047 <loadGUISID+0x5e>
    1ff0: 8e 14 d0     	stx	$d014                   ; 0xd014 <__heap_start+0x8332>
    1ff3: 9c 15 d0     	stz	$d015                   ; 0xd015 <__heap_start+0x8333>
    1ff6: a2 02        	ldx	#$2
    1ff8: 86 48        	stx	$48                     ; 0x2048 <loadGUISID+0x5f>
    1ffa: 8e 16 d0     	stx	$d016                   ; 0xd016 <__heap_start+0x8334>
    1ffd: 9c 17 d0     	stz	$d017                   ; 0xd017 <__heap_start+0x8335>
    2000: a2 70        	ldx	#$70
    2002: 86 12        	stx	$12                     ; 0x2012 <loadGUISID+0x29>
    2004: a2 48        	ldx	#$48
    2006: 86 13        	stx	$13                     ; 0x2013 <loadGUISID+0x2a>
    2008: 20 b8 29     	jsr	$29b8 <textPrint>
    200b: a2 1e        	ldx	#$1e
    200d: 86 47        	stx	$47                     ; 0x2047 <loadGUISID+0x5e>
    200f: 8e 14 d0     	stx	$d014                   ; 0xd014 <__heap_start+0x8332>
    2012: 9c 15 d0     	stz	$d015                   ; 0xd015 <__heap_start+0x8333>
    2015: a2 04        	ldx	#$4
    2017: 86 48        	stx	$48                     ; 0x2048 <loadGUISID+0x5f>
    2019: 8e 16 d0     	stx	$d016                   ; 0xd016 <__heap_start+0x8334>
    201c: 9c 17 d0     	stz	$d017                   ; 0xd017 <__heap_start+0x8335>
    201f: a2 fc        	ldx	#$fc
    2021: 86 12        	stx	$12                     ; 0x2012 <loadGUISID+0x29>
    2023: a2 48        	ldx	#$48
    2025: 86 13        	stx	$13                     ; 0x2013 <loadGUISID+0x2a>
    2027: 20 b8 29     	jsr	$29b8 <textPrint>
    202a: a2 1e        	ldx	#$1e
    202c: 86 47        	stx	$47                     ; 0x2047 <loadGUISID+0x5e>
    202e: 8e 14 d0     	stx	$d014                   ; 0xd014 <__heap_start+0x8332>
    2031: 9c 15 d0     	stz	$d015                   ; 0xd015 <__heap_start+0x8333>
    2034: a2 06        	ldx	#$6
    2036: 86 48        	stx	$48                     ; 0x2048 <loadGUISID+0x5f>
    2038: 8e 16 d0     	stx	$d016                   ; 0xd016 <__heap_start+0x8334>
    203b: 9c 17 d0     	stz	$d017                   ; 0xd017 <__heap_start+0x8335>
    203e: a2 f8        	ldx	#$f8
    2040: 86 12        	stx	$12                     ; 0x2012 <loadGUISID+0x29>
    2042: a2 48        	ldx	#$48
    2044: 86 13        	stx	$13                     ; 0x2013 <loadGUISID+0x2a>
    2046: 20 b8 29     	jsr	$29b8 <textPrint>
    2049: a2 1e        	ldx	#$1e
    204b: 86 47        	stx	$47                     ; 0x2047 <loadGUISID+0x5e>
    204d: 8e 14 d0     	stx	$d014                   ; 0xd014 <__heap_start+0x8332>
    2050: 9c 15 d0     	stz	$d015                   ; 0xd015 <__heap_start+0x8333>
    2053: a2 08        	ldx	#$8
    2055: 86 48        	stx	$48                     ; 0x2048 <loadGUISID+0x5f>
    2057: 8e 16 d0     	stx	$d016                   ; 0xd016 <__heap_start+0x8334>
    205a: 9c 17 d0     	stz	$d017                   ; 0xd017 <__heap_start+0x8335>
    205d: a2 0e        	ldx	#$e
    205f: 86 12        	stx	$12                     ; 0x2012 <loadGUISID+0x29>
    2061: a2 49        	ldx	#$49
    2063: 86 13        	stx	$13                     ; 0x2013 <loadGUISID+0x2a>
    2065: 20 b8 29     	jsr	$29b8 <textPrint>
    2068: a2 0d        	ldx	#$d
    206a: 86 47        	stx	$47                     ; 0x2047 <loadGUISID+0x5e>
    206c: 8e 14 d0     	stx	$d014                   ; 0xd014 <__heap_start+0x8332>
    206f: 9c 15 d0     	stz	$d015                   ; 0xd015 <__heap_start+0x8333>
    2072: a2 02        	ldx	#$2
    2074: 86 48        	stx	$48                     ; 0x2048 <loadGUISID+0x5f>
    2076: 8e 16 d0     	stx	$d016                   ; 0xd016 <__heap_start+0x8334>
    2079: 9c 17 d0     	stz	$d017                   ; 0xd017 <__heap_start+0x8335>
    207c: a2 8d        	ldx	#$8d
    207e: 86 12        	stx	$12                     ; 0x2012 <loadGUISID+0x29>
    2080: a2 48        	ldx	#$48
    2082: 86 13        	stx	$13                     ; 0x2013 <loadGUISID+0x2a>
    2084: 20 b8 29     	jsr	$29b8 <textPrint>
    2087: a2 0d        	ldx	#$d
    2089: 86 47        	stx	$47                     ; 0x2047 <loadGUISID+0x5e>
    208b: 8e 14 d0     	stx	$d014                   ; 0xd014 <__heap_start+0x8332>
    208e: 9c 15 d0     	stz	$d015                   ; 0xd015 <__heap_start+0x8333>
    2091: a2 09        	ldx	#$9
    2093: 86 48        	stx	$48                     ; 0x2048 <loadGUISID+0x5f>
    2095: 8e 16 d0     	stx	$d016                   ; 0xd016 <__heap_start+0x8334>
    2098: 9c 17 d0     	stz	$d017                   ; 0xd017 <__heap_start+0x8335>
    209b: a2 05        	ldx	#$5
    209d: 86 12        	stx	$12                     ; 0x2012 <loadGUISID+0x29>
    209f: a2 49        	ldx	#$49
    20a1: 86 13        	stx	$13                     ; 0x2013 <loadGUISID+0x2a>
    20a3: 20 b8 29     	jsr	$29b8 <textPrint>
    20a6: a0 2c        	ldy	#$2c
    20a8: 64 12        	stz	$12                     ; 0x2012 <loadGUISID+0x29>
    20aa: a9 00        	lda	#$0
    20ac: 64 8f        	stz	$8f                     ; 0x208f <loadGUISID+0xa6>
    20ae: a6 12        	ldx	$12                     ; 0x2012 <loadGUISID+0x29>
    20b0: 86 1a        	stx	$1a                     ; 0x201a <loadGUISID+0x31>
    20b2: 18           	clc
    20b3: aa           	tax
    20b4: a9 8f        	lda	#$8f
    20b6: 65 12        	adc	$12                     ; 0x2012 <loadGUISID+0x29>
    20b8: 85 18        	sta	$18                     ; 0x2018 <loadGUISID+0x2f>
    20ba: 86 8e        	stx	$8e                     ; 0x208e <loadGUISID+0xa5>
    20bc: 86 12        	stx	$12                     ; 0x2012 <loadGUISID+0x29>
    20be: 84 1b        	sty	$1b                     ; 0x201b <loadGUISID+0x32>
    20c0: a9 4a        	lda	#$4a
    20c2: 65 12        	adc	$12                     ; 0x2012 <loadGUISID+0x29>
    20c4: a8           	tay
    20c5: a5 18        	lda	$18                     ; 0x2018 <loadGUISID+0x2f>
    20c7: 18           	clc
    20c8: 69 03        	adc	#$3
    20ca: 85 16        	sta	$16                     ; 0x2016 <loadGUISID+0x2d>
    20cc: 98           	tya
    20cd: 69 00        	adc	#$0
    20cf: a6 8f        	ldx	$8f                     ; 0x208f <loadGUISID+0xa6>
    20d1: 48           	pha
    20d2: bd d0 47     	lda	$47d0,x                 ; 0x47d0 <sidSpriteAction>
    20d5: aa           	tax
    20d6: a5 18        	lda	$18                     ; 0x2018 <loadGUISID+0x2f>
    20d8: 85 12        	sta	$12                     ; 0x2012 <loadGUISID+0x29>
    20da: 84 13        	sty	$13                     ; 0x2013 <loadGUISID+0x2a>
    20dc: a5 12        	lda	$12                     ; 0x2012 <loadGUISID+0x29>
    20de: 85 14        	sta	$14                     ; 0x2014 <loadGUISID+0x2b>
    20e0: 68           	pla
    20e1: 84 15        	sty	$15                     ; 0x2015 <loadGUISID+0x2c>
    20e3: 85 17        	sta	$17                     ; 0x2017 <loadGUISID+0x2e>
    20e5: 18           	clc
    20e6: a5 18        	lda	$18                     ; 0x2018 <loadGUISID+0x2f>
    20e8: 69 08        	adc	#$8
    20ea: 85 18        	sta	$18                     ; 0x2018 <loadGUISID+0x2f>
    20ec: 98           	tya
    20ed: 69 00        	adc	#$0
    20ef: e6 14        	inc	$14                     ; 0x2014 <loadGUISID+0x2b>
    20f1: d0 02        	bne	$20f5 <loadGUISID+0x10c>
    20f3: e6 15        	inc	$15                     ; 0x2015 <loadGUISID+0x2c>
    20f5: 85 19        	sta	$19                     ; 0x2019 <loadGUISID+0x30>
    20f7: a0 01        	ldy	#$1
    20f9: a9 00        	lda	#$0
    20fb: 91 14        	sta	($14),y                 ; 0x2014 <loadGUISID+0x2b>
    20fd: 91 16        	sta	($16),y                 ; 0x2016 <loadGUISID+0x2d>
    20ff: a9 38        	lda	#$38
    2101: 91 18        	sta	($18),y                 ; 0x2018 <loadGUISID+0x2f>
    2103: c8           	iny
    2104: a9 01        	lda	#$1
    2106: 91 18        	sta	($18),y                 ; 0x2018 <loadGUISID+0x2f>
    2108: c8           	iny
    2109: 3a           	dec
    210a: 91 18        	sta	($18),y                 ; 0x2018 <loadGUISID+0x2f>
    210c: a5 8f        	lda	$8f                     ; 0x208f <loadGUISID+0xa6>
    210e: 92 12        	sta	($12)                   ; 0x2012 <loadGUISID+0x29>
    2110: a9 28        	lda	#$28
    2112: a0 01        	ldy	#$1
    2114: 91 12        	sta	($12),y                 ; 0x2012 <loadGUISID+0x29>
    2116: a5 1b        	lda	$1b                     ; 0x201b <loadGUISID+0x32>
    2118: 85 8c        	sta	$8c                     ; 0x208c <loadGUISID+0xa3>
    211a: a0 03        	ldy	#$3
    211c: 91 12        	sta	($12),y                 ; 0x2012 <loadGUISID+0x29>
    211e: a0 05        	ldy	#$5
    2120: a9 00        	lda	#$0
    2122: 91 12        	sta	($12),y                 ; 0x2012 <loadGUISID+0x29>
    2124: c8           	iny
    2125: 91 12        	sta	($12),y                 ; 0x2012 <loadGUISID+0x29>
    2127: c8           	iny
    2128: 91 12        	sta	($12),y                 ; 0x2012 <loadGUISID+0x29>
    212a: c8           	iny
    212b: 91 12        	sta	($12),y                 ; 0x2012 <loadGUISID+0x29>
    212d: a5 8f        	lda	$8f                     ; 0x208f <loadGUISID+0xa6>
    212f: a0 0c        	ldy	#$c
    2131: 91 12        	sta	($12),y                 ; 0x2012 <loadGUISID+0x29>
    2133: c8           	iny
    2134: a9 10        	lda	#$10
    2136: 91 12        	sta	($12),y                 ; 0x2012 <loadGUISID+0x29>
    2138: c8           	iny
    2139: a9 00        	lda	#$0
    213b: 91 12        	sta	($12),y                 ; 0x2012 <loadGUISID+0x29>
    213d: a9 0d        	lda	#$d
    213f: c8           	iny
    2140: 91 12        	sta	($12),y                 ; 0x2012 <loadGUISID+0x29>
    2142: a9 04        	lda	#$4
    2144: c8           	iny
    2145: 91 12        	sta	($12),y                 ; 0x2012 <loadGUISID+0x29>
    2147: a9 0b        	lda	#$b
    2149: c8           	iny
    214a: 91 12        	sta	($12),y                 ; 0x2012 <loadGUISID+0x29>
    214c: c8           	iny
    214d: 8a           	txa
    214e: 91 12        	sta	($12),y                 ; 0x2012 <loadGUISID+0x29>
    2150: a9 01        	lda	#$1
    2152: a6 1a        	ldx	$1a                     ; 0x201a <loadGUISID+0x31>
    2154: 86 8d        	stx	$8d                     ; 0x208d <loadGUISID+0xa4>
    2156: e0 15        	cpx	#$15
    2158: f0 02        	beq	$215c <loadGUISID+0x173>
    215a: a9 00        	lda	#$0
    215c: aa           	tax
    215d: a9 00        	lda	#$0
    215f: 20 2f 2e     	jsr	$2e2f <setRadioB>
    2162: e6 8f        	inc	$8f                     ; 0x208f <loadGUISID+0xa6>
    2164: 18           	clc
    2165: a5 8c        	lda	$8c                     ; 0x208c <loadGUISID+0xa3>
    2167: 69 10        	adc	#$10
    2169: a8           	tay
    216a: 18           	clc
    216b: a5 8d        	lda	$8d                     ; 0x208d <loadGUISID+0xa4>
    216d: 69 15        	adc	#$15
    216f: aa           	tax
    2170: a5 8e        	lda	$8e                     ; 0x208e <loadGUISID+0xa5>
    2172: 69 00        	adc	#$0
    2174: 86 12        	stx	$12                     ; 0x2012 <loadGUISID+0x29>
    2176: e0 54        	cpx	#$54
    2178: f0 03        	beq	$217d <loadGUISID+0x194>
    217a: 4c ae 20     	jmp	$20ae <loadGUISID+0xc5>
    217d: a0 2c        	ldy	#$2c
    217f: 64 12        	stz	$12                     ; 0x2012 <loadGUISID+0x29>
    2181: a9 00        	lda	#$0
    2183: a2 04        	ldx	#$4
    2185: 86 96        	stx	$96                     ; 0x2096 <loadGUISID+0xad>
    2187: a6 12        	ldx	$12                     ; 0x2012 <loadGUISID+0x29>
    2189: 86 1c        	stx	$1c                     ; 0x201c <loadGUISID+0x33>
    218b: 18           	clc
    218c: 85 13        	sta	$13                     ; 0x2013 <loadGUISID+0x2a>
    218e: a9 8f        	lda	#$8f
    2190: 65 12        	adc	$12                     ; 0x2012 <loadGUISID+0x29>
    2192: 85 15        	sta	$15                     ; 0x2015 <loadGUISID+0x2c>
    2194: a6 13        	ldx	$13                     ; 0x2013 <loadGUISID+0x2a>
    2196: 86 8e        	stx	$8e                     ; 0x208e <loadGUISID+0xa5>
    2198: a9 4a        	lda	#$4a
    219a: 65 13        	adc	$13                     ; 0x2013 <loadGUISID+0x2a>
    219c: 85 14        	sta	$14                     ; 0x2014 <loadGUISID+0x2b>
    219e: a5 15        	lda	$15                     ; 0x2015 <loadGUISID+0x2c>
    21a0: 18           	clc
    21a1: 69 54        	adc	#$54
    21a3: 85 12        	sta	$12                     ; 0x2012 <loadGUISID+0x29>
    21a5: a5 14        	lda	$14                     ; 0x2014 <loadGUISID+0x2b>
    21a7: 69 00        	adc	#$0
    21a9: 85 13        	sta	$13                     ; 0x2013 <loadGUISID+0x2a>
    21ab: a5 15        	lda	$15                     ; 0x2015 <loadGUISID+0x2c>
    21ad: 18           	clc
    21ae: 69 55        	adc	#$55
    21b0: 85 16        	sta	$16                     ; 0x2016 <loadGUISID+0x2d>
    21b2: 84 1d        	sty	$1d                     ; 0x201d <loadGUISID+0x34>
    21b4: a5 14        	lda	$14                     ; 0x2014 <loadGUISID+0x2b>
    21b6: 69 00        	adc	#$0
    21b8: 85 17        	sta	$17                     ; 0x2017 <loadGUISID+0x2e>
    21ba: a5 15        	lda	$15                     ; 0x2015 <loadGUISID+0x2c>
    21bc: 18           	clc
    21bd: 69 57        	adc	#$57
    21bf: 85 18        	sta	$18                     ; 0x2018 <loadGUISID+0x2f>
    21c1: a4 14        	ldy	$14                     ; 0x2014 <loadGUISID+0x2b>
    21c3: a5 14        	lda	$14                     ; 0x2014 <loadGUISID+0x2b>
    21c5: 69 00        	adc	#$0
    21c7: 85 19        	sta	$19                     ; 0x2019 <loadGUISID+0x30>
    21c9: a6 15        	ldx	$15                     ; 0x2015 <loadGUISID+0x2c>
    21cb: 86 14        	stx	$14                     ; 0x2014 <loadGUISID+0x2b>
    21cd: a5 15        	lda	$15                     ; 0x2015 <loadGUISID+0x2c>
    21cf: 84 15        	sty	$15                     ; 0x2015 <loadGUISID+0x2c>
    21d1: 18           	clc
    21d2: 69 5c        	adc	#$5c
    21d4: 85 1a        	sta	$1a                     ; 0x201a <loadGUISID+0x31>
    21d6: 98           	tya
    21d7: 69 00        	adc	#$0
    21d9: 85 1b        	sta	$1b                     ; 0x201b <loadGUISID+0x32>
    21db: a5 96        	lda	$96                     ; 0x2096 <loadGUISID+0xad>
    21dd: aa           	tax
    21de: 85 1e        	sta	$1e                     ; 0x201e <loadGUISID+0x35>
    21e0: bd d0 47     	lda	$47d0,x                 ; 0x47d0 <sidSpriteAction>
    21e3: a0 66        	ldy	#$66
    21e5: 91 14        	sta	($14),y                 ; 0x2014 <loadGUISID+0x2b>
    21e7: a0 01        	ldy	#$1
    21e9: a9 00        	lda	#$0
    21eb: 91 16        	sta	($16),y                 ; 0x2016 <loadGUISID+0x2d>
    21ed: 91 18        	sta	($18),y                 ; 0x2018 <loadGUISID+0x2f>
    21ef: a9 38        	lda	#$38
    21f1: 91 1a        	sta	($1a),y                 ; 0x201a <loadGUISID+0x31>
    21f3: c8           	iny
    21f4: a9 01        	lda	#$1
    21f6: 91 1a        	sta	($1a),y                 ; 0x201a <loadGUISID+0x31>
    21f8: c8           	iny
    21f9: 3a           	dec
    21fa: 91 1a        	sta	($1a),y                 ; 0x201a <loadGUISID+0x31>
    21fc: a0 54        	ldy	#$54
    21fe: a5 1e        	lda	$1e                     ; 0x201e <loadGUISID+0x35>
    2200: 91 14        	sta	($14),y                 ; 0x2014 <loadGUISID+0x2b>
    2202: c8           	iny
    2203: a9 88        	lda	#$88
    2205: 91 14        	sta	($14),y                 ; 0x2014 <loadGUISID+0x2b>
    2207: a5 1d        	lda	$1d                     ; 0x201d <loadGUISID+0x34>
    2209: 85 8c        	sta	$8c                     ; 0x208c <loadGUISID+0xa3>
    220b: a0 57        	ldy	#$57
    220d: 91 14        	sta	($14),y                 ; 0x2014 <loadGUISID+0x2b>
    220f: a0 59        	ldy	#$59
    2211: a9 00        	lda	#$0
    2213: 91 14        	sta	($14),y                 ; 0x2014 <loadGUISID+0x2b>
    2215: c8           	iny
    2216: 91 14        	sta	($14),y                 ; 0x2014 <loadGUISID+0x2b>
    2218: c8           	iny
    2219: 91 14        	sta	($14),y                 ; 0x2014 <loadGUISID+0x2b>
    221b: c8           	iny
    221c: 91 14        	sta	($14),y                 ; 0x2014 <loadGUISID+0x2b>
    221e: a5 1e        	lda	$1e                     ; 0x201e <loadGUISID+0x35>
    2220: 85 8f        	sta	$8f                     ; 0x208f <loadGUISID+0xa6>
    2222: a0 60        	ldy	#$60
    2224: 91 14        	sta	($14),y                 ; 0x2014 <loadGUISID+0x2b>
    2226: a9 10        	lda	#$10
    2228: c8           	iny
    2229: 91 14        	sta	($14),y                 ; 0x2014 <loadGUISID+0x2b>
    222b: c8           	iny
    222c: a9 00        	lda	#$0
    222e: 91 14        	sta	($14),y                 ; 0x2014 <loadGUISID+0x2b>
    2230: a9 0d        	lda	#$d
    2232: c8           	iny
    2233: 91 14        	sta	($14),y                 ; 0x2014 <loadGUISID+0x2b>
    2235: a9 04        	lda	#$4
    2237: c8           	iny
    2238: 91 14        	sta	($14),y                 ; 0x2014 <loadGUISID+0x2b>
    223a: a9 0b        	lda	#$b
    223c: c8           	iny
    223d: 91 14        	sta	($14),y                 ; 0x2014 <loadGUISID+0x2b>
    223f: a9 01        	lda	#$1
    2241: a6 1c        	ldx	$1c                     ; 0x201c <loadGUISID+0x33>
    2243: 86 8d        	stx	$8d                     ; 0x208d <loadGUISID+0xa4>
    2245: e0 15        	cpx	#$15
    2247: f0 02        	beq	$224b <loadGUISID+0x262>
    2249: a9 00        	lda	#$0
    224b: aa           	tax
    224c: a9 01        	lda	#$1
    224e: 20 2f 2e     	jsr	$2e2f <setRadioB>
    2251: e6 8f        	inc	$8f                     ; 0x208f <loadGUISID+0xa6>
    2253: a6 8f        	ldx	$8f                     ; 0x208f <loadGUISID+0xa6>
    2255: 86 96        	stx	$96                     ; 0x2096 <loadGUISID+0xad>
    2257: 18           	clc
    2258: a5 8c        	lda	$8c                     ; 0x208c <loadGUISID+0xa3>
    225a: 69 10        	adc	#$10
    225c: a8           	tay
    225d: 18           	clc
    225e: a5 8d        	lda	$8d                     ; 0x208d <loadGUISID+0xa4>
    2260: 69 15        	adc	#$15
    2262: aa           	tax
    2263: a5 8e        	lda	$8e                     ; 0x208e <loadGUISID+0xa5>
    2265: 69 00        	adc	#$0
    2267: 86 12        	stx	$12                     ; 0x2012 <loadGUISID+0x29>
    2269: e0 54        	cpx	#$54
    226b: f0 03        	beq	$2270 <loadGUISID+0x287>
    226d: 4c 87 21     	jmp	$2187 <loadGUISID+0x19e>
    2270: a0 4f        	ldy	#$4f
    2272: a2 08        	ldx	#$8
    2274: 64 13        	stz	$13                     ; 0x2013 <loadGUISID+0x2a>
    2276: 64 12        	stz	$12                     ; 0x2012 <loadGUISID+0x29>
    2278: 86 14        	stx	$14                     ; 0x2014 <loadGUISID+0x2b>
    227a: bd d0 47     	lda	$47d0,x                 ; 0x47d0 <sidSpriteAction>
    227d: aa           	tax
    227e: 86 15        	stx	$15                     ; 0x2015 <loadGUISID+0x2c>
    2280: a6 13        	ldx	$13                     ; 0x2013 <loadGUISID+0x2a>
    2282: 9e 39 4b     	stz	$4b39,x                 ; 0x4b39 <sliders+0x2>
    2285: 9e 3b 4b     	stz	$4b3b,x                 ; 0x4b3b <sliders+0x4>
    2288: 9e 3c 4b     	stz	$4b3c,x                 ; 0x4b3c <sliders+0x5>
    228b: 9e 3d 4b     	stz	$4b3d,x                 ; 0x4b3d <sliders+0x6>
    228e: 9e 3e 4b     	stz	$4b3e,x                 ; 0x4b3e <sliders+0x7>
    2291: 9e 3f 4b     	stz	$4b3f,x                 ; 0x4b3f <sliders+0x8>
    2294: 9e 42 4b     	stz	$4b42,x                 ; 0x4b42 <sliders+0xb>
    2297: a5 14        	lda	$14                     ; 0x2014 <loadGUISID+0x2b>
    2299: 9d 37 4b     	sta	$4b37,x                 ; 0x4b37 <sliders>
    229c: 98           	tya
    229d: 9d 38 4b     	sta	$4b38,x                 ; 0x4b38 <sliders+0x1>
    22a0: a9 32        	lda	#$32
    22a2: 9d 3a 4b     	sta	$4b3a,x                 ; 0x4b3a <sliders+0x3>
    22a5: a9 28        	lda	#$28
    22a7: 9d 40 4b     	sta	$4b40,x                 ; 0x4b40 <sliders+0x9>
    22aa: a9 01        	lda	#$1
    22ac: 9d 41 4b     	sta	$4b41,x                 ; 0x4b41 <sliders+0xa>
    22af: a5 12        	lda	$12                     ; 0x2012 <loadGUISID+0x29>
    22b1: 9d 43 4b     	sta	$4b43,x                 ; 0x4b43 <sliders+0xc>
    22b4: a9 10        	lda	#$10
    22b6: 9d 44 4b     	sta	$4b44,x                 ; 0x4b44 <sliders+0xd>
    22b9: a9 03        	lda	#$3
    22bb: 9d 45 4b     	sta	$4b45,x                 ; 0x4b45 <sliders+0xe>
    22be: a9 0a        	lda	#$a
    22c0: 9d 46 4b     	sta	$4b46,x                 ; 0x4b46 <sliders+0xf>
    22c3: a9 06        	lda	#$6
    22c5: 9d 47 4b     	sta	$4b47,x                 ; 0x4b47 <sliders+0x10>
    22c8: a9 19        	lda	#$19
    22ca: 9d 48 4b     	sta	$4b48,x                 ; 0x4b48 <sliders+0x11>
    22cd: a5 15        	lda	$15                     ; 0x2015 <loadGUISID+0x2c>
    22cf: 9d 49 4b     	sta	$4b49,x                 ; 0x4b49 <sliders+0x12>
    22d2: 18           	clc
    22d3: a5 14        	lda	$14                     ; 0x2014 <loadGUISID+0x2b>
    22d5: 69 02        	adc	#$2
    22d7: aa           	tax
    22d8: e6 12        	inc	$12                     ; 0x2012 <loadGUISID+0x29>
    22da: 18           	clc
    22db: a5 13        	lda	$13                     ; 0x2013 <loadGUISID+0x2a>
    22dd: 69 1c        	adc	#$1c
    22df: 85 13        	sta	$13                     ; 0x2013 <loadGUISID+0x2a>
    22e1: 18           	clc
    22e2: 98           	tya
    22e3: 69 0c        	adc	#$c
    22e5: a8           	tay
    22e6: e0 10        	cpx	#$10
    22e8: f0 03        	beq	$22ed <loadGUISID+0x304>
    22ea: 4c 78 22     	jmp	$2278 <loadGUISID+0x28f>
    22ed: a5 7c        	lda	$7c                     ; 0x207c <loadGUISID+0x93>
    22ef: a6 7d        	ldx	$7d                     ; 0x207d <loadGUISID+0x94>
    22f1: 85 8c        	sta	$8c                     ; 0x208c <loadGUISID+0xa3>
    22f3: 86 8d        	stx	$8d                     ; 0x208d <loadGUISID+0xa4>
    22f5: a0 04        	ldy	#$4
    22f7: 18           	clc
    22f8: 69 04        	adc	#$4
    22fa: 85 8e        	sta	$8e                     ; 0x208e <loadGUISID+0xa5>
    22fc: 8a           	txa
    22fd: 69 00        	adc	#$0
    22ff: 85 8f        	sta	$8f                     ; 0x208f <loadGUISID+0xa6>
    2301: b1 8c        	lda	($8c),y                 ; 0x208c <loadGUISID+0xa3>
    2303: 85 12        	sta	$12                     ; 0x2012 <loadGUISID+0x29>
    2305: a0 01        	ldy	#$1
    2307: b1 8e        	lda	($8e),y                 ; 0x208e <loadGUISID+0xa5>
    2309: 85 13        	sta	$13                     ; 0x2013 <loadGUISID+0x2a>
    230b: a0 03        	ldy	#$3
    230d: b1 12        	lda	($12),y                 ; 0x2012 <loadGUISID+0x29>
    230f: 4a           	lsr
    2310: 4a           	lsr
    2311: 4a           	lsr
    2312: 4a           	lsr
    2313: 8d 4a 4b     	sta	$4b4a                   ; 0x4b4a <sliders+0x13>
    2316: 9c 4b 4b     	stz	$4b4b                   ; 0x4b4b <sliders+0x14>
    2319: a2 0f        	ldx	#$f
    231b: 8e 4c 4b     	stx	$4b4c                   ; 0x4b4c <sliders+0x15>
    231e: 9c 4d 4b     	stz	$4b4d                   ; 0x4b4d <sliders+0x16>
    2321: 9c 4e 4b     	stz	$4b4e                   ; 0x4b4e <sliders+0x17>
    2324: 9c 4f 4b     	stz	$4b4f                   ; 0x4b4f <sliders+0x18>
    2327: 9c 50 4b     	stz	$4b50                   ; 0x4b50 <sliders+0x19>
    232a: 9c 51 4b     	stz	$4b51                   ; 0x4b51 <sliders+0x1a>
    232d: 9c 52 4b     	stz	$4b52                   ; 0x4b52 <sliders+0x1b>
    2330: a2 37        	ldx	#$37
    2332: 86 12        	stx	$12                     ; 0x2012 <loadGUISID+0x29>
    2334: a2 4b        	ldx	#$4b
    2336: 86 13        	stx	$13                     ; 0x2013 <loadGUISID+0x2a>
    2338: 20 a0 30     	jsr	$30a0 <updateSlider>
    233b: a0 04        	ldy	#$4
    233d: b1 8c        	lda	($8c),y                 ; 0x208c <loadGUISID+0xa3>
    233f: 85 12        	sta	$12                     ; 0x2012 <loadGUISID+0x29>
    2341: a0 01        	ldy	#$1
    2343: b1 8e        	lda	($8e),y                 ; 0x208e <loadGUISID+0xa5>
    2345: 85 13        	sta	$13                     ; 0x2013 <loadGUISID+0x2a>
    2347: a9 0f        	lda	#$f
    2349: a0 03        	ldy	#$3
    234b: 31 12        	and	($12),y                 ; 0x2012 <loadGUISID+0x29>
    234d: 8d 66 4b     	sta	$4b66                   ; 0x4b66 <sliders+0x2f>
    2350: 9c 67 4b     	stz	$4b67                   ; 0x4b67 <sliders+0x30>
    2353: a2 0f        	ldx	#$f
    2355: 8e 68 4b     	stx	$4b68                   ; 0x4b68 <sliders+0x31>
    2358: 9c 69 4b     	stz	$4b69                   ; 0x4b69 <sliders+0x32>
    235b: 9c 6a 4b     	stz	$4b6a                   ; 0x4b6a <sliders+0x33>
    235e: 9c 6b 4b     	stz	$4b6b                   ; 0x4b6b <sliders+0x34>
    2361: 9c 6c 4b     	stz	$4b6c                   ; 0x4b6c <sliders+0x35>
    2364: 9c 6d 4b     	stz	$4b6d                   ; 0x4b6d <sliders+0x36>
    2367: 9c 6e 4b     	stz	$4b6e                   ; 0x4b6e <sliders+0x37>
    236a: a2 53        	ldx	#$53
    236c: 86 12        	stx	$12                     ; 0x2012 <loadGUISID+0x29>
    236e: a2 4b        	ldx	#$4b
    2370: 86 13        	stx	$13                     ; 0x2013 <loadGUISID+0x2a>
    2372: 20 a0 30     	jsr	$30a0 <updateSlider>
    2375: a0 04        	ldy	#$4
    2377: b1 8c        	lda	($8c),y                 ; 0x208c <loadGUISID+0xa3>
    2379: 85 12        	sta	$12                     ; 0x2012 <loadGUISID+0x29>
    237b: a0 01        	ldy	#$1
    237d: b1 8e        	lda	($8e),y                 ; 0x208e <loadGUISID+0xa5>
    237f: 85 13        	sta	$13                     ; 0x2013 <loadGUISID+0x2a>
    2381: a0 04        	ldy	#$4
    2383: b1 12        	lda	($12),y                 ; 0x2012 <loadGUISID+0x29>
    2385: 4a           	lsr
    2386: 4a           	lsr
    2387: 4a           	lsr
    2388: 4a           	lsr
    2389: 8d 82 4b     	sta	$4b82                   ; 0x4b82 <sliders+0x4b>
    238c: 9c 83 4b     	stz	$4b83                   ; 0x4b83 <sliders+0x4c>
    238f: a2 0f        	ldx	#$f
    2391: 8e 84 4b     	stx	$4b84                   ; 0x4b84 <sliders+0x4d>
    2394: 9c 85 4b     	stz	$4b85                   ; 0x4b85 <sliders+0x4e>
    2397: 9c 86 4b     	stz	$4b86                   ; 0x4b86 <sliders+0x4f>
    239a: 9c 87 4b     	stz	$4b87                   ; 0x4b87 <sliders+0x50>
    239d: 9c 88 4b     	stz	$4b88                   ; 0x4b88 <sliders+0x51>
    23a0: 9c 89 4b     	stz	$4b89                   ; 0x4b89 <sliders+0x52>
    23a3: 9c 8a 4b     	stz	$4b8a                   ; 0x4b8a <sliders+0x53>
    23a6: a2 6f        	ldx	#$6f
    23a8: 86 12        	stx	$12                     ; 0x2012 <loadGUISID+0x29>
    23aa: a2 4b        	ldx	#$4b
    23ac: 86 13        	stx	$13                     ; 0x2013 <loadGUISID+0x2a>
    23ae: 20 a0 30     	jsr	$30a0 <updateSlider>
    23b1: a0 04        	ldy	#$4
    23b3: b1 8c        	lda	($8c),y                 ; 0x208c <loadGUISID+0xa3>
    23b5: 85 12        	sta	$12                     ; 0x2012 <loadGUISID+0x29>
    23b7: a0 01        	ldy	#$1
    23b9: b1 8e        	lda	($8e),y                 ; 0x208e <loadGUISID+0xa5>
    23bb: 85 13        	sta	$13                     ; 0x2013 <loadGUISID+0x2a>
    23bd: a9 0f        	lda	#$f
    23bf: a0 04        	ldy	#$4
    23c1: 31 12        	and	($12),y                 ; 0x2012 <loadGUISID+0x29>
    23c3: 8d 9e 4b     	sta	$4b9e                   ; 0x4b9e <sliders+0x67>
    23c6: 9c 9f 4b     	stz	$4b9f                   ; 0x4b9f <sliders+0x68>
    23c9: a2 0f        	ldx	#$f
    23cb: 8e a0 4b     	stx	$4ba0                   ; 0x4ba0 <sliders+0x69>
    23ce: 9c a1 4b     	stz	$4ba1                   ; 0x4ba1 <sliders+0x6a>
    23d1: 9c a2 4b     	stz	$4ba2                   ; 0x4ba2 <sliders+0x6b>
    23d4: 9c a3 4b     	stz	$4ba3                   ; 0x4ba3 <sliders+0x6c>
    23d7: 9c a4 4b     	stz	$4ba4                   ; 0x4ba4 <sliders+0x6d>
    23da: 9c a5 4b     	stz	$4ba5                   ; 0x4ba5 <sliders+0x6e>
    23dd: 9c a6 4b     	stz	$4ba6                   ; 0x4ba6 <sliders+0x6f>
    23e0: a2 8b        	ldx	#$8b
    23e2: 86 12        	stx	$12                     ; 0x2012 <loadGUISID+0x29>
    23e4: a2 4b        	ldx	#$4b
    23e6: 86 13        	stx	$13                     ; 0x2013 <loadGUISID+0x2a>
    23e8: 20 a0 30     	jsr	$30a0 <updateSlider>
    23eb: a2 13        	ldx	#$13
    23ed: 86 96        	stx	$96                     ; 0x2096 <loadGUISID+0xad>
    23ef: a2 4e        	ldx	#$4e
    23f1: 86 97        	stx	$97                     ; 0x2097 <loadGUISID+0xae>
    23f3: 64 12        	stz	$12                     ; 0x2012 <loadGUISID+0x29>
    23f5: 64 13        	stz	$13                     ; 0x2013 <loadGUISID+0x2a>
    23f7: a2 10        	ldx	#$10
    23f9: 18           	clc
    23fa: 8a           	txa
    23fb: 86 90        	stx	$90                     ; 0x2090 <loadGUISID+0xa7>
    23fd: 69 f0        	adc	#$f0
    23ff: 85 18        	sta	$18                     ; 0x2018 <loadGUISID+0x2f>
    2401: a6 12        	ldx	$12                     ; 0x2012 <loadGUISID+0x29>
    2403: a9 a7        	lda	#$a7
    2405: 18           	clc
    2406: 65 12        	adc	$12                     ; 0x2012 <loadGUISID+0x29>
    2408: 85 16        	sta	$16                     ; 0x2016 <loadGUISID+0x2d>
    240a: a4 13        	ldy	$13                     ; 0x2013 <loadGUISID+0x2a>
    240c: 84 8f        	sty	$8f                     ; 0x208f <loadGUISID+0xa6>
    240e: a9 4b        	lda	#$4b
    2410: 65 13        	adc	$13                     ; 0x2013 <loadGUISID+0x2a>
    2412: 85 17        	sta	$17                     ; 0x2017 <loadGUISID+0x2e>
    2414: a5 16        	lda	$16                     ; 0x2016 <loadGUISID+0x2d>
    2416: 18           	clc
    2417: 69 03        	adc	#$3
    2419: 85 12        	sta	$12                     ; 0x2012 <loadGUISID+0x29>
    241b: 86 8e        	stx	$8e                     ; 0x208e <loadGUISID+0xa5>
    241d: a5 17        	lda	$17                     ; 0x2017 <loadGUISID+0x2e>
    241f: 69 00        	adc	#$0
    2421: 85 13        	sta	$13                     ; 0x2013 <loadGUISID+0x2a>
    2423: a5 16        	lda	$16                     ; 0x2016 <loadGUISID+0x2d>
    2425: 18           	clc
    2426: 69 08        	adc	#$8
    2428: 85 14        	sta	$14                     ; 0x2014 <loadGUISID+0x2b>
    242a: a5 17        	lda	$17                     ; 0x2017 <loadGUISID+0x2e>
    242c: 69 00        	adc	#$0
    242e: a6 90        	ldx	$90                     ; 0x2090 <loadGUISID+0xa7>
    2430: 48           	pha
    2431: bd d0 47     	lda	$47d0,x                 ; 0x47d0 <sidSpriteAction>
    2434: aa           	tax
    2435: 68           	pla
    2436: a4 16        	ldy	$16                     ; 0x2016 <loadGUISID+0x2d>
    2438: 84 8c        	sty	$8c                     ; 0x208c <loadGUISID+0xa3>
    243a: a4 17        	ldy	$17                     ; 0x2017 <loadGUISID+0x2e>
    243c: 84 8d        	sty	$8d                     ; 0x208d <loadGUISID+0xa4>
    243e: 85 15        	sta	$15                     ; 0x2015 <loadGUISID+0x2c>
    2440: a0 0c        	ldy	#$c
    2442: a5 18        	lda	$18                     ; 0x2018 <loadGUISID+0x2f>
    2444: 91 8c        	sta	($8c),y                 ; 0x208c <loadGUISID+0xa3>
    2446: 18           	clc
    2447: a5 16        	lda	$16                     ; 0x2016 <loadGUISID+0x2d>
    2449: 69 0e        	adc	#$e
    244b: 85 16        	sta	$16                     ; 0x2016 <loadGUISID+0x2d>
    244d: a5 17        	lda	$17                     ; 0x2017 <loadGUISID+0x2e>
    244f: 69 00        	adc	#$0
    2451: 85 17        	sta	$17                     ; 0x2017 <loadGUISID+0x2e>
    2453: a5 90        	lda	$90                     ; 0x2090 <loadGUISID+0xa7>
    2455: 92 8c        	sta	($8c)                   ; 0x208c <loadGUISID+0xa3>
    2457: a4 8c        	ldy	$8c                     ; 0x208c <loadGUISID+0xa3>
    2459: 84 18        	sty	$18                     ; 0x2018 <loadGUISID+0x2f>
    245b: a4 8d        	ldy	$8d                     ; 0x208d <loadGUISID+0xa4>
    245d: 84 19        	sty	$19                     ; 0x2019 <loadGUISID+0x30>
    245f: a0 12        	ldy	#$12
    2461: 8a           	txa
    2462: 91 8c        	sta	($8c),y                 ; 0x208c <loadGUISID+0xa3>
    2464: e6 18        	inc	$18                     ; 0x2018 <loadGUISID+0x2f>
    2466: d0 02        	bne	$246a <loadGUISID+0x481>
    2468: e6 19        	inc	$19                     ; 0x2019 <loadGUISID+0x30>
    246a: a0 01        	ldy	#$1
    246c: a5 97        	lda	$97                     ; 0x2097 <loadGUISID+0xae>
    246e: 91 8c        	sta	($8c),y                 ; 0x208c <loadGUISID+0xa3>
    2470: 85 91        	sta	$91                     ; 0x2091 <loadGUISID+0xa8>
    2472: a9 00        	lda	#$0
    2474: 91 18        	sta	($18),y                 ; 0x2018 <loadGUISID+0x2f>
    2476: a9 4e        	lda	#$4e
    2478: a0 03        	ldy	#$3
    247a: 91 8c        	sta	($8c),y                 ; 0x208c <loadGUISID+0xa3>
    247c: a9 00        	lda	#$0
    247e: a0 01        	ldy	#$1
    2480: 91 12        	sta	($12),y                 ; 0x2012 <loadGUISID+0x29>
    2482: a0 05        	ldy	#$5
    2484: 91 8c        	sta	($8c),y                 ; 0x208c <loadGUISID+0xa3>
    2486: c8           	iny
    2487: 91 8c        	sta	($8c),y                 ; 0x208c <loadGUISID+0xa3>
    2489: c8           	iny
    248a: 91 8c        	sta	($8c),y                 ; 0x208c <loadGUISID+0xa3>
    248c: c8           	iny
    248d: 91 8c        	sta	($8c),y                 ; 0x208c <loadGUISID+0xa3>
    248f: a0 01        	ldy	#$1
    2491: 91 14        	sta	($14),y                 ; 0x2014 <loadGUISID+0x2b>
    2493: c8           	iny
    2494: 1a           	inc
    2495: 91 14        	sta	($14),y                 ; 0x2014 <loadGUISID+0x2b>
    2497: c8           	iny
    2498: 3a           	dec
    2499: 91 14        	sta	($14),y                 ; 0x2014 <loadGUISID+0x2b>
    249b: a9 10        	lda	#$10
    249d: a0 0d        	ldy	#$d
    249f: 91 8c        	sta	($8c),y                 ; 0x208c <loadGUISID+0xa3>
    24a1: c8           	iny
    24a2: a9 00        	lda	#$0
    24a4: 91 8c        	sta	($8c),y                 ; 0x208c <loadGUISID+0xa3>
    24a6: a0 01        	ldy	#$1
    24a8: 91 16        	sta	($16),y                 ; 0x2016 <loadGUISID+0x2d>
    24aa: c8           	iny
    24ab: 91 16        	sta	($16),y                 ; 0x2016 <loadGUISID+0x2d>
    24ad: c8           	iny
    24ae: 91 16        	sta	($16),y                 ; 0x2016 <loadGUISID+0x2d>
    24b0: a6 8c        	ldx	$8c                     ; 0x208c <loadGUISID+0xa3>
    24b2: 86 12        	stx	$12                     ; 0x2012 <loadGUISID+0x29>
    24b4: a6 8d        	ldx	$8d                     ; 0x208d <loadGUISID+0xa4>
    24b6: 86 13        	stx	$13                     ; 0x2013 <loadGUISID+0x2a>
    24b8: 20 80 2c     	jsr	$2c80 <showGeneric>
    24bb: a5 96        	lda	$96                     ; 0x2096 <loadGUISID+0xad>
    24bd: aa           	tax
    24be: 85 92        	sta	$92                     ; 0x2092 <loadGUISID+0xa9>
    24c0: bd 37 4b     	lda	$4b37,x                 ; 0x4b37 <sliders>
    24c3: aa           	tax
    24c4: b2 8c        	lda	($8c)                   ; 0x208c <loadGUISID+0xa3>
    24c6: 85 93        	sta	$93                     ; 0x2093 <loadGUISID+0xaa>
    24c8: a0 0d        	ldy	#$d
    24ca: b1 8c        	lda	($8c),y                 ; 0x208c <loadGUISID+0xa3>
    24cc: 85 94        	sta	$94                     ; 0x2094 <loadGUISID+0xab>
    24ce: 86 12        	stx	$12                     ; 0x2012 <loadGUISID+0x29>
    24d0: 64 13        	stz	$13                     ; 0x2013 <loadGUISID+0x2a>
    24d2: a2 00        	ldx	#$0
    24d4: 20 0e 45     	jsr	$450e <__mulhi3>
    24d7: a4 94        	ldy	$94                     ; 0x2094 <loadGUISID+0xab>
    24d9: 84 12        	sty	$12                     ; 0x2012 <loadGUISID+0x29>
    24db: 64 13        	stz	$13                     ; 0x2013 <loadGUISID+0x2a>
    24dd: 20 0e 45     	jsr	$450e <__mulhi3>
    24e0: 86 12        	stx	$12                     ; 0x2012 <loadGUISID+0x29>
    24e2: a2 01        	ldx	#$1
    24e4: 86 13        	stx	$13                     ; 0x2013 <loadGUISID+0x2a>
    24e6: 64 14        	stz	$14                     ; 0x2014 <loadGUISID+0x2b>
    24e8: a6 94        	ldx	$94                     ; 0x2094 <loadGUISID+0xab>
    24ea: 86 15        	stx	$15                     ; 0x2015 <loadGUISID+0x2c>
    24ec: aa           	tax
    24ed: a5 93        	lda	$93                     ; 0x2093 <loadGUISID+0xaa>
    24ef: 20 fa 2b     	jsr	$2bfa <spriteDefine>
    24f2: b2 8c        	lda	($8c)                   ; 0x208c <loadGUISID+0xa3>
    24f4: aa           	tax
    24f5: 0a           	asl
    24f6: 64 12        	stz	$12                     ; 0x2012 <loadGUISID+0x29>
    24f8: 26 12        	rol	$12                     ; 0x2012 <loadGUISID+0x29>
    24fa: 0a           	asl
    24fb: 26 12        	rol	$12                     ; 0x2012 <loadGUISID+0x29>
    24fd: 0a           	asl
    24fe: 26 12        	rol	$12                     ; 0x2012 <loadGUISID+0x29>
    2500: 18           	clc
    2501: 69 00        	adc	#$0
    2503: a8           	tay
    2504: a5 12        	lda	$12                     ; 0x2012 <loadGUISID+0x29>
    2506: 69 d9        	adc	#$d9
    2508: 84 12        	sty	$12                     ; 0x2012 <loadGUISID+0x29>
    250a: 85 13        	sta	$13                     ; 0x2013 <loadGUISID+0x2a>
    250c: a9 01        	lda	#$1
    250e: 1d 4f 4a     	ora	$4a4f,x                 ; 0x4a4f <_spriteCtl>
    2511: 92 12        	sta	($12)                   ; 0x2012 <loadGUISID+0x29>
    2513: a6 90        	ldx	$90                     ; 0x2090 <loadGUISID+0xa7>
    2515: e8           	inx
    2516: 18           	clc
    2517: a5 92        	lda	$92                     ; 0x2092 <loadGUISID+0xa9>
    2519: 69 1c        	adc	#$1c
    251b: 85 96        	sta	$96                     ; 0x2096 <loadGUISID+0xad>
    251d: 18           	clc
    251e: a5 8e        	lda	$8e                     ; 0x208e <loadGUISID+0xa5>
    2520: 69 13        	adc	#$13
    2522: a8           	tay
    2523: a5 8f        	lda	$8f                     ; 0x208f <loadGUISID+0xa6>
    2525: 69 00        	adc	#$0
    2527: 85 13        	sta	$13                     ; 0x2013 <loadGUISID+0x2a>
    2529: 18           	clc
    252a: a5 91        	lda	$91                     ; 0x2091 <loadGUISID+0xa8>
    252c: 69 0c        	adc	#$c
    252e: 85 97        	sta	$97                     ; 0x2097 <loadGUISID+0xae>
    2530: 84 12        	sty	$12                     ; 0x2012 <loadGUISID+0x29>
    2532: c0 4c        	cpy	#$4c
    2534: f0 03        	beq	$2539 <loadGUISID+0x550>
    2536: 4c f9 23     	jmp	$23f9 <loadGUISID+0x410>
    2539: a2 14        	ldx	#$14
    253b: 8e 2c 4c     	stx	$4c2c                   ; 0x4c2c <dials>
    253e: a2 62        	ldx	#$62
    2540: 8e 2d 4c     	stx	$4c2d                   ; 0x4c2d <dials+0x1>
    2543: 9c 2e 4c     	stz	$4c2e                   ; 0x4c2e <dials+0x2>
    2546: e8           	inx
    2547: 8e 2f 4c     	stx	$4c2f                   ; 0x4c2f <dials+0x3>
    254a: 9c 30 4c     	stz	$4c30                   ; 0x4c30 <dials+0x4>
    254d: 9c 31 4c     	stz	$4c31                   ; 0x4c31 <dials+0x5>
    2550: 9c 32 4c     	stz	$4c32                   ; 0x4c32 <dials+0x6>
    2553: 9c 33 4c     	stz	$4c33                   ; 0x4c33 <dials+0x7>
    2556: 9c 34 4c     	stz	$4c34                   ; 0x4c34 <dials+0x8>
    2559: a2 20        	ldx	#$20
    255b: 8e 35 4c     	stx	$4c35                   ; 0x4c35 <dials+0x9>
    255e: a2 24        	ldx	#$24
    2560: 8e 3e 4c     	stx	$4c3e                   ; 0x4c3e <dials+0x12>
    2563: a5 7c        	lda	$7c                     ; 0x207c <loadGUISID+0x93>
    2565: a6 7d        	ldx	$7d                     ; 0x207d <loadGUISID+0x94>
    2567: 85 8c        	sta	$8c                     ; 0x208c <loadGUISID+0xa3>
    2569: 86 8d        	stx	$8d                     ; 0x208d <loadGUISID+0xa4>
    256b: a0 04        	ldy	#$4
    256d: 18           	clc
    256e: 69 04        	adc	#$4
    2570: 85 8e        	sta	$8e                     ; 0x208e <loadGUISID+0xa5>
    2572: 8a           	txa
    2573: 69 00        	adc	#$0
    2575: 85 8f        	sta	$8f                     ; 0x208f <loadGUISID+0xa6>
    2577: b1 8c        	lda	($8c),y                 ; 0x208c <loadGUISID+0xa3>
    2579: 85 12        	sta	$12                     ; 0x2012 <loadGUISID+0x29>
    257b: a0 01        	ldy	#$1
    257d: b1 8e        	lda	($8e),y                 ; 0x208e <loadGUISID+0xa5>
    257f: 85 13        	sta	$13                     ; 0x2013 <loadGUISID+0x2a>
    2581: c8           	iny
    2582: a9 0f        	lda	#$f
    2584: 31 12        	and	($12),y                 ; 0x2012 <loadGUISID+0x29>
    2586: 8d 3f 4c     	sta	$4c3f                   ; 0x4c3f <dials+0x13>
    2589: a2 01        	ldx	#$1
    258b: 8e 36 4c     	stx	$4c36                   ; 0x4c36 <dials+0xa>
    258e: 9c 37 4c     	stz	$4c37                   ; 0x4c37 <dials+0xb>
    2591: 9c 38 4c     	stz	$4c38                   ; 0x4c38 <dials+0xc>
    2594: a2 10        	ldx	#$10
    2596: 8e 39 4c     	stx	$4c39                   ; 0x4c39 <dials+0xd>
    2599: 9c 3a 4c     	stz	$4c3a                   ; 0x4c3a <dials+0xe>
    259c: a2 0d        	ldx	#$d
    259e: 8e 3b 4c     	stx	$4c3b                   ; 0x4c3b <dials+0xf>
    25a1: 9c 3c 4c     	stz	$4c3c                   ; 0x4c3c <dials+0x10>
    25a4: 8e 3d 4c     	stx	$4c3d                   ; 0x4c3d <dials+0x11>
    25a7: 9c 40 4c     	stz	$4c40                   ; 0x4c40 <dials+0x14>
    25aa: a2 0f        	ldx	#$f
    25ac: 8e 41 4c     	stx	$4c41                   ; 0x4c41 <dials+0x15>
    25af: 9c 42 4c     	stz	$4c42                   ; 0x4c42 <dials+0x16>
    25b2: 9c 43 4c     	stz	$4c43                   ; 0x4c43 <dials+0x17>
    25b5: 9c 44 4c     	stz	$4c44                   ; 0x4c44 <dials+0x18>
    25b8: 9c 45 4c     	stz	$4c45                   ; 0x4c45 <dials+0x19>
    25bb: 9c 46 4c     	stz	$4c46                   ; 0x4c46 <dials+0x1a>
    25be: 9c 47 4c     	stz	$4c47                   ; 0x4c47 <dials+0x1b>
    25c1: a2 2c        	ldx	#$2c
    25c3: 86 12        	stx	$12                     ; 0x2012 <loadGUISID+0x29>
    25c5: a2 4c        	ldx	#$4c
    25c7: 86 13        	stx	$13                     ; 0x2013 <loadGUISID+0x2a>
    25c9: 20 29 2f     	jsr	$2f29 <updateDial>
    25cc: a2 15        	ldx	#$15
    25ce: 8e 48 4c     	stx	$4c48                   ; 0x4c48 <dials+0x1c>
    25d1: a2 72        	ldx	#$72
    25d3: 8e 49 4c     	stx	$4c49                   ; 0x4c49 <dials+0x1d>
    25d6: a2 63        	ldx	#$63
    25d8: 8e 4b 4c     	stx	$4c4b                   ; 0x4c4b <dials+0x1f>
    25db: a2 20        	ldx	#$20
    25dd: 8e 51 4c     	stx	$4c51                   ; 0x4c51 <dials+0x25>
    25e0: a2 25        	ldx	#$25
    25e2: 8e 5a 4c     	stx	$4c5a                   ; 0x4c5a <dials+0x2e>
    25e5: a0 04        	ldy	#$4
    25e7: b1 8c        	lda	($8c),y                 ; 0x208c <loadGUISID+0xa3>
    25e9: 85 12        	sta	$12                     ; 0x2012 <loadGUISID+0x29>
    25eb: a0 01        	ldy	#$1
    25ed: b1 8e        	lda	($8e),y                 ; 0x208e <loadGUISID+0xa5>
    25ef: 85 13        	sta	$13                     ; 0x2013 <loadGUISID+0x2a>
    25f1: b1 12        	lda	($12),y                 ; 0x2012 <loadGUISID+0x29>
    25f3: 8d 5b 4c     	sta	$4c5b                   ; 0x4c5b <dials+0x2f>
    25f6: a2 ff        	ldx	#$ff
    25f8: 8e 5d 4c     	stx	$4c5d                   ; 0x4c5d <dials+0x31>
    25fb: 9c 4a 4c     	stz	$4c4a                   ; 0x4c4a <dials+0x1e>
    25fe: 9c 4c 4c     	stz	$4c4c                   ; 0x4c4c <dials+0x20>
    2601: 9c 4d 4c     	stz	$4c4d                   ; 0x4c4d <dials+0x21>
    2604: 9c 4e 4c     	stz	$4c4e                   ; 0x4c4e <dials+0x22>
    2607: 9c 4f 4c     	stz	$4c4f                   ; 0x4c4f <dials+0x23>
    260a: 9c 50 4c     	stz	$4c50                   ; 0x4c50 <dials+0x24>
    260d: a2 01        	ldx	#$1
    260f: 8e 52 4c     	stx	$4c52                   ; 0x4c52 <dials+0x26>
    2612: 9c 53 4c     	stz	$4c53                   ; 0x4c53 <dials+0x27>
    2615: 8e 54 4c     	stx	$4c54                   ; 0x4c54 <dials+0x28>
    2618: a2 10        	ldx	#$10
    261a: 8e 55 4c     	stx	$4c55                   ; 0x4c55 <dials+0x29>
    261d: 9c 56 4c     	stz	$4c56                   ; 0x4c56 <dials+0x2a>
    2620: a2 0d        	ldx	#$d
    2622: 8e 57 4c     	stx	$4c57                   ; 0x4c57 <dials+0x2b>
    2625: 9c 58 4c     	stz	$4c58                   ; 0x4c58 <dials+0x2c>
    2628: 8e 59 4c     	stx	$4c59                   ; 0x4c59 <dials+0x2d>
    262b: 9c 5c 4c     	stz	$4c5c                   ; 0x4c5c <dials+0x30>
    262e: 9c 5e 4c     	stz	$4c5e                   ; 0x4c5e <dials+0x32>
    2631: 9c 5f 4c     	stz	$4c5f                   ; 0x4c5f <dials+0x33>
    2634: 9c 60 4c     	stz	$4c60                   ; 0x4c60 <dials+0x34>
    2637: 9c 61 4c     	stz	$4c61                   ; 0x4c61 <dials+0x35>
    263a: 9c 62 4c     	stz	$4c62                   ; 0x4c62 <dials+0x36>
    263d: 9c 63 4c     	stz	$4c63                   ; 0x4c63 <dials+0x37>
    2640: a2 48        	ldx	#$48
    2642: 86 12        	stx	$12                     ; 0x2012 <loadGUISID+0x29>
    2644: a2 4c        	ldx	#$4c
    2646: 86 13        	stx	$13                     ; 0x2013 <loadGUISID+0x2a>
    2648: 20 29 2f     	jsr	$2f29 <updateDial>
    264b: a2 16        	ldx	#$16
    264d: 8e f3 4b     	stx	$4bf3                   ; 0x4bf3 <sliders_labels+0x4c>
    2650: a2 5f        	ldx	#$5f
    2652: 8e f4 4b     	stx	$4bf4                   ; 0x4bf4 <sliders_labels+0x4d>
    2655: 9c f5 4b     	stz	$4bf5                   ; 0x4bf5 <sliders_labels+0x4e>
    2658: a2 75        	ldx	#$75
    265a: 8e f6 4b     	stx	$4bf6                   ; 0x4bf6 <sliders_labels+0x4f>
    265d: 9c f7 4b     	stz	$4bf7                   ; 0x4bf7 <sliders_labels+0x50>
    2660: 9c f8 4b     	stz	$4bf8                   ; 0x4bf8 <sliders_labels+0x51>
    2663: 9c f9 4b     	stz	$4bf9                   ; 0x4bf9 <sliders_labels+0x52>
    2666: 9c fa 4b     	stz	$4bfa                   ; 0x4bfa <sliders_labels+0x53>
    2669: 9c fb 4b     	stz	$4bfb                   ; 0x4bfb <sliders_labels+0x54>
    266c: 9c fc 4b     	stz	$4bfc                   ; 0x4bfc <sliders_labels+0x55>
    266f: a2 01        	ldx	#$1
    2671: 8e fd 4b     	stx	$4bfd                   ; 0x4bfd <sliders_labels+0x56>
    2674: 9c fe 4b     	stz	$4bfe                   ; 0x4bfe <sliders_labels+0x57>
    2677: a2 04        	ldx	#$4
    2679: 8e ff 4b     	stx	$4bff                   ; 0x4bff <sliders_labels+0x58>
    267c: a2 10        	ldx	#$10
    267e: 8e 00 4c     	stx	$4c00                   ; 0x4c00 <sliders_labels+0x59>
    2681: 9c 01 4c     	stz	$4c01                   ; 0x4c01 <sliders_labels+0x5a>
    2684: 9c 02 4c     	stz	$4c02                   ; 0x4c02 <sliders_labels+0x5b>
    2687: 9c 03 4c     	stz	$4c03                   ; 0x4c03 <sliders_labels+0x5c>
    268a: 9c 04 4c     	stz	$4c04                   ; 0x4c04 <sliders_labels+0x5d>
    268d: a2 26        	ldx	#$26
    268f: 8e 05 4c     	stx	$4c05                   ; 0x4c05 <sliders_labels+0x5e>
    2692: a2 f3        	ldx	#$f3
    2694: 86 12        	stx	$12                     ; 0x2012 <loadGUISID+0x29>
    2696: a2 4b        	ldx	#$4b
    2698: 86 13        	stx	$13                     ; 0x2013 <loadGUISID+0x2a>
    269a: 20 80 2c     	jsr	$2c80 <showGeneric>
    269d: ae 3f 4c     	ldx	$4c3f                   ; 0x4c3f <dials+0x13>
    26a0: ac f3 4b     	ldy	$4bf3                   ; 0x4bf3 <sliders_labels+0x4c>
    26a3: 84 8c        	sty	$8c                     ; 0x208c <loadGUISID+0xa3>
    26a5: ad 00 4c     	lda	$4c00                   ; 0x4c00 <sliders_labels+0x59>
    26a8: 86 12        	stx	$12                     ; 0x2012 <loadGUISID+0x29>
    26aa: 64 13        	stz	$13                     ; 0x2013 <loadGUISID+0x2a>
    26ac: a2 00        	ldx	#$0
    26ae: 85 8d        	sta	$8d                     ; 0x208d <loadGUISID+0xa4>
    26b0: 20 0e 45     	jsr	$450e <__mulhi3>
    26b3: a4 8d        	ldy	$8d                     ; 0x208d <loadGUISID+0xa4>
    26b5: 84 12        	sty	$12                     ; 0x2012 <loadGUISID+0x29>
    26b7: 64 13        	stz	$13                     ; 0x2013 <loadGUISID+0x2a>
    26b9: 20 0e 45     	jsr	$450e <__mulhi3>
    26bc: 86 12        	stx	$12                     ; 0x2012 <loadGUISID+0x29>
    26be: a2 01        	ldx	#$1
    26c0: 86 13        	stx	$13                     ; 0x2013 <loadGUISID+0x2a>
    26c2: 64 14        	stz	$14                     ; 0x2014 <loadGUISID+0x2b>
    26c4: a6 8d        	ldx	$8d                     ; 0x208d <loadGUISID+0xa4>
    26c6: 86 15        	stx	$15                     ; 0x2015 <loadGUISID+0x2c>
    26c8: aa           	tax
    26c9: a5 8c        	lda	$8c                     ; 0x208c <loadGUISID+0xa3>
    26cb: 20 fa 2b     	jsr	$2bfa <spriteDefine>
    26ce: ae f3 4b     	ldx	$4bf3                   ; 0x4bf3 <sliders_labels+0x4c>
    26d1: 8a           	txa
    26d2: 0a           	asl
    26d3: a8           	tay
    26d4: a9 00        	lda	#$0
    26d6: 2a           	rol
    26d7: 84 12        	sty	$12                     ; 0x2012 <loadGUISID+0x29>
    26d9: 06 12        	asl	$12                     ; 0x2012 <loadGUISID+0x29>
    26db: 2a           	rol
    26dc: 06 12        	asl	$12                     ; 0x2012 <loadGUISID+0x29>
    26de: 2a           	rol
    26df: a8           	tay
    26e0: 18           	clc
    26e1: a5 12        	lda	$12                     ; 0x2012 <loadGUISID+0x29>
    26e3: 69 00        	adc	#$0
    26e5: 85 12        	sta	$12                     ; 0x2012 <loadGUISID+0x29>
    26e7: 98           	tya
    26e8: 69 d9        	adc	#$d9
    26ea: 85 13        	sta	$13                     ; 0x2013 <loadGUISID+0x2a>
    26ec: a9 01        	lda	#$1
    26ee: 1d 4f 4a     	ora	$4a4f,x                 ; 0x4a4f <_spriteCtl>
    26f1: 92 12        	sta	($12)                   ; 0x2012 <loadGUISID+0x29>
    26f3: a2 17        	ldx	#$17
    26f5: 8e 06 4c     	stx	$4c06                   ; 0x4c06 <sliders_labels+0x5f>
    26f8: a2 69        	ldx	#$69
    26fa: 8e 07 4c     	stx	$4c07                   ; 0x4c07 <sliders_labels+0x60>
    26fd: 9c 08 4c     	stz	$4c08                   ; 0x4c08 <sliders_labels+0x61>
    2700: a2 75        	ldx	#$75
    2702: 8e 09 4c     	stx	$4c09                   ; 0x4c09 <sliders_labels+0x62>
    2705: 9c 0a 4c     	stz	$4c0a                   ; 0x4c0a <sliders_labels+0x63>
    2708: 9c 0b 4c     	stz	$4c0b                   ; 0x4c0b <sliders_labels+0x64>
    270b: 9c 0c 4c     	stz	$4c0c                   ; 0x4c0c <sliders_labels+0x65>
    270e: 9c 0d 4c     	stz	$4c0d                   ; 0x4c0d <sliders_labels+0x66>
    2711: 9c 0e 4c     	stz	$4c0e                   ; 0x4c0e <sliders_labels+0x67>
    2714: 9c 0f 4c     	stz	$4c0f                   ; 0x4c0f <sliders_labels+0x68>
    2717: a2 01        	ldx	#$1
    2719: 8e 10 4c     	stx	$4c10                   ; 0x4c10 <sliders_labels+0x69>
    271c: 9c 11 4c     	stz	$4c11                   ; 0x4c11 <sliders_labels+0x6a>
    271f: a2 27        	ldx	#$27
    2721: 8e 18 4c     	stx	$4c18                   ; 0x4c18 <sliders_labels+0x71>
    2724: a2 05        	ldx	#$5
    2726: 8e 12 4c     	stx	$4c12                   ; 0x4c12 <sliders_labels+0x6b>
    2729: a2 10        	ldx	#$10
    272b: 8e 13 4c     	stx	$4c13                   ; 0x4c13 <sliders_labels+0x6c>
    272e: 9c 14 4c     	stz	$4c14                   ; 0x4c14 <sliders_labels+0x6d>
    2731: 9c 15 4c     	stz	$4c15                   ; 0x4c15 <sliders_labels+0x6e>
    2734: 9c 16 4c     	stz	$4c16                   ; 0x4c16 <sliders_labels+0x6f>
    2737: 9c 17 4c     	stz	$4c17                   ; 0x4c17 <sliders_labels+0x70>
    273a: a2 06        	ldx	#$6
    273c: 86 12        	stx	$12                     ; 0x2012 <loadGUISID+0x29>
    273e: a2 4c        	ldx	#$4c
    2740: 86 13        	stx	$13                     ; 0x2013 <loadGUISID+0x2a>
    2742: 20 80 2c     	jsr	$2c80 <showGeneric>
    2745: ad 5b 4c     	lda	$4c5b                   ; 0x4c5b <dials+0x2f>
    2748: 4a           	lsr
    2749: 4a           	lsr
    274a: 4a           	lsr
    274b: 4a           	lsr
    274c: ae 06 4c     	ldx	$4c06                   ; 0x4c06 <sliders_labels+0x5f>
    274f: 86 8c        	stx	$8c                     ; 0x208c <loadGUISID+0xa3>
    2751: ac 13 4c     	ldy	$4c13                   ; 0x4c13 <sliders_labels+0x6c>
    2754: 85 12        	sta	$12                     ; 0x2012 <loadGUISID+0x29>
    2756: 64 13        	stz	$13                     ; 0x2013 <loadGUISID+0x2a>
    2758: a2 00        	ldx	#$0
    275a: 98           	tya
    275b: 84 8d        	sty	$8d                     ; 0x208d <loadGUISID+0xa4>
    275d: 20 0e 45     	jsr	$450e <__mulhi3>
    2760: a4 8d        	ldy	$8d                     ; 0x208d <loadGUISID+0xa4>
    2762: 84 12        	sty	$12                     ; 0x2012 <loadGUISID+0x29>
    2764: 64 13        	stz	$13                     ; 0x2013 <loadGUISID+0x2a>
    2766: 20 0e 45     	jsr	$450e <__mulhi3>
    2769: 86 12        	stx	$12                     ; 0x2012 <loadGUISID+0x29>
    276b: a2 01        	ldx	#$1
    276d: 86 13        	stx	$13                     ; 0x2013 <loadGUISID+0x2a>
    276f: 64 14        	stz	$14                     ; 0x2014 <loadGUISID+0x2b>
    2771: a6 8d        	ldx	$8d                     ; 0x208d <loadGUISID+0xa4>
    2773: 86 15        	stx	$15                     ; 0x2015 <loadGUISID+0x2c>
    2775: aa           	tax
    2776: a5 8c        	lda	$8c                     ; 0x208c <loadGUISID+0xa3>
    2778: 20 fa 2b     	jsr	$2bfa <spriteDefine>
    277b: ae 06 4c     	ldx	$4c06                   ; 0x4c06 <sliders_labels+0x5f>
    277e: 8a           	txa
    277f: 0a           	asl
    2780: a8           	tay
    2781: a9 00        	lda	#$0
    2783: 2a           	rol
    2784: 84 12        	sty	$12                     ; 0x2012 <loadGUISID+0x29>
    2786: 06 12        	asl	$12                     ; 0x2012 <loadGUISID+0x29>
    2788: 2a           	rol
    2789: 06 12        	asl	$12                     ; 0x2012 <loadGUISID+0x29>
    278b: 2a           	rol
    278c: a8           	tay
    278d: 18           	clc
    278e: a5 12        	lda	$12                     ; 0x2012 <loadGUISID+0x29>
    2790: 69 00        	adc	#$0
    2792: 85 12        	sta	$12                     ; 0x2012 <loadGUISID+0x29>
    2794: 98           	tya
    2795: 69 d9        	adc	#$d9
    2797: 85 13        	sta	$13                     ; 0x2013 <loadGUISID+0x2a>
    2799: a9 01        	lda	#$1
    279b: 1d 4f 4a     	ora	$4a4f,x                 ; 0x4a4f <_spriteCtl>
    279e: 92 12        	sta	($12)                   ; 0x2012 <loadGUISID+0x29>
    27a0: a2 18        	ldx	#$18
    27a2: 8e 19 4c     	stx	$4c19                   ; 0x4c19 <sliders_labels+0x72>
    27a5: a2 73        	ldx	#$73
    27a7: 8e 1a 4c     	stx	$4c1a                   ; 0x4c1a <sliders_labels+0x73>
    27aa: 9c 1b 4c     	stz	$4c1b                   ; 0x4c1b <sliders_labels+0x74>
    27ad: a2 75        	ldx	#$75
    27af: 8e 1c 4c     	stx	$4c1c                   ; 0x4c1c <sliders_labels+0x75>
    27b2: 9c 1d 4c     	stz	$4c1d                   ; 0x4c1d <sliders_labels+0x76>
    27b5: 9c 1e 4c     	stz	$4c1e                   ; 0x4c1e <sliders_labels+0x77>
    27b8: 9c 1f 4c     	stz	$4c1f                   ; 0x4c1f <sliders_labels+0x78>
    27bb: 9c 20 4c     	stz	$4c20                   ; 0x4c20 <sliders_labels+0x79>
    27be: 9c 21 4c     	stz	$4c21                   ; 0x4c21 <sliders_labels+0x7a>
    27c1: 9c 22 4c     	stz	$4c22                   ; 0x4c22 <sliders_labels+0x7b>
    27c4: a2 01        	ldx	#$1
    27c6: 8e 23 4c     	stx	$4c23                   ; 0x4c23 <sliders_labels+0x7c>
    27c9: 9c 24 4c     	stz	$4c24                   ; 0x4c24 <sliders_labels+0x7d>
    27cc: a2 28        	ldx	#$28
    27ce: 8e 2b 4c     	stx	$4c2b                   ; 0x4c2b <sliders_labels+0x84>
    27d1: a2 06        	ldx	#$6
    27d3: 8e 25 4c     	stx	$4c25                   ; 0x4c25 <sliders_labels+0x7e>
    27d6: a2 10        	ldx	#$10
    27d8: 8e 26 4c     	stx	$4c26                   ; 0x4c26 <sliders_labels+0x7f>
    27db: 9c 27 4c     	stz	$4c27                   ; 0x4c27 <sliders_labels+0x80>
    27de: 9c 28 4c     	stz	$4c28                   ; 0x4c28 <sliders_labels+0x81>
    27e1: 9c 29 4c     	stz	$4c29                   ; 0x4c29 <sliders_labels+0x82>
    27e4: 9c 2a 4c     	stz	$4c2a                   ; 0x4c2a <sliders_labels+0x83>
    27e7: a2 19        	ldx	#$19
    27e9: 86 12        	stx	$12                     ; 0x2012 <loadGUISID+0x29>
    27eb: a2 4c        	ldx	#$4c
    27ed: 86 13        	stx	$13                     ; 0x2013 <loadGUISID+0x2a>
    27ef: 20 80 2c     	jsr	$2c80 <showGeneric>
    27f2: a9 0f        	lda	#$f
    27f4: 2d 5b 4c     	and	$4c5b                   ; 0x4c5b <dials+0x2f>
    27f7: ae 19 4c     	ldx	$4c19                   ; 0x4c19 <sliders_labels+0x72>
    27fa: 86 8c        	stx	$8c                     ; 0x208c <loadGUISID+0xa3>
    27fc: ac 26 4c     	ldy	$4c26                   ; 0x4c26 <sliders_labels+0x7f>
    27ff: 85 12        	sta	$12                     ; 0x2012 <loadGUISID+0x29>
    2801: 64 13        	stz	$13                     ; 0x2013 <loadGUISID+0x2a>
    2803: a2 00        	ldx	#$0
    2805: 98           	tya
    2806: 84 8d        	sty	$8d                     ; 0x208d <loadGUISID+0xa4>
    2808: 20 0e 45     	jsr	$450e <__mulhi3>
    280b: a4 8d        	ldy	$8d                     ; 0x208d <loadGUISID+0xa4>
    280d: 84 12        	sty	$12                     ; 0x2012 <loadGUISID+0x29>
    280f: 64 13        	stz	$13                     ; 0x2013 <loadGUISID+0x2a>
    2811: 20 0e 45     	jsr	$450e <__mulhi3>
    2814: 86 12        	stx	$12                     ; 0x2012 <loadGUISID+0x29>
    2816: a2 01        	ldx	#$1
    2818: 86 13        	stx	$13                     ; 0x2013 <loadGUISID+0x2a>
    281a: 64 14        	stz	$14                     ; 0x2014 <loadGUISID+0x2b>
    281c: a6 8d        	ldx	$8d                     ; 0x208d <loadGUISID+0xa4>
    281e: 86 15        	stx	$15                     ; 0x2015 <loadGUISID+0x2c>
    2820: aa           	tax
    2821: a5 8c        	lda	$8c                     ; 0x208c <loadGUISID+0xa3>
    2823: 20 fa 2b     	jsr	$2bfa <spriteDefine>
    2826: ae 19 4c     	ldx	$4c19                   ; 0x4c19 <sliders_labels+0x72>
    2829: 8a           	txa
    282a: 0a           	asl
    282b: 64 12        	stz	$12                     ; 0x2012 <loadGUISID+0x29>
    282d: 26 12        	rol	$12                     ; 0x2012 <loadGUISID+0x29>
    282f: 0a           	asl
    2830: 26 12        	rol	$12                     ; 0x2012 <loadGUISID+0x29>
    2832: 0a           	asl
    2833: 26 12        	rol	$12                     ; 0x2012 <loadGUISID+0x29>
    2835: 18           	clc
    2836: 69 00        	adc	#$0
    2838: a8           	tay
    2839: a5 12        	lda	$12                     ; 0x2012 <loadGUISID+0x29>
    283b: 69 d9        	adc	#$d9
    283d: 84 12        	sty	$12                     ; 0x2012 <loadGUISID+0x29>
    283f: 85 13        	sta	$13                     ; 0x2013 <loadGUISID+0x2a>
    2841: a9 01        	lda	#$1
    2843: 1d 4f 4a     	ora	$4a4f,x                 ; 0x4a4f <_spriteCtl>
    2846: 92 12        	sta	($12)                   ; 0x2012 <loadGUISID+0x29>
    2848: a2 4f        	ldx	#$4f
    284a: 86 96        	stx	$96                     ; 0x2096 <loadGUISID+0xad>
    284c: a2 19        	ldx	#$19
    284e: a0 00        	ldy	#$0
    2850: 64 13        	stz	$13                     ; 0x2013 <loadGUISID+0x2a>
    2852: 18           	clc
    2853: 8a           	txa
    2854: 69 e7        	adc	#$e7
    2856: 85 16        	sta	$16                     ; 0x2016 <loadGUISID+0x2d>
    2858: 84 12        	sty	$12                     ; 0x2012 <loadGUISID+0x29>
    285a: a9 64        	lda	#$64
    285c: 18           	clc
    285d: 65 12        	adc	$12                     ; 0x2012 <loadGUISID+0x29>
    285f: 85 14        	sta	$14                     ; 0x2014 <loadGUISID+0x2b>
    2861: a5 13        	lda	$13                     ; 0x2013 <loadGUISID+0x2a>
    2863: 85 94        	sta	$94                     ; 0x2094 <loadGUISID+0xab>
    2865: a9 4c        	lda	#$4c
    2867: 65 13        	adc	$13                     ; 0x2013 <loadGUISID+0x2a>
    2869: 85 12        	sta	$12                     ; 0x2012 <loadGUISID+0x29>
    286b: 18           	clc
    286c: a5 14        	lda	$14                     ; 0x2014 <loadGUISID+0x2b>
    286e: 69 03        	adc	#$3
    2870: 85 8c        	sta	$8c                     ; 0x208c <loadGUISID+0xa3>
    2872: 84 93        	sty	$93                     ; 0x2093 <loadGUISID+0xaa>
    2874: a5 12        	lda	$12                     ; 0x2012 <loadGUISID+0x29>
    2876: 69 00        	adc	#$0
    2878: 85 8d        	sta	$8d                     ; 0x208d <loadGUISID+0xa4>
    287a: 18           	clc
    287b: a5 14        	lda	$14                     ; 0x2014 <loadGUISID+0x2b>
    287d: 69 08        	adc	#$8
    287f: a8           	tay
    2880: a5 12        	lda	$12                     ; 0x2012 <loadGUISID+0x29>
    2882: 69 00        	adc	#$0
    2884: 86 18        	stx	$18                     ; 0x2018 <loadGUISID+0x2f>
    2886: 48           	pha
    2887: bd d0 47     	lda	$47d0,x                 ; 0x47d0 <sidSpriteAction>
    288a: aa           	tax
    288b: 68           	pla
    288c: 86 17        	stx	$17                     ; 0x2017 <loadGUISID+0x2e>
    288e: a6 14        	ldx	$14                     ; 0x2014 <loadGUISID+0x2b>
    2890: 86 8e        	stx	$8e                     ; 0x208e <loadGUISID+0xa5>
    2892: a6 12        	ldx	$12                     ; 0x2012 <loadGUISID+0x29>
    2894: 86 8f        	stx	$8f                     ; 0x208f <loadGUISID+0xa6>
    2896: a6 12        	ldx	$12                     ; 0x2012 <loadGUISID+0x29>
    2898: 84 12        	sty	$12                     ; 0x2012 <loadGUISID+0x29>
    289a: 85 13        	sta	$13                     ; 0x2013 <loadGUISID+0x2a>
    289c: 18           	clc
    289d: a5 14        	lda	$14                     ; 0x2014 <loadGUISID+0x2b>
    289f: 69 0e        	adc	#$e
    28a1: 85 14        	sta	$14                     ; 0x2014 <loadGUISID+0x2b>
    28a3: 8a           	txa
    28a4: 69 00        	adc	#$0
    28a6: 85 15        	sta	$15                     ; 0x2015 <loadGUISID+0x2c>
    28a8: a0 01        	ldy	#$1
    28aa: a9 00        	lda	#$0
    28ac: 91 14        	sta	($14),y                 ; 0x2014 <loadGUISID+0x2b>
    28ae: c8           	iny
    28af: 91 14        	sta	($14),y                 ; 0x2014 <loadGUISID+0x2b>
    28b1: c8           	iny
    28b2: 91 14        	sta	($14),y                 ; 0x2014 <loadGUISID+0x2b>
    28b4: a5 18        	lda	$18                     ; 0x2018 <loadGUISID+0x2f>
    28b6: 92 8e        	sta	($8e)                   ; 0x208e <loadGUISID+0xa5>
    28b8: 85 92        	sta	$92                     ; 0x2092 <loadGUISID+0xa9>
    28ba: a0 0c        	ldy	#$c
    28bc: a5 16        	lda	$16                     ; 0x2016 <loadGUISID+0x2d>
    28be: 91 8e        	sta	($8e),y                 ; 0x208e <loadGUISID+0xa5>
    28c0: a0 12        	ldy	#$12
    28c2: a5 17        	lda	$17                     ; 0x2017 <loadGUISID+0x2e>
    28c4: 91 8e        	sta	($8e),y                 ; 0x208e <loadGUISID+0xa5>
    28c6: a6 8e        	ldx	$8e                     ; 0x208e <loadGUISID+0xa5>
    28c8: 86 90        	stx	$90                     ; 0x2090 <loadGUISID+0xa7>
    28ca: a6 8f        	ldx	$8f                     ; 0x208f <loadGUISID+0xa6>
    28cc: 86 91        	stx	$91                     ; 0x2091 <loadGUISID+0xa8>
    28ce: a9 3a        	lda	#$3a
    28d0: a0 01        	ldy	#$1
    28d2: 91 12        	sta	($12),y                 ; 0x2012 <loadGUISID+0x29>
    28d4: 98           	tya
    28d5: c8           	iny
    28d6: 91 12        	sta	($12),y                 ; 0x2012 <loadGUISID+0x29>
    28d8: c8           	iny
    28d9: 3a           	dec
    28da: 91 12        	sta	($12),y                 ; 0x2012 <loadGUISID+0x29>
    28dc: e6 90        	inc	$90                     ; 0x2090 <loadGUISID+0xa7>
    28de: d0 02        	bne	$28e2 <loadGUISID+0x8f9>
    28e0: e6 91        	inc	$91                     ; 0x2091 <loadGUISID+0xa8>
    28e2: a5 96        	lda	$96                     ; 0x2096 <loadGUISID+0xad>
    28e4: a0 01        	ldy	#$1
    28e6: 91 8e        	sta	($8e),y                 ; 0x208e <loadGUISID+0xa5>
    28e8: 85 95        	sta	$95                     ; 0x2095 <loadGUISID+0xac>
    28ea: a9 00        	lda	#$0
    28ec: 91 90        	sta	($90),y                 ; 0x2090 <loadGUISID+0xa7>
    28ee: a9 fd        	lda	#$fd
    28f0: a0 03        	ldy	#$3
    28f2: 91 8e        	sta	($8e),y                 ; 0x208e <loadGUISID+0xa5>
    28f4: a9 00        	lda	#$0
    28f6: a0 01        	ldy	#$1
    28f8: 91 8c        	sta	($8c),y                 ; 0x208c <loadGUISID+0xa3>
    28fa: a0 05        	ldy	#$5
    28fc: 91 8e        	sta	($8e),y                 ; 0x208e <loadGUISID+0xa5>
    28fe: c8           	iny
    28ff: 91 8e        	sta	($8e),y                 ; 0x208e <loadGUISID+0xa5>
    2901: c8           	iny
    2902: 91 8e        	sta	($8e),y                 ; 0x208e <loadGUISID+0xa5>
    2904: a0 0d        	ldy	#$d
    2906: a2 10        	ldx	#$10
    2908: 8a           	txa
    2909: 91 8e        	sta	($8e),y                 ; 0x208e <loadGUISID+0xa5>
    290b: c8           	iny
    290c: a9 00        	lda	#$0
    290e: 91 8e        	sta	($8e),y                 ; 0x208e <loadGUISID+0xa5>
    2910: a0 13        	ldy	#$13
    2912: 91 8e        	sta	($8e),y                 ; 0x208e <loadGUISID+0xa5>
    2914: a0 08        	ldy	#$8
    2916: 91 8e        	sta	($8e),y                 ; 0x208e <loadGUISID+0xa5>
    2918: a0 3a        	ldy	#$3a
    291a: 84 12        	sty	$12                     ; 0x2012 <loadGUISID+0x29>
    291c: a0 01        	ldy	#$1
    291e: 84 13        	sty	$13                     ; 0x2013 <loadGUISID+0x2a>
    2920: 64 14        	stz	$14                     ; 0x2014 <loadGUISID+0x2b>
    2922: 86 15        	stx	$15                     ; 0x2015 <loadGUISID+0x2c>
    2924: aa           	tax
    2925: a5 92        	lda	$92                     ; 0x2092 <loadGUISID+0xa9>
    2927: 20 fa 2b     	jsr	$2bfa <spriteDefine>
    292a: b2 8e        	lda	($8e)                   ; 0x208e <loadGUISID+0xa5>
    292c: aa           	tax
    292d: 0a           	asl
    292e: 64 15        	stz	$15                     ; 0x2015 <loadGUISID+0x2c>
    2930: 26 15        	rol	$15                     ; 0x2015 <loadGUISID+0x2c>
    2932: 85 12        	sta	$12                     ; 0x2012 <loadGUISID+0x29>
    2934: 06 12        	asl	$12                     ; 0x2012 <loadGUISID+0x29>
    2936: 26 15        	rol	$15                     ; 0x2015 <loadGUISID+0x2c>
    2938: 06 12        	asl	$12                     ; 0x2012 <loadGUISID+0x29>
    293a: a4 12        	ldy	$12                     ; 0x2012 <loadGUISID+0x29>
    293c: 84 14        	sty	$14                     ; 0x2014 <loadGUISID+0x2b>
    293e: 26 15        	rol	$15                     ; 0x2015 <loadGUISID+0x2c>
    2940: a5 12        	lda	$12                     ; 0x2012 <loadGUISID+0x29>
    2942: 18           	clc
    2943: 69 04        	adc	#$4
    2945: 85 12        	sta	$12                     ; 0x2012 <loadGUISID+0x29>
    2947: a5 15        	lda	$15                     ; 0x2015 <loadGUISID+0x2c>
    2949: 69 d9        	adc	#$d9
    294b: 85 13        	sta	$13                     ; 0x2013 <loadGUISID+0x2a>
    294d: a0 01        	ldy	#$1
    294f: b1 90        	lda	($90),y                 ; 0x2090 <loadGUISID+0xa7>
    2951: 85 18        	sta	$18                     ; 0x2018 <loadGUISID+0x2f>
    2953: b1 8e        	lda	($8e),y                 ; 0x208e <loadGUISID+0xa5>
    2955: 85 19        	sta	$19                     ; 0x2019 <loadGUISID+0x30>
    2957: a0 03        	ldy	#$3
    2959: b1 8e        	lda	($8e),y                 ; 0x208e <loadGUISID+0xa5>
    295b: 85 17        	sta	$17                     ; 0x2017 <loadGUISID+0x2e>
    295d: a0 01        	ldy	#$1
    295f: b1 8c        	lda	($8c),y                 ; 0x208c <loadGUISID+0xa3>
    2961: 85 16        	sta	$16                     ; 0x2016 <loadGUISID+0x2d>
    2963: a5 19        	lda	$19                     ; 0x2019 <loadGUISID+0x30>
    2965: 92 12        	sta	($12)                   ; 0x2012 <loadGUISID+0x29>
    2967: a5 18        	lda	$18                     ; 0x2018 <loadGUISID+0x2f>
    2969: 91 12        	sta	($12),y                 ; 0x2012 <loadGUISID+0x29>
    296b: a5 14        	lda	$14                     ; 0x2014 <loadGUISID+0x2b>
    296d: 18           	clc
    296e: 69 06        	adc	#$6
    2970: 85 18        	sta	$18                     ; 0x2018 <loadGUISID+0x2f>
    2972: a5 15        	lda	$15                     ; 0x2015 <loadGUISID+0x2c>
    2974: 69 d9        	adc	#$d9
    2976: 5a           	phy
    2977: a4 18        	ldy	$18                     ; 0x2018 <loadGUISID+0x2f>
    2979: 84 12        	sty	$12                     ; 0x2012 <loadGUISID+0x29>
    297b: 7a           	ply
    297c: 85 13        	sta	$13                     ; 0x2013 <loadGUISID+0x2a>
    297e: a5 17        	lda	$17                     ; 0x2017 <loadGUISID+0x2e>
    2980: 92 12        	sta	($12)                   ; 0x2012 <loadGUISID+0x29>
    2982: a5 16        	lda	$16                     ; 0x2016 <loadGUISID+0x2d>
    2984: 91 12        	sta	($12),y                 ; 0x2012 <loadGUISID+0x29>
    2986: 18           	clc
    2987: a5 14        	lda	$14                     ; 0x2014 <loadGUISID+0x2b>
    2989: 69 00        	adc	#$0
    298b: 85 12        	sta	$12                     ; 0x2012 <loadGUISID+0x29>
    298d: a5 15        	lda	$15                     ; 0x2015 <loadGUISID+0x2c>
    298f: 69 d9        	adc	#$d9
    2991: 85 13        	sta	$13                     ; 0x2013 <loadGUISID+0x2a>
    2993: a9 01        	lda	#$1
    2995: 1d 4f 4a     	ora	$4a4f,x                 ; 0x4a4f <_spriteCtl>
    2998: 92 12        	sta	($12)                   ; 0x2012 <loadGUISID+0x29>
    299a: a6 92        	ldx	$92                     ; 0x2092 <loadGUISID+0xa9>
    299c: e8           	inx
    299d: 18           	clc
    299e: a5 95        	lda	$95                     ; 0x2095 <loadGUISID+0xac>
    29a0: 69 10        	adc	#$10
    29a2: 85 96        	sta	$96                     ; 0x2096 <loadGUISID+0xad>
    29a4: 18           	clc
    29a5: a5 93        	lda	$93                     ; 0x2093 <loadGUISID+0xaa>
    29a7: 69 14        	adc	#$14
    29a9: a8           	tay
    29aa: a5 94        	lda	$94                     ; 0x2094 <loadGUISID+0xab>
    29ac: 69 00        	adc	#$0
    29ae: 85 13        	sta	$13                     ; 0x2013 <loadGUISID+0x2a>
    29b0: c0 78        	cpy	#$78
    29b2: f0 03        	beq	$29b7 <loadGUISID+0x9ce>
    29b4: 4c 52 28     	jmp	$2852 <loadGUISID+0x869>
    29b7: 60           	rts

000029b8 <textPrint>:
    29b8: a6 01        	ldx	$1                      ; 0x2001 <loadGUISID+0x18>
    29ba: 86 ef        	stx	$ef                     ; 0x20ef <loadGUISID+0x106>
    29bc: a6 48        	ldx	$48                     ; 0x2048 <loadGUISID+0x5f>
    29be: a0 50        	ldy	#$50
    29c0: 8c 00 de     	sty	$de00                   ; 0xde00 <__heap_start+0x911e>
    29c3: 9c 01 de     	stz	$de01                   ; 0xde01 <__heap_start+0x911f>
    29c6: 8e 02 de     	stx	$de02                   ; 0xde02 <__heap_start+0x9120>
    29c9: 9c 03 de     	stz	$de03                   ; 0xde03 <__heap_start+0x9121>
    29cc: ae 10 de     	ldx	$de10                   ; 0xde10 <__heap_start+0x912e>
    29cf: ac 11 de     	ldy	$de11                   ; 0xde11 <__heap_start+0x912f>
    29d2: 84 15        	sty	$15                     ; 0x2015 <loadGUISID+0x2c>
    29d4: ad 12 de     	lda	$de12                   ; 0xde12 <__heap_start+0x9130>
    29d7: ac 13 de     	ldy	$de13                   ; 0xde13 <__heap_start+0x9131>
    29da: 84 1c        	sty	$1c                     ; 0x201c <loadGUISID+0x33>
    29dc: 9c 08 de     	stz	$de08                   ; 0xde08 <__heap_start+0x9126>
    29df: a0 c0        	ldy	#$c0
    29e1: 8c 09 de     	sty	$de09                   ; 0xde09 <__heap_start+0x9127>
    29e4: 9c 0a de     	stz	$de0a                   ; 0xde0a <__heap_start+0x9128>
    29e7: 9c 0b de     	stz	$de0b                   ; 0xde0b <__heap_start+0x9129>
    29ea: 8e 0c de     	stx	$de0c                   ; 0xde0c <__heap_start+0x912a>
    29ed: 64 14        	stz	$14                     ; 0x2014 <loadGUISID+0x2b>
    29ef: a2 00        	ldx	#$0
    29f1: 86 16        	stx	$16                     ; 0x2016 <loadGUISID+0x2d>
    29f3: a2 c0        	ldx	#$c0
    29f5: 86 17        	stx	$17                     ; 0x2017 <loadGUISID+0x2e>
    29f7: a2 11        	ldx	#$11
    29f9: 86 18        	stx	$18                     ; 0x2018 <loadGUISID+0x2f>
    29fb: a2 c9        	ldx	#$c9
    29fd: 86 19        	stx	$19                     ; 0x2019 <loadGUISID+0x30>
    29ff: a2 10        	ldx	#$10
    2a01: 86 1a        	stx	$1a                     ; 0x201a <loadGUISID+0x31>
    2a03: a2 c9        	ldx	#$c9
    2a05: 86 1b        	stx	$1b                     ; 0x201b <loadGUISID+0x32>
    2a07: a6 15        	ldx	$15                     ; 0x2015 <loadGUISID+0x2c>
    2a09: 8e 0d de     	stx	$de0d                   ; 0xde0d <__heap_start+0x912b>
    2a0c: 8d 0e de     	sta	$de0e                   ; 0xde0e <__heap_start+0x912c>
    2a0f: a6 1c        	ldx	$1c                     ; 0x201c <loadGUISID+0x33>
    2a11: 8e 0f de     	stx	$de0f                   ; 0xde0f <__heap_start+0x912d>
    2a14: ac 18 de     	ldy	$de18                   ; 0xde18 <__heap_start+0x9136>
    2a17: ad 19 de     	lda	$de19                   ; 0xde19 <__heap_start+0x9137>
    2a1a: ae 1a de     	ldx	$de1a                   ; 0xde1a <__heap_start+0x9138>
    2a1d: ae 1b de     	ldx	$de1b                   ; 0xde1b <__heap_start+0x9139>
    2a20: 84 1c        	sty	$1c                     ; 0x201c <loadGUISID+0x33>
    2a22: 85 1d        	sta	$1d                     ; 0x201d <loadGUISID+0x34>
    2a24: 64 15        	stz	$15                     ; 0x2015 <loadGUISID+0x2c>
    2a26: 80 13        	bra	$2a3b <textPrint+0x83>
    2a28: a5 1c        	lda	$1c                     ; 0x201c <loadGUISID+0x33>
    2a2a: 18           	clc
    2a2b: 69 50        	adc	#$50
    2a2d: 85 1c        	sta	$1c                     ; 0x201c <loadGUISID+0x33>
    2a2f: a5 1d        	lda	$1d                     ; 0x201d <loadGUISID+0x34>
    2a31: 69 00        	adc	#$0
    2a33: 85 1d        	sta	$1d                     ; 0x201d <loadGUISID+0x34>
    2a35: e6 14        	inc	$14                     ; 0x2014 <loadGUISID+0x2b>
    2a37: d0 02        	bne	$2a3b <textPrint+0x83>
    2a39: e6 15        	inc	$15                     ; 0x2015 <loadGUISID+0x2c>
    2a3b: a5 12        	lda	$12                     ; 0x2012 <loadGUISID+0x29>
    2a3d: 18           	clc
    2a3e: 65 14        	adc	$14                     ; 0x2014 <loadGUISID+0x2b>
    2a40: 85 1e        	sta	$1e                     ; 0x201e <loadGUISID+0x35>
    2a42: a5 13        	lda	$13                     ; 0x2013 <loadGUISID+0x2a>
    2a44: 65 15        	adc	$15                     ; 0x2015 <loadGUISID+0x2c>
    2a46: 85 1f        	sta	$1f                     ; 0x201f <loadGUISID+0x36>
    2a48: b2 1e        	lda	($1e)                   ; 0x201e <loadGUISID+0x35>
    2a4a: c9 0a        	cmp	#$a
    2a4c: f0 26        	beq	$2a74 <textPrint+0xbc>
    2a4e: c9 0d        	cmp	#$d
    2a50: f0 22        	beq	$2a74 <textPrint+0xbc>
    2a52: aa           	tax
    2a53: d0 03        	bne	$2a58 <textPrint+0xa0>
    2a55: 4c 59 2b     	jmp	$2b59 <textPrint+0x1a1>
    2a58: a2 03        	ldx	#$3
    2a5a: 86 01        	stx	$1                      ; 0x2001 <loadGUISID+0x18>
    2a5c: a4 47        	ldy	$47                     ; 0x2047 <loadGUISID+0x5e>
    2a5e: a9 f0        	lda	#$f0
    2a60: 91 1c        	sta	($1c),y                 ; 0x201c <loadGUISID+0x33>
    2a62: ca           	dex
    2a63: 86 01        	stx	$1                      ; 0x2001 <loadGUISID+0x18>
    2a65: b2 1e        	lda	($1e)                   ; 0x201e <loadGUISID+0x35>
    2a67: a4 47        	ldy	$47                     ; 0x2047 <loadGUISID+0x5e>
    2a69: 91 1c        	sta	($1c),y                 ; 0x201c <loadGUISID+0x33>
    2a6b: a6 47        	ldx	$47                     ; 0x2047 <loadGUISID+0x5e>
    2a6d: e8           	inx
    2a6e: e6 47        	inc	$47                     ; 0x2047 <loadGUISID+0x5e>
    2a70: e0 50        	cpx	#$50
    2a72: d0 c1        	bne	$2a35 <textPrint+0x7d>
    2a74: 64 47        	stz	$47                     ; 0x2047 <loadGUISID+0x5e>
    2a76: a6 48        	ldx	$48                     ; 0x2048 <loadGUISID+0x5f>
    2a78: e8           	inx
    2a79: e6 48        	inc	$48                     ; 0x2048 <loadGUISID+0x5f>
    2a7b: e0 1e        	cpx	#$1e
    2a7d: f0 03        	beq	$2a82 <textPrint+0xca>
    2a7f: 4c 28 2a     	jmp	$2a28 <textPrint+0x70>
    2a82: a2 03        	ldx	#$3
    2a84: 86 01        	stx	$1                      ; 0x2001 <loadGUISID+0x18>
    2a86: a2 01        	ldx	#$1
    2a88: 86 1c        	stx	$1c                     ; 0x201c <loadGUISID+0x33>
    2a8a: a2 09        	ldx	#$9
    2a8c: a0 10        	ldy	#$10
    2a8e: a9 00        	lda	#$0
    2a90: 85 1e        	sta	$1e                     ; 0x201e <loadGUISID+0x35>
    2a92: a9 c0        	lda	#$c0
    2a94: 85 1f        	sta	$1f                     ; 0x201f <loadGUISID+0x36>
    2a96: 84 1d        	sty	$1d                     ; 0x201d <loadGUISID+0x34>
    2a98: a0 50        	ldy	#$50
    2a9a: b1 1e        	lda	($1e),y                 ; 0x201e <loadGUISID+0x35>
    2a9c: 92 1e        	sta	($1e)                   ; 0x201e <loadGUISID+0x35>
    2a9e: a9 ff        	lda	#$ff
    2aa0: c6 1d        	dec	$1d                     ; 0x201d <loadGUISID+0x34>
    2aa2: c5 1d        	cmp	$1d                     ; 0x201d <loadGUISID+0x34>
    2aa4: d0 01        	bne	$2aa7 <textPrint+0xef>
    2aa6: ca           	dex
    2aa7: e6 1e        	inc	$1e                     ; 0x201e <loadGUISID+0x35>
    2aa9: d0 02        	bne	$2aad <textPrint+0xf5>
    2aab: e6 1f        	inc	$1f                     ; 0x201f <loadGUISID+0x36>
    2aad: 8a           	txa
    2aae: d0 ea        	bne	$2a9a <textPrint+0xe2>
    2ab0: a5 1d        	lda	$1d                     ; 0x201d <loadGUISID+0x34>
    2ab2: d0 e6        	bne	$2a9a <textPrint+0xe2>
    2ab4: a2 02        	ldx	#$2
    2ab6: 86 01        	stx	$1                      ; 0x2001 <loadGUISID+0x18>
    2ab8: a2 00        	ldx	#$0
    2aba: a5 1c        	lda	$1c                     ; 0x201c <loadGUISID+0x33>
    2abc: d0 ca        	bne	$2a88 <textPrint+0xd0>
    2abe: a2 03        	ldx	#$3
    2ac0: 86 01        	stx	$1                      ; 0x2001 <loadGUISID+0x18>
    2ac2: a2 50        	ldx	#$50
    2ac4: a0 11        	ldy	#$11
    2ac6: 84 1c        	sty	$1c                     ; 0x201c <loadGUISID+0x33>
    2ac8: a0 c9        	ldy	#$c9
    2aca: 84 1d        	sty	$1d                     ; 0x201d <loadGUISID+0x34>
    2acc: a0 10        	ldy	#$10
    2ace: 84 1e        	sty	$1e                     ; 0x201e <loadGUISID+0x35>
    2ad0: a0 c9        	ldy	#$c9
    2ad2: 84 1f        	sty	$1f                     ; 0x201f <loadGUISID+0x36>
    2ad4: a9 f0        	lda	#$f0
    2ad6: a4 1c        	ldy	$1c                     ; 0x201c <loadGUISID+0x33>
    2ad8: 84 22        	sty	$22                     ; 0x2022 <loadGUISID+0x39>
    2ada: a4 1d        	ldy	$1d                     ; 0x201d <loadGUISID+0x34>
    2adc: 84 23        	sty	$23                     ; 0x2023 <loadGUISID+0x3a>
    2ade: 92 1e        	sta	($1e)                   ; 0x201e <loadGUISID+0x35>
    2ae0: e6 1c        	inc	$1c                     ; 0x201c <loadGUISID+0x33>
    2ae2: d0 02        	bne	$2ae6 <textPrint+0x12e>
    2ae4: e6 1d        	inc	$1d                     ; 0x201d <loadGUISID+0x34>
    2ae6: ca           	dex
    2ae7: a4 22        	ldy	$22                     ; 0x2022 <loadGUISID+0x39>
    2ae9: 84 1e        	sty	$1e                     ; 0x201e <loadGUISID+0x35>
    2aeb: a4 23        	ldy	$23                     ; 0x2023 <loadGUISID+0x3a>
    2aed: 84 1f        	sty	$1f                     ; 0x201f <loadGUISID+0x36>
    2aef: e0 00        	cpx	#$0
    2af1: d0 e3        	bne	$2ad6 <textPrint+0x11e>
    2af3: a2 02        	ldx	#$2
    2af5: 86 01        	stx	$1                      ; 0x2001 <loadGUISID+0x18>
    2af7: a2 50        	ldx	#$50
    2af9: a0 11        	ldy	#$11
    2afb: 84 1c        	sty	$1c                     ; 0x201c <loadGUISID+0x33>
    2afd: a0 c9        	ldy	#$c9
    2aff: 84 1d        	sty	$1d                     ; 0x201d <loadGUISID+0x34>
    2b01: a0 10        	ldy	#$10
    2b03: 84 1e        	sty	$1e                     ; 0x201e <loadGUISID+0x35>
    2b05: a0 c9        	ldy	#$c9
    2b07: 84 1f        	sty	$1f                     ; 0x201f <loadGUISID+0x36>
    2b09: a9 20        	lda	#$20
    2b0b: a4 1c        	ldy	$1c                     ; 0x201c <loadGUISID+0x33>
    2b0d: 84 22        	sty	$22                     ; 0x2022 <loadGUISID+0x39>
    2b0f: a4 1d        	ldy	$1d                     ; 0x201d <loadGUISID+0x34>
    2b11: 84 23        	sty	$23                     ; 0x2023 <loadGUISID+0x3a>
    2b13: 92 1e        	sta	($1e)                   ; 0x201e <loadGUISID+0x35>
    2b15: e6 1c        	inc	$1c                     ; 0x201c <loadGUISID+0x33>
    2b17: d0 02        	bne	$2b1b <textPrint+0x163>
    2b19: e6 1d        	inc	$1d                     ; 0x201d <loadGUISID+0x34>
    2b1b: ca           	dex
    2b1c: a4 22        	ldy	$22                     ; 0x2022 <loadGUISID+0x39>
    2b1e: 84 1e        	sty	$1e                     ; 0x201e <loadGUISID+0x35>
    2b20: a4 23        	ldy	$23                     ; 0x2023 <loadGUISID+0x3a>
    2b22: 84 1f        	sty	$1f                     ; 0x201f <loadGUISID+0x36>
    2b24: e0 00        	cpx	#$0
    2b26: d0 e3        	bne	$2b0b <textPrint+0x153>
    2b28: c6 48        	dec	$48                     ; 0x2048 <loadGUISID+0x5f>
    2b2a: 9c 08 de     	stz	$de08                   ; 0xde08 <__heap_start+0x9126>
    2b2d: a2 c0        	ldx	#$c0
    2b2f: 8e 09 de     	stx	$de09                   ; 0xde09 <__heap_start+0x9127>
    2b32: 9c 0a de     	stz	$de0a                   ; 0xde0a <__heap_start+0x9128>
    2b35: 9c 0b de     	stz	$de0b                   ; 0xde0b <__heap_start+0x9129>
    2b38: a2 1d        	ldx	#$1d
    2b3a: 8e 0c de     	stx	$de0c                   ; 0xde0c <__heap_start+0x912a>
    2b3d: 9c 0d de     	stz	$de0d                   ; 0xde0d <__heap_start+0x912b>
    2b40: 9c 0e de     	stz	$de0e                   ; 0xde0e <__heap_start+0x912c>
    2b43: 9c 0f de     	stz	$de0f                   ; 0xde0f <__heap_start+0x912d>
    2b46: ae 18 de     	ldx	$de18                   ; 0xde18 <__heap_start+0x9136>
    2b49: ac 19 de     	ldy	$de19                   ; 0xde19 <__heap_start+0x9137>
    2b4c: ad 1a de     	lda	$de1a                   ; 0xde1a <__heap_start+0x9138>
    2b4f: ad 1b de     	lda	$de1b                   ; 0xde1b <__heap_start+0x9139>
    2b52: 86 1c        	stx	$1c                     ; 0x201c <loadGUISID+0x33>
    2b54: 84 1d        	sty	$1d                     ; 0x201d <loadGUISID+0x34>
    2b56: 4c 35 2a     	jmp	$2a35 <textPrint+0x7d>
    2b59: a6 ef        	ldx	$ef                     ; 0x20ef <loadGUISID+0x106>
    2b5b: 86 01        	stx	$1                      ; 0x2001 <loadGUISID+0x18>
    2b5d: a6 47        	ldx	$47                     ; 0x2047 <loadGUISID+0x5e>
    2b5f: a4 48        	ldy	$48                     ; 0x2048 <loadGUISID+0x5f>
    2b61: 8e 14 d0     	stx	$d014                   ; 0xd014 <__heap_start+0x8332>
    2b64: 9c 15 d0     	stz	$d015                   ; 0xd015 <__heap_start+0x8333>
    2b67: 84 48        	sty	$48                     ; 0x2048 <loadGUISID+0x5f>
    2b69: 8c 16 d0     	sty	$d016                   ; 0xd016 <__heap_start+0x8334>
    2b6c: 9c 17 d0     	stz	$d017                   ; 0xd017 <__heap_start+0x8335>
    2b6f: 60           	rts

00002b70 <bitmapClear>:
    2b70: a2 00        	ldx	#$0
    2b72: a0 00        	ldy	#$0
    2b74: 84 12        	sty	$12                     ; 0x2012 <loadGUISID+0x29>
    2b76: a0 e0        	ldy	#$e0
    2b78: 84 13        	sty	$13                     ; 0x2013 <loadGUISID+0x2a>
    2b7a: a9 01        	lda	#$1
    2b7c: 25 49        	and	$49                     ; 0x2049 <loadGUISID+0x60>
    2b7e: 0a           	asl
    2b7f: 0a           	asl
    2b80: a8           	tay
    2b81: b9 44 4a     	lda	$4a44,y                 ; 0x4a44 <_BITMAP_BASE+0x1>
    2b84: 48           	pha
    2b85: b9 45 4a     	lda	$4a45,y                 ; 0x4a45 <_BITMAP_BASE+0x2>
    2b88: a8           	tay
    2b89: 68           	pla
    2b8a: 84 14        	sty	$14                     ; 0x2014 <loadGUISID+0x2b>
    2b8c: 0a           	asl
    2b8d: 26 14        	rol	$14                     ; 0x2014 <loadGUISID+0x2b>
    2b8f: 0a           	asl
    2b90: 26 14        	rol	$14                     ; 0x2014 <loadGUISID+0x2b>
    2b92: 0a           	asl
    2b93: a5 14        	lda	$14                     ; 0x2014 <loadGUISID+0x2b>
    2b95: 2a           	rol
    2b96: a4 0f        	ldy	$f                      ; 0x200f <loadGUISID+0x26>
    2b98: 84 18        	sty	$18                     ; 0x2018 <loadGUISID+0x2f>
    2b9a: 78           	sei
    2b9b: 85 19        	sta	$19                     ; 0x2019 <loadGUISID+0x30>
    2b9d: 85 0f        	sta	$f                      ; 0x200f <loadGUISID+0x26>
    2b9f: a5 4a        	lda	$4a                     ; 0x204a <loadGUISID+0x61>
    2ba1: a0 20        	ldy	#$20
    2ba3: 48           	pha
    2ba4: a9 00        	lda	#$0
    2ba6: 85 14        	sta	$14                     ; 0x2014 <loadGUISID+0x2b>
    2ba8: a9 e0        	lda	#$e0
    2baa: 85 15        	sta	$15                     ; 0x2015 <loadGUISID+0x2c>
    2bac: 68           	pla
    2bad: 64 16        	stz	$16                     ; 0x2016 <loadGUISID+0x2d>
    2baf: 84 17        	sty	$17                     ; 0x2017 <loadGUISID+0x2e>
    2bb1: 92 14        	sta	($14)                   ; 0x2014 <loadGUISID+0x2b>
    2bb3: a0 ff        	ldy	#$ff
    2bb5: c6 16        	dec	$16                     ; 0x2016 <loadGUISID+0x2d>
    2bb7: c4 16        	cpy	$16                     ; 0x2016 <loadGUISID+0x2d>
    2bb9: d0 02        	bne	$2bbd <bitmapClear+0x4d>
    2bbb: c6 17        	dec	$17                     ; 0x2017 <loadGUISID+0x2e>
    2bbd: e6 14        	inc	$14                     ; 0x2014 <loadGUISID+0x2b>
    2bbf: d0 02        	bne	$2bc3 <bitmapClear+0x53>
    2bc1: e6 15        	inc	$15                     ; 0x2015 <loadGUISID+0x2c>
    2bc3: a4 17        	ldy	$17                     ; 0x2017 <loadGUISID+0x2e>
    2bc5: d0 ea        	bne	$2bb1 <bitmapClear+0x41>
    2bc7: a4 16        	ldy	$16                     ; 0x2016 <loadGUISID+0x2d>
    2bc9: d0 e6        	bne	$2bb1 <bitmapClear+0x41>
    2bcb: a5 19        	lda	$19                     ; 0x2019 <loadGUISID+0x30>
    2bcd: 1a           	inc
    2bce: e8           	inx
    2bcf: e0 09        	cpx	#$9
    2bd1: d0 c8        	bne	$2b9b <bitmapClear+0x2b>
    2bd3: 85 0f        	sta	$f                      ; 0x200f <loadGUISID+0x26>
    2bd5: a5 4a        	lda	$4a                     ; 0x204a <loadGUISID+0x61>
    2bd7: a0 14        	ldy	#$14
    2bd9: a2 00        	ldx	#$0
    2bdb: 84 14        	sty	$14                     ; 0x2014 <loadGUISID+0x2b>
    2bdd: 92 12        	sta	($12)                   ; 0x2012 <loadGUISID+0x29>
    2bdf: ca           	dex
    2be0: e0 ff        	cpx	#$ff
    2be2: d0 02        	bne	$2be6 <bitmapClear+0x76>
    2be4: c6 14        	dec	$14                     ; 0x2014 <loadGUISID+0x2b>
    2be6: e6 12        	inc	$12                     ; 0x2012 <loadGUISID+0x29>
    2be8: d0 02        	bne	$2bec <bitmapClear+0x7c>
    2bea: e6 13        	inc	$13                     ; 0x2013 <loadGUISID+0x2a>
    2bec: a4 14        	ldy	$14                     ; 0x2014 <loadGUISID+0x2b>
    2bee: d0 ed        	bne	$2bdd <bitmapClear+0x6d>
    2bf0: e0 00        	cpx	#$0
    2bf2: d0 e9        	bne	$2bdd <bitmapClear+0x6d>
    2bf4: a6 18        	ldx	$18                     ; 0x2018 <loadGUISID+0x2f>
    2bf6: 86 0f        	stx	$f                      ; 0x200f <loadGUISID+0x26>
    2bf8: 58           	cli
    2bf9: 60           	rts

00002bfa <spriteDefine>:
    2bfa: a8           	tay
    2bfb: 86 16        	stx	$16                     ; 0x2016 <loadGUISID+0x2d>
    2bfd: a6 13        	ldx	$13                     ; 0x2013 <loadGUISID+0x2a>
    2bff: a5 15        	lda	$15                     ; 0x2015 <loadGUISID+0x2c>
    2c01: 18           	clc
    2c02: 69 f8        	adc	#$f8
    2c04: 85 13        	sta	$13                     ; 0x2013 <loadGUISID+0x2a>
    2c06: 46 13        	lsr	$13                     ; 0x2013 <loadGUISID+0x2a>
    2c08: 6a           	ror
    2c09: 85 13        	sta	$13                     ; 0x2013 <loadGUISID+0x2a>
    2c0b: 46 13        	lsr	$13                     ; 0x2013 <loadGUISID+0x2a>
    2c0d: 6a           	ror
    2c0e: 85 13        	sta	$13                     ; 0x2013 <loadGUISID+0x2a>
    2c10: 46 13        	lsr	$13                     ; 0x2013 <loadGUISID+0x2a>
    2c12: 6a           	ror
    2c13: c9 03        	cmp	#$3
    2c15: 64 17        	stz	$17                     ; 0x2017 <loadGUISID+0x2e>
    2c17: b0 0e        	bcs	$2c27 <spriteDefine+0x2d>
    2c19: 0a           	asl
    2c1a: 0a           	asl
    2c1b: 0a           	asl
    2c1c: 0a           	asl
    2c1d: 0a           	asl
    2c1e: 85 13        	sta	$13                     ; 0x2013 <loadGUISID+0x2a>
    2c20: a9 60        	lda	#$60
    2c22: 38           	sec
    2c23: e5 13        	sbc	$13                     ; 0x2013 <loadGUISID+0x2a>
    2c25: 85 17        	sta	$17                     ; 0x2017 <loadGUISID+0x2e>
    2c27: 98           	tya
    2c28: 0a           	asl
    2c29: 64 13        	stz	$13                     ; 0x2013 <loadGUISID+0x2a>
    2c2b: 26 13        	rol	$13                     ; 0x2013 <loadGUISID+0x2a>
    2c2d: 0a           	asl
    2c2e: 26 13        	rol	$13                     ; 0x2013 <loadGUISID+0x2a>
    2c30: 0a           	asl
    2c31: 26 13        	rol	$13                     ; 0x2013 <loadGUISID+0x2a>
    2c33: 85 18        	sta	$18                     ; 0x2018 <loadGUISID+0x2f>
    2c35: 18           	clc
    2c36: 69 00        	adc	#$0
    2c38: 85 19        	sta	$19                     ; 0x2019 <loadGUISID+0x30>
    2c3a: a5 13        	lda	$13                     ; 0x2013 <loadGUISID+0x2a>
    2c3c: 69 d9        	adc	#$d9
    2c3e: 5a           	phy
    2c3f: a4 19        	ldy	$19                     ; 0x2019 <loadGUISID+0x30>
    2c41: 84 14        	sty	$14                     ; 0x2014 <loadGUISID+0x2b>
    2c43: 7a           	ply
    2c44: 85 15        	sta	$15                     ; 0x2015 <loadGUISID+0x2c>
    2c46: a5 17        	lda	$17                     ; 0x2017 <loadGUISID+0x2e>
    2c48: 99 4f 4a     	sta	$4a4f,y                 ; 0x4a4f <_spriteCtl>
    2c4b: 92 14        	sta	($14)                   ; 0x2014 <loadGUISID+0x2b>
    2c4d: a5 18        	lda	$18                     ; 0x2018 <loadGUISID+0x2f>
    2c4f: 18           	clc
    2c50: 69 01        	adc	#$1
    2c52: 85 14        	sta	$14                     ; 0x2014 <loadGUISID+0x2b>
    2c54: a5 13        	lda	$13                     ; 0x2013 <loadGUISID+0x2a>
    2c56: 69 d9        	adc	#$d9
    2c58: 85 15        	sta	$15                     ; 0x2015 <loadGUISID+0x2c>
    2c5a: a5 16        	lda	$16                     ; 0x2016 <loadGUISID+0x2d>
    2c5c: 92 14        	sta	($14)                   ; 0x2014 <loadGUISID+0x2b>
    2c5e: a5 18        	lda	$18                     ; 0x2018 <loadGUISID+0x2f>
    2c60: 18           	clc
    2c61: 69 02        	adc	#$2
    2c63: 85 14        	sta	$14                     ; 0x2014 <loadGUISID+0x2b>
    2c65: a5 13        	lda	$13                     ; 0x2013 <loadGUISID+0x2a>
    2c67: 69 d9        	adc	#$d9
    2c69: 85 15        	sta	$15                     ; 0x2015 <loadGUISID+0x2c>
    2c6b: 18           	clc
    2c6c: a5 12        	lda	$12                     ; 0x2012 <loadGUISID+0x29>
    2c6e: 92 14        	sta	($14)                   ; 0x2014 <loadGUISID+0x2b>
    2c70: a5 18        	lda	$18                     ; 0x2018 <loadGUISID+0x2f>
    2c72: 69 03        	adc	#$3
    2c74: 85 12        	sta	$12                     ; 0x2012 <loadGUISID+0x29>
    2c76: a5 13        	lda	$13                     ; 0x2013 <loadGUISID+0x2a>
    2c78: 69 d9        	adc	#$d9
    2c7a: 85 13        	sta	$13                     ; 0x2013 <loadGUISID+0x2a>
    2c7c: 8a           	txa
    2c7d: 92 12        	sta	($12)                   ; 0x2012 <loadGUISID+0x29>
    2c7f: 60           	rts

00002c80 <showGeneric>:
    2c80: b2 12        	lda	($12)                   ; 0x2012 <loadGUISID+0x29>
    2c82: 85 16        	sta	$16                     ; 0x2016 <loadGUISID+0x2d>
    2c84: a5 12        	lda	$12                     ; 0x2012 <loadGUISID+0x29>
    2c86: 85 9c        	sta	$9c                     ; 0x209c <loadGUISID+0xb3>
    2c88: a6 13        	ldx	$13                     ; 0x2013 <loadGUISID+0x2a>
    2c8a: 86 9a        	stx	$9a                     ; 0x209a <loadGUISID+0xb1>
    2c8c: a6 12        	ldx	$12                     ; 0x2012 <loadGUISID+0x29>
    2c8e: 86 14        	stx	$14                     ; 0x2014 <loadGUISID+0x2b>
    2c90: a6 13        	ldx	$13                     ; 0x2013 <loadGUISID+0x2a>
    2c92: 86 15        	stx	$15                     ; 0x2015 <loadGUISID+0x2c>
    2c94: a6 12        	ldx	$12                     ; 0x2012 <loadGUISID+0x29>
    2c96: 86 98        	stx	$98                     ; 0x2098 <loadGUISID+0xaf>
    2c98: a6 13        	ldx	$13                     ; 0x2013 <loadGUISID+0x2a>
    2c9a: 86 99        	stx	$99                     ; 0x2099 <loadGUISID+0xb0>
    2c9c: 18           	clc
    2c9d: 69 08        	adc	#$8
    2c9f: 85 18        	sta	$18                     ; 0x2018 <loadGUISID+0x2f>
    2ca1: a5 9a        	lda	$9a                     ; 0x209a <loadGUISID+0xb1>
    2ca3: 69 00        	adc	#$0
    2ca5: a0 08        	ldy	#$8
    2ca7: 85 19        	sta	$19                     ; 0x2019 <loadGUISID+0x30>
    2ca9: b1 12        	lda	($12),y                 ; 0x2012 <loadGUISID+0x29>
    2cab: 85 17        	sta	$17                     ; 0x2017 <loadGUISID+0x2e>
    2cad: a0 02        	ldy	#$2
    2caf: b1 18        	lda	($18),y                 ; 0x2018 <loadGUISID+0x2f>
    2cb1: 85 13        	sta	$13                     ; 0x2013 <loadGUISID+0x2a>
    2cb3: a0 0d        	ldy	#$d
    2cb5: b1 14        	lda	($14),y                 ; 0x2014 <loadGUISID+0x2b>
    2cb7: 85 15        	sta	$15                     ; 0x2015 <loadGUISID+0x2c>
    2cb9: a0 01        	ldy	#$1
    2cbb: 84 9b        	sty	$9b                     ; 0x209b <loadGUISID+0xb2>
    2cbd: b1 18        	lda	($18),y                 ; 0x2018 <loadGUISID+0x2f>
    2cbf: 85 12        	sta	$12                     ; 0x2012 <loadGUISID+0x29>
    2cc1: a0 03        	ldy	#$3
    2cc3: b1 18        	lda	($18),y                 ; 0x2018 <loadGUISID+0x2f>
    2cc5: 85 14        	sta	$14                     ; 0x2014 <loadGUISID+0x2b>
    2cc7: a6 17        	ldx	$17                     ; 0x2017 <loadGUISID+0x2e>
    2cc9: a5 16        	lda	$16                     ; 0x2016 <loadGUISID+0x2d>
    2ccb: 20 fa 2b     	jsr	$2bfa <spriteDefine>
    2cce: 18           	clc
    2ccf: a6 9c        	ldx	$9c                     ; 0x209c <loadGUISID+0xb3>
    2cd1: 8a           	txa
    2cd2: 69 03        	adc	#$3
    2cd4: a8           	tay
    2cd5: a5 9a        	lda	$9a                     ; 0x209a <loadGUISID+0xb1>
    2cd7: 69 00        	adc	#$0
    2cd9: 84 12        	sty	$12                     ; 0x2012 <loadGUISID+0x29>
    2cdb: 85 13        	sta	$13                     ; 0x2013 <loadGUISID+0x2a>
    2cdd: a6 98        	ldx	$98                     ; 0x2098 <loadGUISID+0xaf>
    2cdf: 86 1a        	stx	$1a                     ; 0x201a <loadGUISID+0x31>
    2ce1: a6 99        	ldx	$99                     ; 0x2099 <loadGUISID+0xb0>
    2ce3: 86 1b        	stx	$1b                     ; 0x201b <loadGUISID+0x32>
    2ce5: b2 1a        	lda	($1a)                   ; 0x201a <loadGUISID+0x31>
    2ce7: aa           	tax
    2ce8: 0a           	asl
    2ce9: 64 14        	stz	$14                     ; 0x2014 <loadGUISID+0x2b>
    2ceb: 26 14        	rol	$14                     ; 0x2014 <loadGUISID+0x2b>
    2ced: 0a           	asl
    2cee: 26 14        	rol	$14                     ; 0x2014 <loadGUISID+0x2b>
    2cf0: 0a           	asl
    2cf1: 26 14        	rol	$14                     ; 0x2014 <loadGUISID+0x2b>
    2cf3: a4 14        	ldy	$14                     ; 0x2014 <loadGUISID+0x2b>
    2cf5: 84 18        	sty	$18                     ; 0x2018 <loadGUISID+0x2f>
    2cf7: 85 1c        	sta	$1c                     ; 0x201c <loadGUISID+0x33>
    2cf9: 18           	clc
    2cfa: 69 04        	adc	#$4
    2cfc: 85 14        	sta	$14                     ; 0x2014 <loadGUISID+0x2b>
    2cfe: a5 18        	lda	$18                     ; 0x2018 <loadGUISID+0x2f>
    2d00: 69 d9        	adc	#$d9
    2d02: 85 15        	sta	$15                     ; 0x2015 <loadGUISID+0x2c>
    2d04: a4 1a        	ldy	$1a                     ; 0x201a <loadGUISID+0x31>
    2d06: 84 16        	sty	$16                     ; 0x2016 <loadGUISID+0x2d>
    2d08: a4 1b        	ldy	$1b                     ; 0x201b <loadGUISID+0x32>
    2d0a: 84 17        	sty	$17                     ; 0x2017 <loadGUISID+0x2e>
    2d0c: e6 16        	inc	$16                     ; 0x2016 <loadGUISID+0x2d>
    2d0e: d0 02        	bne	$2d12 <showGeneric+0x92>
    2d10: e6 17        	inc	$17                     ; 0x2017 <loadGUISID+0x2e>
    2d12: a0 03        	ldy	#$3
    2d14: b1 1a        	lda	($1a),y                 ; 0x201a <loadGUISID+0x31>
    2d16: 85 19        	sta	$19                     ; 0x2019 <loadGUISID+0x30>
    2d18: a4 9b        	ldy	$9b                     ; 0x209b <loadGUISID+0xb2>
    2d1a: b1 1a        	lda	($1a),y                 ; 0x201a <loadGUISID+0x31>
    2d1c: 85 1a        	sta	$1a                     ; 0x201a <loadGUISID+0x31>
    2d1e: b1 16        	lda	($16),y                 ; 0x2016 <loadGUISID+0x2d>
    2d20: 85 17        	sta	$17                     ; 0x2017 <loadGUISID+0x2e>
    2d22: b1 12        	lda	($12),y                 ; 0x2012 <loadGUISID+0x29>
    2d24: 85 16        	sta	$16                     ; 0x2016 <loadGUISID+0x2d>
    2d26: a5 1a        	lda	$1a                     ; 0x201a <loadGUISID+0x31>
    2d28: 92 14        	sta	($14)                   ; 0x2014 <loadGUISID+0x2b>
    2d2a: a5 17        	lda	$17                     ; 0x2017 <loadGUISID+0x2e>
    2d2c: 91 14        	sta	($14),y                 ; 0x2014 <loadGUISID+0x2b>
    2d2e: a5 1c        	lda	$1c                     ; 0x201c <loadGUISID+0x33>
    2d30: 18           	clc
    2d31: 69 06        	adc	#$6
    2d33: 85 14        	sta	$14                     ; 0x2014 <loadGUISID+0x2b>
    2d35: a5 18        	lda	$18                     ; 0x2018 <loadGUISID+0x2f>
    2d37: 69 d9        	adc	#$d9
    2d39: 5a           	phy
    2d3a: a4 14        	ldy	$14                     ; 0x2014 <loadGUISID+0x2b>
    2d3c: 84 12        	sty	$12                     ; 0x2012 <loadGUISID+0x29>
    2d3e: 7a           	ply
    2d3f: 85 13        	sta	$13                     ; 0x2013 <loadGUISID+0x2a>
    2d41: a5 19        	lda	$19                     ; 0x2019 <loadGUISID+0x30>
    2d43: 92 12        	sta	($12)                   ; 0x2012 <loadGUISID+0x29>
    2d45: a5 16        	lda	$16                     ; 0x2016 <loadGUISID+0x2d>
    2d47: 91 12        	sta	($12),y                 ; 0x2012 <loadGUISID+0x29>
    2d49: 18           	clc
    2d4a: a5 1c        	lda	$1c                     ; 0x201c <loadGUISID+0x33>
    2d4c: 69 00        	adc	#$0
    2d4e: 85 12        	sta	$12                     ; 0x2012 <loadGUISID+0x29>
    2d50: a5 18        	lda	$18                     ; 0x2018 <loadGUISID+0x2f>
    2d52: 69 d9        	adc	#$d9
    2d54: 85 13        	sta	$13                     ; 0x2013 <loadGUISID+0x2a>
    2d56: a9 01        	lda	#$1
    2d58: 1d 4f 4a     	ora	$4a4f,x                 ; 0x4a4f <_spriteCtl>
    2d5b: 92 12        	sta	($12)                   ; 0x2012 <loadGUISID+0x29>
    2d5d: 60           	rts

00002d5e <updateRadioB>:
    2d5e: a6 12        	ldx	$12                     ; 0x2012 <loadGUISID+0x29>
    2d60: 86 9c        	stx	$9c                     ; 0x209c <loadGUISID+0xb3>
    2d62: a6 13        	ldx	$13                     ; 0x2013 <loadGUISID+0x2a>
    2d64: 86 9d        	stx	$9d                     ; 0x209d <loadGUISID+0xb4>
    2d66: a0 06        	ldy	#$6
    2d68: b1 12        	lda	($12),y                 ; 0x2012 <loadGUISID+0x29>
    2d6a: 85 9e        	sta	$9e                     ; 0x209e <loadGUISID+0xb5>
    2d6c: a0 0d        	ldy	#$d
    2d6e: b1 12        	lda	($12),y                 ; 0x2012 <loadGUISID+0x29>
    2d70: 85 12        	sta	$12                     ; 0x2012 <loadGUISID+0x29>
    2d72: 64 13        	stz	$13                     ; 0x2013 <loadGUISID+0x2a>
    2d74: a2 00        	ldx	#$0
    2d76: 85 9f        	sta	$9f                     ; 0x209f <loadGUISID+0xb6>
    2d78: 20 0e 45     	jsr	$450e <__mulhi3>
    2d7b: 85 13        	sta	$13                     ; 0x2013 <loadGUISID+0x2a>
    2d7d: 86 12        	stx	$12                     ; 0x2012 <loadGUISID+0x29>
    2d7f: a5 9c        	lda	$9c                     ; 0x209c <loadGUISID+0xb3>
    2d81: a0 08        	ldy	#$8
    2d83: 18           	clc
    2d84: 69 08        	adc	#$8
    2d86: 85 14        	sta	$14                     ; 0x2014 <loadGUISID+0x2b>
    2d88: a5 9d        	lda	$9d                     ; 0x209d <loadGUISID+0xb4>
    2d8a: 69 00        	adc	#$0
    2d8c: 85 15        	sta	$15                     ; 0x2015 <loadGUISID+0x2c>
    2d8e: b1 9c        	lda	($9c),y                 ; 0x209c <loadGUISID+0xb3>
    2d90: aa           	tax
    2d91: a0 01        	ldy	#$1
    2d93: b1 14        	lda	($14),y                 ; 0x2014 <loadGUISID+0x2b>
    2d95: 85 16        	sta	$16                     ; 0x2016 <loadGUISID+0x2d>
    2d97: c8           	iny
    2d98: b1 14        	lda	($14),y                 ; 0x2014 <loadGUISID+0x2b>
    2d9a: 85 17        	sta	$17                     ; 0x2017 <loadGUISID+0x2e>
    2d9c: c8           	iny
    2d9d: b1 14        	lda	($14),y                 ; 0x2014 <loadGUISID+0x2b>
    2d9f: 85 18        	sta	$18                     ; 0x2018 <loadGUISID+0x2f>
    2da1: a5 9e        	lda	$9e                     ; 0x209e <loadGUISID+0xb5>
    2da3: f0 18        	beq	$2dbd <updateRadioB+0x5f>
    2da5: 18           	clc
    2da6: 8a           	txa
    2da7: 65 13        	adc	$13                     ; 0x2013 <loadGUISID+0x2a>
    2da9: 85 14        	sta	$14                     ; 0x2014 <loadGUISID+0x2b>
    2dab: a5 16        	lda	$16                     ; 0x2016 <loadGUISID+0x2d>
    2dad: 65 12        	adc	$12                     ; 0x2012 <loadGUISID+0x29>
    2daf: 85 15        	sta	$15                     ; 0x2015 <loadGUISID+0x2c>
    2db1: a5 17        	lda	$17                     ; 0x2017 <loadGUISID+0x2e>
    2db3: 69 00        	adc	#$0
    2db5: 85 16        	sta	$16                     ; 0x2016 <loadGUISID+0x2d>
    2db7: a5 18        	lda	$18                     ; 0x2018 <loadGUISID+0x2f>
    2db9: 69 00        	adc	#$0
    2dbb: 80 16        	bra	$2dd3 <updateRadioB+0x75>
    2dbd: 38           	sec
    2dbe: 8a           	txa
    2dbf: e5 13        	sbc	$13                     ; 0x2013 <loadGUISID+0x2a>
    2dc1: 85 14        	sta	$14                     ; 0x2014 <loadGUISID+0x2b>
    2dc3: a5 16        	lda	$16                     ; 0x2016 <loadGUISID+0x2d>
    2dc5: e5 12        	sbc	$12                     ; 0x2012 <loadGUISID+0x29>
    2dc7: 85 15        	sta	$15                     ; 0x2015 <loadGUISID+0x2c>
    2dc9: a5 17        	lda	$17                     ; 0x2017 <loadGUISID+0x2e>
    2dcb: e9 00        	sbc	#$0
    2dcd: 85 16        	sta	$16                     ; 0x2016 <loadGUISID+0x2d>
    2dcf: a5 18        	lda	$18                     ; 0x2018 <loadGUISID+0x2f>
    2dd1: e9 00        	sbc	#$0
    2dd3: 85 17        	sta	$17                     ; 0x2017 <loadGUISID+0x2e>
    2dd5: a5 9c        	lda	$9c                     ; 0x209c <loadGUISID+0xb3>
    2dd7: 18           	clc
    2dd8: 69 08        	adc	#$8
    2dda: 85 12        	sta	$12                     ; 0x2012 <loadGUISID+0x29>
    2ddc: a5 9d        	lda	$9d                     ; 0x209d <loadGUISID+0xb4>
    2dde: 69 00        	adc	#$0
    2de0: a0 08        	ldy	#$8
    2de2: a6 12        	ldx	$12                     ; 0x2012 <loadGUISID+0x29>
    2de4: 86 18        	stx	$18                     ; 0x2018 <loadGUISID+0x2f>
    2de6: 85 19        	sta	$19                     ; 0x2019 <loadGUISID+0x30>
    2de8: a5 14        	lda	$14                     ; 0x2014 <loadGUISID+0x2b>
    2dea: 91 9c        	sta	($9c),y                 ; 0x209c <loadGUISID+0xb3>
    2dec: a6 14        	ldx	$14                     ; 0x2014 <loadGUISID+0x2b>
    2dee: a0 01        	ldy	#$1
    2df0: a5 15        	lda	$15                     ; 0x2015 <loadGUISID+0x2c>
    2df2: 91 18        	sta	($18),y                 ; 0x2018 <loadGUISID+0x2f>
    2df4: 85 12        	sta	$12                     ; 0x2012 <loadGUISID+0x29>
    2df6: c8           	iny
    2df7: a5 16        	lda	$16                     ; 0x2016 <loadGUISID+0x2d>
    2df9: 91 18        	sta	($18),y                 ; 0x2018 <loadGUISID+0x2f>
    2dfb: 85 13        	sta	$13                     ; 0x2013 <loadGUISID+0x2a>
    2dfd: c8           	iny
    2dfe: a5 17        	lda	$17                     ; 0x2017 <loadGUISID+0x2e>
    2e00: 91 18        	sta	($18),y                 ; 0x2018 <loadGUISID+0x2f>
    2e02: 85 14        	sta	$14                     ; 0x2014 <loadGUISID+0x2b>
    2e04: b2 9c        	lda	($9c)                   ; 0x209c <loadGUISID+0xb3>
    2e06: a4 9f        	ldy	$9f                     ; 0x209f <loadGUISID+0xb6>
    2e08: 84 15        	sty	$15                     ; 0x2015 <loadGUISID+0x2c>
    2e0a: 20 fa 2b     	jsr	$2bfa <spriteDefine>
    2e0d: b2 9c        	lda	($9c)                   ; 0x209c <loadGUISID+0xb3>
    2e0f: aa           	tax
    2e10: 0a           	asl
    2e11: 64 12        	stz	$12                     ; 0x2012 <loadGUISID+0x29>
    2e13: 26 12        	rol	$12                     ; 0x2012 <loadGUISID+0x29>
    2e15: 0a           	asl
    2e16: 26 12        	rol	$12                     ; 0x2012 <loadGUISID+0x29>
    2e18: 0a           	asl
    2e19: 26 12        	rol	$12                     ; 0x2012 <loadGUISID+0x29>
    2e1b: 18           	clc
    2e1c: 69 00        	adc	#$0
    2e1e: a8           	tay
    2e1f: a5 12        	lda	$12                     ; 0x2012 <loadGUISID+0x29>
    2e21: 69 d9        	adc	#$d9
    2e23: 84 12        	sty	$12                     ; 0x2012 <loadGUISID+0x29>
    2e25: 85 13        	sta	$13                     ; 0x2013 <loadGUISID+0x2a>
    2e27: a9 01        	lda	#$1
    2e29: 1d 4f 4a     	ora	$4a4f,x                 ; 0x4a4f <_spriteCtl>
    2e2c: 92 12        	sta	($12)                   ; 0x2012 <loadGUISID+0x29>
    2e2e: 60           	rts

00002e2f <setRadioB>:
    2e2f: 85 14        	sta	$14                     ; 0x2014 <loadGUISID+0x2b>
    2e31: 86 9b        	stx	$9b                     ; 0x209b <loadGUISID+0xb2>
    2e33: a6 12        	ldx	$12                     ; 0x2012 <loadGUISID+0x29>
    2e35: 86 98        	stx	$98                     ; 0x2098 <loadGUISID+0xaf>
    2e37: a6 13        	ldx	$13                     ; 0x2013 <loadGUISID+0x2a>
    2e39: 86 99        	stx	$99                     ; 0x2099 <loadGUISID+0xb0>
    2e3b: a0 13        	ldy	#$13
    2e3d: a9 01        	lda	#$1
    2e3f: 91 12        	sta	($12),y                 ; 0x2012 <loadGUISID+0x29>
    2e41: c8           	iny
    2e42: a5 14        	lda	$14                     ; 0x2014 <loadGUISID+0x2b>
    2e44: 91 12        	sta	($12),y                 ; 0x2012 <loadGUISID+0x29>
    2e46: a5 98        	lda	$98                     ; 0x2098 <loadGUISID+0xaf>
    2e48: 18           	clc
    2e49: 69 08        	adc	#$8
    2e4b: 85 18        	sta	$18                     ; 0x2018 <loadGUISID+0x2f>
    2e4d: a5 99        	lda	$99                     ; 0x2099 <loadGUISID+0xb0>
    2e4f: 69 00        	adc	#$0
    2e51: a0 08        	ldy	#$8
    2e53: 64 9a        	stz	$9a                     ; 0x209a <loadGUISID+0xb1>
    2e55: 85 19        	sta	$19                     ; 0x2019 <loadGUISID+0x30>
    2e57: b1 12        	lda	($12),y                 ; 0x2012 <loadGUISID+0x29>
    2e59: aa           	tax
    2e5a: a0 02        	ldy	#$2
    2e5c: b1 18        	lda	($18),y                 ; 0x2018 <loadGUISID+0x2f>
    2e5e: 85 13        	sta	$13                     ; 0x2013 <loadGUISID+0x2a>
    2e60: a0 0d        	ldy	#$d
    2e62: b1 98        	lda	($98),y                 ; 0x2098 <loadGUISID+0xaf>
    2e64: 85 15        	sta	$15                     ; 0x2015 <loadGUISID+0x2c>
    2e66: b2 98        	lda	($98)                   ; 0x2098 <loadGUISID+0xaf>
    2e68: 85 16        	sta	$16                     ; 0x2016 <loadGUISID+0x2d>
    2e6a: a0 01        	ldy	#$1
    2e6c: b1 18        	lda	($18),y                 ; 0x2018 <loadGUISID+0x2f>
    2e6e: 85 12        	sta	$12                     ; 0x2012 <loadGUISID+0x29>
    2e70: a0 03        	ldy	#$3
    2e72: b1 18        	lda	($18),y                 ; 0x2018 <loadGUISID+0x2f>
    2e74: 85 14        	sta	$14                     ; 0x2014 <loadGUISID+0x2b>
    2e76: a5 16        	lda	$16                     ; 0x2016 <loadGUISID+0x2d>
    2e78: 20 fa 2b     	jsr	$2bfa <spriteDefine>
    2e7b: b2 98        	lda	($98)                   ; 0x2098 <loadGUISID+0xaf>
    2e7d: aa           	tax
    2e7e: 18           	clc
    2e7f: a5 98        	lda	$98                     ; 0x2098 <loadGUISID+0xaf>
    2e81: 69 03        	adc	#$3
    2e83: 85 12        	sta	$12                     ; 0x2012 <loadGUISID+0x29>
    2e85: a5 99        	lda	$99                     ; 0x2099 <loadGUISID+0xb0>
    2e87: 69 00        	adc	#$0
    2e89: 85 13        	sta	$13                     ; 0x2013 <loadGUISID+0x2a>
    2e8b: 86 1a        	stx	$1a                     ; 0x201a <loadGUISID+0x31>
    2e8d: 06 1a        	asl	$1a                     ; 0x201a <loadGUISID+0x31>
    2e8f: 64 18        	stz	$18                     ; 0x2018 <loadGUISID+0x2f>
    2e91: 26 18        	rol	$18                     ; 0x2018 <loadGUISID+0x2f>
    2e93: 06 1a        	asl	$1a                     ; 0x201a <loadGUISID+0x31>
    2e95: 26 18        	rol	$18                     ; 0x2018 <loadGUISID+0x2f>
    2e97: 06 1a        	asl	$1a                     ; 0x201a <loadGUISID+0x31>
    2e99: 26 18        	rol	$18                     ; 0x2018 <loadGUISID+0x2f>
    2e9b: 18           	clc
    2e9c: a5 1a        	lda	$1a                     ; 0x201a <loadGUISID+0x31>
    2e9e: 69 04        	adc	#$4
    2ea0: 85 14        	sta	$14                     ; 0x2014 <loadGUISID+0x2b>
    2ea2: a5 18        	lda	$18                     ; 0x2018 <loadGUISID+0x2f>
    2ea4: 69 d9        	adc	#$d9
    2ea6: a4 98        	ldy	$98                     ; 0x2098 <loadGUISID+0xaf>
    2ea8: 84 16        	sty	$16                     ; 0x2016 <loadGUISID+0x2d>
    2eaa: a4 99        	ldy	$99                     ; 0x2099 <loadGUISID+0xb0>
    2eac: 84 17        	sty	$17                     ; 0x2017 <loadGUISID+0x2e>
    2eae: e6 16        	inc	$16                     ; 0x2016 <loadGUISID+0x2d>
    2eb0: d0 02        	bne	$2eb4 <setRadioB+0x85>
    2eb2: e6 17        	inc	$17                     ; 0x2017 <loadGUISID+0x2e>
    2eb4: 85 15        	sta	$15                     ; 0x2015 <loadGUISID+0x2c>
    2eb6: a0 01        	ldy	#$1
    2eb8: b1 98        	lda	($98),y                 ; 0x2098 <loadGUISID+0xaf>
    2eba: 85 1b        	sta	$1b                     ; 0x201b <loadGUISID+0x32>
    2ebc: a0 03        	ldy	#$3
    2ebe: b1 98        	lda	($98),y                 ; 0x2098 <loadGUISID+0xaf>
    2ec0: 85 19        	sta	$19                     ; 0x2019 <loadGUISID+0x30>
    2ec2: a0 01        	ldy	#$1
    2ec4: b1 16        	lda	($16),y                 ; 0x2016 <loadGUISID+0x2d>
    2ec6: 85 17        	sta	$17                     ; 0x2017 <loadGUISID+0x2e>
    2ec8: b1 12        	lda	($12),y                 ; 0x2012 <loadGUISID+0x29>
    2eca: 85 16        	sta	$16                     ; 0x2016 <loadGUISID+0x2d>
    2ecc: a5 1b        	lda	$1b                     ; 0x201b <loadGUISID+0x32>
    2ece: 92 14        	sta	($14)                   ; 0x2014 <loadGUISID+0x2b>
    2ed0: a5 17        	lda	$17                     ; 0x2017 <loadGUISID+0x2e>
    2ed2: 91 14        	sta	($14),y                 ; 0x2014 <loadGUISID+0x2b>
    2ed4: 18           	clc
    2ed5: a5 1a        	lda	$1a                     ; 0x201a <loadGUISID+0x31>
    2ed7: 69 06        	adc	#$6
    2ed9: 85 12        	sta	$12                     ; 0x2012 <loadGUISID+0x29>
    2edb: a5 18        	lda	$18                     ; 0x2018 <loadGUISID+0x2f>
    2edd: 85 14        	sta	$14                     ; 0x2014 <loadGUISID+0x2b>
    2edf: a5 18        	lda	$18                     ; 0x2018 <loadGUISID+0x2f>
    2ee1: 69 d9        	adc	#$d9
    2ee3: 85 13        	sta	$13                     ; 0x2013 <loadGUISID+0x2a>
    2ee5: a5 19        	lda	$19                     ; 0x2019 <loadGUISID+0x30>
    2ee7: 92 12        	sta	($12)                   ; 0x2012 <loadGUISID+0x29>
    2ee9: a5 16        	lda	$16                     ; 0x2016 <loadGUISID+0x2d>
    2eeb: 91 12        	sta	($12),y                 ; 0x2012 <loadGUISID+0x29>
    2eed: a4 9b        	ldy	$9b                     ; 0x209b <loadGUISID+0xb2>
    2eef: f0 23        	beq	$2f14 <setRadioB+0xe5>
    2ef1: a0 06        	ldy	#$6
    2ef3: a9 01        	lda	#$1
    2ef5: 91 98        	sta	($98),y                 ; 0x2098 <loadGUISID+0xaf>
    2ef7: a6 98        	ldx	$98                     ; 0x2098 <loadGUISID+0xaf>
    2ef9: 86 12        	stx	$12                     ; 0x2012 <loadGUISID+0x29>
    2efb: a6 99        	ldx	$99                     ; 0x2099 <loadGUISID+0xb0>
    2efd: 86 13        	stx	$13                     ; 0x2013 <loadGUISID+0x2a>
    2eff: 20 5e 2d     	jsr	$2d5e <updateRadioB>
    2f02: b2 98        	lda	($98)                   ; 0x2098 <loadGUISID+0xaf>
    2f04: aa           	tax
    2f05: 0a           	asl
    2f06: 26 9a        	rol	$9a                     ; 0x209a <loadGUISID+0xb1>
    2f08: 0a           	asl
    2f09: 26 9a        	rol	$9a                     ; 0x209a <loadGUISID+0xb1>
    2f0b: 0a           	asl
    2f0c: 85 1a        	sta	$1a                     ; 0x201a <loadGUISID+0x31>
    2f0e: 26 9a        	rol	$9a                     ; 0x209a <loadGUISID+0xb1>
    2f10: a4 9a        	ldy	$9a                     ; 0x209a <loadGUISID+0xb1>
    2f12: 84 14        	sty	$14                     ; 0x2014 <loadGUISID+0x2b>
    2f14: 18           	clc
    2f15: a5 1a        	lda	$1a                     ; 0x201a <loadGUISID+0x31>
    2f17: 69 00        	adc	#$0
    2f19: 85 12        	sta	$12                     ; 0x2012 <loadGUISID+0x29>
    2f1b: a5 14        	lda	$14                     ; 0x2014 <loadGUISID+0x2b>
    2f1d: 69 d9        	adc	#$d9
    2f1f: 85 13        	sta	$13                     ; 0x2013 <loadGUISID+0x2a>
    2f21: a9 01        	lda	#$1
    2f23: 1d 4f 4a     	ora	$4a4f,x                 ; 0x4a4f <_spriteCtl>
    2f26: 92 12        	sta	($12)                   ; 0x2012 <loadGUISID+0x29>
    2f28: 60           	rts

00002f29 <updateDial>:
    2f29: a6 12        	ldx	$12                     ; 0x2012 <loadGUISID+0x29>
    2f2b: 86 98        	stx	$98                     ; 0x2098 <loadGUISID+0xaf>
    2f2d: a6 13        	ldx	$13                     ; 0x2013 <loadGUISID+0x2a>
    2f2f: 86 99        	stx	$99                     ; 0x2099 <loadGUISID+0xb0>
    2f31: a0 0d        	ldy	#$d
    2f33: b1 12        	lda	($12),y                 ; 0x2012 <loadGUISID+0x29>
    2f35: 85 9a        	sta	$9a                     ; 0x209a <loadGUISID+0xb1>
    2f37: a0 13        	ldy	#$13
    2f39: b1 12        	lda	($12),y                 ; 0x2012 <loadGUISID+0x29>
    2f3b: aa           	tax
    2f3c: c8           	iny
    2f3d: b1 12        	lda	($12),y                 ; 0x2012 <loadGUISID+0x29>
    2f3f: 85 15        	sta	$15                     ; 0x2015 <loadGUISID+0x2c>
    2f41: 86 13        	stx	$13                     ; 0x2013 <loadGUISID+0x2a>
    2f43: c5 13        	cmp	$13                     ; 0x2013 <loadGUISID+0x2a>
    2f45: a9 00        	lda	#$0
    2f47: b0 35        	bcs	$2f7e <updateDial+0x55>
    2f49: a0 15        	ldy	#$15
    2f4b: b1 98        	lda	($98),y                 ; 0x2098 <loadGUISID+0xaf>
    2f4d: a8           	tay
    2f4e: 85 13        	sta	$13                     ; 0x2013 <loadGUISID+0x2a>
    2f50: e4 13        	cpx	$13                     ; 0x2013 <loadGUISID+0x2a>
    2f52: a9 07        	lda	#$7
    2f54: b0 28        	bcs	$2f7e <updateDial+0x55>
    2f56: 38           	sec
    2f57: 98           	tya
    2f58: e5 15        	sbc	$15                     ; 0x2015 <loadGUISID+0x2c>
    2f5a: 85 12        	sta	$12                     ; 0x2012 <loadGUISID+0x29>
    2f5c: a9 00        	lda	#$0
    2f5e: e9 00        	sbc	#$0
    2f60: e6 12        	inc	$12                     ; 0x2012 <loadGUISID+0x29>
    2f62: d0 01        	bne	$2f65 <updateDial+0x3c>
    2f64: 1a           	inc
    2f65: 4a           	lsr
    2f66: 66 12        	ror	$12                     ; 0x2012 <loadGUISID+0x29>
    2f68: 4a           	lsr
    2f69: 66 12        	ror	$12                     ; 0x2012 <loadGUISID+0x29>
    2f6b: 4a           	lsr
    2f6c: 66 12        	ror	$12                     ; 0x2012 <loadGUISID+0x29>
    2f6e: 8a           	txa
    2f6f: 38           	sec
    2f70: e5 15        	sbc	$15                     ; 0x2015 <loadGUISID+0x2c>
    2f72: a8           	tay
    2f73: a9 00        	lda	#$0
    2f75: e9 00        	sbc	#$0
    2f77: 64 13        	stz	$13                     ; 0x2013 <loadGUISID+0x2a>
    2f79: aa           	tax
    2f7a: 98           	tya
    2f7b: 20 b0 45     	jsr	$45b0 <__udivhi3>
    2f7e: 18           	clc
    2f7f: 69 20        	adc	#$20
    2f81: 85 18        	sta	$18                     ; 0x2018 <loadGUISID+0x2f>
    2f83: a9 00        	lda	#$0
    2f85: 69 00        	adc	#$0
    2f87: 85 9c        	sta	$9c                     ; 0x209c <loadGUISID+0xb3>
    2f89: a9 00        	lda	#$0
    2f8b: 69 00        	adc	#$0
    2f8d: 85 9d        	sta	$9d                     ; 0x209d <loadGUISID+0xb4>
    2f8f: a9 00        	lda	#$0
    2f91: 69 00        	adc	#$0
    2f93: 85 9e        	sta	$9e                     ; 0x209e <loadGUISID+0xb5>
    2f95: 64 12        	stz	$12                     ; 0x2012 <loadGUISID+0x29>
    2f97: 64 13        	stz	$13                     ; 0x2013 <loadGUISID+0x2a>
    2f99: a4 9a        	ldy	$9a                     ; 0x209a <loadGUISID+0xb1>
    2f9b: a6 9a        	ldx	$9a                     ; 0x209a <loadGUISID+0xb1>
    2f9d: 86 9b        	stx	$9b                     ; 0x209b <loadGUISID+0xb2>
    2f9f: 84 14        	sty	$14                     ; 0x2014 <loadGUISID+0x2b>
    2fa1: 64 15        	stz	$15                     ; 0x2015 <loadGUISID+0x2c>
    2fa3: 64 16        	stz	$16                     ; 0x2016 <loadGUISID+0x2d>
    2fa5: 64 17        	stz	$17                     ; 0x2017 <loadGUISID+0x2e>
    2fa7: a2 00        	ldx	#$0
    2fa9: a5 18        	lda	$18                     ; 0x2018 <loadGUISID+0x2f>
    2fab: 85 9a        	sta	$9a                     ; 0x209a <loadGUISID+0xb1>
    2fad: 98           	tya
    2fae: 20 40 45     	jsr	$4540 <__mulsi3>
    2fb1: a4 9a        	ldy	$9a                     ; 0x209a <loadGUISID+0xb1>
    2fb3: 84 14        	sty	$14                     ; 0x2014 <loadGUISID+0x2b>
    2fb5: a4 9c        	ldy	$9c                     ; 0x209c <loadGUISID+0xb3>
    2fb7: 84 15        	sty	$15                     ; 0x2015 <loadGUISID+0x2c>
    2fb9: a4 9d        	ldy	$9d                     ; 0x209d <loadGUISID+0xb4>
    2fbb: 84 16        	sty	$16                     ; 0x2016 <loadGUISID+0x2d>
    2fbd: a4 9e        	ldy	$9e                     ; 0x209e <loadGUISID+0xb5>
    2fbf: 84 17        	sty	$17                     ; 0x2017 <loadGUISID+0x2e>
    2fc1: 20 40 45     	jsr	$4540 <__mulsi3>
    2fc4: 86 14        	stx	$14                     ; 0x2014 <loadGUISID+0x2b>
    2fc6: a6 13        	ldx	$13                     ; 0x2013 <loadGUISID+0x2a>
    2fc8: 18           	clc
    2fc9: 69 00        	adc	#$0
    2fcb: 85 16        	sta	$16                     ; 0x2016 <loadGUISID+0x2d>
    2fcd: a5 14        	lda	$14                     ; 0x2014 <loadGUISID+0x2b>
    2fcf: 69 00        	adc	#$0
    2fd1: 85 17        	sta	$17                     ; 0x2017 <loadGUISID+0x2e>
    2fd3: a5 12        	lda	$12                     ; 0x2012 <loadGUISID+0x29>
    2fd5: 69 01        	adc	#$1
    2fd7: 85 13        	sta	$13                     ; 0x2013 <loadGUISID+0x2a>
    2fd9: 8a           	txa
    2fda: 69 00        	adc	#$0
    2fdc: 85 12        	sta	$12                     ; 0x2012 <loadGUISID+0x29>
    2fde: a5 98        	lda	$98                     ; 0x2098 <loadGUISID+0xaf>
    2fe0: a6 98        	ldx	$98                     ; 0x2098 <loadGUISID+0xaf>
    2fe2: 86 9c        	stx	$9c                     ; 0x209c <loadGUISID+0xb3>
    2fe4: 18           	clc
    2fe5: 69 08        	adc	#$8
    2fe7: 85 14        	sta	$14                     ; 0x2014 <loadGUISID+0x2b>
    2fe9: a5 99        	lda	$99                     ; 0x2099 <loadGUISID+0xb0>
    2feb: 69 00        	adc	#$0
    2fed: a0 08        	ldy	#$8
    2fef: 85 15        	sta	$15                     ; 0x2015 <loadGUISID+0x2c>
    2ff1: a5 16        	lda	$16                     ; 0x2016 <loadGUISID+0x2d>
    2ff3: 91 98        	sta	($98),y                 ; 0x2098 <loadGUISID+0xaf>
    2ff5: a0 01        	ldy	#$1
    2ff7: a5 17        	lda	$17                     ; 0x2017 <loadGUISID+0x2e>
    2ff9: 91 14        	sta	($14),y                 ; 0x2014 <loadGUISID+0x2b>
    2ffb: a6 17        	ldx	$17                     ; 0x2017 <loadGUISID+0x2e>
    2ffd: c8           	iny
    2ffe: a5 13        	lda	$13                     ; 0x2013 <loadGUISID+0x2a>
    3000: 91 14        	sta	($14),y                 ; 0x2014 <loadGUISID+0x2b>
    3002: c8           	iny
    3003: a5 12        	lda	$12                     ; 0x2012 <loadGUISID+0x29>
    3005: 91 14        	sta	($14),y                 ; 0x2014 <loadGUISID+0x2b>
    3007: 85 14        	sta	$14                     ; 0x2014 <loadGUISID+0x2b>
    3009: b2 98        	lda	($98)                   ; 0x2098 <loadGUISID+0xaf>
    300b: 86 12        	stx	$12                     ; 0x2012 <loadGUISID+0x29>
    300d: a6 9b        	ldx	$9b                     ; 0x209b <loadGUISID+0xb2>
    300f: 86 15        	stx	$15                     ; 0x2015 <loadGUISID+0x2c>
    3011: a6 16        	ldx	$16                     ; 0x2016 <loadGUISID+0x2d>
    3013: 20 fa 2b     	jsr	$2bfa <spriteDefine>
    3016: 18           	clc
    3017: a5 9c        	lda	$9c                     ; 0x209c <loadGUISID+0xb3>
    3019: 69 03        	adc	#$3
    301b: 85 12        	sta	$12                     ; 0x2012 <loadGUISID+0x29>
    301d: a5 99        	lda	$99                     ; 0x2099 <loadGUISID+0xb0>
    301f: 69 00        	adc	#$0
    3021: 85 13        	sta	$13                     ; 0x2013 <loadGUISID+0x2a>
    3023: b2 98        	lda	($98)                   ; 0x2098 <loadGUISID+0xaf>
    3025: aa           	tax
    3026: 0a           	asl
    3027: 64 19        	stz	$19                     ; 0x2019 <loadGUISID+0x30>
    3029: 26 19        	rol	$19                     ; 0x2019 <loadGUISID+0x30>
    302b: 85 14        	sta	$14                     ; 0x2014 <loadGUISID+0x2b>
    302d: 06 14        	asl	$14                     ; 0x2014 <loadGUISID+0x2b>
    302f: 26 19        	rol	$19                     ; 0x2019 <loadGUISID+0x30>
    3031: 06 14        	asl	$14                     ; 0x2014 <loadGUISID+0x2b>
    3033: a4 14        	ldy	$14                     ; 0x2014 <loadGUISID+0x2b>
    3035: 84 18        	sty	$18                     ; 0x2018 <loadGUISID+0x2f>
    3037: 26 19        	rol	$19                     ; 0x2019 <loadGUISID+0x30>
    3039: a5 14        	lda	$14                     ; 0x2014 <loadGUISID+0x2b>
    303b: 18           	clc
    303c: 69 04        	adc	#$4
    303e: 85 14        	sta	$14                     ; 0x2014 <loadGUISID+0x2b>
    3040: a5 19        	lda	$19                     ; 0x2019 <loadGUISID+0x30>
    3042: 69 d9        	adc	#$d9
    3044: 85 15        	sta	$15                     ; 0x2015 <loadGUISID+0x2c>
    3046: a4 98        	ldy	$98                     ; 0x2098 <loadGUISID+0xaf>
    3048: 84 16        	sty	$16                     ; 0x2016 <loadGUISID+0x2d>
    304a: a4 99        	ldy	$99                     ; 0x2099 <loadGUISID+0xb0>
    304c: 84 17        	sty	$17                     ; 0x2017 <loadGUISID+0x2e>
    304e: e6 16        	inc	$16                     ; 0x2016 <loadGUISID+0x2d>
    3050: d0 02        	bne	$3054 <updateDial+0x12b>
    3052: e6 17        	inc	$17                     ; 0x2017 <loadGUISID+0x2e>
    3054: a0 03        	ldy	#$3
    3056: b1 98        	lda	($98),y                 ; 0x2098 <loadGUISID+0xaf>
    3058: 85 1a        	sta	$1a                     ; 0x201a <loadGUISID+0x31>
    305a: a0 01        	ldy	#$1
    305c: b1 98        	lda	($98),y                 ; 0x2098 <loadGUISID+0xaf>
    305e: 85 1b        	sta	$1b                     ; 0x201b <loadGUISID+0x32>
    3060: b1 16        	lda	($16),y                 ; 0x2016 <loadGUISID+0x2d>
    3062: 85 17        	sta	$17                     ; 0x2017 <loadGUISID+0x2e>
    3064: b1 12        	lda	($12),y                 ; 0x2012 <loadGUISID+0x29>
    3066: 85 16        	sta	$16                     ; 0x2016 <loadGUISID+0x2d>
    3068: a5 1b        	lda	$1b                     ; 0x201b <loadGUISID+0x32>
    306a: 92 14        	sta	($14)                   ; 0x2014 <loadGUISID+0x2b>
    306c: a5 17        	lda	$17                     ; 0x2017 <loadGUISID+0x2e>
    306e: 91 14        	sta	($14),y                 ; 0x2014 <loadGUISID+0x2b>
    3070: a5 18        	lda	$18                     ; 0x2018 <loadGUISID+0x2f>
    3072: 18           	clc
    3073: 69 06        	adc	#$6
    3075: 85 14        	sta	$14                     ; 0x2014 <loadGUISID+0x2b>
    3077: a5 19        	lda	$19                     ; 0x2019 <loadGUISID+0x30>
    3079: 69 d9        	adc	#$d9
    307b: 5a           	phy
    307c: a4 14        	ldy	$14                     ; 0x2014 <loadGUISID+0x2b>
    307e: 84 12        	sty	$12                     ; 0x2012 <loadGUISID+0x29>
    3080: 7a           	ply
    3081: 85 13        	sta	$13                     ; 0x2013 <loadGUISID+0x2a>
    3083: a5 1a        	lda	$1a                     ; 0x201a <loadGUISID+0x31>
    3085: 92 12        	sta	($12)                   ; 0x2012 <loadGUISID+0x29>
    3087: a5 16        	lda	$16                     ; 0x2016 <loadGUISID+0x2d>
    3089: 91 12        	sta	($12),y                 ; 0x2012 <loadGUISID+0x29>
    308b: 18           	clc
    308c: a5 18        	lda	$18                     ; 0x2018 <loadGUISID+0x2f>
    308e: 69 00        	adc	#$0
    3090: 85 12        	sta	$12                     ; 0x2012 <loadGUISID+0x29>
    3092: a5 19        	lda	$19                     ; 0x2019 <loadGUISID+0x30>
    3094: 69 d9        	adc	#$d9
    3096: 85 13        	sta	$13                     ; 0x2013 <loadGUISID+0x2a>
    3098: a9 01        	lda	#$1
    309a: 1d 4f 4a     	ora	$4a4f,x                 ; 0x4a4f <_spriteCtl>
    309d: 92 12        	sta	($12)                   ; 0x2012 <loadGUISID+0x29>
    309f: 60           	rts

000030a0 <updateSlider>:
    30a0: a6 12        	ldx	$12                     ; 0x2012 <loadGUISID+0x29>
    30a2: 86 98        	stx	$98                     ; 0x2098 <loadGUISID+0xaf>
    30a4: a6 13        	ldx	$13                     ; 0x2013 <loadGUISID+0x2a>
    30a6: 86 99        	stx	$99                     ; 0x2099 <loadGUISID+0xb0>
    30a8: a0 0d        	ldy	#$d
    30aa: b1 12        	lda	($12),y                 ; 0x2012 <loadGUISID+0x29>
    30ac: 85 9a        	sta	$9a                     ; 0x209a <loadGUISID+0xb1>
    30ae: a0 13        	ldy	#$13
    30b0: b1 12        	lda	($12),y                 ; 0x2012 <loadGUISID+0x29>
    30b2: aa           	tax
    30b3: c8           	iny
    30b4: b1 12        	lda	($12),y                 ; 0x2012 <loadGUISID+0x29>
    30b6: 85 15        	sta	$15                     ; 0x2015 <loadGUISID+0x2c>
    30b8: 86 13        	stx	$13                     ; 0x2013 <loadGUISID+0x2a>
    30ba: c5 13        	cmp	$13                     ; 0x2013 <loadGUISID+0x2a>
    30bc: a9 00        	lda	#$0
    30be: b0 35        	bcs	$30f5 <updateSlider+0x55>
    30c0: a0 15        	ldy	#$15
    30c2: b1 98        	lda	($98),y                 ; 0x2098 <loadGUISID+0xaf>
    30c4: a8           	tay
    30c5: 85 13        	sta	$13                     ; 0x2013 <loadGUISID+0x2a>
    30c7: e4 13        	cpx	$13                     ; 0x2013 <loadGUISID+0x2a>
    30c9: a9 07        	lda	#$7
    30cb: b0 28        	bcs	$30f5 <updateSlider+0x55>
    30cd: 38           	sec
    30ce: 98           	tya
    30cf: e5 15        	sbc	$15                     ; 0x2015 <loadGUISID+0x2c>
    30d1: 85 12        	sta	$12                     ; 0x2012 <loadGUISID+0x29>
    30d3: a9 00        	lda	#$0
    30d5: e9 00        	sbc	#$0
    30d7: e6 12        	inc	$12                     ; 0x2012 <loadGUISID+0x29>
    30d9: d0 01        	bne	$30dc <updateSlider+0x3c>
    30db: 1a           	inc
    30dc: 4a           	lsr
    30dd: 66 12        	ror	$12                     ; 0x2012 <loadGUISID+0x29>
    30df: 4a           	lsr
    30e0: 66 12        	ror	$12                     ; 0x2012 <loadGUISID+0x29>
    30e2: 4a           	lsr
    30e3: 66 12        	ror	$12                     ; 0x2012 <loadGUISID+0x29>
    30e5: 8a           	txa
    30e6: 38           	sec
    30e7: e5 15        	sbc	$15                     ; 0x2015 <loadGUISID+0x2c>
    30e9: a8           	tay
    30ea: a9 00        	lda	#$0
    30ec: e9 00        	sbc	#$0
    30ee: 64 13        	stz	$13                     ; 0x2013 <loadGUISID+0x2a>
    30f0: aa           	tax
    30f1: 98           	tya
    30f2: 20 b0 45     	jsr	$45b0 <__udivhi3>
    30f5: 85 9e        	sta	$9e                     ; 0x209e <loadGUISID+0xb5>
    30f7: a5 9a        	lda	$9a                     ; 0x209a <loadGUISID+0xb1>
    30f9: a6 9a        	ldx	$9a                     ; 0x209a <loadGUISID+0xb1>
    30fb: 86 9c        	stx	$9c                     ; 0x209c <loadGUISID+0xb3>
    30fd: 85 12        	sta	$12                     ; 0x2012 <loadGUISID+0x29>
    30ff: 64 13        	stz	$13                     ; 0x2013 <loadGUISID+0x2a>
    3101: a2 00        	ldx	#$0
    3103: 20 0e 45     	jsr	$450e <__mulhi3>
    3106: 85 15        	sta	$15                     ; 0x2015 <loadGUISID+0x2c>
    3108: 86 14        	stx	$14                     ; 0x2014 <loadGUISID+0x2b>
    310a: 85 12        	sta	$12                     ; 0x2012 <loadGUISID+0x29>
    310c: 06 12        	asl	$12                     ; 0x2012 <loadGUISID+0x29>
    310e: 86 13        	stx	$13                     ; 0x2013 <loadGUISID+0x2a>
    3110: 26 13        	rol	$13                     ; 0x2013 <loadGUISID+0x2a>
    3112: 06 12        	asl	$12                     ; 0x2012 <loadGUISID+0x29>
    3114: 26 13        	rol	$13                     ; 0x2013 <loadGUISID+0x2a>
    3116: 06 12        	asl	$12                     ; 0x2012 <loadGUISID+0x29>
    3118: 26 13        	rol	$13                     ; 0x2013 <loadGUISID+0x2a>
    311a: a5 12        	lda	$12                     ; 0x2012 <loadGUISID+0x29>
    311c: 0a           	asl
    311d: a6 13        	ldx	$13                     ; 0x2013 <loadGUISID+0x2a>
    311f: 86 16        	stx	$16                     ; 0x2016 <loadGUISID+0x2d>
    3121: 26 16        	rol	$16                     ; 0x2016 <loadGUISID+0x2d>
    3123: 0a           	asl
    3124: 26 16        	rol	$16                     ; 0x2016 <loadGUISID+0x2d>
    3126: 18           	clc
    3127: 65 12        	adc	$12                     ; 0x2012 <loadGUISID+0x29>
    3129: 85 9b        	sta	$9b                     ; 0x209b <loadGUISID+0xb2>
    312b: a5 16        	lda	$16                     ; 0x2016 <loadGUISID+0x2d>
    312d: 65 13        	adc	$13                     ; 0x2013 <loadGUISID+0x2a>
    312f: 85 9a        	sta	$9a                     ; 0x209a <loadGUISID+0xb1>
    3131: a6 9e        	ldx	$9e                     ; 0x209e <loadGUISID+0xb5>
    3133: 86 12        	stx	$12                     ; 0x2012 <loadGUISID+0x29>
    3135: 64 13        	stz	$13                     ; 0x2013 <loadGUISID+0x2a>
    3137: a6 14        	ldx	$14                     ; 0x2014 <loadGUISID+0x2b>
    3139: a5 15        	lda	$15                     ; 0x2015 <loadGUISID+0x2c>
    313b: 20 0e 45     	jsr	$450e <__mulhi3>
    313e: 85 12        	sta	$12                     ; 0x2012 <loadGUISID+0x29>
    3140: 86 13        	stx	$13                     ; 0x2013 <loadGUISID+0x2a>
    3142: 18           	clc
    3143: a5 9b        	lda	$9b                     ; 0x209b <loadGUISID+0xb2>
    3145: 65 12        	adc	$12                     ; 0x2012 <loadGUISID+0x29>
    3147: 85 16        	sta	$16                     ; 0x2016 <loadGUISID+0x2d>
    3149: a5 9a        	lda	$9a                     ; 0x209a <loadGUISID+0xb1>
    314b: 65 13        	adc	$13                     ; 0x2013 <loadGUISID+0x2a>
    314d: aa           	tax
    314e: a9 01        	lda	#$1
    3150: 69 00        	adc	#$0
    3152: 85 13        	sta	$13                     ; 0x2013 <loadGUISID+0x2a>
    3154: a9 00        	lda	#$0
    3156: 69 00        	adc	#$0
    3158: 85 14        	sta	$14                     ; 0x2014 <loadGUISID+0x2b>
    315a: a5 98        	lda	$98                     ; 0x2098 <loadGUISID+0xaf>
    315c: a4 98        	ldy	$98                     ; 0x2098 <loadGUISID+0xaf>
    315e: 84 9e        	sty	$9e                     ; 0x209e <loadGUISID+0xb5>
    3160: a4 99        	ldy	$99                     ; 0x2099 <loadGUISID+0xb0>
    3162: 84 a0        	sty	$a0                     ; 0x20a0 <loadGUISID+0xb7>
    3164: 18           	clc
    3165: 69 08        	adc	#$8
    3167: a8           	tay
    3168: a5 99        	lda	$99                     ; 0x2099 <loadGUISID+0xb0>
    316a: 69 00        	adc	#$0
    316c: 5a           	phy
    316d: a4 98        	ldy	$98                     ; 0x2098 <loadGUISID+0xaf>
    316f: 84 9a        	sty	$9a                     ; 0x209a <loadGUISID+0xb1>
    3171: a4 99        	ldy	$99                     ; 0x2099 <loadGUISID+0xb0>
    3173: 84 9b        	sty	$9b                     ; 0x209b <loadGUISID+0xb2>
    3175: 7a           	ply
    3176: 84 98        	sty	$98                     ; 0x2098 <loadGUISID+0xaf>
    3178: 85 99        	sta	$99                     ; 0x2099 <loadGUISID+0xb0>
    317a: a0 08        	ldy	#$8
    317c: a5 16        	lda	$16                     ; 0x2016 <loadGUISID+0x2d>
    317e: 91 9a        	sta	($9a),y                 ; 0x209a <loadGUISID+0xb1>
    3180: 8a           	txa
    3181: a0 01        	ldy	#$1
    3183: 91 98        	sta	($98),y                 ; 0x2098 <loadGUISID+0xaf>
    3185: 86 12        	stx	$12                     ; 0x2012 <loadGUISID+0x29>
    3187: c8           	iny
    3188: a5 13        	lda	$13                     ; 0x2013 <loadGUISID+0x2a>
    318a: 91 98        	sta	($98),y                 ; 0x2098 <loadGUISID+0xaf>
    318c: c8           	iny
    318d: a5 14        	lda	$14                     ; 0x2014 <loadGUISID+0x2b>
    318f: 91 98        	sta	($98),y                 ; 0x2098 <loadGUISID+0xaf>
    3191: b2 9a        	lda	($9a)                   ; 0x209a <loadGUISID+0xb1>
    3193: a6 9c        	ldx	$9c                     ; 0x209c <loadGUISID+0xb3>
    3195: 86 15        	stx	$15                     ; 0x2015 <loadGUISID+0x2c>
    3197: a6 16        	ldx	$16                     ; 0x2016 <loadGUISID+0x2d>
    3199: 20 fa 2b     	jsr	$2bfa <spriteDefine>
    319c: b2 9a        	lda	($9a)                   ; 0x209a <loadGUISID+0xb1>
    319e: 85 16        	sta	$16                     ; 0x2016 <loadGUISID+0x2d>
    31a0: 18           	clc
    31a1: a5 9e        	lda	$9e                     ; 0x209e <loadGUISID+0xb5>
    31a3: 69 03        	adc	#$3
    31a5: 85 12        	sta	$12                     ; 0x2012 <loadGUISID+0x29>
    31a7: a5 a0        	lda	$a0                     ; 0x20a0 <loadGUISID+0xb7>
    31a9: 69 00        	adc	#$0
    31ab: 85 13        	sta	$13                     ; 0x2013 <loadGUISID+0x2a>
    31ad: a6 12        	ldx	$12                     ; 0x2012 <loadGUISID+0x29>
    31af: 86 14        	stx	$14                     ; 0x2014 <loadGUISID+0x2b>
    31b1: 85 15        	sta	$15                     ; 0x2015 <loadGUISID+0x2c>
    31b3: a6 12        	ldx	$12                     ; 0x2012 <loadGUISID+0x29>
    31b5: 86 9e        	stx	$9e                     ; 0x209e <loadGUISID+0xb5>
    31b7: 85 9f        	sta	$9f                     ; 0x209f <loadGUISID+0xb6>
    31b9: a6 16        	ldx	$16                     ; 0x2016 <loadGUISID+0x2d>
    31bb: 86 12        	stx	$12                     ; 0x2012 <loadGUISID+0x29>
    31bd: 06 12        	asl	$12                     ; 0x2012 <loadGUISID+0x29>
    31bf: 64 1b        	stz	$1b                     ; 0x201b <loadGUISID+0x32>
    31c1: 26 1b        	rol	$1b                     ; 0x201b <loadGUISID+0x32>
    31c3: 06 12        	asl	$12                     ; 0x2012 <loadGUISID+0x29>
    31c5: 26 1b        	rol	$1b                     ; 0x201b <loadGUISID+0x32>
    31c7: 06 12        	asl	$12                     ; 0x2012 <loadGUISID+0x29>
    31c9: a4 12        	ldy	$12                     ; 0x2012 <loadGUISID+0x29>
    31cb: 84 1a        	sty	$1a                     ; 0x201a <loadGUISID+0x31>
    31cd: 26 1b        	rol	$1b                     ; 0x201b <loadGUISID+0x32>
    31cf: 18           	clc
    31d0: a5 12        	lda	$12                     ; 0x2012 <loadGUISID+0x29>
    31d2: 69 04        	adc	#$4
    31d4: 85 12        	sta	$12                     ; 0x2012 <loadGUISID+0x29>
    31d6: a5 1b        	lda	$1b                     ; 0x201b <loadGUISID+0x32>
    31d8: 69 d9        	adc	#$d9
    31da: a4 9a        	ldy	$9a                     ; 0x209a <loadGUISID+0xb1>
    31dc: 84 16        	sty	$16                     ; 0x2016 <loadGUISID+0x2d>
    31de: a4 9b        	ldy	$9b                     ; 0x209b <loadGUISID+0xb2>
    31e0: 84 17        	sty	$17                     ; 0x2017 <loadGUISID+0x2e>
    31e2: e6 16        	inc	$16                     ; 0x2016 <loadGUISID+0x2d>
    31e4: d0 02        	bne	$31e8 <updateSlider+0x148>
    31e6: e6 17        	inc	$17                     ; 0x2017 <loadGUISID+0x2e>
    31e8: a4 16        	ldy	$16                     ; 0x2016 <loadGUISID+0x2d>
    31ea: 84 18        	sty	$18                     ; 0x2018 <loadGUISID+0x2f>
    31ec: a4 17        	ldy	$17                     ; 0x2017 <loadGUISID+0x2e>
    31ee: 84 19        	sty	$19                     ; 0x2019 <loadGUISID+0x30>
    31f0: a4 18        	ldy	$18                     ; 0x2018 <loadGUISID+0x2f>
    31f2: 84 9c        	sty	$9c                     ; 0x209c <loadGUISID+0xb3>
    31f4: a4 19        	ldy	$19                     ; 0x2019 <loadGUISID+0x30>
    31f6: 84 9d        	sty	$9d                     ; 0x209d <loadGUISID+0xb4>
    31f8: 85 13        	sta	$13                     ; 0x2013 <loadGUISID+0x2a>
    31fa: a0 01        	ldy	#$1
    31fc: b1 9a        	lda	($9a),y                 ; 0x209a <loadGUISID+0xb1>
    31fe: 85 18        	sta	$18                     ; 0x2018 <loadGUISID+0x2f>
    3200: b1 16        	lda	($16),y                 ; 0x2016 <loadGUISID+0x2d>
    3202: 85 17        	sta	$17                     ; 0x2017 <loadGUISID+0x2e>
    3204: a0 03        	ldy	#$3
    3206: b1 9a        	lda	($9a),y                 ; 0x209a <loadGUISID+0xb1>
    3208: 85 16        	sta	$16                     ; 0x2016 <loadGUISID+0x2d>
    320a: a0 01        	ldy	#$1
    320c: b1 14        	lda	($14),y                 ; 0x2014 <loadGUISID+0x2b>
    320e: 85 14        	sta	$14                     ; 0x2014 <loadGUISID+0x2b>
    3210: a5 18        	lda	$18                     ; 0x2018 <loadGUISID+0x2f>
    3212: 92 12        	sta	($12)                   ; 0x2012 <loadGUISID+0x29>
    3214: a5 17        	lda	$17                     ; 0x2017 <loadGUISID+0x2e>
    3216: 91 12        	sta	($12),y                 ; 0x2012 <loadGUISID+0x29>
    3218: 18           	clc
    3219: a5 1a        	lda	$1a                     ; 0x201a <loadGUISID+0x31>
    321b: 69 06        	adc	#$6
    321d: 85 12        	sta	$12                     ; 0x2012 <loadGUISID+0x29>
    321f: a5 1b        	lda	$1b                     ; 0x201b <loadGUISID+0x32>
    3221: 69 d9        	adc	#$d9
    3223: 85 13        	sta	$13                     ; 0x2013 <loadGUISID+0x2a>
    3225: a5 16        	lda	$16                     ; 0x2016 <loadGUISID+0x2d>
    3227: 92 12        	sta	($12)                   ; 0x2012 <loadGUISID+0x29>
    3229: a5 14        	lda	$14                     ; 0x2014 <loadGUISID+0x2b>
    322b: 91 12        	sta	($12),y                 ; 0x2012 <loadGUISID+0x29>
    322d: a0 08        	ldy	#$8
    322f: b1 9a        	lda	($9a),y                 ; 0x209a <loadGUISID+0xb1>
    3231: 85 a4        	sta	$a4                     ; 0x20a4 <loadGUISID+0xbb>
    3233: a0 02        	ldy	#$2
    3235: b1 98        	lda	($98),y                 ; 0x2098 <loadGUISID+0xaf>
    3237: 85 a2        	sta	$a2                     ; 0x20a2 <loadGUISID+0xb9>
    3239: e8           	inx
    323a: 86 a1        	stx	$a1                     ; 0x20a1 <loadGUISID+0xb8>
    323c: 88           	dey
    323d: b1 98        	lda	($98),y                 ; 0x2098 <loadGUISID+0xaf>
    323f: 85 a3        	sta	$a3                     ; 0x20a3 <loadGUISID+0xba>
    3241: a0 0d        	ldy	#$d
    3243: b1 9a        	lda	($9a),y                 ; 0x209a <loadGUISID+0xb1>
    3245: 85 a0        	sta	$a0                     ; 0x20a0 <loadGUISID+0xb7>
    3247: a5 a0        	lda	$a0                     ; 0x20a0 <loadGUISID+0xb7>
    3249: 85 15        	sta	$15                     ; 0x2015 <loadGUISID+0x2c>
    324b: 06 15        	asl	$15                     ; 0x2015 <loadGUISID+0x2c>
    324d: 64 14        	stz	$14                     ; 0x2014 <loadGUISID+0x2b>
    324f: 26 14        	rol	$14                     ; 0x2014 <loadGUISID+0x2b>
    3251: 06 15        	asl	$15                     ; 0x2015 <loadGUISID+0x2c>
    3253: 26 14        	rol	$14                     ; 0x2014 <loadGUISID+0x2b>
    3255: 06 15        	asl	$15                     ; 0x2015 <loadGUISID+0x2c>
    3257: 26 14        	rol	$14                     ; 0x2014 <loadGUISID+0x2b>
    3259: a0 03        	ldy	#$3
    325b: b1 98        	lda	($98),y                 ; 0x2098 <loadGUISID+0xaf>
    325d: 85 98        	sta	$98                     ; 0x2098 <loadGUISID+0xaf>
    325f: a6 a0        	ldx	$a0                     ; 0x20a0 <loadGUISID+0xb7>
    3261: 86 12        	stx	$12                     ; 0x2012 <loadGUISID+0x29>
    3263: 64 13        	stz	$13                     ; 0x2013 <loadGUISID+0x2a>
    3265: a6 14        	ldx	$14                     ; 0x2014 <loadGUISID+0x2b>
    3267: a5 15        	lda	$15                     ; 0x2015 <loadGUISID+0x2c>
    3269: 20 0e 45     	jsr	$450e <__mulhi3>
    326c: 85 12        	sta	$12                     ; 0x2012 <loadGUISID+0x29>
    326e: 86 13        	stx	$13                     ; 0x2013 <loadGUISID+0x2a>
    3270: 18           	clc
    3271: a5 a4        	lda	$a4                     ; 0x20a4 <loadGUISID+0xbb>
    3273: 65 12        	adc	$12                     ; 0x2012 <loadGUISID+0x29>
    3275: aa           	tax
    3276: a4 a3        	ldy	$a3                     ; 0x20a3 <loadGUISID+0xba>
    3278: 98           	tya
    3279: 65 13        	adc	$13                     ; 0x2013 <loadGUISID+0x2a>
    327b: 85 14        	sta	$14                     ; 0x2014 <loadGUISID+0x2b>
    327d: a5 a2        	lda	$a2                     ; 0x20a2 <loadGUISID+0xb9>
    327f: 69 00        	adc	#$0
    3281: 85 13        	sta	$13                     ; 0x2013 <loadGUISID+0x2a>
    3283: a5 98        	lda	$98                     ; 0x2098 <loadGUISID+0xaf>
    3285: 69 00        	adc	#$0
    3287: a4 14        	ldy	$14                     ; 0x2014 <loadGUISID+0x2b>
    3289: 84 12        	sty	$12                     ; 0x2012 <loadGUISID+0x29>
    328b: 85 14        	sta	$14                     ; 0x2014 <loadGUISID+0x2b>
    328d: a4 a0        	ldy	$a0                     ; 0x20a0 <loadGUISID+0xb7>
    328f: 84 15        	sty	$15                     ; 0x2015 <loadGUISID+0x2c>
    3291: a5 a1        	lda	$a1                     ; 0x20a1 <loadGUISID+0xb8>
    3293: 20 fa 2b     	jsr	$2bfa <spriteDefine>
    3296: a0 0d        	ldy	#$d
    3298: b1 9a        	lda	($9a),y                 ; 0x209a <loadGUISID+0xb1>
    329a: 85 16        	sta	$16                     ; 0x2016 <loadGUISID+0x2d>
    329c: b2 9a        	lda	($9a)                   ; 0x209a <loadGUISID+0xb1>
    329e: 85 18        	sta	$18                     ; 0x2018 <loadGUISID+0x2f>
    32a0: a0 01        	ldy	#$1
    32a2: b1 9a        	lda	($9a),y                 ; 0x209a <loadGUISID+0xb1>
    32a4: 85 19        	sta	$19                     ; 0x2019 <loadGUISID+0x30>
    32a6: a6 9c        	ldx	$9c                     ; 0x209c <loadGUISID+0xb3>
    32a8: 86 12        	stx	$12                     ; 0x2012 <loadGUISID+0x29>
    32aa: a6 9d        	ldx	$9d                     ; 0x209d <loadGUISID+0xb4>
    32ac: 86 13        	stx	$13                     ; 0x2013 <loadGUISID+0x2a>
    32ae: b1 12        	lda	($12),y                 ; 0x2012 <loadGUISID+0x29>
    32b0: 85 1a        	sta	$1a                     ; 0x201a <loadGUISID+0x31>
    32b2: a6 9e        	ldx	$9e                     ; 0x209e <loadGUISID+0xb5>
    32b4: 86 12        	stx	$12                     ; 0x2012 <loadGUISID+0x29>
    32b6: a6 9f        	ldx	$9f                     ; 0x209f <loadGUISID+0xb6>
    32b8: 86 13        	stx	$13                     ; 0x2013 <loadGUISID+0x2a>
    32ba: b1 12        	lda	($12),y                 ; 0x2012 <loadGUISID+0x29>
    32bc: 85 12        	sta	$12                     ; 0x2012 <loadGUISID+0x29>
    32be: 18           	clc
    32bf: a0 03        	ldy	#$3
    32c1: a5 16        	lda	$16                     ; 0x2016 <loadGUISID+0x2d>
    32c3: 71 9a        	adc	($9a),y                 ; 0x209a <loadGUISID+0xb1>
    32c5: 85 16        	sta	$16                     ; 0x2016 <loadGUISID+0x2d>
    32c7: a5 12        	lda	$12                     ; 0x2012 <loadGUISID+0x29>
    32c9: 69 00        	adc	#$0
    32cb: 85 17        	sta	$17                     ; 0x2017 <loadGUISID+0x2e>
    32cd: a6 18        	ldx	$18                     ; 0x2018 <loadGUISID+0x2f>
    32cf: a5 18        	lda	$18                     ; 0x2018 <loadGUISID+0x2f>
    32d1: 1a           	inc
    32d2: 0a           	asl
    32d3: 64 1b        	stz	$1b                     ; 0x201b <loadGUISID+0x32>
    32d5: 26 1b        	rol	$1b                     ; 0x201b <loadGUISID+0x32>
    32d7: 0a           	asl
    32d8: 26 1b        	rol	$1b                     ; 0x201b <loadGUISID+0x32>
    32da: 0a           	asl
    32db: 26 1b        	rol	$1b                     ; 0x201b <loadGUISID+0x32>
    32dd: 85 1c        	sta	$1c                     ; 0x201c <loadGUISID+0x33>
    32df: 18           	clc
    32e0: 69 04        	adc	#$4
    32e2: 85 12        	sta	$12                     ; 0x2012 <loadGUISID+0x29>
    32e4: a5 1b        	lda	$1b                     ; 0x201b <loadGUISID+0x32>
    32e6: 69 d9        	adc	#$d9
    32e8: 85 13        	sta	$13                     ; 0x2013 <loadGUISID+0x2a>
    32ea: a5 19        	lda	$19                     ; 0x2019 <loadGUISID+0x30>
    32ec: 92 12        	sta	($12)                   ; 0x2012 <loadGUISID+0x29>
    32ee: a0 01        	ldy	#$1
    32f0: a5 1a        	lda	$1a                     ; 0x201a <loadGUISID+0x31>
    32f2: 91 12        	sta	($12),y                 ; 0x2012 <loadGUISID+0x29>
    32f4: 18           	clc
    32f5: a5 1c        	lda	$1c                     ; 0x201c <loadGUISID+0x33>
    32f7: 69 06        	adc	#$6
    32f9: 85 12        	sta	$12                     ; 0x2012 <loadGUISID+0x29>
    32fb: a5 1b        	lda	$1b                     ; 0x201b <loadGUISID+0x32>
    32fd: 69 d9        	adc	#$d9
    32ff: 85 13        	sta	$13                     ; 0x2013 <loadGUISID+0x2a>
    3301: a5 16        	lda	$16                     ; 0x2016 <loadGUISID+0x2d>
    3303: 92 12        	sta	($12)                   ; 0x2012 <loadGUISID+0x29>
    3305: a5 17        	lda	$17                     ; 0x2017 <loadGUISID+0x2e>
    3307: 91 12        	sta	($12),y                 ; 0x2012 <loadGUISID+0x29>
    3309: a5 18        	lda	$18                     ; 0x2018 <loadGUISID+0x2f>
    330b: 0a           	asl
    330c: 85 12        	sta	$12                     ; 0x2012 <loadGUISID+0x29>
    330e: a9 00        	lda	#$0
    3310: 2a           	rol
    3311: 06 12        	asl	$12                     ; 0x2012 <loadGUISID+0x29>
    3313: 2a           	rol
    3314: 06 12        	asl	$12                     ; 0x2012 <loadGUISID+0x29>
    3316: 2a           	rol
    3317: a8           	tay
    3318: 18           	clc
    3319: a5 12        	lda	$12                     ; 0x2012 <loadGUISID+0x29>
    331b: 69 00        	adc	#$0
    331d: 85 12        	sta	$12                     ; 0x2012 <loadGUISID+0x29>
    331f: 98           	tya
    3320: 69 d9        	adc	#$d9
    3322: 85 13        	sta	$13                     ; 0x2013 <loadGUISID+0x2a>
    3324: a9 01        	lda	#$1
    3326: 1d 4f 4a     	ora	$4a4f,x                 ; 0x4a4f <_spriteCtl>
    3329: 92 12        	sta	($12)                   ; 0x2012 <loadGUISID+0x29>
    332b: b2 9a        	lda	($9a)                   ; 0x209a <loadGUISID+0xb1>
    332d: 1a           	inc
    332e: aa           	tax
    332f: 85 12        	sta	$12                     ; 0x2012 <loadGUISID+0x29>
    3331: a9 01        	lda	#$1
    3333: 1d 4f 4a     	ora	$4a4f,x                 ; 0x4a4f <_spriteCtl>
    3336: 85 14        	sta	$14                     ; 0x2014 <loadGUISID+0x2b>
    3338: a5 12        	lda	$12                     ; 0x2012 <loadGUISID+0x29>
    333a: 0a           	asl
    333b: 64 12        	stz	$12                     ; 0x2012 <loadGUISID+0x29>
    333d: 26 12        	rol	$12                     ; 0x2012 <loadGUISID+0x29>
    333f: 0a           	asl
    3340: 26 12        	rol	$12                     ; 0x2012 <loadGUISID+0x29>
    3342: 0a           	asl
    3343: 26 12        	rol	$12                     ; 0x2012 <loadGUISID+0x29>
    3345: 18           	clc
    3346: 69 00        	adc	#$0
    3348: aa           	tax
    3349: a5 12        	lda	$12                     ; 0x2012 <loadGUISID+0x29>
    334b: 69 d9        	adc	#$d9
    334d: 86 12        	stx	$12                     ; 0x2012 <loadGUISID+0x29>
    334f: 85 13        	sta	$13                     ; 0x2013 <loadGUISID+0x2a>
    3351: a5 14        	lda	$14                     ; 0x2014 <loadGUISID+0x2b>
    3353: 92 12        	sta	($12)                   ; 0x2012 <loadGUISID+0x29>
    3355: 60           	rts

00003356 <sid_setInstrument>:
    3356: a8           	tay
    3357: a9 00        	lda	#$0
    3359: 85 8c        	sta	$8c                     ; 0x208c <loadGUISID+0xa3>
    335b: 98           	tya
    335c: f0 04        	beq	$3362 <sid_setInstrument+0xc>
    335e: a0 d5        	ldy	#$d5
    3360: 80 02        	bra	$3364 <sid_setInstrument+0xe>
    3362: a0 d4        	ldy	#$d4
    3364: 84 8d        	sty	$8d                     ; 0x208d <loadGUISID+0xa4>
    3366: e0 02        	cpx	#$2
    3368: f0 08        	beq	$3372 <sid_setInstrument+0x1c>
    336a: e0 01        	cpx	#$1
    336c: d0 08        	bne	$3376 <sid_setInstrument+0x20>
    336e: a2 07        	ldx	#$7
    3370: 80 02        	bra	$3374 <sid_setInstrument+0x1e>
    3372: a2 0e        	ldx	#$e
    3374: 86 8c        	stx	$8c                     ; 0x208c <loadGUISID+0xa3>
    3376: a0 01        	ldy	#$1
    3378: b1 12        	lda	($12),y                 ; 0x2012 <loadGUISID+0x29>
    337a: 85 17        	sta	$17                     ; 0x2017 <loadGUISID+0x2e>
    337c: a6 8c        	ldx	$8c                     ; 0x208c <loadGUISID+0xa3>
    337e: 86 16        	stx	$16                     ; 0x2016 <loadGUISID+0x2d>
    3380: 8a           	txa
    3381: 18           	clc
    3382: 69 02        	adc	#$2
    3384: 85 14        	sta	$14                     ; 0x2014 <loadGUISID+0x2b>
    3386: a6 8d        	ldx	$8d                     ; 0x208d <loadGUISID+0xa4>
    3388: 8a           	txa
    3389: 69 00        	adc	#$0
    338b: 85 15        	sta	$15                     ; 0x2015 <loadGUISID+0x2c>
    338d: a5 17        	lda	$17                     ; 0x2017 <loadGUISID+0x2e>
    338f: 92 14        	sta	($14)                   ; 0x2014 <loadGUISID+0x2b>
    3391: c8           	iny
    3392: b1 12        	lda	($12),y                 ; 0x2012 <loadGUISID+0x29>
    3394: 85 17        	sta	$17                     ; 0x2017 <loadGUISID+0x2e>
    3396: a5 16        	lda	$16                     ; 0x2016 <loadGUISID+0x2d>
    3398: 18           	clc
    3399: 69 03        	adc	#$3
    339b: 85 14        	sta	$14                     ; 0x2014 <loadGUISID+0x2b>
    339d: 8a           	txa
    339e: 69 00        	adc	#$0
    33a0: 85 15        	sta	$15                     ; 0x2015 <loadGUISID+0x2c>
    33a2: a5 17        	lda	$17                     ; 0x2017 <loadGUISID+0x2e>
    33a4: 92 14        	sta	($14)                   ; 0x2014 <loadGUISID+0x2b>
    33a6: c8           	iny
    33a7: b1 12        	lda	($12),y                 ; 0x2012 <loadGUISID+0x29>
    33a9: 85 17        	sta	$17                     ; 0x2017 <loadGUISID+0x2e>
    33ab: a5 16        	lda	$16                     ; 0x2016 <loadGUISID+0x2d>
    33ad: 18           	clc
    33ae: 69 05        	adc	#$5
    33b0: 85 14        	sta	$14                     ; 0x2014 <loadGUISID+0x2b>
    33b2: 8a           	txa
    33b3: 69 00        	adc	#$0
    33b5: 85 15        	sta	$15                     ; 0x2015 <loadGUISID+0x2c>
    33b7: a5 17        	lda	$17                     ; 0x2017 <loadGUISID+0x2e>
    33b9: 92 14        	sta	($14)                   ; 0x2014 <loadGUISID+0x2b>
    33bb: a5 16        	lda	$16                     ; 0x2016 <loadGUISID+0x2d>
    33bd: 18           	clc
    33be: 69 06        	adc	#$6
    33c0: 85 14        	sta	$14                     ; 0x2014 <loadGUISID+0x2b>
    33c2: 8a           	txa
    33c3: 69 00        	adc	#$0
    33c5: 18           	clc
    33c6: 85 15        	sta	$15                     ; 0x2015 <loadGUISID+0x2c>
    33c8: c8           	iny
    33c9: b1 12        	lda	($12),y                 ; 0x2012 <loadGUISID+0x29>
    33cb: 92 14        	sta	($14)                   ; 0x2014 <loadGUISID+0x2b>
    33cd: a5 16        	lda	$16                     ; 0x2016 <loadGUISID+0x2d>
    33cf: 69 04        	adc	#$4
    33d1: 85 14        	sta	$14                     ; 0x2014 <loadGUISID+0x2b>
    33d3: 8a           	txa
    33d4: 69 00        	adc	#$0
    33d6: 85 15        	sta	$15                     ; 0x2015 <loadGUISID+0x2c>
    33d8: c8           	iny
    33d9: b1 12        	lda	($12),y                 ; 0x2012 <loadGUISID+0x29>
    33db: 92 14        	sta	($14)                   ; 0x2014 <loadGUISID+0x2b>
    33dd: 60           	rts

000033de <exit>:
    33de: 20 27 03     	jsr	$327 <_fini>
    33e1: 80 fe        	bra	$33e1 <exit+0x3>

000033e3 <_ZN12_GLOBAL__N_13putEcP6Status>:
    33e3: 85 18        	sta	$18                     ; 0x2018 <loadGUISID+0x2f>
    33e5: a6 13        	ldx	$13                     ; 0x2013 <loadGUISID+0x2a>
    33e7: 18           	clc
    33e8: a5 12        	lda	$12                     ; 0x2012 <loadGUISID+0x29>
    33ea: 69 05        	adc	#$5
    33ec: a8           	tay
    33ed: a5 13        	lda	$13                     ; 0x2013 <loadGUISID+0x2a>
    33ef: 86 15        	stx	$15                     ; 0x2015 <loadGUISID+0x2c>
    33f1: 69 00        	adc	#$0
    33f3: 18           	clc
    33f4: 84 16        	sty	$16                     ; 0x2016 <loadGUISID+0x2d>
    33f6: a0 05        	ldy	#$5
    33f8: 85 17        	sta	$17                     ; 0x2017 <loadGUISID+0x2e>
    33fa: b1 12        	lda	($12),y                 ; 0x2012 <loadGUISID+0x29>
    33fc: aa           	tax
    33fd: a5 12        	lda	$12                     ; 0x2012 <loadGUISID+0x29>
    33ff: 69 03        	adc	#$3
    3401: 85 14        	sta	$14                     ; 0x2014 <loadGUISID+0x2b>
    3403: a5 15        	lda	$15                     ; 0x2015 <loadGUISID+0x2c>
    3405: 69 00        	adc	#$0
    3407: 85 15        	sta	$15                     ; 0x2015 <loadGUISID+0x2c>
    3409: a0 01        	ldy	#$1
    340b: b1 16        	lda	($16),y                 ; 0x2016 <loadGUISID+0x2d>
    340d: d1 14        	cmp	($14),y                 ; 0x2014 <loadGUISID+0x2b>
    340f: d0 11        	bne	$3422 <_ZN12_GLOBAL__N_13putEcP6Status+0x3f>
    3411: a0 03        	ldy	#$3
    3413: 85 17        	sta	$17                     ; 0x2017 <loadGUISID+0x2e>
    3415: b1 12        	lda	($12),y                 ; 0x2012 <loadGUISID+0x29>
    3417: 85 14        	sta	$14                     ; 0x2014 <loadGUISID+0x2b>
    3419: 86 16        	stx	$16                     ; 0x2016 <loadGUISID+0x2d>
    341b: e4 14        	cpx	$14                     ; 0x2014 <loadGUISID+0x2b>
    341d: 90 0e        	bcc	$342d <_ZN12_GLOBAL__N_13putEcP6Status+0x4a>
    341f: 4c 96 34     	jmp	$3496 <_ZN12_GLOBAL__N_13putEcP6Status+0xb3>
    3422: 86 16        	stx	$16                     ; 0x2016 <loadGUISID+0x2d>
    3424: d1 14        	cmp	($14),y                 ; 0x2014 <loadGUISID+0x2b>
    3426: 85 17        	sta	$17                     ; 0x2017 <loadGUISID+0x2e>
    3428: 90 03        	bcc	$342d <_ZN12_GLOBAL__N_13putEcP6Status+0x4a>
    342a: 4c 96 34     	jmp	$3496 <_ZN12_GLOBAL__N_13putEcP6Status+0xb3>
    342d: a5 12        	lda	$12                     ; 0x2012 <loadGUISID+0x29>
    342f: 18           	clc
    3430: 69 0f        	adc	#$f
    3432: 85 14        	sta	$14                     ; 0x2014 <loadGUISID+0x2b>
    3434: a5 13        	lda	$13                     ; 0x2013 <loadGUISID+0x2a>
    3436: 69 00        	adc	#$0
    3438: 85 15        	sta	$15                     ; 0x2015 <loadGUISID+0x2c>
    343a: a0 01        	ldy	#$1
    343c: b1 14        	lda	($14),y                 ; 0x2014 <loadGUISID+0x2b>
    343e: a2 00        	ldx	#$0
    3440: 86 14        	stx	$14                     ; 0x2014 <loadGUISID+0x2b>
    3442: a2 00        	ldx	#$0
    3444: 86 15        	stx	$15                     ; 0x2015 <loadGUISID+0x2c>
    3446: c5 15        	cmp	$15                     ; 0x2015 <loadGUISID+0x2c>
    3448: d0 2d        	bne	$3477 <_ZN12_GLOBAL__N_13putEcP6Status+0x94>
    344a: a0 0f        	ldy	#$f
    344c: b1 12        	lda	($12),y                 ; 0x2012 <loadGUISID+0x29>
    344e: c5 14        	cmp	$14                     ; 0x2014 <loadGUISID+0x2b>
    3450: d0 25        	bne	$3477 <_ZN12_GLOBAL__N_13putEcP6Status+0x94>
    3452: a5 12        	lda	$12                     ; 0x2012 <loadGUISID+0x29>
    3454: 18           	clc
    3455: 69 09        	adc	#$9
    3457: 85 14        	sta	$14                     ; 0x2014 <loadGUISID+0x2b>
    3459: a5 13        	lda	$13                     ; 0x2013 <loadGUISID+0x2a>
    345b: 69 00        	adc	#$0
    345d: a0 09        	ldy	#$9
    345f: 85 15        	sta	$15                     ; 0x2015 <loadGUISID+0x2c>
    3461: 18           	clc
    3462: a5 16        	lda	$16                     ; 0x2016 <loadGUISID+0x2d>
    3464: 71 12        	adc	($12),y                 ; 0x2012 <loadGUISID+0x29>
    3466: aa           	tax
    3467: a0 01        	ldy	#$1
    3469: a5 17        	lda	$17                     ; 0x2017 <loadGUISID+0x2e>
    346b: 71 14        	adc	($14),y                 ; 0x2014 <loadGUISID+0x2b>
    346d: 86 14        	stx	$14                     ; 0x2014 <loadGUISID+0x2b>
    346f: 85 15        	sta	$15                     ; 0x2015 <loadGUISID+0x2c>
    3471: a5 18        	lda	$18                     ; 0x2018 <loadGUISID+0x2f>
    3473: 92 14        	sta	($14)                   ; 0x2014 <loadGUISID+0x2b>
    3475: 80 1f        	bra	$3496 <_ZN12_GLOBAL__N_13putEcP6Status+0xb3>
    3477: a6 12        	ldx	$12                     ; 0x2012 <loadGUISID+0x29>
    3479: 86 ed        	stx	$ed                     ; 0x20ed <loadGUISID+0x104>
    347b: a6 13        	ldx	$13                     ; 0x2013 <loadGUISID+0x2a>
    347d: 86 ee        	stx	$ee                     ; 0x20ee <loadGUISID+0x105>
    347f: a5 18        	lda	$18                     ; 0x2018 <loadGUISID+0x2f>
    3481: 85 4c        	sta	$4c                     ; 0x204c <loadGUISID+0x63>
    3483: a2 4c        	ldx	#$4c
    3485: 86 12        	stx	$12                     ; 0x2012 <loadGUISID+0x29>
    3487: a2 00        	ldx	#$0
    3489: 86 13        	stx	$13                     ; 0x2013 <loadGUISID+0x2a>
    348b: 20 b8 29     	jsr	$29b8 <textPrint>
    348e: a6 ed        	ldx	$ed                     ; 0x20ed <loadGUISID+0x104>
    3490: 86 12        	stx	$12                     ; 0x2012 <loadGUISID+0x29>
    3492: a6 ee        	ldx	$ee                     ; 0x20ee <loadGUISID+0x105>
    3494: 86 13        	stx	$13                     ; 0x2013 <loadGUISID+0x2a>
    3496: a0 05        	ldy	#$5
    3498: a5 12        	lda	$12                     ; 0x2012 <loadGUISID+0x29>
    349a: 18           	clc
    349b: 69 05        	adc	#$5
    349d: 85 14        	sta	$14                     ; 0x2014 <loadGUISID+0x2b>
    349f: a5 13        	lda	$13                     ; 0x2013 <loadGUISID+0x2a>
    34a1: 69 00        	adc	#$0
    34a3: 85 15        	sta	$15                     ; 0x2015 <loadGUISID+0x2c>
    34a5: b1 12        	lda	($12),y                 ; 0x2012 <loadGUISID+0x29>
    34a7: aa           	tax
    34a8: a0 01        	ldy	#$1
    34aa: b1 14        	lda	($14),y                 ; 0x2014 <loadGUISID+0x2b>
    34ac: e8           	inx
    34ad: d0 01        	bne	$34b0 <_ZN12_GLOBAL__N_13putEcP6Status+0xcd>
    34af: 1a           	inc
    34b0: 85 16        	sta	$16                     ; 0x2016 <loadGUISID+0x2d>
    34b2: 8a           	txa
    34b3: a0 05        	ldy	#$5
    34b5: 91 12        	sta	($12),y                 ; 0x2012 <loadGUISID+0x29>
    34b7: a0 01        	ldy	#$1
    34b9: a5 16        	lda	$16                     ; 0x2016 <loadGUISID+0x2d>
    34bb: 91 14        	sta	($14),y                 ; 0x2014 <loadGUISID+0x2b>
    34bd: 60           	rts

000034be <_ZN12_GLOBAL__N_112print_stringEPKcP6Status>:
    34be: a6 12        	ldx	$12                     ; 0x2012 <loadGUISID+0x29>
    34c0: 86 e5        	stx	$e5                     ; 0x20e5 <loadGUISID+0xfc>
    34c2: a6 13        	ldx	$13                     ; 0x2013 <loadGUISID+0x2a>
    34c4: 86 e6        	stx	$e6                     ; 0x20e6 <loadGUISID+0xfd>
    34c6: a6 14        	ldx	$14                     ; 0x2014 <loadGUISID+0x2b>
    34c8: 86 e7        	stx	$e7                     ; 0x20e7 <loadGUISID+0xfe>
    34ca: a6 15        	ldx	$15                     ; 0x2015 <loadGUISID+0x2c>
    34cc: 86 e8        	stx	$e8                     ; 0x20e8 <loadGUISID+0xff>
    34ce: a5 e7        	lda	$e7                     ; 0x20e7 <loadGUISID+0xfe>
    34d0: 18           	clc
    34d1: 69 0d        	adc	#$d
    34d3: 85 12        	sta	$12                     ; 0x2012 <loadGUISID+0x29>
    34d5: a5 e8        	lda	$e8                     ; 0x20e8 <loadGUISID+0xff>
    34d7: 69 00        	adc	#$0
    34d9: 85 13        	sta	$13                     ; 0x2013 <loadGUISID+0x2a>
    34db: a0 01        	ldy	#$1
    34dd: b1 12        	lda	($12),y                 ; 0x2012 <loadGUISID+0x29>
    34df: 30 16        	bmi	$34f7 <_ZN12_GLOBAL__N_112print_stringEPKcP6Status+0x39>
    34e1: a0 0d        	ldy	#$d
    34e3: 85 12        	sta	$12                     ; 0x2012 <loadGUISID+0x29>
    34e5: b1 e7        	lda	($e7),y                 ; 0x20e7 <loadGUISID+0xfe>
    34e7: a6 12        	ldx	$12                     ; 0x2012 <loadGUISID+0x29>
    34e9: 86 ec        	stx	$ec                     ; 0x20ec <loadGUISID+0x103>
    34eb: d0 0f        	bne	$34fc <_ZN12_GLOBAL__N_112print_stringEPKcP6Status+0x3e>
    34ed: aa           	tax
    34ee: d0 0c        	bne	$34fc <_ZN12_GLOBAL__N_112print_stringEPKcP6Status+0x3e>
    34f0: 64 e9        	stz	$e9                     ; 0x20e9 <loadGUISID+0x100>
    34f2: a2 00        	ldx	#$0
    34f4: 4c c5 35     	jmp	$35c5 <_ZN12_GLOBAL__N_112print_stringEPKcP6Status+0x107>
    34f7: a9 ff        	lda	#$ff
    34f9: aa           	tax
    34fa: 86 ec        	stx	$ec                     ; 0x20ec <loadGUISID+0x103>
    34fc: 85 e9        	sta	$e9                     ; 0x20e9 <loadGUISID+0x100>
    34fe: 64 12        	stz	$12                     ; 0x2012 <loadGUISID+0x29>
    3500: a4 e5        	ldy	$e5                     ; 0x20e5 <loadGUISID+0xfc>
    3502: a6 e6        	ldx	$e6                     ; 0x20e6 <loadGUISID+0xfd>
    3504: 86 16        	stx	$16                     ; 0x2016 <loadGUISID+0x2d>
    3506: 64 13        	stz	$13                     ; 0x2013 <loadGUISID+0x2a>
    3508: 98           	tya
    3509: 18           	clc
    350a: 65 12        	adc	$12                     ; 0x2012 <loadGUISID+0x29>
    350c: 85 14        	sta	$14                     ; 0x2014 <loadGUISID+0x2b>
    350e: a5 e6        	lda	$e6                     ; 0x20e6 <loadGUISID+0xfd>
    3510: 65 13        	adc	$13                     ; 0x2013 <loadGUISID+0x2a>
    3512: 85 15        	sta	$15                     ; 0x2015 <loadGUISID+0x2c>
    3514: b2 14        	lda	($14)                   ; 0x2014 <loadGUISID+0x2b>
    3516: d0 03        	bne	$351b <_ZN12_GLOBAL__N_112print_stringEPKcP6Status+0x5d>
    3518: 4c bf 35     	jmp	$35bf <_ZN12_GLOBAL__N_112print_stringEPKcP6Status+0x101>
    351b: e6 12        	inc	$12                     ; 0x2012 <loadGUISID+0x29>
    351d: d0 02        	bne	$3521 <_ZN12_GLOBAL__N_112print_stringEPKcP6Status+0x63>
    351f: e6 13        	inc	$13                     ; 0x2013 <loadGUISID+0x2a>
    3521: a6 ec        	ldx	$ec                     ; 0x20ec <loadGUISID+0x103>
    3523: e4 13        	cpx	$13                     ; 0x2013 <loadGUISID+0x2a>
    3525: d0 e1        	bne	$3508 <_ZN12_GLOBAL__N_112print_stringEPKcP6Status+0x4a>
    3527: a6 e9        	ldx	$e9                     ; 0x20e9 <loadGUISID+0x100>
    3529: e4 12        	cpx	$12                     ; 0x2012 <loadGUISID+0x29>
    352b: d0 db        	bne	$3508 <_ZN12_GLOBAL__N_112print_stringEPKcP6Status+0x4a>
    352d: a0 01        	ldy	#$1
    352f: b1 e7        	lda	($e7),y                 ; 0x20e7 <loadGUISID+0xfe>
    3531: 29 01        	and	#$1
    3533: f0 03        	beq	$3538 <_ZN12_GLOBAL__N_112print_stringEPKcP6Status+0x7a>
    3535: 4c 90 35     	jmp	$3590 <_ZN12_GLOBAL__N_112print_stringEPKcP6Status+0xd2>
    3538: a5 e7        	lda	$e7                     ; 0x20e7 <loadGUISID+0xfe>
    353a: 18           	clc
    353b: 69 0b        	adc	#$b
    353d: 85 14        	sta	$14                     ; 0x2014 <loadGUISID+0x2b>
    353f: a5 e8        	lda	$e8                     ; 0x20e8 <loadGUISID+0xff>
    3541: 69 00        	adc	#$0
    3543: 85 15        	sta	$15                     ; 0x2015 <loadGUISID+0x2c>
    3545: a0 0b        	ldy	#$b
    3547: b1 e7        	lda	($e7),y                 ; 0x20e7 <loadGUISID+0xfe>
    3549: 85 13        	sta	$13                     ; 0x2013 <loadGUISID+0x2a>
    354b: a0 01        	ldy	#$1
    354d: b1 14        	lda	($14),y                 ; 0x2014 <loadGUISID+0x2b>
    354f: 85 12        	sta	$12                     ; 0x2012 <loadGUISID+0x29>
    3551: a6 ec        	ldx	$ec                     ; 0x20ec <loadGUISID+0x103>
    3553: e4 12        	cpx	$12                     ; 0x2012 <loadGUISID+0x29>
    3555: d0 08        	bne	$355f <_ZN12_GLOBAL__N_112print_stringEPKcP6Status+0xa1>
    3557: a6 e9        	ldx	$e9                     ; 0x20e9 <loadGUISID+0x100>
    3559: e4 13        	cpx	$13                     ; 0x2013 <loadGUISID+0x2a>
    355b: 90 06        	bcc	$3563 <_ZN12_GLOBAL__N_112print_stringEPKcP6Status+0xa5>
    355d: 80 31        	bra	$3590 <_ZN12_GLOBAL__N_112print_stringEPKcP6Status+0xd2>
    355f: e4 12        	cpx	$12                     ; 0x2012 <loadGUISID+0x29>
    3561: b0 2d        	bcs	$3590 <_ZN12_GLOBAL__N_112print_stringEPKcP6Status+0xd2>
    3563: 38           	sec
    3564: a5 e9        	lda	$e9                     ; 0x20e9 <loadGUISID+0x100>
    3566: e5 13        	sbc	$13                     ; 0x2013 <loadGUISID+0x2a>
    3568: a8           	tay
    3569: a5 ec        	lda	$ec                     ; 0x20ec <loadGUISID+0x103>
    356b: e5 12        	sbc	$12                     ; 0x2012 <loadGUISID+0x29>
    356d: 85 eb        	sta	$eb                     ; 0x20eb <loadGUISID+0x102>
    356f: a6 e7        	ldx	$e7                     ; 0x20e7 <loadGUISID+0xfe>
    3571: 86 12        	stx	$12                     ; 0x2012 <loadGUISID+0x29>
    3573: a6 e8        	ldx	$e8                     ; 0x20e8 <loadGUISID+0xff>
    3575: 86 13        	stx	$13                     ; 0x2013 <loadGUISID+0x2a>
    3577: 84 ea        	sty	$ea                     ; 0x20ea <loadGUISID+0x101>
    3579: a9 20        	lda	#$20
    357b: 20 e3 33     	jsr	$33e3 <_ZN12_GLOBAL__N_13putEcP6Status>
    357e: a6 eb        	ldx	$eb                     ; 0x20eb <loadGUISID+0x102>
    3580: e6 ea        	inc	$ea                     ; 0x20ea <loadGUISID+0x101>
    3582: d0 01        	bne	$3585 <_ZN12_GLOBAL__N_112print_stringEPKcP6Status+0xc7>
    3584: e8           	inx
    3585: 86 eb        	stx	$eb                     ; 0x20eb <loadGUISID+0x102>
    3587: a4 ea        	ldy	$ea                     ; 0x20ea <loadGUISID+0x101>
    3589: 8a           	txa
    358a: d0 e3        	bne	$356f <_ZN12_GLOBAL__N_112print_stringEPKcP6Status+0xb1>
    358c: a5 ea        	lda	$ea                     ; 0x20ea <loadGUISID+0x101>
    358e: d0 df        	bne	$356f <_ZN12_GLOBAL__N_112print_stringEPKcP6Status+0xb1>
    3590: a4 ec        	ldy	$ec                     ; 0x20ec <loadGUISID+0x103>
    3592: d0 04        	bne	$3598 <_ZN12_GLOBAL__N_112print_stringEPKcP6Status+0xda>
    3594: a5 e9        	lda	$e9                     ; 0x20e9 <loadGUISID+0x100>
    3596: f0 26        	beq	$35be <_ZN12_GLOBAL__N_112print_stringEPKcP6Status+0x100>
    3598: a2 ff        	ldx	#$ff
    359a: c6 e9        	dec	$e9                     ; 0x20e9 <loadGUISID+0x100>
    359c: e4 e9        	cpx	$e9                     ; 0x20e9 <loadGUISID+0x100>
    359e: d0 01        	bne	$35a1 <_ZN12_GLOBAL__N_112print_stringEPKcP6Status+0xe3>
    35a0: 88           	dey
    35a1: 84 ea        	sty	$ea                     ; 0x20ea <loadGUISID+0x101>
    35a3: b2 e5        	lda	($e5)                   ; 0x20e5 <loadGUISID+0xfc>
    35a5: e6 e5        	inc	$e5                     ; 0x20e5 <loadGUISID+0xfc>
    35a7: d0 02        	bne	$35ab <_ZN12_GLOBAL__N_112print_stringEPKcP6Status+0xed>
    35a9: e6 e6        	inc	$e6                     ; 0x20e6 <loadGUISID+0xfd>
    35ab: a6 e7        	ldx	$e7                     ; 0x20e7 <loadGUISID+0xfe>
    35ad: 86 12        	stx	$12                     ; 0x2012 <loadGUISID+0x29>
    35af: a6 e8        	ldx	$e8                     ; 0x20e8 <loadGUISID+0xff>
    35b1: 86 13        	stx	$13                     ; 0x2013 <loadGUISID+0x2a>
    35b3: 20 e3 33     	jsr	$33e3 <_ZN12_GLOBAL__N_13putEcP6Status>
    35b6: a4 ea        	ldy	$ea                     ; 0x20ea <loadGUISID+0x101>
    35b8: d0 de        	bne	$3598 <_ZN12_GLOBAL__N_112print_stringEPKcP6Status+0xda>
    35ba: a5 e9        	lda	$e9                     ; 0x20e9 <loadGUISID+0x100>
    35bc: d0 da        	bne	$3598 <_ZN12_GLOBAL__N_112print_stringEPKcP6Status+0xda>
    35be: 60           	rts
    35bf: a6 12        	ldx	$12                     ; 0x2012 <loadGUISID+0x29>
    35c1: 86 e9        	stx	$e9                     ; 0x20e9 <loadGUISID+0x100>
    35c3: a6 13        	ldx	$13                     ; 0x2013 <loadGUISID+0x2a>
    35c5: 86 ec        	stx	$ec                     ; 0x20ec <loadGUISID+0x103>
    35c7: 4c 2d 35     	jmp	$352d <_ZN12_GLOBAL__N_112print_stringEPKcP6Status+0x6f>

000035ca <printf>:
    35ca: 18           	clc
    35cb: a6 10        	ldx	$10                     ; 0x2010 <loadGUISID+0x27>
    35cd: a4 11        	ldy	$11                     ; 0x2011 <loadGUISID+0x28>
    35cf: 86 db        	stx	$db                     ; 0x20db <loadGUISID+0xf2>
    35d1: 84 dc        	sty	$dc                     ; 0x20dc <loadGUISID+0xf3>
    35d3: a6 db        	ldx	$db                     ; 0x20db <loadGUISID+0xf2>
    35d5: a4 dc        	ldy	$dc                     ; 0x20dc <loadGUISID+0xf3>
    35d7: 86 c6        	stx	$c6                     ; 0x20c6 <loadGUISID+0xdd>
    35d9: 84 c7        	sty	$c7                     ; 0x20c7 <loadGUISID+0xde>
    35db: a2 ff        	ldx	#$ff
    35dd: 86 cb        	stx	$cb                     ; 0x20cb <loadGUISID+0xe2>
    35df: 86 cc        	stx	$cc                     ; 0x20cc <loadGUISID+0xe3>
    35e1: 64 cd        	stz	$cd                     ; 0x20cd <loadGUISID+0xe4>
    35e3: 64 ce        	stz	$ce                     ; 0x20ce <loadGUISID+0xe5>
    35e5: e8           	inx
    35e6: 86 9a        	stx	$9a                     ; 0x209a <loadGUISID+0xb1>
    35e8: a2 00        	ldx	#$0
    35ea: 86 9b        	stx	$9b                     ; 0x209b <loadGUISID+0xb2>
    35ec: a6 9a        	ldx	$9a                     ; 0x209a <loadGUISID+0xb1>
    35ee: a4 9b        	ldy	$9b                     ; 0x209b <loadGUISID+0xb2>
    35f0: 86 d1        	stx	$d1                     ; 0x20d1 <loadGUISID+0xe8>
    35f2: 84 d2        	sty	$d2                     ; 0x20d2 <loadGUISID+0xe9>
    35f4: a2 02        	ldx	#$2
    35f6: 86 d7        	stx	$d7                     ; 0x20d7 <loadGUISID+0xee>
    35f8: 64 d8        	stz	$d8                     ; 0x20d8 <loadGUISID+0xef>
    35fa: a6 c6        	ldx	$c6                     ; 0x20c6 <loadGUISID+0xdd>
    35fc: a4 c7        	ldy	$c7                     ; 0x20c7 <loadGUISID+0xde>
    35fe: 86 d9        	stx	$d9                     ; 0x20d9 <loadGUISID+0xf0>
    3600: 84 da        	sty	$da                     ; 0x20da <loadGUISID+0xf1>
    3602: a2 bd        	ldx	#$bd
    3604: a0 00        	ldy	#$0
    3606: 86 12        	stx	$12                     ; 0x2012 <loadGUISID+0x29>
    3608: 84 13        	sty	$13                     ; 0x2013 <loadGUISID+0x2a>
    360a: a0 01        	ldy	#$1
    360c: a9 a4        	lda	#$a4
    360e: 18           	clc
    360f: 69 02        	adc	#$2
    3611: 85 e3        	sta	$e3                     ; 0x20e3 <loadGUISID+0xfa>
    3613: a9 00        	lda	#$0
    3615: 69 00        	adc	#$0
    3617: 85 e4        	sta	$e4                     ; 0x20e4 <loadGUISID+0xfb>
    3619: e6 12        	inc	$12                     ; 0x2012 <loadGUISID+0x29>
    361b: d0 02        	bne	$361f <printf+0x55>
    361d: e6 13        	inc	$13                     ; 0x2013 <loadGUISID+0x2a>
    361f: a6 12        	ldx	$12                     ; 0x2012 <loadGUISID+0x29>
    3621: 86 df        	stx	$df                     ; 0x20df <loadGUISID+0xf6>
    3623: a6 13        	ldx	$13                     ; 0x2013 <loadGUISID+0x2a>
    3625: 86 e0        	stx	$e0                     ; 0x20e0 <loadGUISID+0xf7>
    3627: a2 74        	ldx	#$74
    3629: 86 9e        	stx	$9e                     ; 0x209e <loadGUISID+0xb5>
    362b: a2 48        	ldx	#$48
    362d: 86 9f        	stx	$9f                     ; 0x209f <loadGUISID+0xb6>
    362f: a6 9e        	ldx	$9e                     ; 0x209e <loadGUISID+0xb5>
    3631: 86 9c        	stx	$9c                     ; 0x209c <loadGUISID+0xb3>
    3633: a6 9f        	ldx	$9f                     ; 0x209f <loadGUISID+0xb6>
    3635: 86 9d        	stx	$9d                     ; 0x209d <loadGUISID+0xb4>
    3637: b2 9e        	lda	($9e)                   ; 0x209e <loadGUISID+0xb5>
    3639: c9 25        	cmp	#$25
    363b: f0 2b        	beq	$3668 <printf+0x9e>
    363d: aa           	tax
    363e: d0 03        	bne	$3643 <printf+0x79>
    3640: 4c f8 41     	jmp	$41f8 <printf+0xc2e>
    3643: 85 4c        	sta	$4c                     ; 0x204c <loadGUISID+0x63>
    3645: a2 4c        	ldx	#$4c
    3647: 86 12        	stx	$12                     ; 0x2012 <loadGUISID+0x29>
    3649: a2 00        	ldx	#$0
    364b: 86 13        	stx	$13                     ; 0x2013 <loadGUISID+0x2a>
    364d: 20 b8 29     	jsr	$29b8 <textPrint>
    3650: a0 01        	ldy	#$1
    3652: e6 9c        	inc	$9c                     ; 0x209c <loadGUISID+0xb3>
    3654: d0 02        	bne	$3658 <printf+0x8e>
    3656: e6 9d        	inc	$9d                     ; 0x209d <loadGUISID+0xb4>
    3658: e6 cd        	inc	$cd                     ; 0x20cd <loadGUISID+0xe4>
    365a: d0 02        	bne	$365e <printf+0x94>
    365c: e6 ce        	inc	$ce                     ; 0x20ce <loadGUISID+0xe5>
    365e: a6 9c        	ldx	$9c                     ; 0x209c <loadGUISID+0xb3>
    3660: 86 9e        	stx	$9e                     ; 0x209e <loadGUISID+0xb5>
    3662: a6 9d        	ldx	$9d                     ; 0x209d <loadGUISID+0xb4>
    3664: 86 9f        	stx	$9f                     ; 0x209f <loadGUISID+0xb6>
    3666: 80 c7        	bra	$362f <printf+0x65>
    3668: a6 9e        	ldx	$9e                     ; 0x209e <loadGUISID+0xb5>
    366a: 86 12        	stx	$12                     ; 0x2012 <loadGUISID+0x29>
    366c: a6 9f        	ldx	$9f                     ; 0x209f <loadGUISID+0xb6>
    366e: 86 13        	stx	$13                     ; 0x2013 <loadGUISID+0x2a>
    3670: e6 12        	inc	$12                     ; 0x2012 <loadGUISID+0x29>
    3672: d0 02        	bne	$3676 <printf+0xac>
    3674: e6 13        	inc	$13                     ; 0x2013 <loadGUISID+0x2a>
    3676: b1 9c        	lda	($9c),y                 ; 0x209c <loadGUISID+0xb3>
    3678: c9 25        	cmp	#$25
    367a: d0 16        	bne	$3692 <printf+0xc8>
    367c: a4 cd        	ldy	$cd                     ; 0x20cd <loadGUISID+0xe4>
    367e: a5 ce        	lda	$ce                     ; 0x20ce <loadGUISID+0xe5>
    3680: c5 cc        	cmp	$cc                     ; 0x20cc <loadGUISID+0xe3>
    3682: f0 03        	beq	$3687 <printf+0xbd>
    3684: 4c 99 37     	jmp	$3799 <printf+0x1cf>
    3687: a6 cb        	ldx	$cb                     ; 0x20cb <loadGUISID+0xe2>
    3689: 86 12        	stx	$12                     ; 0x2012 <loadGUISID+0x29>
    368b: 84 13        	sty	$13                     ; 0x2013 <loadGUISID+0x2a>
    368d: c4 12        	cpy	$12                     ; 0x2012 <loadGUISID+0x29>
    368f: 4c 9d 37     	jmp	$379d <printf+0x1d3>
    3692: 64 c9        	stz	$c9                     ; 0x20c9 <loadGUISID+0xe0>
    3694: 64 ca        	stz	$ca                     ; 0x20ca <loadGUISID+0xe1>
    3696: 64 c8        	stz	$c8                     ; 0x20c8 <loadGUISID+0xdf>
    3698: 64 d3        	stz	$d3                     ; 0x20d3 <loadGUISID+0xea>
    369a: 64 d4        	stz	$d4                     ; 0x20d4 <loadGUISID+0xeb>
    369c: a2 ff        	ldx	#$ff
    369e: 86 d5        	stx	$d5                     ; 0x20d5 <loadGUISID+0xec>
    36a0: 86 d6        	stx	$d6                     ; 0x20d6 <loadGUISID+0xed>
    36a2: 64 99        	stz	$99                     ; 0x2099 <loadGUISID+0xb0>
    36a4: 80 33        	bra	$36d9 <printf+0x10f>
    36a6: a2 02        	ldx	#$2
    36a8: 80 15        	bra	$36bf <printf+0xf5>
    36aa: e0 20        	cpx	#$20
    36ac: f0 15        	beq	$36c3 <printf+0xf9>
    36ae: 86 15        	stx	$15                     ; 0x2015 <loadGUISID+0x2c>
    36b0: e0 23        	cpx	#$23
    36b2: f0 03        	beq	$36b7 <printf+0xed>
    36b4: 4c 36 37     	jmp	$3736 <printf+0x16c>
    36b7: a5 99        	lda	$99                     ; 0x2099 <loadGUISID+0xb0>
    36b9: a2 04        	ldx	#$4
    36bb: 80 02        	bra	$36bf <printf+0xf5>
    36bd: a2 10        	ldx	#$10
    36bf: 86 14        	stx	$14                     ; 0x2014 <loadGUISID+0x2b>
    36c1: 80 06        	bra	$36c9 <printf+0xff>
    36c3: a2 08        	ldx	#$8
    36c5: 86 14        	stx	$14                     ; 0x2014 <loadGUISID+0x2b>
    36c7: a5 99        	lda	$99                     ; 0x2099 <loadGUISID+0xb0>
    36c9: 05 14        	ora	$14                     ; 0x2014 <loadGUISID+0x2b>
    36cb: 85 99        	sta	$99                     ; 0x2099 <loadGUISID+0xb0>
    36cd: 85 c9        	sta	$c9                     ; 0x20c9 <loadGUISID+0xe0>
    36cf: a2 00        	ldx	#$0
    36d1: 86 ca        	stx	$ca                     ; 0x20ca <loadGUISID+0xe1>
    36d3: e6 12        	inc	$12                     ; 0x2012 <loadGUISID+0x29>
    36d5: d0 02        	bne	$36d9 <printf+0x10f>
    36d7: e6 13        	inc	$13                     ; 0x2013 <loadGUISID+0x2a>
    36d9: b2 12        	lda	($12)                   ; 0x2012 <loadGUISID+0x29>
    36db: aa           	tax
    36dc: 18           	clc
    36dd: 69 d6        	adc	#$d6
    36df: c9 07        	cmp	#$7
    36e1: b0 c7        	bcs	$36aa <printf+0xe0>
    36e3: 86 15        	stx	$15                     ; 0x2015 <loadGUISID+0x2c>
    36e5: 0a           	asl
    36e6: aa           	tax
    36e7: a0 01        	ldy	#$1
    36e9: 84 14        	sty	$14                     ; 0x2014 <loadGUISID+0x2b>
    36eb: a5 99        	lda	$99                     ; 0x2099 <loadGUISID+0xb0>
    36ed: 7c 66 47     	jmp	($4766,x)               ; 0x4766 <__set_v+0x1b>
    36f0: a5 d9        	lda	$d9                     ; 0x20d9 <loadGUISID+0xf0>
    36f2: a6 da        	ldx	$da                     ; 0x20da <loadGUISID+0xf1>
    36f4: 85 16        	sta	$16                     ; 0x2016 <loadGUISID+0x2d>
    36f6: 86 17        	stx	$17                     ; 0x2017 <loadGUISID+0x2e>
    36f8: 18           	clc
    36f9: 69 02        	adc	#$2
    36fb: a8           	tay
    36fc: 8a           	txa
    36fd: 69 00        	adc	#$0
    36ff: 84 d9        	sty	$d9                     ; 0x20d9 <loadGUISID+0xf0>
    3701: 85 da        	sta	$da                     ; 0x20da <loadGUISID+0xf1>
    3703: b2 16        	lda	($16)                   ; 0x2016 <loadGUISID+0x2d>
    3705: 85 15        	sta	$15                     ; 0x2015 <loadGUISID+0x2c>
    3707: a0 01        	ldy	#$1
    3709: b1 16        	lda	($16),y                 ; 0x2016 <loadGUISID+0x2d>
    370b: 85 14        	sta	$14                     ; 0x2014 <loadGUISID+0x2b>
    370d: 10 15        	bpl	$3724 <printf+0x15a>
    370f: a5 99        	lda	$99                     ; 0x2099 <loadGUISID+0xb0>
    3711: 09 01        	ora	#$1
    3713: 85 99        	sta	$99                     ; 0x2099 <loadGUISID+0xb0>
    3715: 85 c9        	sta	$c9                     ; 0x20c9 <loadGUISID+0xe0>
    3717: a2 00        	ldx	#$0
    3719: 86 ca        	stx	$ca                     ; 0x20ca <loadGUISID+0xe1>
    371b: 8a           	txa
    371c: 38           	sec
    371d: e5 15        	sbc	$15                     ; 0x2015 <loadGUISID+0x2c>
    371f: 85 15        	sta	$15                     ; 0x2015 <loadGUISID+0x2c>
    3721: 8a           	txa
    3722: e5 14        	sbc	$14                     ; 0x2014 <loadGUISID+0x2b>
    3724: a6 15        	ldx	$15                     ; 0x2015 <loadGUISID+0x2c>
    3726: 86 d3        	stx	$d3                     ; 0x20d3 <loadGUISID+0xea>
    3728: 85 d4        	sta	$d4                     ; 0x20d4 <loadGUISID+0xeb>
    372a: e6 12        	inc	$12                     ; 0x2012 <loadGUISID+0x29>
    372c: f0 03        	beq	$3731 <printf+0x167>
    372e: 4c f5 37     	jmp	$37f5 <printf+0x22b>
    3731: e6 13        	inc	$13                     ; 0x2013 <loadGUISID+0x2a>
    3733: 4c f5 37     	jmp	$37f5 <printf+0x22b>
    3736: a5 15        	lda	$15                     ; 0x2015 <loadGUISID+0x2c>
    3738: 18           	clc
    3739: 69 d0        	adc	#$d0
    373b: c9 0a        	cmp	#$a
    373d: 90 03        	bcc	$3742 <printf+0x178>
    373f: 4c e7 37     	jmp	$37e7 <printf+0x21d>
    3742: a6 15        	ldx	$15                     ; 0x2015 <loadGUISID+0x2c>
    3744: 86 14        	stx	$14                     ; 0x2014 <loadGUISID+0x2b>
    3746: 64 16        	stz	$16                     ; 0x2016 <loadGUISID+0x2d>
    3748: 64 15        	stz	$15                     ; 0x2015 <loadGUISID+0x2c>
    374a: 64 17        	stz	$17                     ; 0x2017 <loadGUISID+0x2e>
    374c: a0 01        	ldy	#$1
    374e: 06 16        	asl	$16                     ; 0x2016 <loadGUISID+0x2d>
    3750: 26 17        	rol	$17                     ; 0x2017 <loadGUISID+0x2e>
    3752: a5 16        	lda	$16                     ; 0x2016 <loadGUISID+0x2d>
    3754: 0a           	asl
    3755: aa           	tax
    3756: a5 17        	lda	$17                     ; 0x2017 <loadGUISID+0x2e>
    3758: 2a           	rol
    3759: 86 18        	stx	$18                     ; 0x2018 <loadGUISID+0x2f>
    375b: 06 18        	asl	$18                     ; 0x2018 <loadGUISID+0x2f>
    375d: 2a           	rol
    375e: aa           	tax
    375f: a5 18        	lda	$18                     ; 0x2018 <loadGUISID+0x2f>
    3761: 18           	clc
    3762: 65 16        	adc	$16                     ; 0x2016 <loadGUISID+0x2d>
    3764: 85 16        	sta	$16                     ; 0x2016 <loadGUISID+0x2d>
    3766: 8a           	txa
    3767: 65 17        	adc	$17                     ; 0x2017 <loadGUISID+0x2e>
    3769: 85 17        	sta	$17                     ; 0x2017 <loadGUISID+0x2e>
    376b: a5 16        	lda	$16                     ; 0x2016 <loadGUISID+0x2d>
    376d: 18           	clc
    376e: 65 14        	adc	$14                     ; 0x2014 <loadGUISID+0x2b>
    3770: 85 14        	sta	$14                     ; 0x2014 <loadGUISID+0x2b>
    3772: a5 17        	lda	$17                     ; 0x2017 <loadGUISID+0x2e>
    3774: 65 15        	adc	$15                     ; 0x2015 <loadGUISID+0x2c>
    3776: aa           	tax
    3777: 18           	clc
    3778: a5 14        	lda	$14                     ; 0x2014 <loadGUISID+0x2b>
    377a: 69 d0        	adc	#$d0
    377c: 85 16        	sta	$16                     ; 0x2016 <loadGUISID+0x2d>
    377e: 8a           	txa
    377f: 69 ff        	adc	#$ff
    3781: 85 17        	sta	$17                     ; 0x2017 <loadGUISID+0x2e>
    3783: b1 12        	lda	($12),y                 ; 0x2012 <loadGUISID+0x29>
    3785: 85 14        	sta	$14                     ; 0x2014 <loadGUISID+0x2b>
    3787: 18           	clc
    3788: 69 d0        	adc	#$d0
    378a: e6 12        	inc	$12                     ; 0x2012 <loadGUISID+0x29>
    378c: d0 02        	bne	$3790 <printf+0x1c6>
    378e: e6 13        	inc	$13                     ; 0x2013 <loadGUISID+0x2a>
    3790: c9 0a        	cmp	#$a
    3792: 64 15        	stz	$15                     ; 0x2015 <loadGUISID+0x2c>
    3794: 90 b8        	bcc	$374e <printf+0x184>
    3796: 4c ed 37     	jmp	$37ed <printf+0x223>
    3799: 84 13        	sty	$13                     ; 0x2013 <loadGUISID+0x2a>
    379b: c5 cc        	cmp	$cc                     ; 0x20cc <loadGUISID+0xe3>
    379d: a0 01        	ldy	#$1
    379f: b0 30        	bcs	$37d1 <printf+0x207>
    37a1: a6 d8        	ldx	$d8                     ; 0x20d8 <loadGUISID+0xef>
    37a3: e4 9b        	cpx	$9b                     ; 0x209b <loadGUISID+0xb2>
    37a5: d0 19        	bne	$37c0 <printf+0x1f6>
    37a7: a6 d7        	ldx	$d7                     ; 0x20d7 <loadGUISID+0xee>
    37a9: e4 9a        	cpx	$9a                     ; 0x209a <loadGUISID+0xb1>
    37ab: d0 13        	bne	$37c0 <printf+0x1f6>
    37ad: 18           	clc
    37ae: aa           	tax
    37af: a5 13        	lda	$13                     ; 0x2013 <loadGUISID+0x2a>
    37b1: 65 d1        	adc	$d1                     ; 0x20d1 <loadGUISID+0xe8>
    37b3: 85 12        	sta	$12                     ; 0x2012 <loadGUISID+0x29>
    37b5: 8a           	txa
    37b6: 65 d2        	adc	$d2                     ; 0x20d2 <loadGUISID+0xe9>
    37b8: 85 13        	sta	$13                     ; 0x2013 <loadGUISID+0x2a>
    37ba: a9 25        	lda	#$25
    37bc: 92 12        	sta	($12)                   ; 0x2012 <loadGUISID+0x29>
    37be: 80 11        	bra	$37d1 <printf+0x207>
    37c0: a2 25        	ldx	#$25
    37c2: 86 4c        	stx	$4c                     ; 0x204c <loadGUISID+0x63>
    37c4: a2 4c        	ldx	#$4c
    37c6: 86 12        	stx	$12                     ; 0x2012 <loadGUISID+0x29>
    37c8: a2 00        	ldx	#$0
    37ca: 86 13        	stx	$13                     ; 0x2013 <loadGUISID+0x2a>
    37cc: 20 b8 29     	jsr	$29b8 <textPrint>
    37cf: a0 01        	ldy	#$1
    37d1: e6 cd        	inc	$cd                     ; 0x20cd <loadGUISID+0xe4>
    37d3: d0 02        	bne	$37d7 <printf+0x20d>
    37d5: e6 ce        	inc	$ce                     ; 0x20ce <loadGUISID+0xe5>
    37d7: a5 9c        	lda	$9c                     ; 0x209c <loadGUISID+0xb3>
    37d9: 18           	clc
    37da: 69 02        	adc	#$2
    37dc: 85 9e        	sta	$9e                     ; 0x209e <loadGUISID+0xb5>
    37de: a5 9d        	lda	$9d                     ; 0x209d <loadGUISID+0xb4>
    37e0: 69 00        	adc	#$0
    37e2: 85 9f        	sta	$9f                     ; 0x209f <loadGUISID+0xb6>
    37e4: 4c 2f 36     	jmp	$362f <printf+0x65>
    37e7: 64 16        	stz	$16                     ; 0x2016 <loadGUISID+0x2d>
    37e9: 64 17        	stz	$17                     ; 0x2017 <loadGUISID+0x2e>
    37eb: a0 01        	ldy	#$1
    37ed: a6 16        	ldx	$16                     ; 0x2016 <loadGUISID+0x2d>
    37ef: 86 d3        	stx	$d3                     ; 0x20d3 <loadGUISID+0xea>
    37f1: a5 17        	lda	$17                     ; 0x2017 <loadGUISID+0x2e>
    37f3: 85 d4        	sta	$d4                     ; 0x20d4 <loadGUISID+0xeb>
    37f5: 86 a2        	stx	$a2                     ; 0x20a2 <loadGUISID+0xb9>
    37f7: 85 a0        	sta	$a0                     ; 0x20a0 <loadGUISID+0xb7>
    37f9: b2 12        	lda	($12)                   ; 0x2012 <loadGUISID+0x29>
    37fb: a2 ff        	ldx	#$ff
    37fd: c9 2e        	cmp	#$2e
    37ff: d0 39        	bne	$383a <printf+0x270>
    3801: b1 12        	lda	($12),y                 ; 0x2012 <loadGUISID+0x29>
    3803: c9 2a        	cmp	#$2a
    3805: d0 38        	bne	$383f <printf+0x275>
    3807: a5 d9        	lda	$d9                     ; 0x20d9 <loadGUISID+0xf0>
    3809: a6 da        	ldx	$da                     ; 0x20da <loadGUISID+0xf1>
    380b: 85 14        	sta	$14                     ; 0x2014 <loadGUISID+0x2b>
    380d: 86 15        	stx	$15                     ; 0x2015 <loadGUISID+0x2c>
    380f: 18           	clc
    3810: 69 02        	adc	#$2
    3812: 85 16        	sta	$16                     ; 0x2016 <loadGUISID+0x2d>
    3814: 8a           	txa
    3815: 69 00        	adc	#$0
    3817: a6 16        	ldx	$16                     ; 0x2016 <loadGUISID+0x2d>
    3819: 86 d9        	stx	$d9                     ; 0x20d9 <loadGUISID+0xf0>
    381b: 85 da        	sta	$da                     ; 0x20da <loadGUISID+0xf1>
    381d: a5 12        	lda	$12                     ; 0x2012 <loadGUISID+0x29>
    381f: 18           	clc
    3820: 69 02        	adc	#$2
    3822: 85 12        	sta	$12                     ; 0x2012 <loadGUISID+0x29>
    3824: a5 13        	lda	$13                     ; 0x2013 <loadGUISID+0x2a>
    3826: 69 00        	adc	#$0
    3828: 85 13        	sta	$13                     ; 0x2013 <loadGUISID+0x2a>
    382a: b2 14        	lda	($14)                   ; 0x2014 <loadGUISID+0x2b>
    382c: aa           	tax
    382d: b1 14        	lda	($14),y                 ; 0x2014 <loadGUISID+0x2b>
    382f: 86 18        	stx	$18                     ; 0x2018 <loadGUISID+0x2f>
    3831: 86 d5        	stx	$d5                     ; 0x20d5 <loadGUISID+0xec>
    3833: 85 19        	sta	$19                     ; 0x2019 <loadGUISID+0x30>
    3835: 85 d6        	sta	$d6                     ; 0x20d6 <loadGUISID+0xed>
    3837: 4c ea 38     	jmp	$38ea <printf+0x320>
    383a: 86 18        	stx	$18                     ; 0x2018 <loadGUISID+0x2f>
    383c: 4c fa 38     	jmp	$38fa <printf+0x330>
    383f: 85 17        	sta	$17                     ; 0x2017 <loadGUISID+0x2e>
    3841: 18           	clc
    3842: 69 d0        	adc	#$d0
    3844: c9 0a        	cmp	#$a
    3846: 90 03        	bcc	$384b <printf+0x281>
    3848: 4c dc 38     	jmp	$38dc <printf+0x312>
    384b: 64 16        	stz	$16                     ; 0x2016 <loadGUISID+0x2d>
    384d: a2 01        	ldx	#$1
    384f: 64 18        	stz	$18                     ; 0x2018 <loadGUISID+0x2f>
    3851: 64 19        	stz	$19                     ; 0x2019 <loadGUISID+0x30>
    3853: a0 01        	ldy	#$1
    3855: 64 1a        	stz	$1a                     ; 0x201a <loadGUISID+0x31>
    3857: 5a           	phy
    3858: a4 1a        	ldy	$1a                     ; 0x201a <loadGUISID+0x31>
    385a: 84 14        	sty	$14                     ; 0x2014 <loadGUISID+0x2b>
    385c: 86 15        	stx	$15                     ; 0x2015 <loadGUISID+0x2c>
    385e: 06 18        	asl	$18                     ; 0x2018 <loadGUISID+0x2f>
    3860: 26 19        	rol	$19                     ; 0x2019 <loadGUISID+0x30>
    3862: a5 18        	lda	$18                     ; 0x2018 <loadGUISID+0x2f>
    3864: 0a           	asl
    3865: 85 1d        	sta	$1d                     ; 0x201d <loadGUISID+0x34>
    3867: a5 19        	lda	$19                     ; 0x2019 <loadGUISID+0x30>
    3869: 2a           	rol
    386a: 06 1d        	asl	$1d                     ; 0x201d <loadGUISID+0x34>
    386c: 2a           	rol
    386d: 85 1e        	sta	$1e                     ; 0x201e <loadGUISID+0x35>
    386f: a5 1d        	lda	$1d                     ; 0x201d <loadGUISID+0x34>
    3871: 18           	clc
    3872: 65 18        	adc	$18                     ; 0x2018 <loadGUISID+0x2f>
    3874: 85 18        	sta	$18                     ; 0x2018 <loadGUISID+0x2f>
    3876: a5 1e        	lda	$1e                     ; 0x201e <loadGUISID+0x35>
    3878: 65 19        	adc	$19                     ; 0x2019 <loadGUISID+0x30>
    387a: 85 19        	sta	$19                     ; 0x2019 <loadGUISID+0x30>
    387c: a5 18        	lda	$18                     ; 0x2018 <loadGUISID+0x2f>
    387e: 18           	clc
    387f: 65 17        	adc	$17                     ; 0x2017 <loadGUISID+0x2e>
    3881: 85 17        	sta	$17                     ; 0x2017 <loadGUISID+0x2e>
    3883: a5 19        	lda	$19                     ; 0x2019 <loadGUISID+0x30>
    3885: 65 16        	adc	$16                     ; 0x2016 <loadGUISID+0x2d>
    3887: 85 16        	sta	$16                     ; 0x2016 <loadGUISID+0x2d>
    3889: 18           	clc
    388a: a5 17        	lda	$17                     ; 0x2017 <loadGUISID+0x2e>
    388c: 69 d0        	adc	#$d0
    388e: 85 18        	sta	$18                     ; 0x2018 <loadGUISID+0x2f>
    3890: a5 16        	lda	$16                     ; 0x2016 <loadGUISID+0x2d>
    3892: 69 ff        	adc	#$ff
    3894: 85 19        	sta	$19                     ; 0x2019 <loadGUISID+0x30>
    3896: e8           	inx
    3897: d0 02        	bne	$389b <printf+0x2d1>
    3899: e6 1a        	inc	$1a                     ; 0x201a <loadGUISID+0x31>
    389b: a5 12        	lda	$12                     ; 0x2012 <loadGUISID+0x29>
    389d: 18           	clc
    389e: 65 15        	adc	$15                     ; 0x2015 <loadGUISID+0x2c>
    38a0: 85 1d        	sta	$1d                     ; 0x201d <loadGUISID+0x34>
    38a2: a5 13        	lda	$13                     ; 0x2013 <loadGUISID+0x2a>
    38a4: 65 14        	adc	$14                     ; 0x2014 <loadGUISID+0x2b>
    38a6: a4 1d        	ldy	$1d                     ; 0x201d <loadGUISID+0x34>
    38a8: 84 16        	sty	$16                     ; 0x2016 <loadGUISID+0x2d>
    38aa: 7a           	ply
    38ab: 85 17        	sta	$17                     ; 0x2017 <loadGUISID+0x2e>
    38ad: b1 16        	lda	($16),y                 ; 0x2016 <loadGUISID+0x2d>
    38af: 85 17        	sta	$17                     ; 0x2017 <loadGUISID+0x2e>
    38b1: 18           	clc
    38b2: 69 d0        	adc	#$d0
    38b4: c9 0a        	cmp	#$a
    38b6: 64 16        	stz	$16                     ; 0x2016 <loadGUISID+0x2d>
    38b8: b0 03        	bcs	$38bd <printf+0x2f3>
    38ba: 4c 57 38     	jmp	$3857 <printf+0x28d>
    38bd: a5 12        	lda	$12                     ; 0x2012 <loadGUISID+0x29>
    38bf: 18           	clc
    38c0: 65 15        	adc	$15                     ; 0x2015 <loadGUISID+0x2c>
    38c2: 85 12        	sta	$12                     ; 0x2012 <loadGUISID+0x29>
    38c4: a5 13        	lda	$13                     ; 0x2013 <loadGUISID+0x2a>
    38c6: 65 14        	adc	$14                     ; 0x2014 <loadGUISID+0x2b>
    38c8: 85 13        	sta	$13                     ; 0x2013 <loadGUISID+0x2a>
    38ca: e6 12        	inc	$12                     ; 0x2012 <loadGUISID+0x29>
    38cc: d0 02        	bne	$38d0 <printf+0x306>
    38ce: e6 13        	inc	$13                     ; 0x2013 <loadGUISID+0x2a>
    38d0: a6 18        	ldx	$18                     ; 0x2018 <loadGUISID+0x2f>
    38d2: 86 d5        	stx	$d5                     ; 0x20d5 <loadGUISID+0xec>
    38d4: a6 19        	ldx	$19                     ; 0x2019 <loadGUISID+0x30>
    38d6: 86 d6        	stx	$d6                     ; 0x20d6 <loadGUISID+0xed>
    38d8: a0 01        	ldy	#$1
    38da: 80 0e        	bra	$38ea <printf+0x320>
    38dc: e6 12        	inc	$12                     ; 0x2012 <loadGUISID+0x29>
    38de: d0 02        	bne	$38e2 <printf+0x318>
    38e0: e6 13        	inc	$13                     ; 0x2013 <loadGUISID+0x2a>
    38e2: 64 18        	stz	$18                     ; 0x2018 <loadGUISID+0x2f>
    38e4: 64 d5        	stz	$d5                     ; 0x20d5 <loadGUISID+0xec>
    38e6: 64 d6        	stz	$d6                     ; 0x20d6 <loadGUISID+0xed>
    38e8: 64 19        	stz	$19                     ; 0x2019 <loadGUISID+0x30>
    38ea: a5 99        	lda	$99                     ; 0x2099 <loadGUISID+0xb0>
    38ec: 29 ef        	and	#$ef
    38ee: 85 99        	sta	$99                     ; 0x2099 <loadGUISID+0xb0>
    38f0: 85 c9        	sta	$c9                     ; 0x20c9 <loadGUISID+0xe0>
    38f2: a2 00        	ldx	#$0
    38f4: 86 ca        	stx	$ca                     ; 0x20ca <loadGUISID+0xe1>
    38f6: b2 12        	lda	($12)                   ; 0x2012 <loadGUISID+0x29>
    38f8: a6 19        	ldx	$19                     ; 0x2019 <loadGUISID+0x30>
    38fa: 86 15        	stx	$15                     ; 0x2015 <loadGUISID+0x2c>
    38fc: a6 12        	ldx	$12                     ; 0x2012 <loadGUISID+0x29>
    38fe: 86 9e        	stx	$9e                     ; 0x209e <loadGUISID+0xb5>
    3900: a6 13        	ldx	$13                     ; 0x2013 <loadGUISID+0x2a>
    3902: 86 9f        	stx	$9f                     ; 0x209f <loadGUISID+0xb6>
    3904: e6 9e        	inc	$9e                     ; 0x209e <loadGUISID+0xb5>
    3906: d0 02        	bne	$390a <printf+0x340>
    3908: e6 9f        	inc	$9f                     ; 0x209f <loadGUISID+0xb6>
    390a: 85 14        	sta	$14                     ; 0x2014 <loadGUISID+0x2b>
    390c: 38           	sec
    390d: e9 6c        	sbc	#$6c
    390f: 50 02        	bvc	$3913 <printf+0x349>
    3911: 49 80        	eor	#$80
    3913: aa           	tax
    3914: 10 1d        	bpl	$3933 <printf+0x369>
    3916: a5 14        	lda	$14                     ; 0x2014 <loadGUISID+0x2b>
    3918: c9 4c        	cmp	#$4c
    391a: f0 27        	beq	$3943 <printf+0x379>
    391c: c9 68        	cmp	#$68
    391e: d0 03        	bne	$3923 <printf+0x359>
    3920: 4c aa 39     	jmp	$39aa <printf+0x3e0>
    3923: a2 08        	ldx	#$8
    3925: c9 6a        	cmp	#$6a
    3927: d0 2e        	bne	$3957 <printf+0x38d>
    3929: a5 9e        	lda	$9e                     ; 0x209e <loadGUISID+0xb5>
    392b: 85 12        	sta	$12                     ; 0x2012 <loadGUISID+0x29>
    392d: a5 9f        	lda	$9f                     ; 0x209f <loadGUISID+0xb6>
    392f: 85 13        	sta	$13                     ; 0x2013 <loadGUISID+0x2a>
    3931: 80 43        	bra	$3976 <printf+0x3ac>
    3933: a6 14        	ldx	$14                     ; 0x2014 <loadGUISID+0x2b>
    3935: e0 6c        	cpx	#$6c
    3937: f0 23        	beq	$395c <printf+0x392>
    3939: e0 74        	cpx	#$74
    393b: f0 12        	beq	$394f <printf+0x385>
    393d: e0 7a        	cpx	#$7a
    393f: f0 0e        	beq	$394f <printf+0x385>
    3941: 80 14        	bra	$3957 <printf+0x38d>
    3943: a5 99        	lda	$99                     ; 0x2099 <loadGUISID+0xb0>
    3945: 09 40        	ora	#$40
    3947: 85 99        	sta	$99                     ; 0x2099 <loadGUISID+0xb0>
    3949: 85 c9        	sta	$c9                     ; 0x20c9 <loadGUISID+0xe0>
    394b: a2 00        	ldx	#$0
    394d: 86 ca        	stx	$ca                     ; 0x20ca <loadGUISID+0xe1>
    394f: a6 9e        	ldx	$9e                     ; 0x209e <loadGUISID+0xb5>
    3951: 86 12        	stx	$12                     ; 0x2012 <loadGUISID+0x29>
    3953: a6 9f        	ldx	$9f                     ; 0x209f <loadGUISID+0xb6>
    3955: 86 13        	stx	$13                     ; 0x2013 <loadGUISID+0x2a>
    3957: a2 02        	ldx	#$2
    3959: 8a           	txa
    395a: 80 1c        	bra	$3978 <printf+0x3ae>
    395c: b1 12        	lda	($12),y                 ; 0x2012 <loadGUISID+0x29>
    395e: a2 04        	ldx	#$4
    3960: c9 6c        	cmp	#$6c
    3962: f0 03        	beq	$3967 <printf+0x39d>
    3964: 4c b9 3c     	jmp	$3cb9 <printf+0x6ef>
    3967: a5 12        	lda	$12                     ; 0x2012 <loadGUISID+0x29>
    3969: 18           	clc
    396a: 69 02        	adc	#$2
    396c: 85 12        	sta	$12                     ; 0x2012 <loadGUISID+0x29>
    396e: a5 13        	lda	$13                     ; 0x2013 <loadGUISID+0x2a>
    3970: 69 00        	adc	#$0
    3972: 85 13        	sta	$13                     ; 0x2013 <loadGUISID+0x2a>
    3974: a2 08        	ldx	#$8
    3976: a9 08        	lda	#$8
    3978: 85 de        	sta	$de                     ; 0x20de <loadGUISID+0xf5>
    397a: b2 12        	lda	($12)                   ; 0x2012 <loadGUISID+0x29>
    397c: 5a           	phy
    397d: a4 12        	ldy	$12                     ; 0x2012 <loadGUISID+0x29>
    397f: 84 9e        	sty	$9e                     ; 0x209e <loadGUISID+0xb5>
    3981: a4 13        	ldy	$13                     ; 0x2013 <loadGUISID+0x2a>
    3983: 84 9f        	sty	$9f                     ; 0x209f <loadGUISID+0xb6>
    3985: 7a           	ply
    3986: 86 9a        	stx	$9a                     ; 0x209a <loadGUISID+0xb1>
    3988: aa           	tax
    3989: 18           	clc
    398a: 69 9d        	adc	#$9d
    398c: c9 16        	cmp	#$16
    398e: b0 39        	bcs	$39c9 <printf+0x3ff>
    3990: 0a           	asl
    3991: aa           	tax
    3992: 7c 74 47     	jmp	($4774,x)               ; 0x4774 <__set_v+0x29>
    3995: a6 15        	ldx	$15                     ; 0x2015 <loadGUISID+0x2c>
    3997: 86 e1        	stx	$e1                     ; 0x20e1 <loadGUISID+0xf8>
    3999: a6 18        	ldx	$18                     ; 0x2018 <loadGUISID+0x2f>
    399b: 86 e2        	stx	$e2                     ; 0x20e2 <loadGUISID+0xf9>
    399d: a0 0a        	ldy	#$a
    399f: a2 0a        	ldx	#$a
    39a1: 86 dd        	stx	$dd                     ; 0x20dd <loadGUISID+0xf4>
    39a3: 84 c8        	sty	$c8                     ; 0x20c8 <loadGUISID+0xdf>
    39a5: 64 a3        	stz	$a3                     ; 0x20a3 <loadGUISID+0xba>
    39a7: 4c c9 3a     	jmp	$3ac9 <printf+0x4ff>
    39aa: b1 12        	lda	($12),y                 ; 0x2012 <loadGUISID+0x29>
    39ac: a2 02        	ldx	#$2
    39ae: c9 68        	cmp	#$68
    39b0: f0 03        	beq	$39b5 <printf+0x3eb>
    39b2: 4c bf 3c     	jmp	$3cbf <printf+0x6f5>
    39b5: a5 12        	lda	$12                     ; 0x2012 <loadGUISID+0x29>
    39b7: 18           	clc
    39b8: 69 02        	adc	#$2
    39ba: 85 12        	sta	$12                     ; 0x2012 <loadGUISID+0x29>
    39bc: a5 13        	lda	$13                     ; 0x2013 <loadGUISID+0x2a>
    39be: 69 00        	adc	#$0
    39c0: 85 13        	sta	$13                     ; 0x2013 <loadGUISID+0x2a>
    39c2: a2 01        	ldx	#$1
    39c4: 86 de        	stx	$de                     ; 0x20de <loadGUISID+0xf5>
    39c6: e8           	inx
    39c7: 80 b1        	bra	$397a <printf+0x3b0>
    39c9: e0 58        	cpx	#$58
    39cb: f0 03        	beq	$39d0 <printf+0x406>
    39cd: 4c b4 41     	jmp	$41b4 <printf+0xbea>
    39d0: a6 15        	ldx	$15                     ; 0x2015 <loadGUISID+0x2c>
    39d2: 86 e1        	stx	$e1                     ; 0x20e1 <loadGUISID+0xf8>
    39d4: a6 18        	ldx	$18                     ; 0x2018 <loadGUISID+0x2f>
    39d6: 86 e2        	stx	$e2                     ; 0x20e2 <loadGUISID+0xf9>
    39d8: a2 10        	ldx	#$10
    39da: 86 c8        	stx	$c8                     ; 0x20c8 <loadGUISID+0xdf>
    39dc: a9 00        	lda	#$0
    39de: 09 01        	ora	#$1
    39e0: a6 99        	ldx	$99                     ; 0x2099 <loadGUISID+0xb0>
    39e2: 80 29        	bra	$3a0d <printf+0x443>
    39e4: a6 15        	ldx	$15                     ; 0x2015 <loadGUISID+0x2c>
    39e6: 86 e1        	stx	$e1                     ; 0x20e1 <loadGUISID+0xf8>
    39e8: a6 18        	ldx	$18                     ; 0x2018 <loadGUISID+0x2f>
    39ea: 86 e2        	stx	$e2                     ; 0x20e2 <loadGUISID+0xf9>
    39ec: a2 10        	ldx	#$10
    39ee: 86 c8        	stx	$c8                     ; 0x20c8 <loadGUISID+0xdf>
    39f0: a5 99        	lda	$99                     ; 0x2099 <loadGUISID+0xb0>
    39f2: 09 84        	ora	#$84
    39f4: 80 10        	bra	$3a06 <printf+0x43c>
    39f6: a6 15        	ldx	$15                     ; 0x2015 <loadGUISID+0x2c>
    39f8: 86 e1        	stx	$e1                     ; 0x20e1 <loadGUISID+0xf8>
    39fa: a6 18        	ldx	$18                     ; 0x2018 <loadGUISID+0x2f>
    39fc: 86 e2        	stx	$e2                     ; 0x20e2 <loadGUISID+0xf9>
    39fe: a2 10        	ldx	#$10
    3a00: 86 c8        	stx	$c8                     ; 0x20c8 <loadGUISID+0xdf>
    3a02: a5 99        	lda	$99                     ; 0x2099 <loadGUISID+0xb0>
    3a04: 09 80        	ora	#$80
    3a06: aa           	tax
    3a07: a9 00        	lda	#$0
    3a09: 09 01        	ora	#$1
    3a0b: 86 99        	stx	$99                     ; 0x2099 <loadGUISID+0xb0>
    3a0d: 86 c9        	stx	$c9                     ; 0x20c9 <loadGUISID+0xe0>
    3a0f: 85 a3        	sta	$a3                     ; 0x20a3 <loadGUISID+0xba>
    3a11: 85 ca        	sta	$ca                     ; 0x20ca <loadGUISID+0xe1>
    3a13: a2 10        	ldx	#$10
    3a15: 86 dd        	stx	$dd                     ; 0x20dd <loadGUISID+0xf4>
    3a17: 4c c9 3a     	jmp	$3ac9 <printf+0x4ff>
    3a1a: a5 d9        	lda	$d9                     ; 0x20d9 <loadGUISID+0xf0>
    3a1c: a6 da        	ldx	$da                     ; 0x20da <loadGUISID+0xf1>
    3a1e: 85 12        	sta	$12                     ; 0x2012 <loadGUISID+0x29>
    3a20: 86 13        	stx	$13                     ; 0x2013 <loadGUISID+0x2a>
    3a22: 18           	clc
    3a23: 69 02        	adc	#$2
    3a25: 85 14        	sta	$14                     ; 0x2014 <loadGUISID+0x2b>
    3a27: 8a           	txa
    3a28: 69 00        	adc	#$0
    3a2a: a6 14        	ldx	$14                     ; 0x2014 <loadGUISID+0x2b>
    3a2c: 86 d9        	stx	$d9                     ; 0x20d9 <loadGUISID+0xf0>
    3a2e: 85 da        	sta	$da                     ; 0x20da <loadGUISID+0xf1>
    3a30: b2 12        	lda	($12)                   ; 0x2012 <loadGUISID+0x29>
    3a32: aa           	tax
    3a33: b1 12        	lda	($12),y                 ; 0x2012 <loadGUISID+0x29>
    3a35: 86 12        	stx	$12                     ; 0x2012 <loadGUISID+0x29>
    3a37: 85 13        	sta	$13                     ; 0x2013 <loadGUISID+0x2a>
    3a39: a5 cd        	lda	$cd                     ; 0x20cd <loadGUISID+0xe4>
    3a3b: a6 ce        	ldx	$ce                     ; 0x20ce <loadGUISID+0xe5>
    3a3d: 92 12        	sta	($12)                   ; 0x2012 <loadGUISID+0x29>
    3a3f: 8a           	txa
    3a40: 91 12        	sta	($12),y                 ; 0x2012 <loadGUISID+0x29>
    3a42: 4c a2 3a     	jmp	$3aa2 <printf+0x4d8>
    3a45: a5 d9        	lda	$d9                     ; 0x20d9 <loadGUISID+0xf0>
    3a47: a6 da        	ldx	$da                     ; 0x20da <loadGUISID+0xf1>
    3a49: 85 12        	sta	$12                     ; 0x2012 <loadGUISID+0x29>
    3a4b: 86 13        	stx	$13                     ; 0x2013 <loadGUISID+0x2a>
    3a4d: 18           	clc
    3a4e: 69 02        	adc	#$2
    3a50: 85 14        	sta	$14                     ; 0x2014 <loadGUISID+0x2b>
    3a52: 8a           	txa
    3a53: 69 00        	adc	#$0
    3a55: a6 14        	ldx	$14                     ; 0x2014 <loadGUISID+0x2b>
    3a57: 86 d9        	stx	$d9                     ; 0x20d9 <loadGUISID+0xf0>
    3a59: 85 da        	sta	$da                     ; 0x20da <loadGUISID+0xf1>
    3a5b: b2 12        	lda	($12)                   ; 0x2012 <loadGUISID+0x29>
    3a5d: aa           	tax
    3a5e: b1 12        	lda	($12),y                 ; 0x2012 <loadGUISID+0x29>
    3a60: 86 12        	stx	$12                     ; 0x2012 <loadGUISID+0x29>
    3a62: 85 13        	sta	$13                     ; 0x2013 <loadGUISID+0x2a>
    3a64: 80 2f        	bra	$3a95 <printf+0x4cb>
    3a66: a6 15        	ldx	$15                     ; 0x2015 <loadGUISID+0x2c>
    3a68: 86 e1        	stx	$e1                     ; 0x20e1 <loadGUISID+0xf8>
    3a6a: a6 18        	ldx	$18                     ; 0x2018 <loadGUISID+0x2f>
    3a6c: 86 e2        	stx	$e2                     ; 0x20e2 <loadGUISID+0xf9>
    3a6e: a0 08        	ldy	#$8
    3a70: a2 08        	ldx	#$8
    3a72: 80 45        	bra	$3ab9 <printf+0x4ef>
    3a74: a5 d9        	lda	$d9                     ; 0x20d9 <loadGUISID+0xf0>
    3a76: a6 da        	ldx	$da                     ; 0x20da <loadGUISID+0xf1>
    3a78: 85 12        	sta	$12                     ; 0x2012 <loadGUISID+0x29>
    3a7a: 86 13        	stx	$13                     ; 0x2013 <loadGUISID+0x2a>
    3a7c: 18           	clc
    3a7d: 69 02        	adc	#$2
    3a7f: a8           	tay
    3a80: 8a           	txa
    3a81: 69 00        	adc	#$0
    3a83: 84 d9        	sty	$d9                     ; 0x20d9 <loadGUISID+0xf0>
    3a85: 85 da        	sta	$da                     ; 0x20da <loadGUISID+0xf1>
    3a87: b2 12        	lda	($12)                   ; 0x2012 <loadGUISID+0x29>
    3a89: 85 bb        	sta	$bb                     ; 0x20bb <loadGUISID+0xd2>
    3a8b: 64 bc        	stz	$bc                     ; 0x20bc <loadGUISID+0xd3>
    3a8d: a2 bb        	ldx	#$bb
    3a8f: 86 12        	stx	$12                     ; 0x2012 <loadGUISID+0x29>
    3a91: a2 00        	ldx	#$0
    3a93: 86 13        	stx	$13                     ; 0x2013 <loadGUISID+0x2a>
    3a95: a2 c8        	ldx	#$c8
    3a97: 86 14        	stx	$14                     ; 0x2014 <loadGUISID+0x2b>
    3a99: a2 00        	ldx	#$0
    3a9b: 86 15        	stx	$15                     ; 0x2015 <loadGUISID+0x2c>
    3a9d: 20 be 34     	jsr	$34be <_ZN12_GLOBAL__N_112print_stringEPKcP6Status>
    3aa0: a0 01        	ldy	#$1
    3aa2: a2 00        	ldx	#$0
    3aa4: 86 9a        	stx	$9a                     ; 0x209a <loadGUISID+0xb1>
    3aa6: a2 00        	ldx	#$0
    3aa8: 86 9b        	stx	$9b                     ; 0x209b <loadGUISID+0xb2>
    3aaa: 4c 9c 41     	jmp	$419c <printf+0xbd2>
    3aad: a6 15        	ldx	$15                     ; 0x2015 <loadGUISID+0x2c>
    3aaf: 86 e1        	stx	$e1                     ; 0x20e1 <loadGUISID+0xf8>
    3ab1: a6 18        	ldx	$18                     ; 0x2018 <loadGUISID+0x2f>
    3ab3: 86 e2        	stx	$e2                     ; 0x20e2 <loadGUISID+0xf9>
    3ab5: a0 0a        	ldy	#$a
    3ab7: a2 0a        	ldx	#$a
    3ab9: 86 dd        	stx	$dd                     ; 0x20dd <loadGUISID+0xf4>
    3abb: 84 c8        	sty	$c8                     ; 0x20c8 <loadGUISID+0xdf>
    3abd: a9 00        	lda	#$0
    3abf: 09 01        	ora	#$1
    3ac1: a6 99        	ldx	$99                     ; 0x2099 <loadGUISID+0xb0>
    3ac3: 86 c9        	stx	$c9                     ; 0x20c9 <loadGUISID+0xe0>
    3ac5: 85 a3        	sta	$a3                     ; 0x20a3 <loadGUISID+0xba>
    3ac7: 85 ca        	sta	$ca                     ; 0x20ca <loadGUISID+0xe1>
    3ac9: a5 de        	lda	$de                     ; 0x20de <loadGUISID+0xf5>
    3acb: 85 bd        	sta	$bd                     ; 0x20bd <loadGUISID+0xd4>
    3acd: a4 d9        	ldy	$d9                     ; 0x20d9 <loadGUISID+0xf0>
    3acf: a6 da        	ldx	$da                     ; 0x20da <loadGUISID+0xf1>
    3ad1: 86 a1        	stx	$a1                     ; 0x20a1 <loadGUISID+0xb8>
    3ad3: 84 14        	sty	$14                     ; 0x2014 <loadGUISID+0x2b>
    3ad5: 84 98        	sty	$98                     ; 0x2098 <loadGUISID+0xaf>
    3ad7: 86 15        	stx	$15                     ; 0x2015 <loadGUISID+0x2c>
    3ad9: a6 df        	ldx	$df                     ; 0x20df <loadGUISID+0xf6>
    3adb: 86 12        	stx	$12                     ; 0x2012 <loadGUISID+0x29>
    3add: a6 e0        	ldx	$e0                     ; 0x20e0 <loadGUISID+0xf7>
    3adf: 86 13        	stx	$13                     ; 0x2013 <loadGUISID+0x2a>
    3ae1: a2 00        	ldx	#$0
    3ae3: 85 9b        	sta	$9b                     ; 0x209b <loadGUISID+0xb2>
    3ae5: 20 af 44     	jsr	$44af <memcpy>
    3ae8: 18           	clc
    3ae9: a5 98        	lda	$98                     ; 0x2098 <loadGUISID+0xaf>
    3aeb: 65 9a        	adc	$9a                     ; 0x209a <loadGUISID+0xb1>
    3aed: aa           	tax
    3aee: a5 a1        	lda	$a1                     ; 0x20a1 <loadGUISID+0xb8>
    3af0: 69 00        	adc	#$0
    3af2: 86 d9        	stx	$d9                     ; 0x20d9 <loadGUISID+0xf0>
    3af4: 85 da        	sta	$da                     ; 0x20da <loadGUISID+0xf1>
    3af6: a5 a3        	lda	$a3                     ; 0x20a3 <loadGUISID+0xba>
    3af8: 29 01        	and	#$1
    3afa: b8           	clv
    3afb: f0 03        	beq	$3b00 <printf+0x536>
    3afd: 4c 54 3b     	jmp	$3b54 <printf+0x58a>
    3b00: a6 9b        	ldx	$9b                     ; 0x209b <loadGUISID+0xb2>
    3b02: b5 bd        	lda	$bd,x                   ; 0x20bd <loadGUISID+0xd4>
    3b04: aa           	tax
    3b05: a0 01        	ldy	#$1
    3b07: a5 a0        	lda	$a0                     ; 0x20a0 <loadGUISID+0xb7>
    3b09: 85 1a        	sta	$1a                     ; 0x201a <loadGUISID+0x31>
    3b0b: a5 e2        	lda	$e2                     ; 0x20e2 <loadGUISID+0xf9>
    3b0d: 85 a0        	sta	$a0                     ; 0x20a0 <loadGUISID+0xb7>
    3b0f: a9 00        	lda	#$0
    3b11: 85 9a        	sta	$9a                     ; 0x209a <loadGUISID+0xb1>
    3b13: a9 00        	lda	#$0
    3b15: 85 9b        	sta	$9b                     ; 0x209b <loadGUISID+0xb2>
    3b17: a5 e1        	lda	$e1                     ; 0x20e1 <loadGUISID+0xf8>
    3b19: 85 a1        	sta	$a1                     ; 0x20a1 <loadGUISID+0xb8>
    3b1b: 8a           	txa
    3b1c: 10 4c        	bpl	$3b6a <printf+0x5a0>
    3b1e: a2 00        	ldx	#$0
    3b20: 64 12        	stz	$12                     ; 0x2012 <loadGUISID+0x29>
    3b22: a9 00        	lda	#$0
    3b24: 38           	sec
    3b25: f5 be        	sbc	$be,x                   ; 0x20be <loadGUISID+0xd5>
    3b27: a0 00        	ldy	#$0
    3b29: b0 02        	bcs	$3b2d <printf+0x563>
    3b2b: a0 01        	ldy	#$1
    3b2d: 38           	sec
    3b2e: e5 12        	sbc	$12                     ; 0x2012 <loadGUISID+0x29>
    3b30: 85 13        	sta	$13                     ; 0x2013 <loadGUISID+0x2a>
    3b32: 64 12        	stz	$12                     ; 0x2012 <loadGUISID+0x29>
    3b34: b0 04        	bcs	$3b3a <printf+0x570>
    3b36: a9 01        	lda	#$1
    3b38: 85 12        	sta	$12                     ; 0x2012 <loadGUISID+0x29>
    3b3a: 98           	tya
    3b3b: 05 12        	ora	$12                     ; 0x2012 <loadGUISID+0x29>
    3b3d: 85 12        	sta	$12                     ; 0x2012 <loadGUISID+0x29>
    3b3f: a5 13        	lda	$13                     ; 0x2013 <loadGUISID+0x2a>
    3b41: 9d be 00     	sta	$be,x                   ; 0xbe <__zp_bss_size+0x80>
    3b44: e8           	inx
    3b45: 86 13        	stx	$13                     ; 0x2013 <loadGUISID+0x2a>
    3b47: a4 de        	ldy	$de                     ; 0x20de <loadGUISID+0xf5>
    3b49: c4 13        	cpy	$13                     ; 0x2013 <loadGUISID+0x2a>
    3b4b: d0 d5        	bne	$3b22 <printf+0x558>
    3b4d: 2c 4b 47     	bit	$474b                   ; 0x474b <__set_v>
    3b50: a0 01        	ldy	#$1
    3b52: 80 16        	bra	$3b6a <printf+0x5a0>
    3b54: a0 01        	ldy	#$1
    3b56: a6 a0        	ldx	$a0                     ; 0x20a0 <loadGUISID+0xb7>
    3b58: 86 1a        	stx	$1a                     ; 0x201a <loadGUISID+0x31>
    3b5a: a6 e2        	ldx	$e2                     ; 0x20e2 <loadGUISID+0xf9>
    3b5c: 86 a0        	stx	$a0                     ; 0x20a0 <loadGUISID+0xb7>
    3b5e: a2 00        	ldx	#$0
    3b60: 86 9a        	stx	$9a                     ; 0x209a <loadGUISID+0xb1>
    3b62: a2 00        	ldx	#$0
    3b64: 86 9b        	stx	$9b                     ; 0x209b <loadGUISID+0xb2>
    3b66: a6 e1        	ldx	$e1                     ; 0x20e1 <loadGUISID+0xf8>
    3b68: 86 a1        	stx	$a1                     ; 0x20a1 <loadGUISID+0xb8>
    3b6a: a2 01        	ldx	#$1
    3b6c: 70 02        	bvs	$3b70 <printf+0x5a6>
    3b6e: a2 00        	ldx	#$0
    3b70: 86 16        	stx	$16                     ; 0x2016 <loadGUISID+0x2d>
    3b72: a5 de        	lda	$de                     ; 0x20de <loadGUISID+0xf5>
    3b74: 0a           	asl
    3b75: 0a           	asl
    3b76: 0a           	asl
    3b77: 85 12        	sta	$12                     ; 0x2012 <loadGUISID+0x29>
    3b79: a2 00        	ldx	#$0
    3b7b: 8a           	txa
    3b7c: e0 00        	cpx	#$0
    3b7e: d0 03        	bne	$3b83 <printf+0x5b9>
    3b80: 4c 08 3c     	jmp	$3c08 <printf+0x63e>
    3b83: 85 17        	sta	$17                     ; 0x2017 <loadGUISID+0x2e>
    3b85: 86 98        	stx	$98                     ; 0x2098 <loadGUISID+0xaf>
    3b87: ca           	dex
    3b88: 86 15        	stx	$15                     ; 0x2015 <loadGUISID+0x2c>
    3b8a: a2 00        	ldx	#$0
    3b8c: 64 13        	stz	$13                     ; 0x2013 <loadGUISID+0x2a>
    3b8e: 80 0d        	bra	$3b9d <printf+0x5d3>
    3b90: a4 13        	ldy	$13                     ; 0x2013 <loadGUISID+0x2a>
    3b92: 99 a6 00     	sta	$a6,y                   ; 0xa6 <__zp_bss_size+0x68>
    3b95: a4 15        	ldy	$15                     ; 0x2015 <loadGUISID+0x2c>
    3b97: c4 13        	cpy	$13                     ; 0x2013 <loadGUISID+0x2a>
    3b99: f0 38        	beq	$3bd3 <printf+0x609>
    3b9b: e6 13        	inc	$13                     ; 0x2013 <loadGUISID+0x2a>
    3b9d: a4 13        	ldy	$13                     ; 0x2013 <loadGUISID+0x2a>
    3b9f: b9 a6 00     	lda	$a6,y                   ; 0xa6 <__zp_bss_size+0x68>
    3ba2: 0a           	asl
    3ba3: e0 00        	cpx	#$0
    3ba5: f0 02        	beq	$3ba9 <printf+0x5df>
    3ba7: 09 01        	ora	#$1
    3ba9: a4 dd        	ldy	$dd                     ; 0x20dd <loadGUISID+0xf4>
    3bab: 84 14        	sty	$14                     ; 0x2014 <loadGUISID+0x2b>
    3bad: c5 14        	cmp	$14                     ; 0x2014 <loadGUISID+0x2b>
    3baf: a2 01        	ldx	#$1
    3bb1: b0 02        	bcs	$3bb5 <printf+0x5eb>
    3bb3: a2 00        	ldx	#$0
    3bb5: 90 d9        	bcc	$3b90 <printf+0x5c6>
    3bb7: 84 14        	sty	$14                     ; 0x2014 <loadGUISID+0x2b>
    3bb9: 38           	sec
    3bba: e5 14        	sbc	$14                     ; 0x2014 <loadGUISID+0x2b>
    3bbc: a4 13        	ldy	$13                     ; 0x2013 <loadGUISID+0x2a>
    3bbe: 99 a6 00     	sta	$a6,y                   ; 0xa6 <__zp_bss_size+0x68>
    3bc1: a4 15        	ldy	$15                     ; 0x2015 <loadGUISID+0x2c>
    3bc3: c4 13        	cpy	$13                     ; 0x2013 <loadGUISID+0x2a>
    3bc5: d0 d4        	bne	$3b9b <printf+0x5d1>
    3bc7: a4 98        	ldy	$98                     ; 0x2098 <loadGUISID+0xaf>
    3bc9: a6 98        	ldx	$98                     ; 0x2098 <loadGUISID+0xaf>
    3bcb: e8           	inx
    3bcc: a9 01        	lda	#$1
    3bce: 99 a6 00     	sta	$a6,y                   ; 0xa6 <__zp_bss_size+0x68>
    3bd1: 86 98        	stx	$98                     ; 0x2098 <loadGUISID+0xaf>
    3bd3: a6 de        	ldx	$de                     ; 0x20de <loadGUISID+0xf5>
    3bd5: b5 bd        	lda	$bd,x                   ; 0x20bd <loadGUISID+0xd4>
    3bd7: aa           	tax
    3bd8: a0 01        	ldy	#$1
    3bda: 8a           	txa
    3bdb: 10 47        	bpl	$3c24 <printf+0x65a>
    3bdd: a5 98        	lda	$98                     ; 0x2098 <loadGUISID+0xaf>
    3bdf: f0 34        	beq	$3c15 <printf+0x64b>
    3be1: a2 00        	ldx	#$0
    3be3: a4 dd        	ldy	$dd                     ; 0x20dd <loadGUISID+0xf4>
    3be5: 84 14        	sty	$14                     ; 0x2014 <loadGUISID+0x2b>
    3be7: b5 a6        	lda	$a6,x                   ; 0x20a6 <loadGUISID+0xbd>
    3be9: 1a           	inc
    3bea: f6 a6        	inc	$a6,x                   ; 0x20a6 <loadGUISID+0xbd>
    3bec: c5 14        	cmp	$14                     ; 0x2014 <loadGUISID+0x2b>
    3bee: b0 03        	bcs	$3bf3 <printf+0x629>
    3bf0: 4c 4f 3c     	jmp	$3c4f <printf+0x685>
    3bf3: a4 14        	ldy	$14                     ; 0x2014 <loadGUISID+0x2b>
    3bf5: 84 13        	sty	$13                     ; 0x2013 <loadGUISID+0x2a>
    3bf7: 38           	sec
    3bf8: e5 13        	sbc	$13                     ; 0x2013 <loadGUISID+0x2a>
    3bfa: 9d a6 00     	sta	$a6,x                   ; 0xa6 <__zp_bss_size+0x68>
    3bfd: e8           	inx
    3bfe: 86 13        	stx	$13                     ; 0x2013 <loadGUISID+0x2a>
    3c00: a4 98        	ldy	$98                     ; 0x2098 <loadGUISID+0xaf>
    3c02: c4 13        	cpy	$13                     ; 0x2013 <loadGUISID+0x2a>
    3c04: d0 e1        	bne	$3be7 <printf+0x61d>
    3c06: 80 0f        	bra	$3c17 <printf+0x64d>
    3c08: 85 17        	sta	$17                     ; 0x2017 <loadGUISID+0x2e>
    3c0a: a6 de        	ldx	$de                     ; 0x20de <loadGUISID+0xf5>
    3c0c: b5 bd        	lda	$bd,x                   ; 0x20bd <loadGUISID+0xd4>
    3c0e: aa           	tax
    3c0f: 64 98        	stz	$98                     ; 0x2098 <loadGUISID+0xaf>
    3c11: 30 04        	bmi	$3c17 <printf+0x64d>
    3c13: 80 0f        	bra	$3c24 <printf+0x65a>
    3c15: 64 98        	stz	$98                     ; 0x2098 <loadGUISID+0xaf>
    3c17: a4 98        	ldy	$98                     ; 0x2098 <loadGUISID+0xaf>
    3c19: a6 98        	ldx	$98                     ; 0x2098 <loadGUISID+0xaf>
    3c1b: e8           	inx
    3c1c: a9 01        	lda	#$1
    3c1e: 99 a6 00     	sta	$a6,y                   ; 0xa6 <__zp_bss_size+0x68>
    3c21: a8           	tay
    3c22: 86 98        	stx	$98                     ; 0x2098 <loadGUISID+0xaf>
    3c24: a2 01        	ldx	#$1
    3c26: 64 13        	stz	$13                     ; 0x2013 <loadGUISID+0x2a>
    3c28: a5 de        	lda	$de                     ; 0x20de <loadGUISID+0xf5>
    3c2a: 85 14        	sta	$14                     ; 0x2014 <loadGUISID+0x2b>
    3c2c: b5 bd        	lda	$bd,x                   ; 0x20bd <loadGUISID+0xd4>
    3c2e: 0a           	asl
    3c2f: 64 15        	stz	$15                     ; 0x2015 <loadGUISID+0x2c>
    3c31: 26 15        	rol	$15                     ; 0x2015 <loadGUISID+0x2c>
    3c33: 05 13        	ora	$13                     ; 0x2013 <loadGUISID+0x2a>
    3c35: 9d bd 00     	sta	$bd,x                   ; 0xbd <__zp_bss_size+0x7f>
    3c38: e8           	inx
    3c39: c6 14        	dec	$14                     ; 0x2014 <loadGUISID+0x2b>
    3c3b: a5 15        	lda	$15                     ; 0x2015 <loadGUISID+0x2c>
    3c3d: 85 13        	sta	$13                     ; 0x2013 <loadGUISID+0x2a>
    3c3f: a5 14        	lda	$14                     ; 0x2014 <loadGUISID+0x2b>
    3c41: d0 e9        	bne	$3c2c <printf+0x662>
    3c43: a5 17        	lda	$17                     ; 0x2017 <loadGUISID+0x2e>
    3c45: 1a           	inc
    3c46: c5 12        	cmp	$12                     ; 0x2012 <loadGUISID+0x29>
    3c48: a6 98        	ldx	$98                     ; 0x2098 <loadGUISID+0xaf>
    3c4a: b0 07        	bcs	$3c53 <printf+0x689>
    3c4c: 4c 7c 3b     	jmp	$3b7c <printf+0x5b2>
    3c4f: a0 01        	ldy	#$1
    3c51: 80 d1        	bra	$3c24 <printf+0x65a>
    3c53: a5 99        	lda	$99                     ; 0x2099 <loadGUISID+0xb0>
    3c55: e6 a1        	inc	$a1                     ; 0x20a1 <loadGUISID+0xb8>
    3c57: c6 a1        	dec	$a1                     ; 0x20a1 <loadGUISID+0xb8>
    3c59: 10 08        	bpl	$3c63 <printf+0x699>
    3c5b: a2 01        	ldx	#$1
    3c5d: 64 a1        	stz	$a1                     ; 0x20a1 <loadGUISID+0xb8>
    3c5f: 86 a0        	stx	$a0                     ; 0x20a0 <loadGUISID+0xb7>
    3c61: a6 98        	ldx	$98                     ; 0x2098 <loadGUISID+0xaf>
    3c63: 29 04        	and	#$4
    3c65: f0 2b        	beq	$3c92 <printf+0x6c8>
    3c67: a5 dd        	lda	$dd                     ; 0x20dd <loadGUISID+0xf4>
    3c69: c9 10        	cmp	#$10
    3c6b: f0 14        	beq	$3c81 <printf+0x6b7>
    3c6d: c9 08        	cmp	#$8
    3c6f: d0 21        	bne	$3c92 <printf+0x6c8>
    3c71: a2 00        	ldx	#$0
    3c73: e4 a1        	cpx	$a1                     ; 0x20a1 <loadGUISID+0xb8>
    3c75: f0 03        	beq	$3c7a <printf+0x6b0>
    3c77: 4c c1 41     	jmp	$41c1 <printf+0xbf7>
    3c7a: a6 98        	ldx	$98                     ; 0x2098 <loadGUISID+0xaf>
    3c7c: e4 a0        	cpx	$a0                     ; 0x20a0 <loadGUISID+0xb7>
    3c7e: 4c c3 41     	jmp	$41c3 <printf+0xbf9>
    3c81: 8a           	txa
    3c82: f0 0e        	beq	$3c92 <printf+0x6c8>
    3c84: a5 99        	lda	$99                     ; 0x2099 <loadGUISID+0xb0>
    3c86: 29 80        	and	#$80
    3c88: d0 03        	bne	$3c8d <printf+0x6c3>
    3c8a: 4c dc 41     	jmp	$41dc <printf+0xc12>
    3c8d: a2 78        	ldx	#$78
    3c8f: 4c de 41     	jmp	$41de <printf+0xc14>
    3c92: a6 99        	ldx	$99                     ; 0x2099 <loadGUISID+0xb0>
    3c94: a9 2d        	lda	#$2d
    3c96: 85 e1        	sta	$e1                     ; 0x20e1 <loadGUISID+0xf8>
    3c98: a5 16        	lda	$16                     ; 0x2016 <loadGUISID+0x2d>
    3c9a: d0 32        	bne	$3cce <printf+0x704>
    3c9c: 86 12        	stx	$12                     ; 0x2012 <loadGUISID+0x29>
    3c9e: 8a           	txa
    3c9f: 29 02        	and	#$2
    3ca1: a2 2b        	ldx	#$2b
    3ca3: 86 e1        	stx	$e1                     ; 0x20e1 <loadGUISID+0xf8>
    3ca5: aa           	tax
    3ca6: d0 26        	bne	$3cce <printf+0x704>
    3ca8: a5 12        	lda	$12                     ; 0x2012 <loadGUISID+0x29>
    3caa: 29 08        	and	#$8
    3cac: d0 1c        	bne	$3cca <printf+0x700>
    3cae: a2 01        	ldx	#$1
    3cb0: 86 de        	stx	$de                     ; 0x20de <loadGUISID+0xf5>
    3cb2: a9 00        	lda	#$0
    3cb4: aa           	tax
    3cb5: 86 dd        	stx	$dd                     ; 0x20dd <loadGUISID+0xf4>
    3cb7: 80 1c        	bra	$3cd5 <printf+0x70b>
    3cb9: 85 12        	sta	$12                     ; 0x2012 <loadGUISID+0x29>
    3cbb: a9 04        	lda	#$4
    3cbd: 80 04        	bra	$3cc3 <printf+0x6f9>
    3cbf: 85 12        	sta	$12                     ; 0x2012 <loadGUISID+0x29>
    3cc1: a9 02        	lda	#$2
    3cc3: 85 de        	sta	$de                     ; 0x20de <loadGUISID+0xf5>
    3cc5: a5 12        	lda	$12                     ; 0x2012 <loadGUISID+0x29>
    3cc7: 4c 86 39     	jmp	$3986 <printf+0x3bc>
    3cca: a2 20        	ldx	#$20
    3ccc: 86 e1        	stx	$e1                     ; 0x20e1 <loadGUISID+0xf8>
    3cce: a2 00        	ldx	#$0
    3cd0: 86 de        	stx	$de                     ; 0x20de <loadGUISID+0xf5>
    3cd2: 86 dd        	stx	$dd                     ; 0x20dd <loadGUISID+0xf4>
    3cd4: 98           	tya
    3cd5: a6 a1        	ldx	$a1                     ; 0x20a1 <loadGUISID+0xb8>
    3cd7: d0 35        	bne	$3d0e <printf+0x744>
    3cd9: a6 a0        	ldx	$a0                     ; 0x20a0 <loadGUISID+0xb7>
    3cdb: a4 98        	ldy	$98                     ; 0x2098 <loadGUISID+0xaf>
    3cdd: 84 12        	sty	$12                     ; 0x2012 <loadGUISID+0x29>
    3cdf: e4 12        	cpx	$12                     ; 0x2012 <loadGUISID+0x29>
    3ce1: a6 a0        	ldx	$a0                     ; 0x20a0 <loadGUISID+0xb7>
    3ce3: 86 12        	stx	$12                     ; 0x2012 <loadGUISID+0x29>
    3ce5: a6 a1        	ldx	$a1                     ; 0x20a1 <loadGUISID+0xb8>
    3ce7: 86 13        	stx	$13                     ; 0x2013 <loadGUISID+0x2a>
    3ce9: b0 04        	bcs	$3cef <printf+0x725>
    3ceb: 84 12        	sty	$12                     ; 0x2012 <loadGUISID+0x29>
    3ced: 64 13        	stz	$13                     ; 0x2013 <loadGUISID+0x2a>
    3cef: 85 18        	sta	$18                     ; 0x2018 <loadGUISID+0x2f>
    3cf1: 18           	clc
    3cf2: 65 12        	adc	$12                     ; 0x2012 <loadGUISID+0x29>
    3cf4: 85 16        	sta	$16                     ; 0x2016 <loadGUISID+0x2d>
    3cf6: 85 14        	sta	$14                     ; 0x2014 <loadGUISID+0x2b>
    3cf8: a5 13        	lda	$13                     ; 0x2013 <loadGUISID+0x2a>
    3cfa: 69 00        	adc	#$0
    3cfc: 85 15        	sta	$15                     ; 0x2015 <loadGUISID+0x2c>
    3cfe: c5 1a        	cmp	$1a                     ; 0x201a <loadGUISID+0x31>
    3d00: d0 1e        	bne	$3d20 <printf+0x756>
    3d02: a6 1a        	ldx	$1a                     ; 0x201a <loadGUISID+0x31>
    3d04: 86 17        	stx	$17                     ; 0x2017 <loadGUISID+0x2e>
    3d06: a6 a2        	ldx	$a2                     ; 0x20a2 <loadGUISID+0xb9>
    3d08: a5 16        	lda	$16                     ; 0x2016 <loadGUISID+0x2d>
    3d0a: c5 a2        	cmp	$a2                     ; 0x20a2 <loadGUISID+0xb9>
    3d0c: 80 1c        	bra	$3d2a <printf+0x760>
    3d0e: a6 a1        	ldx	$a1                     ; 0x20a1 <loadGUISID+0xb8>
    3d10: e0 00        	cpx	#$0
    3d12: a6 a0        	ldx	$a0                     ; 0x20a0 <loadGUISID+0xb7>
    3d14: 86 12        	stx	$12                     ; 0x2012 <loadGUISID+0x29>
    3d16: a6 a1        	ldx	$a1                     ; 0x20a1 <loadGUISID+0xb8>
    3d18: 86 13        	stx	$13                     ; 0x2013 <loadGUISID+0x2a>
    3d1a: a4 98        	ldy	$98                     ; 0x2098 <loadGUISID+0xaf>
    3d1c: 90 cd        	bcc	$3ceb <printf+0x721>
    3d1e: 80 cf        	bra	$3cef <printf+0x725>
    3d20: a6 a2        	ldx	$a2                     ; 0x20a2 <loadGUISID+0xb9>
    3d22: 5a           	phy
    3d23: a4 1a        	ldy	$1a                     ; 0x201a <loadGUISID+0x31>
    3d25: 84 17        	sty	$17                     ; 0x2017 <loadGUISID+0x2e>
    3d27: 7a           	ply
    3d28: c5 1a        	cmp	$1a                     ; 0x201a <loadGUISID+0x31>
    3d2a: 64 a3        	stz	$a3                     ; 0x20a3 <loadGUISID+0xba>
    3d2c: 64 a2        	stz	$a2                     ; 0x20a2 <loadGUISID+0xb9>
    3d2e: 90 03        	bcc	$3d33 <printf+0x769>
    3d30: 4c d7 3d     	jmp	$3dd7 <printf+0x80d>
    3d33: a5 99        	lda	$99                     ; 0x2099 <loadGUISID+0xb0>
    3d35: 29 11        	and	#$11
    3d37: 86 16        	stx	$16                     ; 0x2016 <loadGUISID+0x2d>
    3d39: f0 0f        	beq	$3d4a <printf+0x780>
    3d3b: 8a           	txa
    3d3c: 38           	sec
    3d3d: e5 14        	sbc	$14                     ; 0x2014 <loadGUISID+0x2b>
    3d3f: 85 a3        	sta	$a3                     ; 0x20a3 <loadGUISID+0xba>
    3d41: a5 1a        	lda	$1a                     ; 0x201a <loadGUISID+0x31>
    3d43: e5 15        	sbc	$15                     ; 0x2015 <loadGUISID+0x2c>
    3d45: 85 a2        	sta	$a2                     ; 0x20a2 <loadGUISID+0xb9>
    3d47: 4c d7 3d     	jmp	$3dd7 <printf+0x80d>
    3d4a: a6 cd        	ldx	$cd                     ; 0x20cd <loadGUISID+0xe4>
    3d4c: 86 14        	stx	$14                     ; 0x2014 <loadGUISID+0x2b>
    3d4e: 38           	sec
    3d4f: a5 18        	lda	$18                     ; 0x2018 <loadGUISID+0x2f>
    3d51: e5 16        	sbc	$16                     ; 0x2016 <loadGUISID+0x2d>
    3d53: a8           	tay
    3d54: a9 00        	lda	#$0
    3d56: e5 17        	sbc	$17                     ; 0x2017 <loadGUISID+0x2e>
    3d58: aa           	tax
    3d59: 18           	clc
    3d5a: 98           	tya
    3d5b: 65 12        	adc	$12                     ; 0x2012 <loadGUISID+0x29>
    3d5d: 85 99        	sta	$99                     ; 0x2099 <loadGUISID+0xb0>
    3d5f: 8a           	txa
    3d60: 65 13        	adc	$13                     ; 0x2013 <loadGUISID+0x2a>
    3d62: 85 a2        	sta	$a2                     ; 0x20a2 <loadGUISID+0xb9>
    3d64: a5 ce        	lda	$ce                     ; 0x20ce <loadGUISID+0xe5>
    3d66: 4c bf 3d     	jmp	$3dbf <printf+0x7f5>
    3d69: c5 cc        	cmp	$cc                     ; 0x20cc <loadGUISID+0xe3>
    3d6b: a4 a2        	ldy	$a2                     ; 0x20a2 <loadGUISID+0xb9>
    3d6d: b0 30        	bcs	$3d9f <printf+0x7d5>
    3d6f: a6 d8        	ldx	$d8                     ; 0x20d8 <loadGUISID+0xef>
    3d71: e4 9b        	cpx	$9b                     ; 0x209b <loadGUISID+0xb2>
    3d73: d0 19        	bne	$3d8e <printf+0x7c4>
    3d75: a6 d7        	ldx	$d7                     ; 0x20d7 <loadGUISID+0xee>
    3d77: e4 9a        	cpx	$9a                     ; 0x209a <loadGUISID+0xb1>
    3d79: d0 13        	bne	$3d8e <printf+0x7c4>
    3d7b: 18           	clc
    3d7c: aa           	tax
    3d7d: a5 14        	lda	$14                     ; 0x2014 <loadGUISID+0x2b>
    3d7f: 65 d1        	adc	$d1                     ; 0x20d1 <loadGUISID+0xe8>
    3d81: 85 12        	sta	$12                     ; 0x2012 <loadGUISID+0x29>
    3d83: 8a           	txa
    3d84: 65 d2        	adc	$d2                     ; 0x20d2 <loadGUISID+0xe9>
    3d86: 85 13        	sta	$13                     ; 0x2013 <loadGUISID+0x2a>
    3d88: a9 20        	lda	#$20
    3d8a: 92 12        	sta	($12)                   ; 0x2012 <loadGUISID+0x29>
    3d8c: 80 0f        	bra	$3d9d <printf+0x7d3>
    3d8e: a2 20        	ldx	#$20
    3d90: 86 4c        	stx	$4c                     ; 0x204c <loadGUISID+0x63>
    3d92: a2 4c        	ldx	#$4c
    3d94: 86 12        	stx	$12                     ; 0x2012 <loadGUISID+0x29>
    3d96: a2 00        	ldx	#$0
    3d98: 86 13        	stx	$13                     ; 0x2013 <loadGUISID+0x2a>
    3d9a: 20 b8 29     	jsr	$29b8 <textPrint>
    3d9d: a4 a2        	ldy	$a2                     ; 0x20a2 <loadGUISID+0xb9>
    3d9f: a6 cd        	ldx	$cd                     ; 0x20cd <loadGUISID+0xe4>
    3da1: a5 ce        	lda	$ce                     ; 0x20ce <loadGUISID+0xe5>
    3da3: e8           	inx
    3da4: d0 01        	bne	$3da7 <printf+0x7dd>
    3da6: 1a           	inc
    3da7: 86 14        	stx	$14                     ; 0x2014 <loadGUISID+0x2b>
    3da9: 86 cd        	stx	$cd                     ; 0x20cd <loadGUISID+0xe4>
    3dab: 85 ce        	sta	$ce                     ; 0x20ce <loadGUISID+0xe5>
    3dad: a6 99        	ldx	$99                     ; 0x2099 <loadGUISID+0xb0>
    3daf: e8           	inx
    3db0: d0 01        	bne	$3db3 <printf+0x7e9>
    3db2: c8           	iny
    3db3: 86 99        	stx	$99                     ; 0x2099 <loadGUISID+0xb0>
    3db5: 84 a2        	sty	$a2                     ; 0x20a2 <loadGUISID+0xb9>
    3db7: c0 00        	cpy	#$0
    3db9: d0 04        	bne	$3dbf <printf+0x7f5>
    3dbb: e0 00        	cpx	#$0
    3dbd: f0 12        	beq	$3dd1 <printf+0x807>
    3dbf: c5 cc        	cmp	$cc                     ; 0x20cc <loadGUISID+0xe3>
    3dc1: f0 03        	beq	$3dc6 <printf+0x7fc>
    3dc3: 4c 69 3d     	jmp	$3d69 <printf+0x79f>
    3dc6: a6 cb        	ldx	$cb                     ; 0x20cb <loadGUISID+0xe2>
    3dc8: 86 12        	stx	$12                     ; 0x2012 <loadGUISID+0x29>
    3dca: a6 14        	ldx	$14                     ; 0x2014 <loadGUISID+0x2b>
    3dcc: e4 12        	cpx	$12                     ; 0x2012 <loadGUISID+0x29>
    3dce: 4c 6b 3d     	jmp	$3d6b <printf+0x7a1>
    3dd1: 64 a3        	stz	$a3                     ; 0x20a3 <loadGUISID+0xba>
    3dd3: 64 a2        	stz	$a2                     ; 0x20a2 <loadGUISID+0xb9>
    3dd5: a4 98        	ldy	$98                     ; 0x2098 <loadGUISID+0xaf>
    3dd7: a6 de        	ldx	$de                     ; 0x20de <loadGUISID+0xf5>
    3dd9: f0 03        	beq	$3dde <printf+0x814>
    3ddb: 4c 35 3e     	jmp	$3e35 <printf+0x86b>
    3dde: a6 cd        	ldx	$cd                     ; 0x20cd <loadGUISID+0xe4>
    3de0: a5 ce        	lda	$ce                     ; 0x20ce <loadGUISID+0xe5>
    3de2: c5 cc        	cmp	$cc                     ; 0x20cc <loadGUISID+0xe3>
    3de4: d0 10        	bne	$3df6 <printf+0x82c>
    3de6: 86 13        	stx	$13                     ; 0x2013 <loadGUISID+0x2a>
    3de8: a6 cb        	ldx	$cb                     ; 0x20cb <loadGUISID+0xe2>
    3dea: 86 12        	stx	$12                     ; 0x2012 <loadGUISID+0x29>
    3dec: a4 98        	ldy	$98                     ; 0x2098 <loadGUISID+0xaf>
    3dee: a6 13        	ldx	$13                     ; 0x2013 <loadGUISID+0x2a>
    3df0: e4 12        	cpx	$12                     ; 0x2012 <loadGUISID+0x29>
    3df2: 90 08        	bcc	$3dfc <printf+0x832>
    3df4: 80 39        	bra	$3e2f <printf+0x865>
    3df6: 86 13        	stx	$13                     ; 0x2013 <loadGUISID+0x2a>
    3df8: c5 cc        	cmp	$cc                     ; 0x20cc <loadGUISID+0xe3>
    3dfa: b0 33        	bcs	$3e2f <printf+0x865>
    3dfc: a6 d8        	ldx	$d8                     ; 0x20d8 <loadGUISID+0xef>
    3dfe: e4 9b        	cpx	$9b                     ; 0x209b <loadGUISID+0xb2>
    3e00: d0 1c        	bne	$3e1e <printf+0x854>
    3e02: a6 d7        	ldx	$d7                     ; 0x20d7 <loadGUISID+0xee>
    3e04: e4 9a        	cpx	$9a                     ; 0x209a <loadGUISID+0xb1>
    3e06: d0 16        	bne	$3e1e <printf+0x854>
    3e08: 18           	clc
    3e09: 85 12        	sta	$12                     ; 0x2012 <loadGUISID+0x29>
    3e0b: a5 13        	lda	$13                     ; 0x2013 <loadGUISID+0x2a>
    3e0d: 65 d1        	adc	$d1                     ; 0x20d1 <loadGUISID+0xe8>
    3e0f: aa           	tax
    3e10: a5 12        	lda	$12                     ; 0x2012 <loadGUISID+0x29>
    3e12: 65 d2        	adc	$d2                     ; 0x20d2 <loadGUISID+0xe9>
    3e14: 86 12        	stx	$12                     ; 0x2012 <loadGUISID+0x29>
    3e16: 85 13        	sta	$13                     ; 0x2013 <loadGUISID+0x2a>
    3e18: a5 e1        	lda	$e1                     ; 0x20e1 <loadGUISID+0xf8>
    3e1a: 92 12        	sta	($12)                   ; 0x2012 <loadGUISID+0x29>
    3e1c: 80 0f        	bra	$3e2d <printf+0x863>
    3e1e: a6 e1        	ldx	$e1                     ; 0x20e1 <loadGUISID+0xf8>
    3e20: 86 4c        	stx	$4c                     ; 0x204c <loadGUISID+0x63>
    3e22: a2 4c        	ldx	#$4c
    3e24: 86 12        	stx	$12                     ; 0x2012 <loadGUISID+0x29>
    3e26: a2 00        	ldx	#$0
    3e28: 86 13        	stx	$13                     ; 0x2013 <loadGUISID+0x2a>
    3e2a: 20 b8 29     	jsr	$29b8 <textPrint>
    3e2d: a4 98        	ldy	$98                     ; 0x2098 <loadGUISID+0xaf>
    3e2f: e6 cd        	inc	$cd                     ; 0x20cd <loadGUISID+0xe4>
    3e31: d0 02        	bne	$3e35 <printf+0x86b>
    3e33: e6 ce        	inc	$ce                     ; 0x20ce <loadGUISID+0xe5>
    3e35: a6 dd        	ldx	$dd                     ; 0x20dd <loadGUISID+0xf4>
    3e37: d0 03        	bne	$3e3c <printf+0x872>
    3e39: 4c 93 3e     	jmp	$3e93 <printf+0x8c9>
    3e3c: a6 cd        	ldx	$cd                     ; 0x20cd <loadGUISID+0xe4>
    3e3e: a5 ce        	lda	$ce                     ; 0x20ce <loadGUISID+0xe5>
    3e40: c5 cc        	cmp	$cc                     ; 0x20cc <loadGUISID+0xe3>
    3e42: d0 10        	bne	$3e54 <printf+0x88a>
    3e44: 86 13        	stx	$13                     ; 0x2013 <loadGUISID+0x2a>
    3e46: a6 cb        	ldx	$cb                     ; 0x20cb <loadGUISID+0xe2>
    3e48: 86 12        	stx	$12                     ; 0x2012 <loadGUISID+0x29>
    3e4a: a4 98        	ldy	$98                     ; 0x2098 <loadGUISID+0xaf>
    3e4c: a6 13        	ldx	$13                     ; 0x2013 <loadGUISID+0x2a>
    3e4e: e4 12        	cpx	$12                     ; 0x2012 <loadGUISID+0x29>
    3e50: 90 08        	bcc	$3e5a <printf+0x890>
    3e52: 80 39        	bra	$3e8d <printf+0x8c3>
    3e54: 86 13        	stx	$13                     ; 0x2013 <loadGUISID+0x2a>
    3e56: c5 cc        	cmp	$cc                     ; 0x20cc <loadGUISID+0xe3>
    3e58: b0 33        	bcs	$3e8d <printf+0x8c3>
    3e5a: a6 d8        	ldx	$d8                     ; 0x20d8 <loadGUISID+0xef>
    3e5c: e4 9b        	cpx	$9b                     ; 0x209b <loadGUISID+0xb2>
    3e5e: d0 1c        	bne	$3e7c <printf+0x8b2>
    3e60: a6 d7        	ldx	$d7                     ; 0x20d7 <loadGUISID+0xee>
    3e62: e4 9a        	cpx	$9a                     ; 0x209a <loadGUISID+0xb1>
    3e64: d0 16        	bne	$3e7c <printf+0x8b2>
    3e66: 18           	clc
    3e67: 85 12        	sta	$12                     ; 0x2012 <loadGUISID+0x29>
    3e69: a5 13        	lda	$13                     ; 0x2013 <loadGUISID+0x2a>
    3e6b: 65 d1        	adc	$d1                     ; 0x20d1 <loadGUISID+0xe8>
    3e6d: aa           	tax
    3e6e: a5 12        	lda	$12                     ; 0x2012 <loadGUISID+0x29>
    3e70: 65 d2        	adc	$d2                     ; 0x20d2 <loadGUISID+0xe9>
    3e72: 86 12        	stx	$12                     ; 0x2012 <loadGUISID+0x29>
    3e74: 85 13        	sta	$13                     ; 0x2013 <loadGUISID+0x2a>
    3e76: a5 e2        	lda	$e2                     ; 0x20e2 <loadGUISID+0xf9>
    3e78: 92 12        	sta	($12)                   ; 0x2012 <loadGUISID+0x29>
    3e7a: 80 0f        	bra	$3e8b <printf+0x8c1>
    3e7c: a6 e2        	ldx	$e2                     ; 0x20e2 <loadGUISID+0xf9>
    3e7e: 86 4c        	stx	$4c                     ; 0x204c <loadGUISID+0x63>
    3e80: a2 4c        	ldx	#$4c
    3e82: 86 12        	stx	$12                     ; 0x2012 <loadGUISID+0x29>
    3e84: a2 00        	ldx	#$0
    3e86: 86 13        	stx	$13                     ; 0x2013 <loadGUISID+0x2a>
    3e88: 20 b8 29     	jsr	$29b8 <textPrint>
    3e8b: a4 98        	ldy	$98                     ; 0x2098 <loadGUISID+0xaf>
    3e8d: e6 cd        	inc	$cd                     ; 0x20cd <loadGUISID+0xe4>
    3e8f: d0 02        	bne	$3e93 <printf+0x8c9>
    3e91: e6 ce        	inc	$ce                     ; 0x20ce <loadGUISID+0xe5>
    3e93: a9 10        	lda	#$10
    3e95: 25 c9        	and	$c9                     ; 0x20c9 <loadGUISID+0xe0>
    3e97: d0 03        	bne	$3e9c <printf+0x8d2>
    3e99: 4c 2d 3f     	jmp	$3f2d <printf+0x963>
    3e9c: a5 c9        	lda	$c9                     ; 0x20c9 <loadGUISID+0xe0>
    3e9e: 29 01        	and	#$1
    3ea0: f0 03        	beq	$3ea5 <printf+0x8db>
    3ea2: 4c 2d 3f     	jmp	$3f2d <printf+0x963>
    3ea5: a6 a3        	ldx	$a3                     ; 0x20a3 <loadGUISID+0xba>
    3ea7: a5 a2        	lda	$a2                     ; 0x20a2 <loadGUISID+0xb9>
    3ea9: d0 06        	bne	$3eb1 <printf+0x8e7>
    3eab: 8a           	txa
    3eac: d0 03        	bne	$3eb1 <printf+0x8e7>
    3eae: 4c f1 41     	jmp	$41f1 <printf+0xc27>
    3eb1: a6 cd        	ldx	$cd                     ; 0x20cd <loadGUISID+0xe4>
    3eb3: 86 13        	stx	$13                     ; 0x2013 <loadGUISID+0x2a>
    3eb5: a5 ce        	lda	$ce                     ; 0x20ce <loadGUISID+0xe5>
    3eb7: 4c 13 3f     	jmp	$3f13 <printf+0x949>
    3eba: c5 cc        	cmp	$cc                     ; 0x20cc <loadGUISID+0xe3>
    3ebc: b0 2e        	bcs	$3eec <printf+0x922>
    3ebe: a6 d8        	ldx	$d8                     ; 0x20d8 <loadGUISID+0xef>
    3ec0: e4 9b        	cpx	$9b                     ; 0x209b <loadGUISID+0xb2>
    3ec2: d0 19        	bne	$3edd <printf+0x913>
    3ec4: a6 d7        	ldx	$d7                     ; 0x20d7 <loadGUISID+0xee>
    3ec6: e4 9a        	cpx	$9a                     ; 0x209a <loadGUISID+0xb1>
    3ec8: d0 13        	bne	$3edd <printf+0x913>
    3eca: 18           	clc
    3ecb: aa           	tax
    3ecc: a5 13        	lda	$13                     ; 0x2013 <loadGUISID+0x2a>
    3ece: 65 d1        	adc	$d1                     ; 0x20d1 <loadGUISID+0xe8>
    3ed0: 85 12        	sta	$12                     ; 0x2012 <loadGUISID+0x29>
    3ed2: 8a           	txa
    3ed3: 65 d2        	adc	$d2                     ; 0x20d2 <loadGUISID+0xe9>
    3ed5: 85 13        	sta	$13                     ; 0x2013 <loadGUISID+0x2a>
    3ed7: a9 30        	lda	#$30
    3ed9: 92 12        	sta	($12)                   ; 0x2012 <loadGUISID+0x29>
    3edb: 80 0f        	bra	$3eec <printf+0x922>
    3edd: a2 30        	ldx	#$30
    3edf: 86 4c        	stx	$4c                     ; 0x204c <loadGUISID+0x63>
    3ee1: a2 4c        	ldx	#$4c
    3ee3: 86 12        	stx	$12                     ; 0x2012 <loadGUISID+0x29>
    3ee5: a2 00        	ldx	#$0
    3ee7: 86 13        	stx	$13                     ; 0x2013 <loadGUISID+0x2a>
    3ee9: 20 b8 29     	jsr	$29b8 <textPrint>
    3eec: a6 cd        	ldx	$cd                     ; 0x20cd <loadGUISID+0xe4>
    3eee: a5 ce        	lda	$ce                     ; 0x20ce <loadGUISID+0xe5>
    3ef0: e8           	inx
    3ef1: d0 01        	bne	$3ef4 <printf+0x92a>
    3ef3: 1a           	inc
    3ef4: 86 13        	stx	$13                     ; 0x2013 <loadGUISID+0x2a>
    3ef6: 86 cd        	stx	$cd                     ; 0x20cd <loadGUISID+0xe4>
    3ef8: 85 ce        	sta	$ce                     ; 0x20ce <loadGUISID+0xe5>
    3efa: a4 a3        	ldy	$a3                     ; 0x20a3 <loadGUISID+0xba>
    3efc: a6 a2        	ldx	$a2                     ; 0x20a2 <loadGUISID+0xb9>
    3efe: 86 12        	stx	$12                     ; 0x2012 <loadGUISID+0x29>
    3f00: 88           	dey
    3f01: c0 ff        	cpy	#$ff
    3f03: d0 02        	bne	$3f07 <printf+0x93d>
    3f05: c6 12        	dec	$12                     ; 0x2012 <loadGUISID+0x29>
    3f07: 84 a3        	sty	$a3                     ; 0x20a3 <loadGUISID+0xba>
    3f09: a6 12        	ldx	$12                     ; 0x2012 <loadGUISID+0x29>
    3f0b: 86 a2        	stx	$a2                     ; 0x20a2 <loadGUISID+0xb9>
    3f0d: d0 04        	bne	$3f13 <printf+0x949>
    3f0f: c0 00        	cpy	#$0
    3f11: f0 14        	beq	$3f27 <printf+0x95d>
    3f13: c5 cc        	cmp	$cc                     ; 0x20cc <loadGUISID+0xe3>
    3f15: f0 03        	beq	$3f1a <printf+0x950>
    3f17: 4c ba 3e     	jmp	$3eba <printf+0x8f0>
    3f1a: a6 cb        	ldx	$cb                     ; 0x20cb <loadGUISID+0xe2>
    3f1c: 86 12        	stx	$12                     ; 0x2012 <loadGUISID+0x29>
    3f1e: a6 13        	ldx	$13                     ; 0x2013 <loadGUISID+0x2a>
    3f20: e4 12        	cpx	$12                     ; 0x2012 <loadGUISID+0x29>
    3f22: b0 c8        	bcs	$3eec <printf+0x922>
    3f24: 4c be 3e     	jmp	$3ebe <printf+0x8f4>
    3f27: 64 a3        	stz	$a3                     ; 0x20a3 <loadGUISID+0xba>
    3f29: 64 a2        	stz	$a2                     ; 0x20a2 <loadGUISID+0xb9>
    3f2b: a4 98        	ldy	$98                     ; 0x2098 <loadGUISID+0xaf>
    3f2d: a2 00        	ldx	#$0
    3f2f: e4 a1        	cpx	$a1                     ; 0x20a1 <loadGUISID+0xb8>
    3f31: d0 07        	bne	$3f3a <printf+0x970>
    3f33: c4 a0        	cpy	$a0                     ; 0x20a0 <loadGUISID+0xb7>
    3f35: 90 0a        	bcc	$3f41 <printf+0x977>
    3f37: 4c b9 3f     	jmp	$3fb9 <printf+0x9ef>
    3f3a: e4 a1        	cpx	$a1                     ; 0x20a1 <loadGUISID+0xb8>
    3f3c: 90 03        	bcc	$3f41 <printf+0x977>
    3f3e: 4c b9 3f     	jmp	$3fb9 <printf+0x9ef>
    3f41: a6 cd        	ldx	$cd                     ; 0x20cd <loadGUISID+0xe4>
    3f43: 86 13        	stx	$13                     ; 0x2013 <loadGUISID+0x2a>
    3f45: a5 ce        	lda	$ce                     ; 0x20ce <loadGUISID+0xe5>
    3f47: a2 ff        	ldx	#$ff
    3f49: c6 a0        	dec	$a0                     ; 0x20a0 <loadGUISID+0xb7>
    3f4b: e4 a0        	cpx	$a0                     ; 0x20a0 <loadGUISID+0xb7>
    3f4d: d0 02        	bne	$3f51 <printf+0x987>
    3f4f: c6 a1        	dec	$a1                     ; 0x20a1 <loadGUISID+0xb8>
    3f51: c5 cc        	cmp	$cc                     ; 0x20cc <loadGUISID+0xe3>
    3f53: d0 0c        	bne	$3f61 <printf+0x997>
    3f55: a6 cb        	ldx	$cb                     ; 0x20cb <loadGUISID+0xe2>
    3f57: 86 12        	stx	$12                     ; 0x2012 <loadGUISID+0x29>
    3f59: a6 13        	ldx	$13                     ; 0x2013 <loadGUISID+0x2a>
    3f5b: e4 12        	cpx	$12                     ; 0x2012 <loadGUISID+0x29>
    3f5d: 90 06        	bcc	$3f65 <printf+0x99b>
    3f5f: 80 32        	bra	$3f93 <printf+0x9c9>
    3f61: c5 cc        	cmp	$cc                     ; 0x20cc <loadGUISID+0xe3>
    3f63: b0 2e        	bcs	$3f93 <printf+0x9c9>
    3f65: a6 d8        	ldx	$d8                     ; 0x20d8 <loadGUISID+0xef>
    3f67: e4 9b        	cpx	$9b                     ; 0x209b <loadGUISID+0xb2>
    3f69: d0 19        	bne	$3f84 <printf+0x9ba>
    3f6b: a6 d7        	ldx	$d7                     ; 0x20d7 <loadGUISID+0xee>
    3f6d: e4 9a        	cpx	$9a                     ; 0x209a <loadGUISID+0xb1>
    3f6f: d0 13        	bne	$3f84 <printf+0x9ba>
    3f71: 18           	clc
    3f72: aa           	tax
    3f73: a5 13        	lda	$13                     ; 0x2013 <loadGUISID+0x2a>
    3f75: 65 d1        	adc	$d1                     ; 0x20d1 <loadGUISID+0xe8>
    3f77: 85 12        	sta	$12                     ; 0x2012 <loadGUISID+0x29>
    3f79: 8a           	txa
    3f7a: 65 d2        	adc	$d2                     ; 0x20d2 <loadGUISID+0xe9>
    3f7c: 85 13        	sta	$13                     ; 0x2013 <loadGUISID+0x2a>
    3f7e: a9 30        	lda	#$30
    3f80: 92 12        	sta	($12)                   ; 0x2012 <loadGUISID+0x29>
    3f82: 80 0f        	bra	$3f93 <printf+0x9c9>
    3f84: a2 30        	ldx	#$30
    3f86: 86 4c        	stx	$4c                     ; 0x204c <loadGUISID+0x63>
    3f88: a2 4c        	ldx	#$4c
    3f8a: 86 12        	stx	$12                     ; 0x2012 <loadGUISID+0x29>
    3f8c: a2 00        	ldx	#$0
    3f8e: 86 13        	stx	$13                     ; 0x2013 <loadGUISID+0x2a>
    3f90: 20 b8 29     	jsr	$29b8 <textPrint>
    3f93: a6 cd        	ldx	$cd                     ; 0x20cd <loadGUISID+0xe4>
    3f95: a5 ce        	lda	$ce                     ; 0x20ce <loadGUISID+0xe5>
    3f97: e8           	inx
    3f98: d0 01        	bne	$3f9b <printf+0x9d1>
    3f9a: 1a           	inc
    3f9b: 86 13        	stx	$13                     ; 0x2013 <loadGUISID+0x2a>
    3f9d: 86 cd        	stx	$cd                     ; 0x20cd <loadGUISID+0xe4>
    3f9f: 85 ce        	sta	$ce                     ; 0x20ce <loadGUISID+0xe5>
    3fa1: a2 00        	ldx	#$0
    3fa3: e4 a1        	cpx	$a1                     ; 0x20a1 <loadGUISID+0xb8>
    3fa5: d0 09        	bne	$3fb0 <printf+0x9e6>
    3fa7: a4 98        	ldy	$98                     ; 0x2098 <loadGUISID+0xaf>
    3fa9: c4 a0        	cpy	$a0                     ; 0x20a0 <loadGUISID+0xb7>
    3fab: b0 0c        	bcs	$3fb9 <printf+0x9ef>
    3fad: 4c 47 3f     	jmp	$3f47 <printf+0x97d>
    3fb0: e4 a1        	cpx	$a1                     ; 0x20a1 <loadGUISID+0xb8>
    3fb2: a4 98        	ldy	$98                     ; 0x2098 <loadGUISID+0xaf>
    3fb4: b0 03        	bcs	$3fb9 <printf+0x9ef>
    3fb6: 4c 47 3f     	jmp	$3f47 <printf+0x97d>
    3fb9: 98           	tya
    3fba: d0 03        	bne	$3fbf <printf+0x9f5>
    3fbc: 4c c2 40     	jmp	$40c2 <printf+0xaf8>
    3fbf: 88           	dey
    3fc0: d0 03        	bne	$3fc5 <printf+0x9fb>
    3fc2: 4c 57 40     	jmp	$4057 <printf+0xa8d>
    3fc5: 84 a0        	sty	$a0                     ; 0x20a0 <loadGUISID+0xb7>
    3fc7: a6 e3        	ldx	$e3                     ; 0x20e3 <loadGUISID+0xfa>
    3fc9: 8a           	txa
    3fca: 18           	clc
    3fcb: 65 a0        	adc	$a0                     ; 0x20a0 <loadGUISID+0xb7>
    3fcd: 85 98        	sta	$98                     ; 0x2098 <loadGUISID+0xaf>
    3fcf: a5 e4        	lda	$e4                     ; 0x20e4 <loadGUISID+0xfb>
    3fd1: 69 00        	adc	#$0
    3fd3: 85 99        	sta	$99                     ; 0x2099 <loadGUISID+0xb0>
    3fd5: 4c 49 40     	jmp	$4049 <printf+0xa7f>
    3fd8: a8           	tay
    3fd9: a9 80        	lda	#$80
    3fdb: 25 c9        	and	$c9                     ; 0x20c9 <loadGUISID+0xe0>
    3fdd: f0 04        	beq	$3fe3 <printf+0xa19>
    3fdf: a2 61        	ldx	#$61
    3fe1: 80 02        	bra	$3fe5 <printf+0xa1b>
    3fe3: a2 41        	ldx	#$41
    3fe5: 86 12        	stx	$12                     ; 0x2012 <loadGUISID+0x29>
    3fe7: 18           	clc
    3fe8: 98           	tya
    3fe9: 65 12        	adc	$12                     ; 0x2012 <loadGUISID+0x29>
    3feb: 18           	clc
    3fec: 69 f6        	adc	#$f6
    3fee: a4 cd        	ldy	$cd                     ; 0x20cd <loadGUISID+0xe4>
    3ff0: a6 ce        	ldx	$ce                     ; 0x20ce <loadGUISID+0xe5>
    3ff2: e4 cc        	cpx	$cc                     ; 0x20cc <loadGUISID+0xe3>
    3ff4: d0 0c        	bne	$4002 <printf+0xa38>
    3ff6: 86 14        	stx	$14                     ; 0x2014 <loadGUISID+0x2b>
    3ff8: a6 cb        	ldx	$cb                     ; 0x20cb <loadGUISID+0xe2>
    3ffa: 86 12        	stx	$12                     ; 0x2012 <loadGUISID+0x29>
    3ffc: c4 12        	cpy	$12                     ; 0x2012 <loadGUISID+0x29>
    3ffe: 90 08        	bcc	$4008 <printf+0xa3e>
    4000: 80 31        	bra	$4033 <printf+0xa69>
    4002: 86 14        	stx	$14                     ; 0x2014 <loadGUISID+0x2b>
    4004: e4 cc        	cpx	$cc                     ; 0x20cc <loadGUISID+0xe3>
    4006: b0 2b        	bcs	$4033 <printf+0xa69>
    4008: a6 d8        	ldx	$d8                     ; 0x20d8 <loadGUISID+0xef>
    400a: e4 9b        	cpx	$9b                     ; 0x209b <loadGUISID+0xb2>
    400c: d0 18        	bne	$4026 <printf+0xa5c>
    400e: a6 d7        	ldx	$d7                     ; 0x20d7 <loadGUISID+0xee>
    4010: e4 9a        	cpx	$9a                     ; 0x209a <loadGUISID+0xb1>
    4012: d0 12        	bne	$4026 <printf+0xa5c>
    4014: 18           	clc
    4015: aa           	tax
    4016: 98           	tya
    4017: 65 d1        	adc	$d1                     ; 0x20d1 <loadGUISID+0xe8>
    4019: 85 12        	sta	$12                     ; 0x2012 <loadGUISID+0x29>
    401b: a5 14        	lda	$14                     ; 0x2014 <loadGUISID+0x2b>
    401d: 65 d2        	adc	$d2                     ; 0x20d2 <loadGUISID+0xe9>
    401f: 85 13        	sta	$13                     ; 0x2013 <loadGUISID+0x2a>
    4021: 8a           	txa
    4022: 92 12        	sta	($12)                   ; 0x2012 <loadGUISID+0x29>
    4024: 80 0d        	bra	$4033 <printf+0xa69>
    4026: 85 4c        	sta	$4c                     ; 0x204c <loadGUISID+0x63>
    4028: a2 4c        	ldx	#$4c
    402a: 86 12        	stx	$12                     ; 0x2012 <loadGUISID+0x29>
    402c: a2 00        	ldx	#$0
    402e: 86 13        	stx	$13                     ; 0x2013 <loadGUISID+0x2a>
    4030: 20 b8 29     	jsr	$29b8 <textPrint>
    4033: e6 cd        	inc	$cd                     ; 0x20cd <loadGUISID+0xe4>
    4035: d0 02        	bne	$4039 <printf+0xa6f>
    4037: e6 ce        	inc	$ce                     ; 0x20ce <loadGUISID+0xe5>
    4039: c6 a0        	dec	$a0                     ; 0x20a0 <loadGUISID+0xb7>
    403b: a2 ff        	ldx	#$ff
    403d: c6 98        	dec	$98                     ; 0x2098 <loadGUISID+0xaf>
    403f: e4 98        	cpx	$98                     ; 0x2098 <loadGUISID+0xaf>
    4041: d0 02        	bne	$4045 <printf+0xa7b>
    4043: c6 99        	dec	$99                     ; 0x2099 <loadGUISID+0xb0>
    4045: a5 a0        	lda	$a0                     ; 0x20a0 <loadGUISID+0xb7>
    4047: f0 0e        	beq	$4057 <printf+0xa8d>
    4049: b2 98        	lda	($98)                   ; 0x2098 <loadGUISID+0xaf>
    404b: c9 0a        	cmp	#$a
    404d: 90 03        	bcc	$4052 <printf+0xa88>
    404f: 4c d8 3f     	jmp	$3fd8 <printf+0xa0e>
    4052: 09 30        	ora	#$30
    4054: 4c ee 3f     	jmp	$3fee <printf+0xa24>
    4057: a5 a6        	lda	$a6                     ; 0x20a6 <loadGUISID+0xbd>
    4059: c9 0a        	cmp	#$a
    405b: b0 04        	bcs	$4061 <printf+0xa97>
    405d: 09 30        	ora	#$30
    405f: 80 16        	bra	$4077 <printf+0xaad>
    4061: a8           	tay
    4062: a9 80        	lda	#$80
    4064: 25 c9        	and	$c9                     ; 0x20c9 <loadGUISID+0xe0>
    4066: f0 04        	beq	$406c <printf+0xaa2>
    4068: a2 61        	ldx	#$61
    406a: 80 02        	bra	$406e <printf+0xaa4>
    406c: a2 41        	ldx	#$41
    406e: 86 12        	stx	$12                     ; 0x2012 <loadGUISID+0x29>
    4070: 18           	clc
    4071: 98           	tya
    4072: 65 12        	adc	$12                     ; 0x2012 <loadGUISID+0x29>
    4074: 18           	clc
    4075: 69 f6        	adc	#$f6
    4077: a4 cd        	ldy	$cd                     ; 0x20cd <loadGUISID+0xe4>
    4079: a6 ce        	ldx	$ce                     ; 0x20ce <loadGUISID+0xe5>
    407b: e4 cc        	cpx	$cc                     ; 0x20cc <loadGUISID+0xe3>
    407d: d0 0c        	bne	$408b <printf+0xac1>
    407f: 86 14        	stx	$14                     ; 0x2014 <loadGUISID+0x2b>
    4081: a6 cb        	ldx	$cb                     ; 0x20cb <loadGUISID+0xe2>
    4083: 86 12        	stx	$12                     ; 0x2012 <loadGUISID+0x29>
    4085: c4 12        	cpy	$12                     ; 0x2012 <loadGUISID+0x29>
    4087: 90 08        	bcc	$4091 <printf+0xac7>
    4089: 80 31        	bra	$40bc <printf+0xaf2>
    408b: 86 14        	stx	$14                     ; 0x2014 <loadGUISID+0x2b>
    408d: e4 cc        	cpx	$cc                     ; 0x20cc <loadGUISID+0xe3>
    408f: b0 2b        	bcs	$40bc <printf+0xaf2>
    4091: a6 d8        	ldx	$d8                     ; 0x20d8 <loadGUISID+0xef>
    4093: e4 9b        	cpx	$9b                     ; 0x209b <loadGUISID+0xb2>
    4095: d0 18        	bne	$40af <printf+0xae5>
    4097: a6 d7        	ldx	$d7                     ; 0x20d7 <loadGUISID+0xee>
    4099: e4 9a        	cpx	$9a                     ; 0x209a <loadGUISID+0xb1>
    409b: d0 12        	bne	$40af <printf+0xae5>
    409d: 18           	clc
    409e: aa           	tax
    409f: 98           	tya
    40a0: 65 d1        	adc	$d1                     ; 0x20d1 <loadGUISID+0xe8>
    40a2: 85 12        	sta	$12                     ; 0x2012 <loadGUISID+0x29>
    40a4: a5 14        	lda	$14                     ; 0x2014 <loadGUISID+0x2b>
    40a6: 65 d2        	adc	$d2                     ; 0x20d2 <loadGUISID+0xe9>
    40a8: 85 13        	sta	$13                     ; 0x2013 <loadGUISID+0x2a>
    40aa: 8a           	txa
    40ab: 92 12        	sta	($12)                   ; 0x2012 <loadGUISID+0x29>
    40ad: 80 0d        	bra	$40bc <printf+0xaf2>
    40af: 85 4c        	sta	$4c                     ; 0x204c <loadGUISID+0x63>
    40b1: a2 4c        	ldx	#$4c
    40b3: 86 12        	stx	$12                     ; 0x2012 <loadGUISID+0x29>
    40b5: a2 00        	ldx	#$0
    40b7: 86 13        	stx	$13                     ; 0x2013 <loadGUISID+0x2a>
    40b9: 20 b8 29     	jsr	$29b8 <textPrint>
    40bc: e6 cd        	inc	$cd                     ; 0x20cd <loadGUISID+0xe4>
    40be: d0 02        	bne	$40c2 <printf+0xaf8>
    40c0: e6 ce        	inc	$ce                     ; 0x20ce <loadGUISID+0xe5>
    40c2: a5 c9        	lda	$c9                     ; 0x20c9 <loadGUISID+0xe0>
    40c4: 29 01        	and	#$1
    40c6: d0 1e        	bne	$40e6 <printf+0xb1c>
    40c8: a6 cd        	ldx	$cd                     ; 0x20cd <loadGUISID+0xe4>
    40ca: 86 14        	stx	$14                     ; 0x2014 <loadGUISID+0x2b>
    40cc: a5 ce        	lda	$ce                     ; 0x20ce <loadGUISID+0xe5>
    40ce: a4 cb        	ldy	$cb                     ; 0x20cb <loadGUISID+0xe2>
    40d0: a6 cc        	ldx	$cc                     ; 0x20cc <loadGUISID+0xe3>
    40d2: 86 12        	stx	$12                     ; 0x2012 <loadGUISID+0x29>
    40d4: 86 13        	stx	$13                     ; 0x2013 <loadGUISID+0x2a>
    40d6: c5 12        	cmp	$12                     ; 0x2012 <loadGUISID+0x29>
    40d8: f0 03        	beq	$40dd <printf+0xb13>
    40da: 4c 73 41     	jmp	$4173 <printf+0xba9>
    40dd: 84 12        	sty	$12                     ; 0x2012 <loadGUISID+0x29>
    40df: a6 14        	ldx	$14                     ; 0x2014 <loadGUISID+0x2b>
    40e1: e4 12        	cpx	$12                     ; 0x2012 <loadGUISID+0x29>
    40e3: 4c 77 41     	jmp	$4177 <printf+0xbad>
    40e6: a6 cd        	ldx	$cd                     ; 0x20cd <loadGUISID+0xe4>
    40e8: 86 14        	stx	$14                     ; 0x2014 <loadGUISID+0x2b>
    40ea: a5 ce        	lda	$ce                     ; 0x20ce <loadGUISID+0xe5>
    40ec: a6 a3        	ldx	$a3                     ; 0x20a3 <loadGUISID+0xba>
    40ee: a4 a2        	ldy	$a2                     ; 0x20a2 <loadGUISID+0xb9>
    40f0: f0 03        	beq	$40f5 <printf+0xb2b>
    40f2: 4c 5f 41     	jmp	$415f <printf+0xb95>
    40f5: e0 00        	cpx	#$0
    40f7: f0 d5        	beq	$40ce <printf+0xb04>
    40f9: 4c 5f 41     	jmp	$415f <printf+0xb95>
    40fc: c5 cc        	cmp	$cc                     ; 0x20cc <loadGUISID+0xe3>
    40fe: b0 2e        	bcs	$412e <printf+0xb64>
    4100: a6 d8        	ldx	$d8                     ; 0x20d8 <loadGUISID+0xef>
    4102: e4 9b        	cpx	$9b                     ; 0x209b <loadGUISID+0xb2>
    4104: d0 19        	bne	$411f <printf+0xb55>
    4106: a6 d7        	ldx	$d7                     ; 0x20d7 <loadGUISID+0xee>
    4108: e4 9a        	cpx	$9a                     ; 0x209a <loadGUISID+0xb1>
    410a: d0 13        	bne	$411f <printf+0xb55>
    410c: 18           	clc
    410d: aa           	tax
    410e: a5 14        	lda	$14                     ; 0x2014 <loadGUISID+0x2b>
    4110: 65 d1        	adc	$d1                     ; 0x20d1 <loadGUISID+0xe8>
    4112: 85 12        	sta	$12                     ; 0x2012 <loadGUISID+0x29>
    4114: 8a           	txa
    4115: 65 d2        	adc	$d2                     ; 0x20d2 <loadGUISID+0xe9>
    4117: 85 13        	sta	$13                     ; 0x2013 <loadGUISID+0x2a>
    4119: a9 20        	lda	#$20
    411b: 92 12        	sta	($12)                   ; 0x2012 <loadGUISID+0x29>
    411d: 80 0f        	bra	$412e <printf+0xb64>
    411f: a2 20        	ldx	#$20
    4121: 86 4c        	stx	$4c                     ; 0x204c <loadGUISID+0x63>
    4123: a2 4c        	ldx	#$4c
    4125: 86 12        	stx	$12                     ; 0x2012 <loadGUISID+0x29>
    4127: a2 00        	ldx	#$0
    4129: 86 13        	stx	$13                     ; 0x2013 <loadGUISID+0x2a>
    412b: 20 b8 29     	jsr	$29b8 <textPrint>
    412e: a6 cd        	ldx	$cd                     ; 0x20cd <loadGUISID+0xe4>
    4130: a5 ce        	lda	$ce                     ; 0x20ce <loadGUISID+0xe5>
    4132: e8           	inx
    4133: d0 01        	bne	$4136 <printf+0xb6c>
    4135: 1a           	inc
    4136: 86 14        	stx	$14                     ; 0x2014 <loadGUISID+0x2b>
    4138: 86 cd        	stx	$cd                     ; 0x20cd <loadGUISID+0xe4>
    413a: 85 ce        	sta	$ce                     ; 0x20ce <loadGUISID+0xe5>
    413c: a6 a3        	ldx	$a3                     ; 0x20a3 <loadGUISID+0xba>
    413e: 86 12        	stx	$12                     ; 0x2012 <loadGUISID+0x29>
    4140: a6 a2        	ldx	$a2                     ; 0x20a2 <loadGUISID+0xb9>
    4142: 86 13        	stx	$13                     ; 0x2013 <loadGUISID+0x2a>
    4144: a2 ff        	ldx	#$ff
    4146: c6 12        	dec	$12                     ; 0x2012 <loadGUISID+0x29>
    4148: e4 12        	cpx	$12                     ; 0x2012 <loadGUISID+0x29>
    414a: d0 02        	bne	$414e <printf+0xb84>
    414c: c6 13        	dec	$13                     ; 0x2013 <loadGUISID+0x2a>
    414e: a6 12        	ldx	$12                     ; 0x2012 <loadGUISID+0x29>
    4150: 86 a3        	stx	$a3                     ; 0x20a3 <loadGUISID+0xba>
    4152: a6 13        	ldx	$13                     ; 0x2013 <loadGUISID+0x2a>
    4154: 86 a2        	stx	$a2                     ; 0x20a2 <loadGUISID+0xb9>
    4156: d0 07        	bne	$415f <printf+0xb95>
    4158: a6 12        	ldx	$12                     ; 0x2012 <loadGUISID+0x29>
    415a: d0 03        	bne	$415f <printf+0xb95>
    415c: 4c ce 40     	jmp	$40ce <printf+0xb04>
    415f: c5 cc        	cmp	$cc                     ; 0x20cc <loadGUISID+0xe3>
    4161: f0 03        	beq	$4166 <printf+0xb9c>
    4163: 4c fc 40     	jmp	$40fc <printf+0xb32>
    4166: a6 cb        	ldx	$cb                     ; 0x20cb <loadGUISID+0xe2>
    4168: 86 12        	stx	$12                     ; 0x2012 <loadGUISID+0x29>
    416a: a6 14        	ldx	$14                     ; 0x2014 <loadGUISID+0x2b>
    416c: e4 12        	cpx	$12                     ; 0x2012 <loadGUISID+0x29>
    416e: b0 be        	bcs	$412e <printf+0xb64>
    4170: 4c 00 41     	jmp	$4100 <printf+0xb36>
    4173: 86 12        	stx	$12                     ; 0x2012 <loadGUISID+0x29>
    4175: c5 12        	cmp	$12                     ; 0x2012 <loadGUISID+0x29>
    4177: 98           	tya
    4178: a0 01        	ldy	#$1
    417a: 90 20        	bcc	$419c <printf+0xbd2>
    417c: a6 13        	ldx	$13                     ; 0x2013 <loadGUISID+0x2a>
    417e: d0 03        	bne	$4183 <printf+0xbb9>
    4180: aa           	tax
    4181: f0 19        	beq	$419c <printf+0xbd2>
    4183: 18           	clc
    4184: 65 d1        	adc	$d1                     ; 0x20d1 <loadGUISID+0xe8>
    4186: 85 12        	sta	$12                     ; 0x2012 <loadGUISID+0x29>
    4188: a5 13        	lda	$13                     ; 0x2013 <loadGUISID+0x2a>
    418a: 65 d2        	adc	$d2                     ; 0x20d2 <loadGUISID+0xe9>
    418c: 85 13        	sta	$13                     ; 0x2013 <loadGUISID+0x2a>
    418e: a2 ff        	ldx	#$ff
    4190: c6 12        	dec	$12                     ; 0x2012 <loadGUISID+0x29>
    4192: e4 12        	cpx	$12                     ; 0x2012 <loadGUISID+0x29>
    4194: d0 02        	bne	$4198 <printf+0xbce>
    4196: c6 13        	dec	$13                     ; 0x2013 <loadGUISID+0x2a>
    4198: a9 00        	lda	#$0
    419a: 92 12        	sta	($12)                   ; 0x2012 <loadGUISID+0x29>
    419c: e6 9e        	inc	$9e                     ; 0x209e <loadGUISID+0xb5>
    419e: d0 02        	bne	$41a2 <printf+0xbd8>
    41a0: e6 9f        	inc	$9f                     ; 0x209f <loadGUISID+0xb6>
    41a2: a6 9f        	ldx	$9f                     ; 0x209f <loadGUISID+0xb6>
    41a4: e4 9d        	cpx	$9d                     ; 0x209d <loadGUISID+0xb4>
    41a6: f0 03        	beq	$41ab <printf+0xbe1>
    41a8: 4c 2f 36     	jmp	$362f <printf+0x65>
    41ab: a6 9e        	ldx	$9e                     ; 0x209e <loadGUISID+0xb5>
    41ad: e4 9c        	cpx	$9c                     ; 0x209c <loadGUISID+0xb3>
    41af: f0 03        	beq	$41b4 <printf+0xbea>
    41b1: 4c 2f 36     	jmp	$362f <printf+0x65>
    41b4: b2 9c        	lda	($9c)                   ; 0x209c <loadGUISID+0xb3>
    41b6: a2 00        	ldx	#$0
    41b8: 86 9a        	stx	$9a                     ; 0x209a <loadGUISID+0xb1>
    41ba: a2 00        	ldx	#$0
    41bc: 86 9b        	stx	$9b                     ; 0x209b <loadGUISID+0xb2>
    41be: 4c 43 36     	jmp	$3643 <printf+0x79>
    41c1: e4 a1        	cpx	$a1                     ; 0x20a1 <loadGUISID+0xb8>
    41c3: a6 99        	ldx	$99                     ; 0x2099 <loadGUISID+0xb0>
    41c5: b0 03        	bcs	$41ca <printf+0xc00>
    41c7: 4c 94 3c     	jmp	$3c94 <printf+0x6ca>
    41ca: a5 98        	lda	$98                     ; 0x2098 <loadGUISID+0xaf>
    41cc: 85 a0        	sta	$a0                     ; 0x20a0 <loadGUISID+0xb7>
    41ce: 64 a1        	stz	$a1                     ; 0x20a1 <loadGUISID+0xb8>
    41d0: e6 a0        	inc	$a0                     ; 0x20a0 <loadGUISID+0xb7>
    41d2: f0 03        	beq	$41d7 <printf+0xc0d>
    41d4: 4c 94 3c     	jmp	$3c94 <printf+0x6ca>
    41d7: e6 a1        	inc	$a1                     ; 0x20a1 <loadGUISID+0xb8>
    41d9: 4c 94 3c     	jmp	$3c94 <printf+0x6ca>
    41dc: a2 58        	ldx	#$58
    41de: 86 e2        	stx	$e2                     ; 0x20e2 <loadGUISID+0xf9>
    41e0: a2 01        	ldx	#$1
    41e2: 86 dd        	stx	$dd                     ; 0x20dd <loadGUISID+0xf4>
    41e4: a2 30        	ldx	#$30
    41e6: 86 e1        	stx	$e1                     ; 0x20e1 <loadGUISID+0xf8>
    41e8: a9 02        	lda	#$2
    41ea: a2 00        	ldx	#$0
    41ec: 86 de        	stx	$de                     ; 0x20de <loadGUISID+0xf5>
    41ee: 4c d5 3c     	jmp	$3cd5 <printf+0x70b>
    41f1: 64 a3        	stz	$a3                     ; 0x20a3 <loadGUISID+0xba>
    41f3: 64 a2        	stz	$a2                     ; 0x20a2 <loadGUISID+0xb9>
    41f5: 4c 2d 3f     	jmp	$3f2d <printf+0x963>
    41f8: 60           	rts

000041f9 <malloc>:
    41f9: a8           	tay
    41fa: 8a           	txa
    41fb: a2 00        	ldx	#$0
    41fd: 86 12        	stx	$12                     ; 0x2012 <loadGUISID+0x29>
    41ff: a2 00        	ldx	#$0
    4201: 86 13        	stx	$13                     ; 0x2013 <loadGUISID+0x2a>
    4203: aa           	tax
    4204: d0 07        	bne	$420d <malloc+0x14>
    4206: c0 00        	cpy	#$0
    4208: d0 03        	bne	$420d <malloc+0x14>
    420a: 4c 09 43     	jmp	$4309 <malloc+0x110>
    420d: 84 16        	sty	$16                     ; 0x2016 <loadGUISID+0x2d>
    420f: aa           	tax
    4210: d0 0e        	bne	$4220 <malloc+0x27>
    4212: a6 16        	ldx	$16                     ; 0x2016 <loadGUISID+0x2d>
    4214: e0 07        	cpx	#$7
    4216: b0 0c        	bcs	$4224 <malloc+0x2b>
    4218: a2 08        	ldx	#$8
    421a: 86 7e        	stx	$7e                     ; 0x207e <loadGUISID+0x95>
    421c: a9 00        	lda	#$0
    421e: 80 2f        	bra	$424f <malloc+0x56>
    4220: c9 00        	cmp	#$0
    4222: 90 f4        	bcc	$4218 <malloc+0x1f>
    4224: a8           	tay
    4225: a5 16        	lda	$16                     ; 0x2016 <loadGUISID+0x2d>
    4227: 29 01        	and	#$1
    4229: a2 02        	ldx	#$2
    422b: 64 14        	stz	$14                     ; 0x2014 <loadGUISID+0x2b>
    422d: c9 00        	cmp	#$0
    422f: f0 02        	beq	$4233 <malloc+0x3a>
    4231: a2 03        	ldx	#$3
    4233: 86 15        	stx	$15                     ; 0x2015 <loadGUISID+0x2c>
    4235: 18           	clc
    4236: a5 16        	lda	$16                     ; 0x2016 <loadGUISID+0x2d>
    4238: 65 15        	adc	$15                     ; 0x2015 <loadGUISID+0x2c>
    423a: aa           	tax
    423b: 98           	tya
    423c: 65 14        	adc	$14                     ; 0x2014 <loadGUISID+0x2b>
    423e: 90 03        	bcc	$4243 <malloc+0x4a>
    4240: 4c 09 43     	jmp	$4309 <malloc+0x110>
    4243: 86 7e        	stx	$7e                     ; 0x207e <loadGUISID+0x95>
    4245: a8           	tay
    4246: d0 07        	bne	$424f <malloc+0x56>
    4248: e0 00        	cpx	#$0
    424a: d0 03        	bne	$424f <malloc+0x56>
    424c: 4c 09 43     	jmp	$4309 <malloc+0x110>
    424f: 85 7f        	sta	$7f                     ; 0x207f <loadGUISID+0x96>
    4251: ad dc 4c     	lda	$4cdc                   ; 0x4cdc <_ZN12_GLOBAL__N_111initializedE>
    4254: 29 01        	and	#$1
    4256: d0 2a        	bne	$4282 <malloc+0x89>
    4258: a9 00        	lda	#$0
    425a: a2 10        	ldx	#$10
    425c: a0 e2        	ldy	#$e2
    425e: 84 12        	sty	$12                     ; 0x2012 <loadGUISID+0x29>
    4260: a0 4c        	ldy	#$4c
    4262: 84 13        	sty	$13                     ; 0x2013 <loadGUISID+0x2a>
    4264: 20 28 03     	jsr	$328 <_ZN12_GLOBAL__N_19FreeChunk6insertEPvj>
    4267: a2 00        	ldx	#$0
    4269: 86 12        	stx	$12                     ; 0x2012 <loadGUISID+0x29>
    426b: a2 00        	ldx	#$0
    426d: 86 13        	stx	$13                     ; 0x2013 <loadGUISID+0x2a>
    426f: ae e3 4c     	ldx	$4ce3                   ; 0x4ce3 <__heap_start+0x1>
    4272: a9 fe        	lda	#$fe
    4274: 2d e2 4c     	and	$4ce2                   ; 0x4ce2 <__heap_start>
    4277: 8d e2 4c     	sta	$4ce2                   ; 0x4ce2 <__heap_start>
    427a: 8e e3 4c     	stx	$4ce3                   ; 0x4ce3 <__heap_start+0x1>
    427d: a2 01        	ldx	#$1
    427f: 8e dc 4c     	stx	$4cdc                   ; 0x4cdc <_ZN12_GLOBAL__N_111initializedE>
    4282: ad df 4c     	lda	$4cdf                   ; 0x4cdf <_ZN12_GLOBAL__N_19free_listE>
    4285: ae e0 4c     	ldx	$4ce0                   ; 0x4ce0 <_ZN12_GLOBAL__N_19free_listE+0x1>
    4288: a0 00        	ldy	#$0
    428a: 84 14        	sty	$14                     ; 0x2014 <loadGUISID+0x2b>
    428c: a0 00        	ldy	#$0
    428e: 84 15        	sty	$15                     ; 0x2015 <loadGUISID+0x2c>
    4290: 86 1d        	stx	$1d                     ; 0x201d <loadGUISID+0x34>
    4292: e4 15        	cpx	$15                     ; 0x2015 <loadGUISID+0x2c>
    4294: d0 07        	bne	$429d <malloc+0xa4>
    4296: c5 14        	cmp	$14                     ; 0x2014 <loadGUISID+0x2b>
    4298: d0 03        	bne	$429d <malloc+0xa4>
    429a: 4c 09 43     	jmp	$4309 <malloc+0x110>
    429d: a0 00        	ldy	#$0
    429f: a2 10        	ldx	#$10
    42a1: 85 18        	sta	$18                     ; 0x2018 <loadGUISID+0x2f>
    42a3: 84 14        	sty	$14                     ; 0x2014 <loadGUISID+0x2b>
    42a5: 86 15        	stx	$15                     ; 0x2015 <loadGUISID+0x2c>
    42a7: 18           	clc
    42a8: a9 e2        	lda	#$e2
    42aa: 65 14        	adc	$14                     ; 0x2014 <loadGUISID+0x2b>
    42ac: 85 14        	sta	$14                     ; 0x2014 <loadGUISID+0x2b>
    42ae: a9 4c        	lda	#$4c
    42b0: 65 15        	adc	$15                     ; 0x2015 <loadGUISID+0x2c>
    42b2: a6 14        	ldx	$14                     ; 0x2014 <loadGUISID+0x2b>
    42b4: 86 80        	stx	$80                     ; 0x2080 <loadGUISID+0x97>
    42b6: 85 17        	sta	$17                     ; 0x2017 <loadGUISID+0x2e>
    42b8: a6 18        	ldx	$18                     ; 0x2018 <loadGUISID+0x2f>
    42ba: 86 1c        	stx	$1c                     ; 0x201c <loadGUISID+0x33>
    42bc: a6 18        	ldx	$18                     ; 0x2018 <loadGUISID+0x2f>
    42be: 86 14        	stx	$14                     ; 0x2014 <loadGUISID+0x2b>
    42c0: a6 1d        	ldx	$1d                     ; 0x201d <loadGUISID+0x34>
    42c2: 86 15        	stx	$15                     ; 0x2015 <loadGUISID+0x2c>
    42c4: a0 01        	ldy	#$1
    42c6: a6 7f        	ldx	$7f                     ; 0x207f <loadGUISID+0x96>
    42c8: 86 18        	stx	$18                     ; 0x2018 <loadGUISID+0x2f>
    42ca: b1 14        	lda	($14),y                 ; 0x2014 <loadGUISID+0x2b>
    42cc: 85 19        	sta	$19                     ; 0x2019 <loadGUISID+0x30>
    42ce: aa           	tax
    42cf: a9 fe        	lda	#$fe
    42d1: 32 14        	and	($14)                   ; 0x2014 <loadGUISID+0x2b>
    42d3: 85 1a        	sta	$1a                     ; 0x201a <loadGUISID+0x31>
    42d5: e4 18        	cpx	$18                     ; 0x2018 <loadGUISID+0x2f>
    42d7: d0 0a        	bne	$42e3 <malloc+0xea>
    42d9: a6 7e        	ldx	$7e                     ; 0x207e <loadGUISID+0x95>
    42db: 86 1b        	stx	$1b                     ; 0x201b <loadGUISID+0x32>
    42dd: c5 1b        	cmp	$1b                     ; 0x201b <loadGUISID+0x32>
    42df: b0 29        	bcs	$430a <malloc+0x111>
    42e1: 80 04        	bra	$42e7 <malloc+0xee>
    42e3: e4 18        	cpx	$18                     ; 0x2018 <loadGUISID+0x2f>
    42e5: b0 23        	bcs	$430a <malloc+0x111>
    42e7: a5 14        	lda	$14                     ; 0x2014 <loadGUISID+0x2b>
    42e9: 18           	clc
    42ea: 69 02        	adc	#$2
    42ec: 85 1a        	sta	$1a                     ; 0x201a <loadGUISID+0x31>
    42ee: a5 15        	lda	$15                     ; 0x2015 <loadGUISID+0x2c>
    42f0: 69 00        	adc	#$0
    42f2: 85 1b        	sta	$1b                     ; 0x201b <loadGUISID+0x32>
    42f4: a0 02        	ldy	#$2
    42f6: b1 14        	lda	($14),y                 ; 0x2014 <loadGUISID+0x2b>
    42f8: 85 14        	sta	$14                     ; 0x2014 <loadGUISID+0x2b>
    42fa: 88           	dey
    42fb: b1 1a        	lda	($1a),y                 ; 0x201a <loadGUISID+0x31>
    42fd: 85 15        	sta	$15                     ; 0x2015 <loadGUISID+0x2c>
    42ff: c5 1d        	cmp	$1d                     ; 0x201d <loadGUISID+0x34>
    4301: d0 c7        	bne	$42ca <malloc+0xd1>
    4303: a5 14        	lda	$14                     ; 0x2014 <loadGUISID+0x2b>
    4305: c5 1c        	cmp	$1c                     ; 0x201c <loadGUISID+0x33>
    4307: d0 c1        	bne	$42ca <malloc+0xd1>
    4309: 60           	rts
    430a: ad dd 4c     	lda	$4cdd                   ; 0x4cdd <_ZN12_GLOBAL__N_19free_sizeE>
    430d: ae de 4c     	ldx	$4cde                   ; 0x4cde <_ZN12_GLOBAL__N_19free_sizeE+0x1>
    4310: 86 12        	stx	$12                     ; 0x2012 <loadGUISID+0x29>
    4312: 38           	sec
    4313: e5 1a        	sbc	$1a                     ; 0x201a <loadGUISID+0x31>
    4315: aa           	tax
    4316: a5 12        	lda	$12                     ; 0x2012 <loadGUISID+0x29>
    4318: e5 19        	sbc	$19                     ; 0x2019 <loadGUISID+0x30>
    431a: 85 12        	sta	$12                     ; 0x2012 <loadGUISID+0x29>
    431c: 18           	clc
    431d: 8a           	txa
    431e: 69 02        	adc	#$2
    4320: 85 13        	sta	$13                     ; 0x2013 <loadGUISID+0x2a>
    4322: a5 12        	lda	$12                     ; 0x2012 <loadGUISID+0x29>
    4324: 69 00        	adc	#$0
    4326: a6 13        	ldx	$13                     ; 0x2013 <loadGUISID+0x2a>
    4328: 8e dd 4c     	stx	$4cdd                   ; 0x4cdd <_ZN12_GLOBAL__N_19free_sizeE>
    432b: 8d de 4c     	sta	$4cde                   ; 0x4cde <_ZN12_GLOBAL__N_19free_sizeE+0x1>
    432e: a0 02        	ldy	#$2
    4330: a5 14        	lda	$14                     ; 0x2014 <loadGUISID+0x2b>
    4332: 18           	clc
    4333: 69 02        	adc	#$2
    4335: 85 12        	sta	$12                     ; 0x2012 <loadGUISID+0x29>
    4337: a5 15        	lda	$15                     ; 0x2015 <loadGUISID+0x2c>
    4339: 69 00        	adc	#$0
    433b: 85 13        	sta	$13                     ; 0x2013 <loadGUISID+0x2a>
    433d: b1 14        	lda	($14),y                 ; 0x2014 <loadGUISID+0x2b>
    433f: 85 1e        	sta	$1e                     ; 0x201e <loadGUISID+0x35>
    4341: 88           	dey
    4342: b1 12        	lda	($12),y                 ; 0x2012 <loadGUISID+0x29>
    4344: 85 1f        	sta	$1f                     ; 0x201f <loadGUISID+0x36>
    4346: c5 15        	cmp	$15                     ; 0x2015 <loadGUISID+0x2c>
    4348: d0 15        	bne	$435f <malloc+0x166>
    434a: a5 7f        	lda	$7f                     ; 0x207f <loadGUISID+0x96>
    434c: a6 1e        	ldx	$1e                     ; 0x201e <loadGUISID+0x35>
    434e: e4 14        	cpx	$14                     ; 0x2014 <loadGUISID+0x2b>
    4350: d0 0d        	bne	$435f <malloc+0x166>
    4352: 85 1a        	sta	$1a                     ; 0x201a <loadGUISID+0x31>
    4354: a2 00        	ldx	#$0
    4356: 86 18        	stx	$18                     ; 0x2018 <loadGUISID+0x2f>
    4358: a2 00        	ldx	#$0
    435a: 86 19        	stx	$19                     ; 0x2019 <loadGUISID+0x30>
    435c: 4c d9 43     	jmp	$43d9 <malloc+0x1e0>
    435f: 18           	clc
    4360: a5 14        	lda	$14                     ; 0x2014 <loadGUISID+0x2b>
    4362: 69 04        	adc	#$4
    4364: 85 18        	sta	$18                     ; 0x2018 <loadGUISID+0x2f>
    4366: a5 15        	lda	$15                     ; 0x2015 <loadGUISID+0x2c>
    4368: 69 00        	adc	#$0
    436a: 85 19        	sta	$19                     ; 0x2019 <loadGUISID+0x30>
    436c: a0 04        	ldy	#$4
    436e: b1 14        	lda	($14),y                 ; 0x2014 <loadGUISID+0x2b>
    4370: 85 23        	sta	$23                     ; 0x2023 <loadGUISID+0x3a>
    4372: 18           	clc
    4373: 69 02        	adc	#$2
    4375: 85 1a        	sta	$1a                     ; 0x201a <loadGUISID+0x31>
    4377: a0 01        	ldy	#$1
    4379: b1 18        	lda	($18),y                 ; 0x2018 <loadGUISID+0x2f>
    437b: 85 22        	sta	$22                     ; 0x2022 <loadGUISID+0x39>
    437d: 69 00        	adc	#$0
    437f: a6 1a        	ldx	$1a                     ; 0x201a <loadGUISID+0x31>
    4381: 86 18        	stx	$18                     ; 0x2018 <loadGUISID+0x2f>
    4383: 85 19        	sta	$19                     ; 0x2019 <loadGUISID+0x30>
    4385: a6 23        	ldx	$23                     ; 0x2023 <loadGUISID+0x3a>
    4387: 86 1a        	stx	$1a                     ; 0x201a <loadGUISID+0x31>
    4389: a6 22        	ldx	$22                     ; 0x2022 <loadGUISID+0x39>
    438b: 86 1b        	stx	$1b                     ; 0x201b <loadGUISID+0x32>
    438d: c8           	iny
    438e: a5 1e        	lda	$1e                     ; 0x201e <loadGUISID+0x35>
    4390: 91 1a        	sta	($1a),y                 ; 0x201a <loadGUISID+0x31>
    4392: a5 1f        	lda	$1f                     ; 0x201f <loadGUISID+0x36>
    4394: 88           	dey
    4395: 91 18        	sta	($18),y                 ; 0x2018 <loadGUISID+0x2f>
    4397: 18           	clc
    4398: a5 14        	lda	$14                     ; 0x2014 <loadGUISID+0x2b>
    439a: 69 02        	adc	#$2
    439c: 85 1a        	sta	$1a                     ; 0x201a <loadGUISID+0x31>
    439e: a5 15        	lda	$15                     ; 0x2015 <loadGUISID+0x2c>
    43a0: 69 00        	adc	#$0
    43a2: 85 1b        	sta	$1b                     ; 0x201b <loadGUISID+0x32>
    43a4: c8           	iny
    43a5: b1 14        	lda	($14),y                 ; 0x2014 <loadGUISID+0x2b>
    43a7: 85 18        	sta	$18                     ; 0x2018 <loadGUISID+0x2f>
    43a9: aa           	tax
    43aa: 88           	dey
    43ab: b1 1a        	lda	($1a),y                 ; 0x201a <loadGUISID+0x31>
    43ad: 85 19        	sta	$19                     ; 0x2019 <loadGUISID+0x30>
    43af: 85 16        	sta	$16                     ; 0x2016 <loadGUISID+0x2d>
    43b1: a0 04        	ldy	#$4
    43b3: a5 23        	lda	$23                     ; 0x2023 <loadGUISID+0x3a>
    43b5: 91 18        	sta	($18),y                 ; 0x2018 <loadGUISID+0x2f>
    43b7: 18           	clc
    43b8: 8a           	txa
    43b9: 69 04        	adc	#$4
    43bb: 85 1a        	sta	$1a                     ; 0x201a <loadGUISID+0x31>
    43bd: a5 16        	lda	$16                     ; 0x2016 <loadGUISID+0x2d>
    43bf: 69 00        	adc	#$0
    43c1: 85 1b        	sta	$1b                     ; 0x201b <loadGUISID+0x32>
    43c3: a5 22        	lda	$22                     ; 0x2022 <loadGUISID+0x39>
    43c5: a0 01        	ldy	#$1
    43c7: 91 1a        	sta	($1a),y                 ; 0x201a <loadGUISID+0x31>
    43c9: a5 7f        	lda	$7f                     ; 0x207f <loadGUISID+0x96>
    43cb: 85 1a        	sta	$1a                     ; 0x201a <loadGUISID+0x31>
    43cd: a6 1d        	ldx	$1d                     ; 0x201d <loadGUISID+0x34>
    43cf: e4 15        	cpx	$15                     ; 0x2015 <loadGUISID+0x2c>
    43d1: d0 10        	bne	$43e3 <malloc+0x1ea>
    43d3: a6 1c        	ldx	$1c                     ; 0x201c <loadGUISID+0x33>
    43d5: e4 14        	cpx	$14                     ; 0x2014 <loadGUISID+0x2b>
    43d7: d0 0a        	bne	$43e3 <malloc+0x1ea>
    43d9: a6 18        	ldx	$18                     ; 0x2018 <loadGUISID+0x2f>
    43db: a4 19        	ldy	$19                     ; 0x2019 <loadGUISID+0x30>
    43dd: 8e df 4c     	stx	$4cdf                   ; 0x4cdf <_ZN12_GLOBAL__N_19free_listE>
    43e0: 8c e0 4c     	sty	$4ce0                   ; 0x4ce0 <_ZN12_GLOBAL__N_19free_listE+0x1>
    43e3: a0 01        	ldy	#$1
    43e5: b1 14        	lda	($14),y                 ; 0x2014 <loadGUISID+0x2b>
    43e7: 85 16        	sta	$16                     ; 0x2016 <loadGUISID+0x2d>
    43e9: a9 fe        	lda	#$fe
    43eb: 32 14        	and	($14)                   ; 0x2014 <loadGUISID+0x2b>
    43ed: 38           	sec
    43ee: a6 7e        	ldx	$7e                     ; 0x207e <loadGUISID+0x95>
    43f0: 86 18        	stx	$18                     ; 0x2018 <loadGUISID+0x2f>
    43f2: a8           	tay
    43f3: e5 18        	sbc	$18                     ; 0x2018 <loadGUISID+0x2f>
    43f5: 85 19        	sta	$19                     ; 0x2019 <loadGUISID+0x30>
    43f7: a5 16        	lda	$16                     ; 0x2016 <loadGUISID+0x2d>
    43f9: a6 16        	ldx	$16                     ; 0x2016 <loadGUISID+0x2d>
    43fb: e5 1a        	sbc	$1a                     ; 0x201a <loadGUISID+0x31>
    43fd: f0 03        	beq	$4402 <malloc+0x209>
    43ff: 4c 8d 44     	jmp	$448d <malloc+0x294>
    4402: 85 16        	sta	$16                     ; 0x2016 <loadGUISID+0x2d>
    4404: a5 19        	lda	$19                     ; 0x2019 <loadGUISID+0x30>
    4406: c9 08        	cmp	#$8
    4408: 86 18        	stx	$18                     ; 0x2018 <loadGUISID+0x2f>
    440a: b0 03        	bcs	$440f <malloc+0x216>
    440c: 4c 70 44     	jmp	$4470 <malloc+0x277>
    440f: a6 17        	ldx	$17                     ; 0x2017 <loadGUISID+0x2e>
    4411: 86 85        	stx	$85                     ; 0x2085 <loadGUISID+0x9c>
    4413: a6 80        	ldx	$80                     ; 0x2080 <loadGUISID+0x97>
    4415: 86 80        	stx	$80                     ; 0x2080 <loadGUISID+0x97>
    4417: a6 12        	ldx	$12                     ; 0x2012 <loadGUISID+0x29>
    4419: 86 81        	stx	$81                     ; 0x2081 <loadGUISID+0x98>
    441b: a6 13        	ldx	$13                     ; 0x2013 <loadGUISID+0x2a>
    441d: 86 82        	stx	$82                     ; 0x2082 <loadGUISID+0x99>
    441f: a8           	tay
    4420: 18           	clc
    4421: a5 7e        	lda	$7e                     ; 0x207e <loadGUISID+0x95>
    4423: 85 7e        	sta	$7e                     ; 0x207e <loadGUISID+0x95>
    4425: 65 14        	adc	$14                     ; 0x2014 <loadGUISID+0x2b>
    4427: 85 12        	sta	$12                     ; 0x2012 <loadGUISID+0x29>
    4429: a5 1a        	lda	$1a                     ; 0x201a <loadGUISID+0x31>
    442b: a6 1a        	ldx	$1a                     ; 0x201a <loadGUISID+0x31>
    442d: 86 7f        	stx	$7f                     ; 0x207f <loadGUISID+0x96>
    442f: 65 15        	adc	$15                     ; 0x2015 <loadGUISID+0x2c>
    4431: 85 13        	sta	$13                     ; 0x2013 <loadGUISID+0x2a>
    4433: a6 16        	ldx	$16                     ; 0x2016 <loadGUISID+0x2d>
    4435: 98           	tya
    4436: a4 14        	ldy	$14                     ; 0x2014 <loadGUISID+0x2b>
    4438: 84 83        	sty	$83                     ; 0x2083 <loadGUISID+0x9a>
    443a: a4 15        	ldy	$15                     ; 0x2015 <loadGUISID+0x2c>
    443c: 84 84        	sty	$84                     ; 0x2084 <loadGUISID+0x9b>
    443e: 20 28 03     	jsr	$328 <_ZN12_GLOBAL__N_19FreeChunk6insertEPvj>
    4441: a6 83        	ldx	$83                     ; 0x2083 <loadGUISID+0x9a>
    4443: 86 14        	stx	$14                     ; 0x2014 <loadGUISID+0x2b>
    4445: a6 84        	ldx	$84                     ; 0x2084 <loadGUISID+0x9b>
    4447: 86 15        	stx	$15                     ; 0x2015 <loadGUISID+0x2c>
    4449: a5 7e        	lda	$7e                     ; 0x207e <loadGUISID+0x95>
    444b: 29 fe        	and	#$fe
    444d: 85 12        	sta	$12                     ; 0x2012 <loadGUISID+0x29>
    444f: a0 01        	ldy	#$1
    4451: 98           	tya
    4452: 32 14        	and	($14)                   ; 0x2014 <loadGUISID+0x2b>
    4454: 05 12        	ora	$12                     ; 0x2012 <loadGUISID+0x29>
    4456: 92 14        	sta	($14)                   ; 0x2014 <loadGUISID+0x2b>
    4458: a5 7f        	lda	$7f                     ; 0x207f <loadGUISID+0x96>
    445a: 91 14        	sta	($14),y                 ; 0x2014 <loadGUISID+0x2b>
    445c: a4 12        	ldy	$12                     ; 0x2012 <loadGUISID+0x29>
    445e: 85 18        	sta	$18                     ; 0x2018 <loadGUISID+0x2f>
    4460: a6 81        	ldx	$81                     ; 0x2081 <loadGUISID+0x98>
    4462: 86 12        	stx	$12                     ; 0x2012 <loadGUISID+0x29>
    4464: a6 82        	ldx	$82                     ; 0x2082 <loadGUISID+0x99>
    4466: 86 13        	stx	$13                     ; 0x2013 <loadGUISID+0x2a>
    4468: a6 80        	ldx	$80                     ; 0x2080 <loadGUISID+0x97>
    446a: 86 80        	stx	$80                     ; 0x2080 <loadGUISID+0x97>
    446c: a6 85        	ldx	$85                     ; 0x2085 <loadGUISID+0x9c>
    446e: 86 17        	stx	$17                     ; 0x2017 <loadGUISID+0x2e>
    4470: 18           	clc
    4471: 98           	tya
    4472: 65 14        	adc	$14                     ; 0x2014 <loadGUISID+0x2b>
    4474: 85 16        	sta	$16                     ; 0x2016 <loadGUISID+0x2d>
    4476: a5 15        	lda	$15                     ; 0x2015 <loadGUISID+0x2c>
    4478: 65 18        	adc	$18                     ; 0x2018 <loadGUISID+0x2f>
    447a: 85 15        	sta	$15                     ; 0x2015 <loadGUISID+0x2c>
    447c: c5 17        	cmp	$17                     ; 0x2017 <loadGUISID+0x2e>
    447e: d0 1a        	bne	$449a <malloc+0x2a1>
    4480: a6 80        	ldx	$80                     ; 0x2080 <loadGUISID+0x97>
    4482: 86 14        	stx	$14                     ; 0x2014 <loadGUISID+0x2b>
    4484: a6 16        	ldx	$16                     ; 0x2016 <loadGUISID+0x2d>
    4486: e4 14        	cpx	$14                     ; 0x2014 <loadGUISID+0x2b>
    4488: d0 12        	bne	$449c <malloc+0x2a3>
    448a: 4c 09 43     	jmp	$4309 <malloc+0x110>
    448d: 85 16        	sta	$16                     ; 0x2016 <loadGUISID+0x2d>
    448f: c9 00        	cmp	#$0
    4491: 86 18        	stx	$18                     ; 0x2018 <loadGUISID+0x2f>
    4493: a5 19        	lda	$19                     ; 0x2019 <loadGUISID+0x30>
    4495: 90 d9        	bcc	$4470 <malloc+0x277>
    4497: 4c 0f 44     	jmp	$440f <malloc+0x216>
    449a: a6 16        	ldx	$16                     ; 0x2016 <loadGUISID+0x2d>
    449c: 86 14        	stx	$14                     ; 0x2014 <loadGUISID+0x2b>
    449e: a0 01        	ldy	#$1
    44a0: b1 14        	lda	($14),y                 ; 0x2014 <loadGUISID+0x2b>
    44a2: 85 16        	sta	$16                     ; 0x2016 <loadGUISID+0x2d>
    44a4: a9 fe        	lda	#$fe
    44a6: 32 14        	and	($14)                   ; 0x2014 <loadGUISID+0x2b>
    44a8: 92 14        	sta	($14)                   ; 0x2014 <loadGUISID+0x2b>
    44aa: a5 16        	lda	$16                     ; 0x2016 <loadGUISID+0x2d>
    44ac: 91 14        	sta	($14),y                 ; 0x2014 <loadGUISID+0x2b>
    44ae: 60           	rts

000044af <memcpy>:
    44af: a8           	tay
    44b0: 8a           	txa
    44b1: d0 03        	bne	$44b6 <memcpy+0x7>
    44b3: 98           	tya
    44b4: f0 24        	beq	$44da <memcpy+0x2b>
    44b6: a5 12        	lda	$12                     ; 0x2012 <loadGUISID+0x29>
    44b8: 85 16        	sta	$16                     ; 0x2016 <loadGUISID+0x2d>
    44ba: a5 13        	lda	$13                     ; 0x2013 <loadGUISID+0x2a>
    44bc: 85 17        	sta	$17                     ; 0x2017 <loadGUISID+0x2e>
    44be: b2 14        	lda	($14)                   ; 0x2014 <loadGUISID+0x2b>
    44c0: 92 16        	sta	($16)                   ; 0x2016 <loadGUISID+0x2d>
    44c2: e6 16        	inc	$16                     ; 0x2016 <loadGUISID+0x2d>
    44c4: d0 02        	bne	$44c8 <memcpy+0x19>
    44c6: e6 17        	inc	$17                     ; 0x2017 <loadGUISID+0x2e>
    44c8: e6 14        	inc	$14                     ; 0x2014 <loadGUISID+0x2b>
    44ca: d0 02        	bne	$44ce <memcpy+0x1f>
    44cc: e6 15        	inc	$15                     ; 0x2015 <loadGUISID+0x2c>
    44ce: 88           	dey
    44cf: c0 ff        	cpy	#$ff
    44d1: d0 01        	bne	$44d4 <memcpy+0x25>
    44d3: ca           	dex
    44d4: 8a           	txa
    44d5: d0 e7        	bne	$44be <memcpy+0xf>
    44d7: 98           	tya
    44d8: d0 e4        	bne	$44be <memcpy+0xf>
    44da: 60           	rts

000044db <__memset>:
    44db: a4 14        	ldy	$14                     ; 0x2014 <loadGUISID+0x2b>
    44dd: d0 04        	bne	$44e3 <__memset+0x8>
    44df: e0 00        	cpx	#$0
    44e1: f0 17        	beq	$44fa <__memset+0x1f>
    44e3: 92 12        	sta	($12)                   ; 0x2012 <loadGUISID+0x29>
    44e5: e6 12        	inc	$12                     ; 0x2012 <loadGUISID+0x29>
    44e7: d0 02        	bne	$44eb <__memset+0x10>
    44e9: e6 13        	inc	$13                     ; 0x2013 <loadGUISID+0x2a>
    44eb: ca           	dex
    44ec: e0 ff        	cpx	#$ff
    44ee: d0 02        	bne	$44f2 <__memset+0x17>
    44f0: c6 14        	dec	$14                     ; 0x2014 <loadGUISID+0x2b>
    44f2: a4 14        	ldy	$14                     ; 0x2014 <loadGUISID+0x2b>
    44f4: d0 ed        	bne	$44e3 <__memset+0x8>
    44f6: e0 00        	cpx	#$0
    44f8: d0 e9        	bne	$44e3 <__memset+0x8>
    44fa: 60           	rts

000044fb <__ashlhi3>:
    44fb: 86 13        	stx	$13                     ; 0x2013 <loadGUISID+0x2a>
    44fd: a6 12        	ldx	$12                     ; 0x2012 <loadGUISID+0x29>
    44ff: f0 0a        	beq	$450b <__ashlhi3+0x10>
    4501: a6 12        	ldx	$12                     ; 0x2012 <loadGUISID+0x29>
    4503: ca           	dex
    4504: 0a           	asl
    4505: 26 13        	rol	$13                     ; 0x2013 <loadGUISID+0x2a>
    4507: e0 00        	cpx	#$0
    4509: d0 f8        	bne	$4503 <__ashlhi3+0x8>
    450b: a6 13        	ldx	$13                     ; 0x2013 <loadGUISID+0x2a>
    450d: 60           	rts

0000450e <__mulhi3>:
    450e: a4 13        	ldy	$13                     ; 0x2013 <loadGUISID+0x2a>
    4510: d0 04        	bne	$4516 <__mulhi3+0x8>
    4512: a4 12        	ldy	$12                     ; 0x2012 <loadGUISID+0x29>
    4514: f0 25        	beq	$453b <__mulhi3+0x2d>
    4516: 85 14        	sta	$14                     ; 0x2014 <loadGUISID+0x2b>
    4518: 86 15        	stx	$15                     ; 0x2015 <loadGUISID+0x2c>
    451a: a0 00        	ldy	#$0
    451c: 98           	tya
    451d: 46 13        	lsr	$13                     ; 0x2013 <loadGUISID+0x2a>
    451f: 66 12        	ror	$12                     ; 0x2012 <loadGUISID+0x29>
    4521: 90 09        	bcc	$452c <__mulhi3+0x1e>
    4523: aa           	tax
    4524: 98           	tya
    4525: 18           	clc
    4526: 65 14        	adc	$14                     ; 0x2014 <loadGUISID+0x2b>
    4528: a8           	tay
    4529: 8a           	txa
    452a: 65 15        	adc	$15                     ; 0x2015 <loadGUISID+0x2c>
    452c: 06 14        	asl	$14                     ; 0x2014 <loadGUISID+0x2b>
    452e: 26 15        	rol	$15                     ; 0x2015 <loadGUISID+0x2c>
    4530: a6 13        	ldx	$13                     ; 0x2013 <loadGUISID+0x2a>
    4532: d0 e9        	bne	$451d <__mulhi3+0xf>
    4534: a6 12        	ldx	$12                     ; 0x2012 <loadGUISID+0x29>
    4536: d0 e5        	bne	$451d <__mulhi3+0xf>
    4538: aa           	tax
    4539: 98           	tya
    453a: 60           	rts
    453b: a0 00        	ldy	#$0
    453d: 98           	tya
    453e: 80 f8        	bra	$4538 <__mulhi3+0x2a>

00004540 <__mulsi3>:
    4540: a4 17        	ldy	$17                     ; 0x2017 <loadGUISID+0x2e>
    4542: d0 0f        	bne	$4553 <__mulsi3+0x13>
    4544: a4 16        	ldy	$16                     ; 0x2016 <loadGUISID+0x2d>
    4546: d0 0b        	bne	$4553 <__mulsi3+0x13>
    4548: a4 15        	ldy	$15                     ; 0x2015 <loadGUISID+0x2c>
    454a: d0 07        	bne	$4553 <__mulsi3+0x13>
    454c: a4 14        	ldy	$14                     ; 0x2014 <loadGUISID+0x2b>
    454e: d0 03        	bne	$4553 <__mulsi3+0x13>
    4550: 4c a7 45     	jmp	$45a7 <__mulsi3+0x67>
    4553: 85 18        	sta	$18                     ; 0x2018 <loadGUISID+0x2f>
    4555: 86 19        	stx	$19                     ; 0x2019 <loadGUISID+0x30>
    4557: a0 00        	ldy	#$0
    4559: a2 00        	ldx	#$0
    455b: 64 1a        	stz	$1a                     ; 0x201a <loadGUISID+0x31>
    455d: 98           	tya
    455e: 46 17        	lsr	$17                     ; 0x2017 <loadGUISID+0x2e>
    4560: 66 16        	ror	$16                     ; 0x2016 <loadGUISID+0x2d>
    4562: 66 15        	ror	$15                     ; 0x2015 <loadGUISID+0x2c>
    4564: 66 14        	ror	$14                     ; 0x2014 <loadGUISID+0x2b>
    4566: 90 15        	bcc	$457d <__mulsi3+0x3d>
    4568: 85 1b        	sta	$1b                     ; 0x201b <loadGUISID+0x32>
    456a: 98           	tya
    456b: 18           	clc
    456c: 65 18        	adc	$18                     ; 0x2018 <loadGUISID+0x2f>
    456e: a8           	tay
    456f: 8a           	txa
    4570: 65 19        	adc	$19                     ; 0x2019 <loadGUISID+0x30>
    4572: aa           	tax
    4573: a5 1a        	lda	$1a                     ; 0x201a <loadGUISID+0x31>
    4575: 65 12        	adc	$12                     ; 0x2012 <loadGUISID+0x29>
    4577: 85 1a        	sta	$1a                     ; 0x201a <loadGUISID+0x31>
    4579: a5 1b        	lda	$1b                     ; 0x201b <loadGUISID+0x32>
    457b: 65 13        	adc	$13                     ; 0x2013 <loadGUISID+0x2a>
    457d: 06 18        	asl	$18                     ; 0x2018 <loadGUISID+0x2f>
    457f: 26 19        	rol	$19                     ; 0x2019 <loadGUISID+0x30>
    4581: 26 12        	rol	$12                     ; 0x2012 <loadGUISID+0x29>
    4583: 26 13        	rol	$13                     ; 0x2013 <loadGUISID+0x2a>
    4585: e6 17        	inc	$17                     ; 0x2017 <loadGUISID+0x2e>
    4587: c6 17        	dec	$17                     ; 0x2017 <loadGUISID+0x2e>
    4589: d0 d3        	bne	$455e <__mulsi3+0x1e>
    458b: e6 16        	inc	$16                     ; 0x2016 <loadGUISID+0x2d>
    458d: c6 16        	dec	$16                     ; 0x2016 <loadGUISID+0x2d>
    458f: d0 cd        	bne	$455e <__mulsi3+0x1e>
    4591: e6 15        	inc	$15                     ; 0x2015 <loadGUISID+0x2c>
    4593: c6 15        	dec	$15                     ; 0x2015 <loadGUISID+0x2c>
    4595: d0 c7        	bne	$455e <__mulsi3+0x1e>
    4597: e6 14        	inc	$14                     ; 0x2014 <loadGUISID+0x2b>
    4599: c6 14        	dec	$14                     ; 0x2014 <loadGUISID+0x2b>
    459b: d0 c1        	bne	$455e <__mulsi3+0x1e>
    459d: 5a           	phy
    459e: a4 1a        	ldy	$1a                     ; 0x201a <loadGUISID+0x31>
    45a0: 84 12        	sty	$12                     ; 0x2012 <loadGUISID+0x29>
    45a2: 7a           	ply
    45a3: 85 13        	sta	$13                     ; 0x2013 <loadGUISID+0x2a>
    45a5: 98           	tya
    45a6: 60           	rts
    45a7: a0 00        	ldy	#$0
    45a9: a2 00        	ldx	#$0
    45ab: 64 1a        	stz	$1a                     ; 0x201a <loadGUISID+0x31>
    45ad: 98           	tya
    45ae: 80 ed        	bra	$459d <__mulsi3+0x5d>

000045b0 <__udivhi3>:
    45b0: 64 14        	stz	$14                     ; 0x2014 <loadGUISID+0x2b>
    45b2: a4 13        	ldy	$13                     ; 0x2013 <loadGUISID+0x2a>
    45b4: d0 04        	bne	$45ba <__udivhi3+0xa>
    45b6: a4 12        	ldy	$12                     ; 0x2012 <loadGUISID+0x29>
    45b8: f0 0e        	beq	$45c8 <__udivhi3+0x18>
    45ba: 85 17        	sta	$17                     ; 0x2017 <loadGUISID+0x2e>
    45bc: 8a           	txa
    45bd: e4 13        	cpx	$13                     ; 0x2013 <loadGUISID+0x2a>
    45bf: d0 0e        	bne	$45cf <__udivhi3+0x1f>
    45c1: a5 17        	lda	$17                     ; 0x2017 <loadGUISID+0x2e>
    45c3: c5 12        	cmp	$12                     ; 0x2012 <loadGUISID+0x29>
    45c5: 8a           	txa
    45c6: b0 0b        	bcs	$45d3 <__udivhi3+0x23>
    45c8: a2 00        	ldx	#$0
    45ca: 86 a5        	stx	$a5                     ; 0x20a5 <loadGUISID+0xbc>
    45cc: 4c 6b 46     	jmp	$466b <__udivhi3+0xbb>
    45cf: c5 13        	cmp	$13                     ; 0x2013 <loadGUISID+0x2a>
    45d1: 90 f5        	bcc	$45c8 <__udivhi3+0x18>
    45d3: a2 01        	ldx	#$1
    45d5: 86 a5        	stx	$a5                     ; 0x20a5 <loadGUISID+0xbc>
    45d7: a6 13        	ldx	$13                     ; 0x2013 <loadGUISID+0x2a>
    45d9: 10 03        	bpl	$45de <__udivhi3+0x2e>
    45db: 4c 6b 46     	jmp	$466b <__udivhi3+0xbb>
    45de: a2 00        	ldx	#$0
    45e0: a4 12        	ldy	$12                     ; 0x2012 <loadGUISID+0x29>
    45e2: 84 15        	sty	$15                     ; 0x2015 <loadGUISID+0x2c>
    45e4: a4 13        	ldy	$13                     ; 0x2013 <loadGUISID+0x2a>
    45e6: 84 16        	sty	$16                     ; 0x2016 <loadGUISID+0x2d>
    45e8: 06 15        	asl	$15                     ; 0x2015 <loadGUISID+0x2c>
    45ea: 26 16        	rol	$16                     ; 0x2016 <loadGUISID+0x2d>
    45ec: c5 16        	cmp	$16                     ; 0x2016 <loadGUISID+0x2d>
    45ee: d0 08        	bne	$45f8 <__udivhi3+0x48>
    45f0: a4 17        	ldy	$17                     ; 0x2017 <loadGUISID+0x2e>
    45f2: c4 15        	cpy	$15                     ; 0x2015 <loadGUISID+0x2c>
    45f4: 90 13        	bcc	$4609 <__udivhi3+0x59>
    45f6: 80 04        	bra	$45fc <__udivhi3+0x4c>
    45f8: c5 16        	cmp	$16                     ; 0x2016 <loadGUISID+0x2d>
    45fa: 90 0d        	bcc	$4609 <__udivhi3+0x59>
    45fc: e8           	inx
    45fd: a4 15        	ldy	$15                     ; 0x2015 <loadGUISID+0x2c>
    45ff: 84 12        	sty	$12                     ; 0x2012 <loadGUISID+0x29>
    4601: a4 16        	ldy	$16                     ; 0x2016 <loadGUISID+0x2d>
    4603: 84 13        	sty	$13                     ; 0x2013 <loadGUISID+0x2a>
    4605: 10 e1        	bpl	$45e8 <__udivhi3+0x38>
    4607: 80 08        	bra	$4611 <__udivhi3+0x61>
    4609: a4 12        	ldy	$12                     ; 0x2012 <loadGUISID+0x29>
    460b: 84 15        	sty	$15                     ; 0x2015 <loadGUISID+0x2c>
    460d: a4 13        	ldy	$13                     ; 0x2013 <loadGUISID+0x2a>
    460f: 84 16        	sty	$16                     ; 0x2016 <loadGUISID+0x2d>
    4611: e0 00        	cpx	#$0
    4613: d0 03        	bne	$4618 <__udivhi3+0x68>
    4615: 4c 6b 46     	jmp	$466b <__udivhi3+0xbb>
    4618: 38           	sec
    4619: a8           	tay
    461a: a5 17        	lda	$17                     ; 0x2017 <loadGUISID+0x2e>
    461c: e5 15        	sbc	$15                     ; 0x2015 <loadGUISID+0x2c>
    461e: 85 12        	sta	$12                     ; 0x2012 <loadGUISID+0x29>
    4620: 98           	tya
    4621: e5 16        	sbc	$16                     ; 0x2016 <loadGUISID+0x2d>
    4623: a0 01        	ldy	#$1
    4625: 84 a5        	sty	$a5                     ; 0x20a5 <loadGUISID+0xbc>
    4627: 64 14        	stz	$14                     ; 0x2014 <loadGUISID+0x2b>
    4629: 46 16        	lsr	$16                     ; 0x2016 <loadGUISID+0x2d>
    462b: 66 15        	ror	$15                     ; 0x2015 <loadGUISID+0x2c>
    462d: a4 a5        	ldy	$a5                     ; 0x20a5 <loadGUISID+0xbc>
    462f: 84 13        	sty	$13                     ; 0x2013 <loadGUISID+0x2a>
    4631: 06 13        	asl	$13                     ; 0x2013 <loadGUISID+0x2a>
    4633: a0 01        	ldy	#$1
    4635: b0 02        	bcs	$4639 <__udivhi3+0x89>
    4637: a0 00        	ldy	#$0
    4639: 84 17        	sty	$17                     ; 0x2017 <loadGUISID+0x2e>
    463b: a4 13        	ldy	$13                     ; 0x2013 <loadGUISID+0x2a>
    463d: 84 a5        	sty	$a5                     ; 0x20a5 <loadGUISID+0xbc>
    463f: c5 16        	cmp	$16                     ; 0x2016 <loadGUISID+0x2d>
    4641: d0 22        	bne	$4665 <__udivhi3+0xb5>
    4643: a4 12        	ldy	$12                     ; 0x2012 <loadGUISID+0x29>
    4645: c4 15        	cpy	$15                     ; 0x2015 <loadGUISID+0x2c>
    4647: 90 11        	bcc	$465a <__udivhi3+0xaa>
    4649: a8           	tay
    464a: a5 a5        	lda	$a5                     ; 0x20a5 <loadGUISID+0xbc>
    464c: 09 01        	ora	#$1
    464e: 85 a5        	sta	$a5                     ; 0x20a5 <loadGUISID+0xbc>
    4650: 38           	sec
    4651: a5 12        	lda	$12                     ; 0x2012 <loadGUISID+0x29>
    4653: e5 15        	sbc	$15                     ; 0x2015 <loadGUISID+0x2c>
    4655: 85 12        	sta	$12                     ; 0x2012 <loadGUISID+0x29>
    4657: 98           	tya
    4658: e5 16        	sbc	$16                     ; 0x2016 <loadGUISID+0x2d>
    465a: a4 17        	ldy	$17                     ; 0x2017 <loadGUISID+0x2e>
    465c: c0 01        	cpy	#$1
    465e: 26 14        	rol	$14                     ; 0x2014 <loadGUISID+0x2b>
    4660: ca           	dex
    4661: d0 c6        	bne	$4629 <__udivhi3+0x79>
    4663: 80 06        	bra	$466b <__udivhi3+0xbb>
    4665: c5 16        	cmp	$16                     ; 0x2016 <loadGUISID+0x2d>
    4667: b0 e0        	bcs	$4649 <__udivhi3+0x99>
    4669: 80 ef        	bra	$465a <__udivhi3+0xaa>
    466b: a6 14        	ldx	$14                     ; 0x2014 <loadGUISID+0x2b>
    466d: a5 a5        	lda	$a5                     ; 0x20a5 <loadGUISID+0xbc>
    466f: 60           	rts

00004670 <__udivmodhi4>:
    4670: 86 1a        	stx	$1a                     ; 0x201a <loadGUISID+0x31>
    4672: 64 16        	stz	$16                     ; 0x2016 <loadGUISID+0x2d>
    4674: a4 13        	ldy	$13                     ; 0x2013 <loadGUISID+0x2a>
    4676: d0 04        	bne	$467c <__udivmodhi4+0xc>
    4678: a4 12        	ldy	$12                     ; 0x2012 <loadGUISID+0x29>
    467a: f0 08        	beq	$4684 <__udivmodhi4+0x14>
    467c: e4 13        	cpx	$13                     ; 0x2013 <loadGUISID+0x2a>
    467e: d0 0d        	bne	$468d <__udivmodhi4+0x1d>
    4680: c5 12        	cmp	$12                     ; 0x2012 <loadGUISID+0x29>
    4682: b0 0d        	bcs	$4691 <__udivmodhi4+0x21>
    4684: a6 1a        	ldx	$1a                     ; 0x201a <loadGUISID+0x31>
    4686: 86 12        	stx	$12                     ; 0x2012 <loadGUISID+0x29>
    4688: a2 00        	ldx	#$0
    468a: 4c 35 47     	jmp	$4735 <__udivmodhi4+0xc5>
    468d: e4 13        	cpx	$13                     ; 0x2013 <loadGUISID+0x2a>
    468f: 90 f3        	bcc	$4684 <__udivmodhi4+0x14>
    4691: a6 13        	ldx	$13                     ; 0x2013 <loadGUISID+0x2a>
    4693: 10 03        	bpl	$4698 <__udivmodhi4+0x28>
    4695: 4c 28 47     	jmp	$4728 <__udivmodhi4+0xb8>
    4698: a2 00        	ldx	#$0
    469a: a4 12        	ldy	$12                     ; 0x2012 <loadGUISID+0x29>
    469c: 84 17        	sty	$17                     ; 0x2017 <loadGUISID+0x2e>
    469e: a4 13        	ldy	$13                     ; 0x2013 <loadGUISID+0x2a>
    46a0: 84 18        	sty	$18                     ; 0x2018 <loadGUISID+0x2f>
    46a2: 06 17        	asl	$17                     ; 0x2017 <loadGUISID+0x2e>
    46a4: 26 18        	rol	$18                     ; 0x2018 <loadGUISID+0x2f>
    46a6: a4 1a        	ldy	$1a                     ; 0x201a <loadGUISID+0x31>
    46a8: c4 18        	cpy	$18                     ; 0x2018 <loadGUISID+0x2f>
    46aa: d0 06        	bne	$46b2 <__udivmodhi4+0x42>
    46ac: c5 17        	cmp	$17                     ; 0x2017 <loadGUISID+0x2e>
    46ae: b0 08        	bcs	$46b8 <__udivmodhi4+0x48>
    46b0: 80 13        	bra	$46c5 <__udivmodhi4+0x55>
    46b2: a4 1a        	ldy	$1a                     ; 0x201a <loadGUISID+0x31>
    46b4: c4 18        	cpy	$18                     ; 0x2018 <loadGUISID+0x2f>
    46b6: 90 0d        	bcc	$46c5 <__udivmodhi4+0x55>
    46b8: e8           	inx
    46b9: a4 17        	ldy	$17                     ; 0x2017 <loadGUISID+0x2e>
    46bb: 84 12        	sty	$12                     ; 0x2012 <loadGUISID+0x29>
    46bd: a4 18        	ldy	$18                     ; 0x2018 <loadGUISID+0x2f>
    46bf: 84 13        	sty	$13                     ; 0x2013 <loadGUISID+0x2a>
    46c1: 10 df        	bpl	$46a2 <__udivmodhi4+0x32>
    46c3: 80 08        	bra	$46cd <__udivmodhi4+0x5d>
    46c5: a4 12        	ldy	$12                     ; 0x2012 <loadGUISID+0x29>
    46c7: 84 17        	sty	$17                     ; 0x2017 <loadGUISID+0x2e>
    46c9: a4 13        	ldy	$13                     ; 0x2013 <loadGUISID+0x2a>
    46cb: 84 18        	sty	$18                     ; 0x2018 <loadGUISID+0x2f>
    46cd: 38           	sec
    46ce: e5 17        	sbc	$17                     ; 0x2017 <loadGUISID+0x2e>
    46d0: a8           	tay
    46d1: a5 1a        	lda	$1a                     ; 0x201a <loadGUISID+0x31>
    46d3: e5 18        	sbc	$18                     ; 0x2018 <loadGUISID+0x2f>
    46d5: 85 12        	sta	$12                     ; 0x2012 <loadGUISID+0x29>
    46d7: 8a           	txa
    46d8: d0 03        	bne	$46dd <__udivmodhi4+0x6d>
    46da: 4c 44 47     	jmp	$4744 <__udivmodhi4+0xd4>
    46dd: a9 01        	lda	#$1
    46df: 85 7e        	sta	$7e                     ; 0x207e <loadGUISID+0x95>
    46e1: 64 16        	stz	$16                     ; 0x2016 <loadGUISID+0x2d>
    46e3: 98           	tya
    46e4: 46 18        	lsr	$18                     ; 0x2018 <loadGUISID+0x2f>
    46e6: 66 17        	ror	$17                     ; 0x2017 <loadGUISID+0x2e>
    46e8: a4 7e        	ldy	$7e                     ; 0x207e <loadGUISID+0x95>
    46ea: 84 13        	sty	$13                     ; 0x2013 <loadGUISID+0x2a>
    46ec: 06 13        	asl	$13                     ; 0x2013 <loadGUISID+0x2a>
    46ee: a0 01        	ldy	#$1
    46f0: b0 02        	bcs	$46f4 <__udivmodhi4+0x84>
    46f2: a0 00        	ldy	#$0
    46f4: 84 19        	sty	$19                     ; 0x2019 <loadGUISID+0x30>
    46f6: a4 13        	ldy	$13                     ; 0x2013 <loadGUISID+0x2a>
    46f8: 84 7e        	sty	$7e                     ; 0x207e <loadGUISID+0x95>
    46fa: a4 12        	ldy	$12                     ; 0x2012 <loadGUISID+0x29>
    46fc: c4 18        	cpy	$18                     ; 0x2018 <loadGUISID+0x2f>
    46fe: d0 22        	bne	$4722 <__udivmodhi4+0xb2>
    4700: c5 17        	cmp	$17                     ; 0x2017 <loadGUISID+0x2e>
    4702: 90 13        	bcc	$4717 <__udivmodhi4+0xa7>
    4704: a8           	tay
    4705: a5 7e        	lda	$7e                     ; 0x207e <loadGUISID+0x95>
    4707: 09 01        	ora	#$1
    4709: 85 7e        	sta	$7e                     ; 0x207e <loadGUISID+0x95>
    470b: 38           	sec
    470c: 98           	tya
    470d: e5 17        	sbc	$17                     ; 0x2017 <loadGUISID+0x2e>
    470f: a8           	tay
    4710: a5 12        	lda	$12                     ; 0x2012 <loadGUISID+0x29>
    4712: e5 18        	sbc	$18                     ; 0x2018 <loadGUISID+0x2f>
    4714: 85 12        	sta	$12                     ; 0x2012 <loadGUISID+0x29>
    4716: 98           	tya
    4717: a4 19        	ldy	$19                     ; 0x2019 <loadGUISID+0x30>
    4719: c0 01        	cpy	#$1
    471b: 26 16        	rol	$16                     ; 0x2016 <loadGUISID+0x2d>
    471d: ca           	dex
    471e: d0 c4        	bne	$46e4 <__udivmodhi4+0x74>
    4720: 80 15        	bra	$4737 <__udivmodhi4+0xc7>
    4722: c4 18        	cpy	$18                     ; 0x2018 <loadGUISID+0x2f>
    4724: b0 de        	bcs	$4704 <__udivmodhi4+0x94>
    4726: 80 ef        	bra	$4717 <__udivmodhi4+0xa7>
    4728: 38           	sec
    4729: e5 12        	sbc	$12                     ; 0x2012 <loadGUISID+0x29>
    472b: aa           	tax
    472c: a5 1a        	lda	$1a                     ; 0x201a <loadGUISID+0x31>
    472e: e5 13        	sbc	$13                     ; 0x2013 <loadGUISID+0x2a>
    4730: 85 12        	sta	$12                     ; 0x2012 <loadGUISID+0x29>
    4732: 8a           	txa
    4733: a2 01        	ldx	#$1
    4735: 86 7e        	stx	$7e                     ; 0x207e <loadGUISID+0x95>
    4737: 92 14        	sta	($14)                   ; 0x2014 <loadGUISID+0x2b>
    4739: a0 01        	ldy	#$1
    473b: a5 12        	lda	$12                     ; 0x2012 <loadGUISID+0x29>
    473d: 91 14        	sta	($14),y                 ; 0x2014 <loadGUISID+0x2b>
    473f: a6 16        	ldx	$16                     ; 0x2016 <loadGUISID+0x2d>
    4741: a5 7e        	lda	$7e                     ; 0x207e <loadGUISID+0x95>
    4743: 60           	rts
    4744: a2 01        	ldx	#$1
    4746: 86 7e        	stx	$7e                     ; 0x207e <loadGUISID+0x95>
    4748: 98           	tya
    4749: 80 ec        	bra	$4737 <__udivmodhi4+0xc7>
