
newlines.elf:	file format elf32-mos

SYMBOL TABLE:
00000000 l    df *ABS*	00000000 zero-bss.c
00000000 l    df *ABS*	00000000 zero-zp-bss.c
00000000 l    df *ABS*	00000000 copy-zp-data.c
00000000 l    df *ABS*	00000000 ld-temp.o
00000388 l     F .text	0000017b f256Init
00000063 l     O .zp.bss	00000002 kernelArgs
00000065 l     O .zp.bss	00000007 kernelEventData
00000503 l     F .text	00000173 textReset
00000676 l     F .text	00000156 bitmapReset
00000081 l     O .zp.bss	00000003 _tileSize
00000084 l     O .zp.bss	00000040 _spriteCtl
000000c4 l     O .zp.bss	00000008 _dirStream
00001373 l     O .bss	00000001 kernelError
00000062 l     O .zp.data	00000001 _ccolor
00000060 l     O .zp.data	00000001 _MAX_COL
00000061 l     O .zp.data	00000001 _MAX_ROW
00000030 l     O .zp.data	00000030 textColors
0000006c l     O .zp.bss	00000001 _col
0000006d l     O .zp.bss	00000001 _row
0000007c l     O .zp.bss	00000001 _MAX_X
0000007d l     O .zp.bss	00000001 _MAX_Y
0000007a l     O .zp.bss	00000001 _active
0000007b l     O .zp.bss	00000001 _color
0000006e l     O .zp.bss	0000000c _BITMAP_BASE
0000007e l     O .zp.bss	00000003 _BITMAP_CLUT
000007f0 l     F .text	0000028d f256main
00000a7d l     F .text	000000ed loadGFX
00000dc4 l     F .text	00000449 bitmapLine
0000129b l     F .text	000000a5 __umodhi3
00000b6a l     F .text	0000025a textPrint
00001269 l     F .text	00000032 __mulhi3
0000121b l     F .text	00000002 _Exit
000007cc g     F .text	00000024 main
00000347 g       .text	00000000 __after_main
00000333 g       .text	00000000 __do_init_stack
00000341 g       .text	00000000 __do_copy_zp_data
00000371 g     F .text	00000017 __copy_zp_data
0000033b g       .text	00000000 __do_zero_bss
0000034b g     F .text	00000013 __zero_bss
0000033e g       .text	00000000 __do_zero_zp_bss
0000035e g     F .text	00000013 __zero_zp_bss
0000120d g     F .text	0000000e exit
0000034a g       .text	00000000 _fini
00001249  w    F .text	00000020 __memset
00001000  w      *ABS*	00000000 __heap_default_limit
00001374 g       .noinit	00000000 __heap_start
0000121d  w    F .text	0000002c memcpy
00000010 g       *ABS*	00000000 __rc0
00000012 g       *ABS*	00000000 __rc2
00000014 g       *ABS*	00000000 __rc4
00000016 g       *ABS*	00000000 __rc6
00000018 g       *ABS*	00000000 __rc8
0000001a g       *ABS*	00000000 __rc10
0000001c g       *ABS*	00000000 __rc12
0000001e g       *ABS*	00000000 __rc14
00000020 g       *ABS*	00000000 __rc16
00000022 g       *ABS*	00000000 __rc18
00000024 g       *ABS*	00000000 __rc20
00000026 g       *ABS*	00000000 __rc22
00000028 g       *ABS*	00000000 __rc24
0000002a g       *ABS*	00000000 __rc26
0000002c g       *ABS*	00000000 __rc28
0000002e g       *ABS*	00000000 __rc30
0000002f g       *ABS*	00000000 __rc31
00000300 g       *ABS*	00000000 __f256_start
0000c000 g       *ABS*	00000000 __stack
0000c000 g       *ABS*	00000000 __SLOT_ADDR
0800c000 g       *ABS*	00000000 __block8_lma
00002000 g       *ABS*	00000000 __BLOCK_SIZE
0900c000 g       *ABS*	00000000 __block9_lma
0a00c000 g       *ABS*	00000000 __block10_lma
0b00c000 g       *ABS*	00000000 __block11_lma
0c00c000 g       *ABS*	00000000 __block12_lma
0d00c000 g       *ABS*	00000000 __block13_lma
0e00c000 g       *ABS*	00000000 __block14_lma
0f00c000 g       *ABS*	00000000 __block15_lma
1000c000 g       *ABS*	00000000 __block16_lma
1100c000 g       *ABS*	00000000 __block17_lma
1200c000 g       *ABS*	00000000 __block18_lma
1300c000 g       *ABS*	00000000 __block19_lma
1400c000 g       *ABS*	00000000 __block20_lma
1500c000 g       *ABS*	00000000 __block21_lma
1600c000 g       *ABS*	00000000 __block22_lma
1700c000 g       *ABS*	00000000 __block23_lma
00001373 g       .bss	00000000 __bss_start
00000333 g       .text	00000000 _start
0000002d g       *ABS*	00000000 __rc29
0000002b g       *ABS*	00000000 __rc27
00000029 g       *ABS*	00000000 __rc25
00000027 g       *ABS*	00000000 __rc23
00000025 g       *ABS*	00000000 __rc21
00000023 g       *ABS*	00000000 __rc19
00000021 g       *ABS*	00000000 __rc17
0000001f g       *ABS*	00000000 __rc15
0000001d g       *ABS*	00000000 __rc13
0000001b g       *ABS*	00000000 __rc11
00000019 g       *ABS*	00000000 __rc9
00000017 g       *ABS*	00000000 __rc7
00000015 g       *ABS*	00000000 __rc5
00000013 g       *ABS*	00000000 __rc3
00000011 g       *ABS*	00000000 __rc1
00000030 g       .zp.data	00000000 __zp_data_start
00000300 g       *ABS*	00000000 __zp_data_load_start
00000033 g       *ABS*	00000000 __zp_data_size
00000063 g       .zp.bss	00000000 __zp_bss_start
00000069 g       *ABS*	00000000 __zp_bss_size
00000333 g       .text	00000000 _init
00001340 g       .text	00000000 __init_array_start
00001340 g       .text	00000000 __init_array_end
00001340 g       .text	00000000 __fini_array_start
00001340 g       .text	00000000 __fini_array_end
00001373 g       .data	00000000 __data_start
00001373 g       .data	00000000 __data_end
00001373 g       *ABS*	00000000 __data_load_start
00000000 g       *ABS*	00000000 __data_size
00001374 g       .bss	00000000 __bss_end
00000001 g       *ABS*	00000000 __bss_size
00001374 g       .noinit	00000000 end_block8
00001374 g       .noinit	00000000 end_block9
00001374 g       .noinit	00000000 end_block10
00001374 g       .noinit	00000000 end_block11
00001374 g       .noinit	00000000 end_block12
00001374 g       .noinit	00000000 end_block13
00001374 g       .noinit	00000000 end_block14
00001374 g       .noinit	00000000 end_block15
00001374 g       .noinit	00000000 end_block16
00001374 g       .noinit	00000000 end_block17
00001374 g       .noinit	00000000 end_block18
00001374 g       .noinit	00000000 end_block19
00001374 g       .noinit	00000000 end_block20
00001374 g       .noinit	00000000 end_block21
00001374 g       .noinit	00000000 end_block22
00001374 g       .noinit	00000000 end_block23

Disassembly of section .text:

00000333 <_start>:
     333: a9 00        	lda	#$0
     335: 85 10        	sta	$10                     ; 0x2010 <end_block9+0xc9c>
     337: a9 c0        	lda	#$c0
     339: 85 11        	sta	$11                     ; 0x2011 <end_block9+0xc9d>

0000033b <__do_zero_bss>:
     33b: 20 4b 03     	jsr	$34b <__zero_bss>

0000033e <__do_zero_zp_bss>:
     33e: 20 5e 03     	jsr	$35e <__zero_zp_bss>

00000341 <__do_copy_zp_data>:
     341: 20 71 03     	jsr	$371 <__copy_zp_data>
     344: 20 cc 07     	jsr	$7cc <main>

00000347 <__after_main>:
     347: 4c 0d 12     	jmp	$120d <exit>

0000034a <_fini>:
     34a: 60           	rts

0000034b <__zero_bss>:
     34b: a2 01        	ldx	#$1
     34d: a0 00        	ldy	#$0
     34f: a9 73        	lda	#$73
     351: 85 12        	sta	$12                     ; 0x2012 <end_block9+0xc9e>
     353: a9 13        	lda	#$13
     355: 85 13        	sta	$13                     ; 0x2013 <end_block9+0xc9f>
     357: a9 00        	lda	#$0
     359: 84 14        	sty	$14                     ; 0x2014 <end_block9+0xca0>
     35b: 4c 49 12     	jmp	$1249 <__memset>

0000035e <__zero_zp_bss>:
     35e: a2 69        	ldx	#$69
     360: a0 00        	ldy	#$0
     362: a9 63        	lda	#$63
     364: 85 12        	sta	$12                     ; 0x2012 <end_block9+0xc9e>
     366: a9 00        	lda	#$0
     368: 85 13        	sta	$13                     ; 0x2013 <end_block9+0xc9f>
     36a: a9 00        	lda	#$0
     36c: 84 14        	sty	$14                     ; 0x2014 <end_block9+0xca0>
     36e: 4c 49 12     	jmp	$1249 <__memset>

00000371 <__copy_zp_data>:
     371: a9 33        	lda	#$33
     373: a2 00        	ldx	#$0
     375: a0 30        	ldy	#$30
     377: 84 12        	sty	$12                     ; 0x2012 <end_block9+0xc9e>
     379: a0 00        	ldy	#$0
     37b: 84 13        	sty	$13                     ; 0x2013 <end_block9+0xc9f>
     37d: a0 00        	ldy	#$0
     37f: 84 14        	sty	$14                     ; 0x2014 <end_block9+0xca0>
     381: a0 03        	ldy	#$3
     383: 84 15        	sty	$15                     ; 0x2015 <end_block9+0xca1>
     385: 4c 1d 12     	jmp	$121d <memcpy>

00000388 <f256Init>:
     388: 64 12        	stz	$12                     ; 0x2012 <end_block9+0xc9e>
     38a: 64 01        	stz	$1                      ; 0x2001 <end_block9+0xc8d>
     38c: a2 3f        	ldx	#$3f
     38e: 8e 00 d0     	stx	$d000                   ; 0xd000 <end_block9+0xbc8c>
     391: a2 b3        	ldx	#$b3
     393: 86 00        	stx	$0                      ; 0x2000 <end_block9+0xc8c>
     395: 64 08        	stz	$8                      ; 0x2008 <end_block9+0xc94>
     397: a2 01        	ldx	#$1
     399: 86 09        	stx	$9                      ; 0x2009 <end_block9+0xc95>
     39b: e8           	inx
     39c: 86 0a        	stx	$a                      ; 0x200a <end_block9+0xc96>
     39e: e8           	inx
     39f: 86 0b        	stx	$b                      ; 0x200b <end_block9+0xc97>
     3a1: e8           	inx
     3a2: 86 0c        	stx	$c                      ; 0x200c <end_block9+0xc98>
     3a4: e8           	inx
     3a5: 86 0d        	stx	$d                      ; 0x200d <end_block9+0xc99>
     3a7: a2 f0        	ldx	#$f0
     3a9: 86 63        	stx	$63                     ; 0x2063 <end_block9+0xcef>
     3ab: 64 64        	stz	$64                     ; 0x2064 <end_block9+0xcf0>
     3ad: a2 65        	ldx	#$65
     3af: a0 00        	ldy	#$0
     3b1: 86 f0        	stx	$f0                     ; 0x20f0 <end_block9+0xd7c>
     3b3: 84 f1        	sty	$f1                     ; 0x20f1 <end_block9+0xd7d>
     3b5: a2 00        	ldx	#$0
     3b7: 86 16        	stx	$16                     ; 0x2016 <end_block9+0xca2>
     3b9: ca           	dex
     3ba: 86 17        	stx	$17                     ; 0x2017 <end_block9+0xca3>
     3bc: 8a           	txa
     3bd: 0a           	asl
     3be: 0a           	asl
     3bf: 18           	clc
     3c0: 69 d4        	adc	#$d4
     3c2: 85 18        	sta	$18                     ; 0x2018 <end_block9+0xca4>
     3c4: a0 00        	ldy	#$0
     3c6: 64 15        	stz	$15                     ; 0x2015 <end_block9+0xca1>
     3c8: 64 14        	stz	$14                     ; 0x2014 <end_block9+0xca0>
     3ca: a6 17        	ldx	$17                     ; 0x2017 <end_block9+0xca3>
     3cc: e0 03        	cpx	#$3
     3ce: a6 01        	ldx	$1                      ; 0x2001 <end_block9+0xc8d>
     3d0: 86 1a        	stx	$1a                     ; 0x201a <end_block9+0xca6>
     3d2: a2 d0        	ldx	#$d0
     3d4: 84 19        	sty	$19                     ; 0x2019 <end_block9+0xca5>
     3d6: b0 02        	bcs	$3da <f256Init+0x52>
     3d8: a6 18        	ldx	$18                     ; 0x2018 <end_block9+0xca4>
     3da: 86 13        	stx	$13                     ; 0x2013 <end_block9+0xc9f>
     3dc: a5 15        	lda	$15                     ; 0x2015 <end_block9+0xca1>
     3de: 18           	clc
     3df: 65 12        	adc	$12                     ; 0x2012 <end_block9+0xc9e>
     3e1: a8           	tay
     3e2: a6 15        	ldx	$15                     ; 0x2015 <end_block9+0xca1>
     3e4: a5 14        	lda	$14                     ; 0x2014 <end_block9+0xca0>
     3e6: 85 1b        	sta	$1b                     ; 0x201b <end_block9+0xca7>
     3e8: a5 14        	lda	$14                     ; 0x2014 <end_block9+0xca0>
     3ea: 65 13        	adc	$13                     ; 0x2013 <end_block9+0xc9f>
     3ec: 84 14        	sty	$14                     ; 0x2014 <end_block9+0xca0>
     3ee: a0 01        	ldy	#$1
     3f0: 84 01        	sty	$1                      ; 0x2001 <end_block9+0xc8d>
     3f2: 85 15        	sta	$15                     ; 0x2015 <end_block9+0xca1>
     3f4: a5 19        	lda	$19                     ; 0x2019 <end_block9+0xca5>
     3f6: 92 14        	sta	($14)                   ; 0x2014 <end_block9+0xca0>
     3f8: 91 14        	sta	($14),y                 ; 0x2014 <end_block9+0xca0>
     3fa: c8           	iny
     3fb: 91 14        	sta	($14),y                 ; 0x2014 <end_block9+0xca0>
     3fd: 85 13        	sta	$13                     ; 0x2013 <end_block9+0xc9f>
     3ff: c8           	iny
     400: a9 ff        	lda	#$ff
     402: 91 14        	sta	($14),y                 ; 0x2014 <end_block9+0xca0>
     404: 8a           	txa
     405: a6 1a        	ldx	$1a                     ; 0x201a <end_block9+0xca6>
     407: 86 01        	stx	$1                      ; 0x2001 <end_block9+0xc8d>
     409: 18           	clc
     40a: 69 04        	adc	#$4
     40c: 85 15        	sta	$15                     ; 0x2015 <end_block9+0xca1>
     40e: a5 1b        	lda	$1b                     ; 0x201b <end_block9+0xca7>
     410: 69 00        	adc	#$0
     412: e6 13        	inc	$13                     ; 0x2013 <end_block9+0xc9f>
     414: a4 13        	ldy	$13                     ; 0x2013 <end_block9+0xc9f>
     416: 85 14        	sta	$14                     ; 0x2014 <end_block9+0xca0>
     418: c9 04        	cmp	#$4
     41a: f0 03        	beq	$41f <f256Init+0x97>
     41c: 4c ca 03     	jmp	$3ca <f256Init+0x42>
     41f: a5 15        	lda	$15                     ; 0x2015 <end_block9+0xca1>
     421: f0 03        	beq	$426 <f256Init+0x9e>
     423: 4c ca 03     	jmp	$3ca <f256Init+0x42>
     426: a6 16        	ldx	$16                     ; 0x2016 <end_block9+0xca2>
     428: e8           	inx
     429: e0 04        	cpx	#$4
     42b: f0 03        	beq	$430 <f256Init+0xa8>
     42d: 4c b7 03     	jmp	$3b7 <f256Init+0x2f>
     430: ad 02 d0     	lda	$d002                   ; 0xd002 <end_block9+0xbc8e>
     433: 29 f0        	and	#$f0
     435: 8d 02 d0     	sta	$d002                   ; 0xd002 <end_block9+0xbc8e>
     438: ad 02 d0     	lda	$d002                   ; 0xd002 <end_block9+0xbc8e>
     43b: 29 0f        	and	#$f
     43d: 09 10        	ora	#$10
     43f: 8d 02 d0     	sta	$d002                   ; 0xd002 <end_block9+0xbc8e>
     442: a2 02        	ldx	#$2
     444: 8e 03 d0     	stx	$d003                   ; 0xd003 <end_block9+0xbc8f>
     447: 20 03 05     	jsr	$503 <textReset>
     44a: 20 76 06     	jsr	$676 <bitmapReset>
     44d: a9 10        	lda	#$10
     44f: a2 08        	ldx	#$8
     451: 86 81        	stx	$81                     ; 0x2081 <end_block9+0xd0d>
     453: 86 82        	stx	$82                     ; 0x2082 <end_block9+0xd0e>
     455: 86 83        	stx	$83                     ; 0x2083 <end_block9+0xd0f>
     457: 8d 00 d2     	sta	$d200                   ; 0xd200 <end_block9+0xbe8c>
     45a: a4 82        	ldy	$82                     ; 0x2082 <end_block9+0xd0e>
     45c: aa           	tax
     45d: c0 08        	cpy	#$8
     45f: f0 02        	beq	$463 <f256Init+0xdb>
     461: a2 00        	ldx	#$0
     463: 8e 0c d2     	stx	$d20c                   ; 0xd20c <end_block9+0xbe98>
     466: a6 83        	ldx	$83                     ; 0x2083 <end_block9+0xd0f>
     468: e0 08        	cpx	#$8
     46a: f0 02        	beq	$46e <f256Init+0xe6>
     46c: a9 00        	lda	#$0
     46e: 8d 18 d2     	sta	$d218                   ; 0xd218 <end_block9+0xbea4>
     471: a0 d9        	ldy	#$d9
     473: a2 00        	ldx	#$0
     475: 64 12        	stz	$12                     ; 0x2012 <end_block9+0xc9e>
     477: 84 13        	sty	$13                     ; 0x2013 <end_block9+0xc9f>
     479: b5 84        	lda	$84,x                   ; 0x2084 <end_block9+0xd10>
     47b: 92 12        	sta	($12)                   ; 0x2012 <end_block9+0xc9e>
     47d: e8           	inx
     47e: 18           	clc
     47f: a5 12        	lda	$12                     ; 0x2012 <end_block9+0xc9e>
     481: 69 08        	adc	#$8
     483: 85 12        	sta	$12                     ; 0x2012 <end_block9+0xc9e>
     485: 98           	tya
     486: 69 00        	adc	#$0
     488: a8           	tay
     489: e0 40        	cpx	#$40
     48b: d0 ea        	bne	$477 <f256Init+0xef>
     48d: 64 c4        	stz	$c4                     ; 0x20c4 <end_block9+0xd50>
     48f: 64 c5        	stz	$c5                     ; 0x20c5 <end_block9+0xd51>
     491: 64 c6        	stz	$c6                     ; 0x20c6 <end_block9+0xd52>
     493: 64 c7        	stz	$c7                     ; 0x20c7 <end_block9+0xd53>
     495: 64 c8        	stz	$c8                     ; 0x20c8 <end_block9+0xd54>
     497: 64 c9        	stz	$c9                     ; 0x20c9 <end_block9+0xd55>
     499: 64 ca        	stz	$ca                     ; 0x20ca <end_block9+0xd56>
     49b: 64 cb        	stz	$cb                     ; 0x20cb <end_block9+0xd57>
     49d: a5 63        	lda	$63                     ; 0x2063 <end_block9+0xcef>
     49f: a6 64        	ldx	$64                     ; 0x2064 <end_block9+0xcf0>
     4a1: 85 12        	sta	$12                     ; 0x2012 <end_block9+0xc9e>
     4a3: 86 13        	stx	$13                     ; 0x2013 <end_block9+0xc9f>
     4a5: a0 0b        	ldy	#$b
     4a7: 18           	clc
     4a8: 69 0b        	adc	#$b
     4aa: 85 14        	sta	$14                     ; 0x2014 <end_block9+0xca0>
     4ac: 8a           	txa
     4ad: 69 00        	adc	#$0
     4af: 85 15        	sta	$15                     ; 0x2015 <end_block9+0xca1>
     4b1: a9 cc        	lda	#$cc
     4b3: 91 12        	sta	($12),y                 ; 0x2012 <end_block9+0xc9e>
     4b5: a0 01        	ldy	#$1
     4b7: a9 00        	lda	#$0
     4b9: 91 14        	sta	($14),y                 ; 0x2014 <end_block9+0xca0>
     4bb: a0 0d        	ldy	#$d
     4bd: a9 08        	lda	#$8
     4bf: 91 12        	sta	($12),y                 ; 0x2012 <end_block9+0xc9e>
     4c1: a2 d4        	ldx	#$d4
     4c3: a0 00        	ldy	#$0
     4c5: 86 12        	stx	$12                     ; 0x2012 <end_block9+0xc9e>
     4c7: 84 13        	sty	$13                     ; 0x2013 <end_block9+0xc9f>
     4c9: a2 73        	ldx	#$73
     4cb: 86 14        	stx	$14                     ; 0x2014 <end_block9+0xca0>
     4cd: a2 13        	ldx	#$13
     4cf: 86 15        	stx	$15                     ; 0x2015 <end_block9+0xca1>
     4d1: 20 dc ff     	jsr	$ffdc <end_block9+0xec68>
     4d4: 92 12        	sta	($12)                   ; 0x2012 <end_block9+0xc9e>
     4d6: a9 00        	lda	#$0
     4d8: 6a           	ror
     4d9: 85 14        	sta	$14                     ; 0x2014 <end_block9+0xca0>
     4db: a6 d2        	ldx	$d2                     ; 0x20d2 <end_block9+0xd5e>
     4dd: a4 d3        	ldy	$d3                     ; 0x20d3 <end_block9+0xd5f>
     4df: 8e 00 de     	stx	$de00                   ; 0xde00 <end_block9+0xca8c>
     4e2: 9c 01 de     	stz	$de01                   ; 0xde01 <end_block9+0xca8d>
     4e5: 8c 02 de     	sty	$de02                   ; 0xde02 <end_block9+0xca8e>
     4e8: 9c 03 de     	stz	$de03                   ; 0xde03 <end_block9+0xca8f>
     4eb: ae 10 de     	ldx	$de10                   ; 0xde10 <end_block9+0xca9c>
     4ee: ac 11 de     	ldy	$de11                   ; 0xde11 <end_block9+0xca9d>
     4f1: ad 12 de     	lda	$de12                   ; 0xde12 <end_block9+0xca9e>
     4f4: ad 13 de     	lda	$de13                   ; 0xde13 <end_block9+0xca9f>
     4f7: 8e a4 d6     	stx	$d6a4                   ; 0xd6a4 <end_block9+0xc330>
     4fa: 8c a5 d6     	sty	$d6a5                   ; 0xd6a5 <end_block9+0xc331>
     4fd: a2 03        	ldx	#$3
     4ff: 8e a6 d6     	stx	$d6a6                   ; 0xd6a6 <end_block9+0xc332>
     502: 60           	rts

00000503 <textReset>:
     503: 64 14        	stz	$14                     ; 0x2014 <end_block9+0xca0>
     505: a2 00        	ldx	#$0
     507: 86 12        	stx	$12                     ; 0x2012 <end_block9+0xc9e>
     509: a2 c0        	ldx	#$c0
     50b: 86 13        	stx	$13                     ; 0x2013 <end_block9+0xc9f>
     50d: a2 f0        	ldx	#$f0
     50f: 86 62        	stx	$62                     ; 0x2062 <end_block9+0xcee>
     511: ad 01 d0     	lda	$d001                   ; 0xd001 <end_block9+0xbc8d>
     514: 29 f9        	and	#$f9
     516: 09 04        	ora	#$4
     518: 8d 01 d0     	sta	$d001                   ; 0xd001 <end_block9+0xbc8d>
     51b: a2 50        	ldx	#$50
     51d: 86 60        	stx	$60                     ; 0x2060 <end_block9+0xcec>
     51f: a2 1e        	ldx	#$1e
     521: 86 61        	stx	$61                     ; 0x2061 <end_block9+0xced>
     523: 9c 10 d0     	stz	$d010                   ; 0xd010 <end_block9+0xbc9c>
     526: a0 00        	ldy	#$0
     528: a2 00        	ldx	#$0
     52a: 84 18        	sty	$18                     ; 0x2018 <end_block9+0xca4>
     52c: b9 30 00     	lda	$30,y                   ; 0x30 <textColors>
     52f: 85 1b        	sta	$1b                     ; 0x201b <end_block9+0xca7>
     531: b9 31 00     	lda	$31,y                   ; 0x31 <textColors+0x1>
     534: 85 1c        	sta	$1c                     ; 0x201c <end_block9+0xca8>
     536: b9 32 00     	lda	$32,y                   ; 0x32 <textColors+0x2>
     539: 85 1d        	sta	$1d                     ; 0x201d <end_block9+0xca9>
     53b: 84 1a        	sty	$1a                     ; 0x201a <end_block9+0xca6>
     53d: 8e 00 de     	stx	$de00                   ; 0xde00 <end_block9+0xca8c>
     540: 9c 01 de     	stz	$de01                   ; 0xde01 <end_block9+0xca8d>
     543: a0 04        	ldy	#$4
     545: 8c 02 de     	sty	$de02                   ; 0xde02 <end_block9+0xca8e>
     548: 9c 03 de     	stz	$de03                   ; 0xde03 <end_block9+0xca8f>
     54b: ac 10 de     	ldy	$de10                   ; 0xde10 <end_block9+0xca9c>
     54e: ad 11 de     	lda	$de11                   ; 0xde11 <end_block9+0xca9d>
     551: 85 15        	sta	$15                     ; 0x2015 <end_block9+0xca1>
     553: 18           	clc
     554: 98           	tya
     555: 65 14        	adc	$14                     ; 0x2014 <end_block9+0xca0>
     557: 85 16        	sta	$16                     ; 0x2016 <end_block9+0xca2>
     559: a9 d8        	lda	#$d8
     55b: 65 15        	adc	$15                     ; 0x2015 <end_block9+0xca1>
     55d: 86 19        	stx	$19                     ; 0x2019 <end_block9+0xca5>
     55f: ae 12 de     	ldx	$de12                   ; 0xde12 <end_block9+0xca9e>
     562: ae 13 de     	ldx	$de13                   ; 0xde13 <end_block9+0xca9f>
     565: 85 17        	sta	$17                     ; 0x2017 <end_block9+0xca3>
     567: a5 1d        	lda	$1d                     ; 0x201d <end_block9+0xca9>
     569: 92 16        	sta	($16)                   ; 0x2016 <end_block9+0xca2>
     56b: a0 01        	ldy	#$1
     56d: a5 1c        	lda	$1c                     ; 0x201c <end_block9+0xca8>
     56f: 91 16        	sta	($16),y                 ; 0x2016 <end_block9+0xca2>
     571: c8           	iny
     572: a5 1b        	lda	$1b                     ; 0x201b <end_block9+0xca7>
     574: 91 16        	sta	($16),y                 ; 0x2016 <end_block9+0xca2>
     576: c8           	iny
     577: a9 ff        	lda	#$ff
     579: 91 16        	sta	($16),y                 ; 0x2016 <end_block9+0xca2>
     57b: a6 1a        	ldx	$1a                     ; 0x201a <end_block9+0xca6>
     57d: b4 30        	ldy	$30,x                   ; 0x2030 <end_block9+0xcbc>
     57f: 84 1a        	sty	$1a                     ; 0x201a <end_block9+0xca6>
     581: b4 31        	ldy	$31,x                   ; 0x2031 <end_block9+0xcbd>
     583: 84 1b        	sty	$1b                     ; 0x201b <end_block9+0xca7>
     585: b5 32        	lda	$32,x                   ; 0x2032 <end_block9+0xcbe>
     587: aa           	tax
     588: 86 1c        	stx	$1c                     ; 0x201c <end_block9+0xca8>
     58a: a6 19        	ldx	$19                     ; 0x2019 <end_block9+0xca5>
     58c: 8e 00 de     	stx	$de00                   ; 0xde00 <end_block9+0xca8c>
     58f: 9c 01 de     	stz	$de01                   ; 0xde01 <end_block9+0xca8d>
     592: a2 04        	ldx	#$4
     594: 8e 02 de     	stx	$de02                   ; 0xde02 <end_block9+0xca8e>
     597: 9c 03 de     	stz	$de03                   ; 0xde03 <end_block9+0xca8f>
     59a: ae 10 de     	ldx	$de10                   ; 0xde10 <end_block9+0xca9c>
     59d: 86 15        	stx	$15                     ; 0x2015 <end_block9+0xca1>
     59f: ae 11 de     	ldx	$de11                   ; 0xde11 <end_block9+0xca9d>
     5a2: 86 16        	stx	$16                     ; 0x2016 <end_block9+0xca2>
     5a4: a9 40        	lda	#$40
     5a6: 18           	clc
     5a7: 65 15        	adc	$15                     ; 0x2015 <end_block9+0xca1>
     5a9: aa           	tax
     5aa: a9 d8        	lda	#$d8
     5ac: 65 16        	adc	$16                     ; 0x2016 <end_block9+0xca2>
     5ae: 86 16        	stx	$16                     ; 0x2016 <end_block9+0xca2>
     5b0: ae 12 de     	ldx	$de12                   ; 0xde12 <end_block9+0xca9e>
     5b3: 85 17        	sta	$17                     ; 0x2017 <end_block9+0xca3>
     5b5: ae 13 de     	ldx	$de13                   ; 0xde13 <end_block9+0xca9f>
     5b8: a6 19        	ldx	$19                     ; 0x2019 <end_block9+0xca5>
     5ba: a5 1c        	lda	$1c                     ; 0x201c <end_block9+0xca8>
     5bc: 92 16        	sta	($16)                   ; 0x2016 <end_block9+0xca2>
     5be: a0 01        	ldy	#$1
     5c0: a5 1b        	lda	$1b                     ; 0x201b <end_block9+0xca7>
     5c2: 91 16        	sta	($16),y                 ; 0x2016 <end_block9+0xca2>
     5c4: c8           	iny
     5c5: a5 1a        	lda	$1a                     ; 0x201a <end_block9+0xca6>
     5c7: 91 16        	sta	($16),y                 ; 0x2016 <end_block9+0xca2>
     5c9: a9 ff        	lda	#$ff
     5cb: c8           	iny
     5cc: 91 16        	sta	($16),y                 ; 0x2016 <end_block9+0xca2>
     5ce: e8           	inx
     5cf: 18           	clc
     5d0: a5 18        	lda	$18                     ; 0x2018 <end_block9+0xca4>
     5d2: 69 03        	adc	#$3
     5d4: a8           	tay
     5d5: c9 30        	cmp	#$30
     5d7: f0 03        	beq	$5dc <textReset+0xd9>
     5d9: 4c 2a 05     	jmp	$52a <textReset+0x27>
     5dc: a6 01        	ldx	$1                      ; 0x2001 <end_block9+0xc8d>
     5de: 86 18        	stx	$18                     ; 0x2018 <end_block9+0xca4>
     5e0: a6 60        	ldx	$60                     ; 0x2060 <end_block9+0xcec>
     5e2: a4 61        	ldy	$61                     ; 0x2061 <end_block9+0xced>
     5e4: 8e 00 de     	stx	$de00                   ; 0xde00 <end_block9+0xca8c>
     5e7: 9c 01 de     	stz	$de01                   ; 0xde01 <end_block9+0xca8d>
     5ea: 8c 02 de     	sty	$de02                   ; 0xde02 <end_block9+0xca8e>
     5ed: 9c 03 de     	stz	$de03                   ; 0xde03 <end_block9+0xca8f>
     5f0: ae 10 de     	ldx	$de10                   ; 0xde10 <end_block9+0xca9c>
     5f3: ac 11 de     	ldy	$de11                   ; 0xde11 <end_block9+0xca9d>
     5f6: ad 12 de     	lda	$de12                   ; 0xde12 <end_block9+0xca9e>
     5f9: ad 13 de     	lda	$de13                   ; 0xde13 <end_block9+0xca9f>
     5fc: a9 02        	lda	#$2
     5fe: 85 01        	sta	$1                      ; 0x2001 <end_block9+0xc8d>
     600: e0 01        	cpx	#$1
     602: 98           	tya
     603: e9 00        	sbc	#$0
     605: 50 02        	bvc	$609 <textReset+0x106>
     607: 49 80        	eor	#$80
     609: c9 00        	cmp	#$0
     60b: 30 50        	bmi	$65d <textReset+0x15a>
     60d: a9 20        	lda	#$20
     60f: 86 19        	stx	$19                     ; 0x2019 <end_block9+0xca5>
     611: 86 14        	stx	$14                     ; 0x2014 <end_block9+0xca0>
     613: 84 15        	sty	$15                     ; 0x2015 <end_block9+0xca1>
     615: a2 00        	ldx	#$0
     617: 86 16        	stx	$16                     ; 0x2016 <end_block9+0xca2>
     619: a2 c0        	ldx	#$c0
     61b: 86 17        	stx	$17                     ; 0x2017 <end_block9+0xca3>
     61d: 80 04        	bra	$623 <textReset+0x120>
     61f: a6 15        	ldx	$15                     ; 0x2015 <end_block9+0xca1>
     621: f0 14        	beq	$637 <textReset+0x134>
     623: 92 16        	sta	($16)                   ; 0x2016 <end_block9+0xca2>
     625: e6 16        	inc	$16                     ; 0x2016 <end_block9+0xca2>
     627: d0 02        	bne	$62b <textReset+0x128>
     629: e6 17        	inc	$17                     ; 0x2017 <end_block9+0xca3>
     62b: a2 ff        	ldx	#$ff
     62d: c6 14        	dec	$14                     ; 0x2014 <end_block9+0xca0>
     62f: e4 14        	cpx	$14                     ; 0x2014 <end_block9+0xca0>
     631: d0 ec        	bne	$61f <textReset+0x11c>
     633: c6 15        	dec	$15                     ; 0x2015 <end_block9+0xca1>
     635: 80 e8        	bra	$61f <textReset+0x11c>
     637: a6 14        	ldx	$14                     ; 0x2014 <end_block9+0xca0>
     639: d0 e8        	bne	$623 <textReset+0x120>
     63b: a2 03        	ldx	#$3
     63d: 86 01        	stx	$1                      ; 0x2001 <end_block9+0xc8d>
     63f: a6 19        	ldx	$19                     ; 0x2019 <end_block9+0xca5>
     641: 80 03        	bra	$646 <textReset+0x143>
     643: 98           	tya
     644: f0 12        	beq	$658 <textReset+0x155>
     646: a5 62        	lda	$62                     ; 0x2062 <end_block9+0xcee>
     648: 92 12        	sta	($12)                   ; 0x2012 <end_block9+0xc9e>
     64a: e6 12        	inc	$12                     ; 0x2012 <end_block9+0xc9e>
     64c: d0 02        	bne	$650 <textReset+0x14d>
     64e: e6 13        	inc	$13                     ; 0x2013 <end_block9+0xc9f>
     650: ca           	dex
     651: e0 ff        	cpx	#$ff
     653: d0 ee        	bne	$643 <textReset+0x140>
     655: 88           	dey
     656: 80 eb        	bra	$643 <textReset+0x140>
     658: 8a           	txa
     659: d0 eb        	bne	$646 <textReset+0x143>
     65b: 80 04        	bra	$661 <textReset+0x15e>
     65d: a2 03        	ldx	#$3
     65f: 86 01        	stx	$1                      ; 0x2001 <end_block9+0xc8d>
     661: a6 18        	ldx	$18                     ; 0x2018 <end_block9+0xca4>
     663: 86 01        	stx	$1                      ; 0x2001 <end_block9+0xc8d>
     665: 64 6c        	stz	$6c                     ; 0x206c <end_block9+0xcf8>
     667: 9c 14 d0     	stz	$d014                   ; 0xd014 <end_block9+0xbca0>
     66a: 9c 15 d0     	stz	$d015                   ; 0xd015 <end_block9+0xbca1>
     66d: 64 6d        	stz	$6d                     ; 0x206d <end_block9+0xcf9>
     66f: 9c 16 d0     	stz	$d016                   ; 0xd016 <end_block9+0xbca2>
     672: 9c 17 d0     	stz	$d017                   ; 0xd017 <end_block9+0xbca3>
     675: 60           	rts

00000676 <bitmapReset>:
     676: a2 01        	ldx	#$1
     678: 86 7c        	stx	$7c                     ; 0x207c <end_block9+0xd08>
     67a: 86 7d        	stx	$7d                     ; 0x207d <end_block9+0xd09>
     67c: a0 40        	ldy	#$40
     67e: 8c 00 de     	sty	$de00                   ; 0xde00 <end_block9+0xca8c>
     681: 8e 01 de     	stx	$de01                   ; 0xde01 <end_block9+0xca8d>
     684: a2 f0        	ldx	#$f0
     686: 8e 02 de     	stx	$de02                   ; 0xde02 <end_block9+0xca8e>
     689: 9c 03 de     	stz	$de03                   ; 0xde03 <end_block9+0xca8f>
     68c: ae 10 de     	ldx	$de10                   ; 0xde10 <end_block9+0xca9c>
     68f: 86 17        	stx	$17                     ; 0x2017 <end_block9+0xca3>
     691: ae 11 de     	ldx	$de11                   ; 0xde11 <end_block9+0xca9d>
     694: 86 12        	stx	$12                     ; 0x2012 <end_block9+0xc9e>
     696: ae 12 de     	ldx	$de12                   ; 0xde12 <end_block9+0xca9e>
     699: 86 13        	stx	$13                     ; 0x2013 <end_block9+0xc9f>
     69b: ae 13 de     	ldx	$de13                   ; 0xde13 <end_block9+0xca9f>
     69e: 86 14        	stx	$14                     ; 0x2014 <end_block9+0xca0>
     6a0: 64 7a        	stz	$7a                     ; 0x207a <end_block9+0xd06>
     6a2: a2 ff        	ldx	#$ff
     6a4: 86 7b        	stx	$7b                     ; 0x207b <end_block9+0xd07>
     6a6: a6 12        	ldx	$12                     ; 0x2012 <end_block9+0xc9e>
     6a8: 86 15        	stx	$15                     ; 0x2015 <end_block9+0xca1>
     6aa: 06 15        	asl	$15                     ; 0x2015 <end_block9+0xca1>
     6ac: a5 13        	lda	$13                     ; 0x2013 <end_block9+0xc9f>
     6ae: 2a           	rol
     6af: a6 14        	ldx	$14                     ; 0x2014 <end_block9+0xca0>
     6b1: 86 16        	stx	$16                     ; 0x2016 <end_block9+0xca2>
     6b3: 26 16        	rol	$16                     ; 0x2016 <end_block9+0xca2>
     6b5: 06 15        	asl	$15                     ; 0x2015 <end_block9+0xca1>
     6b7: 2a           	rol
     6b8: 26 16        	rol	$16                     ; 0x2016 <end_block9+0xca2>
     6ba: 06 15        	asl	$15                     ; 0x2015 <end_block9+0xca1>
     6bc: 2a           	rol
     6bd: 26 16        	rol	$16                     ; 0x2016 <end_block9+0xca2>
     6bf: 85 15        	sta	$15                     ; 0x2015 <end_block9+0xca1>
     6c1: 8d 00 de     	sta	$de00                   ; 0xde00 <end_block9+0xca8c>
     6c4: a5 16        	lda	$16                     ; 0x2016 <end_block9+0xca2>
     6c6: 8d 01 de     	sta	$de01                   ; 0xde01 <end_block9+0xca8d>
     6c9: 9c 02 de     	stz	$de02                   ; 0xde02 <end_block9+0xca8e>
     6cc: a2 20        	ldx	#$20
     6ce: 8e 03 de     	stx	$de03                   ; 0xde03 <end_block9+0xca8f>
     6d1: ae 10 de     	ldx	$de10                   ; 0xde10 <end_block9+0xca9c>
     6d4: 86 16        	stx	$16                     ; 0x2016 <end_block9+0xca2>
     6d6: ae 11 de     	ldx	$de11                   ; 0xde11 <end_block9+0xca9d>
     6d9: 86 18        	stx	$18                     ; 0x2018 <end_block9+0xca4>
     6db: ac 12 de     	ldy	$de12                   ; 0xde12 <end_block9+0xca9e>
     6de: ae 13 de     	ldx	$de13                   ; 0xde13 <end_block9+0xca9f>
     6e1: e4 14        	cpx	$14                     ; 0x2014 <end_block9+0xca0>
     6e3: d0 14        	bne	$6f9 <bitmapReset+0x83>
     6e5: c4 13        	cpy	$13                     ; 0x2013 <end_block9+0xc9f>
     6e7: d0 10        	bne	$6f9 <bitmapReset+0x83>
     6e9: a6 18        	ldx	$18                     ; 0x2018 <end_block9+0xca4>
     6eb: e4 12        	cpx	$12                     ; 0x2012 <end_block9+0xc9e>
     6ed: d0 0a        	bne	$6f9 <bitmapReset+0x83>
     6ef: a6 16        	ldx	$16                     ; 0x2016 <end_block9+0xca2>
     6f1: e4 17        	cpx	$17                     ; 0x2017 <end_block9+0xca3>
     6f3: d0 04        	bne	$6f9 <bitmapReset+0x83>
     6f5: a6 15        	ldx	$15                     ; 0x2015 <end_block9+0xca1>
     6f7: 80 06        	bra	$6ff <bitmapReset+0x89>
     6f9: a6 15        	ldx	$15                     ; 0x2015 <end_block9+0xca1>
     6fb: e8           	inx
     6fc: d0 01        	bne	$6ff <bitmapReset+0x89>
     6fe: 1a           	inc
     6ff: 8e 00 de     	stx	$de00                   ; 0xde00 <end_block9+0xca8c>
     702: 8d 01 de     	sta	$de01                   ; 0xde01 <end_block9+0xca8d>
     705: 9c 02 de     	stz	$de02                   ; 0xde02 <end_block9+0xca8e>
     708: a2 20        	ldx	#$20
     70a: 8e 03 de     	stx	$de03                   ; 0xde03 <end_block9+0xca8f>
     70d: ae 10 de     	ldx	$de10                   ; 0xde10 <end_block9+0xca9c>
     710: 86 12        	stx	$12                     ; 0x2012 <end_block9+0xc9e>
     712: ae 11 de     	ldx	$de11                   ; 0xde11 <end_block9+0xca9d>
     715: 86 13        	stx	$13                     ; 0x2013 <end_block9+0xc9f>
     717: ae 12 de     	ldx	$de12                   ; 0xde12 <end_block9+0xca9e>
     71a: 86 14        	stx	$14                     ; 0x2014 <end_block9+0xca0>
     71c: ae 13 de     	ldx	$de13                   ; 0xde13 <end_block9+0xca9f>
     71f: 86 15        	stx	$15                     ; 0x2015 <end_block9+0xca1>
     721: a9 00        	lda	#$0
     723: 38           	sec
     724: e5 12        	sbc	$12                     ; 0x2012 <end_block9+0xc9e>
     726: 85 1a        	sta	$1a                     ; 0x201a <end_block9+0xca6>
     728: a9 00        	lda	#$0
     72a: e5 13        	sbc	$13                     ; 0x2013 <end_block9+0xc9f>
     72c: 85 18        	sta	$18                     ; 0x2018 <end_block9+0xca4>
     72e: a9 08        	lda	#$8
     730: e5 14        	sbc	$14                     ; 0x2014 <end_block9+0xca0>
     732: a8           	tay
     733: a9 00        	lda	#$0
     735: e5 15        	sbc	$15                     ; 0x2015 <end_block9+0xca1>
     737: 85 16        	sta	$16                     ; 0x2016 <end_block9+0xca2>
     739: a6 18        	ldx	$18                     ; 0x2018 <end_block9+0xca4>
     73b: 86 6f        	stx	$6f                     ; 0x206f <end_block9+0xcfb>
     73d: 84 70        	sty	$70                     ; 0x2070 <end_block9+0xcfc>
     73f: 85 71        	sta	$71                     ; 0x2071 <end_block9+0xcfd>
     741: a5 1a        	lda	$1a                     ; 0x201a <end_block9+0xca6>
     743: 38           	sec
     744: e5 12        	sbc	$12                     ; 0x2012 <end_block9+0xc9e>
     746: 85 17        	sta	$17                     ; 0x2017 <end_block9+0xca3>
     748: a5 18        	lda	$18                     ; 0x2018 <end_block9+0xca4>
     74a: e5 13        	sbc	$13                     ; 0x2013 <end_block9+0xc9f>
     74c: 85 18        	sta	$18                     ; 0x2018 <end_block9+0xca4>
     74e: 98           	tya
     74f: e5 14        	sbc	$14                     ; 0x2014 <end_block9+0xca0>
     751: 85 19        	sta	$19                     ; 0x2019 <end_block9+0xca5>
     753: a5 16        	lda	$16                     ; 0x2016 <end_block9+0xca2>
     755: e5 15        	sbc	$15                     ; 0x2015 <end_block9+0xca1>
     757: 85 16        	sta	$16                     ; 0x2016 <end_block9+0xca2>
     759: 38           	sec
     75a: a6 17        	ldx	$17                     ; 0x2017 <end_block9+0xca3>
     75c: 86 72        	stx	$72                     ; 0x2072 <end_block9+0xcfe>
     75e: a4 18        	ldy	$18                     ; 0x2018 <end_block9+0xca4>
     760: 84 73        	sty	$73                     ; 0x2073 <end_block9+0xcff>
     762: a6 19        	ldx	$19                     ; 0x2019 <end_block9+0xca5>
     764: 86 74        	stx	$74                     ; 0x2074 <end_block9+0xd00>
     766: 85 75        	sta	$75                     ; 0x2075 <end_block9+0xd01>
     768: a5 17        	lda	$17                     ; 0x2017 <end_block9+0xca3>
     76a: e5 12        	sbc	$12                     ; 0x2012 <end_block9+0xc9e>
     76c: 85 17        	sta	$17                     ; 0x2017 <end_block9+0xca3>
     76e: a5 18        	lda	$18                     ; 0x2018 <end_block9+0xca4>
     770: e5 13        	sbc	$13                     ; 0x2013 <end_block9+0xc9f>
     772: aa           	tax
     773: a5 19        	lda	$19                     ; 0x2019 <end_block9+0xca5>
     775: e5 14        	sbc	$14                     ; 0x2014 <end_block9+0xca0>
     777: 85 13        	sta	$13                     ; 0x2013 <end_block9+0xc9f>
     779: a5 16        	lda	$16                     ; 0x2016 <end_block9+0xca2>
     77b: e5 15        	sbc	$15                     ; 0x2015 <end_block9+0xca1>
     77d: 85 12        	sta	$12                     ; 0x2012 <end_block9+0xc9e>
     77f: a5 17        	lda	$17                     ; 0x2017 <end_block9+0xca3>
     781: 85 76        	sta	$76                     ; 0x2076 <end_block9+0xd02>
     783: 86 77        	stx	$77                     ; 0x2077 <end_block9+0xd03>
     785: a6 13        	ldx	$13                     ; 0x2013 <end_block9+0xc9f>
     787: 86 78        	stx	$78                     ; 0x2078 <end_block9+0xd04>
     789: a6 12        	ldx	$12                     ; 0x2012 <end_block9+0xc9e>
     78b: 86 79        	stx	$79                     ; 0x2079 <end_block9+0xd05>
     78d: a6 1a        	ldx	$1a                     ; 0x201a <end_block9+0xca6>
     78f: 86 6e        	stx	$6e                     ; 0x206e <end_block9+0xcfa>
     791: 64 7e        	stz	$7e                     ; 0x207e <end_block9+0xd0a>
     793: 64 7f        	stz	$7f                     ; 0x207f <end_block9+0xd0b>
     795: 64 80        	stz	$80                     ; 0x2080 <end_block9+0xd0c>
     797: 8e 01 d1     	stx	$d101                   ; 0xd101 <end_block9+0xbd8d>
     79a: a6 6f        	ldx	$6f                     ; 0x206f <end_block9+0xcfb>
     79c: 8e 02 d1     	stx	$d102                   ; 0xd102 <end_block9+0xbd8e>
     79f: a6 70        	ldx	$70                     ; 0x2070 <end_block9+0xcfc>
     7a1: 8e 03 d1     	stx	$d103                   ; 0xd103 <end_block9+0xbd8f>
     7a4: a6 72        	ldx	$72                     ; 0x2072 <end_block9+0xcfe>
     7a6: 8e 09 d1     	stx	$d109                   ; 0xd109 <end_block9+0xbd95>
     7a9: a6 73        	ldx	$73                     ; 0x2073 <end_block9+0xcff>
     7ab: 8e 0a d1     	stx	$d10a                   ; 0xd10a <end_block9+0xbd96>
     7ae: a6 74        	ldx	$74                     ; 0x2074 <end_block9+0xd00>
     7b0: 8e 0b d1     	stx	$d10b                   ; 0xd10b <end_block9+0xbd97>
     7b3: a6 76        	ldx	$76                     ; 0x2076 <end_block9+0xd02>
     7b5: 8e 11 d1     	stx	$d111                   ; 0xd111 <end_block9+0xbd9d>
     7b8: a6 77        	ldx	$77                     ; 0x2077 <end_block9+0xd03>
     7ba: 8e 12 d1     	stx	$d112                   ; 0xd112 <end_block9+0xbd9e>
     7bd: a6 78        	ldx	$78                     ; 0x2078 <end_block9+0xd04>
     7bf: 8e 13 d1     	stx	$d113                   ; 0xd113 <end_block9+0xbd9f>
     7c2: 9c 00 d1     	stz	$d100                   ; 0xd100 <end_block9+0xbd8c>
     7c5: 9c 08 d1     	stz	$d108                   ; 0xd108 <end_block9+0xbd94>
     7c8: 9c 10 d1     	stz	$d110                   ; 0xd110 <end_block9+0xbd9c>
     7cb: 60           	rts

000007cc <main>:
     7cc: 20 88 03     	jsr	$388 <f256Init>
     7cf: 20 f0 07     	jsr	$7f0 <f256main>
     7d2: 78           	sei
     7d3: a2 07        	ldx	#$7
     7d5: 86 0f        	stx	$f                      ; 0x200f <end_block9+0xc9b>
     7d7: a2 de        	ldx	#$de
     7d9: 8e a2 d6     	stx	$d6a2                   ; 0xd6a2 <end_block9+0xc32e>
     7dc: a2 ad        	ldx	#$ad
     7de: 8e a3 d6     	stx	$d6a3                   ; 0xd6a3 <end_block9+0xc32f>
     7e1: a2 f0        	ldx	#$f0
     7e3: 8e a0 d6     	stx	$d6a0                   ; 0xd6a0 <end_block9+0xc32c>
     7e6: 9c a0 d6     	stz	$d6a0                   ; 0xd6a0 <end_block9+0xc32c>
     7e9: 6c fc ff     	jmp	($fffc)                 ; 0xfffc <end_block9+0xec88>
     7ec: a2 00        	ldx	#$0
     7ee: 8a           	txa
     7ef: 60           	rts

000007f0 <f256main>:
     7f0: 18           	clc
     7f1: a5 10        	lda	$10                     ; 0x2010 <end_block9+0xc9c>
     7f3: 69 f6        	adc	#$f6
     7f5: 85 10        	sta	$10                     ; 0x2010 <end_block9+0xc9c>
     7f7: a5 11        	lda	$11                     ; 0x2011 <end_block9+0xc9d>
     7f9: 69 ff        	adc	#$ff
     7fb: 85 11        	sta	$11                     ; 0x2011 <end_block9+0xc9d>
     7fd: a6 24        	ldx	$24                     ; 0x2024 <end_block9+0xcb0>
     7ff: da           	phx
     800: a6 25        	ldx	$25                     ; 0x2025 <end_block9+0xcb1>
     802: da           	phx
     803: a6 26        	ldx	$26                     ; 0x2026 <end_block9+0xcb2>
     805: da           	phx
     806: a6 27        	ldx	$27                     ; 0x2027 <end_block9+0xcb3>
     808: da           	phx
     809: a5 28        	lda	$28                     ; 0x2028 <end_block9+0xcb4>
     80b: a0 07        	ldy	#$7
     80d: 91 10        	sta	($10),y                 ; 0x2010 <end_block9+0xc9c>
     80f: a5 29        	lda	$29                     ; 0x2029 <end_block9+0xcb5>
     811: 88           	dey
     812: 91 10        	sta	($10),y                 ; 0x2010 <end_block9+0xc9c>
     814: a5 2a        	lda	$2a                     ; 0x202a <end_block9+0xcb6>
     816: 88           	dey
     817: 91 10        	sta	($10),y                 ; 0x2010 <end_block9+0xc9c>
     819: a5 2b        	lda	$2b                     ; 0x202b <end_block9+0xcb7>
     81b: 88           	dey
     81c: 91 10        	sta	($10),y                 ; 0x2010 <end_block9+0xc9c>
     81e: a5 2c        	lda	$2c                     ; 0x202c <end_block9+0xcb8>
     820: 88           	dey
     821: 91 10        	sta	($10),y                 ; 0x2010 <end_block9+0xc9c>
     823: a5 2d        	lda	$2d                     ; 0x202d <end_block9+0xcb9>
     825: 88           	dey
     826: 91 10        	sta	($10),y                 ; 0x2010 <end_block9+0xc9c>
     828: a5 2e        	lda	$2e                     ; 0x202e <end_block9+0xcba>
     82a: 88           	dey
     82b: 91 10        	sta	($10),y                 ; 0x2010 <end_block9+0xc9c>
     82d: a5 2f        	lda	$2f                     ; 0x202f <end_block9+0xcbb>
     82f: 88           	dey
     830: 91 10        	sta	($10),y                 ; 0x2010 <end_block9+0xc9c>
     832: 64 01        	stz	$1                      ; 0x2001 <end_block9+0xc8d>
     834: a2 0f        	ldx	#$f
     836: 8e 00 d0     	stx	$d000                   ; 0xd000 <end_block9+0xbc8c>
     839: a2 15        	ldx	#$15
     83b: 8e 01 d0     	stx	$d001                   ; 0xd001 <end_block9+0xbc8d>
     83e: 9c 0d d0     	stz	$d00d                   ; 0xd00d <end_block9+0xbc99>
     841: 9c 0e d0     	stz	$d00e                   ; 0xd00e <end_block9+0xbc9a>
     844: 9c 0f d0     	stz	$d00f                   ; 0xd00f <end_block9+0xbc9b>
     847: 20 7d 0a     	jsr	$a7d <loadGFX>
     84a: a5 00        	lda	$0                      ; 0x2000 <end_block9+0xc8c>
     84c: a6 01        	ldx	$1                      ; 0x2001 <end_block9+0xc8d>
     84e: 09 04        	ora	#$4
     850: 85 00        	sta	$0                      ; 0x2000 <end_block9+0xc8c>
     852: 86 01        	stx	$1                      ; 0x2001 <end_block9+0xc8d>
     854: 18           	clc
     855: a5 10        	lda	$10                     ; 0x2010 <end_block9+0xc9c>
     857: 69 09        	adc	#$9
     859: 85 26        	sta	$26                     ; 0x2026 <end_block9+0xcb2>
     85b: a5 11        	lda	$11                     ; 0x2011 <end_block9+0xc9d>
     85d: 69 00        	adc	#$0
     85f: 85 27        	sta	$27                     ; 0x2027 <end_block9+0xcb3>
     861: a2 73        	ldx	#$73
     863: 86 28        	stx	$28                     ; 0x2028 <end_block9+0xcb4>
     865: a2 13        	ldx	#$13
     867: 86 29        	stx	$29                     ; 0x2029 <end_block9+0xcb5>
     869: a0 01        	ldy	#$1
     86b: 64 12        	stz	$12                     ; 0x2012 <end_block9+0xc9e>
     86d: a9 00        	lda	#$0
     86f: 5a           	phy
     870: a0 08        	ldy	#$8
     872: 91 10        	sta	($10),y                 ; 0x2010 <end_block9+0xc9c>
     874: 7a           	ply
     875: 80 1f        	bra	$896 <f256main+0xa6>
     877: a6 2d        	ldx	$2d                     ; 0x202d <end_block9+0xcb9>
     879: 86 7b        	stx	$7b                     ; 0x207b <end_block9+0xd07>
     87b: a6 2f        	ldx	$2f                     ; 0x202f <end_block9+0xcbb>
     87d: 86 12        	stx	$12                     ; 0x2012 <end_block9+0xc9e>
     87f: a6 24        	ldx	$24                     ; 0x2024 <end_block9+0xcb0>
     881: 86 13        	stx	$13                     ; 0x2013 <end_block9+0xc9f>
     883: a6 2c        	ldx	$2c                     ; 0x202c <end_block9+0xcb8>
     885: 86 14        	stx	$14                     ; 0x2014 <end_block9+0xca0>
     887: a6 2b        	ldx	$2b                     ; 0x202b <end_block9+0xcb7>
     889: 86 15        	stx	$15                     ; 0x2015 <end_block9+0xca1>
     88b: 85 16        	sta	$16                     ; 0x2016 <end_block9+0xca2>
     88d: a6 2a        	ldx	$2a                     ; 0x202a <end_block9+0xcb6>
     88f: a5 25        	lda	$25                     ; 0x2025 <end_block9+0xcb1>
     891: 20 c4 0d     	jsr	$dc4 <bitmapLine>
     894: a0 01        	ldy	#$1
     896: 64 65        	stz	$65                     ; 0x2065 <end_block9+0xcf1>
     898: 20 00 ff     	jsr	$ff00 <end_block9+0xeb8c>
     89b: 92 26        	sta	($26)                   ; 0x2026 <end_block9+0xcb2>
     89d: a9 00        	lda	#$0
     89f: 6a           	ror
     8a0: 85 28        	sta	$28                     ; 0x2028 <end_block9+0xcb4>
     8a2: a6 65        	ldx	$65                     ; 0x2065 <end_block9+0xcf1>
     8a4: e0 08        	cpx	#$8
     8a6: d0 10        	bne	$8b8 <f256main+0xc8>
     8a8: a6 69        	ldx	$69                     ; 0x2069 <end_block9+0xcf5>
     8aa: e0 81        	cpx	#$81
     8ac: d0 03        	bne	$8b1 <f256main+0xc1>
     8ae: 4c 7c 09     	jmp	$97c <f256main+0x18c>
     8b1: e0 92        	cpx	#$92
     8b3: d0 03        	bne	$8b8 <f256main+0xc8>
     8b5: 4c 34 0a     	jmp	$a34 <f256main+0x244>
     8b8: 8c a6 d6     	sty	$d6a6                   ; 0xd6a6 <end_block9+0xc332>
     8bb: ad a4 d6     	lda	$d6a4                   ; 0xd6a4 <end_block9+0xc330>
     8be: ae a5 d6     	ldx	$d6a5                   ; 0xd6a5 <end_block9+0xc331>
     8c1: a0 40        	ldy	#$40
     8c3: 84 12        	sty	$12                     ; 0x2012 <end_block9+0xc9e>
     8c5: a0 01        	ldy	#$1
     8c7: 84 13        	sty	$13                     ; 0x2013 <end_block9+0xc9f>
     8c9: 20 9b 12     	jsr	$129b <__umodhi3>
     8cc: 85 25        	sta	$25                     ; 0x2025 <end_block9+0xcb1>
     8ce: 86 2a        	stx	$2a                     ; 0x202a <end_block9+0xcb6>
     8d0: a2 01        	ldx	#$1
     8d2: 8e a6 d6     	stx	$d6a6                   ; 0xd6a6 <end_block9+0xc332>
     8d5: ad a4 d6     	lda	$d6a4                   ; 0xd6a4 <end_block9+0xc330>
     8d8: ae a5 d6     	ldx	$d6a5                   ; 0xd6a5 <end_block9+0xc331>
     8db: a0 40        	ldy	#$40
     8dd: 84 12        	sty	$12                     ; 0x2012 <end_block9+0xc9e>
     8df: a0 01        	ldy	#$1
     8e1: 84 13        	sty	$13                     ; 0x2013 <end_block9+0xc9f>
     8e3: 20 9b 12     	jsr	$129b <__umodhi3>
     8e6: 85 2c        	sta	$2c                     ; 0x202c <end_block9+0xcb8>
     8e8: 86 2b        	stx	$2b                     ; 0x202b <end_block9+0xcb7>
     8ea: a0 01        	ldy	#$1
     8ec: 8c a6 d6     	sty	$d6a6                   ; 0xd6a6 <end_block9+0xc332>
     8ef: ae a4 d6     	ldx	$d6a4                   ; 0xd6a4 <end_block9+0xc330>
     8f2: 86 2e        	stx	$2e                     ; 0x202e <end_block9+0xcba>
     8f4: ae a5 d6     	ldx	$d6a5                   ; 0xd6a5 <end_block9+0xc331>
     8f7: 86 24        	stx	$24                     ; 0x2024 <end_block9+0xcb0>
     8f9: 8c a6 d6     	sty	$d6a6                   ; 0xd6a6 <end_block9+0xc332>
     8fc: ad a4 d6     	lda	$d6a4                   ; 0xd6a4 <end_block9+0xc330>
     8ff: ae a5 d6     	ldx	$d6a5                   ; 0xd6a5 <end_block9+0xc331>
     902: a0 ff        	ldy	#$ff
     904: 84 12        	sty	$12                     ; 0x2012 <end_block9+0xc9e>
     906: 64 13        	stz	$13                     ; 0x2013 <end_block9+0xc9f>
     908: 20 9b 12     	jsr	$129b <__umodhi3>
     90b: 85 2d        	sta	$2d                     ; 0x202d <end_block9+0xcb9>
     90d: a2 bf        	ldx	#$bf
     90f: 86 12        	stx	$12                     ; 0x2012 <end_block9+0xc9e>
     911: 64 13        	stz	$13                     ; 0x2013 <end_block9+0xc9f>
     913: a2 00        	ldx	#$0
     915: a5 24        	lda	$24                     ; 0x2024 <end_block9+0xcb0>
     917: 20 9b 12     	jsr	$129b <__umodhi3>
     91a: 85 2f        	sta	$2f                     ; 0x202f <end_block9+0xcbb>
     91c: 86 24        	stx	$24                     ; 0x2024 <end_block9+0xcb0>
     91e: a2 bf        	ldx	#$bf
     920: 86 12        	stx	$12                     ; 0x2012 <end_block9+0xc9e>
     922: 64 13        	stz	$13                     ; 0x2013 <end_block9+0xc9f>
     924: a2 00        	ldx	#$0
     926: a5 2e        	lda	$2e                     ; 0x202e <end_block9+0xcba>
     928: 20 9b 12     	jsr	$129b <__umodhi3>
     92b: 86 17        	stx	$17                     ; 0x2017 <end_block9+0xca3>
     92d: 48           	pha
     92e: a0 08        	ldy	#$8
     930: b1 10        	lda	($10),y                 ; 0x2010 <end_block9+0xc9c>
     932: aa           	tax
     933: 68           	pla
     934: e0 00        	cpx	#$0
     936: d0 03        	bne	$93b <f256main+0x14b>
     938: 4c 77 08     	jmp	$877 <f256main+0x87>
     93b: a2 01        	ldx	#$1
     93d: 8e 0a d0     	stx	$d00a                   ; 0xd00a <end_block9+0xbc96>
     940: 8e 80 d1     	stx	$d180                   ; 0xd180 <end_block9+0xbe0c>
     943: 9c 82 d1     	stz	$d182                   ; 0xd182 <end_block9+0xbe0e>
     946: 9c 83 d1     	stz	$d183                   ; 0xd183 <end_block9+0xbe0f>
     949: a6 2d        	ldx	$2d                     ; 0x202d <end_block9+0xcb9>
     94b: 8e 81 d1     	stx	$d181                   ; 0xd181 <end_block9+0xbe0d>
     94e: a6 25        	ldx	$25                     ; 0x2025 <end_block9+0xcb1>
     950: 8e 82 d1     	stx	$d182                   ; 0xd182 <end_block9+0xbe0e>
     953: a6 2a        	ldx	$2a                     ; 0x202a <end_block9+0xcb6>
     955: 8e 83 d1     	stx	$d183                   ; 0xd183 <end_block9+0xbe0f>
     958: a6 2c        	ldx	$2c                     ; 0x202c <end_block9+0xcb8>
     95a: 8e 84 d1     	stx	$d184                   ; 0xd184 <end_block9+0xbe10>
     95d: a6 2b        	ldx	$2b                     ; 0x202b <end_block9+0xcb7>
     95f: 8e 85 d1     	stx	$d185                   ; 0xd185 <end_block9+0xbe11>
     962: a6 2f        	ldx	$2f                     ; 0x202f <end_block9+0xcbb>
     964: 8e 86 d1     	stx	$d186                   ; 0xd186 <end_block9+0xbe12>
     967: 8d 87 d1     	sta	$d187                   ; 0xd187 <end_block9+0xbe13>
     96a: a2 03        	ldx	#$3
     96c: 8e 80 d1     	stx	$d180                   ; 0xd180 <end_block9+0xbe0c>
     96f: a0 01        	ldy	#$1
     971: ae 80 d1     	ldx	$d180                   ; 0xd180 <end_block9+0xbe0c>
     974: 10 fb        	bpl	$971 <f256main+0x181>
     976: 9c 0a d0     	stz	$d00a                   ; 0xd00a <end_block9+0xbc96>
     979: 4c 96 08     	jmp	$896 <f256main+0xa6>
     97c: a2 01        	ldx	#$1
     97e: a0 08        	ldy	#$8
     980: b1 10        	lda	($10),y                 ; 0x2010 <end_block9+0xc9c>
     982: f0 02        	beq	$986 <f256main+0x196>
     984: a2 00        	ldx	#$0
     986: 8a           	txa
     987: f0 05        	beq	$98e <f256main+0x19e>
     989: a0 01        	ldy	#$1
     98b: 98           	tya
     98c: 80 04        	bra	$992 <f256main+0x1a2>
     98e: 64 12        	stz	$12                     ; 0x2012 <end_block9+0xc9e>
     990: a9 00        	lda	#$0
     992: a0 08        	ldy	#$8
     994: 91 10        	sta	($10),y                 ; 0x2010 <end_block9+0xc9c>
     996: 64 6c        	stz	$6c                     ; 0x206c <end_block9+0xcf8>
     998: 9c 14 d0     	stz	$d014                   ; 0xd014 <end_block9+0xbca0>
     99b: 9c 15 d0     	stz	$d015                   ; 0xd015 <end_block9+0xbca1>
     99e: a0 18        	ldy	#$18
     9a0: 84 6d        	sty	$6d                     ; 0x206d <end_block9+0xcf9>
     9a2: 8c 16 d0     	sty	$d016                   ; 0xd016 <end_block9+0xbca2>
     9a5: 9c 17 d0     	stz	$d017                   ; 0xd017 <end_block9+0xbca3>
     9a8: 64 7b        	stz	$7b                     ; 0x207b <end_block9+0xd07>
     9aa: 8a           	txa
     9ab: d0 2a        	bne	$9d7 <f256main+0x1e7>
     9ad: a2 40        	ldx	#$40
     9af: 86 12        	stx	$12                     ; 0x2012 <end_block9+0xc9e>
     9b1: a2 13        	ldx	#$13
     9b3: 86 13        	stx	$13                     ; 0x2013 <end_block9+0xc9f>
     9b5: 20 6a 0b     	jsr	$b6a <textPrint>
     9b8: a6 7a        	ldx	$7a                     ; 0x207a <end_block9+0xd06>
     9ba: 74 7e        	stz	$7e,x                   ; 0x207e <end_block9+0xd0a>
     9bc: e0 02        	cpx	#$2
     9be: f0 51        	beq	$a11 <f256main+0x221>
     9c0: a0 01        	ldy	#$1
     9c2: e0 01        	cpx	#$1
     9c4: f0 40        	beq	$a06 <f256main+0x216>
     9c6: 8a           	txa
     9c7: f0 03        	beq	$9cc <f256main+0x1dc>
     9c9: 4c b8 08     	jmp	$8b8 <f256main+0xc8>
     9cc: ad 00 d1     	lda	$d100                   ; 0xd100 <end_block9+0xbd8c>
     9cf: 29 f9        	and	#$f9
     9d1: 8d 00 d1     	sta	$d100                   ; 0xd100 <end_block9+0xbd8c>
     9d4: 4c b8 08     	jmp	$8b8 <f256main+0xc8>
     9d7: a2 5a        	ldx	#$5a
     9d9: 86 12        	stx	$12                     ; 0x2012 <end_block9+0xc9e>
     9db: a2 13        	ldx	#$13
     9dd: 86 13        	stx	$13                     ; 0x2013 <end_block9+0xc9f>
     9df: 20 6a 0b     	jsr	$b6a <textPrint>
     9e2: a6 7a        	ldx	$7a                     ; 0x207a <end_block9+0xd06>
     9e4: a9 02        	lda	#$2
     9e6: 9d 7e 00     	sta	$7e,x                   ; 0x7e <_BITMAP_CLUT>
     9e9: e0 02        	cpx	#$2
     9eb: f0 38        	beq	$a25 <f256main+0x235>
     9ed: a0 01        	ldy	#$1
     9ef: e0 01        	cpx	#$1
     9f1: f0 25        	beq	$a18 <f256main+0x228>
     9f3: 8a           	txa
     9f4: f0 03        	beq	$9f9 <f256main+0x209>
     9f6: 4c b8 08     	jmp	$8b8 <f256main+0xc8>
     9f9: ad 00 d1     	lda	$d100                   ; 0xd100 <end_block9+0xbd8c>
     9fc: 29 f9        	and	#$f9
     9fe: 09 02        	ora	#$2
     a00: 8d 00 d1     	sta	$d100                   ; 0xd100 <end_block9+0xbd8c>
     a03: 4c b8 08     	jmp	$8b8 <f256main+0xc8>
     a06: ad 08 d1     	lda	$d108                   ; 0xd108 <end_block9+0xbd94>
     a09: 29 f9        	and	#$f9
     a0b: 8d 08 d1     	sta	$d108                   ; 0xd108 <end_block9+0xbd94>
     a0e: 4c b8 08     	jmp	$8b8 <f256main+0xc8>
     a11: ad 10 d1     	lda	$d110                   ; 0xd110 <end_block9+0xbd9c>
     a14: 29 f9        	and	#$f9
     a16: 80 14        	bra	$a2c <f256main+0x23c>
     a18: ad 08 d1     	lda	$d108                   ; 0xd108 <end_block9+0xbd94>
     a1b: 29 f9        	and	#$f9
     a1d: 09 02        	ora	#$2
     a1f: 8d 08 d1     	sta	$d108                   ; 0xd108 <end_block9+0xbd94>
     a22: 4c b8 08     	jmp	$8b8 <f256main+0xc8>
     a25: ad 10 d1     	lda	$d110                   ; 0xd110 <end_block9+0xbd9c>
     a28: 29 f9        	and	#$f9
     a2a: 09 02        	ora	#$2
     a2c: 8d 10 d1     	sta	$d110                   ; 0xd110 <end_block9+0xbd9c>
     a2f: a0 01        	ldy	#$1
     a31: 4c b8 08     	jmp	$8b8 <f256main+0xc8>
     a34: a2 00        	ldx	#$0
     a36: 8a           	txa
     a37: 85 20        	sta	$20                     ; 0x2020 <end_block9+0xcac>
     a39: a8           	tay
     a3a: b1 10        	lda	($10),y                 ; 0x2010 <end_block9+0xc9c>
     a3c: 85 2f        	sta	$2f                     ; 0x202f <end_block9+0xcbb>
     a3e: c8           	iny
     a3f: b1 10        	lda	($10),y                 ; 0x2010 <end_block9+0xc9c>
     a41: 85 2e        	sta	$2e                     ; 0x202e <end_block9+0xcba>
     a43: c8           	iny
     a44: b1 10        	lda	($10),y                 ; 0x2010 <end_block9+0xc9c>
     a46: 85 2d        	sta	$2d                     ; 0x202d <end_block9+0xcb9>
     a48: c8           	iny
     a49: b1 10        	lda	($10),y                 ; 0x2010 <end_block9+0xc9c>
     a4b: 85 2c        	sta	$2c                     ; 0x202c <end_block9+0xcb8>
     a4d: c8           	iny
     a4e: b1 10        	lda	($10),y                 ; 0x2010 <end_block9+0xc9c>
     a50: 85 2b        	sta	$2b                     ; 0x202b <end_block9+0xcb7>
     a52: c8           	iny
     a53: b1 10        	lda	($10),y                 ; 0x2010 <end_block9+0xc9c>
     a55: 85 2a        	sta	$2a                     ; 0x202a <end_block9+0xcb6>
     a57: c8           	iny
     a58: b1 10        	lda	($10),y                 ; 0x2010 <end_block9+0xc9c>
     a5a: 85 29        	sta	$29                     ; 0x2029 <end_block9+0xcb5>
     a5c: c8           	iny
     a5d: b1 10        	lda	($10),y                 ; 0x2010 <end_block9+0xc9c>
     a5f: 85 28        	sta	$28                     ; 0x2028 <end_block9+0xcb4>
     a61: 7a           	ply
     a62: 84 27        	sty	$27                     ; 0x2027 <end_block9+0xcb3>
     a64: 7a           	ply
     a65: 84 26        	sty	$26                     ; 0x2026 <end_block9+0xcb2>
     a67: 7a           	ply
     a68: 84 25        	sty	$25                     ; 0x2025 <end_block9+0xcb1>
     a6a: 7a           	ply
     a6b: 84 24        	sty	$24                     ; 0x2024 <end_block9+0xcb0>
     a6d: 18           	clc
     a6e: a5 10        	lda	$10                     ; 0x2010 <end_block9+0xc9c>
     a70: 69 0a        	adc	#$a
     a72: 85 10        	sta	$10                     ; 0x2010 <end_block9+0xc9c>
     a74: a5 11        	lda	$11                     ; 0x2011 <end_block9+0xc9d>
     a76: 69 00        	adc	#$0
     a78: 85 11        	sta	$11                     ; 0x2011 <end_block9+0xc9d>
     a7a: a5 20        	lda	$20                     ; 0x2020 <end_block9+0xcac>
     a7c: 60           	rts

00000a7d <loadGFX>:
     a7d: a6 24        	ldx	$24                     ; 0x2024 <end_block9+0xcb0>
     a7f: da           	phx
     a80: a6 25        	ldx	$25                     ; 0x2025 <end_block9+0xcb1>
     a82: da           	phx
     a83: a6 26        	ldx	$26                     ; 0x2026 <end_block9+0xcb2>
     a85: da           	phx
     a86: 64 26        	stz	$26                     ; 0x2026 <end_block9+0xcb2>
     a88: a2 00        	ldx	#$0
     a8a: 86 24        	stx	$24                     ; 0x2024 <end_block9+0xcb0>
     a8c: a2 e0        	ldx	#$e0
     a8e: 86 25        	stx	$25                     ; 0x2025 <end_block9+0xcb1>
     a90: ad 02 d0     	lda	$d002                   ; 0xd002 <end_block9+0xbc8e>
     a93: 29 f0        	and	#$f0
     a95: 8d 02 d0     	sta	$d002                   ; 0xd002 <end_block9+0xbc8e>
     a98: 64 7a        	stz	$7a                     ; 0x207a <end_block9+0xd06>
     a9a: 64 7e        	stz	$7e                     ; 0x207e <end_block9+0xd0a>
     a9c: ad 00 d1     	lda	$d100                   ; 0xd100 <end_block9+0xbd8c>
     a9f: 29 f9        	and	#$f9
     aa1: 8d 00 d1     	sta	$d100                   ; 0xd100 <end_block9+0xbd8c>
     aa4: 64 7b        	stz	$7b                     ; 0x207b <end_block9+0xd07>
     aa6: 64 6c        	stz	$6c                     ; 0x206c <end_block9+0xcf8>
     aa8: 9c 14 d0     	stz	$d014                   ; 0xd014 <end_block9+0xbca0>
     aab: 9c 15 d0     	stz	$d015                   ; 0xd015 <end_block9+0xbca1>
     aae: a2 18        	ldx	#$18
     ab0: 86 6d        	stx	$6d                     ; 0x206d <end_block9+0xcf9>
     ab2: 8e 16 d0     	stx	$d016                   ; 0xd016 <end_block9+0xbca2>
     ab5: 9c 17 d0     	stz	$d017                   ; 0xd017 <end_block9+0xbca3>
     ab8: a2 40        	ldx	#$40
     aba: 86 12        	stx	$12                     ; 0x2012 <end_block9+0xc9e>
     abc: a2 13        	ldx	#$13
     abe: 86 13        	stx	$13                     ; 0x2013 <end_block9+0xc9f>
     ac0: 20 6a 0b     	jsr	$b6a <textPrint>
     ac3: a5 7a        	lda	$7a                     ; 0x207a <end_block9+0xd06>
     ac5: 0a           	asl
     ac6: 64 12        	stz	$12                     ; 0x2012 <end_block9+0xc9e>
     ac8: 26 12        	rol	$12                     ; 0x2012 <end_block9+0xc9e>
     aca: 0a           	asl
     acb: 85 13        	sta	$13                     ; 0x2013 <end_block9+0xc9f>
     acd: 26 12        	rol	$12                     ; 0x2012 <end_block9+0xc9e>
     acf: a9 6e        	lda	#$6e
     ad1: 18           	clc
     ad2: 65 13        	adc	$13                     ; 0x2013 <end_block9+0xc9f>
     ad4: aa           	tax
     ad5: a9 00        	lda	#$0
     ad7: 65 12        	adc	$12                     ; 0x2012 <end_block9+0xc9e>
     ad9: 86 12        	stx	$12                     ; 0x2012 <end_block9+0xc9e>
     adb: 85 13        	sta	$13                     ; 0x2013 <end_block9+0xc9f>
     add: a0 01        	ldy	#$1
     adf: b1 12        	lda	($12),y                 ; 0x2012 <end_block9+0xc9e>
     ae1: 85 14        	sta	$14                     ; 0x2014 <end_block9+0xca0>
     ae3: c8           	iny
     ae4: b1 12        	lda	($12),y                 ; 0x2012 <end_block9+0xc9e>
     ae6: a6 14        	ldx	$14                     ; 0x2014 <end_block9+0xca0>
     ae8: 86 12        	stx	$12                     ; 0x2012 <end_block9+0xc9e>
     aea: 06 12        	asl	$12                     ; 0x2012 <end_block9+0xc9e>
     aec: 2a           	rol
     aed: 06 12        	asl	$12                     ; 0x2012 <end_block9+0xc9e>
     aef: 2a           	rol
     af0: 06 12        	asl	$12                     ; 0x2012 <end_block9+0xc9e>
     af2: 2a           	rol
     af3: a6 0f        	ldx	$f                      ; 0x200f <end_block9+0xc9b>
     af5: 86 15        	stx	$15                     ; 0x2015 <end_block9+0xca1>
     af7: 78           	sei
     af8: 80 26        	bra	$b20 <loadGFX+0xa3>
     afa: a5 14        	lda	$14                     ; 0x2014 <end_block9+0xca0>
     afc: f0 13        	beq	$b11 <loadGFX+0x94>
     afe: a5 7b        	lda	$7b                     ; 0x207b <end_block9+0xd07>
     b00: 92 12        	sta	($12)                   ; 0x2012 <end_block9+0xc9e>
     b02: 88           	dey
     b03: c0 ff        	cpy	#$ff
     b05: d0 02        	bne	$b09 <loadGFX+0x8c>
     b07: c6 14        	dec	$14                     ; 0x2014 <end_block9+0xca0>
     b09: e6 12        	inc	$12                     ; 0x2012 <end_block9+0xc9e>
     b0b: d0 ed        	bne	$afa <loadGFX+0x7d>
     b0d: e6 13        	inc	$13                     ; 0x2013 <end_block9+0xc9f>
     b0f: 80 e9        	bra	$afa <loadGFX+0x7d>
     b11: 98           	tya
     b12: d0 ea        	bne	$afe <loadGFX+0x81>
     b14: a5 16        	lda	$16                     ; 0x2016 <end_block9+0xca2>
     b16: 1a           	inc
     b17: a6 26        	ldx	$26                     ; 0x2026 <end_block9+0xcb2>
     b19: e8           	inx
     b1a: 86 26        	stx	$26                     ; 0x2026 <end_block9+0xcb2>
     b1c: e0 09        	cpx	#$9
     b1e: f0 14        	beq	$b34 <loadGFX+0xb7>
     b20: 85 16        	sta	$16                     ; 0x2016 <end_block9+0xca2>
     b22: 85 0f        	sta	$f                      ; 0x200f <end_block9+0xc9b>
     b24: a2 20        	ldx	#$20
     b26: a0 00        	ldy	#$0
     b28: 84 12        	sty	$12                     ; 0x2012 <end_block9+0xc9e>
     b2a: a0 e0        	ldy	#$e0
     b2c: 84 13        	sty	$13                     ; 0x2013 <end_block9+0xc9f>
     b2e: a0 00        	ldy	#$0
     b30: 86 14        	stx	$14                     ; 0x2014 <end_block9+0xca0>
     b32: 80 ca        	bra	$afe <loadGFX+0x81>
     b34: 85 0f        	sta	$f                      ; 0x200f <end_block9+0xc9b>
     b36: a2 14        	ldx	#$14
     b38: a0 00        	ldy	#$0
     b3a: 80 03        	bra	$b3f <loadGFX+0xc2>
     b3c: 8a           	txa
     b3d: f0 12        	beq	$b51 <loadGFX+0xd4>
     b3f: a5 7b        	lda	$7b                     ; 0x207b <end_block9+0xd07>
     b41: 92 24        	sta	($24)                   ; 0x2024 <end_block9+0xcb0>
     b43: 88           	dey
     b44: c0 ff        	cpy	#$ff
     b46: d0 01        	bne	$b49 <loadGFX+0xcc>
     b48: ca           	dex
     b49: e6 24        	inc	$24                     ; 0x2024 <end_block9+0xcb0>
     b4b: d0 ef        	bne	$b3c <loadGFX+0xbf>
     b4d: e6 25        	inc	$25                     ; 0x2025 <end_block9+0xcb1>
     b4f: 80 eb        	bra	$b3c <loadGFX+0xbf>
     b51: 98           	tya
     b52: d0 eb        	bne	$b3f <loadGFX+0xc2>
     b54: a6 15        	ldx	$15                     ; 0x2015 <end_block9+0xca1>
     b56: 86 0f        	stx	$f                      ; 0x200f <end_block9+0xc9b>
     b58: 58           	cli
     b59: a9 01        	lda	#$1
     b5b: 05 7e        	ora	$7e                     ; 0x207e <end_block9+0xd0a>
     b5d: 8d 00 d1     	sta	$d100                   ; 0xd100 <end_block9+0xbd8c>
     b60: fa           	plx
     b61: 86 26        	stx	$26                     ; 0x2026 <end_block9+0xcb2>
     b63: fa           	plx
     b64: 86 25        	stx	$25                     ; 0x2025 <end_block9+0xcb1>
     b66: fa           	plx
     b67: 86 24        	stx	$24                     ; 0x2024 <end_block9+0xcb0>
     b69: 60           	rts

00000b6a <textPrint>:
     b6a: a6 12        	ldx	$12                     ; 0x2012 <end_block9+0xc9e>
     b6c: 86 cc        	stx	$cc                     ; 0x20cc <end_block9+0xd58>
     b6e: a6 13        	ldx	$13                     ; 0x2013 <end_block9+0xc9f>
     b70: 86 cd        	stx	$cd                     ; 0x20cd <end_block9+0xd59>
     b72: a2 00        	ldx	#$0
     b74: 86 ce        	stx	$ce                     ; 0x20ce <end_block9+0xd5a>
     b76: a2 c0        	ldx	#$c0
     b78: 86 cf        	stx	$cf                     ; 0x20cf <end_block9+0xd5b>
     b7a: a6 01        	ldx	$1                      ; 0x2001 <end_block9+0xc8d>
     b7c: 86 d3        	stx	$d3                     ; 0x20d3 <end_block9+0xd5f>
     b7e: a6 60        	ldx	$60                     ; 0x2060 <end_block9+0xcec>
     b80: a4 6d        	ldy	$6d                     ; 0x206d <end_block9+0xcf9>
     b82: 8e 00 de     	stx	$de00                   ; 0xde00 <end_block9+0xca8c>
     b85: 9c 01 de     	stz	$de01                   ; 0xde01 <end_block9+0xca8d>
     b88: 8c 02 de     	sty	$de02                   ; 0xde02 <end_block9+0xca8e>
     b8b: 9c 03 de     	stz	$de03                   ; 0xde03 <end_block9+0xca8f>
     b8e: ae 10 de     	ldx	$de10                   ; 0xde10 <end_block9+0xca9c>
     b91: 86 12        	stx	$12                     ; 0x2012 <end_block9+0xc9e>
     b93: ac 11 de     	ldy	$de11                   ; 0xde11 <end_block9+0xca9d>
     b96: ad 12 de     	lda	$de12                   ; 0xde12 <end_block9+0xca9e>
     b99: ae 13 de     	ldx	$de13                   ; 0xde13 <end_block9+0xca9f>
     b9c: 86 13        	stx	$13                     ; 0x2013 <end_block9+0xc9f>
     b9e: 9c 08 de     	stz	$de08                   ; 0xde08 <end_block9+0xca94>
     ba1: a2 c0        	ldx	#$c0
     ba3: 8e 09 de     	stx	$de09                   ; 0xde09 <end_block9+0xca95>
     ba6: 9c 0a de     	stz	$de0a                   ; 0xde0a <end_block9+0xca96>
     ba9: 9c 0b de     	stz	$de0b                   ; 0xde0b <end_block9+0xca97>
     bac: a6 12        	ldx	$12                     ; 0x2012 <end_block9+0xc9e>
     bae: 8e 0c de     	stx	$de0c                   ; 0xde0c <end_block9+0xca98>
     bb1: 8c 0d de     	sty	$de0d                   ; 0xde0d <end_block9+0xca99>
     bb4: 8d 0e de     	sta	$de0e                   ; 0xde0e <end_block9+0xca9a>
     bb7: a6 13        	ldx	$13                     ; 0x2013 <end_block9+0xc9f>
     bb9: 8e 0f de     	stx	$de0f                   ; 0xde0f <end_block9+0xca9b>
     bbc: ae 18 de     	ldx	$de18                   ; 0xde18 <end_block9+0xcaa4>
     bbf: ac 19 de     	ldy	$de19                   ; 0xde19 <end_block9+0xcaa5>
     bc2: ad 1a de     	lda	$de1a                   ; 0xde1a <end_block9+0xcaa6>
     bc5: ad 1b de     	lda	$de1b                   ; 0xde1b <end_block9+0xcaa7>
     bc8: 86 12        	stx	$12                     ; 0x2012 <end_block9+0xc9e>
     bca: 84 13        	sty	$13                     ; 0x2013 <end_block9+0xc9f>
     bcc: 64 d0        	stz	$d0                     ; 0x20d0 <end_block9+0xd5c>
     bce: 64 d1        	stz	$d1                     ; 0x20d1 <end_block9+0xd5d>
     bd0: 80 00        	bra	$bd2 <textPrint+0x68>
     bd2: a5 cc        	lda	$cc                     ; 0x20cc <end_block9+0xd58>
     bd4: 18           	clc
     bd5: 65 d0        	adc	$d0                     ; 0x20d0 <end_block9+0xd5c>
     bd7: 85 14        	sta	$14                     ; 0x2014 <end_block9+0xca0>
     bd9: a5 cd        	lda	$cd                     ; 0x20cd <end_block9+0xd59>
     bdb: 65 d1        	adc	$d1                     ; 0x20d1 <end_block9+0xd5d>
     bdd: 85 15        	sta	$15                     ; 0x2015 <end_block9+0xca1>
     bdf: b2 14        	lda	($14)                   ; 0x2014 <end_block9+0xca0>
     be1: c9 0a        	cmp	#$a
     be3: f0 29        	beq	$c0e <textPrint+0xa4>
     be5: c9 0d        	cmp	#$d
     be7: f0 25        	beq	$c0e <textPrint+0xa4>
     be9: aa           	tax
     bea: d0 03        	bne	$bef <textPrint+0x85>
     bec: 4c ad 0d     	jmp	$dad <textPrint+0x243>
     bef: a2 03        	ldx	#$3
     bf1: 86 01        	stx	$1                      ; 0x2001 <end_block9+0xc8d>
     bf3: a5 62        	lda	$62                     ; 0x2062 <end_block9+0xcee>
     bf5: a4 6c        	ldy	$6c                     ; 0x206c <end_block9+0xcf8>
     bf7: 91 12        	sta	($12),y                 ; 0x2012 <end_block9+0xc9e>
     bf9: ca           	dex
     bfa: 86 01        	stx	$1                      ; 0x2001 <end_block9+0xc8d>
     bfc: b2 14        	lda	($14)                   ; 0x2014 <end_block9+0xca0>
     bfe: a4 6c        	ldy	$6c                     ; 0x206c <end_block9+0xcf8>
     c00: 91 12        	sta	($12),y                 ; 0x2012 <end_block9+0xc9e>
     c02: a6 6c        	ldx	$6c                     ; 0x206c <end_block9+0xcf8>
     c04: e8           	inx
     c05: e6 6c        	inc	$6c                     ; 0x206c <end_block9+0xcf8>
     c07: e4 60        	cpx	$60                     ; 0x2060 <end_block9+0xcec>
     c09: f0 03        	beq	$c0e <textPrint+0xa4>
     c0b: 4c df 0c     	jmp	$cdf <textPrint+0x175>
     c0e: 64 6c        	stz	$6c                     ; 0x206c <end_block9+0xcf8>
     c10: a6 6d        	ldx	$6d                     ; 0x206d <end_block9+0xcf9>
     c12: e8           	inx
     c13: e6 6d        	inc	$6d                     ; 0x206d <end_block9+0xcf9>
     c15: a4 61        	ldy	$61                     ; 0x2061 <end_block9+0xced>
     c17: 84 d2        	sty	$d2                     ; 0x20d2 <end_block9+0xd5e>
     c19: e4 d2        	cpx	$d2                     ; 0x20d2 <end_block9+0xd5e>
     c1b: f0 03        	beq	$c20 <textPrint+0xb6>
     c1d: 4c d2 0c     	jmp	$cd2 <textPrint+0x168>
     c20: a6 60        	ldx	$60                     ; 0x2060 <end_block9+0xcec>
     c22: 86 d6        	stx	$d6                     ; 0x20d6 <end_block9+0xd62>
     c24: 98           	tya
     c25: a2 00        	ldx	#$0
     c27: 3a           	dec
     c28: c9 ff        	cmp	#$ff
     c2a: d0 01        	bne	$c2d <textPrint+0xc3>
     c2c: ca           	dex
     c2d: a4 d6        	ldy	$d6                     ; 0x20d6 <end_block9+0xd62>
     c2f: 84 12        	sty	$12                     ; 0x2012 <end_block9+0xc9e>
     c31: 64 13        	stz	$13                     ; 0x2013 <end_block9+0xc9f>
     c33: 20 69 12     	jsr	$1269 <__mulhi3>
     c36: 85 d4        	sta	$d4                     ; 0x20d4 <end_block9+0xd60>
     c38: 86 d5        	stx	$d5                     ; 0x20d5 <end_block9+0xd61>
     c3a: a2 03        	ldx	#$3
     c3c: 86 01        	stx	$1                      ; 0x2001 <end_block9+0xc8d>
     c3e: 38           	sec
     c3f: a9 01        	lda	#$1
     c41: e5 d2        	sbc	$d2                     ; 0x20d2 <end_block9+0xd5e>
     c43: a8           	tay
     c44: 64 d2        	stz	$d2                     ; 0x20d2 <end_block9+0xd5e>
     c46: a9 00        	lda	#$0
     c48: e9 00        	sbc	#$0
     c4a: a6 d6        	ldx	$d6                     ; 0x20d6 <end_block9+0xd62>
     c4c: 86 12        	stx	$12                     ; 0x2012 <end_block9+0xc9e>
     c4e: 64 13        	stz	$13                     ; 0x2013 <end_block9+0xc9f>
     c50: aa           	tax
     c51: 98           	tya
     c52: 20 69 12     	jsr	$1269 <__mulhi3>
     c55: 85 1a        	sta	$1a                     ; 0x201a <end_block9+0xca6>
     c57: a9 00        	lda	#$0
     c59: 80 1d        	bra	$c78 <textPrint+0x10e>
     c5b: 64 14        	stz	$14                     ; 0x2014 <end_block9+0xca0>
     c5d: 64 15        	stz	$15                     ; 0x2015 <end_block9+0xca1>
     c5f: a0 02        	ldy	#$2
     c61: 84 01        	sty	$1                      ; 0x2001 <end_block9+0xc8d>
     c63: a5 12        	lda	$12                     ; 0x2012 <end_block9+0xc9e>
     c65: e6 d2        	inc	$d2                     ; 0x20d2 <end_block9+0xd5e>
     c67: d0 01        	bne	$c6a <textPrint+0x100>
     c69: 1a           	inc
     c6a: a4 12        	ldy	$12                     ; 0x2012 <end_block9+0xc9e>
     c6c: f0 03        	beq	$c71 <textPrint+0x107>
     c6e: 4c eb 0c     	jmp	$ceb <textPrint+0x181>
     c71: a4 13        	ldy	$13                     ; 0x2013 <end_block9+0xc9f>
     c73: f0 03        	beq	$c78 <textPrint+0x10e>
     c75: 4c eb 0c     	jmp	$ceb <textPrint+0x181>
     c78: 85 12        	sta	$12                     ; 0x2012 <end_block9+0xc9e>
     c7a: a4 d2        	ldy	$d2                     ; 0x20d2 <end_block9+0xd5e>
     c7c: 84 13        	sty	$13                     ; 0x2013 <end_block9+0xc9f>
     c7e: a4 d4        	ldy	$d4                     ; 0x20d4 <end_block9+0xd60>
     c80: c0 01        	cpy	#$1
     c82: a5 d5        	lda	$d5                     ; 0x20d5 <end_block9+0xd61>
     c84: e9 00        	sbc	#$0
     c86: 50 02        	bvc	$c8a <textPrint+0x120>
     c88: 49 80        	eor	#$80
     c8a: a8           	tay
     c8b: 30 ce        	bmi	$c5b <textPrint+0xf1>
     c8d: 64 15        	stz	$15                     ; 0x2015 <end_block9+0xca1>
     c8f: a0 00        	ldy	#$0
     c91: 84 18        	sty	$18                     ; 0x2018 <end_block9+0xca4>
     c93: a0 c0        	ldy	#$c0
     c95: 84 19        	sty	$19                     ; 0x2019 <end_block9+0xca5>
     c97: 64 17        	stz	$17                     ; 0x2017 <end_block9+0xca3>
     c99: a4 17        	ldy	$17                     ; 0x2017 <end_block9+0xca3>
     c9b: 84 14        	sty	$14                     ; 0x2014 <end_block9+0xca0>
     c9d: a4 15        	ldy	$15                     ; 0x2015 <end_block9+0xca1>
     c9f: 84 16        	sty	$16                     ; 0x2016 <end_block9+0xca2>
     ca1: a4 60        	ldy	$60                     ; 0x2060 <end_block9+0xcec>
     ca3: b1 18        	lda	($18),y                 ; 0x2018 <end_block9+0xca4>
     ca5: 92 18        	sta	($18)                   ; 0x2018 <end_block9+0xca4>
     ca7: a0 ff        	ldy	#$ff
     ca9: c6 15        	dec	$15                     ; 0x2015 <end_block9+0xca1>
     cab: c4 15        	cpy	$15                     ; 0x2015 <end_block9+0xca1>
     cad: d0 02        	bne	$cb1 <textPrint+0x147>
     caf: c6 17        	dec	$17                     ; 0x2017 <end_block9+0xca3>
     cb1: e6 18        	inc	$18                     ; 0x2018 <end_block9+0xca4>
     cb3: d0 02        	bne	$cb7 <textPrint+0x14d>
     cb5: e6 19        	inc	$19                     ; 0x2019 <end_block9+0xca5>
     cb7: e4 17        	cpx	$17                     ; 0x2017 <end_block9+0xca3>
     cb9: d0 de        	bne	$c99 <textPrint+0x12f>
     cbb: a4 1a        	ldy	$1a                     ; 0x201a <end_block9+0xca6>
     cbd: c4 15        	cpy	$15                     ; 0x2015 <end_block9+0xca1>
     cbf: d0 d8        	bne	$c99 <textPrint+0x12f>
     cc1: 38           	sec
     cc2: a9 01        	lda	#$1
     cc4: e5 16        	sbc	$16                     ; 0x2016 <end_block9+0xca2>
     cc6: a8           	tay
     cc7: a9 00        	lda	#$0
     cc9: e5 14        	sbc	$14                     ; 0x2014 <end_block9+0xca0>
     ccb: 84 14        	sty	$14                     ; 0x2014 <end_block9+0xca0>
     ccd: 85 15        	sta	$15                     ; 0x2015 <end_block9+0xca1>
     ccf: 4c 5f 0c     	jmp	$c5f <textPrint+0xf5>
     cd2: a5 12        	lda	$12                     ; 0x2012 <end_block9+0xc9e>
     cd4: 18           	clc
     cd5: 65 60        	adc	$60                     ; 0x2060 <end_block9+0xcec>
     cd7: 85 12        	sta	$12                     ; 0x2012 <end_block9+0xc9e>
     cd9: a5 13        	lda	$13                     ; 0x2013 <end_block9+0xc9f>
     cdb: 69 00        	adc	#$0
     cdd: 85 13        	sta	$13                     ; 0x2013 <end_block9+0xc9f>
     cdf: e6 d0        	inc	$d0                     ; 0x20d0 <end_block9+0xd5c>
     ce1: f0 03        	beq	$ce6 <textPrint+0x17c>
     ce3: 4c d2 0b     	jmp	$bd2 <textPrint+0x68>
     ce6: e6 d1        	inc	$d1                     ; 0x20d1 <end_block9+0xd5d>
     ce8: 4c d2 0b     	jmp	$bd2 <textPrint+0x68>
     ceb: a9 00        	lda	#$0
     ced: 18           	clc
     cee: 65 14        	adc	$14                     ; 0x2014 <end_block9+0xca0>
     cf0: 85 12        	sta	$12                     ; 0x2012 <end_block9+0xc9e>
     cf2: a9 c0        	lda	#$c0
     cf4: 65 15        	adc	$15                     ; 0x2015 <end_block9+0xca1>
     cf6: 85 13        	sta	$13                     ; 0x2013 <end_block9+0xc9f>
     cf8: a2 03        	ldx	#$3
     cfa: 86 01        	stx	$1                      ; 0x2001 <end_block9+0xc8d>
     cfc: a6 60        	ldx	$60                     ; 0x2060 <end_block9+0xcec>
     cfe: f0 37        	beq	$d37 <textPrint+0x1cd>
     d00: a9 01        	lda	#$1
     d02: 18           	clc
     d03: 65 14        	adc	$14                     ; 0x2014 <end_block9+0xca0>
     d05: 85 17        	sta	$17                     ; 0x2017 <end_block9+0xca3>
     d07: a9 c0        	lda	#$c0
     d09: 65 15        	adc	$15                     ; 0x2015 <end_block9+0xca1>
     d0b: a8           	tay
     d0c: 64 16        	stz	$16                     ; 0x2016 <end_block9+0xca2>
     d0e: a6 12        	ldx	$12                     ; 0x2012 <end_block9+0xc9e>
     d10: 86 18        	stx	$18                     ; 0x2018 <end_block9+0xca4>
     d12: a6 13        	ldx	$13                     ; 0x2013 <end_block9+0xc9f>
     d14: 86 19        	stx	$19                     ; 0x2019 <end_block9+0xca5>
     d16: a5 17        	lda	$17                     ; 0x2017 <end_block9+0xca3>
     d18: 18           	clc
     d19: 65 16        	adc	$16                     ; 0x2016 <end_block9+0xca2>
     d1b: 85 1a        	sta	$1a                     ; 0x201a <end_block9+0xca6>
     d1d: 98           	tya
     d1e: 69 00        	adc	#$0
     d20: 85 1b        	sta	$1b                     ; 0x201b <end_block9+0xca7>
     d22: a5 62        	lda	$62                     ; 0x2062 <end_block9+0xcee>
     d24: 92 18        	sta	($18)                   ; 0x2018 <end_block9+0xca4>
     d26: a6 16        	ldx	$16                     ; 0x2016 <end_block9+0xca2>
     d28: e8           	inx
     d29: 86 16        	stx	$16                     ; 0x2016 <end_block9+0xca2>
     d2b: e4 60        	cpx	$60                     ; 0x2060 <end_block9+0xcec>
     d2d: a6 1a        	ldx	$1a                     ; 0x201a <end_block9+0xca6>
     d2f: 86 18        	stx	$18                     ; 0x2018 <end_block9+0xca4>
     d31: a6 1b        	ldx	$1b                     ; 0x201b <end_block9+0xca7>
     d33: 86 19        	stx	$19                     ; 0x2019 <end_block9+0xca5>
     d35: 90 df        	bcc	$d16 <textPrint+0x1ac>
     d37: a2 02        	ldx	#$2
     d39: 86 01        	stx	$1                      ; 0x2001 <end_block9+0xc8d>
     d3b: a6 60        	ldx	$60                     ; 0x2060 <end_block9+0xcec>
     d3d: f0 2f        	beq	$d6e <textPrint+0x204>
     d3f: a9 01        	lda	#$1
     d41: 18           	clc
     d42: 65 14        	adc	$14                     ; 0x2014 <end_block9+0xca0>
     d44: 85 18        	sta	$18                     ; 0x2018 <end_block9+0xca4>
     d46: a9 c0        	lda	#$c0
     d48: 65 15        	adc	$15                     ; 0x2015 <end_block9+0xca1>
     d4a: a8           	tay
     d4b: 64 14        	stz	$14                     ; 0x2014 <end_block9+0xca0>
     d4d: a5 18        	lda	$18                     ; 0x2018 <end_block9+0xca4>
     d4f: 18           	clc
     d50: 65 14        	adc	$14                     ; 0x2014 <end_block9+0xca0>
     d52: 85 16        	sta	$16                     ; 0x2016 <end_block9+0xca2>
     d54: 98           	tya
     d55: 69 00        	adc	#$0
     d57: 85 17        	sta	$17                     ; 0x2017 <end_block9+0xca3>
     d59: a9 20        	lda	#$20
     d5b: 92 12        	sta	($12)                   ; 0x2012 <end_block9+0xc9e>
     d5d: a6 14        	ldx	$14                     ; 0x2014 <end_block9+0xca0>
     d5f: e8           	inx
     d60: 86 14        	stx	$14                     ; 0x2014 <end_block9+0xca0>
     d62: e4 60        	cpx	$60                     ; 0x2060 <end_block9+0xcec>
     d64: a6 16        	ldx	$16                     ; 0x2016 <end_block9+0xca2>
     d66: 86 12        	stx	$12                     ; 0x2012 <end_block9+0xc9e>
     d68: a6 17        	ldx	$17                     ; 0x2017 <end_block9+0xca3>
     d6a: 86 13        	stx	$13                     ; 0x2013 <end_block9+0xc9f>
     d6c: 90 df        	bcc	$d4d <textPrint+0x1e3>
     d6e: c6 6d        	dec	$6d                     ; 0x206d <end_block9+0xcf9>
     d70: a6 61        	ldx	$61                     ; 0x2061 <end_block9+0xced>
     d72: a0 00        	ldy	#$0
     d74: ca           	dex
     d75: e0 ff        	cpx	#$ff
     d77: d0 01        	bne	$d7a <textPrint+0x210>
     d79: 88           	dey
     d7a: 9c 08 de     	stz	$de08                   ; 0xde08 <end_block9+0xca94>
     d7d: a9 c0        	lda	#$c0
     d7f: 8d 09 de     	sta	$de09                   ; 0xde09 <end_block9+0xca95>
     d82: 9c 0a de     	stz	$de0a                   ; 0xde0a <end_block9+0xca96>
     d85: 9c 0b de     	stz	$de0b                   ; 0xde0b <end_block9+0xca97>
     d88: 8e 0c de     	stx	$de0c                   ; 0xde0c <end_block9+0xca98>
     d8b: 8c 0d de     	sty	$de0d                   ; 0xde0d <end_block9+0xca99>
     d8e: 9c 0e de     	stz	$de0e                   ; 0xde0e <end_block9+0xca9a>
     d91: 9c 0f de     	stz	$de0f                   ; 0xde0f <end_block9+0xca9b>
     d94: ae 18 de     	ldx	$de18                   ; 0xde18 <end_block9+0xcaa4>
     d97: ac 19 de     	ldy	$de19                   ; 0xde19 <end_block9+0xcaa5>
     d9a: ad 1a de     	lda	$de1a                   ; 0xde1a <end_block9+0xcaa6>
     d9d: ad 1b de     	lda	$de1b                   ; 0xde1b <end_block9+0xcaa7>
     da0: 86 12        	stx	$12                     ; 0x2012 <end_block9+0xc9e>
     da2: 84 13        	sty	$13                     ; 0x2013 <end_block9+0xc9f>
     da4: e6 d0        	inc	$d0                     ; 0x20d0 <end_block9+0xd5c>
     da6: d0 02        	bne	$daa <textPrint+0x240>
     da8: e6 d1        	inc	$d1                     ; 0x20d1 <end_block9+0xd5d>
     daa: 4c d2 0b     	jmp	$bd2 <textPrint+0x68>
     dad: a6 d3        	ldx	$d3                     ; 0x20d3 <end_block9+0xd5f>
     daf: 86 01        	stx	$1                      ; 0x2001 <end_block9+0xc8d>
     db1: a6 6c        	ldx	$6c                     ; 0x206c <end_block9+0xcf8>
     db3: a4 6d        	ldy	$6d                     ; 0x206d <end_block9+0xcf9>
     db5: 8e 14 d0     	stx	$d014                   ; 0xd014 <end_block9+0xbca0>
     db8: 9c 15 d0     	stz	$d015                   ; 0xd015 <end_block9+0xbca1>
     dbb: 84 6d        	sty	$6d                     ; 0x206d <end_block9+0xcf9>
     dbd: 8c 16 d0     	sty	$d016                   ; 0xd016 <end_block9+0xbca2>
     dc0: 9c 17 d0     	stz	$d017                   ; 0xd017 <end_block9+0xbca3>
     dc3: 60           	rts

00000dc4 <bitmapLine>:
     dc4: 48           	pha
     dc5: 18           	clc
     dc6: a5 10        	lda	$10                     ; 0x2010 <end_block9+0xc9c>
     dc8: 69 fc        	adc	#$fc
     dca: 85 10        	sta	$10                     ; 0x2010 <end_block9+0xc9c>
     dcc: a5 11        	lda	$11                     ; 0x2011 <end_block9+0xc9d>
     dce: 69 ff        	adc	#$ff
     dd0: 85 11        	sta	$11                     ; 0x2011 <end_block9+0xc9d>
     dd2: 68           	pla
     dd3: a4 24        	ldy	$24                     ; 0x2024 <end_block9+0xcb0>
     dd5: 5a           	phy
     dd6: a4 25        	ldy	$25                     ; 0x2025 <end_block9+0xcb1>
     dd8: 5a           	phy
     dd9: a4 26        	ldy	$26                     ; 0x2026 <end_block9+0xcb2>
     ddb: 5a           	phy
     ddc: a4 27        	ldy	$27                     ; 0x2027 <end_block9+0xcb3>
     dde: 5a           	phy
     ddf: 48           	pha
     de0: a5 28        	lda	$28                     ; 0x2028 <end_block9+0xcb4>
     de2: a0 03        	ldy	#$3
     de4: 91 10        	sta	($10),y                 ; 0x2010 <end_block9+0xc9c>
     de6: a5 29        	lda	$29                     ; 0x2029 <end_block9+0xcb5>
     de8: 88           	dey
     de9: 91 10        	sta	($10),y                 ; 0x2010 <end_block9+0xc9c>
     deb: a5 2a        	lda	$2a                     ; 0x202a <end_block9+0xcb6>
     ded: 88           	dey
     dee: 91 10        	sta	($10),y                 ; 0x2010 <end_block9+0xc9c>
     df0: a5 2b        	lda	$2b                     ; 0x202b <end_block9+0xcb7>
     df2: 88           	dey
     df3: 91 10        	sta	($10),y                 ; 0x2010 <end_block9+0xc9c>
     df5: 68           	pla
     df6: 85 19        	sta	$19                     ; 0x2019 <end_block9+0xca5>
     df8: 86 18        	stx	$18                     ; 0x2018 <end_block9+0xca4>
     dfa: a6 12        	ldx	$12                     ; 0x2012 <end_block9+0xc9e>
     dfc: 86 23        	stx	$23                     ; 0x2023 <end_block9+0xcaf>
     dfe: a4 14        	ldy	$14                     ; 0x2014 <end_block9+0xca0>
     e00: a5 15        	lda	$15                     ; 0x2015 <end_block9+0xca1>
     e02: a6 0f        	ldx	$f                      ; 0x200f <end_block9+0xc9b>
     e04: 86 1e        	stx	$1e                     ; 0x201e <end_block9+0xcaa>
     e06: 78           	sei
     e07: a6 19        	ldx	$19                     ; 0x2019 <end_block9+0xca5>
     e09: 86 22        	stx	$22                     ; 0x2022 <end_block9+0xcae>
     e0b: 84 25        	sty	$25                     ; 0x2025 <end_block9+0xcb1>
     e0d: 85 26        	sta	$26                     ; 0x2026 <end_block9+0xcb2>
     e0f: c5 18        	cmp	$18                     ; 0x2018 <end_block9+0xca4>
     e11: d0 1d        	bne	$e30 <bitmapLine+0x6c>
     e13: c4 19        	cpy	$19                     ; 0x2019 <end_block9+0xca5>
     e15: a8           	tay
     e16: 90 1d        	bcc	$e35 <bitmapLine+0x71>
     e18: 38           	sec
     e19: a5 25        	lda	$25                     ; 0x2025 <end_block9+0xcb1>
     e1b: e5 22        	sbc	$22                     ; 0x2022 <end_block9+0xcae>
     e1d: 85 1b        	sta	$1b                     ; 0x201b <end_block9+0xca7>
     e1f: a6 18        	ldx	$18                     ; 0x2018 <end_block9+0xca4>
     e21: 86 1f        	stx	$1f                     ; 0x201f <end_block9+0xcab>
     e23: 98           	tya
     e24: e5 18        	sbc	$18                     ; 0x2018 <end_block9+0xca4>
     e26: a2 01        	ldx	#$1
     e28: 86 12        	stx	$12                     ; 0x2012 <end_block9+0xc9e>
     e2a: 85 1a        	sta	$1a                     ; 0x201a <end_block9+0xca6>
     e2c: 64 24        	stz	$24                     ; 0x2024 <end_block9+0xcb0>
     e2e: 80 1e        	bra	$e4e <bitmapLine+0x8a>
     e30: c5 18        	cmp	$18                     ; 0x2018 <end_block9+0xca4>
     e32: a8           	tay
     e33: b0 e3        	bcs	$e18 <bitmapLine+0x54>
     e35: 38           	sec
     e36: a5 19        	lda	$19                     ; 0x2019 <end_block9+0xca5>
     e38: e5 25        	sbc	$25                     ; 0x2025 <end_block9+0xcb1>
     e3a: 85 1b        	sta	$1b                     ; 0x201b <end_block9+0xca7>
     e3c: 84 12        	sty	$12                     ; 0x2012 <end_block9+0xc9e>
     e3e: a6 18        	ldx	$18                     ; 0x2018 <end_block9+0xca4>
     e40: 86 1f        	stx	$1f                     ; 0x201f <end_block9+0xcab>
     e42: a5 18        	lda	$18                     ; 0x2018 <end_block9+0xca4>
     e44: e5 12        	sbc	$12                     ; 0x2012 <end_block9+0xc9e>
     e46: a2 ff        	ldx	#$ff
     e48: 86 12        	stx	$12                     ; 0x2012 <end_block9+0xc9e>
     e4a: 86 24        	stx	$24                     ; 0x2024 <end_block9+0xcb0>
     e4c: 85 1a        	sta	$1a                     ; 0x201a <end_block9+0xca6>
     e4e: a4 13        	ldy	$13                     ; 0x2013 <end_block9+0xc9f>
     e50: 84 14        	sty	$14                     ; 0x2014 <end_block9+0xca0>
     e52: a6 23        	ldx	$23                     ; 0x2023 <end_block9+0xcaf>
     e54: a5 17        	lda	$17                     ; 0x2017 <end_block9+0xca3>
     e56: c5 14        	cmp	$14                     ; 0x2014 <end_block9+0xca0>
     e58: d0 21        	bne	$e7b <bitmapLine+0xb7>
     e5a: 86 14        	stx	$14                     ; 0x2014 <end_block9+0xca0>
     e5c: a5 16        	lda	$16                     ; 0x2016 <end_block9+0xca2>
     e5e: c5 14        	cmp	$14                     ; 0x2014 <end_block9+0xca0>
     e60: 90 1f        	bcc	$e81 <bitmapLine+0xbd>
     e62: 38           	sec
     e63: 86 14        	stx	$14                     ; 0x2014 <end_block9+0xca0>
     e65: a5 16        	lda	$16                     ; 0x2016 <end_block9+0xca2>
     e67: e5 14        	sbc	$14                     ; 0x2014 <end_block9+0xca0>
     e69: 85 1d        	sta	$1d                     ; 0x201d <end_block9+0xca9>
     e6b: 84 14        	sty	$14                     ; 0x2014 <end_block9+0xca0>
     e6d: a5 17        	lda	$17                     ; 0x2017 <end_block9+0xca3>
     e6f: e5 14        	sbc	$14                     ; 0x2014 <end_block9+0xca0>
     e71: a2 01        	ldx	#$1
     e73: 86 14        	stx	$14                     ; 0x2014 <end_block9+0xca0>
     e75: 85 1c        	sta	$1c                     ; 0x201c <end_block9+0xca8>
     e77: 64 15        	stz	$15                     ; 0x2015 <end_block9+0xca1>
     e79: 80 1f        	bra	$e9a <bitmapLine+0xd6>
     e7b: 84 14        	sty	$14                     ; 0x2014 <end_block9+0xca0>
     e7d: c5 14        	cmp	$14                     ; 0x2014 <end_block9+0xca0>
     e7f: b0 e1        	bcs	$e62 <bitmapLine+0x9e>
     e81: 38           	sec
     e82: a5 16        	lda	$16                     ; 0x2016 <end_block9+0xca2>
     e84: 85 14        	sta	$14                     ; 0x2014 <end_block9+0xca0>
     e86: 8a           	txa
     e87: e5 14        	sbc	$14                     ; 0x2014 <end_block9+0xca0>
     e89: 85 1d        	sta	$1d                     ; 0x201d <end_block9+0xca9>
     e8b: a6 17        	ldx	$17                     ; 0x2017 <end_block9+0xca3>
     e8d: 86 14        	stx	$14                     ; 0x2014 <end_block9+0xca0>
     e8f: 98           	tya
     e90: e5 14        	sbc	$14                     ; 0x2014 <end_block9+0xca0>
     e92: a2 ff        	ldx	#$ff
     e94: 86 14        	stx	$14                     ; 0x2014 <end_block9+0xca0>
     e96: 86 15        	stx	$15                     ; 0x2015 <end_block9+0xca1>
     e98: 85 1c        	sta	$1c                     ; 0x201c <end_block9+0xca8>
     e9a: a6 1b        	ldx	$1b                     ; 0x201b <end_block9+0xca7>
     e9c: e4 1d        	cpx	$1d                     ; 0x201d <end_block9+0xca9>
     e9e: a5 1a        	lda	$1a                     ; 0x201a <end_block9+0xca6>
     ea0: e5 1c        	sbc	$1c                     ; 0x201c <end_block9+0xca8>
     ea2: 50 02        	bvc	$ea6 <bitmapLine+0xe2>
     ea4: 49 80        	eor	#$80
     ea6: a6 1b        	ldx	$1b                     ; 0x201b <end_block9+0xca7>
     ea8: 86 27        	stx	$27                     ; 0x2027 <end_block9+0xcb3>
     eaa: 06 27        	asl	$27                     ; 0x2027 <end_block9+0xcb3>
     eac: a6 1a        	ldx	$1a                     ; 0x201a <end_block9+0xca6>
     eae: 86 28        	stx	$28                     ; 0x2028 <end_block9+0xcb4>
     eb0: 26 28        	rol	$28                     ; 0x2028 <end_block9+0xcb4>
     eb2: a6 1d        	ldx	$1d                     ; 0x201d <end_block9+0xca9>
     eb4: 86 18        	stx	$18                     ; 0x2018 <end_block9+0xca4>
     eb6: 06 18        	asl	$18                     ; 0x2018 <end_block9+0xca4>
     eb8: a6 1c        	ldx	$1c                     ; 0x201c <end_block9+0xca8>
     eba: 86 19        	stx	$19                     ; 0x2019 <end_block9+0xca5>
     ebc: 26 19        	rol	$19                     ; 0x2019 <end_block9+0xca5>
     ebe: aa           	tax
     ebf: 10 19        	bpl	$eda <bitmapLine+0x116>
     ec1: a6 17        	ldx	$17                     ; 0x2017 <end_block9+0xca3>
     ec3: 86 1a        	stx	$1a                     ; 0x201a <end_block9+0xca6>
     ec5: a6 13        	ldx	$13                     ; 0x2013 <end_block9+0xc9f>
     ec7: e4 1a        	cpx	$1a                     ; 0x201a <end_block9+0xca6>
     ec9: d0 24        	bne	$eef <bitmapLine+0x12b>
     ecb: a6 16        	ldx	$16                     ; 0x2016 <end_block9+0xca2>
     ecd: 86 1a        	stx	$1a                     ; 0x201a <end_block9+0xca6>
     ecf: a4 22        	ldy	$22                     ; 0x2022 <end_block9+0xcae>
     ed1: a6 23        	ldx	$23                     ; 0x2023 <end_block9+0xcaf>
     ed3: e4 1a        	cpx	$1a                     ; 0x201a <end_block9+0xca6>
     ed5: d0 18        	bne	$eef <bitmapLine+0x12b>
     ed7: 4c 03 10     	jmp	$1003 <bitmapLine+0x23f>
     eda: a6 1f        	ldx	$1f                     ; 0x201f <end_block9+0xcab>
     edc: e4 26        	cpx	$26                     ; 0x2026 <end_block9+0xcb2>
     ede: f0 03        	beq	$ee3 <bitmapLine+0x11f>
     ee0: 4c 08 10     	jmp	$1008 <bitmapLine+0x244>
     ee3: a4 22        	ldy	$22                     ; 0x2022 <end_block9+0xcae>
     ee5: c4 25        	cpy	$25                     ; 0x2025 <end_block9+0xcb1>
     ee7: f0 03        	beq	$eec <bitmapLine+0x128>
     ee9: 4c 0a 10     	jmp	$100a <bitmapLine+0x246>
     eec: 4c 24 11     	jmp	$1124 <bitmapLine+0x360>
     eef: 38           	sec
     ef0: a5 27        	lda	$27                     ; 0x2027 <end_block9+0xcb3>
     ef2: e5 1d        	sbc	$1d                     ; 0x201d <end_block9+0xca9>
     ef4: 85 25        	sta	$25                     ; 0x2025 <end_block9+0xcb1>
     ef6: a5 28        	lda	$28                     ; 0x2028 <end_block9+0xcb4>
     ef8: e5 1c        	sbc	$1c                     ; 0x201c <end_block9+0xca8>
     efa: 85 26        	sta	$26                     ; 0x2026 <end_block9+0xcb2>
     efc: a5 7a        	lda	$7a                     ; 0x207a <end_block9+0xd06>
     efe: 0a           	asl
     eff: 64 1a        	stz	$1a                     ; 0x201a <end_block9+0xca6>
     f01: 26 1a        	rol	$1a                     ; 0x201a <end_block9+0xca6>
     f03: 0a           	asl
     f04: 85 1b        	sta	$1b                     ; 0x201b <end_block9+0xca7>
     f06: 26 1a        	rol	$1a                     ; 0x201a <end_block9+0xca6>
     f08: a9 6e        	lda	#$6e
     f0a: 18           	clc
     f0b: 65 1b        	adc	$1b                     ; 0x201b <end_block9+0xca7>
     f0d: 85 1c        	sta	$1c                     ; 0x201c <end_block9+0xca8>
     f0f: a9 00        	lda	#$0
     f11: 65 1a        	adc	$1a                     ; 0x201a <end_block9+0xca6>
     f13: 85 1d        	sta	$1d                     ; 0x201d <end_block9+0xca9>
     f15: b2 1c        	lda	($1c)                   ; 0x201c <end_block9+0xca8>
     f17: 85 1a        	sta	$1a                     ; 0x201a <end_block9+0xca6>
     f19: a0 01        	ldy	#$1
     f1b: b1 1c        	lda	($1c),y                 ; 0x201c <end_block9+0xca8>
     f1d: 85 1b        	sta	$1b                     ; 0x201b <end_block9+0xca7>
     f1f: c8           	iny
     f20: b1 1c        	lda	($1c),y                 ; 0x201c <end_block9+0xca8>
     f22: 85 1c        	sta	$1c                     ; 0x201c <end_block9+0xca8>
     f24: a5 7c        	lda	$7c                     ; 0x207c <end_block9+0xd08>
     f26: 29 01        	and	#$1
     f28: a0 40        	ldy	#$40
     f2a: a2 01        	ldx	#$1
     f2c: c9 00        	cmp	#$0
     f2e: d0 04        	bne	$f34 <bitmapLine+0x170>
     f30: a0 00        	ldy	#$0
     f32: a2 00        	ldx	#$0
     f34: a5 23        	lda	$23                     ; 0x2023 <end_block9+0xcaf>
     f36: 8d 00 de     	sta	$de00                   ; 0xde00 <end_block9+0xca8c>
     f39: a5 13        	lda	$13                     ; 0x2013 <end_block9+0xc9f>
     f3b: 8d 01 de     	sta	$de01                   ; 0xde01 <end_block9+0xca8d>
     f3e: 8c 02 de     	sty	$de02                   ; 0xde02 <end_block9+0xca8e>
     f41: 8e 03 de     	stx	$de03                   ; 0xde03 <end_block9+0xca8f>
     f44: ae 10 de     	ldx	$de10                   ; 0xde10 <end_block9+0xca9c>
     f47: 86 29        	stx	$29                     ; 0x2029 <end_block9+0xcb5>
     f49: ac 11 de     	ldy	$de11                   ; 0xde11 <end_block9+0xca9d>
     f4c: ad 12 de     	lda	$de12                   ; 0xde12 <end_block9+0xca9e>
     f4f: ae 13 de     	ldx	$de13                   ; 0xde13 <end_block9+0xca9f>
     f52: 86 1d        	stx	$1d                     ; 0x201d <end_block9+0xca9>
     f54: a6 29        	ldx	$29                     ; 0x2029 <end_block9+0xcb5>
     f56: 8e 08 de     	stx	$de08                   ; 0xde08 <end_block9+0xca94>
     f59: 8c 09 de     	sty	$de09                   ; 0xde09 <end_block9+0xca95>
     f5c: 8d 0a de     	sta	$de0a                   ; 0xde0a <end_block9+0xca96>
     f5f: a6 1d        	ldx	$1d                     ; 0x201d <end_block9+0xca9>
     f61: 8e 0b de     	stx	$de0b                   ; 0xde0b <end_block9+0xca97>
     f64: a6 22        	ldx	$22                     ; 0x2022 <end_block9+0xcae>
     f66: 8e 0c de     	stx	$de0c                   ; 0xde0c <end_block9+0xca98>
     f69: a6 1f        	ldx	$1f                     ; 0x201f <end_block9+0xcab>
     f6b: 8e 0d de     	stx	$de0d                   ; 0xde0d <end_block9+0xca99>
     f6e: 9c 0e de     	stz	$de0e                   ; 0xde0e <end_block9+0xca9a>
     f71: 9c 0f de     	stz	$de0f                   ; 0xde0f <end_block9+0xca9b>
     f74: ad 18 de     	lda	$de18                   ; 0xde18 <end_block9+0xcaa4>
     f77: ac 19 de     	ldy	$de19                   ; 0xde19 <end_block9+0xcaa5>
     f7a: ae 1a de     	ldx	$de1a                   ; 0xde1a <end_block9+0xcaa6>
     f7d: 86 29        	stx	$29                     ; 0x2029 <end_block9+0xcb5>
     f7f: ae 1b de     	ldx	$de1b                   ; 0xde1b <end_block9+0xcaa7>
     f82: 18           	clc
     f83: 65 1a        	adc	$1a                     ; 0x201a <end_block9+0xca6>
     f85: aa           	tax
     f86: 98           	tya
     f87: 65 1b        	adc	$1b                     ; 0x201b <end_block9+0xca7>
     f89: a8           	tay
     f8a: a5 29        	lda	$29                     ; 0x2029 <end_block9+0xcb5>
     f8c: 65 1c        	adc	$1c                     ; 0x201c <end_block9+0xca8>
     f8e: 85 1b        	sta	$1b                     ; 0x201b <end_block9+0xca7>
     f90: 98           	tya
     f91: 84 1a        	sty	$1a                     ; 0x201a <end_block9+0xca6>
     f93: 06 1a        	asl	$1a                     ; 0x201a <end_block9+0xca6>
     f95: 26 1b        	rol	$1b                     ; 0x201b <end_block9+0xca7>
     f97: 06 1a        	asl	$1a                     ; 0x201a <end_block9+0xca6>
     f99: 26 1b        	rol	$1b                     ; 0x201b <end_block9+0xca7>
     f9b: 06 1a        	asl	$1a                     ; 0x201a <end_block9+0xca6>
     f9d: 26 1b        	rol	$1b                     ; 0x201b <end_block9+0xca7>
     f9f: a4 1b        	ldy	$1b                     ; 0x201b <end_block9+0xca7>
     fa1: 84 0f        	sty	$f                      ; 0x200f <end_block9+0xc9b>
     fa3: a4 7b        	ldy	$7b                     ; 0x207b <end_block9+0xd07>
     fa5: 09 e0        	ora	#$e0
     fa7: 86 1a        	stx	$1a                     ; 0x201a <end_block9+0xca6>
     fa9: 85 1b        	sta	$1b                     ; 0x201b <end_block9+0xca7>
     fab: 98           	tya
     fac: 92 1a        	sta	($1a)                   ; 0x201a <end_block9+0xca6>
     fae: a6 26        	ldx	$26                     ; 0x2026 <end_block9+0xcb2>
     fb0: 30 1a        	bmi	$fcc <bitmapLine+0x208>
     fb2: 18           	clc
     fb3: a5 22        	lda	$22                     ; 0x2022 <end_block9+0xcae>
     fb5: 65 12        	adc	$12                     ; 0x2012 <end_block9+0xc9e>
     fb7: 85 22        	sta	$22                     ; 0x2022 <end_block9+0xcae>
     fb9: a5 1f        	lda	$1f                     ; 0x201f <end_block9+0xcab>
     fbb: 65 24        	adc	$24                     ; 0x2024 <end_block9+0xcb0>
     fbd: 85 1f        	sta	$1f                     ; 0x201f <end_block9+0xcab>
     fbf: 38           	sec
     fc0: a5 25        	lda	$25                     ; 0x2025 <end_block9+0xcb1>
     fc2: e5 18        	sbc	$18                     ; 0x2018 <end_block9+0xca4>
     fc4: a8           	tay
     fc5: 8a           	txa
     fc6: e5 19        	sbc	$19                     ; 0x2019 <end_block9+0xca5>
     fc8: aa           	tax
     fc9: 98           	tya
     fca: 80 02        	bra	$fce <bitmapLine+0x20a>
     fcc: a5 25        	lda	$25                     ; 0x2025 <end_block9+0xcb1>
     fce: 18           	clc
     fcf: 65 27        	adc	$27                     ; 0x2027 <end_block9+0xcb3>
     fd1: 85 25        	sta	$25                     ; 0x2025 <end_block9+0xcb1>
     fd3: 8a           	txa
     fd4: 65 28        	adc	$28                     ; 0x2028 <end_block9+0xcb4>
     fd6: 85 26        	sta	$26                     ; 0x2026 <end_block9+0xcb2>
     fd8: a5 23        	lda	$23                     ; 0x2023 <end_block9+0xcaf>
     fda: 18           	clc
     fdb: 65 14        	adc	$14                     ; 0x2014 <end_block9+0xca0>
     fdd: 85 23        	sta	$23                     ; 0x2023 <end_block9+0xcaf>
     fdf: a5 13        	lda	$13                     ; 0x2013 <end_block9+0xc9f>
     fe1: 65 15        	adc	$15                     ; 0x2015 <end_block9+0xca1>
     fe3: 85 1b        	sta	$1b                     ; 0x201b <end_block9+0xca7>
     fe5: a6 23        	ldx	$23                     ; 0x2023 <end_block9+0xcaf>
     fe7: 85 13        	sta	$13                     ; 0x2013 <end_block9+0xc9f>
     fe9: a4 17        	ldy	$17                     ; 0x2017 <end_block9+0xca3>
     feb: c4 1b        	cpy	$1b                     ; 0x201b <end_block9+0xca7>
     fed: f0 03        	beq	$ff2 <bitmapLine+0x22e>
     fef: 4c fc 0e     	jmp	$efc <bitmapLine+0x138>
     ff2: a6 23        	ldx	$23                     ; 0x2023 <end_block9+0xcaf>
     ff4: 85 13        	sta	$13                     ; 0x2013 <end_block9+0xc9f>
     ff6: a4 16        	ldy	$16                     ; 0x2016 <end_block9+0xca2>
     ff8: c4 23        	cpy	$23                     ; 0x2023 <end_block9+0xcaf>
     ffa: f0 03        	beq	$fff <bitmapLine+0x23b>
     ffc: 4c fc 0e     	jmp	$efc <bitmapLine+0x138>
     fff: 85 13        	sta	$13                     ; 0x2013 <end_block9+0xc9f>
    1001: a4 22        	ldy	$22                     ; 0x2022 <end_block9+0xcae>
    1003: a6 1f        	ldx	$1f                     ; 0x201f <end_block9+0xcab>
    1005: 4c 24 11     	jmp	$1124 <bitmapLine+0x360>
    1008: a4 22        	ldy	$22                     ; 0x2022 <end_block9+0xcae>
    100a: 38           	sec
    100b: a5 18        	lda	$18                     ; 0x2018 <end_block9+0xca4>
    100d: e5 1b        	sbc	$1b                     ; 0x201b <end_block9+0xca7>
    100f: 85 16        	sta	$16                     ; 0x2016 <end_block9+0xca2>
    1011: a5 19        	lda	$19                     ; 0x2019 <end_block9+0xca5>
    1013: e5 1a        	sbc	$1a                     ; 0x201a <end_block9+0xca6>
    1015: 85 17        	sta	$17                     ; 0x2017 <end_block9+0xca3>
    1017: 84 22        	sty	$22                     ; 0x2022 <end_block9+0xcae>
    1019: 86 1f        	stx	$1f                     ; 0x201f <end_block9+0xcab>
    101b: a5 7a        	lda	$7a                     ; 0x207a <end_block9+0xd06>
    101d: 0a           	asl
    101e: 64 1a        	stz	$1a                     ; 0x201a <end_block9+0xca6>
    1020: 26 1a        	rol	$1a                     ; 0x201a <end_block9+0xca6>
    1022: 0a           	asl
    1023: 85 1b        	sta	$1b                     ; 0x201b <end_block9+0xca7>
    1025: 26 1a        	rol	$1a                     ; 0x201a <end_block9+0xca6>
    1027: a9 6e        	lda	#$6e
    1029: 18           	clc
    102a: 65 1b        	adc	$1b                     ; 0x201b <end_block9+0xca7>
    102c: 85 1c        	sta	$1c                     ; 0x201c <end_block9+0xca8>
    102e: a9 00        	lda	#$0
    1030: 65 1a        	adc	$1a                     ; 0x201a <end_block9+0xca6>
    1032: 85 1d        	sta	$1d                     ; 0x201d <end_block9+0xca9>
    1034: b2 1c        	lda	($1c)                   ; 0x201c <end_block9+0xca8>
    1036: 85 1a        	sta	$1a                     ; 0x201a <end_block9+0xca6>
    1038: a0 01        	ldy	#$1
    103a: b1 1c        	lda	($1c),y                 ; 0x201c <end_block9+0xca8>
    103c: 85 1b        	sta	$1b                     ; 0x201b <end_block9+0xca7>
    103e: c8           	iny
    103f: b1 1c        	lda	($1c),y                 ; 0x201c <end_block9+0xca8>
    1041: 85 1c        	sta	$1c                     ; 0x201c <end_block9+0xca8>
    1043: a5 7c        	lda	$7c                     ; 0x207c <end_block9+0xd08>
    1045: 29 01        	and	#$1
    1047: a0 40        	ldy	#$40
    1049: a2 01        	ldx	#$1
    104b: c9 00        	cmp	#$0
    104d: d0 04        	bne	$1053 <bitmapLine+0x28f>
    104f: a0 00        	ldy	#$0
    1051: a2 00        	ldx	#$0
    1053: a5 23        	lda	$23                     ; 0x2023 <end_block9+0xcaf>
    1055: 85 29        	sta	$29                     ; 0x2029 <end_block9+0xcb5>
    1057: 8d 00 de     	sta	$de00                   ; 0xde00 <end_block9+0xca8c>
    105a: a5 13        	lda	$13                     ; 0x2013 <end_block9+0xc9f>
    105c: 85 1d        	sta	$1d                     ; 0x201d <end_block9+0xca9>
    105e: 8d 01 de     	sta	$de01                   ; 0xde01 <end_block9+0xca8d>
    1061: 8c 02 de     	sty	$de02                   ; 0xde02 <end_block9+0xca8e>
    1064: 8e 03 de     	stx	$de03                   ; 0xde03 <end_block9+0xca8f>
    1067: ae 10 de     	ldx	$de10                   ; 0xde10 <end_block9+0xca9c>
    106a: 86 2b        	stx	$2b                     ; 0x202b <end_block9+0xcb7>
    106c: ac 11 de     	ldy	$de11                   ; 0xde11 <end_block9+0xca9d>
    106f: ad 12 de     	lda	$de12                   ; 0xde12 <end_block9+0xca9e>
    1072: ae 13 de     	ldx	$de13                   ; 0xde13 <end_block9+0xca9f>
    1075: 86 2a        	stx	$2a                     ; 0x202a <end_block9+0xcb6>
    1077: a6 2b        	ldx	$2b                     ; 0x202b <end_block9+0xcb7>
    1079: 8e 08 de     	stx	$de08                   ; 0xde08 <end_block9+0xca94>
    107c: 8c 09 de     	sty	$de09                   ; 0xde09 <end_block9+0xca95>
    107f: 8d 0a de     	sta	$de0a                   ; 0xde0a <end_block9+0xca96>
    1082: a6 2a        	ldx	$2a                     ; 0x202a <end_block9+0xcb6>
    1084: 8e 0b de     	stx	$de0b                   ; 0xde0b <end_block9+0xca97>
    1087: a6 22        	ldx	$22                     ; 0x2022 <end_block9+0xcae>
    1089: 8e 0c de     	stx	$de0c                   ; 0xde0c <end_block9+0xca98>
    108c: a6 1f        	ldx	$1f                     ; 0x201f <end_block9+0xcab>
    108e: 8e 0d de     	stx	$de0d                   ; 0xde0d <end_block9+0xca99>
    1091: 9c 0e de     	stz	$de0e                   ; 0xde0e <end_block9+0xca9a>
    1094: 9c 0f de     	stz	$de0f                   ; 0xde0f <end_block9+0xca9b>
    1097: ad 18 de     	lda	$de18                   ; 0xde18 <end_block9+0xcaa4>
    109a: ae 19 de     	ldx	$de19                   ; 0xde19 <end_block9+0xcaa5>
    109d: 86 2b        	stx	$2b                     ; 0x202b <end_block9+0xcb7>
    109f: ae 1a de     	ldx	$de1a                   ; 0xde1a <end_block9+0xcaa6>
    10a2: 86 2a        	stx	$2a                     ; 0x202a <end_block9+0xcb6>
    10a4: ae 1b de     	ldx	$de1b                   ; 0xde1b <end_block9+0xcaa7>
    10a7: 18           	clc
    10a8: 65 1a        	adc	$1a                     ; 0x201a <end_block9+0xca6>
    10aa: aa           	tax
    10ab: a5 2b        	lda	$2b                     ; 0x202b <end_block9+0xcb7>
    10ad: 65 1b        	adc	$1b                     ; 0x201b <end_block9+0xca7>
    10af: a8           	tay
    10b0: a5 2a        	lda	$2a                     ; 0x202a <end_block9+0xcb6>
    10b2: 65 1c        	adc	$1c                     ; 0x201c <end_block9+0xca8>
    10b4: 85 1b        	sta	$1b                     ; 0x201b <end_block9+0xca7>
    10b6: 98           	tya
    10b7: 84 1a        	sty	$1a                     ; 0x201a <end_block9+0xca6>
    10b9: 06 1a        	asl	$1a                     ; 0x201a <end_block9+0xca6>
    10bb: 26 1b        	rol	$1b                     ; 0x201b <end_block9+0xca7>
    10bd: 06 1a        	asl	$1a                     ; 0x201a <end_block9+0xca6>
    10bf: 26 1b        	rol	$1b                     ; 0x201b <end_block9+0xca7>
    10c1: 06 1a        	asl	$1a                     ; 0x201a <end_block9+0xca6>
    10c3: 26 1b        	rol	$1b                     ; 0x201b <end_block9+0xca7>
    10c5: a4 1b        	ldy	$1b                     ; 0x201b <end_block9+0xca7>
    10c7: 84 0f        	sty	$f                      ; 0x200f <end_block9+0xc9b>
    10c9: a4 7b        	ldy	$7b                     ; 0x207b <end_block9+0xd07>
    10cb: 09 e0        	ora	#$e0
    10cd: 86 1a        	stx	$1a                     ; 0x201a <end_block9+0xca6>
    10cf: 85 1b        	sta	$1b                     ; 0x201b <end_block9+0xca7>
    10d1: 98           	tya
    10d2: 92 1a        	sta	($1a)                   ; 0x201a <end_block9+0xca6>
    10d4: a6 17        	ldx	$17                     ; 0x2017 <end_block9+0xca3>
    10d6: 30 1a        	bmi	$10f2 <bitmapLine+0x32e>
    10d8: 18           	clc
    10d9: a5 29        	lda	$29                     ; 0x2029 <end_block9+0xcb5>
    10db: 65 14        	adc	$14                     ; 0x2014 <end_block9+0xca0>
    10dd: 85 23        	sta	$23                     ; 0x2023 <end_block9+0xcaf>
    10df: a5 1d        	lda	$1d                     ; 0x201d <end_block9+0xca9>
    10e1: 65 15        	adc	$15                     ; 0x2015 <end_block9+0xca1>
    10e3: 85 13        	sta	$13                     ; 0x2013 <end_block9+0xc9f>
    10e5: 38           	sec
    10e6: a5 16        	lda	$16                     ; 0x2016 <end_block9+0xca2>
    10e8: e5 27        	sbc	$27                     ; 0x2027 <end_block9+0xcb3>
    10ea: a8           	tay
    10eb: 8a           	txa
    10ec: e5 28        	sbc	$28                     ; 0x2028 <end_block9+0xcb4>
    10ee: aa           	tax
    10ef: 98           	tya
    10f0: 80 02        	bra	$10f4 <bitmapLine+0x330>
    10f2: a5 16        	lda	$16                     ; 0x2016 <end_block9+0xca2>
    10f4: 18           	clc
    10f5: 65 18        	adc	$18                     ; 0x2018 <end_block9+0xca4>
    10f7: 85 16        	sta	$16                     ; 0x2016 <end_block9+0xca2>
    10f9: 8a           	txa
    10fa: 65 19        	adc	$19                     ; 0x2019 <end_block9+0xca5>
    10fc: 85 17        	sta	$17                     ; 0x2017 <end_block9+0xca3>
    10fe: a5 22        	lda	$22                     ; 0x2022 <end_block9+0xcae>
    1100: 18           	clc
    1101: 65 12        	adc	$12                     ; 0x2012 <end_block9+0xc9e>
    1103: 85 1a        	sta	$1a                     ; 0x201a <end_block9+0xca6>
    1105: a5 1f        	lda	$1f                     ; 0x201f <end_block9+0xcab>
    1107: 65 24        	adc	$24                     ; 0x2024 <end_block9+0xcb0>
    1109: 85 1b        	sta	$1b                     ; 0x201b <end_block9+0xca7>
    110b: a4 1a        	ldy	$1a                     ; 0x201a <end_block9+0xca6>
    110d: aa           	tax
    110e: a5 26        	lda	$26                     ; 0x2026 <end_block9+0xcb2>
    1110: c5 1b        	cmp	$1b                     ; 0x201b <end_block9+0xca7>
    1112: f0 03        	beq	$1117 <bitmapLine+0x353>
    1114: 4c 17 10     	jmp	$1017 <bitmapLine+0x253>
    1117: a4 1a        	ldy	$1a                     ; 0x201a <end_block9+0xca6>
    1119: a6 1b        	ldx	$1b                     ; 0x201b <end_block9+0xca7>
    111b: a5 25        	lda	$25                     ; 0x2025 <end_block9+0xcb1>
    111d: c5 1a        	cmp	$1a                     ; 0x201a <end_block9+0xca6>
    111f: f0 03        	beq	$1124 <bitmapLine+0x360>
    1121: 4c 17 10     	jmp	$1017 <bitmapLine+0x253>
    1124: 84 17        	sty	$17                     ; 0x2017 <end_block9+0xca3>
    1126: 86 16        	stx	$16                     ; 0x2016 <end_block9+0xca2>
    1128: a5 7a        	lda	$7a                     ; 0x207a <end_block9+0xd06>
    112a: 64 12        	stz	$12                     ; 0x2012 <end_block9+0xc9e>
    112c: 0a           	asl
    112d: 26 12        	rol	$12                     ; 0x2012 <end_block9+0xc9e>
    112f: 0a           	asl
    1130: 85 14        	sta	$14                     ; 0x2014 <end_block9+0xca0>
    1132: 26 12        	rol	$12                     ; 0x2012 <end_block9+0xc9e>
    1134: a9 6e        	lda	#$6e
    1136: 18           	clc
    1137: 65 14        	adc	$14                     ; 0x2014 <end_block9+0xca0>
    1139: 85 14        	sta	$14                     ; 0x2014 <end_block9+0xca0>
    113b: a9 00        	lda	#$0
    113d: 65 12        	adc	$12                     ; 0x2012 <end_block9+0xc9e>
    113f: a0 01        	ldy	#$1
    1141: 85 15        	sta	$15                     ; 0x2015 <end_block9+0xca1>
    1143: b2 14        	lda	($14)                   ; 0x2014 <end_block9+0xca0>
    1145: 85 12        	sta	$12                     ; 0x2012 <end_block9+0xc9e>
    1147: b1 14        	lda	($14),y                 ; 0x2014 <end_block9+0xca0>
    1149: 85 18        	sta	$18                     ; 0x2018 <end_block9+0xca4>
    114b: c8           	iny
    114c: b1 14        	lda	($14),y                 ; 0x2014 <end_block9+0xca0>
    114e: 88           	dey
    114f: 85 14        	sta	$14                     ; 0x2014 <end_block9+0xca0>
    1151: a5 7c        	lda	$7c                     ; 0x207c <end_block9+0xd08>
    1153: 29 01        	and	#$1
    1155: a2 40        	ldx	#$40
    1157: c9 00        	cmp	#$0
    1159: d0 04        	bne	$115f <bitmapLine+0x39b>
    115b: a2 00        	ldx	#$0
    115d: a0 00        	ldy	#$0
    115f: a5 23        	lda	$23                     ; 0x2023 <end_block9+0xcaf>
    1161: 8d 00 de     	sta	$de00                   ; 0xde00 <end_block9+0xca8c>
    1164: a5 13        	lda	$13                     ; 0x2013 <end_block9+0xc9f>
    1166: 8d 01 de     	sta	$de01                   ; 0xde01 <end_block9+0xca8d>
    1169: 8e 02 de     	stx	$de02                   ; 0xde02 <end_block9+0xca8e>
    116c: 8c 03 de     	sty	$de03                   ; 0xde03 <end_block9+0xca8f>
    116f: ae 10 de     	ldx	$de10                   ; 0xde10 <end_block9+0xca9c>
    1172: 86 15        	stx	$15                     ; 0x2015 <end_block9+0xca1>
    1174: ac 11 de     	ldy	$de11                   ; 0xde11 <end_block9+0xca9d>
    1177: ad 12 de     	lda	$de12                   ; 0xde12 <end_block9+0xca9e>
    117a: ae 13 de     	ldx	$de13                   ; 0xde13 <end_block9+0xca9f>
    117d: 86 13        	stx	$13                     ; 0x2013 <end_block9+0xc9f>
    117f: a6 15        	ldx	$15                     ; 0x2015 <end_block9+0xca1>
    1181: 8e 08 de     	stx	$de08                   ; 0xde08 <end_block9+0xca94>
    1184: 8c 09 de     	sty	$de09                   ; 0xde09 <end_block9+0xca95>
    1187: 8d 0a de     	sta	$de0a                   ; 0xde0a <end_block9+0xca96>
    118a: a6 13        	ldx	$13                     ; 0x2013 <end_block9+0xc9f>
    118c: 8e 0b de     	stx	$de0b                   ; 0xde0b <end_block9+0xca97>
    118f: a6 17        	ldx	$17                     ; 0x2017 <end_block9+0xca3>
    1191: 8e 0c de     	stx	$de0c                   ; 0xde0c <end_block9+0xca98>
    1194: a6 16        	ldx	$16                     ; 0x2016 <end_block9+0xca2>
    1196: 8e 0d de     	stx	$de0d                   ; 0xde0d <end_block9+0xca99>
    1199: 9c 0e de     	stz	$de0e                   ; 0xde0e <end_block9+0xca9a>
    119c: 9c 0f de     	stz	$de0f                   ; 0xde0f <end_block9+0xca9b>
    119f: ad 18 de     	lda	$de18                   ; 0xde18 <end_block9+0xcaa4>
    11a2: ac 19 de     	ldy	$de19                   ; 0xde19 <end_block9+0xcaa5>
    11a5: ae 1a de     	ldx	$de1a                   ; 0xde1a <end_block9+0xcaa6>
    11a8: 86 15        	stx	$15                     ; 0x2015 <end_block9+0xca1>
    11aa: ae 1b de     	ldx	$de1b                   ; 0xde1b <end_block9+0xcaa7>
    11ad: 18           	clc
    11ae: 65 12        	adc	$12                     ; 0x2012 <end_block9+0xc9e>
    11b0: aa           	tax
    11b1: 98           	tya
    11b2: 65 18        	adc	$18                     ; 0x2018 <end_block9+0xca4>
    11b4: a8           	tay
    11b5: a5 15        	lda	$15                     ; 0x2015 <end_block9+0xca1>
    11b7: 65 14        	adc	$14                     ; 0x2014 <end_block9+0xca0>
    11b9: 85 13        	sta	$13                     ; 0x2013 <end_block9+0xc9f>
    11bb: 98           	tya
    11bc: 84 12        	sty	$12                     ; 0x2012 <end_block9+0xc9e>
    11be: 06 12        	asl	$12                     ; 0x2012 <end_block9+0xc9e>
    11c0: 26 13        	rol	$13                     ; 0x2013 <end_block9+0xc9f>
    11c2: 06 12        	asl	$12                     ; 0x2012 <end_block9+0xc9e>
    11c4: 26 13        	rol	$13                     ; 0x2013 <end_block9+0xc9f>
    11c6: 06 12        	asl	$12                     ; 0x2012 <end_block9+0xc9e>
    11c8: 26 13        	rol	$13                     ; 0x2013 <end_block9+0xc9f>
    11ca: a4 13        	ldy	$13                     ; 0x2013 <end_block9+0xc9f>
    11cc: 84 0f        	sty	$f                      ; 0x200f <end_block9+0xc9b>
    11ce: a4 7b        	ldy	$7b                     ; 0x207b <end_block9+0xd07>
    11d0: 09 e0        	ora	#$e0
    11d2: 86 12        	stx	$12                     ; 0x2012 <end_block9+0xc9e>
    11d4: 85 13        	sta	$13                     ; 0x2013 <end_block9+0xc9f>
    11d6: 98           	tya
    11d7: 92 12        	sta	($12)                   ; 0x2012 <end_block9+0xc9e>
    11d9: a6 1e        	ldx	$1e                     ; 0x201e <end_block9+0xcaa>
    11db: 86 0f        	stx	$f                      ; 0x200f <end_block9+0xc9b>
    11dd: 58           	cli
    11de: a0 00        	ldy	#$0
    11e0: b1 10        	lda	($10),y                 ; 0x2010 <end_block9+0xc9c>
    11e2: 85 2b        	sta	$2b                     ; 0x202b <end_block9+0xcb7>
    11e4: c8           	iny
    11e5: b1 10        	lda	($10),y                 ; 0x2010 <end_block9+0xc9c>
    11e7: 85 2a        	sta	$2a                     ; 0x202a <end_block9+0xcb6>
    11e9: c8           	iny
    11ea: b1 10        	lda	($10),y                 ; 0x2010 <end_block9+0xc9c>
    11ec: 85 29        	sta	$29                     ; 0x2029 <end_block9+0xcb5>
    11ee: c8           	iny
    11ef: b1 10        	lda	($10),y                 ; 0x2010 <end_block9+0xc9c>
    11f1: 85 28        	sta	$28                     ; 0x2028 <end_block9+0xcb4>
    11f3: fa           	plx
    11f4: 86 27        	stx	$27                     ; 0x2027 <end_block9+0xcb3>
    11f6: fa           	plx
    11f7: 86 26        	stx	$26                     ; 0x2026 <end_block9+0xcb2>
    11f9: fa           	plx
    11fa: 86 25        	stx	$25                     ; 0x2025 <end_block9+0xcb1>
    11fc: fa           	plx
    11fd: 86 24        	stx	$24                     ; 0x2024 <end_block9+0xcb0>
    11ff: 18           	clc
    1200: a5 10        	lda	$10                     ; 0x2010 <end_block9+0xc9c>
    1202: 69 04        	adc	#$4
    1204: 85 10        	sta	$10                     ; 0x2010 <end_block9+0xc9c>
    1206: a5 11        	lda	$11                     ; 0x2011 <end_block9+0xc9d>
    1208: 69 00        	adc	#$0
    120a: 85 11        	sta	$11                     ; 0x2011 <end_block9+0xc9d>
    120c: 60           	rts

0000120d <exit>:
    120d: 85 cc        	sta	$cc                     ; 0x20cc <end_block9+0xd58>
    120f: 86 cd        	stx	$cd                     ; 0x20cd <end_block9+0xd59>
    1211: 20 4a 03     	jsr	$34a <_fini>
    1214: a6 cd        	ldx	$cd                     ; 0x20cd <end_block9+0xd59>
    1216: a5 cc        	lda	$cc                     ; 0x20cc <end_block9+0xd58>
    1218: 20 1b 12     	jsr	$121b <_Exit>

0000121b <_Exit>:
    121b: 80 fe        	bra	$121b <_Exit>

0000121d <memcpy>:
    121d: a8           	tay
    121e: 8a           	txa
    121f: d0 03        	bne	$1224 <memcpy+0x7>
    1221: 98           	tya
    1222: f0 24        	beq	$1248 <memcpy+0x2b>
    1224: a5 12        	lda	$12                     ; 0x2012 <end_block9+0xc9e>
    1226: 85 16        	sta	$16                     ; 0x2016 <end_block9+0xca2>
    1228: a5 13        	lda	$13                     ; 0x2013 <end_block9+0xc9f>
    122a: 85 17        	sta	$17                     ; 0x2017 <end_block9+0xca3>
    122c: b2 14        	lda	($14)                   ; 0x2014 <end_block9+0xca0>
    122e: 92 16        	sta	($16)                   ; 0x2016 <end_block9+0xca2>
    1230: e6 16        	inc	$16                     ; 0x2016 <end_block9+0xca2>
    1232: d0 02        	bne	$1236 <memcpy+0x19>
    1234: e6 17        	inc	$17                     ; 0x2017 <end_block9+0xca3>
    1236: e6 14        	inc	$14                     ; 0x2014 <end_block9+0xca0>
    1238: d0 02        	bne	$123c <memcpy+0x1f>
    123a: e6 15        	inc	$15                     ; 0x2015 <end_block9+0xca1>
    123c: 88           	dey
    123d: c0 ff        	cpy	#$ff
    123f: d0 01        	bne	$1242 <memcpy+0x25>
    1241: ca           	dex
    1242: 8a           	txa
    1243: d0 e7        	bne	$122c <memcpy+0xf>
    1245: 98           	tya
    1246: d0 e4        	bne	$122c <memcpy+0xf>
    1248: 60           	rts

00001249 <__memset>:
    1249: a4 14        	ldy	$14                     ; 0x2014 <end_block9+0xca0>
    124b: d0 04        	bne	$1251 <__memset+0x8>
    124d: e0 00        	cpx	#$0
    124f: f0 17        	beq	$1268 <__memset+0x1f>
    1251: 92 12        	sta	($12)                   ; 0x2012 <end_block9+0xc9e>
    1253: e6 12        	inc	$12                     ; 0x2012 <end_block9+0xc9e>
    1255: d0 02        	bne	$1259 <__memset+0x10>
    1257: e6 13        	inc	$13                     ; 0x2013 <end_block9+0xc9f>
    1259: ca           	dex
    125a: e0 ff        	cpx	#$ff
    125c: d0 02        	bne	$1260 <__memset+0x17>
    125e: c6 14        	dec	$14                     ; 0x2014 <end_block9+0xca0>
    1260: a4 14        	ldy	$14                     ; 0x2014 <end_block9+0xca0>
    1262: d0 ed        	bne	$1251 <__memset+0x8>
    1264: e0 00        	cpx	#$0
    1266: d0 e9        	bne	$1251 <__memset+0x8>
    1268: 60           	rts

00001269 <__mulhi3>:
    1269: a4 13        	ldy	$13                     ; 0x2013 <end_block9+0xc9f>
    126b: d0 04        	bne	$1271 <__mulhi3+0x8>
    126d: a4 12        	ldy	$12                     ; 0x2012 <end_block9+0xc9e>
    126f: f0 25        	beq	$1296 <__mulhi3+0x2d>
    1271: 85 14        	sta	$14                     ; 0x2014 <end_block9+0xca0>
    1273: 86 15        	stx	$15                     ; 0x2015 <end_block9+0xca1>
    1275: a0 00        	ldy	#$0
    1277: 98           	tya
    1278: 46 13        	lsr	$13                     ; 0x2013 <end_block9+0xc9f>
    127a: 66 12        	ror	$12                     ; 0x2012 <end_block9+0xc9e>
    127c: 90 09        	bcc	$1287 <__mulhi3+0x1e>
    127e: aa           	tax
    127f: 98           	tya
    1280: 18           	clc
    1281: 65 14        	adc	$14                     ; 0x2014 <end_block9+0xca0>
    1283: a8           	tay
    1284: 8a           	txa
    1285: 65 15        	adc	$15                     ; 0x2015 <end_block9+0xca1>
    1287: 06 14        	asl	$14                     ; 0x2014 <end_block9+0xca0>
    1289: 26 15        	rol	$15                     ; 0x2015 <end_block9+0xca1>
    128b: a6 13        	ldx	$13                     ; 0x2013 <end_block9+0xc9f>
    128d: d0 e9        	bne	$1278 <__mulhi3+0xf>
    128f: a6 12        	ldx	$12                     ; 0x2012 <end_block9+0xc9e>
    1291: d0 e5        	bne	$1278 <__mulhi3+0xf>
    1293: aa           	tax
    1294: 98           	tya
    1295: 60           	rts
    1296: a0 00        	ldy	#$0
    1298: 98           	tya
    1299: 80 f8        	bra	$1293 <__mulhi3+0x2a>

0000129b <__umodhi3>:
    129b: a8           	tay
    129c: 8a           	txa
    129d: e6 13        	inc	$13                     ; 0x2013 <end_block9+0xc9f>
    129f: c6 13        	dec	$13                     ; 0x2013 <end_block9+0xc9f>
    12a1: d0 09        	bne	$12ac <__umodhi3+0x11>
    12a3: e6 12        	inc	$12                     ; 0x2012 <end_block9+0xc9e>
    12a5: c6 12        	dec	$12                     ; 0x2012 <end_block9+0xc9e>
    12a7: d0 03        	bne	$12ac <__umodhi3+0x11>
    12a9: 4c 3d 13     	jmp	$133d <__umodhi3+0xa2>
    12ac: c5 13        	cmp	$13                     ; 0x2013 <end_block9+0xc9f>
    12ae: d0 07        	bne	$12b7 <__umodhi3+0x1c>
    12b0: c4 12        	cpy	$12                     ; 0x2012 <end_block9+0xc9e>
    12b2: b0 0a        	bcs	$12be <__umodhi3+0x23>
    12b4: 4c 3d 13     	jmp	$133d <__umodhi3+0xa2>
    12b7: c5 13        	cmp	$13                     ; 0x2013 <end_block9+0xc9f>
    12b9: b0 03        	bcs	$12be <__umodhi3+0x23>
    12bb: 4c 3d 13     	jmp	$133d <__umodhi3+0xa2>
    12be: 86 16        	stx	$16                     ; 0x2016 <end_block9+0xca2>
    12c0: e6 13        	inc	$13                     ; 0x2013 <end_block9+0xc9f>
    12c2: c6 13        	dec	$13                     ; 0x2013 <end_block9+0xc9f>
    12c4: 10 03        	bpl	$12c9 <__umodhi3+0x2e>
    12c6: 4c 35 13     	jmp	$1335 <__umodhi3+0x9a>
    12c9: a2 00        	ldx	#$0
    12cb: 5a           	phy
    12cc: a4 12        	ldy	$12                     ; 0x2012 <end_block9+0xc9e>
    12ce: 84 14        	sty	$14                     ; 0x2014 <end_block9+0xca0>
    12d0: a4 13        	ldy	$13                     ; 0x2013 <end_block9+0xc9f>
    12d2: 84 15        	sty	$15                     ; 0x2015 <end_block9+0xca1>
    12d4: 7a           	ply
    12d5: 06 14        	asl	$14                     ; 0x2014 <end_block9+0xca0>
    12d7: 26 15        	rol	$15                     ; 0x2015 <end_block9+0xca1>
    12d9: c5 15        	cmp	$15                     ; 0x2015 <end_block9+0xca1>
    12db: d0 08        	bne	$12e5 <__umodhi3+0x4a>
    12dd: c4 14        	cpy	$14                     ; 0x2014 <end_block9+0xca0>
    12df: a5 16        	lda	$16                     ; 0x2016 <end_block9+0xca2>
    12e1: 90 19        	bcc	$12fc <__umodhi3+0x61>
    12e3: 80 04        	bra	$12e9 <__umodhi3+0x4e>
    12e5: c5 15        	cmp	$15                     ; 0x2015 <end_block9+0xca1>
    12e7: 90 13        	bcc	$12fc <__umodhi3+0x61>
    12e9: e8           	inx
    12ea: 5a           	phy
    12eb: a4 14        	ldy	$14                     ; 0x2014 <end_block9+0xca0>
    12ed: 84 12        	sty	$12                     ; 0x2012 <end_block9+0xc9e>
    12ef: a4 15        	ldy	$15                     ; 0x2015 <end_block9+0xca1>
    12f1: 84 13        	sty	$13                     ; 0x2013 <end_block9+0xc9f>
    12f3: 7a           	ply
    12f4: e6 15        	inc	$15                     ; 0x2015 <end_block9+0xca1>
    12f6: c6 15        	dec	$15                     ; 0x2015 <end_block9+0xca1>
    12f8: 10 db        	bpl	$12d5 <__umodhi3+0x3a>
    12fa: 80 08        	bra	$1304 <__umodhi3+0x69>
    12fc: a5 12        	lda	$12                     ; 0x2012 <end_block9+0xc9e>
    12fe: 85 14        	sta	$14                     ; 0x2014 <end_block9+0xca0>
    1300: a5 13        	lda	$13                     ; 0x2013 <end_block9+0xc9f>
    1302: 85 15        	sta	$15                     ; 0x2015 <end_block9+0xca1>
    1304: 38           	sec
    1305: 98           	tya
    1306: e5 14        	sbc	$14                     ; 0x2014 <end_block9+0xca0>
    1308: a8           	tay
    1309: a5 16        	lda	$16                     ; 0x2016 <end_block9+0xca2>
    130b: e5 15        	sbc	$15                     ; 0x2015 <end_block9+0xca1>
    130d: e0 00        	cpx	#$0
    130f: d0 08        	bne	$1319 <__umodhi3+0x7e>
    1311: 80 2a        	bra	$133d <__umodhi3+0xa2>
    1313: c5 15        	cmp	$15                     ; 0x2015 <end_block9+0xca1>
    1315: b0 0e        	bcs	$1325 <__umodhi3+0x8a>
    1317: 80 17        	bra	$1330 <__umodhi3+0x95>
    1319: 46 15        	lsr	$15                     ; 0x2015 <end_block9+0xca1>
    131b: 66 14        	ror	$14                     ; 0x2014 <end_block9+0xca0>
    131d: c5 15        	cmp	$15                     ; 0x2015 <end_block9+0xca1>
    131f: d0 f2        	bne	$1313 <__umodhi3+0x78>
    1321: c4 14        	cpy	$14                     ; 0x2014 <end_block9+0xca0>
    1323: 90 0b        	bcc	$1330 <__umodhi3+0x95>
    1325: 85 12        	sta	$12                     ; 0x2012 <end_block9+0xc9e>
    1327: 38           	sec
    1328: 98           	tya
    1329: e5 14        	sbc	$14                     ; 0x2014 <end_block9+0xca0>
    132b: a8           	tay
    132c: a5 12        	lda	$12                     ; 0x2012 <end_block9+0xc9e>
    132e: e5 15        	sbc	$15                     ; 0x2015 <end_block9+0xca1>
    1330: ca           	dex
    1331: d0 e6        	bne	$1319 <__umodhi3+0x7e>
    1333: 80 08        	bra	$133d <__umodhi3+0xa2>
    1335: 38           	sec
    1336: 98           	tya
    1337: e5 12        	sbc	$12                     ; 0x2012 <end_block9+0xc9e>
    1339: a8           	tay
    133a: 8a           	txa
    133b: e5 13        	sbc	$13                     ; 0x2013 <end_block9+0xc9f>
    133d: aa           	tax
    133e: 98           	tya
    133f: 60           	rts
