
grudge.elf:	file format elf32-mos

SYMBOL TABLE:
00000000 l    df *ABS*	00000000 zero-bss.c
00000000 l    df *ABS*	00000000 zero-zp-bss.c
00000000 l    df *ABS*	00000000 copy-zp-data.c
00000000 l    df *ABS*	00000000 ld-temp.o
000004a6 l     F .text	000003ad f256Init
0000003c l     O .zp.bss	00000007 kernelEventData
00000036 l     O .zp.bss	00000001 _ccolor
00003117 l     O .rodata	00000030 textColors
00000037 l     O .zp.bss	00000001 _col
00000038 l     O .zp.bss	00000001 _row
000055e1 l     O .bss	00000040 _spriteCtl
00005801 l     O .bss	00000001 kernelError
00000859 l     F .text	00000890 f256main
000018c5 l     F .text	000003d2 mySpriteDefine
00005621 l     O .bss	000001e0 spriteStatuses
00001700 l     F .text	000001c5 updateFrames
0000316b l     O .rodata	00002476 bigpatch
00000030 l     O .zp.data	00000006 stateDelays
0000003b l     O .zp.bss	00000001 padTimer.1
000010e9 l     F .text	00000617 checkPads
000030ab l     F .text	00000032 __mulhi3
00001e82 l     F .text	00000d31 printf
00002d93 l     F .text	000002cc malloc
00001c9c l     F .text	000000d7 _ZN12_GLOBAL__N_13putEcP6Status
00002bb3 l     F .text	000001e0 putchar
00001d73 l     F .text	0000010f _ZN12_GLOBAL__N_112print_stringEPKcP6Status
00000039 l     O .zp.bss	00000002 __putchar.s
00000043 l     O .zp.bss	00000001 _ZN12_GLOBAL__N_111initializedE
0000031e l     F .text	0000014b _ZN12_GLOBAL__N_19FreeChunk6insertEPvj
00000046 l     O .zp.bss	00000002 _ZN12_GLOBAL__N_19free_listE
00000044 l     O .zp.bss	00000002 _ZN12_GLOBAL__N_19free_sizeE
00000853 g     F .text	00000006 main
00010400 g       .palgrudge	00000000 palgrudge_end
00010800 g       .boy1	00000000 boy1_end
00011400 g       .cath	00000000 cath_end
00011000 g       .girl1	00000000 girl1_end
00013000 g       .dash	00000000 dash_start
00010800 g       .thing	00000000 thing_start
00010400 g       .boy1	00000000 boy1_start
00013800 g       .dash	00000000 dash_end
00011400 g       .cat	00000000 cat_start
00011800 g       .cat	00000000 cat_end
00010000 g       .palgrudge	00000000 palgrudge_start
00010c00 g       .thing	00000000 thing_end
00010c00 g       .girl1	00000000 girl1_start
00011000 g       .cath	00000000 cath_start
0000031a g       .text	00000000 __after_main
00000306 g       .text	00000000 __do_init_stack
00000314 g       .text	00000000 __do_copy_zp_data
0000048f g     F .text	00000017 __copy_zp_data
0000030e g       .text	00000000 __do_zero_bss
00000469 g     F .text	00000013 __zero_bss
00000311 g       .text	00000000 __do_zero_zp_bss
0000047c g     F .text	00000013 __zero_zp_bss
00001c97 g     F .text	00000005 exit
0000031d g       .text	00000000 _fini
0000308b  w    F .text	00000020 __memset
00001000  w      *ABS*	00000000 __heap_default_limit
00005802 g       .noinit	00000000 __heap_start
0000305f  w    F .text	0000002c memcpy
00000010 g       *ABS*	00000000 __rc0
00000012 g       *ABS*	00000000 __rc2
00000014 g       *ABS*	00000000 __rc4
00000016 g       *ABS*	00000000 __rc6
00000018 g       *ABS*	00000000 __rc8
0000001a g       *ABS*	00000000 __rc10
0000001c g       *ABS*	00000000 __rc12
0000001e g       *ABS*	00000000 __rc14
00000020 g       *ABS*	00000000 __rc16
00000022 g       *ABS*	00000000 __rc18
00000024 g       *ABS*	00000000 __rc20
00000026 g       *ABS*	00000000 __rc22
00000028 g       *ABS*	00000000 __rc24
0000002a g       *ABS*	00000000 __rc26
0000002c g       *ABS*	00000000 __rc28
0000002e g       *ABS*	00000000 __rc30
0000002f g       *ABS*	00000000 __rc31
00000300 g       *ABS*	00000000 __f256_start
0000a000 g       *ABS*	00000000 __stack
0000a000 g       *ABS*	00000000 __SLOT_ADDR
0800a000 g       *ABS*	00000000 __block8_lma
00002000 g       *ABS*	00000000 __BLOCK_SIZE
0900a000 g       *ABS*	00000000 __block9_lma
0a00a000 g       *ABS*	00000000 __block10_lma
0b00a000 g       *ABS*	00000000 __block11_lma
0c00a000 g       *ABS*	00000000 __block12_lma
0d00a000 g       *ABS*	00000000 __block13_lma
0e00a000 g       *ABS*	00000000 __block14_lma
0f00a000 g       *ABS*	00000000 __block15_lma
1000a000 g       *ABS*	00000000 __block16_lma
1100a000 g       *ABS*	00000000 __block17_lma
1200a000 g       *ABS*	00000000 __block18_lma
1300a000 g       *ABS*	00000000 __block19_lma
1400a000 g       *ABS*	00000000 __block20_lma
1500a000 g       *ABS*	00000000 __block21_lma
1600a000 g       *ABS*	00000000 __block22_lma
1700a000 g       *ABS*	00000000 __block23_lma
00010000 g       *ABS*	00000000 __palgrudge_lma
00000400 g       *ABS*	00000000 __palgrudge_size
00010400 g       *ABS*	00000000 __boy1_lma
00000400 g       *ABS*	00000000 __boy1_size
00010800 g       *ABS*	00000000 __thing_lma
00000400 g       *ABS*	00000000 __thing_size
00010c00 g       *ABS*	00000000 __girl1_lma
00000400 g       *ABS*	00000000 __girl1_size
00011000 g       *ABS*	00000000 __cath_lma
00000400 g       *ABS*	00000000 __cath_size
00011400 g       *ABS*	00000000 __cat_lma
00000400 g       *ABS*	00000000 __cat_size
00013000 g       *ABS*	00000000 __dash_lma
00000800 g       *ABS*	00000000 __dash_size
000055e1 g       .bss	00000000 __bss_start
00010400 g       .palgrudge	00000000 end_palgrudge
00010800 g       .boy1	00000000 end_boy1
00010c00 g       .thing	00000000 end_thing
00011000 g       .girl1	00000000 end_girl1
00011400 g       .cath	00000000 end_cath
00011800 g       .cat	00000000 end_cat
00013800 g       .dash	00000000 end_dash
00000306 g       .text	00000000 _start
0000002d g       *ABS*	00000000 __rc29
0000002b g       *ABS*	00000000 __rc27
00000029 g       *ABS*	00000000 __rc25
00000027 g       *ABS*	00000000 __rc23
00000025 g       *ABS*	00000000 __rc21
00000023 g       *ABS*	00000000 __rc19
00000021 g       *ABS*	00000000 __rc17
0000001f g       *ABS*	00000000 __rc15
0000001d g       *ABS*	00000000 __rc13
0000001b g       *ABS*	00000000 __rc11
00000019 g       *ABS*	00000000 __rc9
00000017 g       *ABS*	00000000 __rc7
00000015 g       *ABS*	00000000 __rc5
00000013 g       *ABS*	00000000 __rc3
00000011 g       *ABS*	00000000 __rc1
00000030 g       .zp.data	00000000 __zp_data_start
00000300 g       *ABS*	00000000 __zp_data_load_start
00000006 g       *ABS*	00000000 __zp_data_size
00000036 g       .zp.bss	00000000 __zp_bss_start
00000012 g       *ABS*	00000000 __zp_bss_size
00000306 g       .text	00000000 _init
000030dd g       .text	00000000 __init_array_start
000030dd g       .text	00000000 __init_array_end
000030dd g       .text	00000000 __fini_array_start
000030dd g       .text	00000000 __fini_array_end
000055e1 g       .data	00000000 __data_start
000055e1 g       .data	00000000 __data_end
000055e1 g       *ABS*	00000000 __data_load_start
00000000 g       *ABS*	00000000 __data_size
00005802 g       .bss	00000000 __bss_end
00000221 g       *ABS*	00000000 __bss_size
00005802 g       .noinit	00000000 end_block8
00005802 g       .noinit	00000000 end_block9
00005802 g       .noinit	00000000 end_block10
00005802 g       .noinit	00000000 end_block11
00005802 g       .noinit	00000000 end_block12
00005802 g       .noinit	00000000 end_block13
00005802 g       .noinit	00000000 end_block14
00005802 g       .noinit	00000000 end_block15
00005802 g       .noinit	00000000 end_block16
00005802 g       .noinit	00000000 end_block17
00005802 g       .noinit	00000000 end_block18
00005802 g       .noinit	00000000 end_block19
00005802 g       .noinit	00000000 end_block20
00005802 g       .noinit	00000000 end_block21
00005802 g       .noinit	00000000 end_block22
00005802 g       .noinit	00000000 end_block23

Disassembly of section .text:

00000306 <_start>:
     306: a9 00        	lda	#$0
     308: 85 10        	sta	$10                     ; 0x10 <__rc0>
     30a: a9 a0        	lda	#$a0
     30c: 85 11        	sta	$11                     ; 0x11 <__rc1>

0000030e <__do_zero_bss>:
     30e: 20 69 04     	jsr	$469 <__zero_bss>

00000311 <__do_zero_zp_bss>:
     311: 20 7c 04     	jsr	$47c <__zero_zp_bss>

00000314 <__do_copy_zp_data>:
     314: 20 8f 04     	jsr	$48f <__copy_zp_data>
     317: 20 53 08     	jsr	$853 <main>

0000031a <__after_main>:
     31a: 4c 97 1c     	jmp	$1c97 <exit>

0000031d <_fini>:
     31d: 60           	rts

0000031e <_ZN12_GLOBAL__N_19FreeChunk6insertEPvj>:
     31e: 85 16        	sta	$16                     ; 0x16 <__rc6>
     320: 29 fe        	and	#$fe
     322: 85 14        	sta	$14                     ; 0x14 <__rc4>
     324: a0 01        	ldy	#$1
     326: 98           	tya
     327: 32 12        	and	($12)                   ; 0x12 <__zp_bss_size>
     329: 05 14        	ora	$14                     ; 0x14 <__rc4>
     32b: 92 12        	sta	($12)                   ; 0x12 <__zp_bss_size>
     32d: a5 12        	lda	$12                     ; 0x12 <__zp_bss_size>
     32f: 18           	clc
     330: 65 14        	adc	$14                     ; 0x14 <__rc4>
     332: 85 15        	sta	$15                     ; 0x15 <__rc5>
     334: 8a           	txa
     335: 65 13        	adc	$13                     ; 0x13 <__rc3>
     337: 85 14        	sta	$14                     ; 0x14 <__rc4>
     339: 18           	clc
     33a: a5 15        	lda	$15                     ; 0x15 <__rc5>
     33c: 69 fe        	adc	#$fe
     33e: 85 17        	sta	$17                     ; 0x17 <__rc7>
     340: a5 14        	lda	$14                     ; 0x14 <__rc4>
     342: 69 ff        	adc	#$ff
     344: 85 15        	sta	$15                     ; 0x15 <__rc5>
     346: a5 17        	lda	$17                     ; 0x17 <__rc7>
     348: 85 14        	sta	$14                     ; 0x14 <__rc4>
     34a: 8a           	txa
     34b: 91 12        	sta	($12),y                 ; 0x12 <__zp_bss_size>
     34d: a5 16        	lda	$16                     ; 0x16 <__rc6>
     34f: 92 14        	sta	($14)                   ; 0x14 <__rc4>
     351: 8a           	txa
     352: 91 14        	sta	($14),y                 ; 0x14 <__rc4>
     354: a2 01        	ldx	#$1
     356: 86 18        	stx	$18                     ; 0x18 <__rc8>
     358: b1 12        	lda	($12),y                 ; 0x12 <__zp_bss_size>
     35a: 85 14        	sta	$14                     ; 0x14 <__rc4>
     35c: a9 fe        	lda	#$fe
     35e: 32 12        	and	($12)                   ; 0x12 <__zp_bss_size>
     360: 18           	clc
     361: 65 44        	adc	$44                     ; 0x44 <_ZN12_GLOBAL__N_19free_sizeE>
     363: aa           	tax
     364: a5 14        	lda	$14                     ; 0x14 <__rc4>
     366: 65 45        	adc	$45                     ; 0x45 <_ZN12_GLOBAL__N_19free_sizeE+0x1>
     368: a8           	tay
     369: 18           	clc
     36a: 8a           	txa
     36b: 69 fe        	adc	#$fe
     36d: aa           	tax
     36e: 98           	tya
     36f: 69 ff        	adc	#$ff
     371: 86 44        	stx	$44                     ; 0x44 <_ZN12_GLOBAL__N_19free_sizeE>
     373: 85 45        	sta	$45                     ; 0x45 <_ZN12_GLOBAL__N_19free_sizeE+0x1>
     375: a6 46        	ldx	$46                     ; 0x46 <_ZN12_GLOBAL__N_19free_listE>
     377: 86 16        	stx	$16                     ; 0x16 <__rc6>
     379: a4 47        	ldy	$47                     ; 0x47 <_ZN12_GLOBAL__N_19free_listE+0x1>
     37b: a2 00        	ldx	#$0
     37d: 86 14        	stx	$14                     ; 0x14 <__rc4>
     37f: a2 00        	ldx	#$0
     381: 86 15        	stx	$15                     ; 0x15 <__rc5>
     383: 84 17        	sty	$17                     ; 0x17 <__rc7>
     385: c4 15        	cpy	$15                     ; 0x15 <__rc5>
     387: d0 3c        	bne	$3c5 <_ZN12_GLOBAL__N_19FreeChunk6insertEPvj+0xa7>
     389: a6 16        	ldx	$16                     ; 0x16 <__rc6>
     38b: e4 14        	cpx	$14                     ; 0x14 <__rc4>
     38d: d0 36        	bne	$3c5 <_ZN12_GLOBAL__N_19FreeChunk6insertEPvj+0xa7>
     38f: a0 04        	ldy	#$4
     391: a5 12        	lda	$12                     ; 0x12 <__zp_bss_size>
     393: 18           	clc
     394: 69 04        	adc	#$4
     396: 85 14        	sta	$14                     ; 0x14 <__rc4>
     398: a5 13        	lda	$13                     ; 0x13 <__rc3>
     39a: 69 00        	adc	#$0
     39c: 18           	clc
     39d: 85 15        	sta	$15                     ; 0x15 <__rc5>
     39f: a5 12        	lda	$12                     ; 0x12 <__zp_bss_size>
     3a1: 91 12        	sta	($12),y                 ; 0x12 <__zp_bss_size>
     3a3: a0 02        	ldy	#$2
     3a5: 85 17        	sta	$17                     ; 0x17 <__rc7>
     3a7: 69 02        	adc	#$2
     3a9: 85 16        	sta	$16                     ; 0x16 <__rc6>
     3ab: a5 17        	lda	$17                     ; 0x17 <__rc7>
     3ad: 91 12        	sta	($12),y                 ; 0x12 <__zp_bss_size>
     3af: a5 13        	lda	$13                     ; 0x13 <__rc3>
     3b1: 69 00        	adc	#$0
     3b3: 85 17        	sta	$17                     ; 0x17 <__rc7>
     3b5: 88           	dey
     3b6: a5 13        	lda	$13                     ; 0x13 <__rc3>
     3b8: 91 14        	sta	($14),y                 ; 0x14 <__rc4>
     3ba: 91 16        	sta	($16),y                 ; 0x16 <__rc6>
     3bc: a6 12        	ldx	$12                     ; 0x12 <__zp_bss_size>
     3be: 86 46        	stx	$46                     ; 0x46 <_ZN12_GLOBAL__N_19free_listE>
     3c0: a6 13        	ldx	$13                     ; 0x13 <__rc3>
     3c2: 86 47        	stx	$47                     ; 0x47 <_ZN12_GLOBAL__N_19free_listE+0x1>
     3c4: 60           	rts
     3c5: a6 12        	ldx	$12                     ; 0x12 <__zp_bss_size>
     3c7: a5 12        	lda	$12                     ; 0x12 <__zp_bss_size>
     3c9: 18           	clc
     3ca: 69 02        	adc	#$2
     3cc: 85 14        	sta	$14                     ; 0x14 <__rc4>
     3ce: a4 16        	ldy	$16                     ; 0x16 <__rc6>
     3d0: a5 13        	lda	$13                     ; 0x13 <__rc3>
     3d2: 69 00        	adc	#$0
     3d4: 85 15        	sta	$15                     ; 0x15 <__rc5>
     3d6: 84 19        	sty	$19                     ; 0x19 <__rc9>
     3d8: a4 17        	ldy	$17                     ; 0x17 <__rc7>
     3da: 84 1a        	sty	$1a                     ; 0x1a <__rc10>
     3dc: a0 02        	ldy	#$2
     3de: a5 19        	lda	$19                     ; 0x19 <__rc9>
     3e0: 91 12        	sta	($12),y                 ; 0x12 <__zp_bss_size>
     3e2: 84 1d        	sty	$1d                     ; 0x1d <__rc13>
     3e4: a4 18        	ldy	$18                     ; 0x18 <__rc8>
     3e6: a5 1a        	lda	$1a                     ; 0x1a <__rc10>
     3e8: 91 14        	sta	($14),y                 ; 0x14 <__rc4>
     3ea: 84 1e        	sty	$1e                     ; 0x1e <__rc14>
     3ec: 18           	clc
     3ed: a5 19        	lda	$19                     ; 0x19 <__rc9>
     3ef: 69 04        	adc	#$4
     3f1: 85 18        	sta	$18                     ; 0x18 <__rc8>
     3f3: a5 1a        	lda	$1a                     ; 0x1a <__rc10>
     3f5: 69 00        	adc	#$0
     3f7: 85 19        	sta	$19                     ; 0x19 <__rc9>
     3f9: 8a           	txa
     3fa: 18           	clc
     3fb: 69 04        	adc	#$4
     3fd: 85 1a        	sta	$1a                     ; 0x1a <__rc10>
     3ff: a5 13        	lda	$13                     ; 0x13 <__rc3>
     401: 69 00        	adc	#$0
     403: 85 1b        	sta	$1b                     ; 0x1b <__rc11>
     405: a0 04        	ldy	#$4
     407: b1 16        	lda	($16),y                 ; 0x16 <__rc6>
     409: 85 16        	sta	$16                     ; 0x16 <__rc6>
     40b: 85 22        	sta	$22                     ; 0x22 <__rc18>
     40d: a4 1e        	ldy	$1e                     ; 0x1e <__rc14>
     40f: b1 18        	lda	($18),y                 ; 0x18 <__rc8>
     411: 85 17        	sta	$17                     ; 0x17 <__rc7>
     413: 85 19        	sta	$19                     ; 0x19 <__rc9>
     415: a0 04        	ldy	#$4
     417: a5 22        	lda	$22                     ; 0x22 <__rc18>
     419: 91 12        	sta	($12),y                 ; 0x12 <__zp_bss_size>
     41b: 84 1f        	sty	$1f                     ; 0x1f <__rc15>
     41d: a4 1e        	ldy	$1e                     ; 0x1e <__rc14>
     41f: a5 19        	lda	$19                     ; 0x19 <__rc9>
     421: 91 1a        	sta	($1a),y                 ; 0x1a <__rc10>
     423: 84 1a        	sty	$1a                     ; 0x1a <__rc10>
     425: 18           	clc
     426: a5 22        	lda	$22                     ; 0x22 <__rc18>
     428: 69 02        	adc	#$2
     42a: 85 18        	sta	$18                     ; 0x18 <__rc8>
     42c: a5 19        	lda	$19                     ; 0x19 <__rc9>
     42e: 69 00        	adc	#$0
     430: 85 19        	sta	$19                     ; 0x19 <__rc9>
     432: 8a           	txa
     433: a4 1d        	ldy	$1d                     ; 0x1d <__rc13>
     435: 91 16        	sta	($16),y                 ; 0x16 <__rc6>
     437: a5 13        	lda	$13                     ; 0x13 <__rc3>
     439: a4 1a        	ldy	$1a                     ; 0x1a <__rc10>
     43b: 91 18        	sta	($18),y                 ; 0x18 <__rc8>
     43d: a4 1d        	ldy	$1d                     ; 0x1d <__rc13>
     43f: b1 12        	lda	($12),y                 ; 0x12 <__zp_bss_size>
     441: 85 16        	sta	$16                     ; 0x16 <__rc6>
     443: 85 19        	sta	$19                     ; 0x19 <__rc9>
     445: a4 1a        	ldy	$1a                     ; 0x1a <__rc10>
     447: b1 14        	lda	($14),y                 ; 0x14 <__rc4>
     449: 84 18        	sty	$18                     ; 0x18 <__rc8>
     44b: 85 17        	sta	$17                     ; 0x17 <__rc7>
     44d: 85 14        	sta	$14                     ; 0x14 <__rc4>
     44f: 8a           	txa
     450: a4 1f        	ldy	$1f                     ; 0x1f <__rc15>
     452: 91 16        	sta	($16),y                 ; 0x16 <__rc6>
     454: 18           	clc
     455: a5 19        	lda	$19                     ; 0x19 <__rc9>
     457: 69 04        	adc	#$4
     459: a8           	tay
     45a: a5 14        	lda	$14                     ; 0x14 <__rc4>
     45c: 69 00        	adc	#$0
     45e: 84 14        	sty	$14                     ; 0x14 <__rc4>
     460: 85 15        	sta	$15                     ; 0x15 <__rc5>
     462: a5 13        	lda	$13                     ; 0x13 <__rc3>
     464: a4 18        	ldy	$18                     ; 0x18 <__rc8>
     466: 91 14        	sta	($14),y                 ; 0x14 <__rc4>
     468: 60           	rts

00000469 <__zero_bss>:
     469: a2 21        	ldx	#$21
     46b: a0 02        	ldy	#$2
     46d: a9 e1        	lda	#$e1
     46f: 85 12        	sta	$12                     ; 0x12 <__zp_bss_size>
     471: a9 55        	lda	#$55
     473: 85 13        	sta	$13                     ; 0x13 <__rc3>
     475: a9 00        	lda	#$0
     477: 84 14        	sty	$14                     ; 0x14 <__rc4>
     479: 4c 8b 30     	jmp	$308b <__memset>

0000047c <__zero_zp_bss>:
     47c: a2 12        	ldx	#$12
     47e: a0 00        	ldy	#$0
     480: a9 36        	lda	#$36
     482: 85 12        	sta	$12                     ; 0x12 <__zp_bss_size>
     484: a9 00        	lda	#$0
     486: 85 13        	sta	$13                     ; 0x13 <__rc3>
     488: a9 00        	lda	#$0
     48a: 84 14        	sty	$14                     ; 0x14 <__rc4>
     48c: 4c 8b 30     	jmp	$308b <__memset>

0000048f <__copy_zp_data>:
     48f: a9 06        	lda	#$6
     491: a2 00        	ldx	#$0
     493: a0 30        	ldy	#$30
     495: 84 12        	sty	$12                     ; 0x12 <__zp_bss_size>
     497: a0 00        	ldy	#$0
     499: 84 13        	sty	$13                     ; 0x13 <__rc3>
     49b: a0 00        	ldy	#$0
     49d: 84 14        	sty	$14                     ; 0x14 <__rc4>
     49f: a0 03        	ldy	#$3
     4a1: 84 15        	sty	$15                     ; 0x15 <__rc5>
     4a3: 4c 5f 30     	jmp	$305f <memcpy>

000004a6 <f256Init>:
     4a6: 64 14        	stz	$14                     ; 0x14 <__rc4>
     4a8: a2 00        	ldx	#$0
     4aa: 86 12        	stx	$12                     ; 0x12 <__zp_bss_size>
     4ac: a2 c0        	ldx	#$c0
     4ae: 86 13        	stx	$13                     ; 0x13 <__rc3>
     4b0: 64 01        	stz	$1                      ; 0x1 <__data_size+0x1>
     4b2: a2 3f        	ldx	#$3f
     4b4: 8e 00 d0     	stx	$d000                   ; 0xd000 <end_block9+0x77fe>
     4b7: a2 b3        	ldx	#$b3
     4b9: 86 00        	stx	$0                      ; 0x0 <__data_size>
     4bb: 64 08        	stz	$8                      ; 0x8 <__zp_data_size+0x2>
     4bd: a2 01        	ldx	#$1
     4bf: 86 09        	stx	$9                      ; 0x9 <__zp_data_size+0x3>
     4c1: e8           	inx
     4c2: 86 0a        	stx	$a                      ; 0xa <__zp_data_size+0x4>
     4c4: e8           	inx
     4c5: 86 0b        	stx	$b                      ; 0xb <__zp_data_size+0x5>
     4c7: e8           	inx
     4c8: 86 0c        	stx	$c                      ; 0xc <__zp_data_size+0x6>
     4ca: e8           	inx
     4cb: 86 0d        	stx	$d                      ; 0xd <__zp_data_size+0x7>
     4cd: a2 3c        	ldx	#$3c
     4cf: a0 00        	ldy	#$0
     4d1: 86 f0        	stx	$f0                     ; 0xf0 <__rc31+0xc1>
     4d3: 84 f1        	sty	$f1                     ; 0xf1 <__rc31+0xc2>
     4d5: a2 00        	ldx	#$0
     4d7: 86 18        	stx	$18                     ; 0x18 <__rc8>
     4d9: ca           	dex
     4da: 86 19        	stx	$19                     ; 0x19 <__rc9>
     4dc: 8a           	txa
     4dd: 0a           	asl
     4de: 0a           	asl
     4df: 18           	clc
     4e0: 69 d4        	adc	#$d4
     4e2: 85 1a        	sta	$1a                     ; 0x1a <__rc10>
     4e4: a0 00        	ldy	#$0
     4e6: 64 17        	stz	$17                     ; 0x17 <__rc7>
     4e8: 64 16        	stz	$16                     ; 0x16 <__rc6>
     4ea: a6 19        	ldx	$19                     ; 0x19 <__rc9>
     4ec: e0 03        	cpx	#$3
     4ee: a6 01        	ldx	$1                      ; 0x1 <__data_size+0x1>
     4f0: 86 1c        	stx	$1c                     ; 0x1c <__rc12>
     4f2: a2 d0        	ldx	#$d0
     4f4: 84 1b        	sty	$1b                     ; 0x1b <__rc11>
     4f6: b0 02        	bcs	$4fa <f256Init+0x54>
     4f8: a6 1a        	ldx	$1a                     ; 0x1a <__rc10>
     4fa: 86 15        	stx	$15                     ; 0x15 <__rc5>
     4fc: a5 17        	lda	$17                     ; 0x17 <__rc7>
     4fe: 18           	clc
     4ff: 65 14        	adc	$14                     ; 0x14 <__rc4>
     501: a8           	tay
     502: a6 17        	ldx	$17                     ; 0x17 <__rc7>
     504: a5 16        	lda	$16                     ; 0x16 <__rc6>
     506: 85 1d        	sta	$1d                     ; 0x1d <__rc13>
     508: a5 16        	lda	$16                     ; 0x16 <__rc6>
     50a: 65 15        	adc	$15                     ; 0x15 <__rc5>
     50c: 84 16        	sty	$16                     ; 0x16 <__rc6>
     50e: a0 01        	ldy	#$1
     510: 84 01        	sty	$1                      ; 0x1 <__data_size+0x1>
     512: 85 17        	sta	$17                     ; 0x17 <__rc7>
     514: a5 1b        	lda	$1b                     ; 0x1b <__rc11>
     516: 92 16        	sta	($16)                   ; 0x16 <__rc6>
     518: 91 16        	sta	($16),y                 ; 0x16 <__rc6>
     51a: c8           	iny
     51b: 91 16        	sta	($16),y                 ; 0x16 <__rc6>
     51d: 85 15        	sta	$15                     ; 0x15 <__rc5>
     51f: c8           	iny
     520: a9 ff        	lda	#$ff
     522: 91 16        	sta	($16),y                 ; 0x16 <__rc6>
     524: 8a           	txa
     525: a6 1c        	ldx	$1c                     ; 0x1c <__rc12>
     527: 86 01        	stx	$1                      ; 0x1 <__data_size+0x1>
     529: 18           	clc
     52a: 69 04        	adc	#$4
     52c: 85 17        	sta	$17                     ; 0x17 <__rc7>
     52e: a5 1d        	lda	$1d                     ; 0x1d <__rc13>
     530: 69 00        	adc	#$0
     532: e6 15        	inc	$15                     ; 0x15 <__rc5>
     534: a4 15        	ldy	$15                     ; 0x15 <__rc5>
     536: 85 16        	sta	$16                     ; 0x16 <__rc6>
     538: c9 04        	cmp	#$4
     53a: f0 03        	beq	$53f <f256Init+0x99>
     53c: 4c ea 04     	jmp	$4ea <f256Init+0x44>
     53f: a5 17        	lda	$17                     ; 0x17 <__rc7>
     541: f0 03        	beq	$546 <f256Init+0xa0>
     543: 4c ea 04     	jmp	$4ea <f256Init+0x44>
     546: a6 18        	ldx	$18                     ; 0x18 <__rc8>
     548: e8           	inx
     549: e0 04        	cpx	#$4
     54b: f0 03        	beq	$550 <f256Init+0xaa>
     54d: 4c d7 04     	jmp	$4d7 <f256Init+0x31>
     550: ad 02 d0     	lda	$d002                   ; 0xd002 <end_block9+0x7800>
     553: 29 f0        	and	#$f0
     555: 8d 02 d0     	sta	$d002                   ; 0xd002 <end_block9+0x7800>
     558: ad 02 d0     	lda	$d002                   ; 0xd002 <end_block9+0x7800>
     55b: 29 0f        	and	#$f
     55d: 09 10        	ora	#$10
     55f: 8d 02 d0     	sta	$d002                   ; 0xd002 <end_block9+0x7800>
     562: a2 02        	ldx	#$2
     564: 8e 03 d0     	stx	$d003                   ; 0xd003 <end_block9+0x7801>
     567: 64 36        	stz	$36                     ; 0x36 <_ccolor>
     569: ad 01 d0     	lda	$d001                   ; 0xd001 <end_block9+0x77ff>
     56c: 29 f9        	and	#$f9
     56e: 09 04        	ora	#$4
     570: 8d 01 d0     	sta	$d001                   ; 0xd001 <end_block9+0x77ff>
     573: 64 14        	stz	$14                     ; 0x14 <__rc4>
     575: 9c 10 d0     	stz	$d010                   ; 0xd010 <end_block9+0x780e>
     578: a2 00        	ldx	#$0
     57a: 64 15        	stz	$15                     ; 0x15 <__rc5>
     57c: 86 18        	stx	$18                     ; 0x18 <__rc8>
     57e: a4 18        	ldy	$18                     ; 0x18 <__rc8>
     580: be 17 31     	ldx	$3117,y                 ; 0x3117 <textColors>
     583: 86 19        	stx	$19                     ; 0x19 <__rc9>
     585: be 18 31     	ldx	$3118,y                 ; 0x3118 <textColors+0x1>
     588: 86 1a        	stx	$1a                     ; 0x1a <__rc10>
     58a: be 19 31     	ldx	$3119,y                 ; 0x3119 <textColors+0x2>
     58d: 86 1b        	stx	$1b                     ; 0x1b <__rc11>
     58f: a6 15        	ldx	$15                     ; 0x15 <__rc5>
     591: 8e 00 de     	stx	$de00                   ; 0xde00 <end_block9+0x85fe>
     594: 86 17        	stx	$17                     ; 0x17 <__rc7>
     596: 9c 01 de     	stz	$de01                   ; 0xde01 <end_block9+0x85ff>
     599: a2 04        	ldx	#$4
     59b: 8e 02 de     	stx	$de02                   ; 0xde02 <end_block9+0x8600>
     59e: 86 1d        	stx	$1d                     ; 0x1d <__rc13>
     5a0: 9c 03 de     	stz	$de03                   ; 0xde03 <end_block9+0x8601>
     5a3: ad 10 de     	lda	$de10                   ; 0xde10 <end_block9+0x860e>
     5a6: ac 11 de     	ldy	$de11                   ; 0xde11 <end_block9+0x860f>
     5a9: 84 15        	sty	$15                     ; 0x15 <__rc5>
     5ab: ac 12 de     	ldy	$de12                   ; 0xde12 <end_block9+0x8610>
     5ae: ac 13 de     	ldy	$de13                   ; 0xde13 <end_block9+0x8611>
     5b1: a2 00        	ldx	#$0
     5b3: 18           	clc
     5b4: 65 14        	adc	$14                     ; 0x14 <__rc4>
     5b6: a8           	tay
     5b7: 86 1f        	stx	$1f                     ; 0x1f <__rc15>
     5b9: a6 17        	ldx	$17                     ; 0x17 <__rc7>
     5bb: a9 d8        	lda	#$d8
     5bd: 65 15        	adc	$15                     ; 0x15 <__rc5>
     5bf: 84 16        	sty	$16                     ; 0x16 <__rc6>
     5c1: 85 17        	sta	$17                     ; 0x17 <__rc7>
     5c3: a5 1b        	lda	$1b                     ; 0x1b <__rc11>
     5c5: 92 16        	sta	($16)                   ; 0x16 <__rc6>
     5c7: a0 01        	ldy	#$1
     5c9: a5 1a        	lda	$1a                     ; 0x1a <__rc10>
     5cb: 91 16        	sta	($16),y                 ; 0x16 <__rc6>
     5cd: 84 1c        	sty	$1c                     ; 0x1c <__rc12>
     5cf: c8           	iny
     5d0: a5 19        	lda	$19                     ; 0x19 <__rc9>
     5d2: 91 16        	sta	($16),y                 ; 0x16 <__rc6>
     5d4: 84 1e        	sty	$1e                     ; 0x1e <__rc14>
     5d6: c8           	iny
     5d7: a9 ff        	lda	#$ff
     5d9: 91 16        	sta	($16),y                 ; 0x16 <__rc6>
     5db: 85 23        	sta	$23                     ; 0x23 <__rc19>
     5dd: 84 22        	sty	$22                     ; 0x22 <__rc18>
     5df: 8e 00 de     	stx	$de00                   ; 0xde00 <end_block9+0x85fe>
     5e2: 9c 01 de     	stz	$de01                   ; 0xde01 <end_block9+0x85ff>
     5e5: a4 1d        	ldy	$1d                     ; 0x1d <__rc13>
     5e7: 8c 02 de     	sty	$de02                   ; 0xde02 <end_block9+0x8600>
     5ea: 9c 03 de     	stz	$de03                   ; 0xde03 <end_block9+0x8601>
     5ed: ad 10 de     	lda	$de10                   ; 0xde10 <end_block9+0x860e>
     5f0: 85 15        	sta	$15                     ; 0x15 <__rc5>
     5f2: ad 11 de     	lda	$de11                   ; 0xde11 <end_block9+0x860f>
     5f5: 85 16        	sta	$16                     ; 0x16 <__rc6>
     5f7: a9 40        	lda	#$40
     5f9: a4 1f        	ldy	$1f                     ; 0x1f <__rc15>
     5fb: c0 01        	cpy	#$1
     5fd: 65 15        	adc	$15                     ; 0x15 <__rc5>
     5ff: a8           	tay
     600: a9 d8        	lda	#$d8
     602: 65 16        	adc	$16                     ; 0x16 <__rc6>
     604: 85 17        	sta	$17                     ; 0x17 <__rc7>
     606: 84 16        	sty	$16                     ; 0x16 <__rc6>
     608: ad 12 de     	lda	$de12                   ; 0xde12 <end_block9+0x8610>
     60b: ad 13 de     	lda	$de13                   ; 0xde13 <end_block9+0x8611>
     60e: a5 1b        	lda	$1b                     ; 0x1b <__rc11>
     610: 92 16        	sta	($16)                   ; 0x16 <__rc6>
     612: a5 1a        	lda	$1a                     ; 0x1a <__rc10>
     614: a4 1c        	ldy	$1c                     ; 0x1c <__rc12>
     616: 91 16        	sta	($16),y                 ; 0x16 <__rc6>
     618: a5 19        	lda	$19                     ; 0x19 <__rc9>
     61a: a4 1e        	ldy	$1e                     ; 0x1e <__rc14>
     61c: 91 16        	sta	($16),y                 ; 0x16 <__rc6>
     61e: a4 22        	ldy	$22                     ; 0x22 <__rc18>
     620: a5 23        	lda	$23                     ; 0x23 <__rc19>
     622: 91 16        	sta	($16),y                 ; 0x16 <__rc6>
     624: e8           	inx
     625: 86 15        	stx	$15                     ; 0x15 <__rc5>
     627: 18           	clc
     628: a5 18        	lda	$18                     ; 0x18 <__rc8>
     62a: 69 03        	adc	#$3
     62c: aa           	tax
     62d: c9 30        	cmp	#$30
     62f: f0 03        	beq	$634 <f256Init+0x18e>
     631: 4c 7c 05     	jmp	$57c <f256Init+0xd6>
     634: a6 01        	ldx	$1                      ; 0x1 <__data_size+0x1>
     636: 86 18        	stx	$18                     ; 0x18 <__rc8>
     638: a2 50        	ldx	#$50
     63a: 8e 00 de     	stx	$de00                   ; 0xde00 <end_block9+0x85fe>
     63d: 9c 01 de     	stz	$de01                   ; 0xde01 <end_block9+0x85ff>
     640: a2 1e        	ldx	#$1e
     642: 8e 02 de     	stx	$de02                   ; 0xde02 <end_block9+0x8600>
     645: 9c 03 de     	stz	$de03                   ; 0xde03 <end_block9+0x8601>
     648: ae 10 de     	ldx	$de10                   ; 0xde10 <end_block9+0x860e>
     64b: ac 11 de     	ldy	$de11                   ; 0xde11 <end_block9+0x860f>
     64e: ad 12 de     	lda	$de12                   ; 0xde12 <end_block9+0x8610>
     651: ad 13 de     	lda	$de13                   ; 0xde13 <end_block9+0x8611>
     654: a9 02        	lda	#$2
     656: 85 01        	sta	$1                      ; 0x1 <__data_size+0x1>
     658: e0 01        	cpx	#$1
     65a: 98           	tya
     65b: e9 00        	sbc	#$0
     65d: 50 02        	bvc	$661 <f256Init+0x1bb>
     65f: 49 80        	eor	#$80
     661: c9 00        	cmp	#$0
     663: 10 03        	bpl	$668 <f256Init+0x1c2>
     665: 4c c1 06     	jmp	$6c1 <f256Init+0x21b>
     668: a9 20        	lda	#$20
     66a: 86 19        	stx	$19                     ; 0x19 <__rc9>
     66c: 86 14        	stx	$14                     ; 0x14 <__rc4>
     66e: 84 15        	sty	$15                     ; 0x15 <__rc5>
     670: a2 00        	ldx	#$0
     672: 86 16        	stx	$16                     ; 0x16 <__rc6>
     674: a2 c0        	ldx	#$c0
     676: 86 17        	stx	$17                     ; 0x17 <__rc7>
     678: 92 16        	sta	($16)                   ; 0x16 <__rc6>
     67a: e6 16        	inc	$16                     ; 0x16 <__rc6>
     67c: d0 02        	bne	$680 <f256Init+0x1da>
     67e: e6 17        	inc	$17                     ; 0x17 <__rc7>
     680: a2 ff        	ldx	#$ff
     682: c6 14        	dec	$14                     ; 0x14 <__rc4>
     684: e4 14        	cpx	$14                     ; 0x14 <__rc4>
     686: d0 02        	bne	$68a <f256Init+0x1e4>
     688: c6 15        	dec	$15                     ; 0x15 <__rc5>
     68a: a6 15        	ldx	$15                     ; 0x15 <__rc5>
     68c: d0 ea        	bne	$678 <f256Init+0x1d2>
     68e: a6 14        	ldx	$14                     ; 0x14 <__rc4>
     690: d0 e6        	bne	$678 <f256Init+0x1d2>
     692: a2 03        	ldx	#$3
     694: 86 01        	stx	$1                      ; 0x1 <__data_size+0x1>
     696: a5 36        	lda	$36                     ; 0x36 <_ccolor>
     698: 29 01        	and	#$1
     69a: aa           	tax
     69b: a9 40        	lda	#$40
     69d: e0 00        	cpx	#$0
     69f: d0 02        	bne	$6a3 <f256Init+0x1fd>
     6a1: a9 f0        	lda	#$f0
     6a3: a6 19        	ldx	$19                     ; 0x19 <__rc9>
     6a5: 92 12        	sta	($12)                   ; 0x12 <__zp_bss_size>
     6a7: e6 12        	inc	$12                     ; 0x12 <__zp_bss_size>
     6a9: d0 02        	bne	$6ad <f256Init+0x207>
     6ab: e6 13        	inc	$13                     ; 0x13 <__rc3>
     6ad: 85 14        	sta	$14                     ; 0x14 <__rc4>
     6af: ca           	dex
     6b0: e0 ff        	cpx	#$ff
     6b2: d0 01        	bne	$6b5 <f256Init+0x20f>
     6b4: 88           	dey
     6b5: a5 14        	lda	$14                     ; 0x14 <__rc4>
     6b7: c0 00        	cpy	#$0
     6b9: d0 ea        	bne	$6a5 <f256Init+0x1ff>
     6bb: e0 00        	cpx	#$0
     6bd: d0 e6        	bne	$6a5 <f256Init+0x1ff>
     6bf: 80 04        	bra	$6c5 <f256Init+0x21f>
     6c1: a2 03        	ldx	#$3
     6c3: 86 01        	stx	$1                      ; 0x1 <__data_size+0x1>
     6c5: a6 18        	ldx	$18                     ; 0x18 <__rc8>
     6c7: 86 01        	stx	$1                      ; 0x1 <__data_size+0x1>
     6c9: 64 37        	stz	$37                     ; 0x37 <_col>
     6cb: 9c 14 d0     	stz	$d014                   ; 0xd014 <end_block9+0x7812>
     6ce: 9c 15 d0     	stz	$d015                   ; 0xd015 <end_block9+0x7813>
     6d1: 64 38        	stz	$38                     ; 0x38 <_row>
     6d3: 9c 16 d0     	stz	$d016                   ; 0xd016 <end_block9+0x7814>
     6d6: 9c 17 d0     	stz	$d017                   ; 0xd017 <end_block9+0x7815>
     6d9: a2 40        	ldx	#$40
     6db: 8e 00 de     	stx	$de00                   ; 0xde00 <end_block9+0x85fe>
     6de: a2 01        	ldx	#$1
     6e0: 8e 01 de     	stx	$de01                   ; 0xde01 <end_block9+0x85ff>
     6e3: a2 f0        	ldx	#$f0
     6e5: 8e 02 de     	stx	$de02                   ; 0xde02 <end_block9+0x8600>
     6e8: 9c 03 de     	stz	$de03                   ; 0xde03 <end_block9+0x8601>
     6eb: ae 10 de     	ldx	$de10                   ; 0xde10 <end_block9+0x860e>
     6ee: 86 17        	stx	$17                     ; 0x17 <__rc7>
     6f0: ae 11 de     	ldx	$de11                   ; 0xde11 <end_block9+0x860f>
     6f3: 86 12        	stx	$12                     ; 0x12 <__zp_bss_size>
     6f5: ae 12 de     	ldx	$de12                   ; 0xde12 <end_block9+0x8610>
     6f8: 86 13        	stx	$13                     ; 0x13 <__rc3>
     6fa: ae 13 de     	ldx	$de13                   ; 0xde13 <end_block9+0x8611>
     6fd: 86 14        	stx	$14                     ; 0x14 <__rc4>
     6ff: a4 12        	ldy	$12                     ; 0x12 <__zp_bss_size>
     701: 84 15        	sty	$15                     ; 0x15 <__rc5>
     703: 06 15        	asl	$15                     ; 0x15 <__rc5>
     705: a5 13        	lda	$13                     ; 0x13 <__rc3>
     707: 2a           	rol
     708: 86 16        	stx	$16                     ; 0x16 <__rc6>
     70a: 26 16        	rol	$16                     ; 0x16 <__rc6>
     70c: 06 15        	asl	$15                     ; 0x15 <__rc5>
     70e: 2a           	rol
     70f: 26 16        	rol	$16                     ; 0x16 <__rc6>
     711: 06 15        	asl	$15                     ; 0x15 <__rc5>
     713: 2a           	rol
     714: 26 16        	rol	$16                     ; 0x16 <__rc6>
     716: 85 15        	sta	$15                     ; 0x15 <__rc5>
     718: 8d 00 de     	sta	$de00                   ; 0xde00 <end_block9+0x85fe>
     71b: a5 16        	lda	$16                     ; 0x16 <__rc6>
     71d: 8d 01 de     	sta	$de01                   ; 0xde01 <end_block9+0x85ff>
     720: 9c 02 de     	stz	$de02                   ; 0xde02 <end_block9+0x8600>
     723: a2 20        	ldx	#$20
     725: 8e 03 de     	stx	$de03                   ; 0xde03 <end_block9+0x8601>
     728: ae 10 de     	ldx	$de10                   ; 0xde10 <end_block9+0x860e>
     72b: 86 16        	stx	$16                     ; 0x16 <__rc6>
     72d: ae 11 de     	ldx	$de11                   ; 0xde11 <end_block9+0x860f>
     730: 86 18        	stx	$18                     ; 0x18 <__rc8>
     732: ac 12 de     	ldy	$de12                   ; 0xde12 <end_block9+0x8610>
     735: ae 13 de     	ldx	$de13                   ; 0xde13 <end_block9+0x8611>
     738: e4 14        	cpx	$14                     ; 0x14 <__rc4>
     73a: d0 14        	bne	$750 <f256Init+0x2aa>
     73c: c4 13        	cpy	$13                     ; 0x13 <__rc3>
     73e: d0 10        	bne	$750 <f256Init+0x2aa>
     740: a6 18        	ldx	$18                     ; 0x18 <__rc8>
     742: e4 12        	cpx	$12                     ; 0x12 <__zp_bss_size>
     744: d0 0a        	bne	$750 <f256Init+0x2aa>
     746: a6 16        	ldx	$16                     ; 0x16 <__rc6>
     748: e4 17        	cpx	$17                     ; 0x17 <__rc7>
     74a: d0 04        	bne	$750 <f256Init+0x2aa>
     74c: a6 15        	ldx	$15                     ; 0x15 <__rc5>
     74e: 80 06        	bra	$756 <f256Init+0x2b0>
     750: a6 15        	ldx	$15                     ; 0x15 <__rc5>
     752: e8           	inx
     753: d0 01        	bne	$756 <f256Init+0x2b0>
     755: 1a           	inc
     756: 8e 00 de     	stx	$de00                   ; 0xde00 <end_block9+0x85fe>
     759: 8d 01 de     	sta	$de01                   ; 0xde01 <end_block9+0x85ff>
     75c: 9c 02 de     	stz	$de02                   ; 0xde02 <end_block9+0x8600>
     75f: a2 20        	ldx	#$20
     761: 8e 03 de     	stx	$de03                   ; 0xde03 <end_block9+0x8601>
     764: ae 10 de     	ldx	$de10                   ; 0xde10 <end_block9+0x860e>
     767: 86 12        	stx	$12                     ; 0x12 <__zp_bss_size>
     769: ae 11 de     	ldx	$de11                   ; 0xde11 <end_block9+0x860f>
     76c: 86 13        	stx	$13                     ; 0x13 <__rc3>
     76e: ae 12 de     	ldx	$de12                   ; 0xde12 <end_block9+0x8610>
     771: 86 14        	stx	$14                     ; 0x14 <__rc4>
     773: 38           	sec
     774: a9 00        	lda	#$0
     776: e5 12        	sbc	$12                     ; 0x12 <__zp_bss_size>
     778: a8           	tay
     779: a9 00        	lda	#$0
     77b: e5 13        	sbc	$13                     ; 0x13 <__rc3>
     77d: 85 15        	sta	$15                     ; 0x15 <__rc5>
     77f: a9 08        	lda	#$8
     781: e5 14        	sbc	$14                     ; 0x14 <__rc4>
     783: aa           	tax
     784: 38           	sec
     785: 98           	tya
     786: 84 17        	sty	$17                     ; 0x17 <__rc7>
     788: e5 12        	sbc	$12                     ; 0x12 <__zp_bss_size>
     78a: 85 16        	sta	$16                     ; 0x16 <__rc6>
     78c: a5 15        	lda	$15                     ; 0x15 <__rc5>
     78e: e5 13        	sbc	$13                     ; 0x13 <__rc3>
     790: 85 18        	sta	$18                     ; 0x18 <__rc8>
     792: 8a           	txa
     793: 86 19        	stx	$19                     ; 0x19 <__rc9>
     795: e5 14        	sbc	$14                     ; 0x14 <__rc4>
     797: a8           	tay
     798: 38           	sec
     799: a5 16        	lda	$16                     ; 0x16 <__rc6>
     79b: e5 12        	sbc	$12                     ; 0x12 <__zp_bss_size>
     79d: 85 12        	sta	$12                     ; 0x12 <__zp_bss_size>
     79f: a5 18        	lda	$18                     ; 0x18 <__rc8>
     7a1: e5 13        	sbc	$13                     ; 0x13 <__rc3>
     7a3: 85 13        	sta	$13                     ; 0x13 <__rc3>
     7a5: 98           	tya
     7a6: e5 14        	sbc	$14                     ; 0x14 <__rc4>
     7a8: ae 13 de     	ldx	$de13                   ; 0xde13 <end_block9+0x8611>
     7ab: a6 17        	ldx	$17                     ; 0x17 <__rc7>
     7ad: 8e 01 d1     	stx	$d101                   ; 0xd101 <end_block9+0x78ff>
     7b0: a6 15        	ldx	$15                     ; 0x15 <__rc5>
     7b2: 8e 02 d1     	stx	$d102                   ; 0xd102 <end_block9+0x7900>
     7b5: a6 19        	ldx	$19                     ; 0x19 <__rc9>
     7b7: 8e 03 d1     	stx	$d103                   ; 0xd103 <end_block9+0x7901>
     7ba: a6 16        	ldx	$16                     ; 0x16 <__rc6>
     7bc: 8e 09 d1     	stx	$d109                   ; 0xd109 <end_block9+0x7907>
     7bf: a6 18        	ldx	$18                     ; 0x18 <__rc8>
     7c1: 8e 0a d1     	stx	$d10a                   ; 0xd10a <end_block9+0x7908>
     7c4: 8c 0b d1     	sty	$d10b                   ; 0xd10b <end_block9+0x7909>
     7c7: a6 12        	ldx	$12                     ; 0x12 <__zp_bss_size>
     7c9: 8e 11 d1     	stx	$d111                   ; 0xd111 <end_block9+0x790f>
     7cc: a6 13        	ldx	$13                     ; 0x13 <__rc3>
     7ce: 8e 12 d1     	stx	$d112                   ; 0xd112 <end_block9+0x7910>
     7d1: 8d 13 d1     	sta	$d113                   ; 0xd113 <end_block9+0x7911>
     7d4: 9c 00 d1     	stz	$d100                   ; 0xd100 <end_block9+0x78fe>
     7d7: 9c 08 d1     	stz	$d108                   ; 0xd108 <end_block9+0x7906>
     7da: 9c 10 d1     	stz	$d110                   ; 0xd110 <end_block9+0x790e>
     7dd: a2 10        	ldx	#$10
     7df: 8e 00 d2     	stx	$d200                   ; 0xd200 <end_block9+0x79fe>
     7e2: 8e 0c d2     	stx	$d20c                   ; 0xd20c <end_block9+0x7a0a>
     7e5: 8e 18 d2     	stx	$d218                   ; 0xd218 <end_block9+0x7a16>
     7e8: a0 d9        	ldy	#$d9
     7ea: 64 12        	stz	$12                     ; 0x12 <__zp_bss_size>
     7ec: a2 00        	ldx	#$0
     7ee: 84 13        	sty	$13                     ; 0x13 <__rc3>
     7f0: bd e1 55     	lda	$55e1,x                 ; 0x55e1 <_spriteCtl>
     7f3: 92 12        	sta	($12)                   ; 0x12 <__zp_bss_size>
     7f5: a5 12        	lda	$12                     ; 0x12 <__zp_bss_size>
     7f7: e8           	inx
     7f8: 18           	clc
     7f9: 69 08        	adc	#$8
     7fb: 85 12        	sta	$12                     ; 0x12 <__zp_bss_size>
     7fd: 98           	tya
     7fe: 69 00        	adc	#$0
     800: a8           	tay
     801: e0 40        	cpx	#$40
     803: d0 e9        	bne	$7ee <f256Init+0x348>
     805: a2 48        	ldx	#$48
     807: a0 00        	ldy	#$0
     809: 86 fb        	stx	$fb                     ; 0xfb <__rc31+0xcc>
     80b: 84 fc        	sty	$fc                     ; 0xfc <__rc31+0xcd>
     80d: a2 08        	ldx	#$8
     80f: 86 fd        	stx	$fd                     ; 0xfd <__rc31+0xce>
     811: a2 50        	ldx	#$50
     813: a0 00        	ldy	#$0
     815: 86 12        	stx	$12                     ; 0x12 <__zp_bss_size>
     817: 84 13        	sty	$13                     ; 0x13 <__rc3>
     819: a2 01        	ldx	#$1
     81b: 86 14        	stx	$14                     ; 0x14 <__rc4>
     81d: a2 58        	ldx	#$58
     81f: 86 15        	stx	$15                     ; 0x15 <__rc5>
     821: 20 dc ff     	jsr	$ffdc <end_block9+0xa7da>
     824: 92 12        	sta	($12)                   ; 0x12 <__zp_bss_size>
     826: a9 00        	lda	#$0
     828: 6a           	ror
     829: 85 14        	sta	$14                     ; 0x14 <__rc4>
     82b: a6 4e        	ldx	$4e                     ; 0x4e <__rc31+0x1f>
     82d: a4 4f        	ldy	$4f                     ; 0x4f <__rc31+0x20>
     82f: 8e 00 de     	stx	$de00                   ; 0xde00 <end_block9+0x85fe>
     832: 9c 01 de     	stz	$de01                   ; 0xde01 <end_block9+0x85ff>
     835: 8c 02 de     	sty	$de02                   ; 0xde02 <end_block9+0x8600>
     838: 9c 03 de     	stz	$de03                   ; 0xde03 <end_block9+0x8601>
     83b: ae 10 de     	ldx	$de10                   ; 0xde10 <end_block9+0x860e>
     83e: ac 11 de     	ldy	$de11                   ; 0xde11 <end_block9+0x860f>
     841: ad 12 de     	lda	$de12                   ; 0xde12 <end_block9+0x8610>
     844: ad 13 de     	lda	$de13                   ; 0xde13 <end_block9+0x8611>
     847: 8e a4 d6     	stx	$d6a4                   ; 0xd6a4 <end_block9+0x7ea2>
     84a: 8c a5 d6     	sty	$d6a5                   ; 0xd6a5 <end_block9+0x7ea3>
     84d: a2 03        	ldx	#$3
     84f: 8e a6 d6     	stx	$d6a6                   ; 0xd6a6 <end_block9+0x7ea4>
     852: 60           	rts

00000853 <main>:
     853: 20 a6 04     	jsr	$4a6 <f256Init>
     856: 20 59 08     	jsr	$859 <f256main>

00000859 <f256main>:
     859: 18           	clc
     85a: a5 10        	lda	$10                     ; 0x10 <__rc0>
     85c: 69 ff        	adc	#$ff
     85e: 85 10        	sta	$10                     ; 0x10 <__rc0>
     860: a5 11        	lda	$11                     ; 0x11 <__rc1>
     862: 69 ff        	adc	#$ff
     864: 85 11        	sta	$11                     ; 0x11 <__rc1>
     866: 64 01        	stz	$1                      ; 0x1 <__data_size+0x1>
     868: a2 2f        	ldx	#$2f
     86a: 8e 00 d0     	stx	$d000                   ; 0xd000 <end_block9+0x77fe>
     86d: a2 04        	ldx	#$4
     86f: 8e 01 d0     	stx	$d001                   ; 0xd001 <end_block9+0x77ff>
     872: a2 01        	ldx	#$1
     874: 8e 02 d0     	stx	$d002                   ; 0xd002 <end_block9+0x7800>
     877: a0 02        	ldy	#$2
     879: 8c 03 d0     	sty	$d003                   ; 0xd003 <end_block9+0x7801>
     87c: a0 bb        	ldy	#$bb
     87e: 8c 0d d0     	sty	$d00d                   ; 0xd00d <end_block9+0x780b>
     881: 8c 0e d0     	sty	$d00e                   ; 0xd00e <end_block9+0x780c>
     884: 8c 0f d0     	sty	$d00f                   ; 0xd00f <end_block9+0x780d>
     887: 86 01        	stx	$1                      ; 0x1 <__data_size+0x1>
     889: a0 fc        	ldy	#$fc
     88b: a9 ff        	lda	#$ff
     88d: 85 12        	sta	$12                     ; 0x12 <__zp_bss_size>
     88f: 85 13        	sta	$13                     ; 0x13 <__rc3>
     891: a5 0f        	lda	$f                      ; 0xf <__zp_data_size+0x9>
     893: 85 17        	sta	$17                     ; 0x17 <__rc7>
     895: 78           	sei
     896: a9 08        	lda	#$8
     898: 85 0f        	sta	$f                      ; 0xf <__zp_data_size+0x9>
     89a: 18           	clc
     89b: 8a           	txa
     89c: 69 ff        	adc	#$ff
     89e: 85 16        	sta	$16                     ; 0x16 <__rc6>
     8a0: a9 01        	lda	#$1
     8a2: b0 02        	bcs	$8a6 <f256main+0x4d>
     8a4: a9 00        	lda	#$0
     8a6: 85 19        	sta	$19                     ; 0x19 <__rc9>
     8a8: 98           	tya
     8a9: 69 e3        	adc	#$e3
     8ab: 5a           	phy
     8ac: a4 16        	ldy	$16                     ; 0x16 <__rc6>
     8ae: 84 14        	sty	$14                     ; 0x14 <__rc4>
     8b0: 7a           	ply
     8b1: 85 15        	sta	$15                     ; 0x15 <__rc5>
     8b3: b2 14        	lda	($14)                   ; 0x14 <__rc4>
     8b5: 85 18        	sta	$18                     ; 0x18 <__rc8>
     8b7: a5 17        	lda	$17                     ; 0x17 <__rc7>
     8b9: 85 0f        	sta	$f                      ; 0xf <__zp_data_size+0x9>
     8bb: 98           	tya
     8bc: 5a           	phy
     8bd: a4 19        	ldy	$19                     ; 0x19 <__rc9>
     8bf: c0 01        	cpy	#$1
     8c1: 7a           	ply
     8c2: 69 d3        	adc	#$d3
     8c4: 58           	cli
     8c5: 85 15        	sta	$15                     ; 0x15 <__rc5>
     8c7: a5 18        	lda	$18                     ; 0x18 <__rc8>
     8c9: 92 14        	sta	($14)                   ; 0x14 <__rc4>
     8cb: e8           	inx
     8cc: d0 c3        	bne	$891 <f256main+0x38>
     8ce: c8           	iny
     8cf: d0 c0        	bne	$891 <f256main+0x38>
     8d1: e6 12        	inc	$12                     ; 0x12 <__zp_bss_size>
     8d3: d0 bc        	bne	$891 <f256main+0x38>
     8d5: e6 13        	inc	$13                     ; 0x13 <__rc3>
     8d7: d0 b8        	bne	$891 <f256main+0x38>
     8d9: 64 01        	stz	$1                      ; 0x1 <__data_size+0x1>
     8db: 9c 00 d1     	stz	$d100                   ; 0xd100 <end_block9+0x78fe>
     8de: 9c 08 d1     	stz	$d108                   ; 0xd108 <end_block9+0x7906>
     8e1: 9c 10 d1     	stz	$d110                   ; 0xd110 <end_block9+0x790e>
     8e4: a2 01        	ldx	#$1
     8e6: a0 64        	ldy	#$64
     8e8: a9 04        	lda	#$4
     8ea: 85 12        	sta	$12                     ; 0x12 <__zp_bss_size>
     8ec: 86 13        	stx	$13                     ; 0x13 <__rc3>
     8ee: 64 14        	stz	$14                     ; 0x14 <__rc4>
     8f0: 64 15        	stz	$15                     ; 0x15 <__rc5>
     8f2: 84 16        	sty	$16                     ; 0x16 <__rc6>
     8f4: 84 25        	sty	$25                     ; 0x25 <__rc21>
     8f6: 64 17        	stz	$17                     ; 0x17 <__rc7>
     8f8: a0 32        	ldy	#$32
     8fa: 84 18        	sty	$18                     ; 0x18 <__rc8>
     8fc: 64 19        	stz	$19                     ; 0x19 <__rc9>
     8fe: 86 1a        	stx	$1a                     ; 0x1a <__rc10>
     900: 86 24        	stx	$24                     ; 0x24 <__rc20>
     902: 64 1b        	stz	$1b                     ; 0x1b <__rc11>
     904: ca           	dex
     905: 8a           	txa
     906: 20 c5 18     	jsr	$18c5 <mySpriteDefine>
     909: a9 08        	lda	#$8
     90b: a0 c8        	ldy	#$c8
     90d: a2 02        	ldx	#$2
     90f: 85 12        	sta	$12                     ; 0x12 <__zp_bss_size>
     911: a5 24        	lda	$24                     ; 0x24 <__rc20>
     913: 85 13        	sta	$13                     ; 0x13 <__rc3>
     915: 64 14        	stz	$14                     ; 0x14 <__rc4>
     917: 86 15        	stx	$15                     ; 0x15 <__rc5>
     919: 86 27        	stx	$27                     ; 0x27 <__rc23>
     91b: 84 16        	sty	$16                     ; 0x16 <__rc6>
     91d: 84 26        	sty	$26                     ; 0x26 <__rc22>
     91f: 64 17        	stz	$17                     ; 0x17 <__rc7>
     921: a2 32        	ldx	#$32
     923: 86 18        	stx	$18                     ; 0x18 <__rc8>
     925: 64 19        	stz	$19                     ; 0x19 <__rc9>
     927: a6 24        	ldx	$24                     ; 0x24 <__rc20>
     929: 86 1a        	stx	$1a                     ; 0x1a <__rc10>
     92b: 64 1b        	stz	$1b                     ; 0x1b <__rc11>
     92d: a2 00        	ldx	#$0
     92f: a5 24        	lda	$24                     ; 0x24 <__rc20>
     931: 20 c5 18     	jsr	$18c5 <mySpriteDefine>
     934: a2 0c        	ldx	#$c
     936: a0 50        	ldy	#$50
     938: 86 12        	stx	$12                     ; 0x12 <__zp_bss_size>
     93a: a6 24        	ldx	$24                     ; 0x24 <__rc20>
     93c: 86 13        	stx	$13                     ; 0x13 <__rc3>
     93e: 64 14        	stz	$14                     ; 0x14 <__rc4>
     940: 64 15        	stz	$15                     ; 0x15 <__rc5>
     942: a6 25        	ldx	$25                     ; 0x25 <__rc21>
     944: 86 16        	stx	$16                     ; 0x16 <__rc6>
     946: 64 17        	stz	$17                     ; 0x17 <__rc7>
     948: 84 18        	sty	$18                     ; 0x18 <__rc8>
     94a: 84 28        	sty	$28                     ; 0x28 <__rc24>
     94c: 64 19        	stz	$19                     ; 0x19 <__rc9>
     94e: a6 24        	ldx	$24                     ; 0x24 <__rc20>
     950: 86 1a        	stx	$1a                     ; 0x1a <__rc10>
     952: 64 1b        	stz	$1b                     ; 0x1b <__rc11>
     954: a2 00        	ldx	#$0
     956: a5 27        	lda	$27                     ; 0x27 <__rc23>
     958: 20 c5 18     	jsr	$18c5 <mySpriteDefine>
     95b: a2 10        	ldx	#$10
     95d: a9 03        	lda	#$3
     95f: 86 12        	stx	$12                     ; 0x12 <__zp_bss_size>
     961: a6 27        	ldx	$27                     ; 0x27 <__rc23>
     963: 86 15        	stx	$15                     ; 0x15 <__rc5>
     965: a6 26        	ldx	$26                     ; 0x26 <__rc22>
     967: 86 16        	stx	$16                     ; 0x16 <__rc6>
     969: a6 24        	ldx	$24                     ; 0x24 <__rc20>
     96b: 86 13        	stx	$13                     ; 0x13 <__rc3>
     96d: 64 14        	stz	$14                     ; 0x14 <__rc4>
     96f: 64 17        	stz	$17                     ; 0x17 <__rc7>
     971: a6 28        	ldx	$28                     ; 0x28 <__rc24>
     973: 86 18        	stx	$18                     ; 0x18 <__rc8>
     975: 64 19        	stz	$19                     ; 0x19 <__rc9>
     977: a6 24        	ldx	$24                     ; 0x24 <__rc20>
     979: 86 1a        	stx	$1a                     ; 0x1a <__rc10>
     97b: 64 1b        	stz	$1b                     ; 0x1b <__rc11>
     97d: a2 00        	ldx	#$0
     97f: 20 c5 18     	jsr	$18c5 <mySpriteDefine>
     982: a0 14        	ldy	#$14
     984: a2 6e        	ldx	#$6e
     986: a9 04        	lda	#$4
     988: 84 12        	sty	$12                     ; 0x12 <__zp_bss_size>
     98a: a4 24        	ldy	$24                     ; 0x24 <__rc20>
     98c: 84 13        	sty	$13                     ; 0x13 <__rc3>
     98e: 64 14        	stz	$14                     ; 0x14 <__rc4>
     990: 64 15        	stz	$15                     ; 0x15 <__rc5>
     992: a4 25        	ldy	$25                     ; 0x25 <__rc21>
     994: 84 16        	sty	$16                     ; 0x16 <__rc6>
     996: 64 17        	stz	$17                     ; 0x17 <__rc7>
     998: 86 18        	stx	$18                     ; 0x18 <__rc8>
     99a: 64 19        	stz	$19                     ; 0x19 <__rc9>
     99c: a6 24        	ldx	$24                     ; 0x24 <__rc20>
     99e: 86 1a        	stx	$1a                     ; 0x1a <__rc10>
     9a0: 64 1b        	stz	$1b                     ; 0x1b <__rc11>
     9a2: a2 00        	ldx	#$0
     9a4: 20 c5 18     	jsr	$18c5 <mySpriteDefine>
     9a7: a2 30        	ldx	#$30
     9a9: a9 0a        	lda	#$a
     9ab: 86 12        	stx	$12                     ; 0x12 <__zp_bss_size>
     9ad: 86 25        	stx	$25                     ; 0x25 <__rc21>
     9af: a6 24        	ldx	$24                     ; 0x24 <__rc20>
     9b1: 86 13        	stx	$13                     ; 0x13 <__rc3>
     9b3: 64 14        	stz	$14                     ; 0x14 <__rc4>
     9b5: 64 15        	stz	$15                     ; 0x15 <__rc5>
     9b7: 64 16        	stz	$16                     ; 0x16 <__rc6>
     9b9: 64 17        	stz	$17                     ; 0x17 <__rc7>
     9bb: 64 18        	stz	$18                     ; 0x18 <__rc8>
     9bd: 64 19        	stz	$19                     ; 0x19 <__rc9>
     9bf: 64 1a        	stz	$1a                     ; 0x1a <__rc10>
     9c1: a6 24        	ldx	$24                     ; 0x24 <__rc20>
     9c3: 86 1b        	stx	$1b                     ; 0x1b <__rc11>
     9c5: a2 00        	ldx	#$0
     9c7: 20 c5 18     	jsr	$18c5 <mySpriteDefine>
     9ca: a9 0b        	lda	#$b
     9cc: a6 25        	ldx	$25                     ; 0x25 <__rc21>
     9ce: 86 12        	stx	$12                     ; 0x12 <__zp_bss_size>
     9d0: a6 24        	ldx	$24                     ; 0x24 <__rc20>
     9d2: 86 13        	stx	$13                     ; 0x13 <__rc3>
     9d4: 64 14        	stz	$14                     ; 0x14 <__rc4>
     9d6: 64 15        	stz	$15                     ; 0x15 <__rc5>
     9d8: 64 16        	stz	$16                     ; 0x16 <__rc6>
     9da: 64 17        	stz	$17                     ; 0x17 <__rc7>
     9dc: 64 18        	stz	$18                     ; 0x18 <__rc8>
     9de: 64 19        	stz	$19                     ; 0x19 <__rc9>
     9e0: 64 1a        	stz	$1a                     ; 0x1a <__rc10>
     9e2: a6 24        	ldx	$24                     ; 0x24 <__rc20>
     9e4: 86 1b        	stx	$1b                     ; 0x1b <__rc11>
     9e6: a2 00        	ldx	#$0
     9e8: 20 c5 18     	jsr	$18c5 <mySpriteDefine>
     9eb: a9 0c        	lda	#$c
     9ed: a6 25        	ldx	$25                     ; 0x25 <__rc21>
     9ef: 86 12        	stx	$12                     ; 0x12 <__zp_bss_size>
     9f1: a6 24        	ldx	$24                     ; 0x24 <__rc20>
     9f3: 86 13        	stx	$13                     ; 0x13 <__rc3>
     9f5: 64 14        	stz	$14                     ; 0x14 <__rc4>
     9f7: 64 15        	stz	$15                     ; 0x15 <__rc5>
     9f9: 64 16        	stz	$16                     ; 0x16 <__rc6>
     9fb: 64 17        	stz	$17                     ; 0x17 <__rc7>
     9fd: 64 18        	stz	$18                     ; 0x18 <__rc8>
     9ff: 64 19        	stz	$19                     ; 0x19 <__rc9>
     a01: 64 1a        	stz	$1a                     ; 0x1a <__rc10>
     a03: a6 24        	ldx	$24                     ; 0x24 <__rc20>
     a05: 86 1b        	stx	$1b                     ; 0x1b <__rc11>
     a07: a2 00        	ldx	#$0
     a09: 20 c5 18     	jsr	$18c5 <mySpriteDefine>
     a0c: a9 0d        	lda	#$d
     a0e: a6 25        	ldx	$25                     ; 0x25 <__rc21>
     a10: 86 12        	stx	$12                     ; 0x12 <__zp_bss_size>
     a12: a6 24        	ldx	$24                     ; 0x24 <__rc20>
     a14: 86 13        	stx	$13                     ; 0x13 <__rc3>
     a16: 64 14        	stz	$14                     ; 0x14 <__rc4>
     a18: 64 15        	stz	$15                     ; 0x15 <__rc5>
     a1a: 64 16        	stz	$16                     ; 0x16 <__rc6>
     a1c: 64 17        	stz	$17                     ; 0x17 <__rc7>
     a1e: 64 18        	stz	$18                     ; 0x18 <__rc8>
     a20: 64 19        	stz	$19                     ; 0x19 <__rc9>
     a22: 64 1a        	stz	$1a                     ; 0x1a <__rc10>
     a24: a6 24        	ldx	$24                     ; 0x24 <__rc20>
     a26: 86 1b        	stx	$1b                     ; 0x1b <__rc11>
     a28: a2 00        	ldx	#$0
     a2a: 20 c5 18     	jsr	$18c5 <mySpriteDefine>
     a2d: a9 0e        	lda	#$e
     a2f: a6 25        	ldx	$25                     ; 0x25 <__rc21>
     a31: 86 12        	stx	$12                     ; 0x12 <__zp_bss_size>
     a33: a6 24        	ldx	$24                     ; 0x24 <__rc20>
     a35: 86 13        	stx	$13                     ; 0x13 <__rc3>
     a37: 64 14        	stz	$14                     ; 0x14 <__rc4>
     a39: 64 15        	stz	$15                     ; 0x15 <__rc5>
     a3b: 64 16        	stz	$16                     ; 0x16 <__rc6>
     a3d: 64 17        	stz	$17                     ; 0x17 <__rc7>
     a3f: 64 18        	stz	$18                     ; 0x18 <__rc8>
     a41: 64 19        	stz	$19                     ; 0x19 <__rc9>
     a43: 64 1a        	stz	$1a                     ; 0x1a <__rc10>
     a45: a6 24        	ldx	$24                     ; 0x24 <__rc20>
     a47: 86 1b        	stx	$1b                     ; 0x1b <__rc11>
     a49: a2 00        	ldx	#$0
     a4b: 20 c5 18     	jsr	$18c5 <mySpriteDefine>
     a4e: 9c 34 56     	stz	$5634                   ; 0x5634 <spriteStatuses+0x13>
     a51: a2 01        	ldx	#$1
     a53: 8e 25 56     	stx	$5625                   ; 0x5625 <spriteStatuses+0x4>
     a56: 8e 4c 56     	stx	$564c                   ; 0x564c <spriteStatuses+0x2b>
     a59: 9c 3d 56     	stz	$563d                   ; 0x563d <spriteStatuses+0x1c>
     a5c: 9c 64 56     	stz	$5664                   ; 0x5664 <spriteStatuses+0x43>
     a5f: 8e 55 56     	stx	$5655                   ; 0x5655 <spriteStatuses+0x34>
     a62: 8e 7c 56     	stx	$567c                   ; 0x567c <spriteStatuses+0x5b>
     a65: 9c 6d 56     	stz	$566d                   ; 0x566d <spriteStatuses+0x4c>
     a68: 9c 94 56     	stz	$5694                   ; 0x5694 <spriteStatuses+0x73>
     a6b: 8e 85 56     	stx	$5685                   ; 0x5685 <spriteStatuses+0x64>
     a6e: 86 24        	stx	$24                     ; 0x24 <__rc20>
     a70: 20 00 17     	jsr	$1700 <updateFrames>
     a73: a2 1f        	ldx	#$1f
     a75: 8e 20 d6     	stx	$d620                   ; 0xd620 <end_block9+0x7e1e>
     a78: a2 2a        	ldx	#$2a
     a7a: 8e 21 d6     	stx	$d621                   ; 0xd621 <end_block9+0x7e1f>
     a7d: a6 24        	ldx	$24                     ; 0x24 <__rc20>
     a7f: 8e 22 d6     	stx	$d622                   ; 0xd622 <end_block9+0x7e20>
     a82: ad 22 d6     	lda	$d622                   ; 0xd622 <end_block9+0x7e20>
     a85: 29 01        	and	#$1
     a87: d0 f9        	bne	$a82 <f256main+0x229>
     a89: a2 03        	ldx	#$3
     a8b: 8e 01 d7     	stx	$d701                   ; 0xd701 <end_block9+0x7eff>
     a8e: 9c 02 d7     	stz	$d702                   ; 0xd702 <end_block9+0x7f00>
     a91: 9c 02 d7     	stz	$d702                   ; 0xd702 <end_block9+0x7f00>
     a94: a2 e0        	ldx	#$e0
     a96: 8e 03 d7     	stx	$d703                   ; 0xd703 <end_block9+0x7f01>
     a99: a2 01        	ldx	#$1
     a9b: 8e 00 d7     	stx	$d700                   ; 0xd700 <end_block9+0x7efe>
     a9e: 9c 00 d7     	stz	$d700                   ; 0xd700 <end_block9+0x7efe>
     aa1: ae 00 d7     	ldx	$d700                   ; 0xd700 <end_block9+0x7efe>
     aa4: 30 fb        	bmi	$aa1 <f256main+0x248>
     aa6: 64 12        	stz	$12                     ; 0x12 <__zp_bss_size>
     aa8: a0 01        	ldy	#$1
     aaa: a2 00        	ldx	#$0
     aac: a5 12        	lda	$12                     ; 0x12 <__zp_bss_size>
     aae: 85 14        	sta	$14                     ; 0x14 <__rc4>
     ab0: a5 12        	lda	$12                     ; 0x12 <__zp_bss_size>
     ab2: 0a           	asl
     ab3: 85 12        	sta	$12                     ; 0x12 <__zp_bss_size>
     ab5: 8a           	txa
     ab6: 2a           	rol
     ab7: 85 13        	sta	$13                     ; 0x13 <__rc3>
     ab9: a9 6b        	lda	#$6b
     abb: 18           	clc
     abc: 65 12        	adc	$12                     ; 0x12 <__zp_bss_size>
     abe: 85 12        	sta	$12                     ; 0x12 <__zp_bss_size>
     ac0: a9 31        	lda	#$31
     ac2: 65 13        	adc	$13                     ; 0x13 <__rc3>
     ac4: 85 15        	sta	$15                     ; 0x15 <__rc5>
     ac6: a5 12        	lda	$12                     ; 0x12 <__zp_bss_size>
     ac8: 85 17        	sta	$17                     ; 0x17 <__rc7>
     aca: a5 15        	lda	$15                     ; 0x15 <__rc5>
     acc: 85 13        	sta	$13                     ; 0x13 <__rc3>
     ace: b2 12        	lda	($12)                   ; 0x12 <__zp_bss_size>
     ad0: 85 16        	sta	$16                     ; 0x16 <__rc6>
     ad2: a5 14        	lda	$14                     ; 0x14 <__rc4>
     ad4: 85 1a        	sta	$1a                     ; 0x1a <__rc10>
     ad6: a5 14        	lda	$14                     ; 0x14 <__rc4>
     ad8: 18           	clc
     ad9: 69 02        	adc	#$2
     adb: 85 19        	sta	$19                     ; 0x19 <__rc9>
     add: 86 18        	stx	$18                     ; 0x18 <__rc8>
     adf: 8a           	txa
     ae0: 69 00        	adc	#$0
     ae2: aa           	tax
     ae3: 18           	clc
     ae4: a5 17        	lda	$17                     ; 0x17 <__rc7>
     ae6: 69 02        	adc	#$2
     ae8: 85 14        	sta	$14                     ; 0x14 <__rc4>
     aea: a5 15        	lda	$15                     ; 0x15 <__rc5>
     aec: 69 00        	adc	#$0
     aee: 85 15        	sta	$15                     ; 0x15 <__rc5>
     af0: b1 12        	lda	($12),y                 ; 0x12 <__zp_bss_size>
     af2: 85 17        	sta	$17                     ; 0x17 <__rc7>
     af4: 84 1c        	sty	$1c                     ; 0x1c <__rc12>
     af6: a0 02        	ldy	#$2
     af8: b1 12        	lda	($12),y                 ; 0x12 <__zp_bss_size>
     afa: 85 1b        	sta	$1b                     ; 0x1b <__rc11>
     afc: a4 1c        	ldy	$1c                     ; 0x1c <__rc12>
     afe: b1 14        	lda	($14),y                 ; 0x14 <__rc4>
     b00: 10 03        	bpl	$b05 <f256main+0x2ac>
     b02: 4c 88 0b     	jmp	$b88 <f256main+0x32f>
     b05: 5a           	phy
     b06: a4 1b        	ldy	$1b                     ; 0x1b <__rc11>
     b08: 84 14        	sty	$14                     ; 0x14 <__rc4>
     b0a: a4 19        	ldy	$19                     ; 0x19 <__rc9>
     b0c: 84 18        	sty	$18                     ; 0x18 <__rc8>
     b0e: 7a           	ply
     b0f: c9 00        	cmp	#$0
     b11: d0 09        	bne	$b1c <f256main+0x2c3>
     b13: e6 14        	inc	$14                     ; 0x14 <__rc4>
     b15: c6 14        	dec	$14                     ; 0x14 <__rc4>
     b17: d0 03        	bne	$b1c <f256main+0x2c3>
     b19: 4c 0e 0c     	jmp	$c0e <f256main+0x3b5>
     b1c: 85 15        	sta	$15                     ; 0x15 <__rc5>
     b1e: a5 18        	lda	$18                     ; 0x18 <__rc8>
     b20: 85 19        	sta	$19                     ; 0x19 <__rc9>
     b22: a5 18        	lda	$18                     ; 0x18 <__rc8>
     b24: 0a           	asl
     b25: 85 12        	sta	$12                     ; 0x12 <__zp_bss_size>
     b27: 86 18        	stx	$18                     ; 0x18 <__rc8>
     b29: 8a           	txa
     b2a: 2a           	rol
     b2b: 85 13        	sta	$13                     ; 0x13 <__rc3>
     b2d: a9 6b        	lda	#$6b
     b2f: 18           	clc
     b30: 65 12        	adc	$12                     ; 0x12 <__zp_bss_size>
     b32: 85 12        	sta	$12                     ; 0x12 <__zp_bss_size>
     b34: a9 31        	lda	#$31
     b36: 65 13        	adc	$13                     ; 0x13 <__rc3>
     b38: 85 13        	sta	$13                     ; 0x13 <__rc3>
     b3a: b2 12        	lda	($12)                   ; 0x12 <__zp_bss_size>
     b3c: 85 1a        	sta	$1a                     ; 0x1a <__rc10>
     b3e: b1 12        	lda	($12),y                 ; 0x12 <__zp_bss_size>
     b40: a6 16        	ldx	$16                     ; 0x16 <__rc6>
     b42: 8e 01 d7     	stx	$d701                   ; 0xd701 <end_block9+0x7eff>
     b45: a6 17        	ldx	$17                     ; 0x17 <__rc7>
     b47: 8e 02 d7     	stx	$d702                   ; 0xd702 <end_block9+0x7f00>
     b4a: a6 1a        	ldx	$1a                     ; 0x1a <__rc10>
     b4c: 8e 02 d7     	stx	$d702                   ; 0xd702 <end_block9+0x7f00>
     b4f: 8d 03 d7     	sta	$d703                   ; 0xd703 <end_block9+0x7f01>
     b52: 8c 00 d7     	sty	$d700                   ; 0xd700 <end_block9+0x7efe>
     b55: 9c 00 d7     	stz	$d700                   ; 0xd700 <end_block9+0x7efe>
     b58: ae 00 d7     	ldx	$d700                   ; 0xd700 <end_block9+0x7efe>
     b5b: 30 fb        	bmi	$b58 <f256main+0x2ff>
     b5d: a5 15        	lda	$15                     ; 0x15 <__rc5>
     b5f: a2 ff        	ldx	#$ff
     b61: c6 14        	dec	$14                     ; 0x14 <__rc4>
     b63: e4 14        	cpx	$14                     ; 0x14 <__rc4>
     b65: d0 01        	bne	$b68 <f256main+0x30f>
     b67: 3a           	dec
     b68: a6 18        	ldx	$18                     ; 0x18 <__rc8>
     b6a: 5a           	phy
     b6b: a4 19        	ldy	$19                     ; 0x19 <__rc9>
     b6d: 84 18        	sty	$18                     ; 0x18 <__rc8>
     b6f: 7a           	ply
     b70: e6 18        	inc	$18                     ; 0x18 <__rc8>
     b72: d0 01        	bne	$b75 <f256main+0x31c>
     b74: e8           	inx
     b75: c9 00        	cmp	#$0
     b77: f0 03        	beq	$b7c <f256main+0x323>
     b79: 4c 1c 0b     	jmp	$b1c <f256main+0x2c3>
     b7c: e6 14        	inc	$14                     ; 0x14 <__rc4>
     b7e: c6 14        	dec	$14                     ; 0x14 <__rc4>
     b80: f0 03        	beq	$b85 <f256main+0x32c>
     b82: 4c 1c 0b     	jmp	$b1c <f256main+0x2c3>
     b85: 4c 0e 0c     	jmp	$c0e <f256main+0x3b5>
     b88: 29 7f        	and	#$7f
     b8a: 18           	clc
     b8b: 85 13        	sta	$13                     ; 0x13 <__rc3>
     b8d: a5 1a        	lda	$1a                     ; 0x1a <__rc10>
     b8f: 69 03        	adc	#$3
     b91: 85 12        	sta	$12                     ; 0x12 <__zp_bss_size>
     b93: a5 18        	lda	$18                     ; 0x18 <__rc8>
     b95: 69 00        	adc	#$0
     b97: 85 1a        	sta	$1a                     ; 0x1a <__rc10>
     b99: a5 13        	lda	$13                     ; 0x13 <__rc3>
     b9b: 5a           	phy
     b9c: a4 1b        	ldy	$1b                     ; 0x1b <__rc11>
     b9e: 84 14        	sty	$14                     ; 0x14 <__rc4>
     ba0: 7a           	ply
     ba1: c9 00        	cmp	#$0
     ba3: d0 09        	bne	$bae <f256main+0x355>
     ba5: e6 14        	inc	$14                     ; 0x14 <__rc4>
     ba7: c6 14        	dec	$14                     ; 0x14 <__rc4>
     ba9: d0 03        	bne	$bae <f256main+0x355>
     bab: 4c e2 10     	jmp	$10e2 <f256main+0x889>
     bae: 5a           	phy
     baf: a4 12        	ldy	$12                     ; 0x12 <__zp_bss_size>
     bb1: 84 18        	sty	$18                     ; 0x18 <__rc8>
     bb3: 7a           	ply
     bb4: 85 15        	sta	$15                     ; 0x15 <__rc5>
     bb6: a5 19        	lda	$19                     ; 0x19 <__rc9>
     bb8: 85 12        	sta	$12                     ; 0x12 <__zp_bss_size>
     bba: 06 12        	asl	$12                     ; 0x12 <__zp_bss_size>
     bbc: 86 13        	stx	$13                     ; 0x13 <__rc3>
     bbe: 26 13        	rol	$13                     ; 0x13 <__rc3>
     bc0: a9 6b        	lda	#$6b
     bc2: 18           	clc
     bc3: 65 12        	adc	$12                     ; 0x12 <__zp_bss_size>
     bc5: 85 12        	sta	$12                     ; 0x12 <__zp_bss_size>
     bc7: a9 31        	lda	#$31
     bc9: 65 13        	adc	$13                     ; 0x13 <__rc3>
     bcb: 85 13        	sta	$13                     ; 0x13 <__rc3>
     bcd: a6 1b        	ldx	$1b                     ; 0x1b <__rc11>
     bcf: 86 19        	stx	$19                     ; 0x19 <__rc9>
     bd1: b2 12        	lda	($12)                   ; 0x12 <__zp_bss_size>
     bd3: 85 14        	sta	$14                     ; 0x14 <__rc4>
     bd5: b1 12        	lda	($12),y                 ; 0x12 <__zp_bss_size>
     bd7: a6 16        	ldx	$16                     ; 0x16 <__rc6>
     bd9: 8e 01 d7     	stx	$d701                   ; 0xd701 <end_block9+0x7eff>
     bdc: a6 17        	ldx	$17                     ; 0x17 <__rc7>
     bde: 8e 02 d7     	stx	$d702                   ; 0xd702 <end_block9+0x7f00>
     be1: a6 14        	ldx	$14                     ; 0x14 <__rc4>
     be3: 8e 02 d7     	stx	$d702                   ; 0xd702 <end_block9+0x7f00>
     be6: 8d 03 d7     	sta	$d703                   ; 0xd703 <end_block9+0x7f01>
     be9: 8c 00 d7     	sty	$d700                   ; 0xd700 <end_block9+0x7efe>
     bec: 9c 00 d7     	stz	$d700                   ; 0xd700 <end_block9+0x7efe>
     bef: ae 00 d7     	ldx	$d700                   ; 0xd700 <end_block9+0x7efe>
     bf2: 30 fb        	bmi	$bef <f256main+0x396>
     bf4: a6 15        	ldx	$15                     ; 0x15 <__rc5>
     bf6: 86 12        	stx	$12                     ; 0x12 <__zp_bss_size>
     bf8: a2 ff        	ldx	#$ff
     bfa: c6 19        	dec	$19                     ; 0x19 <__rc9>
     bfc: e4 19        	cpx	$19                     ; 0x19 <__rc9>
     bfe: d0 02        	bne	$c02 <f256main+0x3a9>
     c00: c6 12        	dec	$12                     ; 0x12 <__zp_bss_size>
     c02: a6 12        	ldx	$12                     ; 0x12 <__zp_bss_size>
     c04: 86 15        	stx	$15                     ; 0x15 <__rc5>
     c06: d0 cf        	bne	$bd7 <f256main+0x37e>
     c08: a6 19        	ldx	$19                     ; 0x19 <__rc9>
     c0a: d0 cb        	bne	$bd7 <f256main+0x37e>
     c0c: a6 1a        	ldx	$1a                     ; 0x1a <__rc10>
     c0e: a5 18        	lda	$18                     ; 0x18 <__rc8>
     c10: e0 12        	cpx	#$12
     c12: d0 04        	bne	$c18 <f256main+0x3bf>
     c14: c9 3b        	cmp	#$3b
     c16: 80 02        	bra	$c1a <f256main+0x3c1>
     c18: e0 12        	cpx	#$12
     c1a: 85 12        	sta	$12                     ; 0x12 <__zp_bss_size>
     c1c: b0 03        	bcs	$c21 <f256main+0x3c8>
     c1e: 4c ac 0a     	jmp	$aac <f256main+0x253>
     c21: 9c 34 56     	stz	$5634                   ; 0x5634 <spriteStatuses+0x13>
     c24: a2 02        	ldx	#$2
     c26: 8e 4c 56     	stx	$564c                   ; 0x564c <spriteStatuses+0x2b>
     c29: 9c 64 56     	stz	$5664                   ; 0x5664 <spriteStatuses+0x43>
     c2c: 8e 7c 56     	stx	$567c                   ; 0x567c <spriteStatuses+0x5b>
     c2f: 86 12        	stx	$12                     ; 0x12 <__zp_bss_size>
     c31: 9c 94 56     	stz	$5694                   ; 0x5694 <spriteStatuses+0x73>
     c34: 9c 24 57     	stz	$5724                   ; 0x5724 <spriteStatuses+0x103>
     c37: a0 80        	ldy	#$80
     c39: 84 f3        	sty	$f3                     ; 0xf3 <__rc31+0xc4>
     c3b: 18           	clc
     c3c: a6 10        	ldx	$10                     ; 0x10 <__rc0>
     c3e: 86 24        	stx	$24                     ; 0x24 <__rc20>
     c40: a6 11        	ldx	$11                     ; 0x11 <__rc1>
     c42: 86 25        	stx	$25                     ; 0x25 <__rc21>
     c44: a2 01        	ldx	#$1
     c46: 86 26        	stx	$26                     ; 0x26 <__rc22>
     c48: a2 58        	ldx	#$58
     c4a: 86 27        	stx	$27                     ; 0x27 <__rc23>
     c4c: 20 f0 ff     	jsr	$fff0 <end_block9+0xa7ee>
     c4f: 92 24        	sta	($24)                   ; 0x24 <__rc20>
     c51: a9 00        	lda	#$0
     c53: 6a           	ror
     c54: 85 26        	sta	$26                     ; 0x26 <__rc22>
     c56: b2 24        	lda	($24)                   ; 0x24 <__rc20>
     c58: ae 34 56     	ldx	$5634                   ; 0x5634 <spriteStatuses+0x13>
     c5b: 18           	clc
     c5c: 75 30        	adc	$30,x                   ; 0x30 <stateDelays>
     c5e: 8d 31 56     	sta	$5631                   ; 0x5631 <spriteStatuses+0x10>
     c61: ae 30 56     	ldx	$5630                   ; 0x5630 <spriteStatuses+0xf>
     c64: 86 f3        	stx	$f3                     ; 0xf3 <__rc31+0xc4>
     c66: ae 31 56     	ldx	$5631                   ; 0x5631 <spriteStatuses+0x10>
     c69: 86 f4        	stx	$f4                     ; 0xf4 <__rc31+0xc5>
     c6b: ae 32 56     	ldx	$5632                   ; 0x5632 <spriteStatuses+0x11>
     c6e: 86 f5        	stx	$f5                     ; 0xf5 <__rc31+0xc6>
     c70: 20 f0 ff     	jsr	$fff0 <end_block9+0xa7ee>
     c73: 92 24        	sta	($24)                   ; 0x24 <__rc20>
     c75: a9 00        	lda	#$0
     c77: 6a           	ror
     c78: 85 26        	sta	$26                     ; 0x26 <__rc22>
     c7a: 84 f3        	sty	$f3                     ; 0xf3 <__rc31+0xc4>
     c7c: 20 f0 ff     	jsr	$fff0 <end_block9+0xa7ee>
     c7f: 92 24        	sta	($24)                   ; 0x24 <__rc20>
     c81: a9 00        	lda	#$0
     c83: 6a           	ror
     c84: 85 26        	sta	$26                     ; 0x26 <__rc22>
     c86: b2 24        	lda	($24)                   ; 0x24 <__rc20>
     c88: ae 4c 56     	ldx	$564c                   ; 0x564c <spriteStatuses+0x2b>
     c8b: 18           	clc
     c8c: 75 30        	adc	$30,x                   ; 0x30 <stateDelays>
     c8e: 8d 49 56     	sta	$5649                   ; 0x5649 <spriteStatuses+0x28>
     c91: ae 48 56     	ldx	$5648                   ; 0x5648 <spriteStatuses+0x27>
     c94: 86 f3        	stx	$f3                     ; 0xf3 <__rc31+0xc4>
     c96: ae 49 56     	ldx	$5649                   ; 0x5649 <spriteStatuses+0x28>
     c99: 86 f4        	stx	$f4                     ; 0xf4 <__rc31+0xc5>
     c9b: ae 4a 56     	ldx	$564a                   ; 0x564a <spriteStatuses+0x29>
     c9e: 86 f5        	stx	$f5                     ; 0xf5 <__rc31+0xc6>
     ca0: 20 f0 ff     	jsr	$fff0 <end_block9+0xa7ee>
     ca3: 92 24        	sta	($24)                   ; 0x24 <__rc20>
     ca5: a9 00        	lda	#$0
     ca7: 6a           	ror
     ca8: 85 26        	sta	$26                     ; 0x26 <__rc22>
     caa: 84 f3        	sty	$f3                     ; 0xf3 <__rc31+0xc4>
     cac: 20 f0 ff     	jsr	$fff0 <end_block9+0xa7ee>
     caf: 92 24        	sta	($24)                   ; 0x24 <__rc20>
     cb1: a9 00        	lda	#$0
     cb3: 6a           	ror
     cb4: 85 26        	sta	$26                     ; 0x26 <__rc22>
     cb6: b2 24        	lda	($24)                   ; 0x24 <__rc20>
     cb8: ae 64 56     	ldx	$5664                   ; 0x5664 <spriteStatuses+0x43>
     cbb: 18           	clc
     cbc: 75 30        	adc	$30,x                   ; 0x30 <stateDelays>
     cbe: 8d 61 56     	sta	$5661                   ; 0x5661 <spriteStatuses+0x40>
     cc1: ae 60 56     	ldx	$5660                   ; 0x5660 <spriteStatuses+0x3f>
     cc4: 86 f3        	stx	$f3                     ; 0xf3 <__rc31+0xc4>
     cc6: ae 61 56     	ldx	$5661                   ; 0x5661 <spriteStatuses+0x40>
     cc9: 86 f4        	stx	$f4                     ; 0xf4 <__rc31+0xc5>
     ccb: ae 62 56     	ldx	$5662                   ; 0x5662 <spriteStatuses+0x41>
     cce: 86 f5        	stx	$f5                     ; 0xf5 <__rc31+0xc6>
     cd0: 20 f0 ff     	jsr	$fff0 <end_block9+0xa7ee>
     cd3: 92 24        	sta	($24)                   ; 0x24 <__rc20>
     cd5: a9 00        	lda	#$0
     cd7: 6a           	ror
     cd8: 85 26        	sta	$26                     ; 0x26 <__rc22>
     cda: 84 f3        	sty	$f3                     ; 0xf3 <__rc31+0xc4>
     cdc: 20 f0 ff     	jsr	$fff0 <end_block9+0xa7ee>
     cdf: 92 24        	sta	($24)                   ; 0x24 <__rc20>
     ce1: a9 00        	lda	#$0
     ce3: 6a           	ror
     ce4: 85 26        	sta	$26                     ; 0x26 <__rc22>
     ce6: b2 24        	lda	($24)                   ; 0x24 <__rc20>
     ce8: ae 7c 56     	ldx	$567c                   ; 0x567c <spriteStatuses+0x5b>
     ceb: 18           	clc
     cec: 75 30        	adc	$30,x                   ; 0x30 <stateDelays>
     cee: 8d 79 56     	sta	$5679                   ; 0x5679 <spriteStatuses+0x58>
     cf1: ae 78 56     	ldx	$5678                   ; 0x5678 <spriteStatuses+0x57>
     cf4: 86 f3        	stx	$f3                     ; 0xf3 <__rc31+0xc4>
     cf6: ae 79 56     	ldx	$5679                   ; 0x5679 <spriteStatuses+0x58>
     cf9: 86 f4        	stx	$f4                     ; 0xf4 <__rc31+0xc5>
     cfb: ae 7a 56     	ldx	$567a                   ; 0x567a <spriteStatuses+0x59>
     cfe: 86 f5        	stx	$f5                     ; 0xf5 <__rc31+0xc6>
     d00: 20 f0 ff     	jsr	$fff0 <end_block9+0xa7ee>
     d03: 92 24        	sta	($24)                   ; 0x24 <__rc20>
     d05: a9 00        	lda	#$0
     d07: 6a           	ror
     d08: 85 26        	sta	$26                     ; 0x26 <__rc22>
     d0a: 84 f3        	sty	$f3                     ; 0xf3 <__rc31+0xc4>
     d0c: 20 f0 ff     	jsr	$fff0 <end_block9+0xa7ee>
     d0f: 92 24        	sta	($24)                   ; 0x24 <__rc20>
     d11: a9 00        	lda	#$0
     d13: 6a           	ror
     d14: 85 26        	sta	$26                     ; 0x26 <__rc22>
     d16: b2 24        	lda	($24)                   ; 0x24 <__rc20>
     d18: ae 94 56     	ldx	$5694                   ; 0x5694 <spriteStatuses+0x73>
     d1b: 18           	clc
     d1c: 75 30        	adc	$30,x                   ; 0x30 <stateDelays>
     d1e: 8d 91 56     	sta	$5691                   ; 0x5691 <spriteStatuses+0x70>
     d21: ae 90 56     	ldx	$5690                   ; 0x5690 <spriteStatuses+0x6f>
     d24: 86 f3        	stx	$f3                     ; 0xf3 <__rc31+0xc4>
     d26: ae 91 56     	ldx	$5691                   ; 0x5691 <spriteStatuses+0x70>
     d29: 86 f4        	stx	$f4                     ; 0xf4 <__rc31+0xc5>
     d2b: ae 92 56     	ldx	$5692                   ; 0x5692 <spriteStatuses+0x71>
     d2e: 86 f5        	stx	$f5                     ; 0xf5 <__rc31+0xc6>
     d30: 20 f0 ff     	jsr	$fff0 <end_block9+0xa7ee>
     d33: 92 24        	sta	($24)                   ; 0x24 <__rc20>
     d35: a9 00        	lda	#$0
     d37: 6a           	ror
     d38: 85 26        	sta	$26                     ; 0x26 <__rc22>
     d3a: 84 f3        	sty	$f3                     ; 0xf3 <__rc31+0xc4>
     d3c: 20 f0 ff     	jsr	$fff0 <end_block9+0xa7ee>
     d3f: 92 24        	sta	($24)                   ; 0x24 <__rc20>
     d41: a9 00        	lda	#$0
     d43: 6a           	ror
     d44: 85 26        	sta	$26                     ; 0x26 <__rc22>
     d46: a5 12        	lda	$12                     ; 0x12 <__zp_bss_size>
     d48: 18           	clc
     d49: 72 24        	adc	($24)                   ; 0x24 <__rc20>
     d4b: 85 3b        	sta	$3b                     ; 0x3b <padTimer.1>
     d4d: 64 f3        	stz	$f3                     ; 0xf3 <__rc31+0xc4>
     d4f: a6 3b        	ldx	$3b                     ; 0x3b <padTimer.1>
     d51: 86 f4        	stx	$f4                     ; 0xf4 <__rc31+0xc5>
     d53: a2 63        	ldx	#$63
     d55: 86 f5        	stx	$f5                     ; 0xf5 <__rc31+0xc6>
     d57: a0 0a        	ldy	#$a
     d59: 20 f0 ff     	jsr	$fff0 <end_block9+0xa7ee>
     d5c: 92 24        	sta	($24)                   ; 0x24 <__rc20>
     d5e: a9 00        	lda	#$0
     d60: 6a           	ror
     d61: 85 26        	sta	$26                     ; 0x26 <__rc22>
     d63: 4c ca 0f     	jmp	$fca <f256main+0x771>
     d66: a2 00        	ldx	#$0
     d68: 18           	clc
     d69: 65 13        	adc	$13                     ; 0x13 <__rc3>
     d6b: 85 13        	sta	$13                     ; 0x13 <__rc3>
     d6d: a5 15        	lda	$15                     ; 0x15 <__rc5>
     d6f: 65 12        	adc	$12                     ; 0x12 <__zp_bss_size>
     d71: 85 12        	sta	$12                     ; 0x12 <__zp_bss_size>
     d73: a9 21        	lda	#$21
     d75: 18           	clc
     d76: 65 13        	adc	$13                     ; 0x13 <__rc3>
     d78: aa           	tax
     d79: a9 56        	lda	#$56
     d7b: 65 12        	adc	$12                     ; 0x12 <__zp_bss_size>
     d7d: 86 12        	stx	$12                     ; 0x12 <__zp_bss_size>
     d7f: 85 13        	sta	$13                     ; 0x13 <__rc3>
     d81: a0 13        	ldy	#$13
     d83: b1 12        	lda	($12),y                 ; 0x12 <__zp_bss_size>
     d85: 85 1a        	sta	$1a                     ; 0x1a <__rc10>
     d87: 29 fe        	and	#$fe
     d89: c9 04        	cmp	#$4
     d8b: f0 03        	beq	$d90 <f256main+0x537>
     d8d: 4c 34 0e     	jmp	$e34 <f256main+0x5db>
     d90: a0 04        	ldy	#$4
     d92: b1 12        	lda	($12),y                 ; 0x12 <__zp_bss_size>
     d94: a2 01        	ldx	#$1
     d96: a8           	tay
     d97: f0 02        	beq	$d9b <f256main+0x542>
     d99: a2 00        	ldx	#$0
     d9b: 8a           	txa
     d9c: d0 03        	bne	$da1 <f256main+0x548>
     d9e: 4c 20 0e     	jmp	$e20 <f256main+0x5c7>
     da1: a9 01        	lda	#$1
     da3: 4c 22 0e     	jmp	$e22 <f256main+0x5c9>
     da6: a2 80        	ldx	#$80
     da8: 86 f3        	stx	$f3                     ; 0xf3 <__rc31+0xc4>
     daa: a2 01        	ldx	#$1
     dac: 86 12        	stx	$12                     ; 0x12 <__zp_bss_size>
     dae: a2 58        	ldx	#$58
     db0: 86 13        	stx	$13                     ; 0x13 <__rc3>
     db2: 20 f0 ff     	jsr	$fff0 <end_block9+0xa7ee>
     db5: 92 24        	sta	($24)                   ; 0x24 <__rc20>
     db7: a9 00        	lda	#$0
     db9: 6a           	ror
     dba: 85 12        	sta	$12                     ; 0x12 <__zp_bss_size>
     dbc: a9 08        	lda	#$8
     dbe: 18           	clc
     dbf: 72 24        	adc	($24)                   ; 0x24 <__rc20>
     dc1: 85 16        	sta	$16                     ; 0x16 <__rc6>
     dc3: a5 40        	lda	$40                     ; 0x40 <kernelEventData+0x4>
     dc5: 0a           	asl
     dc6: 64 14        	stz	$14                     ; 0x14 <__rc4>
     dc8: 26 14        	rol	$14                     ; 0x14 <__rc4>
     dca: 0a           	asl
     dcb: 26 14        	rol	$14                     ; 0x14 <__rc4>
     dcd: 0a           	asl
     dce: 85 15        	sta	$15                     ; 0x15 <__rc5>
     dd0: 26 14        	rol	$14                     ; 0x14 <__rc4>
     dd2: 0a           	asl
     dd3: a6 14        	ldx	$14                     ; 0x14 <__rc4>
     dd5: 86 18        	stx	$18                     ; 0x18 <__rc8>
     dd7: 26 18        	rol	$18                     ; 0x18 <__rc8>
     dd9: a6 1c        	ldx	$1c                     ; 0x1c <__rc12>
     ddb: e0 01        	cpx	#$1
     ddd: 65 15        	adc	$15                     ; 0x15 <__rc5>
     ddf: 85 15        	sta	$15                     ; 0x15 <__rc5>
     de1: a5 18        	lda	$18                     ; 0x18 <__rc8>
     de3: 65 14        	adc	$14                     ; 0x14 <__rc4>
     de5: 85 14        	sta	$14                     ; 0x14 <__rc4>
     de7: a9 21        	lda	#$21
     de9: a6 1c        	ldx	$1c                     ; 0x1c <__rc12>
     deb: e0 01        	cpx	#$1
     ded: 65 15        	adc	$15                     ; 0x15 <__rc5>
     def: aa           	tax
     df0: a9 56        	lda	#$56
     df2: 65 14        	adc	$14                     ; 0x14 <__rc4>
     df4: 86 14        	stx	$14                     ; 0x14 <__rc4>
     df6: 85 15        	sta	$15                     ; 0x15 <__rc5>
     df8: a0 10        	ldy	#$10
     dfa: a5 16        	lda	$16                     ; 0x16 <__rc6>
     dfc: 91 14        	sta	($14),y                 ; 0x14 <__rc4>
     dfe: 84 16        	sty	$16                     ; 0x16 <__rc6>
     e00: 88           	dey
     e01: b1 14        	lda	($14),y                 ; 0x14 <__rc4>
     e03: 85 f3        	sta	$f3                     ; 0xf3 <__rc31+0xc4>
     e05: a4 16        	ldy	$16                     ; 0x16 <__rc6>
     e07: b1 14        	lda	($14),y                 ; 0x14 <__rc4>
     e09: 85 f4        	sta	$f4                     ; 0xf4 <__rc31+0xc5>
     e0b: a0 11        	ldy	#$11
     e0d: b1 14        	lda	($14),y                 ; 0x14 <__rc4>
     e0f: 85 f5        	sta	$f5                     ; 0xf5 <__rc31+0xc6>
     e11: 20 f0 ff     	jsr	$fff0 <end_block9+0xa7ee>
     e14: 92 24        	sta	($24)                   ; 0x24 <__rc20>
     e16: a9 00        	lda	#$0
     e18: 6a           	ror
     e19: 85 12        	sta	$12                     ; 0x12 <__zp_bss_size>
     e1b: a4 17        	ldy	$17                     ; 0x17 <__rc7>
     e1d: 4c ca 0f     	jmp	$fca <f256main+0x771>
     e20: a9 00        	lda	#$0
     e22: a0 13        	ldy	#$13
     e24: 85 1a        	sta	$1a                     ; 0x1a <__rc10>
     e26: 91 12        	sta	($12),y                 ; 0x12 <__zp_bss_size>
     e28: a9 00        	lda	#$0
     e2a: e0 00        	cpx	#$0
     e2c: d0 02        	bne	$e30 <f256main+0x5d7>
     e2e: a9 02        	lda	#$2
     e30: a0 0a        	ldy	#$a
     e32: 91 12        	sta	($12),y                 ; 0x12 <__zp_bss_size>
     e34: a2 80        	ldx	#$80
     e36: 86 f3        	stx	$f3                     ; 0xf3 <__rc31+0xc4>
     e38: a2 01        	ldx	#$1
     e3a: 86 12        	stx	$12                     ; 0x12 <__zp_bss_size>
     e3c: a2 58        	ldx	#$58
     e3e: 86 13        	stx	$13                     ; 0x13 <__rc3>
     e40: 20 f0 ff     	jsr	$fff0 <end_block9+0xa7ee>
     e43: 92 24        	sta	($24)                   ; 0x24 <__rc20>
     e45: a9 00        	lda	#$0
     e47: 6a           	ror
     e48: 85 12        	sta	$12                     ; 0x12 <__zp_bss_size>
     e4a: b2 24        	lda	($24)                   ; 0x24 <__rc20>
     e4c: 85 17        	sta	$17                     ; 0x17 <__rc7>
     e4e: a5 40        	lda	$40                     ; 0x40 <kernelEventData+0x4>
     e50: 0a           	asl
     e51: 64 14        	stz	$14                     ; 0x14 <__rc4>
     e53: 26 14        	rol	$14                     ; 0x14 <__rc4>
     e55: 0a           	asl
     e56: 26 14        	rol	$14                     ; 0x14 <__rc4>
     e58: 0a           	asl
     e59: 85 15        	sta	$15                     ; 0x15 <__rc5>
     e5b: 26 14        	rol	$14                     ; 0x14 <__rc4>
     e5d: 0a           	asl
     e5e: a6 14        	ldx	$14                     ; 0x14 <__rc4>
     e60: 86 18        	stx	$18                     ; 0x18 <__rc8>
     e62: 26 18        	rol	$18                     ; 0x18 <__rc8>
     e64: a0 00        	ldy	#$0
     e66: 84 16        	sty	$16                     ; 0x16 <__rc6>
     e68: 18           	clc
     e69: 65 15        	adc	$15                     ; 0x15 <__rc5>
     e6b: 85 15        	sta	$15                     ; 0x15 <__rc5>
     e6d: a5 18        	lda	$18                     ; 0x18 <__rc8>
     e6f: 65 14        	adc	$14                     ; 0x14 <__rc4>
     e71: 85 14        	sta	$14                     ; 0x14 <__rc4>
     e73: a9 21        	lda	#$21
     e75: 18           	clc
     e76: 65 15        	adc	$15                     ; 0x15 <__rc5>
     e78: aa           	tax
     e79: a9 56        	lda	#$56
     e7b: 65 14        	adc	$14                     ; 0x14 <__rc4>
     e7d: 86 14        	stx	$14                     ; 0x14 <__rc4>
     e7f: 85 15        	sta	$15                     ; 0x15 <__rc5>
     e81: a0 13        	ldy	#$13
     e83: b1 14        	lda	($14),y                 ; 0x14 <__rc4>
     e85: aa           	tax
     e86: 18           	clc
     e87: a5 17        	lda	$17                     ; 0x17 <__rc7>
     e89: 75 30        	adc	$30,x                   ; 0x30 <stateDelays>
     e8b: a0 10        	ldy	#$10
     e8d: 91 14        	sta	($14),y                 ; 0x14 <__rc4>
     e8f: 84 17        	sty	$17                     ; 0x17 <__rc7>
     e91: 88           	dey
     e92: b1 14        	lda	($14),y                 ; 0x14 <__rc4>
     e94: 85 f3        	sta	$f3                     ; 0xf3 <__rc31+0xc4>
     e96: a4 17        	ldy	$17                     ; 0x17 <__rc7>
     e98: b1 14        	lda	($14),y                 ; 0x14 <__rc4>
     e9a: 85 f4        	sta	$f4                     ; 0xf4 <__rc31+0xc5>
     e9c: a0 11        	ldy	#$11
     e9e: b1 14        	lda	($14),y                 ; 0x14 <__rc4>
     ea0: 85 f5        	sta	$f5                     ; 0xf5 <__rc31+0xc6>
     ea2: 20 f0 ff     	jsr	$fff0 <end_block9+0xa7ee>
     ea5: 92 24        	sta	($24)                   ; 0x24 <__rc20>
     ea7: a9 00        	lda	#$0
     ea9: 6a           	ror
     eaa: 85 12        	sta	$12                     ; 0x12 <__zp_bss_size>
     eac: a5 40        	lda	$40                     ; 0x40 <kernelEventData+0x4>
     eae: 0a           	asl
     eaf: 64 12        	stz	$12                     ; 0x12 <__zp_bss_size>
     eb1: 26 12        	rol	$12                     ; 0x12 <__zp_bss_size>
     eb3: 0a           	asl
     eb4: 26 12        	rol	$12                     ; 0x12 <__zp_bss_size>
     eb6: 0a           	asl
     eb7: 85 13        	sta	$13                     ; 0x13 <__rc3>
     eb9: 26 12        	rol	$12                     ; 0x12 <__zp_bss_size>
     ebb: 0a           	asl
     ebc: a6 12        	ldx	$12                     ; 0x12 <__zp_bss_size>
     ebe: 86 14        	stx	$14                     ; 0x14 <__rc4>
     ec0: 26 14        	rol	$14                     ; 0x14 <__rc4>
     ec2: a6 16        	ldx	$16                     ; 0x16 <__rc6>
     ec4: e0 01        	cpx	#$1
     ec6: 65 13        	adc	$13                     ; 0x13 <__rc3>
     ec8: 85 13        	sta	$13                     ; 0x13 <__rc3>
     eca: a5 14        	lda	$14                     ; 0x14 <__rc4>
     ecc: 65 12        	adc	$12                     ; 0x12 <__zp_bss_size>
     ece: 85 12        	sta	$12                     ; 0x12 <__zp_bss_size>
     ed0: a9 21        	lda	#$21
     ed2: a6 16        	ldx	$16                     ; 0x16 <__rc6>
     ed4: e0 01        	cpx	#$1
     ed6: 65 13        	adc	$13                     ; 0x13 <__rc3>
     ed8: aa           	tax
     ed9: a9 56        	lda	#$56
     edb: 65 12        	adc	$12                     ; 0x12 <__zp_bss_size>
     edd: 85 16        	sta	$16                     ; 0x16 <__rc6>
     edf: 86 12        	stx	$12                     ; 0x12 <__zp_bss_size>
     ee1: 85 13        	sta	$13                     ; 0x13 <__rc3>
     ee3: a0 0a        	ldy	#$a
     ee5: b1 12        	lda	($12),y                 ; 0x12 <__zp_bss_size>
     ee7: 1a           	inc
     ee8: 85 14        	sta	$14                     ; 0x14 <__rc4>
     eea: 84 28        	sty	$28                     ; 0x28 <__rc24>
     eec: 91 12        	sta	($12),y                 ; 0x12 <__zp_bss_size>
     eee: 18           	clc
     eef: 86 15        	stx	$15                     ; 0x15 <__rc5>
     ef1: 8a           	txa
     ef2: 69 16        	adc	#$16
     ef4: aa           	tax
     ef5: a5 16        	lda	$16                     ; 0x16 <__rc6>
     ef7: 85 1b        	sta	$1b                     ; 0x1b <__rc11>
     ef9: 69 00        	adc	#$0
     efb: 86 16        	stx	$16                     ; 0x16 <__rc6>
     efd: 85 17        	sta	$17                     ; 0x17 <__rc7>
     eff: a0 16        	ldy	#$16
     f01: b1 12        	lda	($12),y                 ; 0x12 <__zp_bss_size>
     f03: 85 18        	sta	$18                     ; 0x18 <__rc8>
     f05: a0 01        	ldy	#$1
     f07: b1 16        	lda	($16),y                 ; 0x16 <__rc6>
     f09: 85 19        	sta	$19                     ; 0x19 <__rc9>
     f0b: a4 1a        	ldy	$1a                     ; 0x1a <__rc10>
     f0d: b1 18        	lda	($18),y                 ; 0x18 <__rc8>
     f0f: c5 14        	cmp	$14                     ; 0x14 <__rc4>
     f11: b0 21        	bcs	$f34 <f256main+0x6db>
     f13: 18           	clc
     f14: a5 15        	lda	$15                     ; 0x15 <__rc5>
     f16: 69 14        	adc	#$14
     f18: 85 14        	sta	$14                     ; 0x14 <__rc4>
     f1a: a5 1b        	lda	$1b                     ; 0x1b <__rc11>
     f1c: 69 00        	adc	#$0
     f1e: 85 15        	sta	$15                     ; 0x15 <__rc5>
     f20: a0 14        	ldy	#$14
     f22: b1 12        	lda	($12),y                 ; 0x12 <__zp_bss_size>
     f24: 85 16        	sta	$16                     ; 0x16 <__rc6>
     f26: a0 01        	ldy	#$1
     f28: b1 14        	lda	($14),y                 ; 0x14 <__rc4>
     f2a: 85 17        	sta	$17                     ; 0x17 <__rc7>
     f2c: a4 1a        	ldy	$1a                     ; 0x1a <__rc10>
     f2e: b1 16        	lda	($16),y                 ; 0x16 <__rc6>
     f30: a4 28        	ldy	$28                     ; 0x28 <__rc24>
     f32: 91 12        	sta	($12),y                 ; 0x12 <__zp_bss_size>
     f34: 20 00 17     	jsr	$1700 <updateFrames>
     f37: a4 28        	ldy	$28                     ; 0x28 <__rc24>
     f39: 4c ca 0f     	jmp	$fca <f256main+0x771>
     f3c: e0 63        	cpx	#$63
     f3e: f0 03        	beq	$f43 <f256main+0x6ea>
     f40: 4c ca 0f     	jmp	$fca <f256main+0x771>
     f43: a2 0a        	ldx	#$a
     f45: 86 28        	stx	$28                     ; 0x28 <__rc24>
     f47: a2 81        	ldx	#$81
     f49: 8e 80 d8     	stx	$d880                   ; 0xd880 <end_block9+0x807e>
     f4c: ea           	nop
     f4d: ea           	nop
     f4e: a2 01        	ldx	#$1
     f50: 8e 80 d8     	stx	$d880                   ; 0xd880 <end_block9+0x807e>
     f53: 80 01        	bra	$f56 <f256main+0x6fd>
     f55: ea           	nop
     f56: ad 80 d8     	lda	$d880                   ; 0xd880 <end_block9+0x807e>
     f59: 29 40        	and	#$40
     f5b: f0 f8        	beq	$f55 <f256main+0x6fc>
     f5d: a0 00        	ldy	#$0
     f5f: 84 2a        	sty	$2a                     ; 0x2a <__rc26>
     f61: 98           	tya
     f62: 86 29        	stx	$29                     ; 0x29 <__rc25>
     f64: 20 e9 10     	jsr	$10e9 <checkPads>
     f67: a4 2a        	ldy	$2a                     ; 0x2a <__rc26>
     f69: a6 29        	ldx	$29                     ; 0x29 <__rc25>
     f6b: c8           	iny
     f6c: c0 04        	cpy	#$4
     f6e: d0 ef        	bne	$f5f <f256main+0x706>
     f70: a2 85        	ldx	#$85
     f72: 8e 80 d8     	stx	$d880                   ; 0xd880 <end_block9+0x807e>
     f75: ea           	nop
     f76: ea           	nop
     f77: a2 05        	ldx	#$5
     f79: 8e 80 d8     	stx	$d880                   ; 0xd880 <end_block9+0x807e>
     f7c: 80 01        	bra	$f7f <f256main+0x726>
     f7e: ea           	nop
     f7f: ad 80 d8     	lda	$d880                   ; 0xd880 <end_block9+0x807e>
     f82: 29 40        	and	#$40
     f84: f0 f8        	beq	$f7e <f256main+0x725>
     f86: a0 04        	ldy	#$4
     f88: a2 00        	ldx	#$0
     f8a: 84 29        	sty	$29                     ; 0x29 <__rc25>
     f8c: 98           	tya
     f8d: 20 e9 10     	jsr	$10e9 <checkPads>
     f90: a4 29        	ldy	$29                     ; 0x29 <__rc25>
     f92: c8           	iny
     f93: c0 08        	cpy	#$8
     f95: d0 f1        	bne	$f88 <f256main+0x72f>
     f97: a2 80        	ldx	#$80
     f99: 86 f3        	stx	$f3                     ; 0xf3 <__rc31+0xc4>
     f9b: a2 01        	ldx	#$1
     f9d: 86 12        	stx	$12                     ; 0x12 <__zp_bss_size>
     f9f: a2 58        	ldx	#$58
     fa1: 86 13        	stx	$13                     ; 0x13 <__rc3>
     fa3: 20 f0 ff     	jsr	$fff0 <end_block9+0xa7ee>
     fa6: 92 24        	sta	($24)                   ; 0x24 <__rc20>
     fa8: a9 00        	lda	#$0
     faa: 6a           	ror
     fab: 85 12        	sta	$12                     ; 0x12 <__zp_bss_size>
     fad: 18           	clc
     fae: a9 02        	lda	#$2
     fb0: 72 24        	adc	($24)                   ; 0x24 <__rc20>
     fb2: 85 3b        	sta	$3b                     ; 0x3b <padTimer.1>
     fb4: 64 f3        	stz	$f3                     ; 0xf3 <__rc31+0xc4>
     fb6: a6 3b        	ldx	$3b                     ; 0x3b <padTimer.1>
     fb8: 86 f4        	stx	$f4                     ; 0xf4 <__rc31+0xc5>
     fba: a2 63        	ldx	#$63
     fbc: 86 f5        	stx	$f5                     ; 0xf5 <__rc31+0xc6>
     fbe: 20 f0 ff     	jsr	$fff0 <end_block9+0xa7ee>
     fc1: 92 24        	sta	($24)                   ; 0x24 <__rc20>
     fc3: a9 00        	lda	#$0
     fc5: 6a           	ror
     fc6: 85 12        	sta	$12                     ; 0x12 <__zp_bss_size>
     fc8: a4 28        	ldy	$28                     ; 0x28 <__rc24>
     fca: 64 3c        	stz	$3c                     ; 0x3c <kernelEventData>
     fcc: 20 00 ff     	jsr	$ff00 <end_block9+0xa6fe>
     fcf: 92 24        	sta	($24)                   ; 0x24 <__rc20>
     fd1: a9 00        	lda	#$0
     fd3: 6a           	ror
     fd4: 85 26        	sta	$26                     ; 0x26 <__rc22>
     fd6: a6 3c        	ldx	$3c                     ; 0x3c <kernelEventData>
     fd8: e0 52        	cpx	#$52
     fda: d0 ee        	bne	$fca <f256main+0x771>
     fdc: a6 40        	ldx	$40                     ; 0x40 <kernelEventData+0x4>
     fde: e0 0a        	cpx	#$a
     fe0: 5a           	phy
     fe1: a0 01        	ldy	#$1
     fe3: b0 02        	bcs	$fe7 <f256main+0x78e>
     fe5: a0 00        	ldy	#$0
     fe7: 84 14        	sty	$14                     ; 0x14 <__rc4>
     fe9: 8a           	txa
     fea: 0a           	asl
     feb: 64 12        	stz	$12                     ; 0x12 <__zp_bss_size>
     fed: 26 12        	rol	$12                     ; 0x12 <__zp_bss_size>
     fef: 0a           	asl
     ff0: 26 12        	rol	$12                     ; 0x12 <__zp_bss_size>
     ff2: 0a           	asl
     ff3: 85 13        	sta	$13                     ; 0x13 <__rc3>
     ff5: 26 12        	rol	$12                     ; 0x12 <__zp_bss_size>
     ff7: 0a           	asl
     ff8: a4 12        	ldy	$12                     ; 0x12 <__zp_bss_size>
     ffa: 84 15        	sty	$15                     ; 0x15 <__rc5>
     ffc: 7a           	ply
     ffd: 26 15        	rol	$15                     ; 0x15 <__rc5>
     fff: e6 14        	inc	$14                     ; 0x14 <__rc4>
    1001: c6 14        	dec	$14                     ; 0x14 <__rc4>
    1003: d0 03        	bne	$1008 <f256main+0x7af>
    1005: 4c 66 0d     	jmp	$d66 <f256main+0x50d>
    1008: 85 14        	sta	$14                     ; 0x14 <__rc4>
    100a: 8a           	txa
    100b: 18           	clc
    100c: 69 f6        	adc	#$f6
    100e: c9 0a        	cmp	#$a
    1010: 90 03        	bcc	$1015 <f256main+0x7bc>
    1012: 4c 3c 0f     	jmp	$f3c <f256main+0x6e3>
    1015: a9 00        	lda	#$0
    1017: 85 16        	sta	$16                     ; 0x16 <__rc6>
    1019: a5 14        	lda	$14                     ; 0x14 <__rc4>
    101b: 5a           	phy
    101c: a4 16        	ldy	$16                     ; 0x16 <__rc6>
    101e: c0 01        	cpy	#$1
    1020: 65 13        	adc	$13                     ; 0x13 <__rc3>
    1022: 85 14        	sta	$14                     ; 0x14 <__rc4>
    1024: a5 15        	lda	$15                     ; 0x15 <__rc5>
    1026: 65 12        	adc	$12                     ; 0x12 <__zp_bss_size>
    1028: 85 15        	sta	$15                     ; 0x15 <__rc5>
    102a: a9 21        	lda	#$21
    102c: a4 16        	ldy	$16                     ; 0x16 <__rc6>
    102e: c0 01        	cpy	#$1
    1030: a4 16        	ldy	$16                     ; 0x16 <__rc6>
    1032: 84 1c        	sty	$1c                     ; 0x1c <__rc12>
    1034: 7a           	ply
    1035: 65 14        	adc	$14                     ; 0x14 <__rc4>
    1037: 85 14        	sta	$14                     ; 0x14 <__rc4>
    1039: a9 56        	lda	#$56
    103b: 65 15        	adc	$15                     ; 0x15 <__rc5>
    103d: 85 18        	sta	$18                     ; 0x18 <__rc8>
    103f: a5 14        	lda	$14                     ; 0x14 <__rc4>
    1041: 85 19        	sta	$19                     ; 0x19 <__rc9>
    1043: a5 18        	lda	$18                     ; 0x18 <__rc8>
    1045: 85 15        	sta	$15                     ; 0x15 <__rc5>
    1047: b1 14        	lda	($14),y                 ; 0x14 <__rc4>
    1049: 84 17        	sty	$17                     ; 0x17 <__rc7>
    104b: 85 1d        	sta	$1d                     ; 0x1d <__rc13>
    104d: a8           	tay
    104e: c8           	iny
    104f: 84 16        	sty	$16                     ; 0x16 <__rc6>
    1051: 98           	tya
    1052: a4 17        	ldy	$17                     ; 0x17 <__rc7>
    1054: 91 14        	sta	($14),y                 ; 0x14 <__rc4>
    1056: 18           	clc
    1057: a5 19        	lda	$19                     ; 0x19 <__rc9>
    1059: 69 16        	adc	#$16
    105b: a8           	tay
    105c: a5 18        	lda	$18                     ; 0x18 <__rc8>
    105e: 69 00        	adc	#$0
    1060: 84 18        	sty	$18                     ; 0x18 <__rc8>
    1062: 85 19        	sta	$19                     ; 0x19 <__rc9>
    1064: a0 16        	ldy	#$16
    1066: b1 14        	lda	($14),y                 ; 0x14 <__rc4>
    1068: 85 1a        	sta	$1a                     ; 0x1a <__rc10>
    106a: a0 01        	ldy	#$1
    106c: b1 18        	lda	($18),y                 ; 0x18 <__rc8>
    106e: 85 1b        	sta	$1b                     ; 0x1b <__rc11>
    1070: a0 13        	ldy	#$13
    1072: b1 14        	lda	($14),y                 ; 0x14 <__rc4>
    1074: a8           	tay
    1075: b1 1a        	lda	($1a),y                 ; 0x1a <__rc10>
    1077: c5 16        	cmp	$16                     ; 0x16 <__rc6>
    1079: 90 03        	bcc	$107e <f256main+0x825>
    107b: 4c a6 0d     	jmp	$da6 <f256main+0x54d>
    107e: a4 17        	ldy	$17                     ; 0x17 <__rc7>
    1080: a5 1d        	lda	$1d                     ; 0x1d <__rc13>
    1082: 91 14        	sta	($14),y                 ; 0x14 <__rc4>
    1084: a5 13        	lda	$13                     ; 0x13 <__rc3>
    1086: 18           	clc
    1087: 69 00        	adc	#$0
    1089: 85 13        	sta	$13                     ; 0x13 <__rc3>
    108b: a5 12        	lda	$12                     ; 0x12 <__zp_bss_size>
    108d: 69 d9        	adc	#$d9
    108f: 5a           	phy
    1090: a4 13        	ldy	$13                     ; 0x13 <__rc3>
    1092: 84 12        	sty	$12                     ; 0x12 <__zp_bss_size>
    1094: 7a           	ply
    1095: 85 13        	sta	$13                     ; 0x13 <__rc3>
    1097: bd e1 55     	lda	$55e1,x                 ; 0x55e1 <_spriteCtl>
    109a: 92 12        	sta	($12)                   ; 0x12 <__zp_bss_size>
    109c: a5 40        	lda	$40                     ; 0x40 <kernelEventData+0x4>
    109e: 0a           	asl
    109f: 64 12        	stz	$12                     ; 0x12 <__zp_bss_size>
    10a1: 26 12        	rol	$12                     ; 0x12 <__zp_bss_size>
    10a3: 0a           	asl
    10a4: 26 12        	rol	$12                     ; 0x12 <__zp_bss_size>
    10a6: 0a           	asl
    10a7: 85 13        	sta	$13                     ; 0x13 <__rc3>
    10a9: 26 12        	rol	$12                     ; 0x12 <__zp_bss_size>
    10ab: 0a           	asl
    10ac: a6 12        	ldx	$12                     ; 0x12 <__zp_bss_size>
    10ae: 86 14        	stx	$14                     ; 0x14 <__rc4>
    10b0: 26 14        	rol	$14                     ; 0x14 <__rc4>
    10b2: a6 1c        	ldx	$1c                     ; 0x1c <__rc12>
    10b4: e0 01        	cpx	#$1
    10b6: 65 13        	adc	$13                     ; 0x13 <__rc3>
    10b8: 85 13        	sta	$13                     ; 0x13 <__rc3>
    10ba: a5 14        	lda	$14                     ; 0x14 <__rc4>
    10bc: 65 12        	adc	$12                     ; 0x12 <__zp_bss_size>
    10be: 85 12        	sta	$12                     ; 0x12 <__zp_bss_size>
    10c0: a9 21        	lda	#$21
    10c2: a6 1c        	ldx	$1c                     ; 0x1c <__rc12>
    10c4: e0 01        	cpx	#$1
    10c6: 65 13        	adc	$13                     ; 0x13 <__rc3>
    10c8: aa           	tax
    10c9: a9 56        	lda	#$56
    10cb: 65 12        	adc	$12                     ; 0x12 <__zp_bss_size>
    10cd: 85 13        	sta	$13                     ; 0x13 <__rc3>
    10cf: 18           	clc
    10d0: 8a           	txa
    10d1: 69 15        	adc	#$15
    10d3: 85 12        	sta	$12                     ; 0x12 <__zp_bss_size>
    10d5: a5 13        	lda	$13                     ; 0x13 <__rc3>
    10d7: 69 ff        	adc	#$ff
    10d9: 85 13        	sta	$13                     ; 0x13 <__rc3>
    10db: a9 00        	lda	#$0
    10dd: 92 12        	sta	($12)                   ; 0x12 <__zp_bss_size>
    10df: 4c ca 0f     	jmp	$fca <f256main+0x771>
    10e2: a6 12        	ldx	$12                     ; 0x12 <__zp_bss_size>
    10e4: 86 18        	stx	$18                     ; 0x18 <__rc8>
    10e6: 4c 0c 0c     	jmp	$c0c <f256main+0x3b3>

000010e9 <checkPads>:
    10e9: 48           	pha
    10ea: 18           	clc
    10eb: a5 10        	lda	$10                     ; 0x10 <__rc0>
    10ed: 69 f6        	adc	#$f6
    10ef: 85 10        	sta	$10                     ; 0x10 <__rc0>
    10f1: a5 11        	lda	$11                     ; 0x11 <__rc1>
    10f3: 69 ff        	adc	#$ff
    10f5: 85 11        	sta	$11                     ; 0x11 <__rc1>
    10f7: 68           	pla
    10f8: 85 12        	sta	$12                     ; 0x12 <__zp_bss_size>
    10fa: 86 1e        	stx	$1e                     ; 0x1e <__rc14>
    10fc: 64 13        	stz	$13                     ; 0x13 <__rc3>
    10fe: 85 51        	sta	$51                     ; 0x51 <__rc31+0x22>
    1100: 06 12        	asl	$12                     ; 0x12 <__zp_bss_size>
    1102: 26 13        	rol	$13                     ; 0x13 <__rc3>
    1104: a2 d8        	ldx	#$d8
    1106: a5 1e        	lda	$1e                     ; 0x1e <__rc14>
    1108: f0 04        	beq	$110e <checkPads+0x25>
    110a: a9 84        	lda	#$84
    110c: 80 02        	bra	$1110 <checkPads+0x27>
    110e: a9 7c        	lda	#$7c
    1110: 18           	clc
    1111: 65 12        	adc	$12                     ; 0x12 <__zp_bss_size>
    1113: 85 18        	sta	$18                     ; 0x18 <__rc8>
    1115: 8a           	txa
    1116: 65 13        	adc	$13                     ; 0x13 <__rc3>
    1118: 85 19        	sta	$19                     ; 0x19 <__rc9>
    111a: b2 18        	lda	($18)                   ; 0x18 <__rc8>
    111c: 29 02        	and	#$2
    111e: 06 12        	asl	$12                     ; 0x12 <__zp_bss_size>
    1120: 26 13        	rol	$13                     ; 0x13 <__rc3>
    1122: 06 12        	asl	$12                     ; 0x12 <__zp_bss_size>
    1124: a6 12        	ldx	$12                     ; 0x12 <__zp_bss_size>
    1126: 86 17        	stx	$17                     ; 0x17 <__rc7>
    1128: 26 13        	rol	$13                     ; 0x13 <__rc3>
    112a: a6 13        	ldx	$13                     ; 0x13 <__rc3>
    112c: 86 16        	stx	$16                     ; 0x16 <__rc6>
    112e: 06 12        	asl	$12                     ; 0x12 <__zp_bss_size>
    1130: 26 13        	rol	$13                     ; 0x13 <__rc3>
    1132: a6 13        	ldx	$13                     ; 0x13 <__rc3>
    1134: 86 1b        	stx	$1b                     ; 0x1b <__rc11>
    1136: a6 12        	ldx	$12                     ; 0x12 <__zp_bss_size>
    1138: 86 1d        	stx	$1d                     ; 0x1d <__rc13>
    113a: aa           	tax
    113b: d0 43        	bne	$1180 <checkPads+0x97>
    113d: a5 12        	lda	$12                     ; 0x12 <__zp_bss_size>
    113f: a2 00        	ldx	#$0
    1141: 18           	clc
    1142: 65 17        	adc	$17                     ; 0x17 <__rc7>
    1144: 85 12        	sta	$12                     ; 0x12 <__zp_bss_size>
    1146: a5 13        	lda	$13                     ; 0x13 <__rc3>
    1148: 65 16        	adc	$16                     ; 0x16 <__rc6>
    114a: 85 13        	sta	$13                     ; 0x13 <__rc3>
    114c: a9 21        	lda	#$21
    114e: 18           	clc
    114f: 65 12        	adc	$12                     ; 0x12 <__zp_bss_size>
    1151: 85 12        	sta	$12                     ; 0x12 <__zp_bss_size>
    1153: a9 56        	lda	#$56
    1155: 65 13        	adc	$13                     ; 0x13 <__rc3>
    1157: a8           	tay
    1158: a5 12        	lda	$12                     ; 0x12 <__zp_bss_size>
    115a: 84 13        	sty	$13                     ; 0x13 <__rc3>
    115c: 18           	clc
    115d: 69 0b        	adc	#$b
    115f: 85 14        	sta	$14                     ; 0x14 <__rc4>
    1161: 98           	tya
    1162: 69 00        	adc	#$0
    1164: 85 15        	sta	$15                     ; 0x15 <__rc5>
    1166: a0 0b        	ldy	#$b
    1168: a9 ff        	lda	#$ff
    116a: 91 12        	sta	($12),y                 ; 0x12 <__zp_bss_size>
    116c: a0 01        	ldy	#$1
    116e: 91 14        	sta	($14),y                 ; 0x14 <__rc4>
    1170: a0 13        	ldy	#$13
    1172: a9 03        	lda	#$3
    1174: 91 12        	sta	($12),y                 ; 0x12 <__zp_bss_size>
    1176: a0 04        	ldy	#$4
    1178: 8a           	txa
    1179: 91 12        	sta	($12),y                 ; 0x12 <__zp_bss_size>
    117b: a0 01        	ldy	#$1
    117d: 4c d3 11     	jmp	$11d3 <checkPads+0xea>
    1180: a5 12        	lda	$12                     ; 0x12 <__zp_bss_size>
    1182: a2 00        	ldx	#$0
    1184: 18           	clc
    1185: 65 17        	adc	$17                     ; 0x17 <__rc7>
    1187: 85 12        	sta	$12                     ; 0x12 <__zp_bss_size>
    1189: a5 13        	lda	$13                     ; 0x13 <__rc3>
    118b: 65 16        	adc	$16                     ; 0x16 <__rc6>
    118d: 85 13        	sta	$13                     ; 0x13 <__rc3>
    118f: a9 21        	lda	#$21
    1191: 18           	clc
    1192: 65 12        	adc	$12                     ; 0x12 <__zp_bss_size>
    1194: aa           	tax
    1195: a9 56        	lda	#$56
    1197: 65 13        	adc	$13                     ; 0x13 <__rc3>
    1199: 85 13        	sta	$13                     ; 0x13 <__rc3>
    119b: b2 18        	lda	($18)                   ; 0x18 <__rc8>
    119d: 29 01        	and	#$1
    119f: 86 14        	stx	$14                     ; 0x14 <__rc4>
    11a1: 86 12        	stx	$12                     ; 0x12 <__zp_bss_size>
    11a3: a6 13        	ldx	$13                     ; 0x13 <__rc3>
    11a5: 86 15        	stx	$15                     ; 0x15 <__rc5>
    11a7: a8           	tay
    11a8: d0 2d        	bne	$11d7 <checkPads+0xee>
    11aa: a0 0b        	ldy	#$b
    11ac: a2 00        	ldx	#$0
    11ae: 18           	clc
    11af: a5 14        	lda	$14                     ; 0x14 <__rc4>
    11b1: 69 0b        	adc	#$b
    11b3: 85 14        	sta	$14                     ; 0x14 <__rc4>
    11b5: a5 15        	lda	$15                     ; 0x15 <__rc5>
    11b7: 69 00        	adc	#$0
    11b9: 85 15        	sta	$15                     ; 0x15 <__rc5>
    11bb: a9 01        	lda	#$1
    11bd: 91 12        	sta	($12),y                 ; 0x12 <__zp_bss_size>
    11bf: a8           	tay
    11c0: 84 1a        	sty	$1a                     ; 0x1a <__rc10>
    11c2: 8a           	txa
    11c3: 91 14        	sta	($14),y                 ; 0x14 <__rc4>
    11c5: a0 13        	ldy	#$13
    11c7: a9 02        	lda	#$2
    11c9: 91 12        	sta	($12),y                 ; 0x12 <__zp_bss_size>
    11cb: a0 04        	ldy	#$4
    11cd: a5 1a        	lda	$1a                     ; 0x1a <__rc10>
    11cf: 91 12        	sta	($12),y                 ; 0x12 <__zp_bss_size>
    11d1: a0 00        	ldy	#$0
    11d3: 84 4e        	sty	$4e                     ; 0x4e <__rc31+0x1f>
    11d5: 80 39        	bra	$1210 <checkPads+0x127>
    11d7: 86 1a        	stx	$1a                     ; 0x1a <__rc10>
    11d9: a0 04        	ldy	#$4
    11db: b1 12        	lda	($12),y                 ; 0x12 <__zp_bss_size>
    11dd: a0 01        	ldy	#$1
    11df: aa           	tax
    11e0: f0 02        	beq	$11e4 <checkPads+0xfb>
    11e2: a0 00        	ldy	#$0
    11e4: a2 01        	ldx	#$1
    11e6: 86 15        	stx	$15                     ; 0x15 <__rc5>
    11e8: a6 1a        	ldx	$1a                     ; 0x1a <__rc10>
    11ea: a5 15        	lda	$15                     ; 0x15 <__rc5>
    11ec: c0 00        	cpy	#$0
    11ee: d0 02        	bne	$11f2 <checkPads+0x109>
    11f0: a9 00        	lda	#$0
    11f2: 84 4e        	sty	$4e                     ; 0x4e <__rc31+0x1f>
    11f4: a0 13        	ldy	#$13
    11f6: 91 12        	sta	($12),y                 ; 0x12 <__zp_bss_size>
    11f8: a5 14        	lda	$14                     ; 0x14 <__rc4>
    11fa: 18           	clc
    11fb: 69 0b        	adc	#$b
    11fd: 85 14        	sta	$14                     ; 0x14 <__rc4>
    11ff: 8a           	txa
    1200: 69 00        	adc	#$0
    1202: 85 15        	sta	$15                     ; 0x15 <__rc5>
    1204: a0 0b        	ldy	#$b
    1206: a9 00        	lda	#$0
    1208: 91 12        	sta	($12),y                 ; 0x12 <__zp_bss_size>
    120a: a0 01        	ldy	#$1
    120c: 91 14        	sta	($14),y                 ; 0x14 <__rc4>
    120e: a2 01        	ldx	#$1
    1210: b2 18        	lda	($18)                   ; 0x18 <__rc8>
    1212: 29 08        	and	#$8
    1214: d0 3c        	bne	$1252 <checkPads+0x169>
    1216: 18           	clc
    1217: a5 1d        	lda	$1d                     ; 0x1d <__rc13>
    1219: 65 17        	adc	$17                     ; 0x17 <__rc7>
    121b: a0 00        	ldy	#$0
    121d: 84 14        	sty	$14                     ; 0x14 <__rc4>
    121f: 85 12        	sta	$12                     ; 0x12 <__zp_bss_size>
    1221: a5 1b        	lda	$1b                     ; 0x1b <__rc11>
    1223: 65 16        	adc	$16                     ; 0x16 <__rc6>
    1225: 85 13        	sta	$13                     ; 0x13 <__rc3>
    1227: a9 21        	lda	#$21
    1229: 18           	clc
    122a: 65 12        	adc	$12                     ; 0x12 <__zp_bss_size>
    122c: 85 12        	sta	$12                     ; 0x12 <__zp_bss_size>
    122e: a9 56        	lda	#$56
    1230: 65 13        	adc	$13                     ; 0x13 <__rc3>
    1232: a8           	tay
    1233: a5 12        	lda	$12                     ; 0x12 <__zp_bss_size>
    1235: 84 13        	sty	$13                     ; 0x13 <__rc3>
    1237: 48           	pha
    1238: a5 14        	lda	$14                     ; 0x14 <__rc4>
    123a: c9 01        	cmp	#$1
    123c: 68           	pla
    123d: 69 0d        	adc	#$d
    123f: 85 14        	sta	$14                     ; 0x14 <__rc4>
    1241: 98           	tya
    1242: 69 00        	adc	#$0
    1244: 85 15        	sta	$15                     ; 0x15 <__rc5>
    1246: a0 0d        	ldy	#$d
    1248: a9 ff        	lda	#$ff
    124a: 91 12        	sta	($12),y                 ; 0x12 <__zp_bss_size>
    124c: a0 01        	ldy	#$1
    124e: 91 14        	sta	($14),y                 ; 0x14 <__rc4>
    1250: 80 4a        	bra	$129c <checkPads+0x1b3>
    1252: 18           	clc
    1253: a5 1d        	lda	$1d                     ; 0x1d <__rc13>
    1255: 65 17        	adc	$17                     ; 0x17 <__rc7>
    1257: a0 00        	ldy	#$0
    1259: 85 12        	sta	$12                     ; 0x12 <__zp_bss_size>
    125b: a5 1b        	lda	$1b                     ; 0x1b <__rc11>
    125d: 65 16        	adc	$16                     ; 0x16 <__rc6>
    125f: 85 13        	sta	$13                     ; 0x13 <__rc3>
    1261: a9 21        	lda	#$21
    1263: 18           	clc
    1264: 65 12        	adc	$12                     ; 0x12 <__zp_bss_size>
    1266: a8           	tay
    1267: a9 56        	lda	#$56
    1269: 65 13        	adc	$13                     ; 0x13 <__rc3>
    126b: 85 12        	sta	$12                     ; 0x12 <__zp_bss_size>
    126d: b2 18        	lda	($18)                   ; 0x18 <__rc8>
    126f: 29 04        	and	#$4
    1271: 84 13        	sty	$13                     ; 0x13 <__rc3>
    1273: 84 14        	sty	$14                     ; 0x14 <__rc4>
    1275: a4 12        	ldy	$12                     ; 0x12 <__zp_bss_size>
    1277: 84 15        	sty	$15                     ; 0x15 <__rc5>
    1279: a8           	tay
    127a: f0 03        	beq	$127f <checkPads+0x196>
    127c: 4c e7 12     	jmp	$12e7 <checkPads+0x1fe>
    127f: a0 0d        	ldy	#$d
    1281: 18           	clc
    1282: a5 13        	lda	$13                     ; 0x13 <__rc3>
    1284: 69 0d        	adc	#$d
    1286: 85 13        	sta	$13                     ; 0x13 <__rc3>
    1288: a5 12        	lda	$12                     ; 0x12 <__zp_bss_size>
    128a: 69 00        	adc	#$0
    128c: 5a           	phy
    128d: a4 13        	ldy	$13                     ; 0x13 <__rc3>
    128f: 84 12        	sty	$12                     ; 0x12 <__zp_bss_size>
    1291: 7a           	ply
    1292: 85 13        	sta	$13                     ; 0x13 <__rc3>
    1294: a9 01        	lda	#$1
    1296: 91 14        	sta	($14),y                 ; 0x14 <__rc4>
    1298: a8           	tay
    1299: 3a           	dec
    129a: 91 12        	sta	($12),y                 ; 0x12 <__zp_bss_size>
    129c: 18           	clc
    129d: a5 1d        	lda	$1d                     ; 0x1d <__rc13>
    129f: 65 17        	adc	$17                     ; 0x17 <__rc7>
    12a1: a0 00        	ldy	#$0
    12a3: 85 12        	sta	$12                     ; 0x12 <__zp_bss_size>
    12a5: a5 1b        	lda	$1b                     ; 0x1b <__rc11>
    12a7: 65 16        	adc	$16                     ; 0x16 <__rc6>
    12a9: 85 13        	sta	$13                     ; 0x13 <__rc3>
    12ab: 84 1c        	sty	$1c                     ; 0x1c <__rc12>
    12ad: 18           	clc
    12ae: a9 21        	lda	#$21
    12b0: 65 12        	adc	$12                     ; 0x12 <__zp_bss_size>
    12b2: a8           	tay
    12b3: a9 56        	lda	#$56
    12b5: 65 13        	adc	$13                     ; 0x13 <__rc3>
    12b7: 84 13        	sty	$13                     ; 0x13 <__rc3>
    12b9: 84 14        	sty	$14                     ; 0x14 <__rc4>
    12bb: 85 12        	sta	$12                     ; 0x12 <__zp_bss_size>
    12bd: 85 15        	sta	$15                     ; 0x15 <__rc5>
    12bf: a9 03        	lda	#$3
    12c1: a4 4e        	ldy	$4e                     ; 0x4e <__rc31+0x1f>
    12c3: d0 02        	bne	$12c7 <checkPads+0x1de>
    12c5: a9 02        	lda	#$2
    12c7: a0 13        	ldy	#$13
    12c9: 91 14        	sta	($14),y                 ; 0x14 <__rc4>
    12cb: 18           	clc
    12cc: a5 13        	lda	$13                     ; 0x13 <__rc3>
    12ce: 69 0b        	adc	#$b
    12d0: a8           	tay
    12d1: a5 12        	lda	$12                     ; 0x12 <__zp_bss_size>
    12d3: 69 00        	adc	#$0
    12d5: 84 12        	sty	$12                     ; 0x12 <__zp_bss_size>
    12d7: 85 13        	sta	$13                     ; 0x13 <__rc3>
    12d9: 8a           	txa
    12da: f0 03        	beq	$12df <checkPads+0x1f6>
    12dc: 4c 4c 13     	jmp	$134c <checkPads+0x263>
    12df: a5 1e        	lda	$1e                     ; 0x1e <__rc14>
    12e1: f0 3f        	beq	$1322 <checkPads+0x239>
    12e3: a2 40        	ldx	#$40
    12e5: 80 3d        	bra	$1324 <checkPads+0x23b>
    12e7: a5 13        	lda	$13                     ; 0x13 <__rc3>
    12e9: a4 13        	ldy	$13                     ; 0x13 <__rc3>
    12eb: 84 1a        	sty	$1a                     ; 0x1a <__rc10>
    12ed: 18           	clc
    12ee: 69 0d        	adc	#$d
    12f0: 85 1f        	sta	$1f                     ; 0x1f <__rc15>
    12f2: a5 12        	lda	$12                     ; 0x12 <__zp_bss_size>
    12f4: a4 12        	ldy	$12                     ; 0x12 <__zp_bss_size>
    12f6: 84 1c        	sty	$1c                     ; 0x1c <__rc12>
    12f8: 69 00        	adc	#$0
    12fa: a4 1f        	ldy	$1f                     ; 0x1f <__rc15>
    12fc: 84 12        	sty	$12                     ; 0x12 <__zp_bss_size>
    12fe: a0 0d        	ldy	#$d
    1300: 85 13        	sta	$13                     ; 0x13 <__rc3>
    1302: a9 00        	lda	#$0
    1304: 91 14        	sta	($14),y                 ; 0x14 <__rc4>
    1306: a0 01        	ldy	#$1
    1308: 91 12        	sta	($12),y                 ; 0x12 <__zp_bss_size>
    130a: 18           	clc
    130b: a5 1a        	lda	$1a                     ; 0x1a <__rc10>
    130d: 69 0b        	adc	#$b
    130f: 85 12        	sta	$12                     ; 0x12 <__zp_bss_size>
    1311: a5 1c        	lda	$1c                     ; 0x1c <__rc12>
    1313: 69 00        	adc	#$0
    1315: 85 13        	sta	$13                     ; 0x13 <__rc3>
    1317: 8a           	txa
    1318: f0 1c        	beq	$1336 <checkPads+0x24d>
    131a: a5 4e        	lda	$4e                     ; 0x4e <__rc31+0x1f>
    131c: f0 24        	beq	$1342 <checkPads+0x259>
    131e: a9 01        	lda	#$1
    1320: 80 22        	bra	$1344 <checkPads+0x25b>
    1322: a2 80        	ldx	#$80
    1324: 86 1a        	stx	$1a                     ; 0x1a <__rc10>
    1326: b2 18        	lda	($18)                   ; 0x18 <__rc8>
    1328: 25 1a        	and	$1a                     ; 0x1a <__rc10>
    132a: f0 03        	beq	$132f <checkPads+0x246>
    132c: 4c f2 16     	jmp	$16f2 <checkPads+0x609>
    132f: 64 18        	stz	$18                     ; 0x18 <__rc8>
    1331: a2 11        	ldx	#$11
    1333: 4c cd 13     	jmp	$13cd <checkPads+0x2e4>
    1336: a5 1e        	lda	$1e                     ; 0x1e <__rc14>
    1338: d0 03        	bne	$133d <checkPads+0x254>
    133a: 4c bc 13     	jmp	$13bc <checkPads+0x2d3>
    133d: a2 40        	ldx	#$40
    133f: 4c be 13     	jmp	$13be <checkPads+0x2d5>
    1342: a9 00        	lda	#$0
    1344: a0 13        	ldy	#$13
    1346: 91 14        	sta	($14),y                 ; 0x14 <__rc4>
    1348: a2 01        	ldx	#$1
    134a: 86 1c        	stx	$1c                     ; 0x1c <__rc12>
    134c: a5 1e        	lda	$1e                     ; 0x1e <__rc14>
    134e: f0 04        	beq	$1354 <checkPads+0x26b>
    1350: a2 40        	ldx	#$40
    1352: 80 02        	bra	$1356 <checkPads+0x26d>
    1354: a2 80        	ldx	#$80
    1356: 86 1a        	stx	$1a                     ; 0x1a <__rc10>
    1358: b2 18        	lda	($18)                   ; 0x18 <__rc8>
    135a: 25 1a        	and	$1a                     ; 0x1a <__rc10>
    135c: f0 03        	beq	$1361 <checkPads+0x278>
    135e: 4c f2 16     	jmp	$16f2 <checkPads+0x609>
    1361: 18           	clc
    1362: a5 1d        	lda	$1d                     ; 0x1d <__rc13>
    1364: 65 17        	adc	$17                     ; 0x17 <__rc7>
    1366: a2 00        	ldx	#$0
    1368: 85 17        	sta	$17                     ; 0x17 <__rc7>
    136a: a5 1b        	lda	$1b                     ; 0x1b <__rc11>
    136c: 65 16        	adc	$16                     ; 0x16 <__rc6>
    136e: 85 16        	sta	$16                     ; 0x16 <__rc6>
    1370: a9 21        	lda	#$21
    1372: 18           	clc
    1373: 65 17        	adc	$17                     ; 0x17 <__rc7>
    1375: a8           	tay
    1376: a9 56        	lda	#$56
    1378: 65 16        	adc	$16                     ; 0x16 <__rc6>
    137a: 84 18        	sty	$18                     ; 0x18 <__rc8>
    137c: 84 16        	sty	$16                     ; 0x16 <__rc6>
    137e: 85 19        	sta	$19                     ; 0x19 <__rc9>
    1380: 85 17        	sta	$17                     ; 0x17 <__rc7>
    1382: a0 05        	ldy	#$5
    1384: b1 16        	lda	($16),y                 ; 0x16 <__rc6>
    1386: e8           	inx
    1387: a8           	tay
    1388: f0 02        	beq	$138c <checkPads+0x2a3>
    138a: a2 00        	ldx	#$0
    138c: a0 01        	ldy	#$1
    138e: a9 00        	lda	#$0
    1390: e0 00        	cpx	#$0
    1392: d0 02        	bne	$1396 <checkPads+0x2ad>
    1394: a9 01        	lda	#$1
    1396: 84 16        	sty	$16                     ; 0x16 <__rc6>
    1398: a6 1c        	ldx	$1c                     ; 0x1c <__rc12>
    139a: d0 02        	bne	$139e <checkPads+0x2b5>
    139c: 64 16        	stz	$16                     ; 0x16 <__rc6>
    139e: 05 16        	ora	$16                     ; 0x16 <__rc6>
    13a0: 29 01        	and	#$1
    13a2: f0 03        	beq	$13a7 <checkPads+0x2be>
    13a4: 4c f2 16     	jmp	$16f2 <checkPads+0x609>
    13a7: 18           	clc
    13a8: a5 18        	lda	$18                     ; 0x18 <__rc8>
    13aa: 69 05        	adc	#$5
    13ac: 85 16        	sta	$16                     ; 0x16 <__rc6>
    13ae: a5 19        	lda	$19                     ; 0x19 <__rc9>
    13b0: 69 00        	adc	#$0
    13b2: 85 17        	sta	$17                     ; 0x17 <__rc7>
    13b4: a2 18        	ldx	#$18
    13b6: 86 48        	stx	$48                     ; 0x48 <__rc31+0x19>
    13b8: 64 18        	stz	$18                     ; 0x18 <__rc8>
    13ba: 80 4e        	bra	$140a <checkPads+0x321>
    13bc: a2 80        	ldx	#$80
    13be: 86 1a        	stx	$1a                     ; 0x1a <__rc10>
    13c0: b2 18        	lda	($18)                   ; 0x18 <__rc8>
    13c2: 25 1a        	and	$1a                     ; 0x1a <__rc10>
    13c4: f0 03        	beq	$13c9 <checkPads+0x2e0>
    13c6: 4c f2 16     	jmp	$16f2 <checkPads+0x609>
    13c9: 64 18        	stz	$18                     ; 0x18 <__rc8>
    13cb: a2 18        	ldx	#$18
    13cd: 18           	clc
    13ce: a5 1d        	lda	$1d                     ; 0x1d <__rc13>
    13d0: 65 17        	adc	$17                     ; 0x17 <__rc7>
    13d2: a0 00        	ldy	#$0
    13d4: 85 17        	sta	$17                     ; 0x17 <__rc7>
    13d6: a5 1b        	lda	$1b                     ; 0x1b <__rc11>
    13d8: 65 16        	adc	$16                     ; 0x16 <__rc6>
    13da: 85 16        	sta	$16                     ; 0x16 <__rc6>
    13dc: a9 21        	lda	#$21
    13de: 18           	clc
    13df: 65 17        	adc	$17                     ; 0x17 <__rc7>
    13e1: 85 17        	sta	$17                     ; 0x17 <__rc7>
    13e3: a9 56        	lda	#$56
    13e5: 65 16        	adc	$16                     ; 0x16 <__rc6>
    13e7: a8           	tay
    13e8: a5 17        	lda	$17                     ; 0x17 <__rc7>
    13ea: 85 19        	sta	$19                     ; 0x19 <__rc9>
    13ec: 85 16        	sta	$16                     ; 0x16 <__rc6>
    13ee: 84 1a        	sty	$1a                     ; 0x1a <__rc10>
    13f0: 84 17        	sty	$17                     ; 0x17 <__rc7>
    13f2: a0 05        	ldy	#$5
    13f4: b1 16        	lda	($16),y                 ; 0x16 <__rc6>
    13f6: f0 03        	beq	$13fb <checkPads+0x312>
    13f8: 4c f2 16     	jmp	$16f2 <checkPads+0x609>
    13fb: 86 48        	stx	$48                     ; 0x48 <__rc31+0x19>
    13fd: 18           	clc
    13fe: a5 19        	lda	$19                     ; 0x19 <__rc9>
    1400: 69 05        	adc	#$5
    1402: 85 16        	sta	$16                     ; 0x16 <__rc6>
    1404: a5 1a        	lda	$1a                     ; 0x1a <__rc10>
    1406: 69 00        	adc	#$0
    1408: 85 17        	sta	$17                     ; 0x17 <__rc7>
    140a: a9 01        	lda	#$1
    140c: 92 16        	sta	($16)                   ; 0x16 <__rc6>
    140e: a0 05        	ldy	#$5
    1410: a5 4e        	lda	$4e                     ; 0x4e <__rc31+0x1f>
    1412: d0 02        	bne	$1416 <checkPads+0x32d>
    1414: a0 04        	ldy	#$4
    1416: a6 51        	ldx	$51                     ; 0x51 <__rc31+0x22>
    1418: 8a           	txa
    1419: 18           	clc
    141a: 69 0a        	adc	#$a
    141c: 85 1c        	sta	$1c                     ; 0x1c <__rc12>
    141e: 84 1b        	sty	$1b                     ; 0x1b <__rc11>
    1420: a9 00        	lda	#$0
    1422: 69 00        	adc	#$0
    1424: a6 1c        	ldx	$1c                     ; 0x1c <__rc12>
    1426: 86 16        	stx	$16                     ; 0x16 <__rc6>
    1428: 06 16        	asl	$16                     ; 0x16 <__rc6>
    142a: 2a           	rol
    142b: 06 16        	asl	$16                     ; 0x16 <__rc6>
    142d: 2a           	rol
    142e: 06 16        	asl	$16                     ; 0x16 <__rc6>
    1430: 2a           	rol
    1431: 85 17        	sta	$17                     ; 0x17 <__rc7>
    1433: a5 16        	lda	$16                     ; 0x16 <__rc6>
    1435: 0a           	asl
    1436: a6 17        	ldx	$17                     ; 0x17 <__rc7>
    1438: 86 19        	stx	$19                     ; 0x19 <__rc9>
    143a: 26 19        	rol	$19                     ; 0x19 <__rc9>
    143c: 18           	clc
    143d: 65 16        	adc	$16                     ; 0x16 <__rc6>
    143f: 85 16        	sta	$16                     ; 0x16 <__rc6>
    1441: a5 19        	lda	$19                     ; 0x19 <__rc9>
    1443: 65 17        	adc	$17                     ; 0x17 <__rc7>
    1445: 85 17        	sta	$17                     ; 0x17 <__rc7>
    1447: a9 21        	lda	#$21
    1449: 18           	clc
    144a: 65 16        	adc	$16                     ; 0x16 <__rc6>
    144c: 85 1e        	sta	$1e                     ; 0x1e <__rc14>
    144e: a9 56        	lda	#$56
    1450: 65 17        	adc	$17                     ; 0x17 <__rc7>
    1452: 85 19        	sta	$19                     ; 0x19 <__rc9>
    1454: a5 14        	lda	$14                     ; 0x14 <__rc4>
    1456: 18           	clc
    1457: 69 02        	adc	#$2
    1459: 85 1a        	sta	$1a                     ; 0x1a <__rc10>
    145b: a5 15        	lda	$15                     ; 0x15 <__rc5>
    145d: 69 00        	adc	#$0
    145f: 85 16        	sta	$16                     ; 0x16 <__rc6>
    1461: a0 13        	ldy	#$13
    1463: a6 1b        	ldx	$1b                     ; 0x1b <__rc11>
    1465: 86 58        	stx	$58                     ; 0x58 <__rc31+0x29>
    1467: a5 1b        	lda	$1b                     ; 0x1b <__rc11>
    1469: 91 14        	sta	($14),y                 ; 0x14 <__rc4>
    146b: a6 16        	ldx	$16                     ; 0x16 <__rc6>
    146d: 86 1b        	stx	$1b                     ; 0x1b <__rc11>
    146f: b2 14        	lda	($14)                   ; 0x14 <__rc4>
    1471: aa           	tax
    1472: a4 1e        	ldy	$1e                     ; 0x1e <__rc14>
    1474: 84 16        	sty	$16                     ; 0x16 <__rc6>
    1476: a4 19        	ldy	$19                     ; 0x19 <__rc9>
    1478: 84 17        	sty	$17                     ; 0x17 <__rc7>
    147a: a0 01        	ldy	#$1
    147c: b1 14        	lda	($14),y                 ; 0x14 <__rc4>
    147e: 85 1d        	sta	$1d                     ; 0x1d <__rc13>
    1480: 86 1f        	stx	$1f                     ; 0x1f <__rc15>
    1482: 8a           	txa
    1483: 92 16        	sta	($16)                   ; 0x16 <__rc6>
    1485: a5 1d        	lda	$1d                     ; 0x1d <__rc13>
    1487: 85 22        	sta	$22                     ; 0x22 <__rc18>
    1489: 91 16        	sta	($16),y                 ; 0x16 <__rc6>
    148b: a2 01        	ldx	#$1
    148d: 86 23        	stx	$23                     ; 0x23 <__rc19>
    148f: c8           	iny
    1490: b1 14        	lda	($14),y                 ; 0x14 <__rc4>
    1492: 85 1d        	sta	$1d                     ; 0x1d <__rc13>
    1494: e8           	inx
    1495: 86 49        	stx	$49                     ; 0x49 <__rc31+0x1a>
    1497: a4 23        	ldy	$23                     ; 0x23 <__rc19>
    1499: b1 1a        	lda	($1a),y                 ; 0x1a <__rc10>
    149b: 84 4a        	sty	$4a                     ; 0x4a <__rc31+0x1b>
    149d: 85 23        	sta	$23                     ; 0x23 <__rc19>
    149f: a6 1d        	ldx	$1d                     ; 0x1d <__rc13>
    14a1: e8           	inx
    14a2: d0 02        	bne	$14a6 <checkPads+0x3bd>
    14a4: e6 23        	inc	$23                     ; 0x23 <__rc19>
    14a6: 86 1d        	stx	$1d                     ; 0x1d <__rc13>
    14a8: 8a           	txa
    14a9: a4 49        	ldy	$49                     ; 0x49 <__rc31+0x1a>
    14ab: 91 16        	sta	($16),y                 ; 0x16 <__rc6>
    14ad: a5 1e        	lda	$1e                     ; 0x1e <__rc14>
    14af: a6 1e        	ldx	$1e                     ; 0x1e <__rc14>
    14b1: 86 5a        	stx	$5a                     ; 0x5a <__rc31+0x2b>
    14b3: 18           	clc
    14b4: 69 02        	adc	#$2
    14b6: 85 1a        	sta	$1a                     ; 0x1a <__rc10>
    14b8: a5 19        	lda	$19                     ; 0x19 <__rc9>
    14ba: a6 19        	ldx	$19                     ; 0x19 <__rc9>
    14bc: 86 59        	stx	$59                     ; 0x59 <__rc31+0x2a>
    14be: 69 00        	adc	#$0
    14c0: 85 1b        	sta	$1b                     ; 0x1b <__rc11>
    14c2: a5 23        	lda	$23                     ; 0x23 <__rc19>
    14c4: 85 1e        	sta	$1e                     ; 0x1e <__rc14>
    14c6: a4 4a        	ldy	$4a                     ; 0x4a <__rc31+0x1b>
    14c8: 91 1a        	sta	($1a),y                 ; 0x1a <__rc10>
    14ca: a5 4a        	lda	$4a                     ; 0x4a <__rc31+0x1b>
    14cc: a6 1c        	ldx	$1c                     ; 0x1c <__rc12>
    14ce: a4 4e        	ldy	$4e                     ; 0x4e <__rc31+0x1f>
    14d0: d0 02        	bne	$14d4 <checkPads+0x3eb>
    14d2: a9 00        	lda	#$0
    14d4: a4 14        	ldy	$14                     ; 0x14 <__rc4>
    14d6: 84 52        	sty	$52                     ; 0x52 <__rc31+0x23>
    14d8: a4 15        	ldy	$15                     ; 0x15 <__rc5>
    14da: 84 53        	sty	$53                     ; 0x53 <__rc31+0x24>
    14dc: a0 13        	ldy	#$13
    14de: 91 16        	sta	($16),y                 ; 0x16 <__rc6>
    14e0: a9 04        	lda	#$4
    14e2: a4 4e        	ldy	$4e                     ; 0x4e <__rc31+0x1f>
    14e4: d0 02        	bne	$14e8 <checkPads+0x3ff>
    14e6: a9 00        	lda	#$0
    14e8: a0 0a        	ldy	#$a
    14ea: 91 16        	sta	($16),y                 ; 0x16 <__rc6>
    14ec: a5 1c        	lda	$1c                     ; 0x1c <__rc12>
    14ee: 0a           	asl
    14ef: 64 1a        	stz	$1a                     ; 0x1a <__rc10>
    14f1: 26 1a        	rol	$1a                     ; 0x1a <__rc10>
    14f3: 0a           	asl
    14f4: 26 1a        	rol	$1a                     ; 0x1a <__rc10>
    14f6: 0a           	asl
    14f7: 26 1a        	rol	$1a                     ; 0x1a <__rc10>
    14f9: 18           	clc
    14fa: 85 1b        	sta	$1b                     ; 0x1b <__rc11>
    14fc: 69 04        	adc	#$4
    14fe: 85 14        	sta	$14                     ; 0x14 <__rc4>
    1500: a5 1a        	lda	$1a                     ; 0x1a <__rc10>
    1502: 69 d9        	adc	#$d9
    1504: 85 15        	sta	$15                     ; 0x15 <__rc5>
    1506: a5 1f        	lda	$1f                     ; 0x1f <__rc15>
    1508: 92 14        	sta	($14)                   ; 0x14 <__rc4>
    150a: a0 01        	ldy	#$1
    150c: a5 22        	lda	$22                     ; 0x22 <__rc18>
    150e: 91 14        	sta	($14),y                 ; 0x14 <__rc4>
    1510: 18           	clc
    1511: a5 1b        	lda	$1b                     ; 0x1b <__rc11>
    1513: 69 06        	adc	#$6
    1515: 85 19        	sta	$19                     ; 0x19 <__rc9>
    1517: a5 1a        	lda	$1a                     ; 0x1a <__rc10>
    1519: 69 d9        	adc	#$d9
    151b: 5a           	phy
    151c: a4 19        	ldy	$19                     ; 0x19 <__rc9>
    151e: 84 14        	sty	$14                     ; 0x14 <__rc4>
    1520: 7a           	ply
    1521: 85 15        	sta	$15                     ; 0x15 <__rc5>
    1523: a5 1d        	lda	$1d                     ; 0x1d <__rc13>
    1525: 92 14        	sta	($14)                   ; 0x14 <__rc4>
    1527: a5 1e        	lda	$1e                     ; 0x1e <__rc14>
    1529: 91 14        	sta	($14),y                 ; 0x14 <__rc4>
    152b: 84 19        	sty	$19                     ; 0x19 <__rc9>
    152d: 18           	clc
    152e: a5 1b        	lda	$1b                     ; 0x1b <__rc11>
    1530: 69 00        	adc	#$0
    1532: 85 14        	sta	$14                     ; 0x14 <__rc4>
    1534: a5 1a        	lda	$1a                     ; 0x1a <__rc10>
    1536: 69 d9        	adc	#$d9
    1538: 85 15        	sta	$15                     ; 0x15 <__rc5>
    153a: a9 01        	lda	#$1
    153c: 1d e1 55     	ora	$55e1,x                 ; 0x55e1 <_spriteCtl>
    153f: 92 14        	sta	($14)                   ; 0x14 <__rc4>
    1541: a2 80        	ldx	#$80
    1543: 86 f3        	stx	$f3                     ; 0xf3 <__rc31+0xc4>
    1545: a2 50        	ldx	#$50
    1547: a0 00        	ldy	#$0
    1549: 86 14        	stx	$14                     ; 0x14 <__rc4>
    154b: 84 15        	sty	$15                     ; 0x15 <__rc5>
    154d: a2 01        	ldx	#$1
    154f: 86 1a        	stx	$1a                     ; 0x1a <__rc10>
    1551: a2 58        	ldx	#$58
    1553: 86 1b        	stx	$1b                     ; 0x1b <__rc11>
    1555: 20 f0 ff     	jsr	$fff0 <end_block9+0xa7ee>
    1558: 92 14        	sta	($14)                   ; 0x14 <__rc4>
    155a: a9 00        	lda	#$0
    155c: 6a           	ror
    155d: 85 1a        	sta	$1a                     ; 0x1a <__rc10>
    155f: a2 08        	ldx	#$8
    1561: 18           	clc
    1562: 8a           	txa
    1563: 65 50        	adc	$50                     ; 0x50 <__rc31+0x21>
    1565: 85 15        	sta	$15                     ; 0x15 <__rc5>
    1567: a0 0f        	ldy	#$f
    1569: b1 16        	lda	($16),y                 ; 0x16 <__rc6>
    156b: 85 14        	sta	$14                     ; 0x14 <__rc4>
    156d: c8           	iny
    156e: a5 15        	lda	$15                     ; 0x15 <__rc5>
    1570: 91 16        	sta	($16),y                 ; 0x16 <__rc6>
    1572: a6 14        	ldx	$14                     ; 0x14 <__rc4>
    1574: 86 f3        	stx	$f3                     ; 0xf3 <__rc31+0xc4>
    1576: b1 16        	lda	($16),y                 ; 0x16 <__rc6>
    1578: 85 f4        	sta	$f4                     ; 0xf4 <__rc31+0xc5>
    157a: c8           	iny
    157b: a6 16        	ldx	$16                     ; 0x16 <__rc6>
    157d: 86 14        	stx	$14                     ; 0x14 <__rc4>
    157f: a6 17        	ldx	$17                     ; 0x17 <__rc7>
    1581: 86 15        	stx	$15                     ; 0x15 <__rc5>
    1583: a6 14        	ldx	$14                     ; 0x14 <__rc4>
    1585: 86 54        	stx	$54                     ; 0x54 <__rc31+0x25>
    1587: a6 15        	ldx	$15                     ; 0x15 <__rc5>
    1589: 86 55        	stx	$55                     ; 0x55 <__rc31+0x26>
    158b: b1 16        	lda	($16),y                 ; 0x16 <__rc6>
    158d: 85 f5        	sta	$f5                     ; 0xf5 <__rc31+0xc6>
    158f: a2 4f        	ldx	#$4f
    1591: 86 14        	stx	$14                     ; 0x14 <__rc4>
    1593: a2 00        	ldx	#$0
    1595: 86 15        	stx	$15                     ; 0x15 <__rc5>
    1597: 20 f0 ff     	jsr	$fff0 <end_block9+0xa7ee>
    159a: 92 14        	sta	($14)                   ; 0x14 <__rc4>
    159c: a9 00        	lda	#$0
    159e: 6a           	ror
    159f: 85 1a        	sta	$1a                     ; 0x1a <__rc10>
    15a1: b2 12        	lda	($12)                   ; 0x12 <__zp_bss_size>
    15a3: 85 14        	sta	$14                     ; 0x14 <__rc4>
    15a5: a4 19        	ldy	$19                     ; 0x19 <__rc9>
    15a7: b1 12        	lda	($12),y                 ; 0x12 <__zp_bss_size>
    15a9: a6 12        	ldx	$12                     ; 0x12 <__zp_bss_size>
    15ab: 86 56        	stx	$56                     ; 0x56 <__rc31+0x27>
    15ad: a6 13        	ldx	$13                     ; 0x13 <__rc3>
    15af: 86 57        	stx	$57                     ; 0x57 <__rc31+0x28>
    15b1: a6 48        	ldx	$48                     ; 0x48 <__rc31+0x19>
    15b3: 86 12        	stx	$12                     ; 0x12 <__zp_bss_size>
    15b5: 64 49        	stz	$49                     ; 0x49 <__rc31+0x1a>
    15b7: 64 13        	stz	$13                     ; 0x13 <__rc3>
    15b9: aa           	tax
    15ba: a5 14        	lda	$14                     ; 0x14 <__rc4>
    15bc: 20 ab 30     	jsr	$30ab <__mulhi3>
    15bf: 86 16        	stx	$16                     ; 0x16 <__rc6>
    15c1: 18           	clc
    15c2: a6 52        	ldx	$52                     ; 0x52 <__rc31+0x23>
    15c4: 86 4c        	stx	$4c                     ; 0x4c <__rc31+0x1d>
    15c6: a6 53        	ldx	$53                     ; 0x53 <__rc31+0x24>
    15c8: 86 4d        	stx	$4d                     ; 0x4d <__rc31+0x1e>
    15ca: 72 4c        	adc	($4c)                   ; 0x4c <__rc31+0x1d>
    15cc: aa           	tax
    15cd: a0 01        	ldy	#$1
    15cf: a5 16        	lda	$16                     ; 0x16 <__rc6>
    15d1: 71 4c        	adc	($4c),y                 ; 0x4c <__rc31+0x1d>
    15d3: 85 12        	sta	$12                     ; 0x12 <__zp_bss_size>
    15d5: 8a           	txa
    15d6: 92 4c        	sta	($4c)                   ; 0x4c <__rc31+0x1d>
    15d8: a5 12        	lda	$12                     ; 0x12 <__zp_bss_size>
    15da: 91 4c        	sta	($4c),y                 ; 0x4c <__rc31+0x1d>
    15dc: a2 01        	ldx	#$1
    15de: 86 16        	stx	$16                     ; 0x16 <__rc6>
    15e0: a5 4c        	lda	$4c                     ; 0x4c <__rc31+0x1d>
    15e2: 18           	clc
    15e3: 69 0d        	adc	#$d
    15e5: 85 12        	sta	$12                     ; 0x12 <__zp_bss_size>
    15e7: a5 4d        	lda	$4d                     ; 0x4d <__rc31+0x1e>
    15e9: 69 00        	adc	#$0
    15eb: a0 0d        	ldy	#$d
    15ed: a6 12        	ldx	$12                     ; 0x12 <__zp_bss_size>
    15ef: 86 4a        	stx	$4a                     ; 0x4a <__rc31+0x1b>
    15f1: 85 4b        	sta	$4b                     ; 0x4b <__rc31+0x1c>
    15f3: b1 4c        	lda	($4c),y                 ; 0x4c <__rc31+0x1d>
    15f5: 85 14        	sta	$14                     ; 0x14 <__rc4>
    15f7: a4 16        	ldy	$16                     ; 0x16 <__rc6>
    15f9: b1 4a        	lda	($4a),y                 ; 0x4a <__rc31+0x1b>
    15fb: a6 48        	ldx	$48                     ; 0x48 <__rc31+0x19>
    15fd: 86 12        	stx	$12                     ; 0x12 <__zp_bss_size>
    15ff: 64 13        	stz	$13                     ; 0x13 <__rc3>
    1601: aa           	tax
    1602: a5 14        	lda	$14                     ; 0x14 <__rc4>
    1604: 20 ab 30     	jsr	$30ab <__mulhi3>
    1607: 85 17        	sta	$17                     ; 0x17 <__rc7>
    1609: 86 18        	stx	$18                     ; 0x18 <__rc8>
    160b: 18           	clc
    160c: a5 4c        	lda	$4c                     ; 0x4c <__rc31+0x1d>
    160e: 69 02        	adc	#$2
    1610: 85 14        	sta	$14                     ; 0x14 <__rc4>
    1612: a5 4d        	lda	$4d                     ; 0x4d <__rc31+0x1e>
    1614: 69 00        	adc	#$0
    1616: 85 15        	sta	$15                     ; 0x15 <__rc5>
    1618: 18           	clc
    1619: a2 02        	ldx	#$2
    161b: 86 16        	stx	$16                     ; 0x16 <__rc6>
    161d: a4 16        	ldy	$16                     ; 0x16 <__rc6>
    161f: a5 17        	lda	$17                     ; 0x17 <__rc7>
    1621: 71 4c        	adc	($4c),y                 ; 0x4c <__rc31+0x1d>
    1623: 85 19        	sta	$19                     ; 0x19 <__rc9>
    1625: a0 01        	ldy	#$1
    1627: a5 18        	lda	$18                     ; 0x18 <__rc8>
    1629: 71 14        	adc	($14),y                 ; 0x14 <__rc4>
    162b: 84 18        	sty	$18                     ; 0x18 <__rc8>
    162d: 85 17        	sta	$17                     ; 0x17 <__rc7>
    162f: a4 16        	ldy	$16                     ; 0x16 <__rc6>
    1631: a5 19        	lda	$19                     ; 0x19 <__rc9>
    1633: 91 4c        	sta	($4c),y                 ; 0x4c <__rc31+0x1d>
    1635: a5 17        	lda	$17                     ; 0x17 <__rc7>
    1637: a4 18        	ldy	$18                     ; 0x18 <__rc8>
    1639: 91 14        	sta	($14),y                 ; 0x14 <__rc4>
    163b: a9 00        	lda	#$0
    163d: a6 56        	ldx	$56                     ; 0x56 <__rc31+0x27>
    163f: 86 14        	stx	$14                     ; 0x14 <__rc4>
    1641: a6 57        	ldx	$57                     ; 0x57 <__rc31+0x28>
    1643: 86 15        	stx	$15                     ; 0x15 <__rc5>
    1645: 92 14        	sta	($14)                   ; 0x14 <__rc4>
    1647: 91 14        	sta	($14),y                 ; 0x14 <__rc4>
    1649: a2 01        	ldx	#$1
    164b: 86 14        	stx	$14                     ; 0x14 <__rc4>
    164d: a0 0d        	ldy	#$d
    164f: 91 4c        	sta	($4c),y                 ; 0x4c <__rc31+0x1d>
    1651: a4 14        	ldy	$14                     ; 0x14 <__rc4>
    1653: 91 4a        	sta	($4a),y                 ; 0x4a <__rc31+0x1b>
    1655: a9 03        	lda	#$3
    1657: a6 4e        	ldx	$4e                     ; 0x4e <__rc31+0x1f>
    1659: d0 02        	bne	$165d <checkPads+0x574>
    165b: a9 01        	lda	#$1
    165d: a0 0a        	ldy	#$a
    165f: 91 4c        	sta	($4c),y                 ; 0x4c <__rc31+0x1d>
    1661: 84 14        	sty	$14                     ; 0x14 <__rc4>
    1663: a0 13        	ldy	#$13
    1665: a5 58        	lda	$58                     ; 0x58 <__rc31+0x29>
    1667: 91 4c        	sta	($4c),y                 ; 0x4c <__rc31+0x1d>
    1669: 64 37        	stz	$37                     ; 0x37 <_col>
    166b: 9c 14 d0     	stz	$d014                   ; 0xd014 <end_block9+0x7812>
    166e: 9c 15 d0     	stz	$d015                   ; 0xd015 <end_block9+0x7813>
    1671: 64 38        	stz	$38                     ; 0x38 <_row>
    1673: 9c 16 d0     	stz	$d016                   ; 0xd016 <end_block9+0x7814>
    1676: 9c 17 d0     	stz	$d017                   ; 0xd017 <end_block9+0x7815>
    1679: a6 54        	ldx	$54                     ; 0x54 <__rc31+0x25>
    167b: 86 12        	stx	$12                     ; 0x12 <__zp_bss_size>
    167d: a6 55        	ldx	$55                     ; 0x55 <__rc31+0x26>
    167f: 86 13        	stx	$13                     ; 0x13 <__rc3>
    1681: b1 12        	lda	($12),y                 ; 0x12 <__zp_bss_size>
    1683: 85 17        	sta	$17                     ; 0x17 <__rc7>
    1685: a4 14        	ldy	$14                     ; 0x14 <__rc4>
    1687: b1 12        	lda	($12),y                 ; 0x12 <__zp_bss_size>
    1689: 85 16        	sta	$16                     ; 0x16 <__rc6>
    168b: a2 01        	ldx	#$1
    168d: 86 36        	stx	$36                     ; 0x36 <_ccolor>
    168f: a0 01        	ldy	#$1
    1691: a6 5a        	ldx	$5a                     ; 0x5a <__rc31+0x2b>
    1693: 8a           	txa
    1694: 18           	clc
    1695: 69 02        	adc	#$2
    1697: 85 14        	sta	$14                     ; 0x14 <__rc4>
    1699: a5 59        	lda	$59                     ; 0x59 <__rc31+0x2a>
    169b: 69 00        	adc	#$0
    169d: 85 15        	sta	$15                     ; 0x15 <__rc5>
    169f: b2 12        	lda	($12)                   ; 0x12 <__zp_bss_size>
    16a1: 85 18        	sta	$18                     ; 0x18 <__rc8>
    16a3: b1 12        	lda	($12),y                 ; 0x12 <__zp_bss_size>
    16a5: 84 1a        	sty	$1a                     ; 0x1a <__rc10>
    16a7: 85 19        	sta	$19                     ; 0x19 <__rc9>
    16a9: c8           	iny
    16aa: b1 12        	lda	($12),y                 ; 0x12 <__zp_bss_size>
    16ac: 84 1b        	sty	$1b                     ; 0x1b <__rc11>
    16ae: 85 13        	sta	$13                     ; 0x13 <__rc3>
    16b0: a4 1a        	ldy	$1a                     ; 0x1a <__rc10>
    16b2: b1 14        	lda	($14),y                 ; 0x14 <__rc4>
    16b4: 85 12        	sta	$12                     ; 0x12 <__zp_bss_size>
    16b6: a2 01        	ldx	#$1
    16b8: 86 14        	stx	$14                     ; 0x14 <__rc4>
    16ba: a5 18        	lda	$18                     ; 0x18 <__rc8>
    16bc: a4 1b        	ldy	$1b                     ; 0x1b <__rc11>
    16be: 91 10        	sta	($10),y                 ; 0x10 <__rc0>
    16c0: a0 03        	ldy	#$3
    16c2: a5 19        	lda	$19                     ; 0x19 <__rc9>
    16c4: 91 10        	sta	($10),y                 ; 0x10 <__rc0>
    16c6: a5 51        	lda	$51                     ; 0x51 <__rc31+0x22>
    16c8: 92 10        	sta	($10)                   ; 0x10 <__rc0>
    16ca: a9 00        	lda	#$0
    16cc: a4 14        	ldy	$14                     ; 0x14 <__rc4>
    16ce: 91 10        	sta	($10),y                 ; 0x10 <__rc0>
    16d0: a0 04        	ldy	#$4
    16d2: a5 13        	lda	$13                     ; 0x13 <__rc3>
    16d4: 91 10        	sta	($10),y                 ; 0x10 <__rc0>
    16d6: c8           	iny
    16d7: a5 12        	lda	$12                     ; 0x12 <__zp_bss_size>
    16d9: 91 10        	sta	($10),y                 ; 0x10 <__rc0>
    16db: c8           	iny
    16dc: a5 17        	lda	$17                     ; 0x17 <__rc7>
    16de: 91 10        	sta	($10),y                 ; 0x10 <__rc0>
    16e0: c8           	iny
    16e1: a9 00        	lda	#$0
    16e3: 91 10        	sta	($10),y                 ; 0x10 <__rc0>
    16e5: c8           	iny
    16e6: a5 16        	lda	$16                     ; 0x16 <__rc6>
    16e8: 91 10        	sta	($10),y                 ; 0x10 <__rc0>
    16ea: c8           	iny
    16eb: a9 00        	lda	#$0
    16ed: 91 10        	sta	($10),y                 ; 0x10 <__rc0>
    16ef: 20 82 1e     	jsr	$1e82 <printf>
    16f2: 18           	clc
    16f3: a5 10        	lda	$10                     ; 0x10 <__rc0>
    16f5: 69 0a        	adc	#$a
    16f7: 85 10        	sta	$10                     ; 0x10 <__rc0>
    16f9: a5 11        	lda	$11                     ; 0x11 <__rc1>
    16fb: 69 00        	adc	#$0
    16fd: 85 11        	sta	$11                     ; 0x11 <__rc1>
    16ff: 60           	rts

00001700 <updateFrames>:
    1700: a9 d9        	lda	#$d9
    1702: a2 01        	ldx	#$1
    1704: 64 14        	stz	$14                     ; 0x14 <__rc4>
    1706: 86 12        	stx	$12                     ; 0x12 <__zp_bss_size>
    1708: a6 12        	ldx	$12                     ; 0x12 <__zp_bss_size>
    170a: 86 18        	stx	$18                     ; 0x18 <__rc8>
    170c: 85 16        	sta	$16                     ; 0x16 <__rc6>
    170e: 85 13        	sta	$13                     ; 0x13 <__rc3>
    1710: a6 14        	ldx	$14                     ; 0x14 <__rc4>
    1712: 86 17        	stx	$17                     ; 0x17 <__rc7>
    1714: a6 14        	ldx	$14                     ; 0x14 <__rc4>
    1716: bd 27 56     	lda	$5627,x                 ; 0x5627 <spriteStatuses+0x6>
    1719: bc 28 56     	ldy	$5628,x                 ; 0x5628 <spriteStatuses+0x7>
    171c: 85 14        	sta	$14                     ; 0x14 <__rc4>
    171e: 85 1a        	sta	$1a                     ; 0x1a <__rc10>
    1720: a9 00        	lda	#$0
    1722: 18           	clc
    1723: 65 14        	adc	$14                     ; 0x14 <__rc4>
    1725: 98           	tya
    1726: 7d 2b 56     	adc	$562b,x                 ; 0x562b <spriteStatuses+0xa>
    1729: 85 19        	sta	$19                     ; 0x19 <__rc9>
    172b: a9 00        	lda	#$0
    172d: 7d 29 56     	adc	$5629,x                 ; 0x5629 <spriteStatuses+0x8>
    1730: a8           	tay
    1731: a5 1a        	lda	$1a                     ; 0x1a <__rc10>
    1733: 92 12        	sta	($12)                   ; 0x12 <__zp_bss_size>
    1735: a5 12        	lda	$12                     ; 0x12 <__zp_bss_size>
    1737: 5a           	phy
    1738: a4 16        	ldy	$16                     ; 0x16 <__rc6>
    173a: 84 12        	sty	$12                     ; 0x12 <__zp_bss_size>
    173c: 7a           	ply
    173d: 1a           	inc
    173e: d0 02        	bne	$1742 <updateFrames+0x42>
    1740: e6 12        	inc	$12                     ; 0x12 <__zp_bss_size>
    1742: 85 14        	sta	$14                     ; 0x14 <__rc4>
    1744: a5 12        	lda	$12                     ; 0x12 <__zp_bss_size>
    1746: 85 15        	sta	$15                     ; 0x15 <__rc5>
    1748: a5 19        	lda	$19                     ; 0x19 <__rc9>
    174a: 92 14        	sta	($14)                   ; 0x14 <__rc4>
    174c: 18           	clc
    174d: a5 18        	lda	$18                     ; 0x18 <__rc8>
    174f: 69 02        	adc	#$2
    1751: 85 12        	sta	$12                     ; 0x12 <__zp_bss_size>
    1753: a5 16        	lda	$16                     ; 0x16 <__rc6>
    1755: 69 00        	adc	#$0
    1757: 85 13        	sta	$13                     ; 0x13 <__rc3>
    1759: 98           	tya
    175a: 92 12        	sta	($12)                   ; 0x12 <__zp_bss_size>
    175c: bc 2c 56     	ldy	$562c,x                 ; 0x562c <spriteStatuses+0xb>
    175f: bd 2d 56     	lda	$562d,x                 ; 0x562d <spriteStatuses+0xc>
    1762: 85 12        	sta	$12                     ; 0x12 <__zp_bss_size>
    1764: 18           	clc
    1765: 98           	tya
    1766: 7d 21 56     	adc	$5621,x                 ; 0x5621 <spriteStatuses>
    1769: a8           	tay
    176a: a5 12        	lda	$12                     ; 0x12 <__zp_bss_size>
    176c: 7d 22 56     	adc	$5622,x                 ; 0x5622 <spriteStatuses+0x1>
    176f: 85 15        	sta	$15                     ; 0x15 <__rc5>
    1771: 98           	tya
    1772: 9d 21 56     	sta	$5621,x                 ; 0x5621 <spriteStatuses>
    1775: 84 1a        	sty	$1a                     ; 0x1a <__rc10>
    1777: a5 15        	lda	$15                     ; 0x15 <__rc5>
    1779: 9d 22 56     	sta	$5622,x                 ; 0x5622 <spriteStatuses+0x1>
    177c: bc 2e 56     	ldy	$562e,x                 ; 0x562e <spriteStatuses+0xd>
    177f: bd 2f 56     	lda	$562f,x                 ; 0x562f <spriteStatuses+0xe>
    1782: 85 12        	sta	$12                     ; 0x12 <__zp_bss_size>
    1784: 18           	clc
    1785: 98           	tya
    1786: 7d 23 56     	adc	$5623,x                 ; 0x5623 <spriteStatuses+0x2>
    1789: a8           	tay
    178a: a5 12        	lda	$12                     ; 0x12 <__zp_bss_size>
    178c: 7d 24 56     	adc	$5624,x                 ; 0x5624 <spriteStatuses+0x3>
    178f: 85 14        	sta	$14                     ; 0x14 <__rc4>
    1791: 98           	tya
    1792: 9d 23 56     	sta	$5623,x                 ; 0x5623 <spriteStatuses+0x2>
    1795: 84 19        	sty	$19                     ; 0x19 <__rc9>
    1797: a5 14        	lda	$14                     ; 0x14 <__rc4>
    1799: 9d 24 56     	sta	$5624,x                 ; 0x5624 <spriteStatuses+0x3>
    179c: 18           	clc
    179d: a5 18        	lda	$18                     ; 0x18 <__rc8>
    179f: 69 03        	adc	#$3
    17a1: 85 12        	sta	$12                     ; 0x12 <__zp_bss_size>
    17a3: a5 16        	lda	$16                     ; 0x16 <__rc6>
    17a5: 69 00        	adc	#$0
    17a7: 85 13        	sta	$13                     ; 0x13 <__rc3>
    17a9: a5 1a        	lda	$1a                     ; 0x1a <__rc10>
    17ab: 92 12        	sta	($12)                   ; 0x12 <__zp_bss_size>
    17ad: a5 15        	lda	$15                     ; 0x15 <__rc5>
    17af: a0 01        	ldy	#$1
    17b1: 91 12        	sta	($12),y                 ; 0x12 <__zp_bss_size>
    17b3: 18           	clc
    17b4: a5 18        	lda	$18                     ; 0x18 <__rc8>
    17b6: 69 05        	adc	#$5
    17b8: 85 12        	sta	$12                     ; 0x12 <__zp_bss_size>
    17ba: a5 16        	lda	$16                     ; 0x16 <__rc6>
    17bc: 69 00        	adc	#$0
    17be: 85 13        	sta	$13                     ; 0x13 <__rc3>
    17c0: a5 19        	lda	$19                     ; 0x19 <__rc9>
    17c2: 92 12        	sta	($12)                   ; 0x12 <__zp_bss_size>
    17c4: a5 14        	lda	$14                     ; 0x14 <__rc4>
    17c6: 91 12        	sta	($12),y                 ; 0x12 <__zp_bss_size>
    17c8: 18           	clc
    17c9: a5 17        	lda	$17                     ; 0x17 <__rc7>
    17cb: 69 18        	adc	#$18
    17cd: aa           	tax
    17ce: 18           	clc
    17cf: a5 18        	lda	$18                     ; 0x18 <__rc8>
    17d1: 69 08        	adc	#$8
    17d3: 85 12        	sta	$12                     ; 0x12 <__zp_bss_size>
    17d5: a5 16        	lda	$16                     ; 0x16 <__rc6>
    17d7: 69 00        	adc	#$0
    17d9: 86 14        	stx	$14                     ; 0x14 <__rc4>
    17db: e0 78        	cpx	#$78
    17dd: f0 03        	beq	$17e2 <updateFrames+0xe2>
    17df: 4c 08 17     	jmp	$1708 <updateFrames+0x8>
    17e2: a0 51        	ldy	#$51
    17e4: a2 11        	ldx	#$11
    17e6: 86 12        	stx	$12                     ; 0x12 <__zp_bss_size>
    17e8: a2 57        	ldx	#$57
    17ea: 86 13        	stx	$13                     ; 0x13 <__rc3>
    17ec: a2 d9        	ldx	#$d9
    17ee: 84 14        	sty	$14                     ; 0x14 <__rc4>
    17f0: 86 1c        	stx	$1c                     ; 0x1c <__rc12>
    17f2: 86 15        	stx	$15                     ; 0x15 <__rc5>
    17f4: a6 12        	ldx	$12                     ; 0x12 <__zp_bss_size>
    17f6: 86 1a        	stx	$1a                     ; 0x1a <__rc10>
    17f8: a6 13        	ldx	$13                     ; 0x13 <__rc3>
    17fa: 86 1b        	stx	$1b                     ; 0x1b <__rc11>
    17fc: 18           	clc
    17fd: a5 12        	lda	$12                     ; 0x12 <__zp_bss_size>
    17ff: 69 06        	adc	#$6
    1801: 85 16        	sta	$16                     ; 0x16 <__rc6>
    1803: 84 19        	sty	$19                     ; 0x19 <__rc9>
    1805: a5 13        	lda	$13                     ; 0x13 <__rc3>
    1807: 69 00        	adc	#$0
    1809: 85 17        	sta	$17                     ; 0x17 <__rc7>
    180b: a0 06        	ldy	#$6
    180d: b1 12        	lda	($12),y                 ; 0x12 <__zp_bss_size>
    180f: aa           	tax
    1810: a0 01        	ldy	#$1
    1812: b1 16        	lda	($16),y                 ; 0x16 <__rc6>
    1814: 85 1e        	sta	$1e                     ; 0x1e <__rc14>
    1816: 84 1d        	sty	$1d                     ; 0x1d <__rc13>
    1818: 86 18        	stx	$18                     ; 0x18 <__rc8>
    181a: a9 00        	lda	#$0
    181c: 18           	clc
    181d: 65 18        	adc	$18                     ; 0x18 <__rc8>
    181f: a0 0a        	ldy	#$a
    1821: a5 1e        	lda	$1e                     ; 0x1e <__rc14>
    1823: 71 12        	adc	($12),y                 ; 0x12 <__zp_bss_size>
    1825: 85 18        	sta	$18                     ; 0x18 <__rc8>
    1827: a9 00        	lda	#$0
    1829: a0 02        	ldy	#$2
    182b: 71 16        	adc	($16),y                 ; 0x16 <__rc6>
    182d: 85 16        	sta	$16                     ; 0x16 <__rc6>
    182f: 84 17        	sty	$17                     ; 0x17 <__rc7>
    1831: 8a           	txa
    1832: 92 14        	sta	($14)                   ; 0x14 <__rc4>
    1834: a6 19        	ldx	$19                     ; 0x19 <__rc9>
    1836: a5 1c        	lda	$1c                     ; 0x1c <__rc12>
    1838: e8           	inx
    1839: d0 01        	bne	$183c <updateFrames+0x13c>
    183b: 1a           	inc
    183c: 86 14        	stx	$14                     ; 0x14 <__rc4>
    183e: 85 15        	sta	$15                     ; 0x15 <__rc5>
    1840: a5 18        	lda	$18                     ; 0x18 <__rc8>
    1842: 92 14        	sta	($14)                   ; 0x14 <__rc4>
    1844: 18           	clc
    1845: a5 19        	lda	$19                     ; 0x19 <__rc9>
    1847: 69 02        	adc	#$2
    1849: 85 14        	sta	$14                     ; 0x14 <__rc4>
    184b: a5 1c        	lda	$1c                     ; 0x1c <__rc12>
    184d: 69 00        	adc	#$0
    184f: 85 15        	sta	$15                     ; 0x15 <__rc5>
    1851: a5 16        	lda	$16                     ; 0x16 <__rc6>
    1853: 92 14        	sta	($14)                   ; 0x14 <__rc4>
    1855: b2 12        	lda	($12)                   ; 0x12 <__zp_bss_size>
    1857: 85 18        	sta	$18                     ; 0x18 <__rc8>
    1859: 18           	clc
    185a: a5 12        	lda	$12                     ; 0x12 <__zp_bss_size>
    185c: 69 02        	adc	#$2
    185e: 85 14        	sta	$14                     ; 0x14 <__rc4>
    1860: a5 13        	lda	$13                     ; 0x13 <__rc3>
    1862: 69 00        	adc	#$0
    1864: 85 15        	sta	$15                     ; 0x15 <__rc5>
    1866: 18           	clc
    1867: a5 19        	lda	$19                     ; 0x19 <__rc9>
    1869: 69 03        	adc	#$3
    186b: 85 16        	sta	$16                     ; 0x16 <__rc6>
    186d: a5 1c        	lda	$1c                     ; 0x1c <__rc12>
    186f: 69 00        	adc	#$0
    1871: aa           	tax
    1872: a4 1d        	ldy	$1d                     ; 0x1d <__rc13>
    1874: b1 12        	lda	($12),y                 ; 0x12 <__zp_bss_size>
    1876: 84 1f        	sty	$1f                     ; 0x1f <__rc15>
    1878: 85 1e        	sta	$1e                     ; 0x1e <__rc14>
    187a: a4 17        	ldy	$17                     ; 0x17 <__rc7>
    187c: b1 12        	lda	($12),y                 ; 0x12 <__zp_bss_size>
    187e: 85 1d        	sta	$1d                     ; 0x1d <__rc13>
    1880: 86 17        	stx	$17                     ; 0x17 <__rc7>
    1882: a4 1f        	ldy	$1f                     ; 0x1f <__rc15>
    1884: b1 14        	lda	($14),y                 ; 0x14 <__rc4>
    1886: 85 14        	sta	$14                     ; 0x14 <__rc4>
    1888: a5 18        	lda	$18                     ; 0x18 <__rc8>
    188a: 92 16        	sta	($16)                   ; 0x16 <__rc6>
    188c: a5 1e        	lda	$1e                     ; 0x1e <__rc14>
    188e: 91 16        	sta	($16),y                 ; 0x16 <__rc6>
    1890: 18           	clc
    1891: a5 19        	lda	$19                     ; 0x19 <__rc9>
    1893: 69 05        	adc	#$5
    1895: 85 12        	sta	$12                     ; 0x12 <__zp_bss_size>
    1897: a5 1c        	lda	$1c                     ; 0x1c <__rc12>
    1899: 69 00        	adc	#$0
    189b: 85 13        	sta	$13                     ; 0x13 <__rc3>
    189d: a5 1d        	lda	$1d                     ; 0x1d <__rc13>
    189f: 92 12        	sta	($12)                   ; 0x12 <__zp_bss_size>
    18a1: a5 14        	lda	$14                     ; 0x14 <__rc4>
    18a3: 91 12        	sta	($12),y                 ; 0x12 <__zp_bss_size>
    18a5: 18           	clc
    18a6: a5 19        	lda	$19                     ; 0x19 <__rc9>
    18a8: 69 08        	adc	#$8
    18aa: a8           	tay
    18ab: a5 1c        	lda	$1c                     ; 0x1c <__rc12>
    18ad: 69 00        	adc	#$0
    18af: aa           	tax
    18b0: 18           	clc
    18b1: a5 1a        	lda	$1a                     ; 0x1a <__rc10>
    18b3: 69 18        	adc	#$18
    18b5: 85 12        	sta	$12                     ; 0x12 <__zp_bss_size>
    18b7: a5 1b        	lda	$1b                     ; 0x1b <__rc11>
    18b9: 69 00        	adc	#$0
    18bb: 85 13        	sta	$13                     ; 0x13 <__rc3>
    18bd: c0 79        	cpy	#$79
    18bf: f0 03        	beq	$18c4 <updateFrames+0x1c4>
    18c1: 4c ee 17     	jmp	$17ee <updateFrames+0xee>
    18c4: 60           	rts

000018c5 <mySpriteDefine>:
    18c5: 85 4a        	sta	$4a                     ; 0x4a <__rc31+0x1b>
    18c7: 86 1c        	stx	$1c                     ; 0x1c <__rc12>
    18c9: a4 15        	ldy	$15                     ; 0x15 <__rc5>
    18cb: 84 4b        	sty	$4b                     ; 0x4b <__rc31+0x1c>
    18cd: a4 18        	ldy	$18                     ; 0x18 <__rc8>
    18cf: 84 51        	sty	$51                     ; 0x51 <__rc31+0x22>
    18d1: a5 1b        	lda	$1b                     ; 0x1b <__rc11>
    18d3: 29 01        	and	#$1
    18d5: 85 54        	sta	$54                     ; 0x54 <__rc31+0x25>
    18d7: 18           	clc
    18d8: 8a           	txa
    18d9: 65 15        	adc	$15                     ; 0x15 <__rc5>
    18db: a8           	tay
    18dc: a2 00        	ldx	#$0
    18de: 86 53        	stx	$53                     ; 0x53 <__rc31+0x24>
    18e0: a5 12        	lda	$12                     ; 0x12 <__zp_bss_size>
    18e2: 69 00        	adc	#$0
    18e4: aa           	tax
    18e5: 18           	clc
    18e6: 98           	tya
    18e7: 69 00        	adc	#$0
    18e9: 85 15        	sta	$15                     ; 0x15 <__rc5>
    18eb: 8a           	txa
    18ec: 69 01        	adc	#$1
    18ee: a8           	tay
    18ef: a5 4a        	lda	$4a                     ; 0x4a <__rc31+0x1b>
    18f1: 0a           	asl
    18f2: 64 4e        	stz	$4e                     ; 0x4e <__rc31+0x1f>
    18f4: 26 4e        	rol	$4e                     ; 0x4e <__rc31+0x1f>
    18f6: 0a           	asl
    18f7: 26 4e        	rol	$4e                     ; 0x4e <__rc31+0x1f>
    18f9: 0a           	asl
    18fa: 85 4f        	sta	$4f                     ; 0x4f <__rc31+0x20>
    18fc: 26 4e        	rol	$4e                     ; 0x4e <__rc31+0x1f>
    18fe: 09 01        	ora	#$1
    1900: 85 1e        	sta	$1e                     ; 0x1e <__rc14>
    1902: a5 4e        	lda	$4e                     ; 0x4e <__rc31+0x1f>
    1904: 09 d9        	ora	#$d9
    1906: a6 4f        	ldx	$4f                     ; 0x4f <__rc31+0x20>
    1908: 86 4c        	stx	$4c                     ; 0x4c <__rc31+0x1d>
    190a: 85 4d        	sta	$4d                     ; 0x4d <__rc31+0x1e>
    190c: 85 50        	sta	$50                     ; 0x50 <__rc31+0x21>
    190e: a6 4a        	ldx	$4a                     ; 0x4a <__rc31+0x1b>
    1910: a9 40        	lda	#$40
    1912: 9d e1 55     	sta	$55e1,x                 ; 0x55e1 <_spriteCtl>
    1915: 86 1b        	stx	$1b                     ; 0x1b <__rc11>
    1917: 92 4c        	sta	($4c)                   ; 0x4c <__rc31+0x1d>
    1919: a6 50        	ldx	$50                     ; 0x50 <__rc31+0x21>
    191b: 86 1f        	stx	$1f                     ; 0x1f <__rc15>
    191d: a5 15        	lda	$15                     ; 0x15 <__rc5>
    191f: 92 1e        	sta	($1e)                   ; 0x1e <__rc14>
    1921: a5 4f        	lda	$4f                     ; 0x4f <__rc31+0x20>
    1923: 09 02        	ora	#$2
    1925: 85 1e        	sta	$1e                     ; 0x1e <__rc14>
    1927: 98           	tya
    1928: 92 1e        	sta	($1e)                   ; 0x1e <__rc14>
    192a: a5 4f        	lda	$4f                     ; 0x4f <__rc31+0x20>
    192c: 09 03        	ora	#$3
    192e: 85 1e        	sta	$1e                     ; 0x1e <__rc14>
    1930: 18           	clc
    1931: a5 4a        	lda	$4a                     ; 0x4a <__rc31+0x1b>
    1933: 69 0a        	adc	#$a
    1935: aa           	tax
    1936: 18           	clc
    1937: a5 1c        	lda	$1c                     ; 0x1c <__rc12>
    1939: 69 00        	adc	#$0
    193b: a5 12        	lda	$12                     ; 0x12 <__zp_bss_size>
    193d: 69 0a        	adc	#$a
    193f: 85 18        	sta	$18                     ; 0x18 <__rc8>
    1941: 8a           	txa
    1942: 0a           	asl
    1943: 64 15        	stz	$15                     ; 0x15 <__rc5>
    1945: 26 15        	rol	$15                     ; 0x15 <__rc5>
    1947: 0a           	asl
    1948: 85 1d        	sta	$1d                     ; 0x1d <__rc13>
    194a: 26 15        	rol	$15                     ; 0x15 <__rc5>
    194c: a9 01        	lda	#$1
    194e: 92 1e        	sta	($1e)                   ; 0x1e <__rc14>
    1950: 85 52        	sta	$52                     ; 0x52 <__rc31+0x23>
    1952: 06 1d        	asl	$1d                     ; 0x1d <__rc13>
    1954: a5 15        	lda	$15                     ; 0x15 <__rc5>
    1956: 0a           	asl
    1957: 09 d9        	ora	#$d9
    1959: a4 1d        	ldy	$1d                     ; 0x1d <__rc13>
    195b: 84 22        	sty	$22                     ; 0x22 <__rc18>
    195d: 85 23        	sta	$23                     ; 0x23 <__rc19>
    195f: a8           	tay
    1960: a9 40        	lda	#$40
    1962: 9d e1 55     	sta	$55e1,x                 ; 0x55e1 <_spriteCtl>
    1965: 86 15        	stx	$15                     ; 0x15 <__rc5>
    1967: 92 22        	sta	($22)                   ; 0x22 <__rc18>
    1969: a5 1d        	lda	$1d                     ; 0x1d <__rc13>
    196b: 09 01        	ora	#$1
    196d: 85 48        	sta	$48                     ; 0x48 <__rc31+0x19>
    196f: a5 1d        	lda	$1d                     ; 0x1d <__rc13>
    1971: 09 02        	ora	#$2
    1973: 85 1e        	sta	$1e                     ; 0x1e <__rc14>
    1975: 84 49        	sty	$49                     ; 0x49 <__rc31+0x1a>
    1977: a5 1c        	lda	$1c                     ; 0x1c <__rc12>
    1979: 92 48        	sta	($48)                   ; 0x48 <__rc31+0x19>
    197b: 84 1f        	sty	$1f                     ; 0x1f <__rc15>
    197d: a5 18        	lda	$18                     ; 0x18 <__rc8>
    197f: 92 1e        	sta	($1e)                   ; 0x1e <__rc14>
    1981: a5 1d        	lda	$1d                     ; 0x1d <__rc13>
    1983: 09 03        	ora	#$3
    1985: 85 1e        	sta	$1e                     ; 0x1e <__rc14>
    1987: a5 4f        	lda	$4f                     ; 0x4f <__rc31+0x20>
    1989: a6 4e        	ldx	$4e                     ; 0x4e <__rc31+0x1f>
    198b: 86 18        	stx	$18                     ; 0x18 <__rc8>
    198d: 0a           	asl
    198e: 26 18        	rol	$18                     ; 0x18 <__rc8>
    1990: 85 1d        	sta	$1d                     ; 0x1d <__rc13>
    1992: a5 4f        	lda	$4f                     ; 0x4f <__rc31+0x20>
    1994: a6 53        	ldx	$53                     ; 0x53 <__rc31+0x24>
    1996: e0 01        	cpx	#$1
    1998: 65 1d        	adc	$1d                     ; 0x1d <__rc13>
    199a: 85 1d        	sta	$1d                     ; 0x1d <__rc13>
    199c: a5 4e        	lda	$4e                     ; 0x4e <__rc31+0x1f>
    199e: 65 18        	adc	$18                     ; 0x18 <__rc8>
    19a0: 85 18        	sta	$18                     ; 0x18 <__rc8>
    19a2: a6 53        	ldx	$53                     ; 0x53 <__rc31+0x24>
    19a4: e0 01        	cpx	#$1
    19a6: a9 21        	lda	#$21
    19a8: 65 1d        	adc	$1d                     ; 0x1d <__rc13>
    19aa: 85 1d        	sta	$1d                     ; 0x1d <__rc13>
    19ac: a9 56        	lda	#$56
    19ae: 65 18        	adc	$18                     ; 0x18 <__rc8>
    19b0: aa           	tax
    19b1: a5 52        	lda	$52                     ; 0x52 <__rc31+0x23>
    19b3: 92 1e        	sta	($1e)                   ; 0x1e <__rc14>
    19b5: a4 1d        	ldy	$1d                     ; 0x1d <__rc13>
    19b7: 84 48        	sty	$48                     ; 0x48 <__rc31+0x19>
    19b9: 86 49        	stx	$49                     ; 0x49 <__rc31+0x1a>
    19bb: 86 18        	stx	$18                     ; 0x18 <__rc8>
    19bd: a0 04        	ldy	#$4
    19bf: 98           	tya
    19c0: 85 53        	sta	$53                     ; 0x53 <__rc31+0x24>
    19c2: a5 52        	lda	$52                     ; 0x52 <__rc31+0x23>
    19c4: 91 48        	sta	($48),y                 ; 0x48 <__rc31+0x19>
    19c6: a5 4f        	lda	$4f                     ; 0x4f <__rc31+0x20>
    19c8: 09 04        	ora	#$4
    19ca: 85 4e        	sta	$4e                     ; 0x4e <__rc31+0x1f>
    19cc: a5 4f        	lda	$4f                     ; 0x4f <__rc31+0x20>
    19ce: 09 06        	ora	#$6
    19d0: 85 1e        	sta	$1e                     ; 0x1e <__rc14>
    19d2: a6 50        	ldx	$50                     ; 0x50 <__rc31+0x21>
    19d4: 86 4f        	stx	$4f                     ; 0x4f <__rc31+0x20>
    19d6: a6 50        	ldx	$50                     ; 0x50 <__rc31+0x21>
    19d8: 86 1f        	stx	$1f                     ; 0x1f <__rc15>
    19da: a5 16        	lda	$16                     ; 0x16 <__rc6>
    19dc: 92 4e        	sta	($4e)                   ; 0x4e <__rc31+0x1f>
    19de: a5 17        	lda	$17                     ; 0x17 <__rc7>
    19e0: a0 01        	ldy	#$1
    19e2: 91 4e        	sta	($4e),y                 ; 0x4e <__rc31+0x1f>
    19e4: a5 51        	lda	$51                     ; 0x51 <__rc31+0x22>
    19e6: 92 1e        	sta	($1e)                   ; 0x1e <__rc14>
    19e8: a5 19        	lda	$19                     ; 0x19 <__rc9>
    19ea: 91 1e        	sta	($1e),y                 ; 0x1e <__rc14>
    19ec: a2 01        	ldx	#$1
    19ee: a5 1a        	lda	$1a                     ; 0x1a <__rc10>
    19f0: a4 1b        	ldy	$1b                     ; 0x1b <__rc11>
    19f2: 19 e1 55     	ora	$55e1,y                 ; 0x55e1 <_spriteCtl>
    19f5: 92 4c        	sta	($4c)                   ; 0x4c <__rc31+0x1d>
    19f7: a5 1a        	lda	$1a                     ; 0x1a <__rc10>
    19f9: a4 15        	ldy	$15                     ; 0x15 <__rc5>
    19fb: 19 e1 55     	ora	$55e1,y                 ; 0x55e1 <_spriteCtl>
    19fe: 92 22        	sta	($22)                   ; 0x22 <__rc18>
    1a00: 18           	clc
    1a01: a5 16        	lda	$16                     ; 0x16 <__rc6>
    1a03: 69 f0        	adc	#$f0
    1a05: a8           	tay
    1a06: a5 17        	lda	$17                     ; 0x17 <__rc7>
    1a08: 69 ff        	adc	#$ff
    1a0a: 85 15        	sta	$15                     ; 0x15 <__rc5>
    1a0c: 98           	tya
    1a0d: 92 4e        	sta	($4e)                   ; 0x4e <__rc31+0x1f>
    1a0f: a0 01        	ldy	#$1
    1a11: a5 15        	lda	$15                     ; 0x15 <__rc5>
    1a13: 91 4e        	sta	($4e),y                 ; 0x4e <__rc31+0x1f>
    1a15: a5 51        	lda	$51                     ; 0x51 <__rc31+0x22>
    1a17: 92 1e        	sta	($1e)                   ; 0x1e <__rc14>
    1a19: a5 19        	lda	$19                     ; 0x19 <__rc9>
    1a1b: 91 1e        	sta	($1e),y                 ; 0x1e <__rc14>
    1a1d: 86 1e        	stx	$1e                     ; 0x1e <__rc14>
    1a1f: a0 06        	ldy	#$6
    1a21: a5 1c        	lda	$1c                     ; 0x1c <__rc12>
    1a23: 91 48        	sta	($48),y                 ; 0x48 <__rc31+0x19>
    1a25: a0 0a        	ldy	#$a
    1a27: a5 4b        	lda	$4b                     ; 0x4b <__rc31+0x1c>
    1a29: 91 48        	sta	($48),y                 ; 0x48 <__rc31+0x19>
    1a2b: 18           	clc
    1a2c: a5 1d        	lda	$1d                     ; 0x1d <__rc13>
    1a2e: 69 06        	adc	#$6
    1a30: 85 1a        	sta	$1a                     ; 0x1a <__rc10>
    1a32: a5 18        	lda	$18                     ; 0x18 <__rc8>
    1a34: 69 00        	adc	#$0
    1a36: 85 1b        	sta	$1b                     ; 0x1b <__rc11>
    1a38: a0 02        	ldy	#$2
    1a3a: a5 13        	lda	$13                     ; 0x13 <__rc3>
    1a3c: 91 1a        	sta	($1a),y                 ; 0x1a <__rc10>
    1a3e: a5 51        	lda	$51                     ; 0x51 <__rc31+0x22>
    1a40: 91 48        	sta	($48),y                 ; 0x48 <__rc31+0x19>
    1a42: a0 11        	ldy	#$11
    1a44: a5 4a        	lda	$4a                     ; 0x4a <__rc31+0x1b>
    1a46: 91 48        	sta	($48),y                 ; 0x48 <__rc31+0x19>
    1a48: a5 12        	lda	$12                     ; 0x12 <__zp_bss_size>
    1a4a: a4 1e        	ldy	$1e                     ; 0x1e <__rc14>
    1a4c: 91 1a        	sta	($1a),y                 ; 0x1a <__rc10>
    1a4e: a9 00        	lda	#$0
    1a50: a0 0b        	ldy	#$b
    1a52: 91 48        	sta	($48),y                 ; 0x48 <__rc31+0x19>
    1a54: a0 0d        	ldy	#$d
    1a56: 91 48        	sta	($48),y                 ; 0x48 <__rc31+0x19>
    1a58: a0 0f        	ldy	#$f
    1a5a: 91 48        	sta	($48),y                 ; 0x48 <__rc31+0x19>
    1a5c: a0 13        	ldy	#$13
    1a5e: 91 48        	sta	($48),y                 ; 0x48 <__rc31+0x19>
    1a60: a0 03        	ldy	#$3
    1a62: a5 14        	lda	$14                     ; 0x14 <__rc4>
    1a64: 91 1a        	sta	($1a),y                 ; 0x1a <__rc10>
    1a66: 18           	clc
    1a67: a5 1d        	lda	$1d                     ; 0x1d <__rc13>
    1a69: 69 02        	adc	#$2
    1a6b: 85 12        	sta	$12                     ; 0x12 <__zp_bss_size>
    1a6d: a5 18        	lda	$18                     ; 0x18 <__rc8>
    1a6f: 69 00        	adc	#$0
    1a71: 85 13        	sta	$13                     ; 0x13 <__rc3>
    1a73: a5 19        	lda	$19                     ; 0x19 <__rc9>
    1a75: a4 1e        	ldy	$1e                     ; 0x1e <__rc14>
    1a77: 91 12        	sta	($12),y                 ; 0x12 <__zp_bss_size>
    1a79: 18           	clc
    1a7a: a5 1d        	lda	$1d                     ; 0x1d <__rc13>
    1a7c: 69 0b        	adc	#$b
    1a7e: 85 12        	sta	$12                     ; 0x12 <__zp_bss_size>
    1a80: a5 18        	lda	$18                     ; 0x18 <__rc8>
    1a82: 69 00        	adc	#$0
    1a84: 85 13        	sta	$13                     ; 0x13 <__rc3>
    1a86: 18           	clc
    1a87: a6 1d        	ldx	$1d                     ; 0x1d <__rc13>
    1a89: 86 4d        	stx	$4d                     ; 0x4d <__rc31+0x1e>
    1a8b: a5 1d        	lda	$1d                     ; 0x1d <__rc13>
    1a8d: 69 0d        	adc	#$d
    1a8f: 85 14        	sta	$14                     ; 0x14 <__rc4>
    1a91: a6 18        	ldx	$18                     ; 0x18 <__rc8>
    1a93: 86 4c        	stx	$4c                     ; 0x4c <__rc31+0x1d>
    1a95: a5 18        	lda	$18                     ; 0x18 <__rc8>
    1a97: 69 00        	adc	#$0
    1a99: 85 15        	sta	$15                     ; 0x15 <__rc5>
    1a9b: a9 00        	lda	#$0
    1a9d: 91 12        	sta	($12),y                 ; 0x12 <__zp_bss_size>
    1a9f: 91 14        	sta	($14),y                 ; 0x14 <__rc4>
    1aa1: 84 12        	sty	$12                     ; 0x12 <__zp_bss_size>
    1aa3: a0 05        	ldy	#$5
    1aa5: a2 05        	ldx	#$5
    1aa7: 86 4e        	stx	$4e                     ; 0x4e <__rc31+0x1f>
    1aa9: 91 48        	sta	($48),y                 ; 0x48 <__rc31+0x19>
    1aab: a5 16        	lda	$16                     ; 0x16 <__rc6>
    1aad: 92 48        	sta	($48)                   ; 0x48 <__rc31+0x19>
    1aaf: a5 17        	lda	$17                     ; 0x17 <__rc7>
    1ab1: a4 12        	ldy	$12                     ; 0x12 <__zp_bss_size>
    1ab3: 91 48        	sta	($48),y                 ; 0x48 <__rc31+0x19>
    1ab5: a6 54        	ldx	$54                     ; 0x54 <__rc31+0x25>
    1ab7: 86 12        	stx	$12                     ; 0x12 <__zp_bss_size>
    1ab9: a5 12        	lda	$12                     ; 0x12 <__zp_bss_size>
    1abb: d0 03        	bne	$1ac0 <mySpriteDefine+0x1fb>
    1abd: 4c 34 1b     	jmp	$1b34 <mySpriteDefine+0x26f>
    1ac0: a2 00        	ldx	#$0
    1ac2: a9 02        	lda	#$2
    1ac4: 20 93 2d     	jsr	$2d93 <malloc>
    1ac7: 18           	clc
    1ac8: a5 4d        	lda	$4d                     ; 0x4d <__rc31+0x1e>
    1aca: 69 14        	adc	#$14
    1acc: 85 4e        	sta	$4e                     ; 0x4e <__rc31+0x1f>
    1ace: a5 4c        	lda	$4c                     ; 0x4c <__rc31+0x1d>
    1ad0: 69 00        	adc	#$0
    1ad2: a0 14        	ldy	#$14
    1ad4: 85 4f        	sta	$4f                     ; 0x4f <__rc31+0x20>
    1ad6: a5 12        	lda	$12                     ; 0x12 <__zp_bss_size>
    1ad8: 91 48        	sta	($48),y                 ; 0x48 <__rc31+0x19>
    1ada: a2 14        	ldx	#$14
    1adc: 86 51        	stx	$51                     ; 0x51 <__rc31+0x22>
    1ade: a5 13        	lda	$13                     ; 0x13 <__rc3>
    1ae0: a0 01        	ldy	#$1
    1ae2: 91 4e        	sta	($4e),y                 ; 0x4e <__rc31+0x1f>
    1ae4: 84 4b        	sty	$4b                     ; 0x4b <__rc31+0x1c>
    1ae6: a2 00        	ldx	#$0
    1ae8: a9 02        	lda	#$2
    1aea: 20 93 2d     	jsr	$2d93 <malloc>
    1aed: a5 4d        	lda	$4d                     ; 0x4d <__rc31+0x1e>
    1aef: 18           	clc
    1af0: 69 16        	adc	#$16
    1af2: 85 14        	sta	$14                     ; 0x14 <__rc4>
    1af4: a5 4c        	lda	$4c                     ; 0x4c <__rc31+0x1d>
    1af6: 69 00        	adc	#$0
    1af8: 85 15        	sta	$15                     ; 0x15 <__rc5>
    1afa: a4 51        	ldy	$51                     ; 0x51 <__rc31+0x22>
    1afc: b1 48        	lda	($48),y                 ; 0x48 <__rc31+0x19>
    1afe: aa           	tax
    1aff: a0 16        	ldy	#$16
    1b01: a5 12        	lda	$12                     ; 0x12 <__zp_bss_size>
    1b03: 91 48        	sta	($48),y                 ; 0x48 <__rc31+0x19>
    1b05: 84 16        	sty	$16                     ; 0x16 <__rc6>
    1b07: a5 13        	lda	$13                     ; 0x13 <__rc3>
    1b09: a4 4b        	ldy	$4b                     ; 0x4b <__rc31+0x1c>
    1b0b: 91 14        	sta	($14),y                 ; 0x14 <__rc4>
    1b0d: 86 12        	stx	$12                     ; 0x12 <__zp_bss_size>
    1b0f: b1 4e        	lda	($4e),y                 ; 0x4e <__rc31+0x1f>
    1b11: 84 17        	sty	$17                     ; 0x17 <__rc7>
    1b13: 85 13        	sta	$13                     ; 0x13 <__rc3>
    1b15: a9 00        	lda	#$0
    1b17: 92 12        	sta	($12)                   ; 0x12 <__zp_bss_size>
    1b19: a4 16        	ldy	$16                     ; 0x16 <__rc6>
    1b1b: b1 48        	lda	($48),y                 ; 0x48 <__rc31+0x19>
    1b1d: 85 12        	sta	$12                     ; 0x12 <__zp_bss_size>
    1b1f: a4 17        	ldy	$17                     ; 0x17 <__rc7>
    1b21: b1 14        	lda	($14),y                 ; 0x14 <__rc4>
    1b23: 85 13        	sta	$13                     ; 0x13 <__rc3>
    1b25: a9 03        	lda	#$3
    1b27: 92 12        	sta	($12)                   ; 0x12 <__zp_bss_size>
    1b29: a2 07        	ldx	#$7
    1b2b: 86 16        	stx	$16                     ; 0x16 <__rc6>
    1b2d: a2 01        	ldx	#$1
    1b2f: 86 4e        	stx	$4e                     ; 0x4e <__rc31+0x1f>
    1b31: 4c 52 1c     	jmp	$1c52 <mySpriteDefine+0x38d>
    1b34: a2 00        	ldx	#$0
    1b36: a9 06        	lda	#$6
    1b38: 20 93 2d     	jsr	$2d93 <malloc>
    1b3b: 18           	clc
    1b3c: a5 4d        	lda	$4d                     ; 0x4d <__rc31+0x1e>
    1b3e: 69 14        	adc	#$14
    1b40: 85 50        	sta	$50                     ; 0x50 <__rc31+0x21>
    1b42: a5 4c        	lda	$4c                     ; 0x4c <__rc31+0x1d>
    1b44: 69 00        	adc	#$0
    1b46: a0 14        	ldy	#$14
    1b48: 85 51        	sta	$51                     ; 0x51 <__rc31+0x22>
    1b4a: a5 12        	lda	$12                     ; 0x12 <__zp_bss_size>
    1b4c: 91 48        	sta	($48),y                 ; 0x48 <__rc31+0x19>
    1b4e: a2 14        	ldx	#$14
    1b50: 86 4f        	stx	$4f                     ; 0x4f <__rc31+0x20>
    1b52: a5 13        	lda	$13                     ; 0x13 <__rc3>
    1b54: a0 01        	ldy	#$1
    1b56: 91 50        	sta	($50),y                 ; 0x50 <__rc31+0x21>
    1b58: 84 52        	sty	$52                     ; 0x52 <__rc31+0x23>
    1b5a: a2 00        	ldx	#$0
    1b5c: a9 06        	lda	#$6
    1b5e: 20 93 2d     	jsr	$2d93 <malloc>
    1b61: a5 4d        	lda	$4d                     ; 0x4d <__rc31+0x1e>
    1b63: 18           	clc
    1b64: 69 16        	adc	#$16
    1b66: 85 14        	sta	$14                     ; 0x14 <__rc4>
    1b68: a5 4c        	lda	$4c                     ; 0x4c <__rc31+0x1d>
    1b6a: 69 00        	adc	#$0
    1b6c: 85 15        	sta	$15                     ; 0x15 <__rc5>
    1b6e: a5 12        	lda	$12                     ; 0x12 <__zp_bss_size>
    1b70: a0 16        	ldy	#$16
    1b72: 91 48        	sta	($48),y                 ; 0x48 <__rc31+0x19>
    1b74: a2 16        	ldx	#$16
    1b76: a5 13        	lda	$13                     ; 0x13 <__rc3>
    1b78: a4 52        	ldy	$52                     ; 0x52 <__rc31+0x23>
    1b7a: 91 14        	sta	($14),y                 ; 0x14 <__rc4>
    1b7c: 84 13        	sty	$13                     ; 0x13 <__rc3>
    1b7e: a4 4f        	ldy	$4f                     ; 0x4f <__rc31+0x20>
    1b80: b1 48        	lda	($48),y                 ; 0x48 <__rc31+0x19>
    1b82: 85 12        	sta	$12                     ; 0x12 <__zp_bss_size>
    1b84: a4 13        	ldy	$13                     ; 0x13 <__rc3>
    1b86: b1 50        	lda	($50),y                 ; 0x50 <__rc31+0x21>
    1b88: 84 18        	sty	$18                     ; 0x18 <__rc8>
    1b8a: 85 13        	sta	$13                     ; 0x13 <__rc3>
    1b8c: a9 00        	lda	#$0
    1b8e: 92 12        	sta	($12)                   ; 0x12 <__zp_bss_size>
    1b90: a0 16        	ldy	#$16
    1b92: b1 48        	lda	($48),y                 ; 0x48 <__rc31+0x19>
    1b94: 86 16        	stx	$16                     ; 0x16 <__rc6>
    1b96: 85 12        	sta	$12                     ; 0x12 <__zp_bss_size>
    1b98: a4 18        	ldy	$18                     ; 0x18 <__rc8>
    1b9a: b1 14        	lda	($14),y                 ; 0x14 <__rc4>
    1b9c: 85 13        	sta	$13                     ; 0x13 <__rc3>
    1b9e: a9 00        	lda	#$0
    1ba0: 92 12        	sta	($12)                   ; 0x12 <__zp_bss_size>
    1ba2: a4 4f        	ldy	$4f                     ; 0x4f <__rc31+0x20>
    1ba4: b1 48        	lda	($48),y                 ; 0x48 <__rc31+0x19>
    1ba6: 85 12        	sta	$12                     ; 0x12 <__zp_bss_size>
    1ba8: a4 18        	ldy	$18                     ; 0x18 <__rc8>
    1baa: b1 50        	lda	($50),y                 ; 0x50 <__rc31+0x21>
    1bac: 85 13        	sta	$13                     ; 0x13 <__rc3>
    1bae: a9 02        	lda	#$2
    1bb0: 91 12        	sta	($12),y                 ; 0x12 <__zp_bss_size>
    1bb2: 84 13        	sty	$13                     ; 0x13 <__rc3>
    1bb4: aa           	tax
    1bb5: 86 18        	stx	$18                     ; 0x18 <__rc8>
    1bb7: a4 16        	ldy	$16                     ; 0x16 <__rc6>
    1bb9: b1 48        	lda	($48),y                 ; 0x48 <__rc31+0x19>
    1bbb: 85 12        	sta	$12                     ; 0x12 <__zp_bss_size>
    1bbd: a4 13        	ldy	$13                     ; 0x13 <__rc3>
    1bbf: b1 14        	lda	($14),y                 ; 0x14 <__rc4>
    1bc1: 85 13        	sta	$13                     ; 0x13 <__rc3>
    1bc3: 8a           	txa
    1bc4: 91 12        	sta	($12),y                 ; 0x12 <__zp_bss_size>
    1bc6: 84 13        	sty	$13                     ; 0x13 <__rc3>
    1bc8: a4 4f        	ldy	$4f                     ; 0x4f <__rc31+0x20>
    1bca: b1 48        	lda	($48),y                 ; 0x48 <__rc31+0x19>
    1bcc: 85 12        	sta	$12                     ; 0x12 <__zp_bss_size>
    1bce: a4 13        	ldy	$13                     ; 0x13 <__rc3>
    1bd0: b1 50        	lda	($50),y                 ; 0x50 <__rc31+0x21>
    1bd2: 84 19        	sty	$19                     ; 0x19 <__rc9>
    1bd4: 85 13        	sta	$13                     ; 0x13 <__rc3>
    1bd6: a0 02        	ldy	#$2
    1bd8: a9 00        	lda	#$0
    1bda: 91 12        	sta	($12),y                 ; 0x12 <__zp_bss_size>
    1bdc: 86 1b        	stx	$1b                     ; 0x1b <__rc11>
    1bde: a4 16        	ldy	$16                     ; 0x16 <__rc6>
    1be0: b1 48        	lda	($48),y                 ; 0x48 <__rc31+0x19>
    1be2: 85 12        	sta	$12                     ; 0x12 <__zp_bss_size>
    1be4: a4 19        	ldy	$19                     ; 0x19 <__rc9>
    1be6: b1 14        	lda	($14),y                 ; 0x14 <__rc4>
    1be8: a6 19        	ldx	$19                     ; 0x19 <__rc9>
    1bea: 86 1a        	stx	$1a                     ; 0x1a <__rc10>
    1bec: 85 13        	sta	$13                     ; 0x13 <__rc3>
    1bee: a9 01        	lda	#$1
    1bf0: a4 1b        	ldy	$1b                     ; 0x1b <__rc11>
    1bf2: 91 12        	sta	($12),y                 ; 0x12 <__zp_bss_size>
    1bf4: aa           	tax
    1bf5: 86 19        	stx	$19                     ; 0x19 <__rc9>
    1bf7: a4 4f        	ldy	$4f                     ; 0x4f <__rc31+0x20>
    1bf9: b1 48        	lda	($48),y                 ; 0x48 <__rc31+0x19>
    1bfb: 84 1b        	sty	$1b                     ; 0x1b <__rc11>
    1bfd: 85 12        	sta	$12                     ; 0x12 <__zp_bss_size>
    1bff: a4 1a        	ldy	$1a                     ; 0x1a <__rc10>
    1c01: b1 50        	lda	($50),y                 ; 0x50 <__rc31+0x21>
    1c03: 85 13        	sta	$13                     ; 0x13 <__rc3>
    1c05: a0 03        	ldy	#$3
    1c07: a5 18        	lda	$18                     ; 0x18 <__rc8>
    1c09: 91 12        	sta	($12),y                 ; 0x12 <__zp_bss_size>
    1c0b: 84 18        	sty	$18                     ; 0x18 <__rc8>
    1c0d: a4 16        	ldy	$16                     ; 0x16 <__rc6>
    1c0f: b1 48        	lda	($48),y                 ; 0x48 <__rc31+0x19>
    1c11: a6 16        	ldx	$16                     ; 0x16 <__rc6>
    1c13: 86 17        	stx	$17                     ; 0x17 <__rc7>
    1c15: 85 12        	sta	$12                     ; 0x12 <__zp_bss_size>
    1c17: a4 1a        	ldy	$1a                     ; 0x1a <__rc10>
    1c19: b1 14        	lda	($14),y                 ; 0x14 <__rc4>
    1c1b: 84 16        	sty	$16                     ; 0x16 <__rc6>
    1c1d: 85 13        	sta	$13                     ; 0x13 <__rc3>
    1c1f: a9 03        	lda	#$3
    1c21: aa           	tax
    1c22: 86 53        	stx	$53                     ; 0x53 <__rc31+0x24>
    1c24: a4 18        	ldy	$18                     ; 0x18 <__rc8>
    1c26: 91 12        	sta	($12),y                 ; 0x12 <__zp_bss_size>
    1c28: a4 1b        	ldy	$1b                     ; 0x1b <__rc11>
    1c2a: b1 48        	lda	($48),y                 ; 0x48 <__rc31+0x19>
    1c2c: 85 12        	sta	$12                     ; 0x12 <__zp_bss_size>
    1c2e: a4 16        	ldy	$16                     ; 0x16 <__rc6>
    1c30: b1 50        	lda	($50),y                 ; 0x50 <__rc31+0x21>
    1c32: 84 1a        	sty	$1a                     ; 0x1a <__rc10>
    1c34: 85 13        	sta	$13                     ; 0x13 <__rc3>
    1c36: a0 04        	ldy	#$4
    1c38: a5 19        	lda	$19                     ; 0x19 <__rc9>
    1c3a: 91 12        	sta	($12),y                 ; 0x12 <__zp_bss_size>
    1c3c: 84 18        	sty	$18                     ; 0x18 <__rc8>
    1c3e: a4 17        	ldy	$17                     ; 0x17 <__rc7>
    1c40: b1 48        	lda	($48),y                 ; 0x48 <__rc31+0x19>
    1c42: 85 12        	sta	$12                     ; 0x12 <__zp_bss_size>
    1c44: a4 1a        	ldy	$1a                     ; 0x1a <__rc10>
    1c46: b1 14        	lda	($14),y                 ; 0x14 <__rc4>
    1c48: 85 13        	sta	$13                     ; 0x13 <__rc3>
    1c4a: a5 19        	lda	$19                     ; 0x19 <__rc9>
    1c4c: a4 18        	ldy	$18                     ; 0x18 <__rc8>
    1c4e: 91 12        	sta	($12),y                 ; 0x12 <__zp_bss_size>
    1c50: 86 16        	stx	$16                     ; 0x16 <__rc6>
    1c52: a5 4d        	lda	$4d                     ; 0x4d <__rc31+0x1e>
    1c54: 18           	clc
    1c55: 69 14        	adc	#$14
    1c57: 85 12        	sta	$12                     ; 0x12 <__zp_bss_size>
    1c59: a5 4c        	lda	$4c                     ; 0x4c <__rc31+0x1d>
    1c5b: 69 00        	adc	#$0
    1c5d: 85 13        	sta	$13                     ; 0x13 <__rc3>
    1c5f: a0 14        	ldy	#$14
    1c61: b1 48        	lda	($48),y                 ; 0x48 <__rc31+0x19>
    1c63: 85 14        	sta	$14                     ; 0x14 <__rc4>
    1c65: a0 01        	ldy	#$1
    1c67: b1 12        	lda	($12),y                 ; 0x12 <__zp_bss_size>
    1c69: a2 01        	ldx	#$1
    1c6b: 86 17        	stx	$17                     ; 0x17 <__rc7>
    1c6d: 85 15        	sta	$15                     ; 0x15 <__rc5>
    1c6f: a4 4e        	ldy	$4e                     ; 0x4e <__rc31+0x1f>
    1c71: a5 53        	lda	$53                     ; 0x53 <__rc31+0x24>
    1c73: 91 14        	sta	($14),y                 ; 0x14 <__rc4>
    1c75: 84 18        	sty	$18                     ; 0x18 <__rc8>
    1c77: 18           	clc
    1c78: a5 4d        	lda	$4d                     ; 0x4d <__rc31+0x1e>
    1c7a: 69 16        	adc	#$16
    1c7c: 85 12        	sta	$12                     ; 0x12 <__zp_bss_size>
    1c7e: a5 4c        	lda	$4c                     ; 0x4c <__rc31+0x1d>
    1c80: 69 00        	adc	#$0
    1c82: 85 13        	sta	$13                     ; 0x13 <__rc3>
    1c84: a0 16        	ldy	#$16
    1c86: b1 48        	lda	($48),y                 ; 0x48 <__rc31+0x19>
    1c88: 85 14        	sta	$14                     ; 0x14 <__rc4>
    1c8a: a4 17        	ldy	$17                     ; 0x17 <__rc7>
    1c8c: b1 12        	lda	($12),y                 ; 0x12 <__zp_bss_size>
    1c8e: 85 15        	sta	$15                     ; 0x15 <__rc5>
    1c90: a5 16        	lda	$16                     ; 0x16 <__rc6>
    1c92: a4 18        	ldy	$18                     ; 0x18 <__rc8>
    1c94: 91 14        	sta	($14),y                 ; 0x14 <__rc4>
    1c96: 60           	rts

00001c97 <exit>:
    1c97: 20 1d 03     	jsr	$31d <_fini>
    1c9a: 80 fe        	bra	$1c9a <exit+0x3>

00001c9c <_ZN12_GLOBAL__N_13putEcP6Status>:
    1c9c: 85 18        	sta	$18                     ; 0x18 <__rc8>
    1c9e: a6 13        	ldx	$13                     ; 0x13 <__rc3>
    1ca0: 18           	clc
    1ca1: a5 12        	lda	$12                     ; 0x12 <__zp_bss_size>
    1ca3: 69 05        	adc	#$5
    1ca5: a8           	tay
    1ca6: a5 13        	lda	$13                     ; 0x13 <__rc3>
    1ca8: 86 15        	stx	$15                     ; 0x15 <__rc5>
    1caa: 69 00        	adc	#$0
    1cac: 18           	clc
    1cad: 84 16        	sty	$16                     ; 0x16 <__rc6>
    1caf: a0 05        	ldy	#$5
    1cb1: 85 17        	sta	$17                     ; 0x17 <__rc7>
    1cb3: b1 12        	lda	($12),y                 ; 0x12 <__zp_bss_size>
    1cb5: aa           	tax
    1cb6: a5 12        	lda	$12                     ; 0x12 <__zp_bss_size>
    1cb8: 69 03        	adc	#$3
    1cba: 85 14        	sta	$14                     ; 0x14 <__rc4>
    1cbc: a5 15        	lda	$15                     ; 0x15 <__rc5>
    1cbe: 69 00        	adc	#$0
    1cc0: 85 15        	sta	$15                     ; 0x15 <__rc5>
    1cc2: a0 01        	ldy	#$1
    1cc4: b1 16        	lda	($16),y                 ; 0x16 <__rc6>
    1cc6: d1 14        	cmp	($14),y                 ; 0x14 <__rc4>
    1cc8: d0 11        	bne	$1cdb <_ZN12_GLOBAL__N_13putEcP6Status+0x3f>
    1cca: a0 03        	ldy	#$3
    1ccc: 85 17        	sta	$17                     ; 0x17 <__rc7>
    1cce: b1 12        	lda	($12),y                 ; 0x12 <__zp_bss_size>
    1cd0: 85 14        	sta	$14                     ; 0x14 <__rc4>
    1cd2: 86 16        	stx	$16                     ; 0x16 <__rc6>
    1cd4: e4 14        	cpx	$14                     ; 0x14 <__rc4>
    1cd6: 90 0e        	bcc	$1ce6 <_ZN12_GLOBAL__N_13putEcP6Status+0x4a>
    1cd8: 4c 47 1d     	jmp	$1d47 <_ZN12_GLOBAL__N_13putEcP6Status+0xab>
    1cdb: 86 16        	stx	$16                     ; 0x16 <__rc6>
    1cdd: d1 14        	cmp	($14),y                 ; 0x14 <__rc4>
    1cdf: 85 17        	sta	$17                     ; 0x17 <__rc7>
    1ce1: 90 03        	bcc	$1ce6 <_ZN12_GLOBAL__N_13putEcP6Status+0x4a>
    1ce3: 4c 47 1d     	jmp	$1d47 <_ZN12_GLOBAL__N_13putEcP6Status+0xab>
    1ce6: a5 12        	lda	$12                     ; 0x12 <__zp_bss_size>
    1ce8: 18           	clc
    1ce9: 69 0f        	adc	#$f
    1ceb: 85 14        	sta	$14                     ; 0x14 <__rc4>
    1ced: a5 13        	lda	$13                     ; 0x13 <__rc3>
    1cef: 69 00        	adc	#$0
    1cf1: 85 15        	sta	$15                     ; 0x15 <__rc5>
    1cf3: a0 01        	ldy	#$1
    1cf5: b1 14        	lda	($14),y                 ; 0x14 <__rc4>
    1cf7: a2 00        	ldx	#$0
    1cf9: 86 14        	stx	$14                     ; 0x14 <__rc4>
    1cfb: a2 00        	ldx	#$0
    1cfd: 86 15        	stx	$15                     ; 0x15 <__rc5>
    1cff: c5 15        	cmp	$15                     ; 0x15 <__rc5>
    1d01: d0 2d        	bne	$1d30 <_ZN12_GLOBAL__N_13putEcP6Status+0x94>
    1d03: a0 0f        	ldy	#$f
    1d05: b1 12        	lda	($12),y                 ; 0x12 <__zp_bss_size>
    1d07: c5 14        	cmp	$14                     ; 0x14 <__rc4>
    1d09: d0 25        	bne	$1d30 <_ZN12_GLOBAL__N_13putEcP6Status+0x94>
    1d0b: a5 12        	lda	$12                     ; 0x12 <__zp_bss_size>
    1d0d: 18           	clc
    1d0e: 69 09        	adc	#$9
    1d10: 85 14        	sta	$14                     ; 0x14 <__rc4>
    1d12: a5 13        	lda	$13                     ; 0x13 <__rc3>
    1d14: 69 00        	adc	#$0
    1d16: a0 09        	ldy	#$9
    1d18: 85 15        	sta	$15                     ; 0x15 <__rc5>
    1d1a: 18           	clc
    1d1b: a5 16        	lda	$16                     ; 0x16 <__rc6>
    1d1d: 71 12        	adc	($12),y                 ; 0x12 <__zp_bss_size>
    1d1f: aa           	tax
    1d20: a0 01        	ldy	#$1
    1d22: a5 17        	lda	$17                     ; 0x17 <__rc7>
    1d24: 71 14        	adc	($14),y                 ; 0x14 <__rc4>
    1d26: 86 14        	stx	$14                     ; 0x14 <__rc4>
    1d28: 85 15        	sta	$15                     ; 0x15 <__rc5>
    1d2a: a5 18        	lda	$18                     ; 0x18 <__rc8>
    1d2c: 92 14        	sta	($14)                   ; 0x14 <__rc4>
    1d2e: 80 17        	bra	$1d47 <_ZN12_GLOBAL__N_13putEcP6Status+0xab>
    1d30: a6 12        	ldx	$12                     ; 0x12 <__zp_bss_size>
    1d32: 86 b2        	stx	$b2                     ; 0xb2 <__rc31+0x83>
    1d34: a6 13        	ldx	$13                     ; 0x13 <__rc3>
    1d36: 86 b3        	stx	$b3                     ; 0xb3 <__rc31+0x84>
    1d38: a2 00        	ldx	#$0
    1d3a: a5 18        	lda	$18                     ; 0x18 <__rc8>
    1d3c: 20 b3 2b     	jsr	$2bb3 <putchar>
    1d3f: a6 b2        	ldx	$b2                     ; 0xb2 <__rc31+0x83>
    1d41: 86 12        	stx	$12                     ; 0x12 <__zp_bss_size>
    1d43: a6 b3        	ldx	$b3                     ; 0xb3 <__rc31+0x84>
    1d45: 86 13        	stx	$13                     ; 0x13 <__rc3>
    1d47: a0 05        	ldy	#$5
    1d49: a5 12        	lda	$12                     ; 0x12 <__zp_bss_size>
    1d4b: 18           	clc
    1d4c: 69 05        	adc	#$5
    1d4e: 85 14        	sta	$14                     ; 0x14 <__rc4>
    1d50: a5 13        	lda	$13                     ; 0x13 <__rc3>
    1d52: 69 00        	adc	#$0
    1d54: 85 15        	sta	$15                     ; 0x15 <__rc5>
    1d56: b1 12        	lda	($12),y                 ; 0x12 <__zp_bss_size>
    1d58: aa           	tax
    1d59: 84 16        	sty	$16                     ; 0x16 <__rc6>
    1d5b: a0 01        	ldy	#$1
    1d5d: b1 14        	lda	($14),y                 ; 0x14 <__rc4>
    1d5f: 84 17        	sty	$17                     ; 0x17 <__rc7>
    1d61: e8           	inx
    1d62: d0 01        	bne	$1d65 <_ZN12_GLOBAL__N_13putEcP6Status+0xc9>
    1d64: 1a           	inc
    1d65: 85 18        	sta	$18                     ; 0x18 <__rc8>
    1d67: 8a           	txa
    1d68: a4 16        	ldy	$16                     ; 0x16 <__rc6>
    1d6a: 91 12        	sta	($12),y                 ; 0x12 <__zp_bss_size>
    1d6c: a4 17        	ldy	$17                     ; 0x17 <__rc7>
    1d6e: a5 18        	lda	$18                     ; 0x18 <__rc8>
    1d70: 91 14        	sta	($14),y                 ; 0x14 <__rc4>
    1d72: 60           	rts

00001d73 <_ZN12_GLOBAL__N_112print_stringEPKcP6Status>:
    1d73: a6 12        	ldx	$12                     ; 0x12 <__zp_bss_size>
    1d75: 86 a9        	stx	$a9                     ; 0xa9 <__rc31+0x7a>
    1d77: a6 13        	ldx	$13                     ; 0x13 <__rc3>
    1d79: 86 aa        	stx	$aa                     ; 0xaa <__rc31+0x7b>
    1d7b: a6 14        	ldx	$14                     ; 0x14 <__rc4>
    1d7d: 86 ab        	stx	$ab                     ; 0xab <__rc31+0x7c>
    1d7f: a6 15        	ldx	$15                     ; 0x15 <__rc5>
    1d81: 86 ac        	stx	$ac                     ; 0xac <__rc31+0x7d>
    1d83: a5 ab        	lda	$ab                     ; 0xab <__rc31+0x7c>
    1d85: 18           	clc
    1d86: 69 0d        	adc	#$d
    1d88: 85 12        	sta	$12                     ; 0x12 <__zp_bss_size>
    1d8a: a5 ac        	lda	$ac                     ; 0xac <__rc31+0x7d>
    1d8c: 69 00        	adc	#$0
    1d8e: 85 13        	sta	$13                     ; 0x13 <__rc3>
    1d90: a0 01        	ldy	#$1
    1d92: b1 12        	lda	($12),y                 ; 0x12 <__zp_bss_size>
    1d94: 30 14        	bmi	$1daa <_ZN12_GLOBAL__N_112print_stringEPKcP6Status+0x37>
    1d96: a0 0d        	ldy	#$d
    1d98: aa           	tax
    1d99: b1 ab        	lda	($ab),y                 ; 0xab <__rc31+0x7c>
    1d9b: 86 ae        	stx	$ae                     ; 0xae <__rc31+0x7f>
    1d9d: e0 00        	cpx	#$0
    1d9f: d0 0e        	bne	$1daf <_ZN12_GLOBAL__N_112print_stringEPKcP6Status+0x3c>
    1da1: aa           	tax
    1da2: d0 0b        	bne	$1daf <_ZN12_GLOBAL__N_112print_stringEPKcP6Status+0x3c>
    1da4: 64 ad        	stz	$ad                     ; 0xad <__rc31+0x7e>
    1da6: 64 ae        	stz	$ae                     ; 0xae <__rc31+0x7f>
    1da8: 80 36        	bra	$1de0 <_ZN12_GLOBAL__N_112print_stringEPKcP6Status+0x6d>
    1daa: a9 ff        	lda	#$ff
    1dac: aa           	tax
    1dad: 86 ae        	stx	$ae                     ; 0xae <__rc31+0x7f>
    1daf: 85 ad        	sta	$ad                     ; 0xad <__rc31+0x7e>
    1db1: 64 12        	stz	$12                     ; 0x12 <__zp_bss_size>
    1db3: a4 a9        	ldy	$a9                     ; 0xa9 <__rc31+0x7a>
    1db5: a6 aa        	ldx	$aa                     ; 0xaa <__rc31+0x7b>
    1db7: 86 16        	stx	$16                     ; 0x16 <__rc6>
    1db9: 64 13        	stz	$13                     ; 0x13 <__rc3>
    1dbb: 98           	tya
    1dbc: 18           	clc
    1dbd: 65 12        	adc	$12                     ; 0x12 <__zp_bss_size>
    1dbf: 85 14        	sta	$14                     ; 0x14 <__rc4>
    1dc1: a5 aa        	lda	$aa                     ; 0xaa <__rc31+0x7b>
    1dc3: 65 13        	adc	$13                     ; 0x13 <__rc3>
    1dc5: 85 15        	sta	$15                     ; 0x15 <__rc5>
    1dc7: b2 14        	lda	($14)                   ; 0x14 <__rc4>
    1dc9: d0 03        	bne	$1dce <_ZN12_GLOBAL__N_112print_stringEPKcP6Status+0x5b>
    1dcb: 4c 77 1e     	jmp	$1e77 <_ZN12_GLOBAL__N_112print_stringEPKcP6Status+0x104>
    1dce: e6 12        	inc	$12                     ; 0x12 <__zp_bss_size>
    1dd0: d0 02        	bne	$1dd4 <_ZN12_GLOBAL__N_112print_stringEPKcP6Status+0x61>
    1dd2: e6 13        	inc	$13                     ; 0x13 <__rc3>
    1dd4: a6 ae        	ldx	$ae                     ; 0xae <__rc31+0x7f>
    1dd6: e4 13        	cpx	$13                     ; 0x13 <__rc3>
    1dd8: d0 e1        	bne	$1dbb <_ZN12_GLOBAL__N_112print_stringEPKcP6Status+0x48>
    1dda: a6 ad        	ldx	$ad                     ; 0xad <__rc31+0x7e>
    1ddc: e4 12        	cpx	$12                     ; 0x12 <__zp_bss_size>
    1dde: d0 db        	bne	$1dbb <_ZN12_GLOBAL__N_112print_stringEPKcP6Status+0x48>
    1de0: a0 01        	ldy	#$1
    1de2: b1 ab        	lda	($ab),y                 ; 0xab <__rc31+0x7c>
    1de4: 29 01        	and	#$1
    1de6: f0 03        	beq	$1deb <_ZN12_GLOBAL__N_112print_stringEPKcP6Status+0x78>
    1de8: 4c 49 1e     	jmp	$1e49 <_ZN12_GLOBAL__N_112print_stringEPKcP6Status+0xd6>
    1deb: a5 ab        	lda	$ab                     ; 0xab <__rc31+0x7c>
    1ded: 18           	clc
    1dee: 69 0b        	adc	#$b
    1df0: 85 14        	sta	$14                     ; 0x14 <__rc4>
    1df2: a5 ac        	lda	$ac                     ; 0xac <__rc31+0x7d>
    1df4: 69 00        	adc	#$0
    1df6: 85 15        	sta	$15                     ; 0x15 <__rc5>
    1df8: 84 12        	sty	$12                     ; 0x12 <__zp_bss_size>
    1dfa: a0 0b        	ldy	#$b
    1dfc: b1 ab        	lda	($ab),y                 ; 0xab <__rc31+0x7c>
    1dfe: 85 13        	sta	$13                     ; 0x13 <__rc3>
    1e00: a4 12        	ldy	$12                     ; 0x12 <__zp_bss_size>
    1e02: b1 14        	lda	($14),y                 ; 0x14 <__rc4>
    1e04: 85 12        	sta	$12                     ; 0x12 <__zp_bss_size>
    1e06: a6 ae        	ldx	$ae                     ; 0xae <__rc31+0x7f>
    1e08: e4 12        	cpx	$12                     ; 0x12 <__zp_bss_size>
    1e0a: d0 08        	bne	$1e14 <_ZN12_GLOBAL__N_112print_stringEPKcP6Status+0xa1>
    1e0c: a6 ad        	ldx	$ad                     ; 0xad <__rc31+0x7e>
    1e0e: e4 13        	cpx	$13                     ; 0x13 <__rc3>
    1e10: 90 06        	bcc	$1e18 <_ZN12_GLOBAL__N_112print_stringEPKcP6Status+0xa5>
    1e12: 80 35        	bra	$1e49 <_ZN12_GLOBAL__N_112print_stringEPKcP6Status+0xd6>
    1e14: e4 12        	cpx	$12                     ; 0x12 <__zp_bss_size>
    1e16: b0 31        	bcs	$1e49 <_ZN12_GLOBAL__N_112print_stringEPKcP6Status+0xd6>
    1e18: 38           	sec
    1e19: a5 ad        	lda	$ad                     ; 0xad <__rc31+0x7e>
    1e1b: e5 13        	sbc	$13                     ; 0x13 <__rc3>
    1e1d: a8           	tay
    1e1e: a5 ae        	lda	$ae                     ; 0xae <__rc31+0x7f>
    1e20: e5 12        	sbc	$12                     ; 0x12 <__zp_bss_size>
    1e22: 85 b0        	sta	$b0                     ; 0xb0 <__rc31+0x81>
    1e24: a2 20        	ldx	#$20
    1e26: 86 b1        	stx	$b1                     ; 0xb1 <__rc31+0x82>
    1e28: a6 ab        	ldx	$ab                     ; 0xab <__rc31+0x7c>
    1e2a: 86 12        	stx	$12                     ; 0x12 <__zp_bss_size>
    1e2c: a6 ac        	ldx	$ac                     ; 0xac <__rc31+0x7d>
    1e2e: 86 13        	stx	$13                     ; 0x13 <__rc3>
    1e30: 84 af        	sty	$af                     ; 0xaf <__rc31+0x80>
    1e32: a5 b1        	lda	$b1                     ; 0xb1 <__rc31+0x82>
    1e34: 20 9c 1c     	jsr	$1c9c <_ZN12_GLOBAL__N_13putEcP6Status>
    1e37: a6 b0        	ldx	$b0                     ; 0xb0 <__rc31+0x81>
    1e39: e6 af        	inc	$af                     ; 0xaf <__rc31+0x80>
    1e3b: d0 01        	bne	$1e3e <_ZN12_GLOBAL__N_112print_stringEPKcP6Status+0xcb>
    1e3d: e8           	inx
    1e3e: 86 b0        	stx	$b0                     ; 0xb0 <__rc31+0x81>
    1e40: a4 af        	ldy	$af                     ; 0xaf <__rc31+0x80>
    1e42: 8a           	txa
    1e43: d0 e3        	bne	$1e28 <_ZN12_GLOBAL__N_112print_stringEPKcP6Status+0xb5>
    1e45: a5 af        	lda	$af                     ; 0xaf <__rc31+0x80>
    1e47: d0 df        	bne	$1e28 <_ZN12_GLOBAL__N_112print_stringEPKcP6Status+0xb5>
    1e49: a5 ae        	lda	$ae                     ; 0xae <__rc31+0x7f>
    1e4b: d0 04        	bne	$1e51 <_ZN12_GLOBAL__N_112print_stringEPKcP6Status+0xde>
    1e4d: a5 ad        	lda	$ad                     ; 0xad <__rc31+0x7e>
    1e4f: f0 25        	beq	$1e76 <_ZN12_GLOBAL__N_112print_stringEPKcP6Status+0x103>
    1e51: a2 ff        	ldx	#$ff
    1e53: c6 ad        	dec	$ad                     ; 0xad <__rc31+0x7e>
    1e55: e4 ad        	cpx	$ad                     ; 0xad <__rc31+0x7e>
    1e57: d0 02        	bne	$1e5b <_ZN12_GLOBAL__N_112print_stringEPKcP6Status+0xe8>
    1e59: c6 ae        	dec	$ae                     ; 0xae <__rc31+0x7f>
    1e5b: b2 a9        	lda	($a9)                   ; 0xa9 <__rc31+0x7a>
    1e5d: e6 a9        	inc	$a9                     ; 0xa9 <__rc31+0x7a>
    1e5f: d0 02        	bne	$1e63 <_ZN12_GLOBAL__N_112print_stringEPKcP6Status+0xf0>
    1e61: e6 aa        	inc	$aa                     ; 0xaa <__rc31+0x7b>
    1e63: a6 ab        	ldx	$ab                     ; 0xab <__rc31+0x7c>
    1e65: 86 12        	stx	$12                     ; 0x12 <__zp_bss_size>
    1e67: a6 ac        	ldx	$ac                     ; 0xac <__rc31+0x7d>
    1e69: 86 13        	stx	$13                     ; 0x13 <__rc3>
    1e6b: 20 9c 1c     	jsr	$1c9c <_ZN12_GLOBAL__N_13putEcP6Status>
    1e6e: a5 ae        	lda	$ae                     ; 0xae <__rc31+0x7f>
    1e70: d0 df        	bne	$1e51 <_ZN12_GLOBAL__N_112print_stringEPKcP6Status+0xde>
    1e72: a5 ad        	lda	$ad                     ; 0xad <__rc31+0x7e>
    1e74: d0 db        	bne	$1e51 <_ZN12_GLOBAL__N_112print_stringEPKcP6Status+0xde>
    1e76: 60           	rts
    1e77: a6 12        	ldx	$12                     ; 0x12 <__zp_bss_size>
    1e79: 86 ad        	stx	$ad                     ; 0xad <__rc31+0x7e>
    1e7b: a6 13        	ldx	$13                     ; 0x13 <__rc3>
    1e7d: 86 ae        	stx	$ae                     ; 0xae <__rc31+0x7f>
    1e7f: 4c e0 1d     	jmp	$1de0 <_ZN12_GLOBAL__N_112print_stringEPKcP6Status+0x6d>

00001e82 <printf>:
    1e82: 18           	clc
    1e83: a6 10        	ldx	$10                     ; 0x10 <__rc0>
    1e85: a4 11        	ldy	$11                     ; 0x11 <__rc1>
    1e87: 86 9e        	stx	$9e                     ; 0x9e <__rc31+0x6f>
    1e89: 84 9f        	sty	$9f                     ; 0x9f <__rc31+0x70>
    1e8b: a6 9e        	ldx	$9e                     ; 0x9e <__rc31+0x6f>
    1e8d: a4 9f        	ldy	$9f                     ; 0x9f <__rc31+0x70>
    1e8f: 86 89        	stx	$89                     ; 0x89 <__rc31+0x5a>
    1e91: 84 8a        	sty	$8a                     ; 0x8a <__rc31+0x5b>
    1e93: a2 ff        	ldx	#$ff
    1e95: 86 8e        	stx	$8e                     ; 0x8e <__rc31+0x5f>
    1e97: 86 8f        	stx	$8f                     ; 0x8f <__rc31+0x60>
    1e99: 64 90        	stz	$90                     ; 0x90 <__rc31+0x61>
    1e9b: 64 91        	stz	$91                     ; 0x91 <__rc31+0x62>
    1e9d: e8           	inx
    1e9e: 86 12        	stx	$12                     ; 0x12 <__zp_bss_size>
    1ea0: a2 00        	ldx	#$0
    1ea2: 86 13        	stx	$13                     ; 0x13 <__rc3>
    1ea4: a6 12        	ldx	$12                     ; 0x12 <__zp_bss_size>
    1ea6: a4 13        	ldy	$13                     ; 0x13 <__rc3>
    1ea8: 86 94        	stx	$94                     ; 0x94 <__rc31+0x65>
    1eaa: 84 95        	sty	$95                     ; 0x95 <__rc31+0x66>
    1eac: a2 02        	ldx	#$2
    1eae: 86 9a        	stx	$9a                     ; 0x9a <__rc31+0x6b>
    1eb0: 64 9b        	stz	$9b                     ; 0x9b <__rc31+0x6c>
    1eb2: a6 89        	ldx	$89                     ; 0x89 <__rc31+0x5a>
    1eb4: a4 8a        	ldy	$8a                     ; 0x8a <__rc31+0x5b>
    1eb6: 86 9c        	stx	$9c                     ; 0x9c <__rc31+0x6d>
    1eb8: 84 9d        	sty	$9d                     ; 0x9d <__rc31+0x6e>
    1eba: a2 80        	ldx	#$80
    1ebc: a0 00        	ldy	#$0
    1ebe: 86 12        	stx	$12                     ; 0x12 <__zp_bss_size>
    1ec0: 84 13        	sty	$13                     ; 0x13 <__rc3>
    1ec2: a0 01        	ldy	#$1
    1ec4: a9 67        	lda	#$67
    1ec6: 18           	clc
    1ec7: 69 02        	adc	#$2
    1ec9: 85 a7        	sta	$a7                     ; 0xa7 <__rc31+0x78>
    1ecb: a9 00        	lda	#$0
    1ecd: 69 00        	adc	#$0
    1ecf: 85 a8        	sta	$a8                     ; 0xa8 <__rc31+0x79>
    1ed1: e6 12        	inc	$12                     ; 0x12 <__zp_bss_size>
    1ed3: d0 02        	bne	$1ed7 <printf+0x55>
    1ed5: e6 13        	inc	$13                     ; 0x13 <__rc3>
    1ed7: a6 12        	ldx	$12                     ; 0x12 <__zp_bss_size>
    1ed9: 86 a3        	stx	$a3                     ; 0xa3 <__rc31+0x74>
    1edb: a6 13        	ldx	$13                     ; 0x13 <__rc3>
    1edd: 86 a4        	stx	$a4                     ; 0xa4 <__rc31+0x75>
    1edf: a2 47        	ldx	#$47
    1ee1: 86 5f        	stx	$5f                     ; 0x5f <__rc31+0x30>
    1ee3: a2 31        	ldx	#$31
    1ee5: 86 60        	stx	$60                     ; 0x60 <__rc31+0x31>
    1ee7: a6 5f        	ldx	$5f                     ; 0x5f <__rc31+0x30>
    1ee9: 86 5d        	stx	$5d                     ; 0x5d <__rc31+0x2e>
    1eeb: a6 60        	ldx	$60                     ; 0x60 <__rc31+0x31>
    1eed: 86 5e        	stx	$5e                     ; 0x5e <__rc31+0x2f>
    1eef: b2 5f        	lda	($5f)                   ; 0x5f <__rc31+0x30>
    1ef1: c9 25        	cmp	#$25
    1ef3: f0 26        	beq	$1f1b <printf+0x99>
    1ef5: a2 00        	ldx	#$0
    1ef7: c9 00        	cmp	#$0
    1ef9: d0 03        	bne	$1efe <printf+0x7c>
    1efb: 4c b2 2b     	jmp	$2bb2 <printf+0xd30>
    1efe: 84 5f        	sty	$5f                     ; 0x5f <__rc31+0x30>
    1f00: 20 b3 2b     	jsr	$2bb3 <putchar>
    1f03: a4 5f        	ldy	$5f                     ; 0x5f <__rc31+0x30>
    1f05: e6 5d        	inc	$5d                     ; 0x5d <__rc31+0x2e>
    1f07: d0 02        	bne	$1f0b <printf+0x89>
    1f09: e6 5e        	inc	$5e                     ; 0x5e <__rc31+0x2f>
    1f0b: e6 90        	inc	$90                     ; 0x90 <__rc31+0x61>
    1f0d: d0 02        	bne	$1f11 <printf+0x8f>
    1f0f: e6 91        	inc	$91                     ; 0x91 <__rc31+0x62>
    1f11: a6 5d        	ldx	$5d                     ; 0x5d <__rc31+0x2e>
    1f13: 86 5f        	stx	$5f                     ; 0x5f <__rc31+0x30>
    1f15: a6 5e        	ldx	$5e                     ; 0x5e <__rc31+0x2f>
    1f17: 86 60        	stx	$60                     ; 0x60 <__rc31+0x31>
    1f19: 80 cc        	bra	$1ee7 <printf+0x65>
    1f1b: a6 5f        	ldx	$5f                     ; 0x5f <__rc31+0x30>
    1f1d: 86 12        	stx	$12                     ; 0x12 <__zp_bss_size>
    1f1f: a6 60        	ldx	$60                     ; 0x60 <__rc31+0x31>
    1f21: 86 13        	stx	$13                     ; 0x13 <__rc3>
    1f23: e6 12        	inc	$12                     ; 0x12 <__zp_bss_size>
    1f25: d0 02        	bne	$1f29 <printf+0xa7>
    1f27: e6 13        	inc	$13                     ; 0x13 <__rc3>
    1f29: b1 5d        	lda	($5d),y                 ; 0x5d <__rc31+0x2e>
    1f2b: c9 25        	cmp	#$25
    1f2d: d0 18        	bne	$1f47 <printf+0xc5>
    1f2f: a2 01        	ldx	#$1
    1f31: 86 13        	stx	$13                     ; 0x13 <__rc3>
    1f33: a5 90        	lda	$90                     ; 0x90 <__rc31+0x61>
    1f35: a4 91        	ldy	$91                     ; 0x91 <__rc31+0x62>
    1f37: c4 8f        	cpy	$8f                     ; 0x8f <__rc31+0x60>
    1f39: f0 03        	beq	$1f3e <printf+0xbc>
    1f3b: 4c 57 20     	jmp	$2057 <printf+0x1d5>
    1f3e: a6 8e        	ldx	$8e                     ; 0x8e <__rc31+0x5f>
    1f40: 86 12        	stx	$12                     ; 0x12 <__zp_bss_size>
    1f42: c5 12        	cmp	$12                     ; 0x12 <__zp_bss_size>
    1f44: 4c 59 20     	jmp	$2059 <printf+0x1d7>
    1f47: a2 01        	ldx	#$1
    1f49: 86 15        	stx	$15                     ; 0x15 <__rc5>
    1f4b: 64 8c        	stz	$8c                     ; 0x8c <__rc31+0x5d>
    1f4d: 64 8d        	stz	$8d                     ; 0x8d <__rc31+0x5e>
    1f4f: 64 8b        	stz	$8b                     ; 0x8b <__rc31+0x5c>
    1f51: 64 96        	stz	$96                     ; 0x96 <__rc31+0x67>
    1f53: 64 97        	stz	$97                     ; 0x97 <__rc31+0x68>
    1f55: a2 ff        	ldx	#$ff
    1f57: 86 98        	stx	$98                     ; 0x98 <__rc31+0x69>
    1f59: 86 99        	stx	$99                     ; 0x99 <__rc31+0x6a>
    1f5b: 64 5b        	stz	$5b                     ; 0x5b <__rc31+0x2c>
    1f5d: 80 33        	bra	$1f92 <printf+0x110>
    1f5f: a2 02        	ldx	#$2
    1f61: 80 15        	bra	$1f78 <printf+0xf6>
    1f63: e0 20        	cpx	#$20
    1f65: f0 15        	beq	$1f7c <printf+0xfa>
    1f67: 86 16        	stx	$16                     ; 0x16 <__rc6>
    1f69: e0 23        	cpx	#$23
    1f6b: f0 03        	beq	$1f70 <printf+0xee>
    1f6d: 4c ef 1f     	jmp	$1fef <printf+0x16d>
    1f70: a5 5b        	lda	$5b                     ; 0x5b <__rc31+0x2c>
    1f72: a2 04        	ldx	#$4
    1f74: 80 02        	bra	$1f78 <printf+0xf6>
    1f76: a2 10        	ldx	#$10
    1f78: 86 14        	stx	$14                     ; 0x14 <__rc4>
    1f7a: 80 06        	bra	$1f82 <printf+0x100>
    1f7c: a2 08        	ldx	#$8
    1f7e: 86 14        	stx	$14                     ; 0x14 <__rc4>
    1f80: a5 5b        	lda	$5b                     ; 0x5b <__rc31+0x2c>
    1f82: 05 14        	ora	$14                     ; 0x14 <__rc4>
    1f84: 85 5b        	sta	$5b                     ; 0x5b <__rc31+0x2c>
    1f86: 85 8c        	sta	$8c                     ; 0x8c <__rc31+0x5d>
    1f88: a2 00        	ldx	#$0
    1f8a: 86 8d        	stx	$8d                     ; 0x8d <__rc31+0x5e>
    1f8c: e6 12        	inc	$12                     ; 0x12 <__zp_bss_size>
    1f8e: d0 02        	bne	$1f92 <printf+0x110>
    1f90: e6 13        	inc	$13                     ; 0x13 <__rc3>
    1f92: b2 12        	lda	($12)                   ; 0x12 <__zp_bss_size>
    1f94: aa           	tax
    1f95: 18           	clc
    1f96: 69 d6        	adc	#$d6
    1f98: c9 07        	cmp	#$7
    1f9a: b0 c7        	bcs	$1f63 <printf+0xe1>
    1f9c: 86 16        	stx	$16                     ; 0x16 <__rc6>
    1f9e: 0a           	asl
    1f9f: aa           	tax
    1fa0: a0 01        	ldy	#$1
    1fa2: 84 14        	sty	$14                     ; 0x14 <__rc4>
    1fa4: a5 5b        	lda	$5b                     ; 0x5b <__rc31+0x2c>
    1fa6: 7c dd 30     	jmp	($30dd,x)               ; 0x30dd <__BLOCK_SIZE+0x10dd>
    1fa9: a5 9c        	lda	$9c                     ; 0x9c <__rc31+0x6d>
    1fab: a6 9d        	ldx	$9d                     ; 0x9d <__rc31+0x6e>
    1fad: 85 16        	sta	$16                     ; 0x16 <__rc6>
    1faf: 86 17        	stx	$17                     ; 0x17 <__rc7>
    1fb1: 18           	clc
    1fb2: 69 02        	adc	#$2
    1fb4: a8           	tay
    1fb5: 8a           	txa
    1fb6: 69 00        	adc	#$0
    1fb8: 84 9c        	sty	$9c                     ; 0x9c <__rc31+0x6d>
    1fba: 85 9d        	sta	$9d                     ; 0x9d <__rc31+0x6e>
    1fbc: b2 16        	lda	($16)                   ; 0x16 <__rc6>
    1fbe: 85 15        	sta	$15                     ; 0x15 <__rc5>
    1fc0: a0 01        	ldy	#$1
    1fc2: b1 16        	lda	($16),y                 ; 0x16 <__rc6>
    1fc4: 85 14        	sta	$14                     ; 0x14 <__rc4>
    1fc6: 10 15        	bpl	$1fdd <printf+0x15b>
    1fc8: a5 5b        	lda	$5b                     ; 0x5b <__rc31+0x2c>
    1fca: 09 01        	ora	#$1
    1fcc: 85 5b        	sta	$5b                     ; 0x5b <__rc31+0x2c>
    1fce: 85 8c        	sta	$8c                     ; 0x8c <__rc31+0x5d>
    1fd0: a2 00        	ldx	#$0
    1fd2: 86 8d        	stx	$8d                     ; 0x8d <__rc31+0x5e>
    1fd4: 8a           	txa
    1fd5: 38           	sec
    1fd6: e5 15        	sbc	$15                     ; 0x15 <__rc5>
    1fd8: 85 15        	sta	$15                     ; 0x15 <__rc5>
    1fda: 8a           	txa
    1fdb: e5 14        	sbc	$14                     ; 0x14 <__rc4>
    1fdd: a6 15        	ldx	$15                     ; 0x15 <__rc5>
    1fdf: 86 96        	stx	$96                     ; 0x96 <__rc31+0x67>
    1fe1: 85 97        	sta	$97                     ; 0x97 <__rc31+0x68>
    1fe3: e6 12        	inc	$12                     ; 0x12 <__zp_bss_size>
    1fe5: f0 03        	beq	$1fea <printf+0x168>
    1fe7: 4c ba 20     	jmp	$20ba <printf+0x238>
    1fea: e6 13        	inc	$13                     ; 0x13 <__rc3>
    1fec: 4c ba 20     	jmp	$20ba <printf+0x238>
    1fef: a5 16        	lda	$16                     ; 0x16 <__rc6>
    1ff1: 18           	clc
    1ff2: 69 d0        	adc	#$d0
    1ff4: c9 0a        	cmp	#$a
    1ff6: 90 03        	bcc	$1ffb <printf+0x179>
    1ff8: 4c ac 20     	jmp	$20ac <printf+0x22a>
    1ffb: a6 16        	ldx	$16                     ; 0x16 <__rc6>
    1ffd: 86 14        	stx	$14                     ; 0x14 <__rc4>
    1fff: 64 16        	stz	$16                     ; 0x16 <__rc6>
    2001: 64 15        	stz	$15                     ; 0x15 <__rc5>
    2003: 64 17        	stz	$17                     ; 0x17 <__rc7>
    2005: a0 01        	ldy	#$1
    2007: a2 00        	ldx	#$0
    2009: 06 16        	asl	$16                     ; 0x16 <__rc6>
    200b: 26 17        	rol	$17                     ; 0x17 <__rc7>
    200d: a5 16        	lda	$16                     ; 0x16 <__rc6>
    200f: 0a           	asl
    2010: 85 18        	sta	$18                     ; 0x18 <__rc8>
    2012: a5 17        	lda	$17                     ; 0x17 <__rc7>
    2014: 2a           	rol
    2015: 06 18        	asl	$18                     ; 0x18 <__rc8>
    2017: 2a           	rol
    2018: 85 19        	sta	$19                     ; 0x19 <__rc9>
    201a: a5 18        	lda	$18                     ; 0x18 <__rc8>
    201c: 18           	clc
    201d: 65 16        	adc	$16                     ; 0x16 <__rc6>
    201f: 85 16        	sta	$16                     ; 0x16 <__rc6>
    2021: a5 19        	lda	$19                     ; 0x19 <__rc9>
    2023: 65 17        	adc	$17                     ; 0x17 <__rc7>
    2025: 85 17        	sta	$17                     ; 0x17 <__rc7>
    2027: a5 16        	lda	$16                     ; 0x16 <__rc6>
    2029: 18           	clc
    202a: 65 14        	adc	$14                     ; 0x14 <__rc4>
    202c: 85 14        	sta	$14                     ; 0x14 <__rc4>
    202e: a5 17        	lda	$17                     ; 0x17 <__rc7>
    2030: 65 15        	adc	$15                     ; 0x15 <__rc5>
    2032: 85 15        	sta	$15                     ; 0x15 <__rc5>
    2034: 18           	clc
    2035: a5 14        	lda	$14                     ; 0x14 <__rc4>
    2037: 69 d0        	adc	#$d0
    2039: 85 16        	sta	$16                     ; 0x16 <__rc6>
    203b: a5 15        	lda	$15                     ; 0x15 <__rc5>
    203d: 69 ff        	adc	#$ff
    203f: 85 17        	sta	$17                     ; 0x17 <__rc7>
    2041: b1 12        	lda	($12),y                 ; 0x12 <__zp_bss_size>
    2043: 85 14        	sta	$14                     ; 0x14 <__rc4>
    2045: 18           	clc
    2046: 69 d0        	adc	#$d0
    2048: e6 12        	inc	$12                     ; 0x12 <__zp_bss_size>
    204a: d0 02        	bne	$204e <printf+0x1cc>
    204c: e6 13        	inc	$13                     ; 0x13 <__rc3>
    204e: c9 0a        	cmp	#$a
    2050: 64 15        	stz	$15                     ; 0x15 <__rc5>
    2052: 90 b5        	bcc	$2009 <printf+0x187>
    2054: 4c b2 20     	jmp	$20b2 <printf+0x230>
    2057: c4 8f        	cpy	$8f                     ; 0x8f <__rc31+0x60>
    2059: 84 16        	sty	$16                     ; 0x16 <__rc6>
    205b: a4 13        	ldy	$13                     ; 0x13 <__rc3>
    205d: b0 37        	bcs	$2096 <printf+0x214>
    205f: a2 01        	ldx	#$1
    2061: 86 14        	stx	$14                     ; 0x14 <__rc4>
    2063: a6 9b        	ldx	$9b                     ; 0x9b <__rc31+0x6c>
    2065: a0 00        	ldy	#$0
    2067: 84 12        	sty	$12                     ; 0x12 <__zp_bss_size>
    2069: a0 00        	ldy	#$0
    206b: 84 13        	sty	$13                     ; 0x13 <__rc3>
    206d: e4 13        	cpx	$13                     ; 0x13 <__rc3>
    206f: d0 19        	bne	$208a <printf+0x208>
    2071: a6 9a        	ldx	$9a                     ; 0x9a <__rc31+0x6b>
    2073: e4 12        	cpx	$12                     ; 0x12 <__zp_bss_size>
    2075: d0 13        	bne	$208a <printf+0x208>
    2077: a4 14        	ldy	$14                     ; 0x14 <__rc4>
    2079: 18           	clc
    207a: 65 94        	adc	$94                     ; 0x94 <__rc31+0x65>
    207c: 85 12        	sta	$12                     ; 0x12 <__zp_bss_size>
    207e: a5 16        	lda	$16                     ; 0x16 <__rc6>
    2080: 65 95        	adc	$95                     ; 0x95 <__rc31+0x66>
    2082: 85 13        	sta	$13                     ; 0x13 <__rc3>
    2084: a9 25        	lda	#$25
    2086: 92 12        	sta	($12)                   ; 0x12 <__zp_bss_size>
    2088: 80 0c        	bra	$2096 <printf+0x214>
    208a: a2 01        	ldx	#$1
    208c: 86 5f        	stx	$5f                     ; 0x5f <__rc31+0x30>
    208e: ca           	dex
    208f: a9 25        	lda	#$25
    2091: 20 b3 2b     	jsr	$2bb3 <putchar>
    2094: a4 5f        	ldy	$5f                     ; 0x5f <__rc31+0x30>
    2096: e6 90        	inc	$90                     ; 0x90 <__rc31+0x61>
    2098: d0 02        	bne	$209c <printf+0x21a>
    209a: e6 91        	inc	$91                     ; 0x91 <__rc31+0x62>
    209c: a5 5d        	lda	$5d                     ; 0x5d <__rc31+0x2e>
    209e: 18           	clc
    209f: 69 02        	adc	#$2
    20a1: 85 5f        	sta	$5f                     ; 0x5f <__rc31+0x30>
    20a3: a5 5e        	lda	$5e                     ; 0x5e <__rc31+0x2f>
    20a5: 69 00        	adc	#$0
    20a7: 85 60        	sta	$60                     ; 0x60 <__rc31+0x31>
    20a9: 4c e7 1e     	jmp	$1ee7 <printf+0x65>
    20ac: 64 16        	stz	$16                     ; 0x16 <__rc6>
    20ae: 64 17        	stz	$17                     ; 0x17 <__rc7>
    20b0: a4 15        	ldy	$15                     ; 0x15 <__rc5>
    20b2: a6 16        	ldx	$16                     ; 0x16 <__rc6>
    20b4: 86 96        	stx	$96                     ; 0x96 <__rc31+0x67>
    20b6: a5 17        	lda	$17                     ; 0x17 <__rc7>
    20b8: 85 97        	sta	$97                     ; 0x97 <__rc31+0x68>
    20ba: 86 1a        	stx	$1a                     ; 0x1a <__rc10>
    20bc: 85 1e        	sta	$1e                     ; 0x1e <__rc14>
    20be: b2 12        	lda	($12)                   ; 0x12 <__zp_bss_size>
    20c0: a2 ff        	ldx	#$ff
    20c2: c9 2e        	cmp	#$2e
    20c4: d0 39        	bne	$20ff <printf+0x27d>
    20c6: b1 12        	lda	($12),y                 ; 0x12 <__zp_bss_size>
    20c8: c9 2a        	cmp	#$2a
    20ca: d0 38        	bne	$2104 <printf+0x282>
    20cc: a5 9c        	lda	$9c                     ; 0x9c <__rc31+0x6d>
    20ce: a6 9d        	ldx	$9d                     ; 0x9d <__rc31+0x6e>
    20d0: 85 14        	sta	$14                     ; 0x14 <__rc4>
    20d2: 86 15        	stx	$15                     ; 0x15 <__rc5>
    20d4: 18           	clc
    20d5: 69 02        	adc	#$2
    20d7: 85 16        	sta	$16                     ; 0x16 <__rc6>
    20d9: 8a           	txa
    20da: 69 00        	adc	#$0
    20dc: a6 16        	ldx	$16                     ; 0x16 <__rc6>
    20de: 86 9c        	stx	$9c                     ; 0x9c <__rc31+0x6d>
    20e0: 85 9d        	sta	$9d                     ; 0x9d <__rc31+0x6e>
    20e2: a5 12        	lda	$12                     ; 0x12 <__zp_bss_size>
    20e4: 18           	clc
    20e5: 69 02        	adc	#$2
    20e7: 85 12        	sta	$12                     ; 0x12 <__zp_bss_size>
    20e9: a5 13        	lda	$13                     ; 0x13 <__rc3>
    20eb: 69 00        	adc	#$0
    20ed: 85 13        	sta	$13                     ; 0x13 <__rc3>
    20ef: b2 14        	lda	($14)                   ; 0x14 <__rc4>
    20f1: aa           	tax
    20f2: b1 14        	lda	($14),y                 ; 0x14 <__rc4>
    20f4: 86 18        	stx	$18                     ; 0x18 <__rc8>
    20f6: 86 98        	stx	$98                     ; 0x98 <__rc31+0x69>
    20f8: 85 19        	sta	$19                     ; 0x19 <__rc9>
    20fa: 85 99        	sta	$99                     ; 0x99 <__rc31+0x6a>
    20fc: 4c c2 21     	jmp	$21c2 <printf+0x340>
    20ff: 86 18        	stx	$18                     ; 0x18 <__rc8>
    2101: 4c d2 21     	jmp	$21d2 <printf+0x350>
    2104: 18           	clc
    2105: 85 17        	sta	$17                     ; 0x17 <__rc7>
    2107: 69 d0        	adc	#$d0
    2109: c9 0a        	cmp	#$a
    210b: 90 03        	bcc	$2110 <printf+0x28e>
    210d: 4c b4 21     	jmp	$21b4 <printf+0x332>
    2110: 64 16        	stz	$16                     ; 0x16 <__rc6>
    2112: a2 01        	ldx	#$1
    2114: 64 18        	stz	$18                     ; 0x18 <__rc8>
    2116: 64 19        	stz	$19                     ; 0x19 <__rc9>
    2118: 84 1b        	sty	$1b                     ; 0x1b <__rc11>
    211a: 64 1c        	stz	$1c                     ; 0x1c <__rc12>
    211c: 18           	clc
    211d: a0 01        	ldy	#$1
    211f: b0 02        	bcs	$2123 <printf+0x2a1>
    2121: a0 00        	ldy	#$0
    2123: 84 1d        	sty	$1d                     ; 0x1d <__rc13>
    2125: a4 1c        	ldy	$1c                     ; 0x1c <__rc12>
    2127: 84 14        	sty	$14                     ; 0x14 <__rc4>
    2129: 86 15        	stx	$15                     ; 0x15 <__rc5>
    212b: 06 18        	asl	$18                     ; 0x18 <__rc8>
    212d: 26 19        	rol	$19                     ; 0x19 <__rc9>
    212f: a5 18        	lda	$18                     ; 0x18 <__rc8>
    2131: 0a           	asl
    2132: a8           	tay
    2133: a5 19        	lda	$19                     ; 0x19 <__rc9>
    2135: 2a           	rol
    2136: 84 1f        	sty	$1f                     ; 0x1f <__rc15>
    2138: 06 1f        	asl	$1f                     ; 0x1f <__rc15>
    213a: 2a           	rol
    213b: 85 22        	sta	$22                     ; 0x22 <__rc18>
    213d: a5 1f        	lda	$1f                     ; 0x1f <__rc15>
    213f: a4 1d        	ldy	$1d                     ; 0x1d <__rc13>
    2141: c0 01        	cpy	#$1
    2143: 65 18        	adc	$18                     ; 0x18 <__rc8>
    2145: 85 18        	sta	$18                     ; 0x18 <__rc8>
    2147: a5 22        	lda	$22                     ; 0x22 <__rc18>
    2149: 65 19        	adc	$19                     ; 0x19 <__rc9>
    214b: 85 19        	sta	$19                     ; 0x19 <__rc9>
    214d: a5 18        	lda	$18                     ; 0x18 <__rc8>
    214f: a4 1d        	ldy	$1d                     ; 0x1d <__rc13>
    2151: c0 01        	cpy	#$1
    2153: 65 17        	adc	$17                     ; 0x17 <__rc7>
    2155: 85 17        	sta	$17                     ; 0x17 <__rc7>
    2157: a5 19        	lda	$19                     ; 0x19 <__rc9>
    2159: 65 16        	adc	$16                     ; 0x16 <__rc6>
    215b: 85 16        	sta	$16                     ; 0x16 <__rc6>
    215d: 18           	clc
    215e: a5 17        	lda	$17                     ; 0x17 <__rc7>
    2160: 69 d0        	adc	#$d0
    2162: 85 18        	sta	$18                     ; 0x18 <__rc8>
    2164: a5 16        	lda	$16                     ; 0x16 <__rc6>
    2166: 69 ff        	adc	#$ff
    2168: 85 19        	sta	$19                     ; 0x19 <__rc9>
    216a: e8           	inx
    216b: d0 02        	bne	$216f <printf+0x2ed>
    216d: e6 1c        	inc	$1c                     ; 0x1c <__rc12>
    216f: a5 12        	lda	$12                     ; 0x12 <__zp_bss_size>
    2171: a4 1d        	ldy	$1d                     ; 0x1d <__rc13>
    2173: c0 01        	cpy	#$1
    2175: 65 15        	adc	$15                     ; 0x15 <__rc5>
    2177: a8           	tay
    2178: a5 13        	lda	$13                     ; 0x13 <__rc3>
    217a: 65 14        	adc	$14                     ; 0x14 <__rc4>
    217c: 84 16        	sty	$16                     ; 0x16 <__rc6>
    217e: 85 17        	sta	$17                     ; 0x17 <__rc7>
    2180: a4 1b        	ldy	$1b                     ; 0x1b <__rc11>
    2182: b1 16        	lda	($16),y                 ; 0x16 <__rc6>
    2184: 85 17        	sta	$17                     ; 0x17 <__rc7>
    2186: 18           	clc
    2187: 69 d0        	adc	#$d0
    2189: c9 0a        	cmp	#$a
    218b: 64 16        	stz	$16                     ; 0x16 <__rc6>
    218d: b0 03        	bcs	$2192 <printf+0x310>
    218f: 4c 25 21     	jmp	$2125 <printf+0x2a3>
    2192: a5 12        	lda	$12                     ; 0x12 <__zp_bss_size>
    2194: a6 1d        	ldx	$1d                     ; 0x1d <__rc13>
    2196: e0 01        	cpx	#$1
    2198: 65 15        	adc	$15                     ; 0x15 <__rc5>
    219a: 85 12        	sta	$12                     ; 0x12 <__zp_bss_size>
    219c: a5 13        	lda	$13                     ; 0x13 <__rc3>
    219e: 65 14        	adc	$14                     ; 0x14 <__rc4>
    21a0: 85 13        	sta	$13                     ; 0x13 <__rc3>
    21a2: e6 12        	inc	$12                     ; 0x12 <__zp_bss_size>
    21a4: d0 02        	bne	$21a8 <printf+0x326>
    21a6: e6 13        	inc	$13                     ; 0x13 <__rc3>
    21a8: a6 18        	ldx	$18                     ; 0x18 <__rc8>
    21aa: 86 98        	stx	$98                     ; 0x98 <__rc31+0x69>
    21ac: a6 19        	ldx	$19                     ; 0x19 <__rc9>
    21ae: 86 99        	stx	$99                     ; 0x99 <__rc31+0x6a>
    21b0: a4 1b        	ldy	$1b                     ; 0x1b <__rc11>
    21b2: 80 0e        	bra	$21c2 <printf+0x340>
    21b4: e6 12        	inc	$12                     ; 0x12 <__zp_bss_size>
    21b6: d0 02        	bne	$21ba <printf+0x338>
    21b8: e6 13        	inc	$13                     ; 0x13 <__rc3>
    21ba: 64 18        	stz	$18                     ; 0x18 <__rc8>
    21bc: 64 98        	stz	$98                     ; 0x98 <__rc31+0x69>
    21be: 64 99        	stz	$99                     ; 0x99 <__rc31+0x6a>
    21c0: 64 19        	stz	$19                     ; 0x19 <__rc9>
    21c2: a5 5b        	lda	$5b                     ; 0x5b <__rc31+0x2c>
    21c4: 29 ef        	and	#$ef
    21c6: 85 5b        	sta	$5b                     ; 0x5b <__rc31+0x2c>
    21c8: 85 8c        	sta	$8c                     ; 0x8c <__rc31+0x5d>
    21ca: a2 00        	ldx	#$0
    21cc: 86 8d        	stx	$8d                     ; 0x8d <__rc31+0x5e>
    21ce: b2 12        	lda	($12)                   ; 0x12 <__zp_bss_size>
    21d0: a6 19        	ldx	$19                     ; 0x19 <__rc9>
    21d2: 86 14        	stx	$14                     ; 0x14 <__rc4>
    21d4: a6 12        	ldx	$12                     ; 0x12 <__zp_bss_size>
    21d6: 86 5f        	stx	$5f                     ; 0x5f <__rc31+0x30>
    21d8: a6 13        	ldx	$13                     ; 0x13 <__rc3>
    21da: 86 60        	stx	$60                     ; 0x60 <__rc31+0x31>
    21dc: e6 5f        	inc	$5f                     ; 0x5f <__rc31+0x30>
    21de: d0 02        	bne	$21e2 <printf+0x360>
    21e0: e6 60        	inc	$60                     ; 0x60 <__rc31+0x31>
    21e2: 38           	sec
    21e3: aa           	tax
    21e4: e9 6c        	sbc	#$6c
    21e6: 50 02        	bvc	$21ea <printf+0x368>
    21e8: 49 80        	eor	#$80
    21ea: c9 00        	cmp	#$0
    21ec: 10 1f        	bpl	$220d <printf+0x38b>
    21ee: e0 4c        	cpx	#$4c
    21f0: f0 35        	beq	$2227 <printf+0x3a5>
    21f2: e0 68        	cpx	#$68
    21f4: d0 03        	bne	$21f9 <printf+0x377>
    21f6: 4c a2 22     	jmp	$22a2 <printf+0x420>
    21f9: da           	phx
    21fa: 7a           	ply
    21fb: a9 01        	lda	#$1
    21fd: a2 08        	ldx	#$8
    21ff: c0 6a        	cpy	#$6a
    2201: d0 20        	bne	$2223 <printf+0x3a1>
    2203: a4 5f        	ldy	$5f                     ; 0x5f <__rc31+0x30>
    2205: 84 12        	sty	$12                     ; 0x12 <__zp_bss_size>
    2207: a4 60        	ldy	$60                     ; 0x60 <__rc31+0x31>
    2209: 84 13        	sty	$13                     ; 0x13 <__rc3>
    220b: 80 50        	bra	$225d <printf+0x3db>
    220d: e0 6c        	cpx	#$6c
    220f: f0 31        	beq	$2242 <printf+0x3c0>
    2211: e0 74        	cpx	#$74
    2213: f0 1e        	beq	$2233 <printf+0x3b1>
    2215: a9 01        	lda	#$1
    2217: e0 7a        	cpx	#$7a
    2219: d0 08        	bne	$2223 <printf+0x3a1>
    221b: a6 5f        	ldx	$5f                     ; 0x5f <__rc31+0x30>
    221d: 86 12        	stx	$12                     ; 0x12 <__zp_bss_size>
    221f: a6 60        	ldx	$60                     ; 0x60 <__rc31+0x31>
    2221: 86 13        	stx	$13                     ; 0x13 <__rc3>
    2223: a2 02        	ldx	#$2
    2225: 80 17        	bra	$223e <printf+0x3bc>
    2227: a5 5b        	lda	$5b                     ; 0x5b <__rc31+0x2c>
    2229: 09 40        	ora	#$40
    222b: 85 5b        	sta	$5b                     ; 0x5b <__rc31+0x2c>
    222d: 85 8c        	sta	$8c                     ; 0x8c <__rc31+0x5d>
    222f: a2 00        	ldx	#$0
    2231: 86 8d        	stx	$8d                     ; 0x8d <__rc31+0x5e>
    2233: a6 5f        	ldx	$5f                     ; 0x5f <__rc31+0x30>
    2235: 86 12        	stx	$12                     ; 0x12 <__zp_bss_size>
    2237: a6 60        	ldx	$60                     ; 0x60 <__rc31+0x31>
    2239: 86 13        	stx	$13                     ; 0x13 <__rc3>
    223b: a2 02        	ldx	#$2
    223d: 98           	tya
    223e: a0 02        	ldy	#$2
    2240: 80 1d        	bra	$225f <printf+0x3dd>
    2242: b1 12        	lda	($12),y                 ; 0x12 <__zp_bss_size>
    2244: a2 04        	ldx	#$4
    2246: c9 6c        	cmp	#$6c
    2248: f0 03        	beq	$224d <printf+0x3cb>
    224a: 4c bf 22     	jmp	$22bf <printf+0x43d>
    224d: a5 12        	lda	$12                     ; 0x12 <__zp_bss_size>
    224f: 18           	clc
    2250: 69 02        	adc	#$2
    2252: 85 12        	sta	$12                     ; 0x12 <__zp_bss_size>
    2254: a5 13        	lda	$13                     ; 0x13 <__rc3>
    2256: 69 00        	adc	#$0
    2258: 85 13        	sta	$13                     ; 0x13 <__rc3>
    225a: a2 08        	ldx	#$8
    225c: 98           	tya
    225d: a0 08        	ldy	#$8
    225f: 84 5c        	sty	$5c                     ; 0x5c <__rc31+0x2d>
    2261: a8           	tay
    2262: b2 12        	lda	($12)                   ; 0x12 <__zp_bss_size>
    2264: 5a           	phy
    2265: a4 12        	ldy	$12                     ; 0x12 <__zp_bss_size>
    2267: 84 5f        	sty	$5f                     ; 0x5f <__rc31+0x30>
    2269: a4 13        	ldy	$13                     ; 0x13 <__rc3>
    226b: 84 60        	sty	$60                     ; 0x60 <__rc31+0x31>
    226d: 7a           	ply
    226e: 86 65        	stx	$65                     ; 0x65 <__rc31+0x36>
    2270: aa           	tax
    2271: 18           	clc
    2272: 69 9d        	adc	#$9d
    2274: c9 16        	cmp	#$16
    2276: b0 4c        	bcs	$22c4 <printf+0x442>
    2278: 0a           	asl
    2279: aa           	tax
    227a: 7c eb 30     	jmp	($30eb,x)               ; 0x30eb <__BLOCK_SIZE+0x10eb>
    227d: a6 5d        	ldx	$5d                     ; 0x5d <__rc31+0x2e>
    227f: 86 a1        	stx	$a1                     ; 0xa1 <__rc31+0x72>
    2281: a6 5e        	ldx	$5e                     ; 0x5e <__rc31+0x2f>
    2283: 86 a2        	stx	$a2                     ; 0xa2 <__rc31+0x73>
    2285: a6 14        	ldx	$14                     ; 0x14 <__rc4>
    2287: 86 a5        	stx	$a5                     ; 0xa5 <__rc31+0x76>
    2289: a6 18        	ldx	$18                     ; 0x18 <__rc8>
    228b: 86 a0        	stx	$a0                     ; 0xa0 <__rc31+0x71>
    228d: a6 1e        	ldx	$1e                     ; 0x1e <__rc14>
    228f: 86 a6        	stx	$a6                     ; 0xa6 <__rc31+0x77>
    2291: a6 1a        	ldx	$1a                     ; 0x1a <__rc10>
    2293: 86 64        	stx	$64                     ; 0x64 <__rc31+0x35>
    2295: a0 0a        	ldy	#$a
    2297: a2 0a        	ldx	#$a
    2299: 86 66        	stx	$66                     ; 0x66 <__rc31+0x37>
    229b: 84 8b        	sty	$8b                     ; 0x8b <__rc31+0x5c>
    229d: 64 63        	stz	$63                     ; 0x63 <__rc31+0x34>
    229f: 4c 11 24     	jmp	$2411 <printf+0x58f>
    22a2: b1 12        	lda	($12),y                 ; 0x12 <__zp_bss_size>
    22a4: a2 02        	ldx	#$2
    22a6: c9 68        	cmp	#$68
    22a8: d0 15        	bne	$22bf <printf+0x43d>
    22aa: a5 12        	lda	$12                     ; 0x12 <__zp_bss_size>
    22ac: 18           	clc
    22ad: 69 02        	adc	#$2
    22af: 85 12        	sta	$12                     ; 0x12 <__zp_bss_size>
    22b1: a5 13        	lda	$13                     ; 0x13 <__rc3>
    22b3: 69 00        	adc	#$0
    22b5: 85 13        	sta	$13                     ; 0x13 <__rc3>
    22b7: a2 01        	ldx	#$1
    22b9: 86 5c        	stx	$5c                     ; 0x5c <__rc31+0x2d>
    22bb: e8           	inx
    22bc: 4c 62 22     	jmp	$2262 <printf+0x3e0>
    22bf: 86 5c        	stx	$5c                     ; 0x5c <__rc31+0x2d>
    22c1: 4c 6e 22     	jmp	$226e <printf+0x3ec>
    22c4: e0 58        	cpx	#$58
    22c6: f0 03        	beq	$22cb <printf+0x449>
    22c8: 4c 67 2b     	jmp	$2b67 <printf+0xce5>
    22cb: a6 5d        	ldx	$5d                     ; 0x5d <__rc31+0x2e>
    22cd: 86 a1        	stx	$a1                     ; 0xa1 <__rc31+0x72>
    22cf: a6 5e        	ldx	$5e                     ; 0x5e <__rc31+0x2f>
    22d1: 86 a2        	stx	$a2                     ; 0xa2 <__rc31+0x73>
    22d3: a6 14        	ldx	$14                     ; 0x14 <__rc4>
    22d5: 86 a5        	stx	$a5                     ; 0xa5 <__rc31+0x76>
    22d7: a6 18        	ldx	$18                     ; 0x18 <__rc8>
    22d9: 86 a0        	stx	$a0                     ; 0xa0 <__rc31+0x71>
    22db: a6 1e        	ldx	$1e                     ; 0x1e <__rc14>
    22dd: 86 a6        	stx	$a6                     ; 0xa6 <__rc31+0x77>
    22df: a6 1a        	ldx	$1a                     ; 0x1a <__rc10>
    22e1: 86 64        	stx	$64                     ; 0x64 <__rc31+0x35>
    22e3: a2 10        	ldx	#$10
    22e5: 86 8b        	stx	$8b                     ; 0x8b <__rc31+0x5c>
    22e7: a9 00        	lda	#$0
    22e9: 09 01        	ora	#$1
    22eb: a6 5b        	ldx	$5b                     ; 0x5b <__rc31+0x2c>
    22ed: 80 49        	bra	$2338 <printf+0x4b6>
    22ef: a6 5d        	ldx	$5d                     ; 0x5d <__rc31+0x2e>
    22f1: 86 a1        	stx	$a1                     ; 0xa1 <__rc31+0x72>
    22f3: a6 5e        	ldx	$5e                     ; 0x5e <__rc31+0x2f>
    22f5: 86 a2        	stx	$a2                     ; 0xa2 <__rc31+0x73>
    22f7: a6 14        	ldx	$14                     ; 0x14 <__rc4>
    22f9: 86 a5        	stx	$a5                     ; 0xa5 <__rc31+0x76>
    22fb: a6 18        	ldx	$18                     ; 0x18 <__rc8>
    22fd: 86 a0        	stx	$a0                     ; 0xa0 <__rc31+0x71>
    22ff: a6 1e        	ldx	$1e                     ; 0x1e <__rc14>
    2301: 86 a6        	stx	$a6                     ; 0xa6 <__rc31+0x77>
    2303: a6 1a        	ldx	$1a                     ; 0x1a <__rc10>
    2305: 86 64        	stx	$64                     ; 0x64 <__rc31+0x35>
    2307: a2 10        	ldx	#$10
    2309: 86 8b        	stx	$8b                     ; 0x8b <__rc31+0x5c>
    230b: a5 5b        	lda	$5b                     ; 0x5b <__rc31+0x2c>
    230d: 09 84        	ora	#$84
    230f: 80 20        	bra	$2331 <printf+0x4af>
    2311: a6 5d        	ldx	$5d                     ; 0x5d <__rc31+0x2e>
    2313: 86 a1        	stx	$a1                     ; 0xa1 <__rc31+0x72>
    2315: a6 5e        	ldx	$5e                     ; 0x5e <__rc31+0x2f>
    2317: 86 a2        	stx	$a2                     ; 0xa2 <__rc31+0x73>
    2319: a6 14        	ldx	$14                     ; 0x14 <__rc4>
    231b: 86 a5        	stx	$a5                     ; 0xa5 <__rc31+0x76>
    231d: a6 18        	ldx	$18                     ; 0x18 <__rc8>
    231f: 86 a0        	stx	$a0                     ; 0xa0 <__rc31+0x71>
    2321: a6 1e        	ldx	$1e                     ; 0x1e <__rc14>
    2323: 86 a6        	stx	$a6                     ; 0xa6 <__rc31+0x77>
    2325: a6 1a        	ldx	$1a                     ; 0x1a <__rc10>
    2327: 86 64        	stx	$64                     ; 0x64 <__rc31+0x35>
    2329: a2 10        	ldx	#$10
    232b: 86 8b        	stx	$8b                     ; 0x8b <__rc31+0x5c>
    232d: a5 5b        	lda	$5b                     ; 0x5b <__rc31+0x2c>
    232f: 09 80        	ora	#$80
    2331: aa           	tax
    2332: a9 00        	lda	#$0
    2334: 09 01        	ora	#$1
    2336: 86 5b        	stx	$5b                     ; 0x5b <__rc31+0x2c>
    2338: 86 8c        	stx	$8c                     ; 0x8c <__rc31+0x5d>
    233a: 85 63        	sta	$63                     ; 0x63 <__rc31+0x34>
    233c: 85 8d        	sta	$8d                     ; 0x8d <__rc31+0x5e>
    233e: a2 10        	ldx	#$10
    2340: 86 66        	stx	$66                     ; 0x66 <__rc31+0x37>
    2342: 4c 11 24     	jmp	$2411 <printf+0x58f>
    2345: a5 9c        	lda	$9c                     ; 0x9c <__rc31+0x6d>
    2347: a6 9d        	ldx	$9d                     ; 0x9d <__rc31+0x6e>
    2349: 85 12        	sta	$12                     ; 0x12 <__zp_bss_size>
    234b: 86 13        	stx	$13                     ; 0x13 <__rc3>
    234d: 18           	clc
    234e: 69 02        	adc	#$2
    2350: 85 14        	sta	$14                     ; 0x14 <__rc4>
    2352: 8a           	txa
    2353: 69 00        	adc	#$0
    2355: a6 14        	ldx	$14                     ; 0x14 <__rc4>
    2357: 86 9c        	stx	$9c                     ; 0x9c <__rc31+0x6d>
    2359: 85 9d        	sta	$9d                     ; 0x9d <__rc31+0x6e>
    235b: b2 12        	lda	($12)                   ; 0x12 <__zp_bss_size>
    235d: aa           	tax
    235e: b1 12        	lda	($12),y                 ; 0x12 <__zp_bss_size>
    2360: 86 12        	stx	$12                     ; 0x12 <__zp_bss_size>
    2362: 85 13        	sta	$13                     ; 0x13 <__rc3>
    2364: a5 90        	lda	$90                     ; 0x90 <__rc31+0x61>
    2366: a6 91        	ldx	$91                     ; 0x91 <__rc31+0x62>
    2368: 92 12        	sta	($12)                   ; 0x12 <__zp_bss_size>
    236a: 8a           	txa
    236b: 91 12        	sta	($12),y                 ; 0x12 <__zp_bss_size>
    236d: 4c 4f 2b     	jmp	$2b4f <printf+0xccd>
    2370: a5 9c        	lda	$9c                     ; 0x9c <__rc31+0x6d>
    2372: a6 9d        	ldx	$9d                     ; 0x9d <__rc31+0x6e>
    2374: 85 12        	sta	$12                     ; 0x12 <__zp_bss_size>
    2376: 86 13        	stx	$13                     ; 0x13 <__rc3>
    2378: 18           	clc
    2379: 69 02        	adc	#$2
    237b: 85 14        	sta	$14                     ; 0x14 <__rc4>
    237d: 8a           	txa
    237e: 69 00        	adc	#$0
    2380: a6 14        	ldx	$14                     ; 0x14 <__rc4>
    2382: 86 9c        	stx	$9c                     ; 0x9c <__rc31+0x6d>
    2384: 85 9d        	sta	$9d                     ; 0x9d <__rc31+0x6e>
    2386: b2 12        	lda	($12)                   ; 0x12 <__zp_bss_size>
    2388: aa           	tax
    2389: b1 12        	lda	($12),y                 ; 0x12 <__zp_bss_size>
    238b: 86 12        	stx	$12                     ; 0x12 <__zp_bss_size>
    238d: 85 13        	sta	$13                     ; 0x13 <__rc3>
    238f: 80 42        	bra	$23d3 <printf+0x551>
    2391: a6 5d        	ldx	$5d                     ; 0x5d <__rc31+0x2e>
    2393: 86 a1        	stx	$a1                     ; 0xa1 <__rc31+0x72>
    2395: a6 5e        	ldx	$5e                     ; 0x5e <__rc31+0x2f>
    2397: 86 a2        	stx	$a2                     ; 0xa2 <__rc31+0x73>
    2399: a6 14        	ldx	$14                     ; 0x14 <__rc4>
    239b: 86 a5        	stx	$a5                     ; 0xa5 <__rc31+0x76>
    239d: a6 18        	ldx	$18                     ; 0x18 <__rc8>
    239f: 86 a0        	stx	$a0                     ; 0xa0 <__rc31+0x71>
    23a1: a6 1e        	ldx	$1e                     ; 0x1e <__rc14>
    23a3: 86 a6        	stx	$a6                     ; 0xa6 <__rc31+0x77>
    23a5: a6 1a        	ldx	$1a                     ; 0x1a <__rc10>
    23a7: 86 64        	stx	$64                     ; 0x64 <__rc31+0x35>
    23a9: a0 08        	ldy	#$8
    23ab: a2 08        	ldx	#$8
    23ad: 80 52        	bra	$2401 <printf+0x57f>
    23af: a5 9c        	lda	$9c                     ; 0x9c <__rc31+0x6d>
    23b1: a6 9d        	ldx	$9d                     ; 0x9d <__rc31+0x6e>
    23b3: 85 12        	sta	$12                     ; 0x12 <__zp_bss_size>
    23b5: 86 13        	stx	$13                     ; 0x13 <__rc3>
    23b7: 18           	clc
    23b8: 69 02        	adc	#$2
    23ba: 85 14        	sta	$14                     ; 0x14 <__rc4>
    23bc: 8a           	txa
    23bd: 69 00        	adc	#$0
    23bf: a6 14        	ldx	$14                     ; 0x14 <__rc4>
    23c1: 86 9c        	stx	$9c                     ; 0x9c <__rc31+0x6d>
    23c3: 85 9d        	sta	$9d                     ; 0x9d <__rc31+0x6e>
    23c5: b2 12        	lda	($12)                   ; 0x12 <__zp_bss_size>
    23c7: 85 7e        	sta	$7e                     ; 0x7e <__rc31+0x4f>
    23c9: 64 7f        	stz	$7f                     ; 0x7f <__rc31+0x50>
    23cb: a2 7e        	ldx	#$7e
    23cd: 86 12        	stx	$12                     ; 0x12 <__zp_bss_size>
    23cf: a2 00        	ldx	#$0
    23d1: 86 13        	stx	$13                     ; 0x13 <__rc3>
    23d3: a2 8b        	ldx	#$8b
    23d5: 86 14        	stx	$14                     ; 0x14 <__rc4>
    23d7: a2 00        	ldx	#$0
    23d9: 86 15        	stx	$15                     ; 0x15 <__rc5>
    23db: 84 61        	sty	$61                     ; 0x61 <__rc31+0x32>
    23dd: 20 73 1d     	jsr	$1d73 <_ZN12_GLOBAL__N_112print_stringEPKcP6Status>
    23e0: a4 61        	ldy	$61                     ; 0x61 <__rc31+0x32>
    23e2: 4c 4f 2b     	jmp	$2b4f <printf+0xccd>
    23e5: a6 5d        	ldx	$5d                     ; 0x5d <__rc31+0x2e>
    23e7: 86 a1        	stx	$a1                     ; 0xa1 <__rc31+0x72>
    23e9: a6 5e        	ldx	$5e                     ; 0x5e <__rc31+0x2f>
    23eb: 86 a2        	stx	$a2                     ; 0xa2 <__rc31+0x73>
    23ed: a6 14        	ldx	$14                     ; 0x14 <__rc4>
    23ef: 86 a5        	stx	$a5                     ; 0xa5 <__rc31+0x76>
    23f1: a6 18        	ldx	$18                     ; 0x18 <__rc8>
    23f3: 86 a0        	stx	$a0                     ; 0xa0 <__rc31+0x71>
    23f5: a6 1e        	ldx	$1e                     ; 0x1e <__rc14>
    23f7: 86 a6        	stx	$a6                     ; 0xa6 <__rc31+0x77>
    23f9: a6 1a        	ldx	$1a                     ; 0x1a <__rc10>
    23fb: 86 64        	stx	$64                     ; 0x64 <__rc31+0x35>
    23fd: a0 0a        	ldy	#$a
    23ff: a2 0a        	ldx	#$a
    2401: 86 66        	stx	$66                     ; 0x66 <__rc31+0x37>
    2403: 84 8b        	sty	$8b                     ; 0x8b <__rc31+0x5c>
    2405: a9 00        	lda	#$0
    2407: 09 01        	ora	#$1
    2409: a6 5b        	ldx	$5b                     ; 0x5b <__rc31+0x2c>
    240b: 86 8c        	stx	$8c                     ; 0x8c <__rc31+0x5d>
    240d: 85 63        	sta	$63                     ; 0x63 <__rc31+0x34>
    240f: 85 8d        	sta	$8d                     ; 0x8d <__rc31+0x5e>
    2411: a5 5c        	lda	$5c                     ; 0x5c <__rc31+0x2d>
    2413: 85 80        	sta	$80                     ; 0x80 <__rc31+0x51>
    2415: a4 9c        	ldy	$9c                     ; 0x9c <__rc31+0x6d>
    2417: a6 9d        	ldx	$9d                     ; 0x9d <__rc31+0x6e>
    2419: 86 61        	stx	$61                     ; 0x61 <__rc31+0x32>
    241b: 84 14        	sty	$14                     ; 0x14 <__rc4>
    241d: 84 5d        	sty	$5d                     ; 0x5d <__rc31+0x2e>
    241f: 86 15        	stx	$15                     ; 0x15 <__rc5>
    2421: a6 a3        	ldx	$a3                     ; 0xa3 <__rc31+0x74>
    2423: 86 12        	stx	$12                     ; 0x12 <__zp_bss_size>
    2425: a6 a4        	ldx	$a4                     ; 0xa4 <__rc31+0x75>
    2427: 86 13        	stx	$13                     ; 0x13 <__rc3>
    2429: a2 00        	ldx	#$0
    242b: 85 62        	sta	$62                     ; 0x62 <__rc31+0x33>
    242d: 20 5f 30     	jsr	$305f <memcpy>
    2430: 18           	clc
    2431: a5 5d        	lda	$5d                     ; 0x5d <__rc31+0x2e>
    2433: 65 65        	adc	$65                     ; 0x65 <__rc31+0x36>
    2435: aa           	tax
    2436: a5 61        	lda	$61                     ; 0x61 <__rc31+0x32>
    2438: 69 00        	adc	#$0
    243a: 86 9c        	stx	$9c                     ; 0x9c <__rc31+0x6d>
    243c: 85 9d        	sta	$9d                     ; 0x9d <__rc31+0x6e>
    243e: a5 63        	lda	$63                     ; 0x63 <__rc31+0x34>
    2440: 29 01        	and	#$1
    2442: a0 00        	ldy	#$0
    2444: aa           	tax
    2445: f0 03        	beq	$244a <printf+0x5c8>
    2447: 4c 9c 24     	jmp	$249c <printf+0x61a>
    244a: a6 62        	ldx	$62                     ; 0x62 <__rc31+0x33>
    244c: b5 80        	lda	$80,x                   ; 0x80 <__rc31+0x51>
    244e: aa           	tax
    244f: a5 64        	lda	$64                     ; 0x64 <__rc31+0x35>
    2451: 85 17        	sta	$17                     ; 0x17 <__rc7>
    2453: a5 a6        	lda	$a6                     ; 0xa6 <__rc31+0x77>
    2455: 85 1a        	sta	$1a                     ; 0x1a <__rc10>
    2457: a5 a5        	lda	$a5                     ; 0xa5 <__rc31+0x76>
    2459: 85 62        	sta	$62                     ; 0x62 <__rc31+0x33>
    245b: a5 a1        	lda	$a1                     ; 0xa1 <__rc31+0x72>
    245d: 85 5d        	sta	$5d                     ; 0x5d <__rc31+0x2e>
    245f: a5 a2        	lda	$a2                     ; 0xa2 <__rc31+0x73>
    2461: 85 5e        	sta	$5e                     ; 0x5e <__rc31+0x2f>
    2463: 8a           	txa
    2464: 10 4a        	bpl	$24b0 <printf+0x62e>
    2466: a2 00        	ldx	#$0
    2468: 64 12        	stz	$12                     ; 0x12 <__zp_bss_size>
    246a: a9 00        	lda	#$0
    246c: 38           	sec
    246d: f5 81        	sbc	$81,x                   ; 0x81 <__rc31+0x52>
    246f: a0 01        	ldy	#$1
    2471: 84 14        	sty	$14                     ; 0x14 <__rc4>
    2473: 88           	dey
    2474: b0 02        	bcs	$2478 <printf+0x5f6>
    2476: a0 01        	ldy	#$1
    2478: 38           	sec
    2479: e5 12        	sbc	$12                     ; 0x12 <__zp_bss_size>
    247b: 85 13        	sta	$13                     ; 0x13 <__rc3>
    247d: 64 12        	stz	$12                     ; 0x12 <__zp_bss_size>
    247f: b0 04        	bcs	$2485 <printf+0x603>
    2481: a5 14        	lda	$14                     ; 0x14 <__rc4>
    2483: 85 12        	sta	$12                     ; 0x12 <__zp_bss_size>
    2485: 98           	tya
    2486: 05 12        	ora	$12                     ; 0x12 <__zp_bss_size>
    2488: 85 12        	sta	$12                     ; 0x12 <__zp_bss_size>
    248a: a5 13        	lda	$13                     ; 0x13 <__rc3>
    248c: 9d 81 00     	sta	$81,x                   ; 0x81 <__rc31+0x52>
    248f: e8           	inx
    2490: 86 13        	stx	$13                     ; 0x13 <__rc3>
    2492: a4 5c        	ldy	$5c                     ; 0x5c <__rc31+0x2d>
    2494: c4 13        	cpy	$13                     ; 0x13 <__rc3>
    2496: d0 d2        	bne	$246a <printf+0x5e8>
    2498: a0 01        	ldy	#$1
    249a: 80 14        	bra	$24b0 <printf+0x62e>
    249c: a6 64        	ldx	$64                     ; 0x64 <__rc31+0x35>
    249e: 86 17        	stx	$17                     ; 0x17 <__rc7>
    24a0: a6 a6        	ldx	$a6                     ; 0xa6 <__rc31+0x77>
    24a2: 86 1a        	stx	$1a                     ; 0x1a <__rc10>
    24a4: a6 a5        	ldx	$a5                     ; 0xa5 <__rc31+0x76>
    24a6: 86 62        	stx	$62                     ; 0x62 <__rc31+0x33>
    24a8: a6 a1        	ldx	$a1                     ; 0xa1 <__rc31+0x72>
    24aa: 86 5d        	stx	$5d                     ; 0x5d <__rc31+0x2e>
    24ac: a6 a2        	ldx	$a2                     ; 0xa2 <__rc31+0x73>
    24ae: 86 5e        	stx	$5e                     ; 0x5e <__rc31+0x2f>
    24b0: 84 18        	sty	$18                     ; 0x18 <__rc8>
    24b2: a5 5c        	lda	$5c                     ; 0x5c <__rc31+0x2d>
    24b4: 0a           	asl
    24b5: 0a           	asl
    24b6: 0a           	asl
    24b7: 85 12        	sta	$12                     ; 0x12 <__zp_bss_size>
    24b9: a2 00        	ldx	#$0
    24bb: 8a           	txa
    24bc: 4c 73 25     	jmp	$2573 <printf+0x6f1>
    24bf: a4 13        	ldy	$13                     ; 0x13 <__rc3>
    24c1: 99 69 00     	sta	$69,y                   ; 0x69 <__rc31+0x3a>
    24c4: a4 15        	ldy	$15                     ; 0x15 <__rc5>
    24c6: c4 13        	cpy	$13                     ; 0x13 <__rc3>
    24c8: f0 38        	beq	$2502 <printf+0x680>
    24ca: e6 13        	inc	$13                     ; 0x13 <__rc3>
    24cc: a4 13        	ldy	$13                     ; 0x13 <__rc3>
    24ce: b9 69 00     	lda	$69,y                   ; 0x69 <__rc31+0x3a>
    24d1: 0a           	asl
    24d2: e0 00        	cpx	#$0
    24d4: f0 02        	beq	$24d8 <printf+0x656>
    24d6: 09 01        	ora	#$1
    24d8: a4 66        	ldy	$66                     ; 0x66 <__rc31+0x37>
    24da: 84 14        	sty	$14                     ; 0x14 <__rc4>
    24dc: c5 14        	cmp	$14                     ; 0x14 <__rc4>
    24de: a2 01        	ldx	#$1
    24e0: b0 02        	bcs	$24e4 <printf+0x662>
    24e2: a2 00        	ldx	#$0
    24e4: 90 d9        	bcc	$24bf <printf+0x63d>
    24e6: 84 14        	sty	$14                     ; 0x14 <__rc4>
    24e8: 38           	sec
    24e9: e5 14        	sbc	$14                     ; 0x14 <__rc4>
    24eb: a4 13        	ldy	$13                     ; 0x13 <__rc3>
    24ed: 99 69 00     	sta	$69,y                   ; 0x69 <__rc31+0x3a>
    24f0: a4 15        	ldy	$15                     ; 0x15 <__rc5>
    24f2: c4 13        	cpy	$13                     ; 0x13 <__rc3>
    24f4: d0 d4        	bne	$24ca <printf+0x648>
    24f6: a4 65        	ldy	$65                     ; 0x65 <__rc31+0x36>
    24f8: a6 65        	ldx	$65                     ; 0x65 <__rc31+0x36>
    24fa: e8           	inx
    24fb: a9 01        	lda	#$1
    24fd: 99 69 00     	sta	$69,y                   ; 0x69 <__rc31+0x3a>
    2500: 86 65        	stx	$65                     ; 0x65 <__rc31+0x36>
    2502: a6 5c        	ldx	$5c                     ; 0x5c <__rc31+0x2d>
    2504: b5 80        	lda	$80,x                   ; 0x80 <__rc31+0x51>
    2506: aa           	tax
    2507: 10 41        	bpl	$254a <printf+0x6c8>
    2509: a5 65        	lda	$65                     ; 0x65 <__rc31+0x36>
    250b: f0 2f        	beq	$253c <printf+0x6ba>
    250d: a2 00        	ldx	#$0
    250f: a4 66        	ldy	$66                     ; 0x66 <__rc31+0x37>
    2511: 84 14        	sty	$14                     ; 0x14 <__rc4>
    2513: b5 69        	lda	$69,x                   ; 0x69 <__rc31+0x3a>
    2515: 1a           	inc
    2516: f6 69        	inc	$69,x                   ; 0x69 <__rc31+0x3a>
    2518: c5 14        	cmp	$14                     ; 0x14 <__rc4>
    251a: 90 2e        	bcc	$254a <printf+0x6c8>
    251c: a4 66        	ldy	$66                     ; 0x66 <__rc31+0x37>
    251e: 84 13        	sty	$13                     ; 0x13 <__rc3>
    2520: 38           	sec
    2521: e5 13        	sbc	$13                     ; 0x13 <__rc3>
    2523: 9d 69 00     	sta	$69,x                   ; 0x69 <__rc31+0x3a>
    2526: e8           	inx
    2527: 86 13        	stx	$13                     ; 0x13 <__rc3>
    2529: a4 65        	ldy	$65                     ; 0x65 <__rc31+0x36>
    252b: c4 13        	cpy	$13                     ; 0x13 <__rc3>
    252d: d0 e4        	bne	$2513 <printf+0x691>
    252f: 80 0d        	bra	$253e <printf+0x6bc>
    2531: a6 5c        	ldx	$5c                     ; 0x5c <__rc31+0x2d>
    2533: b5 80        	lda	$80,x                   ; 0x80 <__rc31+0x51>
    2535: aa           	tax
    2536: 64 65        	stz	$65                     ; 0x65 <__rc31+0x36>
    2538: 30 04        	bmi	$253e <printf+0x6bc>
    253a: 80 0e        	bra	$254a <printf+0x6c8>
    253c: 64 65        	stz	$65                     ; 0x65 <__rc31+0x36>
    253e: a4 65        	ldy	$65                     ; 0x65 <__rc31+0x36>
    2540: a6 65        	ldx	$65                     ; 0x65 <__rc31+0x36>
    2542: e8           	inx
    2543: a9 01        	lda	#$1
    2545: 99 69 00     	sta	$69,y                   ; 0x69 <__rc31+0x3a>
    2548: 86 65        	stx	$65                     ; 0x65 <__rc31+0x36>
    254a: a2 01        	ldx	#$1
    254c: 86 16        	stx	$16                     ; 0x16 <__rc6>
    254e: 64 13        	stz	$13                     ; 0x13 <__rc3>
    2550: ca           	dex
    2551: a4 5c        	ldy	$5c                     ; 0x5c <__rc31+0x2d>
    2553: b5 81        	lda	$81,x                   ; 0x81 <__rc31+0x52>
    2555: 0a           	asl
    2556: 64 14        	stz	$14                     ; 0x14 <__rc4>
    2558: 26 14        	rol	$14                     ; 0x14 <__rc4>
    255a: 05 13        	ora	$13                     ; 0x13 <__rc3>
    255c: 9d 81 00     	sta	$81,x                   ; 0x81 <__rc31+0x52>
    255f: e8           	inx
    2560: 86 15        	stx	$15                     ; 0x15 <__rc5>
    2562: a5 14        	lda	$14                     ; 0x14 <__rc4>
    2564: 85 13        	sta	$13                     ; 0x13 <__rc3>
    2566: c4 15        	cpy	$15                     ; 0x15 <__rc5>
    2568: d0 e9        	bne	$2553 <printf+0x6d1>
    256a: a5 19        	lda	$19                     ; 0x19 <__rc9>
    256c: 1a           	inc
    256d: c5 12        	cmp	$12                     ; 0x12 <__zp_bss_size>
    256f: a6 65        	ldx	$65                     ; 0x65 <__rc31+0x36>
    2571: b0 12        	bcs	$2585 <printf+0x703>
    2573: 85 19        	sta	$19                     ; 0x19 <__rc9>
    2575: 8a           	txa
    2576: f0 b9        	beq	$2531 <printf+0x6af>
    2578: 8a           	txa
    2579: 86 65        	stx	$65                     ; 0x65 <__rc31+0x36>
    257b: 3a           	dec
    257c: 85 15        	sta	$15                     ; 0x15 <__rc5>
    257e: a2 00        	ldx	#$0
    2580: 64 13        	stz	$13                     ; 0x13 <__rc3>
    2582: 4c cc 24     	jmp	$24cc <printf+0x64a>
    2585: a4 16        	ldy	$16                     ; 0x16 <__rc6>
    2587: a5 62        	lda	$62                     ; 0x62 <__rc31+0x33>
    2589: 30 06        	bmi	$2591 <printf+0x70f>
    258b: a5 a0        	lda	$a0                     ; 0xa0 <__rc31+0x71>
    258d: 85 61        	sta	$61                     ; 0x61 <__rc31+0x32>
    258f: 80 08        	bra	$2599 <printf+0x717>
    2591: a2 01        	ldx	#$1
    2593: 64 62        	stz	$62                     ; 0x62 <__rc31+0x33>
    2595: 86 61        	stx	$61                     ; 0x61 <__rc31+0x32>
    2597: a6 65        	ldx	$65                     ; 0x65 <__rc31+0x36>
    2599: a5 5b        	lda	$5b                     ; 0x5b <__rc31+0x2c>
    259b: 29 04        	and	#$4
    259d: f0 2f        	beq	$25ce <printf+0x74c>
    259f: a5 66        	lda	$66                     ; 0x66 <__rc31+0x37>
    25a1: c9 10        	cmp	#$10
    25a3: f0 14        	beq	$25b9 <printf+0x737>
    25a5: c9 08        	cmp	#$8
    25a7: d0 25        	bne	$25ce <printf+0x74c>
    25a9: a2 00        	ldx	#$0
    25ab: e4 62        	cpx	$62                     ; 0x62 <__rc31+0x33>
    25ad: f0 03        	beq	$25b2 <printf+0x730>
    25af: 4c 75 2b     	jmp	$2b75 <printf+0xcf3>
    25b2: a6 65        	ldx	$65                     ; 0x65 <__rc31+0x36>
    25b4: e4 61        	cpx	$61                     ; 0x61 <__rc31+0x32>
    25b6: 4c 77 2b     	jmp	$2b77 <printf+0xcf5>
    25b9: 8a           	txa
    25ba: f0 12        	beq	$25ce <printf+0x74c>
    25bc: a5 5b        	lda	$5b                     ; 0x5b <__rc31+0x2c>
    25be: a6 61        	ldx	$61                     ; 0x61 <__rc31+0x32>
    25c0: 29 80        	and	#$80
    25c2: d0 03        	bne	$25c7 <printf+0x745>
    25c4: 4c 90 2b     	jmp	$2b90 <printf+0xd0e>
    25c7: 86 a0        	stx	$a0                     ; 0xa0 <__rc31+0x71>
    25c9: a2 78        	ldx	#$78
    25cb: 4c 94 2b     	jmp	$2b94 <printf+0xd12>
    25ce: a6 5b        	ldx	$5b                     ; 0x5b <__rc31+0x2c>
    25d0: a9 2d        	lda	#$2d
    25d2: 85 a1        	sta	$a1                     ; 0xa1 <__rc31+0x72>
    25d4: a5 18        	lda	$18                     ; 0x18 <__rc8>
    25d6: d0 22        	bne	$25fa <printf+0x778>
    25d8: 86 12        	stx	$12                     ; 0x12 <__zp_bss_size>
    25da: 8a           	txa
    25db: 29 02        	and	#$2
    25dd: a2 2b        	ldx	#$2b
    25df: 86 a1        	stx	$a1                     ; 0xa1 <__rc31+0x72>
    25e1: aa           	tax
    25e2: d0 16        	bne	$25fa <printf+0x778>
    25e4: a6 61        	ldx	$61                     ; 0x61 <__rc31+0x32>
    25e6: 86 a0        	stx	$a0                     ; 0xa0 <__rc31+0x71>
    25e8: a5 12        	lda	$12                     ; 0x12 <__zp_bss_size>
    25ea: 29 08        	and	#$8
    25ec: f0 03        	beq	$25f1 <printf+0x76f>
    25ee: 4c 6e 2b     	jmp	$2b6e <printf+0xcec>
    25f1: a2 01        	ldx	#$1
    25f3: 86 64        	stx	$64                     ; 0x64 <__rc31+0x35>
    25f5: 64 16        	stz	$16                     ; 0x16 <__rc6>
    25f7: ca           	dex
    25f8: 80 08        	bra	$2602 <printf+0x780>
    25fa: a6 61        	ldx	$61                     ; 0x61 <__rc31+0x32>
    25fc: 86 a0        	stx	$a0                     ; 0xa0 <__rc31+0x71>
    25fe: a2 00        	ldx	#$0
    2600: 86 64        	stx	$64                     ; 0x64 <__rc31+0x35>
    2602: 86 61        	stx	$61                     ; 0x61 <__rc31+0x32>
    2604: a5 62        	lda	$62                     ; 0x62 <__rc31+0x33>
    2606: d0 08        	bne	$2610 <printf+0x78e>
    2608: a5 a0        	lda	$a0                     ; 0xa0 <__rc31+0x71>
    260a: c5 65        	cmp	$65                     ; 0x65 <__rc31+0x36>
    260c: 85 12        	sta	$12                     ; 0x12 <__zp_bss_size>
    260e: 80 08        	bra	$2618 <printf+0x796>
    2610: a6 62        	ldx	$62                     ; 0x62 <__rc31+0x33>
    2612: e0 00        	cpx	#$0
    2614: a6 a0        	ldx	$a0                     ; 0xa0 <__rc31+0x71>
    2616: 86 12        	stx	$12                     ; 0x12 <__zp_bss_size>
    2618: a6 62        	ldx	$62                     ; 0x62 <__rc31+0x33>
    261a: 86 13        	stx	$13                     ; 0x13 <__rc3>
    261c: b0 06        	bcs	$2624 <printf+0x7a2>
    261e: a6 65        	ldx	$65                     ; 0x65 <__rc31+0x36>
    2620: 86 12        	stx	$12                     ; 0x12 <__zp_bss_size>
    2622: 64 13        	stz	$13                     ; 0x13 <__rc3>
    2624: a5 16        	lda	$16                     ; 0x16 <__rc6>
    2626: 18           	clc
    2627: 65 12        	adc	$12                     ; 0x12 <__zp_bss_size>
    2629: aa           	tax
    262a: 85 14        	sta	$14                     ; 0x14 <__rc4>
    262c: a5 13        	lda	$13                     ; 0x13 <__rc3>
    262e: 69 00        	adc	#$0
    2630: 85 15        	sta	$15                     ; 0x15 <__rc5>
    2632: c5 1a        	cmp	$1a                     ; 0x1a <__rc10>
    2634: d0 04        	bne	$263a <printf+0x7b8>
    2636: e4 17        	cpx	$17                     ; 0x17 <__rc7>
    2638: 80 02        	bra	$263c <printf+0x7ba>
    263a: c5 1a        	cmp	$1a                     ; 0x1a <__rc10>
    263c: 64 66        	stz	$66                     ; 0x66 <__rc31+0x37>
    263e: 64 5c        	stz	$5c                     ; 0x5c <__rc31+0x2d>
    2640: a6 65        	ldx	$65                     ; 0x65 <__rc31+0x36>
    2642: 90 03        	bcc	$2647 <printf+0x7c5>
    2644: 4c fd 26     	jmp	$26fd <printf+0x87b>
    2647: a5 5b        	lda	$5b                     ; 0x5b <__rc31+0x2c>
    2649: 29 11        	and	#$11
    264b: f0 10        	beq	$265d <printf+0x7db>
    264d: a5 17        	lda	$17                     ; 0x17 <__rc7>
    264f: 38           	sec
    2650: e5 14        	sbc	$14                     ; 0x14 <__rc4>
    2652: 85 66        	sta	$66                     ; 0x66 <__rc31+0x37>
    2654: a5 1a        	lda	$1a                     ; 0x1a <__rc10>
    2656: e5 15        	sbc	$15                     ; 0x15 <__rc5>
    2658: 85 5c        	sta	$5c                     ; 0x5c <__rc31+0x2d>
    265a: 4c fd 26     	jmp	$26fd <printf+0x87b>
    265d: a2 01        	ldx	#$1
    265f: 86 14        	stx	$14                     ; 0x14 <__rc4>
    2661: a6 90        	ldx	$90                     ; 0x90 <__rc31+0x61>
    2663: 86 15        	stx	$15                     ; 0x15 <__rc5>
    2665: 38           	sec
    2666: a5 16        	lda	$16                     ; 0x16 <__rc6>
    2668: e5 17        	sbc	$17                     ; 0x17 <__rc7>
    266a: aa           	tax
    266b: a9 00        	lda	#$0
    266d: e5 1a        	sbc	$1a                     ; 0x1a <__rc10>
    266f: a8           	tay
    2670: 18           	clc
    2671: 8a           	txa
    2672: 65 12        	adc	$12                     ; 0x12 <__zp_bss_size>
    2674: 85 5b        	sta	$5b                     ; 0x5b <__rc31+0x2c>
    2676: 98           	tya
    2677: 65 13        	adc	$13                     ; 0x13 <__rc3>
    2679: a4 91        	ldy	$91                     ; 0x91 <__rc31+0x62>
    267b: 4c dd 26     	jmp	$26dd <printf+0x85b>
    267e: 84 16        	sty	$16                     ; 0x16 <__rc6>
    2680: c4 8f        	cpy	$8f                     ; 0x8f <__rc31+0x60>
    2682: b0 3b        	bcs	$26bf <printf+0x83d>
    2684: a6 9b        	ldx	$9b                     ; 0x9b <__rc31+0x6c>
    2686: a0 00        	ldy	#$0
    2688: 84 12        	sty	$12                     ; 0x12 <__zp_bss_size>
    268a: a0 00        	ldy	#$0
    268c: 84 13        	sty	$13                     ; 0x13 <__rc3>
    268e: e4 13        	cpx	$13                     ; 0x13 <__rc3>
    2690: d0 1d        	bne	$26af <printf+0x82d>
    2692: a6 9a        	ldx	$9a                     ; 0x9a <__rc31+0x6b>
    2694: e4 12        	cpx	$12                     ; 0x12 <__zp_bss_size>
    2696: d0 17        	bne	$26af <printf+0x82d>
    2698: a2 01        	ldx	#$1
    269a: 86 14        	stx	$14                     ; 0x14 <__rc4>
    269c: 18           	clc
    269d: a5 15        	lda	$15                     ; 0x15 <__rc5>
    269f: 65 94        	adc	$94                     ; 0x94 <__rc31+0x65>
    26a1: 85 12        	sta	$12                     ; 0x12 <__zp_bss_size>
    26a3: a5 16        	lda	$16                     ; 0x16 <__rc6>
    26a5: 65 95        	adc	$95                     ; 0x95 <__rc31+0x66>
    26a7: 85 13        	sta	$13                     ; 0x13 <__rc3>
    26a9: a9 20        	lda	#$20
    26ab: 92 12        	sta	($12)                   ; 0x12 <__zp_bss_size>
    26ad: 80 0e        	bra	$26bd <printf+0x83b>
    26af: a2 01        	ldx	#$1
    26b1: 86 63        	stx	$63                     ; 0x63 <__rc31+0x34>
    26b3: ca           	dex
    26b4: a9 20        	lda	#$20
    26b6: 20 b3 2b     	jsr	$2bb3 <putchar>
    26b9: a6 63        	ldx	$63                     ; 0x63 <__rc31+0x34>
    26bb: 86 14        	stx	$14                     ; 0x14 <__rc4>
    26bd: a5 5c        	lda	$5c                     ; 0x5c <__rc31+0x2d>
    26bf: a6 90        	ldx	$90                     ; 0x90 <__rc31+0x61>
    26c1: a4 91        	ldy	$91                     ; 0x91 <__rc31+0x62>
    26c3: e8           	inx
    26c4: d0 01        	bne	$26c7 <printf+0x845>
    26c6: c8           	iny
    26c7: 86 15        	stx	$15                     ; 0x15 <__rc5>
    26c9: 86 90        	stx	$90                     ; 0x90 <__rc31+0x61>
    26cb: 84 91        	sty	$91                     ; 0x91 <__rc31+0x62>
    26cd: a6 5b        	ldx	$5b                     ; 0x5b <__rc31+0x2c>
    26cf: e8           	inx
    26d0: d0 01        	bne	$26d3 <printf+0x851>
    26d2: 1a           	inc
    26d3: 86 5b        	stx	$5b                     ; 0x5b <__rc31+0x2c>
    26d5: c9 00        	cmp	#$0
    26d7: d0 04        	bne	$26dd <printf+0x85b>
    26d9: e0 00        	cpx	#$0
    26db: f0 18        	beq	$26f5 <printf+0x873>
    26dd: 85 5c        	sta	$5c                     ; 0x5c <__rc31+0x2d>
    26df: c4 8f        	cpy	$8f                     ; 0x8f <__rc31+0x60>
    26e1: f0 03        	beq	$26e6 <printf+0x864>
    26e3: 4c 7e 26     	jmp	$267e <printf+0x7fc>
    26e6: 84 16        	sty	$16                     ; 0x16 <__rc6>
    26e8: a6 8e        	ldx	$8e                     ; 0x8e <__rc31+0x5f>
    26ea: 86 12        	stx	$12                     ; 0x12 <__zp_bss_size>
    26ec: a6 15        	ldx	$15                     ; 0x15 <__rc5>
    26ee: e4 12        	cpx	$12                     ; 0x12 <__zp_bss_size>
    26f0: b0 cd        	bcs	$26bf <printf+0x83d>
    26f2: 4c 84 26     	jmp	$2684 <printf+0x802>
    26f5: 64 66        	stz	$66                     ; 0x66 <__rc31+0x37>
    26f7: 64 5c        	stz	$5c                     ; 0x5c <__rc31+0x2d>
    26f9: a6 65        	ldx	$65                     ; 0x65 <__rc31+0x36>
    26fb: a4 14        	ldy	$14                     ; 0x14 <__rc4>
    26fd: a5 64        	lda	$64                     ; 0x64 <__rc31+0x35>
    26ff: f0 03        	beq	$2704 <printf+0x882>
    2701: 4c 65 27     	jmp	$2765 <printf+0x8e3>
    2704: a6 90        	ldx	$90                     ; 0x90 <__rc31+0x61>
    2706: a5 91        	lda	$91                     ; 0x91 <__rc31+0x62>
    2708: c5 8f        	cmp	$8f                     ; 0x8f <__rc31+0x60>
    270a: d0 10        	bne	$271c <printf+0x89a>
    270c: 86 13        	stx	$13                     ; 0x13 <__rc3>
    270e: a6 8e        	ldx	$8e                     ; 0x8e <__rc31+0x5f>
    2710: 86 12        	stx	$12                     ; 0x12 <__zp_bss_size>
    2712: a6 13        	ldx	$13                     ; 0x13 <__rc3>
    2714: 86 15        	stx	$15                     ; 0x15 <__rc5>
    2716: e4 12        	cpx	$12                     ; 0x12 <__zp_bss_size>
    2718: 90 08        	bcc	$2722 <printf+0x8a0>
    271a: 80 41        	bra	$275d <printf+0x8db>
    271c: 86 15        	stx	$15                     ; 0x15 <__rc5>
    271e: c5 8f        	cmp	$8f                     ; 0x8f <__rc31+0x60>
    2720: b0 3b        	bcs	$275d <printf+0x8db>
    2722: a2 01        	ldx	#$1
    2724: 86 14        	stx	$14                     ; 0x14 <__rc4>
    2726: a6 9b        	ldx	$9b                     ; 0x9b <__rc31+0x6c>
    2728: a0 00        	ldy	#$0
    272a: 84 12        	sty	$12                     ; 0x12 <__zp_bss_size>
    272c: a0 00        	ldy	#$0
    272e: 84 13        	sty	$13                     ; 0x13 <__rc3>
    2730: e4 13        	cpx	$13                     ; 0x13 <__rc3>
    2732: d0 1d        	bne	$2751 <printf+0x8cf>
    2734: a6 9a        	ldx	$9a                     ; 0x9a <__rc31+0x6b>
    2736: e4 12        	cpx	$12                     ; 0x12 <__zp_bss_size>
    2738: d0 17        	bne	$2751 <printf+0x8cf>
    273a: a4 14        	ldy	$14                     ; 0x14 <__rc4>
    273c: 18           	clc
    273d: 85 16        	sta	$16                     ; 0x16 <__rc6>
    273f: a5 15        	lda	$15                     ; 0x15 <__rc5>
    2741: 65 94        	adc	$94                     ; 0x94 <__rc31+0x65>
    2743: 85 12        	sta	$12                     ; 0x12 <__zp_bss_size>
    2745: a5 16        	lda	$16                     ; 0x16 <__rc6>
    2747: 65 95        	adc	$95                     ; 0x95 <__rc31+0x66>
    2749: 85 13        	sta	$13                     ; 0x13 <__rc3>
    274b: a5 a1        	lda	$a1                     ; 0xa1 <__rc31+0x72>
    274d: 92 12        	sta	($12)                   ; 0x12 <__zp_bss_size>
    274f: 80 0c        	bra	$275d <printf+0x8db>
    2751: a2 01        	ldx	#$1
    2753: 86 63        	stx	$63                     ; 0x63 <__rc31+0x34>
    2755: ca           	dex
    2756: a5 a1        	lda	$a1                     ; 0xa1 <__rc31+0x72>
    2758: 20 b3 2b     	jsr	$2bb3 <putchar>
    275b: a4 63        	ldy	$63                     ; 0x63 <__rc31+0x34>
    275d: e6 90        	inc	$90                     ; 0x90 <__rc31+0x61>
    275f: d0 02        	bne	$2763 <printf+0x8e1>
    2761: e6 91        	inc	$91                     ; 0x91 <__rc31+0x62>
    2763: a6 65        	ldx	$65                     ; 0x65 <__rc31+0x36>
    2765: a5 61        	lda	$61                     ; 0x61 <__rc31+0x32>
    2767: d0 03        	bne	$276c <printf+0x8ea>
    2769: 4c cd 27     	jmp	$27cd <printf+0x94b>
    276c: a6 90        	ldx	$90                     ; 0x90 <__rc31+0x61>
    276e: a5 91        	lda	$91                     ; 0x91 <__rc31+0x62>
    2770: c5 8f        	cmp	$8f                     ; 0x8f <__rc31+0x60>
    2772: d0 10        	bne	$2784 <printf+0x902>
    2774: 86 13        	stx	$13                     ; 0x13 <__rc3>
    2776: a6 8e        	ldx	$8e                     ; 0x8e <__rc31+0x5f>
    2778: 86 12        	stx	$12                     ; 0x12 <__zp_bss_size>
    277a: a6 13        	ldx	$13                     ; 0x13 <__rc3>
    277c: 86 15        	stx	$15                     ; 0x15 <__rc5>
    277e: e4 12        	cpx	$12                     ; 0x12 <__zp_bss_size>
    2780: 90 08        	bcc	$278a <printf+0x908>
    2782: 80 41        	bra	$27c5 <printf+0x943>
    2784: 86 15        	stx	$15                     ; 0x15 <__rc5>
    2786: c5 8f        	cmp	$8f                     ; 0x8f <__rc31+0x60>
    2788: b0 3b        	bcs	$27c5 <printf+0x943>
    278a: a2 01        	ldx	#$1
    278c: 86 14        	stx	$14                     ; 0x14 <__rc4>
    278e: a6 9b        	ldx	$9b                     ; 0x9b <__rc31+0x6c>
    2790: a0 00        	ldy	#$0
    2792: 84 12        	sty	$12                     ; 0x12 <__zp_bss_size>
    2794: a0 00        	ldy	#$0
    2796: 84 13        	sty	$13                     ; 0x13 <__rc3>
    2798: e4 13        	cpx	$13                     ; 0x13 <__rc3>
    279a: d0 1d        	bne	$27b9 <printf+0x937>
    279c: a6 9a        	ldx	$9a                     ; 0x9a <__rc31+0x6b>
    279e: e4 12        	cpx	$12                     ; 0x12 <__zp_bss_size>
    27a0: d0 17        	bne	$27b9 <printf+0x937>
    27a2: a4 14        	ldy	$14                     ; 0x14 <__rc4>
    27a4: 18           	clc
    27a5: 85 16        	sta	$16                     ; 0x16 <__rc6>
    27a7: a5 15        	lda	$15                     ; 0x15 <__rc5>
    27a9: 65 94        	adc	$94                     ; 0x94 <__rc31+0x65>
    27ab: 85 12        	sta	$12                     ; 0x12 <__zp_bss_size>
    27ad: a5 16        	lda	$16                     ; 0x16 <__rc6>
    27af: 65 95        	adc	$95                     ; 0x95 <__rc31+0x66>
    27b1: 85 13        	sta	$13                     ; 0x13 <__rc3>
    27b3: a5 a5        	lda	$a5                     ; 0xa5 <__rc31+0x76>
    27b5: 92 12        	sta	($12)                   ; 0x12 <__zp_bss_size>
    27b7: 80 0c        	bra	$27c5 <printf+0x943>
    27b9: a2 01        	ldx	#$1
    27bb: 86 63        	stx	$63                     ; 0x63 <__rc31+0x34>
    27bd: ca           	dex
    27be: a5 a5        	lda	$a5                     ; 0xa5 <__rc31+0x76>
    27c0: 20 b3 2b     	jsr	$2bb3 <putchar>
    27c3: a4 63        	ldy	$63                     ; 0x63 <__rc31+0x34>
    27c5: e6 90        	inc	$90                     ; 0x90 <__rc31+0x61>
    27c7: d0 02        	bne	$27cb <printf+0x949>
    27c9: e6 91        	inc	$91                     ; 0x91 <__rc31+0x62>
    27cb: a6 65        	ldx	$65                     ; 0x65 <__rc31+0x36>
    27cd: a9 10        	lda	#$10
    27cf: 25 8c        	and	$8c                     ; 0x8c <__rc31+0x5d>
    27d1: d0 07        	bne	$27da <printf+0x958>
    27d3: a5 a0        	lda	$a0                     ; 0xa0 <__rc31+0x71>
    27d5: 85 64        	sta	$64                     ; 0x64 <__rc31+0x35>
    27d7: 4c 8c 28     	jmp	$288c <printf+0xa0a>
    27da: 86 13        	stx	$13                     ; 0x13 <__rc3>
    27dc: a5 8c        	lda	$8c                     ; 0x8c <__rc31+0x5d>
    27de: 29 01        	and	#$1
    27e0: a6 a0        	ldx	$a0                     ; 0xa0 <__rc31+0x71>
    27e2: 86 64        	stx	$64                     ; 0x64 <__rc31+0x35>
    27e4: aa           	tax
    27e5: f0 03        	beq	$27ea <printf+0x968>
    27e7: 4c 82 28     	jmp	$2882 <printf+0xa00>
    27ea: a5 66        	lda	$66                     ; 0x66 <__rc31+0x37>
    27ec: a6 5c        	ldx	$5c                     ; 0x5c <__rc31+0x2d>
    27ee: 86 12        	stx	$12                     ; 0x12 <__zp_bss_size>
    27f0: a6 12        	ldx	$12                     ; 0x12 <__zp_bss_size>
    27f2: d0 06        	bne	$27fa <printf+0x978>
    27f4: aa           	tax
    27f5: d0 03        	bne	$27fa <printf+0x978>
    27f7: 4c a9 2b     	jmp	$2ba9 <printf+0xd27>
    27fa: a6 90        	ldx	$90                     ; 0x90 <__rc31+0x61>
    27fc: 86 15        	stx	$15                     ; 0x15 <__rc5>
    27fe: a5 91        	lda	$91                     ; 0x91 <__rc31+0x62>
    2800: 4c 6e 28     	jmp	$286e <printf+0x9ec>
    2803: c5 8f        	cmp	$8f                     ; 0x8f <__rc31+0x60>
    2805: b0 39        	bcs	$2840 <printf+0x9be>
    2807: a2 01        	ldx	#$1
    2809: 86 14        	stx	$14                     ; 0x14 <__rc4>
    280b: a6 9b        	ldx	$9b                     ; 0x9b <__rc31+0x6c>
    280d: a0 00        	ldy	#$0
    280f: 84 12        	sty	$12                     ; 0x12 <__zp_bss_size>
    2811: a0 00        	ldy	#$0
    2813: 84 13        	sty	$13                     ; 0x13 <__rc3>
    2815: e4 13        	cpx	$13                     ; 0x13 <__rc3>
    2817: d0 1b        	bne	$2834 <printf+0x9b2>
    2819: a6 9a        	ldx	$9a                     ; 0x9a <__rc31+0x6b>
    281b: e4 12        	cpx	$12                     ; 0x12 <__zp_bss_size>
    281d: d0 15        	bne	$2834 <printf+0x9b2>
    281f: a4 14        	ldy	$14                     ; 0x14 <__rc4>
    2821: 18           	clc
    2822: aa           	tax
    2823: a5 15        	lda	$15                     ; 0x15 <__rc5>
    2825: 65 94        	adc	$94                     ; 0x94 <__rc31+0x65>
    2827: 85 12        	sta	$12                     ; 0x12 <__zp_bss_size>
    2829: 8a           	txa
    282a: 65 95        	adc	$95                     ; 0x95 <__rc31+0x66>
    282c: 85 13        	sta	$13                     ; 0x13 <__rc3>
    282e: a9 30        	lda	#$30
    2830: 92 12        	sta	($12)                   ; 0x12 <__zp_bss_size>
    2832: 80 0c        	bra	$2840 <printf+0x9be>
    2834: a2 01        	ldx	#$1
    2836: 86 63        	stx	$63                     ; 0x63 <__rc31+0x34>
    2838: ca           	dex
    2839: a9 30        	lda	#$30
    283b: 20 b3 2b     	jsr	$2bb3 <putchar>
    283e: a4 63        	ldy	$63                     ; 0x63 <__rc31+0x34>
    2840: a6 90        	ldx	$90                     ; 0x90 <__rc31+0x61>
    2842: a5 91        	lda	$91                     ; 0x91 <__rc31+0x62>
    2844: e8           	inx
    2845: d0 01        	bne	$2848 <printf+0x9c6>
    2847: 1a           	inc
    2848: 86 15        	stx	$15                     ; 0x15 <__rc5>
    284a: 86 90        	stx	$90                     ; 0x90 <__rc31+0x61>
    284c: 85 91        	sta	$91                     ; 0x91 <__rc31+0x62>
    284e: a6 66        	ldx	$66                     ; 0x66 <__rc31+0x37>
    2850: 86 12        	stx	$12                     ; 0x12 <__zp_bss_size>
    2852: a6 5c        	ldx	$5c                     ; 0x5c <__rc31+0x2d>
    2854: 86 13        	stx	$13                     ; 0x13 <__rc3>
    2856: a2 ff        	ldx	#$ff
    2858: c6 12        	dec	$12                     ; 0x12 <__zp_bss_size>
    285a: e4 12        	cpx	$12                     ; 0x12 <__zp_bss_size>
    285c: d0 02        	bne	$2860 <printf+0x9de>
    285e: c6 13        	dec	$13                     ; 0x13 <__rc3>
    2860: a6 12        	ldx	$12                     ; 0x12 <__zp_bss_size>
    2862: 86 66        	stx	$66                     ; 0x66 <__rc31+0x37>
    2864: a6 13        	ldx	$13                     ; 0x13 <__rc3>
    2866: 86 5c        	stx	$5c                     ; 0x5c <__rc31+0x2d>
    2868: d0 04        	bne	$286e <printf+0x9ec>
    286a: a6 12        	ldx	$12                     ; 0x12 <__zp_bss_size>
    286c: f0 18        	beq	$2886 <printf+0xa04>
    286e: c5 8f        	cmp	$8f                     ; 0x8f <__rc31+0x60>
    2870: f0 03        	beq	$2875 <printf+0x9f3>
    2872: 4c 03 28     	jmp	$2803 <printf+0x981>
    2875: a6 8e        	ldx	$8e                     ; 0x8e <__rc31+0x5f>
    2877: 86 12        	stx	$12                     ; 0x12 <__zp_bss_size>
    2879: a6 15        	ldx	$15                     ; 0x15 <__rc5>
    287b: e4 12        	cpx	$12                     ; 0x12 <__zp_bss_size>
    287d: b0 c1        	bcs	$2840 <printf+0x9be>
    287f: 4c 07 28     	jmp	$2807 <printf+0x985>
    2882: a6 13        	ldx	$13                     ; 0x13 <__rc3>
    2884: 80 06        	bra	$288c <printf+0xa0a>
    2886: 64 66        	stz	$66                     ; 0x66 <__rc31+0x37>
    2888: 64 5c        	stz	$5c                     ; 0x5c <__rc31+0x2d>
    288a: a6 65        	ldx	$65                     ; 0x65 <__rc31+0x36>
    288c: a9 00        	lda	#$0
    288e: c5 62        	cmp	$62                     ; 0x62 <__rc31+0x33>
    2890: d0 07        	bne	$2899 <printf+0xa17>
    2892: e4 64        	cpx	$64                     ; 0x64 <__rc31+0x35>
    2894: 90 0a        	bcc	$28a0 <printf+0xa1e>
    2896: 4c 23 29     	jmp	$2923 <printf+0xaa1>
    2899: c5 62        	cmp	$62                     ; 0x62 <__rc31+0x33>
    289b: 90 03        	bcc	$28a0 <printf+0xa1e>
    289d: 4c 23 29     	jmp	$2923 <printf+0xaa1>
    28a0: a6 90        	ldx	$90                     ; 0x90 <__rc31+0x61>
    28a2: 86 15        	stx	$15                     ; 0x15 <__rc5>
    28a4: a5 91        	lda	$91                     ; 0x91 <__rc31+0x62>
    28a6: a2 ff        	ldx	#$ff
    28a8: c6 64        	dec	$64                     ; 0x64 <__rc31+0x35>
    28aa: e4 64        	cpx	$64                     ; 0x64 <__rc31+0x35>
    28ac: d0 02        	bne	$28b0 <printf+0xa2e>
    28ae: c6 62        	dec	$62                     ; 0x62 <__rc31+0x33>
    28b0: c5 8f        	cmp	$8f                     ; 0x8f <__rc31+0x60>
    28b2: d0 0c        	bne	$28c0 <printf+0xa3e>
    28b4: a6 8e        	ldx	$8e                     ; 0x8e <__rc31+0x5f>
    28b6: 86 12        	stx	$12                     ; 0x12 <__zp_bss_size>
    28b8: a6 15        	ldx	$15                     ; 0x15 <__rc5>
    28ba: e4 12        	cpx	$12                     ; 0x12 <__zp_bss_size>
    28bc: 90 06        	bcc	$28c4 <printf+0xa42>
    28be: 80 3d        	bra	$28fd <printf+0xa7b>
    28c0: c5 8f        	cmp	$8f                     ; 0x8f <__rc31+0x60>
    28c2: b0 39        	bcs	$28fd <printf+0xa7b>
    28c4: a2 01        	ldx	#$1
    28c6: 86 14        	stx	$14                     ; 0x14 <__rc4>
    28c8: a6 9b        	ldx	$9b                     ; 0x9b <__rc31+0x6c>
    28ca: a0 00        	ldy	#$0
    28cc: 84 12        	sty	$12                     ; 0x12 <__zp_bss_size>
    28ce: a0 00        	ldy	#$0
    28d0: 84 13        	sty	$13                     ; 0x13 <__rc3>
    28d2: e4 13        	cpx	$13                     ; 0x13 <__rc3>
    28d4: d0 1b        	bne	$28f1 <printf+0xa6f>
    28d6: a6 9a        	ldx	$9a                     ; 0x9a <__rc31+0x6b>
    28d8: e4 12        	cpx	$12                     ; 0x12 <__zp_bss_size>
    28da: d0 15        	bne	$28f1 <printf+0xa6f>
    28dc: a4 14        	ldy	$14                     ; 0x14 <__rc4>
    28de: 18           	clc
    28df: aa           	tax
    28e0: a5 15        	lda	$15                     ; 0x15 <__rc5>
    28e2: 65 94        	adc	$94                     ; 0x94 <__rc31+0x65>
    28e4: 85 12        	sta	$12                     ; 0x12 <__zp_bss_size>
    28e6: 8a           	txa
    28e7: 65 95        	adc	$95                     ; 0x95 <__rc31+0x66>
    28e9: 85 13        	sta	$13                     ; 0x13 <__rc3>
    28eb: a9 30        	lda	#$30
    28ed: 92 12        	sta	($12)                   ; 0x12 <__zp_bss_size>
    28ef: 80 0c        	bra	$28fd <printf+0xa7b>
    28f1: a2 01        	ldx	#$1
    28f3: 86 63        	stx	$63                     ; 0x63 <__rc31+0x34>
    28f5: ca           	dex
    28f6: a9 30        	lda	#$30
    28f8: 20 b3 2b     	jsr	$2bb3 <putchar>
    28fb: a4 63        	ldy	$63                     ; 0x63 <__rc31+0x34>
    28fd: a6 90        	ldx	$90                     ; 0x90 <__rc31+0x61>
    28ff: a5 91        	lda	$91                     ; 0x91 <__rc31+0x62>
    2901: e8           	inx
    2902: d0 01        	bne	$2905 <printf+0xa83>
    2904: 1a           	inc
    2905: 86 15        	stx	$15                     ; 0x15 <__rc5>
    2907: 86 90        	stx	$90                     ; 0x90 <__rc31+0x61>
    2909: 85 91        	sta	$91                     ; 0x91 <__rc31+0x62>
    290b: a2 00        	ldx	#$0
    290d: e4 62        	cpx	$62                     ; 0x62 <__rc31+0x33>
    290f: d0 09        	bne	$291a <printf+0xa98>
    2911: a6 65        	ldx	$65                     ; 0x65 <__rc31+0x36>
    2913: e4 64        	cpx	$64                     ; 0x64 <__rc31+0x35>
    2915: b0 0c        	bcs	$2923 <printf+0xaa1>
    2917: 4c a6 28     	jmp	$28a6 <printf+0xa24>
    291a: e4 62        	cpx	$62                     ; 0x62 <__rc31+0x33>
    291c: a6 65        	ldx	$65                     ; 0x65 <__rc31+0x36>
    291e: b0 03        	bcs	$2923 <printf+0xaa1>
    2920: 4c a6 28     	jmp	$28a6 <printf+0xa24>
    2923: 8a           	txa
    2924: d0 03        	bne	$2929 <printf+0xaa7>
    2926: 4c 5a 2a     	jmp	$2a5a <printf+0xbd8>
    2929: ca           	dex
    292a: d0 03        	bne	$292f <printf+0xaad>
    292c: 4c dc 29     	jmp	$29dc <printf+0xb5a>
    292f: 86 63        	stx	$63                     ; 0x63 <__rc31+0x34>
    2931: a6 a7        	ldx	$a7                     ; 0xa7 <__rc31+0x78>
    2933: 8a           	txa
    2934: 18           	clc
    2935: 65 63        	adc	$63                     ; 0x63 <__rc31+0x34>
    2937: 85 61        	sta	$61                     ; 0x61 <__rc31+0x32>
    2939: a5 a8        	lda	$a8                     ; 0xa8 <__rc31+0x79>
    293b: 69 00        	adc	#$0
    293d: 85 62        	sta	$62                     ; 0x62 <__rc31+0x33>
    293f: 4c ca 29     	jmp	$29ca <printf+0xb48>
    2942: 85 13        	sta	$13                     ; 0x13 <__rc3>
    2944: a9 80        	lda	#$80
    2946: 25 8c        	and	$8c                     ; 0x8c <__rc31+0x5d>
    2948: f0 04        	beq	$294e <printf+0xacc>
    294a: a2 61        	ldx	#$61
    294c: 80 02        	bra	$2950 <printf+0xace>
    294e: a2 41        	ldx	#$41
    2950: 86 12        	stx	$12                     ; 0x12 <__zp_bss_size>
    2952: a2 01        	ldx	#$1
    2954: 86 14        	stx	$14                     ; 0x14 <__rc4>
    2956: 18           	clc
    2957: a5 13        	lda	$13                     ; 0x13 <__rc3>
    2959: 65 12        	adc	$12                     ; 0x12 <__zp_bss_size>
    295b: 18           	clc
    295c: 69 f6        	adc	#$f6
    295e: a4 90        	ldy	$90                     ; 0x90 <__rc31+0x61>
    2960: a6 91        	ldx	$91                     ; 0x91 <__rc31+0x62>
    2962: e4 8f        	cpx	$8f                     ; 0x8f <__rc31+0x60>
    2964: d0 0c        	bne	$2972 <printf+0xaf0>
    2966: 86 16        	stx	$16                     ; 0x16 <__rc6>
    2968: a6 8e        	ldx	$8e                     ; 0x8e <__rc31+0x5f>
    296a: 86 12        	stx	$12                     ; 0x12 <__zp_bss_size>
    296c: 84 15        	sty	$15                     ; 0x15 <__rc5>
    296e: c4 12        	cpy	$12                     ; 0x12 <__zp_bss_size>
    2970: 80 06        	bra	$2978 <printf+0xaf6>
    2972: 84 15        	sty	$15                     ; 0x15 <__rc5>
    2974: 86 16        	stx	$16                     ; 0x16 <__rc6>
    2976: e4 8f        	cpx	$8f                     ; 0x8f <__rc31+0x60>
    2978: a4 14        	ldy	$14                     ; 0x14 <__rc4>
    297a: b0 38        	bcs	$29b4 <printf+0xb32>
    297c: 85 14        	sta	$14                     ; 0x14 <__rc4>
    297e: a9 01        	lda	#$1
    2980: a6 9b        	ldx	$9b                     ; 0x9b <__rc31+0x6c>
    2982: a0 00        	ldy	#$0
    2984: 84 12        	sty	$12                     ; 0x12 <__zp_bss_size>
    2986: a0 00        	ldy	#$0
    2988: 84 13        	sty	$13                     ; 0x13 <__rc3>
    298a: e4 13        	cpx	$13                     ; 0x13 <__rc3>
    298c: d0 1a        	bne	$29a8 <printf+0xb26>
    298e: a6 9a        	ldx	$9a                     ; 0x9a <__rc31+0x6b>
    2990: e4 12        	cpx	$12                     ; 0x12 <__zp_bss_size>
    2992: d0 14        	bne	$29a8 <printf+0xb26>
    2994: a8           	tay
    2995: 18           	clc
    2996: a5 15        	lda	$15                     ; 0x15 <__rc5>
    2998: 65 94        	adc	$94                     ; 0x94 <__rc31+0x65>
    299a: 85 12        	sta	$12                     ; 0x12 <__zp_bss_size>
    299c: a5 16        	lda	$16                     ; 0x16 <__rc6>
    299e: 65 95        	adc	$95                     ; 0x95 <__rc31+0x66>
    29a0: 85 13        	sta	$13                     ; 0x13 <__rc3>
    29a2: a5 14        	lda	$14                     ; 0x14 <__rc4>
    29a4: 92 12        	sta	($12)                   ; 0x12 <__zp_bss_size>
    29a6: 80 0c        	bra	$29b4 <printf+0xb32>
    29a8: a2 01        	ldx	#$1
    29aa: 86 64        	stx	$64                     ; 0x64 <__rc31+0x35>
    29ac: ca           	dex
    29ad: a5 14        	lda	$14                     ; 0x14 <__rc4>
    29af: 20 b3 2b     	jsr	$2bb3 <putchar>
    29b2: a4 64        	ldy	$64                     ; 0x64 <__rc31+0x35>
    29b4: e6 90        	inc	$90                     ; 0x90 <__rc31+0x61>
    29b6: d0 02        	bne	$29ba <printf+0xb38>
    29b8: e6 91        	inc	$91                     ; 0x91 <__rc31+0x62>
    29ba: c6 63        	dec	$63                     ; 0x63 <__rc31+0x34>
    29bc: a2 ff        	ldx	#$ff
    29be: c6 61        	dec	$61                     ; 0x61 <__rc31+0x32>
    29c0: e4 61        	cpx	$61                     ; 0x61 <__rc31+0x32>
    29c2: d0 02        	bne	$29c6 <printf+0xb44>
    29c4: c6 62        	dec	$62                     ; 0x62 <__rc31+0x33>
    29c6: a5 63        	lda	$63                     ; 0x63 <__rc31+0x34>
    29c8: f0 12        	beq	$29dc <printf+0xb5a>
    29ca: b2 61        	lda	($61)                   ; 0x61 <__rc31+0x32>
    29cc: c9 0a        	cmp	#$a
    29ce: 90 03        	bcc	$29d3 <printf+0xb51>
    29d0: 4c 42 29     	jmp	$2942 <printf+0xac0>
    29d3: a2 01        	ldx	#$1
    29d5: 86 14        	stx	$14                     ; 0x14 <__rc4>
    29d7: 09 30        	ora	#$30
    29d9: 4c 5e 29     	jmp	$295e <printf+0xadc>
    29dc: a5 69        	lda	$69                     ; 0x69 <__rc31+0x3a>
    29de: c9 0a        	cmp	#$a
    29e0: b0 04        	bcs	$29e6 <printf+0xb64>
    29e2: 09 30        	ora	#$30
    29e4: 80 18        	bra	$29fe <printf+0xb7c>
    29e6: 85 13        	sta	$13                     ; 0x13 <__rc3>
    29e8: a9 80        	lda	#$80
    29ea: 25 8c        	and	$8c                     ; 0x8c <__rc31+0x5d>
    29ec: f0 04        	beq	$29f2 <printf+0xb70>
    29ee: a2 61        	ldx	#$61
    29f0: 80 02        	bra	$29f4 <printf+0xb72>
    29f2: a2 41        	ldx	#$41
    29f4: 86 12        	stx	$12                     ; 0x12 <__zp_bss_size>
    29f6: 18           	clc
    29f7: a5 13        	lda	$13                     ; 0x13 <__rc3>
    29f9: 65 12        	adc	$12                     ; 0x12 <__zp_bss_size>
    29fb: 18           	clc
    29fc: 69 f6        	adc	#$f6
    29fe: a6 90        	ldx	$90                     ; 0x90 <__rc31+0x61>
    2a00: 86 15        	stx	$15                     ; 0x15 <__rc5>
    2a02: a6 91        	ldx	$91                     ; 0x91 <__rc31+0x62>
    2a04: e4 8f        	cpx	$8f                     ; 0x8f <__rc31+0x60>
    2a06: d0 0e        	bne	$2a16 <printf+0xb94>
    2a08: 86 16        	stx	$16                     ; 0x16 <__rc6>
    2a0a: a6 8e        	ldx	$8e                     ; 0x8e <__rc31+0x5f>
    2a0c: 86 12        	stx	$12                     ; 0x12 <__zp_bss_size>
    2a0e: a6 15        	ldx	$15                     ; 0x15 <__rc5>
    2a10: e4 12        	cpx	$12                     ; 0x12 <__zp_bss_size>
    2a12: 90 08        	bcc	$2a1c <printf+0xb9a>
    2a14: 80 3e        	bra	$2a54 <printf+0xbd2>
    2a16: 86 16        	stx	$16                     ; 0x16 <__rc6>
    2a18: e4 8f        	cpx	$8f                     ; 0x8f <__rc31+0x60>
    2a1a: b0 38        	bcs	$2a54 <printf+0xbd2>
    2a1c: 85 14        	sta	$14                     ; 0x14 <__rc4>
    2a1e: a9 01        	lda	#$1
    2a20: a6 9b        	ldx	$9b                     ; 0x9b <__rc31+0x6c>
    2a22: a0 00        	ldy	#$0
    2a24: 84 12        	sty	$12                     ; 0x12 <__zp_bss_size>
    2a26: a0 00        	ldy	#$0
    2a28: 84 13        	sty	$13                     ; 0x13 <__rc3>
    2a2a: e4 13        	cpx	$13                     ; 0x13 <__rc3>
    2a2c: d0 1a        	bne	$2a48 <printf+0xbc6>
    2a2e: a6 9a        	ldx	$9a                     ; 0x9a <__rc31+0x6b>
    2a30: e4 12        	cpx	$12                     ; 0x12 <__zp_bss_size>
    2a32: d0 14        	bne	$2a48 <printf+0xbc6>
    2a34: a8           	tay
    2a35: 18           	clc
    2a36: a5 15        	lda	$15                     ; 0x15 <__rc5>
    2a38: 65 94        	adc	$94                     ; 0x94 <__rc31+0x65>
    2a3a: 85 12        	sta	$12                     ; 0x12 <__zp_bss_size>
    2a3c: a5 16        	lda	$16                     ; 0x16 <__rc6>
    2a3e: 65 95        	adc	$95                     ; 0x95 <__rc31+0x66>
    2a40: 85 13        	sta	$13                     ; 0x13 <__rc3>
    2a42: a5 14        	lda	$14                     ; 0x14 <__rc4>
    2a44: 92 12        	sta	($12)                   ; 0x12 <__zp_bss_size>
    2a46: 80 0c        	bra	$2a54 <printf+0xbd2>
    2a48: a2 01        	ldx	#$1
    2a4a: 86 61        	stx	$61                     ; 0x61 <__rc31+0x32>
    2a4c: ca           	dex
    2a4d: a5 14        	lda	$14                     ; 0x14 <__rc4>
    2a4f: 20 b3 2b     	jsr	$2bb3 <putchar>
    2a52: a4 61        	ldy	$61                     ; 0x61 <__rc31+0x32>
    2a54: e6 90        	inc	$90                     ; 0x90 <__rc31+0x61>
    2a56: d0 02        	bne	$2a5a <printf+0xbd8>
    2a58: e6 91        	inc	$91                     ; 0x91 <__rc31+0x62>
    2a5a: a5 8c        	lda	$8c                     ; 0x8c <__rc31+0x5d>
    2a5c: 29 01        	and	#$1
    2a5e: d0 27        	bne	$2a87 <printf+0xc05>
    2a60: a6 90        	ldx	$90                     ; 0x90 <__rc31+0x61>
    2a62: 86 15        	stx	$15                     ; 0x15 <__rc5>
    2a64: a5 91        	lda	$91                     ; 0x91 <__rc31+0x62>
    2a66: a6 8e        	ldx	$8e                     ; 0x8e <__rc31+0x5f>
    2a68: 86 14        	stx	$14                     ; 0x14 <__rc4>
    2a6a: a6 8f        	ldx	$8f                     ; 0x8f <__rc31+0x60>
    2a6c: 86 12        	stx	$12                     ; 0x12 <__zp_bss_size>
    2a6e: 86 13        	stx	$13                     ; 0x13 <__rc3>
    2a70: c5 12        	cmp	$12                     ; 0x12 <__zp_bss_size>
    2a72: f0 03        	beq	$2a77 <printf+0xbf5>
    2a74: 4c 27 2b     	jmp	$2b27 <printf+0xca5>
    2a77: a5 14        	lda	$14                     ; 0x14 <__rc4>
    2a79: 85 12        	sta	$12                     ; 0x12 <__zp_bss_size>
    2a7b: a6 15        	ldx	$15                     ; 0x15 <__rc5>
    2a7d: e4 12        	cpx	$12                     ; 0x12 <__zp_bss_size>
    2a7f: 90 03        	bcc	$2a84 <printf+0xc02>
    2a81: 4c 2f 2b     	jmp	$2b2f <printf+0xcad>
    2a84: 4c 4f 2b     	jmp	$2b4f <printf+0xccd>
    2a87: a6 90        	ldx	$90                     ; 0x90 <__rc31+0x61>
    2a89: 86 15        	stx	$15                     ; 0x15 <__rc5>
    2a8b: a5 91        	lda	$91                     ; 0x91 <__rc31+0x62>
    2a8d: a6 66        	ldx	$66                     ; 0x66 <__rc31+0x37>
    2a8f: 5a           	phy
    2a90: a4 5c        	ldy	$5c                     ; 0x5c <__rc31+0x2d>
    2a92: 84 12        	sty	$12                     ; 0x12 <__zp_bss_size>
    2a94: 7a           	ply
    2a95: e6 12        	inc	$12                     ; 0x12 <__zp_bss_size>
    2a97: c6 12        	dec	$12                     ; 0x12 <__zp_bss_size>
    2a99: f0 03        	beq	$2a9e <printf+0xc1c>
    2a9b: 4c 13 2b     	jmp	$2b13 <printf+0xc91>
    2a9e: e0 00        	cpx	#$0
    2aa0: f0 c4        	beq	$2a66 <printf+0xbe4>
    2aa2: 4c 13 2b     	jmp	$2b13 <printf+0xc91>
    2aa5: c5 8f        	cmp	$8f                     ; 0x8f <__rc31+0x60>
    2aa7: b0 39        	bcs	$2ae2 <printf+0xc60>
    2aa9: a2 01        	ldx	#$1
    2aab: 86 14        	stx	$14                     ; 0x14 <__rc4>
    2aad: a6 9b        	ldx	$9b                     ; 0x9b <__rc31+0x6c>
    2aaf: a0 00        	ldy	#$0
    2ab1: 84 12        	sty	$12                     ; 0x12 <__zp_bss_size>
    2ab3: a0 00        	ldy	#$0
    2ab5: 84 13        	sty	$13                     ; 0x13 <__rc3>
    2ab7: e4 13        	cpx	$13                     ; 0x13 <__rc3>
    2ab9: d0 1b        	bne	$2ad6 <printf+0xc54>
    2abb: a6 9a        	ldx	$9a                     ; 0x9a <__rc31+0x6b>
    2abd: e4 12        	cpx	$12                     ; 0x12 <__zp_bss_size>
    2abf: d0 15        	bne	$2ad6 <printf+0xc54>
    2ac1: a4 14        	ldy	$14                     ; 0x14 <__rc4>
    2ac3: 18           	clc
    2ac4: aa           	tax
    2ac5: a5 15        	lda	$15                     ; 0x15 <__rc5>
    2ac7: 65 94        	adc	$94                     ; 0x94 <__rc31+0x65>
    2ac9: 85 12        	sta	$12                     ; 0x12 <__zp_bss_size>
    2acb: 8a           	txa
    2acc: 65 95        	adc	$95                     ; 0x95 <__rc31+0x66>
    2ace: 85 13        	sta	$13                     ; 0x13 <__rc3>
    2ad0: a9 20        	lda	#$20
    2ad2: 92 12        	sta	($12)                   ; 0x12 <__zp_bss_size>
    2ad4: 80 0c        	bra	$2ae2 <printf+0xc60>
    2ad6: a2 01        	ldx	#$1
    2ad8: 86 61        	stx	$61                     ; 0x61 <__rc31+0x32>
    2ada: ca           	dex
    2adb: a9 20        	lda	#$20
    2add: 20 b3 2b     	jsr	$2bb3 <putchar>
    2ae0: a4 61        	ldy	$61                     ; 0x61 <__rc31+0x32>
    2ae2: a6 90        	ldx	$90                     ; 0x90 <__rc31+0x61>
    2ae4: a5 91        	lda	$91                     ; 0x91 <__rc31+0x62>
    2ae6: e8           	inx
    2ae7: d0 01        	bne	$2aea <printf+0xc68>
    2ae9: 1a           	inc
    2aea: 86 15        	stx	$15                     ; 0x15 <__rc5>
    2aec: 86 90        	stx	$90                     ; 0x90 <__rc31+0x61>
    2aee: 85 91        	sta	$91                     ; 0x91 <__rc31+0x62>
    2af0: a6 66        	ldx	$66                     ; 0x66 <__rc31+0x37>
    2af2: 86 12        	stx	$12                     ; 0x12 <__zp_bss_size>
    2af4: a6 5c        	ldx	$5c                     ; 0x5c <__rc31+0x2d>
    2af6: 86 13        	stx	$13                     ; 0x13 <__rc3>
    2af8: a2 ff        	ldx	#$ff
    2afa: c6 12        	dec	$12                     ; 0x12 <__zp_bss_size>
    2afc: e4 12        	cpx	$12                     ; 0x12 <__zp_bss_size>
    2afe: d0 02        	bne	$2b02 <printf+0xc80>
    2b00: c6 13        	dec	$13                     ; 0x13 <__rc3>
    2b02: a6 12        	ldx	$12                     ; 0x12 <__zp_bss_size>
    2b04: 86 66        	stx	$66                     ; 0x66 <__rc31+0x37>
    2b06: a6 13        	ldx	$13                     ; 0x13 <__rc3>
    2b08: 86 5c        	stx	$5c                     ; 0x5c <__rc31+0x2d>
    2b0a: d0 07        	bne	$2b13 <printf+0xc91>
    2b0c: a6 12        	ldx	$12                     ; 0x12 <__zp_bss_size>
    2b0e: d0 03        	bne	$2b13 <printf+0xc91>
    2b10: 4c 66 2a     	jmp	$2a66 <printf+0xbe4>
    2b13: c5 8f        	cmp	$8f                     ; 0x8f <__rc31+0x60>
    2b15: f0 03        	beq	$2b1a <printf+0xc98>
    2b17: 4c a5 2a     	jmp	$2aa5 <printf+0xc23>
    2b1a: a6 8e        	ldx	$8e                     ; 0x8e <__rc31+0x5f>
    2b1c: 86 12        	stx	$12                     ; 0x12 <__zp_bss_size>
    2b1e: a6 15        	ldx	$15                     ; 0x15 <__rc5>
    2b20: e4 12        	cpx	$12                     ; 0x12 <__zp_bss_size>
    2b22: b0 be        	bcs	$2ae2 <printf+0xc60>
    2b24: 4c a9 2a     	jmp	$2aa9 <printf+0xc27>
    2b27: 86 12        	stx	$12                     ; 0x12 <__zp_bss_size>
    2b29: c5 12        	cmp	$12                     ; 0x12 <__zp_bss_size>
    2b2b: a5 14        	lda	$14                     ; 0x14 <__rc4>
    2b2d: 90 20        	bcc	$2b4f <printf+0xccd>
    2b2f: a6 13        	ldx	$13                     ; 0x13 <__rc3>
    2b31: d0 03        	bne	$2b36 <printf+0xcb4>
    2b33: aa           	tax
    2b34: f0 19        	beq	$2b4f <printf+0xccd>
    2b36: 18           	clc
    2b37: 65 94        	adc	$94                     ; 0x94 <__rc31+0x65>
    2b39: 85 12        	sta	$12                     ; 0x12 <__zp_bss_size>
    2b3b: a5 13        	lda	$13                     ; 0x13 <__rc3>
    2b3d: 65 95        	adc	$95                     ; 0x95 <__rc31+0x66>
    2b3f: 85 13        	sta	$13                     ; 0x13 <__rc3>
    2b41: a2 ff        	ldx	#$ff
    2b43: c6 12        	dec	$12                     ; 0x12 <__zp_bss_size>
    2b45: e4 12        	cpx	$12                     ; 0x12 <__zp_bss_size>
    2b47: d0 02        	bne	$2b4b <printf+0xcc9>
    2b49: c6 13        	dec	$13                     ; 0x13 <__rc3>
    2b4b: a9 00        	lda	#$0
    2b4d: 92 12        	sta	($12)                   ; 0x12 <__zp_bss_size>
    2b4f: e6 5f        	inc	$5f                     ; 0x5f <__rc31+0x30>
    2b51: d0 02        	bne	$2b55 <printf+0xcd3>
    2b53: e6 60        	inc	$60                     ; 0x60 <__rc31+0x31>
    2b55: a6 60        	ldx	$60                     ; 0x60 <__rc31+0x31>
    2b57: e4 5e        	cpx	$5e                     ; 0x5e <__rc31+0x2f>
    2b59: f0 03        	beq	$2b5e <printf+0xcdc>
    2b5b: 4c e7 1e     	jmp	$1ee7 <printf+0x65>
    2b5e: a6 5f        	ldx	$5f                     ; 0x5f <__rc31+0x30>
    2b60: e4 5d        	cpx	$5d                     ; 0x5d <__rc31+0x2e>
    2b62: f0 03        	beq	$2b67 <printf+0xce5>
    2b64: 4c e7 1e     	jmp	$1ee7 <printf+0x65>
    2b67: b2 5d        	lda	($5d)                   ; 0x5d <__rc31+0x2e>
    2b69: a2 00        	ldx	#$0
    2b6b: 4c fe 1e     	jmp	$1efe <printf+0x7c>
    2b6e: a2 20        	ldx	#$20
    2b70: 86 a1        	stx	$a1                     ; 0xa1 <__rc31+0x72>
    2b72: 4c fe 25     	jmp	$25fe <printf+0x77c>
    2b75: e4 62        	cpx	$62                     ; 0x62 <__rc31+0x33>
    2b77: a6 5b        	ldx	$5b                     ; 0x5b <__rc31+0x2c>
    2b79: b0 03        	bcs	$2b7e <printf+0xcfc>
    2b7b: 4c d0 25     	jmp	$25d0 <printf+0x74e>
    2b7e: a5 65        	lda	$65                     ; 0x65 <__rc31+0x36>
    2b80: 85 61        	sta	$61                     ; 0x61 <__rc31+0x32>
    2b82: 64 62        	stz	$62                     ; 0x62 <__rc31+0x33>
    2b84: e6 61        	inc	$61                     ; 0x61 <__rc31+0x32>
    2b86: f0 03        	beq	$2b8b <printf+0xd09>
    2b88: 4c d0 25     	jmp	$25d0 <printf+0x74e>
    2b8b: e6 62        	inc	$62                     ; 0x62 <__rc31+0x33>
    2b8d: 4c d0 25     	jmp	$25d0 <printf+0x74e>
    2b90: 86 a0        	stx	$a0                     ; 0xa0 <__rc31+0x71>
    2b92: a2 58        	ldx	#$58
    2b94: 86 a5        	stx	$a5                     ; 0xa5 <__rc31+0x76>
    2b96: a2 01        	ldx	#$1
    2b98: 86 61        	stx	$61                     ; 0x61 <__rc31+0x32>
    2b9a: a2 30        	ldx	#$30
    2b9c: 86 a1        	stx	$a1                     ; 0xa1 <__rc31+0x72>
    2b9e: a2 02        	ldx	#$2
    2ba0: 86 16        	stx	$16                     ; 0x16 <__rc6>
    2ba2: a2 00        	ldx	#$0
    2ba4: 86 64        	stx	$64                     ; 0x64 <__rc31+0x35>
    2ba6: 4c 04 26     	jmp	$2604 <printf+0x782>
    2ba9: a6 13        	ldx	$13                     ; 0x13 <__rc3>
    2bab: 64 66        	stz	$66                     ; 0x66 <__rc31+0x37>
    2bad: 64 5c        	stz	$5c                     ; 0x5c <__rc31+0x2d>
    2baf: 4c 8c 28     	jmp	$288c <printf+0xa0a>
    2bb2: 60           	rts

00002bb3 <putchar>:
    2bb3: 86 12        	stx	$12                     ; 0x12 <__zp_bss_size>
    2bb5: 85 b4        	sta	$b4                     ; 0xb4 <__rc31+0x85>
    2bb7: 85 39        	sta	$39                     ; 0x39 <__putchar.s>
    2bb9: a6 01        	ldx	$1                      ; 0x1 <__data_size+0x1>
    2bbb: 86 b5        	stx	$b5                     ; 0xb5 <__rc31+0x86>
    2bbd: a6 38        	ldx	$38                     ; 0x38 <_row>
    2bbf: a0 50        	ldy	#$50
    2bc1: 8c 00 de     	sty	$de00                   ; 0xde00 <end_block9+0x85fe>
    2bc4: 9c 01 de     	stz	$de01                   ; 0xde01 <end_block9+0x85ff>
    2bc7: 8e 02 de     	stx	$de02                   ; 0xde02 <end_block9+0x8600>
    2bca: 9c 03 de     	stz	$de03                   ; 0xde03 <end_block9+0x8601>
    2bcd: ae 10 de     	ldx	$de10                   ; 0xde10 <end_block9+0x860e>
    2bd0: ad 11 de     	lda	$de11                   ; 0xde11 <end_block9+0x860f>
    2bd3: ac 12 de     	ldy	$de12                   ; 0xde12 <end_block9+0x8610>
    2bd6: 84 1a        	sty	$1a                     ; 0x1a <__rc10>
    2bd8: ac 13 de     	ldy	$de13                   ; 0xde13 <end_block9+0x8611>
    2bdb: 84 1b        	sty	$1b                     ; 0x1b <__rc11>
    2bdd: 9c 08 de     	stz	$de08                   ; 0xde08 <end_block9+0x8606>
    2be0: a0 c0        	ldy	#$c0
    2be2: 8c 09 de     	sty	$de09                   ; 0xde09 <end_block9+0x8607>
    2be5: 9c 0a de     	stz	$de0a                   ; 0xde0a <end_block9+0x8608>
    2be8: 9c 0b de     	stz	$de0b                   ; 0xde0b <end_block9+0x8609>
    2beb: 8e 0c de     	stx	$de0c                   ; 0xde0c <end_block9+0x860a>
    2bee: 8d 0d de     	sta	$de0d                   ; 0xde0d <end_block9+0x860b>
    2bf1: 64 13        	stz	$13                     ; 0x13 <__rc3>
    2bf3: a2 00        	ldx	#$0
    2bf5: 86 14        	stx	$14                     ; 0x14 <__rc4>
    2bf7: a2 c0        	ldx	#$c0
    2bf9: 86 15        	stx	$15                     ; 0x15 <__rc5>
    2bfb: a2 11        	ldx	#$11
    2bfd: 86 16        	stx	$16                     ; 0x16 <__rc6>
    2bff: a2 c9        	ldx	#$c9
    2c01: 86 17        	stx	$17                     ; 0x17 <__rc7>
    2c03: a2 10        	ldx	#$10
    2c05: 86 18        	stx	$18                     ; 0x18 <__rc8>
    2c07: a2 c9        	ldx	#$c9
    2c09: 86 19        	stx	$19                     ; 0x19 <__rc9>
    2c0b: a6 1a        	ldx	$1a                     ; 0x1a <__rc10>
    2c0d: 8e 0e de     	stx	$de0e                   ; 0xde0e <end_block9+0x860c>
    2c10: a6 1b        	ldx	$1b                     ; 0x1b <__rc11>
    2c12: 8e 0f de     	stx	$de0f                   ; 0xde0f <end_block9+0x860d>
    2c15: ac 18 de     	ldy	$de18                   ; 0xde18 <end_block9+0x8616>
    2c18: ad 19 de     	lda	$de19                   ; 0xde19 <end_block9+0x8617>
    2c1b: ae 1a de     	ldx	$de1a                   ; 0xde1a <end_block9+0x8618>
    2c1e: ae 1b de     	ldx	$de1b                   ; 0xde1b <end_block9+0x8619>
    2c21: 84 1c        	sty	$1c                     ; 0x1c <__rc12>
    2c23: 85 1d        	sta	$1d                     ; 0x1d <__rc13>
    2c25: 64 1a        	stz	$1a                     ; 0x1a <__rc10>
    2c27: a2 20        	ldx	#$20
    2c29: 86 b6        	stx	$b6                     ; 0xb6 <__rc31+0x87>
    2c2b: 80 13        	bra	$2c40 <putchar+0x8d>
    2c2d: a5 1c        	lda	$1c                     ; 0x1c <__rc12>
    2c2f: 18           	clc
    2c30: 69 50        	adc	#$50
    2c32: 85 1c        	sta	$1c                     ; 0x1c <__rc12>
    2c34: a5 1d        	lda	$1d                     ; 0x1d <__rc13>
    2c36: 69 00        	adc	#$0
    2c38: 85 1d        	sta	$1d                     ; 0x1d <__rc13>
    2c3a: e6 13        	inc	$13                     ; 0x13 <__rc3>
    2c3c: d0 02        	bne	$2c40 <putchar+0x8d>
    2c3e: e6 1a        	inc	$1a                     ; 0x1a <__rc10>
    2c40: a9 39        	lda	#$39
    2c42: 18           	clc
    2c43: 65 13        	adc	$13                     ; 0x13 <__rc3>
    2c45: 85 1e        	sta	$1e                     ; 0x1e <__rc14>
    2c47: a9 00        	lda	#$0
    2c49: 65 1a        	adc	$1a                     ; 0x1a <__rc10>
    2c4b: 85 1f        	sta	$1f                     ; 0x1f <__rc15>
    2c4d: b2 1e        	lda	($1e)                   ; 0x1e <__rc14>
    2c4f: c9 0a        	cmp	#$a
    2c51: f0 31        	beq	$2c84 <putchar+0xd1>
    2c53: c9 0d        	cmp	#$d
    2c55: f0 2d        	beq	$2c84 <putchar+0xd1>
    2c57: aa           	tax
    2c58: d0 03        	bne	$2c5d <putchar+0xaa>
    2c5a: 4c 78 2d     	jmp	$2d78 <putchar+0x1c5>
    2c5d: a2 03        	ldx	#$3
    2c5f: 86 01        	stx	$1                      ; 0x1 <__data_size+0x1>
    2c61: a5 36        	lda	$36                     ; 0x36 <_ccolor>
    2c63: 29 01        	and	#$1
    2c65: a2 40        	ldx	#$40
    2c67: a8           	tay
    2c68: d0 02        	bne	$2c6c <putchar+0xb9>
    2c6a: a2 f0        	ldx	#$f0
    2c6c: a4 37        	ldy	$37                     ; 0x37 <_col>
    2c6e: 8a           	txa
    2c6f: 91 1c        	sta	($1c),y                 ; 0x1c <__rc12>
    2c71: a2 02        	ldx	#$2
    2c73: 86 01        	stx	$1                      ; 0x1 <__data_size+0x1>
    2c75: b2 1e        	lda	($1e)                   ; 0x1e <__rc14>
    2c77: a4 37        	ldy	$37                     ; 0x37 <_col>
    2c79: 91 1c        	sta	($1c),y                 ; 0x1c <__rc12>
    2c7b: a6 37        	ldx	$37                     ; 0x37 <_col>
    2c7d: e8           	inx
    2c7e: e6 37        	inc	$37                     ; 0x37 <_col>
    2c80: e0 50        	cpx	#$50
    2c82: d0 b6        	bne	$2c3a <putchar+0x87>
    2c84: 64 37        	stz	$37                     ; 0x37 <_col>
    2c86: a6 38        	ldx	$38                     ; 0x38 <_row>
    2c88: e8           	inx
    2c89: e6 38        	inc	$38                     ; 0x38 <_row>
    2c8b: e0 1e        	cpx	#$1e
    2c8d: f0 03        	beq	$2c92 <putchar+0xdf>
    2c8f: 4c 2d 2c     	jmp	$2c2d <putchar+0x7a>
    2c92: a0 50        	ldy	#$50
    2c94: a2 03        	ldx	#$3
    2c96: 86 01        	stx	$1                      ; 0x1 <__data_size+0x1>
    2c98: a2 01        	ldx	#$1
    2c9a: 86 1b        	stx	$1b                     ; 0x1b <__rc11>
    2c9c: a2 09        	ldx	#$9
    2c9e: a9 10        	lda	#$10
    2ca0: 5a           	phy
    2ca1: a0 00        	ldy	#$0
    2ca3: 84 1c        	sty	$1c                     ; 0x1c <__rc12>
    2ca5: a0 c0        	ldy	#$c0
    2ca7: 84 1d        	sty	$1d                     ; 0x1d <__rc13>
    2ca9: 7a           	ply
    2caa: 85 1e        	sta	$1e                     ; 0x1e <__rc14>
    2cac: b1 1c        	lda	($1c),y                 ; 0x1c <__rc12>
    2cae: 92 1c        	sta	($1c)                   ; 0x1c <__rc12>
    2cb0: a9 ff        	lda	#$ff
    2cb2: c6 1e        	dec	$1e                     ; 0x1e <__rc14>
    2cb4: c5 1e        	cmp	$1e                     ; 0x1e <__rc14>
    2cb6: d0 01        	bne	$2cb9 <putchar+0x106>
    2cb8: ca           	dex
    2cb9: e6 1c        	inc	$1c                     ; 0x1c <__rc12>
    2cbb: d0 02        	bne	$2cbf <putchar+0x10c>
    2cbd: e6 1d        	inc	$1d                     ; 0x1d <__rc13>
    2cbf: 8a           	txa
    2cc0: d0 ea        	bne	$2cac <putchar+0xf9>
    2cc2: a5 1e        	lda	$1e                     ; 0x1e <__rc14>
    2cc4: d0 e6        	bne	$2cac <putchar+0xf9>
    2cc6: a0 50        	ldy	#$50
    2cc8: a2 02        	ldx	#$2
    2cca: 86 01        	stx	$1                      ; 0x1 <__data_size+0x1>
    2ccc: a2 00        	ldx	#$0
    2cce: a5 1b        	lda	$1b                     ; 0x1b <__rc11>
    2cd0: d0 c8        	bne	$2c9a <putchar+0xe7>
    2cd2: a2 03        	ldx	#$3
    2cd4: 86 01        	stx	$1                      ; 0x1 <__data_size+0x1>
    2cd6: a5 36        	lda	$36                     ; 0x36 <_ccolor>
    2cd8: 29 01        	and	#$1
    2cda: aa           	tax
    2cdb: a9 40        	lda	#$40
    2cdd: e0 00        	cpx	#$0
    2cdf: d0 02        	bne	$2ce3 <putchar+0x130>
    2ce1: a9 f0        	lda	#$f0
    2ce3: a2 50        	ldx	#$50
    2ce5: a0 11        	ldy	#$11
    2ce7: 84 1c        	sty	$1c                     ; 0x1c <__rc12>
    2ce9: a0 c9        	ldy	#$c9
    2ceb: 84 1d        	sty	$1d                     ; 0x1d <__rc13>
    2ced: a0 10        	ldy	#$10
    2cef: 84 1e        	sty	$1e                     ; 0x1e <__rc14>
    2cf1: a0 c9        	ldy	#$c9
    2cf3: 84 1f        	sty	$1f                     ; 0x1f <__rc15>
    2cf5: a4 1e        	ldy	$1e                     ; 0x1e <__rc14>
    2cf7: 84 22        	sty	$22                     ; 0x22 <__rc18>
    2cf9: a4 1f        	ldy	$1f                     ; 0x1f <__rc15>
    2cfb: 84 23        	sty	$23                     ; 0x23 <__rc19>
    2cfd: a4 1c        	ldy	$1c                     ; 0x1c <__rc12>
    2cff: 84 1e        	sty	$1e                     ; 0x1e <__rc14>
    2d01: a4 1d        	ldy	$1d                     ; 0x1d <__rc13>
    2d03: 84 1f        	sty	$1f                     ; 0x1f <__rc15>
    2d05: 92 22        	sta	($22)                   ; 0x22 <__rc18>
    2d07: e6 1c        	inc	$1c                     ; 0x1c <__rc12>
    2d09: d0 02        	bne	$2d0d <putchar+0x15a>
    2d0b: e6 1d        	inc	$1d                     ; 0x1d <__rc13>
    2d0d: ca           	dex
    2d0e: d0 e5        	bne	$2cf5 <putchar+0x142>
    2d10: a2 02        	ldx	#$2
    2d12: 86 01        	stx	$1                      ; 0x1 <__data_size+0x1>
    2d14: a2 50        	ldx	#$50
    2d16: a0 11        	ldy	#$11
    2d18: 84 1c        	sty	$1c                     ; 0x1c <__rc12>
    2d1a: a0 c9        	ldy	#$c9
    2d1c: 84 1d        	sty	$1d                     ; 0x1d <__rc13>
    2d1e: a0 10        	ldy	#$10
    2d20: 84 1e        	sty	$1e                     ; 0x1e <__rc14>
    2d22: a0 c9        	ldy	#$c9
    2d24: 84 1f        	sty	$1f                     ; 0x1f <__rc15>
    2d26: a5 b6        	lda	$b6                     ; 0xb6 <__rc31+0x87>
    2d28: a4 1e        	ldy	$1e                     ; 0x1e <__rc14>
    2d2a: 84 22        	sty	$22                     ; 0x22 <__rc18>
    2d2c: a4 1f        	ldy	$1f                     ; 0x1f <__rc15>
    2d2e: 84 23        	sty	$23                     ; 0x23 <__rc19>
    2d30: a4 1c        	ldy	$1c                     ; 0x1c <__rc12>
    2d32: 84 1e        	sty	$1e                     ; 0x1e <__rc14>
    2d34: a4 1d        	ldy	$1d                     ; 0x1d <__rc13>
    2d36: 84 1f        	sty	$1f                     ; 0x1f <__rc15>
    2d38: 92 22        	sta	($22)                   ; 0x22 <__rc18>
    2d3a: e6 1c        	inc	$1c                     ; 0x1c <__rc12>
    2d3c: d0 02        	bne	$2d40 <putchar+0x18d>
    2d3e: e6 1d        	inc	$1d                     ; 0x1d <__rc13>
    2d40: ca           	dex
    2d41: d0 e5        	bne	$2d28 <putchar+0x175>
    2d43: a2 20        	ldx	#$20
    2d45: 86 b6        	stx	$b6                     ; 0xb6 <__rc31+0x87>
    2d47: c6 38        	dec	$38                     ; 0x38 <_row>
    2d49: 9c 08 de     	stz	$de08                   ; 0xde08 <end_block9+0x8606>
    2d4c: a2 c0        	ldx	#$c0
    2d4e: 8e 09 de     	stx	$de09                   ; 0xde09 <end_block9+0x8607>
    2d51: 9c 0a de     	stz	$de0a                   ; 0xde0a <end_block9+0x8608>
    2d54: 9c 0b de     	stz	$de0b                   ; 0xde0b <end_block9+0x8609>
    2d57: a2 1d        	ldx	#$1d
    2d59: 8e 0c de     	stx	$de0c                   ; 0xde0c <end_block9+0x860a>
    2d5c: 9c 0d de     	stz	$de0d                   ; 0xde0d <end_block9+0x860b>
    2d5f: 9c 0e de     	stz	$de0e                   ; 0xde0e <end_block9+0x860c>
    2d62: 9c 0f de     	stz	$de0f                   ; 0xde0f <end_block9+0x860d>
    2d65: ae 18 de     	ldx	$de18                   ; 0xde18 <end_block9+0x8616>
    2d68: ac 19 de     	ldy	$de19                   ; 0xde19 <end_block9+0x8617>
    2d6b: ad 1a de     	lda	$de1a                   ; 0xde1a <end_block9+0x8618>
    2d6e: ad 1b de     	lda	$de1b                   ; 0xde1b <end_block9+0x8619>
    2d71: 86 1c        	stx	$1c                     ; 0x1c <__rc12>
    2d73: 84 1d        	sty	$1d                     ; 0x1d <__rc13>
    2d75: 4c 3a 2c     	jmp	$2c3a <putchar+0x87>
    2d78: a6 b5        	ldx	$b5                     ; 0xb5 <__rc31+0x86>
    2d7a: 86 01        	stx	$1                      ; 0x1 <__data_size+0x1>
    2d7c: a6 37        	ldx	$37                     ; 0x37 <_col>
    2d7e: a4 38        	ldy	$38                     ; 0x38 <_row>
    2d80: 8e 14 d0     	stx	$d014                   ; 0xd014 <end_block9+0x7812>
    2d83: 9c 15 d0     	stz	$d015                   ; 0xd015 <end_block9+0x7813>
    2d86: 84 38        	sty	$38                     ; 0x38 <_row>
    2d88: 8c 16 d0     	sty	$d016                   ; 0xd016 <end_block9+0x7814>
    2d8b: 9c 17 d0     	stz	$d017                   ; 0xd017 <end_block9+0x7815>
    2d8e: a6 12        	ldx	$12                     ; 0x12 <__zp_bss_size>
    2d90: a5 b4        	lda	$b4                     ; 0xb4 <__rc31+0x85>
    2d92: 60           	rts

00002d93 <malloc>:
    2d93: a8           	tay
    2d94: 8a           	txa
    2d95: a2 00        	ldx	#$0
    2d97: 86 12        	stx	$12                     ; 0x12 <__zp_bss_size>
    2d99: a2 00        	ldx	#$0
    2d9b: 86 13        	stx	$13                     ; 0x13 <__rc3>
    2d9d: aa           	tax
    2d9e: d0 07        	bne	$2da7 <malloc+0x14>
    2da0: c0 00        	cpy	#$0
    2da2: d0 03        	bne	$2da7 <malloc+0x14>
    2da4: 4c b5 2e     	jmp	$2eb5 <malloc+0x122>
    2da7: 84 16        	sty	$16                     ; 0x16 <__rc6>
    2da9: aa           	tax
    2daa: d0 0e        	bne	$2dba <malloc+0x27>
    2dac: a6 16        	ldx	$16                     ; 0x16 <__rc6>
    2dae: e0 07        	cpx	#$7
    2db0: b0 0c        	bcs	$2dbe <malloc+0x2b>
    2db2: a2 08        	ldx	#$8
    2db4: 86 55        	stx	$55                     ; 0x55 <__rc31+0x26>
    2db6: a9 00        	lda	#$0
    2db8: 80 31        	bra	$2deb <malloc+0x58>
    2dba: c9 00        	cmp	#$0
    2dbc: 90 f4        	bcc	$2db2 <malloc+0x1f>
    2dbe: a8           	tay
    2dbf: a5 16        	lda	$16                     ; 0x16 <__rc6>
    2dc1: 29 01        	and	#$1
    2dc3: a2 02        	ldx	#$2
    2dc5: 64 14        	stz	$14                     ; 0x14 <__rc4>
    2dc7: c9 00        	cmp	#$0
    2dc9: f0 02        	beq	$2dcd <malloc+0x3a>
    2dcb: a2 03        	ldx	#$3
    2dcd: 86 15        	stx	$15                     ; 0x15 <__rc5>
    2dcf: 18           	clc
    2dd0: a5 16        	lda	$16                     ; 0x16 <__rc6>
    2dd2: 65 15        	adc	$15                     ; 0x15 <__rc5>
    2dd4: aa           	tax
    2dd5: 98           	tya
    2dd6: 65 14        	adc	$14                     ; 0x14 <__rc4>
    2dd8: 90 03        	bcc	$2ddd <malloc+0x4a>
    2dda: 4c b5 2e     	jmp	$2eb5 <malloc+0x122>
    2ddd: 86 14        	stx	$14                     ; 0x14 <__rc4>
    2ddf: 86 55        	stx	$55                     ; 0x55 <__rc31+0x26>
    2de1: aa           	tax
    2de2: d0 07        	bne	$2deb <malloc+0x58>
    2de4: a6 14        	ldx	$14                     ; 0x14 <__rc4>
    2de6: d0 03        	bne	$2deb <malloc+0x58>
    2de8: 4c b5 2e     	jmp	$2eb5 <malloc+0x122>
    2deb: 85 58        	sta	$58                     ; 0x58 <__rc31+0x29>
    2ded: a5 43        	lda	$43                     ; 0x43 <_ZN12_GLOBAL__N_111initializedE>
    2def: 29 01        	and	#$1
    2df1: d0 39        	bne	$2e2c <malloc+0x99>
    2df3: a9 00        	lda	#$0
    2df5: a2 10        	ldx	#$10
    2df7: a0 02        	ldy	#$2
    2df9: 84 14        	sty	$14                     ; 0x14 <__rc4>
    2dfb: a0 58        	ldy	#$58
    2dfd: 84 15        	sty	$15                     ; 0x15 <__rc5>
    2dff: a4 12        	ldy	$12                     ; 0x12 <__zp_bss_size>
    2e01: 84 56        	sty	$56                     ; 0x56 <__rc31+0x27>
    2e03: a4 13        	ldy	$13                     ; 0x13 <__rc3>
    2e05: 84 57        	sty	$57                     ; 0x57 <__rc31+0x28>
    2e07: a0 02        	ldy	#$2
    2e09: 84 12        	sty	$12                     ; 0x12 <__zp_bss_size>
    2e0b: a0 58        	ldy	#$58
    2e0d: 84 13        	sty	$13                     ; 0x13 <__rc3>
    2e0f: 20 1e 03     	jsr	$31e <_ZN12_GLOBAL__N_19FreeChunk6insertEPvj>
    2e12: a6 56        	ldx	$56                     ; 0x56 <__rc31+0x27>
    2e14: 86 12        	stx	$12                     ; 0x12 <__zp_bss_size>
    2e16: a6 57        	ldx	$57                     ; 0x57 <__rc31+0x28>
    2e18: 86 13        	stx	$13                     ; 0x13 <__rc3>
    2e1a: ae 03 58     	ldx	$5803                   ; 0x5803 <end_block9+0x1>
    2e1d: a9 fe        	lda	#$fe
    2e1f: 2d 02 58     	and	$5802                   ; 0x5802 <end_block9>
    2e22: 8d 02 58     	sta	$5802                   ; 0x5802 <end_block9>
    2e25: 8e 03 58     	stx	$5803                   ; 0x5803 <end_block9+0x1>
    2e28: a2 01        	ldx	#$1
    2e2a: 86 43        	stx	$43                     ; 0x43 <_ZN12_GLOBAL__N_111initializedE>
    2e2c: a5 46        	lda	$46                     ; 0x46 <_ZN12_GLOBAL__N_19free_listE>
    2e2e: a6 47        	ldx	$47                     ; 0x47 <_ZN12_GLOBAL__N_19free_listE+0x1>
    2e30: a0 00        	ldy	#$0
    2e32: 84 14        	sty	$14                     ; 0x14 <__rc4>
    2e34: a0 00        	ldy	#$0
    2e36: 84 15        	sty	$15                     ; 0x15 <__rc5>
    2e38: 86 1d        	stx	$1d                     ; 0x1d <__rc13>
    2e3a: e4 15        	cpx	$15                     ; 0x15 <__rc5>
    2e3c: d0 07        	bne	$2e45 <malloc+0xb2>
    2e3e: c5 14        	cmp	$14                     ; 0x14 <__rc4>
    2e40: d0 03        	bne	$2e45 <malloc+0xb2>
    2e42: 4c b5 2e     	jmp	$2eb5 <malloc+0x122>
    2e45: a0 00        	ldy	#$0
    2e47: a2 10        	ldx	#$10
    2e49: 85 18        	sta	$18                     ; 0x18 <__rc8>
    2e4b: 84 14        	sty	$14                     ; 0x14 <__rc4>
    2e4d: 86 15        	stx	$15                     ; 0x15 <__rc5>
    2e4f: 18           	clc
    2e50: a9 02        	lda	#$2
    2e52: 65 14        	adc	$14                     ; 0x14 <__rc4>
    2e54: 85 14        	sta	$14                     ; 0x14 <__rc4>
    2e56: a9 58        	lda	#$58
    2e58: 65 15        	adc	$15                     ; 0x15 <__rc5>
    2e5a: a6 14        	ldx	$14                     ; 0x14 <__rc4>
    2e5c: 86 59        	stx	$59                     ; 0x59 <__rc31+0x2a>
    2e5e: a6 18        	ldx	$18                     ; 0x18 <__rc8>
    2e60: 86 56        	stx	$56                     ; 0x56 <__rc31+0x27>
    2e62: 85 17        	sta	$17                     ; 0x17 <__rc7>
    2e64: a6 18        	ldx	$18                     ; 0x18 <__rc8>
    2e66: 86 14        	stx	$14                     ; 0x14 <__rc4>
    2e68: a6 1d        	ldx	$1d                     ; 0x1d <__rc13>
    2e6a: 86 15        	stx	$15                     ; 0x15 <__rc5>
    2e6c: a0 01        	ldy	#$1
    2e6e: a6 58        	ldx	$58                     ; 0x58 <__rc31+0x29>
    2e70: 86 18        	stx	$18                     ; 0x18 <__rc8>
    2e72: b1 14        	lda	($14),y                 ; 0x14 <__rc4>
    2e74: 85 19        	sta	$19                     ; 0x19 <__rc9>
    2e76: aa           	tax
    2e77: a9 fe        	lda	#$fe
    2e79: 32 14        	and	($14)                   ; 0x14 <__rc4>
    2e7b: 85 1a        	sta	$1a                     ; 0x1a <__rc10>
    2e7d: e4 18        	cpx	$18                     ; 0x18 <__rc8>
    2e7f: d0 0a        	bne	$2e8b <malloc+0xf8>
    2e81: a6 55        	ldx	$55                     ; 0x55 <__rc31+0x26>
    2e83: 86 1b        	stx	$1b                     ; 0x1b <__rc11>
    2e85: c5 1b        	cmp	$1b                     ; 0x1b <__rc11>
    2e87: b0 2d        	bcs	$2eb6 <malloc+0x123>
    2e89: 80 04        	bra	$2e8f <malloc+0xfc>
    2e8b: e4 18        	cpx	$18                     ; 0x18 <__rc8>
    2e8d: b0 27        	bcs	$2eb6 <malloc+0x123>
    2e8f: a5 14        	lda	$14                     ; 0x14 <__rc4>
    2e91: 18           	clc
    2e92: 69 02        	adc	#$2
    2e94: 85 1a        	sta	$1a                     ; 0x1a <__rc10>
    2e96: a5 15        	lda	$15                     ; 0x15 <__rc5>
    2e98: 69 00        	adc	#$0
    2e9a: 85 1b        	sta	$1b                     ; 0x1b <__rc11>
    2e9c: a0 02        	ldy	#$2
    2e9e: b1 14        	lda	($14),y                 ; 0x14 <__rc4>
    2ea0: 85 14        	sta	$14                     ; 0x14 <__rc4>
    2ea2: 88           	dey
    2ea3: b1 1a        	lda	($1a),y                 ; 0x1a <__rc10>
    2ea5: 85 15        	sta	$15                     ; 0x15 <__rc5>
    2ea7: c5 1d        	cmp	$1d                     ; 0x1d <__rc13>
    2ea9: d0 c7        	bne	$2e72 <malloc+0xdf>
    2eab: a5 14        	lda	$14                     ; 0x14 <__rc4>
    2ead: a6 56        	ldx	$56                     ; 0x56 <__rc31+0x27>
    2eaf: 86 19        	stx	$19                     ; 0x19 <__rc9>
    2eb1: c5 19        	cmp	$19                     ; 0x19 <__rc9>
    2eb3: d0 bd        	bne	$2e72 <malloc+0xdf>
    2eb5: 60           	rts
    2eb6: a5 44        	lda	$44                     ; 0x44 <_ZN12_GLOBAL__N_19free_sizeE>
    2eb8: a6 45        	ldx	$45                     ; 0x45 <_ZN12_GLOBAL__N_19free_sizeE+0x1>
    2eba: 86 12        	stx	$12                     ; 0x12 <__zp_bss_size>
    2ebc: 38           	sec
    2ebd: e5 1a        	sbc	$1a                     ; 0x1a <__rc10>
    2ebf: aa           	tax
    2ec0: a5 12        	lda	$12                     ; 0x12 <__zp_bss_size>
    2ec2: e5 19        	sbc	$19                     ; 0x19 <__rc9>
    2ec4: 85 12        	sta	$12                     ; 0x12 <__zp_bss_size>
    2ec6: 18           	clc
    2ec7: 8a           	txa
    2ec8: 69 02        	adc	#$2
    2eca: 85 13        	sta	$13                     ; 0x13 <__rc3>
    2ecc: a5 12        	lda	$12                     ; 0x12 <__zp_bss_size>
    2ece: 69 00        	adc	#$0
    2ed0: a6 13        	ldx	$13                     ; 0x13 <__rc3>
    2ed2: 86 44        	stx	$44                     ; 0x44 <_ZN12_GLOBAL__N_19free_sizeE>
    2ed4: 85 45        	sta	$45                     ; 0x45 <_ZN12_GLOBAL__N_19free_sizeE+0x1>
    2ed6: a0 02        	ldy	#$2
    2ed8: a5 14        	lda	$14                     ; 0x14 <__rc4>
    2eda: 18           	clc
    2edb: 69 02        	adc	#$2
    2edd: 85 12        	sta	$12                     ; 0x12 <__zp_bss_size>
    2edf: a5 15        	lda	$15                     ; 0x15 <__rc5>
    2ee1: 69 00        	adc	#$0
    2ee3: 85 13        	sta	$13                     ; 0x13 <__rc3>
    2ee5: b1 14        	lda	($14),y                 ; 0x14 <__rc4>
    2ee7: 85 1e        	sta	$1e                     ; 0x1e <__rc14>
    2ee9: 88           	dey
    2eea: b1 12        	lda	($12),y                 ; 0x12 <__zp_bss_size>
    2eec: 85 1f        	sta	$1f                     ; 0x1f <__rc15>
    2eee: c5 15        	cmp	$15                     ; 0x15 <__rc5>
    2ef0: d0 15        	bne	$2f07 <malloc+0x174>
    2ef2: a5 58        	lda	$58                     ; 0x58 <__rc31+0x29>
    2ef4: a6 1e        	ldx	$1e                     ; 0x1e <__rc14>
    2ef6: e4 14        	cpx	$14                     ; 0x14 <__rc4>
    2ef8: d0 0d        	bne	$2f07 <malloc+0x174>
    2efa: 85 1a        	sta	$1a                     ; 0x1a <__rc10>
    2efc: a2 00        	ldx	#$0
    2efe: 86 18        	stx	$18                     ; 0x18 <__rc8>
    2f00: a2 00        	ldx	#$0
    2f02: 86 19        	stx	$19                     ; 0x19 <__rc9>
    2f04: 4c 8a 2f     	jmp	$2f8a <malloc+0x1f7>
    2f07: 18           	clc
    2f08: a5 14        	lda	$14                     ; 0x14 <__rc4>
    2f0a: 69 04        	adc	#$4
    2f0c: 85 18        	sta	$18                     ; 0x18 <__rc8>
    2f0e: a5 15        	lda	$15                     ; 0x15 <__rc5>
    2f10: 69 00        	adc	#$0
    2f12: 85 19        	sta	$19                     ; 0x19 <__rc9>
    2f14: a0 04        	ldy	#$4
    2f16: b1 14        	lda	($14),y                 ; 0x14 <__rc4>
    2f18: 85 16        	sta	$16                     ; 0x16 <__rc6>
    2f1a: 18           	clc
    2f1b: 69 02        	adc	#$2
    2f1d: 85 1a        	sta	$1a                     ; 0x1a <__rc10>
    2f1f: a0 01        	ldy	#$1
    2f21: b1 18        	lda	($18),y                 ; 0x18 <__rc8>
    2f23: aa           	tax
    2f24: 84 22        	sty	$22                     ; 0x22 <__rc18>
    2f26: 69 00        	adc	#$0
    2f28: a4 1a        	ldy	$1a                     ; 0x1a <__rc10>
    2f2a: 84 18        	sty	$18                     ; 0x18 <__rc8>
    2f2c: 85 19        	sta	$19                     ; 0x19 <__rc9>
    2f2e: a4 16        	ldy	$16                     ; 0x16 <__rc6>
    2f30: 84 1a        	sty	$1a                     ; 0x1a <__rc10>
    2f32: 86 1b        	stx	$1b                     ; 0x1b <__rc11>
    2f34: a5 1e        	lda	$1e                     ; 0x1e <__rc14>
    2f36: a0 02        	ldy	#$2
    2f38: 91 1a        	sta	($1a),y                 ; 0x1a <__rc10>
    2f3a: 84 1e        	sty	$1e                     ; 0x1e <__rc14>
    2f3c: a5 1f        	lda	$1f                     ; 0x1f <__rc15>
    2f3e: a4 22        	ldy	$22                     ; 0x22 <__rc18>
    2f40: 91 18        	sta	($18),y                 ; 0x18 <__rc8>
    2f42: 18           	clc
    2f43: a5 14        	lda	$14                     ; 0x14 <__rc4>
    2f45: 69 02        	adc	#$2
    2f47: 85 1a        	sta	$1a                     ; 0x1a <__rc10>
    2f49: a5 15        	lda	$15                     ; 0x15 <__rc5>
    2f4b: 69 00        	adc	#$0
    2f4d: 85 1b        	sta	$1b                     ; 0x1b <__rc11>
    2f4f: a4 1e        	ldy	$1e                     ; 0x1e <__rc14>
    2f51: b1 14        	lda	($14),y                 ; 0x14 <__rc4>
    2f53: 85 18        	sta	$18                     ; 0x18 <__rc8>
    2f55: 85 1e        	sta	$1e                     ; 0x1e <__rc14>
    2f57: a4 22        	ldy	$22                     ; 0x22 <__rc18>
    2f59: b1 1a        	lda	($1a),y                 ; 0x1a <__rc10>
    2f5b: 84 1c        	sty	$1c                     ; 0x1c <__rc12>
    2f5d: 85 19        	sta	$19                     ; 0x19 <__rc9>
    2f5f: 85 1a        	sta	$1a                     ; 0x1a <__rc10>
    2f61: a5 16        	lda	$16                     ; 0x16 <__rc6>
    2f63: a0 04        	ldy	#$4
    2f65: 91 18        	sta	($18),y                 ; 0x18 <__rc8>
    2f67: 18           	clc
    2f68: a5 1e        	lda	$1e                     ; 0x1e <__rc14>
    2f6a: 69 04        	adc	#$4
    2f6c: a8           	tay
    2f6d: a5 1a        	lda	$1a                     ; 0x1a <__rc10>
    2f6f: 69 00        	adc	#$0
    2f71: 84 1a        	sty	$1a                     ; 0x1a <__rc10>
    2f73: 85 1b        	sta	$1b                     ; 0x1b <__rc11>
    2f75: 8a           	txa
    2f76: a4 1c        	ldy	$1c                     ; 0x1c <__rc12>
    2f78: 91 1a        	sta	($1a),y                 ; 0x1a <__rc10>
    2f7a: a5 58        	lda	$58                     ; 0x58 <__rc31+0x29>
    2f7c: 85 1a        	sta	$1a                     ; 0x1a <__rc10>
    2f7e: a6 1d        	ldx	$1d                     ; 0x1d <__rc13>
    2f80: e4 15        	cpx	$15                     ; 0x15 <__rc5>
    2f82: d0 0e        	bne	$2f92 <malloc+0x1ff>
    2f84: a6 56        	ldx	$56                     ; 0x56 <__rc31+0x27>
    2f86: e4 14        	cpx	$14                     ; 0x14 <__rc4>
    2f88: d0 08        	bne	$2f92 <malloc+0x1ff>
    2f8a: a6 18        	ldx	$18                     ; 0x18 <__rc8>
    2f8c: a4 19        	ldy	$19                     ; 0x19 <__rc9>
    2f8e: 86 46        	stx	$46                     ; 0x46 <_ZN12_GLOBAL__N_19free_listE>
    2f90: 84 47        	sty	$47                     ; 0x47 <_ZN12_GLOBAL__N_19free_listE+0x1>
    2f92: a0 01        	ldy	#$1
    2f94: b1 14        	lda	($14),y                 ; 0x14 <__rc4>
    2f96: 85 16        	sta	$16                     ; 0x16 <__rc6>
    2f98: a9 fe        	lda	#$fe
    2f9a: 32 14        	and	($14)                   ; 0x14 <__rc4>
    2f9c: 38           	sec
    2f9d: a6 55        	ldx	$55                     ; 0x55 <__rc31+0x26>
    2f9f: 86 18        	stx	$18                     ; 0x18 <__rc8>
    2fa1: a8           	tay
    2fa2: e5 18        	sbc	$18                     ; 0x18 <__rc8>
    2fa4: 85 19        	sta	$19                     ; 0x19 <__rc9>
    2fa6: a5 16        	lda	$16                     ; 0x16 <__rc6>
    2fa8: a6 16        	ldx	$16                     ; 0x16 <__rc6>
    2faa: e5 1a        	sbc	$1a                     ; 0x1a <__rc10>
    2fac: f0 03        	beq	$2fb1 <malloc+0x21e>
    2fae: 4c 3d 30     	jmp	$303d <malloc+0x2aa>
    2fb1: 85 16        	sta	$16                     ; 0x16 <__rc6>
    2fb3: a5 19        	lda	$19                     ; 0x19 <__rc9>
    2fb5: c9 08        	cmp	#$8
    2fb7: 86 18        	stx	$18                     ; 0x18 <__rc8>
    2fb9: b0 03        	bcs	$2fbe <malloc+0x22b>
    2fbb: 4c 20 30     	jmp	$3020 <malloc+0x28d>
    2fbe: a6 17        	ldx	$17                     ; 0x17 <__rc7>
    2fc0: 86 5c        	stx	$5c                     ; 0x5c <__rc31+0x2d>
    2fc2: a6 59        	ldx	$59                     ; 0x59 <__rc31+0x2a>
    2fc4: 86 59        	stx	$59                     ; 0x59 <__rc31+0x2a>
    2fc6: a6 12        	ldx	$12                     ; 0x12 <__zp_bss_size>
    2fc8: 86 56        	stx	$56                     ; 0x56 <__rc31+0x27>
    2fca: a6 13        	ldx	$13                     ; 0x13 <__rc3>
    2fcc: 86 57        	stx	$57                     ; 0x57 <__rc31+0x28>
    2fce: a8           	tay
    2fcf: 18           	clc
    2fd0: a6 55        	ldx	$55                     ; 0x55 <__rc31+0x26>
    2fd2: 86 55        	stx	$55                     ; 0x55 <__rc31+0x26>
    2fd4: 8a           	txa
    2fd5: 65 14        	adc	$14                     ; 0x14 <__rc4>
    2fd7: 85 12        	sta	$12                     ; 0x12 <__zp_bss_size>
    2fd9: a5 1a        	lda	$1a                     ; 0x1a <__rc10>
    2fdb: a6 1a        	ldx	$1a                     ; 0x1a <__rc10>
    2fdd: 86 58        	stx	$58                     ; 0x58 <__rc31+0x29>
    2fdf: 65 15        	adc	$15                     ; 0x15 <__rc5>
    2fe1: 85 13        	sta	$13                     ; 0x13 <__rc3>
    2fe3: a6 16        	ldx	$16                     ; 0x16 <__rc6>
    2fe5: 98           	tya
    2fe6: a4 14        	ldy	$14                     ; 0x14 <__rc4>
    2fe8: 84 5a        	sty	$5a                     ; 0x5a <__rc31+0x2b>
    2fea: a4 15        	ldy	$15                     ; 0x15 <__rc5>
    2fec: 84 5b        	sty	$5b                     ; 0x5b <__rc31+0x2c>
    2fee: 20 1e 03     	jsr	$31e <_ZN12_GLOBAL__N_19FreeChunk6insertEPvj>
    2ff1: a6 5a        	ldx	$5a                     ; 0x5a <__rc31+0x2b>
    2ff3: 86 14        	stx	$14                     ; 0x14 <__rc4>
    2ff5: a6 5b        	ldx	$5b                     ; 0x5b <__rc31+0x2c>
    2ff7: 86 15        	stx	$15                     ; 0x15 <__rc5>
    2ff9: a5 55        	lda	$55                     ; 0x55 <__rc31+0x26>
    2ffb: 29 fe        	and	#$fe
    2ffd: 85 12        	sta	$12                     ; 0x12 <__zp_bss_size>
    2fff: a0 01        	ldy	#$1
    3001: 98           	tya
    3002: 32 14        	and	($14)                   ; 0x14 <__rc4>
    3004: 05 12        	ora	$12                     ; 0x12 <__zp_bss_size>
    3006: 92 14        	sta	($14)                   ; 0x14 <__rc4>
    3008: a5 58        	lda	$58                     ; 0x58 <__rc31+0x29>
    300a: 91 14        	sta	($14),y                 ; 0x14 <__rc4>
    300c: a4 12        	ldy	$12                     ; 0x12 <__zp_bss_size>
    300e: 85 18        	sta	$18                     ; 0x18 <__rc8>
    3010: a6 56        	ldx	$56                     ; 0x56 <__rc31+0x27>
    3012: 86 12        	stx	$12                     ; 0x12 <__zp_bss_size>
    3014: a6 57        	ldx	$57                     ; 0x57 <__rc31+0x28>
    3016: 86 13        	stx	$13                     ; 0x13 <__rc3>
    3018: a6 59        	ldx	$59                     ; 0x59 <__rc31+0x2a>
    301a: 86 59        	stx	$59                     ; 0x59 <__rc31+0x2a>
    301c: a6 5c        	ldx	$5c                     ; 0x5c <__rc31+0x2d>
    301e: 86 17        	stx	$17                     ; 0x17 <__rc7>
    3020: 18           	clc
    3021: 98           	tya
    3022: 65 14        	adc	$14                     ; 0x14 <__rc4>
    3024: 85 16        	sta	$16                     ; 0x16 <__rc6>
    3026: a5 15        	lda	$15                     ; 0x15 <__rc5>
    3028: 65 18        	adc	$18                     ; 0x18 <__rc8>
    302a: 85 15        	sta	$15                     ; 0x15 <__rc5>
    302c: c5 17        	cmp	$17                     ; 0x17 <__rc7>
    302e: d0 1a        	bne	$304a <malloc+0x2b7>
    3030: a6 59        	ldx	$59                     ; 0x59 <__rc31+0x2a>
    3032: 86 14        	stx	$14                     ; 0x14 <__rc4>
    3034: a6 16        	ldx	$16                     ; 0x16 <__rc6>
    3036: e4 14        	cpx	$14                     ; 0x14 <__rc4>
    3038: d0 12        	bne	$304c <malloc+0x2b9>
    303a: 4c b5 2e     	jmp	$2eb5 <malloc+0x122>
    303d: 85 16        	sta	$16                     ; 0x16 <__rc6>
    303f: c9 00        	cmp	#$0
    3041: 86 18        	stx	$18                     ; 0x18 <__rc8>
    3043: a5 19        	lda	$19                     ; 0x19 <__rc9>
    3045: 90 d9        	bcc	$3020 <malloc+0x28d>
    3047: 4c be 2f     	jmp	$2fbe <malloc+0x22b>
    304a: a6 16        	ldx	$16                     ; 0x16 <__rc6>
    304c: 86 14        	stx	$14                     ; 0x14 <__rc4>
    304e: a0 01        	ldy	#$1
    3050: b1 14        	lda	($14),y                 ; 0x14 <__rc4>
    3052: 85 16        	sta	$16                     ; 0x16 <__rc6>
    3054: a9 fe        	lda	#$fe
    3056: 32 14        	and	($14)                   ; 0x14 <__rc4>
    3058: 92 14        	sta	($14)                   ; 0x14 <__rc4>
    305a: a5 16        	lda	$16                     ; 0x16 <__rc6>
    305c: 91 14        	sta	($14),y                 ; 0x14 <__rc4>
    305e: 60           	rts

0000305f <memcpy>:
    305f: a8           	tay
    3060: 8a           	txa
    3061: d0 03        	bne	$3066 <memcpy+0x7>
    3063: 98           	tya
    3064: f0 24        	beq	$308a <memcpy+0x2b>
    3066: a5 12        	lda	$12                     ; 0x12 <__zp_bss_size>
    3068: 85 16        	sta	$16                     ; 0x16 <__rc6>
    306a: a5 13        	lda	$13                     ; 0x13 <__rc3>
    306c: 85 17        	sta	$17                     ; 0x17 <__rc7>
    306e: b2 14        	lda	($14)                   ; 0x14 <__rc4>
    3070: 92 16        	sta	($16)                   ; 0x16 <__rc6>
    3072: e6 16        	inc	$16                     ; 0x16 <__rc6>
    3074: d0 02        	bne	$3078 <memcpy+0x19>
    3076: e6 17        	inc	$17                     ; 0x17 <__rc7>
    3078: e6 14        	inc	$14                     ; 0x14 <__rc4>
    307a: d0 02        	bne	$307e <memcpy+0x1f>
    307c: e6 15        	inc	$15                     ; 0x15 <__rc5>
    307e: 88           	dey
    307f: c0 ff        	cpy	#$ff
    3081: d0 01        	bne	$3084 <memcpy+0x25>
    3083: ca           	dex
    3084: 8a           	txa
    3085: d0 e7        	bne	$306e <memcpy+0xf>
    3087: 98           	tya
    3088: d0 e4        	bne	$306e <memcpy+0xf>
    308a: 60           	rts

0000308b <__memset>:
    308b: a4 14        	ldy	$14                     ; 0x14 <__rc4>
    308d: d0 04        	bne	$3093 <__memset+0x8>
    308f: e0 00        	cpx	#$0
    3091: f0 17        	beq	$30aa <__memset+0x1f>
    3093: 92 12        	sta	($12)                   ; 0x12 <__zp_bss_size>
    3095: e6 12        	inc	$12                     ; 0x12 <__zp_bss_size>
    3097: d0 02        	bne	$309b <__memset+0x10>
    3099: e6 13        	inc	$13                     ; 0x13 <__rc3>
    309b: ca           	dex
    309c: e0 ff        	cpx	#$ff
    309e: d0 02        	bne	$30a2 <__memset+0x17>
    30a0: c6 14        	dec	$14                     ; 0x14 <__rc4>
    30a2: a4 14        	ldy	$14                     ; 0x14 <__rc4>
    30a4: d0 ed        	bne	$3093 <__memset+0x8>
    30a6: e0 00        	cpx	#$0
    30a8: d0 e9        	bne	$3093 <__memset+0x8>
    30aa: 60           	rts

000030ab <__mulhi3>:
    30ab: a4 13        	ldy	$13                     ; 0x13 <__rc3>
    30ad: d0 04        	bne	$30b3 <__mulhi3+0x8>
    30af: a4 12        	ldy	$12                     ; 0x12 <__zp_bss_size>
    30b1: f0 25        	beq	$30d8 <__mulhi3+0x2d>
    30b3: 85 14        	sta	$14                     ; 0x14 <__rc4>
    30b5: 86 15        	stx	$15                     ; 0x15 <__rc5>
    30b7: a0 00        	ldy	#$0
    30b9: 98           	tya
    30ba: 46 13        	lsr	$13                     ; 0x13 <__rc3>
    30bc: 66 12        	ror	$12                     ; 0x12 <__zp_bss_size>
    30be: 90 09        	bcc	$30c9 <__mulhi3+0x1e>
    30c0: aa           	tax
    30c1: 98           	tya
    30c2: 18           	clc
    30c3: 65 14        	adc	$14                     ; 0x14 <__rc4>
    30c5: a8           	tay
    30c6: 8a           	txa
    30c7: 65 15        	adc	$15                     ; 0x15 <__rc5>
    30c9: 06 14        	asl	$14                     ; 0x14 <__rc4>
    30cb: 26 15        	rol	$15                     ; 0x15 <__rc5>
    30cd: a6 13        	ldx	$13                     ; 0x13 <__rc3>
    30cf: d0 e9        	bne	$30ba <__mulhi3+0xf>
    30d1: a6 12        	ldx	$12                     ; 0x12 <__zp_bss_size>
    30d3: d0 e5        	bne	$30ba <__mulhi3+0xf>
    30d5: aa           	tax
    30d6: 98           	tya
    30d7: 60           	rts
    30d8: a0 00        	ldy	#$0
    30da: 98           	tya
    30db: 80 f8        	bra	$30d5 <__mulhi3+0x2a>
