
grudge.elf:	file format elf32-mos

SYMBOL TABLE:
00000000 l    df *ABS*	00000000 zero-bss.c
00000000 l    df *ABS*	00000000 zero-zp-bss.c
00000000 l    df *ABS*	00000000 ld-temp.o
00000036 l     O .zp.bss	00000007 kernelEventData
00000030 l     O .zp.bss	00000001 _ccolor
0000317a l     O .rodata	00000030 textColors
00000031 l     O .zp.bss	00000001 _col
00000032 l     O .zp.bss	00000001 _row
0000564a l     O .bss	00000040 _spriteCtl
0000586a l     O .bss	00000001 kernelError
00001926 l     F .text	000003d4 mySpriteDefine
0000568a l     O .bss	000001e0 spriteStatuses
00001761 l     F .text	000001c5 updateFrames
000031d4 l     O .rodata	00002476 bigpatch
000031ce l     O .rodata	00000006 stateDelays
00000035 l     O .zp.bss	00000001 padTimer.1
0000114a l     F .text	00000617 checkPads
0000310e l     F .text	00000032 __mulhi3
00001ee5 l     F .text	00000d31 printf
00002df6 l     F .text	000002cc malloc
00001cff l     F .text	000000d7 _ZN12_GLOBAL__N_13putEcP6Status
00002c16 l     F .text	000001e0 putchar
00001dd6 l     F .text	0000010f _ZN12_GLOBAL__N_112print_stringEPKcP6Status
00000033 l     O .zp.bss	00000002 __putchar.s
0000003d l     O .zp.bss	00000001 _ZN12_GLOBAL__N_111initializedE
00000316 l     F .text	0000014b _ZN12_GLOBAL__N_19FreeChunk6insertEPvj
00000040 l     O .zp.bss	00000002 _ZN12_GLOBAL__N_19free_listE
0000003e l     O .zp.bss	00000002 _ZN12_GLOBAL__N_19free_sizeE
00000487 g     F .text	00000cc3 main
00010400 g       .palgrudge	00000000 palgrudge_end
00010800 g       .boy1	00000000 boy1_end
00011400 g       .cath	00000000 cath_end
00011000 g       .girl1	00000000 girl1_end
00013000 g       .dash	00000000 dash_start
00010800 g       .thing	00000000 thing_start
00010400 g       .boy1	00000000 boy1_start
00013800 g       .dash	00000000 dash_end
00011400 g       .cat	00000000 cat_start
00011800 g       .cat	00000000 cat_end
00010000 g       .palgrudge	00000000 palgrudge_start
00010c00 g       .thing	00000000 thing_end
00010c00 g       .girl1	00000000 girl1_start
00011000 g       .cath	00000000 cath_start
00000311 g       .text	00000000 __after_main
00000300 g       .text	00000000 __do_init_stack
00000308 g       .text	00000000 __do_zero_bss
00000461 g     F .text	00000013 __zero_bss
0000030b g       .text	00000000 __do_zero_zp_bss
00000474 g     F .text	00000013 __zero_zp_bss
00001cfa g     F .text	00000005 exit
00000314 g       .text	00000000 _fini
000030ee  w    F .text	00000020 __memset
00001000  w      *ABS*	00000000 __heap_default_limit
0000586c g       .noinit	00000000 __heap_start
000030c2  w    F .text	0000002c memcpy
00000010 g       *ABS*	00000000 __rc0
00000012 g       *ABS*	00000000 __rc2
00000014 g       *ABS*	00000000 __rc4
00000016 g       *ABS*	00000000 __rc6
00000018 g       *ABS*	00000000 __rc8
0000001a g       *ABS*	00000000 __rc10
0000001c g       *ABS*	00000000 __rc12
0000001e g       *ABS*	00000000 __rc14
00000020 g       *ABS*	00000000 __rc16
00000022 g       *ABS*	00000000 __rc18
00000024 g       *ABS*	00000000 __rc20
00000026 g       *ABS*	00000000 __rc22
00000028 g       *ABS*	00000000 __rc24
0000002a g       *ABS*	00000000 __rc26
0000002c g       *ABS*	00000000 __rc28
0000002e g       *ABS*	00000000 __rc30
0000002f g       *ABS*	00000000 __rc31
00000300 g       *ABS*	00000000 __f256_start
0000a000 g       *ABS*	00000000 __stack
0000a000 g       *ABS*	00000000 __SLOT_ADDR
0800a000 g       *ABS*	00000000 __block8_lma
00002000 g       *ABS*	00000000 __BLOCK_SIZE
0900a000 g       *ABS*	00000000 __block9_lma
0a00a000 g       *ABS*	00000000 __block10_lma
0b00a000 g       *ABS*	00000000 __block11_lma
0c00a000 g       *ABS*	00000000 __block12_lma
0d00a000 g       *ABS*	00000000 __block13_lma
0e00a000 g       *ABS*	00000000 __block14_lma
0f00a000 g       *ABS*	00000000 __block15_lma
1000a000 g       *ABS*	00000000 __block16_lma
1100a000 g       *ABS*	00000000 __block17_lma
1200a000 g       *ABS*	00000000 __block18_lma
1300a000 g       *ABS*	00000000 __block19_lma
1400a000 g       *ABS*	00000000 __block20_lma
1500a000 g       *ABS*	00000000 __block21_lma
1600a000 g       *ABS*	00000000 __block22_lma
1700a000 g       *ABS*	00000000 __block23_lma
00010000 g       *ABS*	00000000 __palgrudge_lma
00000400 g       *ABS*	00000000 __palgrudge_size
00010400 g       *ABS*	00000000 __boy1_lma
00000400 g       *ABS*	00000000 __boy1_size
00010800 g       *ABS*	00000000 __thing_lma
00000400 g       *ABS*	00000000 __thing_size
00010c00 g       *ABS*	00000000 __girl1_lma
00000400 g       *ABS*	00000000 __girl1_size
00011000 g       *ABS*	00000000 __cath_lma
00000400 g       *ABS*	00000000 __cath_size
00011400 g       *ABS*	00000000 __cat_lma
00000400 g       *ABS*	00000000 __cat_size
00013000 g       *ABS*	00000000 __dash_lma
00000800 g       *ABS*	00000000 __dash_size
0000564a g       .bss	00000000 __bss_start
00010400 g       .palgrudge	00000000 end_palgrudge
00010800 g       .boy1	00000000 end_boy1
00010c00 g       .thing	00000000 end_thing
00011000 g       .girl1	00000000 end_girl1
00011400 g       .cath	00000000 end_cath
00011800 g       .cat	00000000 end_cat
00013800 g       .dash	00000000 end_dash
00000300 g       .text	00000000 _start
0000002d g       *ABS*	00000000 __rc29
0000002b g       *ABS*	00000000 __rc27
00000029 g       *ABS*	00000000 __rc25
00000027 g       *ABS*	00000000 __rc23
00000025 g       *ABS*	00000000 __rc21
00000023 g       *ABS*	00000000 __rc19
00000021 g       *ABS*	00000000 __rc17
0000001f g       *ABS*	00000000 __rc15
0000001d g       *ABS*	00000000 __rc13
0000001b g       *ABS*	00000000 __rc11
00000019 g       *ABS*	00000000 __rc9
00000017 g       *ABS*	00000000 __rc7
00000015 g       *ABS*	00000000 __rc5
00000013 g       *ABS*	00000000 __rc3
00000011 g       *ABS*	00000000 __rc1
00000030 g       .zp.data	00000000 __zp_data_start
00000300 g       *ABS*	00000000 __zp_data_load_start
00000000 g       *ABS*	00000000 __zp_data_size
00000030 g       .zp.bss	00000000 __zp_bss_start
00000012 g       *ABS*	00000000 __zp_bss_size
00000300 g       .text	00000000 _init
00003140 g       .text	00000000 __init_array_start
00003140 g       .text	00000000 __init_array_end
00003140 g       .text	00000000 __fini_array_start
00003140 g       .text	00000000 __fini_array_end
0000564a g       .data	00000000 __data_start
0000564a g       .data	00000000 __data_end
0000564a g       *ABS*	00000000 __data_load_start
00000000 g       *ABS*	00000000 __data_size
0000586b g       .bss	00000000 __bss_end
00000221 g       *ABS*	00000000 __bss_size
0000586b g       .noinit	00000000 end_block8
0000586b g       .noinit	00000000 end_block9
0000586b g       .noinit	00000000 end_block10
0000586b g       .noinit	00000000 end_block11
0000586b g       .noinit	00000000 end_block12
0000586b g       .noinit	00000000 end_block13
0000586b g       .noinit	00000000 end_block14
0000586b g       .noinit	00000000 end_block15
0000586b g       .noinit	00000000 end_block16
0000586b g       .noinit	00000000 end_block17
0000586b g       .noinit	00000000 end_block18
0000586b g       .noinit	00000000 end_block19
0000586b g       .noinit	00000000 end_block20
0000586b g       .noinit	00000000 end_block21
0000586b g       .noinit	00000000 end_block22
0000586b g       .noinit	00000000 end_block23

Disassembly of section .text:

00000300 <_start>:
     300: a9 00        	lda	#$0
     302: 85 10        	sta	$10                     ; 0x10 <__rc0>
     304: a9 a0        	lda	#$a0
     306: 85 11        	sta	$11                     ; 0x11 <__rc1>

00000308 <__do_zero_bss>:
     308: 20 61 04     	jsr	$461 <__zero_bss>

0000030b <__do_zero_zp_bss>:
     30b: 20 74 04     	jsr	$474 <__zero_zp_bss>
     30e: 20 87 04     	jsr	$487 <main>

00000311 <__after_main>:
     311: 4c fa 1c     	jmp	$1cfa <exit>

00000314 <_fini>:
     314: 60           	rts
     315: 00           	brk

00000316 <_ZN12_GLOBAL__N_19FreeChunk6insertEPvj>:
     316: 85 16        	sta	$16                     ; 0x16 <__rc6>
     318: 29 fe        	and	#$fe
     31a: 85 14        	sta	$14                     ; 0x14 <__rc4>
     31c: a0 01        	ldy	#$1
     31e: 98           	tya
     31f: 32 12        	and	($12)                   ; 0x12 <__zp_bss_size>
     321: 05 14        	ora	$14                     ; 0x14 <__rc4>
     323: 92 12        	sta	($12)                   ; 0x12 <__zp_bss_size>
     325: a5 12        	lda	$12                     ; 0x12 <__zp_bss_size>
     327: 18           	clc
     328: 65 14        	adc	$14                     ; 0x14 <__rc4>
     32a: 85 15        	sta	$15                     ; 0x15 <__rc5>
     32c: 8a           	txa
     32d: 65 13        	adc	$13                     ; 0x13 <__rc3>
     32f: 85 14        	sta	$14                     ; 0x14 <__rc4>
     331: 18           	clc
     332: a5 15        	lda	$15                     ; 0x15 <__rc5>
     334: 69 fe        	adc	#$fe
     336: 85 17        	sta	$17                     ; 0x17 <__rc7>
     338: a5 14        	lda	$14                     ; 0x14 <__rc4>
     33a: 69 ff        	adc	#$ff
     33c: 85 15        	sta	$15                     ; 0x15 <__rc5>
     33e: a5 17        	lda	$17                     ; 0x17 <__rc7>
     340: 85 14        	sta	$14                     ; 0x14 <__rc4>
     342: 8a           	txa
     343: 91 12        	sta	($12),y                 ; 0x12 <__zp_bss_size>
     345: a5 16        	lda	$16                     ; 0x16 <__rc6>
     347: 92 14        	sta	($14)                   ; 0x14 <__rc4>
     349: 8a           	txa
     34a: 91 14        	sta	($14),y                 ; 0x14 <__rc4>
     34c: a2 01        	ldx	#$1
     34e: 86 18        	stx	$18                     ; 0x18 <__rc8>
     350: b1 12        	lda	($12),y                 ; 0x12 <__zp_bss_size>
     352: 85 14        	sta	$14                     ; 0x14 <__rc4>
     354: a9 fe        	lda	#$fe
     356: 32 12        	and	($12)                   ; 0x12 <__zp_bss_size>
     358: 18           	clc
     359: 65 3e        	adc	$3e                     ; 0x3e <_ZN12_GLOBAL__N_19free_sizeE>
     35b: aa           	tax
     35c: a5 14        	lda	$14                     ; 0x14 <__rc4>
     35e: 65 3f        	adc	$3f                     ; 0x3f <_ZN12_GLOBAL__N_19free_sizeE+0x1>
     360: a8           	tay
     361: 18           	clc
     362: 8a           	txa
     363: 69 fe        	adc	#$fe
     365: aa           	tax
     366: 98           	tya
     367: 69 ff        	adc	#$ff
     369: 86 3e        	stx	$3e                     ; 0x3e <_ZN12_GLOBAL__N_19free_sizeE>
     36b: 85 3f        	sta	$3f                     ; 0x3f <_ZN12_GLOBAL__N_19free_sizeE+0x1>
     36d: a6 40        	ldx	$40                     ; 0x40 <_ZN12_GLOBAL__N_19free_listE>
     36f: 86 16        	stx	$16                     ; 0x16 <__rc6>
     371: a4 41        	ldy	$41                     ; 0x41 <_ZN12_GLOBAL__N_19free_listE+0x1>
     373: a2 00        	ldx	#$0
     375: 86 14        	stx	$14                     ; 0x14 <__rc4>
     377: a2 00        	ldx	#$0
     379: 86 15        	stx	$15                     ; 0x15 <__rc5>
     37b: 84 17        	sty	$17                     ; 0x17 <__rc7>
     37d: c4 15        	cpy	$15                     ; 0x15 <__rc5>
     37f: d0 3c        	bne	$3bd <_ZN12_GLOBAL__N_19FreeChunk6insertEPvj+0xa7>
     381: a6 16        	ldx	$16                     ; 0x16 <__rc6>
     383: e4 14        	cpx	$14                     ; 0x14 <__rc4>
     385: d0 36        	bne	$3bd <_ZN12_GLOBAL__N_19FreeChunk6insertEPvj+0xa7>
     387: a0 04        	ldy	#$4
     389: a5 12        	lda	$12                     ; 0x12 <__zp_bss_size>
     38b: 18           	clc
     38c: 69 04        	adc	#$4
     38e: 85 14        	sta	$14                     ; 0x14 <__rc4>
     390: a5 13        	lda	$13                     ; 0x13 <__rc3>
     392: 69 00        	adc	#$0
     394: 18           	clc
     395: 85 15        	sta	$15                     ; 0x15 <__rc5>
     397: a5 12        	lda	$12                     ; 0x12 <__zp_bss_size>
     399: 91 12        	sta	($12),y                 ; 0x12 <__zp_bss_size>
     39b: a0 02        	ldy	#$2
     39d: 85 17        	sta	$17                     ; 0x17 <__rc7>
     39f: 69 02        	adc	#$2
     3a1: 85 16        	sta	$16                     ; 0x16 <__rc6>
     3a3: a5 17        	lda	$17                     ; 0x17 <__rc7>
     3a5: 91 12        	sta	($12),y                 ; 0x12 <__zp_bss_size>
     3a7: a5 13        	lda	$13                     ; 0x13 <__rc3>
     3a9: 69 00        	adc	#$0
     3ab: 85 17        	sta	$17                     ; 0x17 <__rc7>
     3ad: 88           	dey
     3ae: a5 13        	lda	$13                     ; 0x13 <__rc3>
     3b0: 91 14        	sta	($14),y                 ; 0x14 <__rc4>
     3b2: 91 16        	sta	($16),y                 ; 0x16 <__rc6>
     3b4: a6 12        	ldx	$12                     ; 0x12 <__zp_bss_size>
     3b6: 86 40        	stx	$40                     ; 0x40 <_ZN12_GLOBAL__N_19free_listE>
     3b8: a6 13        	ldx	$13                     ; 0x13 <__rc3>
     3ba: 86 41        	stx	$41                     ; 0x41 <_ZN12_GLOBAL__N_19free_listE+0x1>
     3bc: 60           	rts
     3bd: a6 12        	ldx	$12                     ; 0x12 <__zp_bss_size>
     3bf: a5 12        	lda	$12                     ; 0x12 <__zp_bss_size>
     3c1: 18           	clc
     3c2: 69 02        	adc	#$2
     3c4: 85 14        	sta	$14                     ; 0x14 <__rc4>
     3c6: a4 16        	ldy	$16                     ; 0x16 <__rc6>
     3c8: a5 13        	lda	$13                     ; 0x13 <__rc3>
     3ca: 69 00        	adc	#$0
     3cc: 85 15        	sta	$15                     ; 0x15 <__rc5>
     3ce: 84 19        	sty	$19                     ; 0x19 <__rc9>
     3d0: a4 17        	ldy	$17                     ; 0x17 <__rc7>
     3d2: 84 1a        	sty	$1a                     ; 0x1a <__rc10>
     3d4: a0 02        	ldy	#$2
     3d6: a5 19        	lda	$19                     ; 0x19 <__rc9>
     3d8: 91 12        	sta	($12),y                 ; 0x12 <__zp_bss_size>
     3da: 84 1d        	sty	$1d                     ; 0x1d <__rc13>
     3dc: a4 18        	ldy	$18                     ; 0x18 <__rc8>
     3de: a5 1a        	lda	$1a                     ; 0x1a <__rc10>
     3e0: 91 14        	sta	($14),y                 ; 0x14 <__rc4>
     3e2: 84 1e        	sty	$1e                     ; 0x1e <__rc14>
     3e4: 18           	clc
     3e5: a5 19        	lda	$19                     ; 0x19 <__rc9>
     3e7: 69 04        	adc	#$4
     3e9: 85 18        	sta	$18                     ; 0x18 <__rc8>
     3eb: a5 1a        	lda	$1a                     ; 0x1a <__rc10>
     3ed: 69 00        	adc	#$0
     3ef: 85 19        	sta	$19                     ; 0x19 <__rc9>
     3f1: 8a           	txa
     3f2: 18           	clc
     3f3: 69 04        	adc	#$4
     3f5: 85 1a        	sta	$1a                     ; 0x1a <__rc10>
     3f7: a5 13        	lda	$13                     ; 0x13 <__rc3>
     3f9: 69 00        	adc	#$0
     3fb: 85 1b        	sta	$1b                     ; 0x1b <__rc11>
     3fd: a0 04        	ldy	#$4
     3ff: b1 16        	lda	($16),y                 ; 0x16 <__rc6>
     401: 85 16        	sta	$16                     ; 0x16 <__rc6>
     403: 85 22        	sta	$22                     ; 0x22 <__rc18>
     405: a4 1e        	ldy	$1e                     ; 0x1e <__rc14>
     407: b1 18        	lda	($18),y                 ; 0x18 <__rc8>
     409: 85 17        	sta	$17                     ; 0x17 <__rc7>
     40b: 85 19        	sta	$19                     ; 0x19 <__rc9>
     40d: a0 04        	ldy	#$4
     40f: a5 22        	lda	$22                     ; 0x22 <__rc18>
     411: 91 12        	sta	($12),y                 ; 0x12 <__zp_bss_size>
     413: 84 1f        	sty	$1f                     ; 0x1f <__rc15>
     415: a4 1e        	ldy	$1e                     ; 0x1e <__rc14>
     417: a5 19        	lda	$19                     ; 0x19 <__rc9>
     419: 91 1a        	sta	($1a),y                 ; 0x1a <__rc10>
     41b: 84 1a        	sty	$1a                     ; 0x1a <__rc10>
     41d: 18           	clc
     41e: a5 22        	lda	$22                     ; 0x22 <__rc18>
     420: 69 02        	adc	#$2
     422: 85 18        	sta	$18                     ; 0x18 <__rc8>
     424: a5 19        	lda	$19                     ; 0x19 <__rc9>
     426: 69 00        	adc	#$0
     428: 85 19        	sta	$19                     ; 0x19 <__rc9>
     42a: 8a           	txa
     42b: a4 1d        	ldy	$1d                     ; 0x1d <__rc13>
     42d: 91 16        	sta	($16),y                 ; 0x16 <__rc6>
     42f: a5 13        	lda	$13                     ; 0x13 <__rc3>
     431: a4 1a        	ldy	$1a                     ; 0x1a <__rc10>
     433: 91 18        	sta	($18),y                 ; 0x18 <__rc8>
     435: a4 1d        	ldy	$1d                     ; 0x1d <__rc13>
     437: b1 12        	lda	($12),y                 ; 0x12 <__zp_bss_size>
     439: 85 16        	sta	$16                     ; 0x16 <__rc6>
     43b: 85 19        	sta	$19                     ; 0x19 <__rc9>
     43d: a4 1a        	ldy	$1a                     ; 0x1a <__rc10>
     43f: b1 14        	lda	($14),y                 ; 0x14 <__rc4>
     441: 84 18        	sty	$18                     ; 0x18 <__rc8>
     443: 85 17        	sta	$17                     ; 0x17 <__rc7>
     445: 85 14        	sta	$14                     ; 0x14 <__rc4>
     447: 8a           	txa
     448: a4 1f        	ldy	$1f                     ; 0x1f <__rc15>
     44a: 91 16        	sta	($16),y                 ; 0x16 <__rc6>
     44c: 18           	clc
     44d: a5 19        	lda	$19                     ; 0x19 <__rc9>
     44f: 69 04        	adc	#$4
     451: a8           	tay
     452: a5 14        	lda	$14                     ; 0x14 <__rc4>
     454: 69 00        	adc	#$0
     456: 84 14        	sty	$14                     ; 0x14 <__rc4>
     458: 85 15        	sta	$15                     ; 0x15 <__rc5>
     45a: a5 13        	lda	$13                     ; 0x13 <__rc3>
     45c: a4 18        	ldy	$18                     ; 0x18 <__rc8>
     45e: 91 14        	sta	($14),y                 ; 0x14 <__rc4>
     460: 60           	rts

00000461 <__zero_bss>:
     461: a2 21        	ldx	#$21
     463: a0 02        	ldy	#$2
     465: a9 4a        	lda	#$4a
     467: 85 12        	sta	$12                     ; 0x12 <__zp_bss_size>
     469: a9 56        	lda	#$56
     46b: 85 13        	sta	$13                     ; 0x13 <__rc3>
     46d: a9 00        	lda	#$0
     46f: 84 14        	sty	$14                     ; 0x14 <__rc4>
     471: 4c ee 30     	jmp	$30ee <__memset>

00000474 <__zero_zp_bss>:
     474: a2 12        	ldx	#$12
     476: a0 00        	ldy	#$0
     478: a9 30        	lda	#$30
     47a: 85 12        	sta	$12                     ; 0x12 <__zp_bss_size>
     47c: a9 00        	lda	#$0
     47e: 85 13        	sta	$13                     ; 0x13 <__rc3>
     480: a9 00        	lda	#$0
     482: 84 14        	sty	$14                     ; 0x14 <__rc4>
     484: 4c ee 30     	jmp	$30ee <__memset>

00000487 <main>:
     487: 18           	clc
     488: a5 10        	lda	$10                     ; 0x10 <__rc0>
     48a: 69 f4        	adc	#$f4
     48c: 85 10        	sta	$10                     ; 0x10 <__rc0>
     48e: a5 11        	lda	$11                     ; 0x11 <__rc1>
     490: 69 ff        	adc	#$ff
     492: 85 11        	sta	$11                     ; 0x11 <__rc1>
     494: a6 24        	ldx	$24                     ; 0x24 <__rc20>
     496: da           	phx
     497: a6 25        	ldx	$25                     ; 0x25 <__rc21>
     499: da           	phx
     49a: a6 26        	ldx	$26                     ; 0x26 <__rc22>
     49c: da           	phx
     49d: a6 27        	ldx	$27                     ; 0x27 <__rc23>
     49f: da           	phx
     4a0: a5 28        	lda	$28                     ; 0x28 <__rc24>
     4a2: a0 02        	ldy	#$2
     4a4: 91 10        	sta	($10),y                 ; 0x10 <__rc0>
     4a6: a5 29        	lda	$29                     ; 0x29 <__rc25>
     4a8: 88           	dey
     4a9: 91 10        	sta	($10),y                 ; 0x10 <__rc0>
     4ab: a5 2a        	lda	$2a                     ; 0x2a <__rc26>
     4ad: 88           	dey
     4ae: 91 10        	sta	($10),y                 ; 0x10 <__rc0>
     4b0: 64 14        	stz	$14                     ; 0x14 <__rc4>
     4b2: a2 00        	ldx	#$0
     4b4: 86 12        	stx	$12                     ; 0x12 <__zp_bss_size>
     4b6: a2 c0        	ldx	#$c0
     4b8: 86 13        	stx	$13                     ; 0x13 <__rc3>
     4ba: 64 01        	stz	$1                      ; 0x1 <__zp_data_size+0x1>
     4bc: a2 3f        	ldx	#$3f
     4be: 8e 00 d0     	stx	$d000                   ; 0xd000 <__heap_start+0x7794>
     4c1: a2 b3        	ldx	#$b3
     4c3: 86 00        	stx	$0                      ; 0x0 <__zp_data_size>
     4c5: 64 08        	stz	$8                      ; 0x8 <__zp_data_size+0x8>
     4c7: a2 01        	ldx	#$1
     4c9: 86 09        	stx	$9                      ; 0x9 <__zp_data_size+0x9>
     4cb: e8           	inx
     4cc: 86 0a        	stx	$a                      ; 0xa <__zp_data_size+0xa>
     4ce: e8           	inx
     4cf: 86 0b        	stx	$b                      ; 0xb <__zp_data_size+0xb>
     4d1: e8           	inx
     4d2: 86 0c        	stx	$c                      ; 0xc <__zp_data_size+0xc>
     4d4: e8           	inx
     4d5: 86 0d        	stx	$d                      ; 0xd <__zp_data_size+0xd>
     4d7: a2 36        	ldx	#$36
     4d9: a0 00        	ldy	#$0
     4db: 86 f0        	stx	$f0                     ; 0xf0 <__rc31+0xc1>
     4dd: 84 f1        	sty	$f1                     ; 0xf1 <__rc31+0xc2>
     4df: a2 00        	ldx	#$0
     4e1: 86 18        	stx	$18                     ; 0x18 <__rc8>
     4e3: ca           	dex
     4e4: 86 19        	stx	$19                     ; 0x19 <__rc9>
     4e6: 8a           	txa
     4e7: 0a           	asl
     4e8: 0a           	asl
     4e9: 18           	clc
     4ea: 69 d4        	adc	#$d4
     4ec: 85 1a        	sta	$1a                     ; 0x1a <__rc10>
     4ee: a0 00        	ldy	#$0
     4f0: 64 17        	stz	$17                     ; 0x17 <__rc7>
     4f2: 64 16        	stz	$16                     ; 0x16 <__rc6>
     4f4: a6 19        	ldx	$19                     ; 0x19 <__rc9>
     4f6: e0 03        	cpx	#$3
     4f8: a6 01        	ldx	$1                      ; 0x1 <__zp_data_size+0x1>
     4fa: 86 1c        	stx	$1c                     ; 0x1c <__rc12>
     4fc: a2 d0        	ldx	#$d0
     4fe: 84 1b        	sty	$1b                     ; 0x1b <__rc11>
     500: b0 02        	bcs	$504 <main+0x7d>
     502: a6 1a        	ldx	$1a                     ; 0x1a <__rc10>
     504: 86 15        	stx	$15                     ; 0x15 <__rc5>
     506: a5 17        	lda	$17                     ; 0x17 <__rc7>
     508: 18           	clc
     509: 65 14        	adc	$14                     ; 0x14 <__rc4>
     50b: a8           	tay
     50c: a6 17        	ldx	$17                     ; 0x17 <__rc7>
     50e: a5 16        	lda	$16                     ; 0x16 <__rc6>
     510: 85 1d        	sta	$1d                     ; 0x1d <__rc13>
     512: a5 16        	lda	$16                     ; 0x16 <__rc6>
     514: 65 15        	adc	$15                     ; 0x15 <__rc5>
     516: 84 16        	sty	$16                     ; 0x16 <__rc6>
     518: a0 01        	ldy	#$1
     51a: 84 01        	sty	$1                      ; 0x1 <__zp_data_size+0x1>
     51c: 85 17        	sta	$17                     ; 0x17 <__rc7>
     51e: a5 1b        	lda	$1b                     ; 0x1b <__rc11>
     520: 92 16        	sta	($16)                   ; 0x16 <__rc6>
     522: 91 16        	sta	($16),y                 ; 0x16 <__rc6>
     524: c8           	iny
     525: 91 16        	sta	($16),y                 ; 0x16 <__rc6>
     527: 85 15        	sta	$15                     ; 0x15 <__rc5>
     529: c8           	iny
     52a: a9 ff        	lda	#$ff
     52c: 91 16        	sta	($16),y                 ; 0x16 <__rc6>
     52e: 8a           	txa
     52f: a6 1c        	ldx	$1c                     ; 0x1c <__rc12>
     531: 86 01        	stx	$1                      ; 0x1 <__zp_data_size+0x1>
     533: 18           	clc
     534: 69 04        	adc	#$4
     536: 85 17        	sta	$17                     ; 0x17 <__rc7>
     538: a5 1d        	lda	$1d                     ; 0x1d <__rc13>
     53a: 69 00        	adc	#$0
     53c: e6 15        	inc	$15                     ; 0x15 <__rc5>
     53e: a4 15        	ldy	$15                     ; 0x15 <__rc5>
     540: 85 16        	sta	$16                     ; 0x16 <__rc6>
     542: c9 04        	cmp	#$4
     544: f0 03        	beq	$549 <main+0xc2>
     546: 4c f4 04     	jmp	$4f4 <main+0x6d>
     549: a5 17        	lda	$17                     ; 0x17 <__rc7>
     54b: f0 03        	beq	$550 <main+0xc9>
     54d: 4c f4 04     	jmp	$4f4 <main+0x6d>
     550: a6 18        	ldx	$18                     ; 0x18 <__rc8>
     552: e8           	inx
     553: e0 04        	cpx	#$4
     555: f0 03        	beq	$55a <main+0xd3>
     557: 4c e1 04     	jmp	$4e1 <main+0x5a>
     55a: ad 02 d0     	lda	$d002                   ; 0xd002 <__heap_start+0x7796>
     55d: 29 f0        	and	#$f0
     55f: 8d 02 d0     	sta	$d002                   ; 0xd002 <__heap_start+0x7796>
     562: ad 02 d0     	lda	$d002                   ; 0xd002 <__heap_start+0x7796>
     565: 29 0f        	and	#$f
     567: 09 10        	ora	#$10
     569: 8d 02 d0     	sta	$d002                   ; 0xd002 <__heap_start+0x7796>
     56c: a2 02        	ldx	#$2
     56e: 8e 03 d0     	stx	$d003                   ; 0xd003 <__heap_start+0x7797>
     571: 64 30        	stz	$30                     ; 0x30 <_ccolor>
     573: ad 01 d0     	lda	$d001                   ; 0xd001 <__heap_start+0x7795>
     576: 29 f9        	and	#$f9
     578: 09 04        	ora	#$4
     57a: 8d 01 d0     	sta	$d001                   ; 0xd001 <__heap_start+0x7795>
     57d: 64 14        	stz	$14                     ; 0x14 <__rc4>
     57f: 9c 10 d0     	stz	$d010                   ; 0xd010 <__heap_start+0x77a4>
     582: a2 00        	ldx	#$0
     584: 64 15        	stz	$15                     ; 0x15 <__rc5>
     586: 86 18        	stx	$18                     ; 0x18 <__rc8>
     588: a4 18        	ldy	$18                     ; 0x18 <__rc8>
     58a: be 7a 31     	ldx	$317a,y                 ; 0x317a <textColors>
     58d: 86 19        	stx	$19                     ; 0x19 <__rc9>
     58f: be 7b 31     	ldx	$317b,y                 ; 0x317b <textColors+0x1>
     592: 86 1a        	stx	$1a                     ; 0x1a <__rc10>
     594: be 7c 31     	ldx	$317c,y                 ; 0x317c <textColors+0x2>
     597: 86 1b        	stx	$1b                     ; 0x1b <__rc11>
     599: a6 15        	ldx	$15                     ; 0x15 <__rc5>
     59b: 8e 00 de     	stx	$de00                   ; 0xde00 <__heap_start+0x8594>
     59e: 86 17        	stx	$17                     ; 0x17 <__rc7>
     5a0: 9c 01 de     	stz	$de01                   ; 0xde01 <__heap_start+0x8595>
     5a3: a2 04        	ldx	#$4
     5a5: 8e 02 de     	stx	$de02                   ; 0xde02 <__heap_start+0x8596>
     5a8: 86 1d        	stx	$1d                     ; 0x1d <__rc13>
     5aa: 9c 03 de     	stz	$de03                   ; 0xde03 <__heap_start+0x8597>
     5ad: ad 10 de     	lda	$de10                   ; 0xde10 <__heap_start+0x85a4>
     5b0: ac 11 de     	ldy	$de11                   ; 0xde11 <__heap_start+0x85a5>
     5b3: 84 15        	sty	$15                     ; 0x15 <__rc5>
     5b5: ac 12 de     	ldy	$de12                   ; 0xde12 <__heap_start+0x85a6>
     5b8: ac 13 de     	ldy	$de13                   ; 0xde13 <__heap_start+0x85a7>
     5bb: a2 00        	ldx	#$0
     5bd: 18           	clc
     5be: 65 14        	adc	$14                     ; 0x14 <__rc4>
     5c0: a8           	tay
     5c1: 86 1f        	stx	$1f                     ; 0x1f <__rc15>
     5c3: a6 17        	ldx	$17                     ; 0x17 <__rc7>
     5c5: a9 d8        	lda	#$d8
     5c7: 65 15        	adc	$15                     ; 0x15 <__rc5>
     5c9: 84 16        	sty	$16                     ; 0x16 <__rc6>
     5cb: 85 17        	sta	$17                     ; 0x17 <__rc7>
     5cd: a5 1b        	lda	$1b                     ; 0x1b <__rc11>
     5cf: 92 16        	sta	($16)                   ; 0x16 <__rc6>
     5d1: a0 01        	ldy	#$1
     5d3: a5 1a        	lda	$1a                     ; 0x1a <__rc10>
     5d5: 91 16        	sta	($16),y                 ; 0x16 <__rc6>
     5d7: 84 1c        	sty	$1c                     ; 0x1c <__rc12>
     5d9: c8           	iny
     5da: a5 19        	lda	$19                     ; 0x19 <__rc9>
     5dc: 91 16        	sta	($16),y                 ; 0x16 <__rc6>
     5de: 84 1e        	sty	$1e                     ; 0x1e <__rc14>
     5e0: c8           	iny
     5e1: a9 ff        	lda	#$ff
     5e3: 91 16        	sta	($16),y                 ; 0x16 <__rc6>
     5e5: 85 23        	sta	$23                     ; 0x23 <__rc19>
     5e7: 84 22        	sty	$22                     ; 0x22 <__rc18>
     5e9: 8e 00 de     	stx	$de00                   ; 0xde00 <__heap_start+0x8594>
     5ec: 9c 01 de     	stz	$de01                   ; 0xde01 <__heap_start+0x8595>
     5ef: a4 1d        	ldy	$1d                     ; 0x1d <__rc13>
     5f1: 8c 02 de     	sty	$de02                   ; 0xde02 <__heap_start+0x8596>
     5f4: 9c 03 de     	stz	$de03                   ; 0xde03 <__heap_start+0x8597>
     5f7: ad 10 de     	lda	$de10                   ; 0xde10 <__heap_start+0x85a4>
     5fa: 85 15        	sta	$15                     ; 0x15 <__rc5>
     5fc: ad 11 de     	lda	$de11                   ; 0xde11 <__heap_start+0x85a5>
     5ff: 85 16        	sta	$16                     ; 0x16 <__rc6>
     601: a9 40        	lda	#$40
     603: a4 1f        	ldy	$1f                     ; 0x1f <__rc15>
     605: c0 01        	cpy	#$1
     607: 65 15        	adc	$15                     ; 0x15 <__rc5>
     609: a8           	tay
     60a: a9 d8        	lda	#$d8
     60c: 65 16        	adc	$16                     ; 0x16 <__rc6>
     60e: 85 17        	sta	$17                     ; 0x17 <__rc7>
     610: 84 16        	sty	$16                     ; 0x16 <__rc6>
     612: ad 12 de     	lda	$de12                   ; 0xde12 <__heap_start+0x85a6>
     615: ad 13 de     	lda	$de13                   ; 0xde13 <__heap_start+0x85a7>
     618: a5 1b        	lda	$1b                     ; 0x1b <__rc11>
     61a: 92 16        	sta	($16)                   ; 0x16 <__rc6>
     61c: a5 1a        	lda	$1a                     ; 0x1a <__rc10>
     61e: a4 1c        	ldy	$1c                     ; 0x1c <__rc12>
     620: 91 16        	sta	($16),y                 ; 0x16 <__rc6>
     622: a5 19        	lda	$19                     ; 0x19 <__rc9>
     624: a4 1e        	ldy	$1e                     ; 0x1e <__rc14>
     626: 91 16        	sta	($16),y                 ; 0x16 <__rc6>
     628: a4 22        	ldy	$22                     ; 0x22 <__rc18>
     62a: a5 23        	lda	$23                     ; 0x23 <__rc19>
     62c: 91 16        	sta	($16),y                 ; 0x16 <__rc6>
     62e: e8           	inx
     62f: 86 15        	stx	$15                     ; 0x15 <__rc5>
     631: 18           	clc
     632: a5 18        	lda	$18                     ; 0x18 <__rc8>
     634: 69 03        	adc	#$3
     636: aa           	tax
     637: c9 30        	cmp	#$30
     639: f0 03        	beq	$63e <main+0x1b7>
     63b: 4c 86 05     	jmp	$586 <main+0xff>
     63e: a6 01        	ldx	$1                      ; 0x1 <__zp_data_size+0x1>
     640: 86 18        	stx	$18                     ; 0x18 <__rc8>
     642: a2 50        	ldx	#$50
     644: 8e 00 de     	stx	$de00                   ; 0xde00 <__heap_start+0x8594>
     647: 9c 01 de     	stz	$de01                   ; 0xde01 <__heap_start+0x8595>
     64a: a2 1e        	ldx	#$1e
     64c: 8e 02 de     	stx	$de02                   ; 0xde02 <__heap_start+0x8596>
     64f: 9c 03 de     	stz	$de03                   ; 0xde03 <__heap_start+0x8597>
     652: ae 10 de     	ldx	$de10                   ; 0xde10 <__heap_start+0x85a4>
     655: ac 11 de     	ldy	$de11                   ; 0xde11 <__heap_start+0x85a5>
     658: ad 12 de     	lda	$de12                   ; 0xde12 <__heap_start+0x85a6>
     65b: ad 13 de     	lda	$de13                   ; 0xde13 <__heap_start+0x85a7>
     65e: a9 02        	lda	#$2
     660: 85 01        	sta	$1                      ; 0x1 <__zp_data_size+0x1>
     662: e0 01        	cpx	#$1
     664: 98           	tya
     665: e9 00        	sbc	#$0
     667: 50 02        	bvc	$66b <main+0x1e4>
     669: 49 80        	eor	#$80
     66b: c9 00        	cmp	#$0
     66d: 10 03        	bpl	$672 <main+0x1eb>
     66f: 4c cb 06     	jmp	$6cb <main+0x244>
     672: a9 20        	lda	#$20
     674: 86 19        	stx	$19                     ; 0x19 <__rc9>
     676: 86 14        	stx	$14                     ; 0x14 <__rc4>
     678: 84 15        	sty	$15                     ; 0x15 <__rc5>
     67a: a2 00        	ldx	#$0
     67c: 86 16        	stx	$16                     ; 0x16 <__rc6>
     67e: a2 c0        	ldx	#$c0
     680: 86 17        	stx	$17                     ; 0x17 <__rc7>
     682: 92 16        	sta	($16)                   ; 0x16 <__rc6>
     684: e6 16        	inc	$16                     ; 0x16 <__rc6>
     686: d0 02        	bne	$68a <main+0x203>
     688: e6 17        	inc	$17                     ; 0x17 <__rc7>
     68a: a2 ff        	ldx	#$ff
     68c: c6 14        	dec	$14                     ; 0x14 <__rc4>
     68e: e4 14        	cpx	$14                     ; 0x14 <__rc4>
     690: d0 02        	bne	$694 <main+0x20d>
     692: c6 15        	dec	$15                     ; 0x15 <__rc5>
     694: a6 15        	ldx	$15                     ; 0x15 <__rc5>
     696: d0 ea        	bne	$682 <main+0x1fb>
     698: a6 14        	ldx	$14                     ; 0x14 <__rc4>
     69a: d0 e6        	bne	$682 <main+0x1fb>
     69c: a2 03        	ldx	#$3
     69e: 86 01        	stx	$1                      ; 0x1 <__zp_data_size+0x1>
     6a0: a5 30        	lda	$30                     ; 0x30 <_ccolor>
     6a2: 29 01        	and	#$1
     6a4: aa           	tax
     6a5: a9 40        	lda	#$40
     6a7: e0 00        	cpx	#$0
     6a9: d0 02        	bne	$6ad <main+0x226>
     6ab: a9 f0        	lda	#$f0
     6ad: a6 19        	ldx	$19                     ; 0x19 <__rc9>
     6af: 92 12        	sta	($12)                   ; 0x12 <__zp_bss_size>
     6b1: e6 12        	inc	$12                     ; 0x12 <__zp_bss_size>
     6b3: d0 02        	bne	$6b7 <main+0x230>
     6b5: e6 13        	inc	$13                     ; 0x13 <__rc3>
     6b7: 85 14        	sta	$14                     ; 0x14 <__rc4>
     6b9: ca           	dex
     6ba: e0 ff        	cpx	#$ff
     6bc: d0 01        	bne	$6bf <main+0x238>
     6be: 88           	dey
     6bf: a5 14        	lda	$14                     ; 0x14 <__rc4>
     6c1: c0 00        	cpy	#$0
     6c3: d0 ea        	bne	$6af <main+0x228>
     6c5: e0 00        	cpx	#$0
     6c7: d0 e6        	bne	$6af <main+0x228>
     6c9: 80 04        	bra	$6cf <main+0x248>
     6cb: a2 03        	ldx	#$3
     6cd: 86 01        	stx	$1                      ; 0x1 <__zp_data_size+0x1>
     6cf: a6 18        	ldx	$18                     ; 0x18 <__rc8>
     6d1: 86 01        	stx	$1                      ; 0x1 <__zp_data_size+0x1>
     6d3: 64 31        	stz	$31                     ; 0x31 <_col>
     6d5: 9c 14 d0     	stz	$d014                   ; 0xd014 <__heap_start+0x77a8>
     6d8: 9c 15 d0     	stz	$d015                   ; 0xd015 <__heap_start+0x77a9>
     6db: 64 32        	stz	$32                     ; 0x32 <_row>
     6dd: 9c 16 d0     	stz	$d016                   ; 0xd016 <__heap_start+0x77aa>
     6e0: 9c 17 d0     	stz	$d017                   ; 0xd017 <__heap_start+0x77ab>
     6e3: a2 40        	ldx	#$40
     6e5: 8e 00 de     	stx	$de00                   ; 0xde00 <__heap_start+0x8594>
     6e8: a2 01        	ldx	#$1
     6ea: 8e 01 de     	stx	$de01                   ; 0xde01 <__heap_start+0x8595>
     6ed: a2 f0        	ldx	#$f0
     6ef: 8e 02 de     	stx	$de02                   ; 0xde02 <__heap_start+0x8596>
     6f2: 9c 03 de     	stz	$de03                   ; 0xde03 <__heap_start+0x8597>
     6f5: ae 10 de     	ldx	$de10                   ; 0xde10 <__heap_start+0x85a4>
     6f8: 86 17        	stx	$17                     ; 0x17 <__rc7>
     6fa: ae 11 de     	ldx	$de11                   ; 0xde11 <__heap_start+0x85a5>
     6fd: 86 12        	stx	$12                     ; 0x12 <__zp_bss_size>
     6ff: ae 12 de     	ldx	$de12                   ; 0xde12 <__heap_start+0x85a6>
     702: 86 13        	stx	$13                     ; 0x13 <__rc3>
     704: ae 13 de     	ldx	$de13                   ; 0xde13 <__heap_start+0x85a7>
     707: 86 14        	stx	$14                     ; 0x14 <__rc4>
     709: a4 12        	ldy	$12                     ; 0x12 <__zp_bss_size>
     70b: 84 15        	sty	$15                     ; 0x15 <__rc5>
     70d: 06 15        	asl	$15                     ; 0x15 <__rc5>
     70f: a5 13        	lda	$13                     ; 0x13 <__rc3>
     711: 2a           	rol
     712: 86 16        	stx	$16                     ; 0x16 <__rc6>
     714: 26 16        	rol	$16                     ; 0x16 <__rc6>
     716: 06 15        	asl	$15                     ; 0x15 <__rc5>
     718: 2a           	rol
     719: 26 16        	rol	$16                     ; 0x16 <__rc6>
     71b: 06 15        	asl	$15                     ; 0x15 <__rc5>
     71d: 2a           	rol
     71e: 26 16        	rol	$16                     ; 0x16 <__rc6>
     720: 85 15        	sta	$15                     ; 0x15 <__rc5>
     722: 8d 00 de     	sta	$de00                   ; 0xde00 <__heap_start+0x8594>
     725: a5 16        	lda	$16                     ; 0x16 <__rc6>
     727: 8d 01 de     	sta	$de01                   ; 0xde01 <__heap_start+0x8595>
     72a: 9c 02 de     	stz	$de02                   ; 0xde02 <__heap_start+0x8596>
     72d: a2 20        	ldx	#$20
     72f: 8e 03 de     	stx	$de03                   ; 0xde03 <__heap_start+0x8597>
     732: ae 10 de     	ldx	$de10                   ; 0xde10 <__heap_start+0x85a4>
     735: 86 16        	stx	$16                     ; 0x16 <__rc6>
     737: ae 11 de     	ldx	$de11                   ; 0xde11 <__heap_start+0x85a5>
     73a: 86 18        	stx	$18                     ; 0x18 <__rc8>
     73c: ac 12 de     	ldy	$de12                   ; 0xde12 <__heap_start+0x85a6>
     73f: ae 13 de     	ldx	$de13                   ; 0xde13 <__heap_start+0x85a7>
     742: e4 14        	cpx	$14                     ; 0x14 <__rc4>
     744: d0 14        	bne	$75a <main+0x2d3>
     746: c4 13        	cpy	$13                     ; 0x13 <__rc3>
     748: d0 10        	bne	$75a <main+0x2d3>
     74a: a6 18        	ldx	$18                     ; 0x18 <__rc8>
     74c: e4 12        	cpx	$12                     ; 0x12 <__zp_bss_size>
     74e: d0 0a        	bne	$75a <main+0x2d3>
     750: a6 16        	ldx	$16                     ; 0x16 <__rc6>
     752: e4 17        	cpx	$17                     ; 0x17 <__rc7>
     754: d0 04        	bne	$75a <main+0x2d3>
     756: a6 15        	ldx	$15                     ; 0x15 <__rc5>
     758: 80 06        	bra	$760 <main+0x2d9>
     75a: a6 15        	ldx	$15                     ; 0x15 <__rc5>
     75c: e8           	inx
     75d: d0 01        	bne	$760 <main+0x2d9>
     75f: 1a           	inc
     760: 8e 00 de     	stx	$de00                   ; 0xde00 <__heap_start+0x8594>
     763: 8d 01 de     	sta	$de01                   ; 0xde01 <__heap_start+0x8595>
     766: 9c 02 de     	stz	$de02                   ; 0xde02 <__heap_start+0x8596>
     769: a2 20        	ldx	#$20
     76b: 8e 03 de     	stx	$de03                   ; 0xde03 <__heap_start+0x8597>
     76e: ae 10 de     	ldx	$de10                   ; 0xde10 <__heap_start+0x85a4>
     771: 86 12        	stx	$12                     ; 0x12 <__zp_bss_size>
     773: ae 11 de     	ldx	$de11                   ; 0xde11 <__heap_start+0x85a5>
     776: 86 13        	stx	$13                     ; 0x13 <__rc3>
     778: ae 12 de     	ldx	$de12                   ; 0xde12 <__heap_start+0x85a6>
     77b: 86 14        	stx	$14                     ; 0x14 <__rc4>
     77d: a9 00        	lda	#$0
     77f: 38           	sec
     780: e5 12        	sbc	$12                     ; 0x12 <__zp_bss_size>
     782: a8           	tay
     783: a9 00        	lda	#$0
     785: e5 13        	sbc	$13                     ; 0x13 <__rc3>
     787: 85 15        	sta	$15                     ; 0x15 <__rc5>
     789: a9 08        	lda	#$8
     78b: e5 14        	sbc	$14                     ; 0x14 <__rc4>
     78d: aa           	tax
     78e: 38           	sec
     78f: 98           	tya
     790: 84 17        	sty	$17                     ; 0x17 <__rc7>
     792: e5 12        	sbc	$12                     ; 0x12 <__zp_bss_size>
     794: 85 16        	sta	$16                     ; 0x16 <__rc6>
     796: a5 15        	lda	$15                     ; 0x15 <__rc5>
     798: e5 13        	sbc	$13                     ; 0x13 <__rc3>
     79a: 85 18        	sta	$18                     ; 0x18 <__rc8>
     79c: 8a           	txa
     79d: 86 19        	stx	$19                     ; 0x19 <__rc9>
     79f: e5 14        	sbc	$14                     ; 0x14 <__rc4>
     7a1: a8           	tay
     7a2: 38           	sec
     7a3: a5 16        	lda	$16                     ; 0x16 <__rc6>
     7a5: e5 12        	sbc	$12                     ; 0x12 <__zp_bss_size>
     7a7: 85 12        	sta	$12                     ; 0x12 <__zp_bss_size>
     7a9: a5 18        	lda	$18                     ; 0x18 <__rc8>
     7ab: e5 13        	sbc	$13                     ; 0x13 <__rc3>
     7ad: 85 13        	sta	$13                     ; 0x13 <__rc3>
     7af: 98           	tya
     7b0: e5 14        	sbc	$14                     ; 0x14 <__rc4>
     7b2: ae 13 de     	ldx	$de13                   ; 0xde13 <__heap_start+0x85a7>
     7b5: a6 17        	ldx	$17                     ; 0x17 <__rc7>
     7b7: 8e 01 d1     	stx	$d101                   ; 0xd101 <__heap_start+0x7895>
     7ba: a6 15        	ldx	$15                     ; 0x15 <__rc5>
     7bc: 8e 02 d1     	stx	$d102                   ; 0xd102 <__heap_start+0x7896>
     7bf: a6 19        	ldx	$19                     ; 0x19 <__rc9>
     7c1: 8e 03 d1     	stx	$d103                   ; 0xd103 <__heap_start+0x7897>
     7c4: a6 16        	ldx	$16                     ; 0x16 <__rc6>
     7c6: 8e 09 d1     	stx	$d109                   ; 0xd109 <__heap_start+0x789d>
     7c9: a6 18        	ldx	$18                     ; 0x18 <__rc8>
     7cb: 8e 0a d1     	stx	$d10a                   ; 0xd10a <__heap_start+0x789e>
     7ce: 8c 0b d1     	sty	$d10b                   ; 0xd10b <__heap_start+0x789f>
     7d1: a6 12        	ldx	$12                     ; 0x12 <__zp_bss_size>
     7d3: 8e 11 d1     	stx	$d111                   ; 0xd111 <__heap_start+0x78a5>
     7d6: a6 13        	ldx	$13                     ; 0x13 <__rc3>
     7d8: 8e 12 d1     	stx	$d112                   ; 0xd112 <__heap_start+0x78a6>
     7db: 8d 13 d1     	sta	$d113                   ; 0xd113 <__heap_start+0x78a7>
     7de: 9c 00 d1     	stz	$d100                   ; 0xd100 <__heap_start+0x7894>
     7e1: 9c 08 d1     	stz	$d108                   ; 0xd108 <__heap_start+0x789c>
     7e4: 9c 10 d1     	stz	$d110                   ; 0xd110 <__heap_start+0x78a4>
     7e7: a2 10        	ldx	#$10
     7e9: 8e 00 d2     	stx	$d200                   ; 0xd200 <__heap_start+0x7994>
     7ec: 8e 0c d2     	stx	$d20c                   ; 0xd20c <__heap_start+0x79a0>
     7ef: 8e 18 d2     	stx	$d218                   ; 0xd218 <__heap_start+0x79ac>
     7f2: a0 d9        	ldy	#$d9
     7f4: 64 12        	stz	$12                     ; 0x12 <__zp_bss_size>
     7f6: a2 00        	ldx	#$0
     7f8: 84 13        	sty	$13                     ; 0x13 <__rc3>
     7fa: bd 4a 56     	lda	$564a,x                 ; 0x564a <_spriteCtl>
     7fd: 92 12        	sta	($12)                   ; 0x12 <__zp_bss_size>
     7ff: a5 12        	lda	$12                     ; 0x12 <__zp_bss_size>
     801: e8           	inx
     802: 18           	clc
     803: 69 08        	adc	#$8
     805: 85 12        	sta	$12                     ; 0x12 <__zp_bss_size>
     807: 98           	tya
     808: 69 00        	adc	#$0
     80a: a8           	tay
     80b: e0 40        	cpx	#$40
     80d: d0 e9        	bne	$7f8 <main+0x371>
     80f: 18           	clc
     810: a5 10        	lda	$10                     ; 0x10 <__rc0>
     812: 69 04        	adc	#$4
     814: 85 24        	sta	$24                     ; 0x24 <__rc20>
     816: a5 11        	lda	$11                     ; 0x11 <__rc1>
     818: 69 00        	adc	#$0
     81a: 85 25        	sta	$25                     ; 0x25 <__rc21>
     81c: a6 24        	ldx	$24                     ; 0x24 <__rc20>
     81e: 86 fb        	stx	$fb                     ; 0xfb <__rc31+0xcc>
     820: 85 fc        	sta	$fc                     ; 0xfc <__rc31+0xcd>
     822: a2 08        	ldx	#$8
     824: 86 fd        	stx	$fd                     ; 0xfd <__rc31+0xce>
     826: 18           	clc
     827: a5 10        	lda	$10                     ; 0x10 <__rc0>
     829: 69 03        	adc	#$3
     82b: 85 12        	sta	$12                     ; 0x12 <__zp_bss_size>
     82d: a5 11        	lda	$11                     ; 0x11 <__rc1>
     82f: 69 00        	adc	#$0
     831: 85 13        	sta	$13                     ; 0x13 <__rc3>
     833: a2 6a        	ldx	#$6a
     835: 86 14        	stx	$14                     ; 0x14 <__rc4>
     837: a2 58        	ldx	#$58
     839: 86 15        	stx	$15                     ; 0x15 <__rc5>
     83b: a0 06        	ldy	#$6
     83d: 20 dc ff     	jsr	$ffdc <__heap_start+0xa770>
     840: 92 12        	sta	($12)                   ; 0x12 <__zp_bss_size>
     842: a9 00        	lda	#$0
     844: 6a           	ror
     845: 85 14        	sta	$14                     ; 0x14 <__rc4>
     847: b1 24        	lda	($24),y                 ; 0x24 <__rc20>
     849: 85 12        	sta	$12                     ; 0x12 <__zp_bss_size>
     84b: c8           	iny
     84c: b1 24        	lda	($24),y                 ; 0x24 <__rc20>
     84e: a6 12        	ldx	$12                     ; 0x12 <__zp_bss_size>
     850: 8e 00 de     	stx	$de00                   ; 0xde00 <__heap_start+0x8594>
     853: 9c 01 de     	stz	$de01                   ; 0xde01 <__heap_start+0x8595>
     856: 8d 02 de     	sta	$de02                   ; 0xde02 <__heap_start+0x8596>
     859: 9c 03 de     	stz	$de03                   ; 0xde03 <__heap_start+0x8597>
     85c: ae 10 de     	ldx	$de10                   ; 0xde10 <__heap_start+0x85a4>
     85f: ac 11 de     	ldy	$de11                   ; 0xde11 <__heap_start+0x85a5>
     862: ad 12 de     	lda	$de12                   ; 0xde12 <__heap_start+0x85a6>
     865: ad 13 de     	lda	$de13                   ; 0xde13 <__heap_start+0x85a7>
     868: 8e a4 d6     	stx	$d6a4                   ; 0xd6a4 <__heap_start+0x7e38>
     86b: 8c a5 d6     	sty	$d6a5                   ; 0xd6a5 <__heap_start+0x7e39>
     86e: a2 03        	ldx	#$3
     870: 8e a6 d6     	stx	$d6a6                   ; 0xd6a6 <__heap_start+0x7e3a>
     873: 64 01        	stz	$1                      ; 0x1 <__zp_data_size+0x1>
     875: a2 2f        	ldx	#$2f
     877: 8e 00 d0     	stx	$d000                   ; 0xd000 <__heap_start+0x7794>
     87a: a2 04        	ldx	#$4
     87c: 8e 01 d0     	stx	$d001                   ; 0xd001 <__heap_start+0x7795>
     87f: a0 01        	ldy	#$1
     881: 8c 02 d0     	sty	$d002                   ; 0xd002 <__heap_start+0x7796>
     884: a2 02        	ldx	#$2
     886: 8e 03 d0     	stx	$d003                   ; 0xd003 <__heap_start+0x7797>
     889: a2 bb        	ldx	#$bb
     88b: 8e 0d d0     	stx	$d00d                   ; 0xd00d <__heap_start+0x77a1>
     88e: 8e 0e d0     	stx	$d00e                   ; 0xd00e <__heap_start+0x77a2>
     891: 8e 0f d0     	stx	$d00f                   ; 0xd00f <__heap_start+0x77a3>
     894: 84 01        	sty	$1                      ; 0x1 <__zp_data_size+0x1>
     896: a2 fc        	ldx	#$fc
     898: a9 ff        	lda	#$ff
     89a: 85 12        	sta	$12                     ; 0x12 <__zp_bss_size>
     89c: 85 13        	sta	$13                     ; 0x13 <__rc3>
     89e: a5 0f        	lda	$f                      ; 0xf <__zp_data_size+0xf>
     8a0: 85 17        	sta	$17                     ; 0x17 <__rc7>
     8a2: 78           	sei
     8a3: a9 08        	lda	#$8
     8a5: 85 0f        	sta	$f                      ; 0xf <__zp_data_size+0xf>
     8a7: 18           	clc
     8a8: 98           	tya
     8a9: 69 ff        	adc	#$ff
     8ab: 85 16        	sta	$16                     ; 0x16 <__rc6>
     8ad: 5a           	phy
     8ae: a0 01        	ldy	#$1
     8b0: b0 02        	bcs	$8b4 <main+0x42d>
     8b2: a0 00        	ldy	#$0
     8b4: 84 18        	sty	$18                     ; 0x18 <__rc8>
     8b6: 8a           	txa
     8b7: 69 e3        	adc	#$e3
     8b9: a4 16        	ldy	$16                     ; 0x16 <__rc6>
     8bb: 84 14        	sty	$14                     ; 0x14 <__rc4>
     8bd: 85 15        	sta	$15                     ; 0x15 <__rc5>
     8bf: b2 14        	lda	($14)                   ; 0x14 <__rc4>
     8c1: 85 19        	sta	$19                     ; 0x19 <__rc9>
     8c3: a5 17        	lda	$17                     ; 0x17 <__rc7>
     8c5: 85 0f        	sta	$f                      ; 0xf <__zp_data_size+0xf>
     8c7: 8a           	txa
     8c8: a4 18        	ldy	$18                     ; 0x18 <__rc8>
     8ca: c0 01        	cpy	#$1
     8cc: 7a           	ply
     8cd: 69 d3        	adc	#$d3
     8cf: 58           	cli
     8d0: 85 15        	sta	$15                     ; 0x15 <__rc5>
     8d2: a5 19        	lda	$19                     ; 0x19 <__rc9>
     8d4: 92 14        	sta	($14)                   ; 0x14 <__rc4>
     8d6: c8           	iny
     8d7: d0 c5        	bne	$89e <main+0x417>
     8d9: e8           	inx
     8da: d0 c2        	bne	$89e <main+0x417>
     8dc: e6 12        	inc	$12                     ; 0x12 <__zp_bss_size>
     8de: d0 be        	bne	$89e <main+0x417>
     8e0: e6 13        	inc	$13                     ; 0x13 <__rc3>
     8e2: d0 ba        	bne	$89e <main+0x417>
     8e4: 64 01        	stz	$1                      ; 0x1 <__zp_data_size+0x1>
     8e6: 9c 00 d1     	stz	$d100                   ; 0xd100 <__heap_start+0x7894>
     8e9: 9c 08 d1     	stz	$d108                   ; 0xd108 <__heap_start+0x789c>
     8ec: 9c 10 d1     	stz	$d110                   ; 0xd110 <__heap_start+0x78a4>
     8ef: a2 01        	ldx	#$1
     8f1: a0 64        	ldy	#$64
     8f3: a9 04        	lda	#$4
     8f5: 85 12        	sta	$12                     ; 0x12 <__zp_bss_size>
     8f7: 86 13        	stx	$13                     ; 0x13 <__rc3>
     8f9: 64 14        	stz	$14                     ; 0x14 <__rc4>
     8fb: 64 15        	stz	$15                     ; 0x15 <__rc5>
     8fd: 84 16        	sty	$16                     ; 0x16 <__rc6>
     8ff: 84 27        	sty	$27                     ; 0x27 <__rc23>
     901: 64 17        	stz	$17                     ; 0x17 <__rc7>
     903: a0 32        	ldy	#$32
     905: 84 18        	sty	$18                     ; 0x18 <__rc8>
     907: 64 19        	stz	$19                     ; 0x19 <__rc9>
     909: 86 1a        	stx	$1a                     ; 0x1a <__rc10>
     90b: 86 26        	stx	$26                     ; 0x26 <__rc22>
     90d: 64 1b        	stz	$1b                     ; 0x1b <__rc11>
     90f: ca           	dex
     910: 8a           	txa
     911: 20 26 19     	jsr	$1926 <mySpriteDefine>
     914: a9 08        	lda	#$8
     916: a0 c8        	ldy	#$c8
     918: a2 02        	ldx	#$2
     91a: 85 12        	sta	$12                     ; 0x12 <__zp_bss_size>
     91c: a5 26        	lda	$26                     ; 0x26 <__rc22>
     91e: 85 13        	sta	$13                     ; 0x13 <__rc3>
     920: 64 14        	stz	$14                     ; 0x14 <__rc4>
     922: 86 15        	stx	$15                     ; 0x15 <__rc5>
     924: 86 29        	stx	$29                     ; 0x29 <__rc25>
     926: 84 16        	sty	$16                     ; 0x16 <__rc6>
     928: 84 28        	sty	$28                     ; 0x28 <__rc24>
     92a: 64 17        	stz	$17                     ; 0x17 <__rc7>
     92c: a2 32        	ldx	#$32
     92e: 86 18        	stx	$18                     ; 0x18 <__rc8>
     930: 64 19        	stz	$19                     ; 0x19 <__rc9>
     932: a6 26        	ldx	$26                     ; 0x26 <__rc22>
     934: 86 1a        	stx	$1a                     ; 0x1a <__rc10>
     936: 64 1b        	stz	$1b                     ; 0x1b <__rc11>
     938: a2 00        	ldx	#$0
     93a: a5 26        	lda	$26                     ; 0x26 <__rc22>
     93c: 20 26 19     	jsr	$1926 <mySpriteDefine>
     93f: a2 0c        	ldx	#$c
     941: a0 50        	ldy	#$50
     943: 86 12        	stx	$12                     ; 0x12 <__zp_bss_size>
     945: a6 26        	ldx	$26                     ; 0x26 <__rc22>
     947: 86 13        	stx	$13                     ; 0x13 <__rc3>
     949: 64 14        	stz	$14                     ; 0x14 <__rc4>
     94b: 64 15        	stz	$15                     ; 0x15 <__rc5>
     94d: a6 27        	ldx	$27                     ; 0x27 <__rc23>
     94f: 86 16        	stx	$16                     ; 0x16 <__rc6>
     951: 64 17        	stz	$17                     ; 0x17 <__rc7>
     953: 84 18        	sty	$18                     ; 0x18 <__rc8>
     955: 84 2a        	sty	$2a                     ; 0x2a <__rc26>
     957: 64 19        	stz	$19                     ; 0x19 <__rc9>
     959: a6 26        	ldx	$26                     ; 0x26 <__rc22>
     95b: 86 1a        	stx	$1a                     ; 0x1a <__rc10>
     95d: 64 1b        	stz	$1b                     ; 0x1b <__rc11>
     95f: a2 00        	ldx	#$0
     961: a5 29        	lda	$29                     ; 0x29 <__rc25>
     963: 20 26 19     	jsr	$1926 <mySpriteDefine>
     966: a2 10        	ldx	#$10
     968: a9 03        	lda	#$3
     96a: 86 12        	stx	$12                     ; 0x12 <__zp_bss_size>
     96c: a6 29        	ldx	$29                     ; 0x29 <__rc25>
     96e: 86 15        	stx	$15                     ; 0x15 <__rc5>
     970: a6 28        	ldx	$28                     ; 0x28 <__rc24>
     972: 86 16        	stx	$16                     ; 0x16 <__rc6>
     974: a6 26        	ldx	$26                     ; 0x26 <__rc22>
     976: 86 13        	stx	$13                     ; 0x13 <__rc3>
     978: 64 14        	stz	$14                     ; 0x14 <__rc4>
     97a: 64 17        	stz	$17                     ; 0x17 <__rc7>
     97c: a6 2a        	ldx	$2a                     ; 0x2a <__rc26>
     97e: 86 18        	stx	$18                     ; 0x18 <__rc8>
     980: 64 19        	stz	$19                     ; 0x19 <__rc9>
     982: a6 26        	ldx	$26                     ; 0x26 <__rc22>
     984: 86 1a        	stx	$1a                     ; 0x1a <__rc10>
     986: 64 1b        	stz	$1b                     ; 0x1b <__rc11>
     988: a2 00        	ldx	#$0
     98a: 20 26 19     	jsr	$1926 <mySpriteDefine>
     98d: a0 14        	ldy	#$14
     98f: a2 6e        	ldx	#$6e
     991: a9 04        	lda	#$4
     993: 84 12        	sty	$12                     ; 0x12 <__zp_bss_size>
     995: a4 26        	ldy	$26                     ; 0x26 <__rc22>
     997: 84 13        	sty	$13                     ; 0x13 <__rc3>
     999: 64 14        	stz	$14                     ; 0x14 <__rc4>
     99b: 64 15        	stz	$15                     ; 0x15 <__rc5>
     99d: a4 27        	ldy	$27                     ; 0x27 <__rc23>
     99f: 84 16        	sty	$16                     ; 0x16 <__rc6>
     9a1: 64 17        	stz	$17                     ; 0x17 <__rc7>
     9a3: 86 18        	stx	$18                     ; 0x18 <__rc8>
     9a5: 64 19        	stz	$19                     ; 0x19 <__rc9>
     9a7: a6 26        	ldx	$26                     ; 0x26 <__rc22>
     9a9: 86 1a        	stx	$1a                     ; 0x1a <__rc10>
     9ab: 64 1b        	stz	$1b                     ; 0x1b <__rc11>
     9ad: a2 00        	ldx	#$0
     9af: 20 26 19     	jsr	$1926 <mySpriteDefine>
     9b2: a2 30        	ldx	#$30
     9b4: a9 0a        	lda	#$a
     9b6: 86 12        	stx	$12                     ; 0x12 <__zp_bss_size>
     9b8: 86 27        	stx	$27                     ; 0x27 <__rc23>
     9ba: a6 26        	ldx	$26                     ; 0x26 <__rc22>
     9bc: 86 13        	stx	$13                     ; 0x13 <__rc3>
     9be: 64 14        	stz	$14                     ; 0x14 <__rc4>
     9c0: 64 15        	stz	$15                     ; 0x15 <__rc5>
     9c2: 64 16        	stz	$16                     ; 0x16 <__rc6>
     9c4: 64 17        	stz	$17                     ; 0x17 <__rc7>
     9c6: 64 18        	stz	$18                     ; 0x18 <__rc8>
     9c8: 64 19        	stz	$19                     ; 0x19 <__rc9>
     9ca: 64 1a        	stz	$1a                     ; 0x1a <__rc10>
     9cc: a6 26        	ldx	$26                     ; 0x26 <__rc22>
     9ce: 86 1b        	stx	$1b                     ; 0x1b <__rc11>
     9d0: a2 00        	ldx	#$0
     9d2: 20 26 19     	jsr	$1926 <mySpriteDefine>
     9d5: a9 0b        	lda	#$b
     9d7: a6 27        	ldx	$27                     ; 0x27 <__rc23>
     9d9: 86 12        	stx	$12                     ; 0x12 <__zp_bss_size>
     9db: a6 26        	ldx	$26                     ; 0x26 <__rc22>
     9dd: 86 13        	stx	$13                     ; 0x13 <__rc3>
     9df: 64 14        	stz	$14                     ; 0x14 <__rc4>
     9e1: 64 15        	stz	$15                     ; 0x15 <__rc5>
     9e3: 64 16        	stz	$16                     ; 0x16 <__rc6>
     9e5: 64 17        	stz	$17                     ; 0x17 <__rc7>
     9e7: 64 18        	stz	$18                     ; 0x18 <__rc8>
     9e9: 64 19        	stz	$19                     ; 0x19 <__rc9>
     9eb: 64 1a        	stz	$1a                     ; 0x1a <__rc10>
     9ed: a6 26        	ldx	$26                     ; 0x26 <__rc22>
     9ef: 86 1b        	stx	$1b                     ; 0x1b <__rc11>
     9f1: a2 00        	ldx	#$0
     9f3: 20 26 19     	jsr	$1926 <mySpriteDefine>
     9f6: a9 0c        	lda	#$c
     9f8: a6 27        	ldx	$27                     ; 0x27 <__rc23>
     9fa: 86 12        	stx	$12                     ; 0x12 <__zp_bss_size>
     9fc: a6 26        	ldx	$26                     ; 0x26 <__rc22>
     9fe: 86 13        	stx	$13                     ; 0x13 <__rc3>
     a00: 64 14        	stz	$14                     ; 0x14 <__rc4>
     a02: 64 15        	stz	$15                     ; 0x15 <__rc5>
     a04: 64 16        	stz	$16                     ; 0x16 <__rc6>
     a06: 64 17        	stz	$17                     ; 0x17 <__rc7>
     a08: 64 18        	stz	$18                     ; 0x18 <__rc8>
     a0a: 64 19        	stz	$19                     ; 0x19 <__rc9>
     a0c: 64 1a        	stz	$1a                     ; 0x1a <__rc10>
     a0e: a6 26        	ldx	$26                     ; 0x26 <__rc22>
     a10: 86 1b        	stx	$1b                     ; 0x1b <__rc11>
     a12: a2 00        	ldx	#$0
     a14: 20 26 19     	jsr	$1926 <mySpriteDefine>
     a17: a9 0d        	lda	#$d
     a19: a6 27        	ldx	$27                     ; 0x27 <__rc23>
     a1b: 86 12        	stx	$12                     ; 0x12 <__zp_bss_size>
     a1d: a6 26        	ldx	$26                     ; 0x26 <__rc22>
     a1f: 86 13        	stx	$13                     ; 0x13 <__rc3>
     a21: 64 14        	stz	$14                     ; 0x14 <__rc4>
     a23: 64 15        	stz	$15                     ; 0x15 <__rc5>
     a25: 64 16        	stz	$16                     ; 0x16 <__rc6>
     a27: 64 17        	stz	$17                     ; 0x17 <__rc7>
     a29: 64 18        	stz	$18                     ; 0x18 <__rc8>
     a2b: 64 19        	stz	$19                     ; 0x19 <__rc9>
     a2d: 64 1a        	stz	$1a                     ; 0x1a <__rc10>
     a2f: a6 26        	ldx	$26                     ; 0x26 <__rc22>
     a31: 86 1b        	stx	$1b                     ; 0x1b <__rc11>
     a33: a2 00        	ldx	#$0
     a35: 20 26 19     	jsr	$1926 <mySpriteDefine>
     a38: a9 0e        	lda	#$e
     a3a: a6 27        	ldx	$27                     ; 0x27 <__rc23>
     a3c: 86 12        	stx	$12                     ; 0x12 <__zp_bss_size>
     a3e: a6 26        	ldx	$26                     ; 0x26 <__rc22>
     a40: 86 13        	stx	$13                     ; 0x13 <__rc3>
     a42: 64 14        	stz	$14                     ; 0x14 <__rc4>
     a44: 64 15        	stz	$15                     ; 0x15 <__rc5>
     a46: 64 16        	stz	$16                     ; 0x16 <__rc6>
     a48: 64 17        	stz	$17                     ; 0x17 <__rc7>
     a4a: 64 18        	stz	$18                     ; 0x18 <__rc8>
     a4c: 64 19        	stz	$19                     ; 0x19 <__rc9>
     a4e: 64 1a        	stz	$1a                     ; 0x1a <__rc10>
     a50: a6 26        	ldx	$26                     ; 0x26 <__rc22>
     a52: 86 1b        	stx	$1b                     ; 0x1b <__rc11>
     a54: a2 00        	ldx	#$0
     a56: 20 26 19     	jsr	$1926 <mySpriteDefine>
     a59: 9c 9d 56     	stz	$569d                   ; 0x569d <spriteStatuses+0x13>
     a5c: a2 01        	ldx	#$1
     a5e: 8e 8e 56     	stx	$568e                   ; 0x568e <spriteStatuses+0x4>
     a61: 8e b5 56     	stx	$56b5                   ; 0x56b5 <spriteStatuses+0x2b>
     a64: 9c a6 56     	stz	$56a6                   ; 0x56a6 <spriteStatuses+0x1c>
     a67: 9c cd 56     	stz	$56cd                   ; 0x56cd <spriteStatuses+0x43>
     a6a: 8e be 56     	stx	$56be                   ; 0x56be <spriteStatuses+0x34>
     a6d: 8e e5 56     	stx	$56e5                   ; 0x56e5 <spriteStatuses+0x5b>
     a70: 9c d6 56     	stz	$56d6                   ; 0x56d6 <spriteStatuses+0x4c>
     a73: 9c fd 56     	stz	$56fd                   ; 0x56fd <spriteStatuses+0x73>
     a76: 8e ee 56     	stx	$56ee                   ; 0x56ee <spriteStatuses+0x64>
     a79: 86 26        	stx	$26                     ; 0x26 <__rc22>
     a7b: 20 61 17     	jsr	$1761 <updateFrames>
     a7e: a2 1f        	ldx	#$1f
     a80: 8e 20 d6     	stx	$d620                   ; 0xd620 <__heap_start+0x7db4>
     a83: a2 2a        	ldx	#$2a
     a85: 8e 21 d6     	stx	$d621                   ; 0xd621 <__heap_start+0x7db5>
     a88: a6 26        	ldx	$26                     ; 0x26 <__rc22>
     a8a: 8e 22 d6     	stx	$d622                   ; 0xd622 <__heap_start+0x7db6>
     a8d: ad 22 d6     	lda	$d622                   ; 0xd622 <__heap_start+0x7db6>
     a90: 29 01        	and	#$1
     a92: d0 f9        	bne	$a8d <main+0x606>
     a94: a2 03        	ldx	#$3
     a96: 8e 01 d7     	stx	$d701                   ; 0xd701 <__heap_start+0x7e95>
     a99: 9c 02 d7     	stz	$d702                   ; 0xd702 <__heap_start+0x7e96>
     a9c: 9c 02 d7     	stz	$d702                   ; 0xd702 <__heap_start+0x7e96>
     a9f: a2 e0        	ldx	#$e0
     aa1: 8e 03 d7     	stx	$d703                   ; 0xd703 <__heap_start+0x7e97>
     aa4: a2 01        	ldx	#$1
     aa6: 8e 00 d7     	stx	$d700                   ; 0xd700 <__heap_start+0x7e94>
     aa9: 9c 00 d7     	stz	$d700                   ; 0xd700 <__heap_start+0x7e94>
     aac: ae 00 d7     	ldx	$d700                   ; 0xd700 <__heap_start+0x7e94>
     aaf: 30 fb        	bmi	$aac <main+0x625>
     ab1: 64 12        	stz	$12                     ; 0x12 <__zp_bss_size>
     ab3: a0 01        	ldy	#$1
     ab5: a2 00        	ldx	#$0
     ab7: a5 12        	lda	$12                     ; 0x12 <__zp_bss_size>
     ab9: 85 14        	sta	$14                     ; 0x14 <__rc4>
     abb: a5 12        	lda	$12                     ; 0x12 <__zp_bss_size>
     abd: 0a           	asl
     abe: 85 12        	sta	$12                     ; 0x12 <__zp_bss_size>
     ac0: 8a           	txa
     ac1: 2a           	rol
     ac2: 85 13        	sta	$13                     ; 0x13 <__rc3>
     ac4: a9 d4        	lda	#$d4
     ac6: 18           	clc
     ac7: 65 12        	adc	$12                     ; 0x12 <__zp_bss_size>
     ac9: 85 12        	sta	$12                     ; 0x12 <__zp_bss_size>
     acb: a9 31        	lda	#$31
     acd: 65 13        	adc	$13                     ; 0x13 <__rc3>
     acf: 85 15        	sta	$15                     ; 0x15 <__rc5>
     ad1: a5 12        	lda	$12                     ; 0x12 <__zp_bss_size>
     ad3: 85 17        	sta	$17                     ; 0x17 <__rc7>
     ad5: a5 15        	lda	$15                     ; 0x15 <__rc5>
     ad7: 85 13        	sta	$13                     ; 0x13 <__rc3>
     ad9: b2 12        	lda	($12)                   ; 0x12 <__zp_bss_size>
     adb: 85 16        	sta	$16                     ; 0x16 <__rc6>
     add: a5 14        	lda	$14                     ; 0x14 <__rc4>
     adf: 85 1a        	sta	$1a                     ; 0x1a <__rc10>
     ae1: a5 14        	lda	$14                     ; 0x14 <__rc4>
     ae3: 18           	clc
     ae4: 69 02        	adc	#$2
     ae6: 85 19        	sta	$19                     ; 0x19 <__rc9>
     ae8: 86 18        	stx	$18                     ; 0x18 <__rc8>
     aea: 8a           	txa
     aeb: 69 00        	adc	#$0
     aed: aa           	tax
     aee: 18           	clc
     aef: a5 17        	lda	$17                     ; 0x17 <__rc7>
     af1: 69 02        	adc	#$2
     af3: 85 14        	sta	$14                     ; 0x14 <__rc4>
     af5: a5 15        	lda	$15                     ; 0x15 <__rc5>
     af7: 69 00        	adc	#$0
     af9: 85 15        	sta	$15                     ; 0x15 <__rc5>
     afb: b1 12        	lda	($12),y                 ; 0x12 <__zp_bss_size>
     afd: 85 17        	sta	$17                     ; 0x17 <__rc7>
     aff: 84 1c        	sty	$1c                     ; 0x1c <__rc12>
     b01: a0 02        	ldy	#$2
     b03: b1 12        	lda	($12),y                 ; 0x12 <__zp_bss_size>
     b05: 85 1b        	sta	$1b                     ; 0x1b <__rc11>
     b07: a4 1c        	ldy	$1c                     ; 0x1c <__rc12>
     b09: b1 14        	lda	($14),y                 ; 0x14 <__rc4>
     b0b: 10 03        	bpl	$b10 <main+0x689>
     b0d: 4c 93 0b     	jmp	$b93 <main+0x70c>
     b10: 5a           	phy
     b11: a4 1b        	ldy	$1b                     ; 0x1b <__rc11>
     b13: 84 14        	sty	$14                     ; 0x14 <__rc4>
     b15: a4 19        	ldy	$19                     ; 0x19 <__rc9>
     b17: 84 18        	sty	$18                     ; 0x18 <__rc8>
     b19: 7a           	ply
     b1a: c9 00        	cmp	#$0
     b1c: d0 09        	bne	$b27 <main+0x6a0>
     b1e: e6 14        	inc	$14                     ; 0x14 <__rc4>
     b20: c6 14        	dec	$14                     ; 0x14 <__rc4>
     b22: d0 03        	bne	$b27 <main+0x6a0>
     b24: 4c 19 0c     	jmp	$c19 <main+0x792>
     b27: 85 15        	sta	$15                     ; 0x15 <__rc5>
     b29: a5 18        	lda	$18                     ; 0x18 <__rc8>
     b2b: 85 19        	sta	$19                     ; 0x19 <__rc9>
     b2d: a5 18        	lda	$18                     ; 0x18 <__rc8>
     b2f: 0a           	asl
     b30: 85 12        	sta	$12                     ; 0x12 <__zp_bss_size>
     b32: 86 18        	stx	$18                     ; 0x18 <__rc8>
     b34: 8a           	txa
     b35: 2a           	rol
     b36: 85 13        	sta	$13                     ; 0x13 <__rc3>
     b38: a9 d4        	lda	#$d4
     b3a: 18           	clc
     b3b: 65 12        	adc	$12                     ; 0x12 <__zp_bss_size>
     b3d: 85 12        	sta	$12                     ; 0x12 <__zp_bss_size>
     b3f: a9 31        	lda	#$31
     b41: 65 13        	adc	$13                     ; 0x13 <__rc3>
     b43: 85 13        	sta	$13                     ; 0x13 <__rc3>
     b45: b2 12        	lda	($12)                   ; 0x12 <__zp_bss_size>
     b47: 85 1a        	sta	$1a                     ; 0x1a <__rc10>
     b49: b1 12        	lda	($12),y                 ; 0x12 <__zp_bss_size>
     b4b: a6 16        	ldx	$16                     ; 0x16 <__rc6>
     b4d: 8e 01 d7     	stx	$d701                   ; 0xd701 <__heap_start+0x7e95>
     b50: a6 17        	ldx	$17                     ; 0x17 <__rc7>
     b52: 8e 02 d7     	stx	$d702                   ; 0xd702 <__heap_start+0x7e96>
     b55: a6 1a        	ldx	$1a                     ; 0x1a <__rc10>
     b57: 8e 02 d7     	stx	$d702                   ; 0xd702 <__heap_start+0x7e96>
     b5a: 8d 03 d7     	sta	$d703                   ; 0xd703 <__heap_start+0x7e97>
     b5d: 8c 00 d7     	sty	$d700                   ; 0xd700 <__heap_start+0x7e94>
     b60: 9c 00 d7     	stz	$d700                   ; 0xd700 <__heap_start+0x7e94>
     b63: ae 00 d7     	ldx	$d700                   ; 0xd700 <__heap_start+0x7e94>
     b66: 30 fb        	bmi	$b63 <main+0x6dc>
     b68: a5 15        	lda	$15                     ; 0x15 <__rc5>
     b6a: a2 ff        	ldx	#$ff
     b6c: c6 14        	dec	$14                     ; 0x14 <__rc4>
     b6e: e4 14        	cpx	$14                     ; 0x14 <__rc4>
     b70: d0 01        	bne	$b73 <main+0x6ec>
     b72: 3a           	dec
     b73: a6 18        	ldx	$18                     ; 0x18 <__rc8>
     b75: 5a           	phy
     b76: a4 19        	ldy	$19                     ; 0x19 <__rc9>
     b78: 84 18        	sty	$18                     ; 0x18 <__rc8>
     b7a: 7a           	ply
     b7b: e6 18        	inc	$18                     ; 0x18 <__rc8>
     b7d: d0 01        	bne	$b80 <main+0x6f9>
     b7f: e8           	inx
     b80: c9 00        	cmp	#$0
     b82: f0 03        	beq	$b87 <main+0x700>
     b84: 4c 27 0b     	jmp	$b27 <main+0x6a0>
     b87: e6 14        	inc	$14                     ; 0x14 <__rc4>
     b89: c6 14        	dec	$14                     ; 0x14 <__rc4>
     b8b: f0 03        	beq	$b90 <main+0x709>
     b8d: 4c 27 0b     	jmp	$b27 <main+0x6a0>
     b90: 4c 19 0c     	jmp	$c19 <main+0x792>
     b93: 29 7f        	and	#$7f
     b95: 18           	clc
     b96: 85 13        	sta	$13                     ; 0x13 <__rc3>
     b98: a5 1a        	lda	$1a                     ; 0x1a <__rc10>
     b9a: 69 03        	adc	#$3
     b9c: 85 12        	sta	$12                     ; 0x12 <__zp_bss_size>
     b9e: a5 18        	lda	$18                     ; 0x18 <__rc8>
     ba0: 69 00        	adc	#$0
     ba2: 85 1a        	sta	$1a                     ; 0x1a <__rc10>
     ba4: a5 13        	lda	$13                     ; 0x13 <__rc3>
     ba6: 5a           	phy
     ba7: a4 1b        	ldy	$1b                     ; 0x1b <__rc11>
     ba9: 84 14        	sty	$14                     ; 0x14 <__rc4>
     bab: 7a           	ply
     bac: c9 00        	cmp	#$0
     bae: d0 09        	bne	$bb9 <main+0x732>
     bb0: e6 14        	inc	$14                     ; 0x14 <__rc4>
     bb2: c6 14        	dec	$14                     ; 0x14 <__rc4>
     bb4: d0 03        	bne	$bb9 <main+0x732>
     bb6: 4c 43 11     	jmp	$1143 <main+0xcbc>
     bb9: 5a           	phy
     bba: a4 12        	ldy	$12                     ; 0x12 <__zp_bss_size>
     bbc: 84 18        	sty	$18                     ; 0x18 <__rc8>
     bbe: 7a           	ply
     bbf: 85 15        	sta	$15                     ; 0x15 <__rc5>
     bc1: a5 19        	lda	$19                     ; 0x19 <__rc9>
     bc3: 85 12        	sta	$12                     ; 0x12 <__zp_bss_size>
     bc5: 06 12        	asl	$12                     ; 0x12 <__zp_bss_size>
     bc7: 86 13        	stx	$13                     ; 0x13 <__rc3>
     bc9: 26 13        	rol	$13                     ; 0x13 <__rc3>
     bcb: a9 d4        	lda	#$d4
     bcd: 18           	clc
     bce: 65 12        	adc	$12                     ; 0x12 <__zp_bss_size>
     bd0: 85 12        	sta	$12                     ; 0x12 <__zp_bss_size>
     bd2: a9 31        	lda	#$31
     bd4: 65 13        	adc	$13                     ; 0x13 <__rc3>
     bd6: 85 13        	sta	$13                     ; 0x13 <__rc3>
     bd8: a6 1b        	ldx	$1b                     ; 0x1b <__rc11>
     bda: 86 19        	stx	$19                     ; 0x19 <__rc9>
     bdc: b2 12        	lda	($12)                   ; 0x12 <__zp_bss_size>
     bde: 85 14        	sta	$14                     ; 0x14 <__rc4>
     be0: b1 12        	lda	($12),y                 ; 0x12 <__zp_bss_size>
     be2: a6 16        	ldx	$16                     ; 0x16 <__rc6>
     be4: 8e 01 d7     	stx	$d701                   ; 0xd701 <__heap_start+0x7e95>
     be7: a6 17        	ldx	$17                     ; 0x17 <__rc7>
     be9: 8e 02 d7     	stx	$d702                   ; 0xd702 <__heap_start+0x7e96>
     bec: a6 14        	ldx	$14                     ; 0x14 <__rc4>
     bee: 8e 02 d7     	stx	$d702                   ; 0xd702 <__heap_start+0x7e96>
     bf1: 8d 03 d7     	sta	$d703                   ; 0xd703 <__heap_start+0x7e97>
     bf4: 8c 00 d7     	sty	$d700                   ; 0xd700 <__heap_start+0x7e94>
     bf7: 9c 00 d7     	stz	$d700                   ; 0xd700 <__heap_start+0x7e94>
     bfa: ae 00 d7     	ldx	$d700                   ; 0xd700 <__heap_start+0x7e94>
     bfd: 30 fb        	bmi	$bfa <main+0x773>
     bff: a6 15        	ldx	$15                     ; 0x15 <__rc5>
     c01: 86 12        	stx	$12                     ; 0x12 <__zp_bss_size>
     c03: a2 ff        	ldx	#$ff
     c05: c6 19        	dec	$19                     ; 0x19 <__rc9>
     c07: e4 19        	cpx	$19                     ; 0x19 <__rc9>
     c09: d0 02        	bne	$c0d <main+0x786>
     c0b: c6 12        	dec	$12                     ; 0x12 <__zp_bss_size>
     c0d: a6 12        	ldx	$12                     ; 0x12 <__zp_bss_size>
     c0f: 86 15        	stx	$15                     ; 0x15 <__rc5>
     c11: d0 cf        	bne	$be2 <main+0x75b>
     c13: a6 19        	ldx	$19                     ; 0x19 <__rc9>
     c15: d0 cb        	bne	$be2 <main+0x75b>
     c17: a6 1a        	ldx	$1a                     ; 0x1a <__rc10>
     c19: a5 18        	lda	$18                     ; 0x18 <__rc8>
     c1b: e0 12        	cpx	#$12
     c1d: d0 04        	bne	$c23 <main+0x79c>
     c1f: c9 3b        	cmp	#$3b
     c21: 80 02        	bra	$c25 <main+0x79e>
     c23: e0 12        	cpx	#$12
     c25: 85 12        	sta	$12                     ; 0x12 <__zp_bss_size>
     c27: b0 03        	bcs	$c2c <main+0x7a5>
     c29: 4c b7 0a     	jmp	$ab7 <main+0x630>
     c2c: 9c 9d 56     	stz	$569d                   ; 0x569d <spriteStatuses+0x13>
     c2f: a2 02        	ldx	#$2
     c31: 8e b5 56     	stx	$56b5                   ; 0x56b5 <spriteStatuses+0x2b>
     c34: 9c cd 56     	stz	$56cd                   ; 0x56cd <spriteStatuses+0x43>
     c37: 8e e5 56     	stx	$56e5                   ; 0x56e5 <spriteStatuses+0x5b>
     c3a: 86 12        	stx	$12                     ; 0x12 <__zp_bss_size>
     c3c: 9c fd 56     	stz	$56fd                   ; 0x56fd <spriteStatuses+0x73>
     c3f: 9c 8d 57     	stz	$578d                   ; 0x578d <spriteStatuses+0x103>
     c42: a0 80        	ldy	#$80
     c44: 84 f3        	sty	$f3                     ; 0xf3 <__rc31+0xc4>
     c46: a2 6a        	ldx	#$6a
     c48: 86 26        	stx	$26                     ; 0x26 <__rc22>
     c4a: a2 58        	ldx	#$58
     c4c: 86 27        	stx	$27                     ; 0x27 <__rc23>
     c4e: 20 f0 ff     	jsr	$fff0 <__heap_start+0xa784>
     c51: 92 24        	sta	($24)                   ; 0x24 <__rc20>
     c53: a9 00        	lda	#$0
     c55: 6a           	ror
     c56: 85 26        	sta	$26                     ; 0x26 <__rc22>
     c58: b2 24        	lda	($24)                   ; 0x24 <__rc20>
     c5a: ae 9d 56     	ldx	$569d                   ; 0x569d <spriteStatuses+0x13>
     c5d: 18           	clc
     c5e: 7d ce 31     	adc	$31ce,x                 ; 0x31ce <stateDelays>
     c61: 8d 9a 56     	sta	$569a                   ; 0x569a <spriteStatuses+0x10>
     c64: ae 99 56     	ldx	$5699                   ; 0x5699 <spriteStatuses+0xf>
     c67: 86 f3        	stx	$f3                     ; 0xf3 <__rc31+0xc4>
     c69: ae 9a 56     	ldx	$569a                   ; 0x569a <spriteStatuses+0x10>
     c6c: 86 f4        	stx	$f4                     ; 0xf4 <__rc31+0xc5>
     c6e: ae 9b 56     	ldx	$569b                   ; 0x569b <spriteStatuses+0x11>
     c71: 86 f5        	stx	$f5                     ; 0xf5 <__rc31+0xc6>
     c73: 20 f0 ff     	jsr	$fff0 <__heap_start+0xa784>
     c76: 92 24        	sta	($24)                   ; 0x24 <__rc20>
     c78: a9 00        	lda	#$0
     c7a: 6a           	ror
     c7b: 85 26        	sta	$26                     ; 0x26 <__rc22>
     c7d: 84 f3        	sty	$f3                     ; 0xf3 <__rc31+0xc4>
     c7f: 20 f0 ff     	jsr	$fff0 <__heap_start+0xa784>
     c82: 92 24        	sta	($24)                   ; 0x24 <__rc20>
     c84: a9 00        	lda	#$0
     c86: 6a           	ror
     c87: 85 26        	sta	$26                     ; 0x26 <__rc22>
     c89: b2 24        	lda	($24)                   ; 0x24 <__rc20>
     c8b: ae b5 56     	ldx	$56b5                   ; 0x56b5 <spriteStatuses+0x2b>
     c8e: 18           	clc
     c8f: 7d ce 31     	adc	$31ce,x                 ; 0x31ce <stateDelays>
     c92: 8d b2 56     	sta	$56b2                   ; 0x56b2 <spriteStatuses+0x28>
     c95: ae b1 56     	ldx	$56b1                   ; 0x56b1 <spriteStatuses+0x27>
     c98: 86 f3        	stx	$f3                     ; 0xf3 <__rc31+0xc4>
     c9a: ae b2 56     	ldx	$56b2                   ; 0x56b2 <spriteStatuses+0x28>
     c9d: 86 f4        	stx	$f4                     ; 0xf4 <__rc31+0xc5>
     c9f: ae b3 56     	ldx	$56b3                   ; 0x56b3 <spriteStatuses+0x29>
     ca2: 86 f5        	stx	$f5                     ; 0xf5 <__rc31+0xc6>
     ca4: 20 f0 ff     	jsr	$fff0 <__heap_start+0xa784>
     ca7: 92 24        	sta	($24)                   ; 0x24 <__rc20>
     ca9: a9 00        	lda	#$0
     cab: 6a           	ror
     cac: 85 26        	sta	$26                     ; 0x26 <__rc22>
     cae: 84 f3        	sty	$f3                     ; 0xf3 <__rc31+0xc4>
     cb0: 20 f0 ff     	jsr	$fff0 <__heap_start+0xa784>
     cb3: 92 24        	sta	($24)                   ; 0x24 <__rc20>
     cb5: a9 00        	lda	#$0
     cb7: 6a           	ror
     cb8: 85 26        	sta	$26                     ; 0x26 <__rc22>
     cba: b2 24        	lda	($24)                   ; 0x24 <__rc20>
     cbc: ae cd 56     	ldx	$56cd                   ; 0x56cd <spriteStatuses+0x43>
     cbf: 18           	clc
     cc0: 7d ce 31     	adc	$31ce,x                 ; 0x31ce <stateDelays>
     cc3: 8d ca 56     	sta	$56ca                   ; 0x56ca <spriteStatuses+0x40>
     cc6: ae c9 56     	ldx	$56c9                   ; 0x56c9 <spriteStatuses+0x3f>
     cc9: 86 f3        	stx	$f3                     ; 0xf3 <__rc31+0xc4>
     ccb: ae ca 56     	ldx	$56ca                   ; 0x56ca <spriteStatuses+0x40>
     cce: 86 f4        	stx	$f4                     ; 0xf4 <__rc31+0xc5>
     cd0: ae cb 56     	ldx	$56cb                   ; 0x56cb <spriteStatuses+0x41>
     cd3: 86 f5        	stx	$f5                     ; 0xf5 <__rc31+0xc6>
     cd5: 20 f0 ff     	jsr	$fff0 <__heap_start+0xa784>
     cd8: 92 24        	sta	($24)                   ; 0x24 <__rc20>
     cda: a9 00        	lda	#$0
     cdc: 6a           	ror
     cdd: 85 26        	sta	$26                     ; 0x26 <__rc22>
     cdf: 84 f3        	sty	$f3                     ; 0xf3 <__rc31+0xc4>
     ce1: 20 f0 ff     	jsr	$fff0 <__heap_start+0xa784>
     ce4: 92 24        	sta	($24)                   ; 0x24 <__rc20>
     ce6: a9 00        	lda	#$0
     ce8: 6a           	ror
     ce9: 85 26        	sta	$26                     ; 0x26 <__rc22>
     ceb: b2 24        	lda	($24)                   ; 0x24 <__rc20>
     ced: ae e5 56     	ldx	$56e5                   ; 0x56e5 <spriteStatuses+0x5b>
     cf0: 18           	clc
     cf1: 7d ce 31     	adc	$31ce,x                 ; 0x31ce <stateDelays>
     cf4: 8d e2 56     	sta	$56e2                   ; 0x56e2 <spriteStatuses+0x58>
     cf7: ae e1 56     	ldx	$56e1                   ; 0x56e1 <spriteStatuses+0x57>
     cfa: 86 f3        	stx	$f3                     ; 0xf3 <__rc31+0xc4>
     cfc: ae e2 56     	ldx	$56e2                   ; 0x56e2 <spriteStatuses+0x58>
     cff: 86 f4        	stx	$f4                     ; 0xf4 <__rc31+0xc5>
     d01: ae e3 56     	ldx	$56e3                   ; 0x56e3 <spriteStatuses+0x59>
     d04: 86 f5        	stx	$f5                     ; 0xf5 <__rc31+0xc6>
     d06: 20 f0 ff     	jsr	$fff0 <__heap_start+0xa784>
     d09: 92 24        	sta	($24)                   ; 0x24 <__rc20>
     d0b: a9 00        	lda	#$0
     d0d: 6a           	ror
     d0e: 85 26        	sta	$26                     ; 0x26 <__rc22>
     d10: 84 f3        	sty	$f3                     ; 0xf3 <__rc31+0xc4>
     d12: 20 f0 ff     	jsr	$fff0 <__heap_start+0xa784>
     d15: 92 24        	sta	($24)                   ; 0x24 <__rc20>
     d17: a9 00        	lda	#$0
     d19: 6a           	ror
     d1a: 85 26        	sta	$26                     ; 0x26 <__rc22>
     d1c: b2 24        	lda	($24)                   ; 0x24 <__rc20>
     d1e: ae fd 56     	ldx	$56fd                   ; 0x56fd <spriteStatuses+0x73>
     d21: 18           	clc
     d22: 7d ce 31     	adc	$31ce,x                 ; 0x31ce <stateDelays>
     d25: 8d fa 56     	sta	$56fa                   ; 0x56fa <spriteStatuses+0x70>
     d28: ae f9 56     	ldx	$56f9                   ; 0x56f9 <spriteStatuses+0x6f>
     d2b: 86 f3        	stx	$f3                     ; 0xf3 <__rc31+0xc4>
     d2d: ae fa 56     	ldx	$56fa                   ; 0x56fa <spriteStatuses+0x70>
     d30: 86 f4        	stx	$f4                     ; 0xf4 <__rc31+0xc5>
     d32: ae fb 56     	ldx	$56fb                   ; 0x56fb <spriteStatuses+0x71>
     d35: 86 f5        	stx	$f5                     ; 0xf5 <__rc31+0xc6>
     d37: 20 f0 ff     	jsr	$fff0 <__heap_start+0xa784>
     d3a: 92 24        	sta	($24)                   ; 0x24 <__rc20>
     d3c: a9 00        	lda	#$0
     d3e: 6a           	ror
     d3f: 85 26        	sta	$26                     ; 0x26 <__rc22>
     d41: 84 f3        	sty	$f3                     ; 0xf3 <__rc31+0xc4>
     d43: 20 f0 ff     	jsr	$fff0 <__heap_start+0xa784>
     d46: 92 24        	sta	($24)                   ; 0x24 <__rc20>
     d48: a9 00        	lda	#$0
     d4a: 6a           	ror
     d4b: 85 26        	sta	$26                     ; 0x26 <__rc22>
     d4d: a5 12        	lda	$12                     ; 0x12 <__zp_bss_size>
     d4f: 18           	clc
     d50: 72 24        	adc	($24)                   ; 0x24 <__rc20>
     d52: 85 35        	sta	$35                     ; 0x35 <padTimer.1>
     d54: 64 f3        	stz	$f3                     ; 0xf3 <__rc31+0xc4>
     d56: a6 35        	ldx	$35                     ; 0x35 <padTimer.1>
     d58: 86 f4        	stx	$f4                     ; 0xf4 <__rc31+0xc5>
     d5a: a2 63        	ldx	#$63
     d5c: 86 f5        	stx	$f5                     ; 0xf5 <__rc31+0xc6>
     d5e: a0 0a        	ldy	#$a
     d60: 20 f0 ff     	jsr	$fff0 <__heap_start+0xa784>
     d63: 92 24        	sta	($24)                   ; 0x24 <__rc20>
     d65: a9 00        	lda	#$0
     d67: 6a           	ror
     d68: 85 26        	sta	$26                     ; 0x26 <__rc22>
     d6a: 64 36        	stz	$36                     ; 0x36 <kernelEventData>
     d6c: 20 00 ff     	jsr	$ff00 <__heap_start+0xa694>
     d6f: 92 24        	sta	($24)                   ; 0x24 <__rc20>
     d71: a9 00        	lda	#$0
     d73: 6a           	ror
     d74: 85 26        	sta	$26                     ; 0x26 <__rc22>
     d76: a6 36        	ldx	$36                     ; 0x36 <kernelEventData>
     d78: e0 52        	cpx	#$52
     d7a: f0 03        	beq	$d7f <main+0x8f8>
     d7c: 4c 57 10     	jmp	$1057 <main+0xbd0>
     d7f: a6 3a        	ldx	$3a                     ; 0x3a <kernelEventData+0x4>
     d81: e0 0a        	cpx	#$a
     d83: 5a           	phy
     d84: a0 01        	ldy	#$1
     d86: b0 02        	bcs	$d8a <main+0x903>
     d88: a0 00        	ldy	#$0
     d8a: 84 14        	sty	$14                     ; 0x14 <__rc4>
     d8c: 8a           	txa
     d8d: 0a           	asl
     d8e: 64 12        	stz	$12                     ; 0x12 <__zp_bss_size>
     d90: 26 12        	rol	$12                     ; 0x12 <__zp_bss_size>
     d92: 0a           	asl
     d93: 26 12        	rol	$12                     ; 0x12 <__zp_bss_size>
     d95: 0a           	asl
     d96: 85 13        	sta	$13                     ; 0x13 <__rc3>
     d98: 26 12        	rol	$12                     ; 0x12 <__zp_bss_size>
     d9a: 0a           	asl
     d9b: a4 12        	ldy	$12                     ; 0x12 <__zp_bss_size>
     d9d: 84 15        	sty	$15                     ; 0x15 <__rc5>
     d9f: 7a           	ply
     da0: 26 15        	rol	$15                     ; 0x15 <__rc5>
     da2: e6 14        	inc	$14                     ; 0x14 <__rc4>
     da4: c6 14        	dec	$14                     ; 0x14 <__rc4>
     da6: d0 03        	bne	$dab <main+0x924>
     da8: 4c 85 0e     	jmp	$e85 <main+0x9fe>
     dab: 85 14        	sta	$14                     ; 0x14 <__rc4>
     dad: 8a           	txa
     dae: 18           	clc
     daf: 69 f6        	adc	#$f6
     db1: c9 0a        	cmp	#$a
     db3: 90 03        	bcc	$db8 <main+0x931>
     db5: 4c 6a 10     	jmp	$106a <main+0xbe3>
     db8: a9 00        	lda	#$0
     dba: 85 16        	sta	$16                     ; 0x16 <__rc6>
     dbc: a5 14        	lda	$14                     ; 0x14 <__rc4>
     dbe: 5a           	phy
     dbf: a4 16        	ldy	$16                     ; 0x16 <__rc6>
     dc1: c0 01        	cpy	#$1
     dc3: 65 13        	adc	$13                     ; 0x13 <__rc3>
     dc5: 85 14        	sta	$14                     ; 0x14 <__rc4>
     dc7: a5 15        	lda	$15                     ; 0x15 <__rc5>
     dc9: 65 12        	adc	$12                     ; 0x12 <__zp_bss_size>
     dcb: 85 15        	sta	$15                     ; 0x15 <__rc5>
     dcd: a9 8a        	lda	#$8a
     dcf: a4 16        	ldy	$16                     ; 0x16 <__rc6>
     dd1: c0 01        	cpy	#$1
     dd3: a4 16        	ldy	$16                     ; 0x16 <__rc6>
     dd5: 84 1c        	sty	$1c                     ; 0x1c <__rc12>
     dd7: 7a           	ply
     dd8: 65 14        	adc	$14                     ; 0x14 <__rc4>
     dda: 85 14        	sta	$14                     ; 0x14 <__rc4>
     ddc: a9 56        	lda	#$56
     dde: 65 15        	adc	$15                     ; 0x15 <__rc5>
     de0: 85 18        	sta	$18                     ; 0x18 <__rc8>
     de2: a5 14        	lda	$14                     ; 0x14 <__rc4>
     de4: 85 19        	sta	$19                     ; 0x19 <__rc9>
     de6: a5 18        	lda	$18                     ; 0x18 <__rc8>
     de8: 85 15        	sta	$15                     ; 0x15 <__rc5>
     dea: b1 14        	lda	($14),y                 ; 0x14 <__rc4>
     dec: 84 17        	sty	$17                     ; 0x17 <__rc7>
     dee: 85 1d        	sta	$1d                     ; 0x1d <__rc13>
     df0: a8           	tay
     df1: c8           	iny
     df2: 84 16        	sty	$16                     ; 0x16 <__rc6>
     df4: 98           	tya
     df5: a4 17        	ldy	$17                     ; 0x17 <__rc7>
     df7: 91 14        	sta	($14),y                 ; 0x14 <__rc4>
     df9: 18           	clc
     dfa: a5 19        	lda	$19                     ; 0x19 <__rc9>
     dfc: 69 16        	adc	#$16
     dfe: a8           	tay
     dff: a5 18        	lda	$18                     ; 0x18 <__rc8>
     e01: 69 00        	adc	#$0
     e03: 84 18        	sty	$18                     ; 0x18 <__rc8>
     e05: 85 19        	sta	$19                     ; 0x19 <__rc9>
     e07: a0 16        	ldy	#$16
     e09: b1 14        	lda	($14),y                 ; 0x14 <__rc4>
     e0b: 85 1a        	sta	$1a                     ; 0x1a <__rc10>
     e0d: a0 01        	ldy	#$1
     e0f: b1 18        	lda	($18),y                 ; 0x18 <__rc8>
     e11: 85 1b        	sta	$1b                     ; 0x1b <__rc11>
     e13: a0 13        	ldy	#$13
     e15: b1 14        	lda	($14),y                 ; 0x14 <__rc4>
     e17: a8           	tay
     e18: b1 1a        	lda	($1a),y                 ; 0x1a <__rc10>
     e1a: c5 16        	cmp	$16                     ; 0x16 <__rc6>
     e1c: 90 03        	bcc	$e21 <main+0x99a>
     e1e: 4c c5 0e     	jmp	$ec5 <main+0xa3e>
     e21: a4 17        	ldy	$17                     ; 0x17 <__rc7>
     e23: a5 1d        	lda	$1d                     ; 0x1d <__rc13>
     e25: 91 14        	sta	($14),y                 ; 0x14 <__rc4>
     e27: a5 13        	lda	$13                     ; 0x13 <__rc3>
     e29: 18           	clc
     e2a: 69 00        	adc	#$0
     e2c: 85 13        	sta	$13                     ; 0x13 <__rc3>
     e2e: a5 12        	lda	$12                     ; 0x12 <__zp_bss_size>
     e30: 69 d9        	adc	#$d9
     e32: 5a           	phy
     e33: a4 13        	ldy	$13                     ; 0x13 <__rc3>
     e35: 84 12        	sty	$12                     ; 0x12 <__zp_bss_size>
     e37: 7a           	ply
     e38: 85 13        	sta	$13                     ; 0x13 <__rc3>
     e3a: bd 4a 56     	lda	$564a,x                 ; 0x564a <_spriteCtl>
     e3d: 92 12        	sta	($12)                   ; 0x12 <__zp_bss_size>
     e3f: a5 3a        	lda	$3a                     ; 0x3a <kernelEventData+0x4>
     e41: 0a           	asl
     e42: 64 12        	stz	$12                     ; 0x12 <__zp_bss_size>
     e44: 26 12        	rol	$12                     ; 0x12 <__zp_bss_size>
     e46: 0a           	asl
     e47: 26 12        	rol	$12                     ; 0x12 <__zp_bss_size>
     e49: 0a           	asl
     e4a: 85 13        	sta	$13                     ; 0x13 <__rc3>
     e4c: 26 12        	rol	$12                     ; 0x12 <__zp_bss_size>
     e4e: 0a           	asl
     e4f: a6 12        	ldx	$12                     ; 0x12 <__zp_bss_size>
     e51: 86 14        	stx	$14                     ; 0x14 <__rc4>
     e53: 26 14        	rol	$14                     ; 0x14 <__rc4>
     e55: a6 1c        	ldx	$1c                     ; 0x1c <__rc12>
     e57: e0 01        	cpx	#$1
     e59: 65 13        	adc	$13                     ; 0x13 <__rc3>
     e5b: 85 13        	sta	$13                     ; 0x13 <__rc3>
     e5d: a5 14        	lda	$14                     ; 0x14 <__rc4>
     e5f: 65 12        	adc	$12                     ; 0x12 <__zp_bss_size>
     e61: 85 12        	sta	$12                     ; 0x12 <__zp_bss_size>
     e63: a9 8a        	lda	#$8a
     e65: a6 1c        	ldx	$1c                     ; 0x1c <__rc12>
     e67: e0 01        	cpx	#$1
     e69: 65 13        	adc	$13                     ; 0x13 <__rc3>
     e6b: aa           	tax
     e6c: a9 56        	lda	#$56
     e6e: 65 12        	adc	$12                     ; 0x12 <__zp_bss_size>
     e70: 85 13        	sta	$13                     ; 0x13 <__rc3>
     e72: 18           	clc
     e73: 8a           	txa
     e74: 69 15        	adc	#$15
     e76: 85 12        	sta	$12                     ; 0x12 <__zp_bss_size>
     e78: a5 13        	lda	$13                     ; 0x13 <__rc3>
     e7a: 69 ff        	adc	#$ff
     e7c: 85 13        	sta	$13                     ; 0x13 <__rc3>
     e7e: a9 00        	lda	#$0
     e80: 92 12        	sta	($12)                   ; 0x12 <__zp_bss_size>
     e82: 4c 55 10     	jmp	$1055 <main+0xbce>
     e85: a2 00        	ldx	#$0
     e87: 18           	clc
     e88: 65 13        	adc	$13                     ; 0x13 <__rc3>
     e8a: 85 13        	sta	$13                     ; 0x13 <__rc3>
     e8c: a5 15        	lda	$15                     ; 0x15 <__rc5>
     e8e: 65 12        	adc	$12                     ; 0x12 <__zp_bss_size>
     e90: 85 12        	sta	$12                     ; 0x12 <__zp_bss_size>
     e92: a9 8a        	lda	#$8a
     e94: 18           	clc
     e95: 65 13        	adc	$13                     ; 0x13 <__rc3>
     e97: aa           	tax
     e98: a9 56        	lda	#$56
     e9a: 65 12        	adc	$12                     ; 0x12 <__zp_bss_size>
     e9c: 86 12        	stx	$12                     ; 0x12 <__zp_bss_size>
     e9e: 85 13        	sta	$13                     ; 0x13 <__rc3>
     ea0: a0 13        	ldy	#$13
     ea2: b1 12        	lda	($12),y                 ; 0x12 <__zp_bss_size>
     ea4: 85 1a        	sta	$1a                     ; 0x1a <__rc10>
     ea6: 29 fe        	and	#$fe
     ea8: c9 04        	cmp	#$4
     eaa: f0 03        	beq	$eaf <main+0xa28>
     eac: 4c 53 0f     	jmp	$f53 <main+0xacc>
     eaf: a0 04        	ldy	#$4
     eb1: b1 12        	lda	($12),y                 ; 0x12 <__zp_bss_size>
     eb3: a2 01        	ldx	#$1
     eb5: a8           	tay
     eb6: f0 02        	beq	$eba <main+0xa33>
     eb8: a2 00        	ldx	#$0
     eba: 8a           	txa
     ebb: d0 03        	bne	$ec0 <main+0xa39>
     ebd: 4c 3f 0f     	jmp	$f3f <main+0xab8>
     ec0: a9 01        	lda	#$1
     ec2: 4c 41 0f     	jmp	$f41 <main+0xaba>
     ec5: a2 80        	ldx	#$80
     ec7: 86 f3        	stx	$f3                     ; 0xf3 <__rc31+0xc4>
     ec9: a2 6a        	ldx	#$6a
     ecb: 86 12        	stx	$12                     ; 0x12 <__zp_bss_size>
     ecd: a2 58        	ldx	#$58
     ecf: 86 13        	stx	$13                     ; 0x13 <__rc3>
     ed1: 20 f0 ff     	jsr	$fff0 <__heap_start+0xa784>
     ed4: 92 24        	sta	($24)                   ; 0x24 <__rc20>
     ed6: a9 00        	lda	#$0
     ed8: 6a           	ror
     ed9: 85 12        	sta	$12                     ; 0x12 <__zp_bss_size>
     edb: a9 08        	lda	#$8
     edd: 18           	clc
     ede: 72 24        	adc	($24)                   ; 0x24 <__rc20>
     ee0: 85 16        	sta	$16                     ; 0x16 <__rc6>
     ee2: a5 3a        	lda	$3a                     ; 0x3a <kernelEventData+0x4>
     ee4: 0a           	asl
     ee5: 64 14        	stz	$14                     ; 0x14 <__rc4>
     ee7: 26 14        	rol	$14                     ; 0x14 <__rc4>
     ee9: 0a           	asl
     eea: 26 14        	rol	$14                     ; 0x14 <__rc4>
     eec: 0a           	asl
     eed: 85 15        	sta	$15                     ; 0x15 <__rc5>
     eef: 26 14        	rol	$14                     ; 0x14 <__rc4>
     ef1: 0a           	asl
     ef2: a6 14        	ldx	$14                     ; 0x14 <__rc4>
     ef4: 86 18        	stx	$18                     ; 0x18 <__rc8>
     ef6: 26 18        	rol	$18                     ; 0x18 <__rc8>
     ef8: a6 1c        	ldx	$1c                     ; 0x1c <__rc12>
     efa: e0 01        	cpx	#$1
     efc: 65 15        	adc	$15                     ; 0x15 <__rc5>
     efe: 85 15        	sta	$15                     ; 0x15 <__rc5>
     f00: a5 18        	lda	$18                     ; 0x18 <__rc8>
     f02: 65 14        	adc	$14                     ; 0x14 <__rc4>
     f04: 85 14        	sta	$14                     ; 0x14 <__rc4>
     f06: a9 8a        	lda	#$8a
     f08: a6 1c        	ldx	$1c                     ; 0x1c <__rc12>
     f0a: e0 01        	cpx	#$1
     f0c: 65 15        	adc	$15                     ; 0x15 <__rc5>
     f0e: aa           	tax
     f0f: a9 56        	lda	#$56
     f11: 65 14        	adc	$14                     ; 0x14 <__rc4>
     f13: 86 14        	stx	$14                     ; 0x14 <__rc4>
     f15: 85 15        	sta	$15                     ; 0x15 <__rc5>
     f17: a0 10        	ldy	#$10
     f19: a5 16        	lda	$16                     ; 0x16 <__rc6>
     f1b: 91 14        	sta	($14),y                 ; 0x14 <__rc4>
     f1d: 84 16        	sty	$16                     ; 0x16 <__rc6>
     f1f: 88           	dey
     f20: b1 14        	lda	($14),y                 ; 0x14 <__rc4>
     f22: 85 f3        	sta	$f3                     ; 0xf3 <__rc31+0xc4>
     f24: a4 16        	ldy	$16                     ; 0x16 <__rc6>
     f26: b1 14        	lda	($14),y                 ; 0x14 <__rc4>
     f28: 85 f4        	sta	$f4                     ; 0xf4 <__rc31+0xc5>
     f2a: a0 11        	ldy	#$11
     f2c: b1 14        	lda	($14),y                 ; 0x14 <__rc4>
     f2e: 85 f5        	sta	$f5                     ; 0xf5 <__rc31+0xc6>
     f30: 20 f0 ff     	jsr	$fff0 <__heap_start+0xa784>
     f33: 92 24        	sta	($24)                   ; 0x24 <__rc20>
     f35: a9 00        	lda	#$0
     f37: 6a           	ror
     f38: 85 12        	sta	$12                     ; 0x12 <__zp_bss_size>
     f3a: a4 17        	ldy	$17                     ; 0x17 <__rc7>
     f3c: 4c 55 10     	jmp	$1055 <main+0xbce>
     f3f: a9 00        	lda	#$0
     f41: a0 13        	ldy	#$13
     f43: 85 1a        	sta	$1a                     ; 0x1a <__rc10>
     f45: 91 12        	sta	($12),y                 ; 0x12 <__zp_bss_size>
     f47: a9 00        	lda	#$0
     f49: e0 00        	cpx	#$0
     f4b: d0 02        	bne	$f4f <main+0xac8>
     f4d: a9 02        	lda	#$2
     f4f: a0 0a        	ldy	#$a
     f51: 91 12        	sta	($12),y                 ; 0x12 <__zp_bss_size>
     f53: a2 80        	ldx	#$80
     f55: 86 f3        	stx	$f3                     ; 0xf3 <__rc31+0xc4>
     f57: a2 6a        	ldx	#$6a
     f59: 86 12        	stx	$12                     ; 0x12 <__zp_bss_size>
     f5b: a2 58        	ldx	#$58
     f5d: 86 13        	stx	$13                     ; 0x13 <__rc3>
     f5f: 20 f0 ff     	jsr	$fff0 <__heap_start+0xa784>
     f62: 92 24        	sta	($24)                   ; 0x24 <__rc20>
     f64: a9 00        	lda	#$0
     f66: 6a           	ror
     f67: 85 12        	sta	$12                     ; 0x12 <__zp_bss_size>
     f69: b2 24        	lda	($24)                   ; 0x24 <__rc20>
     f6b: 85 17        	sta	$17                     ; 0x17 <__rc7>
     f6d: a5 3a        	lda	$3a                     ; 0x3a <kernelEventData+0x4>
     f6f: 0a           	asl
     f70: 64 14        	stz	$14                     ; 0x14 <__rc4>
     f72: 26 14        	rol	$14                     ; 0x14 <__rc4>
     f74: 0a           	asl
     f75: 26 14        	rol	$14                     ; 0x14 <__rc4>
     f77: 0a           	asl
     f78: 85 15        	sta	$15                     ; 0x15 <__rc5>
     f7a: 26 14        	rol	$14                     ; 0x14 <__rc4>
     f7c: 0a           	asl
     f7d: a6 14        	ldx	$14                     ; 0x14 <__rc4>
     f7f: 86 18        	stx	$18                     ; 0x18 <__rc8>
     f81: 26 18        	rol	$18                     ; 0x18 <__rc8>
     f83: a0 00        	ldy	#$0
     f85: 84 16        	sty	$16                     ; 0x16 <__rc6>
     f87: 18           	clc
     f88: 65 15        	adc	$15                     ; 0x15 <__rc5>
     f8a: 85 15        	sta	$15                     ; 0x15 <__rc5>
     f8c: a5 18        	lda	$18                     ; 0x18 <__rc8>
     f8e: 65 14        	adc	$14                     ; 0x14 <__rc4>
     f90: 85 14        	sta	$14                     ; 0x14 <__rc4>
     f92: a9 8a        	lda	#$8a
     f94: 18           	clc
     f95: 65 15        	adc	$15                     ; 0x15 <__rc5>
     f97: aa           	tax
     f98: a9 56        	lda	#$56
     f9a: 65 14        	adc	$14                     ; 0x14 <__rc4>
     f9c: 86 14        	stx	$14                     ; 0x14 <__rc4>
     f9e: 85 15        	sta	$15                     ; 0x15 <__rc5>
     fa0: a0 13        	ldy	#$13
     fa2: b1 14        	lda	($14),y                 ; 0x14 <__rc4>
     fa4: aa           	tax
     fa5: 18           	clc
     fa6: a5 17        	lda	$17                     ; 0x17 <__rc7>
     fa8: 7d ce 31     	adc	$31ce,x                 ; 0x31ce <stateDelays>
     fab: a0 10        	ldy	#$10
     fad: 91 14        	sta	($14),y                 ; 0x14 <__rc4>
     faf: 84 17        	sty	$17                     ; 0x17 <__rc7>
     fb1: 88           	dey
     fb2: b1 14        	lda	($14),y                 ; 0x14 <__rc4>
     fb4: 85 f3        	sta	$f3                     ; 0xf3 <__rc31+0xc4>
     fb6: a4 17        	ldy	$17                     ; 0x17 <__rc7>
     fb8: b1 14        	lda	($14),y                 ; 0x14 <__rc4>
     fba: 85 f4        	sta	$f4                     ; 0xf4 <__rc31+0xc5>
     fbc: a0 11        	ldy	#$11
     fbe: b1 14        	lda	($14),y                 ; 0x14 <__rc4>
     fc0: 85 f5        	sta	$f5                     ; 0xf5 <__rc31+0xc6>
     fc2: 20 f0 ff     	jsr	$fff0 <__heap_start+0xa784>
     fc5: 92 24        	sta	($24)                   ; 0x24 <__rc20>
     fc7: a9 00        	lda	#$0
     fc9: 6a           	ror
     fca: 85 12        	sta	$12                     ; 0x12 <__zp_bss_size>
     fcc: a5 3a        	lda	$3a                     ; 0x3a <kernelEventData+0x4>
     fce: 0a           	asl
     fcf: 64 12        	stz	$12                     ; 0x12 <__zp_bss_size>
     fd1: 26 12        	rol	$12                     ; 0x12 <__zp_bss_size>
     fd3: 0a           	asl
     fd4: 26 12        	rol	$12                     ; 0x12 <__zp_bss_size>
     fd6: 0a           	asl
     fd7: 85 13        	sta	$13                     ; 0x13 <__rc3>
     fd9: 26 12        	rol	$12                     ; 0x12 <__zp_bss_size>
     fdb: 0a           	asl
     fdc: a6 12        	ldx	$12                     ; 0x12 <__zp_bss_size>
     fde: 86 14        	stx	$14                     ; 0x14 <__rc4>
     fe0: 26 14        	rol	$14                     ; 0x14 <__rc4>
     fe2: a6 16        	ldx	$16                     ; 0x16 <__rc6>
     fe4: e0 01        	cpx	#$1
     fe6: 65 13        	adc	$13                     ; 0x13 <__rc3>
     fe8: 85 13        	sta	$13                     ; 0x13 <__rc3>
     fea: a5 14        	lda	$14                     ; 0x14 <__rc4>
     fec: 65 12        	adc	$12                     ; 0x12 <__zp_bss_size>
     fee: 85 12        	sta	$12                     ; 0x12 <__zp_bss_size>
     ff0: a9 8a        	lda	#$8a
     ff2: a6 16        	ldx	$16                     ; 0x16 <__rc6>
     ff4: e0 01        	cpx	#$1
     ff6: 65 13        	adc	$13                     ; 0x13 <__rc3>
     ff8: 85 15        	sta	$15                     ; 0x15 <__rc5>
     ffa: a9 56        	lda	#$56
     ffc: 65 12        	adc	$12                     ; 0x12 <__zp_bss_size>
     ffe: a6 15        	ldx	$15                     ; 0x15 <__rc5>
    1000: 86 12        	stx	$12                     ; 0x12 <__zp_bss_size>
    1002: 85 13        	sta	$13                     ; 0x13 <__rc3>
    1004: aa           	tax
    1005: a0 0a        	ldy	#$a
    1007: b1 12        	lda	($12),y                 ; 0x12 <__zp_bss_size>
    1009: 1a           	inc
    100a: 85 14        	sta	$14                     ; 0x14 <__rc4>
    100c: 84 28        	sty	$28                     ; 0x28 <__rc24>
    100e: 91 12        	sta	($12),y                 ; 0x12 <__zp_bss_size>
    1010: a5 15        	lda	$15                     ; 0x15 <__rc5>
    1012: 18           	clc
    1013: 69 16        	adc	#$16
    1015: 85 16        	sta	$16                     ; 0x16 <__rc6>
    1017: 8a           	txa
    1018: 69 00        	adc	#$0
    101a: 85 17        	sta	$17                     ; 0x17 <__rc7>
    101c: a0 16        	ldy	#$16
    101e: b1 12        	lda	($12),y                 ; 0x12 <__zp_bss_size>
    1020: 85 18        	sta	$18                     ; 0x18 <__rc8>
    1022: a0 01        	ldy	#$1
    1024: b1 16        	lda	($16),y                 ; 0x16 <__rc6>
    1026: 85 19        	sta	$19                     ; 0x19 <__rc9>
    1028: a4 1a        	ldy	$1a                     ; 0x1a <__rc10>
    102a: b1 18        	lda	($18),y                 ; 0x18 <__rc8>
    102c: c5 14        	cmp	$14                     ; 0x14 <__rc4>
    102e: b0 20        	bcs	$1050 <main+0xbc9>
    1030: 18           	clc
    1031: a5 15        	lda	$15                     ; 0x15 <__rc5>
    1033: 69 14        	adc	#$14
    1035: 85 14        	sta	$14                     ; 0x14 <__rc4>
    1037: 8a           	txa
    1038: 69 00        	adc	#$0
    103a: 85 15        	sta	$15                     ; 0x15 <__rc5>
    103c: a0 14        	ldy	#$14
    103e: b1 12        	lda	($12),y                 ; 0x12 <__zp_bss_size>
    1040: 85 16        	sta	$16                     ; 0x16 <__rc6>
    1042: a0 01        	ldy	#$1
    1044: b1 14        	lda	($14),y                 ; 0x14 <__rc4>
    1046: 85 17        	sta	$17                     ; 0x17 <__rc7>
    1048: a4 1a        	ldy	$1a                     ; 0x1a <__rc10>
    104a: b1 16        	lda	($16),y                 ; 0x16 <__rc6>
    104c: a4 28        	ldy	$28                     ; 0x28 <__rc24>
    104e: 91 12        	sta	($12),y                 ; 0x12 <__zp_bss_size>
    1050: 20 61 17     	jsr	$1761 <updateFrames>
    1053: a4 28        	ldy	$28                     ; 0x28 <__rc24>
    1055: a6 36        	ldx	$36                     ; 0x36 <kernelEventData>
    1057: e0 08        	cpx	#$8
    1059: f0 03        	beq	$105e <main+0xbd7>
    105b: 4c 6a 0d     	jmp	$d6a <main+0x8e3>
    105e: a6 3a        	ldx	$3a                     ; 0x3a <kernelEventData+0x4>
    1060: e0 92        	cpx	#$92
    1062: f0 03        	beq	$1067 <main+0xbe0>
    1064: 4c 6a 0d     	jmp	$d6a <main+0x8e3>
    1067: 4c f9 10     	jmp	$10f9 <main+0xc72>
    106a: e0 63        	cpx	#$63
    106c: f0 03        	beq	$1071 <main+0xbea>
    106e: 4c 6a 0d     	jmp	$d6a <main+0x8e3>
    1071: a2 0a        	ldx	#$a
    1073: 86 28        	stx	$28                     ; 0x28 <__rc24>
    1075: a2 81        	ldx	#$81
    1077: 8e 80 d8     	stx	$d880                   ; 0xd880 <__heap_start+0x8014>
    107a: ea           	nop
    107b: ea           	nop
    107c: a2 01        	ldx	#$1
    107e: 8e 80 d8     	stx	$d880                   ; 0xd880 <__heap_start+0x8014>
    1081: 80 01        	bra	$1084 <main+0xbfd>
    1083: ea           	nop
    1084: ad 80 d8     	lda	$d880                   ; 0xd880 <__heap_start+0x8014>
    1087: 29 40        	and	#$40
    1089: f0 f8        	beq	$1083 <main+0xbfc>
    108b: a0 00        	ldy	#$0
    108d: 84 2a        	sty	$2a                     ; 0x2a <__rc26>
    108f: 98           	tya
    1090: 86 29        	stx	$29                     ; 0x29 <__rc25>
    1092: 20 4a 11     	jsr	$114a <checkPads>
    1095: a4 2a        	ldy	$2a                     ; 0x2a <__rc26>
    1097: a6 29        	ldx	$29                     ; 0x29 <__rc25>
    1099: c8           	iny
    109a: c0 04        	cpy	#$4
    109c: d0 ef        	bne	$108d <main+0xc06>
    109e: a2 85        	ldx	#$85
    10a0: 8e 80 d8     	stx	$d880                   ; 0xd880 <__heap_start+0x8014>
    10a3: ea           	nop
    10a4: ea           	nop
    10a5: a2 05        	ldx	#$5
    10a7: 8e 80 d8     	stx	$d880                   ; 0xd880 <__heap_start+0x8014>
    10aa: 80 01        	bra	$10ad <main+0xc26>
    10ac: ea           	nop
    10ad: ad 80 d8     	lda	$d880                   ; 0xd880 <__heap_start+0x8014>
    10b0: 29 40        	and	#$40
    10b2: f0 f8        	beq	$10ac <main+0xc25>
    10b4: a0 04        	ldy	#$4
    10b6: a2 00        	ldx	#$0
    10b8: 84 29        	sty	$29                     ; 0x29 <__rc25>
    10ba: 98           	tya
    10bb: 20 4a 11     	jsr	$114a <checkPads>
    10be: a4 29        	ldy	$29                     ; 0x29 <__rc25>
    10c0: c8           	iny
    10c1: c0 08        	cpy	#$8
    10c3: d0 f1        	bne	$10b6 <main+0xc2f>
    10c5: a2 80        	ldx	#$80
    10c7: 86 f3        	stx	$f3                     ; 0xf3 <__rc31+0xc4>
    10c9: a2 6a        	ldx	#$6a
    10cb: 86 12        	stx	$12                     ; 0x12 <__zp_bss_size>
    10cd: a2 58        	ldx	#$58
    10cf: 86 13        	stx	$13                     ; 0x13 <__rc3>
    10d1: 20 f0 ff     	jsr	$fff0 <__heap_start+0xa784>
    10d4: 92 24        	sta	($24)                   ; 0x24 <__rc20>
    10d6: a9 00        	lda	#$0
    10d8: 6a           	ror
    10d9: 85 12        	sta	$12                     ; 0x12 <__zp_bss_size>
    10db: a9 02        	lda	#$2
    10dd: 18           	clc
    10de: 72 24        	adc	($24)                   ; 0x24 <__rc20>
    10e0: 85 35        	sta	$35                     ; 0x35 <padTimer.1>
    10e2: 64 f3        	stz	$f3                     ; 0xf3 <__rc31+0xc4>
    10e4: a6 35        	ldx	$35                     ; 0x35 <padTimer.1>
    10e6: 86 f4        	stx	$f4                     ; 0xf4 <__rc31+0xc5>
    10e8: a2 63        	ldx	#$63
    10ea: 86 f5        	stx	$f5                     ; 0xf5 <__rc31+0xc6>
    10ec: 20 f0 ff     	jsr	$fff0 <__heap_start+0xa784>
    10ef: 92 24        	sta	($24)                   ; 0x24 <__rc20>
    10f1: a9 00        	lda	#$0
    10f3: 6a           	ror
    10f4: 85 12        	sta	$12                     ; 0x12 <__zp_bss_size>
    10f6: 4c 53 10     	jmp	$1053 <main+0xbcc>
    10f9: 78           	sei
    10fa: a2 07        	ldx	#$7
    10fc: 86 0f        	stx	$f                      ; 0xf <__zp_data_size+0xf>
    10fe: a2 de        	ldx	#$de
    1100: 8e a2 d6     	stx	$d6a2                   ; 0xd6a2 <__heap_start+0x7e36>
    1103: a2 ad        	ldx	#$ad
    1105: 8e a3 d6     	stx	$d6a3                   ; 0xd6a3 <__heap_start+0x7e37>
    1108: a2 f0        	ldx	#$f0
    110a: 8e a0 d6     	stx	$d6a0                   ; 0xd6a0 <__heap_start+0x7e34>
    110d: 9c a0 d6     	stz	$d6a0                   ; 0xd6a0 <__heap_start+0x7e34>
    1110: 6c fc ff     	jmp	($fffc)                 ; 0xfffc <__heap_start+0xa790>
    1113: a2 00        	ldx	#$0
    1115: 8a           	txa
    1116: 85 20        	sta	$20                     ; 0x20 <__rc16>
    1118: a8           	tay
    1119: b1 10        	lda	($10),y                 ; 0x10 <__rc0>
    111b: 85 2a        	sta	$2a                     ; 0x2a <__rc26>
    111d: c8           	iny
    111e: b1 10        	lda	($10),y                 ; 0x10 <__rc0>
    1120: 85 29        	sta	$29                     ; 0x29 <__rc25>
    1122: c8           	iny
    1123: b1 10        	lda	($10),y                 ; 0x10 <__rc0>
    1125: 85 28        	sta	$28                     ; 0x28 <__rc24>
    1127: 7a           	ply
    1128: 84 27        	sty	$27                     ; 0x27 <__rc23>
    112a: 7a           	ply
    112b: 84 26        	sty	$26                     ; 0x26 <__rc22>
    112d: 7a           	ply
    112e: 84 25        	sty	$25                     ; 0x25 <__rc21>
    1130: 7a           	ply
    1131: 84 24        	sty	$24                     ; 0x24 <__rc20>
    1133: 18           	clc
    1134: a5 10        	lda	$10                     ; 0x10 <__rc0>
    1136: 69 0c        	adc	#$c
    1138: 85 10        	sta	$10                     ; 0x10 <__rc0>
    113a: a5 11        	lda	$11                     ; 0x11 <__rc1>
    113c: 69 00        	adc	#$0
    113e: 85 11        	sta	$11                     ; 0x11 <__rc1>
    1140: a5 20        	lda	$20                     ; 0x20 <__rc16>
    1142: 60           	rts
    1143: a6 12        	ldx	$12                     ; 0x12 <__zp_bss_size>
    1145: 86 18        	stx	$18                     ; 0x18 <__rc8>
    1147: 4c 17 0c     	jmp	$c17 <main+0x790>

0000114a <checkPads>:
    114a: 48           	pha
    114b: 18           	clc
    114c: a5 10        	lda	$10                     ; 0x10 <__rc0>
    114e: 69 f6        	adc	#$f6
    1150: 85 10        	sta	$10                     ; 0x10 <__rc0>
    1152: a5 11        	lda	$11                     ; 0x11 <__rc1>
    1154: 69 ff        	adc	#$ff
    1156: 85 11        	sta	$11                     ; 0x11 <__rc1>
    1158: 68           	pla
    1159: 85 12        	sta	$12                     ; 0x12 <__zp_bss_size>
    115b: 86 1e        	stx	$1e                     ; 0x1e <__rc14>
    115d: 64 13        	stz	$13                     ; 0x13 <__rc3>
    115f: 85 4b        	sta	$4b                     ; 0x4b <__rc31+0x1c>
    1161: 06 12        	asl	$12                     ; 0x12 <__zp_bss_size>
    1163: 26 13        	rol	$13                     ; 0x13 <__rc3>
    1165: a2 d8        	ldx	#$d8
    1167: a5 1e        	lda	$1e                     ; 0x1e <__rc14>
    1169: f0 04        	beq	$116f <checkPads+0x25>
    116b: a9 84        	lda	#$84
    116d: 80 02        	bra	$1171 <checkPads+0x27>
    116f: a9 7c        	lda	#$7c
    1171: 18           	clc
    1172: 65 12        	adc	$12                     ; 0x12 <__zp_bss_size>
    1174: 85 18        	sta	$18                     ; 0x18 <__rc8>
    1176: 8a           	txa
    1177: 65 13        	adc	$13                     ; 0x13 <__rc3>
    1179: 85 19        	sta	$19                     ; 0x19 <__rc9>
    117b: b2 18        	lda	($18)                   ; 0x18 <__rc8>
    117d: 29 02        	and	#$2
    117f: 06 12        	asl	$12                     ; 0x12 <__zp_bss_size>
    1181: 26 13        	rol	$13                     ; 0x13 <__rc3>
    1183: 06 12        	asl	$12                     ; 0x12 <__zp_bss_size>
    1185: a6 12        	ldx	$12                     ; 0x12 <__zp_bss_size>
    1187: 86 17        	stx	$17                     ; 0x17 <__rc7>
    1189: 26 13        	rol	$13                     ; 0x13 <__rc3>
    118b: a6 13        	ldx	$13                     ; 0x13 <__rc3>
    118d: 86 16        	stx	$16                     ; 0x16 <__rc6>
    118f: 06 12        	asl	$12                     ; 0x12 <__zp_bss_size>
    1191: 26 13        	rol	$13                     ; 0x13 <__rc3>
    1193: a6 13        	ldx	$13                     ; 0x13 <__rc3>
    1195: 86 1b        	stx	$1b                     ; 0x1b <__rc11>
    1197: a6 12        	ldx	$12                     ; 0x12 <__zp_bss_size>
    1199: 86 1d        	stx	$1d                     ; 0x1d <__rc13>
    119b: aa           	tax
    119c: d0 43        	bne	$11e1 <checkPads+0x97>
    119e: a5 12        	lda	$12                     ; 0x12 <__zp_bss_size>
    11a0: a2 00        	ldx	#$0
    11a2: 18           	clc
    11a3: 65 17        	adc	$17                     ; 0x17 <__rc7>
    11a5: 85 12        	sta	$12                     ; 0x12 <__zp_bss_size>
    11a7: a5 13        	lda	$13                     ; 0x13 <__rc3>
    11a9: 65 16        	adc	$16                     ; 0x16 <__rc6>
    11ab: 85 13        	sta	$13                     ; 0x13 <__rc3>
    11ad: a9 8a        	lda	#$8a
    11af: 18           	clc
    11b0: 65 12        	adc	$12                     ; 0x12 <__zp_bss_size>
    11b2: 85 12        	sta	$12                     ; 0x12 <__zp_bss_size>
    11b4: a9 56        	lda	#$56
    11b6: 65 13        	adc	$13                     ; 0x13 <__rc3>
    11b8: a8           	tay
    11b9: a5 12        	lda	$12                     ; 0x12 <__zp_bss_size>
    11bb: 84 13        	sty	$13                     ; 0x13 <__rc3>
    11bd: 18           	clc
    11be: 69 0b        	adc	#$b
    11c0: 85 14        	sta	$14                     ; 0x14 <__rc4>
    11c2: 98           	tya
    11c3: 69 00        	adc	#$0
    11c5: 85 15        	sta	$15                     ; 0x15 <__rc5>
    11c7: a0 0b        	ldy	#$b
    11c9: a9 ff        	lda	#$ff
    11cb: 91 12        	sta	($12),y                 ; 0x12 <__zp_bss_size>
    11cd: a0 01        	ldy	#$1
    11cf: 91 14        	sta	($14),y                 ; 0x14 <__rc4>
    11d1: a0 13        	ldy	#$13
    11d3: a9 03        	lda	#$3
    11d5: 91 12        	sta	($12),y                 ; 0x12 <__zp_bss_size>
    11d7: a0 04        	ldy	#$4
    11d9: 8a           	txa
    11da: 91 12        	sta	($12),y                 ; 0x12 <__zp_bss_size>
    11dc: a0 01        	ldy	#$1
    11de: 4c 34 12     	jmp	$1234 <checkPads+0xea>
    11e1: a5 12        	lda	$12                     ; 0x12 <__zp_bss_size>
    11e3: a2 00        	ldx	#$0
    11e5: 18           	clc
    11e6: 65 17        	adc	$17                     ; 0x17 <__rc7>
    11e8: 85 12        	sta	$12                     ; 0x12 <__zp_bss_size>
    11ea: a5 13        	lda	$13                     ; 0x13 <__rc3>
    11ec: 65 16        	adc	$16                     ; 0x16 <__rc6>
    11ee: 85 13        	sta	$13                     ; 0x13 <__rc3>
    11f0: a9 8a        	lda	#$8a
    11f2: 18           	clc
    11f3: 65 12        	adc	$12                     ; 0x12 <__zp_bss_size>
    11f5: aa           	tax
    11f6: a9 56        	lda	#$56
    11f8: 65 13        	adc	$13                     ; 0x13 <__rc3>
    11fa: 85 13        	sta	$13                     ; 0x13 <__rc3>
    11fc: b2 18        	lda	($18)                   ; 0x18 <__rc8>
    11fe: 29 01        	and	#$1
    1200: 86 14        	stx	$14                     ; 0x14 <__rc4>
    1202: 86 12        	stx	$12                     ; 0x12 <__zp_bss_size>
    1204: a6 13        	ldx	$13                     ; 0x13 <__rc3>
    1206: 86 15        	stx	$15                     ; 0x15 <__rc5>
    1208: a8           	tay
    1209: d0 2d        	bne	$1238 <checkPads+0xee>
    120b: a0 0b        	ldy	#$b
    120d: a2 00        	ldx	#$0
    120f: 18           	clc
    1210: a5 14        	lda	$14                     ; 0x14 <__rc4>
    1212: 69 0b        	adc	#$b
    1214: 85 14        	sta	$14                     ; 0x14 <__rc4>
    1216: a5 15        	lda	$15                     ; 0x15 <__rc5>
    1218: 69 00        	adc	#$0
    121a: 85 15        	sta	$15                     ; 0x15 <__rc5>
    121c: a9 01        	lda	#$1
    121e: 91 12        	sta	($12),y                 ; 0x12 <__zp_bss_size>
    1220: a8           	tay
    1221: 84 1a        	sty	$1a                     ; 0x1a <__rc10>
    1223: 8a           	txa
    1224: 91 14        	sta	($14),y                 ; 0x14 <__rc4>
    1226: a0 13        	ldy	#$13
    1228: a9 02        	lda	#$2
    122a: 91 12        	sta	($12),y                 ; 0x12 <__zp_bss_size>
    122c: a0 04        	ldy	#$4
    122e: a5 1a        	lda	$1a                     ; 0x1a <__rc10>
    1230: 91 12        	sta	($12),y                 ; 0x12 <__zp_bss_size>
    1232: a0 00        	ldy	#$0
    1234: 84 48        	sty	$48                     ; 0x48 <__rc31+0x19>
    1236: 80 39        	bra	$1271 <checkPads+0x127>
    1238: 86 1a        	stx	$1a                     ; 0x1a <__rc10>
    123a: a0 04        	ldy	#$4
    123c: b1 12        	lda	($12),y                 ; 0x12 <__zp_bss_size>
    123e: a0 01        	ldy	#$1
    1240: aa           	tax
    1241: f0 02        	beq	$1245 <checkPads+0xfb>
    1243: a0 00        	ldy	#$0
    1245: a2 01        	ldx	#$1
    1247: 86 15        	stx	$15                     ; 0x15 <__rc5>
    1249: a6 1a        	ldx	$1a                     ; 0x1a <__rc10>
    124b: a5 15        	lda	$15                     ; 0x15 <__rc5>
    124d: c0 00        	cpy	#$0
    124f: d0 02        	bne	$1253 <checkPads+0x109>
    1251: a9 00        	lda	#$0
    1253: 84 48        	sty	$48                     ; 0x48 <__rc31+0x19>
    1255: a0 13        	ldy	#$13
    1257: 91 12        	sta	($12),y                 ; 0x12 <__zp_bss_size>
    1259: a5 14        	lda	$14                     ; 0x14 <__rc4>
    125b: 18           	clc
    125c: 69 0b        	adc	#$b
    125e: 85 14        	sta	$14                     ; 0x14 <__rc4>
    1260: 8a           	txa
    1261: 69 00        	adc	#$0
    1263: 85 15        	sta	$15                     ; 0x15 <__rc5>
    1265: a0 0b        	ldy	#$b
    1267: a9 00        	lda	#$0
    1269: 91 12        	sta	($12),y                 ; 0x12 <__zp_bss_size>
    126b: a0 01        	ldy	#$1
    126d: 91 14        	sta	($14),y                 ; 0x14 <__rc4>
    126f: a2 01        	ldx	#$1
    1271: b2 18        	lda	($18)                   ; 0x18 <__rc8>
    1273: 29 08        	and	#$8
    1275: d0 3c        	bne	$12b3 <checkPads+0x169>
    1277: 18           	clc
    1278: a5 1d        	lda	$1d                     ; 0x1d <__rc13>
    127a: 65 17        	adc	$17                     ; 0x17 <__rc7>
    127c: a0 00        	ldy	#$0
    127e: 84 14        	sty	$14                     ; 0x14 <__rc4>
    1280: 85 12        	sta	$12                     ; 0x12 <__zp_bss_size>
    1282: a5 1b        	lda	$1b                     ; 0x1b <__rc11>
    1284: 65 16        	adc	$16                     ; 0x16 <__rc6>
    1286: 85 13        	sta	$13                     ; 0x13 <__rc3>
    1288: a9 8a        	lda	#$8a
    128a: 18           	clc
    128b: 65 12        	adc	$12                     ; 0x12 <__zp_bss_size>
    128d: 85 12        	sta	$12                     ; 0x12 <__zp_bss_size>
    128f: a9 56        	lda	#$56
    1291: 65 13        	adc	$13                     ; 0x13 <__rc3>
    1293: a8           	tay
    1294: a5 12        	lda	$12                     ; 0x12 <__zp_bss_size>
    1296: 84 13        	sty	$13                     ; 0x13 <__rc3>
    1298: 48           	pha
    1299: a5 14        	lda	$14                     ; 0x14 <__rc4>
    129b: c9 01        	cmp	#$1
    129d: 68           	pla
    129e: 69 0d        	adc	#$d
    12a0: 85 14        	sta	$14                     ; 0x14 <__rc4>
    12a2: 98           	tya
    12a3: 69 00        	adc	#$0
    12a5: 85 15        	sta	$15                     ; 0x15 <__rc5>
    12a7: a0 0d        	ldy	#$d
    12a9: a9 ff        	lda	#$ff
    12ab: 91 12        	sta	($12),y                 ; 0x12 <__zp_bss_size>
    12ad: a0 01        	ldy	#$1
    12af: 91 14        	sta	($14),y                 ; 0x14 <__rc4>
    12b1: 80 4a        	bra	$12fd <checkPads+0x1b3>
    12b3: 18           	clc
    12b4: a5 1d        	lda	$1d                     ; 0x1d <__rc13>
    12b6: 65 17        	adc	$17                     ; 0x17 <__rc7>
    12b8: a0 00        	ldy	#$0
    12ba: 85 12        	sta	$12                     ; 0x12 <__zp_bss_size>
    12bc: a5 1b        	lda	$1b                     ; 0x1b <__rc11>
    12be: 65 16        	adc	$16                     ; 0x16 <__rc6>
    12c0: 85 13        	sta	$13                     ; 0x13 <__rc3>
    12c2: a9 8a        	lda	#$8a
    12c4: 18           	clc
    12c5: 65 12        	adc	$12                     ; 0x12 <__zp_bss_size>
    12c7: a8           	tay
    12c8: a9 56        	lda	#$56
    12ca: 65 13        	adc	$13                     ; 0x13 <__rc3>
    12cc: 85 12        	sta	$12                     ; 0x12 <__zp_bss_size>
    12ce: b2 18        	lda	($18)                   ; 0x18 <__rc8>
    12d0: 29 04        	and	#$4
    12d2: 84 13        	sty	$13                     ; 0x13 <__rc3>
    12d4: 84 14        	sty	$14                     ; 0x14 <__rc4>
    12d6: a4 12        	ldy	$12                     ; 0x12 <__zp_bss_size>
    12d8: 84 15        	sty	$15                     ; 0x15 <__rc5>
    12da: a8           	tay
    12db: f0 03        	beq	$12e0 <checkPads+0x196>
    12dd: 4c 48 13     	jmp	$1348 <checkPads+0x1fe>
    12e0: a0 0d        	ldy	#$d
    12e2: 18           	clc
    12e3: a5 13        	lda	$13                     ; 0x13 <__rc3>
    12e5: 69 0d        	adc	#$d
    12e7: 85 13        	sta	$13                     ; 0x13 <__rc3>
    12e9: a5 12        	lda	$12                     ; 0x12 <__zp_bss_size>
    12eb: 69 00        	adc	#$0
    12ed: 5a           	phy
    12ee: a4 13        	ldy	$13                     ; 0x13 <__rc3>
    12f0: 84 12        	sty	$12                     ; 0x12 <__zp_bss_size>
    12f2: 7a           	ply
    12f3: 85 13        	sta	$13                     ; 0x13 <__rc3>
    12f5: a9 01        	lda	#$1
    12f7: 91 14        	sta	($14),y                 ; 0x14 <__rc4>
    12f9: a8           	tay
    12fa: 3a           	dec
    12fb: 91 12        	sta	($12),y                 ; 0x12 <__zp_bss_size>
    12fd: 18           	clc
    12fe: a5 1d        	lda	$1d                     ; 0x1d <__rc13>
    1300: 65 17        	adc	$17                     ; 0x17 <__rc7>
    1302: a0 00        	ldy	#$0
    1304: 85 12        	sta	$12                     ; 0x12 <__zp_bss_size>
    1306: a5 1b        	lda	$1b                     ; 0x1b <__rc11>
    1308: 65 16        	adc	$16                     ; 0x16 <__rc6>
    130a: 85 13        	sta	$13                     ; 0x13 <__rc3>
    130c: 84 1c        	sty	$1c                     ; 0x1c <__rc12>
    130e: 18           	clc
    130f: a9 8a        	lda	#$8a
    1311: 65 12        	adc	$12                     ; 0x12 <__zp_bss_size>
    1313: a8           	tay
    1314: a9 56        	lda	#$56
    1316: 65 13        	adc	$13                     ; 0x13 <__rc3>
    1318: 84 13        	sty	$13                     ; 0x13 <__rc3>
    131a: 84 14        	sty	$14                     ; 0x14 <__rc4>
    131c: 85 12        	sta	$12                     ; 0x12 <__zp_bss_size>
    131e: 85 15        	sta	$15                     ; 0x15 <__rc5>
    1320: a9 03        	lda	#$3
    1322: a4 48        	ldy	$48                     ; 0x48 <__rc31+0x19>
    1324: d0 02        	bne	$1328 <checkPads+0x1de>
    1326: a9 02        	lda	#$2
    1328: a0 13        	ldy	#$13
    132a: 91 14        	sta	($14),y                 ; 0x14 <__rc4>
    132c: 18           	clc
    132d: a5 13        	lda	$13                     ; 0x13 <__rc3>
    132f: 69 0b        	adc	#$b
    1331: a8           	tay
    1332: a5 12        	lda	$12                     ; 0x12 <__zp_bss_size>
    1334: 69 00        	adc	#$0
    1336: 84 12        	sty	$12                     ; 0x12 <__zp_bss_size>
    1338: 85 13        	sta	$13                     ; 0x13 <__rc3>
    133a: 8a           	txa
    133b: f0 03        	beq	$1340 <checkPads+0x1f6>
    133d: 4c ad 13     	jmp	$13ad <checkPads+0x263>
    1340: a5 1e        	lda	$1e                     ; 0x1e <__rc14>
    1342: f0 3f        	beq	$1383 <checkPads+0x239>
    1344: a2 40        	ldx	#$40
    1346: 80 3d        	bra	$1385 <checkPads+0x23b>
    1348: a5 13        	lda	$13                     ; 0x13 <__rc3>
    134a: a4 13        	ldy	$13                     ; 0x13 <__rc3>
    134c: 84 1a        	sty	$1a                     ; 0x1a <__rc10>
    134e: 18           	clc
    134f: 69 0d        	adc	#$d
    1351: 85 1f        	sta	$1f                     ; 0x1f <__rc15>
    1353: a5 12        	lda	$12                     ; 0x12 <__zp_bss_size>
    1355: a4 12        	ldy	$12                     ; 0x12 <__zp_bss_size>
    1357: 84 1c        	sty	$1c                     ; 0x1c <__rc12>
    1359: 69 00        	adc	#$0
    135b: a4 1f        	ldy	$1f                     ; 0x1f <__rc15>
    135d: 84 12        	sty	$12                     ; 0x12 <__zp_bss_size>
    135f: a0 0d        	ldy	#$d
    1361: 85 13        	sta	$13                     ; 0x13 <__rc3>
    1363: a9 00        	lda	#$0
    1365: 91 14        	sta	($14),y                 ; 0x14 <__rc4>
    1367: a0 01        	ldy	#$1
    1369: 91 12        	sta	($12),y                 ; 0x12 <__zp_bss_size>
    136b: 18           	clc
    136c: a5 1a        	lda	$1a                     ; 0x1a <__rc10>
    136e: 69 0b        	adc	#$b
    1370: 85 12        	sta	$12                     ; 0x12 <__zp_bss_size>
    1372: a5 1c        	lda	$1c                     ; 0x1c <__rc12>
    1374: 69 00        	adc	#$0
    1376: 85 13        	sta	$13                     ; 0x13 <__rc3>
    1378: 8a           	txa
    1379: f0 1c        	beq	$1397 <checkPads+0x24d>
    137b: a5 48        	lda	$48                     ; 0x48 <__rc31+0x19>
    137d: f0 24        	beq	$13a3 <checkPads+0x259>
    137f: a9 01        	lda	#$1
    1381: 80 22        	bra	$13a5 <checkPads+0x25b>
    1383: a2 80        	ldx	#$80
    1385: 86 1a        	stx	$1a                     ; 0x1a <__rc10>
    1387: b2 18        	lda	($18)                   ; 0x18 <__rc8>
    1389: 25 1a        	and	$1a                     ; 0x1a <__rc10>
    138b: f0 03        	beq	$1390 <checkPads+0x246>
    138d: 4c 53 17     	jmp	$1753 <checkPads+0x609>
    1390: 64 18        	stz	$18                     ; 0x18 <__rc8>
    1392: a2 11        	ldx	#$11
    1394: 4c 2e 14     	jmp	$142e <checkPads+0x2e4>
    1397: a5 1e        	lda	$1e                     ; 0x1e <__rc14>
    1399: d0 03        	bne	$139e <checkPads+0x254>
    139b: 4c 1d 14     	jmp	$141d <checkPads+0x2d3>
    139e: a2 40        	ldx	#$40
    13a0: 4c 1f 14     	jmp	$141f <checkPads+0x2d5>
    13a3: a9 00        	lda	#$0
    13a5: a0 13        	ldy	#$13
    13a7: 91 14        	sta	($14),y                 ; 0x14 <__rc4>
    13a9: a2 01        	ldx	#$1
    13ab: 86 1c        	stx	$1c                     ; 0x1c <__rc12>
    13ad: a5 1e        	lda	$1e                     ; 0x1e <__rc14>
    13af: f0 04        	beq	$13b5 <checkPads+0x26b>
    13b1: a2 40        	ldx	#$40
    13b3: 80 02        	bra	$13b7 <checkPads+0x26d>
    13b5: a2 80        	ldx	#$80
    13b7: 86 1a        	stx	$1a                     ; 0x1a <__rc10>
    13b9: b2 18        	lda	($18)                   ; 0x18 <__rc8>
    13bb: 25 1a        	and	$1a                     ; 0x1a <__rc10>
    13bd: f0 03        	beq	$13c2 <checkPads+0x278>
    13bf: 4c 53 17     	jmp	$1753 <checkPads+0x609>
    13c2: 18           	clc
    13c3: a5 1d        	lda	$1d                     ; 0x1d <__rc13>
    13c5: 65 17        	adc	$17                     ; 0x17 <__rc7>
    13c7: a2 00        	ldx	#$0
    13c9: 85 17        	sta	$17                     ; 0x17 <__rc7>
    13cb: a5 1b        	lda	$1b                     ; 0x1b <__rc11>
    13cd: 65 16        	adc	$16                     ; 0x16 <__rc6>
    13cf: 85 16        	sta	$16                     ; 0x16 <__rc6>
    13d1: a9 8a        	lda	#$8a
    13d3: 18           	clc
    13d4: 65 17        	adc	$17                     ; 0x17 <__rc7>
    13d6: a8           	tay
    13d7: a9 56        	lda	#$56
    13d9: 65 16        	adc	$16                     ; 0x16 <__rc6>
    13db: 84 18        	sty	$18                     ; 0x18 <__rc8>
    13dd: 84 16        	sty	$16                     ; 0x16 <__rc6>
    13df: 85 19        	sta	$19                     ; 0x19 <__rc9>
    13e1: 85 17        	sta	$17                     ; 0x17 <__rc7>
    13e3: a0 05        	ldy	#$5
    13e5: b1 16        	lda	($16),y                 ; 0x16 <__rc6>
    13e7: e8           	inx
    13e8: a8           	tay
    13e9: f0 02        	beq	$13ed <checkPads+0x2a3>
    13eb: a2 00        	ldx	#$0
    13ed: a0 01        	ldy	#$1
    13ef: a9 00        	lda	#$0
    13f1: e0 00        	cpx	#$0
    13f3: d0 02        	bne	$13f7 <checkPads+0x2ad>
    13f5: a9 01        	lda	#$1
    13f7: 84 16        	sty	$16                     ; 0x16 <__rc6>
    13f9: a6 1c        	ldx	$1c                     ; 0x1c <__rc12>
    13fb: d0 02        	bne	$13ff <checkPads+0x2b5>
    13fd: 64 16        	stz	$16                     ; 0x16 <__rc6>
    13ff: 05 16        	ora	$16                     ; 0x16 <__rc6>
    1401: 29 01        	and	#$1
    1403: f0 03        	beq	$1408 <checkPads+0x2be>
    1405: 4c 53 17     	jmp	$1753 <checkPads+0x609>
    1408: 18           	clc
    1409: a5 18        	lda	$18                     ; 0x18 <__rc8>
    140b: 69 05        	adc	#$5
    140d: 85 16        	sta	$16                     ; 0x16 <__rc6>
    140f: a5 19        	lda	$19                     ; 0x19 <__rc9>
    1411: 69 00        	adc	#$0
    1413: 85 17        	sta	$17                     ; 0x17 <__rc7>
    1415: a2 18        	ldx	#$18
    1417: 86 42        	stx	$42                     ; 0x42 <__rc31+0x13>
    1419: 64 18        	stz	$18                     ; 0x18 <__rc8>
    141b: 80 4e        	bra	$146b <checkPads+0x321>
    141d: a2 80        	ldx	#$80
    141f: 86 1a        	stx	$1a                     ; 0x1a <__rc10>
    1421: b2 18        	lda	($18)                   ; 0x18 <__rc8>
    1423: 25 1a        	and	$1a                     ; 0x1a <__rc10>
    1425: f0 03        	beq	$142a <checkPads+0x2e0>
    1427: 4c 53 17     	jmp	$1753 <checkPads+0x609>
    142a: 64 18        	stz	$18                     ; 0x18 <__rc8>
    142c: a2 18        	ldx	#$18
    142e: 18           	clc
    142f: a5 1d        	lda	$1d                     ; 0x1d <__rc13>
    1431: 65 17        	adc	$17                     ; 0x17 <__rc7>
    1433: a0 00        	ldy	#$0
    1435: 85 17        	sta	$17                     ; 0x17 <__rc7>
    1437: a5 1b        	lda	$1b                     ; 0x1b <__rc11>
    1439: 65 16        	adc	$16                     ; 0x16 <__rc6>
    143b: 85 16        	sta	$16                     ; 0x16 <__rc6>
    143d: a9 8a        	lda	#$8a
    143f: 18           	clc
    1440: 65 17        	adc	$17                     ; 0x17 <__rc7>
    1442: 85 17        	sta	$17                     ; 0x17 <__rc7>
    1444: a9 56        	lda	#$56
    1446: 65 16        	adc	$16                     ; 0x16 <__rc6>
    1448: a8           	tay
    1449: a5 17        	lda	$17                     ; 0x17 <__rc7>
    144b: 85 19        	sta	$19                     ; 0x19 <__rc9>
    144d: 85 16        	sta	$16                     ; 0x16 <__rc6>
    144f: 84 1a        	sty	$1a                     ; 0x1a <__rc10>
    1451: 84 17        	sty	$17                     ; 0x17 <__rc7>
    1453: a0 05        	ldy	#$5
    1455: b1 16        	lda	($16),y                 ; 0x16 <__rc6>
    1457: f0 03        	beq	$145c <checkPads+0x312>
    1459: 4c 53 17     	jmp	$1753 <checkPads+0x609>
    145c: 86 42        	stx	$42                     ; 0x42 <__rc31+0x13>
    145e: 18           	clc
    145f: a5 19        	lda	$19                     ; 0x19 <__rc9>
    1461: 69 05        	adc	#$5
    1463: 85 16        	sta	$16                     ; 0x16 <__rc6>
    1465: a5 1a        	lda	$1a                     ; 0x1a <__rc10>
    1467: 69 00        	adc	#$0
    1469: 85 17        	sta	$17                     ; 0x17 <__rc7>
    146b: a9 01        	lda	#$1
    146d: 92 16        	sta	($16)                   ; 0x16 <__rc6>
    146f: a0 05        	ldy	#$5
    1471: a5 48        	lda	$48                     ; 0x48 <__rc31+0x19>
    1473: d0 02        	bne	$1477 <checkPads+0x32d>
    1475: a0 04        	ldy	#$4
    1477: a6 4b        	ldx	$4b                     ; 0x4b <__rc31+0x1c>
    1479: 8a           	txa
    147a: 18           	clc
    147b: 69 0a        	adc	#$a
    147d: 85 1c        	sta	$1c                     ; 0x1c <__rc12>
    147f: 84 1b        	sty	$1b                     ; 0x1b <__rc11>
    1481: a9 00        	lda	#$0
    1483: 69 00        	adc	#$0
    1485: a6 1c        	ldx	$1c                     ; 0x1c <__rc12>
    1487: 86 16        	stx	$16                     ; 0x16 <__rc6>
    1489: 06 16        	asl	$16                     ; 0x16 <__rc6>
    148b: 2a           	rol
    148c: 06 16        	asl	$16                     ; 0x16 <__rc6>
    148e: 2a           	rol
    148f: 06 16        	asl	$16                     ; 0x16 <__rc6>
    1491: 2a           	rol
    1492: 85 17        	sta	$17                     ; 0x17 <__rc7>
    1494: a5 16        	lda	$16                     ; 0x16 <__rc6>
    1496: 0a           	asl
    1497: a6 17        	ldx	$17                     ; 0x17 <__rc7>
    1499: 86 19        	stx	$19                     ; 0x19 <__rc9>
    149b: 26 19        	rol	$19                     ; 0x19 <__rc9>
    149d: 18           	clc
    149e: 65 16        	adc	$16                     ; 0x16 <__rc6>
    14a0: 85 16        	sta	$16                     ; 0x16 <__rc6>
    14a2: a5 19        	lda	$19                     ; 0x19 <__rc9>
    14a4: 65 17        	adc	$17                     ; 0x17 <__rc7>
    14a6: 85 17        	sta	$17                     ; 0x17 <__rc7>
    14a8: a9 8a        	lda	#$8a
    14aa: 18           	clc
    14ab: 65 16        	adc	$16                     ; 0x16 <__rc6>
    14ad: 85 1e        	sta	$1e                     ; 0x1e <__rc14>
    14af: a9 56        	lda	#$56
    14b1: 65 17        	adc	$17                     ; 0x17 <__rc7>
    14b3: 85 19        	sta	$19                     ; 0x19 <__rc9>
    14b5: a5 14        	lda	$14                     ; 0x14 <__rc4>
    14b7: 18           	clc
    14b8: 69 02        	adc	#$2
    14ba: 85 1a        	sta	$1a                     ; 0x1a <__rc10>
    14bc: a5 15        	lda	$15                     ; 0x15 <__rc5>
    14be: 69 00        	adc	#$0
    14c0: 85 16        	sta	$16                     ; 0x16 <__rc6>
    14c2: a0 13        	ldy	#$13
    14c4: a6 1b        	ldx	$1b                     ; 0x1b <__rc11>
    14c6: 86 52        	stx	$52                     ; 0x52 <__rc31+0x23>
    14c8: a5 1b        	lda	$1b                     ; 0x1b <__rc11>
    14ca: 91 14        	sta	($14),y                 ; 0x14 <__rc4>
    14cc: a6 16        	ldx	$16                     ; 0x16 <__rc6>
    14ce: 86 1b        	stx	$1b                     ; 0x1b <__rc11>
    14d0: b2 14        	lda	($14)                   ; 0x14 <__rc4>
    14d2: aa           	tax
    14d3: a4 1e        	ldy	$1e                     ; 0x1e <__rc14>
    14d5: 84 16        	sty	$16                     ; 0x16 <__rc6>
    14d7: a4 19        	ldy	$19                     ; 0x19 <__rc9>
    14d9: 84 17        	sty	$17                     ; 0x17 <__rc7>
    14db: a0 01        	ldy	#$1
    14dd: b1 14        	lda	($14),y                 ; 0x14 <__rc4>
    14df: 85 1d        	sta	$1d                     ; 0x1d <__rc13>
    14e1: 86 1f        	stx	$1f                     ; 0x1f <__rc15>
    14e3: 8a           	txa
    14e4: 92 16        	sta	($16)                   ; 0x16 <__rc6>
    14e6: a5 1d        	lda	$1d                     ; 0x1d <__rc13>
    14e8: 85 22        	sta	$22                     ; 0x22 <__rc18>
    14ea: 91 16        	sta	($16),y                 ; 0x16 <__rc6>
    14ec: a2 01        	ldx	#$1
    14ee: 86 23        	stx	$23                     ; 0x23 <__rc19>
    14f0: c8           	iny
    14f1: b1 14        	lda	($14),y                 ; 0x14 <__rc4>
    14f3: 85 1d        	sta	$1d                     ; 0x1d <__rc13>
    14f5: e8           	inx
    14f6: 86 43        	stx	$43                     ; 0x43 <__rc31+0x14>
    14f8: a4 23        	ldy	$23                     ; 0x23 <__rc19>
    14fa: b1 1a        	lda	($1a),y                 ; 0x1a <__rc10>
    14fc: 84 44        	sty	$44                     ; 0x44 <__rc31+0x15>
    14fe: 85 23        	sta	$23                     ; 0x23 <__rc19>
    1500: a6 1d        	ldx	$1d                     ; 0x1d <__rc13>
    1502: e8           	inx
    1503: d0 02        	bne	$1507 <checkPads+0x3bd>
    1505: e6 23        	inc	$23                     ; 0x23 <__rc19>
    1507: 86 1d        	stx	$1d                     ; 0x1d <__rc13>
    1509: 8a           	txa
    150a: a4 43        	ldy	$43                     ; 0x43 <__rc31+0x14>
    150c: 91 16        	sta	($16),y                 ; 0x16 <__rc6>
    150e: a5 1e        	lda	$1e                     ; 0x1e <__rc14>
    1510: a6 1e        	ldx	$1e                     ; 0x1e <__rc14>
    1512: 86 54        	stx	$54                     ; 0x54 <__rc31+0x25>
    1514: 18           	clc
    1515: 69 02        	adc	#$2
    1517: 85 1a        	sta	$1a                     ; 0x1a <__rc10>
    1519: a5 19        	lda	$19                     ; 0x19 <__rc9>
    151b: a6 19        	ldx	$19                     ; 0x19 <__rc9>
    151d: 86 53        	stx	$53                     ; 0x53 <__rc31+0x24>
    151f: 69 00        	adc	#$0
    1521: 85 1b        	sta	$1b                     ; 0x1b <__rc11>
    1523: a5 23        	lda	$23                     ; 0x23 <__rc19>
    1525: 85 1e        	sta	$1e                     ; 0x1e <__rc14>
    1527: a4 44        	ldy	$44                     ; 0x44 <__rc31+0x15>
    1529: 91 1a        	sta	($1a),y                 ; 0x1a <__rc10>
    152b: a5 44        	lda	$44                     ; 0x44 <__rc31+0x15>
    152d: a6 1c        	ldx	$1c                     ; 0x1c <__rc12>
    152f: a4 48        	ldy	$48                     ; 0x48 <__rc31+0x19>
    1531: d0 02        	bne	$1535 <checkPads+0x3eb>
    1533: a9 00        	lda	#$0
    1535: a4 14        	ldy	$14                     ; 0x14 <__rc4>
    1537: 84 4c        	sty	$4c                     ; 0x4c <__rc31+0x1d>
    1539: a4 15        	ldy	$15                     ; 0x15 <__rc5>
    153b: 84 4d        	sty	$4d                     ; 0x4d <__rc31+0x1e>
    153d: a0 13        	ldy	#$13
    153f: 91 16        	sta	($16),y                 ; 0x16 <__rc6>
    1541: a9 04        	lda	#$4
    1543: a4 48        	ldy	$48                     ; 0x48 <__rc31+0x19>
    1545: d0 02        	bne	$1549 <checkPads+0x3ff>
    1547: a9 00        	lda	#$0
    1549: a0 0a        	ldy	#$a
    154b: 91 16        	sta	($16),y                 ; 0x16 <__rc6>
    154d: a5 1c        	lda	$1c                     ; 0x1c <__rc12>
    154f: 0a           	asl
    1550: 64 1a        	stz	$1a                     ; 0x1a <__rc10>
    1552: 26 1a        	rol	$1a                     ; 0x1a <__rc10>
    1554: 0a           	asl
    1555: 26 1a        	rol	$1a                     ; 0x1a <__rc10>
    1557: 0a           	asl
    1558: 26 1a        	rol	$1a                     ; 0x1a <__rc10>
    155a: 18           	clc
    155b: 85 1b        	sta	$1b                     ; 0x1b <__rc11>
    155d: 69 04        	adc	#$4
    155f: 85 14        	sta	$14                     ; 0x14 <__rc4>
    1561: a5 1a        	lda	$1a                     ; 0x1a <__rc10>
    1563: 69 d9        	adc	#$d9
    1565: 85 15        	sta	$15                     ; 0x15 <__rc5>
    1567: a5 1f        	lda	$1f                     ; 0x1f <__rc15>
    1569: 92 14        	sta	($14)                   ; 0x14 <__rc4>
    156b: a0 01        	ldy	#$1
    156d: a5 22        	lda	$22                     ; 0x22 <__rc18>
    156f: 91 14        	sta	($14),y                 ; 0x14 <__rc4>
    1571: 18           	clc
    1572: a5 1b        	lda	$1b                     ; 0x1b <__rc11>
    1574: 69 06        	adc	#$6
    1576: 85 19        	sta	$19                     ; 0x19 <__rc9>
    1578: a5 1a        	lda	$1a                     ; 0x1a <__rc10>
    157a: 69 d9        	adc	#$d9
    157c: 5a           	phy
    157d: a4 19        	ldy	$19                     ; 0x19 <__rc9>
    157f: 84 14        	sty	$14                     ; 0x14 <__rc4>
    1581: 7a           	ply
    1582: 85 15        	sta	$15                     ; 0x15 <__rc5>
    1584: a5 1d        	lda	$1d                     ; 0x1d <__rc13>
    1586: 92 14        	sta	($14)                   ; 0x14 <__rc4>
    1588: a5 1e        	lda	$1e                     ; 0x1e <__rc14>
    158a: 91 14        	sta	($14),y                 ; 0x14 <__rc4>
    158c: 84 19        	sty	$19                     ; 0x19 <__rc9>
    158e: 18           	clc
    158f: a5 1b        	lda	$1b                     ; 0x1b <__rc11>
    1591: 69 00        	adc	#$0
    1593: 85 14        	sta	$14                     ; 0x14 <__rc4>
    1595: a5 1a        	lda	$1a                     ; 0x1a <__rc10>
    1597: 69 d9        	adc	#$d9
    1599: 85 15        	sta	$15                     ; 0x15 <__rc5>
    159b: a9 01        	lda	#$1
    159d: 1d 4a 56     	ora	$564a,x                 ; 0x564a <_spriteCtl>
    15a0: 92 14        	sta	($14)                   ; 0x14 <__rc4>
    15a2: a2 80        	ldx	#$80
    15a4: 86 f3        	stx	$f3                     ; 0xf3 <__rc31+0xc4>
    15a6: a2 4a        	ldx	#$4a
    15a8: a0 00        	ldy	#$0
    15aa: 86 14        	stx	$14                     ; 0x14 <__rc4>
    15ac: 84 15        	sty	$15                     ; 0x15 <__rc5>
    15ae: a2 6a        	ldx	#$6a
    15b0: 86 1a        	stx	$1a                     ; 0x1a <__rc10>
    15b2: a2 58        	ldx	#$58
    15b4: 86 1b        	stx	$1b                     ; 0x1b <__rc11>
    15b6: 20 f0 ff     	jsr	$fff0 <__heap_start+0xa784>
    15b9: 92 14        	sta	($14)                   ; 0x14 <__rc4>
    15bb: a9 00        	lda	#$0
    15bd: 6a           	ror
    15be: 85 1a        	sta	$1a                     ; 0x1a <__rc10>
    15c0: a2 08        	ldx	#$8
    15c2: 18           	clc
    15c3: 8a           	txa
    15c4: 65 4a        	adc	$4a                     ; 0x4a <__rc31+0x1b>
    15c6: 85 15        	sta	$15                     ; 0x15 <__rc5>
    15c8: a0 0f        	ldy	#$f
    15ca: b1 16        	lda	($16),y                 ; 0x16 <__rc6>
    15cc: 85 14        	sta	$14                     ; 0x14 <__rc4>
    15ce: c8           	iny
    15cf: a5 15        	lda	$15                     ; 0x15 <__rc5>
    15d1: 91 16        	sta	($16),y                 ; 0x16 <__rc6>
    15d3: a6 14        	ldx	$14                     ; 0x14 <__rc4>
    15d5: 86 f3        	stx	$f3                     ; 0xf3 <__rc31+0xc4>
    15d7: b1 16        	lda	($16),y                 ; 0x16 <__rc6>
    15d9: 85 f4        	sta	$f4                     ; 0xf4 <__rc31+0xc5>
    15db: c8           	iny
    15dc: a6 16        	ldx	$16                     ; 0x16 <__rc6>
    15de: 86 14        	stx	$14                     ; 0x14 <__rc4>
    15e0: a6 17        	ldx	$17                     ; 0x17 <__rc7>
    15e2: 86 15        	stx	$15                     ; 0x15 <__rc5>
    15e4: a6 14        	ldx	$14                     ; 0x14 <__rc4>
    15e6: 86 4e        	stx	$4e                     ; 0x4e <__rc31+0x1f>
    15e8: a6 15        	ldx	$15                     ; 0x15 <__rc5>
    15ea: 86 4f        	stx	$4f                     ; 0x4f <__rc31+0x20>
    15ec: b1 16        	lda	($16),y                 ; 0x16 <__rc6>
    15ee: 85 f5        	sta	$f5                     ; 0xf5 <__rc31+0xc6>
    15f0: a2 49        	ldx	#$49
    15f2: 86 14        	stx	$14                     ; 0x14 <__rc4>
    15f4: a2 00        	ldx	#$0
    15f6: 86 15        	stx	$15                     ; 0x15 <__rc5>
    15f8: 20 f0 ff     	jsr	$fff0 <__heap_start+0xa784>
    15fb: 92 14        	sta	($14)                   ; 0x14 <__rc4>
    15fd: a9 00        	lda	#$0
    15ff: 6a           	ror
    1600: 85 1a        	sta	$1a                     ; 0x1a <__rc10>
    1602: b2 12        	lda	($12)                   ; 0x12 <__zp_bss_size>
    1604: 85 14        	sta	$14                     ; 0x14 <__rc4>
    1606: a4 19        	ldy	$19                     ; 0x19 <__rc9>
    1608: b1 12        	lda	($12),y                 ; 0x12 <__zp_bss_size>
    160a: a6 12        	ldx	$12                     ; 0x12 <__zp_bss_size>
    160c: 86 50        	stx	$50                     ; 0x50 <__rc31+0x21>
    160e: a6 13        	ldx	$13                     ; 0x13 <__rc3>
    1610: 86 51        	stx	$51                     ; 0x51 <__rc31+0x22>
    1612: a6 42        	ldx	$42                     ; 0x42 <__rc31+0x13>
    1614: 86 12        	stx	$12                     ; 0x12 <__zp_bss_size>
    1616: 64 43        	stz	$43                     ; 0x43 <__rc31+0x14>
    1618: 64 13        	stz	$13                     ; 0x13 <__rc3>
    161a: aa           	tax
    161b: a5 14        	lda	$14                     ; 0x14 <__rc4>
    161d: 20 0e 31     	jsr	$310e <__mulhi3>
    1620: 86 16        	stx	$16                     ; 0x16 <__rc6>
    1622: 18           	clc
    1623: a6 4c        	ldx	$4c                     ; 0x4c <__rc31+0x1d>
    1625: 86 46        	stx	$46                     ; 0x46 <__rc31+0x17>
    1627: a6 4d        	ldx	$4d                     ; 0x4d <__rc31+0x1e>
    1629: 86 47        	stx	$47                     ; 0x47 <__rc31+0x18>
    162b: 72 46        	adc	($46)                   ; 0x46 <__rc31+0x17>
    162d: aa           	tax
    162e: a0 01        	ldy	#$1
    1630: a5 16        	lda	$16                     ; 0x16 <__rc6>
    1632: 71 46        	adc	($46),y                 ; 0x46 <__rc31+0x17>
    1634: 85 12        	sta	$12                     ; 0x12 <__zp_bss_size>
    1636: 8a           	txa
    1637: 92 46        	sta	($46)                   ; 0x46 <__rc31+0x17>
    1639: a5 12        	lda	$12                     ; 0x12 <__zp_bss_size>
    163b: 91 46        	sta	($46),y                 ; 0x46 <__rc31+0x17>
    163d: a2 01        	ldx	#$1
    163f: 86 16        	stx	$16                     ; 0x16 <__rc6>
    1641: a5 46        	lda	$46                     ; 0x46 <__rc31+0x17>
    1643: 18           	clc
    1644: 69 0d        	adc	#$d
    1646: 85 12        	sta	$12                     ; 0x12 <__zp_bss_size>
    1648: a5 47        	lda	$47                     ; 0x47 <__rc31+0x18>
    164a: 69 00        	adc	#$0
    164c: a0 0d        	ldy	#$d
    164e: a6 12        	ldx	$12                     ; 0x12 <__zp_bss_size>
    1650: 86 44        	stx	$44                     ; 0x44 <__rc31+0x15>
    1652: 85 45        	sta	$45                     ; 0x45 <__rc31+0x16>
    1654: b1 46        	lda	($46),y                 ; 0x46 <__rc31+0x17>
    1656: 85 14        	sta	$14                     ; 0x14 <__rc4>
    1658: a4 16        	ldy	$16                     ; 0x16 <__rc6>
    165a: b1 44        	lda	($44),y                 ; 0x44 <__rc31+0x15>
    165c: a6 42        	ldx	$42                     ; 0x42 <__rc31+0x13>
    165e: 86 12        	stx	$12                     ; 0x12 <__zp_bss_size>
    1660: 64 13        	stz	$13                     ; 0x13 <__rc3>
    1662: aa           	tax
    1663: a5 14        	lda	$14                     ; 0x14 <__rc4>
    1665: 20 0e 31     	jsr	$310e <__mulhi3>
    1668: 85 17        	sta	$17                     ; 0x17 <__rc7>
    166a: 86 18        	stx	$18                     ; 0x18 <__rc8>
    166c: 18           	clc
    166d: a5 46        	lda	$46                     ; 0x46 <__rc31+0x17>
    166f: 69 02        	adc	#$2
    1671: 85 14        	sta	$14                     ; 0x14 <__rc4>
    1673: a5 47        	lda	$47                     ; 0x47 <__rc31+0x18>
    1675: 69 00        	adc	#$0
    1677: 85 15        	sta	$15                     ; 0x15 <__rc5>
    1679: 18           	clc
    167a: a2 02        	ldx	#$2
    167c: 86 16        	stx	$16                     ; 0x16 <__rc6>
    167e: a4 16        	ldy	$16                     ; 0x16 <__rc6>
    1680: a5 17        	lda	$17                     ; 0x17 <__rc7>
    1682: 71 46        	adc	($46),y                 ; 0x46 <__rc31+0x17>
    1684: 85 19        	sta	$19                     ; 0x19 <__rc9>
    1686: a0 01        	ldy	#$1
    1688: a5 18        	lda	$18                     ; 0x18 <__rc8>
    168a: 71 14        	adc	($14),y                 ; 0x14 <__rc4>
    168c: 84 18        	sty	$18                     ; 0x18 <__rc8>
    168e: 85 17        	sta	$17                     ; 0x17 <__rc7>
    1690: a4 16        	ldy	$16                     ; 0x16 <__rc6>
    1692: a5 19        	lda	$19                     ; 0x19 <__rc9>
    1694: 91 46        	sta	($46),y                 ; 0x46 <__rc31+0x17>
    1696: a5 17        	lda	$17                     ; 0x17 <__rc7>
    1698: a4 18        	ldy	$18                     ; 0x18 <__rc8>
    169a: 91 14        	sta	($14),y                 ; 0x14 <__rc4>
    169c: a9 00        	lda	#$0
    169e: a6 50        	ldx	$50                     ; 0x50 <__rc31+0x21>
    16a0: 86 14        	stx	$14                     ; 0x14 <__rc4>
    16a2: a6 51        	ldx	$51                     ; 0x51 <__rc31+0x22>
    16a4: 86 15        	stx	$15                     ; 0x15 <__rc5>
    16a6: 92 14        	sta	($14)                   ; 0x14 <__rc4>
    16a8: 91 14        	sta	($14),y                 ; 0x14 <__rc4>
    16aa: a2 01        	ldx	#$1
    16ac: 86 14        	stx	$14                     ; 0x14 <__rc4>
    16ae: a0 0d        	ldy	#$d
    16b0: 91 46        	sta	($46),y                 ; 0x46 <__rc31+0x17>
    16b2: a4 14        	ldy	$14                     ; 0x14 <__rc4>
    16b4: 91 44        	sta	($44),y                 ; 0x44 <__rc31+0x15>
    16b6: a9 03        	lda	#$3
    16b8: a6 48        	ldx	$48                     ; 0x48 <__rc31+0x19>
    16ba: d0 02        	bne	$16be <checkPads+0x574>
    16bc: a9 01        	lda	#$1
    16be: a0 0a        	ldy	#$a
    16c0: 91 46        	sta	($46),y                 ; 0x46 <__rc31+0x17>
    16c2: 84 14        	sty	$14                     ; 0x14 <__rc4>
    16c4: a0 13        	ldy	#$13
    16c6: a5 52        	lda	$52                     ; 0x52 <__rc31+0x23>
    16c8: 91 46        	sta	($46),y                 ; 0x46 <__rc31+0x17>
    16ca: 64 31        	stz	$31                     ; 0x31 <_col>
    16cc: 9c 14 d0     	stz	$d014                   ; 0xd014 <__heap_start+0x77a8>
    16cf: 9c 15 d0     	stz	$d015                   ; 0xd015 <__heap_start+0x77a9>
    16d2: 64 32        	stz	$32                     ; 0x32 <_row>
    16d4: 9c 16 d0     	stz	$d016                   ; 0xd016 <__heap_start+0x77aa>
    16d7: 9c 17 d0     	stz	$d017                   ; 0xd017 <__heap_start+0x77ab>
    16da: a6 4e        	ldx	$4e                     ; 0x4e <__rc31+0x1f>
    16dc: 86 12        	stx	$12                     ; 0x12 <__zp_bss_size>
    16de: a6 4f        	ldx	$4f                     ; 0x4f <__rc31+0x20>
    16e0: 86 13        	stx	$13                     ; 0x13 <__rc3>
    16e2: b1 12        	lda	($12),y                 ; 0x12 <__zp_bss_size>
    16e4: 85 17        	sta	$17                     ; 0x17 <__rc7>
    16e6: a4 14        	ldy	$14                     ; 0x14 <__rc4>
    16e8: b1 12        	lda	($12),y                 ; 0x12 <__zp_bss_size>
    16ea: 85 16        	sta	$16                     ; 0x16 <__rc6>
    16ec: a2 01        	ldx	#$1
    16ee: 86 30        	stx	$30                     ; 0x30 <_ccolor>
    16f0: a0 01        	ldy	#$1
    16f2: a6 54        	ldx	$54                     ; 0x54 <__rc31+0x25>
    16f4: 8a           	txa
    16f5: 18           	clc
    16f6: 69 02        	adc	#$2
    16f8: 85 14        	sta	$14                     ; 0x14 <__rc4>
    16fa: a5 53        	lda	$53                     ; 0x53 <__rc31+0x24>
    16fc: 69 00        	adc	#$0
    16fe: 85 15        	sta	$15                     ; 0x15 <__rc5>
    1700: b2 12        	lda	($12)                   ; 0x12 <__zp_bss_size>
    1702: 85 18        	sta	$18                     ; 0x18 <__rc8>
    1704: b1 12        	lda	($12),y                 ; 0x12 <__zp_bss_size>
    1706: 84 1a        	sty	$1a                     ; 0x1a <__rc10>
    1708: 85 19        	sta	$19                     ; 0x19 <__rc9>
    170a: c8           	iny
    170b: b1 12        	lda	($12),y                 ; 0x12 <__zp_bss_size>
    170d: 84 1b        	sty	$1b                     ; 0x1b <__rc11>
    170f: 85 13        	sta	$13                     ; 0x13 <__rc3>
    1711: a4 1a        	ldy	$1a                     ; 0x1a <__rc10>
    1713: b1 14        	lda	($14),y                 ; 0x14 <__rc4>
    1715: 85 12        	sta	$12                     ; 0x12 <__zp_bss_size>
    1717: a2 01        	ldx	#$1
    1719: 86 14        	stx	$14                     ; 0x14 <__rc4>
    171b: a5 18        	lda	$18                     ; 0x18 <__rc8>
    171d: a4 1b        	ldy	$1b                     ; 0x1b <__rc11>
    171f: 91 10        	sta	($10),y                 ; 0x10 <__rc0>
    1721: a0 03        	ldy	#$3
    1723: a5 19        	lda	$19                     ; 0x19 <__rc9>
    1725: 91 10        	sta	($10),y                 ; 0x10 <__rc0>
    1727: a5 4b        	lda	$4b                     ; 0x4b <__rc31+0x1c>
    1729: 92 10        	sta	($10)                   ; 0x10 <__rc0>
    172b: a9 00        	lda	#$0
    172d: a4 14        	ldy	$14                     ; 0x14 <__rc4>
    172f: 91 10        	sta	($10),y                 ; 0x10 <__rc0>
    1731: a0 04        	ldy	#$4
    1733: a5 13        	lda	$13                     ; 0x13 <__rc3>
    1735: 91 10        	sta	($10),y                 ; 0x10 <__rc0>
    1737: c8           	iny
    1738: a5 12        	lda	$12                     ; 0x12 <__zp_bss_size>
    173a: 91 10        	sta	($10),y                 ; 0x10 <__rc0>
    173c: c8           	iny
    173d: a5 17        	lda	$17                     ; 0x17 <__rc7>
    173f: 91 10        	sta	($10),y                 ; 0x10 <__rc0>
    1741: c8           	iny
    1742: a9 00        	lda	#$0
    1744: 91 10        	sta	($10),y                 ; 0x10 <__rc0>
    1746: c8           	iny
    1747: a5 16        	lda	$16                     ; 0x16 <__rc6>
    1749: 91 10        	sta	($10),y                 ; 0x10 <__rc0>
    174b: c8           	iny
    174c: a9 00        	lda	#$0
    174e: 91 10        	sta	($10),y                 ; 0x10 <__rc0>
    1750: 20 e5 1e     	jsr	$1ee5 <printf>
    1753: 18           	clc
    1754: a5 10        	lda	$10                     ; 0x10 <__rc0>
    1756: 69 0a        	adc	#$a
    1758: 85 10        	sta	$10                     ; 0x10 <__rc0>
    175a: a5 11        	lda	$11                     ; 0x11 <__rc1>
    175c: 69 00        	adc	#$0
    175e: 85 11        	sta	$11                     ; 0x11 <__rc1>
    1760: 60           	rts

00001761 <updateFrames>:
    1761: a9 d9        	lda	#$d9
    1763: a2 01        	ldx	#$1
    1765: 64 14        	stz	$14                     ; 0x14 <__rc4>
    1767: 86 12        	stx	$12                     ; 0x12 <__zp_bss_size>
    1769: a6 12        	ldx	$12                     ; 0x12 <__zp_bss_size>
    176b: 86 18        	stx	$18                     ; 0x18 <__rc8>
    176d: 85 16        	sta	$16                     ; 0x16 <__rc6>
    176f: 85 13        	sta	$13                     ; 0x13 <__rc3>
    1771: a6 14        	ldx	$14                     ; 0x14 <__rc4>
    1773: 86 17        	stx	$17                     ; 0x17 <__rc7>
    1775: a6 14        	ldx	$14                     ; 0x14 <__rc4>
    1777: bd 90 56     	lda	$5690,x                 ; 0x5690 <spriteStatuses+0x6>
    177a: bc 91 56     	ldy	$5691,x                 ; 0x5691 <spriteStatuses+0x7>
    177d: 85 14        	sta	$14                     ; 0x14 <__rc4>
    177f: 85 1a        	sta	$1a                     ; 0x1a <__rc10>
    1781: a9 00        	lda	#$0
    1783: 18           	clc
    1784: 65 14        	adc	$14                     ; 0x14 <__rc4>
    1786: 98           	tya
    1787: 7d 94 56     	adc	$5694,x                 ; 0x5694 <spriteStatuses+0xa>
    178a: 85 19        	sta	$19                     ; 0x19 <__rc9>
    178c: a9 00        	lda	#$0
    178e: 7d 92 56     	adc	$5692,x                 ; 0x5692 <spriteStatuses+0x8>
    1791: a8           	tay
    1792: a5 1a        	lda	$1a                     ; 0x1a <__rc10>
    1794: 92 12        	sta	($12)                   ; 0x12 <__zp_bss_size>
    1796: a5 12        	lda	$12                     ; 0x12 <__zp_bss_size>
    1798: 5a           	phy
    1799: a4 16        	ldy	$16                     ; 0x16 <__rc6>
    179b: 84 12        	sty	$12                     ; 0x12 <__zp_bss_size>
    179d: 7a           	ply
    179e: 1a           	inc
    179f: d0 02        	bne	$17a3 <updateFrames+0x42>
    17a1: e6 12        	inc	$12                     ; 0x12 <__zp_bss_size>
    17a3: 85 14        	sta	$14                     ; 0x14 <__rc4>
    17a5: a5 12        	lda	$12                     ; 0x12 <__zp_bss_size>
    17a7: 85 15        	sta	$15                     ; 0x15 <__rc5>
    17a9: a5 19        	lda	$19                     ; 0x19 <__rc9>
    17ab: 92 14        	sta	($14)                   ; 0x14 <__rc4>
    17ad: 18           	clc
    17ae: a5 18        	lda	$18                     ; 0x18 <__rc8>
    17b0: 69 02        	adc	#$2
    17b2: 85 12        	sta	$12                     ; 0x12 <__zp_bss_size>
    17b4: a5 16        	lda	$16                     ; 0x16 <__rc6>
    17b6: 69 00        	adc	#$0
    17b8: 85 13        	sta	$13                     ; 0x13 <__rc3>
    17ba: 98           	tya
    17bb: 92 12        	sta	($12)                   ; 0x12 <__zp_bss_size>
    17bd: bc 95 56     	ldy	$5695,x                 ; 0x5695 <spriteStatuses+0xb>
    17c0: bd 96 56     	lda	$5696,x                 ; 0x5696 <spriteStatuses+0xc>
    17c3: 85 12        	sta	$12                     ; 0x12 <__zp_bss_size>
    17c5: 18           	clc
    17c6: 98           	tya
    17c7: 7d 8a 56     	adc	$568a,x                 ; 0x568a <spriteStatuses>
    17ca: a8           	tay
    17cb: a5 12        	lda	$12                     ; 0x12 <__zp_bss_size>
    17cd: 7d 8b 56     	adc	$568b,x                 ; 0x568b <spriteStatuses+0x1>
    17d0: 85 15        	sta	$15                     ; 0x15 <__rc5>
    17d2: 98           	tya
    17d3: 9d 8a 56     	sta	$568a,x                 ; 0x568a <spriteStatuses>
    17d6: 84 1a        	sty	$1a                     ; 0x1a <__rc10>
    17d8: a5 15        	lda	$15                     ; 0x15 <__rc5>
    17da: 9d 8b 56     	sta	$568b,x                 ; 0x568b <spriteStatuses+0x1>
    17dd: bc 97 56     	ldy	$5697,x                 ; 0x5697 <spriteStatuses+0xd>
    17e0: bd 98 56     	lda	$5698,x                 ; 0x5698 <spriteStatuses+0xe>
    17e3: 85 12        	sta	$12                     ; 0x12 <__zp_bss_size>
    17e5: 18           	clc
    17e6: 98           	tya
    17e7: 7d 8c 56     	adc	$568c,x                 ; 0x568c <spriteStatuses+0x2>
    17ea: a8           	tay
    17eb: a5 12        	lda	$12                     ; 0x12 <__zp_bss_size>
    17ed: 7d 8d 56     	adc	$568d,x                 ; 0x568d <spriteStatuses+0x3>
    17f0: 85 14        	sta	$14                     ; 0x14 <__rc4>
    17f2: 98           	tya
    17f3: 9d 8c 56     	sta	$568c,x                 ; 0x568c <spriteStatuses+0x2>
    17f6: 84 19        	sty	$19                     ; 0x19 <__rc9>
    17f8: a5 14        	lda	$14                     ; 0x14 <__rc4>
    17fa: 9d 8d 56     	sta	$568d,x                 ; 0x568d <spriteStatuses+0x3>
    17fd: 18           	clc
    17fe: a5 18        	lda	$18                     ; 0x18 <__rc8>
    1800: 69 03        	adc	#$3
    1802: 85 12        	sta	$12                     ; 0x12 <__zp_bss_size>
    1804: a5 16        	lda	$16                     ; 0x16 <__rc6>
    1806: 69 00        	adc	#$0
    1808: 85 13        	sta	$13                     ; 0x13 <__rc3>
    180a: a5 1a        	lda	$1a                     ; 0x1a <__rc10>
    180c: 92 12        	sta	($12)                   ; 0x12 <__zp_bss_size>
    180e: a5 15        	lda	$15                     ; 0x15 <__rc5>
    1810: a0 01        	ldy	#$1
    1812: 91 12        	sta	($12),y                 ; 0x12 <__zp_bss_size>
    1814: 18           	clc
    1815: a5 18        	lda	$18                     ; 0x18 <__rc8>
    1817: 69 05        	adc	#$5
    1819: 85 12        	sta	$12                     ; 0x12 <__zp_bss_size>
    181b: a5 16        	lda	$16                     ; 0x16 <__rc6>
    181d: 69 00        	adc	#$0
    181f: 85 13        	sta	$13                     ; 0x13 <__rc3>
    1821: a5 19        	lda	$19                     ; 0x19 <__rc9>
    1823: 92 12        	sta	($12)                   ; 0x12 <__zp_bss_size>
    1825: a5 14        	lda	$14                     ; 0x14 <__rc4>
    1827: 91 12        	sta	($12),y                 ; 0x12 <__zp_bss_size>
    1829: 18           	clc
    182a: a5 17        	lda	$17                     ; 0x17 <__rc7>
    182c: 69 18        	adc	#$18
    182e: aa           	tax
    182f: 18           	clc
    1830: a5 18        	lda	$18                     ; 0x18 <__rc8>
    1832: 69 08        	adc	#$8
    1834: 85 12        	sta	$12                     ; 0x12 <__zp_bss_size>
    1836: a5 16        	lda	$16                     ; 0x16 <__rc6>
    1838: 69 00        	adc	#$0
    183a: 86 14        	stx	$14                     ; 0x14 <__rc4>
    183c: e0 78        	cpx	#$78
    183e: f0 03        	beq	$1843 <updateFrames+0xe2>
    1840: 4c 69 17     	jmp	$1769 <updateFrames+0x8>
    1843: a0 51        	ldy	#$51
    1845: a2 7a        	ldx	#$7a
    1847: 86 12        	stx	$12                     ; 0x12 <__zp_bss_size>
    1849: a2 57        	ldx	#$57
    184b: 86 13        	stx	$13                     ; 0x13 <__rc3>
    184d: a2 d9        	ldx	#$d9
    184f: 84 14        	sty	$14                     ; 0x14 <__rc4>
    1851: 86 1c        	stx	$1c                     ; 0x1c <__rc12>
    1853: 86 15        	stx	$15                     ; 0x15 <__rc5>
    1855: a6 12        	ldx	$12                     ; 0x12 <__zp_bss_size>
    1857: 86 1a        	stx	$1a                     ; 0x1a <__rc10>
    1859: a6 13        	ldx	$13                     ; 0x13 <__rc3>
    185b: 86 1b        	stx	$1b                     ; 0x1b <__rc11>
    185d: 18           	clc
    185e: a5 12        	lda	$12                     ; 0x12 <__zp_bss_size>
    1860: 69 06        	adc	#$6
    1862: 85 16        	sta	$16                     ; 0x16 <__rc6>
    1864: 84 19        	sty	$19                     ; 0x19 <__rc9>
    1866: a5 13        	lda	$13                     ; 0x13 <__rc3>
    1868: 69 00        	adc	#$0
    186a: 85 17        	sta	$17                     ; 0x17 <__rc7>
    186c: a0 06        	ldy	#$6
    186e: b1 12        	lda	($12),y                 ; 0x12 <__zp_bss_size>
    1870: aa           	tax
    1871: a0 01        	ldy	#$1
    1873: b1 16        	lda	($16),y                 ; 0x16 <__rc6>
    1875: 85 1e        	sta	$1e                     ; 0x1e <__rc14>
    1877: 84 1d        	sty	$1d                     ; 0x1d <__rc13>
    1879: 86 18        	stx	$18                     ; 0x18 <__rc8>
    187b: a9 00        	lda	#$0
    187d: 18           	clc
    187e: 65 18        	adc	$18                     ; 0x18 <__rc8>
    1880: a0 0a        	ldy	#$a
    1882: a5 1e        	lda	$1e                     ; 0x1e <__rc14>
    1884: 71 12        	adc	($12),y                 ; 0x12 <__zp_bss_size>
    1886: 85 18        	sta	$18                     ; 0x18 <__rc8>
    1888: a9 00        	lda	#$0
    188a: a0 02        	ldy	#$2
    188c: 71 16        	adc	($16),y                 ; 0x16 <__rc6>
    188e: 85 16        	sta	$16                     ; 0x16 <__rc6>
    1890: 84 17        	sty	$17                     ; 0x17 <__rc7>
    1892: 8a           	txa
    1893: 92 14        	sta	($14)                   ; 0x14 <__rc4>
    1895: a6 19        	ldx	$19                     ; 0x19 <__rc9>
    1897: a5 1c        	lda	$1c                     ; 0x1c <__rc12>
    1899: e8           	inx
    189a: d0 01        	bne	$189d <updateFrames+0x13c>
    189c: 1a           	inc
    189d: 86 14        	stx	$14                     ; 0x14 <__rc4>
    189f: 85 15        	sta	$15                     ; 0x15 <__rc5>
    18a1: a5 18        	lda	$18                     ; 0x18 <__rc8>
    18a3: 92 14        	sta	($14)                   ; 0x14 <__rc4>
    18a5: 18           	clc
    18a6: a5 19        	lda	$19                     ; 0x19 <__rc9>
    18a8: 69 02        	adc	#$2
    18aa: 85 14        	sta	$14                     ; 0x14 <__rc4>
    18ac: a5 1c        	lda	$1c                     ; 0x1c <__rc12>
    18ae: 69 00        	adc	#$0
    18b0: 85 15        	sta	$15                     ; 0x15 <__rc5>
    18b2: a5 16        	lda	$16                     ; 0x16 <__rc6>
    18b4: 92 14        	sta	($14)                   ; 0x14 <__rc4>
    18b6: b2 12        	lda	($12)                   ; 0x12 <__zp_bss_size>
    18b8: 85 18        	sta	$18                     ; 0x18 <__rc8>
    18ba: 18           	clc
    18bb: a5 12        	lda	$12                     ; 0x12 <__zp_bss_size>
    18bd: 69 02        	adc	#$2
    18bf: 85 14        	sta	$14                     ; 0x14 <__rc4>
    18c1: a5 13        	lda	$13                     ; 0x13 <__rc3>
    18c3: 69 00        	adc	#$0
    18c5: 85 15        	sta	$15                     ; 0x15 <__rc5>
    18c7: 18           	clc
    18c8: a5 19        	lda	$19                     ; 0x19 <__rc9>
    18ca: 69 03        	adc	#$3
    18cc: 85 16        	sta	$16                     ; 0x16 <__rc6>
    18ce: a5 1c        	lda	$1c                     ; 0x1c <__rc12>
    18d0: 69 00        	adc	#$0
    18d2: aa           	tax
    18d3: a4 1d        	ldy	$1d                     ; 0x1d <__rc13>
    18d5: b1 12        	lda	($12),y                 ; 0x12 <__zp_bss_size>
    18d7: 84 1f        	sty	$1f                     ; 0x1f <__rc15>
    18d9: 85 1e        	sta	$1e                     ; 0x1e <__rc14>
    18db: a4 17        	ldy	$17                     ; 0x17 <__rc7>
    18dd: b1 12        	lda	($12),y                 ; 0x12 <__zp_bss_size>
    18df: 85 1d        	sta	$1d                     ; 0x1d <__rc13>
    18e1: 86 17        	stx	$17                     ; 0x17 <__rc7>
    18e3: a4 1f        	ldy	$1f                     ; 0x1f <__rc15>
    18e5: b1 14        	lda	($14),y                 ; 0x14 <__rc4>
    18e7: 85 14        	sta	$14                     ; 0x14 <__rc4>
    18e9: a5 18        	lda	$18                     ; 0x18 <__rc8>
    18eb: 92 16        	sta	($16)                   ; 0x16 <__rc6>
    18ed: a5 1e        	lda	$1e                     ; 0x1e <__rc14>
    18ef: 91 16        	sta	($16),y                 ; 0x16 <__rc6>
    18f1: 18           	clc
    18f2: a5 19        	lda	$19                     ; 0x19 <__rc9>
    18f4: 69 05        	adc	#$5
    18f6: 85 12        	sta	$12                     ; 0x12 <__zp_bss_size>
    18f8: a5 1c        	lda	$1c                     ; 0x1c <__rc12>
    18fa: 69 00        	adc	#$0
    18fc: 85 13        	sta	$13                     ; 0x13 <__rc3>
    18fe: a5 1d        	lda	$1d                     ; 0x1d <__rc13>
    1900: 92 12        	sta	($12)                   ; 0x12 <__zp_bss_size>
    1902: a5 14        	lda	$14                     ; 0x14 <__rc4>
    1904: 91 12        	sta	($12),y                 ; 0x12 <__zp_bss_size>
    1906: 18           	clc
    1907: a5 19        	lda	$19                     ; 0x19 <__rc9>
    1909: 69 08        	adc	#$8
    190b: a8           	tay
    190c: a5 1c        	lda	$1c                     ; 0x1c <__rc12>
    190e: 69 00        	adc	#$0
    1910: aa           	tax
    1911: 18           	clc
    1912: a5 1a        	lda	$1a                     ; 0x1a <__rc10>
    1914: 69 18        	adc	#$18
    1916: 85 12        	sta	$12                     ; 0x12 <__zp_bss_size>
    1918: a5 1b        	lda	$1b                     ; 0x1b <__rc11>
    191a: 69 00        	adc	#$0
    191c: 85 13        	sta	$13                     ; 0x13 <__rc3>
    191e: c0 79        	cpy	#$79
    1920: f0 03        	beq	$1925 <updateFrames+0x1c4>
    1922: 4c 4f 18     	jmp	$184f <updateFrames+0xee>
    1925: 60           	rts

00001926 <mySpriteDefine>:
    1926: 85 4e        	sta	$4e                     ; 0x4e <__rc31+0x1f>
    1928: 86 45        	stx	$45                     ; 0x45 <__rc31+0x16>
    192a: a5 1b        	lda	$1b                     ; 0x1b <__rc11>
    192c: 29 01        	and	#$1
    192e: 85 4b        	sta	$4b                     ; 0x4b <__rc31+0x1c>
    1930: 18           	clc
    1931: 8a           	txa
    1932: 65 15        	adc	$15                     ; 0x15 <__rc5>
    1934: a8           	tay
    1935: a2 00        	ldx	#$0
    1937: 86 43        	stx	$43                     ; 0x43 <__rc31+0x14>
    1939: a5 12        	lda	$12                     ; 0x12 <__zp_bss_size>
    193b: 69 00        	adc	#$0
    193d: aa           	tax
    193e: 18           	clc
    193f: 98           	tya
    1940: 69 00        	adc	#$0
    1942: 85 1f        	sta	$1f                     ; 0x1f <__rc15>
    1944: 8a           	txa
    1945: 69 01        	adc	#$1
    1947: a8           	tay
    1948: a9 00        	lda	#$0
    194a: a6 4e        	ldx	$4e                     ; 0x4e <__rc31+0x1f>
    194c: 86 49        	stx	$49                     ; 0x49 <__rc31+0x1a>
    194e: 06 49        	asl	$49                     ; 0x49 <__rc31+0x1a>
    1950: 2a           	rol
    1951: 06 49        	asl	$49                     ; 0x49 <__rc31+0x1a>
    1953: 2a           	rol
    1954: a6 49        	ldx	$49                     ; 0x49 <__rc31+0x1a>
    1956: 86 46        	stx	$46                     ; 0x46 <__rc31+0x17>
    1958: 06 46        	asl	$46                     ; 0x46 <__rc31+0x17>
    195a: 2a           	rol
    195b: 85 42        	sta	$42                     ; 0x42 <__rc31+0x13>
    195d: 85 22        	sta	$22                     ; 0x22 <__rc18>
    195f: 09 d9        	ora	#$d9
    1961: 85 47        	sta	$47                     ; 0x47 <__rc31+0x18>
    1963: a5 46        	lda	$46                     ; 0x46 <__rc31+0x17>
    1965: 09 01        	ora	#$1
    1967: 85 1c        	sta	$1c                     ; 0x1c <__rc12>
    1969: a5 22        	lda	$22                     ; 0x22 <__rc18>
    196b: 09 d9        	ora	#$d9
    196d: 85 1d        	sta	$1d                     ; 0x1d <__rc13>
    196f: a9 40        	lda	#$40
    1971: a6 4e        	ldx	$4e                     ; 0x4e <__rc31+0x1f>
    1973: 9d 4a 56     	sta	$564a,x                 ; 0x564a <_spriteCtl>
    1976: 86 4a        	stx	$4a                     ; 0x4a <__rc31+0x1b>
    1978: 92 46        	sta	($46)                   ; 0x46 <__rc31+0x17>
    197a: aa           	tax
    197b: 86 1e        	stx	$1e                     ; 0x1e <__rc14>
    197d: a5 1f        	lda	$1f                     ; 0x1f <__rc15>
    197f: 92 1c        	sta	($1c)                   ; 0x1c <__rc12>
    1981: a5 46        	lda	$46                     ; 0x46 <__rc31+0x17>
    1983: 09 02        	ora	#$2
    1985: 85 1c        	sta	$1c                     ; 0x1c <__rc12>
    1987: a5 22        	lda	$22                     ; 0x22 <__rc18>
    1989: 09 d9        	ora	#$d9
    198b: 85 1d        	sta	$1d                     ; 0x1d <__rc13>
    198d: 98           	tya
    198e: 92 1c        	sta	($1c)                   ; 0x1c <__rc12>
    1990: a5 46        	lda	$46                     ; 0x46 <__rc31+0x17>
    1992: 09 03        	ora	#$3
    1994: 85 1c        	sta	$1c                     ; 0x1c <__rc12>
    1996: a5 22        	lda	$22                     ; 0x22 <__rc18>
    1998: 09 d9        	ora	#$d9
    199a: 85 1d        	sta	$1d                     ; 0x1d <__rc13>
    199c: 18           	clc
    199d: a6 4e        	ldx	$4e                     ; 0x4e <__rc31+0x1f>
    199f: 8a           	txa
    19a0: 69 0a        	adc	#$a
    19a2: aa           	tax
    19a3: 18           	clc
    19a4: a5 45        	lda	$45                     ; 0x45 <__rc31+0x16>
    19a6: 69 00        	adc	#$0
    19a8: a5 12        	lda	$12                     ; 0x12 <__zp_bss_size>
    19aa: 69 0a        	adc	#$a
    19ac: 85 44        	sta	$44                     ; 0x44 <__rc31+0x15>
    19ae: 8a           	txa
    19af: 0a           	asl
    19b0: 64 1f        	stz	$1f                     ; 0x1f <__rc15>
    19b2: 26 1f        	rol	$1f                     ; 0x1f <__rc15>
    19b4: 0a           	asl
    19b5: 85 48        	sta	$48                     ; 0x48 <__rc31+0x19>
    19b7: 26 1f        	rol	$1f                     ; 0x1f <__rc15>
    19b9: a0 01        	ldy	#$1
    19bb: 98           	tya
    19bc: 84 1b        	sty	$1b                     ; 0x1b <__rc11>
    19be: 92 1c        	sta	($1c)                   ; 0x1c <__rc12>
    19c0: 84 4c        	sty	$4c                     ; 0x4c <__rc31+0x1d>
    19c2: 06 48        	asl	$48                     ; 0x48 <__rc31+0x19>
    19c4: a5 1f        	lda	$1f                     ; 0x1f <__rc15>
    19c6: 0a           	asl
    19c7: 09 d9        	ora	#$d9
    19c9: a4 48        	ldy	$48                     ; 0x48 <__rc31+0x19>
    19cb: 84 1c        	sty	$1c                     ; 0x1c <__rc12>
    19cd: 85 1d        	sta	$1d                     ; 0x1d <__rc13>
    19cf: a8           	tay
    19d0: a5 1e        	lda	$1e                     ; 0x1e <__rc14>
    19d2: 9d 4a 56     	sta	$564a,x                 ; 0x564a <_spriteCtl>
    19d5: 92 1c        	sta	($1c)                   ; 0x1c <__rc12>
    19d7: a5 48        	lda	$48                     ; 0x48 <__rc31+0x19>
    19d9: 09 01        	ora	#$1
    19db: 85 22        	sta	$22                     ; 0x22 <__rc18>
    19dd: a5 48        	lda	$48                     ; 0x48 <__rc31+0x19>
    19df: 09 02        	ora	#$2
    19e1: 85 1e        	sta	$1e                     ; 0x1e <__rc14>
    19e3: 84 23        	sty	$23                     ; 0x23 <__rc19>
    19e5: a5 45        	lda	$45                     ; 0x45 <__rc31+0x16>
    19e7: 92 22        	sta	($22)                   ; 0x22 <__rc18>
    19e9: 84 1f        	sty	$1f                     ; 0x1f <__rc15>
    19eb: a5 44        	lda	$44                     ; 0x44 <__rc31+0x15>
    19ed: 92 1e        	sta	($1e)                   ; 0x1e <__rc14>
    19ef: a5 48        	lda	$48                     ; 0x48 <__rc31+0x19>
    19f1: 09 03        	ora	#$3
    19f3: 85 1e        	sta	$1e                     ; 0x1e <__rc14>
    19f5: a5 46        	lda	$46                     ; 0x46 <__rc31+0x17>
    19f7: 0a           	asl
    19f8: a4 42        	ldy	$42                     ; 0x42 <__rc31+0x13>
    19fa: 84 22        	sty	$22                     ; 0x22 <__rc18>
    19fc: 26 22        	rol	$22                     ; 0x22 <__rc18>
    19fe: a4 43        	ldy	$43                     ; 0x43 <__rc31+0x14>
    1a00: c0 01        	cpy	#$1
    1a02: 65 46        	adc	$46                     ; 0x46 <__rc31+0x17>
    1a04: 85 23        	sta	$23                     ; 0x23 <__rc19>
    1a06: a5 22        	lda	$22                     ; 0x22 <__rc18>
    1a08: 65 42        	adc	$42                     ; 0x42 <__rc31+0x13>
    1a0a: 85 22        	sta	$22                     ; 0x22 <__rc18>
    1a0c: a4 43        	ldy	$43                     ; 0x43 <__rc31+0x14>
    1a0e: c0 01        	cpy	#$1
    1a10: a9 8a        	lda	#$8a
    1a12: 65 23        	adc	$23                     ; 0x23 <__rc19>
    1a14: 85 44        	sta	$44                     ; 0x44 <__rc31+0x15>
    1a16: a9 56        	lda	#$56
    1a18: 65 22        	adc	$22                     ; 0x22 <__rc18>
    1a1a: 85 48        	sta	$48                     ; 0x48 <__rc31+0x19>
    1a1c: a5 4c        	lda	$4c                     ; 0x4c <__rc31+0x1d>
    1a1e: 92 1e        	sta	($1e)                   ; 0x1e <__rc14>
    1a20: a4 44        	ldy	$44                     ; 0x44 <__rc31+0x15>
    1a22: 84 42        	sty	$42                     ; 0x42 <__rc31+0x13>
    1a24: a4 48        	ldy	$48                     ; 0x48 <__rc31+0x19>
    1a26: 84 43        	sty	$43                     ; 0x43 <__rc31+0x14>
    1a28: a0 04        	ldy	#$4
    1a2a: 98           	tya
    1a2b: 85 4d        	sta	$4d                     ; 0x4d <__rc31+0x1e>
    1a2d: a5 4c        	lda	$4c                     ; 0x4c <__rc31+0x1d>
    1a2f: 91 42        	sta	($42),y                 ; 0x42 <__rc31+0x13>
    1a31: 06 49        	asl	$49                     ; 0x49 <__rc31+0x1a>
    1a33: a5 49        	lda	$49                     ; 0x49 <__rc31+0x1a>
    1a35: 09 04        	ora	#$4
    1a37: 85 22        	sta	$22                     ; 0x22 <__rc18>
    1a39: a5 49        	lda	$49                     ; 0x49 <__rc31+0x1a>
    1a3b: 09 06        	ora	#$6
    1a3d: 85 1e        	sta	$1e                     ; 0x1e <__rc14>
    1a3f: a9 d9        	lda	#$d9
    1a41: 85 23        	sta	$23                     ; 0x23 <__rc19>
    1a43: 85 1f        	sta	$1f                     ; 0x1f <__rc15>
    1a45: a5 16        	lda	$16                     ; 0x16 <__rc6>
    1a47: 92 22        	sta	($22)                   ; 0x22 <__rc18>
    1a49: a5 17        	lda	$17                     ; 0x17 <__rc7>
    1a4b: a4 1b        	ldy	$1b                     ; 0x1b <__rc11>
    1a4d: 91 22        	sta	($22),y                 ; 0x22 <__rc18>
    1a4f: a5 18        	lda	$18                     ; 0x18 <__rc8>
    1a51: 92 1e        	sta	($1e)                   ; 0x1e <__rc14>
    1a53: a5 19        	lda	$19                     ; 0x19 <__rc9>
    1a55: 91 1e        	sta	($1e),y                 ; 0x1e <__rc14>
    1a57: a5 1a        	lda	$1a                     ; 0x1a <__rc10>
    1a59: a4 4a        	ldy	$4a                     ; 0x4a <__rc31+0x1b>
    1a5b: 19 4a 56     	ora	$564a,y                 ; 0x564a <_spriteCtl>
    1a5e: 92 46        	sta	($46)                   ; 0x46 <__rc31+0x17>
    1a60: a5 1a        	lda	$1a                     ; 0x1a <__rc10>
    1a62: 1d 4a 56     	ora	$564a,x                 ; 0x564a <_spriteCtl>
    1a65: 92 1c        	sta	($1c)                   ; 0x1c <__rc12>
    1a67: 18           	clc
    1a68: a5 16        	lda	$16                     ; 0x16 <__rc6>
    1a6a: 69 f0        	adc	#$f0
    1a6c: aa           	tax
    1a6d: a5 17        	lda	$17                     ; 0x17 <__rc7>
    1a6f: 69 ff        	adc	#$ff
    1a71: 85 1a        	sta	$1a                     ; 0x1a <__rc10>
    1a73: 8a           	txa
    1a74: 92 22        	sta	($22)                   ; 0x22 <__rc18>
    1a76: a4 1b        	ldy	$1b                     ; 0x1b <__rc11>
    1a78: a5 1a        	lda	$1a                     ; 0x1a <__rc10>
    1a7a: 91 22        	sta	($22),y                 ; 0x22 <__rc18>
    1a7c: a5 18        	lda	$18                     ; 0x18 <__rc8>
    1a7e: 92 1e        	sta	($1e)                   ; 0x1e <__rc14>
    1a80: a5 19        	lda	$19                     ; 0x19 <__rc9>
    1a82: 91 1e        	sta	($1e),y                 ; 0x1e <__rc14>
    1a84: 84 1c        	sty	$1c                     ; 0x1c <__rc12>
    1a86: a0 06        	ldy	#$6
    1a88: a5 45        	lda	$45                     ; 0x45 <__rc31+0x16>
    1a8a: 91 42        	sta	($42),y                 ; 0x42 <__rc31+0x13>
    1a8c: a0 0a        	ldy	#$a
    1a8e: a5 15        	lda	$15                     ; 0x15 <__rc5>
    1a90: 91 42        	sta	($42),y                 ; 0x42 <__rc31+0x13>
    1a92: a5 44        	lda	$44                     ; 0x44 <__rc31+0x15>
    1a94: 18           	clc
    1a95: 69 06        	adc	#$6
    1a97: 85 1a        	sta	$1a                     ; 0x1a <__rc10>
    1a99: a5 48        	lda	$48                     ; 0x48 <__rc31+0x19>
    1a9b: 69 00        	adc	#$0
    1a9d: 85 1b        	sta	$1b                     ; 0x1b <__rc11>
    1a9f: a0 02        	ldy	#$2
    1aa1: a5 13        	lda	$13                     ; 0x13 <__rc3>
    1aa3: 91 1a        	sta	($1a),y                 ; 0x1a <__rc10>
    1aa5: a5 18        	lda	$18                     ; 0x18 <__rc8>
    1aa7: 91 42        	sta	($42),y                 ; 0x42 <__rc31+0x13>
    1aa9: a0 11        	ldy	#$11
    1aab: a5 4e        	lda	$4e                     ; 0x4e <__rc31+0x1f>
    1aad: 91 42        	sta	($42),y                 ; 0x42 <__rc31+0x13>
    1aaf: a5 12        	lda	$12                     ; 0x12 <__zp_bss_size>
    1ab1: a4 1c        	ldy	$1c                     ; 0x1c <__rc12>
    1ab3: 91 1a        	sta	($1a),y                 ; 0x1a <__rc10>
    1ab5: a9 00        	lda	#$0
    1ab7: a0 0b        	ldy	#$b
    1ab9: 91 42        	sta	($42),y                 ; 0x42 <__rc31+0x13>
    1abb: a0 0d        	ldy	#$d
    1abd: 91 42        	sta	($42),y                 ; 0x42 <__rc31+0x13>
    1abf: a0 0f        	ldy	#$f
    1ac1: 91 42        	sta	($42),y                 ; 0x42 <__rc31+0x13>
    1ac3: a0 13        	ldy	#$13
    1ac5: 91 42        	sta	($42),y                 ; 0x42 <__rc31+0x13>
    1ac7: a0 03        	ldy	#$3
    1ac9: a5 14        	lda	$14                     ; 0x14 <__rc4>
    1acb: 91 1a        	sta	($1a),y                 ; 0x1a <__rc10>
    1acd: a5 44        	lda	$44                     ; 0x44 <__rc31+0x15>
    1acf: 18           	clc
    1ad0: 69 02        	adc	#$2
    1ad2: 85 12        	sta	$12                     ; 0x12 <__zp_bss_size>
    1ad4: a5 48        	lda	$48                     ; 0x48 <__rc31+0x19>
    1ad6: 69 00        	adc	#$0
    1ad8: 85 13        	sta	$13                     ; 0x13 <__rc3>
    1ada: a5 19        	lda	$19                     ; 0x19 <__rc9>
    1adc: a0 01        	ldy	#$1
    1ade: 91 12        	sta	($12),y                 ; 0x12 <__zp_bss_size>
    1ae0: a5 44        	lda	$44                     ; 0x44 <__rc31+0x15>
    1ae2: 18           	clc
    1ae3: 69 0b        	adc	#$b
    1ae5: 85 12        	sta	$12                     ; 0x12 <__zp_bss_size>
    1ae7: a5 48        	lda	$48                     ; 0x48 <__rc31+0x19>
    1ae9: 69 00        	adc	#$0
    1aeb: 85 13        	sta	$13                     ; 0x13 <__rc3>
    1aed: a6 44        	ldx	$44                     ; 0x44 <__rc31+0x15>
    1aef: 86 47        	stx	$47                     ; 0x47 <__rc31+0x18>
    1af1: a5 44        	lda	$44                     ; 0x44 <__rc31+0x15>
    1af3: 18           	clc
    1af4: 69 0d        	adc	#$d
    1af6: 85 14        	sta	$14                     ; 0x14 <__rc4>
    1af8: a6 48        	ldx	$48                     ; 0x48 <__rc31+0x19>
    1afa: 86 46        	stx	$46                     ; 0x46 <__rc31+0x17>
    1afc: a5 48        	lda	$48                     ; 0x48 <__rc31+0x19>
    1afe: 69 00        	adc	#$0
    1b00: 85 15        	sta	$15                     ; 0x15 <__rc5>
    1b02: a9 00        	lda	#$0
    1b04: 91 12        	sta	($12),y                 ; 0x12 <__zp_bss_size>
    1b06: 91 14        	sta	($14),y                 ; 0x14 <__rc4>
    1b08: a2 01        	ldx	#$1
    1b0a: 86 12        	stx	$12                     ; 0x12 <__zp_bss_size>
    1b0c: a0 05        	ldy	#$5
    1b0e: a2 05        	ldx	#$5
    1b10: 91 42        	sta	($42),y                 ; 0x42 <__rc31+0x13>
    1b12: a5 16        	lda	$16                     ; 0x16 <__rc6>
    1b14: 92 42        	sta	($42)                   ; 0x42 <__rc31+0x13>
    1b16: a5 17        	lda	$17                     ; 0x17 <__rc7>
    1b18: a4 12        	ldy	$12                     ; 0x12 <__zp_bss_size>
    1b1a: 91 42        	sta	($42),y                 ; 0x42 <__rc31+0x13>
    1b1c: a5 4b        	lda	$4b                     ; 0x4b <__rc31+0x1c>
    1b1e: d0 03        	bne	$1b23 <mySpriteDefine+0x1fd>
    1b20: 4c 95 1b     	jmp	$1b95 <mySpriteDefine+0x26f>
    1b23: a2 00        	ldx	#$0
    1b25: a9 02        	lda	#$2
    1b27: 20 f6 2d     	jsr	$2df6 <malloc>
    1b2a: a5 44        	lda	$44                     ; 0x44 <__rc31+0x15>
    1b2c: 18           	clc
    1b2d: 69 14        	adc	#$14
    1b2f: 85 48        	sta	$48                     ; 0x48 <__rc31+0x19>
    1b31: a5 46        	lda	$46                     ; 0x46 <__rc31+0x17>
    1b33: 69 00        	adc	#$0
    1b35: a0 14        	ldy	#$14
    1b37: 85 49        	sta	$49                     ; 0x49 <__rc31+0x1a>
    1b39: a5 12        	lda	$12                     ; 0x12 <__zp_bss_size>
    1b3b: 91 42        	sta	($42),y                 ; 0x42 <__rc31+0x13>
    1b3d: a2 14        	ldx	#$14
    1b3f: 86 4b        	stx	$4b                     ; 0x4b <__rc31+0x1c>
    1b41: a5 13        	lda	$13                     ; 0x13 <__rc3>
    1b43: a0 01        	ldy	#$1
    1b45: 91 48        	sta	($48),y                 ; 0x48 <__rc31+0x19>
    1b47: 84 45        	sty	$45                     ; 0x45 <__rc31+0x16>
    1b49: a2 00        	ldx	#$0
    1b4b: a9 02        	lda	#$2
    1b4d: 20 f6 2d     	jsr	$2df6 <malloc>
    1b50: a5 44        	lda	$44                     ; 0x44 <__rc31+0x15>
    1b52: 18           	clc
    1b53: 69 16        	adc	#$16
    1b55: 85 14        	sta	$14                     ; 0x14 <__rc4>
    1b57: a5 46        	lda	$46                     ; 0x46 <__rc31+0x17>
    1b59: 69 00        	adc	#$0
    1b5b: 85 15        	sta	$15                     ; 0x15 <__rc5>
    1b5d: a4 4b        	ldy	$4b                     ; 0x4b <__rc31+0x1c>
    1b5f: b1 42        	lda	($42),y                 ; 0x42 <__rc31+0x13>
    1b61: aa           	tax
    1b62: a0 16        	ldy	#$16
    1b64: a5 12        	lda	$12                     ; 0x12 <__zp_bss_size>
    1b66: 91 42        	sta	($42),y                 ; 0x42 <__rc31+0x13>
    1b68: 84 16        	sty	$16                     ; 0x16 <__rc6>
    1b6a: a5 13        	lda	$13                     ; 0x13 <__rc3>
    1b6c: a4 45        	ldy	$45                     ; 0x45 <__rc31+0x16>
    1b6e: 91 14        	sta	($14),y                 ; 0x14 <__rc4>
    1b70: 86 12        	stx	$12                     ; 0x12 <__zp_bss_size>
    1b72: b1 48        	lda	($48),y                 ; 0x48 <__rc31+0x19>
    1b74: 84 17        	sty	$17                     ; 0x17 <__rc7>
    1b76: 85 13        	sta	$13                     ; 0x13 <__rc3>
    1b78: a9 00        	lda	#$0
    1b7a: 92 12        	sta	($12)                   ; 0x12 <__zp_bss_size>
    1b7c: a4 16        	ldy	$16                     ; 0x16 <__rc6>
    1b7e: b1 42        	lda	($42),y                 ; 0x42 <__rc31+0x13>
    1b80: 85 12        	sta	$12                     ; 0x12 <__zp_bss_size>
    1b82: a4 17        	ldy	$17                     ; 0x17 <__rc7>
    1b84: b1 14        	lda	($14),y                 ; 0x14 <__rc4>
    1b86: 85 13        	sta	$13                     ; 0x13 <__rc3>
    1b88: a9 03        	lda	#$3
    1b8a: 92 12        	sta	($12)                   ; 0x12 <__zp_bss_size>
    1b8c: a2 07        	ldx	#$7
    1b8e: 86 16        	stx	$16                     ; 0x16 <__rc6>
    1b90: a2 01        	ldx	#$1
    1b92: 4c b7 1c     	jmp	$1cb7 <mySpriteDefine+0x391>
    1b95: 86 49        	stx	$49                     ; 0x49 <__rc31+0x1a>
    1b97: a2 00        	ldx	#$0
    1b99: a9 06        	lda	#$6
    1b9b: 20 f6 2d     	jsr	$2df6 <malloc>
    1b9e: a5 44        	lda	$44                     ; 0x44 <__rc31+0x15>
    1ba0: 18           	clc
    1ba1: 69 14        	adc	#$14
    1ba3: 85 4a        	sta	$4a                     ; 0x4a <__rc31+0x1b>
    1ba5: a5 48        	lda	$48                     ; 0x48 <__rc31+0x19>
    1ba7: 69 00        	adc	#$0
    1ba9: a0 14        	ldy	#$14
    1bab: 85 4b        	sta	$4b                     ; 0x4b <__rc31+0x1c>
    1bad: a5 12        	lda	$12                     ; 0x12 <__zp_bss_size>
    1baf: 91 42        	sta	($42),y                 ; 0x42 <__rc31+0x13>
    1bb1: a2 14        	ldx	#$14
    1bb3: 86 48        	stx	$48                     ; 0x48 <__rc31+0x19>
    1bb5: a5 13        	lda	$13                     ; 0x13 <__rc3>
    1bb7: a0 01        	ldy	#$1
    1bb9: 91 4a        	sta	($4a),y                 ; 0x4a <__rc31+0x1b>
    1bbb: 84 4c        	sty	$4c                     ; 0x4c <__rc31+0x1d>
    1bbd: a2 00        	ldx	#$0
    1bbf: a9 06        	lda	#$6
    1bc1: 20 f6 2d     	jsr	$2df6 <malloc>
    1bc4: a5 44        	lda	$44                     ; 0x44 <__rc31+0x15>
    1bc6: 18           	clc
    1bc7: 69 16        	adc	#$16
    1bc9: 85 14        	sta	$14                     ; 0x14 <__rc4>
    1bcb: a5 46        	lda	$46                     ; 0x46 <__rc31+0x17>
    1bcd: 69 00        	adc	#$0
    1bcf: 85 15        	sta	$15                     ; 0x15 <__rc5>
    1bd1: a5 12        	lda	$12                     ; 0x12 <__zp_bss_size>
    1bd3: a0 16        	ldy	#$16
    1bd5: 91 42        	sta	($42),y                 ; 0x42 <__rc31+0x13>
    1bd7: a2 16        	ldx	#$16
    1bd9: a5 13        	lda	$13                     ; 0x13 <__rc3>
    1bdb: a4 4c        	ldy	$4c                     ; 0x4c <__rc31+0x1d>
    1bdd: 91 14        	sta	($14),y                 ; 0x14 <__rc4>
    1bdf: 84 13        	sty	$13                     ; 0x13 <__rc3>
    1be1: a4 48        	ldy	$48                     ; 0x48 <__rc31+0x19>
    1be3: b1 42        	lda	($42),y                 ; 0x42 <__rc31+0x13>
    1be5: 85 12        	sta	$12                     ; 0x12 <__zp_bss_size>
    1be7: a4 13        	ldy	$13                     ; 0x13 <__rc3>
    1be9: b1 4a        	lda	($4a),y                 ; 0x4a <__rc31+0x1b>
    1beb: 84 18        	sty	$18                     ; 0x18 <__rc8>
    1bed: 85 13        	sta	$13                     ; 0x13 <__rc3>
    1bef: a9 00        	lda	#$0
    1bf1: 92 12        	sta	($12)                   ; 0x12 <__zp_bss_size>
    1bf3: a0 16        	ldy	#$16
    1bf5: b1 42        	lda	($42),y                 ; 0x42 <__rc31+0x13>
    1bf7: 86 16        	stx	$16                     ; 0x16 <__rc6>
    1bf9: 85 12        	sta	$12                     ; 0x12 <__zp_bss_size>
    1bfb: a4 18        	ldy	$18                     ; 0x18 <__rc8>
    1bfd: b1 14        	lda	($14),y                 ; 0x14 <__rc4>
    1bff: 85 13        	sta	$13                     ; 0x13 <__rc3>
    1c01: a9 00        	lda	#$0
    1c03: 92 12        	sta	($12)                   ; 0x12 <__zp_bss_size>
    1c05: a4 48        	ldy	$48                     ; 0x48 <__rc31+0x19>
    1c07: b1 42        	lda	($42),y                 ; 0x42 <__rc31+0x13>
    1c09: 85 12        	sta	$12                     ; 0x12 <__zp_bss_size>
    1c0b: a4 18        	ldy	$18                     ; 0x18 <__rc8>
    1c0d: b1 4a        	lda	($4a),y                 ; 0x4a <__rc31+0x1b>
    1c0f: 85 13        	sta	$13                     ; 0x13 <__rc3>
    1c11: a9 02        	lda	#$2
    1c13: 91 12        	sta	($12),y                 ; 0x12 <__zp_bss_size>
    1c15: 84 13        	sty	$13                     ; 0x13 <__rc3>
    1c17: aa           	tax
    1c18: 86 18        	stx	$18                     ; 0x18 <__rc8>
    1c1a: a4 16        	ldy	$16                     ; 0x16 <__rc6>
    1c1c: b1 42        	lda	($42),y                 ; 0x42 <__rc31+0x13>
    1c1e: 85 12        	sta	$12                     ; 0x12 <__zp_bss_size>
    1c20: a4 13        	ldy	$13                     ; 0x13 <__rc3>
    1c22: b1 14        	lda	($14),y                 ; 0x14 <__rc4>
    1c24: 85 13        	sta	$13                     ; 0x13 <__rc3>
    1c26: 8a           	txa
    1c27: 91 12        	sta	($12),y                 ; 0x12 <__zp_bss_size>
    1c29: 84 13        	sty	$13                     ; 0x13 <__rc3>
    1c2b: a4 48        	ldy	$48                     ; 0x48 <__rc31+0x19>
    1c2d: b1 42        	lda	($42),y                 ; 0x42 <__rc31+0x13>
    1c2f: 85 12        	sta	$12                     ; 0x12 <__zp_bss_size>
    1c31: a4 13        	ldy	$13                     ; 0x13 <__rc3>
    1c33: b1 4a        	lda	($4a),y                 ; 0x4a <__rc31+0x1b>
    1c35: 84 19        	sty	$19                     ; 0x19 <__rc9>
    1c37: 85 13        	sta	$13                     ; 0x13 <__rc3>
    1c39: a0 02        	ldy	#$2
    1c3b: a9 00        	lda	#$0
    1c3d: 91 12        	sta	($12),y                 ; 0x12 <__zp_bss_size>
    1c3f: 86 1b        	stx	$1b                     ; 0x1b <__rc11>
    1c41: a4 16        	ldy	$16                     ; 0x16 <__rc6>
    1c43: b1 42        	lda	($42),y                 ; 0x42 <__rc31+0x13>
    1c45: 85 12        	sta	$12                     ; 0x12 <__zp_bss_size>
    1c47: a4 19        	ldy	$19                     ; 0x19 <__rc9>
    1c49: b1 14        	lda	($14),y                 ; 0x14 <__rc4>
    1c4b: a6 19        	ldx	$19                     ; 0x19 <__rc9>
    1c4d: 86 1a        	stx	$1a                     ; 0x1a <__rc10>
    1c4f: 85 13        	sta	$13                     ; 0x13 <__rc3>
    1c51: a9 01        	lda	#$1
    1c53: a4 1b        	ldy	$1b                     ; 0x1b <__rc11>
    1c55: 91 12        	sta	($12),y                 ; 0x12 <__zp_bss_size>
    1c57: aa           	tax
    1c58: 86 19        	stx	$19                     ; 0x19 <__rc9>
    1c5a: a4 48        	ldy	$48                     ; 0x48 <__rc31+0x19>
    1c5c: b1 42        	lda	($42),y                 ; 0x42 <__rc31+0x13>
    1c5e: 84 1b        	sty	$1b                     ; 0x1b <__rc11>
    1c60: 85 12        	sta	$12                     ; 0x12 <__zp_bss_size>
    1c62: a4 1a        	ldy	$1a                     ; 0x1a <__rc10>
    1c64: b1 4a        	lda	($4a),y                 ; 0x4a <__rc31+0x1b>
    1c66: 85 13        	sta	$13                     ; 0x13 <__rc3>
    1c68: a0 03        	ldy	#$3
    1c6a: a5 18        	lda	$18                     ; 0x18 <__rc8>
    1c6c: 91 12        	sta	($12),y                 ; 0x12 <__zp_bss_size>
    1c6e: 84 18        	sty	$18                     ; 0x18 <__rc8>
    1c70: a4 16        	ldy	$16                     ; 0x16 <__rc6>
    1c72: b1 42        	lda	($42),y                 ; 0x42 <__rc31+0x13>
    1c74: a6 16        	ldx	$16                     ; 0x16 <__rc6>
    1c76: 86 17        	stx	$17                     ; 0x17 <__rc7>
    1c78: 85 12        	sta	$12                     ; 0x12 <__zp_bss_size>
    1c7a: a4 1a        	ldy	$1a                     ; 0x1a <__rc10>
    1c7c: b1 14        	lda	($14),y                 ; 0x14 <__rc4>
    1c7e: 84 16        	sty	$16                     ; 0x16 <__rc6>
    1c80: 85 13        	sta	$13                     ; 0x13 <__rc3>
    1c82: a9 03        	lda	#$3
    1c84: aa           	tax
    1c85: 86 4d        	stx	$4d                     ; 0x4d <__rc31+0x1e>
    1c87: a4 18        	ldy	$18                     ; 0x18 <__rc8>
    1c89: 91 12        	sta	($12),y                 ; 0x12 <__zp_bss_size>
    1c8b: a4 1b        	ldy	$1b                     ; 0x1b <__rc11>
    1c8d: b1 42        	lda	($42),y                 ; 0x42 <__rc31+0x13>
    1c8f: 85 12        	sta	$12                     ; 0x12 <__zp_bss_size>
    1c91: a4 16        	ldy	$16                     ; 0x16 <__rc6>
    1c93: b1 4a        	lda	($4a),y                 ; 0x4a <__rc31+0x1b>
    1c95: 84 1a        	sty	$1a                     ; 0x1a <__rc10>
    1c97: 85 13        	sta	$13                     ; 0x13 <__rc3>
    1c99: a0 04        	ldy	#$4
    1c9b: a5 19        	lda	$19                     ; 0x19 <__rc9>
    1c9d: 91 12        	sta	($12),y                 ; 0x12 <__zp_bss_size>
    1c9f: 84 18        	sty	$18                     ; 0x18 <__rc8>
    1ca1: a4 17        	ldy	$17                     ; 0x17 <__rc7>
    1ca3: b1 42        	lda	($42),y                 ; 0x42 <__rc31+0x13>
    1ca5: 85 12        	sta	$12                     ; 0x12 <__zp_bss_size>
    1ca7: a4 1a        	ldy	$1a                     ; 0x1a <__rc10>
    1ca9: b1 14        	lda	($14),y                 ; 0x14 <__rc4>
    1cab: 85 13        	sta	$13                     ; 0x13 <__rc3>
    1cad: a5 19        	lda	$19                     ; 0x19 <__rc9>
    1caf: a4 18        	ldy	$18                     ; 0x18 <__rc8>
    1cb1: 91 12        	sta	($12),y                 ; 0x12 <__zp_bss_size>
    1cb3: 86 16        	stx	$16                     ; 0x16 <__rc6>
    1cb5: a6 49        	ldx	$49                     ; 0x49 <__rc31+0x1a>
    1cb7: a5 44        	lda	$44                     ; 0x44 <__rc31+0x15>
    1cb9: 18           	clc
    1cba: 69 14        	adc	#$14
    1cbc: 85 12        	sta	$12                     ; 0x12 <__zp_bss_size>
    1cbe: a5 46        	lda	$46                     ; 0x46 <__rc31+0x17>
    1cc0: 69 00        	adc	#$0
    1cc2: 85 13        	sta	$13                     ; 0x13 <__rc3>
    1cc4: a0 14        	ldy	#$14
    1cc6: b1 42        	lda	($42),y                 ; 0x42 <__rc31+0x13>
    1cc8: 85 14        	sta	$14                     ; 0x14 <__rc4>
    1cca: a0 01        	ldy	#$1
    1ccc: b1 12        	lda	($12),y                 ; 0x12 <__zp_bss_size>
    1cce: 84 17        	sty	$17                     ; 0x17 <__rc7>
    1cd0: 85 15        	sta	$15                     ; 0x15 <__rc5>
    1cd2: da           	phx
    1cd3: 7a           	ply
    1cd4: a5 4d        	lda	$4d                     ; 0x4d <__rc31+0x1e>
    1cd6: 91 14        	sta	($14),y                 ; 0x14 <__rc4>
    1cd8: 86 18        	stx	$18                     ; 0x18 <__rc8>
    1cda: 18           	clc
    1cdb: a5 44        	lda	$44                     ; 0x44 <__rc31+0x15>
    1cdd: 69 16        	adc	#$16
    1cdf: 85 12        	sta	$12                     ; 0x12 <__zp_bss_size>
    1ce1: a5 46        	lda	$46                     ; 0x46 <__rc31+0x17>
    1ce3: 69 00        	adc	#$0
    1ce5: 85 13        	sta	$13                     ; 0x13 <__rc3>
    1ce7: a0 16        	ldy	#$16
    1ce9: b1 42        	lda	($42),y                 ; 0x42 <__rc31+0x13>
    1ceb: 85 14        	sta	$14                     ; 0x14 <__rc4>
    1ced: a4 17        	ldy	$17                     ; 0x17 <__rc7>
    1cef: b1 12        	lda	($12),y                 ; 0x12 <__zp_bss_size>
    1cf1: 85 15        	sta	$15                     ; 0x15 <__rc5>
    1cf3: a5 16        	lda	$16                     ; 0x16 <__rc6>
    1cf5: a4 18        	ldy	$18                     ; 0x18 <__rc8>
    1cf7: 91 14        	sta	($14),y                 ; 0x14 <__rc4>
    1cf9: 60           	rts

00001cfa <exit>:
    1cfa: 20 14 03     	jsr	$314 <_fini>
    1cfd: 80 fe        	bra	$1cfd <exit+0x3>

00001cff <_ZN12_GLOBAL__N_13putEcP6Status>:
    1cff: 85 18        	sta	$18                     ; 0x18 <__rc8>
    1d01: a6 13        	ldx	$13                     ; 0x13 <__rc3>
    1d03: 18           	clc
    1d04: a5 12        	lda	$12                     ; 0x12 <__zp_bss_size>
    1d06: 69 05        	adc	#$5
    1d08: a8           	tay
    1d09: a5 13        	lda	$13                     ; 0x13 <__rc3>
    1d0b: 86 15        	stx	$15                     ; 0x15 <__rc5>
    1d0d: 69 00        	adc	#$0
    1d0f: 18           	clc
    1d10: 84 16        	sty	$16                     ; 0x16 <__rc6>
    1d12: a0 05        	ldy	#$5
    1d14: 85 17        	sta	$17                     ; 0x17 <__rc7>
    1d16: b1 12        	lda	($12),y                 ; 0x12 <__zp_bss_size>
    1d18: aa           	tax
    1d19: a5 12        	lda	$12                     ; 0x12 <__zp_bss_size>
    1d1b: 69 03        	adc	#$3
    1d1d: 85 14        	sta	$14                     ; 0x14 <__rc4>
    1d1f: a5 15        	lda	$15                     ; 0x15 <__rc5>
    1d21: 69 00        	adc	#$0
    1d23: 85 15        	sta	$15                     ; 0x15 <__rc5>
    1d25: a0 01        	ldy	#$1
    1d27: b1 16        	lda	($16),y                 ; 0x16 <__rc6>
    1d29: d1 14        	cmp	($14),y                 ; 0x14 <__rc4>
    1d2b: d0 11        	bne	$1d3e <_ZN12_GLOBAL__N_13putEcP6Status+0x3f>
    1d2d: a0 03        	ldy	#$3
    1d2f: 85 17        	sta	$17                     ; 0x17 <__rc7>
    1d31: b1 12        	lda	($12),y                 ; 0x12 <__zp_bss_size>
    1d33: 85 14        	sta	$14                     ; 0x14 <__rc4>
    1d35: 86 16        	stx	$16                     ; 0x16 <__rc6>
    1d37: e4 14        	cpx	$14                     ; 0x14 <__rc4>
    1d39: 90 0e        	bcc	$1d49 <_ZN12_GLOBAL__N_13putEcP6Status+0x4a>
    1d3b: 4c aa 1d     	jmp	$1daa <_ZN12_GLOBAL__N_13putEcP6Status+0xab>
    1d3e: 86 16        	stx	$16                     ; 0x16 <__rc6>
    1d40: d1 14        	cmp	($14),y                 ; 0x14 <__rc4>
    1d42: 85 17        	sta	$17                     ; 0x17 <__rc7>
    1d44: 90 03        	bcc	$1d49 <_ZN12_GLOBAL__N_13putEcP6Status+0x4a>
    1d46: 4c aa 1d     	jmp	$1daa <_ZN12_GLOBAL__N_13putEcP6Status+0xab>
    1d49: a5 12        	lda	$12                     ; 0x12 <__zp_bss_size>
    1d4b: 18           	clc
    1d4c: 69 0f        	adc	#$f
    1d4e: 85 14        	sta	$14                     ; 0x14 <__rc4>
    1d50: a5 13        	lda	$13                     ; 0x13 <__rc3>
    1d52: 69 00        	adc	#$0
    1d54: 85 15        	sta	$15                     ; 0x15 <__rc5>
    1d56: a0 01        	ldy	#$1
    1d58: b1 14        	lda	($14),y                 ; 0x14 <__rc4>
    1d5a: a2 00        	ldx	#$0
    1d5c: 86 14        	stx	$14                     ; 0x14 <__rc4>
    1d5e: a2 00        	ldx	#$0
    1d60: 86 15        	stx	$15                     ; 0x15 <__rc5>
    1d62: c5 15        	cmp	$15                     ; 0x15 <__rc5>
    1d64: d0 2d        	bne	$1d93 <_ZN12_GLOBAL__N_13putEcP6Status+0x94>
    1d66: a0 0f        	ldy	#$f
    1d68: b1 12        	lda	($12),y                 ; 0x12 <__zp_bss_size>
    1d6a: c5 14        	cmp	$14                     ; 0x14 <__rc4>
    1d6c: d0 25        	bne	$1d93 <_ZN12_GLOBAL__N_13putEcP6Status+0x94>
    1d6e: a5 12        	lda	$12                     ; 0x12 <__zp_bss_size>
    1d70: 18           	clc
    1d71: 69 09        	adc	#$9
    1d73: 85 14        	sta	$14                     ; 0x14 <__rc4>
    1d75: a5 13        	lda	$13                     ; 0x13 <__rc3>
    1d77: 69 00        	adc	#$0
    1d79: a0 09        	ldy	#$9
    1d7b: 85 15        	sta	$15                     ; 0x15 <__rc5>
    1d7d: 18           	clc
    1d7e: a5 16        	lda	$16                     ; 0x16 <__rc6>
    1d80: 71 12        	adc	($12),y                 ; 0x12 <__zp_bss_size>
    1d82: aa           	tax
    1d83: a0 01        	ldy	#$1
    1d85: a5 17        	lda	$17                     ; 0x17 <__rc7>
    1d87: 71 14        	adc	($14),y                 ; 0x14 <__rc4>
    1d89: 86 14        	stx	$14                     ; 0x14 <__rc4>
    1d8b: 85 15        	sta	$15                     ; 0x15 <__rc5>
    1d8d: a5 18        	lda	$18                     ; 0x18 <__rc8>
    1d8f: 92 14        	sta	($14)                   ; 0x14 <__rc4>
    1d91: 80 17        	bra	$1daa <_ZN12_GLOBAL__N_13putEcP6Status+0xab>
    1d93: a6 12        	ldx	$12                     ; 0x12 <__zp_bss_size>
    1d95: 86 ac        	stx	$ac                     ; 0xac <__rc31+0x7d>
    1d97: a6 13        	ldx	$13                     ; 0x13 <__rc3>
    1d99: 86 ad        	stx	$ad                     ; 0xad <__rc31+0x7e>
    1d9b: a2 00        	ldx	#$0
    1d9d: a5 18        	lda	$18                     ; 0x18 <__rc8>
    1d9f: 20 16 2c     	jsr	$2c16 <putchar>
    1da2: a6 ac        	ldx	$ac                     ; 0xac <__rc31+0x7d>
    1da4: 86 12        	stx	$12                     ; 0x12 <__zp_bss_size>
    1da6: a6 ad        	ldx	$ad                     ; 0xad <__rc31+0x7e>
    1da8: 86 13        	stx	$13                     ; 0x13 <__rc3>
    1daa: a0 05        	ldy	#$5
    1dac: a5 12        	lda	$12                     ; 0x12 <__zp_bss_size>
    1dae: 18           	clc
    1daf: 69 05        	adc	#$5
    1db1: 85 14        	sta	$14                     ; 0x14 <__rc4>
    1db3: a5 13        	lda	$13                     ; 0x13 <__rc3>
    1db5: 69 00        	adc	#$0
    1db7: 85 15        	sta	$15                     ; 0x15 <__rc5>
    1db9: b1 12        	lda	($12),y                 ; 0x12 <__zp_bss_size>
    1dbb: aa           	tax
    1dbc: 84 16        	sty	$16                     ; 0x16 <__rc6>
    1dbe: a0 01        	ldy	#$1
    1dc0: b1 14        	lda	($14),y                 ; 0x14 <__rc4>
    1dc2: 84 17        	sty	$17                     ; 0x17 <__rc7>
    1dc4: e8           	inx
    1dc5: d0 01        	bne	$1dc8 <_ZN12_GLOBAL__N_13putEcP6Status+0xc9>
    1dc7: 1a           	inc
    1dc8: 85 18        	sta	$18                     ; 0x18 <__rc8>
    1dca: 8a           	txa
    1dcb: a4 16        	ldy	$16                     ; 0x16 <__rc6>
    1dcd: 91 12        	sta	($12),y                 ; 0x12 <__zp_bss_size>
    1dcf: a4 17        	ldy	$17                     ; 0x17 <__rc7>
    1dd1: a5 18        	lda	$18                     ; 0x18 <__rc8>
    1dd3: 91 14        	sta	($14),y                 ; 0x14 <__rc4>
    1dd5: 60           	rts

00001dd6 <_ZN12_GLOBAL__N_112print_stringEPKcP6Status>:
    1dd6: a6 12        	ldx	$12                     ; 0x12 <__zp_bss_size>
    1dd8: 86 a3        	stx	$a3                     ; 0xa3 <__rc31+0x74>
    1dda: a6 13        	ldx	$13                     ; 0x13 <__rc3>
    1ddc: 86 a4        	stx	$a4                     ; 0xa4 <__rc31+0x75>
    1dde: a6 14        	ldx	$14                     ; 0x14 <__rc4>
    1de0: 86 a5        	stx	$a5                     ; 0xa5 <__rc31+0x76>
    1de2: a6 15        	ldx	$15                     ; 0x15 <__rc5>
    1de4: 86 a6        	stx	$a6                     ; 0xa6 <__rc31+0x77>
    1de6: a5 a5        	lda	$a5                     ; 0xa5 <__rc31+0x76>
    1de8: 18           	clc
    1de9: 69 0d        	adc	#$d
    1deb: 85 12        	sta	$12                     ; 0x12 <__zp_bss_size>
    1ded: a5 a6        	lda	$a6                     ; 0xa6 <__rc31+0x77>
    1def: 69 00        	adc	#$0
    1df1: 85 13        	sta	$13                     ; 0x13 <__rc3>
    1df3: a0 01        	ldy	#$1
    1df5: b1 12        	lda	($12),y                 ; 0x12 <__zp_bss_size>
    1df7: 30 14        	bmi	$1e0d <_ZN12_GLOBAL__N_112print_stringEPKcP6Status+0x37>
    1df9: a0 0d        	ldy	#$d
    1dfb: aa           	tax
    1dfc: b1 a5        	lda	($a5),y                 ; 0xa5 <__rc31+0x76>
    1dfe: 86 a8        	stx	$a8                     ; 0xa8 <__rc31+0x79>
    1e00: e0 00        	cpx	#$0
    1e02: d0 0e        	bne	$1e12 <_ZN12_GLOBAL__N_112print_stringEPKcP6Status+0x3c>
    1e04: aa           	tax
    1e05: d0 0b        	bne	$1e12 <_ZN12_GLOBAL__N_112print_stringEPKcP6Status+0x3c>
    1e07: 64 a7        	stz	$a7                     ; 0xa7 <__rc31+0x78>
    1e09: 64 a8        	stz	$a8                     ; 0xa8 <__rc31+0x79>
    1e0b: 80 36        	bra	$1e43 <_ZN12_GLOBAL__N_112print_stringEPKcP6Status+0x6d>
    1e0d: a9 ff        	lda	#$ff
    1e0f: aa           	tax
    1e10: 86 a8        	stx	$a8                     ; 0xa8 <__rc31+0x79>
    1e12: 85 a7        	sta	$a7                     ; 0xa7 <__rc31+0x78>
    1e14: 64 12        	stz	$12                     ; 0x12 <__zp_bss_size>
    1e16: a4 a3        	ldy	$a3                     ; 0xa3 <__rc31+0x74>
    1e18: a6 a4        	ldx	$a4                     ; 0xa4 <__rc31+0x75>
    1e1a: 86 16        	stx	$16                     ; 0x16 <__rc6>
    1e1c: 64 13        	stz	$13                     ; 0x13 <__rc3>
    1e1e: 98           	tya
    1e1f: 18           	clc
    1e20: 65 12        	adc	$12                     ; 0x12 <__zp_bss_size>
    1e22: 85 14        	sta	$14                     ; 0x14 <__rc4>
    1e24: a5 a4        	lda	$a4                     ; 0xa4 <__rc31+0x75>
    1e26: 65 13        	adc	$13                     ; 0x13 <__rc3>
    1e28: 85 15        	sta	$15                     ; 0x15 <__rc5>
    1e2a: b2 14        	lda	($14)                   ; 0x14 <__rc4>
    1e2c: d0 03        	bne	$1e31 <_ZN12_GLOBAL__N_112print_stringEPKcP6Status+0x5b>
    1e2e: 4c da 1e     	jmp	$1eda <_ZN12_GLOBAL__N_112print_stringEPKcP6Status+0x104>
    1e31: e6 12        	inc	$12                     ; 0x12 <__zp_bss_size>
    1e33: d0 02        	bne	$1e37 <_ZN12_GLOBAL__N_112print_stringEPKcP6Status+0x61>
    1e35: e6 13        	inc	$13                     ; 0x13 <__rc3>
    1e37: a6 a8        	ldx	$a8                     ; 0xa8 <__rc31+0x79>
    1e39: e4 13        	cpx	$13                     ; 0x13 <__rc3>
    1e3b: d0 e1        	bne	$1e1e <_ZN12_GLOBAL__N_112print_stringEPKcP6Status+0x48>
    1e3d: a6 a7        	ldx	$a7                     ; 0xa7 <__rc31+0x78>
    1e3f: e4 12        	cpx	$12                     ; 0x12 <__zp_bss_size>
    1e41: d0 db        	bne	$1e1e <_ZN12_GLOBAL__N_112print_stringEPKcP6Status+0x48>
    1e43: a0 01        	ldy	#$1
    1e45: b1 a5        	lda	($a5),y                 ; 0xa5 <__rc31+0x76>
    1e47: 29 01        	and	#$1
    1e49: f0 03        	beq	$1e4e <_ZN12_GLOBAL__N_112print_stringEPKcP6Status+0x78>
    1e4b: 4c ac 1e     	jmp	$1eac <_ZN12_GLOBAL__N_112print_stringEPKcP6Status+0xd6>
    1e4e: a5 a5        	lda	$a5                     ; 0xa5 <__rc31+0x76>
    1e50: 18           	clc
    1e51: 69 0b        	adc	#$b
    1e53: 85 14        	sta	$14                     ; 0x14 <__rc4>
    1e55: a5 a6        	lda	$a6                     ; 0xa6 <__rc31+0x77>
    1e57: 69 00        	adc	#$0
    1e59: 85 15        	sta	$15                     ; 0x15 <__rc5>
    1e5b: 84 12        	sty	$12                     ; 0x12 <__zp_bss_size>
    1e5d: a0 0b        	ldy	#$b
    1e5f: b1 a5        	lda	($a5),y                 ; 0xa5 <__rc31+0x76>
    1e61: 85 13        	sta	$13                     ; 0x13 <__rc3>
    1e63: a4 12        	ldy	$12                     ; 0x12 <__zp_bss_size>
    1e65: b1 14        	lda	($14),y                 ; 0x14 <__rc4>
    1e67: 85 12        	sta	$12                     ; 0x12 <__zp_bss_size>
    1e69: a6 a8        	ldx	$a8                     ; 0xa8 <__rc31+0x79>
    1e6b: e4 12        	cpx	$12                     ; 0x12 <__zp_bss_size>
    1e6d: d0 08        	bne	$1e77 <_ZN12_GLOBAL__N_112print_stringEPKcP6Status+0xa1>
    1e6f: a6 a7        	ldx	$a7                     ; 0xa7 <__rc31+0x78>
    1e71: e4 13        	cpx	$13                     ; 0x13 <__rc3>
    1e73: 90 06        	bcc	$1e7b <_ZN12_GLOBAL__N_112print_stringEPKcP6Status+0xa5>
    1e75: 80 35        	bra	$1eac <_ZN12_GLOBAL__N_112print_stringEPKcP6Status+0xd6>
    1e77: e4 12        	cpx	$12                     ; 0x12 <__zp_bss_size>
    1e79: b0 31        	bcs	$1eac <_ZN12_GLOBAL__N_112print_stringEPKcP6Status+0xd6>
    1e7b: 38           	sec
    1e7c: a5 a7        	lda	$a7                     ; 0xa7 <__rc31+0x78>
    1e7e: e5 13        	sbc	$13                     ; 0x13 <__rc3>
    1e80: a8           	tay
    1e81: a5 a8        	lda	$a8                     ; 0xa8 <__rc31+0x79>
    1e83: e5 12        	sbc	$12                     ; 0x12 <__zp_bss_size>
    1e85: 85 aa        	sta	$aa                     ; 0xaa <__rc31+0x7b>
    1e87: a2 20        	ldx	#$20
    1e89: 86 ab        	stx	$ab                     ; 0xab <__rc31+0x7c>
    1e8b: a6 a5        	ldx	$a5                     ; 0xa5 <__rc31+0x76>
    1e8d: 86 12        	stx	$12                     ; 0x12 <__zp_bss_size>
    1e8f: a6 a6        	ldx	$a6                     ; 0xa6 <__rc31+0x77>
    1e91: 86 13        	stx	$13                     ; 0x13 <__rc3>
    1e93: 84 a9        	sty	$a9                     ; 0xa9 <__rc31+0x7a>
    1e95: a5 ab        	lda	$ab                     ; 0xab <__rc31+0x7c>
    1e97: 20 ff 1c     	jsr	$1cff <_ZN12_GLOBAL__N_13putEcP6Status>
    1e9a: a6 aa        	ldx	$aa                     ; 0xaa <__rc31+0x7b>
    1e9c: e6 a9        	inc	$a9                     ; 0xa9 <__rc31+0x7a>
    1e9e: d0 01        	bne	$1ea1 <_ZN12_GLOBAL__N_112print_stringEPKcP6Status+0xcb>
    1ea0: e8           	inx
    1ea1: 86 aa        	stx	$aa                     ; 0xaa <__rc31+0x7b>
    1ea3: a4 a9        	ldy	$a9                     ; 0xa9 <__rc31+0x7a>
    1ea5: 8a           	txa
    1ea6: d0 e3        	bne	$1e8b <_ZN12_GLOBAL__N_112print_stringEPKcP6Status+0xb5>
    1ea8: a5 a9        	lda	$a9                     ; 0xa9 <__rc31+0x7a>
    1eaa: d0 df        	bne	$1e8b <_ZN12_GLOBAL__N_112print_stringEPKcP6Status+0xb5>
    1eac: a5 a8        	lda	$a8                     ; 0xa8 <__rc31+0x79>
    1eae: d0 04        	bne	$1eb4 <_ZN12_GLOBAL__N_112print_stringEPKcP6Status+0xde>
    1eb0: a5 a7        	lda	$a7                     ; 0xa7 <__rc31+0x78>
    1eb2: f0 25        	beq	$1ed9 <_ZN12_GLOBAL__N_112print_stringEPKcP6Status+0x103>
    1eb4: a2 ff        	ldx	#$ff
    1eb6: c6 a7        	dec	$a7                     ; 0xa7 <__rc31+0x78>
    1eb8: e4 a7        	cpx	$a7                     ; 0xa7 <__rc31+0x78>
    1eba: d0 02        	bne	$1ebe <_ZN12_GLOBAL__N_112print_stringEPKcP6Status+0xe8>
    1ebc: c6 a8        	dec	$a8                     ; 0xa8 <__rc31+0x79>
    1ebe: b2 a3        	lda	($a3)                   ; 0xa3 <__rc31+0x74>
    1ec0: e6 a3        	inc	$a3                     ; 0xa3 <__rc31+0x74>
    1ec2: d0 02        	bne	$1ec6 <_ZN12_GLOBAL__N_112print_stringEPKcP6Status+0xf0>
    1ec4: e6 a4        	inc	$a4                     ; 0xa4 <__rc31+0x75>
    1ec6: a6 a5        	ldx	$a5                     ; 0xa5 <__rc31+0x76>
    1ec8: 86 12        	stx	$12                     ; 0x12 <__zp_bss_size>
    1eca: a6 a6        	ldx	$a6                     ; 0xa6 <__rc31+0x77>
    1ecc: 86 13        	stx	$13                     ; 0x13 <__rc3>
    1ece: 20 ff 1c     	jsr	$1cff <_ZN12_GLOBAL__N_13putEcP6Status>
    1ed1: a5 a8        	lda	$a8                     ; 0xa8 <__rc31+0x79>
    1ed3: d0 df        	bne	$1eb4 <_ZN12_GLOBAL__N_112print_stringEPKcP6Status+0xde>
    1ed5: a5 a7        	lda	$a7                     ; 0xa7 <__rc31+0x78>
    1ed7: d0 db        	bne	$1eb4 <_ZN12_GLOBAL__N_112print_stringEPKcP6Status+0xde>
    1ed9: 60           	rts
    1eda: a6 12        	ldx	$12                     ; 0x12 <__zp_bss_size>
    1edc: 86 a7        	stx	$a7                     ; 0xa7 <__rc31+0x78>
    1ede: a6 13        	ldx	$13                     ; 0x13 <__rc3>
    1ee0: 86 a8        	stx	$a8                     ; 0xa8 <__rc31+0x79>
    1ee2: 4c 43 1e     	jmp	$1e43 <_ZN12_GLOBAL__N_112print_stringEPKcP6Status+0x6d>

00001ee5 <printf>:
    1ee5: 18           	clc
    1ee6: a6 10        	ldx	$10                     ; 0x10 <__rc0>
    1ee8: a4 11        	ldy	$11                     ; 0x11 <__rc1>
    1eea: 86 98        	stx	$98                     ; 0x98 <__rc31+0x69>
    1eec: 84 99        	sty	$99                     ; 0x99 <__rc31+0x6a>
    1eee: a6 98        	ldx	$98                     ; 0x98 <__rc31+0x69>
    1ef0: a4 99        	ldy	$99                     ; 0x99 <__rc31+0x6a>
    1ef2: 86 83        	stx	$83                     ; 0x83 <__rc31+0x54>
    1ef4: 84 84        	sty	$84                     ; 0x84 <__rc31+0x55>
    1ef6: a2 ff        	ldx	#$ff
    1ef8: 86 88        	stx	$88                     ; 0x88 <__rc31+0x59>
    1efa: 86 89        	stx	$89                     ; 0x89 <__rc31+0x5a>
    1efc: 64 8a        	stz	$8a                     ; 0x8a <__rc31+0x5b>
    1efe: 64 8b        	stz	$8b                     ; 0x8b <__rc31+0x5c>
    1f00: e8           	inx
    1f01: 86 12        	stx	$12                     ; 0x12 <__zp_bss_size>
    1f03: a2 00        	ldx	#$0
    1f05: 86 13        	stx	$13                     ; 0x13 <__rc3>
    1f07: a6 12        	ldx	$12                     ; 0x12 <__zp_bss_size>
    1f09: a4 13        	ldy	$13                     ; 0x13 <__rc3>
    1f0b: 86 8e        	stx	$8e                     ; 0x8e <__rc31+0x5f>
    1f0d: 84 8f        	sty	$8f                     ; 0x8f <__rc31+0x60>
    1f0f: a2 02        	ldx	#$2
    1f11: 86 94        	stx	$94                     ; 0x94 <__rc31+0x65>
    1f13: 64 95        	stz	$95                     ; 0x95 <__rc31+0x66>
    1f15: a6 83        	ldx	$83                     ; 0x83 <__rc31+0x54>
    1f17: a4 84        	ldy	$84                     ; 0x84 <__rc31+0x55>
    1f19: 86 96        	stx	$96                     ; 0x96 <__rc31+0x67>
    1f1b: 84 97        	sty	$97                     ; 0x97 <__rc31+0x68>
    1f1d: a2 7a        	ldx	#$7a
    1f1f: a0 00        	ldy	#$0
    1f21: 86 12        	stx	$12                     ; 0x12 <__zp_bss_size>
    1f23: 84 13        	sty	$13                     ; 0x13 <__rc3>
    1f25: a0 01        	ldy	#$1
    1f27: a9 61        	lda	#$61
    1f29: 18           	clc
    1f2a: 69 02        	adc	#$2
    1f2c: 85 a1        	sta	$a1                     ; 0xa1 <__rc31+0x72>
    1f2e: a9 00        	lda	#$0
    1f30: 69 00        	adc	#$0
    1f32: 85 a2        	sta	$a2                     ; 0xa2 <__rc31+0x73>
    1f34: e6 12        	inc	$12                     ; 0x12 <__zp_bss_size>
    1f36: d0 02        	bne	$1f3a <printf+0x55>
    1f38: e6 13        	inc	$13                     ; 0x13 <__rc3>
    1f3a: a6 12        	ldx	$12                     ; 0x12 <__zp_bss_size>
    1f3c: 86 9d        	stx	$9d                     ; 0x9d <__rc31+0x6e>
    1f3e: a6 13        	ldx	$13                     ; 0x13 <__rc3>
    1f40: 86 9e        	stx	$9e                     ; 0x9e <__rc31+0x6f>
    1f42: a2 aa        	ldx	#$aa
    1f44: 86 59        	stx	$59                     ; 0x59 <__rc31+0x2a>
    1f46: a2 31        	ldx	#$31
    1f48: 86 5a        	stx	$5a                     ; 0x5a <__rc31+0x2b>
    1f4a: a6 59        	ldx	$59                     ; 0x59 <__rc31+0x2a>
    1f4c: 86 57        	stx	$57                     ; 0x57 <__rc31+0x28>
    1f4e: a6 5a        	ldx	$5a                     ; 0x5a <__rc31+0x2b>
    1f50: 86 58        	stx	$58                     ; 0x58 <__rc31+0x29>
    1f52: b2 59        	lda	($59)                   ; 0x59 <__rc31+0x2a>
    1f54: c9 25        	cmp	#$25
    1f56: f0 26        	beq	$1f7e <printf+0x99>
    1f58: a2 00        	ldx	#$0
    1f5a: c9 00        	cmp	#$0
    1f5c: d0 03        	bne	$1f61 <printf+0x7c>
    1f5e: 4c 15 2c     	jmp	$2c15 <printf+0xd30>
    1f61: 84 59        	sty	$59                     ; 0x59 <__rc31+0x2a>
    1f63: 20 16 2c     	jsr	$2c16 <putchar>
    1f66: a4 59        	ldy	$59                     ; 0x59 <__rc31+0x2a>
    1f68: e6 57        	inc	$57                     ; 0x57 <__rc31+0x28>
    1f6a: d0 02        	bne	$1f6e <printf+0x89>
    1f6c: e6 58        	inc	$58                     ; 0x58 <__rc31+0x29>
    1f6e: e6 8a        	inc	$8a                     ; 0x8a <__rc31+0x5b>
    1f70: d0 02        	bne	$1f74 <printf+0x8f>
    1f72: e6 8b        	inc	$8b                     ; 0x8b <__rc31+0x5c>
    1f74: a6 57        	ldx	$57                     ; 0x57 <__rc31+0x28>
    1f76: 86 59        	stx	$59                     ; 0x59 <__rc31+0x2a>
    1f78: a6 58        	ldx	$58                     ; 0x58 <__rc31+0x29>
    1f7a: 86 5a        	stx	$5a                     ; 0x5a <__rc31+0x2b>
    1f7c: 80 cc        	bra	$1f4a <printf+0x65>
    1f7e: a6 59        	ldx	$59                     ; 0x59 <__rc31+0x2a>
    1f80: 86 12        	stx	$12                     ; 0x12 <__zp_bss_size>
    1f82: a6 5a        	ldx	$5a                     ; 0x5a <__rc31+0x2b>
    1f84: 86 13        	stx	$13                     ; 0x13 <__rc3>
    1f86: e6 12        	inc	$12                     ; 0x12 <__zp_bss_size>
    1f88: d0 02        	bne	$1f8c <printf+0xa7>
    1f8a: e6 13        	inc	$13                     ; 0x13 <__rc3>
    1f8c: b1 57        	lda	($57),y                 ; 0x57 <__rc31+0x28>
    1f8e: c9 25        	cmp	#$25
    1f90: d0 18        	bne	$1faa <printf+0xc5>
    1f92: a2 01        	ldx	#$1
    1f94: 86 13        	stx	$13                     ; 0x13 <__rc3>
    1f96: a5 8a        	lda	$8a                     ; 0x8a <__rc31+0x5b>
    1f98: a4 8b        	ldy	$8b                     ; 0x8b <__rc31+0x5c>
    1f9a: c4 89        	cpy	$89                     ; 0x89 <__rc31+0x5a>
    1f9c: f0 03        	beq	$1fa1 <printf+0xbc>
    1f9e: 4c ba 20     	jmp	$20ba <printf+0x1d5>
    1fa1: a6 88        	ldx	$88                     ; 0x88 <__rc31+0x59>
    1fa3: 86 12        	stx	$12                     ; 0x12 <__zp_bss_size>
    1fa5: c5 12        	cmp	$12                     ; 0x12 <__zp_bss_size>
    1fa7: 4c bc 20     	jmp	$20bc <printf+0x1d7>
    1faa: a2 01        	ldx	#$1
    1fac: 86 15        	stx	$15                     ; 0x15 <__rc5>
    1fae: 64 86        	stz	$86                     ; 0x86 <__rc31+0x57>
    1fb0: 64 87        	stz	$87                     ; 0x87 <__rc31+0x58>
    1fb2: 64 85        	stz	$85                     ; 0x85 <__rc31+0x56>
    1fb4: 64 90        	stz	$90                     ; 0x90 <__rc31+0x61>
    1fb6: 64 91        	stz	$91                     ; 0x91 <__rc31+0x62>
    1fb8: a2 ff        	ldx	#$ff
    1fba: 86 92        	stx	$92                     ; 0x92 <__rc31+0x63>
    1fbc: 86 93        	stx	$93                     ; 0x93 <__rc31+0x64>
    1fbe: 64 55        	stz	$55                     ; 0x55 <__rc31+0x26>
    1fc0: 80 33        	bra	$1ff5 <printf+0x110>
    1fc2: a2 02        	ldx	#$2
    1fc4: 80 15        	bra	$1fdb <printf+0xf6>
    1fc6: e0 20        	cpx	#$20
    1fc8: f0 15        	beq	$1fdf <printf+0xfa>
    1fca: 86 16        	stx	$16                     ; 0x16 <__rc6>
    1fcc: e0 23        	cpx	#$23
    1fce: f0 03        	beq	$1fd3 <printf+0xee>
    1fd0: 4c 52 20     	jmp	$2052 <printf+0x16d>
    1fd3: a5 55        	lda	$55                     ; 0x55 <__rc31+0x26>
    1fd5: a2 04        	ldx	#$4
    1fd7: 80 02        	bra	$1fdb <printf+0xf6>
    1fd9: a2 10        	ldx	#$10
    1fdb: 86 14        	stx	$14                     ; 0x14 <__rc4>
    1fdd: 80 06        	bra	$1fe5 <printf+0x100>
    1fdf: a2 08        	ldx	#$8
    1fe1: 86 14        	stx	$14                     ; 0x14 <__rc4>
    1fe3: a5 55        	lda	$55                     ; 0x55 <__rc31+0x26>
    1fe5: 05 14        	ora	$14                     ; 0x14 <__rc4>
    1fe7: 85 55        	sta	$55                     ; 0x55 <__rc31+0x26>
    1fe9: 85 86        	sta	$86                     ; 0x86 <__rc31+0x57>
    1feb: a2 00        	ldx	#$0
    1fed: 86 87        	stx	$87                     ; 0x87 <__rc31+0x58>
    1fef: e6 12        	inc	$12                     ; 0x12 <__zp_bss_size>
    1ff1: d0 02        	bne	$1ff5 <printf+0x110>
    1ff3: e6 13        	inc	$13                     ; 0x13 <__rc3>
    1ff5: b2 12        	lda	($12)                   ; 0x12 <__zp_bss_size>
    1ff7: aa           	tax
    1ff8: 18           	clc
    1ff9: 69 d6        	adc	#$d6
    1ffb: c9 07        	cmp	#$7
    1ffd: b0 c7        	bcs	$1fc6 <printf+0xe1>
    1fff: 86 16        	stx	$16                     ; 0x16 <__rc6>
    2001: 0a           	asl
    2002: aa           	tax
    2003: a0 01        	ldy	#$1
    2005: 84 14        	sty	$14                     ; 0x14 <__rc4>
    2007: a5 55        	lda	$55                     ; 0x55 <__rc31+0x26>
    2009: 7c 40 31     	jmp	($3140,x)               ; 0x3140 <__BLOCK_SIZE+0x1140>
    200c: a5 96        	lda	$96                     ; 0x96 <__rc31+0x67>
    200e: a6 97        	ldx	$97                     ; 0x97 <__rc31+0x68>
    2010: 85 16        	sta	$16                     ; 0x16 <__rc6>
    2012: 86 17        	stx	$17                     ; 0x17 <__rc7>
    2014: 18           	clc
    2015: 69 02        	adc	#$2
    2017: a8           	tay
    2018: 8a           	txa
    2019: 69 00        	adc	#$0
    201b: 84 96        	sty	$96                     ; 0x96 <__rc31+0x67>
    201d: 85 97        	sta	$97                     ; 0x97 <__rc31+0x68>
    201f: b2 16        	lda	($16)                   ; 0x16 <__rc6>
    2021: 85 15        	sta	$15                     ; 0x15 <__rc5>
    2023: a0 01        	ldy	#$1
    2025: b1 16        	lda	($16),y                 ; 0x16 <__rc6>
    2027: 85 14        	sta	$14                     ; 0x14 <__rc4>
    2029: 10 15        	bpl	$2040 <printf+0x15b>
    202b: a5 55        	lda	$55                     ; 0x55 <__rc31+0x26>
    202d: 09 01        	ora	#$1
    202f: 85 55        	sta	$55                     ; 0x55 <__rc31+0x26>
    2031: 85 86        	sta	$86                     ; 0x86 <__rc31+0x57>
    2033: a2 00        	ldx	#$0
    2035: 86 87        	stx	$87                     ; 0x87 <__rc31+0x58>
    2037: 8a           	txa
    2038: 38           	sec
    2039: e5 15        	sbc	$15                     ; 0x15 <__rc5>
    203b: 85 15        	sta	$15                     ; 0x15 <__rc5>
    203d: 8a           	txa
    203e: e5 14        	sbc	$14                     ; 0x14 <__rc4>
    2040: a6 15        	ldx	$15                     ; 0x15 <__rc5>
    2042: 86 90        	stx	$90                     ; 0x90 <__rc31+0x61>
    2044: 85 91        	sta	$91                     ; 0x91 <__rc31+0x62>
    2046: e6 12        	inc	$12                     ; 0x12 <__zp_bss_size>
    2048: f0 03        	beq	$204d <printf+0x168>
    204a: 4c 1d 21     	jmp	$211d <printf+0x238>
    204d: e6 13        	inc	$13                     ; 0x13 <__rc3>
    204f: 4c 1d 21     	jmp	$211d <printf+0x238>
    2052: a5 16        	lda	$16                     ; 0x16 <__rc6>
    2054: 18           	clc
    2055: 69 d0        	adc	#$d0
    2057: c9 0a        	cmp	#$a
    2059: 90 03        	bcc	$205e <printf+0x179>
    205b: 4c 0f 21     	jmp	$210f <printf+0x22a>
    205e: a6 16        	ldx	$16                     ; 0x16 <__rc6>
    2060: 86 14        	stx	$14                     ; 0x14 <__rc4>
    2062: 64 16        	stz	$16                     ; 0x16 <__rc6>
    2064: 64 15        	stz	$15                     ; 0x15 <__rc5>
    2066: 64 17        	stz	$17                     ; 0x17 <__rc7>
    2068: a0 01        	ldy	#$1
    206a: a2 00        	ldx	#$0
    206c: 06 16        	asl	$16                     ; 0x16 <__rc6>
    206e: 26 17        	rol	$17                     ; 0x17 <__rc7>
    2070: a5 16        	lda	$16                     ; 0x16 <__rc6>
    2072: 0a           	asl
    2073: 85 18        	sta	$18                     ; 0x18 <__rc8>
    2075: a5 17        	lda	$17                     ; 0x17 <__rc7>
    2077: 2a           	rol
    2078: 06 18        	asl	$18                     ; 0x18 <__rc8>
    207a: 2a           	rol
    207b: 85 19        	sta	$19                     ; 0x19 <__rc9>
    207d: a5 18        	lda	$18                     ; 0x18 <__rc8>
    207f: 18           	clc
    2080: 65 16        	adc	$16                     ; 0x16 <__rc6>
    2082: 85 16        	sta	$16                     ; 0x16 <__rc6>
    2084: a5 19        	lda	$19                     ; 0x19 <__rc9>
    2086: 65 17        	adc	$17                     ; 0x17 <__rc7>
    2088: 85 17        	sta	$17                     ; 0x17 <__rc7>
    208a: a5 16        	lda	$16                     ; 0x16 <__rc6>
    208c: 18           	clc
    208d: 65 14        	adc	$14                     ; 0x14 <__rc4>
    208f: 85 14        	sta	$14                     ; 0x14 <__rc4>
    2091: a5 17        	lda	$17                     ; 0x17 <__rc7>
    2093: 65 15        	adc	$15                     ; 0x15 <__rc5>
    2095: 85 15        	sta	$15                     ; 0x15 <__rc5>
    2097: 18           	clc
    2098: a5 14        	lda	$14                     ; 0x14 <__rc4>
    209a: 69 d0        	adc	#$d0
    209c: 85 16        	sta	$16                     ; 0x16 <__rc6>
    209e: a5 15        	lda	$15                     ; 0x15 <__rc5>
    20a0: 69 ff        	adc	#$ff
    20a2: 85 17        	sta	$17                     ; 0x17 <__rc7>
    20a4: b1 12        	lda	($12),y                 ; 0x12 <__zp_bss_size>
    20a6: 85 14        	sta	$14                     ; 0x14 <__rc4>
    20a8: 18           	clc
    20a9: 69 d0        	adc	#$d0
    20ab: e6 12        	inc	$12                     ; 0x12 <__zp_bss_size>
    20ad: d0 02        	bne	$20b1 <printf+0x1cc>
    20af: e6 13        	inc	$13                     ; 0x13 <__rc3>
    20b1: c9 0a        	cmp	#$a
    20b3: 64 15        	stz	$15                     ; 0x15 <__rc5>
    20b5: 90 b5        	bcc	$206c <printf+0x187>
    20b7: 4c 15 21     	jmp	$2115 <printf+0x230>
    20ba: c4 89        	cpy	$89                     ; 0x89 <__rc31+0x5a>
    20bc: 84 16        	sty	$16                     ; 0x16 <__rc6>
    20be: a4 13        	ldy	$13                     ; 0x13 <__rc3>
    20c0: b0 37        	bcs	$20f9 <printf+0x214>
    20c2: a2 01        	ldx	#$1
    20c4: 86 14        	stx	$14                     ; 0x14 <__rc4>
    20c6: a6 95        	ldx	$95                     ; 0x95 <__rc31+0x66>
    20c8: a0 00        	ldy	#$0
    20ca: 84 12        	sty	$12                     ; 0x12 <__zp_bss_size>
    20cc: a0 00        	ldy	#$0
    20ce: 84 13        	sty	$13                     ; 0x13 <__rc3>
    20d0: e4 13        	cpx	$13                     ; 0x13 <__rc3>
    20d2: d0 19        	bne	$20ed <printf+0x208>
    20d4: a6 94        	ldx	$94                     ; 0x94 <__rc31+0x65>
    20d6: e4 12        	cpx	$12                     ; 0x12 <__zp_bss_size>
    20d8: d0 13        	bne	$20ed <printf+0x208>
    20da: a4 14        	ldy	$14                     ; 0x14 <__rc4>
    20dc: 18           	clc
    20dd: 65 8e        	adc	$8e                     ; 0x8e <__rc31+0x5f>
    20df: 85 12        	sta	$12                     ; 0x12 <__zp_bss_size>
    20e1: a5 16        	lda	$16                     ; 0x16 <__rc6>
    20e3: 65 8f        	adc	$8f                     ; 0x8f <__rc31+0x60>
    20e5: 85 13        	sta	$13                     ; 0x13 <__rc3>
    20e7: a9 25        	lda	#$25
    20e9: 92 12        	sta	($12)                   ; 0x12 <__zp_bss_size>
    20eb: 80 0c        	bra	$20f9 <printf+0x214>
    20ed: a2 01        	ldx	#$1
    20ef: 86 59        	stx	$59                     ; 0x59 <__rc31+0x2a>
    20f1: ca           	dex
    20f2: a9 25        	lda	#$25
    20f4: 20 16 2c     	jsr	$2c16 <putchar>
    20f7: a4 59        	ldy	$59                     ; 0x59 <__rc31+0x2a>
    20f9: e6 8a        	inc	$8a                     ; 0x8a <__rc31+0x5b>
    20fb: d0 02        	bne	$20ff <printf+0x21a>
    20fd: e6 8b        	inc	$8b                     ; 0x8b <__rc31+0x5c>
    20ff: a5 57        	lda	$57                     ; 0x57 <__rc31+0x28>
    2101: 18           	clc
    2102: 69 02        	adc	#$2
    2104: 85 59        	sta	$59                     ; 0x59 <__rc31+0x2a>
    2106: a5 58        	lda	$58                     ; 0x58 <__rc31+0x29>
    2108: 69 00        	adc	#$0
    210a: 85 5a        	sta	$5a                     ; 0x5a <__rc31+0x2b>
    210c: 4c 4a 1f     	jmp	$1f4a <printf+0x65>
    210f: 64 16        	stz	$16                     ; 0x16 <__rc6>
    2111: 64 17        	stz	$17                     ; 0x17 <__rc7>
    2113: a4 15        	ldy	$15                     ; 0x15 <__rc5>
    2115: a6 16        	ldx	$16                     ; 0x16 <__rc6>
    2117: 86 90        	stx	$90                     ; 0x90 <__rc31+0x61>
    2119: a5 17        	lda	$17                     ; 0x17 <__rc7>
    211b: 85 91        	sta	$91                     ; 0x91 <__rc31+0x62>
    211d: 86 1a        	stx	$1a                     ; 0x1a <__rc10>
    211f: 85 1e        	sta	$1e                     ; 0x1e <__rc14>
    2121: b2 12        	lda	($12)                   ; 0x12 <__zp_bss_size>
    2123: a2 ff        	ldx	#$ff
    2125: c9 2e        	cmp	#$2e
    2127: d0 39        	bne	$2162 <printf+0x27d>
    2129: b1 12        	lda	($12),y                 ; 0x12 <__zp_bss_size>
    212b: c9 2a        	cmp	#$2a
    212d: d0 38        	bne	$2167 <printf+0x282>
    212f: a5 96        	lda	$96                     ; 0x96 <__rc31+0x67>
    2131: a6 97        	ldx	$97                     ; 0x97 <__rc31+0x68>
    2133: 85 14        	sta	$14                     ; 0x14 <__rc4>
    2135: 86 15        	stx	$15                     ; 0x15 <__rc5>
    2137: 18           	clc
    2138: 69 02        	adc	#$2
    213a: 85 16        	sta	$16                     ; 0x16 <__rc6>
    213c: 8a           	txa
    213d: 69 00        	adc	#$0
    213f: a6 16        	ldx	$16                     ; 0x16 <__rc6>
    2141: 86 96        	stx	$96                     ; 0x96 <__rc31+0x67>
    2143: 85 97        	sta	$97                     ; 0x97 <__rc31+0x68>
    2145: a5 12        	lda	$12                     ; 0x12 <__zp_bss_size>
    2147: 18           	clc
    2148: 69 02        	adc	#$2
    214a: 85 12        	sta	$12                     ; 0x12 <__zp_bss_size>
    214c: a5 13        	lda	$13                     ; 0x13 <__rc3>
    214e: 69 00        	adc	#$0
    2150: 85 13        	sta	$13                     ; 0x13 <__rc3>
    2152: b2 14        	lda	($14)                   ; 0x14 <__rc4>
    2154: aa           	tax
    2155: b1 14        	lda	($14),y                 ; 0x14 <__rc4>
    2157: 86 18        	stx	$18                     ; 0x18 <__rc8>
    2159: 86 92        	stx	$92                     ; 0x92 <__rc31+0x63>
    215b: 85 19        	sta	$19                     ; 0x19 <__rc9>
    215d: 85 93        	sta	$93                     ; 0x93 <__rc31+0x64>
    215f: 4c 25 22     	jmp	$2225 <printf+0x340>
    2162: 86 18        	stx	$18                     ; 0x18 <__rc8>
    2164: 4c 35 22     	jmp	$2235 <printf+0x350>
    2167: 18           	clc
    2168: 85 17        	sta	$17                     ; 0x17 <__rc7>
    216a: 69 d0        	adc	#$d0
    216c: c9 0a        	cmp	#$a
    216e: 90 03        	bcc	$2173 <printf+0x28e>
    2170: 4c 17 22     	jmp	$2217 <printf+0x332>
    2173: 64 16        	stz	$16                     ; 0x16 <__rc6>
    2175: a2 01        	ldx	#$1
    2177: 64 18        	stz	$18                     ; 0x18 <__rc8>
    2179: 64 19        	stz	$19                     ; 0x19 <__rc9>
    217b: 84 1b        	sty	$1b                     ; 0x1b <__rc11>
    217d: 64 1c        	stz	$1c                     ; 0x1c <__rc12>
    217f: 18           	clc
    2180: a0 01        	ldy	#$1
    2182: b0 02        	bcs	$2186 <printf+0x2a1>
    2184: a0 00        	ldy	#$0
    2186: 84 1d        	sty	$1d                     ; 0x1d <__rc13>
    2188: a4 1c        	ldy	$1c                     ; 0x1c <__rc12>
    218a: 84 14        	sty	$14                     ; 0x14 <__rc4>
    218c: 86 15        	stx	$15                     ; 0x15 <__rc5>
    218e: 06 18        	asl	$18                     ; 0x18 <__rc8>
    2190: 26 19        	rol	$19                     ; 0x19 <__rc9>
    2192: a5 18        	lda	$18                     ; 0x18 <__rc8>
    2194: 0a           	asl
    2195: a8           	tay
    2196: a5 19        	lda	$19                     ; 0x19 <__rc9>
    2198: 2a           	rol
    2199: 84 1f        	sty	$1f                     ; 0x1f <__rc15>
    219b: 06 1f        	asl	$1f                     ; 0x1f <__rc15>
    219d: 2a           	rol
    219e: 85 22        	sta	$22                     ; 0x22 <__rc18>
    21a0: a5 1f        	lda	$1f                     ; 0x1f <__rc15>
    21a2: a4 1d        	ldy	$1d                     ; 0x1d <__rc13>
    21a4: c0 01        	cpy	#$1
    21a6: 65 18        	adc	$18                     ; 0x18 <__rc8>
    21a8: 85 18        	sta	$18                     ; 0x18 <__rc8>
    21aa: a5 22        	lda	$22                     ; 0x22 <__rc18>
    21ac: 65 19        	adc	$19                     ; 0x19 <__rc9>
    21ae: 85 19        	sta	$19                     ; 0x19 <__rc9>
    21b0: a5 18        	lda	$18                     ; 0x18 <__rc8>
    21b2: a4 1d        	ldy	$1d                     ; 0x1d <__rc13>
    21b4: c0 01        	cpy	#$1
    21b6: 65 17        	adc	$17                     ; 0x17 <__rc7>
    21b8: 85 17        	sta	$17                     ; 0x17 <__rc7>
    21ba: a5 19        	lda	$19                     ; 0x19 <__rc9>
    21bc: 65 16        	adc	$16                     ; 0x16 <__rc6>
    21be: 85 16        	sta	$16                     ; 0x16 <__rc6>
    21c0: 18           	clc
    21c1: a5 17        	lda	$17                     ; 0x17 <__rc7>
    21c3: 69 d0        	adc	#$d0
    21c5: 85 18        	sta	$18                     ; 0x18 <__rc8>
    21c7: a5 16        	lda	$16                     ; 0x16 <__rc6>
    21c9: 69 ff        	adc	#$ff
    21cb: 85 19        	sta	$19                     ; 0x19 <__rc9>
    21cd: e8           	inx
    21ce: d0 02        	bne	$21d2 <printf+0x2ed>
    21d0: e6 1c        	inc	$1c                     ; 0x1c <__rc12>
    21d2: a5 12        	lda	$12                     ; 0x12 <__zp_bss_size>
    21d4: a4 1d        	ldy	$1d                     ; 0x1d <__rc13>
    21d6: c0 01        	cpy	#$1
    21d8: 65 15        	adc	$15                     ; 0x15 <__rc5>
    21da: a8           	tay
    21db: a5 13        	lda	$13                     ; 0x13 <__rc3>
    21dd: 65 14        	adc	$14                     ; 0x14 <__rc4>
    21df: 84 16        	sty	$16                     ; 0x16 <__rc6>
    21e1: 85 17        	sta	$17                     ; 0x17 <__rc7>
    21e3: a4 1b        	ldy	$1b                     ; 0x1b <__rc11>
    21e5: b1 16        	lda	($16),y                 ; 0x16 <__rc6>
    21e7: 85 17        	sta	$17                     ; 0x17 <__rc7>
    21e9: 18           	clc
    21ea: 69 d0        	adc	#$d0
    21ec: c9 0a        	cmp	#$a
    21ee: 64 16        	stz	$16                     ; 0x16 <__rc6>
    21f0: b0 03        	bcs	$21f5 <printf+0x310>
    21f2: 4c 88 21     	jmp	$2188 <printf+0x2a3>
    21f5: a5 12        	lda	$12                     ; 0x12 <__zp_bss_size>
    21f7: a6 1d        	ldx	$1d                     ; 0x1d <__rc13>
    21f9: e0 01        	cpx	#$1
    21fb: 65 15        	adc	$15                     ; 0x15 <__rc5>
    21fd: 85 12        	sta	$12                     ; 0x12 <__zp_bss_size>
    21ff: a5 13        	lda	$13                     ; 0x13 <__rc3>
    2201: 65 14        	adc	$14                     ; 0x14 <__rc4>
    2203: 85 13        	sta	$13                     ; 0x13 <__rc3>
    2205: e6 12        	inc	$12                     ; 0x12 <__zp_bss_size>
    2207: d0 02        	bne	$220b <printf+0x326>
    2209: e6 13        	inc	$13                     ; 0x13 <__rc3>
    220b: a6 18        	ldx	$18                     ; 0x18 <__rc8>
    220d: 86 92        	stx	$92                     ; 0x92 <__rc31+0x63>
    220f: a6 19        	ldx	$19                     ; 0x19 <__rc9>
    2211: 86 93        	stx	$93                     ; 0x93 <__rc31+0x64>
    2213: a4 1b        	ldy	$1b                     ; 0x1b <__rc11>
    2215: 80 0e        	bra	$2225 <printf+0x340>
    2217: e6 12        	inc	$12                     ; 0x12 <__zp_bss_size>
    2219: d0 02        	bne	$221d <printf+0x338>
    221b: e6 13        	inc	$13                     ; 0x13 <__rc3>
    221d: 64 18        	stz	$18                     ; 0x18 <__rc8>
    221f: 64 92        	stz	$92                     ; 0x92 <__rc31+0x63>
    2221: 64 93        	stz	$93                     ; 0x93 <__rc31+0x64>
    2223: 64 19        	stz	$19                     ; 0x19 <__rc9>
    2225: a5 55        	lda	$55                     ; 0x55 <__rc31+0x26>
    2227: 29 ef        	and	#$ef
    2229: 85 55        	sta	$55                     ; 0x55 <__rc31+0x26>
    222b: 85 86        	sta	$86                     ; 0x86 <__rc31+0x57>
    222d: a2 00        	ldx	#$0
    222f: 86 87        	stx	$87                     ; 0x87 <__rc31+0x58>
    2231: b2 12        	lda	($12)                   ; 0x12 <__zp_bss_size>
    2233: a6 19        	ldx	$19                     ; 0x19 <__rc9>
    2235: 86 14        	stx	$14                     ; 0x14 <__rc4>
    2237: a6 12        	ldx	$12                     ; 0x12 <__zp_bss_size>
    2239: 86 59        	stx	$59                     ; 0x59 <__rc31+0x2a>
    223b: a6 13        	ldx	$13                     ; 0x13 <__rc3>
    223d: 86 5a        	stx	$5a                     ; 0x5a <__rc31+0x2b>
    223f: e6 59        	inc	$59                     ; 0x59 <__rc31+0x2a>
    2241: d0 02        	bne	$2245 <printf+0x360>
    2243: e6 5a        	inc	$5a                     ; 0x5a <__rc31+0x2b>
    2245: 38           	sec
    2246: aa           	tax
    2247: e9 6c        	sbc	#$6c
    2249: 50 02        	bvc	$224d <printf+0x368>
    224b: 49 80        	eor	#$80
    224d: c9 00        	cmp	#$0
    224f: 10 1f        	bpl	$2270 <printf+0x38b>
    2251: e0 4c        	cpx	#$4c
    2253: f0 35        	beq	$228a <printf+0x3a5>
    2255: e0 68        	cpx	#$68
    2257: d0 03        	bne	$225c <printf+0x377>
    2259: 4c 05 23     	jmp	$2305 <printf+0x420>
    225c: da           	phx
    225d: 7a           	ply
    225e: a9 01        	lda	#$1
    2260: a2 08        	ldx	#$8
    2262: c0 6a        	cpy	#$6a
    2264: d0 20        	bne	$2286 <printf+0x3a1>
    2266: a4 59        	ldy	$59                     ; 0x59 <__rc31+0x2a>
    2268: 84 12        	sty	$12                     ; 0x12 <__zp_bss_size>
    226a: a4 5a        	ldy	$5a                     ; 0x5a <__rc31+0x2b>
    226c: 84 13        	sty	$13                     ; 0x13 <__rc3>
    226e: 80 50        	bra	$22c0 <printf+0x3db>
    2270: e0 6c        	cpx	#$6c
    2272: f0 31        	beq	$22a5 <printf+0x3c0>
    2274: e0 74        	cpx	#$74
    2276: f0 1e        	beq	$2296 <printf+0x3b1>
    2278: a9 01        	lda	#$1
    227a: e0 7a        	cpx	#$7a
    227c: d0 08        	bne	$2286 <printf+0x3a1>
    227e: a6 59        	ldx	$59                     ; 0x59 <__rc31+0x2a>
    2280: 86 12        	stx	$12                     ; 0x12 <__zp_bss_size>
    2282: a6 5a        	ldx	$5a                     ; 0x5a <__rc31+0x2b>
    2284: 86 13        	stx	$13                     ; 0x13 <__rc3>
    2286: a2 02        	ldx	#$2
    2288: 80 17        	bra	$22a1 <printf+0x3bc>
    228a: a5 55        	lda	$55                     ; 0x55 <__rc31+0x26>
    228c: 09 40        	ora	#$40
    228e: 85 55        	sta	$55                     ; 0x55 <__rc31+0x26>
    2290: 85 86        	sta	$86                     ; 0x86 <__rc31+0x57>
    2292: a2 00        	ldx	#$0
    2294: 86 87        	stx	$87                     ; 0x87 <__rc31+0x58>
    2296: a6 59        	ldx	$59                     ; 0x59 <__rc31+0x2a>
    2298: 86 12        	stx	$12                     ; 0x12 <__zp_bss_size>
    229a: a6 5a        	ldx	$5a                     ; 0x5a <__rc31+0x2b>
    229c: 86 13        	stx	$13                     ; 0x13 <__rc3>
    229e: a2 02        	ldx	#$2
    22a0: 98           	tya
    22a1: a0 02        	ldy	#$2
    22a3: 80 1d        	bra	$22c2 <printf+0x3dd>
    22a5: b1 12        	lda	($12),y                 ; 0x12 <__zp_bss_size>
    22a7: a2 04        	ldx	#$4
    22a9: c9 6c        	cmp	#$6c
    22ab: f0 03        	beq	$22b0 <printf+0x3cb>
    22ad: 4c 22 23     	jmp	$2322 <printf+0x43d>
    22b0: a5 12        	lda	$12                     ; 0x12 <__zp_bss_size>
    22b2: 18           	clc
    22b3: 69 02        	adc	#$2
    22b5: 85 12        	sta	$12                     ; 0x12 <__zp_bss_size>
    22b7: a5 13        	lda	$13                     ; 0x13 <__rc3>
    22b9: 69 00        	adc	#$0
    22bb: 85 13        	sta	$13                     ; 0x13 <__rc3>
    22bd: a2 08        	ldx	#$8
    22bf: 98           	tya
    22c0: a0 08        	ldy	#$8
    22c2: 84 56        	sty	$56                     ; 0x56 <__rc31+0x27>
    22c4: a8           	tay
    22c5: b2 12        	lda	($12)                   ; 0x12 <__zp_bss_size>
    22c7: 5a           	phy
    22c8: a4 12        	ldy	$12                     ; 0x12 <__zp_bss_size>
    22ca: 84 59        	sty	$59                     ; 0x59 <__rc31+0x2a>
    22cc: a4 13        	ldy	$13                     ; 0x13 <__rc3>
    22ce: 84 5a        	sty	$5a                     ; 0x5a <__rc31+0x2b>
    22d0: 7a           	ply
    22d1: 86 5f        	stx	$5f                     ; 0x5f <__rc31+0x30>
    22d3: aa           	tax
    22d4: 18           	clc
    22d5: 69 9d        	adc	#$9d
    22d7: c9 16        	cmp	#$16
    22d9: b0 4c        	bcs	$2327 <printf+0x442>
    22db: 0a           	asl
    22dc: aa           	tax
    22dd: 7c 4e 31     	jmp	($314e,x)               ; 0x314e <__BLOCK_SIZE+0x114e>
    22e0: a6 57        	ldx	$57                     ; 0x57 <__rc31+0x28>
    22e2: 86 9b        	stx	$9b                     ; 0x9b <__rc31+0x6c>
    22e4: a6 58        	ldx	$58                     ; 0x58 <__rc31+0x29>
    22e6: 86 9c        	stx	$9c                     ; 0x9c <__rc31+0x6d>
    22e8: a6 14        	ldx	$14                     ; 0x14 <__rc4>
    22ea: 86 9f        	stx	$9f                     ; 0x9f <__rc31+0x70>
    22ec: a6 18        	ldx	$18                     ; 0x18 <__rc8>
    22ee: 86 9a        	stx	$9a                     ; 0x9a <__rc31+0x6b>
    22f0: a6 1e        	ldx	$1e                     ; 0x1e <__rc14>
    22f2: 86 a0        	stx	$a0                     ; 0xa0 <__rc31+0x71>
    22f4: a6 1a        	ldx	$1a                     ; 0x1a <__rc10>
    22f6: 86 5e        	stx	$5e                     ; 0x5e <__rc31+0x2f>
    22f8: a0 0a        	ldy	#$a
    22fa: a2 0a        	ldx	#$a
    22fc: 86 60        	stx	$60                     ; 0x60 <__rc31+0x31>
    22fe: 84 85        	sty	$85                     ; 0x85 <__rc31+0x56>
    2300: 64 5d        	stz	$5d                     ; 0x5d <__rc31+0x2e>
    2302: 4c 74 24     	jmp	$2474 <printf+0x58f>
    2305: b1 12        	lda	($12),y                 ; 0x12 <__zp_bss_size>
    2307: a2 02        	ldx	#$2
    2309: c9 68        	cmp	#$68
    230b: d0 15        	bne	$2322 <printf+0x43d>
    230d: a5 12        	lda	$12                     ; 0x12 <__zp_bss_size>
    230f: 18           	clc
    2310: 69 02        	adc	#$2
    2312: 85 12        	sta	$12                     ; 0x12 <__zp_bss_size>
    2314: a5 13        	lda	$13                     ; 0x13 <__rc3>
    2316: 69 00        	adc	#$0
    2318: 85 13        	sta	$13                     ; 0x13 <__rc3>
    231a: a2 01        	ldx	#$1
    231c: 86 56        	stx	$56                     ; 0x56 <__rc31+0x27>
    231e: e8           	inx
    231f: 4c c5 22     	jmp	$22c5 <printf+0x3e0>
    2322: 86 56        	stx	$56                     ; 0x56 <__rc31+0x27>
    2324: 4c d1 22     	jmp	$22d1 <printf+0x3ec>
    2327: e0 58        	cpx	#$58
    2329: f0 03        	beq	$232e <printf+0x449>
    232b: 4c ca 2b     	jmp	$2bca <printf+0xce5>
    232e: a6 57        	ldx	$57                     ; 0x57 <__rc31+0x28>
    2330: 86 9b        	stx	$9b                     ; 0x9b <__rc31+0x6c>
    2332: a6 58        	ldx	$58                     ; 0x58 <__rc31+0x29>
    2334: 86 9c        	stx	$9c                     ; 0x9c <__rc31+0x6d>
    2336: a6 14        	ldx	$14                     ; 0x14 <__rc4>
    2338: 86 9f        	stx	$9f                     ; 0x9f <__rc31+0x70>
    233a: a6 18        	ldx	$18                     ; 0x18 <__rc8>
    233c: 86 9a        	stx	$9a                     ; 0x9a <__rc31+0x6b>
    233e: a6 1e        	ldx	$1e                     ; 0x1e <__rc14>
    2340: 86 a0        	stx	$a0                     ; 0xa0 <__rc31+0x71>
    2342: a6 1a        	ldx	$1a                     ; 0x1a <__rc10>
    2344: 86 5e        	stx	$5e                     ; 0x5e <__rc31+0x2f>
    2346: a2 10        	ldx	#$10
    2348: 86 85        	stx	$85                     ; 0x85 <__rc31+0x56>
    234a: a9 00        	lda	#$0
    234c: 09 01        	ora	#$1
    234e: a6 55        	ldx	$55                     ; 0x55 <__rc31+0x26>
    2350: 80 49        	bra	$239b <printf+0x4b6>
    2352: a6 57        	ldx	$57                     ; 0x57 <__rc31+0x28>
    2354: 86 9b        	stx	$9b                     ; 0x9b <__rc31+0x6c>
    2356: a6 58        	ldx	$58                     ; 0x58 <__rc31+0x29>
    2358: 86 9c        	stx	$9c                     ; 0x9c <__rc31+0x6d>
    235a: a6 14        	ldx	$14                     ; 0x14 <__rc4>
    235c: 86 9f        	stx	$9f                     ; 0x9f <__rc31+0x70>
    235e: a6 18        	ldx	$18                     ; 0x18 <__rc8>
    2360: 86 9a        	stx	$9a                     ; 0x9a <__rc31+0x6b>
    2362: a6 1e        	ldx	$1e                     ; 0x1e <__rc14>
    2364: 86 a0        	stx	$a0                     ; 0xa0 <__rc31+0x71>
    2366: a6 1a        	ldx	$1a                     ; 0x1a <__rc10>
    2368: 86 5e        	stx	$5e                     ; 0x5e <__rc31+0x2f>
    236a: a2 10        	ldx	#$10
    236c: 86 85        	stx	$85                     ; 0x85 <__rc31+0x56>
    236e: a5 55        	lda	$55                     ; 0x55 <__rc31+0x26>
    2370: 09 84        	ora	#$84
    2372: 80 20        	bra	$2394 <printf+0x4af>
    2374: a6 57        	ldx	$57                     ; 0x57 <__rc31+0x28>
    2376: 86 9b        	stx	$9b                     ; 0x9b <__rc31+0x6c>
    2378: a6 58        	ldx	$58                     ; 0x58 <__rc31+0x29>
    237a: 86 9c        	stx	$9c                     ; 0x9c <__rc31+0x6d>
    237c: a6 14        	ldx	$14                     ; 0x14 <__rc4>
    237e: 86 9f        	stx	$9f                     ; 0x9f <__rc31+0x70>
    2380: a6 18        	ldx	$18                     ; 0x18 <__rc8>
    2382: 86 9a        	stx	$9a                     ; 0x9a <__rc31+0x6b>
    2384: a6 1e        	ldx	$1e                     ; 0x1e <__rc14>
    2386: 86 a0        	stx	$a0                     ; 0xa0 <__rc31+0x71>
    2388: a6 1a        	ldx	$1a                     ; 0x1a <__rc10>
    238a: 86 5e        	stx	$5e                     ; 0x5e <__rc31+0x2f>
    238c: a2 10        	ldx	#$10
    238e: 86 85        	stx	$85                     ; 0x85 <__rc31+0x56>
    2390: a5 55        	lda	$55                     ; 0x55 <__rc31+0x26>
    2392: 09 80        	ora	#$80
    2394: aa           	tax
    2395: a9 00        	lda	#$0
    2397: 09 01        	ora	#$1
    2399: 86 55        	stx	$55                     ; 0x55 <__rc31+0x26>
    239b: 86 86        	stx	$86                     ; 0x86 <__rc31+0x57>
    239d: 85 5d        	sta	$5d                     ; 0x5d <__rc31+0x2e>
    239f: 85 87        	sta	$87                     ; 0x87 <__rc31+0x58>
    23a1: a2 10        	ldx	#$10
    23a3: 86 60        	stx	$60                     ; 0x60 <__rc31+0x31>
    23a5: 4c 74 24     	jmp	$2474 <printf+0x58f>
    23a8: a5 96        	lda	$96                     ; 0x96 <__rc31+0x67>
    23aa: a6 97        	ldx	$97                     ; 0x97 <__rc31+0x68>
    23ac: 85 12        	sta	$12                     ; 0x12 <__zp_bss_size>
    23ae: 86 13        	stx	$13                     ; 0x13 <__rc3>
    23b0: 18           	clc
    23b1: 69 02        	adc	#$2
    23b3: 85 14        	sta	$14                     ; 0x14 <__rc4>
    23b5: 8a           	txa
    23b6: 69 00        	adc	#$0
    23b8: a6 14        	ldx	$14                     ; 0x14 <__rc4>
    23ba: 86 96        	stx	$96                     ; 0x96 <__rc31+0x67>
    23bc: 85 97        	sta	$97                     ; 0x97 <__rc31+0x68>
    23be: b2 12        	lda	($12)                   ; 0x12 <__zp_bss_size>
    23c0: aa           	tax
    23c1: b1 12        	lda	($12),y                 ; 0x12 <__zp_bss_size>
    23c3: 86 12        	stx	$12                     ; 0x12 <__zp_bss_size>
    23c5: 85 13        	sta	$13                     ; 0x13 <__rc3>
    23c7: a5 8a        	lda	$8a                     ; 0x8a <__rc31+0x5b>
    23c9: a6 8b        	ldx	$8b                     ; 0x8b <__rc31+0x5c>
    23cb: 92 12        	sta	($12)                   ; 0x12 <__zp_bss_size>
    23cd: 8a           	txa
    23ce: 91 12        	sta	($12),y                 ; 0x12 <__zp_bss_size>
    23d0: 4c b2 2b     	jmp	$2bb2 <printf+0xccd>
    23d3: a5 96        	lda	$96                     ; 0x96 <__rc31+0x67>
    23d5: a6 97        	ldx	$97                     ; 0x97 <__rc31+0x68>
    23d7: 85 12        	sta	$12                     ; 0x12 <__zp_bss_size>
    23d9: 86 13        	stx	$13                     ; 0x13 <__rc3>
    23db: 18           	clc
    23dc: 69 02        	adc	#$2
    23de: 85 14        	sta	$14                     ; 0x14 <__rc4>
    23e0: 8a           	txa
    23e1: 69 00        	adc	#$0
    23e3: a6 14        	ldx	$14                     ; 0x14 <__rc4>
    23e5: 86 96        	stx	$96                     ; 0x96 <__rc31+0x67>
    23e7: 85 97        	sta	$97                     ; 0x97 <__rc31+0x68>
    23e9: b2 12        	lda	($12)                   ; 0x12 <__zp_bss_size>
    23eb: aa           	tax
    23ec: b1 12        	lda	($12),y                 ; 0x12 <__zp_bss_size>
    23ee: 86 12        	stx	$12                     ; 0x12 <__zp_bss_size>
    23f0: 85 13        	sta	$13                     ; 0x13 <__rc3>
    23f2: 80 42        	bra	$2436 <printf+0x551>
    23f4: a6 57        	ldx	$57                     ; 0x57 <__rc31+0x28>
    23f6: 86 9b        	stx	$9b                     ; 0x9b <__rc31+0x6c>
    23f8: a6 58        	ldx	$58                     ; 0x58 <__rc31+0x29>
    23fa: 86 9c        	stx	$9c                     ; 0x9c <__rc31+0x6d>
    23fc: a6 14        	ldx	$14                     ; 0x14 <__rc4>
    23fe: 86 9f        	stx	$9f                     ; 0x9f <__rc31+0x70>
    2400: a6 18        	ldx	$18                     ; 0x18 <__rc8>
    2402: 86 9a        	stx	$9a                     ; 0x9a <__rc31+0x6b>
    2404: a6 1e        	ldx	$1e                     ; 0x1e <__rc14>
    2406: 86 a0        	stx	$a0                     ; 0xa0 <__rc31+0x71>
    2408: a6 1a        	ldx	$1a                     ; 0x1a <__rc10>
    240a: 86 5e        	stx	$5e                     ; 0x5e <__rc31+0x2f>
    240c: a0 08        	ldy	#$8
    240e: a2 08        	ldx	#$8
    2410: 80 52        	bra	$2464 <printf+0x57f>
    2412: a5 96        	lda	$96                     ; 0x96 <__rc31+0x67>
    2414: a6 97        	ldx	$97                     ; 0x97 <__rc31+0x68>
    2416: 85 12        	sta	$12                     ; 0x12 <__zp_bss_size>
    2418: 86 13        	stx	$13                     ; 0x13 <__rc3>
    241a: 18           	clc
    241b: 69 02        	adc	#$2
    241d: 85 14        	sta	$14                     ; 0x14 <__rc4>
    241f: 8a           	txa
    2420: 69 00        	adc	#$0
    2422: a6 14        	ldx	$14                     ; 0x14 <__rc4>
    2424: 86 96        	stx	$96                     ; 0x96 <__rc31+0x67>
    2426: 85 97        	sta	$97                     ; 0x97 <__rc31+0x68>
    2428: b2 12        	lda	($12)                   ; 0x12 <__zp_bss_size>
    242a: 85 78        	sta	$78                     ; 0x78 <__rc31+0x49>
    242c: 64 79        	stz	$79                     ; 0x79 <__rc31+0x4a>
    242e: a2 78        	ldx	#$78
    2430: 86 12        	stx	$12                     ; 0x12 <__zp_bss_size>
    2432: a2 00        	ldx	#$0
    2434: 86 13        	stx	$13                     ; 0x13 <__rc3>
    2436: a2 85        	ldx	#$85
    2438: 86 14        	stx	$14                     ; 0x14 <__rc4>
    243a: a2 00        	ldx	#$0
    243c: 86 15        	stx	$15                     ; 0x15 <__rc5>
    243e: 84 5b        	sty	$5b                     ; 0x5b <__rc31+0x2c>
    2440: 20 d6 1d     	jsr	$1dd6 <_ZN12_GLOBAL__N_112print_stringEPKcP6Status>
    2443: a4 5b        	ldy	$5b                     ; 0x5b <__rc31+0x2c>
    2445: 4c b2 2b     	jmp	$2bb2 <printf+0xccd>
    2448: a6 57        	ldx	$57                     ; 0x57 <__rc31+0x28>
    244a: 86 9b        	stx	$9b                     ; 0x9b <__rc31+0x6c>
    244c: a6 58        	ldx	$58                     ; 0x58 <__rc31+0x29>
    244e: 86 9c        	stx	$9c                     ; 0x9c <__rc31+0x6d>
    2450: a6 14        	ldx	$14                     ; 0x14 <__rc4>
    2452: 86 9f        	stx	$9f                     ; 0x9f <__rc31+0x70>
    2454: a6 18        	ldx	$18                     ; 0x18 <__rc8>
    2456: 86 9a        	stx	$9a                     ; 0x9a <__rc31+0x6b>
    2458: a6 1e        	ldx	$1e                     ; 0x1e <__rc14>
    245a: 86 a0        	stx	$a0                     ; 0xa0 <__rc31+0x71>
    245c: a6 1a        	ldx	$1a                     ; 0x1a <__rc10>
    245e: 86 5e        	stx	$5e                     ; 0x5e <__rc31+0x2f>
    2460: a0 0a        	ldy	#$a
    2462: a2 0a        	ldx	#$a
    2464: 86 60        	stx	$60                     ; 0x60 <__rc31+0x31>
    2466: 84 85        	sty	$85                     ; 0x85 <__rc31+0x56>
    2468: a9 00        	lda	#$0
    246a: 09 01        	ora	#$1
    246c: a6 55        	ldx	$55                     ; 0x55 <__rc31+0x26>
    246e: 86 86        	stx	$86                     ; 0x86 <__rc31+0x57>
    2470: 85 5d        	sta	$5d                     ; 0x5d <__rc31+0x2e>
    2472: 85 87        	sta	$87                     ; 0x87 <__rc31+0x58>
    2474: a5 56        	lda	$56                     ; 0x56 <__rc31+0x27>
    2476: 85 7a        	sta	$7a                     ; 0x7a <__rc31+0x4b>
    2478: a4 96        	ldy	$96                     ; 0x96 <__rc31+0x67>
    247a: a6 97        	ldx	$97                     ; 0x97 <__rc31+0x68>
    247c: 86 5b        	stx	$5b                     ; 0x5b <__rc31+0x2c>
    247e: 84 14        	sty	$14                     ; 0x14 <__rc4>
    2480: 84 57        	sty	$57                     ; 0x57 <__rc31+0x28>
    2482: 86 15        	stx	$15                     ; 0x15 <__rc5>
    2484: a6 9d        	ldx	$9d                     ; 0x9d <__rc31+0x6e>
    2486: 86 12        	stx	$12                     ; 0x12 <__zp_bss_size>
    2488: a6 9e        	ldx	$9e                     ; 0x9e <__rc31+0x6f>
    248a: 86 13        	stx	$13                     ; 0x13 <__rc3>
    248c: a2 00        	ldx	#$0
    248e: 85 5c        	sta	$5c                     ; 0x5c <__rc31+0x2d>
    2490: 20 c2 30     	jsr	$30c2 <memcpy>
    2493: 18           	clc
    2494: a5 57        	lda	$57                     ; 0x57 <__rc31+0x28>
    2496: 65 5f        	adc	$5f                     ; 0x5f <__rc31+0x30>
    2498: aa           	tax
    2499: a5 5b        	lda	$5b                     ; 0x5b <__rc31+0x2c>
    249b: 69 00        	adc	#$0
    249d: 86 96        	stx	$96                     ; 0x96 <__rc31+0x67>
    249f: 85 97        	sta	$97                     ; 0x97 <__rc31+0x68>
    24a1: a5 5d        	lda	$5d                     ; 0x5d <__rc31+0x2e>
    24a3: 29 01        	and	#$1
    24a5: a0 00        	ldy	#$0
    24a7: aa           	tax
    24a8: f0 03        	beq	$24ad <printf+0x5c8>
    24aa: 4c ff 24     	jmp	$24ff <printf+0x61a>
    24ad: a6 5c        	ldx	$5c                     ; 0x5c <__rc31+0x2d>
    24af: b5 7a        	lda	$7a,x                   ; 0x7a <__rc31+0x4b>
    24b1: aa           	tax
    24b2: a5 5e        	lda	$5e                     ; 0x5e <__rc31+0x2f>
    24b4: 85 17        	sta	$17                     ; 0x17 <__rc7>
    24b6: a5 a0        	lda	$a0                     ; 0xa0 <__rc31+0x71>
    24b8: 85 1a        	sta	$1a                     ; 0x1a <__rc10>
    24ba: a5 9f        	lda	$9f                     ; 0x9f <__rc31+0x70>
    24bc: 85 5c        	sta	$5c                     ; 0x5c <__rc31+0x2d>
    24be: a5 9b        	lda	$9b                     ; 0x9b <__rc31+0x6c>
    24c0: 85 57        	sta	$57                     ; 0x57 <__rc31+0x28>
    24c2: a5 9c        	lda	$9c                     ; 0x9c <__rc31+0x6d>
    24c4: 85 58        	sta	$58                     ; 0x58 <__rc31+0x29>
    24c6: 8a           	txa
    24c7: 10 4a        	bpl	$2513 <printf+0x62e>
    24c9: a2 00        	ldx	#$0
    24cb: 64 12        	stz	$12                     ; 0x12 <__zp_bss_size>
    24cd: a9 00        	lda	#$0
    24cf: 38           	sec
    24d0: f5 7b        	sbc	$7b,x                   ; 0x7b <__rc31+0x4c>
    24d2: a0 01        	ldy	#$1
    24d4: 84 14        	sty	$14                     ; 0x14 <__rc4>
    24d6: 88           	dey
    24d7: b0 02        	bcs	$24db <printf+0x5f6>
    24d9: a0 01        	ldy	#$1
    24db: 38           	sec
    24dc: e5 12        	sbc	$12                     ; 0x12 <__zp_bss_size>
    24de: 85 13        	sta	$13                     ; 0x13 <__rc3>
    24e0: 64 12        	stz	$12                     ; 0x12 <__zp_bss_size>
    24e2: b0 04        	bcs	$24e8 <printf+0x603>
    24e4: a5 14        	lda	$14                     ; 0x14 <__rc4>
    24e6: 85 12        	sta	$12                     ; 0x12 <__zp_bss_size>
    24e8: 98           	tya
    24e9: 05 12        	ora	$12                     ; 0x12 <__zp_bss_size>
    24eb: 85 12        	sta	$12                     ; 0x12 <__zp_bss_size>
    24ed: a5 13        	lda	$13                     ; 0x13 <__rc3>
    24ef: 9d 7b 00     	sta	$7b,x                   ; 0x7b <__rc31+0x4c>
    24f2: e8           	inx
    24f3: 86 13        	stx	$13                     ; 0x13 <__rc3>
    24f5: a4 56        	ldy	$56                     ; 0x56 <__rc31+0x27>
    24f7: c4 13        	cpy	$13                     ; 0x13 <__rc3>
    24f9: d0 d2        	bne	$24cd <printf+0x5e8>
    24fb: a0 01        	ldy	#$1
    24fd: 80 14        	bra	$2513 <printf+0x62e>
    24ff: a6 5e        	ldx	$5e                     ; 0x5e <__rc31+0x2f>
    2501: 86 17        	stx	$17                     ; 0x17 <__rc7>
    2503: a6 a0        	ldx	$a0                     ; 0xa0 <__rc31+0x71>
    2505: 86 1a        	stx	$1a                     ; 0x1a <__rc10>
    2507: a6 9f        	ldx	$9f                     ; 0x9f <__rc31+0x70>
    2509: 86 5c        	stx	$5c                     ; 0x5c <__rc31+0x2d>
    250b: a6 9b        	ldx	$9b                     ; 0x9b <__rc31+0x6c>
    250d: 86 57        	stx	$57                     ; 0x57 <__rc31+0x28>
    250f: a6 9c        	ldx	$9c                     ; 0x9c <__rc31+0x6d>
    2511: 86 58        	stx	$58                     ; 0x58 <__rc31+0x29>
    2513: 84 18        	sty	$18                     ; 0x18 <__rc8>
    2515: a5 56        	lda	$56                     ; 0x56 <__rc31+0x27>
    2517: 0a           	asl
    2518: 0a           	asl
    2519: 0a           	asl
    251a: 85 12        	sta	$12                     ; 0x12 <__zp_bss_size>
    251c: a2 00        	ldx	#$0
    251e: 8a           	txa
    251f: 4c d6 25     	jmp	$25d6 <printf+0x6f1>
    2522: a4 13        	ldy	$13                     ; 0x13 <__rc3>
    2524: 99 63 00     	sta	$63,y                   ; 0x63 <__rc31+0x34>
    2527: a4 15        	ldy	$15                     ; 0x15 <__rc5>
    2529: c4 13        	cpy	$13                     ; 0x13 <__rc3>
    252b: f0 38        	beq	$2565 <printf+0x680>
    252d: e6 13        	inc	$13                     ; 0x13 <__rc3>
    252f: a4 13        	ldy	$13                     ; 0x13 <__rc3>
    2531: b9 63 00     	lda	$63,y                   ; 0x63 <__rc31+0x34>
    2534: 0a           	asl
    2535: e0 00        	cpx	#$0
    2537: f0 02        	beq	$253b <printf+0x656>
    2539: 09 01        	ora	#$1
    253b: a4 60        	ldy	$60                     ; 0x60 <__rc31+0x31>
    253d: 84 14        	sty	$14                     ; 0x14 <__rc4>
    253f: c5 14        	cmp	$14                     ; 0x14 <__rc4>
    2541: a2 01        	ldx	#$1
    2543: b0 02        	bcs	$2547 <printf+0x662>
    2545: a2 00        	ldx	#$0
    2547: 90 d9        	bcc	$2522 <printf+0x63d>
    2549: 84 14        	sty	$14                     ; 0x14 <__rc4>
    254b: 38           	sec
    254c: e5 14        	sbc	$14                     ; 0x14 <__rc4>
    254e: a4 13        	ldy	$13                     ; 0x13 <__rc3>
    2550: 99 63 00     	sta	$63,y                   ; 0x63 <__rc31+0x34>
    2553: a4 15        	ldy	$15                     ; 0x15 <__rc5>
    2555: c4 13        	cpy	$13                     ; 0x13 <__rc3>
    2557: d0 d4        	bne	$252d <printf+0x648>
    2559: a4 5f        	ldy	$5f                     ; 0x5f <__rc31+0x30>
    255b: a6 5f        	ldx	$5f                     ; 0x5f <__rc31+0x30>
    255d: e8           	inx
    255e: a9 01        	lda	#$1
    2560: 99 63 00     	sta	$63,y                   ; 0x63 <__rc31+0x34>
    2563: 86 5f        	stx	$5f                     ; 0x5f <__rc31+0x30>
    2565: a6 56        	ldx	$56                     ; 0x56 <__rc31+0x27>
    2567: b5 7a        	lda	$7a,x                   ; 0x7a <__rc31+0x4b>
    2569: aa           	tax
    256a: 10 41        	bpl	$25ad <printf+0x6c8>
    256c: a5 5f        	lda	$5f                     ; 0x5f <__rc31+0x30>
    256e: f0 2f        	beq	$259f <printf+0x6ba>
    2570: a2 00        	ldx	#$0
    2572: a4 60        	ldy	$60                     ; 0x60 <__rc31+0x31>
    2574: 84 14        	sty	$14                     ; 0x14 <__rc4>
    2576: b5 63        	lda	$63,x                   ; 0x63 <__rc31+0x34>
    2578: 1a           	inc
    2579: f6 63        	inc	$63,x                   ; 0x63 <__rc31+0x34>
    257b: c5 14        	cmp	$14                     ; 0x14 <__rc4>
    257d: 90 2e        	bcc	$25ad <printf+0x6c8>
    257f: a4 60        	ldy	$60                     ; 0x60 <__rc31+0x31>
    2581: 84 13        	sty	$13                     ; 0x13 <__rc3>
    2583: 38           	sec
    2584: e5 13        	sbc	$13                     ; 0x13 <__rc3>
    2586: 9d 63 00     	sta	$63,x                   ; 0x63 <__rc31+0x34>
    2589: e8           	inx
    258a: 86 13        	stx	$13                     ; 0x13 <__rc3>
    258c: a4 5f        	ldy	$5f                     ; 0x5f <__rc31+0x30>
    258e: c4 13        	cpy	$13                     ; 0x13 <__rc3>
    2590: d0 e4        	bne	$2576 <printf+0x691>
    2592: 80 0d        	bra	$25a1 <printf+0x6bc>
    2594: a6 56        	ldx	$56                     ; 0x56 <__rc31+0x27>
    2596: b5 7a        	lda	$7a,x                   ; 0x7a <__rc31+0x4b>
    2598: aa           	tax
    2599: 64 5f        	stz	$5f                     ; 0x5f <__rc31+0x30>
    259b: 30 04        	bmi	$25a1 <printf+0x6bc>
    259d: 80 0e        	bra	$25ad <printf+0x6c8>
    259f: 64 5f        	stz	$5f                     ; 0x5f <__rc31+0x30>
    25a1: a4 5f        	ldy	$5f                     ; 0x5f <__rc31+0x30>
    25a3: a6 5f        	ldx	$5f                     ; 0x5f <__rc31+0x30>
    25a5: e8           	inx
    25a6: a9 01        	lda	#$1
    25a8: 99 63 00     	sta	$63,y                   ; 0x63 <__rc31+0x34>
    25ab: 86 5f        	stx	$5f                     ; 0x5f <__rc31+0x30>
    25ad: a2 01        	ldx	#$1
    25af: 86 16        	stx	$16                     ; 0x16 <__rc6>
    25b1: 64 13        	stz	$13                     ; 0x13 <__rc3>
    25b3: ca           	dex
    25b4: a4 56        	ldy	$56                     ; 0x56 <__rc31+0x27>
    25b6: b5 7b        	lda	$7b,x                   ; 0x7b <__rc31+0x4c>
    25b8: 0a           	asl
    25b9: 64 14        	stz	$14                     ; 0x14 <__rc4>
    25bb: 26 14        	rol	$14                     ; 0x14 <__rc4>
    25bd: 05 13        	ora	$13                     ; 0x13 <__rc3>
    25bf: 9d 7b 00     	sta	$7b,x                   ; 0x7b <__rc31+0x4c>
    25c2: e8           	inx
    25c3: 86 15        	stx	$15                     ; 0x15 <__rc5>
    25c5: a5 14        	lda	$14                     ; 0x14 <__rc4>
    25c7: 85 13        	sta	$13                     ; 0x13 <__rc3>
    25c9: c4 15        	cpy	$15                     ; 0x15 <__rc5>
    25cb: d0 e9        	bne	$25b6 <printf+0x6d1>
    25cd: a5 19        	lda	$19                     ; 0x19 <__rc9>
    25cf: 1a           	inc
    25d0: c5 12        	cmp	$12                     ; 0x12 <__zp_bss_size>
    25d2: a6 5f        	ldx	$5f                     ; 0x5f <__rc31+0x30>
    25d4: b0 12        	bcs	$25e8 <printf+0x703>
    25d6: 85 19        	sta	$19                     ; 0x19 <__rc9>
    25d8: 8a           	txa
    25d9: f0 b9        	beq	$2594 <printf+0x6af>
    25db: 8a           	txa
    25dc: 86 5f        	stx	$5f                     ; 0x5f <__rc31+0x30>
    25de: 3a           	dec
    25df: 85 15        	sta	$15                     ; 0x15 <__rc5>
    25e1: a2 00        	ldx	#$0
    25e3: 64 13        	stz	$13                     ; 0x13 <__rc3>
    25e5: 4c 2f 25     	jmp	$252f <printf+0x64a>
    25e8: a4 16        	ldy	$16                     ; 0x16 <__rc6>
    25ea: a5 5c        	lda	$5c                     ; 0x5c <__rc31+0x2d>
    25ec: 30 06        	bmi	$25f4 <printf+0x70f>
    25ee: a5 9a        	lda	$9a                     ; 0x9a <__rc31+0x6b>
    25f0: 85 5b        	sta	$5b                     ; 0x5b <__rc31+0x2c>
    25f2: 80 08        	bra	$25fc <printf+0x717>
    25f4: a2 01        	ldx	#$1
    25f6: 64 5c        	stz	$5c                     ; 0x5c <__rc31+0x2d>
    25f8: 86 5b        	stx	$5b                     ; 0x5b <__rc31+0x2c>
    25fa: a6 5f        	ldx	$5f                     ; 0x5f <__rc31+0x30>
    25fc: a5 55        	lda	$55                     ; 0x55 <__rc31+0x26>
    25fe: 29 04        	and	#$4
    2600: f0 2f        	beq	$2631 <printf+0x74c>
    2602: a5 60        	lda	$60                     ; 0x60 <__rc31+0x31>
    2604: c9 10        	cmp	#$10
    2606: f0 14        	beq	$261c <printf+0x737>
    2608: c9 08        	cmp	#$8
    260a: d0 25        	bne	$2631 <printf+0x74c>
    260c: a2 00        	ldx	#$0
    260e: e4 5c        	cpx	$5c                     ; 0x5c <__rc31+0x2d>
    2610: f0 03        	beq	$2615 <printf+0x730>
    2612: 4c d8 2b     	jmp	$2bd8 <printf+0xcf3>
    2615: a6 5f        	ldx	$5f                     ; 0x5f <__rc31+0x30>
    2617: e4 5b        	cpx	$5b                     ; 0x5b <__rc31+0x2c>
    2619: 4c da 2b     	jmp	$2bda <printf+0xcf5>
    261c: 8a           	txa
    261d: f0 12        	beq	$2631 <printf+0x74c>
    261f: a5 55        	lda	$55                     ; 0x55 <__rc31+0x26>
    2621: a6 5b        	ldx	$5b                     ; 0x5b <__rc31+0x2c>
    2623: 29 80        	and	#$80
    2625: d0 03        	bne	$262a <printf+0x745>
    2627: 4c f3 2b     	jmp	$2bf3 <printf+0xd0e>
    262a: 86 9a        	stx	$9a                     ; 0x9a <__rc31+0x6b>
    262c: a2 78        	ldx	#$78
    262e: 4c f7 2b     	jmp	$2bf7 <printf+0xd12>
    2631: a6 55        	ldx	$55                     ; 0x55 <__rc31+0x26>
    2633: a9 2d        	lda	#$2d
    2635: 85 9b        	sta	$9b                     ; 0x9b <__rc31+0x6c>
    2637: a5 18        	lda	$18                     ; 0x18 <__rc8>
    2639: d0 22        	bne	$265d <printf+0x778>
    263b: 86 12        	stx	$12                     ; 0x12 <__zp_bss_size>
    263d: 8a           	txa
    263e: 29 02        	and	#$2
    2640: a2 2b        	ldx	#$2b
    2642: 86 9b        	stx	$9b                     ; 0x9b <__rc31+0x6c>
    2644: aa           	tax
    2645: d0 16        	bne	$265d <printf+0x778>
    2647: a6 5b        	ldx	$5b                     ; 0x5b <__rc31+0x2c>
    2649: 86 9a        	stx	$9a                     ; 0x9a <__rc31+0x6b>
    264b: a5 12        	lda	$12                     ; 0x12 <__zp_bss_size>
    264d: 29 08        	and	#$8
    264f: f0 03        	beq	$2654 <printf+0x76f>
    2651: 4c d1 2b     	jmp	$2bd1 <printf+0xcec>
    2654: a2 01        	ldx	#$1
    2656: 86 5e        	stx	$5e                     ; 0x5e <__rc31+0x2f>
    2658: 64 16        	stz	$16                     ; 0x16 <__rc6>
    265a: ca           	dex
    265b: 80 08        	bra	$2665 <printf+0x780>
    265d: a6 5b        	ldx	$5b                     ; 0x5b <__rc31+0x2c>
    265f: 86 9a        	stx	$9a                     ; 0x9a <__rc31+0x6b>
    2661: a2 00        	ldx	#$0
    2663: 86 5e        	stx	$5e                     ; 0x5e <__rc31+0x2f>
    2665: 86 5b        	stx	$5b                     ; 0x5b <__rc31+0x2c>
    2667: a5 5c        	lda	$5c                     ; 0x5c <__rc31+0x2d>
    2669: d0 08        	bne	$2673 <printf+0x78e>
    266b: a5 9a        	lda	$9a                     ; 0x9a <__rc31+0x6b>
    266d: c5 5f        	cmp	$5f                     ; 0x5f <__rc31+0x30>
    266f: 85 12        	sta	$12                     ; 0x12 <__zp_bss_size>
    2671: 80 08        	bra	$267b <printf+0x796>
    2673: a6 5c        	ldx	$5c                     ; 0x5c <__rc31+0x2d>
    2675: e0 00        	cpx	#$0
    2677: a6 9a        	ldx	$9a                     ; 0x9a <__rc31+0x6b>
    2679: 86 12        	stx	$12                     ; 0x12 <__zp_bss_size>
    267b: a6 5c        	ldx	$5c                     ; 0x5c <__rc31+0x2d>
    267d: 86 13        	stx	$13                     ; 0x13 <__rc3>
    267f: b0 06        	bcs	$2687 <printf+0x7a2>
    2681: a6 5f        	ldx	$5f                     ; 0x5f <__rc31+0x30>
    2683: 86 12        	stx	$12                     ; 0x12 <__zp_bss_size>
    2685: 64 13        	stz	$13                     ; 0x13 <__rc3>
    2687: a5 16        	lda	$16                     ; 0x16 <__rc6>
    2689: 18           	clc
    268a: 65 12        	adc	$12                     ; 0x12 <__zp_bss_size>
    268c: aa           	tax
    268d: 85 14        	sta	$14                     ; 0x14 <__rc4>
    268f: a5 13        	lda	$13                     ; 0x13 <__rc3>
    2691: 69 00        	adc	#$0
    2693: 85 15        	sta	$15                     ; 0x15 <__rc5>
    2695: c5 1a        	cmp	$1a                     ; 0x1a <__rc10>
    2697: d0 04        	bne	$269d <printf+0x7b8>
    2699: e4 17        	cpx	$17                     ; 0x17 <__rc7>
    269b: 80 02        	bra	$269f <printf+0x7ba>
    269d: c5 1a        	cmp	$1a                     ; 0x1a <__rc10>
    269f: 64 60        	stz	$60                     ; 0x60 <__rc31+0x31>
    26a1: 64 56        	stz	$56                     ; 0x56 <__rc31+0x27>
    26a3: a6 5f        	ldx	$5f                     ; 0x5f <__rc31+0x30>
    26a5: 90 03        	bcc	$26aa <printf+0x7c5>
    26a7: 4c 60 27     	jmp	$2760 <printf+0x87b>
    26aa: a5 55        	lda	$55                     ; 0x55 <__rc31+0x26>
    26ac: 29 11        	and	#$11
    26ae: f0 10        	beq	$26c0 <printf+0x7db>
    26b0: a5 17        	lda	$17                     ; 0x17 <__rc7>
    26b2: 38           	sec
    26b3: e5 14        	sbc	$14                     ; 0x14 <__rc4>
    26b5: 85 60        	sta	$60                     ; 0x60 <__rc31+0x31>
    26b7: a5 1a        	lda	$1a                     ; 0x1a <__rc10>
    26b9: e5 15        	sbc	$15                     ; 0x15 <__rc5>
    26bb: 85 56        	sta	$56                     ; 0x56 <__rc31+0x27>
    26bd: 4c 60 27     	jmp	$2760 <printf+0x87b>
    26c0: a2 01        	ldx	#$1
    26c2: 86 14        	stx	$14                     ; 0x14 <__rc4>
    26c4: a6 8a        	ldx	$8a                     ; 0x8a <__rc31+0x5b>
    26c6: 86 15        	stx	$15                     ; 0x15 <__rc5>
    26c8: 38           	sec
    26c9: a5 16        	lda	$16                     ; 0x16 <__rc6>
    26cb: e5 17        	sbc	$17                     ; 0x17 <__rc7>
    26cd: aa           	tax
    26ce: a9 00        	lda	#$0
    26d0: e5 1a        	sbc	$1a                     ; 0x1a <__rc10>
    26d2: a8           	tay
    26d3: 18           	clc
    26d4: 8a           	txa
    26d5: 65 12        	adc	$12                     ; 0x12 <__zp_bss_size>
    26d7: 85 55        	sta	$55                     ; 0x55 <__rc31+0x26>
    26d9: 98           	tya
    26da: 65 13        	adc	$13                     ; 0x13 <__rc3>
    26dc: a4 8b        	ldy	$8b                     ; 0x8b <__rc31+0x5c>
    26de: 4c 40 27     	jmp	$2740 <printf+0x85b>
    26e1: 84 16        	sty	$16                     ; 0x16 <__rc6>
    26e3: c4 89        	cpy	$89                     ; 0x89 <__rc31+0x5a>
    26e5: b0 3b        	bcs	$2722 <printf+0x83d>
    26e7: a6 95        	ldx	$95                     ; 0x95 <__rc31+0x66>
    26e9: a0 00        	ldy	#$0
    26eb: 84 12        	sty	$12                     ; 0x12 <__zp_bss_size>
    26ed: a0 00        	ldy	#$0
    26ef: 84 13        	sty	$13                     ; 0x13 <__rc3>
    26f1: e4 13        	cpx	$13                     ; 0x13 <__rc3>
    26f3: d0 1d        	bne	$2712 <printf+0x82d>
    26f5: a6 94        	ldx	$94                     ; 0x94 <__rc31+0x65>
    26f7: e4 12        	cpx	$12                     ; 0x12 <__zp_bss_size>
    26f9: d0 17        	bne	$2712 <printf+0x82d>
    26fb: a2 01        	ldx	#$1
    26fd: 86 14        	stx	$14                     ; 0x14 <__rc4>
    26ff: 18           	clc
    2700: a5 15        	lda	$15                     ; 0x15 <__rc5>
    2702: 65 8e        	adc	$8e                     ; 0x8e <__rc31+0x5f>
    2704: 85 12        	sta	$12                     ; 0x12 <__zp_bss_size>
    2706: a5 16        	lda	$16                     ; 0x16 <__rc6>
    2708: 65 8f        	adc	$8f                     ; 0x8f <__rc31+0x60>
    270a: 85 13        	sta	$13                     ; 0x13 <__rc3>
    270c: a9 20        	lda	#$20
    270e: 92 12        	sta	($12)                   ; 0x12 <__zp_bss_size>
    2710: 80 0e        	bra	$2720 <printf+0x83b>
    2712: a2 01        	ldx	#$1
    2714: 86 5d        	stx	$5d                     ; 0x5d <__rc31+0x2e>
    2716: ca           	dex
    2717: a9 20        	lda	#$20
    2719: 20 16 2c     	jsr	$2c16 <putchar>
    271c: a6 5d        	ldx	$5d                     ; 0x5d <__rc31+0x2e>
    271e: 86 14        	stx	$14                     ; 0x14 <__rc4>
    2720: a5 56        	lda	$56                     ; 0x56 <__rc31+0x27>
    2722: a6 8a        	ldx	$8a                     ; 0x8a <__rc31+0x5b>
    2724: a4 8b        	ldy	$8b                     ; 0x8b <__rc31+0x5c>
    2726: e8           	inx
    2727: d0 01        	bne	$272a <printf+0x845>
    2729: c8           	iny
    272a: 86 15        	stx	$15                     ; 0x15 <__rc5>
    272c: 86 8a        	stx	$8a                     ; 0x8a <__rc31+0x5b>
    272e: 84 8b        	sty	$8b                     ; 0x8b <__rc31+0x5c>
    2730: a6 55        	ldx	$55                     ; 0x55 <__rc31+0x26>
    2732: e8           	inx
    2733: d0 01        	bne	$2736 <printf+0x851>
    2735: 1a           	inc
    2736: 86 55        	stx	$55                     ; 0x55 <__rc31+0x26>
    2738: c9 00        	cmp	#$0
    273a: d0 04        	bne	$2740 <printf+0x85b>
    273c: e0 00        	cpx	#$0
    273e: f0 18        	beq	$2758 <printf+0x873>
    2740: 85 56        	sta	$56                     ; 0x56 <__rc31+0x27>
    2742: c4 89        	cpy	$89                     ; 0x89 <__rc31+0x5a>
    2744: f0 03        	beq	$2749 <printf+0x864>
    2746: 4c e1 26     	jmp	$26e1 <printf+0x7fc>
    2749: 84 16        	sty	$16                     ; 0x16 <__rc6>
    274b: a6 88        	ldx	$88                     ; 0x88 <__rc31+0x59>
    274d: 86 12        	stx	$12                     ; 0x12 <__zp_bss_size>
    274f: a6 15        	ldx	$15                     ; 0x15 <__rc5>
    2751: e4 12        	cpx	$12                     ; 0x12 <__zp_bss_size>
    2753: b0 cd        	bcs	$2722 <printf+0x83d>
    2755: 4c e7 26     	jmp	$26e7 <printf+0x802>
    2758: 64 60        	stz	$60                     ; 0x60 <__rc31+0x31>
    275a: 64 56        	stz	$56                     ; 0x56 <__rc31+0x27>
    275c: a6 5f        	ldx	$5f                     ; 0x5f <__rc31+0x30>
    275e: a4 14        	ldy	$14                     ; 0x14 <__rc4>
    2760: a5 5e        	lda	$5e                     ; 0x5e <__rc31+0x2f>
    2762: f0 03        	beq	$2767 <printf+0x882>
    2764: 4c c8 27     	jmp	$27c8 <printf+0x8e3>
    2767: a6 8a        	ldx	$8a                     ; 0x8a <__rc31+0x5b>
    2769: a5 8b        	lda	$8b                     ; 0x8b <__rc31+0x5c>
    276b: c5 89        	cmp	$89                     ; 0x89 <__rc31+0x5a>
    276d: d0 10        	bne	$277f <printf+0x89a>
    276f: 86 13        	stx	$13                     ; 0x13 <__rc3>
    2771: a6 88        	ldx	$88                     ; 0x88 <__rc31+0x59>
    2773: 86 12        	stx	$12                     ; 0x12 <__zp_bss_size>
    2775: a6 13        	ldx	$13                     ; 0x13 <__rc3>
    2777: 86 15        	stx	$15                     ; 0x15 <__rc5>
    2779: e4 12        	cpx	$12                     ; 0x12 <__zp_bss_size>
    277b: 90 08        	bcc	$2785 <printf+0x8a0>
    277d: 80 41        	bra	$27c0 <printf+0x8db>
    277f: 86 15        	stx	$15                     ; 0x15 <__rc5>
    2781: c5 89        	cmp	$89                     ; 0x89 <__rc31+0x5a>
    2783: b0 3b        	bcs	$27c0 <printf+0x8db>
    2785: a2 01        	ldx	#$1
    2787: 86 14        	stx	$14                     ; 0x14 <__rc4>
    2789: a6 95        	ldx	$95                     ; 0x95 <__rc31+0x66>
    278b: a0 00        	ldy	#$0
    278d: 84 12        	sty	$12                     ; 0x12 <__zp_bss_size>
    278f: a0 00        	ldy	#$0
    2791: 84 13        	sty	$13                     ; 0x13 <__rc3>
    2793: e4 13        	cpx	$13                     ; 0x13 <__rc3>
    2795: d0 1d        	bne	$27b4 <printf+0x8cf>
    2797: a6 94        	ldx	$94                     ; 0x94 <__rc31+0x65>
    2799: e4 12        	cpx	$12                     ; 0x12 <__zp_bss_size>
    279b: d0 17        	bne	$27b4 <printf+0x8cf>
    279d: a4 14        	ldy	$14                     ; 0x14 <__rc4>
    279f: 18           	clc
    27a0: 85 16        	sta	$16                     ; 0x16 <__rc6>
    27a2: a5 15        	lda	$15                     ; 0x15 <__rc5>
    27a4: 65 8e        	adc	$8e                     ; 0x8e <__rc31+0x5f>
    27a6: 85 12        	sta	$12                     ; 0x12 <__zp_bss_size>
    27a8: a5 16        	lda	$16                     ; 0x16 <__rc6>
    27aa: 65 8f        	adc	$8f                     ; 0x8f <__rc31+0x60>
    27ac: 85 13        	sta	$13                     ; 0x13 <__rc3>
    27ae: a5 9b        	lda	$9b                     ; 0x9b <__rc31+0x6c>
    27b0: 92 12        	sta	($12)                   ; 0x12 <__zp_bss_size>
    27b2: 80 0c        	bra	$27c0 <printf+0x8db>
    27b4: a2 01        	ldx	#$1
    27b6: 86 5d        	stx	$5d                     ; 0x5d <__rc31+0x2e>
    27b8: ca           	dex
    27b9: a5 9b        	lda	$9b                     ; 0x9b <__rc31+0x6c>
    27bb: 20 16 2c     	jsr	$2c16 <putchar>
    27be: a4 5d        	ldy	$5d                     ; 0x5d <__rc31+0x2e>
    27c0: e6 8a        	inc	$8a                     ; 0x8a <__rc31+0x5b>
    27c2: d0 02        	bne	$27c6 <printf+0x8e1>
    27c4: e6 8b        	inc	$8b                     ; 0x8b <__rc31+0x5c>
    27c6: a6 5f        	ldx	$5f                     ; 0x5f <__rc31+0x30>
    27c8: a5 5b        	lda	$5b                     ; 0x5b <__rc31+0x2c>
    27ca: d0 03        	bne	$27cf <printf+0x8ea>
    27cc: 4c 30 28     	jmp	$2830 <printf+0x94b>
    27cf: a6 8a        	ldx	$8a                     ; 0x8a <__rc31+0x5b>
    27d1: a5 8b        	lda	$8b                     ; 0x8b <__rc31+0x5c>
    27d3: c5 89        	cmp	$89                     ; 0x89 <__rc31+0x5a>
    27d5: d0 10        	bne	$27e7 <printf+0x902>
    27d7: 86 13        	stx	$13                     ; 0x13 <__rc3>
    27d9: a6 88        	ldx	$88                     ; 0x88 <__rc31+0x59>
    27db: 86 12        	stx	$12                     ; 0x12 <__zp_bss_size>
    27dd: a6 13        	ldx	$13                     ; 0x13 <__rc3>
    27df: 86 15        	stx	$15                     ; 0x15 <__rc5>
    27e1: e4 12        	cpx	$12                     ; 0x12 <__zp_bss_size>
    27e3: 90 08        	bcc	$27ed <printf+0x908>
    27e5: 80 41        	bra	$2828 <printf+0x943>
    27e7: 86 15        	stx	$15                     ; 0x15 <__rc5>
    27e9: c5 89        	cmp	$89                     ; 0x89 <__rc31+0x5a>
    27eb: b0 3b        	bcs	$2828 <printf+0x943>
    27ed: a2 01        	ldx	#$1
    27ef: 86 14        	stx	$14                     ; 0x14 <__rc4>
    27f1: a6 95        	ldx	$95                     ; 0x95 <__rc31+0x66>
    27f3: a0 00        	ldy	#$0
    27f5: 84 12        	sty	$12                     ; 0x12 <__zp_bss_size>
    27f7: a0 00        	ldy	#$0
    27f9: 84 13        	sty	$13                     ; 0x13 <__rc3>
    27fb: e4 13        	cpx	$13                     ; 0x13 <__rc3>
    27fd: d0 1d        	bne	$281c <printf+0x937>
    27ff: a6 94        	ldx	$94                     ; 0x94 <__rc31+0x65>
    2801: e4 12        	cpx	$12                     ; 0x12 <__zp_bss_size>
    2803: d0 17        	bne	$281c <printf+0x937>
    2805: a4 14        	ldy	$14                     ; 0x14 <__rc4>
    2807: 18           	clc
    2808: 85 16        	sta	$16                     ; 0x16 <__rc6>
    280a: a5 15        	lda	$15                     ; 0x15 <__rc5>
    280c: 65 8e        	adc	$8e                     ; 0x8e <__rc31+0x5f>
    280e: 85 12        	sta	$12                     ; 0x12 <__zp_bss_size>
    2810: a5 16        	lda	$16                     ; 0x16 <__rc6>
    2812: 65 8f        	adc	$8f                     ; 0x8f <__rc31+0x60>
    2814: 85 13        	sta	$13                     ; 0x13 <__rc3>
    2816: a5 9f        	lda	$9f                     ; 0x9f <__rc31+0x70>
    2818: 92 12        	sta	($12)                   ; 0x12 <__zp_bss_size>
    281a: 80 0c        	bra	$2828 <printf+0x943>
    281c: a2 01        	ldx	#$1
    281e: 86 5d        	stx	$5d                     ; 0x5d <__rc31+0x2e>
    2820: ca           	dex
    2821: a5 9f        	lda	$9f                     ; 0x9f <__rc31+0x70>
    2823: 20 16 2c     	jsr	$2c16 <putchar>
    2826: a4 5d        	ldy	$5d                     ; 0x5d <__rc31+0x2e>
    2828: e6 8a        	inc	$8a                     ; 0x8a <__rc31+0x5b>
    282a: d0 02        	bne	$282e <printf+0x949>
    282c: e6 8b        	inc	$8b                     ; 0x8b <__rc31+0x5c>
    282e: a6 5f        	ldx	$5f                     ; 0x5f <__rc31+0x30>
    2830: a9 10        	lda	#$10
    2832: 25 86        	and	$86                     ; 0x86 <__rc31+0x57>
    2834: d0 07        	bne	$283d <printf+0x958>
    2836: a5 9a        	lda	$9a                     ; 0x9a <__rc31+0x6b>
    2838: 85 5e        	sta	$5e                     ; 0x5e <__rc31+0x2f>
    283a: 4c ef 28     	jmp	$28ef <printf+0xa0a>
    283d: 86 13        	stx	$13                     ; 0x13 <__rc3>
    283f: a5 86        	lda	$86                     ; 0x86 <__rc31+0x57>
    2841: 29 01        	and	#$1
    2843: a6 9a        	ldx	$9a                     ; 0x9a <__rc31+0x6b>
    2845: 86 5e        	stx	$5e                     ; 0x5e <__rc31+0x2f>
    2847: aa           	tax
    2848: f0 03        	beq	$284d <printf+0x968>
    284a: 4c e5 28     	jmp	$28e5 <printf+0xa00>
    284d: a5 60        	lda	$60                     ; 0x60 <__rc31+0x31>
    284f: a6 56        	ldx	$56                     ; 0x56 <__rc31+0x27>
    2851: 86 12        	stx	$12                     ; 0x12 <__zp_bss_size>
    2853: a6 12        	ldx	$12                     ; 0x12 <__zp_bss_size>
    2855: d0 06        	bne	$285d <printf+0x978>
    2857: aa           	tax
    2858: d0 03        	bne	$285d <printf+0x978>
    285a: 4c 0c 2c     	jmp	$2c0c <printf+0xd27>
    285d: a6 8a        	ldx	$8a                     ; 0x8a <__rc31+0x5b>
    285f: 86 15        	stx	$15                     ; 0x15 <__rc5>
    2861: a5 8b        	lda	$8b                     ; 0x8b <__rc31+0x5c>
    2863: 4c d1 28     	jmp	$28d1 <printf+0x9ec>
    2866: c5 89        	cmp	$89                     ; 0x89 <__rc31+0x5a>
    2868: b0 39        	bcs	$28a3 <printf+0x9be>
    286a: a2 01        	ldx	#$1
    286c: 86 14        	stx	$14                     ; 0x14 <__rc4>
    286e: a6 95        	ldx	$95                     ; 0x95 <__rc31+0x66>
    2870: a0 00        	ldy	#$0
    2872: 84 12        	sty	$12                     ; 0x12 <__zp_bss_size>
    2874: a0 00        	ldy	#$0
    2876: 84 13        	sty	$13                     ; 0x13 <__rc3>
    2878: e4 13        	cpx	$13                     ; 0x13 <__rc3>
    287a: d0 1b        	bne	$2897 <printf+0x9b2>
    287c: a6 94        	ldx	$94                     ; 0x94 <__rc31+0x65>
    287e: e4 12        	cpx	$12                     ; 0x12 <__zp_bss_size>
    2880: d0 15        	bne	$2897 <printf+0x9b2>
    2882: a4 14        	ldy	$14                     ; 0x14 <__rc4>
    2884: 18           	clc
    2885: aa           	tax
    2886: a5 15        	lda	$15                     ; 0x15 <__rc5>
    2888: 65 8e        	adc	$8e                     ; 0x8e <__rc31+0x5f>
    288a: 85 12        	sta	$12                     ; 0x12 <__zp_bss_size>
    288c: 8a           	txa
    288d: 65 8f        	adc	$8f                     ; 0x8f <__rc31+0x60>
    288f: 85 13        	sta	$13                     ; 0x13 <__rc3>
    2891: a9 30        	lda	#$30
    2893: 92 12        	sta	($12)                   ; 0x12 <__zp_bss_size>
    2895: 80 0c        	bra	$28a3 <printf+0x9be>
    2897: a2 01        	ldx	#$1
    2899: 86 5d        	stx	$5d                     ; 0x5d <__rc31+0x2e>
    289b: ca           	dex
    289c: a9 30        	lda	#$30
    289e: 20 16 2c     	jsr	$2c16 <putchar>
    28a1: a4 5d        	ldy	$5d                     ; 0x5d <__rc31+0x2e>
    28a3: a6 8a        	ldx	$8a                     ; 0x8a <__rc31+0x5b>
    28a5: a5 8b        	lda	$8b                     ; 0x8b <__rc31+0x5c>
    28a7: e8           	inx
    28a8: d0 01        	bne	$28ab <printf+0x9c6>
    28aa: 1a           	inc
    28ab: 86 15        	stx	$15                     ; 0x15 <__rc5>
    28ad: 86 8a        	stx	$8a                     ; 0x8a <__rc31+0x5b>
    28af: 85 8b        	sta	$8b                     ; 0x8b <__rc31+0x5c>
    28b1: a6 60        	ldx	$60                     ; 0x60 <__rc31+0x31>
    28b3: 86 12        	stx	$12                     ; 0x12 <__zp_bss_size>
    28b5: a6 56        	ldx	$56                     ; 0x56 <__rc31+0x27>
    28b7: 86 13        	stx	$13                     ; 0x13 <__rc3>
    28b9: a2 ff        	ldx	#$ff
    28bb: c6 12        	dec	$12                     ; 0x12 <__zp_bss_size>
    28bd: e4 12        	cpx	$12                     ; 0x12 <__zp_bss_size>
    28bf: d0 02        	bne	$28c3 <printf+0x9de>
    28c1: c6 13        	dec	$13                     ; 0x13 <__rc3>
    28c3: a6 12        	ldx	$12                     ; 0x12 <__zp_bss_size>
    28c5: 86 60        	stx	$60                     ; 0x60 <__rc31+0x31>
    28c7: a6 13        	ldx	$13                     ; 0x13 <__rc3>
    28c9: 86 56        	stx	$56                     ; 0x56 <__rc31+0x27>
    28cb: d0 04        	bne	$28d1 <printf+0x9ec>
    28cd: a6 12        	ldx	$12                     ; 0x12 <__zp_bss_size>
    28cf: f0 18        	beq	$28e9 <printf+0xa04>
    28d1: c5 89        	cmp	$89                     ; 0x89 <__rc31+0x5a>
    28d3: f0 03        	beq	$28d8 <printf+0x9f3>
    28d5: 4c 66 28     	jmp	$2866 <printf+0x981>
    28d8: a6 88        	ldx	$88                     ; 0x88 <__rc31+0x59>
    28da: 86 12        	stx	$12                     ; 0x12 <__zp_bss_size>
    28dc: a6 15        	ldx	$15                     ; 0x15 <__rc5>
    28de: e4 12        	cpx	$12                     ; 0x12 <__zp_bss_size>
    28e0: b0 c1        	bcs	$28a3 <printf+0x9be>
    28e2: 4c 6a 28     	jmp	$286a <printf+0x985>
    28e5: a6 13        	ldx	$13                     ; 0x13 <__rc3>
    28e7: 80 06        	bra	$28ef <printf+0xa0a>
    28e9: 64 60        	stz	$60                     ; 0x60 <__rc31+0x31>
    28eb: 64 56        	stz	$56                     ; 0x56 <__rc31+0x27>
    28ed: a6 5f        	ldx	$5f                     ; 0x5f <__rc31+0x30>
    28ef: a9 00        	lda	#$0
    28f1: c5 5c        	cmp	$5c                     ; 0x5c <__rc31+0x2d>
    28f3: d0 07        	bne	$28fc <printf+0xa17>
    28f5: e4 5e        	cpx	$5e                     ; 0x5e <__rc31+0x2f>
    28f7: 90 0a        	bcc	$2903 <printf+0xa1e>
    28f9: 4c 86 29     	jmp	$2986 <printf+0xaa1>
    28fc: c5 5c        	cmp	$5c                     ; 0x5c <__rc31+0x2d>
    28fe: 90 03        	bcc	$2903 <printf+0xa1e>
    2900: 4c 86 29     	jmp	$2986 <printf+0xaa1>
    2903: a6 8a        	ldx	$8a                     ; 0x8a <__rc31+0x5b>
    2905: 86 15        	stx	$15                     ; 0x15 <__rc5>
    2907: a5 8b        	lda	$8b                     ; 0x8b <__rc31+0x5c>
    2909: a2 ff        	ldx	#$ff
    290b: c6 5e        	dec	$5e                     ; 0x5e <__rc31+0x2f>
    290d: e4 5e        	cpx	$5e                     ; 0x5e <__rc31+0x2f>
    290f: d0 02        	bne	$2913 <printf+0xa2e>
    2911: c6 5c        	dec	$5c                     ; 0x5c <__rc31+0x2d>
    2913: c5 89        	cmp	$89                     ; 0x89 <__rc31+0x5a>
    2915: d0 0c        	bne	$2923 <printf+0xa3e>
    2917: a6 88        	ldx	$88                     ; 0x88 <__rc31+0x59>
    2919: 86 12        	stx	$12                     ; 0x12 <__zp_bss_size>
    291b: a6 15        	ldx	$15                     ; 0x15 <__rc5>
    291d: e4 12        	cpx	$12                     ; 0x12 <__zp_bss_size>
    291f: 90 06        	bcc	$2927 <printf+0xa42>
    2921: 80 3d        	bra	$2960 <printf+0xa7b>
    2923: c5 89        	cmp	$89                     ; 0x89 <__rc31+0x5a>
    2925: b0 39        	bcs	$2960 <printf+0xa7b>
    2927: a2 01        	ldx	#$1
    2929: 86 14        	stx	$14                     ; 0x14 <__rc4>
    292b: a6 95        	ldx	$95                     ; 0x95 <__rc31+0x66>
    292d: a0 00        	ldy	#$0
    292f: 84 12        	sty	$12                     ; 0x12 <__zp_bss_size>
    2931: a0 00        	ldy	#$0
    2933: 84 13        	sty	$13                     ; 0x13 <__rc3>
    2935: e4 13        	cpx	$13                     ; 0x13 <__rc3>
    2937: d0 1b        	bne	$2954 <printf+0xa6f>
    2939: a6 94        	ldx	$94                     ; 0x94 <__rc31+0x65>
    293b: e4 12        	cpx	$12                     ; 0x12 <__zp_bss_size>
    293d: d0 15        	bne	$2954 <printf+0xa6f>
    293f: a4 14        	ldy	$14                     ; 0x14 <__rc4>
    2941: 18           	clc
    2942: aa           	tax
    2943: a5 15        	lda	$15                     ; 0x15 <__rc5>
    2945: 65 8e        	adc	$8e                     ; 0x8e <__rc31+0x5f>
    2947: 85 12        	sta	$12                     ; 0x12 <__zp_bss_size>
    2949: 8a           	txa
    294a: 65 8f        	adc	$8f                     ; 0x8f <__rc31+0x60>
    294c: 85 13        	sta	$13                     ; 0x13 <__rc3>
    294e: a9 30        	lda	#$30
    2950: 92 12        	sta	($12)                   ; 0x12 <__zp_bss_size>
    2952: 80 0c        	bra	$2960 <printf+0xa7b>
    2954: a2 01        	ldx	#$1
    2956: 86 5d        	stx	$5d                     ; 0x5d <__rc31+0x2e>
    2958: ca           	dex
    2959: a9 30        	lda	#$30
    295b: 20 16 2c     	jsr	$2c16 <putchar>
    295e: a4 5d        	ldy	$5d                     ; 0x5d <__rc31+0x2e>
    2960: a6 8a        	ldx	$8a                     ; 0x8a <__rc31+0x5b>
    2962: a5 8b        	lda	$8b                     ; 0x8b <__rc31+0x5c>
    2964: e8           	inx
    2965: d0 01        	bne	$2968 <printf+0xa83>
    2967: 1a           	inc
    2968: 86 15        	stx	$15                     ; 0x15 <__rc5>
    296a: 86 8a        	stx	$8a                     ; 0x8a <__rc31+0x5b>
    296c: 85 8b        	sta	$8b                     ; 0x8b <__rc31+0x5c>
    296e: a2 00        	ldx	#$0
    2970: e4 5c        	cpx	$5c                     ; 0x5c <__rc31+0x2d>
    2972: d0 09        	bne	$297d <printf+0xa98>
    2974: a6 5f        	ldx	$5f                     ; 0x5f <__rc31+0x30>
    2976: e4 5e        	cpx	$5e                     ; 0x5e <__rc31+0x2f>
    2978: b0 0c        	bcs	$2986 <printf+0xaa1>
    297a: 4c 09 29     	jmp	$2909 <printf+0xa24>
    297d: e4 5c        	cpx	$5c                     ; 0x5c <__rc31+0x2d>
    297f: a6 5f        	ldx	$5f                     ; 0x5f <__rc31+0x30>
    2981: b0 03        	bcs	$2986 <printf+0xaa1>
    2983: 4c 09 29     	jmp	$2909 <printf+0xa24>
    2986: 8a           	txa
    2987: d0 03        	bne	$298c <printf+0xaa7>
    2989: 4c bd 2a     	jmp	$2abd <printf+0xbd8>
    298c: ca           	dex
    298d: d0 03        	bne	$2992 <printf+0xaad>
    298f: 4c 3f 2a     	jmp	$2a3f <printf+0xb5a>
    2992: 86 5d        	stx	$5d                     ; 0x5d <__rc31+0x2e>
    2994: a6 a1        	ldx	$a1                     ; 0xa1 <__rc31+0x72>
    2996: 8a           	txa
    2997: 18           	clc
    2998: 65 5d        	adc	$5d                     ; 0x5d <__rc31+0x2e>
    299a: 85 5b        	sta	$5b                     ; 0x5b <__rc31+0x2c>
    299c: a5 a2        	lda	$a2                     ; 0xa2 <__rc31+0x73>
    299e: 69 00        	adc	#$0
    29a0: 85 5c        	sta	$5c                     ; 0x5c <__rc31+0x2d>
    29a2: 4c 2d 2a     	jmp	$2a2d <printf+0xb48>
    29a5: 85 13        	sta	$13                     ; 0x13 <__rc3>
    29a7: a9 80        	lda	#$80
    29a9: 25 86        	and	$86                     ; 0x86 <__rc31+0x57>
    29ab: f0 04        	beq	$29b1 <printf+0xacc>
    29ad: a2 61        	ldx	#$61
    29af: 80 02        	bra	$29b3 <printf+0xace>
    29b1: a2 41        	ldx	#$41
    29b3: 86 12        	stx	$12                     ; 0x12 <__zp_bss_size>
    29b5: a2 01        	ldx	#$1
    29b7: 86 14        	stx	$14                     ; 0x14 <__rc4>
    29b9: 18           	clc
    29ba: a5 13        	lda	$13                     ; 0x13 <__rc3>
    29bc: 65 12        	adc	$12                     ; 0x12 <__zp_bss_size>
    29be: 18           	clc
    29bf: 69 f6        	adc	#$f6
    29c1: a4 8a        	ldy	$8a                     ; 0x8a <__rc31+0x5b>
    29c3: a6 8b        	ldx	$8b                     ; 0x8b <__rc31+0x5c>
    29c5: e4 89        	cpx	$89                     ; 0x89 <__rc31+0x5a>
    29c7: d0 0c        	bne	$29d5 <printf+0xaf0>
    29c9: 86 16        	stx	$16                     ; 0x16 <__rc6>
    29cb: a6 88        	ldx	$88                     ; 0x88 <__rc31+0x59>
    29cd: 86 12        	stx	$12                     ; 0x12 <__zp_bss_size>
    29cf: 84 15        	sty	$15                     ; 0x15 <__rc5>
    29d1: c4 12        	cpy	$12                     ; 0x12 <__zp_bss_size>
    29d3: 80 06        	bra	$29db <printf+0xaf6>
    29d5: 84 15        	sty	$15                     ; 0x15 <__rc5>
    29d7: 86 16        	stx	$16                     ; 0x16 <__rc6>
    29d9: e4 89        	cpx	$89                     ; 0x89 <__rc31+0x5a>
    29db: a4 14        	ldy	$14                     ; 0x14 <__rc4>
    29dd: b0 38        	bcs	$2a17 <printf+0xb32>
    29df: 85 14        	sta	$14                     ; 0x14 <__rc4>
    29e1: a9 01        	lda	#$1
    29e3: a6 95        	ldx	$95                     ; 0x95 <__rc31+0x66>
    29e5: a0 00        	ldy	#$0
    29e7: 84 12        	sty	$12                     ; 0x12 <__zp_bss_size>
    29e9: a0 00        	ldy	#$0
    29eb: 84 13        	sty	$13                     ; 0x13 <__rc3>
    29ed: e4 13        	cpx	$13                     ; 0x13 <__rc3>
    29ef: d0 1a        	bne	$2a0b <printf+0xb26>
    29f1: a6 94        	ldx	$94                     ; 0x94 <__rc31+0x65>
    29f3: e4 12        	cpx	$12                     ; 0x12 <__zp_bss_size>
    29f5: d0 14        	bne	$2a0b <printf+0xb26>
    29f7: a8           	tay
    29f8: 18           	clc
    29f9: a5 15        	lda	$15                     ; 0x15 <__rc5>
    29fb: 65 8e        	adc	$8e                     ; 0x8e <__rc31+0x5f>
    29fd: 85 12        	sta	$12                     ; 0x12 <__zp_bss_size>
    29ff: a5 16        	lda	$16                     ; 0x16 <__rc6>
    2a01: 65 8f        	adc	$8f                     ; 0x8f <__rc31+0x60>
    2a03: 85 13        	sta	$13                     ; 0x13 <__rc3>
    2a05: a5 14        	lda	$14                     ; 0x14 <__rc4>
    2a07: 92 12        	sta	($12)                   ; 0x12 <__zp_bss_size>
    2a09: 80 0c        	bra	$2a17 <printf+0xb32>
    2a0b: a2 01        	ldx	#$1
    2a0d: 86 5e        	stx	$5e                     ; 0x5e <__rc31+0x2f>
    2a0f: ca           	dex
    2a10: a5 14        	lda	$14                     ; 0x14 <__rc4>
    2a12: 20 16 2c     	jsr	$2c16 <putchar>
    2a15: a4 5e        	ldy	$5e                     ; 0x5e <__rc31+0x2f>
    2a17: e6 8a        	inc	$8a                     ; 0x8a <__rc31+0x5b>
    2a19: d0 02        	bne	$2a1d <printf+0xb38>
    2a1b: e6 8b        	inc	$8b                     ; 0x8b <__rc31+0x5c>
    2a1d: c6 5d        	dec	$5d                     ; 0x5d <__rc31+0x2e>
    2a1f: a2 ff        	ldx	#$ff
    2a21: c6 5b        	dec	$5b                     ; 0x5b <__rc31+0x2c>
    2a23: e4 5b        	cpx	$5b                     ; 0x5b <__rc31+0x2c>
    2a25: d0 02        	bne	$2a29 <printf+0xb44>
    2a27: c6 5c        	dec	$5c                     ; 0x5c <__rc31+0x2d>
    2a29: a5 5d        	lda	$5d                     ; 0x5d <__rc31+0x2e>
    2a2b: f0 12        	beq	$2a3f <printf+0xb5a>
    2a2d: b2 5b        	lda	($5b)                   ; 0x5b <__rc31+0x2c>
    2a2f: c9 0a        	cmp	#$a
    2a31: 90 03        	bcc	$2a36 <printf+0xb51>
    2a33: 4c a5 29     	jmp	$29a5 <printf+0xac0>
    2a36: a2 01        	ldx	#$1
    2a38: 86 14        	stx	$14                     ; 0x14 <__rc4>
    2a3a: 09 30        	ora	#$30
    2a3c: 4c c1 29     	jmp	$29c1 <printf+0xadc>
    2a3f: a5 63        	lda	$63                     ; 0x63 <__rc31+0x34>
    2a41: c9 0a        	cmp	#$a
    2a43: b0 04        	bcs	$2a49 <printf+0xb64>
    2a45: 09 30        	ora	#$30
    2a47: 80 18        	bra	$2a61 <printf+0xb7c>
    2a49: 85 13        	sta	$13                     ; 0x13 <__rc3>
    2a4b: a9 80        	lda	#$80
    2a4d: 25 86        	and	$86                     ; 0x86 <__rc31+0x57>
    2a4f: f0 04        	beq	$2a55 <printf+0xb70>
    2a51: a2 61        	ldx	#$61
    2a53: 80 02        	bra	$2a57 <printf+0xb72>
    2a55: a2 41        	ldx	#$41
    2a57: 86 12        	stx	$12                     ; 0x12 <__zp_bss_size>
    2a59: 18           	clc
    2a5a: a5 13        	lda	$13                     ; 0x13 <__rc3>
    2a5c: 65 12        	adc	$12                     ; 0x12 <__zp_bss_size>
    2a5e: 18           	clc
    2a5f: 69 f6        	adc	#$f6
    2a61: a6 8a        	ldx	$8a                     ; 0x8a <__rc31+0x5b>
    2a63: 86 15        	stx	$15                     ; 0x15 <__rc5>
    2a65: a6 8b        	ldx	$8b                     ; 0x8b <__rc31+0x5c>
    2a67: e4 89        	cpx	$89                     ; 0x89 <__rc31+0x5a>
    2a69: d0 0e        	bne	$2a79 <printf+0xb94>
    2a6b: 86 16        	stx	$16                     ; 0x16 <__rc6>
    2a6d: a6 88        	ldx	$88                     ; 0x88 <__rc31+0x59>
    2a6f: 86 12        	stx	$12                     ; 0x12 <__zp_bss_size>
    2a71: a6 15        	ldx	$15                     ; 0x15 <__rc5>
    2a73: e4 12        	cpx	$12                     ; 0x12 <__zp_bss_size>
    2a75: 90 08        	bcc	$2a7f <printf+0xb9a>
    2a77: 80 3e        	bra	$2ab7 <printf+0xbd2>
    2a79: 86 16        	stx	$16                     ; 0x16 <__rc6>
    2a7b: e4 89        	cpx	$89                     ; 0x89 <__rc31+0x5a>
    2a7d: b0 38        	bcs	$2ab7 <printf+0xbd2>
    2a7f: 85 14        	sta	$14                     ; 0x14 <__rc4>
    2a81: a9 01        	lda	#$1
    2a83: a6 95        	ldx	$95                     ; 0x95 <__rc31+0x66>
    2a85: a0 00        	ldy	#$0
    2a87: 84 12        	sty	$12                     ; 0x12 <__zp_bss_size>
    2a89: a0 00        	ldy	#$0
    2a8b: 84 13        	sty	$13                     ; 0x13 <__rc3>
    2a8d: e4 13        	cpx	$13                     ; 0x13 <__rc3>
    2a8f: d0 1a        	bne	$2aab <printf+0xbc6>
    2a91: a6 94        	ldx	$94                     ; 0x94 <__rc31+0x65>
    2a93: e4 12        	cpx	$12                     ; 0x12 <__zp_bss_size>
    2a95: d0 14        	bne	$2aab <printf+0xbc6>
    2a97: a8           	tay
    2a98: 18           	clc
    2a99: a5 15        	lda	$15                     ; 0x15 <__rc5>
    2a9b: 65 8e        	adc	$8e                     ; 0x8e <__rc31+0x5f>
    2a9d: 85 12        	sta	$12                     ; 0x12 <__zp_bss_size>
    2a9f: a5 16        	lda	$16                     ; 0x16 <__rc6>
    2aa1: 65 8f        	adc	$8f                     ; 0x8f <__rc31+0x60>
    2aa3: 85 13        	sta	$13                     ; 0x13 <__rc3>
    2aa5: a5 14        	lda	$14                     ; 0x14 <__rc4>
    2aa7: 92 12        	sta	($12)                   ; 0x12 <__zp_bss_size>
    2aa9: 80 0c        	bra	$2ab7 <printf+0xbd2>
    2aab: a2 01        	ldx	#$1
    2aad: 86 5b        	stx	$5b                     ; 0x5b <__rc31+0x2c>
    2aaf: ca           	dex
    2ab0: a5 14        	lda	$14                     ; 0x14 <__rc4>
    2ab2: 20 16 2c     	jsr	$2c16 <putchar>
    2ab5: a4 5b        	ldy	$5b                     ; 0x5b <__rc31+0x2c>
    2ab7: e6 8a        	inc	$8a                     ; 0x8a <__rc31+0x5b>
    2ab9: d0 02        	bne	$2abd <printf+0xbd8>
    2abb: e6 8b        	inc	$8b                     ; 0x8b <__rc31+0x5c>
    2abd: a5 86        	lda	$86                     ; 0x86 <__rc31+0x57>
    2abf: 29 01        	and	#$1
    2ac1: d0 27        	bne	$2aea <printf+0xc05>
    2ac3: a6 8a        	ldx	$8a                     ; 0x8a <__rc31+0x5b>
    2ac5: 86 15        	stx	$15                     ; 0x15 <__rc5>
    2ac7: a5 8b        	lda	$8b                     ; 0x8b <__rc31+0x5c>
    2ac9: a6 88        	ldx	$88                     ; 0x88 <__rc31+0x59>
    2acb: 86 14        	stx	$14                     ; 0x14 <__rc4>
    2acd: a6 89        	ldx	$89                     ; 0x89 <__rc31+0x5a>
    2acf: 86 12        	stx	$12                     ; 0x12 <__zp_bss_size>
    2ad1: 86 13        	stx	$13                     ; 0x13 <__rc3>
    2ad3: c5 12        	cmp	$12                     ; 0x12 <__zp_bss_size>
    2ad5: f0 03        	beq	$2ada <printf+0xbf5>
    2ad7: 4c 8a 2b     	jmp	$2b8a <printf+0xca5>
    2ada: a5 14        	lda	$14                     ; 0x14 <__rc4>
    2adc: 85 12        	sta	$12                     ; 0x12 <__zp_bss_size>
    2ade: a6 15        	ldx	$15                     ; 0x15 <__rc5>
    2ae0: e4 12        	cpx	$12                     ; 0x12 <__zp_bss_size>
    2ae2: 90 03        	bcc	$2ae7 <printf+0xc02>
    2ae4: 4c 92 2b     	jmp	$2b92 <printf+0xcad>
    2ae7: 4c b2 2b     	jmp	$2bb2 <printf+0xccd>
    2aea: a6 8a        	ldx	$8a                     ; 0x8a <__rc31+0x5b>
    2aec: 86 15        	stx	$15                     ; 0x15 <__rc5>
    2aee: a5 8b        	lda	$8b                     ; 0x8b <__rc31+0x5c>
    2af0: a6 60        	ldx	$60                     ; 0x60 <__rc31+0x31>
    2af2: 5a           	phy
    2af3: a4 56        	ldy	$56                     ; 0x56 <__rc31+0x27>
    2af5: 84 12        	sty	$12                     ; 0x12 <__zp_bss_size>
    2af7: 7a           	ply
    2af8: e6 12        	inc	$12                     ; 0x12 <__zp_bss_size>
    2afa: c6 12        	dec	$12                     ; 0x12 <__zp_bss_size>
    2afc: f0 03        	beq	$2b01 <printf+0xc1c>
    2afe: 4c 76 2b     	jmp	$2b76 <printf+0xc91>
    2b01: e0 00        	cpx	#$0
    2b03: f0 c4        	beq	$2ac9 <printf+0xbe4>
    2b05: 4c 76 2b     	jmp	$2b76 <printf+0xc91>
    2b08: c5 89        	cmp	$89                     ; 0x89 <__rc31+0x5a>
    2b0a: b0 39        	bcs	$2b45 <printf+0xc60>
    2b0c: a2 01        	ldx	#$1
    2b0e: 86 14        	stx	$14                     ; 0x14 <__rc4>
    2b10: a6 95        	ldx	$95                     ; 0x95 <__rc31+0x66>
    2b12: a0 00        	ldy	#$0
    2b14: 84 12        	sty	$12                     ; 0x12 <__zp_bss_size>
    2b16: a0 00        	ldy	#$0
    2b18: 84 13        	sty	$13                     ; 0x13 <__rc3>
    2b1a: e4 13        	cpx	$13                     ; 0x13 <__rc3>
    2b1c: d0 1b        	bne	$2b39 <printf+0xc54>
    2b1e: a6 94        	ldx	$94                     ; 0x94 <__rc31+0x65>
    2b20: e4 12        	cpx	$12                     ; 0x12 <__zp_bss_size>
    2b22: d0 15        	bne	$2b39 <printf+0xc54>
    2b24: a4 14        	ldy	$14                     ; 0x14 <__rc4>
    2b26: 18           	clc
    2b27: aa           	tax
    2b28: a5 15        	lda	$15                     ; 0x15 <__rc5>
    2b2a: 65 8e        	adc	$8e                     ; 0x8e <__rc31+0x5f>
    2b2c: 85 12        	sta	$12                     ; 0x12 <__zp_bss_size>
    2b2e: 8a           	txa
    2b2f: 65 8f        	adc	$8f                     ; 0x8f <__rc31+0x60>
    2b31: 85 13        	sta	$13                     ; 0x13 <__rc3>
    2b33: a9 20        	lda	#$20
    2b35: 92 12        	sta	($12)                   ; 0x12 <__zp_bss_size>
    2b37: 80 0c        	bra	$2b45 <printf+0xc60>
    2b39: a2 01        	ldx	#$1
    2b3b: 86 5b        	stx	$5b                     ; 0x5b <__rc31+0x2c>
    2b3d: ca           	dex
    2b3e: a9 20        	lda	#$20
    2b40: 20 16 2c     	jsr	$2c16 <putchar>
    2b43: a4 5b        	ldy	$5b                     ; 0x5b <__rc31+0x2c>
    2b45: a6 8a        	ldx	$8a                     ; 0x8a <__rc31+0x5b>
    2b47: a5 8b        	lda	$8b                     ; 0x8b <__rc31+0x5c>
    2b49: e8           	inx
    2b4a: d0 01        	bne	$2b4d <printf+0xc68>
    2b4c: 1a           	inc
    2b4d: 86 15        	stx	$15                     ; 0x15 <__rc5>
    2b4f: 86 8a        	stx	$8a                     ; 0x8a <__rc31+0x5b>
    2b51: 85 8b        	sta	$8b                     ; 0x8b <__rc31+0x5c>
    2b53: a6 60        	ldx	$60                     ; 0x60 <__rc31+0x31>
    2b55: 86 12        	stx	$12                     ; 0x12 <__zp_bss_size>
    2b57: a6 56        	ldx	$56                     ; 0x56 <__rc31+0x27>
    2b59: 86 13        	stx	$13                     ; 0x13 <__rc3>
    2b5b: a2 ff        	ldx	#$ff
    2b5d: c6 12        	dec	$12                     ; 0x12 <__zp_bss_size>
    2b5f: e4 12        	cpx	$12                     ; 0x12 <__zp_bss_size>
    2b61: d0 02        	bne	$2b65 <printf+0xc80>
    2b63: c6 13        	dec	$13                     ; 0x13 <__rc3>
    2b65: a6 12        	ldx	$12                     ; 0x12 <__zp_bss_size>
    2b67: 86 60        	stx	$60                     ; 0x60 <__rc31+0x31>
    2b69: a6 13        	ldx	$13                     ; 0x13 <__rc3>
    2b6b: 86 56        	stx	$56                     ; 0x56 <__rc31+0x27>
    2b6d: d0 07        	bne	$2b76 <printf+0xc91>
    2b6f: a6 12        	ldx	$12                     ; 0x12 <__zp_bss_size>
    2b71: d0 03        	bne	$2b76 <printf+0xc91>
    2b73: 4c c9 2a     	jmp	$2ac9 <printf+0xbe4>
    2b76: c5 89        	cmp	$89                     ; 0x89 <__rc31+0x5a>
    2b78: f0 03        	beq	$2b7d <printf+0xc98>
    2b7a: 4c 08 2b     	jmp	$2b08 <printf+0xc23>
    2b7d: a6 88        	ldx	$88                     ; 0x88 <__rc31+0x59>
    2b7f: 86 12        	stx	$12                     ; 0x12 <__zp_bss_size>
    2b81: a6 15        	ldx	$15                     ; 0x15 <__rc5>
    2b83: e4 12        	cpx	$12                     ; 0x12 <__zp_bss_size>
    2b85: b0 be        	bcs	$2b45 <printf+0xc60>
    2b87: 4c 0c 2b     	jmp	$2b0c <printf+0xc27>
    2b8a: 86 12        	stx	$12                     ; 0x12 <__zp_bss_size>
    2b8c: c5 12        	cmp	$12                     ; 0x12 <__zp_bss_size>
    2b8e: a5 14        	lda	$14                     ; 0x14 <__rc4>
    2b90: 90 20        	bcc	$2bb2 <printf+0xccd>
    2b92: a6 13        	ldx	$13                     ; 0x13 <__rc3>
    2b94: d0 03        	bne	$2b99 <printf+0xcb4>
    2b96: aa           	tax
    2b97: f0 19        	beq	$2bb2 <printf+0xccd>
    2b99: 18           	clc
    2b9a: 65 8e        	adc	$8e                     ; 0x8e <__rc31+0x5f>
    2b9c: 85 12        	sta	$12                     ; 0x12 <__zp_bss_size>
    2b9e: a5 13        	lda	$13                     ; 0x13 <__rc3>
    2ba0: 65 8f        	adc	$8f                     ; 0x8f <__rc31+0x60>
    2ba2: 85 13        	sta	$13                     ; 0x13 <__rc3>
    2ba4: a2 ff        	ldx	#$ff
    2ba6: c6 12        	dec	$12                     ; 0x12 <__zp_bss_size>
    2ba8: e4 12        	cpx	$12                     ; 0x12 <__zp_bss_size>
    2baa: d0 02        	bne	$2bae <printf+0xcc9>
    2bac: c6 13        	dec	$13                     ; 0x13 <__rc3>
    2bae: a9 00        	lda	#$0
    2bb0: 92 12        	sta	($12)                   ; 0x12 <__zp_bss_size>
    2bb2: e6 59        	inc	$59                     ; 0x59 <__rc31+0x2a>
    2bb4: d0 02        	bne	$2bb8 <printf+0xcd3>
    2bb6: e6 5a        	inc	$5a                     ; 0x5a <__rc31+0x2b>
    2bb8: a6 5a        	ldx	$5a                     ; 0x5a <__rc31+0x2b>
    2bba: e4 58        	cpx	$58                     ; 0x58 <__rc31+0x29>
    2bbc: f0 03        	beq	$2bc1 <printf+0xcdc>
    2bbe: 4c 4a 1f     	jmp	$1f4a <printf+0x65>
    2bc1: a6 59        	ldx	$59                     ; 0x59 <__rc31+0x2a>
    2bc3: e4 57        	cpx	$57                     ; 0x57 <__rc31+0x28>
    2bc5: f0 03        	beq	$2bca <printf+0xce5>
    2bc7: 4c 4a 1f     	jmp	$1f4a <printf+0x65>
    2bca: b2 57        	lda	($57)                   ; 0x57 <__rc31+0x28>
    2bcc: a2 00        	ldx	#$0
    2bce: 4c 61 1f     	jmp	$1f61 <printf+0x7c>
    2bd1: a2 20        	ldx	#$20
    2bd3: 86 9b        	stx	$9b                     ; 0x9b <__rc31+0x6c>
    2bd5: 4c 61 26     	jmp	$2661 <printf+0x77c>
    2bd8: e4 5c        	cpx	$5c                     ; 0x5c <__rc31+0x2d>
    2bda: a6 55        	ldx	$55                     ; 0x55 <__rc31+0x26>
    2bdc: b0 03        	bcs	$2be1 <printf+0xcfc>
    2bde: 4c 33 26     	jmp	$2633 <printf+0x74e>
    2be1: a5 5f        	lda	$5f                     ; 0x5f <__rc31+0x30>
    2be3: 85 5b        	sta	$5b                     ; 0x5b <__rc31+0x2c>
    2be5: 64 5c        	stz	$5c                     ; 0x5c <__rc31+0x2d>
    2be7: e6 5b        	inc	$5b                     ; 0x5b <__rc31+0x2c>
    2be9: f0 03        	beq	$2bee <printf+0xd09>
    2beb: 4c 33 26     	jmp	$2633 <printf+0x74e>
    2bee: e6 5c        	inc	$5c                     ; 0x5c <__rc31+0x2d>
    2bf0: 4c 33 26     	jmp	$2633 <printf+0x74e>
    2bf3: 86 9a        	stx	$9a                     ; 0x9a <__rc31+0x6b>
    2bf5: a2 58        	ldx	#$58
    2bf7: 86 9f        	stx	$9f                     ; 0x9f <__rc31+0x70>
    2bf9: a2 01        	ldx	#$1
    2bfb: 86 5b        	stx	$5b                     ; 0x5b <__rc31+0x2c>
    2bfd: a2 30        	ldx	#$30
    2bff: 86 9b        	stx	$9b                     ; 0x9b <__rc31+0x6c>
    2c01: a2 02        	ldx	#$2
    2c03: 86 16        	stx	$16                     ; 0x16 <__rc6>
    2c05: a2 00        	ldx	#$0
    2c07: 86 5e        	stx	$5e                     ; 0x5e <__rc31+0x2f>
    2c09: 4c 67 26     	jmp	$2667 <printf+0x782>
    2c0c: a6 13        	ldx	$13                     ; 0x13 <__rc3>
    2c0e: 64 60        	stz	$60                     ; 0x60 <__rc31+0x31>
    2c10: 64 56        	stz	$56                     ; 0x56 <__rc31+0x27>
    2c12: 4c ef 28     	jmp	$28ef <printf+0xa0a>
    2c15: 60           	rts

00002c16 <putchar>:
    2c16: 86 12        	stx	$12                     ; 0x12 <__zp_bss_size>
    2c18: 85 ae        	sta	$ae                     ; 0xae <__rc31+0x7f>
    2c1a: 85 33        	sta	$33                     ; 0x33 <__putchar.s>
    2c1c: a6 01        	ldx	$1                      ; 0x1 <__zp_data_size+0x1>
    2c1e: 86 af        	stx	$af                     ; 0xaf <__rc31+0x80>
    2c20: a6 32        	ldx	$32                     ; 0x32 <_row>
    2c22: a0 50        	ldy	#$50
    2c24: 8c 00 de     	sty	$de00                   ; 0xde00 <__heap_start+0x8594>
    2c27: 9c 01 de     	stz	$de01                   ; 0xde01 <__heap_start+0x8595>
    2c2a: 8e 02 de     	stx	$de02                   ; 0xde02 <__heap_start+0x8596>
    2c2d: 9c 03 de     	stz	$de03                   ; 0xde03 <__heap_start+0x8597>
    2c30: ae 10 de     	ldx	$de10                   ; 0xde10 <__heap_start+0x85a4>
    2c33: ad 11 de     	lda	$de11                   ; 0xde11 <__heap_start+0x85a5>
    2c36: ac 12 de     	ldy	$de12                   ; 0xde12 <__heap_start+0x85a6>
    2c39: 84 1a        	sty	$1a                     ; 0x1a <__rc10>
    2c3b: ac 13 de     	ldy	$de13                   ; 0xde13 <__heap_start+0x85a7>
    2c3e: 84 1b        	sty	$1b                     ; 0x1b <__rc11>
    2c40: 9c 08 de     	stz	$de08                   ; 0xde08 <__heap_start+0x859c>
    2c43: a0 c0        	ldy	#$c0
    2c45: 8c 09 de     	sty	$de09                   ; 0xde09 <__heap_start+0x859d>
    2c48: 9c 0a de     	stz	$de0a                   ; 0xde0a <__heap_start+0x859e>
    2c4b: 9c 0b de     	stz	$de0b                   ; 0xde0b <__heap_start+0x859f>
    2c4e: 8e 0c de     	stx	$de0c                   ; 0xde0c <__heap_start+0x85a0>
    2c51: 8d 0d de     	sta	$de0d                   ; 0xde0d <__heap_start+0x85a1>
    2c54: 64 13        	stz	$13                     ; 0x13 <__rc3>
    2c56: a2 00        	ldx	#$0
    2c58: 86 14        	stx	$14                     ; 0x14 <__rc4>
    2c5a: a2 c0        	ldx	#$c0
    2c5c: 86 15        	stx	$15                     ; 0x15 <__rc5>
    2c5e: a2 11        	ldx	#$11
    2c60: 86 16        	stx	$16                     ; 0x16 <__rc6>
    2c62: a2 c9        	ldx	#$c9
    2c64: 86 17        	stx	$17                     ; 0x17 <__rc7>
    2c66: a2 10        	ldx	#$10
    2c68: 86 18        	stx	$18                     ; 0x18 <__rc8>
    2c6a: a2 c9        	ldx	#$c9
    2c6c: 86 19        	stx	$19                     ; 0x19 <__rc9>
    2c6e: a6 1a        	ldx	$1a                     ; 0x1a <__rc10>
    2c70: 8e 0e de     	stx	$de0e                   ; 0xde0e <__heap_start+0x85a2>
    2c73: a6 1b        	ldx	$1b                     ; 0x1b <__rc11>
    2c75: 8e 0f de     	stx	$de0f                   ; 0xde0f <__heap_start+0x85a3>
    2c78: ac 18 de     	ldy	$de18                   ; 0xde18 <__heap_start+0x85ac>
    2c7b: ad 19 de     	lda	$de19                   ; 0xde19 <__heap_start+0x85ad>
    2c7e: ae 1a de     	ldx	$de1a                   ; 0xde1a <__heap_start+0x85ae>
    2c81: ae 1b de     	ldx	$de1b                   ; 0xde1b <__heap_start+0x85af>
    2c84: 84 1c        	sty	$1c                     ; 0x1c <__rc12>
    2c86: 85 1d        	sta	$1d                     ; 0x1d <__rc13>
    2c88: 64 1a        	stz	$1a                     ; 0x1a <__rc10>
    2c8a: a2 20        	ldx	#$20
    2c8c: 86 b0        	stx	$b0                     ; 0xb0 <__rc31+0x81>
    2c8e: 80 13        	bra	$2ca3 <putchar+0x8d>
    2c90: a5 1c        	lda	$1c                     ; 0x1c <__rc12>
    2c92: 18           	clc
    2c93: 69 50        	adc	#$50
    2c95: 85 1c        	sta	$1c                     ; 0x1c <__rc12>
    2c97: a5 1d        	lda	$1d                     ; 0x1d <__rc13>
    2c99: 69 00        	adc	#$0
    2c9b: 85 1d        	sta	$1d                     ; 0x1d <__rc13>
    2c9d: e6 13        	inc	$13                     ; 0x13 <__rc3>
    2c9f: d0 02        	bne	$2ca3 <putchar+0x8d>
    2ca1: e6 1a        	inc	$1a                     ; 0x1a <__rc10>
    2ca3: a9 33        	lda	#$33
    2ca5: 18           	clc
    2ca6: 65 13        	adc	$13                     ; 0x13 <__rc3>
    2ca8: 85 1e        	sta	$1e                     ; 0x1e <__rc14>
    2caa: a9 00        	lda	#$0
    2cac: 65 1a        	adc	$1a                     ; 0x1a <__rc10>
    2cae: 85 1f        	sta	$1f                     ; 0x1f <__rc15>
    2cb0: b2 1e        	lda	($1e)                   ; 0x1e <__rc14>
    2cb2: c9 0a        	cmp	#$a
    2cb4: f0 31        	beq	$2ce7 <putchar+0xd1>
    2cb6: c9 0d        	cmp	#$d
    2cb8: f0 2d        	beq	$2ce7 <putchar+0xd1>
    2cba: aa           	tax
    2cbb: d0 03        	bne	$2cc0 <putchar+0xaa>
    2cbd: 4c db 2d     	jmp	$2ddb <putchar+0x1c5>
    2cc0: a2 03        	ldx	#$3
    2cc2: 86 01        	stx	$1                      ; 0x1 <__zp_data_size+0x1>
    2cc4: a5 30        	lda	$30                     ; 0x30 <_ccolor>
    2cc6: 29 01        	and	#$1
    2cc8: a2 40        	ldx	#$40
    2cca: a8           	tay
    2ccb: d0 02        	bne	$2ccf <putchar+0xb9>
    2ccd: a2 f0        	ldx	#$f0
    2ccf: a4 31        	ldy	$31                     ; 0x31 <_col>
    2cd1: 8a           	txa
    2cd2: 91 1c        	sta	($1c),y                 ; 0x1c <__rc12>
    2cd4: a2 02        	ldx	#$2
    2cd6: 86 01        	stx	$1                      ; 0x1 <__zp_data_size+0x1>
    2cd8: b2 1e        	lda	($1e)                   ; 0x1e <__rc14>
    2cda: a4 31        	ldy	$31                     ; 0x31 <_col>
    2cdc: 91 1c        	sta	($1c),y                 ; 0x1c <__rc12>
    2cde: a6 31        	ldx	$31                     ; 0x31 <_col>
    2ce0: e8           	inx
    2ce1: e6 31        	inc	$31                     ; 0x31 <_col>
    2ce3: e0 50        	cpx	#$50
    2ce5: d0 b6        	bne	$2c9d <putchar+0x87>
    2ce7: 64 31        	stz	$31                     ; 0x31 <_col>
    2ce9: a6 32        	ldx	$32                     ; 0x32 <_row>
    2ceb: e8           	inx
    2cec: e6 32        	inc	$32                     ; 0x32 <_row>
    2cee: e0 1e        	cpx	#$1e
    2cf0: f0 03        	beq	$2cf5 <putchar+0xdf>
    2cf2: 4c 90 2c     	jmp	$2c90 <putchar+0x7a>
    2cf5: a0 50        	ldy	#$50
    2cf7: a2 03        	ldx	#$3
    2cf9: 86 01        	stx	$1                      ; 0x1 <__zp_data_size+0x1>
    2cfb: a2 01        	ldx	#$1
    2cfd: 86 1b        	stx	$1b                     ; 0x1b <__rc11>
    2cff: a2 09        	ldx	#$9
    2d01: a9 10        	lda	#$10
    2d03: 5a           	phy
    2d04: a0 00        	ldy	#$0
    2d06: 84 1c        	sty	$1c                     ; 0x1c <__rc12>
    2d08: a0 c0        	ldy	#$c0
    2d0a: 84 1d        	sty	$1d                     ; 0x1d <__rc13>
    2d0c: 7a           	ply
    2d0d: 85 1e        	sta	$1e                     ; 0x1e <__rc14>
    2d0f: b1 1c        	lda	($1c),y                 ; 0x1c <__rc12>
    2d11: 92 1c        	sta	($1c)                   ; 0x1c <__rc12>
    2d13: a9 ff        	lda	#$ff
    2d15: c6 1e        	dec	$1e                     ; 0x1e <__rc14>
    2d17: c5 1e        	cmp	$1e                     ; 0x1e <__rc14>
    2d19: d0 01        	bne	$2d1c <putchar+0x106>
    2d1b: ca           	dex
    2d1c: e6 1c        	inc	$1c                     ; 0x1c <__rc12>
    2d1e: d0 02        	bne	$2d22 <putchar+0x10c>
    2d20: e6 1d        	inc	$1d                     ; 0x1d <__rc13>
    2d22: 8a           	txa
    2d23: d0 ea        	bne	$2d0f <putchar+0xf9>
    2d25: a5 1e        	lda	$1e                     ; 0x1e <__rc14>
    2d27: d0 e6        	bne	$2d0f <putchar+0xf9>
    2d29: a0 50        	ldy	#$50
    2d2b: a2 02        	ldx	#$2
    2d2d: 86 01        	stx	$1                      ; 0x1 <__zp_data_size+0x1>
    2d2f: a2 00        	ldx	#$0
    2d31: a5 1b        	lda	$1b                     ; 0x1b <__rc11>
    2d33: d0 c8        	bne	$2cfd <putchar+0xe7>
    2d35: a2 03        	ldx	#$3
    2d37: 86 01        	stx	$1                      ; 0x1 <__zp_data_size+0x1>
    2d39: a5 30        	lda	$30                     ; 0x30 <_ccolor>
    2d3b: 29 01        	and	#$1
    2d3d: aa           	tax
    2d3e: a9 40        	lda	#$40
    2d40: e0 00        	cpx	#$0
    2d42: d0 02        	bne	$2d46 <putchar+0x130>
    2d44: a9 f0        	lda	#$f0
    2d46: a2 50        	ldx	#$50
    2d48: a0 11        	ldy	#$11
    2d4a: 84 1c        	sty	$1c                     ; 0x1c <__rc12>
    2d4c: a0 c9        	ldy	#$c9
    2d4e: 84 1d        	sty	$1d                     ; 0x1d <__rc13>
    2d50: a0 10        	ldy	#$10
    2d52: 84 1e        	sty	$1e                     ; 0x1e <__rc14>
    2d54: a0 c9        	ldy	#$c9
    2d56: 84 1f        	sty	$1f                     ; 0x1f <__rc15>
    2d58: a4 1e        	ldy	$1e                     ; 0x1e <__rc14>
    2d5a: 84 22        	sty	$22                     ; 0x22 <__rc18>
    2d5c: a4 1f        	ldy	$1f                     ; 0x1f <__rc15>
    2d5e: 84 23        	sty	$23                     ; 0x23 <__rc19>
    2d60: a4 1c        	ldy	$1c                     ; 0x1c <__rc12>
    2d62: 84 1e        	sty	$1e                     ; 0x1e <__rc14>
    2d64: a4 1d        	ldy	$1d                     ; 0x1d <__rc13>
    2d66: 84 1f        	sty	$1f                     ; 0x1f <__rc15>
    2d68: 92 22        	sta	($22)                   ; 0x22 <__rc18>
    2d6a: e6 1c        	inc	$1c                     ; 0x1c <__rc12>
    2d6c: d0 02        	bne	$2d70 <putchar+0x15a>
    2d6e: e6 1d        	inc	$1d                     ; 0x1d <__rc13>
    2d70: ca           	dex
    2d71: d0 e5        	bne	$2d58 <putchar+0x142>
    2d73: a2 02        	ldx	#$2
    2d75: 86 01        	stx	$1                      ; 0x1 <__zp_data_size+0x1>
    2d77: a2 50        	ldx	#$50
    2d79: a0 11        	ldy	#$11
    2d7b: 84 1c        	sty	$1c                     ; 0x1c <__rc12>
    2d7d: a0 c9        	ldy	#$c9
    2d7f: 84 1d        	sty	$1d                     ; 0x1d <__rc13>
    2d81: a0 10        	ldy	#$10
    2d83: 84 1e        	sty	$1e                     ; 0x1e <__rc14>
    2d85: a0 c9        	ldy	#$c9
    2d87: 84 1f        	sty	$1f                     ; 0x1f <__rc15>
    2d89: a5 b0        	lda	$b0                     ; 0xb0 <__rc31+0x81>
    2d8b: a4 1e        	ldy	$1e                     ; 0x1e <__rc14>
    2d8d: 84 22        	sty	$22                     ; 0x22 <__rc18>
    2d8f: a4 1f        	ldy	$1f                     ; 0x1f <__rc15>
    2d91: 84 23        	sty	$23                     ; 0x23 <__rc19>
    2d93: a4 1c        	ldy	$1c                     ; 0x1c <__rc12>
    2d95: 84 1e        	sty	$1e                     ; 0x1e <__rc14>
    2d97: a4 1d        	ldy	$1d                     ; 0x1d <__rc13>
    2d99: 84 1f        	sty	$1f                     ; 0x1f <__rc15>
    2d9b: 92 22        	sta	($22)                   ; 0x22 <__rc18>
    2d9d: e6 1c        	inc	$1c                     ; 0x1c <__rc12>
    2d9f: d0 02        	bne	$2da3 <putchar+0x18d>
    2da1: e6 1d        	inc	$1d                     ; 0x1d <__rc13>
    2da3: ca           	dex
    2da4: d0 e5        	bne	$2d8b <putchar+0x175>
    2da6: a2 20        	ldx	#$20
    2da8: 86 b0        	stx	$b0                     ; 0xb0 <__rc31+0x81>
    2daa: c6 32        	dec	$32                     ; 0x32 <_row>
    2dac: 9c 08 de     	stz	$de08                   ; 0xde08 <__heap_start+0x859c>
    2daf: a2 c0        	ldx	#$c0
    2db1: 8e 09 de     	stx	$de09                   ; 0xde09 <__heap_start+0x859d>
    2db4: 9c 0a de     	stz	$de0a                   ; 0xde0a <__heap_start+0x859e>
    2db7: 9c 0b de     	stz	$de0b                   ; 0xde0b <__heap_start+0x859f>
    2dba: a2 1d        	ldx	#$1d
    2dbc: 8e 0c de     	stx	$de0c                   ; 0xde0c <__heap_start+0x85a0>
    2dbf: 9c 0d de     	stz	$de0d                   ; 0xde0d <__heap_start+0x85a1>
    2dc2: 9c 0e de     	stz	$de0e                   ; 0xde0e <__heap_start+0x85a2>
    2dc5: 9c 0f de     	stz	$de0f                   ; 0xde0f <__heap_start+0x85a3>
    2dc8: ae 18 de     	ldx	$de18                   ; 0xde18 <__heap_start+0x85ac>
    2dcb: ac 19 de     	ldy	$de19                   ; 0xde19 <__heap_start+0x85ad>
    2dce: ad 1a de     	lda	$de1a                   ; 0xde1a <__heap_start+0x85ae>
    2dd1: ad 1b de     	lda	$de1b                   ; 0xde1b <__heap_start+0x85af>
    2dd4: 86 1c        	stx	$1c                     ; 0x1c <__rc12>
    2dd6: 84 1d        	sty	$1d                     ; 0x1d <__rc13>
    2dd8: 4c 9d 2c     	jmp	$2c9d <putchar+0x87>
    2ddb: a6 af        	ldx	$af                     ; 0xaf <__rc31+0x80>
    2ddd: 86 01        	stx	$1                      ; 0x1 <__zp_data_size+0x1>
    2ddf: a6 31        	ldx	$31                     ; 0x31 <_col>
    2de1: a4 32        	ldy	$32                     ; 0x32 <_row>
    2de3: 8e 14 d0     	stx	$d014                   ; 0xd014 <__heap_start+0x77a8>
    2de6: 9c 15 d0     	stz	$d015                   ; 0xd015 <__heap_start+0x77a9>
    2de9: 84 32        	sty	$32                     ; 0x32 <_row>
    2deb: 8c 16 d0     	sty	$d016                   ; 0xd016 <__heap_start+0x77aa>
    2dee: 9c 17 d0     	stz	$d017                   ; 0xd017 <__heap_start+0x77ab>
    2df1: a6 12        	ldx	$12                     ; 0x12 <__zp_bss_size>
    2df3: a5 ae        	lda	$ae                     ; 0xae <__rc31+0x7f>
    2df5: 60           	rts

00002df6 <malloc>:
    2df6: a8           	tay
    2df7: 8a           	txa
    2df8: a2 00        	ldx	#$0
    2dfa: 86 12        	stx	$12                     ; 0x12 <__zp_bss_size>
    2dfc: a2 00        	ldx	#$0
    2dfe: 86 13        	stx	$13                     ; 0x13 <__rc3>
    2e00: aa           	tax
    2e01: d0 07        	bne	$2e0a <malloc+0x14>
    2e03: c0 00        	cpy	#$0
    2e05: d0 03        	bne	$2e0a <malloc+0x14>
    2e07: 4c 18 2f     	jmp	$2f18 <malloc+0x122>
    2e0a: 84 16        	sty	$16                     ; 0x16 <__rc6>
    2e0c: aa           	tax
    2e0d: d0 0e        	bne	$2e1d <malloc+0x27>
    2e0f: a6 16        	ldx	$16                     ; 0x16 <__rc6>
    2e11: e0 07        	cpx	#$7
    2e13: b0 0c        	bcs	$2e21 <malloc+0x2b>
    2e15: a2 08        	ldx	#$8
    2e17: 86 4f        	stx	$4f                     ; 0x4f <__rc31+0x20>
    2e19: a9 00        	lda	#$0
    2e1b: 80 31        	bra	$2e4e <malloc+0x58>
    2e1d: c9 00        	cmp	#$0
    2e1f: 90 f4        	bcc	$2e15 <malloc+0x1f>
    2e21: a8           	tay
    2e22: a5 16        	lda	$16                     ; 0x16 <__rc6>
    2e24: 29 01        	and	#$1
    2e26: a2 02        	ldx	#$2
    2e28: 64 14        	stz	$14                     ; 0x14 <__rc4>
    2e2a: c9 00        	cmp	#$0
    2e2c: f0 02        	beq	$2e30 <malloc+0x3a>
    2e2e: a2 03        	ldx	#$3
    2e30: 86 15        	stx	$15                     ; 0x15 <__rc5>
    2e32: 18           	clc
    2e33: a5 16        	lda	$16                     ; 0x16 <__rc6>
    2e35: 65 15        	adc	$15                     ; 0x15 <__rc5>
    2e37: aa           	tax
    2e38: 98           	tya
    2e39: 65 14        	adc	$14                     ; 0x14 <__rc4>
    2e3b: 90 03        	bcc	$2e40 <malloc+0x4a>
    2e3d: 4c 18 2f     	jmp	$2f18 <malloc+0x122>
    2e40: 86 14        	stx	$14                     ; 0x14 <__rc4>
    2e42: 86 4f        	stx	$4f                     ; 0x4f <__rc31+0x20>
    2e44: aa           	tax
    2e45: d0 07        	bne	$2e4e <malloc+0x58>
    2e47: a6 14        	ldx	$14                     ; 0x14 <__rc4>
    2e49: d0 03        	bne	$2e4e <malloc+0x58>
    2e4b: 4c 18 2f     	jmp	$2f18 <malloc+0x122>
    2e4e: 85 52        	sta	$52                     ; 0x52 <__rc31+0x23>
    2e50: a5 3d        	lda	$3d                     ; 0x3d <_ZN12_GLOBAL__N_111initializedE>
    2e52: 29 01        	and	#$1
    2e54: d0 39        	bne	$2e8f <malloc+0x99>
    2e56: a9 00        	lda	#$0
    2e58: a2 10        	ldx	#$10
    2e5a: a0 6c        	ldy	#$6c
    2e5c: 84 14        	sty	$14                     ; 0x14 <__rc4>
    2e5e: a0 58        	ldy	#$58
    2e60: 84 15        	sty	$15                     ; 0x15 <__rc5>
    2e62: a4 12        	ldy	$12                     ; 0x12 <__zp_bss_size>
    2e64: 84 50        	sty	$50                     ; 0x50 <__rc31+0x21>
    2e66: a4 13        	ldy	$13                     ; 0x13 <__rc3>
    2e68: 84 51        	sty	$51                     ; 0x51 <__rc31+0x22>
    2e6a: a0 6c        	ldy	#$6c
    2e6c: 84 12        	sty	$12                     ; 0x12 <__zp_bss_size>
    2e6e: a0 58        	ldy	#$58
    2e70: 84 13        	sty	$13                     ; 0x13 <__rc3>
    2e72: 20 16 03     	jsr	$316 <_ZN12_GLOBAL__N_19FreeChunk6insertEPvj>
    2e75: a6 50        	ldx	$50                     ; 0x50 <__rc31+0x21>
    2e77: 86 12        	stx	$12                     ; 0x12 <__zp_bss_size>
    2e79: a6 51        	ldx	$51                     ; 0x51 <__rc31+0x22>
    2e7b: 86 13        	stx	$13                     ; 0x13 <__rc3>
    2e7d: ae 6d 58     	ldx	$586d                   ; 0x586d <__heap_start+0x1>
    2e80: a9 fe        	lda	#$fe
    2e82: 2d 6c 58     	and	$586c                   ; 0x586c <__heap_start>
    2e85: 8d 6c 58     	sta	$586c                   ; 0x586c <__heap_start>
    2e88: 8e 6d 58     	stx	$586d                   ; 0x586d <__heap_start+0x1>
    2e8b: a2 01        	ldx	#$1
    2e8d: 86 3d        	stx	$3d                     ; 0x3d <_ZN12_GLOBAL__N_111initializedE>
    2e8f: a5 40        	lda	$40                     ; 0x40 <_ZN12_GLOBAL__N_19free_listE>
    2e91: a6 41        	ldx	$41                     ; 0x41 <_ZN12_GLOBAL__N_19free_listE+0x1>
    2e93: a0 00        	ldy	#$0
    2e95: 84 14        	sty	$14                     ; 0x14 <__rc4>
    2e97: a0 00        	ldy	#$0
    2e99: 84 15        	sty	$15                     ; 0x15 <__rc5>
    2e9b: 86 1d        	stx	$1d                     ; 0x1d <__rc13>
    2e9d: e4 15        	cpx	$15                     ; 0x15 <__rc5>
    2e9f: d0 07        	bne	$2ea8 <malloc+0xb2>
    2ea1: c5 14        	cmp	$14                     ; 0x14 <__rc4>
    2ea3: d0 03        	bne	$2ea8 <malloc+0xb2>
    2ea5: 4c 18 2f     	jmp	$2f18 <malloc+0x122>
    2ea8: a0 00        	ldy	#$0
    2eaa: a2 10        	ldx	#$10
    2eac: 85 18        	sta	$18                     ; 0x18 <__rc8>
    2eae: 84 14        	sty	$14                     ; 0x14 <__rc4>
    2eb0: 86 15        	stx	$15                     ; 0x15 <__rc5>
    2eb2: 18           	clc
    2eb3: a9 6c        	lda	#$6c
    2eb5: 65 14        	adc	$14                     ; 0x14 <__rc4>
    2eb7: 85 14        	sta	$14                     ; 0x14 <__rc4>
    2eb9: a9 58        	lda	#$58
    2ebb: 65 15        	adc	$15                     ; 0x15 <__rc5>
    2ebd: a6 14        	ldx	$14                     ; 0x14 <__rc4>
    2ebf: 86 53        	stx	$53                     ; 0x53 <__rc31+0x24>
    2ec1: a6 18        	ldx	$18                     ; 0x18 <__rc8>
    2ec3: 86 50        	stx	$50                     ; 0x50 <__rc31+0x21>
    2ec5: 85 17        	sta	$17                     ; 0x17 <__rc7>
    2ec7: a6 18        	ldx	$18                     ; 0x18 <__rc8>
    2ec9: 86 14        	stx	$14                     ; 0x14 <__rc4>
    2ecb: a6 1d        	ldx	$1d                     ; 0x1d <__rc13>
    2ecd: 86 15        	stx	$15                     ; 0x15 <__rc5>
    2ecf: a0 01        	ldy	#$1
    2ed1: a6 52        	ldx	$52                     ; 0x52 <__rc31+0x23>
    2ed3: 86 18        	stx	$18                     ; 0x18 <__rc8>
    2ed5: b1 14        	lda	($14),y                 ; 0x14 <__rc4>
    2ed7: 85 19        	sta	$19                     ; 0x19 <__rc9>
    2ed9: aa           	tax
    2eda: a9 fe        	lda	#$fe
    2edc: 32 14        	and	($14)                   ; 0x14 <__rc4>
    2ede: 85 1a        	sta	$1a                     ; 0x1a <__rc10>
    2ee0: e4 18        	cpx	$18                     ; 0x18 <__rc8>
    2ee2: d0 0a        	bne	$2eee <malloc+0xf8>
    2ee4: a6 4f        	ldx	$4f                     ; 0x4f <__rc31+0x20>
    2ee6: 86 1b        	stx	$1b                     ; 0x1b <__rc11>
    2ee8: c5 1b        	cmp	$1b                     ; 0x1b <__rc11>
    2eea: b0 2d        	bcs	$2f19 <malloc+0x123>
    2eec: 80 04        	bra	$2ef2 <malloc+0xfc>
    2eee: e4 18        	cpx	$18                     ; 0x18 <__rc8>
    2ef0: b0 27        	bcs	$2f19 <malloc+0x123>
    2ef2: a5 14        	lda	$14                     ; 0x14 <__rc4>
    2ef4: 18           	clc
    2ef5: 69 02        	adc	#$2
    2ef7: 85 1a        	sta	$1a                     ; 0x1a <__rc10>
    2ef9: a5 15        	lda	$15                     ; 0x15 <__rc5>
    2efb: 69 00        	adc	#$0
    2efd: 85 1b        	sta	$1b                     ; 0x1b <__rc11>
    2eff: a0 02        	ldy	#$2
    2f01: b1 14        	lda	($14),y                 ; 0x14 <__rc4>
    2f03: 85 14        	sta	$14                     ; 0x14 <__rc4>
    2f05: 88           	dey
    2f06: b1 1a        	lda	($1a),y                 ; 0x1a <__rc10>
    2f08: 85 15        	sta	$15                     ; 0x15 <__rc5>
    2f0a: c5 1d        	cmp	$1d                     ; 0x1d <__rc13>
    2f0c: d0 c7        	bne	$2ed5 <malloc+0xdf>
    2f0e: a5 14        	lda	$14                     ; 0x14 <__rc4>
    2f10: a6 50        	ldx	$50                     ; 0x50 <__rc31+0x21>
    2f12: 86 19        	stx	$19                     ; 0x19 <__rc9>
    2f14: c5 19        	cmp	$19                     ; 0x19 <__rc9>
    2f16: d0 bd        	bne	$2ed5 <malloc+0xdf>
    2f18: 60           	rts
    2f19: a5 3e        	lda	$3e                     ; 0x3e <_ZN12_GLOBAL__N_19free_sizeE>
    2f1b: a6 3f        	ldx	$3f                     ; 0x3f <_ZN12_GLOBAL__N_19free_sizeE+0x1>
    2f1d: 86 12        	stx	$12                     ; 0x12 <__zp_bss_size>
    2f1f: 38           	sec
    2f20: e5 1a        	sbc	$1a                     ; 0x1a <__rc10>
    2f22: aa           	tax
    2f23: a5 12        	lda	$12                     ; 0x12 <__zp_bss_size>
    2f25: e5 19        	sbc	$19                     ; 0x19 <__rc9>
    2f27: 85 12        	sta	$12                     ; 0x12 <__zp_bss_size>
    2f29: 18           	clc
    2f2a: 8a           	txa
    2f2b: 69 02        	adc	#$2
    2f2d: 85 13        	sta	$13                     ; 0x13 <__rc3>
    2f2f: a5 12        	lda	$12                     ; 0x12 <__zp_bss_size>
    2f31: 69 00        	adc	#$0
    2f33: a6 13        	ldx	$13                     ; 0x13 <__rc3>
    2f35: 86 3e        	stx	$3e                     ; 0x3e <_ZN12_GLOBAL__N_19free_sizeE>
    2f37: 85 3f        	sta	$3f                     ; 0x3f <_ZN12_GLOBAL__N_19free_sizeE+0x1>
    2f39: a0 02        	ldy	#$2
    2f3b: a5 14        	lda	$14                     ; 0x14 <__rc4>
    2f3d: 18           	clc
    2f3e: 69 02        	adc	#$2
    2f40: 85 12        	sta	$12                     ; 0x12 <__zp_bss_size>
    2f42: a5 15        	lda	$15                     ; 0x15 <__rc5>
    2f44: 69 00        	adc	#$0
    2f46: 85 13        	sta	$13                     ; 0x13 <__rc3>
    2f48: b1 14        	lda	($14),y                 ; 0x14 <__rc4>
    2f4a: 85 1e        	sta	$1e                     ; 0x1e <__rc14>
    2f4c: 88           	dey
    2f4d: b1 12        	lda	($12),y                 ; 0x12 <__zp_bss_size>
    2f4f: 85 1f        	sta	$1f                     ; 0x1f <__rc15>
    2f51: c5 15        	cmp	$15                     ; 0x15 <__rc5>
    2f53: d0 15        	bne	$2f6a <malloc+0x174>
    2f55: a5 52        	lda	$52                     ; 0x52 <__rc31+0x23>
    2f57: a6 1e        	ldx	$1e                     ; 0x1e <__rc14>
    2f59: e4 14        	cpx	$14                     ; 0x14 <__rc4>
    2f5b: d0 0d        	bne	$2f6a <malloc+0x174>
    2f5d: 85 1a        	sta	$1a                     ; 0x1a <__rc10>
    2f5f: a2 00        	ldx	#$0
    2f61: 86 18        	stx	$18                     ; 0x18 <__rc8>
    2f63: a2 00        	ldx	#$0
    2f65: 86 19        	stx	$19                     ; 0x19 <__rc9>
    2f67: 4c ed 2f     	jmp	$2fed <malloc+0x1f7>
    2f6a: 18           	clc
    2f6b: a5 14        	lda	$14                     ; 0x14 <__rc4>
    2f6d: 69 04        	adc	#$4
    2f6f: 85 18        	sta	$18                     ; 0x18 <__rc8>
    2f71: a5 15        	lda	$15                     ; 0x15 <__rc5>
    2f73: 69 00        	adc	#$0
    2f75: 85 19        	sta	$19                     ; 0x19 <__rc9>
    2f77: a0 04        	ldy	#$4
    2f79: b1 14        	lda	($14),y                 ; 0x14 <__rc4>
    2f7b: 85 16        	sta	$16                     ; 0x16 <__rc6>
    2f7d: 18           	clc
    2f7e: 69 02        	adc	#$2
    2f80: 85 1a        	sta	$1a                     ; 0x1a <__rc10>
    2f82: a0 01        	ldy	#$1
    2f84: b1 18        	lda	($18),y                 ; 0x18 <__rc8>
    2f86: aa           	tax
    2f87: 84 22        	sty	$22                     ; 0x22 <__rc18>
    2f89: 69 00        	adc	#$0
    2f8b: a4 1a        	ldy	$1a                     ; 0x1a <__rc10>
    2f8d: 84 18        	sty	$18                     ; 0x18 <__rc8>
    2f8f: 85 19        	sta	$19                     ; 0x19 <__rc9>
    2f91: a4 16        	ldy	$16                     ; 0x16 <__rc6>
    2f93: 84 1a        	sty	$1a                     ; 0x1a <__rc10>
    2f95: 86 1b        	stx	$1b                     ; 0x1b <__rc11>
    2f97: a5 1e        	lda	$1e                     ; 0x1e <__rc14>
    2f99: a0 02        	ldy	#$2
    2f9b: 91 1a        	sta	($1a),y                 ; 0x1a <__rc10>
    2f9d: 84 1e        	sty	$1e                     ; 0x1e <__rc14>
    2f9f: a5 1f        	lda	$1f                     ; 0x1f <__rc15>
    2fa1: a4 22        	ldy	$22                     ; 0x22 <__rc18>
    2fa3: 91 18        	sta	($18),y                 ; 0x18 <__rc8>
    2fa5: 18           	clc
    2fa6: a5 14        	lda	$14                     ; 0x14 <__rc4>
    2fa8: 69 02        	adc	#$2
    2faa: 85 1a        	sta	$1a                     ; 0x1a <__rc10>
    2fac: a5 15        	lda	$15                     ; 0x15 <__rc5>
    2fae: 69 00        	adc	#$0
    2fb0: 85 1b        	sta	$1b                     ; 0x1b <__rc11>
    2fb2: a4 1e        	ldy	$1e                     ; 0x1e <__rc14>
    2fb4: b1 14        	lda	($14),y                 ; 0x14 <__rc4>
    2fb6: 85 18        	sta	$18                     ; 0x18 <__rc8>
    2fb8: 85 1e        	sta	$1e                     ; 0x1e <__rc14>
    2fba: a4 22        	ldy	$22                     ; 0x22 <__rc18>
    2fbc: b1 1a        	lda	($1a),y                 ; 0x1a <__rc10>
    2fbe: 84 1c        	sty	$1c                     ; 0x1c <__rc12>
    2fc0: 85 19        	sta	$19                     ; 0x19 <__rc9>
    2fc2: 85 1a        	sta	$1a                     ; 0x1a <__rc10>
    2fc4: a5 16        	lda	$16                     ; 0x16 <__rc6>
    2fc6: a0 04        	ldy	#$4
    2fc8: 91 18        	sta	($18),y                 ; 0x18 <__rc8>
    2fca: 18           	clc
    2fcb: a5 1e        	lda	$1e                     ; 0x1e <__rc14>
    2fcd: 69 04        	adc	#$4
    2fcf: a8           	tay
    2fd0: a5 1a        	lda	$1a                     ; 0x1a <__rc10>
    2fd2: 69 00        	adc	#$0
    2fd4: 84 1a        	sty	$1a                     ; 0x1a <__rc10>
    2fd6: 85 1b        	sta	$1b                     ; 0x1b <__rc11>
    2fd8: 8a           	txa
    2fd9: a4 1c        	ldy	$1c                     ; 0x1c <__rc12>
    2fdb: 91 1a        	sta	($1a),y                 ; 0x1a <__rc10>
    2fdd: a5 52        	lda	$52                     ; 0x52 <__rc31+0x23>
    2fdf: 85 1a        	sta	$1a                     ; 0x1a <__rc10>
    2fe1: a6 1d        	ldx	$1d                     ; 0x1d <__rc13>
    2fe3: e4 15        	cpx	$15                     ; 0x15 <__rc5>
    2fe5: d0 0e        	bne	$2ff5 <malloc+0x1ff>
    2fe7: a6 50        	ldx	$50                     ; 0x50 <__rc31+0x21>
    2fe9: e4 14        	cpx	$14                     ; 0x14 <__rc4>
    2feb: d0 08        	bne	$2ff5 <malloc+0x1ff>
    2fed: a6 18        	ldx	$18                     ; 0x18 <__rc8>
    2fef: a4 19        	ldy	$19                     ; 0x19 <__rc9>
    2ff1: 86 40        	stx	$40                     ; 0x40 <_ZN12_GLOBAL__N_19free_listE>
    2ff3: 84 41        	sty	$41                     ; 0x41 <_ZN12_GLOBAL__N_19free_listE+0x1>
    2ff5: a0 01        	ldy	#$1
    2ff7: b1 14        	lda	($14),y                 ; 0x14 <__rc4>
    2ff9: 85 16        	sta	$16                     ; 0x16 <__rc6>
    2ffb: a9 fe        	lda	#$fe
    2ffd: 32 14        	and	($14)                   ; 0x14 <__rc4>
    2fff: 38           	sec
    3000: a6 4f        	ldx	$4f                     ; 0x4f <__rc31+0x20>
    3002: 86 18        	stx	$18                     ; 0x18 <__rc8>
    3004: a8           	tay
    3005: e5 18        	sbc	$18                     ; 0x18 <__rc8>
    3007: 85 19        	sta	$19                     ; 0x19 <__rc9>
    3009: a5 16        	lda	$16                     ; 0x16 <__rc6>
    300b: a6 16        	ldx	$16                     ; 0x16 <__rc6>
    300d: e5 1a        	sbc	$1a                     ; 0x1a <__rc10>
    300f: f0 03        	beq	$3014 <malloc+0x21e>
    3011: 4c a0 30     	jmp	$30a0 <malloc+0x2aa>
    3014: 85 16        	sta	$16                     ; 0x16 <__rc6>
    3016: a5 19        	lda	$19                     ; 0x19 <__rc9>
    3018: c9 08        	cmp	#$8
    301a: 86 18        	stx	$18                     ; 0x18 <__rc8>
    301c: b0 03        	bcs	$3021 <malloc+0x22b>
    301e: 4c 83 30     	jmp	$3083 <malloc+0x28d>
    3021: a6 17        	ldx	$17                     ; 0x17 <__rc7>
    3023: 86 56        	stx	$56                     ; 0x56 <__rc31+0x27>
    3025: a6 53        	ldx	$53                     ; 0x53 <__rc31+0x24>
    3027: 86 53        	stx	$53                     ; 0x53 <__rc31+0x24>
    3029: a6 12        	ldx	$12                     ; 0x12 <__zp_bss_size>
    302b: 86 50        	stx	$50                     ; 0x50 <__rc31+0x21>
    302d: a6 13        	ldx	$13                     ; 0x13 <__rc3>
    302f: 86 51        	stx	$51                     ; 0x51 <__rc31+0x22>
    3031: a8           	tay
    3032: 18           	clc
    3033: a6 4f        	ldx	$4f                     ; 0x4f <__rc31+0x20>
    3035: 86 4f        	stx	$4f                     ; 0x4f <__rc31+0x20>
    3037: 8a           	txa
    3038: 65 14        	adc	$14                     ; 0x14 <__rc4>
    303a: 85 12        	sta	$12                     ; 0x12 <__zp_bss_size>
    303c: a5 1a        	lda	$1a                     ; 0x1a <__rc10>
    303e: a6 1a        	ldx	$1a                     ; 0x1a <__rc10>
    3040: 86 52        	stx	$52                     ; 0x52 <__rc31+0x23>
    3042: 65 15        	adc	$15                     ; 0x15 <__rc5>
    3044: 85 13        	sta	$13                     ; 0x13 <__rc3>
    3046: a6 16        	ldx	$16                     ; 0x16 <__rc6>
    3048: 98           	tya
    3049: a4 14        	ldy	$14                     ; 0x14 <__rc4>
    304b: 84 54        	sty	$54                     ; 0x54 <__rc31+0x25>
    304d: a4 15        	ldy	$15                     ; 0x15 <__rc5>
    304f: 84 55        	sty	$55                     ; 0x55 <__rc31+0x26>
    3051: 20 16 03     	jsr	$316 <_ZN12_GLOBAL__N_19FreeChunk6insertEPvj>
    3054: a6 54        	ldx	$54                     ; 0x54 <__rc31+0x25>
    3056: 86 14        	stx	$14                     ; 0x14 <__rc4>
    3058: a6 55        	ldx	$55                     ; 0x55 <__rc31+0x26>
    305a: 86 15        	stx	$15                     ; 0x15 <__rc5>
    305c: a5 4f        	lda	$4f                     ; 0x4f <__rc31+0x20>
    305e: 29 fe        	and	#$fe
    3060: 85 12        	sta	$12                     ; 0x12 <__zp_bss_size>
    3062: a0 01        	ldy	#$1
    3064: 98           	tya
    3065: 32 14        	and	($14)                   ; 0x14 <__rc4>
    3067: 05 12        	ora	$12                     ; 0x12 <__zp_bss_size>
    3069: 92 14        	sta	($14)                   ; 0x14 <__rc4>
    306b: a5 52        	lda	$52                     ; 0x52 <__rc31+0x23>
    306d: 91 14        	sta	($14),y                 ; 0x14 <__rc4>
    306f: a4 12        	ldy	$12                     ; 0x12 <__zp_bss_size>
    3071: 85 18        	sta	$18                     ; 0x18 <__rc8>
    3073: a6 50        	ldx	$50                     ; 0x50 <__rc31+0x21>
    3075: 86 12        	stx	$12                     ; 0x12 <__zp_bss_size>
    3077: a6 51        	ldx	$51                     ; 0x51 <__rc31+0x22>
    3079: 86 13        	stx	$13                     ; 0x13 <__rc3>
    307b: a6 53        	ldx	$53                     ; 0x53 <__rc31+0x24>
    307d: 86 53        	stx	$53                     ; 0x53 <__rc31+0x24>
    307f: a6 56        	ldx	$56                     ; 0x56 <__rc31+0x27>
    3081: 86 17        	stx	$17                     ; 0x17 <__rc7>
    3083: 18           	clc
    3084: 98           	tya
    3085: 65 14        	adc	$14                     ; 0x14 <__rc4>
    3087: 85 16        	sta	$16                     ; 0x16 <__rc6>
    3089: a5 15        	lda	$15                     ; 0x15 <__rc5>
    308b: 65 18        	adc	$18                     ; 0x18 <__rc8>
    308d: 85 15        	sta	$15                     ; 0x15 <__rc5>
    308f: c5 17        	cmp	$17                     ; 0x17 <__rc7>
    3091: d0 1a        	bne	$30ad <malloc+0x2b7>
    3093: a6 53        	ldx	$53                     ; 0x53 <__rc31+0x24>
    3095: 86 14        	stx	$14                     ; 0x14 <__rc4>
    3097: a6 16        	ldx	$16                     ; 0x16 <__rc6>
    3099: e4 14        	cpx	$14                     ; 0x14 <__rc4>
    309b: d0 12        	bne	$30af <malloc+0x2b9>
    309d: 4c 18 2f     	jmp	$2f18 <malloc+0x122>
    30a0: 85 16        	sta	$16                     ; 0x16 <__rc6>
    30a2: c9 00        	cmp	#$0
    30a4: 86 18        	stx	$18                     ; 0x18 <__rc8>
    30a6: a5 19        	lda	$19                     ; 0x19 <__rc9>
    30a8: 90 d9        	bcc	$3083 <malloc+0x28d>
    30aa: 4c 21 30     	jmp	$3021 <malloc+0x22b>
    30ad: a6 16        	ldx	$16                     ; 0x16 <__rc6>
    30af: 86 14        	stx	$14                     ; 0x14 <__rc4>
    30b1: a0 01        	ldy	#$1
    30b3: b1 14        	lda	($14),y                 ; 0x14 <__rc4>
    30b5: 85 16        	sta	$16                     ; 0x16 <__rc6>
    30b7: a9 fe        	lda	#$fe
    30b9: 32 14        	and	($14)                   ; 0x14 <__rc4>
    30bb: 92 14        	sta	($14)                   ; 0x14 <__rc4>
    30bd: a5 16        	lda	$16                     ; 0x16 <__rc6>
    30bf: 91 14        	sta	($14),y                 ; 0x14 <__rc4>
    30c1: 60           	rts

000030c2 <memcpy>:
    30c2: a8           	tay
    30c3: 8a           	txa
    30c4: d0 03        	bne	$30c9 <memcpy+0x7>
    30c6: 98           	tya
    30c7: f0 24        	beq	$30ed <memcpy+0x2b>
    30c9: a5 12        	lda	$12                     ; 0x12 <__zp_bss_size>
    30cb: 85 16        	sta	$16                     ; 0x16 <__rc6>
    30cd: a5 13        	lda	$13                     ; 0x13 <__rc3>
    30cf: 85 17        	sta	$17                     ; 0x17 <__rc7>
    30d1: b2 14        	lda	($14)                   ; 0x14 <__rc4>
    30d3: 92 16        	sta	($16)                   ; 0x16 <__rc6>
    30d5: e6 16        	inc	$16                     ; 0x16 <__rc6>
    30d7: d0 02        	bne	$30db <memcpy+0x19>
    30d9: e6 17        	inc	$17                     ; 0x17 <__rc7>
    30db: e6 14        	inc	$14                     ; 0x14 <__rc4>
    30dd: d0 02        	bne	$30e1 <memcpy+0x1f>
    30df: e6 15        	inc	$15                     ; 0x15 <__rc5>
    30e1: 88           	dey
    30e2: c0 ff        	cpy	#$ff
    30e4: d0 01        	bne	$30e7 <memcpy+0x25>
    30e6: ca           	dex
    30e7: 8a           	txa
    30e8: d0 e7        	bne	$30d1 <memcpy+0xf>
    30ea: 98           	tya
    30eb: d0 e4        	bne	$30d1 <memcpy+0xf>
    30ed: 60           	rts

000030ee <__memset>:
    30ee: a4 14        	ldy	$14                     ; 0x14 <__rc4>
    30f0: d0 04        	bne	$30f6 <__memset+0x8>
    30f2: e0 00        	cpx	#$0
    30f4: f0 17        	beq	$310d <__memset+0x1f>
    30f6: 92 12        	sta	($12)                   ; 0x12 <__zp_bss_size>
    30f8: e6 12        	inc	$12                     ; 0x12 <__zp_bss_size>
    30fa: d0 02        	bne	$30fe <__memset+0x10>
    30fc: e6 13        	inc	$13                     ; 0x13 <__rc3>
    30fe: ca           	dex
    30ff: e0 ff        	cpx	#$ff
    3101: d0 02        	bne	$3105 <__memset+0x17>
    3103: c6 14        	dec	$14                     ; 0x14 <__rc4>
    3105: a4 14        	ldy	$14                     ; 0x14 <__rc4>
    3107: d0 ed        	bne	$30f6 <__memset+0x8>
    3109: e0 00        	cpx	#$0
    310b: d0 e9        	bne	$30f6 <__memset+0x8>
    310d: 60           	rts

0000310e <__mulhi3>:
    310e: a4 13        	ldy	$13                     ; 0x13 <__rc3>
    3110: d0 04        	bne	$3116 <__mulhi3+0x8>
    3112: a4 12        	ldy	$12                     ; 0x12 <__zp_bss_size>
    3114: f0 25        	beq	$313b <__mulhi3+0x2d>
    3116: 85 14        	sta	$14                     ; 0x14 <__rc4>
    3118: 86 15        	stx	$15                     ; 0x15 <__rc5>
    311a: a0 00        	ldy	#$0
    311c: 98           	tya
    311d: 46 13        	lsr	$13                     ; 0x13 <__rc3>
    311f: 66 12        	ror	$12                     ; 0x12 <__zp_bss_size>
    3121: 90 09        	bcc	$312c <__mulhi3+0x1e>
    3123: aa           	tax
    3124: 98           	tya
    3125: 18           	clc
    3126: 65 14        	adc	$14                     ; 0x14 <__rc4>
    3128: a8           	tay
    3129: 8a           	txa
    312a: 65 15        	adc	$15                     ; 0x15 <__rc5>
    312c: 06 14        	asl	$14                     ; 0x14 <__rc4>
    312e: 26 15        	rol	$15                     ; 0x15 <__rc5>
    3130: a6 13        	ldx	$13                     ; 0x13 <__rc3>
    3132: d0 e9        	bne	$311d <__mulhi3+0xf>
    3134: a6 12        	ldx	$12                     ; 0x12 <__zp_bss_size>
    3136: d0 e5        	bne	$311d <__mulhi3+0xf>
    3138: aa           	tax
    3139: 98           	tya
    313a: 60           	rts
    313b: a0 00        	ldy	#$0
    313d: 98           	tya
    313e: 80 f8        	bra	$3138 <__mulhi3+0x2a>
