
grudge.elf:	file format elf32-mos

SYMBOL TABLE:
00000000 l    df *ABS*	00000000 zero-bss.c
00000000 l    df *ABS*	00000000 zero-zp-bss.c
00000000 l    df *ABS*	00000000 ld-temp.o
00000036 l     O .zp.bss	00000007 kernelEventData
00000030 l     O .zp.bss	00000001 _ccolor
00003a98 l     O .rodata	00000030 textColors
00000031 l     O .zp.bss	00000001 _col
00000032 l     O .zp.bss	00000001 _row
00005f68 l     O .bss	00000040 _spriteCtl
00006188 l     O .bss	00000001 kernelError
00005fa8 l     O .bss	000001e0 spriteStatuses
00003714 l     F .text	000002cc malloc
000022a9 l     F .text	00000340 updateFrames
00003af2 l     O .rodata	00002476 bigpatch
00003aec l     O .rodata	00000006 stateDelays
00000035 l     O .zp.bss	00000001 padTimer.1
00001cc2 l     F .text	000005e7 checkPads
00003a2c l     F .text	00000032 __mulhi3
000027d4 l     F .text	00000d31 printf
000025ee l     F .text	000000d7 _ZN12_GLOBAL__N_13putEcP6Status
00003505 l     F .text	0000020f putchar
000026c5 l     F .text	0000010f _ZN12_GLOBAL__N_112print_stringEPKcP6Status
00000033 l     O .zp.bss	00000002 __putchar.s
0000003d l     O .zp.bss	00000001 _ZN12_GLOBAL__N_111initializedE
00000316 l     F .text	0000014b _ZN12_GLOBAL__N_19FreeChunk6insertEPvj
00000040 l     O .zp.bss	00000002 _ZN12_GLOBAL__N_19free_listE
0000003e l     O .zp.bss	00000002 _ZN12_GLOBAL__N_19free_sizeE
00000487 g     F .text	0000183b main
00010400 g       .palgrudge	00000000 palgrudge_end
00010800 g       .boy1	00000000 boy1_end
00011400 g       .cath	00000000 cath_end
00011000 g       .girl1	00000000 girl1_end
00013000 g       .dash	00000000 dash_start
00010800 g       .thing	00000000 thing_start
00010400 g       .boy1	00000000 boy1_start
00013800 g       .dash	00000000 dash_end
00011400 g       .cat	00000000 cat_start
00011800 g       .cat	00000000 cat_end
00010000 g       .palgrudge	00000000 palgrudge_start
00010c00 g       .thing	00000000 thing_end
00010c00 g       .girl1	00000000 girl1_start
00011000 g       .cath	00000000 cath_start
00000311 g       .text	00000000 __after_main
00000300 g       .text	00000000 __do_init_stack
00000308 g       .text	00000000 __do_zero_bss
00000461 g     F .text	00000013 __zero_bss
0000030b g       .text	00000000 __do_zero_zp_bss
00000474 g     F .text	00000013 __zero_zp_bss
000025e9 g     F .text	00000005 exit
00000314 g       .text	00000000 _fini
00003a0c  w    F .text	00000020 __memset
00001000  w      *ABS*	00000000 __heap_default_limit
0000618a g       .noinit	00000000 __heap_start
000039e0  w    F .text	0000002c memcpy
00000010 g       *ABS*	00000000 __rc0
00000012 g       *ABS*	00000000 __rc2
00000014 g       *ABS*	00000000 __rc4
00000016 g       *ABS*	00000000 __rc6
00000018 g       *ABS*	00000000 __rc8
0000001a g       *ABS*	00000000 __rc10
0000001c g       *ABS*	00000000 __rc12
0000001e g       *ABS*	00000000 __rc14
00000020 g       *ABS*	00000000 __rc16
00000022 g       *ABS*	00000000 __rc18
00000024 g       *ABS*	00000000 __rc20
00000026 g       *ABS*	00000000 __rc22
00000028 g       *ABS*	00000000 __rc24
0000002a g       *ABS*	00000000 __rc26
0000002c g       *ABS*	00000000 __rc28
0000002e g       *ABS*	00000000 __rc30
0000002f g       *ABS*	00000000 __rc31
00000300 g       *ABS*	00000000 __f256_start
0000a000 g       *ABS*	00000000 __stack
0000a000 g       *ABS*	00000000 __SLOT_ADDR
0800a000 g       *ABS*	00000000 __block8_lma
00002000 g       *ABS*	00000000 __BLOCK_SIZE
0900a000 g       *ABS*	00000000 __block9_lma
0a00a000 g       *ABS*	00000000 __block10_lma
0b00a000 g       *ABS*	00000000 __block11_lma
0c00a000 g       *ABS*	00000000 __block12_lma
0d00a000 g       *ABS*	00000000 __block13_lma
0e00a000 g       *ABS*	00000000 __block14_lma
0f00a000 g       *ABS*	00000000 __block15_lma
1000a000 g       *ABS*	00000000 __block16_lma
1100a000 g       *ABS*	00000000 __block17_lma
1200a000 g       *ABS*	00000000 __block18_lma
1300a000 g       *ABS*	00000000 __block19_lma
1400a000 g       *ABS*	00000000 __block20_lma
1500a000 g       *ABS*	00000000 __block21_lma
1600a000 g       *ABS*	00000000 __block22_lma
1700a000 g       *ABS*	00000000 __block23_lma
00010000 g       *ABS*	00000000 __palgrudge_lma
00000400 g       *ABS*	00000000 __palgrudge_size
00010400 g       *ABS*	00000000 __boy1_lma
00000400 g       *ABS*	00000000 __boy1_size
00010800 g       *ABS*	00000000 __thing_lma
00000400 g       *ABS*	00000000 __thing_size
00010c00 g       *ABS*	00000000 __girl1_lma
00000400 g       *ABS*	00000000 __girl1_size
00011000 g       *ABS*	00000000 __cath_lma
00000400 g       *ABS*	00000000 __cath_size
00011400 g       *ABS*	00000000 __cat_lma
00000400 g       *ABS*	00000000 __cat_size
00013000 g       *ABS*	00000000 __dash_lma
00000800 g       *ABS*	00000000 __dash_size
00005f68 g       .bss	00000000 __bss_start
00010400 g       .palgrudge	00000000 end_palgrudge
00010800 g       .boy1	00000000 end_boy1
00010c00 g       .thing	00000000 end_thing
00011000 g       .girl1	00000000 end_girl1
00011400 g       .cath	00000000 end_cath
00011800 g       .cat	00000000 end_cat
00013800 g       .dash	00000000 end_dash
00000300 g       .text	00000000 _start
0000002d g       *ABS*	00000000 __rc29
0000002b g       *ABS*	00000000 __rc27
00000029 g       *ABS*	00000000 __rc25
00000027 g       *ABS*	00000000 __rc23
00000025 g       *ABS*	00000000 __rc21
00000023 g       *ABS*	00000000 __rc19
00000021 g       *ABS*	00000000 __rc17
0000001f g       *ABS*	00000000 __rc15
0000001d g       *ABS*	00000000 __rc13
0000001b g       *ABS*	00000000 __rc11
00000019 g       *ABS*	00000000 __rc9
00000017 g       *ABS*	00000000 __rc7
00000015 g       *ABS*	00000000 __rc5
00000013 g       *ABS*	00000000 __rc3
00000011 g       *ABS*	00000000 __rc1
00000030 g       .zp.data	00000000 __zp_data_start
00000300 g       *ABS*	00000000 __zp_data_load_start
00000000 g       *ABS*	00000000 __zp_data_size
00000030 g       .zp.bss	00000000 __zp_bss_start
00000012 g       *ABS*	00000000 __zp_bss_size
00000300 g       .text	00000000 _init
00003a5e g       .text	00000000 __init_array_start
00003a5e g       .text	00000000 __init_array_end
00003a5e g       .text	00000000 __fini_array_start
00003a5e g       .text	00000000 __fini_array_end
00005f68 g       .data	00000000 __data_start
00005f68 g       .data	00000000 __data_end
00005f68 g       *ABS*	00000000 __data_load_start
00000000 g       *ABS*	00000000 __data_size
00006189 g       .bss	00000000 __bss_end
00000221 g       *ABS*	00000000 __bss_size
00006189 g       .noinit	00000000 end_block8
00006189 g       .noinit	00000000 end_block9
00006189 g       .noinit	00000000 end_block10
00006189 g       .noinit	00000000 end_block11
00006189 g       .noinit	00000000 end_block12
00006189 g       .noinit	00000000 end_block13
00006189 g       .noinit	00000000 end_block14
00006189 g       .noinit	00000000 end_block15
00006189 g       .noinit	00000000 end_block16
00006189 g       .noinit	00000000 end_block17
00006189 g       .noinit	00000000 end_block18
00006189 g       .noinit	00000000 end_block19
00006189 g       .noinit	00000000 end_block20
00006189 g       .noinit	00000000 end_block21
00006189 g       .noinit	00000000 end_block22
00006189 g       .noinit	00000000 end_block23

Disassembly of section .text:

00000300 <_start>:
     300: a9 00        	lda	#$0
     302: 85 10        	sta	$10                     ; 0x10 <__rc0>
     304: a9 a0        	lda	#$a0
     306: 85 11        	sta	$11                     ; 0x11 <__rc1>

00000308 <__do_zero_bss>:
     308: 20 61 04     	jsr	$461 <__zero_bss>

0000030b <__do_zero_zp_bss>:
     30b: 20 74 04     	jsr	$474 <__zero_zp_bss>
     30e: 20 87 04     	jsr	$487 <main>

00000311 <__after_main>:
     311: 4c e9 25     	jmp	$25e9 <exit>

00000314 <_fini>:
     314: 60           	rts
     315: 00           	brk

00000316 <_ZN12_GLOBAL__N_19FreeChunk6insertEPvj>:
     316: 85 16        	sta	$16                     ; 0x16 <__rc6>
     318: 29 fe        	and	#$fe
     31a: 85 14        	sta	$14                     ; 0x14 <__rc4>
     31c: a0 01        	ldy	#$1
     31e: 98           	tya
     31f: 32 12        	and	($12)                   ; 0x12 <__zp_bss_size>
     321: 05 14        	ora	$14                     ; 0x14 <__rc4>
     323: 92 12        	sta	($12)                   ; 0x12 <__zp_bss_size>
     325: a5 12        	lda	$12                     ; 0x12 <__zp_bss_size>
     327: 18           	clc
     328: 65 14        	adc	$14                     ; 0x14 <__rc4>
     32a: 85 15        	sta	$15                     ; 0x15 <__rc5>
     32c: 8a           	txa
     32d: 65 13        	adc	$13                     ; 0x13 <__rc3>
     32f: 85 14        	sta	$14                     ; 0x14 <__rc4>
     331: 18           	clc
     332: a5 15        	lda	$15                     ; 0x15 <__rc5>
     334: 69 fe        	adc	#$fe
     336: 85 17        	sta	$17                     ; 0x17 <__rc7>
     338: a5 14        	lda	$14                     ; 0x14 <__rc4>
     33a: 69 ff        	adc	#$ff
     33c: 85 15        	sta	$15                     ; 0x15 <__rc5>
     33e: a5 17        	lda	$17                     ; 0x17 <__rc7>
     340: 85 14        	sta	$14                     ; 0x14 <__rc4>
     342: 8a           	txa
     343: 91 12        	sta	($12),y                 ; 0x12 <__zp_bss_size>
     345: a5 16        	lda	$16                     ; 0x16 <__rc6>
     347: 92 14        	sta	($14)                   ; 0x14 <__rc4>
     349: 8a           	txa
     34a: 91 14        	sta	($14),y                 ; 0x14 <__rc4>
     34c: a2 01        	ldx	#$1
     34e: 86 18        	stx	$18                     ; 0x18 <__rc8>
     350: b1 12        	lda	($12),y                 ; 0x12 <__zp_bss_size>
     352: 85 14        	sta	$14                     ; 0x14 <__rc4>
     354: a9 fe        	lda	#$fe
     356: 32 12        	and	($12)                   ; 0x12 <__zp_bss_size>
     358: 18           	clc
     359: 65 3e        	adc	$3e                     ; 0x3e <_ZN12_GLOBAL__N_19free_sizeE>
     35b: aa           	tax
     35c: a5 14        	lda	$14                     ; 0x14 <__rc4>
     35e: 65 3f        	adc	$3f                     ; 0x3f <_ZN12_GLOBAL__N_19free_sizeE+0x1>
     360: a8           	tay
     361: 18           	clc
     362: 8a           	txa
     363: 69 fe        	adc	#$fe
     365: aa           	tax
     366: 98           	tya
     367: 69 ff        	adc	#$ff
     369: 86 3e        	stx	$3e                     ; 0x3e <_ZN12_GLOBAL__N_19free_sizeE>
     36b: 85 3f        	sta	$3f                     ; 0x3f <_ZN12_GLOBAL__N_19free_sizeE+0x1>
     36d: a6 40        	ldx	$40                     ; 0x40 <_ZN12_GLOBAL__N_19free_listE>
     36f: 86 16        	stx	$16                     ; 0x16 <__rc6>
     371: a4 41        	ldy	$41                     ; 0x41 <_ZN12_GLOBAL__N_19free_listE+0x1>
     373: a2 00        	ldx	#$0
     375: 86 14        	stx	$14                     ; 0x14 <__rc4>
     377: a2 00        	ldx	#$0
     379: 86 15        	stx	$15                     ; 0x15 <__rc5>
     37b: 84 17        	sty	$17                     ; 0x17 <__rc7>
     37d: c4 15        	cpy	$15                     ; 0x15 <__rc5>
     37f: d0 3c        	bne	$3bd <_ZN12_GLOBAL__N_19FreeChunk6insertEPvj+0xa7>
     381: a6 16        	ldx	$16                     ; 0x16 <__rc6>
     383: e4 14        	cpx	$14                     ; 0x14 <__rc4>
     385: d0 36        	bne	$3bd <_ZN12_GLOBAL__N_19FreeChunk6insertEPvj+0xa7>
     387: a0 04        	ldy	#$4
     389: a5 12        	lda	$12                     ; 0x12 <__zp_bss_size>
     38b: 18           	clc
     38c: 69 04        	adc	#$4
     38e: 85 14        	sta	$14                     ; 0x14 <__rc4>
     390: a5 13        	lda	$13                     ; 0x13 <__rc3>
     392: 69 00        	adc	#$0
     394: 18           	clc
     395: 85 15        	sta	$15                     ; 0x15 <__rc5>
     397: a5 12        	lda	$12                     ; 0x12 <__zp_bss_size>
     399: 91 12        	sta	($12),y                 ; 0x12 <__zp_bss_size>
     39b: a0 02        	ldy	#$2
     39d: 85 17        	sta	$17                     ; 0x17 <__rc7>
     39f: 69 02        	adc	#$2
     3a1: 85 16        	sta	$16                     ; 0x16 <__rc6>
     3a3: a5 17        	lda	$17                     ; 0x17 <__rc7>
     3a5: 91 12        	sta	($12),y                 ; 0x12 <__zp_bss_size>
     3a7: a5 13        	lda	$13                     ; 0x13 <__rc3>
     3a9: 69 00        	adc	#$0
     3ab: 85 17        	sta	$17                     ; 0x17 <__rc7>
     3ad: 88           	dey
     3ae: a5 13        	lda	$13                     ; 0x13 <__rc3>
     3b0: 91 14        	sta	($14),y                 ; 0x14 <__rc4>
     3b2: 91 16        	sta	($16),y                 ; 0x16 <__rc6>
     3b4: a6 12        	ldx	$12                     ; 0x12 <__zp_bss_size>
     3b6: 86 40        	stx	$40                     ; 0x40 <_ZN12_GLOBAL__N_19free_listE>
     3b8: a6 13        	ldx	$13                     ; 0x13 <__rc3>
     3ba: 86 41        	stx	$41                     ; 0x41 <_ZN12_GLOBAL__N_19free_listE+0x1>
     3bc: 60           	rts
     3bd: a6 12        	ldx	$12                     ; 0x12 <__zp_bss_size>
     3bf: a5 12        	lda	$12                     ; 0x12 <__zp_bss_size>
     3c1: 18           	clc
     3c2: 69 02        	adc	#$2
     3c4: 85 14        	sta	$14                     ; 0x14 <__rc4>
     3c6: a4 16        	ldy	$16                     ; 0x16 <__rc6>
     3c8: a5 13        	lda	$13                     ; 0x13 <__rc3>
     3ca: 69 00        	adc	#$0
     3cc: 85 15        	sta	$15                     ; 0x15 <__rc5>
     3ce: 84 19        	sty	$19                     ; 0x19 <__rc9>
     3d0: a4 17        	ldy	$17                     ; 0x17 <__rc7>
     3d2: 84 1a        	sty	$1a                     ; 0x1a <__rc10>
     3d4: a0 02        	ldy	#$2
     3d6: a5 19        	lda	$19                     ; 0x19 <__rc9>
     3d8: 91 12        	sta	($12),y                 ; 0x12 <__zp_bss_size>
     3da: 84 1d        	sty	$1d                     ; 0x1d <__rc13>
     3dc: a4 18        	ldy	$18                     ; 0x18 <__rc8>
     3de: a5 1a        	lda	$1a                     ; 0x1a <__rc10>
     3e0: 91 14        	sta	($14),y                 ; 0x14 <__rc4>
     3e2: 84 1e        	sty	$1e                     ; 0x1e <__rc14>
     3e4: 18           	clc
     3e5: a5 19        	lda	$19                     ; 0x19 <__rc9>
     3e7: 69 04        	adc	#$4
     3e9: 85 18        	sta	$18                     ; 0x18 <__rc8>
     3eb: a5 1a        	lda	$1a                     ; 0x1a <__rc10>
     3ed: 69 00        	adc	#$0
     3ef: 85 19        	sta	$19                     ; 0x19 <__rc9>
     3f1: 8a           	txa
     3f2: 18           	clc
     3f3: 69 04        	adc	#$4
     3f5: 85 1a        	sta	$1a                     ; 0x1a <__rc10>
     3f7: a5 13        	lda	$13                     ; 0x13 <__rc3>
     3f9: 69 00        	adc	#$0
     3fb: 85 1b        	sta	$1b                     ; 0x1b <__rc11>
     3fd: a0 04        	ldy	#$4
     3ff: b1 16        	lda	($16),y                 ; 0x16 <__rc6>
     401: 85 16        	sta	$16                     ; 0x16 <__rc6>
     403: 85 22        	sta	$22                     ; 0x22 <__rc18>
     405: a4 1e        	ldy	$1e                     ; 0x1e <__rc14>
     407: b1 18        	lda	($18),y                 ; 0x18 <__rc8>
     409: 85 17        	sta	$17                     ; 0x17 <__rc7>
     40b: 85 19        	sta	$19                     ; 0x19 <__rc9>
     40d: a0 04        	ldy	#$4
     40f: a5 22        	lda	$22                     ; 0x22 <__rc18>
     411: 91 12        	sta	($12),y                 ; 0x12 <__zp_bss_size>
     413: 84 1f        	sty	$1f                     ; 0x1f <__rc15>
     415: a4 1e        	ldy	$1e                     ; 0x1e <__rc14>
     417: a5 19        	lda	$19                     ; 0x19 <__rc9>
     419: 91 1a        	sta	($1a),y                 ; 0x1a <__rc10>
     41b: 84 1a        	sty	$1a                     ; 0x1a <__rc10>
     41d: 18           	clc
     41e: a5 22        	lda	$22                     ; 0x22 <__rc18>
     420: 69 02        	adc	#$2
     422: 85 18        	sta	$18                     ; 0x18 <__rc8>
     424: a5 19        	lda	$19                     ; 0x19 <__rc9>
     426: 69 00        	adc	#$0
     428: 85 19        	sta	$19                     ; 0x19 <__rc9>
     42a: 8a           	txa
     42b: a4 1d        	ldy	$1d                     ; 0x1d <__rc13>
     42d: 91 16        	sta	($16),y                 ; 0x16 <__rc6>
     42f: a5 13        	lda	$13                     ; 0x13 <__rc3>
     431: a4 1a        	ldy	$1a                     ; 0x1a <__rc10>
     433: 91 18        	sta	($18),y                 ; 0x18 <__rc8>
     435: a4 1d        	ldy	$1d                     ; 0x1d <__rc13>
     437: b1 12        	lda	($12),y                 ; 0x12 <__zp_bss_size>
     439: 85 16        	sta	$16                     ; 0x16 <__rc6>
     43b: 85 19        	sta	$19                     ; 0x19 <__rc9>
     43d: a4 1a        	ldy	$1a                     ; 0x1a <__rc10>
     43f: b1 14        	lda	($14),y                 ; 0x14 <__rc4>
     441: 84 18        	sty	$18                     ; 0x18 <__rc8>
     443: 85 17        	sta	$17                     ; 0x17 <__rc7>
     445: 85 14        	sta	$14                     ; 0x14 <__rc4>
     447: 8a           	txa
     448: a4 1f        	ldy	$1f                     ; 0x1f <__rc15>
     44a: 91 16        	sta	($16),y                 ; 0x16 <__rc6>
     44c: 18           	clc
     44d: a5 19        	lda	$19                     ; 0x19 <__rc9>
     44f: 69 04        	adc	#$4
     451: a8           	tay
     452: a5 14        	lda	$14                     ; 0x14 <__rc4>
     454: 69 00        	adc	#$0
     456: 84 14        	sty	$14                     ; 0x14 <__rc4>
     458: 85 15        	sta	$15                     ; 0x15 <__rc5>
     45a: a5 13        	lda	$13                     ; 0x13 <__rc3>
     45c: a4 18        	ldy	$18                     ; 0x18 <__rc8>
     45e: 91 14        	sta	($14),y                 ; 0x14 <__rc4>
     460: 60           	rts

00000461 <__zero_bss>:
     461: a2 21        	ldx	#$21
     463: a0 02        	ldy	#$2
     465: a9 68        	lda	#$68
     467: 85 12        	sta	$12                     ; 0x12 <__zp_bss_size>
     469: a9 5f        	lda	#$5f
     46b: 85 13        	sta	$13                     ; 0x13 <__rc3>
     46d: a9 00        	lda	#$0
     46f: 84 14        	sty	$14                     ; 0x14 <__rc4>
     471: 4c 0c 3a     	jmp	$3a0c <__memset>

00000474 <__zero_zp_bss>:
     474: a2 12        	ldx	#$12
     476: a0 00        	ldy	#$0
     478: a9 30        	lda	#$30
     47a: 85 12        	sta	$12                     ; 0x12 <__zp_bss_size>
     47c: a9 00        	lda	#$0
     47e: 85 13        	sta	$13                     ; 0x13 <__rc3>
     480: a9 00        	lda	#$0
     482: 84 14        	sty	$14                     ; 0x14 <__rc4>
     484: 4c 0c 3a     	jmp	$3a0c <__memset>

00000487 <main>:
     487: 18           	clc
     488: a5 10        	lda	$10                     ; 0x10 <__rc0>
     48a: 69 ef        	adc	#$ef
     48c: 85 10        	sta	$10                     ; 0x10 <__rc0>
     48e: a5 11        	lda	$11                     ; 0x11 <__rc1>
     490: 69 ff        	adc	#$ff
     492: 85 11        	sta	$11                     ; 0x11 <__rc1>
     494: a6 24        	ldx	$24                     ; 0x24 <__rc20>
     496: da           	phx
     497: a6 25        	ldx	$25                     ; 0x25 <__rc21>
     499: da           	phx
     49a: a6 26        	ldx	$26                     ; 0x26 <__rc22>
     49c: da           	phx
     49d: a6 27        	ldx	$27                     ; 0x27 <__rc23>
     49f: da           	phx
     4a0: a5 28        	lda	$28                     ; 0x28 <__rc24>
     4a2: a0 07        	ldy	#$7
     4a4: 91 10        	sta	($10),y                 ; 0x10 <__rc0>
     4a6: a5 29        	lda	$29                     ; 0x29 <__rc25>
     4a8: 88           	dey
     4a9: 91 10        	sta	($10),y                 ; 0x10 <__rc0>
     4ab: a5 2a        	lda	$2a                     ; 0x2a <__rc26>
     4ad: 88           	dey
     4ae: 91 10        	sta	($10),y                 ; 0x10 <__rc0>
     4b0: a5 2b        	lda	$2b                     ; 0x2b <__rc27>
     4b2: 88           	dey
     4b3: 91 10        	sta	($10),y                 ; 0x10 <__rc0>
     4b5: a5 2c        	lda	$2c                     ; 0x2c <__rc28>
     4b7: 88           	dey
     4b8: 91 10        	sta	($10),y                 ; 0x10 <__rc0>
     4ba: a5 2d        	lda	$2d                     ; 0x2d <__rc29>
     4bc: 88           	dey
     4bd: 91 10        	sta	($10),y                 ; 0x10 <__rc0>
     4bf: a5 2e        	lda	$2e                     ; 0x2e <__rc30>
     4c1: 88           	dey
     4c2: 91 10        	sta	($10),y                 ; 0x10 <__rc0>
     4c4: a5 2f        	lda	$2f                     ; 0x2f <__rc31>
     4c6: 88           	dey
     4c7: 91 10        	sta	($10),y                 ; 0x10 <__rc0>
     4c9: 64 1c        	stz	$1c                     ; 0x1c <__rc12>
     4cb: a2 00        	ldx	#$0
     4cd: 86 1a        	stx	$1a                     ; 0x1a <__rc10>
     4cf: a2 d0        	ldx	#$d0
     4d1: 86 1b        	stx	$1b                     ; 0x1b <__rc11>
     4d3: a2 00        	ldx	#$0
     4d5: 86 16        	stx	$16                     ; 0x16 <__rc6>
     4d7: a2 d8        	ldx	#$d8
     4d9: 86 17        	stx	$17                     ; 0x17 <__rc7>
     4db: a2 00        	ldx	#$0
     4dd: 86 18        	stx	$18                     ; 0x18 <__rc8>
     4df: a2 d4        	ldx	#$d4
     4e1: 86 19        	stx	$19                     ; 0x19 <__rc9>
     4e3: a2 00        	ldx	#$0
     4e5: 86 14        	stx	$14                     ; 0x14 <__rc4>
     4e7: a2 dc        	ldx	#$dc
     4e9: 86 15        	stx	$15                     ; 0x15 <__rc5>
     4eb: a2 00        	ldx	#$0
     4ed: 86 12        	stx	$12                     ; 0x12 <__zp_bss_size>
     4ef: a2 c0        	ldx	#$c0
     4f1: 86 13        	stx	$13                     ; 0x13 <__rc3>
     4f3: 64 01        	stz	$1                      ; 0x1 <__zp_data_size+0x1>
     4f5: a2 3f        	ldx	#$3f
     4f7: 8e 00 d0     	stx	$d000                   ; 0xd000 <__heap_start+0x6e76>
     4fa: a2 b3        	ldx	#$b3
     4fc: 86 00        	stx	$0                      ; 0x0 <__zp_data_size>
     4fe: 64 08        	stz	$8                      ; 0x8 <__zp_data_size+0x8>
     500: a2 01        	ldx	#$1
     502: 86 09        	stx	$9                      ; 0x9 <__zp_data_size+0x9>
     504: e8           	inx
     505: 86 0a        	stx	$a                      ; 0xa <__zp_data_size+0xa>
     507: e8           	inx
     508: 86 0b        	stx	$b                      ; 0xb <__zp_data_size+0xb>
     50a: e8           	inx
     50b: 86 0c        	stx	$c                      ; 0xc <__zp_data_size+0xc>
     50d: e8           	inx
     50e: 86 0d        	stx	$d                      ; 0xd <__zp_data_size+0xd>
     510: a2 36        	ldx	#$36
     512: a9 00        	lda	#$0
     514: 86 f0        	stx	$f0                     ; 0xf0 <__rc31+0xc1>
     516: 85 f1        	sta	$f1                     ; 0xf1 <__rc31+0xc2>
     518: a6 01        	ldx	$1                      ; 0x1 <__zp_data_size+0x1>
     51a: a0 01        	ldy	#$1
     51c: 84 01        	sty	$1                      ; 0x1 <__zp_data_size+0x1>
     51e: a5 1c        	lda	$1c                     ; 0x1c <__rc12>
     520: 92 1a        	sta	($1a)                   ; 0x1a <__rc10>
     522: 91 1a        	sta	($1a),y                 ; 0x1a <__rc10>
     524: c8           	iny
     525: 91 1a        	sta	($1a),y                 ; 0x1a <__rc10>
     527: c8           	iny
     528: a9 ff        	lda	#$ff
     52a: 91 1a        	sta	($1a),y                 ; 0x1a <__rc10>
     52c: 86 01        	stx	$1                      ; 0x1 <__zp_data_size+0x1>
     52e: a5 1a        	lda	$1a                     ; 0x1a <__rc10>
     530: 18           	clc
     531: 69 04        	adc	#$4
     533: 85 1a        	sta	$1a                     ; 0x1a <__rc10>
     535: a5 1b        	lda	$1b                     ; 0x1b <__rc11>
     537: 69 00        	adc	#$0
     539: e6 1c        	inc	$1c                     ; 0x1c <__rc12>
     53b: 85 1b        	sta	$1b                     ; 0x1b <__rc11>
     53d: d0 d9        	bne	$518 <main+0x91>
     53f: a9 00        	lda	#$0
     541: a6 01        	ldx	$1                      ; 0x1 <__zp_data_size+0x1>
     543: a0 01        	ldy	#$1
     545: 84 01        	sty	$1                      ; 0x1 <__zp_data_size+0x1>
     547: 92 18        	sta	($18)                   ; 0x18 <__rc8>
     549: 91 18        	sta	($18),y                 ; 0x18 <__rc8>
     54b: c8           	iny
     54c: 91 18        	sta	($18),y                 ; 0x18 <__rc8>
     54e: c8           	iny
     54f: 85 1a        	sta	$1a                     ; 0x1a <__rc10>
     551: a9 ff        	lda	#$ff
     553: 91 18        	sta	($18),y                 ; 0x18 <__rc8>
     555: 86 01        	stx	$1                      ; 0x1 <__zp_data_size+0x1>
     557: a5 18        	lda	$18                     ; 0x18 <__rc8>
     559: 18           	clc
     55a: 69 04        	adc	#$4
     55c: 85 18        	sta	$18                     ; 0x18 <__rc8>
     55e: a5 19        	lda	$19                     ; 0x19 <__rc9>
     560: 69 00        	adc	#$0
     562: e6 1a        	inc	$1a                     ; 0x1a <__rc10>
     564: 85 19        	sta	$19                     ; 0x19 <__rc9>
     566: a5 1a        	lda	$1a                     ; 0x1a <__rc10>
     568: d0 d7        	bne	$541 <main+0xba>
     56a: a9 00        	lda	#$0
     56c: a6 01        	ldx	$1                      ; 0x1 <__zp_data_size+0x1>
     56e: a0 01        	ldy	#$1
     570: 84 01        	sty	$1                      ; 0x1 <__zp_data_size+0x1>
     572: 92 16        	sta	($16)                   ; 0x16 <__rc6>
     574: 91 16        	sta	($16),y                 ; 0x16 <__rc6>
     576: c8           	iny
     577: 91 16        	sta	($16),y                 ; 0x16 <__rc6>
     579: c8           	iny
     57a: 85 18        	sta	$18                     ; 0x18 <__rc8>
     57c: a9 ff        	lda	#$ff
     57e: 91 16        	sta	($16),y                 ; 0x16 <__rc6>
     580: 86 01        	stx	$1                      ; 0x1 <__zp_data_size+0x1>
     582: a5 16        	lda	$16                     ; 0x16 <__rc6>
     584: 18           	clc
     585: 69 04        	adc	#$4
     587: 85 16        	sta	$16                     ; 0x16 <__rc6>
     589: a5 17        	lda	$17                     ; 0x17 <__rc7>
     58b: 69 00        	adc	#$0
     58d: e6 18        	inc	$18                     ; 0x18 <__rc8>
     58f: 85 17        	sta	$17                     ; 0x17 <__rc7>
     591: a5 18        	lda	$18                     ; 0x18 <__rc8>
     593: d0 d7        	bne	$56c <main+0xe5>
     595: a9 00        	lda	#$0
     597: a6 01        	ldx	$1                      ; 0x1 <__zp_data_size+0x1>
     599: a0 01        	ldy	#$1
     59b: 84 01        	sty	$1                      ; 0x1 <__zp_data_size+0x1>
     59d: 92 14        	sta	($14)                   ; 0x14 <__rc4>
     59f: 91 14        	sta	($14),y                 ; 0x14 <__rc4>
     5a1: c8           	iny
     5a2: 91 14        	sta	($14),y                 ; 0x14 <__rc4>
     5a4: c8           	iny
     5a5: 85 16        	sta	$16                     ; 0x16 <__rc6>
     5a7: a9 ff        	lda	#$ff
     5a9: 91 14        	sta	($14),y                 ; 0x14 <__rc4>
     5ab: 86 01        	stx	$1                      ; 0x1 <__zp_data_size+0x1>
     5ad: a5 14        	lda	$14                     ; 0x14 <__rc4>
     5af: 18           	clc
     5b0: 69 04        	adc	#$4
     5b2: 85 14        	sta	$14                     ; 0x14 <__rc4>
     5b4: a5 15        	lda	$15                     ; 0x15 <__rc5>
     5b6: 69 00        	adc	#$0
     5b8: e6 16        	inc	$16                     ; 0x16 <__rc6>
     5ba: 85 15        	sta	$15                     ; 0x15 <__rc5>
     5bc: a5 16        	lda	$16                     ; 0x16 <__rc6>
     5be: d0 d7        	bne	$597 <main+0x110>
     5c0: ad 02 d0     	lda	$d002                   ; 0xd002 <__heap_start+0x6e78>
     5c3: 29 f0        	and	#$f0
     5c5: 8d 02 d0     	sta	$d002                   ; 0xd002 <__heap_start+0x6e78>
     5c8: ad 02 d0     	lda	$d002                   ; 0xd002 <__heap_start+0x6e78>
     5cb: 29 0f        	and	#$f
     5cd: 09 10        	ora	#$10
     5cf: 8d 02 d0     	sta	$d002                   ; 0xd002 <__heap_start+0x6e78>
     5d2: a2 02        	ldx	#$2
     5d4: 8e 03 d0     	stx	$d003                   ; 0xd003 <__heap_start+0x6e79>
     5d7: 64 30        	stz	$30                     ; 0x30 <_ccolor>
     5d9: ad 01 d0     	lda	$d001                   ; 0xd001 <__heap_start+0x6e77>
     5dc: 29 f9        	and	#$f9
     5de: 09 04        	ora	#$4
     5e0: 8d 01 d0     	sta	$d001                   ; 0xd001 <__heap_start+0x6e77>
     5e3: 64 14        	stz	$14                     ; 0x14 <__rc4>
     5e5: 9c 10 d0     	stz	$d010                   ; 0xd010 <__heap_start+0x6e86>
     5e8: a2 00        	ldx	#$0
     5ea: 64 15        	stz	$15                     ; 0x15 <__rc5>
     5ec: 86 18        	stx	$18                     ; 0x18 <__rc8>
     5ee: a4 18        	ldy	$18                     ; 0x18 <__rc8>
     5f0: be 98 3a     	ldx	$3a98,y                 ; 0x3a98 <textColors>
     5f3: 86 19        	stx	$19                     ; 0x19 <__rc9>
     5f5: be 99 3a     	ldx	$3a99,y                 ; 0x3a99 <textColors+0x1>
     5f8: 86 1a        	stx	$1a                     ; 0x1a <__rc10>
     5fa: be 9a 3a     	ldx	$3a9a,y                 ; 0x3a9a <textColors+0x2>
     5fd: 86 1b        	stx	$1b                     ; 0x1b <__rc11>
     5ff: a6 15        	ldx	$15                     ; 0x15 <__rc5>
     601: 8e 00 de     	stx	$de00                   ; 0xde00 <__heap_start+0x7c76>
     604: 86 17        	stx	$17                     ; 0x17 <__rc7>
     606: 9c 01 de     	stz	$de01                   ; 0xde01 <__heap_start+0x7c77>
     609: a2 04        	ldx	#$4
     60b: 8e 02 de     	stx	$de02                   ; 0xde02 <__heap_start+0x7c78>
     60e: 86 1d        	stx	$1d                     ; 0x1d <__rc13>
     610: 9c 03 de     	stz	$de03                   ; 0xde03 <__heap_start+0x7c79>
     613: ad 10 de     	lda	$de10                   ; 0xde10 <__heap_start+0x7c86>
     616: ac 11 de     	ldy	$de11                   ; 0xde11 <__heap_start+0x7c87>
     619: 84 15        	sty	$15                     ; 0x15 <__rc5>
     61b: ac 12 de     	ldy	$de12                   ; 0xde12 <__heap_start+0x7c88>
     61e: ac 13 de     	ldy	$de13                   ; 0xde13 <__heap_start+0x7c89>
     621: a2 00        	ldx	#$0
     623: 18           	clc
     624: 65 14        	adc	$14                     ; 0x14 <__rc4>
     626: a8           	tay
     627: 86 1f        	stx	$1f                     ; 0x1f <__rc15>
     629: a6 17        	ldx	$17                     ; 0x17 <__rc7>
     62b: a9 d8        	lda	#$d8
     62d: 65 15        	adc	$15                     ; 0x15 <__rc5>
     62f: 84 16        	sty	$16                     ; 0x16 <__rc6>
     631: 85 17        	sta	$17                     ; 0x17 <__rc7>
     633: a5 1b        	lda	$1b                     ; 0x1b <__rc11>
     635: 92 16        	sta	($16)                   ; 0x16 <__rc6>
     637: a0 01        	ldy	#$1
     639: a5 1a        	lda	$1a                     ; 0x1a <__rc10>
     63b: 91 16        	sta	($16),y                 ; 0x16 <__rc6>
     63d: 84 1c        	sty	$1c                     ; 0x1c <__rc12>
     63f: c8           	iny
     640: a5 19        	lda	$19                     ; 0x19 <__rc9>
     642: 91 16        	sta	($16),y                 ; 0x16 <__rc6>
     644: 84 1e        	sty	$1e                     ; 0x1e <__rc14>
     646: c8           	iny
     647: a9 ff        	lda	#$ff
     649: 91 16        	sta	($16),y                 ; 0x16 <__rc6>
     64b: 85 23        	sta	$23                     ; 0x23 <__rc19>
     64d: 84 22        	sty	$22                     ; 0x22 <__rc18>
     64f: 8e 00 de     	stx	$de00                   ; 0xde00 <__heap_start+0x7c76>
     652: 9c 01 de     	stz	$de01                   ; 0xde01 <__heap_start+0x7c77>
     655: a4 1d        	ldy	$1d                     ; 0x1d <__rc13>
     657: 8c 02 de     	sty	$de02                   ; 0xde02 <__heap_start+0x7c78>
     65a: 9c 03 de     	stz	$de03                   ; 0xde03 <__heap_start+0x7c79>
     65d: ad 10 de     	lda	$de10                   ; 0xde10 <__heap_start+0x7c86>
     660: 85 15        	sta	$15                     ; 0x15 <__rc5>
     662: ad 11 de     	lda	$de11                   ; 0xde11 <__heap_start+0x7c87>
     665: 85 16        	sta	$16                     ; 0x16 <__rc6>
     667: a9 40        	lda	#$40
     669: a4 1f        	ldy	$1f                     ; 0x1f <__rc15>
     66b: c0 01        	cpy	#$1
     66d: 65 15        	adc	$15                     ; 0x15 <__rc5>
     66f: a8           	tay
     670: a9 d8        	lda	#$d8
     672: 65 16        	adc	$16                     ; 0x16 <__rc6>
     674: 85 17        	sta	$17                     ; 0x17 <__rc7>
     676: 84 16        	sty	$16                     ; 0x16 <__rc6>
     678: ad 12 de     	lda	$de12                   ; 0xde12 <__heap_start+0x7c88>
     67b: ad 13 de     	lda	$de13                   ; 0xde13 <__heap_start+0x7c89>
     67e: a5 1b        	lda	$1b                     ; 0x1b <__rc11>
     680: 92 16        	sta	($16)                   ; 0x16 <__rc6>
     682: a5 1a        	lda	$1a                     ; 0x1a <__rc10>
     684: a4 1c        	ldy	$1c                     ; 0x1c <__rc12>
     686: 91 16        	sta	($16),y                 ; 0x16 <__rc6>
     688: a5 19        	lda	$19                     ; 0x19 <__rc9>
     68a: a4 1e        	ldy	$1e                     ; 0x1e <__rc14>
     68c: 91 16        	sta	($16),y                 ; 0x16 <__rc6>
     68e: a4 22        	ldy	$22                     ; 0x22 <__rc18>
     690: a5 23        	lda	$23                     ; 0x23 <__rc19>
     692: 91 16        	sta	($16),y                 ; 0x16 <__rc6>
     694: e8           	inx
     695: 86 15        	stx	$15                     ; 0x15 <__rc5>
     697: 18           	clc
     698: a5 18        	lda	$18                     ; 0x18 <__rc8>
     69a: 69 03        	adc	#$3
     69c: aa           	tax
     69d: c9 30        	cmp	#$30
     69f: f0 03        	beq	$6a4 <main+0x21d>
     6a1: 4c ec 05     	jmp	$5ec <main+0x165>
     6a4: a6 01        	ldx	$1                      ; 0x1 <__zp_data_size+0x1>
     6a6: 86 18        	stx	$18                     ; 0x18 <__rc8>
     6a8: a2 50        	ldx	#$50
     6aa: 8e 00 de     	stx	$de00                   ; 0xde00 <__heap_start+0x7c76>
     6ad: 9c 01 de     	stz	$de01                   ; 0xde01 <__heap_start+0x7c77>
     6b0: a2 1e        	ldx	#$1e
     6b2: 8e 02 de     	stx	$de02                   ; 0xde02 <__heap_start+0x7c78>
     6b5: 9c 03 de     	stz	$de03                   ; 0xde03 <__heap_start+0x7c79>
     6b8: ae 10 de     	ldx	$de10                   ; 0xde10 <__heap_start+0x7c86>
     6bb: ac 11 de     	ldy	$de11                   ; 0xde11 <__heap_start+0x7c87>
     6be: ad 12 de     	lda	$de12                   ; 0xde12 <__heap_start+0x7c88>
     6c1: ad 13 de     	lda	$de13                   ; 0xde13 <__heap_start+0x7c89>
     6c4: a9 02        	lda	#$2
     6c6: 85 01        	sta	$1                      ; 0x1 <__zp_data_size+0x1>
     6c8: e0 01        	cpx	#$1
     6ca: 98           	tya
     6cb: e9 00        	sbc	#$0
     6cd: 50 02        	bvc	$6d1 <main+0x24a>
     6cf: 49 80        	eor	#$80
     6d1: c9 00        	cmp	#$0
     6d3: 10 03        	bpl	$6d8 <main+0x251>
     6d5: 4c 39 07     	jmp	$739 <main+0x2b2>
     6d8: a9 20        	lda	#$20
     6da: 86 19        	stx	$19                     ; 0x19 <__rc9>
     6dc: 86 14        	stx	$14                     ; 0x14 <__rc4>
     6de: 84 15        	sty	$15                     ; 0x15 <__rc5>
     6e0: a2 00        	ldx	#$0
     6e2: 86 16        	stx	$16                     ; 0x16 <__rc6>
     6e4: a2 c0        	ldx	#$c0
     6e6: 86 17        	stx	$17                     ; 0x17 <__rc7>
     6e8: 80 04        	bra	$6ee <main+0x267>
     6ea: a6 15        	ldx	$15                     ; 0x15 <__rc5>
     6ec: f0 14        	beq	$702 <main+0x27b>
     6ee: 92 16        	sta	($16)                   ; 0x16 <__rc6>
     6f0: e6 16        	inc	$16                     ; 0x16 <__rc6>
     6f2: d0 02        	bne	$6f6 <main+0x26f>
     6f4: e6 17        	inc	$17                     ; 0x17 <__rc7>
     6f6: a2 ff        	ldx	#$ff
     6f8: c6 14        	dec	$14                     ; 0x14 <__rc4>
     6fa: e4 14        	cpx	$14                     ; 0x14 <__rc4>
     6fc: d0 ec        	bne	$6ea <main+0x263>
     6fe: c6 15        	dec	$15                     ; 0x15 <__rc5>
     700: 80 e8        	bra	$6ea <main+0x263>
     702: a6 14        	ldx	$14                     ; 0x14 <__rc4>
     704: d0 e8        	bne	$6ee <main+0x267>
     706: a2 03        	ldx	#$3
     708: 86 01        	stx	$1                      ; 0x1 <__zp_data_size+0x1>
     70a: a5 30        	lda	$30                     ; 0x30 <_ccolor>
     70c: 29 01        	and	#$1
     70e: aa           	tax
     70f: a9 40        	lda	#$40
     711: e0 00        	cpx	#$0
     713: d0 02        	bne	$717 <main+0x290>
     715: a9 f0        	lda	#$f0
     717: a6 19        	ldx	$19                     ; 0x19 <__rc9>
     719: 80 06        	bra	$721 <main+0x29a>
     71b: a5 14        	lda	$14                     ; 0x14 <__rc4>
     71d: c0 00        	cpy	#$0
     71f: f0 12        	beq	$733 <main+0x2ac>
     721: 92 12        	sta	($12)                   ; 0x12 <__zp_bss_size>
     723: e6 12        	inc	$12                     ; 0x12 <__zp_bss_size>
     725: d0 02        	bne	$729 <main+0x2a2>
     727: e6 13        	inc	$13                     ; 0x13 <__rc3>
     729: 85 14        	sta	$14                     ; 0x14 <__rc4>
     72b: ca           	dex
     72c: e0 ff        	cpx	#$ff
     72e: d0 eb        	bne	$71b <main+0x294>
     730: 88           	dey
     731: 80 e8        	bra	$71b <main+0x294>
     733: e0 00        	cpx	#$0
     735: d0 ea        	bne	$721 <main+0x29a>
     737: 80 04        	bra	$73d <main+0x2b6>
     739: a2 03        	ldx	#$3
     73b: 86 01        	stx	$1                      ; 0x1 <__zp_data_size+0x1>
     73d: a6 18        	ldx	$18                     ; 0x18 <__rc8>
     73f: 86 01        	stx	$1                      ; 0x1 <__zp_data_size+0x1>
     741: 64 31        	stz	$31                     ; 0x31 <_col>
     743: 9c 14 d0     	stz	$d014                   ; 0xd014 <__heap_start+0x6e8a>
     746: 9c 15 d0     	stz	$d015                   ; 0xd015 <__heap_start+0x6e8b>
     749: 64 32        	stz	$32                     ; 0x32 <_row>
     74b: 9c 16 d0     	stz	$d016                   ; 0xd016 <__heap_start+0x6e8c>
     74e: 9c 17 d0     	stz	$d017                   ; 0xd017 <__heap_start+0x6e8d>
     751: a2 40        	ldx	#$40
     753: 8e 00 de     	stx	$de00                   ; 0xde00 <__heap_start+0x7c76>
     756: a2 01        	ldx	#$1
     758: 8e 01 de     	stx	$de01                   ; 0xde01 <__heap_start+0x7c77>
     75b: a2 f0        	ldx	#$f0
     75d: 8e 02 de     	stx	$de02                   ; 0xde02 <__heap_start+0x7c78>
     760: 9c 03 de     	stz	$de03                   ; 0xde03 <__heap_start+0x7c79>
     763: ae 10 de     	ldx	$de10                   ; 0xde10 <__heap_start+0x7c86>
     766: 86 17        	stx	$17                     ; 0x17 <__rc7>
     768: ae 11 de     	ldx	$de11                   ; 0xde11 <__heap_start+0x7c87>
     76b: 86 12        	stx	$12                     ; 0x12 <__zp_bss_size>
     76d: ae 12 de     	ldx	$de12                   ; 0xde12 <__heap_start+0x7c88>
     770: 86 13        	stx	$13                     ; 0x13 <__rc3>
     772: ae 13 de     	ldx	$de13                   ; 0xde13 <__heap_start+0x7c89>
     775: 86 14        	stx	$14                     ; 0x14 <__rc4>
     777: a4 12        	ldy	$12                     ; 0x12 <__zp_bss_size>
     779: 84 15        	sty	$15                     ; 0x15 <__rc5>
     77b: 06 15        	asl	$15                     ; 0x15 <__rc5>
     77d: a5 13        	lda	$13                     ; 0x13 <__rc3>
     77f: 2a           	rol
     780: 86 16        	stx	$16                     ; 0x16 <__rc6>
     782: 26 16        	rol	$16                     ; 0x16 <__rc6>
     784: 06 15        	asl	$15                     ; 0x15 <__rc5>
     786: 2a           	rol
     787: 26 16        	rol	$16                     ; 0x16 <__rc6>
     789: 06 15        	asl	$15                     ; 0x15 <__rc5>
     78b: 2a           	rol
     78c: 26 16        	rol	$16                     ; 0x16 <__rc6>
     78e: 85 15        	sta	$15                     ; 0x15 <__rc5>
     790: 8d 00 de     	sta	$de00                   ; 0xde00 <__heap_start+0x7c76>
     793: a5 16        	lda	$16                     ; 0x16 <__rc6>
     795: 8d 01 de     	sta	$de01                   ; 0xde01 <__heap_start+0x7c77>
     798: 9c 02 de     	stz	$de02                   ; 0xde02 <__heap_start+0x7c78>
     79b: a2 20        	ldx	#$20
     79d: 8e 03 de     	stx	$de03                   ; 0xde03 <__heap_start+0x7c79>
     7a0: ae 10 de     	ldx	$de10                   ; 0xde10 <__heap_start+0x7c86>
     7a3: 86 16        	stx	$16                     ; 0x16 <__rc6>
     7a5: ae 11 de     	ldx	$de11                   ; 0xde11 <__heap_start+0x7c87>
     7a8: 86 18        	stx	$18                     ; 0x18 <__rc8>
     7aa: ac 12 de     	ldy	$de12                   ; 0xde12 <__heap_start+0x7c88>
     7ad: ae 13 de     	ldx	$de13                   ; 0xde13 <__heap_start+0x7c89>
     7b0: e4 14        	cpx	$14                     ; 0x14 <__rc4>
     7b2: d0 14        	bne	$7c8 <main+0x341>
     7b4: c4 13        	cpy	$13                     ; 0x13 <__rc3>
     7b6: d0 10        	bne	$7c8 <main+0x341>
     7b8: a6 18        	ldx	$18                     ; 0x18 <__rc8>
     7ba: e4 12        	cpx	$12                     ; 0x12 <__zp_bss_size>
     7bc: d0 0a        	bne	$7c8 <main+0x341>
     7be: a6 16        	ldx	$16                     ; 0x16 <__rc6>
     7c0: e4 17        	cpx	$17                     ; 0x17 <__rc7>
     7c2: d0 04        	bne	$7c8 <main+0x341>
     7c4: a6 15        	ldx	$15                     ; 0x15 <__rc5>
     7c6: 80 06        	bra	$7ce <main+0x347>
     7c8: a6 15        	ldx	$15                     ; 0x15 <__rc5>
     7ca: e8           	inx
     7cb: d0 01        	bne	$7ce <main+0x347>
     7cd: 1a           	inc
     7ce: 8e 00 de     	stx	$de00                   ; 0xde00 <__heap_start+0x7c76>
     7d1: 8d 01 de     	sta	$de01                   ; 0xde01 <__heap_start+0x7c77>
     7d4: 9c 02 de     	stz	$de02                   ; 0xde02 <__heap_start+0x7c78>
     7d7: a2 20        	ldx	#$20
     7d9: 8e 03 de     	stx	$de03                   ; 0xde03 <__heap_start+0x7c79>
     7dc: ae 10 de     	ldx	$de10                   ; 0xde10 <__heap_start+0x7c86>
     7df: 86 12        	stx	$12                     ; 0x12 <__zp_bss_size>
     7e1: ae 11 de     	ldx	$de11                   ; 0xde11 <__heap_start+0x7c87>
     7e4: 86 13        	stx	$13                     ; 0x13 <__rc3>
     7e6: ae 12 de     	ldx	$de12                   ; 0xde12 <__heap_start+0x7c88>
     7e9: 86 14        	stx	$14                     ; 0x14 <__rc4>
     7eb: 38           	sec
     7ec: a9 00        	lda	#$0
     7ee: e5 12        	sbc	$12                     ; 0x12 <__zp_bss_size>
     7f0: a8           	tay
     7f1: a9 00        	lda	#$0
     7f3: e5 13        	sbc	$13                     ; 0x13 <__rc3>
     7f5: 85 15        	sta	$15                     ; 0x15 <__rc5>
     7f7: a9 08        	lda	#$8
     7f9: e5 14        	sbc	$14                     ; 0x14 <__rc4>
     7fb: aa           	tax
     7fc: 98           	tya
     7fd: 84 17        	sty	$17                     ; 0x17 <__rc7>
     7ff: 38           	sec
     800: e5 12        	sbc	$12                     ; 0x12 <__zp_bss_size>
     802: 85 16        	sta	$16                     ; 0x16 <__rc6>
     804: a5 15        	lda	$15                     ; 0x15 <__rc5>
     806: e5 13        	sbc	$13                     ; 0x13 <__rc3>
     808: 85 18        	sta	$18                     ; 0x18 <__rc8>
     80a: 8a           	txa
     80b: 86 19        	stx	$19                     ; 0x19 <__rc9>
     80d: e5 14        	sbc	$14                     ; 0x14 <__rc4>
     80f: a8           	tay
     810: 38           	sec
     811: a5 16        	lda	$16                     ; 0x16 <__rc6>
     813: e5 12        	sbc	$12                     ; 0x12 <__zp_bss_size>
     815: 85 12        	sta	$12                     ; 0x12 <__zp_bss_size>
     817: a5 18        	lda	$18                     ; 0x18 <__rc8>
     819: e5 13        	sbc	$13                     ; 0x13 <__rc3>
     81b: 85 13        	sta	$13                     ; 0x13 <__rc3>
     81d: 98           	tya
     81e: e5 14        	sbc	$14                     ; 0x14 <__rc4>
     820: ae 13 de     	ldx	$de13                   ; 0xde13 <__heap_start+0x7c89>
     823: a6 17        	ldx	$17                     ; 0x17 <__rc7>
     825: 8e 01 d1     	stx	$d101                   ; 0xd101 <__heap_start+0x6f77>
     828: a6 15        	ldx	$15                     ; 0x15 <__rc5>
     82a: 8e 02 d1     	stx	$d102                   ; 0xd102 <__heap_start+0x6f78>
     82d: a6 19        	ldx	$19                     ; 0x19 <__rc9>
     82f: 8e 03 d1     	stx	$d103                   ; 0xd103 <__heap_start+0x6f79>
     832: a6 16        	ldx	$16                     ; 0x16 <__rc6>
     834: 8e 09 d1     	stx	$d109                   ; 0xd109 <__heap_start+0x6f7f>
     837: a6 18        	ldx	$18                     ; 0x18 <__rc8>
     839: 8e 0a d1     	stx	$d10a                   ; 0xd10a <__heap_start+0x6f80>
     83c: 8c 0b d1     	sty	$d10b                   ; 0xd10b <__heap_start+0x6f81>
     83f: a6 12        	ldx	$12                     ; 0x12 <__zp_bss_size>
     841: 8e 11 d1     	stx	$d111                   ; 0xd111 <__heap_start+0x6f87>
     844: a6 13        	ldx	$13                     ; 0x13 <__rc3>
     846: 8e 12 d1     	stx	$d112                   ; 0xd112 <__heap_start+0x6f88>
     849: 8d 13 d1     	sta	$d113                   ; 0xd113 <__heap_start+0x6f89>
     84c: 9c 00 d1     	stz	$d100                   ; 0xd100 <__heap_start+0x6f76>
     84f: 9c 08 d1     	stz	$d108                   ; 0xd108 <__heap_start+0x6f7e>
     852: 9c 10 d1     	stz	$d110                   ; 0xd110 <__heap_start+0x6f86>
     855: a2 10        	ldx	#$10
     857: 8e 00 d2     	stx	$d200                   ; 0xd200 <__heap_start+0x7076>
     85a: 8e 0c d2     	stx	$d20c                   ; 0xd20c <__heap_start+0x7082>
     85d: 8e 18 d2     	stx	$d218                   ; 0xd218 <__heap_start+0x708e>
     860: a0 d9        	ldy	#$d9
     862: 64 12        	stz	$12                     ; 0x12 <__zp_bss_size>
     864: a2 00        	ldx	#$0
     866: 84 13        	sty	$13                     ; 0x13 <__rc3>
     868: bd 68 5f     	lda	$5f68,x                 ; 0x5f68 <_spriteCtl>
     86b: 92 12        	sta	($12)                   ; 0x12 <__zp_bss_size>
     86d: a5 12        	lda	$12                     ; 0x12 <__zp_bss_size>
     86f: e8           	inx
     870: 18           	clc
     871: 69 08        	adc	#$8
     873: 85 12        	sta	$12                     ; 0x12 <__zp_bss_size>
     875: 98           	tya
     876: 69 00        	adc	#$0
     878: a8           	tay
     879: e0 40        	cpx	#$40
     87b: d0 e9        	bne	$866 <main+0x3df>
     87d: 18           	clc
     87e: a5 10        	lda	$10                     ; 0x10 <__rc0>
     880: 69 09        	adc	#$9
     882: 85 24        	sta	$24                     ; 0x24 <__rc20>
     884: a5 11        	lda	$11                     ; 0x11 <__rc1>
     886: 69 00        	adc	#$0
     888: 85 25        	sta	$25                     ; 0x25 <__rc21>
     88a: a6 24        	ldx	$24                     ; 0x24 <__rc20>
     88c: 86 fb        	stx	$fb                     ; 0xfb <__rc31+0xcc>
     88e: 85 fc        	sta	$fc                     ; 0xfc <__rc31+0xcd>
     890: a2 08        	ldx	#$8
     892: 86 fd        	stx	$fd                     ; 0xfd <__rc31+0xce>
     894: 18           	clc
     895: a5 10        	lda	$10                     ; 0x10 <__rc0>
     897: 69 08        	adc	#$8
     899: 85 12        	sta	$12                     ; 0x12 <__zp_bss_size>
     89b: a5 11        	lda	$11                     ; 0x11 <__rc1>
     89d: 69 00        	adc	#$0
     89f: 85 13        	sta	$13                     ; 0x13 <__rc3>
     8a1: a2 88        	ldx	#$88
     8a3: 86 14        	stx	$14                     ; 0x14 <__rc4>
     8a5: a2 61        	ldx	#$61
     8a7: 86 15        	stx	$15                     ; 0x15 <__rc5>
     8a9: a0 06        	ldy	#$6
     8ab: 20 dc ff     	jsr	$ffdc <__heap_start+0x9e52>
     8ae: 92 12        	sta	($12)                   ; 0x12 <__zp_bss_size>
     8b0: a9 00        	lda	#$0
     8b2: 6a           	ror
     8b3: 85 14        	sta	$14                     ; 0x14 <__rc4>
     8b5: b1 24        	lda	($24),y                 ; 0x24 <__rc20>
     8b7: 85 12        	sta	$12                     ; 0x12 <__zp_bss_size>
     8b9: c8           	iny
     8ba: b1 24        	lda	($24),y                 ; 0x24 <__rc20>
     8bc: a6 12        	ldx	$12                     ; 0x12 <__zp_bss_size>
     8be: 8e 00 de     	stx	$de00                   ; 0xde00 <__heap_start+0x7c76>
     8c1: 9c 01 de     	stz	$de01                   ; 0xde01 <__heap_start+0x7c77>
     8c4: 8d 02 de     	sta	$de02                   ; 0xde02 <__heap_start+0x7c78>
     8c7: 9c 03 de     	stz	$de03                   ; 0xde03 <__heap_start+0x7c79>
     8ca: ae 10 de     	ldx	$de10                   ; 0xde10 <__heap_start+0x7c86>
     8cd: ac 11 de     	ldy	$de11                   ; 0xde11 <__heap_start+0x7c87>
     8d0: ad 12 de     	lda	$de12                   ; 0xde12 <__heap_start+0x7c88>
     8d3: ad 13 de     	lda	$de13                   ; 0xde13 <__heap_start+0x7c89>
     8d6: 8e a4 d6     	stx	$d6a4                   ; 0xd6a4 <__heap_start+0x751a>
     8d9: 8c a5 d6     	sty	$d6a5                   ; 0xd6a5 <__heap_start+0x751b>
     8dc: a2 03        	ldx	#$3
     8de: 8e a6 d6     	stx	$d6a6                   ; 0xd6a6 <__heap_start+0x751c>
     8e1: 64 01        	stz	$1                      ; 0x1 <__zp_data_size+0x1>
     8e3: a2 2f        	ldx	#$2f
     8e5: 8e 00 d0     	stx	$d000                   ; 0xd000 <__heap_start+0x6e76>
     8e8: a2 04        	ldx	#$4
     8ea: 8e 01 d0     	stx	$d001                   ; 0xd001 <__heap_start+0x6e77>
     8ed: a0 01        	ldy	#$1
     8ef: 8c 02 d0     	sty	$d002                   ; 0xd002 <__heap_start+0x6e78>
     8f2: a2 02        	ldx	#$2
     8f4: 8e 03 d0     	stx	$d003                   ; 0xd003 <__heap_start+0x6e79>
     8f7: a2 bb        	ldx	#$bb
     8f9: 8e 0d d0     	stx	$d00d                   ; 0xd00d <__heap_start+0x6e83>
     8fc: 8e 0e d0     	stx	$d00e                   ; 0xd00e <__heap_start+0x6e84>
     8ff: 8e 0f d0     	stx	$d00f                   ; 0xd00f <__heap_start+0x6e85>
     902: 84 01        	sty	$1                      ; 0x1 <__zp_data_size+0x1>
     904: a2 fc        	ldx	#$fc
     906: a9 ff        	lda	#$ff
     908: 85 12        	sta	$12                     ; 0x12 <__zp_bss_size>
     90a: 85 13        	sta	$13                     ; 0x13 <__rc3>
     90c: 80 25        	bra	$933 <main+0x4ac>
     90e: 84 18        	sty	$18                     ; 0x18 <__rc8>
     910: 8a           	txa
     911: 69 e3        	adc	#$e3
     913: a4 16        	ldy	$16                     ; 0x16 <__rc6>
     915: 84 14        	sty	$14                     ; 0x14 <__rc4>
     917: 85 15        	sta	$15                     ; 0x15 <__rc5>
     919: b2 14        	lda	($14)                   ; 0x14 <__rc4>
     91b: 85 19        	sta	$19                     ; 0x19 <__rc9>
     91d: a5 17        	lda	$17                     ; 0x17 <__rc7>
     91f: 85 0f        	sta	$f                      ; 0xf <__zp_data_size+0xf>
     921: 8a           	txa
     922: a4 18        	ldy	$18                     ; 0x18 <__rc8>
     924: c0 01        	cpy	#$1
     926: 7a           	ply
     927: 69 d3        	adc	#$d3
     929: 58           	cli
     92a: 85 15        	sta	$15                     ; 0x15 <__rc5>
     92c: a5 19        	lda	$19                     ; 0x19 <__rc9>
     92e: 92 14        	sta	($14)                   ; 0x14 <__rc4>
     930: c8           	iny
     931: f0 18        	beq	$94b <main+0x4c4>
     933: a5 0f        	lda	$f                      ; 0xf <__zp_data_size+0xf>
     935: 85 17        	sta	$17                     ; 0x17 <__rc7>
     937: 78           	sei
     938: a9 08        	lda	#$8
     93a: 85 0f        	sta	$f                      ; 0xf <__zp_data_size+0xf>
     93c: 18           	clc
     93d: 98           	tya
     93e: 69 ff        	adc	#$ff
     940: 85 16        	sta	$16                     ; 0x16 <__rc6>
     942: 5a           	phy
     943: a0 01        	ldy	#$1
     945: b0 c7        	bcs	$90e <main+0x487>
     947: a0 00        	ldy	#$0
     949: 80 c3        	bra	$90e <main+0x487>
     94b: e8           	inx
     94c: d0 e5        	bne	$933 <main+0x4ac>
     94e: e6 12        	inc	$12                     ; 0x12 <__zp_bss_size>
     950: d0 e1        	bne	$933 <main+0x4ac>
     952: e6 13        	inc	$13                     ; 0x13 <__rc3>
     954: d0 dd        	bne	$933 <main+0x4ac>
     956: 64 01        	stz	$1                      ; 0x1 <__zp_data_size+0x1>
     958: 9c 00 d1     	stz	$d100                   ; 0xd100 <__heap_start+0x6f76>
     95b: 9c 08 d1     	stz	$d108                   ; 0xd108 <__heap_start+0x6f7e>
     95e: 9c 10 d1     	stz	$d110                   ; 0xd110 <__heap_start+0x6f86>
     961: a9 40        	lda	#$40
     963: 8d 68 5f     	sta	$5f68                   ; 0x5f68 <_spriteCtl>
     966: 8d 00 d9     	sta	$d900                   ; 0xd900 <__heap_start+0x7776>
     969: 9c 01 d9     	stz	$d901                   ; 0xd901 <__heap_start+0x7777>
     96c: a2 05        	ldx	#$5
     96e: 8e 02 d9     	stx	$d902                   ; 0xd902 <__heap_start+0x7778>
     971: a0 01        	ldy	#$1
     973: 8c 03 d9     	sty	$d903                   ; 0xd903 <__heap_start+0x7779>
     976: 8d 72 5f     	sta	$5f72                   ; 0x5f72 <_spriteCtl+0xa>
     979: 8d 50 d9     	sta	$d950                   ; 0xd950 <__heap_start+0x77c6>
     97c: aa           	tax
     97d: 86 2b        	stx	$2b                     ; 0x2b <__rc27>
     97f: 9c 51 d9     	stz	$d951                   ; 0xd951 <__heap_start+0x77c7>
     982: a2 0e        	ldx	#$e
     984: 8e 52 d9     	stx	$d952                   ; 0xd952 <__heap_start+0x77c8>
     987: 8c 53 d9     	sty	$d953                   ; 0xd953 <__heap_start+0x77c9>
     98a: 8c ac 5f     	sty	$5fac                   ; 0x5fac <spriteStatuses+0x4>
     98d: a2 01        	ldx	#$1
     98f: 86 26        	stx	$26                     ; 0x26 <__rc22>
     991: a2 64        	ldx	#$64
     993: 8e 04 d9     	stx	$d904                   ; 0xd904 <__heap_start+0x777a>
     996: a0 64        	ldy	#$64
     998: 9c 05 d9     	stz	$d905                   ; 0xd905 <__heap_start+0x777b>
     99b: a2 32        	ldx	#$32
     99d: 8e 06 d9     	stx	$d906                   ; 0xd906 <__heap_start+0x777c>
     9a0: 86 12        	stx	$12                     ; 0x12 <__zp_bss_size>
     9a2: 9c 07 d9     	stz	$d907                   ; 0xd907 <__heap_start+0x777d>
     9a5: a9 01        	lda	#$1
     9a7: 0d 68 5f     	ora	$5f68                   ; 0x5f68 <_spriteCtl>
     9aa: 8d 00 d9     	sta	$d900                   ; 0xd900 <__heap_start+0x7776>
     9ad: a9 01        	lda	#$1
     9af: 0d 72 5f     	ora	$5f72                   ; 0x5f72 <_spriteCtl+0xa>
     9b2: 8d 50 d9     	sta	$d950                   ; 0xd950 <__heap_start+0x77c6>
     9b5: a2 54        	ldx	#$54
     9b7: 8e 04 d9     	stx	$d904                   ; 0xd904 <__heap_start+0x777a>
     9ba: 9c 05 d9     	stz	$d905                   ; 0xd905 <__heap_start+0x777b>
     9bd: a5 12        	lda	$12                     ; 0x12 <__zp_bss_size>
     9bf: 8d 06 d9     	sta	$d906                   ; 0xd906 <__heap_start+0x777c>
     9c2: 9c 07 d9     	stz	$d907                   ; 0xd907 <__heap_start+0x777d>
     9c5: 9c ae 5f     	stz	$5fae                   ; 0x5fae <spriteStatuses+0x6>
     9c8: a2 04        	ldx	#$4
     9ca: 8e af 5f     	stx	$5faf                   ; 0x5faf <spriteStatuses+0x7>
     9cd: a6 26        	ldx	$26                     ; 0x26 <__rc22>
     9cf: 8e b0 5f     	stx	$5fb0                   ; 0x5fb0 <spriteStatuses+0x8>
     9d2: 9c b1 5f     	stz	$5fb1                   ; 0x5fb1 <spriteStatuses+0x9>
     9d5: 9c b2 5f     	stz	$5fb2                   ; 0x5fb2 <spriteStatuses+0xa>
     9d8: 9c ad 5f     	stz	$5fad                   ; 0x5fad <spriteStatuses+0x5>
     9db: 8c a8 5f     	sty	$5fa8                   ; 0x5fa8 <spriteStatuses>
     9de: 84 28        	sty	$28                     ; 0x28 <__rc24>
     9e0: 9c a9 5f     	stz	$5fa9                   ; 0x5fa9 <spriteStatuses+0x1>
     9e3: 8d aa 5f     	sta	$5faa                   ; 0x5faa <spriteStatuses+0x2>
     9e6: 85 27        	sta	$27                     ; 0x27 <__rc23>
     9e8: 9c ab 5f     	stz	$5fab                   ; 0x5fab <spriteStatuses+0x3>
     9eb: 9c b3 5f     	stz	$5fb3                   ; 0x5fb3 <spriteStatuses+0xb>
     9ee: 9c b4 5f     	stz	$5fb4                   ; 0x5fb4 <spriteStatuses+0xc>
     9f1: 9c b5 5f     	stz	$5fb5                   ; 0x5fb5 <spriteStatuses+0xd>
     9f4: 9c b6 5f     	stz	$5fb6                   ; 0x5fb6 <spriteStatuses+0xe>
     9f7: 9c b7 5f     	stz	$5fb7                   ; 0x5fb7 <spriteStatuses+0xf>
     9fa: 9c b9 5f     	stz	$5fb9                   ; 0x5fb9 <spriteStatuses+0x11>
     9fd: 9c bb 5f     	stz	$5fbb                   ; 0x5fbb <spriteStatuses+0x13>
     a00: a2 00        	ldx	#$0
     a02: a9 06        	lda	#$6
     a04: 20 14 37     	jsr	$3714 <malloc>
     a07: a6 12        	ldx	$12                     ; 0x12 <__zp_bss_size>
     a09: a4 13        	ldy	$13                     ; 0x13 <__rc3>
     a0b: 8e bc 5f     	stx	$5fbc                   ; 0x5fbc <spriteStatuses+0x14>
     a0e: 8c bd 5f     	sty	$5fbd                   ; 0x5fbd <spriteStatuses+0x15>
     a11: a2 00        	ldx	#$0
     a13: a9 06        	lda	#$6
     a15: 20 14 37     	jsr	$3714 <malloc>
     a18: a6 12        	ldx	$12                     ; 0x12 <__zp_bss_size>
     a1a: a4 13        	ldy	$13                     ; 0x13 <__rc3>
     a1c: 8e be 5f     	stx	$5fbe                   ; 0x5fbe <spriteStatuses+0x16>
     a1f: 8c bf 5f     	sty	$5fbf                   ; 0x5fbf <spriteStatuses+0x17>
     a22: ae bc 5f     	ldx	$5fbc                   ; 0x5fbc <spriteStatuses+0x14>
     a25: ac bd 5f     	ldy	$5fbd                   ; 0x5fbd <spriteStatuses+0x15>
     a28: 86 12        	stx	$12                     ; 0x12 <__zp_bss_size>
     a2a: 84 13        	sty	$13                     ; 0x13 <__rc3>
     a2c: a9 00        	lda	#$0
     a2e: 92 12        	sta	($12)                   ; 0x12 <__zp_bss_size>
     a30: ae be 5f     	ldx	$5fbe                   ; 0x5fbe <spriteStatuses+0x16>
     a33: ac bf 5f     	ldy	$5fbf                   ; 0x5fbf <spriteStatuses+0x17>
     a36: 86 12        	stx	$12                     ; 0x12 <__zp_bss_size>
     a38: 84 13        	sty	$13                     ; 0x13 <__rc3>
     a3a: 92 12        	sta	($12)                   ; 0x12 <__zp_bss_size>
     a3c: ae bc 5f     	ldx	$5fbc                   ; 0x5fbc <spriteStatuses+0x14>
     a3f: ac bd 5f     	ldy	$5fbd                   ; 0x5fbd <spriteStatuses+0x15>
     a42: 86 12        	stx	$12                     ; 0x12 <__zp_bss_size>
     a44: 84 13        	sty	$13                     ; 0x13 <__rc3>
     a46: a0 01        	ldy	#$1
     a48: a9 02        	lda	#$2
     a4a: 91 12        	sta	($12),y                 ; 0x12 <__zp_bss_size>
     a4c: a2 01        	ldx	#$1
     a4e: 86 29        	stx	$29                     ; 0x29 <__rc25>
     a50: ae be 5f     	ldx	$5fbe                   ; 0x5fbe <spriteStatuses+0x16>
     a53: ac bf 5f     	ldy	$5fbf                   ; 0x5fbf <spriteStatuses+0x17>
     a56: 86 12        	stx	$12                     ; 0x12 <__zp_bss_size>
     a58: 84 13        	sty	$13                     ; 0x13 <__rc3>
     a5a: a4 29        	ldy	$29                     ; 0x29 <__rc25>
     a5c: 91 12        	sta	($12),y                 ; 0x12 <__zp_bss_size>
     a5e: aa           	tax
     a5f: 86 14        	stx	$14                     ; 0x14 <__rc4>
     a61: ae bc 5f     	ldx	$5fbc                   ; 0x5fbc <spriteStatuses+0x14>
     a64: ac bd 5f     	ldy	$5fbd                   ; 0x5fbd <spriteStatuses+0x15>
     a67: 86 12        	stx	$12                     ; 0x12 <__zp_bss_size>
     a69: 84 13        	sty	$13                     ; 0x13 <__rc3>
     a6b: a8           	tay
     a6c: a9 00        	lda	#$0
     a6e: 91 12        	sta	($12),y                 ; 0x12 <__zp_bss_size>
     a70: a2 02        	ldx	#$2
     a72: 86 2d        	stx	$2d                     ; 0x2d <__rc29>
     a74: ae be 5f     	ldx	$5fbe                   ; 0x5fbe <spriteStatuses+0x16>
     a77: ac bf 5f     	ldy	$5fbf                   ; 0x5fbf <spriteStatuses+0x17>
     a7a: 86 12        	stx	$12                     ; 0x12 <__zp_bss_size>
     a7c: 84 13        	sty	$13                     ; 0x13 <__rc3>
     a7e: a5 26        	lda	$26                     ; 0x26 <__rc22>
     a80: a4 2d        	ldy	$2d                     ; 0x2d <__rc29>
     a82: 91 12        	sta	($12),y                 ; 0x12 <__zp_bss_size>
     a84: ae bc 5f     	ldx	$5fbc                   ; 0x5fbc <spriteStatuses+0x14>
     a87: ac bd 5f     	ldy	$5fbd                   ; 0x5fbd <spriteStatuses+0x15>
     a8a: 86 12        	stx	$12                     ; 0x12 <__zp_bss_size>
     a8c: 84 13        	sty	$13                     ; 0x13 <__rc3>
     a8e: a0 03        	ldy	#$3
     a90: a5 14        	lda	$14                     ; 0x14 <__rc4>
     a92: 91 12        	sta	($12),y                 ; 0x12 <__zp_bss_size>
     a94: ae be 5f     	ldx	$5fbe                   ; 0x5fbe <spriteStatuses+0x16>
     a97: 86 12        	stx	$12                     ; 0x12 <__zp_bss_size>
     a99: ae bf 5f     	ldx	$5fbf                   ; 0x5fbf <spriteStatuses+0x17>
     a9c: 86 13        	stx	$13                     ; 0x13 <__rc3>
     a9e: 98           	tya
     a9f: 91 12        	sta	($12),y                 ; 0x12 <__zp_bss_size>
     aa1: aa           	tax
     aa2: 86 2f        	stx	$2f                     ; 0x2f <__rc31>
     aa4: 86 15        	stx	$15                     ; 0x15 <__rc5>
     aa6: ae bc 5f     	ldx	$5fbc                   ; 0x5fbc <spriteStatuses+0x14>
     aa9: 86 12        	stx	$12                     ; 0x12 <__zp_bss_size>
     aab: ae bd 5f     	ldx	$5fbd                   ; 0x5fbd <spriteStatuses+0x15>
     aae: 86 13        	stx	$13                     ; 0x13 <__rc3>
     ab0: c8           	iny
     ab1: a5 26        	lda	$26                     ; 0x26 <__rc22>
     ab3: 91 12        	sta	($12),y                 ; 0x12 <__zp_bss_size>
     ab5: ae be 5f     	ldx	$5fbe                   ; 0x5fbe <spriteStatuses+0x16>
     ab8: 86 12        	stx	$12                     ; 0x12 <__zp_bss_size>
     aba: ae bf 5f     	ldx	$5fbf                   ; 0x5fbf <spriteStatuses+0x17>
     abd: 86 13        	stx	$13                     ; 0x13 <__rc3>
     abf: 91 12        	sta	($12),y                 ; 0x12 <__zp_bss_size>
     ac1: 85 16        	sta	$16                     ; 0x16 <__rc6>
     ac3: a2 04        	ldx	#$4
     ac5: 86 2a        	stx	$2a                     ; 0x2a <__rc26>
     ac7: ae bc 5f     	ldx	$5fbc                   ; 0x5fbc <spriteStatuses+0x14>
     aca: 86 12        	stx	$12                     ; 0x12 <__zp_bss_size>
     acc: ae bd 5f     	ldx	$5fbd                   ; 0x5fbd <spriteStatuses+0x15>
     acf: 86 13        	stx	$13                     ; 0x13 <__rc3>
     ad1: c8           	iny
     ad2: a5 15        	lda	$15                     ; 0x15 <__rc5>
     ad4: 91 12        	sta	($12),y                 ; 0x12 <__zp_bss_size>
     ad6: ae be 5f     	ldx	$5fbe                   ; 0x5fbe <spriteStatuses+0x16>
     ad9: 86 12        	stx	$12                     ; 0x12 <__zp_bss_size>
     adb: ae bf 5f     	ldx	$5fbf                   ; 0x5fbf <spriteStatuses+0x17>
     ade: 86 13        	stx	$13                     ; 0x13 <__rc3>
     ae0: 91 12        	sta	($12),y                 ; 0x12 <__zp_bss_size>
     ae2: 85 2e        	sta	$2e                     ; 0x2e <__rc30>
     ae4: a2 05        	ldx	#$5
     ae6: 86 26        	stx	$26                     ; 0x26 <__rc22>
     ae8: a4 2b        	ldy	$2b                     ; 0x2b <__rc27>
     aea: 8c 69 5f     	sty	$5f69                   ; 0x5f69 <_spriteCtl+0x1>
     aed: 8c 08 d9     	sty	$d908                   ; 0xd908 <__heap_start+0x777e>
     af0: a6 14        	ldx	$14                     ; 0x14 <__rc4>
     af2: 8e 09 d9     	stx	$d909                   ; 0xd909 <__heap_start+0x777f>
     af5: a2 09        	ldx	#$9
     af7: 8e 0a d9     	stx	$d90a                   ; 0xd90a <__heap_start+0x7780>
     afa: a5 16        	lda	$16                     ; 0x16 <__rc6>
     afc: 8d 0b d9     	sta	$d90b                   ; 0xd90b <__heap_start+0x7781>
     aff: 8c 73 5f     	sty	$5f73                   ; 0x5f73 <_spriteCtl+0xb>
     b02: 8c 58 d9     	sty	$d958                   ; 0xd958 <__heap_start+0x77ce>
     b05: 9c 59 d9     	stz	$d959                   ; 0xd959 <__heap_start+0x77cf>
     b08: a2 12        	ldx	#$12
     b0a: 8e 5a d9     	stx	$d95a                   ; 0xd95a <__heap_start+0x77d0>
     b0d: 8d 5b d9     	sta	$d95b                   ; 0xd95b <__heap_start+0x77d1>
     b10: 8d c4 5f     	sta	$5fc4                   ; 0x5fc4 <spriteStatuses+0x1c>
     b13: 85 12        	sta	$12                     ; 0x12 <__zp_bss_size>
     b15: a2 c8        	ldx	#$c8
     b17: 8e 0c d9     	stx	$d90c                   ; 0xd90c <__heap_start+0x7782>
     b1a: 86 2b        	stx	$2b                     ; 0x2b <__rc27>
     b1c: 9c 0d d9     	stz	$d90d                   ; 0xd90d <__heap_start+0x7783>
     b1f: a4 27        	ldy	$27                     ; 0x27 <__rc23>
     b21: 8c 0e d9     	sty	$d90e                   ; 0xd90e <__heap_start+0x7784>
     b24: 9c 0f d9     	stz	$d90f                   ; 0xd90f <__heap_start+0x7785>
     b27: a9 01        	lda	#$1
     b29: 0d 69 5f     	ora	$5f69                   ; 0x5f69 <_spriteCtl+0x1>
     b2c: 8d 08 d9     	sta	$d908                   ; 0xd908 <__heap_start+0x777e>
     b2f: a9 01        	lda	#$1
     b31: 0d 73 5f     	ora	$5f73                   ; 0x5f73 <_spriteCtl+0xb>
     b34: 8d 58 d9     	sta	$d958                   ; 0xd958 <__heap_start+0x77ce>
     b37: a2 b8        	ldx	#$b8
     b39: 8e 0c d9     	stx	$d90c                   ; 0xd90c <__heap_start+0x7782>
     b3c: 9c 0d d9     	stz	$d90d                   ; 0xd90d <__heap_start+0x7783>
     b3f: 8c 0e d9     	sty	$d90e                   ; 0xd90e <__heap_start+0x7784>
     b42: 9c 0f d9     	stz	$d90f                   ; 0xd90f <__heap_start+0x7785>
     b45: a2 08        	ldx	#$8
     b47: 8e c7 5f     	stx	$5fc7                   ; 0x5fc7 <spriteStatuses+0x1f>
     b4a: 8c c2 5f     	sty	$5fc2                   ; 0x5fc2 <spriteStatuses+0x1a>
     b4d: 9c c6 5f     	stz	$5fc6                   ; 0x5fc6 <spriteStatuses+0x1e>
     b50: a4 12        	ldy	$12                     ; 0x12 <__zp_bss_size>
     b52: 8c c8 5f     	sty	$5fc8                   ; 0x5fc8 <spriteStatuses+0x20>
     b55: 9c c9 5f     	stz	$5fc9                   ; 0x5fc9 <spriteStatuses+0x21>
     b58: a6 14        	ldx	$14                     ; 0x14 <__rc4>
     b5a: 8e ca 5f     	stx	$5fca                   ; 0x5fca <spriteStatuses+0x22>
     b5d: 9c c5 5f     	stz	$5fc5                   ; 0x5fc5 <spriteStatuses+0x1d>
     b60: a6 2b        	ldx	$2b                     ; 0x2b <__rc27>
     b62: 8e c0 5f     	stx	$5fc0                   ; 0x5fc0 <spriteStatuses+0x18>
     b65: 9c c1 5f     	stz	$5fc1                   ; 0x5fc1 <spriteStatuses+0x19>
     b68: 9c c3 5f     	stz	$5fc3                   ; 0x5fc3 <spriteStatuses+0x1b>
     b6b: 9c cb 5f     	stz	$5fcb                   ; 0x5fcb <spriteStatuses+0x23>
     b6e: 9c cc 5f     	stz	$5fcc                   ; 0x5fcc <spriteStatuses+0x24>
     b71: 9c cd 5f     	stz	$5fcd                   ; 0x5fcd <spriteStatuses+0x25>
     b74: 9c ce 5f     	stz	$5fce                   ; 0x5fce <spriteStatuses+0x26>
     b77: 9c cf 5f     	stz	$5fcf                   ; 0x5fcf <spriteStatuses+0x27>
     b7a: 8c d1 5f     	sty	$5fd1                   ; 0x5fd1 <spriteStatuses+0x29>
     b7d: 84 27        	sty	$27                     ; 0x27 <__rc23>
     b7f: 9c d3 5f     	stz	$5fd3                   ; 0x5fd3 <spriteStatuses+0x2b>
     b82: a2 00        	ldx	#$0
     b84: a9 06        	lda	#$6
     b86: 20 14 37     	jsr	$3714 <malloc>
     b89: a6 12        	ldx	$12                     ; 0x12 <__zp_bss_size>
     b8b: a4 13        	ldy	$13                     ; 0x13 <__rc3>
     b8d: 8e d4 5f     	stx	$5fd4                   ; 0x5fd4 <spriteStatuses+0x2c>
     b90: 8c d5 5f     	sty	$5fd5                   ; 0x5fd5 <spriteStatuses+0x2d>
     b93: a2 00        	ldx	#$0
     b95: a9 06        	lda	#$6
     b97: 20 14 37     	jsr	$3714 <malloc>
     b9a: a6 12        	ldx	$12                     ; 0x12 <__zp_bss_size>
     b9c: a4 13        	ldy	$13                     ; 0x13 <__rc3>
     b9e: 8e d6 5f     	stx	$5fd6                   ; 0x5fd6 <spriteStatuses+0x2e>
     ba1: 8c d7 5f     	sty	$5fd7                   ; 0x5fd7 <spriteStatuses+0x2f>
     ba4: ae d4 5f     	ldx	$5fd4                   ; 0x5fd4 <spriteStatuses+0x2c>
     ba7: ac d5 5f     	ldy	$5fd5                   ; 0x5fd5 <spriteStatuses+0x2d>
     baa: 86 12        	stx	$12                     ; 0x12 <__zp_bss_size>
     bac: 84 13        	sty	$13                     ; 0x13 <__rc3>
     bae: a9 00        	lda	#$0
     bb0: 92 12        	sta	($12)                   ; 0x12 <__zp_bss_size>
     bb2: ae d6 5f     	ldx	$5fd6                   ; 0x5fd6 <spriteStatuses+0x2e>
     bb5: ac d7 5f     	ldy	$5fd7                   ; 0x5fd7 <spriteStatuses+0x2f>
     bb8: 86 12        	stx	$12                     ; 0x12 <__zp_bss_size>
     bba: 84 13        	sty	$13                     ; 0x13 <__rc3>
     bbc: 92 12        	sta	($12)                   ; 0x12 <__zp_bss_size>
     bbe: ae d4 5f     	ldx	$5fd4                   ; 0x5fd4 <spriteStatuses+0x2c>
     bc1: ac d5 5f     	ldy	$5fd5                   ; 0x5fd5 <spriteStatuses+0x2d>
     bc4: 86 12        	stx	$12                     ; 0x12 <__zp_bss_size>
     bc6: 84 13        	sty	$13                     ; 0x13 <__rc3>
     bc8: a9 02        	lda	#$2
     bca: a4 29        	ldy	$29                     ; 0x29 <__rc25>
     bcc: 91 12        	sta	($12),y                 ; 0x12 <__zp_bss_size>
     bce: ae d6 5f     	ldx	$5fd6                   ; 0x5fd6 <spriteStatuses+0x2e>
     bd1: ac d7 5f     	ldy	$5fd7                   ; 0x5fd7 <spriteStatuses+0x2f>
     bd4: 86 12        	stx	$12                     ; 0x12 <__zp_bss_size>
     bd6: 84 13        	sty	$13                     ; 0x13 <__rc3>
     bd8: a4 29        	ldy	$29                     ; 0x29 <__rc25>
     bda: 91 12        	sta	($12),y                 ; 0x12 <__zp_bss_size>
     bdc: aa           	tax
     bdd: 86 29        	stx	$29                     ; 0x29 <__rc25>
     bdf: ae d4 5f     	ldx	$5fd4                   ; 0x5fd4 <spriteStatuses+0x2c>
     be2: ac d5 5f     	ldy	$5fd5                   ; 0x5fd5 <spriteStatuses+0x2d>
     be5: 86 12        	stx	$12                     ; 0x12 <__zp_bss_size>
     be7: 84 13        	sty	$13                     ; 0x13 <__rc3>
     be9: a4 2d        	ldy	$2d                     ; 0x2d <__rc29>
     beb: a9 00        	lda	#$0
     bed: 91 12        	sta	($12),y                 ; 0x12 <__zp_bss_size>
     bef: ae d6 5f     	ldx	$5fd6                   ; 0x5fd6 <spriteStatuses+0x2e>
     bf2: ad d7 5f     	lda	$5fd7                   ; 0x5fd7 <spriteStatuses+0x2f>
     bf5: 86 12        	stx	$12                     ; 0x12 <__zp_bss_size>
     bf7: 85 13        	sta	$13                     ; 0x13 <__rc3>
     bf9: a5 27        	lda	$27                     ; 0x27 <__rc23>
     bfb: 91 12        	sta	($12),y                 ; 0x12 <__zp_bss_size>
     bfd: 85 16        	sta	$16                     ; 0x16 <__rc6>
     bff: ae d4 5f     	ldx	$5fd4                   ; 0x5fd4 <spriteStatuses+0x2c>
     c02: ac d5 5f     	ldy	$5fd5                   ; 0x5fd5 <spriteStatuses+0x2d>
     c05: 86 12        	stx	$12                     ; 0x12 <__zp_bss_size>
     c07: 84 13        	sty	$13                     ; 0x13 <__rc3>
     c09: a4 2f        	ldy	$2f                     ; 0x2f <__rc31>
     c0b: a5 29        	lda	$29                     ; 0x29 <__rc25>
     c0d: 91 12        	sta	($12),y                 ; 0x12 <__zp_bss_size>
     c0f: ae d6 5f     	ldx	$5fd6                   ; 0x5fd6 <spriteStatuses+0x2e>
     c12: ac d7 5f     	ldy	$5fd7                   ; 0x5fd7 <spriteStatuses+0x2f>
     c15: 86 12        	stx	$12                     ; 0x12 <__zp_bss_size>
     c17: 84 13        	sty	$13                     ; 0x13 <__rc3>
     c19: a5 2e        	lda	$2e                     ; 0x2e <__rc30>
     c1b: a4 2f        	ldy	$2f                     ; 0x2f <__rc31>
     c1d: 91 12        	sta	($12),y                 ; 0x12 <__zp_bss_size>
     c1f: 85 15        	sta	$15                     ; 0x15 <__rc5>
     c21: ae d4 5f     	ldx	$5fd4                   ; 0x5fd4 <spriteStatuses+0x2c>
     c24: ac d5 5f     	ldy	$5fd5                   ; 0x5fd5 <spriteStatuses+0x2d>
     c27: 86 12        	stx	$12                     ; 0x12 <__zp_bss_size>
     c29: 84 13        	sty	$13                     ; 0x13 <__rc3>
     c2b: a4 2a        	ldy	$2a                     ; 0x2a <__rc26>
     c2d: a5 16        	lda	$16                     ; 0x16 <__rc6>
     c2f: 91 12        	sta	($12),y                 ; 0x12 <__zp_bss_size>
     c31: ae d6 5f     	ldx	$5fd6                   ; 0x5fd6 <spriteStatuses+0x2e>
     c34: ac d7 5f     	ldy	$5fd7                   ; 0x5fd7 <spriteStatuses+0x2f>
     c37: 86 12        	stx	$12                     ; 0x12 <__zp_bss_size>
     c39: 84 13        	sty	$13                     ; 0x13 <__rc3>
     c3b: a4 2a        	ldy	$2a                     ; 0x2a <__rc26>
     c3d: 91 12        	sta	($12),y                 ; 0x12 <__zp_bss_size>
     c3f: ae d4 5f     	ldx	$5fd4                   ; 0x5fd4 <spriteStatuses+0x2c>
     c42: ac d5 5f     	ldy	$5fd5                   ; 0x5fd5 <spriteStatuses+0x2d>
     c45: 86 12        	stx	$12                     ; 0x12 <__zp_bss_size>
     c47: 84 13        	sty	$13                     ; 0x13 <__rc3>
     c49: a4 26        	ldy	$26                     ; 0x26 <__rc22>
     c4b: a5 15        	lda	$15                     ; 0x15 <__rc5>
     c4d: 91 12        	sta	($12),y                 ; 0x12 <__zp_bss_size>
     c4f: ae d6 5f     	ldx	$5fd6                   ; 0x5fd6 <spriteStatuses+0x2e>
     c52: ac d7 5f     	ldy	$5fd7                   ; 0x5fd7 <spriteStatuses+0x2f>
     c55: 86 12        	stx	$12                     ; 0x12 <__zp_bss_size>
     c57: 84 13        	sty	$13                     ; 0x13 <__rc3>
     c59: a4 26        	ldy	$26                     ; 0x26 <__rc22>
     c5b: 91 12        	sta	($12),y                 ; 0x12 <__zp_bss_size>
     c5d: 85 27        	sta	$27                     ; 0x27 <__rc23>
     c5f: a0 40        	ldy	#$40
     c61: 8c 6a 5f     	sty	$5f6a                   ; 0x5f6a <_spriteCtl+0x2>
     c64: 8c 10 d9     	sty	$d910                   ; 0xd910 <__heap_start+0x7786>
     c67: 9c 11 d9     	stz	$d911                   ; 0xd911 <__heap_start+0x7787>
     c6a: a2 0d        	ldx	#$d
     c6c: 8e 12 d9     	stx	$d912                   ; 0xd912 <__heap_start+0x7788>
     c6f: a5 16        	lda	$16                     ; 0x16 <__rc6>
     c71: 8d 13 d9     	sta	$d913                   ; 0xd913 <__heap_start+0x7789>
     c74: 8c 74 5f     	sty	$5f74                   ; 0x5f74 <_spriteCtl+0xc>
     c77: 8c 60 d9     	sty	$d960                   ; 0xd960 <__heap_start+0x77d6>
     c7a: a2 40        	ldx	#$40
     c7c: 86 2e        	stx	$2e                     ; 0x2e <__rc30>
     c7e: 9c 61 d9     	stz	$d961                   ; 0xd961 <__heap_start+0x77d7>
     c81: a2 16        	ldx	#$16
     c83: 8e 62 d9     	stx	$d962                   ; 0xd962 <__heap_start+0x77d8>
     c86: 8d 63 d9     	sta	$d963                   ; 0xd963 <__heap_start+0x77d9>
     c89: 8d dc 5f     	sta	$5fdc                   ; 0x5fdc <spriteStatuses+0x34>
     c8c: 85 26        	sta	$26                     ; 0x26 <__rc22>
     c8e: a4 28        	ldy	$28                     ; 0x28 <__rc24>
     c90: 8c 14 d9     	sty	$d914                   ; 0xd914 <__heap_start+0x778a>
     c93: 9c 15 d9     	stz	$d915                   ; 0xd915 <__heap_start+0x778b>
     c96: a2 50        	ldx	#$50
     c98: 8e 16 d9     	stx	$d916                   ; 0xd916 <__heap_start+0x778c>
     c9b: 86 12        	stx	$12                     ; 0x12 <__zp_bss_size>
     c9d: 9c 17 d9     	stz	$d917                   ; 0xd917 <__heap_start+0x778d>
     ca0: a9 01        	lda	#$1
     ca2: 0d 6a 5f     	ora	$5f6a                   ; 0x5f6a <_spriteCtl+0x2>
     ca5: 8d 10 d9     	sta	$d910                   ; 0xd910 <__heap_start+0x7786>
     ca8: a9 01        	lda	#$1
     caa: 0d 74 5f     	ora	$5f74                   ; 0x5f74 <_spriteCtl+0xc>
     cad: 8d 60 d9     	sta	$d960                   ; 0xd960 <__heap_start+0x77d6>
     cb0: a2 54        	ldx	#$54
     cb2: 8e 14 d9     	stx	$d914                   ; 0xd914 <__heap_start+0x778a>
     cb5: 9c 15 d9     	stz	$d915                   ; 0xd915 <__heap_start+0x778b>
     cb8: a5 12        	lda	$12                     ; 0x12 <__zp_bss_size>
     cba: 8d 16 d9     	sta	$d916                   ; 0xd916 <__heap_start+0x778c>
     cbd: 9c 17 d9     	stz	$d917                   ; 0xd917 <__heap_start+0x778d>
     cc0: 9c de 5f     	stz	$5fde                   ; 0x5fde <spriteStatuses+0x36>
     cc3: a2 0c        	ldx	#$c
     cc5: 8e df 5f     	stx	$5fdf                   ; 0x5fdf <spriteStatuses+0x37>
     cc8: a6 26        	ldx	$26                     ; 0x26 <__rc22>
     cca: 8e e0 5f     	stx	$5fe0                   ; 0x5fe0 <spriteStatuses+0x38>
     ccd: 9c e1 5f     	stz	$5fe1                   ; 0x5fe1 <spriteStatuses+0x39>
     cd0: 9c e2 5f     	stz	$5fe2                   ; 0x5fe2 <spriteStatuses+0x3a>
     cd3: 9c dd 5f     	stz	$5fdd                   ; 0x5fdd <spriteStatuses+0x35>
     cd6: 8c d8 5f     	sty	$5fd8                   ; 0x5fd8 <spriteStatuses+0x30>
     cd9: 9c d9 5f     	stz	$5fd9                   ; 0x5fd9 <spriteStatuses+0x31>
     cdc: 8d da 5f     	sta	$5fda                   ; 0x5fda <spriteStatuses+0x32>
     cdf: 85 2a        	sta	$2a                     ; 0x2a <__rc26>
     ce1: 9c db 5f     	stz	$5fdb                   ; 0x5fdb <spriteStatuses+0x33>
     ce4: 9c e3 5f     	stz	$5fe3                   ; 0x5fe3 <spriteStatuses+0x3b>
     ce7: 9c e4 5f     	stz	$5fe4                   ; 0x5fe4 <spriteStatuses+0x3c>
     cea: 9c e5 5f     	stz	$5fe5                   ; 0x5fe5 <spriteStatuses+0x3d>
     ced: 9c e6 5f     	stz	$5fe6                   ; 0x5fe6 <spriteStatuses+0x3e>
     cf0: 9c e7 5f     	stz	$5fe7                   ; 0x5fe7 <spriteStatuses+0x3f>
     cf3: a6 29        	ldx	$29                     ; 0x29 <__rc25>
     cf5: 8e e9 5f     	stx	$5fe9                   ; 0x5fe9 <spriteStatuses+0x41>
     cf8: 9c eb 5f     	stz	$5feb                   ; 0x5feb <spriteStatuses+0x43>
     cfb: a2 00        	ldx	#$0
     cfd: a9 06        	lda	#$6
     cff: 20 14 37     	jsr	$3714 <malloc>
     d02: a6 12        	ldx	$12                     ; 0x12 <__zp_bss_size>
     d04: a4 13        	ldy	$13                     ; 0x13 <__rc3>
     d06: 8e ec 5f     	stx	$5fec                   ; 0x5fec <spriteStatuses+0x44>
     d09: 8c ed 5f     	sty	$5fed                   ; 0x5fed <spriteStatuses+0x45>
     d0c: a2 00        	ldx	#$0
     d0e: a9 06        	lda	#$6
     d10: 20 14 37     	jsr	$3714 <malloc>
     d13: a6 12        	ldx	$12                     ; 0x12 <__zp_bss_size>
     d15: 8e ee 5f     	stx	$5fee                   ; 0x5fee <spriteStatuses+0x46>
     d18: a6 13        	ldx	$13                     ; 0x13 <__rc3>
     d1a: 8e ef 5f     	stx	$5fef                   ; 0x5fef <spriteStatuses+0x47>
     d1d: ae ec 5f     	ldx	$5fec                   ; 0x5fec <spriteStatuses+0x44>
     d20: 86 12        	stx	$12                     ; 0x12 <__zp_bss_size>
     d22: ae ed 5f     	ldx	$5fed                   ; 0x5fed <spriteStatuses+0x45>
     d25: 86 13        	stx	$13                     ; 0x13 <__rc3>
     d27: a9 00        	lda	#$0
     d29: 92 12        	sta	($12)                   ; 0x12 <__zp_bss_size>
     d2b: ae ee 5f     	ldx	$5fee                   ; 0x5fee <spriteStatuses+0x46>
     d2e: 86 12        	stx	$12                     ; 0x12 <__zp_bss_size>
     d30: ae ef 5f     	ldx	$5fef                   ; 0x5fef <spriteStatuses+0x47>
     d33: 86 13        	stx	$13                     ; 0x13 <__rc3>
     d35: 92 12        	sta	($12)                   ; 0x12 <__zp_bss_size>
     d37: ae ec 5f     	ldx	$5fec                   ; 0x5fec <spriteStatuses+0x44>
     d3a: 86 12        	stx	$12                     ; 0x12 <__zp_bss_size>
     d3c: ae ed 5f     	ldx	$5fed                   ; 0x5fed <spriteStatuses+0x45>
     d3f: 86 13        	stx	$13                     ; 0x13 <__rc3>
     d41: a5 29        	lda	$29                     ; 0x29 <__rc25>
     d43: a0 01        	ldy	#$1
     d45: 91 12        	sta	($12),y                 ; 0x12 <__zp_bss_size>
     d47: ae ee 5f     	ldx	$5fee                   ; 0x5fee <spriteStatuses+0x46>
     d4a: 86 12        	stx	$12                     ; 0x12 <__zp_bss_size>
     d4c: ae ef 5f     	ldx	$5fef                   ; 0x5fef <spriteStatuses+0x47>
     d4f: 86 13        	stx	$13                     ; 0x13 <__rc3>
     d51: 91 12        	sta	($12),y                 ; 0x12 <__zp_bss_size>
     d53: a2 01        	ldx	#$1
     d55: 86 2d        	stx	$2d                     ; 0x2d <__rc29>
     d57: 85 15        	sta	$15                     ; 0x15 <__rc5>
     d59: ae ec 5f     	ldx	$5fec                   ; 0x5fec <spriteStatuses+0x44>
     d5c: 86 12        	stx	$12                     ; 0x12 <__zp_bss_size>
     d5e: ae ed 5f     	ldx	$5fed                   ; 0x5fed <spriteStatuses+0x45>
     d61: 86 13        	stx	$13                     ; 0x13 <__rc3>
     d63: c8           	iny
     d64: a9 00        	lda	#$0
     d66: 91 12        	sta	($12),y                 ; 0x12 <__zp_bss_size>
     d68: ae ee 5f     	ldx	$5fee                   ; 0x5fee <spriteStatuses+0x46>
     d6b: 86 12        	stx	$12                     ; 0x12 <__zp_bss_size>
     d6d: ae ef 5f     	ldx	$5fef                   ; 0x5fef <spriteStatuses+0x47>
     d70: 86 13        	stx	$13                     ; 0x13 <__rc3>
     d72: a5 26        	lda	$26                     ; 0x26 <__rc22>
     d74: 91 12        	sta	($12),y                 ; 0x12 <__zp_bss_size>
     d76: 85 14        	sta	$14                     ; 0x14 <__rc4>
     d78: a2 02        	ldx	#$2
     d7a: 86 2f        	stx	$2f                     ; 0x2f <__rc31>
     d7c: ae ec 5f     	ldx	$5fec                   ; 0x5fec <spriteStatuses+0x44>
     d7f: 86 12        	stx	$12                     ; 0x12 <__zp_bss_size>
     d81: ae ed 5f     	ldx	$5fed                   ; 0x5fed <spriteStatuses+0x45>
     d84: 86 13        	stx	$13                     ; 0x13 <__rc3>
     d86: c8           	iny
     d87: a5 15        	lda	$15                     ; 0x15 <__rc5>
     d89: 91 12        	sta	($12),y                 ; 0x12 <__zp_bss_size>
     d8b: 85 2c        	sta	$2c                     ; 0x2c <__rc28>
     d8d: ae ee 5f     	ldx	$5fee                   ; 0x5fee <spriteStatuses+0x46>
     d90: 86 12        	stx	$12                     ; 0x12 <__zp_bss_size>
     d92: ae ef 5f     	ldx	$5fef                   ; 0x5fef <spriteStatuses+0x47>
     d95: 86 13        	stx	$13                     ; 0x13 <__rc3>
     d97: a5 27        	lda	$27                     ; 0x27 <__rc23>
     d99: 91 12        	sta	($12),y                 ; 0x12 <__zp_bss_size>
     d9b: 85 15        	sta	$15                     ; 0x15 <__rc5>
     d9d: a2 03        	ldx	#$3
     d9f: 86 27        	stx	$27                     ; 0x27 <__rc23>
     da1: ae ec 5f     	ldx	$5fec                   ; 0x5fec <spriteStatuses+0x44>
     da4: 86 12        	stx	$12                     ; 0x12 <__zp_bss_size>
     da6: ae ed 5f     	ldx	$5fed                   ; 0x5fed <spriteStatuses+0x45>
     da9: 86 13        	stx	$13                     ; 0x13 <__rc3>
     dab: c8           	iny
     dac: a5 14        	lda	$14                     ; 0x14 <__rc4>
     dae: 91 12        	sta	($12),y                 ; 0x12 <__zp_bss_size>
     db0: ae ee 5f     	ldx	$5fee                   ; 0x5fee <spriteStatuses+0x46>
     db3: 86 12        	stx	$12                     ; 0x12 <__zp_bss_size>
     db5: ae ef 5f     	ldx	$5fef                   ; 0x5fef <spriteStatuses+0x47>
     db8: 86 13        	stx	$13                     ; 0x13 <__rc3>
     dba: 91 12        	sta	($12),y                 ; 0x12 <__zp_bss_size>
     dbc: a2 04        	ldx	#$4
     dbe: 86 26        	stx	$26                     ; 0x26 <__rc22>
     dc0: ae ec 5f     	ldx	$5fec                   ; 0x5fec <spriteStatuses+0x44>
     dc3: 86 12        	stx	$12                     ; 0x12 <__zp_bss_size>
     dc5: ae ed 5f     	ldx	$5fed                   ; 0x5fed <spriteStatuses+0x45>
     dc8: 86 13        	stx	$13                     ; 0x13 <__rc3>
     dca: c8           	iny
     dcb: a5 15        	lda	$15                     ; 0x15 <__rc5>
     dcd: 91 12        	sta	($12),y                 ; 0x12 <__zp_bss_size>
     dcf: ae ee 5f     	ldx	$5fee                   ; 0x5fee <spriteStatuses+0x46>
     dd2: 86 12        	stx	$12                     ; 0x12 <__zp_bss_size>
     dd4: ae ef 5f     	ldx	$5fef                   ; 0x5fef <spriteStatuses+0x47>
     dd7: 86 13        	stx	$13                     ; 0x13 <__rc3>
     dd9: 91 12        	sta	($12),y                 ; 0x12 <__zp_bss_size>
     ddb: 85 28        	sta	$28                     ; 0x28 <__rc24>
     ddd: a2 05        	ldx	#$5
     ddf: 86 29        	stx	$29                     ; 0x29 <__rc25>
     de1: a4 2e        	ldy	$2e                     ; 0x2e <__rc30>
     de3: 8c 6b 5f     	sty	$5f6b                   ; 0x5f6b <_spriteCtl+0x3>
     de6: 8c 18 d9     	sty	$d918                   ; 0xd918 <__heap_start+0x778e>
     de9: a6 2c        	ldx	$2c                     ; 0x2c <__rc28>
     deb: 8e 19 d9     	stx	$d919                   ; 0xd919 <__heap_start+0x778f>
     dee: a2 11        	ldx	#$11
     df0: 8e 1a d9     	stx	$d91a                   ; 0xd91a <__heap_start+0x7790>
     df3: a5 14        	lda	$14                     ; 0x14 <__rc4>
     df5: 8d 1b d9     	sta	$d91b                   ; 0xd91b <__heap_start+0x7791>
     df8: 8c 75 5f     	sty	$5f75                   ; 0x5f75 <_spriteCtl+0xd>
     dfb: 8c 68 d9     	sty	$d968                   ; 0xd968 <__heap_start+0x77de>
     dfe: 9c 69 d9     	stz	$d969                   ; 0xd969 <__heap_start+0x77df>
     e01: a2 1a        	ldx	#$1a
     e03: 8e 6a d9     	stx	$d96a                   ; 0xd96a <__heap_start+0x77e0>
     e06: 8d 6b d9     	sta	$d96b                   ; 0xd96b <__heap_start+0x77e1>
     e09: 8d f4 5f     	sta	$5ff4                   ; 0x5ff4 <spriteStatuses+0x4c>
     e0c: 85 12        	sta	$12                     ; 0x12 <__zp_bss_size>
     e0e: a6 2b        	ldx	$2b                     ; 0x2b <__rc27>
     e10: 8e 1c d9     	stx	$d91c                   ; 0xd91c <__heap_start+0x7792>
     e13: 86 13        	stx	$13                     ; 0x13 <__rc3>
     e15: 9c 1d d9     	stz	$d91d                   ; 0xd91d <__heap_start+0x7793>
     e18: a4 2a        	ldy	$2a                     ; 0x2a <__rc26>
     e1a: 8c 1e d9     	sty	$d91e                   ; 0xd91e <__heap_start+0x7794>
     e1d: 9c 1f d9     	stz	$d91f                   ; 0xd91f <__heap_start+0x7795>
     e20: a9 01        	lda	#$1
     e22: 0d 6b 5f     	ora	$5f6b                   ; 0x5f6b <_spriteCtl+0x3>
     e25: 8d 18 d9     	sta	$d918                   ; 0xd918 <__heap_start+0x778e>
     e28: a9 01        	lda	#$1
     e2a: 0d 75 5f     	ora	$5f75                   ; 0x5f75 <_spriteCtl+0xd>
     e2d: 8d 68 d9     	sta	$d968                   ; 0xd968 <__heap_start+0x77de>
     e30: a2 b8        	ldx	#$b8
     e32: 8e 1c d9     	stx	$d91c                   ; 0xd91c <__heap_start+0x7792>
     e35: 9c 1d d9     	stz	$d91d                   ; 0xd91d <__heap_start+0x7793>
     e38: 8c 1e d9     	sty	$d91e                   ; 0xd91e <__heap_start+0x7794>
     e3b: 9c 1f d9     	stz	$d91f                   ; 0xd91f <__heap_start+0x7795>
     e3e: a2 10        	ldx	#$10
     e40: 8e f7 5f     	stx	$5ff7                   ; 0x5ff7 <spriteStatuses+0x4f>
     e43: a6 13        	ldx	$13                     ; 0x13 <__rc3>
     e45: 8e f0 5f     	stx	$5ff0                   ; 0x5ff0 <spriteStatuses+0x48>
     e48: 8c f2 5f     	sty	$5ff2                   ; 0x5ff2 <spriteStatuses+0x4a>
     e4b: 9c f6 5f     	stz	$5ff6                   ; 0x5ff6 <spriteStatuses+0x4e>
     e4e: a6 12        	ldx	$12                     ; 0x12 <__zp_bss_size>
     e50: 8e f8 5f     	stx	$5ff8                   ; 0x5ff8 <spriteStatuses+0x50>
     e53: a6 12        	ldx	$12                     ; 0x12 <__zp_bss_size>
     e55: 86 2a        	stx	$2a                     ; 0x2a <__rc26>
     e57: 9c f9 5f     	stz	$5ff9                   ; 0x5ff9 <spriteStatuses+0x51>
     e5a: a6 2c        	ldx	$2c                     ; 0x2c <__rc28>
     e5c: 8e fa 5f     	stx	$5ffa                   ; 0x5ffa <spriteStatuses+0x52>
     e5f: 9c f5 5f     	stz	$5ff5                   ; 0x5ff5 <spriteStatuses+0x4d>
     e62: 9c f1 5f     	stz	$5ff1                   ; 0x5ff1 <spriteStatuses+0x49>
     e65: 9c f3 5f     	stz	$5ff3                   ; 0x5ff3 <spriteStatuses+0x4b>
     e68: 9c fb 5f     	stz	$5ffb                   ; 0x5ffb <spriteStatuses+0x53>
     e6b: 9c fc 5f     	stz	$5ffc                   ; 0x5ffc <spriteStatuses+0x54>
     e6e: 9c fd 5f     	stz	$5ffd                   ; 0x5ffd <spriteStatuses+0x55>
     e71: 9c fe 5f     	stz	$5ffe                   ; 0x5ffe <spriteStatuses+0x56>
     e74: 9c ff 5f     	stz	$5fff                   ; 0x5fff <spriteStatuses+0x57>
     e77: a6 28        	ldx	$28                     ; 0x28 <__rc24>
     e79: 8e 01 60     	stx	$6001                   ; 0x6001 <spriteStatuses+0x59>
     e7c: 9c 03 60     	stz	$6003                   ; 0x6003 <spriteStatuses+0x5b>
     e7f: a2 00        	ldx	#$0
     e81: a9 06        	lda	#$6
     e83: 20 14 37     	jsr	$3714 <malloc>
     e86: a6 12        	ldx	$12                     ; 0x12 <__zp_bss_size>
     e88: a4 13        	ldy	$13                     ; 0x13 <__rc3>
     e8a: 8e 04 60     	stx	$6004                   ; 0x6004 <spriteStatuses+0x5c>
     e8d: 8c 05 60     	sty	$6005                   ; 0x6005 <spriteStatuses+0x5d>
     e90: a2 00        	ldx	#$0
     e92: a9 06        	lda	#$6
     e94: 20 14 37     	jsr	$3714 <malloc>
     e97: a6 12        	ldx	$12                     ; 0x12 <__zp_bss_size>
     e99: a4 13        	ldy	$13                     ; 0x13 <__rc3>
     e9b: 8e 06 60     	stx	$6006                   ; 0x6006 <spriteStatuses+0x5e>
     e9e: 8c 07 60     	sty	$6007                   ; 0x6007 <spriteStatuses+0x5f>
     ea1: ae 04 60     	ldx	$6004                   ; 0x6004 <spriteStatuses+0x5c>
     ea4: ac 05 60     	ldy	$6005                   ; 0x6005 <spriteStatuses+0x5d>
     ea7: 86 12        	stx	$12                     ; 0x12 <__zp_bss_size>
     ea9: 84 13        	sty	$13                     ; 0x13 <__rc3>
     eab: a9 00        	lda	#$0
     ead: 92 12        	sta	($12)                   ; 0x12 <__zp_bss_size>
     eaf: ae 06 60     	ldx	$6006                   ; 0x6006 <spriteStatuses+0x5e>
     eb2: ac 07 60     	ldy	$6007                   ; 0x6007 <spriteStatuses+0x5f>
     eb5: 86 12        	stx	$12                     ; 0x12 <__zp_bss_size>
     eb7: 84 13        	sty	$13                     ; 0x13 <__rc3>
     eb9: 92 12        	sta	($12)                   ; 0x12 <__zp_bss_size>
     ebb: ae 04 60     	ldx	$6004                   ; 0x6004 <spriteStatuses+0x5c>
     ebe: ac 05 60     	ldy	$6005                   ; 0x6005 <spriteStatuses+0x5d>
     ec1: 86 12        	stx	$12                     ; 0x12 <__zp_bss_size>
     ec3: 84 13        	sty	$13                     ; 0x13 <__rc3>
     ec5: a5 2c        	lda	$2c                     ; 0x2c <__rc28>
     ec7: a4 2d        	ldy	$2d                     ; 0x2d <__rc29>
     ec9: 91 12        	sta	($12),y                 ; 0x12 <__zp_bss_size>
     ecb: ae 06 60     	ldx	$6006                   ; 0x6006 <spriteStatuses+0x5e>
     ece: ac 07 60     	ldy	$6007                   ; 0x6007 <spriteStatuses+0x5f>
     ed1: 86 12        	stx	$12                     ; 0x12 <__zp_bss_size>
     ed3: 84 13        	sty	$13                     ; 0x13 <__rc3>
     ed5: a4 2d        	ldy	$2d                     ; 0x2d <__rc29>
     ed7: 91 12        	sta	($12),y                 ; 0x12 <__zp_bss_size>
     ed9: 85 2e        	sta	$2e                     ; 0x2e <__rc30>
     edb: ae 04 60     	ldx	$6004                   ; 0x6004 <spriteStatuses+0x5c>
     ede: ac 05 60     	ldy	$6005                   ; 0x6005 <spriteStatuses+0x5d>
     ee1: 86 12        	stx	$12                     ; 0x12 <__zp_bss_size>
     ee3: 84 13        	sty	$13                     ; 0x13 <__rc3>
     ee5: a4 2f        	ldy	$2f                     ; 0x2f <__rc31>
     ee7: a9 00        	lda	#$0
     ee9: 91 12        	sta	($12),y                 ; 0x12 <__zp_bss_size>
     eeb: ae 06 60     	ldx	$6006                   ; 0x6006 <spriteStatuses+0x5e>
     eee: ad 07 60     	lda	$6007                   ; 0x6007 <spriteStatuses+0x5f>
     ef1: 86 12        	stx	$12                     ; 0x12 <__zp_bss_size>
     ef3: 85 13        	sta	$13                     ; 0x13 <__rc3>
     ef5: a5 2a        	lda	$2a                     ; 0x2a <__rc26>
     ef7: 91 12        	sta	($12),y                 ; 0x12 <__zp_bss_size>
     ef9: 85 15        	sta	$15                     ; 0x15 <__rc5>
     efb: ae 04 60     	ldx	$6004                   ; 0x6004 <spriteStatuses+0x5c>
     efe: ac 05 60     	ldy	$6005                   ; 0x6005 <spriteStatuses+0x5d>
     f01: 86 12        	stx	$12                     ; 0x12 <__zp_bss_size>
     f03: 84 13        	sty	$13                     ; 0x13 <__rc3>
     f05: a4 27        	ldy	$27                     ; 0x27 <__rc23>
     f07: a5 2e        	lda	$2e                     ; 0x2e <__rc30>
     f09: 91 12        	sta	($12),y                 ; 0x12 <__zp_bss_size>
     f0b: 84 14        	sty	$14                     ; 0x14 <__rc4>
     f0d: ae 06 60     	ldx	$6006                   ; 0x6006 <spriteStatuses+0x5e>
     f10: ac 07 60     	ldy	$6007                   ; 0x6007 <spriteStatuses+0x5f>
     f13: 86 12        	stx	$12                     ; 0x12 <__zp_bss_size>
     f15: 84 13        	sty	$13                     ; 0x13 <__rc3>
     f17: a5 28        	lda	$28                     ; 0x28 <__rc24>
     f19: a4 14        	ldy	$14                     ; 0x14 <__rc4>
     f1b: 91 12        	sta	($12),y                 ; 0x12 <__zp_bss_size>
     f1d: a6 14        	ldx	$14                     ; 0x14 <__rc4>
     f1f: 85 14        	sta	$14                     ; 0x14 <__rc4>
     f21: 86 2c        	stx	$2c                     ; 0x2c <__rc28>
     f23: ae 04 60     	ldx	$6004                   ; 0x6004 <spriteStatuses+0x5c>
     f26: ac 05 60     	ldy	$6005                   ; 0x6005 <spriteStatuses+0x5d>
     f29: 86 12        	stx	$12                     ; 0x12 <__zp_bss_size>
     f2b: 84 13        	sty	$13                     ; 0x13 <__rc3>
     f2d: a4 26        	ldy	$26                     ; 0x26 <__rc22>
     f2f: a5 15        	lda	$15                     ; 0x15 <__rc5>
     f31: 91 12        	sta	($12),y                 ; 0x12 <__zp_bss_size>
     f33: 84 15        	sty	$15                     ; 0x15 <__rc5>
     f35: ae 06 60     	ldx	$6006                   ; 0x6006 <spriteStatuses+0x5e>
     f38: ac 07 60     	ldy	$6007                   ; 0x6007 <spriteStatuses+0x5f>
     f3b: 86 12        	stx	$12                     ; 0x12 <__zp_bss_size>
     f3d: 84 13        	sty	$13                     ; 0x13 <__rc3>
     f3f: a4 15        	ldy	$15                     ; 0x15 <__rc5>
     f41: 91 12        	sta	($12),y                 ; 0x12 <__zp_bss_size>
     f43: a6 15        	ldx	$15                     ; 0x15 <__rc5>
     f45: 85 15        	sta	$15                     ; 0x15 <__rc5>
     f47: 86 2d        	stx	$2d                     ; 0x2d <__rc29>
     f49: ae 04 60     	ldx	$6004                   ; 0x6004 <spriteStatuses+0x5c>
     f4c: ac 05 60     	ldy	$6005                   ; 0x6005 <spriteStatuses+0x5d>
     f4f: 86 12        	stx	$12                     ; 0x12 <__zp_bss_size>
     f51: 84 13        	sty	$13                     ; 0x13 <__rc3>
     f53: a4 29        	ldy	$29                     ; 0x29 <__rc25>
     f55: a5 14        	lda	$14                     ; 0x14 <__rc4>
     f57: 91 12        	sta	($12),y                 ; 0x12 <__zp_bss_size>
     f59: 84 16        	sty	$16                     ; 0x16 <__rc6>
     f5b: ae 06 60     	ldx	$6006                   ; 0x6006 <spriteStatuses+0x5e>
     f5e: ac 07 60     	ldy	$6007                   ; 0x6007 <spriteStatuses+0x5f>
     f61: 86 12        	stx	$12                     ; 0x12 <__zp_bss_size>
     f63: 84 13        	sty	$13                     ; 0x13 <__rc3>
     f65: a4 16        	ldy	$16                     ; 0x16 <__rc6>
     f67: 91 12        	sta	($12),y                 ; 0x12 <__zp_bss_size>
     f69: 85 27        	sta	$27                     ; 0x27 <__rc23>
     f6b: a5 16        	lda	$16                     ; 0x16 <__rc6>
     f6d: 85 2b        	sta	$2b                     ; 0x2b <__rc27>
     f6f: a0 40        	ldy	#$40
     f71: 8c 6c 5f     	sty	$5f6c                   ; 0x5f6c <_spriteCtl+0x4>
     f74: 8c 20 d9     	sty	$d920                   ; 0xd920 <__heap_start+0x7796>
     f77: 9c 21 d9     	stz	$d921                   ; 0xd921 <__heap_start+0x7797>
     f7a: a2 15        	ldx	#$15
     f7c: 8e 22 d9     	stx	$d922                   ; 0xd922 <__heap_start+0x7798>
     f7f: a5 15        	lda	$15                     ; 0x15 <__rc5>
     f81: 8d 23 d9     	sta	$d923                   ; 0xd923 <__heap_start+0x7799>
     f84: 8c 76 5f     	sty	$5f76                   ; 0x5f76 <_spriteCtl+0xe>
     f87: 8c 70 d9     	sty	$d970                   ; 0xd970 <__heap_start+0x77e6>
     f8a: a2 40        	ldx	#$40
     f8c: 86 2f        	stx	$2f                     ; 0x2f <__rc31>
     f8e: 9c 71 d9     	stz	$d971                   ; 0xd971 <__heap_start+0x77e7>
     f91: a2 1e        	ldx	#$1e
     f93: 8e 72 d9     	stx	$d972                   ; 0xd972 <__heap_start+0x77e8>
     f96: 8d 73 d9     	sta	$d973                   ; 0xd973 <__heap_start+0x77e9>
     f99: 8d 0c 60     	sta	$600c                   ; 0x600c <spriteStatuses+0x64>
     f9c: 85 26        	sta	$26                     ; 0x26 <__rc22>
     f9e: a2 64        	ldx	#$64
     fa0: 86 28        	stx	$28                     ; 0x28 <__rc24>
     fa2: 8e 24 d9     	stx	$d924                   ; 0xd924 <__heap_start+0x779a>
     fa5: 9c 25 d9     	stz	$d925                   ; 0xd925 <__heap_start+0x779b>
     fa8: a2 6e        	ldx	#$6e
     faa: 8e 26 d9     	stx	$d926                   ; 0xd926 <__heap_start+0x779c>
     fad: 9c 27 d9     	stz	$d927                   ; 0xd927 <__heap_start+0x779d>
     fb0: a9 01        	lda	#$1
     fb2: 0d 6c 5f     	ora	$5f6c                   ; 0x5f6c <_spriteCtl+0x4>
     fb5: 8d 20 d9     	sta	$d920                   ; 0xd920 <__heap_start+0x7796>
     fb8: a9 01        	lda	#$1
     fba: 0d 76 5f     	ora	$5f76                   ; 0x5f76 <_spriteCtl+0xe>
     fbd: 8d 70 d9     	sta	$d970                   ; 0xd970 <__heap_start+0x77e6>
     fc0: a0 54        	ldy	#$54
     fc2: 8c 24 d9     	sty	$d924                   ; 0xd924 <__heap_start+0x779a>
     fc5: 9c 25 d9     	stz	$d925                   ; 0xd925 <__heap_start+0x779b>
     fc8: 8e 26 d9     	stx	$d926                   ; 0xd926 <__heap_start+0x779c>
     fcb: 9c 27 d9     	stz	$d927                   ; 0xd927 <__heap_start+0x779d>
     fce: a0 14        	ldy	#$14
     fd0: 8c 0f 60     	sty	$600f                   ; 0x600f <spriteStatuses+0x67>
     fd3: a4 28        	ldy	$28                     ; 0x28 <__rc24>
     fd5: 8c 08 60     	sty	$6008                   ; 0x6008 <spriteStatuses+0x60>
     fd8: 8e 0a 60     	stx	$600a                   ; 0x600a <spriteStatuses+0x62>
     fdb: 9c 0e 60     	stz	$600e                   ; 0x600e <spriteStatuses+0x66>
     fde: a6 26        	ldx	$26                     ; 0x26 <__rc22>
     fe0: 8e 10 60     	stx	$6010                   ; 0x6010 <spriteStatuses+0x68>
     fe3: 9c 11 60     	stz	$6011                   ; 0x6011 <spriteStatuses+0x69>
     fe6: 9c 12 60     	stz	$6012                   ; 0x6012 <spriteStatuses+0x6a>
     fe9: 9c 0d 60     	stz	$600d                   ; 0x600d <spriteStatuses+0x65>
     fec: 9c 09 60     	stz	$6009                   ; 0x6009 <spriteStatuses+0x61>
     fef: 9c 0b 60     	stz	$600b                   ; 0x600b <spriteStatuses+0x63>
     ff2: 9c 13 60     	stz	$6013                   ; 0x6013 <spriteStatuses+0x6b>
     ff5: 9c 14 60     	stz	$6014                   ; 0x6014 <spriteStatuses+0x6c>
     ff8: 9c 15 60     	stz	$6015                   ; 0x6015 <spriteStatuses+0x6d>
     ffb: 9c 16 60     	stz	$6016                   ; 0x6016 <spriteStatuses+0x6e>
     ffe: 9c 17 60     	stz	$6017                   ; 0x6017 <spriteStatuses+0x6f>
    1001: a2 04        	ldx	#$4
    1003: 8e 19 60     	stx	$6019                   ; 0x6019 <spriteStatuses+0x71>
    1006: 9c 1b 60     	stz	$601b                   ; 0x601b <spriteStatuses+0x73>
    1009: a2 00        	ldx	#$0
    100b: a9 06        	lda	#$6
    100d: 20 14 37     	jsr	$3714 <malloc>
    1010: a6 12        	ldx	$12                     ; 0x12 <__zp_bss_size>
    1012: a4 13        	ldy	$13                     ; 0x13 <__rc3>
    1014: 8e 1c 60     	stx	$601c                   ; 0x601c <spriteStatuses+0x74>
    1017: 8c 1d 60     	sty	$601d                   ; 0x601d <spriteStatuses+0x75>
    101a: a2 00        	ldx	#$0
    101c: a9 06        	lda	#$6
    101e: 20 14 37     	jsr	$3714 <malloc>
    1021: a6 12        	ldx	$12                     ; 0x12 <__zp_bss_size>
    1023: 8e 1e 60     	stx	$601e                   ; 0x601e <spriteStatuses+0x76>
    1026: a6 13        	ldx	$13                     ; 0x13 <__rc3>
    1028: 8e 1f 60     	stx	$601f                   ; 0x601f <spriteStatuses+0x77>
    102b: ae 1c 60     	ldx	$601c                   ; 0x601c <spriteStatuses+0x74>
    102e: 86 12        	stx	$12                     ; 0x12 <__zp_bss_size>
    1030: ae 1d 60     	ldx	$601d                   ; 0x601d <spriteStatuses+0x75>
    1033: 86 13        	stx	$13                     ; 0x13 <__rc3>
    1035: a9 00        	lda	#$0
    1037: 92 12        	sta	($12)                   ; 0x12 <__zp_bss_size>
    1039: ae 1e 60     	ldx	$601e                   ; 0x601e <spriteStatuses+0x76>
    103c: 86 12        	stx	$12                     ; 0x12 <__zp_bss_size>
    103e: ae 1f 60     	ldx	$601f                   ; 0x601f <spriteStatuses+0x77>
    1041: 86 13        	stx	$13                     ; 0x13 <__rc3>
    1043: 92 12        	sta	($12)                   ; 0x12 <__zp_bss_size>
    1045: ae 1c 60     	ldx	$601c                   ; 0x601c <spriteStatuses+0x74>
    1048: 86 12        	stx	$12                     ; 0x12 <__zp_bss_size>
    104a: ae 1d 60     	ldx	$601d                   ; 0x601d <spriteStatuses+0x75>
    104d: 86 13        	stx	$13                     ; 0x13 <__rc3>
    104f: a0 01        	ldy	#$1
    1051: a5 2e        	lda	$2e                     ; 0x2e <__rc30>
    1053: 91 12        	sta	($12),y                 ; 0x12 <__zp_bss_size>
    1055: ae 1e 60     	ldx	$601e                   ; 0x601e <spriteStatuses+0x76>
    1058: 86 12        	stx	$12                     ; 0x12 <__zp_bss_size>
    105a: ae 1f 60     	ldx	$601f                   ; 0x601f <spriteStatuses+0x77>
    105d: 86 13        	stx	$13                     ; 0x13 <__rc3>
    105f: 91 12        	sta	($12),y                 ; 0x12 <__zp_bss_size>
    1061: 85 15        	sta	$15                     ; 0x15 <__rc5>
    1063: a2 01        	ldx	#$1
    1065: 86 2e        	stx	$2e                     ; 0x2e <__rc30>
    1067: ae 1c 60     	ldx	$601c                   ; 0x601c <spriteStatuses+0x74>
    106a: 86 12        	stx	$12                     ; 0x12 <__zp_bss_size>
    106c: ae 1d 60     	ldx	$601d                   ; 0x601d <spriteStatuses+0x75>
    106f: 86 13        	stx	$13                     ; 0x13 <__rc3>
    1071: c8           	iny
    1072: a9 00        	lda	#$0
    1074: 91 12        	sta	($12),y                 ; 0x12 <__zp_bss_size>
    1076: ae 1e 60     	ldx	$601e                   ; 0x601e <spriteStatuses+0x76>
    1079: 86 12        	stx	$12                     ; 0x12 <__zp_bss_size>
    107b: ae 1f 60     	ldx	$601f                   ; 0x601f <spriteStatuses+0x77>
    107e: 86 13        	stx	$13                     ; 0x13 <__rc3>
    1080: a5 26        	lda	$26                     ; 0x26 <__rc22>
    1082: 91 12        	sta	($12),y                 ; 0x12 <__zp_bss_size>
    1084: 85 14        	sta	$14                     ; 0x14 <__rc4>
    1086: a2 02        	ldx	#$2
    1088: 86 2a        	stx	$2a                     ; 0x2a <__rc26>
    108a: ae 1c 60     	ldx	$601c                   ; 0x601c <spriteStatuses+0x74>
    108d: 86 12        	stx	$12                     ; 0x12 <__zp_bss_size>
    108f: ae 1d 60     	ldx	$601d                   ; 0x601d <spriteStatuses+0x75>
    1092: 86 13        	stx	$13                     ; 0x13 <__rc3>
    1094: a4 2c        	ldy	$2c                     ; 0x2c <__rc28>
    1096: a5 15        	lda	$15                     ; 0x15 <__rc5>
    1098: 91 12        	sta	($12),y                 ; 0x12 <__zp_bss_size>
    109a: ae 1e 60     	ldx	$601e                   ; 0x601e <spriteStatuses+0x76>
    109d: ac 1f 60     	ldy	$601f                   ; 0x601f <spriteStatuses+0x77>
    10a0: 86 12        	stx	$12                     ; 0x12 <__zp_bss_size>
    10a2: 84 13        	sty	$13                     ; 0x13 <__rc3>
    10a4: a5 27        	lda	$27                     ; 0x27 <__rc23>
    10a6: a4 2c        	ldy	$2c                     ; 0x2c <__rc28>
    10a8: 91 12        	sta	($12),y                 ; 0x12 <__zp_bss_size>
    10aa: 85 15        	sta	$15                     ; 0x15 <__rc5>
    10ac: ae 1c 60     	ldx	$601c                   ; 0x601c <spriteStatuses+0x74>
    10af: ac 1d 60     	ldy	$601d                   ; 0x601d <spriteStatuses+0x75>
    10b2: 86 12        	stx	$12                     ; 0x12 <__zp_bss_size>
    10b4: 84 13        	sty	$13                     ; 0x13 <__rc3>
    10b6: a4 2d        	ldy	$2d                     ; 0x2d <__rc29>
    10b8: a5 14        	lda	$14                     ; 0x14 <__rc4>
    10ba: 91 12        	sta	($12),y                 ; 0x12 <__zp_bss_size>
    10bc: ae 1e 60     	ldx	$601e                   ; 0x601e <spriteStatuses+0x76>
    10bf: ac 1f 60     	ldy	$601f                   ; 0x601f <spriteStatuses+0x77>
    10c2: 86 12        	stx	$12                     ; 0x12 <__zp_bss_size>
    10c4: 84 13        	sty	$13                     ; 0x13 <__rc3>
    10c6: a4 2d        	ldy	$2d                     ; 0x2d <__rc29>
    10c8: 91 12        	sta	($12),y                 ; 0x12 <__zp_bss_size>
    10ca: ae 1c 60     	ldx	$601c                   ; 0x601c <spriteStatuses+0x74>
    10cd: ac 1d 60     	ldy	$601d                   ; 0x601d <spriteStatuses+0x75>
    10d0: 86 12        	stx	$12                     ; 0x12 <__zp_bss_size>
    10d2: 84 13        	sty	$13                     ; 0x13 <__rc3>
    10d4: a4 2b        	ldy	$2b                     ; 0x2b <__rc27>
    10d6: a5 15        	lda	$15                     ; 0x15 <__rc5>
    10d8: 91 12        	sta	($12),y                 ; 0x12 <__zp_bss_size>
    10da: ae 1e 60     	ldx	$601e                   ; 0x601e <spriteStatuses+0x76>
    10dd: ac 1f 60     	ldy	$601f                   ; 0x601f <spriteStatuses+0x77>
    10e0: 86 12        	stx	$12                     ; 0x12 <__zp_bss_size>
    10e2: 84 13        	sty	$13                     ; 0x13 <__rc3>
    10e4: a4 2b        	ldy	$2b                     ; 0x2b <__rc27>
    10e6: 91 12        	sta	($12),y                 ; 0x12 <__zp_bss_size>
    10e8: 85 2b        	sta	$2b                     ; 0x2b <__rc27>
    10ea: a4 2f        	ldy	$2f                     ; 0x2f <__rc31>
    10ec: 8c 72 5f     	sty	$5f72                   ; 0x5f72 <_spriteCtl+0xa>
    10ef: 8c 50 d9     	sty	$d950                   ; 0xd950 <__heap_start+0x77c6>
    10f2: 9c 51 d9     	stz	$d951                   ; 0xd951 <__heap_start+0x77c7>
    10f5: a2 31        	ldx	#$31
    10f7: 8e 52 d9     	stx	$d952                   ; 0xd952 <__heap_start+0x77c8>
    10fa: 86 2c        	stx	$2c                     ; 0x2c <__rc28>
    10fc: a5 14        	lda	$14                     ; 0x14 <__rc4>
    10fe: 8d 53 d9     	sta	$d953                   ; 0xd953 <__heap_start+0x77c9>
    1101: 8c 7c 5f     	sty	$5f7c                   ; 0x5f7c <_spriteCtl+0x14>
    1104: 8c a0 d9     	sty	$d9a0                   ; 0xd9a0 <__heap_start+0x7816>
    1107: 9c a1 d9     	stz	$d9a1                   ; 0xd9a1 <__heap_start+0x7817>
    110a: a2 3a        	ldx	#$3a
    110c: 8e a2 d9     	stx	$d9a2                   ; 0xd9a2 <__heap_start+0x7818>
    110f: 86 2d        	stx	$2d                     ; 0x2d <__rc29>
    1111: 8d a3 d9     	sta	$d9a3                   ; 0xd9a3 <__heap_start+0x7819>
    1114: 8d 9c 60     	sta	$609c                   ; 0x609c <spriteStatuses+0xf4>
    1117: 9c 54 d9     	stz	$d954                   ; 0xd954 <__heap_start+0x77ca>
    111a: 9c 55 d9     	stz	$d955                   ; 0xd955 <__heap_start+0x77cb>
    111d: 9c 56 d9     	stz	$d956                   ; 0xd956 <__heap_start+0x77cc>
    1120: 9c 57 d9     	stz	$d957                   ; 0xd957 <__heap_start+0x77cd>
    1123: ae 72 5f     	ldx	$5f72                   ; 0x5f72 <_spriteCtl+0xa>
    1126: 8e 50 d9     	stx	$d950                   ; 0xd950 <__heap_start+0x77c6>
    1129: ae 7c 5f     	ldx	$5f7c                   ; 0x5f7c <_spriteCtl+0x14>
    112c: 8e a0 d9     	stx	$d9a0                   ; 0xd9a0 <__heap_start+0x7816>
    112f: a2 f0        	ldx	#$f0
    1131: 8e 54 d9     	stx	$d954                   ; 0xd954 <__heap_start+0x77ca>
    1134: 86 2f        	stx	$2f                     ; 0x2f <__rc31>
    1136: a2 ff        	ldx	#$ff
    1138: 8e 55 d9     	stx	$d955                   ; 0xd955 <__heap_start+0x77cb>
    113b: 86 27        	stx	$27                     ; 0x27 <__rc23>
    113d: 9c 56 d9     	stz	$d956                   ; 0xd956 <__heap_start+0x77cc>
    1140: 9c 57 d9     	stz	$d957                   ; 0xd957 <__heap_start+0x77cd>
    1143: 9c 9e 60     	stz	$609e                   ; 0x609e <spriteStatuses+0xf6>
    1146: a2 0a        	ldx	#$a
    1148: 8e a9 60     	stx	$60a9                   ; 0x60a9 <spriteStatuses+0x101>
    114b: a2 30        	ldx	#$30
    114d: 8e 9f 60     	stx	$609f                   ; 0x609f <spriteStatuses+0xf7>
    1150: 86 28        	stx	$28                     ; 0x28 <__rc24>
    1152: 8d a0 60     	sta	$60a0                   ; 0x60a0 <spriteStatuses+0xf8>
    1155: 9c a1 60     	stz	$60a1                   ; 0x60a1 <spriteStatuses+0xf9>
    1158: 9c 9d 60     	stz	$609d                   ; 0x609d <spriteStatuses+0xf5>
    115b: 9c 98 60     	stz	$6098                   ; 0x6098 <spriteStatuses+0xf0>
    115e: 9c 99 60     	stz	$6099                   ; 0x6099 <spriteStatuses+0xf1>
    1161: 9c 9a 60     	stz	$609a                   ; 0x609a <spriteStatuses+0xf2>
    1164: 9c 9b 60     	stz	$609b                   ; 0x609b <spriteStatuses+0xf3>
    1167: 9c a2 60     	stz	$60a2                   ; 0x60a2 <spriteStatuses+0xfa>
    116a: 9c a3 60     	stz	$60a3                   ; 0x60a3 <spriteStatuses+0xfb>
    116d: 9c a4 60     	stz	$60a4                   ; 0x60a4 <spriteStatuses+0xfc>
    1170: 9c a5 60     	stz	$60a5                   ; 0x60a5 <spriteStatuses+0xfd>
    1173: 9c a6 60     	stz	$60a6                   ; 0x60a6 <spriteStatuses+0xfe>
    1176: 9c a7 60     	stz	$60a7                   ; 0x60a7 <spriteStatuses+0xff>
    1179: 9c ab 60     	stz	$60ab                   ; 0x60ab <spriteStatuses+0x103>
    117c: a2 00        	ldx	#$0
    117e: a5 2a        	lda	$2a                     ; 0x2a <__rc26>
    1180: 20 14 37     	jsr	$3714 <malloc>
    1183: a6 12        	ldx	$12                     ; 0x12 <__zp_bss_size>
    1185: a4 13        	ldy	$13                     ; 0x13 <__rc3>
    1187: 8e ac 60     	stx	$60ac                   ; 0x60ac <spriteStatuses+0x104>
    118a: 8c ad 60     	sty	$60ad                   ; 0x60ad <spriteStatuses+0x105>
    118d: a2 00        	ldx	#$0
    118f: a5 2a        	lda	$2a                     ; 0x2a <__rc26>
    1191: 20 14 37     	jsr	$3714 <malloc>
    1194: a6 12        	ldx	$12                     ; 0x12 <__zp_bss_size>
    1196: a4 13        	ldy	$13                     ; 0x13 <__rc3>
    1198: 8e ae 60     	stx	$60ae                   ; 0x60ae <spriteStatuses+0x106>
    119b: 8c af 60     	sty	$60af                   ; 0x60af <spriteStatuses+0x107>
    119e: ae ac 60     	ldx	$60ac                   ; 0x60ac <spriteStatuses+0x104>
    11a1: ac ad 60     	ldy	$60ad                   ; 0x60ad <spriteStatuses+0x105>
    11a4: 86 12        	stx	$12                     ; 0x12 <__zp_bss_size>
    11a6: 84 13        	sty	$13                     ; 0x13 <__rc3>
    11a8: a9 00        	lda	#$0
    11aa: 92 12        	sta	($12)                   ; 0x12 <__zp_bss_size>
    11ac: ae ae 60     	ldx	$60ae                   ; 0x60ae <spriteStatuses+0x106>
    11af: ac af 60     	ldy	$60af                   ; 0x60af <spriteStatuses+0x107>
    11b2: 86 12        	stx	$12                     ; 0x12 <__zp_bss_size>
    11b4: 84 13        	sty	$13                     ; 0x13 <__rc3>
    11b6: a5 2b        	lda	$2b                     ; 0x2b <__rc27>
    11b8: 92 12        	sta	($12)                   ; 0x12 <__zp_bss_size>
    11ba: ae ac 60     	ldx	$60ac                   ; 0x60ac <spriteStatuses+0x104>
    11bd: ac ad 60     	ldy	$60ad                   ; 0x60ad <spriteStatuses+0x105>
    11c0: 86 12        	stx	$12                     ; 0x12 <__zp_bss_size>
    11c2: 84 13        	sty	$13                     ; 0x13 <__rc3>
    11c4: a4 2e        	ldy	$2e                     ; 0x2e <__rc30>
    11c6: a9 04        	lda	#$4
    11c8: 91 12        	sta	($12),y                 ; 0x12 <__zp_bss_size>
    11ca: ae ae 60     	ldx	$60ae                   ; 0x60ae <spriteStatuses+0x106>
    11cd: ad af 60     	lda	$60af                   ; 0x60af <spriteStatuses+0x107>
    11d0: 86 12        	stx	$12                     ; 0x12 <__zp_bss_size>
    11d2: 85 13        	sta	$13                     ; 0x13 <__rc3>
    11d4: a9 07        	lda	#$7
    11d6: 91 12        	sta	($12),y                 ; 0x12 <__zp_bss_size>
    11d8: aa           	tax
    11d9: 86 2e        	stx	$2e                     ; 0x2e <__rc30>
    11db: a2 40        	ldx	#$40
    11dd: 8e 73 5f     	stx	$5f73                   ; 0x5f73 <_spriteCtl+0xb>
    11e0: 8e 58 d9     	stx	$d958                   ; 0xd958 <__heap_start+0x77ce>
    11e3: 9c 59 d9     	stz	$d959                   ; 0xd959 <__heap_start+0x77cf>
    11e6: a4 2c        	ldy	$2c                     ; 0x2c <__rc28>
    11e8: 8c 5a d9     	sty	$d95a                   ; 0xd95a <__heap_start+0x77d0>
    11eb: a0 01        	ldy	#$1
    11ed: 8c 5b d9     	sty	$d95b                   ; 0xd95b <__heap_start+0x77d1>
    11f0: 8e 7d 5f     	stx	$5f7d                   ; 0x5f7d <_spriteCtl+0x15>
    11f3: 8e a8 d9     	stx	$d9a8                   ; 0xd9a8 <__heap_start+0x781e>
    11f6: 86 26        	stx	$26                     ; 0x26 <__rc22>
    11f8: 9c a9 d9     	stz	$d9a9                   ; 0xd9a9 <__heap_start+0x781f>
    11fb: a6 2d        	ldx	$2d                     ; 0x2d <__rc29>
    11fd: 8e aa d9     	stx	$d9aa                   ; 0xd9aa <__heap_start+0x7820>
    1200: 8c ab d9     	sty	$d9ab                   ; 0xd9ab <__heap_start+0x7821>
    1203: 8c b4 60     	sty	$60b4                   ; 0x60b4 <spriteStatuses+0x10c>
    1206: 9c 5c d9     	stz	$d95c                   ; 0xd95c <__heap_start+0x77d2>
    1209: 9c 5d d9     	stz	$d95d                   ; 0xd95d <__heap_start+0x77d3>
    120c: 9c 5e d9     	stz	$d95e                   ; 0xd95e <__heap_start+0x77d4>
    120f: 9c 5f d9     	stz	$d95f                   ; 0xd95f <__heap_start+0x77d5>
    1212: ae 73 5f     	ldx	$5f73                   ; 0x5f73 <_spriteCtl+0xb>
    1215: 8e 58 d9     	stx	$d958                   ; 0xd958 <__heap_start+0x77ce>
    1218: ae 7d 5f     	ldx	$5f7d                   ; 0x5f7d <_spriteCtl+0x15>
    121b: 8e a8 d9     	stx	$d9a8                   ; 0xd9a8 <__heap_start+0x781e>
    121e: a6 2f        	ldx	$2f                     ; 0x2f <__rc31>
    1220: 8e 5c d9     	stx	$d95c                   ; 0xd95c <__heap_start+0x77d2>
    1223: a6 27        	ldx	$27                     ; 0x27 <__rc23>
    1225: 8e 5d d9     	stx	$d95d                   ; 0xd95d <__heap_start+0x77d3>
    1228: 9c 5e d9     	stz	$d95e                   ; 0xd95e <__heap_start+0x77d4>
    122b: 9c 5f d9     	stz	$d95f                   ; 0xd95f <__heap_start+0x77d5>
    122e: a2 0b        	ldx	#$b
    1230: 8e c1 60     	stx	$60c1                   ; 0x60c1 <spriteStatuses+0x119>
    1233: 9c b6 60     	stz	$60b6                   ; 0x60b6 <spriteStatuses+0x10e>
    1236: a6 28        	ldx	$28                     ; 0x28 <__rc24>
    1238: 8e b7 60     	stx	$60b7                   ; 0x60b7 <spriteStatuses+0x10f>
    123b: 8c b8 60     	sty	$60b8                   ; 0x60b8 <spriteStatuses+0x110>
    123e: 9c b9 60     	stz	$60b9                   ; 0x60b9 <spriteStatuses+0x111>
    1241: 9c b5 60     	stz	$60b5                   ; 0x60b5 <spriteStatuses+0x10d>
    1244: 9c b0 60     	stz	$60b0                   ; 0x60b0 <spriteStatuses+0x108>
    1247: 9c b1 60     	stz	$60b1                   ; 0x60b1 <spriteStatuses+0x109>
    124a: 9c b2 60     	stz	$60b2                   ; 0x60b2 <spriteStatuses+0x10a>
    124d: 9c b3 60     	stz	$60b3                   ; 0x60b3 <spriteStatuses+0x10b>
    1250: 9c ba 60     	stz	$60ba                   ; 0x60ba <spriteStatuses+0x112>
    1253: 9c bb 60     	stz	$60bb                   ; 0x60bb <spriteStatuses+0x113>
    1256: 9c bc 60     	stz	$60bc                   ; 0x60bc <spriteStatuses+0x114>
    1259: 9c bd 60     	stz	$60bd                   ; 0x60bd <spriteStatuses+0x115>
    125c: 9c be 60     	stz	$60be                   ; 0x60be <spriteStatuses+0x116>
    125f: 9c bf 60     	stz	$60bf                   ; 0x60bf <spriteStatuses+0x117>
    1262: 9c c3 60     	stz	$60c3                   ; 0x60c3 <spriteStatuses+0x11b>
    1265: a2 00        	ldx	#$0
    1267: a5 2a        	lda	$2a                     ; 0x2a <__rc26>
    1269: 20 14 37     	jsr	$3714 <malloc>
    126c: a6 12        	ldx	$12                     ; 0x12 <__zp_bss_size>
    126e: a4 13        	ldy	$13                     ; 0x13 <__rc3>
    1270: 8e c4 60     	stx	$60c4                   ; 0x60c4 <spriteStatuses+0x11c>
    1273: 8c c5 60     	sty	$60c5                   ; 0x60c5 <spriteStatuses+0x11d>
    1276: a2 00        	ldx	#$0
    1278: a5 2a        	lda	$2a                     ; 0x2a <__rc26>
    127a: 20 14 37     	jsr	$3714 <malloc>
    127d: a6 12        	ldx	$12                     ; 0x12 <__zp_bss_size>
    127f: 8e c6 60     	stx	$60c6                   ; 0x60c6 <spriteStatuses+0x11e>
    1282: a6 13        	ldx	$13                     ; 0x13 <__rc3>
    1284: 8e c7 60     	stx	$60c7                   ; 0x60c7 <spriteStatuses+0x11f>
    1287: ae c4 60     	ldx	$60c4                   ; 0x60c4 <spriteStatuses+0x11c>
    128a: 86 12        	stx	$12                     ; 0x12 <__zp_bss_size>
    128c: ae c5 60     	ldx	$60c5                   ; 0x60c5 <spriteStatuses+0x11d>
    128f: 86 13        	stx	$13                     ; 0x13 <__rc3>
    1291: a9 00        	lda	#$0
    1293: 92 12        	sta	($12)                   ; 0x12 <__zp_bss_size>
    1295: ae c6 60     	ldx	$60c6                   ; 0x60c6 <spriteStatuses+0x11e>
    1298: 86 12        	stx	$12                     ; 0x12 <__zp_bss_size>
    129a: ae c7 60     	ldx	$60c7                   ; 0x60c7 <spriteStatuses+0x11f>
    129d: 86 13        	stx	$13                     ; 0x13 <__rc3>
    129f: a5 2b        	lda	$2b                     ; 0x2b <__rc27>
    12a1: 92 12        	sta	($12)                   ; 0x12 <__zp_bss_size>
    12a3: ae c4 60     	ldx	$60c4                   ; 0x60c4 <spriteStatuses+0x11c>
    12a6: 86 12        	stx	$12                     ; 0x12 <__zp_bss_size>
    12a8: ae c5 60     	ldx	$60c5                   ; 0x60c5 <spriteStatuses+0x11d>
    12ab: 86 13        	stx	$13                     ; 0x13 <__rc3>
    12ad: a0 01        	ldy	#$1
    12af: a9 04        	lda	#$4
    12b1: 91 12        	sta	($12),y                 ; 0x12 <__zp_bss_size>
    12b3: ae c6 60     	ldx	$60c6                   ; 0x60c6 <spriteStatuses+0x11e>
    12b6: 86 12        	stx	$12                     ; 0x12 <__zp_bss_size>
    12b8: ae c7 60     	ldx	$60c7                   ; 0x60c7 <spriteStatuses+0x11f>
    12bb: 86 13        	stx	$13                     ; 0x13 <__rc3>
    12bd: a5 2e        	lda	$2e                     ; 0x2e <__rc30>
    12bf: 91 12        	sta	($12),y                 ; 0x12 <__zp_bss_size>
    12c1: a2 01        	ldx	#$1
    12c3: 86 29        	stx	$29                     ; 0x29 <__rc25>
    12c5: a4 26        	ldy	$26                     ; 0x26 <__rc22>
    12c7: 8c 74 5f     	sty	$5f74                   ; 0x5f74 <_spriteCtl+0xc>
    12ca: 8c 60 d9     	sty	$d960                   ; 0xd960 <__heap_start+0x77d6>
    12cd: 9c 61 d9     	stz	$d961                   ; 0xd961 <__heap_start+0x77d7>
    12d0: a6 2c        	ldx	$2c                     ; 0x2c <__rc28>
    12d2: 8e 62 d9     	stx	$d962                   ; 0xd962 <__heap_start+0x77d8>
    12d5: a2 01        	ldx	#$1
    12d7: 8e 63 d9     	stx	$d963                   ; 0xd963 <__heap_start+0x77d9>
    12da: 8c 7e 5f     	sty	$5f7e                   ; 0x5f7e <_spriteCtl+0x16>
    12dd: 8c b0 d9     	sty	$d9b0                   ; 0xd9b0 <__heap_start+0x7826>
    12e0: 9c b1 d9     	stz	$d9b1                   ; 0xd9b1 <__heap_start+0x7827>
    12e3: a4 2d        	ldy	$2d                     ; 0x2d <__rc29>
    12e5: 8c b2 d9     	sty	$d9b2                   ; 0xd9b2 <__heap_start+0x7828>
    12e8: 8e b3 d9     	stx	$d9b3                   ; 0xd9b3 <__heap_start+0x7829>
    12eb: 8e cc 60     	stx	$60cc                   ; 0x60cc <spriteStatuses+0x124>
    12ee: a0 01        	ldy	#$1
    12f0: 9c 64 d9     	stz	$d964                   ; 0xd964 <__heap_start+0x77da>
    12f3: 9c 65 d9     	stz	$d965                   ; 0xd965 <__heap_start+0x77db>
    12f6: 9c 66 d9     	stz	$d966                   ; 0xd966 <__heap_start+0x77dc>
    12f9: 9c 67 d9     	stz	$d967                   ; 0xd967 <__heap_start+0x77dd>
    12fc: ae 74 5f     	ldx	$5f74                   ; 0x5f74 <_spriteCtl+0xc>
    12ff: 8e 60 d9     	stx	$d960                   ; 0xd960 <__heap_start+0x77d6>
    1302: ae 7e 5f     	ldx	$5f7e                   ; 0x5f7e <_spriteCtl+0x16>
    1305: 8e b0 d9     	stx	$d9b0                   ; 0xd9b0 <__heap_start+0x7826>
    1308: a6 2f        	ldx	$2f                     ; 0x2f <__rc31>
    130a: 8e 64 d9     	stx	$d964                   ; 0xd964 <__heap_start+0x77da>
    130d: a6 27        	ldx	$27                     ; 0x27 <__rc23>
    130f: 8e 65 d9     	stx	$d965                   ; 0xd965 <__heap_start+0x77db>
    1312: 9c 66 d9     	stz	$d966                   ; 0xd966 <__heap_start+0x77dc>
    1315: 9c 67 d9     	stz	$d967                   ; 0xd967 <__heap_start+0x77dd>
    1318: a2 0c        	ldx	#$c
    131a: 8e d9 60     	stx	$60d9                   ; 0x60d9 <spriteStatuses+0x131>
    131d: 9c ce 60     	stz	$60ce                   ; 0x60ce <spriteStatuses+0x126>
    1320: a6 28        	ldx	$28                     ; 0x28 <__rc24>
    1322: 8e cf 60     	stx	$60cf                   ; 0x60cf <spriteStatuses+0x127>
    1325: 8c d0 60     	sty	$60d0                   ; 0x60d0 <spriteStatuses+0x128>
    1328: 9c d1 60     	stz	$60d1                   ; 0x60d1 <spriteStatuses+0x129>
    132b: 9c cd 60     	stz	$60cd                   ; 0x60cd <spriteStatuses+0x125>
    132e: 9c c8 60     	stz	$60c8                   ; 0x60c8 <spriteStatuses+0x120>
    1331: 9c c9 60     	stz	$60c9                   ; 0x60c9 <spriteStatuses+0x121>
    1334: 9c ca 60     	stz	$60ca                   ; 0x60ca <spriteStatuses+0x122>
    1337: 9c cb 60     	stz	$60cb                   ; 0x60cb <spriteStatuses+0x123>
    133a: 9c d2 60     	stz	$60d2                   ; 0x60d2 <spriteStatuses+0x12a>
    133d: 9c d3 60     	stz	$60d3                   ; 0x60d3 <spriteStatuses+0x12b>
    1340: 9c d4 60     	stz	$60d4                   ; 0x60d4 <spriteStatuses+0x12c>
    1343: 9c d5 60     	stz	$60d5                   ; 0x60d5 <spriteStatuses+0x12d>
    1346: 9c d6 60     	stz	$60d6                   ; 0x60d6 <spriteStatuses+0x12e>
    1349: 9c d7 60     	stz	$60d7                   ; 0x60d7 <spriteStatuses+0x12f>
    134c: 9c db 60     	stz	$60db                   ; 0x60db <spriteStatuses+0x133>
    134f: a2 00        	ldx	#$0
    1351: a5 2a        	lda	$2a                     ; 0x2a <__rc26>
    1353: 20 14 37     	jsr	$3714 <malloc>
    1356: a6 12        	ldx	$12                     ; 0x12 <__zp_bss_size>
    1358: a4 13        	ldy	$13                     ; 0x13 <__rc3>
    135a: 8e dc 60     	stx	$60dc                   ; 0x60dc <spriteStatuses+0x134>
    135d: 8c dd 60     	sty	$60dd                   ; 0x60dd <spriteStatuses+0x135>
    1360: a2 00        	ldx	#$0
    1362: a5 2a        	lda	$2a                     ; 0x2a <__rc26>
    1364: 20 14 37     	jsr	$3714 <malloc>
    1367: a6 12        	ldx	$12                     ; 0x12 <__zp_bss_size>
    1369: 8e de 60     	stx	$60de                   ; 0x60de <spriteStatuses+0x136>
    136c: a6 13        	ldx	$13                     ; 0x13 <__rc3>
    136e: 8e df 60     	stx	$60df                   ; 0x60df <spriteStatuses+0x137>
    1371: ae dc 60     	ldx	$60dc                   ; 0x60dc <spriteStatuses+0x134>
    1374: 86 12        	stx	$12                     ; 0x12 <__zp_bss_size>
    1376: ae dd 60     	ldx	$60dd                   ; 0x60dd <spriteStatuses+0x135>
    1379: 86 13        	stx	$13                     ; 0x13 <__rc3>
    137b: a9 00        	lda	#$0
    137d: 92 12        	sta	($12)                   ; 0x12 <__zp_bss_size>
    137f: ae de 60     	ldx	$60de                   ; 0x60de <spriteStatuses+0x136>
    1382: 86 12        	stx	$12                     ; 0x12 <__zp_bss_size>
    1384: ae df 60     	ldx	$60df                   ; 0x60df <spriteStatuses+0x137>
    1387: 86 13        	stx	$13                     ; 0x13 <__rc3>
    1389: a5 2b        	lda	$2b                     ; 0x2b <__rc27>
    138b: 92 12        	sta	($12)                   ; 0x12 <__zp_bss_size>
    138d: ae dc 60     	ldx	$60dc                   ; 0x60dc <spriteStatuses+0x134>
    1390: 86 12        	stx	$12                     ; 0x12 <__zp_bss_size>
    1392: ae dd 60     	ldx	$60dd                   ; 0x60dd <spriteStatuses+0x135>
    1395: 86 13        	stx	$13                     ; 0x13 <__rc3>
    1397: a9 04        	lda	#$4
    1399: a4 29        	ldy	$29                     ; 0x29 <__rc25>
    139b: 91 12        	sta	($12),y                 ; 0x12 <__zp_bss_size>
    139d: ae de 60     	ldx	$60de                   ; 0x60de <spriteStatuses+0x136>
    13a0: 86 12        	stx	$12                     ; 0x12 <__zp_bss_size>
    13a2: ae df 60     	ldx	$60df                   ; 0x60df <spriteStatuses+0x137>
    13a5: 86 13        	stx	$13                     ; 0x13 <__rc3>
    13a7: a5 2e        	lda	$2e                     ; 0x2e <__rc30>
    13a9: 91 12        	sta	($12),y                 ; 0x12 <__zp_bss_size>
    13ab: a2 40        	ldx	#$40
    13ad: 8e 75 5f     	stx	$5f75                   ; 0x5f75 <_spriteCtl+0xd>
    13b0: 8e 68 d9     	stx	$d968                   ; 0xd968 <__heap_start+0x77de>
    13b3: 9c 69 d9     	stz	$d969                   ; 0xd969 <__heap_start+0x77df>
    13b6: a4 2c        	ldy	$2c                     ; 0x2c <__rc28>
    13b8: 8c 6a d9     	sty	$d96a                   ; 0xd96a <__heap_start+0x77e0>
    13bb: a0 01        	ldy	#$1
    13bd: 8c 6b d9     	sty	$d96b                   ; 0xd96b <__heap_start+0x77e1>
    13c0: 8e 7f 5f     	stx	$5f7f                   ; 0x5f7f <_spriteCtl+0x17>
    13c3: 8e b8 d9     	stx	$d9b8                   ; 0xd9b8 <__heap_start+0x782e>
    13c6: 86 26        	stx	$26                     ; 0x26 <__rc22>
    13c8: 9c b9 d9     	stz	$d9b9                   ; 0xd9b9 <__heap_start+0x782f>
    13cb: a6 2d        	ldx	$2d                     ; 0x2d <__rc29>
    13cd: 8e ba d9     	stx	$d9ba                   ; 0xd9ba <__heap_start+0x7830>
    13d0: 8c bb d9     	sty	$d9bb                   ; 0xd9bb <__heap_start+0x7831>
    13d3: 8c e4 60     	sty	$60e4                   ; 0x60e4 <spriteStatuses+0x13c>
    13d6: 9c 6c d9     	stz	$d96c                   ; 0xd96c <__heap_start+0x77e2>
    13d9: 9c 6d d9     	stz	$d96d                   ; 0xd96d <__heap_start+0x77e3>
    13dc: 9c 6e d9     	stz	$d96e                   ; 0xd96e <__heap_start+0x77e4>
    13df: 9c 6f d9     	stz	$d96f                   ; 0xd96f <__heap_start+0x77e5>
    13e2: ae 75 5f     	ldx	$5f75                   ; 0x5f75 <_spriteCtl+0xd>
    13e5: 8e 68 d9     	stx	$d968                   ; 0xd968 <__heap_start+0x77de>
    13e8: ae 7f 5f     	ldx	$5f7f                   ; 0x5f7f <_spriteCtl+0x17>
    13eb: 8e b8 d9     	stx	$d9b8                   ; 0xd9b8 <__heap_start+0x782e>
    13ee: a6 2f        	ldx	$2f                     ; 0x2f <__rc31>
    13f0: 8e 6c d9     	stx	$d96c                   ; 0xd96c <__heap_start+0x77e2>
    13f3: a6 27        	ldx	$27                     ; 0x27 <__rc23>
    13f5: 8e 6d d9     	stx	$d96d                   ; 0xd96d <__heap_start+0x77e3>
    13f8: 9c 6e d9     	stz	$d96e                   ; 0xd96e <__heap_start+0x77e4>
    13fb: 9c 6f d9     	stz	$d96f                   ; 0xd96f <__heap_start+0x77e5>
    13fe: a2 0d        	ldx	#$d
    1400: 8e f1 60     	stx	$60f1                   ; 0x60f1 <spriteStatuses+0x149>
    1403: 9c e6 60     	stz	$60e6                   ; 0x60e6 <spriteStatuses+0x13e>
    1406: a6 28        	ldx	$28                     ; 0x28 <__rc24>
    1408: 8e e7 60     	stx	$60e7                   ; 0x60e7 <spriteStatuses+0x13f>
    140b: 8c e8 60     	sty	$60e8                   ; 0x60e8 <spriteStatuses+0x140>
    140e: 9c e9 60     	stz	$60e9                   ; 0x60e9 <spriteStatuses+0x141>
    1411: 9c e5 60     	stz	$60e5                   ; 0x60e5 <spriteStatuses+0x13d>
    1414: 9c e0 60     	stz	$60e0                   ; 0x60e0 <spriteStatuses+0x138>
    1417: 9c e1 60     	stz	$60e1                   ; 0x60e1 <spriteStatuses+0x139>
    141a: 9c e2 60     	stz	$60e2                   ; 0x60e2 <spriteStatuses+0x13a>
    141d: 9c e3 60     	stz	$60e3                   ; 0x60e3 <spriteStatuses+0x13b>
    1420: 9c ea 60     	stz	$60ea                   ; 0x60ea <spriteStatuses+0x142>
    1423: 9c eb 60     	stz	$60eb                   ; 0x60eb <spriteStatuses+0x143>
    1426: 9c ec 60     	stz	$60ec                   ; 0x60ec <spriteStatuses+0x144>
    1429: 9c ed 60     	stz	$60ed                   ; 0x60ed <spriteStatuses+0x145>
    142c: 9c ee 60     	stz	$60ee                   ; 0x60ee <spriteStatuses+0x146>
    142f: 9c ef 60     	stz	$60ef                   ; 0x60ef <spriteStatuses+0x147>
    1432: 9c f3 60     	stz	$60f3                   ; 0x60f3 <spriteStatuses+0x14b>
    1435: a2 00        	ldx	#$0
    1437: a5 2a        	lda	$2a                     ; 0x2a <__rc26>
    1439: 20 14 37     	jsr	$3714 <malloc>
    143c: a6 12        	ldx	$12                     ; 0x12 <__zp_bss_size>
    143e: a4 13        	ldy	$13                     ; 0x13 <__rc3>
    1440: 8e f4 60     	stx	$60f4                   ; 0x60f4 <spriteStatuses+0x14c>
    1443: 8c f5 60     	sty	$60f5                   ; 0x60f5 <spriteStatuses+0x14d>
    1446: a2 00        	ldx	#$0
    1448: a5 2a        	lda	$2a                     ; 0x2a <__rc26>
    144a: 20 14 37     	jsr	$3714 <malloc>
    144d: a6 12        	ldx	$12                     ; 0x12 <__zp_bss_size>
    144f: 8e f6 60     	stx	$60f6                   ; 0x60f6 <spriteStatuses+0x14e>
    1452: a6 13        	ldx	$13                     ; 0x13 <__rc3>
    1454: 8e f7 60     	stx	$60f7                   ; 0x60f7 <spriteStatuses+0x14f>
    1457: ae f4 60     	ldx	$60f4                   ; 0x60f4 <spriteStatuses+0x14c>
    145a: 86 12        	stx	$12                     ; 0x12 <__zp_bss_size>
    145c: ae f5 60     	ldx	$60f5                   ; 0x60f5 <spriteStatuses+0x14d>
    145f: 86 13        	stx	$13                     ; 0x13 <__rc3>
    1461: a9 00        	lda	#$0
    1463: 92 12        	sta	($12)                   ; 0x12 <__zp_bss_size>
    1465: ae f6 60     	ldx	$60f6                   ; 0x60f6 <spriteStatuses+0x14e>
    1468: 86 12        	stx	$12                     ; 0x12 <__zp_bss_size>
    146a: ae f7 60     	ldx	$60f7                   ; 0x60f7 <spriteStatuses+0x14f>
    146d: 86 13        	stx	$13                     ; 0x13 <__rc3>
    146f: a5 2b        	lda	$2b                     ; 0x2b <__rc27>
    1471: 92 12        	sta	($12)                   ; 0x12 <__zp_bss_size>
    1473: ae f4 60     	ldx	$60f4                   ; 0x60f4 <spriteStatuses+0x14c>
    1476: 86 12        	stx	$12                     ; 0x12 <__zp_bss_size>
    1478: ae f5 60     	ldx	$60f5                   ; 0x60f5 <spriteStatuses+0x14d>
    147b: 86 13        	stx	$13                     ; 0x13 <__rc3>
    147d: a0 01        	ldy	#$1
    147f: a9 04        	lda	#$4
    1481: 91 12        	sta	($12),y                 ; 0x12 <__zp_bss_size>
    1483: ae f6 60     	ldx	$60f6                   ; 0x60f6 <spriteStatuses+0x14e>
    1486: 86 12        	stx	$12                     ; 0x12 <__zp_bss_size>
    1488: ae f7 60     	ldx	$60f7                   ; 0x60f7 <spriteStatuses+0x14f>
    148b: 86 13        	stx	$13                     ; 0x13 <__rc3>
    148d: a5 2e        	lda	$2e                     ; 0x2e <__rc30>
    148f: 91 12        	sta	($12),y                 ; 0x12 <__zp_bss_size>
    1491: a2 01        	ldx	#$1
    1493: 86 29        	stx	$29                     ; 0x29 <__rc25>
    1495: a4 26        	ldy	$26                     ; 0x26 <__rc22>
    1497: 8c 76 5f     	sty	$5f76                   ; 0x5f76 <_spriteCtl+0xe>
    149a: 8c 70 d9     	sty	$d970                   ; 0xd970 <__heap_start+0x77e6>
    149d: 9c 71 d9     	stz	$d971                   ; 0xd971 <__heap_start+0x77e7>
    14a0: a6 2c        	ldx	$2c                     ; 0x2c <__rc28>
    14a2: 8e 72 d9     	stx	$d972                   ; 0xd972 <__heap_start+0x77e8>
    14a5: a2 01        	ldx	#$1
    14a7: 8e 73 d9     	stx	$d973                   ; 0xd973 <__heap_start+0x77e9>
    14aa: 8c 80 5f     	sty	$5f80                   ; 0x5f80 <_spriteCtl+0x18>
    14ad: 8c c0 d9     	sty	$d9c0                   ; 0xd9c0 <__heap_start+0x7836>
    14b0: 9c c1 d9     	stz	$d9c1                   ; 0xd9c1 <__heap_start+0x7837>
    14b3: a4 2d        	ldy	$2d                     ; 0x2d <__rc29>
    14b5: 8c c2 d9     	sty	$d9c2                   ; 0xd9c2 <__heap_start+0x7838>
    14b8: 8e c3 d9     	stx	$d9c3                   ; 0xd9c3 <__heap_start+0x7839>
    14bb: 8e fc 60     	stx	$60fc                   ; 0x60fc <spriteStatuses+0x154>
    14be: a0 01        	ldy	#$1
    14c0: 9c 74 d9     	stz	$d974                   ; 0xd974 <__heap_start+0x77ea>
    14c3: 9c 75 d9     	stz	$d975                   ; 0xd975 <__heap_start+0x77eb>
    14c6: 9c 76 d9     	stz	$d976                   ; 0xd976 <__heap_start+0x77ec>
    14c9: 9c 77 d9     	stz	$d977                   ; 0xd977 <__heap_start+0x77ed>
    14cc: ae 76 5f     	ldx	$5f76                   ; 0x5f76 <_spriteCtl+0xe>
    14cf: 8e 70 d9     	stx	$d970                   ; 0xd970 <__heap_start+0x77e6>
    14d2: ae 80 5f     	ldx	$5f80                   ; 0x5f80 <_spriteCtl+0x18>
    14d5: 8e c0 d9     	stx	$d9c0                   ; 0xd9c0 <__heap_start+0x7836>
    14d8: a6 2f        	ldx	$2f                     ; 0x2f <__rc31>
    14da: 8e 74 d9     	stx	$d974                   ; 0xd974 <__heap_start+0x77ea>
    14dd: a6 27        	ldx	$27                     ; 0x27 <__rc23>
    14df: 8e 75 d9     	stx	$d975                   ; 0xd975 <__heap_start+0x77eb>
    14e2: 9c 76 d9     	stz	$d976                   ; 0xd976 <__heap_start+0x77ec>
    14e5: 9c 77 d9     	stz	$d977                   ; 0xd977 <__heap_start+0x77ed>
    14e8: a6 28        	ldx	$28                     ; 0x28 <__rc24>
    14ea: 8e ff 60     	stx	$60ff                   ; 0x60ff <spriteStatuses+0x157>
    14ed: a2 0e        	ldx	#$e
    14ef: 8e 09 61     	stx	$6109                   ; 0x6109 <spriteStatuses+0x161>
    14f2: 9c fe 60     	stz	$60fe                   ; 0x60fe <spriteStatuses+0x156>
    14f5: 8c 00 61     	sty	$6100                   ; 0x6100 <spriteStatuses+0x158>
    14f8: 9c 01 61     	stz	$6101                   ; 0x6101 <spriteStatuses+0x159>
    14fb: 9c fd 60     	stz	$60fd                   ; 0x60fd <spriteStatuses+0x155>
    14fe: 9c f8 60     	stz	$60f8                   ; 0x60f8 <spriteStatuses+0x150>
    1501: 9c f9 60     	stz	$60f9                   ; 0x60f9 <spriteStatuses+0x151>
    1504: 9c fa 60     	stz	$60fa                   ; 0x60fa <spriteStatuses+0x152>
    1507: 9c fb 60     	stz	$60fb                   ; 0x60fb <spriteStatuses+0x153>
    150a: 9c 02 61     	stz	$6102                   ; 0x6102 <spriteStatuses+0x15a>
    150d: 9c 03 61     	stz	$6103                   ; 0x6103 <spriteStatuses+0x15b>
    1510: 9c 04 61     	stz	$6104                   ; 0x6104 <spriteStatuses+0x15c>
    1513: 9c 05 61     	stz	$6105                   ; 0x6105 <spriteStatuses+0x15d>
    1516: 9c 06 61     	stz	$6106                   ; 0x6106 <spriteStatuses+0x15e>
    1519: 9c 07 61     	stz	$6107                   ; 0x6107 <spriteStatuses+0x15f>
    151c: 9c 0b 61     	stz	$610b                   ; 0x610b <spriteStatuses+0x163>
    151f: a2 00        	ldx	#$0
    1521: a5 2a        	lda	$2a                     ; 0x2a <__rc26>
    1523: 20 14 37     	jsr	$3714 <malloc>
    1526: a6 12        	ldx	$12                     ; 0x12 <__zp_bss_size>
    1528: a4 13        	ldy	$13                     ; 0x13 <__rc3>
    152a: 8e 0c 61     	stx	$610c                   ; 0x610c <spriteStatuses+0x164>
    152d: 8c 0d 61     	sty	$610d                   ; 0x610d <spriteStatuses+0x165>
    1530: a2 00        	ldx	#$0
    1532: a5 2a        	lda	$2a                     ; 0x2a <__rc26>
    1534: 20 14 37     	jsr	$3714 <malloc>
    1537: a6 12        	ldx	$12                     ; 0x12 <__zp_bss_size>
    1539: 8e 0e 61     	stx	$610e                   ; 0x610e <spriteStatuses+0x166>
    153c: a6 13        	ldx	$13                     ; 0x13 <__rc3>
    153e: 8e 0f 61     	stx	$610f                   ; 0x610f <spriteStatuses+0x167>
    1541: ae 0c 61     	ldx	$610c                   ; 0x610c <spriteStatuses+0x164>
    1544: 86 12        	stx	$12                     ; 0x12 <__zp_bss_size>
    1546: ae 0d 61     	ldx	$610d                   ; 0x610d <spriteStatuses+0x165>
    1549: 86 13        	stx	$13                     ; 0x13 <__rc3>
    154b: a9 00        	lda	#$0
    154d: 92 12        	sta	($12)                   ; 0x12 <__zp_bss_size>
    154f: ae 0e 61     	ldx	$610e                   ; 0x610e <spriteStatuses+0x166>
    1552: 86 12        	stx	$12                     ; 0x12 <__zp_bss_size>
    1554: ae 0f 61     	ldx	$610f                   ; 0x610f <spriteStatuses+0x167>
    1557: 86 13        	stx	$13                     ; 0x13 <__rc3>
    1559: a5 2b        	lda	$2b                     ; 0x2b <__rc27>
    155b: 92 12        	sta	($12)                   ; 0x12 <__zp_bss_size>
    155d: ae 0c 61     	ldx	$610c                   ; 0x610c <spriteStatuses+0x164>
    1560: 86 12        	stx	$12                     ; 0x12 <__zp_bss_size>
    1562: ae 0d 61     	ldx	$610d                   ; 0x610d <spriteStatuses+0x165>
    1565: 86 13        	stx	$13                     ; 0x13 <__rc3>
    1567: a9 04        	lda	#$4
    1569: a4 29        	ldy	$29                     ; 0x29 <__rc25>
    156b: 91 12        	sta	($12),y                 ; 0x12 <__zp_bss_size>
    156d: ae 0e 61     	ldx	$610e                   ; 0x610e <spriteStatuses+0x166>
    1570: 86 12        	stx	$12                     ; 0x12 <__zp_bss_size>
    1572: ae 0f 61     	ldx	$610f                   ; 0x610f <spriteStatuses+0x167>
    1575: 86 13        	stx	$13                     ; 0x13 <__rc3>
    1577: a5 2e        	lda	$2e                     ; 0x2e <__rc30>
    1579: 91 12        	sta	($12),y                 ; 0x12 <__zp_bss_size>
    157b: 9c bb 5f     	stz	$5fbb                   ; 0x5fbb <spriteStatuses+0x13>
    157e: a2 01        	ldx	#$1
    1580: 8e ac 5f     	stx	$5fac                   ; 0x5fac <spriteStatuses+0x4>
    1583: 8e d3 5f     	stx	$5fd3                   ; 0x5fd3 <spriteStatuses+0x2b>
    1586: 9c c4 5f     	stz	$5fc4                   ; 0x5fc4 <spriteStatuses+0x1c>
    1589: 9c eb 5f     	stz	$5feb                   ; 0x5feb <spriteStatuses+0x43>
    158c: 8e dc 5f     	stx	$5fdc                   ; 0x5fdc <spriteStatuses+0x34>
    158f: 8e 03 60     	stx	$6003                   ; 0x6003 <spriteStatuses+0x5b>
    1592: 9c f4 5f     	stz	$5ff4                   ; 0x5ff4 <spriteStatuses+0x4c>
    1595: 9c 1b 60     	stz	$601b                   ; 0x601b <spriteStatuses+0x73>
    1598: 8e 0c 60     	stx	$600c                   ; 0x600c <spriteStatuses+0x64>
    159b: 86 26        	stx	$26                     ; 0x26 <__rc22>
    159d: 20 a9 22     	jsr	$22a9 <updateFrames>
    15a0: a2 1f        	ldx	#$1f
    15a2: 8e 20 d6     	stx	$d620                   ; 0xd620 <__heap_start+0x7496>
    15a5: a2 2a        	ldx	#$2a
    15a7: 8e 21 d6     	stx	$d621                   ; 0xd621 <__heap_start+0x7497>
    15aa: a6 26        	ldx	$26                     ; 0x26 <__rc22>
    15ac: 8e 22 d6     	stx	$d622                   ; 0xd622 <__heap_start+0x7498>
    15af: ad 22 d6     	lda	$d622                   ; 0xd622 <__heap_start+0x7498>
    15b2: 29 01        	and	#$1
    15b4: d0 f9        	bne	$15af <main+0x1128>
    15b6: a2 03        	ldx	#$3
    15b8: 8e 01 d7     	stx	$d701                   ; 0xd701 <__heap_start+0x7577>
    15bb: 9c 02 d7     	stz	$d702                   ; 0xd702 <__heap_start+0x7578>
    15be: 9c 02 d7     	stz	$d702                   ; 0xd702 <__heap_start+0x7578>
    15c1: a2 e0        	ldx	#$e0
    15c3: 8e 03 d7     	stx	$d703                   ; 0xd703 <__heap_start+0x7579>
    15c6: a2 01        	ldx	#$1
    15c8: 8e 00 d7     	stx	$d700                   ; 0xd700 <__heap_start+0x7576>
    15cb: 9c 00 d7     	stz	$d700                   ; 0xd700 <__heap_start+0x7576>
    15ce: ae 00 d7     	ldx	$d700                   ; 0xd700 <__heap_start+0x7576>
    15d1: 30 fb        	bmi	$15ce <main+0x1147>
    15d3: 64 12        	stz	$12                     ; 0x12 <__zp_bss_size>
    15d5: a0 01        	ldy	#$1
    15d7: a2 00        	ldx	#$0
    15d9: a5 12        	lda	$12                     ; 0x12 <__zp_bss_size>
    15db: 85 14        	sta	$14                     ; 0x14 <__rc4>
    15dd: a5 12        	lda	$12                     ; 0x12 <__zp_bss_size>
    15df: 0a           	asl
    15e0: 85 12        	sta	$12                     ; 0x12 <__zp_bss_size>
    15e2: 8a           	txa
    15e3: 2a           	rol
    15e4: 85 13        	sta	$13                     ; 0x13 <__rc3>
    15e6: a9 f2        	lda	#$f2
    15e8: 18           	clc
    15e9: 65 12        	adc	$12                     ; 0x12 <__zp_bss_size>
    15eb: 85 12        	sta	$12                     ; 0x12 <__zp_bss_size>
    15ed: a9 3a        	lda	#$3a
    15ef: 65 13        	adc	$13                     ; 0x13 <__rc3>
    15f1: 85 15        	sta	$15                     ; 0x15 <__rc5>
    15f3: a5 12        	lda	$12                     ; 0x12 <__zp_bss_size>
    15f5: 85 17        	sta	$17                     ; 0x17 <__rc7>
    15f7: a5 15        	lda	$15                     ; 0x15 <__rc5>
    15f9: 85 13        	sta	$13                     ; 0x13 <__rc3>
    15fb: b2 12        	lda	($12)                   ; 0x12 <__zp_bss_size>
    15fd: 85 16        	sta	$16                     ; 0x16 <__rc6>
    15ff: a5 14        	lda	$14                     ; 0x14 <__rc4>
    1601: 85 1a        	sta	$1a                     ; 0x1a <__rc10>
    1603: a5 14        	lda	$14                     ; 0x14 <__rc4>
    1605: 18           	clc
    1606: 69 02        	adc	#$2
    1608: 85 19        	sta	$19                     ; 0x19 <__rc9>
    160a: 86 18        	stx	$18                     ; 0x18 <__rc8>
    160c: 8a           	txa
    160d: 69 00        	adc	#$0
    160f: aa           	tax
    1610: 18           	clc
    1611: a5 17        	lda	$17                     ; 0x17 <__rc7>
    1613: 69 02        	adc	#$2
    1615: 85 14        	sta	$14                     ; 0x14 <__rc4>
    1617: a5 15        	lda	$15                     ; 0x15 <__rc5>
    1619: 69 00        	adc	#$0
    161b: 85 15        	sta	$15                     ; 0x15 <__rc5>
    161d: b1 12        	lda	($12),y                 ; 0x12 <__zp_bss_size>
    161f: 85 17        	sta	$17                     ; 0x17 <__rc7>
    1621: 84 1c        	sty	$1c                     ; 0x1c <__rc12>
    1623: a0 02        	ldy	#$2
    1625: b1 12        	lda	($12),y                 ; 0x12 <__zp_bss_size>
    1627: 85 1b        	sta	$1b                     ; 0x1b <__rc11>
    1629: a4 1c        	ldy	$1c                     ; 0x1c <__rc12>
    162b: b1 14        	lda	($14),y                 ; 0x14 <__rc4>
    162d: 10 03        	bpl	$1632 <main+0x11ab>
    162f: 4c bb 16     	jmp	$16bb <main+0x1234>
    1632: 5a           	phy
    1633: a4 1b        	ldy	$1b                     ; 0x1b <__rc11>
    1635: 84 14        	sty	$14                     ; 0x14 <__rc4>
    1637: a4 19        	ldy	$19                     ; 0x19 <__rc9>
    1639: 84 18        	sty	$18                     ; 0x18 <__rc8>
    163b: 7a           	ply
    163c: c9 00        	cmp	#$0
    163e: d0 10        	bne	$1650 <main+0x11c9>
    1640: e6 14        	inc	$14                     ; 0x14 <__rc4>
    1642: c6 14        	dec	$14                     ; 0x14 <__rc4>
    1644: d0 0a        	bne	$1650 <main+0x11c9>
    1646: 4c 45 17     	jmp	$1745 <main+0x12be>
    1649: c9 00        	cmp	#$0
    164b: d0 03        	bne	$1650 <main+0x11c9>
    164d: 4c af 16     	jmp	$16af <main+0x1228>
    1650: 85 15        	sta	$15                     ; 0x15 <__rc5>
    1652: a5 18        	lda	$18                     ; 0x18 <__rc8>
    1654: 85 19        	sta	$19                     ; 0x19 <__rc9>
    1656: a5 18        	lda	$18                     ; 0x18 <__rc8>
    1658: 0a           	asl
    1659: 85 12        	sta	$12                     ; 0x12 <__zp_bss_size>
    165b: 86 18        	stx	$18                     ; 0x18 <__rc8>
    165d: 8a           	txa
    165e: 2a           	rol
    165f: 85 13        	sta	$13                     ; 0x13 <__rc3>
    1661: a9 f2        	lda	#$f2
    1663: 18           	clc
    1664: 65 12        	adc	$12                     ; 0x12 <__zp_bss_size>
    1666: 85 12        	sta	$12                     ; 0x12 <__zp_bss_size>
    1668: a9 3a        	lda	#$3a
    166a: 65 13        	adc	$13                     ; 0x13 <__rc3>
    166c: 85 13        	sta	$13                     ; 0x13 <__rc3>
    166e: b2 12        	lda	($12)                   ; 0x12 <__zp_bss_size>
    1670: 85 1a        	sta	$1a                     ; 0x1a <__rc10>
    1672: b1 12        	lda	($12),y                 ; 0x12 <__zp_bss_size>
    1674: a6 16        	ldx	$16                     ; 0x16 <__rc6>
    1676: 8e 01 d7     	stx	$d701                   ; 0xd701 <__heap_start+0x7577>
    1679: a6 17        	ldx	$17                     ; 0x17 <__rc7>
    167b: 8e 02 d7     	stx	$d702                   ; 0xd702 <__heap_start+0x7578>
    167e: a6 1a        	ldx	$1a                     ; 0x1a <__rc10>
    1680: 8e 02 d7     	stx	$d702                   ; 0xd702 <__heap_start+0x7578>
    1683: 8d 03 d7     	sta	$d703                   ; 0xd703 <__heap_start+0x7579>
    1686: 8c 00 d7     	sty	$d700                   ; 0xd700 <__heap_start+0x7576>
    1689: 9c 00 d7     	stz	$d700                   ; 0xd700 <__heap_start+0x7576>
    168c: ae 00 d7     	ldx	$d700                   ; 0xd700 <__heap_start+0x7576>
    168f: 30 fb        	bmi	$168c <main+0x1205>
    1691: a5 15        	lda	$15                     ; 0x15 <__rc5>
    1693: a2 ff        	ldx	#$ff
    1695: c6 14        	dec	$14                     ; 0x14 <__rc4>
    1697: e4 14        	cpx	$14                     ; 0x14 <__rc4>
    1699: d0 01        	bne	$169c <main+0x1215>
    169b: 3a           	dec
    169c: a6 18        	ldx	$18                     ; 0x18 <__rc8>
    169e: 5a           	phy
    169f: a4 19        	ldy	$19                     ; 0x19 <__rc9>
    16a1: 84 18        	sty	$18                     ; 0x18 <__rc8>
    16a3: 7a           	ply
    16a4: e6 18        	inc	$18                     ; 0x18 <__rc8>
    16a6: f0 03        	beq	$16ab <main+0x1224>
    16a8: 4c 49 16     	jmp	$1649 <main+0x11c2>
    16ab: e8           	inx
    16ac: 4c 49 16     	jmp	$1649 <main+0x11c2>
    16af: e6 14        	inc	$14                     ; 0x14 <__rc4>
    16b1: c6 14        	dec	$14                     ; 0x14 <__rc4>
    16b3: f0 03        	beq	$16b8 <main+0x1231>
    16b5: 4c 50 16     	jmp	$1650 <main+0x11c9>
    16b8: 4c 45 17     	jmp	$1745 <main+0x12be>
    16bb: 29 7f        	and	#$7f
    16bd: 18           	clc
    16be: 85 13        	sta	$13                     ; 0x13 <__rc3>
    16c0: a5 1a        	lda	$1a                     ; 0x1a <__rc10>
    16c2: 69 03        	adc	#$3
    16c4: 85 12        	sta	$12                     ; 0x12 <__zp_bss_size>
    16c6: a5 18        	lda	$18                     ; 0x18 <__rc8>
    16c8: 69 00        	adc	#$0
    16ca: 85 1a        	sta	$1a                     ; 0x1a <__rc10>
    16cc: a5 13        	lda	$13                     ; 0x13 <__rc3>
    16ce: 5a           	phy
    16cf: a4 1b        	ldy	$1b                     ; 0x1b <__rc11>
    16d1: 84 14        	sty	$14                     ; 0x14 <__rc4>
    16d3: 7a           	ply
    16d4: c9 00        	cmp	#$0
    16d6: d0 09        	bne	$16e1 <main+0x125a>
    16d8: e6 14        	inc	$14                     ; 0x14 <__rc4>
    16da: c6 14        	dec	$14                     ; 0x14 <__rc4>
    16dc: d0 03        	bne	$16e1 <main+0x125a>
    16de: 4c bb 1c     	jmp	$1cbb <main+0x1834>
    16e1: 5a           	phy
    16e2: a4 12        	ldy	$12                     ; 0x12 <__zp_bss_size>
    16e4: 84 18        	sty	$18                     ; 0x18 <__rc8>
    16e6: 7a           	ply
    16e7: 85 15        	sta	$15                     ; 0x15 <__rc5>
    16e9: a5 19        	lda	$19                     ; 0x19 <__rc9>
    16eb: 85 12        	sta	$12                     ; 0x12 <__zp_bss_size>
    16ed: 06 12        	asl	$12                     ; 0x12 <__zp_bss_size>
    16ef: 86 13        	stx	$13                     ; 0x13 <__rc3>
    16f1: 26 13        	rol	$13                     ; 0x13 <__rc3>
    16f3: a9 f2        	lda	#$f2
    16f5: 18           	clc
    16f6: 65 12        	adc	$12                     ; 0x12 <__zp_bss_size>
    16f8: 85 12        	sta	$12                     ; 0x12 <__zp_bss_size>
    16fa: a9 3a        	lda	#$3a
    16fc: 65 13        	adc	$13                     ; 0x13 <__rc3>
    16fe: 85 13        	sta	$13                     ; 0x13 <__rc3>
    1700: a6 1b        	ldx	$1b                     ; 0x1b <__rc11>
    1702: 86 19        	stx	$19                     ; 0x19 <__rc9>
    1704: b2 12        	lda	($12)                   ; 0x12 <__zp_bss_size>
    1706: 85 14        	sta	$14                     ; 0x14 <__rc4>
    1708: b1 12        	lda	($12),y                 ; 0x12 <__zp_bss_size>
    170a: 80 06        	bra	$1712 <main+0x128b>
    170c: a6 12        	ldx	$12                     ; 0x12 <__zp_bss_size>
    170e: 86 15        	stx	$15                     ; 0x15 <__rc5>
    1710: f0 2d        	beq	$173f <main+0x12b8>
    1712: a6 16        	ldx	$16                     ; 0x16 <__rc6>
    1714: 8e 01 d7     	stx	$d701                   ; 0xd701 <__heap_start+0x7577>
    1717: a6 17        	ldx	$17                     ; 0x17 <__rc7>
    1719: 8e 02 d7     	stx	$d702                   ; 0xd702 <__heap_start+0x7578>
    171c: a6 14        	ldx	$14                     ; 0x14 <__rc4>
    171e: 8e 02 d7     	stx	$d702                   ; 0xd702 <__heap_start+0x7578>
    1721: 8d 03 d7     	sta	$d703                   ; 0xd703 <__heap_start+0x7579>
    1724: 8c 00 d7     	sty	$d700                   ; 0xd700 <__heap_start+0x7576>
    1727: 9c 00 d7     	stz	$d700                   ; 0xd700 <__heap_start+0x7576>
    172a: ae 00 d7     	ldx	$d700                   ; 0xd700 <__heap_start+0x7576>
    172d: 30 fb        	bmi	$172a <main+0x12a3>
    172f: a6 15        	ldx	$15                     ; 0x15 <__rc5>
    1731: 86 12        	stx	$12                     ; 0x12 <__zp_bss_size>
    1733: a2 ff        	ldx	#$ff
    1735: c6 19        	dec	$19                     ; 0x19 <__rc9>
    1737: e4 19        	cpx	$19                     ; 0x19 <__rc9>
    1739: d0 d1        	bne	$170c <main+0x1285>
    173b: c6 12        	dec	$12                     ; 0x12 <__zp_bss_size>
    173d: 80 cd        	bra	$170c <main+0x1285>
    173f: a6 19        	ldx	$19                     ; 0x19 <__rc9>
    1741: d0 cf        	bne	$1712 <main+0x128b>
    1743: a6 1a        	ldx	$1a                     ; 0x1a <__rc10>
    1745: a5 18        	lda	$18                     ; 0x18 <__rc8>
    1747: e0 12        	cpx	#$12
    1749: d0 09        	bne	$1754 <main+0x12cd>
    174b: c9 3b        	cmp	#$3b
    174d: 85 12        	sta	$12                     ; 0x12 <__zp_bss_size>
    174f: b0 0c        	bcs	$175d <main+0x12d6>
    1751: 4c d9 15     	jmp	$15d9 <main+0x1152>
    1754: e0 12        	cpx	#$12
    1756: 85 12        	sta	$12                     ; 0x12 <__zp_bss_size>
    1758: b0 03        	bcs	$175d <main+0x12d6>
    175a: 4c d9 15     	jmp	$15d9 <main+0x1152>
    175d: 9c bb 5f     	stz	$5fbb                   ; 0x5fbb <spriteStatuses+0x13>
    1760: a0 02        	ldy	#$2
    1762: 8c d3 5f     	sty	$5fd3                   ; 0x5fd3 <spriteStatuses+0x2b>
    1765: 9c eb 5f     	stz	$5feb                   ; 0x5feb <spriteStatuses+0x43>
    1768: a2 02        	ldx	#$2
    176a: 86 28        	stx	$28                     ; 0x28 <__rc24>
    176c: 8c 03 60     	sty	$6003                   ; 0x6003 <spriteStatuses+0x5b>
    176f: 9c 1b 60     	stz	$601b                   ; 0x601b <spriteStatuses+0x73>
    1772: 9c ab 60     	stz	$60ab                   ; 0x60ab <spriteStatuses+0x103>
    1775: a0 80        	ldy	#$80
    1777: 84 f3        	sty	$f3                     ; 0xf3 <__rc31+0xc4>
    1779: a2 88        	ldx	#$88
    177b: 86 26        	stx	$26                     ; 0x26 <__rc22>
    177d: a2 61        	ldx	#$61
    177f: 86 27        	stx	$27                     ; 0x27 <__rc23>
    1781: 20 f0 ff     	jsr	$fff0 <__heap_start+0x9e66>
    1784: 92 24        	sta	($24)                   ; 0x24 <__rc20>
    1786: a9 00        	lda	#$0
    1788: 6a           	ror
    1789: 85 26        	sta	$26                     ; 0x26 <__rc22>
    178b: b2 24        	lda	($24)                   ; 0x24 <__rc20>
    178d: ae bb 5f     	ldx	$5fbb                   ; 0x5fbb <spriteStatuses+0x13>
    1790: 18           	clc
    1791: 7d ec 3a     	adc	$3aec,x                 ; 0x3aec <stateDelays>
    1794: 8d b8 5f     	sta	$5fb8                   ; 0x5fb8 <spriteStatuses+0x10>
    1797: ae b7 5f     	ldx	$5fb7                   ; 0x5fb7 <spriteStatuses+0xf>
    179a: 86 f3        	stx	$f3                     ; 0xf3 <__rc31+0xc4>
    179c: ae b8 5f     	ldx	$5fb8                   ; 0x5fb8 <spriteStatuses+0x10>
    179f: 86 f4        	stx	$f4                     ; 0xf4 <__rc31+0xc5>
    17a1: ae b9 5f     	ldx	$5fb9                   ; 0x5fb9 <spriteStatuses+0x11>
    17a4: 86 f5        	stx	$f5                     ; 0xf5 <__rc31+0xc6>
    17a6: 20 f0 ff     	jsr	$fff0 <__heap_start+0x9e66>
    17a9: 92 24        	sta	($24)                   ; 0x24 <__rc20>
    17ab: a9 00        	lda	#$0
    17ad: 6a           	ror
    17ae: 85 26        	sta	$26                     ; 0x26 <__rc22>
    17b0: 84 f3        	sty	$f3                     ; 0xf3 <__rc31+0xc4>
    17b2: 20 f0 ff     	jsr	$fff0 <__heap_start+0x9e66>
    17b5: 92 24        	sta	($24)                   ; 0x24 <__rc20>
    17b7: a9 00        	lda	#$0
    17b9: 6a           	ror
    17ba: 85 26        	sta	$26                     ; 0x26 <__rc22>
    17bc: b2 24        	lda	($24)                   ; 0x24 <__rc20>
    17be: ae d3 5f     	ldx	$5fd3                   ; 0x5fd3 <spriteStatuses+0x2b>
    17c1: 18           	clc
    17c2: 7d ec 3a     	adc	$3aec,x                 ; 0x3aec <stateDelays>
    17c5: 8d d0 5f     	sta	$5fd0                   ; 0x5fd0 <spriteStatuses+0x28>
    17c8: ae cf 5f     	ldx	$5fcf                   ; 0x5fcf <spriteStatuses+0x27>
    17cb: 86 f3        	stx	$f3                     ; 0xf3 <__rc31+0xc4>
    17cd: ae d0 5f     	ldx	$5fd0                   ; 0x5fd0 <spriteStatuses+0x28>
    17d0: 86 f4        	stx	$f4                     ; 0xf4 <__rc31+0xc5>
    17d2: ae d1 5f     	ldx	$5fd1                   ; 0x5fd1 <spriteStatuses+0x29>
    17d5: 86 f5        	stx	$f5                     ; 0xf5 <__rc31+0xc6>
    17d7: 20 f0 ff     	jsr	$fff0 <__heap_start+0x9e66>
    17da: 92 24        	sta	($24)                   ; 0x24 <__rc20>
    17dc: a9 00        	lda	#$0
    17de: 6a           	ror
    17df: 85 26        	sta	$26                     ; 0x26 <__rc22>
    17e1: 84 f3        	sty	$f3                     ; 0xf3 <__rc31+0xc4>
    17e3: 20 f0 ff     	jsr	$fff0 <__heap_start+0x9e66>
    17e6: 92 24        	sta	($24)                   ; 0x24 <__rc20>
    17e8: a9 00        	lda	#$0
    17ea: 6a           	ror
    17eb: 85 26        	sta	$26                     ; 0x26 <__rc22>
    17ed: b2 24        	lda	($24)                   ; 0x24 <__rc20>
    17ef: ae eb 5f     	ldx	$5feb                   ; 0x5feb <spriteStatuses+0x43>
    17f2: 18           	clc
    17f3: 7d ec 3a     	adc	$3aec,x                 ; 0x3aec <stateDelays>
    17f6: 8d e8 5f     	sta	$5fe8                   ; 0x5fe8 <spriteStatuses+0x40>
    17f9: ae e7 5f     	ldx	$5fe7                   ; 0x5fe7 <spriteStatuses+0x3f>
    17fc: 86 f3        	stx	$f3                     ; 0xf3 <__rc31+0xc4>
    17fe: ae e8 5f     	ldx	$5fe8                   ; 0x5fe8 <spriteStatuses+0x40>
    1801: 86 f4        	stx	$f4                     ; 0xf4 <__rc31+0xc5>
    1803: ae e9 5f     	ldx	$5fe9                   ; 0x5fe9 <spriteStatuses+0x41>
    1806: 86 f5        	stx	$f5                     ; 0xf5 <__rc31+0xc6>
    1808: 20 f0 ff     	jsr	$fff0 <__heap_start+0x9e66>
    180b: 92 24        	sta	($24)                   ; 0x24 <__rc20>
    180d: a9 00        	lda	#$0
    180f: 6a           	ror
    1810: 85 26        	sta	$26                     ; 0x26 <__rc22>
    1812: 84 f3        	sty	$f3                     ; 0xf3 <__rc31+0xc4>
    1814: 20 f0 ff     	jsr	$fff0 <__heap_start+0x9e66>
    1817: 92 24        	sta	($24)                   ; 0x24 <__rc20>
    1819: a9 00        	lda	#$0
    181b: 6a           	ror
    181c: 85 26        	sta	$26                     ; 0x26 <__rc22>
    181e: b2 24        	lda	($24)                   ; 0x24 <__rc20>
    1820: ae 03 60     	ldx	$6003                   ; 0x6003 <spriteStatuses+0x5b>
    1823: 18           	clc
    1824: 7d ec 3a     	adc	$3aec,x                 ; 0x3aec <stateDelays>
    1827: 8d 00 60     	sta	$6000                   ; 0x6000 <spriteStatuses+0x58>
    182a: ae ff 5f     	ldx	$5fff                   ; 0x5fff <spriteStatuses+0x57>
    182d: 86 f3        	stx	$f3                     ; 0xf3 <__rc31+0xc4>
    182f: ae 00 60     	ldx	$6000                   ; 0x6000 <spriteStatuses+0x58>
    1832: 86 f4        	stx	$f4                     ; 0xf4 <__rc31+0xc5>
    1834: ae 01 60     	ldx	$6001                   ; 0x6001 <spriteStatuses+0x59>
    1837: 86 f5        	stx	$f5                     ; 0xf5 <__rc31+0xc6>
    1839: 20 f0 ff     	jsr	$fff0 <__heap_start+0x9e66>
    183c: 92 24        	sta	($24)                   ; 0x24 <__rc20>
    183e: a9 00        	lda	#$0
    1840: 6a           	ror
    1841: 85 26        	sta	$26                     ; 0x26 <__rc22>
    1843: 84 f3        	sty	$f3                     ; 0xf3 <__rc31+0xc4>
    1845: 20 f0 ff     	jsr	$fff0 <__heap_start+0x9e66>
    1848: 92 24        	sta	($24)                   ; 0x24 <__rc20>
    184a: a9 00        	lda	#$0
    184c: 6a           	ror
    184d: 85 26        	sta	$26                     ; 0x26 <__rc22>
    184f: b2 24        	lda	($24)                   ; 0x24 <__rc20>
    1851: ae 1b 60     	ldx	$601b                   ; 0x601b <spriteStatuses+0x73>
    1854: 18           	clc
    1855: 7d ec 3a     	adc	$3aec,x                 ; 0x3aec <stateDelays>
    1858: 8d 18 60     	sta	$6018                   ; 0x6018 <spriteStatuses+0x70>
    185b: ae 17 60     	ldx	$6017                   ; 0x6017 <spriteStatuses+0x6f>
    185e: 86 f3        	stx	$f3                     ; 0xf3 <__rc31+0xc4>
    1860: ae 18 60     	ldx	$6018                   ; 0x6018 <spriteStatuses+0x70>
    1863: 86 f4        	stx	$f4                     ; 0xf4 <__rc31+0xc5>
    1865: ae 19 60     	ldx	$6019                   ; 0x6019 <spriteStatuses+0x71>
    1868: 86 f5        	stx	$f5                     ; 0xf5 <__rc31+0xc6>
    186a: 20 f0 ff     	jsr	$fff0 <__heap_start+0x9e66>
    186d: 92 24        	sta	($24)                   ; 0x24 <__rc20>
    186f: a9 00        	lda	#$0
    1871: 6a           	ror
    1872: 85 26        	sta	$26                     ; 0x26 <__rc22>
    1874: 84 f3        	sty	$f3                     ; 0xf3 <__rc31+0xc4>
    1876: 20 f0 ff     	jsr	$fff0 <__heap_start+0x9e66>
    1879: 92 24        	sta	($24)                   ; 0x24 <__rc20>
    187b: a9 00        	lda	#$0
    187d: 6a           	ror
    187e: 85 26        	sta	$26                     ; 0x26 <__rc22>
    1880: 18           	clc
    1881: a9 02        	lda	#$2
    1883: 72 24        	adc	($24)                   ; 0x24 <__rc20>
    1885: 85 35        	sta	$35                     ; 0x35 <padTimer.1>
    1887: 64 f3        	stz	$f3                     ; 0xf3 <__rc31+0xc4>
    1889: a6 35        	ldx	$35                     ; 0x35 <padTimer.1>
    188b: 86 f4        	stx	$f4                     ; 0xf4 <__rc31+0xc5>
    188d: a2 63        	ldx	#$63
    188f: 86 f5        	stx	$f5                     ; 0xf5 <__rc31+0xc6>
    1891: a2 04        	ldx	#$4
    1893: 86 29        	stx	$29                     ; 0x29 <__rc25>
    1895: a0 0a        	ldy	#$a
    1897: ca           	dex
    1898: 86 2b        	stx	$2b                     ; 0x2b <__rc27>
    189a: a2 06        	ldx	#$6
    189c: 86 2d        	stx	$2d                     ; 0x2d <__rc29>
    189e: e8           	inx
    189f: 86 2e        	stx	$2e                     ; 0x2e <__rc30>
    18a1: 20 f0 ff     	jsr	$fff0 <__heap_start+0x9e66>
    18a4: 92 24        	sta	($24)                   ; 0x24 <__rc20>
    18a6: a9 00        	lda	#$0
    18a8: 6a           	ror
    18a9: 85 26        	sta	$26                     ; 0x26 <__rc22>
    18ab: 64 36        	stz	$36                     ; 0x36 <kernelEventData>
    18ad: 20 00 ff     	jsr	$ff00 <__heap_start+0x9d76>
    18b0: 92 24        	sta	($24)                   ; 0x24 <__rc20>
    18b2: a9 00        	lda	#$0
    18b4: 6a           	ror
    18b5: 85 26        	sta	$26                     ; 0x26 <__rc22>
    18b7: a6 36        	ldx	$36                     ; 0x36 <kernelEventData>
    18b9: e0 52        	cpx	#$52
    18bb: f0 03        	beq	$18c0 <main+0x1439>
    18bd: 4c 9c 1b     	jmp	$1b9c <main+0x1715>
    18c0: a6 3a        	ldx	$3a                     ; 0x3a <kernelEventData+0x4>
    18c2: e0 0a        	cpx	#$a
    18c4: 5a           	phy
    18c5: a0 01        	ldy	#$1
    18c7: b0 02        	bcs	$18cb <main+0x1444>
    18c9: a0 00        	ldy	#$0
    18cb: 84 14        	sty	$14                     ; 0x14 <__rc4>
    18cd: 8a           	txa
    18ce: 0a           	asl
    18cf: 64 12        	stz	$12                     ; 0x12 <__zp_bss_size>
    18d1: 26 12        	rol	$12                     ; 0x12 <__zp_bss_size>
    18d3: 0a           	asl
    18d4: 26 12        	rol	$12                     ; 0x12 <__zp_bss_size>
    18d6: 0a           	asl
    18d7: 85 13        	sta	$13                     ; 0x13 <__rc3>
    18d9: 26 12        	rol	$12                     ; 0x12 <__zp_bss_size>
    18db: 0a           	asl
    18dc: a4 12        	ldy	$12                     ; 0x12 <__zp_bss_size>
    18de: 84 15        	sty	$15                     ; 0x15 <__rc5>
    18e0: 7a           	ply
    18e1: 26 15        	rol	$15                     ; 0x15 <__rc5>
    18e3: e6 14        	inc	$14                     ; 0x14 <__rc4>
    18e5: c6 14        	dec	$14                     ; 0x14 <__rc4>
    18e7: d0 03        	bne	$18ec <main+0x1465>
    18e9: 4c c6 19     	jmp	$19c6 <main+0x153f>
    18ec: 85 14        	sta	$14                     ; 0x14 <__rc4>
    18ee: 8a           	txa
    18ef: 18           	clc
    18f0: 69 f6        	adc	#$f6
    18f2: c9 0a        	cmp	#$a
    18f4: 90 03        	bcc	$18f9 <main+0x1472>
    18f6: 4c af 1b     	jmp	$1baf <main+0x1728>
    18f9: a9 00        	lda	#$0
    18fb: 85 16        	sta	$16                     ; 0x16 <__rc6>
    18fd: a5 14        	lda	$14                     ; 0x14 <__rc4>
    18ff: 5a           	phy
    1900: a4 16        	ldy	$16                     ; 0x16 <__rc6>
    1902: c0 01        	cpy	#$1
    1904: 65 13        	adc	$13                     ; 0x13 <__rc3>
    1906: 85 14        	sta	$14                     ; 0x14 <__rc4>
    1908: a5 15        	lda	$15                     ; 0x15 <__rc5>
    190a: 65 12        	adc	$12                     ; 0x12 <__zp_bss_size>
    190c: 85 15        	sta	$15                     ; 0x15 <__rc5>
    190e: a9 a8        	lda	#$a8
    1910: a4 16        	ldy	$16                     ; 0x16 <__rc6>
    1912: c0 01        	cpy	#$1
    1914: a4 16        	ldy	$16                     ; 0x16 <__rc6>
    1916: 84 1c        	sty	$1c                     ; 0x1c <__rc12>
    1918: 7a           	ply
    1919: 65 14        	adc	$14                     ; 0x14 <__rc4>
    191b: 85 14        	sta	$14                     ; 0x14 <__rc4>
    191d: a9 5f        	lda	#$5f
    191f: 65 15        	adc	$15                     ; 0x15 <__rc5>
    1921: 85 18        	sta	$18                     ; 0x18 <__rc8>
    1923: a5 14        	lda	$14                     ; 0x14 <__rc4>
    1925: 85 19        	sta	$19                     ; 0x19 <__rc9>
    1927: a5 18        	lda	$18                     ; 0x18 <__rc8>
    1929: 85 15        	sta	$15                     ; 0x15 <__rc5>
    192b: b1 14        	lda	($14),y                 ; 0x14 <__rc4>
    192d: 84 17        	sty	$17                     ; 0x17 <__rc7>
    192f: 85 1d        	sta	$1d                     ; 0x1d <__rc13>
    1931: a8           	tay
    1932: c8           	iny
    1933: 84 16        	sty	$16                     ; 0x16 <__rc6>
    1935: 98           	tya
    1936: a4 17        	ldy	$17                     ; 0x17 <__rc7>
    1938: 91 14        	sta	($14),y                 ; 0x14 <__rc4>
    193a: 18           	clc
    193b: a5 19        	lda	$19                     ; 0x19 <__rc9>
    193d: 69 16        	adc	#$16
    193f: a8           	tay
    1940: a5 18        	lda	$18                     ; 0x18 <__rc8>
    1942: 69 00        	adc	#$0
    1944: 84 18        	sty	$18                     ; 0x18 <__rc8>
    1946: 85 19        	sta	$19                     ; 0x19 <__rc9>
    1948: a0 16        	ldy	#$16
    194a: b1 14        	lda	($14),y                 ; 0x14 <__rc4>
    194c: 85 1a        	sta	$1a                     ; 0x1a <__rc10>
    194e: a0 01        	ldy	#$1
    1950: b1 18        	lda	($18),y                 ; 0x18 <__rc8>
    1952: 85 1b        	sta	$1b                     ; 0x1b <__rc11>
    1954: a0 13        	ldy	#$13
    1956: b1 14        	lda	($14),y                 ; 0x14 <__rc4>
    1958: a8           	tay
    1959: b1 1a        	lda	($1a),y                 ; 0x1a <__rc10>
    195b: c5 16        	cmp	$16                     ; 0x16 <__rc6>
    195d: 90 03        	bcc	$1962 <main+0x14db>
    195f: 4c 0a 1a     	jmp	$1a0a <main+0x1583>
    1962: a4 17        	ldy	$17                     ; 0x17 <__rc7>
    1964: a5 1d        	lda	$1d                     ; 0x1d <__rc13>
    1966: 91 14        	sta	($14),y                 ; 0x14 <__rc4>
    1968: a5 13        	lda	$13                     ; 0x13 <__rc3>
    196a: 18           	clc
    196b: 69 00        	adc	#$0
    196d: 85 13        	sta	$13                     ; 0x13 <__rc3>
    196f: a5 12        	lda	$12                     ; 0x12 <__zp_bss_size>
    1971: 69 d9        	adc	#$d9
    1973: 5a           	phy
    1974: a4 13        	ldy	$13                     ; 0x13 <__rc3>
    1976: 84 12        	sty	$12                     ; 0x12 <__zp_bss_size>
    1978: 7a           	ply
    1979: 85 13        	sta	$13                     ; 0x13 <__rc3>
    197b: bd 68 5f     	lda	$5f68,x                 ; 0x5f68 <_spriteCtl>
    197e: 92 12        	sta	($12)                   ; 0x12 <__zp_bss_size>
    1980: a5 3a        	lda	$3a                     ; 0x3a <kernelEventData+0x4>
    1982: 0a           	asl
    1983: 64 12        	stz	$12                     ; 0x12 <__zp_bss_size>
    1985: 26 12        	rol	$12                     ; 0x12 <__zp_bss_size>
    1987: 0a           	asl
    1988: 26 12        	rol	$12                     ; 0x12 <__zp_bss_size>
    198a: 0a           	asl
    198b: 85 13        	sta	$13                     ; 0x13 <__rc3>
    198d: 26 12        	rol	$12                     ; 0x12 <__zp_bss_size>
    198f: 0a           	asl
    1990: a6 12        	ldx	$12                     ; 0x12 <__zp_bss_size>
    1992: 86 14        	stx	$14                     ; 0x14 <__rc4>
    1994: 26 14        	rol	$14                     ; 0x14 <__rc4>
    1996: a6 1c        	ldx	$1c                     ; 0x1c <__rc12>
    1998: e0 01        	cpx	#$1
    199a: 65 13        	adc	$13                     ; 0x13 <__rc3>
    199c: 85 13        	sta	$13                     ; 0x13 <__rc3>
    199e: a5 14        	lda	$14                     ; 0x14 <__rc4>
    19a0: 65 12        	adc	$12                     ; 0x12 <__zp_bss_size>
    19a2: 85 12        	sta	$12                     ; 0x12 <__zp_bss_size>
    19a4: a9 a8        	lda	#$a8
    19a6: a6 1c        	ldx	$1c                     ; 0x1c <__rc12>
    19a8: e0 01        	cpx	#$1
    19aa: 65 13        	adc	$13                     ; 0x13 <__rc3>
    19ac: aa           	tax
    19ad: a9 5f        	lda	#$5f
    19af: 65 12        	adc	$12                     ; 0x12 <__zp_bss_size>
    19b1: 85 13        	sta	$13                     ; 0x13 <__rc3>
    19b3: 18           	clc
    19b4: 8a           	txa
    19b5: 69 15        	adc	#$15
    19b7: 85 12        	sta	$12                     ; 0x12 <__zp_bss_size>
    19b9: a5 13        	lda	$13                     ; 0x13 <__rc3>
    19bb: 69 ff        	adc	#$ff
    19bd: 85 13        	sta	$13                     ; 0x13 <__rc3>
    19bf: a9 00        	lda	#$0
    19c1: 92 12        	sta	($12)                   ; 0x12 <__zp_bss_size>
    19c3: 4c 9a 1b     	jmp	$1b9a <main+0x1713>
    19c6: a2 00        	ldx	#$0
    19c8: 18           	clc
    19c9: 65 13        	adc	$13                     ; 0x13 <__rc3>
    19cb: 85 13        	sta	$13                     ; 0x13 <__rc3>
    19cd: a5 15        	lda	$15                     ; 0x15 <__rc5>
    19cf: 65 12        	adc	$12                     ; 0x12 <__zp_bss_size>
    19d1: 85 12        	sta	$12                     ; 0x12 <__zp_bss_size>
    19d3: a9 a8        	lda	#$a8
    19d5: 18           	clc
    19d6: 65 13        	adc	$13                     ; 0x13 <__rc3>
    19d8: aa           	tax
    19d9: a9 5f        	lda	#$5f
    19db: 65 12        	adc	$12                     ; 0x12 <__zp_bss_size>
    19dd: 86 12        	stx	$12                     ; 0x12 <__zp_bss_size>
    19df: 85 13        	sta	$13                     ; 0x13 <__rc3>
    19e1: a0 13        	ldy	#$13
    19e3: b1 12        	lda	($12),y                 ; 0x12 <__zp_bss_size>
    19e5: 85 1a        	sta	$1a                     ; 0x1a <__rc10>
    19e7: 29 fe        	and	#$fe
    19e9: c9 04        	cmp	#$4
    19eb: f0 03        	beq	$19f0 <main+0x1569>
    19ed: 4c 98 1a     	jmp	$1a98 <main+0x1611>
    19f0: a0 04        	ldy	#$4
    19f2: a2 04        	ldx	#$4
    19f4: 86 29        	stx	$29                     ; 0x29 <__rc25>
    19f6: b1 12        	lda	($12),y                 ; 0x12 <__zp_bss_size>
    19f8: a2 01        	ldx	#$1
    19fa: a8           	tay
    19fb: f0 02        	beq	$19ff <main+0x1578>
    19fd: a2 00        	ldx	#$0
    19ff: 8a           	txa
    1a00: d0 03        	bne	$1a05 <main+0x157e>
    1a02: 4c 84 1a     	jmp	$1a84 <main+0x15fd>
    1a05: a9 01        	lda	#$1
    1a07: 4c 86 1a     	jmp	$1a86 <main+0x15ff>
    1a0a: a2 80        	ldx	#$80
    1a0c: 86 f3        	stx	$f3                     ; 0xf3 <__rc31+0xc4>
    1a0e: a2 88        	ldx	#$88
    1a10: 86 12        	stx	$12                     ; 0x12 <__zp_bss_size>
    1a12: a2 61        	ldx	#$61
    1a14: 86 13        	stx	$13                     ; 0x13 <__rc3>
    1a16: 20 f0 ff     	jsr	$fff0 <__heap_start+0x9e66>
    1a19: 92 24        	sta	($24)                   ; 0x24 <__rc20>
    1a1b: a9 00        	lda	#$0
    1a1d: 6a           	ror
    1a1e: 85 12        	sta	$12                     ; 0x12 <__zp_bss_size>
    1a20: a9 08        	lda	#$8
    1a22: 18           	clc
    1a23: 72 24        	adc	($24)                   ; 0x24 <__rc20>
    1a25: 85 16        	sta	$16                     ; 0x16 <__rc6>
    1a27: a5 3a        	lda	$3a                     ; 0x3a <kernelEventData+0x4>
    1a29: 0a           	asl
    1a2a: 64 14        	stz	$14                     ; 0x14 <__rc4>
    1a2c: 26 14        	rol	$14                     ; 0x14 <__rc4>
    1a2e: 0a           	asl
    1a2f: 26 14        	rol	$14                     ; 0x14 <__rc4>
    1a31: 0a           	asl
    1a32: 85 15        	sta	$15                     ; 0x15 <__rc5>
    1a34: 26 14        	rol	$14                     ; 0x14 <__rc4>
    1a36: 0a           	asl
    1a37: a6 14        	ldx	$14                     ; 0x14 <__rc4>
    1a39: 86 18        	stx	$18                     ; 0x18 <__rc8>
    1a3b: 26 18        	rol	$18                     ; 0x18 <__rc8>
    1a3d: a6 1c        	ldx	$1c                     ; 0x1c <__rc12>
    1a3f: e0 01        	cpx	#$1
    1a41: 65 15        	adc	$15                     ; 0x15 <__rc5>
    1a43: 85 15        	sta	$15                     ; 0x15 <__rc5>
    1a45: a5 18        	lda	$18                     ; 0x18 <__rc8>
    1a47: 65 14        	adc	$14                     ; 0x14 <__rc4>
    1a49: 85 14        	sta	$14                     ; 0x14 <__rc4>
    1a4b: a9 a8        	lda	#$a8
    1a4d: a6 1c        	ldx	$1c                     ; 0x1c <__rc12>
    1a4f: e0 01        	cpx	#$1
    1a51: 65 15        	adc	$15                     ; 0x15 <__rc5>
    1a53: aa           	tax
    1a54: a9 5f        	lda	#$5f
    1a56: 65 14        	adc	$14                     ; 0x14 <__rc4>
    1a58: 86 14        	stx	$14                     ; 0x14 <__rc4>
    1a5a: 85 15        	sta	$15                     ; 0x15 <__rc5>
    1a5c: a0 10        	ldy	#$10
    1a5e: a5 16        	lda	$16                     ; 0x16 <__rc6>
    1a60: 91 14        	sta	($14),y                 ; 0x14 <__rc4>
    1a62: 84 16        	sty	$16                     ; 0x16 <__rc6>
    1a64: 88           	dey
    1a65: b1 14        	lda	($14),y                 ; 0x14 <__rc4>
    1a67: 85 f3        	sta	$f3                     ; 0xf3 <__rc31+0xc4>
    1a69: a4 16        	ldy	$16                     ; 0x16 <__rc6>
    1a6b: b1 14        	lda	($14),y                 ; 0x14 <__rc4>
    1a6d: 85 f4        	sta	$f4                     ; 0xf4 <__rc31+0xc5>
    1a6f: a0 11        	ldy	#$11
    1a71: b1 14        	lda	($14),y                 ; 0x14 <__rc4>
    1a73: 85 f5        	sta	$f5                     ; 0xf5 <__rc31+0xc6>
    1a75: 20 f0 ff     	jsr	$fff0 <__heap_start+0x9e66>
    1a78: 92 24        	sta	($24)                   ; 0x24 <__rc20>
    1a7a: a9 00        	lda	#$0
    1a7c: 6a           	ror
    1a7d: 85 12        	sta	$12                     ; 0x12 <__zp_bss_size>
    1a7f: a4 17        	ldy	$17                     ; 0x17 <__rc7>
    1a81: 4c 9a 1b     	jmp	$1b9a <main+0x1713>
    1a84: a9 00        	lda	#$0
    1a86: a0 13        	ldy	#$13
    1a88: 85 1a        	sta	$1a                     ; 0x1a <__rc10>
    1a8a: 91 12        	sta	($12),y                 ; 0x12 <__zp_bss_size>
    1a8c: a9 00        	lda	#$0
    1a8e: e0 00        	cpx	#$0
    1a90: d0 02        	bne	$1a94 <main+0x160d>
    1a92: a9 02        	lda	#$2
    1a94: a0 0a        	ldy	#$a
    1a96: 91 12        	sta	($12),y                 ; 0x12 <__zp_bss_size>
    1a98: a2 80        	ldx	#$80
    1a9a: 86 f3        	stx	$f3                     ; 0xf3 <__rc31+0xc4>
    1a9c: a2 88        	ldx	#$88
    1a9e: 86 12        	stx	$12                     ; 0x12 <__zp_bss_size>
    1aa0: a2 61        	ldx	#$61
    1aa2: 86 13        	stx	$13                     ; 0x13 <__rc3>
    1aa4: 20 f0 ff     	jsr	$fff0 <__heap_start+0x9e66>
    1aa7: 92 24        	sta	($24)                   ; 0x24 <__rc20>
    1aa9: a9 00        	lda	#$0
    1aab: 6a           	ror
    1aac: 85 12        	sta	$12                     ; 0x12 <__zp_bss_size>
    1aae: b2 24        	lda	($24)                   ; 0x24 <__rc20>
    1ab0: 85 17        	sta	$17                     ; 0x17 <__rc7>
    1ab2: a5 3a        	lda	$3a                     ; 0x3a <kernelEventData+0x4>
    1ab4: 0a           	asl
    1ab5: 64 14        	stz	$14                     ; 0x14 <__rc4>
    1ab7: 26 14        	rol	$14                     ; 0x14 <__rc4>
    1ab9: 0a           	asl
    1aba: 26 14        	rol	$14                     ; 0x14 <__rc4>
    1abc: 0a           	asl
    1abd: 85 15        	sta	$15                     ; 0x15 <__rc5>
    1abf: 26 14        	rol	$14                     ; 0x14 <__rc4>
    1ac1: 0a           	asl
    1ac2: a6 14        	ldx	$14                     ; 0x14 <__rc4>
    1ac4: 86 18        	stx	$18                     ; 0x18 <__rc8>
    1ac6: 26 18        	rol	$18                     ; 0x18 <__rc8>
    1ac8: a0 00        	ldy	#$0
    1aca: 84 16        	sty	$16                     ; 0x16 <__rc6>
    1acc: 18           	clc
    1acd: 65 15        	adc	$15                     ; 0x15 <__rc5>
    1acf: 85 15        	sta	$15                     ; 0x15 <__rc5>
    1ad1: a5 18        	lda	$18                     ; 0x18 <__rc8>
    1ad3: 65 14        	adc	$14                     ; 0x14 <__rc4>
    1ad5: 85 14        	sta	$14                     ; 0x14 <__rc4>
    1ad7: a9 a8        	lda	#$a8
    1ad9: 18           	clc
    1ada: 65 15        	adc	$15                     ; 0x15 <__rc5>
    1adc: aa           	tax
    1add: a9 5f        	lda	#$5f
    1adf: 65 14        	adc	$14                     ; 0x14 <__rc4>
    1ae1: 86 14        	stx	$14                     ; 0x14 <__rc4>
    1ae3: 85 15        	sta	$15                     ; 0x15 <__rc5>
    1ae5: a0 13        	ldy	#$13
    1ae7: b1 14        	lda	($14),y                 ; 0x14 <__rc4>
    1ae9: aa           	tax
    1aea: 18           	clc
    1aeb: a5 17        	lda	$17                     ; 0x17 <__rc7>
    1aed: 7d ec 3a     	adc	$3aec,x                 ; 0x3aec <stateDelays>
    1af0: a0 10        	ldy	#$10
    1af2: 91 14        	sta	($14),y                 ; 0x14 <__rc4>
    1af4: 84 17        	sty	$17                     ; 0x17 <__rc7>
    1af6: 88           	dey
    1af7: b1 14        	lda	($14),y                 ; 0x14 <__rc4>
    1af9: 85 f3        	sta	$f3                     ; 0xf3 <__rc31+0xc4>
    1afb: a4 17        	ldy	$17                     ; 0x17 <__rc7>
    1afd: b1 14        	lda	($14),y                 ; 0x14 <__rc4>
    1aff: 85 f4        	sta	$f4                     ; 0xf4 <__rc31+0xc5>
    1b01: a0 11        	ldy	#$11
    1b03: b1 14        	lda	($14),y                 ; 0x14 <__rc4>
    1b05: 85 f5        	sta	$f5                     ; 0xf5 <__rc31+0xc6>
    1b07: 20 f0 ff     	jsr	$fff0 <__heap_start+0x9e66>
    1b0a: 92 24        	sta	($24)                   ; 0x24 <__rc20>
    1b0c: a9 00        	lda	#$0
    1b0e: 6a           	ror
    1b0f: 85 12        	sta	$12                     ; 0x12 <__zp_bss_size>
    1b11: a5 3a        	lda	$3a                     ; 0x3a <kernelEventData+0x4>
    1b13: 0a           	asl
    1b14: 64 12        	stz	$12                     ; 0x12 <__zp_bss_size>
    1b16: 26 12        	rol	$12                     ; 0x12 <__zp_bss_size>
    1b18: 0a           	asl
    1b19: 26 12        	rol	$12                     ; 0x12 <__zp_bss_size>
    1b1b: 0a           	asl
    1b1c: 85 13        	sta	$13                     ; 0x13 <__rc3>
    1b1e: 26 12        	rol	$12                     ; 0x12 <__zp_bss_size>
    1b20: 0a           	asl
    1b21: a6 12        	ldx	$12                     ; 0x12 <__zp_bss_size>
    1b23: 86 14        	stx	$14                     ; 0x14 <__rc4>
    1b25: 26 14        	rol	$14                     ; 0x14 <__rc4>
    1b27: a6 16        	ldx	$16                     ; 0x16 <__rc6>
    1b29: e0 01        	cpx	#$1
    1b2b: 65 13        	adc	$13                     ; 0x13 <__rc3>
    1b2d: 85 13        	sta	$13                     ; 0x13 <__rc3>
    1b2f: a5 14        	lda	$14                     ; 0x14 <__rc4>
    1b31: 65 12        	adc	$12                     ; 0x12 <__zp_bss_size>
    1b33: 85 12        	sta	$12                     ; 0x12 <__zp_bss_size>
    1b35: a9 a8        	lda	#$a8
    1b37: a6 16        	ldx	$16                     ; 0x16 <__rc6>
    1b39: e0 01        	cpx	#$1
    1b3b: 65 13        	adc	$13                     ; 0x13 <__rc3>
    1b3d: 85 15        	sta	$15                     ; 0x15 <__rc5>
    1b3f: a9 5f        	lda	#$5f
    1b41: 65 12        	adc	$12                     ; 0x12 <__zp_bss_size>
    1b43: a6 15        	ldx	$15                     ; 0x15 <__rc5>
    1b45: 86 12        	stx	$12                     ; 0x12 <__zp_bss_size>
    1b47: 85 13        	sta	$13                     ; 0x13 <__rc3>
    1b49: aa           	tax
    1b4a: a0 0a        	ldy	#$a
    1b4c: b1 12        	lda	($12),y                 ; 0x12 <__zp_bss_size>
    1b4e: 1a           	inc
    1b4f: 85 14        	sta	$14                     ; 0x14 <__rc4>
    1b51: 84 2a        	sty	$2a                     ; 0x2a <__rc26>
    1b53: 91 12        	sta	($12),y                 ; 0x12 <__zp_bss_size>
    1b55: a5 15        	lda	$15                     ; 0x15 <__rc5>
    1b57: 18           	clc
    1b58: 69 16        	adc	#$16
    1b5a: 85 16        	sta	$16                     ; 0x16 <__rc6>
    1b5c: 8a           	txa
    1b5d: 69 00        	adc	#$0
    1b5f: 85 17        	sta	$17                     ; 0x17 <__rc7>
    1b61: a0 16        	ldy	#$16
    1b63: b1 12        	lda	($12),y                 ; 0x12 <__zp_bss_size>
    1b65: 85 18        	sta	$18                     ; 0x18 <__rc8>
    1b67: a0 01        	ldy	#$1
    1b69: b1 16        	lda	($16),y                 ; 0x16 <__rc6>
    1b6b: 85 19        	sta	$19                     ; 0x19 <__rc9>
    1b6d: a4 1a        	ldy	$1a                     ; 0x1a <__rc10>
    1b6f: b1 18        	lda	($18),y                 ; 0x18 <__rc8>
    1b71: c5 14        	cmp	$14                     ; 0x14 <__rc4>
    1b73: b0 20        	bcs	$1b95 <main+0x170e>
    1b75: 18           	clc
    1b76: a5 15        	lda	$15                     ; 0x15 <__rc5>
    1b78: 69 14        	adc	#$14
    1b7a: 85 14        	sta	$14                     ; 0x14 <__rc4>
    1b7c: 8a           	txa
    1b7d: 69 00        	adc	#$0
    1b7f: 85 15        	sta	$15                     ; 0x15 <__rc5>
    1b81: a0 14        	ldy	#$14
    1b83: b1 12        	lda	($12),y                 ; 0x12 <__zp_bss_size>
    1b85: 85 16        	sta	$16                     ; 0x16 <__rc6>
    1b87: a0 01        	ldy	#$1
    1b89: b1 14        	lda	($14),y                 ; 0x14 <__rc4>
    1b8b: 85 17        	sta	$17                     ; 0x17 <__rc7>
    1b8d: a4 1a        	ldy	$1a                     ; 0x1a <__rc10>
    1b8f: b1 16        	lda	($16),y                 ; 0x16 <__rc6>
    1b91: a4 2a        	ldy	$2a                     ; 0x2a <__rc26>
    1b93: 91 12        	sta	($12),y                 ; 0x12 <__zp_bss_size>
    1b95: 20 a9 22     	jsr	$22a9 <updateFrames>
    1b98: a4 2a        	ldy	$2a                     ; 0x2a <__rc26>
    1b9a: a6 36        	ldx	$36                     ; 0x36 <kernelEventData>
    1b9c: e0 08        	cpx	#$8
    1b9e: f0 03        	beq	$1ba3 <main+0x171c>
    1ba0: 4c ab 18     	jmp	$18ab <main+0x1424>
    1ba3: a6 3a        	ldx	$3a                     ; 0x3a <kernelEventData+0x4>
    1ba5: e0 92        	cpx	#$92
    1ba7: f0 03        	beq	$1bac <main+0x1725>
    1ba9: 4c ab 18     	jmp	$18ab <main+0x1424>
    1bac: 4c 58 1c     	jmp	$1c58 <main+0x17d1>
    1baf: e0 63        	cpx	#$63
    1bb1: f0 03        	beq	$1bb6 <main+0x172f>
    1bb3: 4c ab 18     	jmp	$18ab <main+0x1424>
    1bb6: a2 0a        	ldx	#$a
    1bb8: 86 2a        	stx	$2a                     ; 0x2a <__rc26>
    1bba: a2 81        	ldx	#$81
    1bbc: 8e 80 d8     	stx	$d880                   ; 0xd880 <__heap_start+0x76f6>
    1bbf: ea           	nop
    1bc0: ea           	nop
    1bc1: a0 01        	ldy	#$1
    1bc3: a2 01        	ldx	#$1
    1bc5: 8c 80 d8     	sty	$d880                   ; 0xd880 <__heap_start+0x76f6>
    1bc8: 80 01        	bra	$1bcb <main+0x1744>
    1bca: ea           	nop
    1bcb: ad 80 d8     	lda	$d880                   ; 0xd880 <__heap_start+0x76f6>
    1bce: 29 40        	and	#$40
    1bd0: f0 f8        	beq	$1bca <main+0x1743>
    1bd2: 86 2c        	stx	$2c                     ; 0x2c <__rc28>
    1bd4: a9 00        	lda	#$0
    1bd6: 20 c2 1c     	jsr	$1cc2 <checkPads>
    1bd9: a6 2c        	ldx	$2c                     ; 0x2c <__rc28>
    1bdb: a5 2c        	lda	$2c                     ; 0x2c <__rc28>
    1bdd: 20 c2 1c     	jsr	$1cc2 <checkPads>
    1be0: a6 2c        	ldx	$2c                     ; 0x2c <__rc28>
    1be2: a5 28        	lda	$28                     ; 0x28 <__rc24>
    1be4: 20 c2 1c     	jsr	$1cc2 <checkPads>
    1be7: a6 2c        	ldx	$2c                     ; 0x2c <__rc28>
    1be9: a5 2b        	lda	$2b                     ; 0x2b <__rc27>
    1beb: 20 c2 1c     	jsr	$1cc2 <checkPads>
    1bee: a2 85        	ldx	#$85
    1bf0: 8e 80 d8     	stx	$d880                   ; 0xd880 <__heap_start+0x76f6>
    1bf3: ea           	nop
    1bf4: ea           	nop
    1bf5: a0 05        	ldy	#$5
    1bf7: a2 05        	ldx	#$5
    1bf9: 86 2c        	stx	$2c                     ; 0x2c <__rc28>
    1bfb: 8c 80 d8     	sty	$d880                   ; 0xd880 <__heap_start+0x76f6>
    1bfe: 80 01        	bra	$1c01 <main+0x177a>
    1c00: ea           	nop
    1c01: ad 80 d8     	lda	$d880                   ; 0xd880 <__heap_start+0x76f6>
    1c04: 29 40        	and	#$40
    1c06: f0 f8        	beq	$1c00 <main+0x1779>
    1c08: a2 00        	ldx	#$0
    1c0a: a5 29        	lda	$29                     ; 0x29 <__rc25>
    1c0c: 20 c2 1c     	jsr	$1cc2 <checkPads>
    1c0f: a2 00        	ldx	#$0
    1c11: a5 2c        	lda	$2c                     ; 0x2c <__rc28>
    1c13: 20 c2 1c     	jsr	$1cc2 <checkPads>
    1c16: a2 00        	ldx	#$0
    1c18: a5 2d        	lda	$2d                     ; 0x2d <__rc29>
    1c1a: 20 c2 1c     	jsr	$1cc2 <checkPads>
    1c1d: a2 00        	ldx	#$0
    1c1f: a5 2e        	lda	$2e                     ; 0x2e <__rc30>
    1c21: 20 c2 1c     	jsr	$1cc2 <checkPads>
    1c24: a2 80        	ldx	#$80
    1c26: 86 f3        	stx	$f3                     ; 0xf3 <__rc31+0xc4>
    1c28: a2 88        	ldx	#$88
    1c2a: 86 12        	stx	$12                     ; 0x12 <__zp_bss_size>
    1c2c: a2 61        	ldx	#$61
    1c2e: 86 13        	stx	$13                     ; 0x13 <__rc3>
    1c30: 20 f0 ff     	jsr	$fff0 <__heap_start+0x9e66>
    1c33: 92 24        	sta	($24)                   ; 0x24 <__rc20>
    1c35: a9 00        	lda	#$0
    1c37: 6a           	ror
    1c38: 85 12        	sta	$12                     ; 0x12 <__zp_bss_size>
    1c3a: a9 02        	lda	#$2
    1c3c: 18           	clc
    1c3d: 72 24        	adc	($24)                   ; 0x24 <__rc20>
    1c3f: 85 35        	sta	$35                     ; 0x35 <padTimer.1>
    1c41: 64 f3        	stz	$f3                     ; 0xf3 <__rc31+0xc4>
    1c43: a6 35        	ldx	$35                     ; 0x35 <padTimer.1>
    1c45: 86 f4        	stx	$f4                     ; 0xf4 <__rc31+0xc5>
    1c47: a2 63        	ldx	#$63
    1c49: 86 f5        	stx	$f5                     ; 0xf5 <__rc31+0xc6>
    1c4b: 20 f0 ff     	jsr	$fff0 <__heap_start+0x9e66>
    1c4e: 92 24        	sta	($24)                   ; 0x24 <__rc20>
    1c50: a9 00        	lda	#$0
    1c52: 6a           	ror
    1c53: 85 12        	sta	$12                     ; 0x12 <__zp_bss_size>
    1c55: 4c 98 1b     	jmp	$1b98 <main+0x1711>
    1c58: 78           	sei
    1c59: a2 07        	ldx	#$7
    1c5b: 86 0f        	stx	$f                      ; 0xf <__zp_data_size+0xf>
    1c5d: a2 de        	ldx	#$de
    1c5f: 8e a2 d6     	stx	$d6a2                   ; 0xd6a2 <__heap_start+0x7518>
    1c62: a2 ad        	ldx	#$ad
    1c64: 8e a3 d6     	stx	$d6a3                   ; 0xd6a3 <__heap_start+0x7519>
    1c67: a2 f0        	ldx	#$f0
    1c69: 8e a0 d6     	stx	$d6a0                   ; 0xd6a0 <__heap_start+0x7516>
    1c6c: 9c a0 d6     	stz	$d6a0                   ; 0xd6a0 <__heap_start+0x7516>
    1c6f: 6c fc ff     	jmp	($fffc)                 ; 0xfffc <__heap_start+0x9e72>
    1c72: a2 00        	ldx	#$0
    1c74: 8a           	txa
    1c75: 85 20        	sta	$20                     ; 0x20 <__rc16>
    1c77: a8           	tay
    1c78: b1 10        	lda	($10),y                 ; 0x10 <__rc0>
    1c7a: 85 2f        	sta	$2f                     ; 0x2f <__rc31>
    1c7c: c8           	iny
    1c7d: b1 10        	lda	($10),y                 ; 0x10 <__rc0>
    1c7f: 85 2e        	sta	$2e                     ; 0x2e <__rc30>
    1c81: c8           	iny
    1c82: b1 10        	lda	($10),y                 ; 0x10 <__rc0>
    1c84: 85 2d        	sta	$2d                     ; 0x2d <__rc29>
    1c86: c8           	iny
    1c87: b1 10        	lda	($10),y                 ; 0x10 <__rc0>
    1c89: 85 2c        	sta	$2c                     ; 0x2c <__rc28>
    1c8b: c8           	iny
    1c8c: b1 10        	lda	($10),y                 ; 0x10 <__rc0>
    1c8e: 85 2b        	sta	$2b                     ; 0x2b <__rc27>
    1c90: c8           	iny
    1c91: b1 10        	lda	($10),y                 ; 0x10 <__rc0>
    1c93: 85 2a        	sta	$2a                     ; 0x2a <__rc26>
    1c95: c8           	iny
    1c96: b1 10        	lda	($10),y                 ; 0x10 <__rc0>
    1c98: 85 29        	sta	$29                     ; 0x29 <__rc25>
    1c9a: c8           	iny
    1c9b: b1 10        	lda	($10),y                 ; 0x10 <__rc0>
    1c9d: 85 28        	sta	$28                     ; 0x28 <__rc24>
    1c9f: 7a           	ply
    1ca0: 84 27        	sty	$27                     ; 0x27 <__rc23>
    1ca2: 7a           	ply
    1ca3: 84 26        	sty	$26                     ; 0x26 <__rc22>
    1ca5: 7a           	ply
    1ca6: 84 25        	sty	$25                     ; 0x25 <__rc21>
    1ca8: 7a           	ply
    1ca9: 84 24        	sty	$24                     ; 0x24 <__rc20>
    1cab: 18           	clc
    1cac: a5 10        	lda	$10                     ; 0x10 <__rc0>
    1cae: 69 11        	adc	#$11
    1cb0: 85 10        	sta	$10                     ; 0x10 <__rc0>
    1cb2: a5 11        	lda	$11                     ; 0x11 <__rc1>
    1cb4: 69 00        	adc	#$0
    1cb6: 85 11        	sta	$11                     ; 0x11 <__rc1>
    1cb8: a5 20        	lda	$20                     ; 0x20 <__rc16>
    1cba: 60           	rts
    1cbb: a6 12        	ldx	$12                     ; 0x12 <__zp_bss_size>
    1cbd: 86 18        	stx	$18                     ; 0x18 <__rc8>
    1cbf: 4c 43 17     	jmp	$1743 <main+0x12bc>

00001cc2 <checkPads>:
    1cc2: 48           	pha
    1cc3: 18           	clc
    1cc4: a5 10        	lda	$10                     ; 0x10 <__rc0>
    1cc6: 69 f6        	adc	#$f6
    1cc8: 85 10        	sta	$10                     ; 0x10 <__rc0>
    1cca: a5 11        	lda	$11                     ; 0x11 <__rc1>
    1ccc: 69 ff        	adc	#$ff
    1cce: 85 11        	sta	$11                     ; 0x11 <__rc1>
    1cd0: 68           	pla
    1cd1: 85 14        	sta	$14                     ; 0x14 <__rc4>
    1cd3: 86 1b        	stx	$1b                     ; 0x1b <__rc11>
    1cd5: 85 4f        	sta	$4f                     ; 0x4f <__rc31+0x20>
    1cd7: 06 14        	asl	$14                     ; 0x14 <__rc4>
    1cd9: a2 01        	ldx	#$1
    1cdb: b0 02        	bcs	$1cdf <checkPads+0x1d>
    1cdd: a2 00        	ldx	#$0
    1cdf: 86 1a        	stx	$1a                     ; 0x1a <__rc10>
    1ce1: a2 d8        	ldx	#$d8
    1ce3: a5 1b        	lda	$1b                     ; 0x1b <__rc11>
    1ce5: f0 04        	beq	$1ceb <checkPads+0x29>
    1ce7: a9 84        	lda	#$84
    1ce9: 80 02        	bra	$1ced <checkPads+0x2b>
    1ceb: a9 7c        	lda	#$7c
    1ced: 18           	clc
    1cee: 65 14        	adc	$14                     ; 0x14 <__rc4>
    1cf0: 85 12        	sta	$12                     ; 0x12 <__zp_bss_size>
    1cf2: 8a           	txa
    1cf3: 69 00        	adc	#$0
    1cf5: 85 13        	sta	$13                     ; 0x13 <__rc3>
    1cf7: b2 12        	lda	($12)                   ; 0x12 <__zp_bss_size>
    1cf9: 29 02        	and	#$2
    1cfb: f0 03        	beq	$1d00 <checkPads+0x3e>
    1cfd: 4c 5f 1d     	jmp	$1d5f <checkPads+0x9d>
    1d00: a9 00        	lda	#$0
    1d02: a6 1a        	ldx	$1a                     ; 0x1a <__rc10>
    1d04: e0 01        	cpx	#$1
    1d06: 2a           	rol
    1d07: a6 14        	ldx	$14                     ; 0x14 <__rc4>
    1d09: 86 15        	stx	$15                     ; 0x15 <__rc5>
    1d0b: 06 15        	asl	$15                     ; 0x15 <__rc5>
    1d0d: 2a           	rol
    1d0e: 06 15        	asl	$15                     ; 0x15 <__rc5>
    1d10: 2a           	rol
    1d11: 85 16        	sta	$16                     ; 0x16 <__rc6>
    1d13: a5 15        	lda	$15                     ; 0x15 <__rc5>
    1d15: 0a           	asl
    1d16: a6 16        	ldx	$16                     ; 0x16 <__rc6>
    1d18: 86 18        	stx	$18                     ; 0x18 <__rc8>
    1d1a: 26 18        	rol	$18                     ; 0x18 <__rc8>
    1d1c: a2 00        	ldx	#$0
    1d1e: 18           	clc
    1d1f: 65 15        	adc	$15                     ; 0x15 <__rc5>
    1d21: 85 15        	sta	$15                     ; 0x15 <__rc5>
    1d23: a5 18        	lda	$18                     ; 0x18 <__rc8>
    1d25: 65 16        	adc	$16                     ; 0x16 <__rc6>
    1d27: 85 16        	sta	$16                     ; 0x16 <__rc6>
    1d29: a9 a8        	lda	#$a8
    1d2b: 18           	clc
    1d2c: 65 15        	adc	$15                     ; 0x15 <__rc5>
    1d2e: 85 15        	sta	$15                     ; 0x15 <__rc5>
    1d30: a9 5f        	lda	#$5f
    1d32: 65 16        	adc	$16                     ; 0x16 <__rc6>
    1d34: a8           	tay
    1d35: a5 15        	lda	$15                     ; 0x15 <__rc5>
    1d37: 85 16        	sta	$16                     ; 0x16 <__rc6>
    1d39: 84 17        	sty	$17                     ; 0x17 <__rc7>
    1d3b: 18           	clc
    1d3c: 69 0b        	adc	#$b
    1d3e: 85 18        	sta	$18                     ; 0x18 <__rc8>
    1d40: 98           	tya
    1d41: 69 00        	adc	#$0
    1d43: 85 19        	sta	$19                     ; 0x19 <__rc9>
    1d45: a0 0b        	ldy	#$b
    1d47: a9 ff        	lda	#$ff
    1d49: 91 16        	sta	($16),y                 ; 0x16 <__rc6>
    1d4b: a0 01        	ldy	#$1
    1d4d: 91 18        	sta	($18),y                 ; 0x18 <__rc8>
    1d4f: a0 13        	ldy	#$13
    1d51: a9 03        	lda	#$3
    1d53: 91 16        	sta	($16),y                 ; 0x16 <__rc6>
    1d55: 8a           	txa
    1d56: a0 04        	ldy	#$4
    1d58: 91 16        	sta	($16),y                 ; 0x16 <__rc6>
    1d5a: a0 01        	ldy	#$1
    1d5c: 4c 06 1e     	jmp	$1e06 <checkPads+0x144>
    1d5f: b2 12        	lda	($12)                   ; 0x12 <__zp_bss_size>
    1d61: 29 01        	and	#$1
    1d63: aa           	tax
    1d64: a9 00        	lda	#$0
    1d66: a4 1a        	ldy	$1a                     ; 0x1a <__rc10>
    1d68: c0 01        	cpy	#$1
    1d6a: 2a           	rol
    1d6b: a4 14        	ldy	$14                     ; 0x14 <__rc4>
    1d6d: 84 15        	sty	$15                     ; 0x15 <__rc5>
    1d6f: 06 15        	asl	$15                     ; 0x15 <__rc5>
    1d71: 2a           	rol
    1d72: 06 15        	asl	$15                     ; 0x15 <__rc5>
    1d74: 2a           	rol
    1d75: 85 16        	sta	$16                     ; 0x16 <__rc6>
    1d77: a5 15        	lda	$15                     ; 0x15 <__rc5>
    1d79: 0a           	asl
    1d7a: a4 16        	ldy	$16                     ; 0x16 <__rc6>
    1d7c: 84 19        	sty	$19                     ; 0x19 <__rc9>
    1d7e: 26 19        	rol	$19                     ; 0x19 <__rc9>
    1d80: a0 00        	ldy	#$0
    1d82: 18           	clc
    1d83: 65 15        	adc	$15                     ; 0x15 <__rc5>
    1d85: 85 15        	sta	$15                     ; 0x15 <__rc5>
    1d87: a5 19        	lda	$19                     ; 0x19 <__rc9>
    1d89: 65 16        	adc	$16                     ; 0x16 <__rc6>
    1d8b: 85 16        	sta	$16                     ; 0x16 <__rc6>
    1d8d: 18           	clc
    1d8e: a9 a8        	lda	#$a8
    1d90: 65 15        	adc	$15                     ; 0x15 <__rc5>
    1d92: 85 15        	sta	$15                     ; 0x15 <__rc5>
    1d94: a9 5f        	lda	#$5f
    1d96: 65 16        	adc	$16                     ; 0x16 <__rc6>
    1d98: a4 15        	ldy	$15                     ; 0x15 <__rc5>
    1d9a: 48           	pha
    1d9b: a5 15        	lda	$15                     ; 0x15 <__rc5>
    1d9d: 85 16        	sta	$16                     ; 0x16 <__rc6>
    1d9f: 68           	pla
    1da0: 85 18        	sta	$18                     ; 0x18 <__rc8>
    1da2: 85 17        	sta	$17                     ; 0x17 <__rc7>
    1da4: 8a           	txa
    1da5: d0 28        	bne	$1dcf <checkPads+0x10d>
    1da7: 18           	clc
    1da8: 98           	tya
    1da9: 69 0b        	adc	#$b
    1dab: aa           	tax
    1dac: a5 18        	lda	$18                     ; 0x18 <__rc8>
    1dae: 69 00        	adc	#$0
    1db0: 86 18        	stx	$18                     ; 0x18 <__rc8>
    1db2: 85 19        	sta	$19                     ; 0x19 <__rc9>
    1db4: a0 01        	ldy	#$1
    1db6: a9 00        	lda	#$0
    1db8: 91 18        	sta	($18),y                 ; 0x18 <__rc8>
    1dba: a0 13        	ldy	#$13
    1dbc: a9 02        	lda	#$2
    1dbe: 91 16        	sta	($16),y                 ; 0x16 <__rc6>
    1dc0: a0 0b        	ldy	#$b
    1dc2: 3a           	dec
    1dc3: 91 16        	sta	($16),y                 ; 0x16 <__rc6>
    1dc5: a0 04        	ldy	#$4
    1dc7: 91 16        	sta	($16),y                 ; 0x16 <__rc6>
    1dc9: a2 00        	ldx	#$0
    1dcb: a0 00        	ldy	#$0
    1dcd: 80 37        	bra	$1e06 <checkPads+0x144>
    1dcf: 84 19        	sty	$19                     ; 0x19 <__rc9>
    1dd1: a0 04        	ldy	#$4
    1dd3: b1 16        	lda	($16),y                 ; 0x16 <__rc6>
    1dd5: a0 01        	ldy	#$1
    1dd7: aa           	tax
    1dd8: f0 02        	beq	$1ddc <checkPads+0x11a>
    1dda: a0 00        	ldy	#$0
    1ddc: a9 01        	lda	#$1
    1dde: 84 15        	sty	$15                     ; 0x15 <__rc5>
    1de0: c0 00        	cpy	#$0
    1de2: d0 02        	bne	$1de6 <checkPads+0x124>
    1de4: a9 00        	lda	#$0
    1de6: a0 13        	ldy	#$13
    1de8: 91 16        	sta	($16),y                 ; 0x16 <__rc6>
    1dea: 18           	clc
    1deb: a5 19        	lda	$19                     ; 0x19 <__rc9>
    1ded: 69 0b        	adc	#$b
    1def: aa           	tax
    1df0: a5 18        	lda	$18                     ; 0x18 <__rc8>
    1df2: 69 00        	adc	#$0
    1df4: 86 18        	stx	$18                     ; 0x18 <__rc8>
    1df6: 85 19        	sta	$19                     ; 0x19 <__rc9>
    1df8: a0 0b        	ldy	#$b
    1dfa: a9 00        	lda	#$0
    1dfc: 91 16        	sta	($16),y                 ; 0x16 <__rc6>
    1dfe: a0 01        	ldy	#$1
    1e00: 91 18        	sta	($18),y                 ; 0x18 <__rc8>
    1e02: a2 01        	ldx	#$1
    1e04: a4 15        	ldy	$15                     ; 0x15 <__rc5>
    1e06: b2 12        	lda	($12)                   ; 0x12 <__zp_bss_size>
    1e08: 29 08        	and	#$8
    1e0a: 84 42        	sty	$42                     ; 0x42 <__rc31+0x13>
    1e0c: f0 03        	beq	$1e11 <checkPads+0x14f>
    1e0e: 4c 62 1e     	jmp	$1e62 <checkPads+0x1a0>
    1e11: a9 00        	lda	#$0
    1e13: a4 1a        	ldy	$1a                     ; 0x1a <__rc10>
    1e15: c0 01        	cpy	#$1
    1e17: 2a           	rol
    1e18: a4 14        	ldy	$14                     ; 0x14 <__rc4>
    1e1a: 84 15        	sty	$15                     ; 0x15 <__rc5>
    1e1c: 06 15        	asl	$15                     ; 0x15 <__rc5>
    1e1e: 2a           	rol
    1e1f: 06 15        	asl	$15                     ; 0x15 <__rc5>
    1e21: 2a           	rol
    1e22: 85 16        	sta	$16                     ; 0x16 <__rc6>
    1e24: a5 15        	lda	$15                     ; 0x15 <__rc5>
    1e26: 0a           	asl
    1e27: a4 16        	ldy	$16                     ; 0x16 <__rc6>
    1e29: 84 17        	sty	$17                     ; 0x17 <__rc7>
    1e2b: 26 17        	rol	$17                     ; 0x17 <__rc7>
    1e2d: 18           	clc
    1e2e: 65 15        	adc	$15                     ; 0x15 <__rc5>
    1e30: 85 15        	sta	$15                     ; 0x15 <__rc5>
    1e32: a5 17        	lda	$17                     ; 0x17 <__rc7>
    1e34: 65 16        	adc	$16                     ; 0x16 <__rc6>
    1e36: 85 16        	sta	$16                     ; 0x16 <__rc6>
    1e38: a9 a8        	lda	#$a8
    1e3a: 18           	clc
    1e3b: 65 15        	adc	$15                     ; 0x15 <__rc5>
    1e3d: 85 15        	sta	$15                     ; 0x15 <__rc5>
    1e3f: a9 5f        	lda	#$5f
    1e41: 65 16        	adc	$16                     ; 0x16 <__rc6>
    1e43: a8           	tay
    1e44: a5 15        	lda	$15                     ; 0x15 <__rc5>
    1e46: 85 16        	sta	$16                     ; 0x16 <__rc6>
    1e48: 84 17        	sty	$17                     ; 0x17 <__rc7>
    1e4a: 18           	clc
    1e4b: 69 0d        	adc	#$d
    1e4d: 85 18        	sta	$18                     ; 0x18 <__rc8>
    1e4f: 98           	tya
    1e50: 69 00        	adc	#$0
    1e52: a0 0d        	ldy	#$d
    1e54: 85 19        	sta	$19                     ; 0x19 <__rc9>
    1e56: a9 ff        	lda	#$ff
    1e58: 91 16        	sta	($16),y                 ; 0x16 <__rc6>
    1e5a: a0 01        	ldy	#$1
    1e5c: 91 18        	sta	($18),y                 ; 0x18 <__rc8>
    1e5e: 1a           	inc
    1e5f: 4c c8 1e     	jmp	$1ec8 <checkPads+0x206>
    1e62: b2 12        	lda	($12)                   ; 0x12 <__zp_bss_size>
    1e64: 29 04        	and	#$4
    1e66: 85 19        	sta	$19                     ; 0x19 <__rc9>
    1e68: a4 1a        	ldy	$1a                     ; 0x1a <__rc10>
    1e6a: c0 01        	cpy	#$1
    1e6c: a9 00        	lda	#$0
    1e6e: 2a           	rol
    1e6f: a4 14        	ldy	$14                     ; 0x14 <__rc4>
    1e71: 84 15        	sty	$15                     ; 0x15 <__rc5>
    1e73: 06 15        	asl	$15                     ; 0x15 <__rc5>
    1e75: 2a           	rol
    1e76: 06 15        	asl	$15                     ; 0x15 <__rc5>
    1e78: 2a           	rol
    1e79: 85 16        	sta	$16                     ; 0x16 <__rc6>
    1e7b: a5 15        	lda	$15                     ; 0x15 <__rc5>
    1e7d: 0a           	asl
    1e7e: a4 16        	ldy	$16                     ; 0x16 <__rc6>
    1e80: 84 17        	sty	$17                     ; 0x17 <__rc7>
    1e82: 26 17        	rol	$17                     ; 0x17 <__rc7>
    1e84: 18           	clc
    1e85: 65 15        	adc	$15                     ; 0x15 <__rc5>
    1e87: 85 15        	sta	$15                     ; 0x15 <__rc5>
    1e89: a5 17        	lda	$17                     ; 0x17 <__rc7>
    1e8b: 65 16        	adc	$16                     ; 0x16 <__rc6>
    1e8d: 85 16        	sta	$16                     ; 0x16 <__rc6>
    1e8f: 18           	clc
    1e90: a9 a8        	lda	#$a8
    1e92: 65 15        	adc	$15                     ; 0x15 <__rc5>
    1e94: 85 17        	sta	$17                     ; 0x17 <__rc7>
    1e96: a9 5f        	lda	#$5f
    1e98: 65 16        	adc	$16                     ; 0x16 <__rc6>
    1e9a: a0 00        	ldy	#$0
    1e9c: 84 4e        	sty	$4e                     ; 0x4e <__rc31+0x1f>
    1e9e: a4 17        	ldy	$17                     ; 0x17 <__rc7>
    1ea0: 84 18        	sty	$18                     ; 0x18 <__rc8>
    1ea2: a4 17        	ldy	$17                     ; 0x17 <__rc7>
    1ea4: 84 16        	sty	$16                     ; 0x16 <__rc6>
    1ea6: 85 15        	sta	$15                     ; 0x15 <__rc5>
    1ea8: 85 17        	sta	$17                     ; 0x17 <__rc7>
    1eaa: a5 19        	lda	$19                     ; 0x19 <__rc9>
    1eac: f0 03        	beq	$1eb1 <checkPads+0x1ef>
    1eae: 4c 29 1f     	jmp	$1f29 <checkPads+0x267>
    1eb1: a0 0d        	ldy	#$d
    1eb3: 18           	clc
    1eb4: a5 18        	lda	$18                     ; 0x18 <__rc8>
    1eb6: 69 0d        	adc	#$d
    1eb8: 85 18        	sta	$18                     ; 0x18 <__rc8>
    1eba: a5 15        	lda	$15                     ; 0x15 <__rc5>
    1ebc: 69 00        	adc	#$0
    1ebe: 85 19        	sta	$19                     ; 0x19 <__rc9>
    1ec0: a9 01        	lda	#$1
    1ec2: 91 16        	sta	($16),y                 ; 0x16 <__rc6>
    1ec4: a8           	tay
    1ec5: 3a           	dec
    1ec6: 91 18        	sta	($18),y                 ; 0x18 <__rc8>
    1ec8: 85 4e        	sta	$4e                     ; 0x4e <__rc31+0x1f>
    1eca: a4 1a        	ldy	$1a                     ; 0x1a <__rc10>
    1ecc: c0 01        	cpy	#$1
    1ece: 2a           	rol
    1ecf: 06 14        	asl	$14                     ; 0x14 <__rc4>
    1ed1: 2a           	rol
    1ed2: 06 14        	asl	$14                     ; 0x14 <__rc4>
    1ed4: 2a           	rol
    1ed5: 85 15        	sta	$15                     ; 0x15 <__rc5>
    1ed7: a5 14        	lda	$14                     ; 0x14 <__rc4>
    1ed9: 0a           	asl
    1eda: a4 15        	ldy	$15                     ; 0x15 <__rc5>
    1edc: 84 16        	sty	$16                     ; 0x16 <__rc6>
    1ede: 26 16        	rol	$16                     ; 0x16 <__rc6>
    1ee0: 18           	clc
    1ee1: 65 14        	adc	$14                     ; 0x14 <__rc4>
    1ee3: 85 14        	sta	$14                     ; 0x14 <__rc4>
    1ee5: a5 16        	lda	$16                     ; 0x16 <__rc6>
    1ee7: 65 15        	adc	$15                     ; 0x15 <__rc5>
    1ee9: 85 15        	sta	$15                     ; 0x15 <__rc5>
    1eeb: a0 00        	ldy	#$0
    1eed: 84 19        	sty	$19                     ; 0x19 <__rc9>
    1eef: 18           	clc
    1ef0: a9 a8        	lda	#$a8
    1ef2: 65 14        	adc	$14                     ; 0x14 <__rc4>
    1ef4: a8           	tay
    1ef5: a9 5f        	lda	#$5f
    1ef7: 65 15        	adc	$15                     ; 0x15 <__rc5>
    1ef9: 84 15        	sty	$15                     ; 0x15 <__rc5>
    1efb: 84 16        	sty	$16                     ; 0x16 <__rc6>
    1efd: 85 14        	sta	$14                     ; 0x14 <__rc4>
    1eff: 85 17        	sta	$17                     ; 0x17 <__rc7>
    1f01: a9 03        	lda	#$3
    1f03: a4 42        	ldy	$42                     ; 0x42 <__rc31+0x13>
    1f05: d0 02        	bne	$1f09 <checkPads+0x247>
    1f07: a9 02        	lda	#$2
    1f09: a0 13        	ldy	#$13
    1f0b: 91 16        	sta	($16),y                 ; 0x16 <__rc6>
    1f0d: 18           	clc
    1f0e: a5 15        	lda	$15                     ; 0x15 <__rc5>
    1f10: 69 0b        	adc	#$b
    1f12: a8           	tay
    1f13: a5 14        	lda	$14                     ; 0x14 <__rc4>
    1f15: 69 00        	adc	#$0
    1f17: 84 14        	sty	$14                     ; 0x14 <__rc4>
    1f19: 85 15        	sta	$15                     ; 0x15 <__rc5>
    1f1b: 8a           	txa
    1f1c: f0 03        	beq	$1f21 <checkPads+0x25f>
    1f1e: 4c 86 1f     	jmp	$1f86 <checkPads+0x2c4>
    1f21: a5 1b        	lda	$1b                     ; 0x1b <__rc11>
    1f23: f0 3b        	beq	$1f60 <checkPads+0x29e>
    1f25: a2 40        	ldx	#$40
    1f27: 80 39        	bra	$1f62 <checkPads+0x2a0>
    1f29: a5 18        	lda	$18                     ; 0x18 <__rc8>
    1f2b: a4 18        	ldy	$18                     ; 0x18 <__rc8>
    1f2d: 84 19        	sty	$19                     ; 0x19 <__rc9>
    1f2f: 18           	clc
    1f30: 69 0d        	adc	#$d
    1f32: 85 14        	sta	$14                     ; 0x14 <__rc4>
    1f34: a4 15        	ldy	$15                     ; 0x15 <__rc5>
    1f36: 84 18        	sty	$18                     ; 0x18 <__rc8>
    1f38: a5 15        	lda	$15                     ; 0x15 <__rc5>
    1f3a: 69 00        	adc	#$0
    1f3c: a0 0d        	ldy	#$d
    1f3e: 85 15        	sta	$15                     ; 0x15 <__rc5>
    1f40: a9 00        	lda	#$0
    1f42: 91 16        	sta	($16),y                 ; 0x16 <__rc6>
    1f44: a0 01        	ldy	#$1
    1f46: 91 14        	sta	($14),y                 ; 0x14 <__rc4>
    1f48: 18           	clc
    1f49: a5 19        	lda	$19                     ; 0x19 <__rc9>
    1f4b: 69 0b        	adc	#$b
    1f4d: 85 14        	sta	$14                     ; 0x14 <__rc4>
    1f4f: a5 18        	lda	$18                     ; 0x18 <__rc8>
    1f51: 69 00        	adc	#$0
    1f53: 85 15        	sta	$15                     ; 0x15 <__rc5>
    1f55: 8a           	txa
    1f56: f0 1c        	beq	$1f74 <checkPads+0x2b2>
    1f58: a5 42        	lda	$42                     ; 0x42 <__rc31+0x13>
    1f5a: f0 20        	beq	$1f7c <checkPads+0x2ba>
    1f5c: a9 01        	lda	#$1
    1f5e: 80 1e        	bra	$1f7e <checkPads+0x2bc>
    1f60: a2 80        	ldx	#$80
    1f62: 86 18        	stx	$18                     ; 0x18 <__rc8>
    1f64: b2 12        	lda	($12)                   ; 0x12 <__zp_bss_size>
    1f66: 25 18        	and	$18                     ; 0x18 <__rc8>
    1f68: f0 03        	beq	$1f6d <checkPads+0x2ab>
    1f6a: 4c 9b 22     	jmp	$229b <checkPads+0x5d9>
    1f6d: 64 13        	stz	$13                     ; 0x13 <__rc3>
    1f6f: a2 11        	ldx	#$11
    1f71: 4c d8 1f     	jmp	$1fd8 <checkPads+0x316>
    1f74: a5 1b        	lda	$1b                     ; 0x1b <__rc11>
    1f76: f0 4f        	beq	$1fc7 <checkPads+0x305>
    1f78: a2 40        	ldx	#$40
    1f7a: 80 4d        	bra	$1fc9 <checkPads+0x307>
    1f7c: a9 00        	lda	#$0
    1f7e: a0 13        	ldy	#$13
    1f80: 91 16        	sta	($16),y                 ; 0x16 <__rc6>
    1f82: a2 01        	ldx	#$1
    1f84: 86 19        	stx	$19                     ; 0x19 <__rc9>
    1f86: a5 1b        	lda	$1b                     ; 0x1b <__rc11>
    1f88: f0 04        	beq	$1f8e <checkPads+0x2cc>
    1f8a: a2 40        	ldx	#$40
    1f8c: 80 02        	bra	$1f90 <checkPads+0x2ce>
    1f8e: a2 80        	ldx	#$80
    1f90: 86 18        	stx	$18                     ; 0x18 <__rc8>
    1f92: b2 12        	lda	($12)                   ; 0x12 <__zp_bss_size>
    1f94: 25 18        	and	$18                     ; 0x18 <__rc8>
    1f96: f0 03        	beq	$1f9b <checkPads+0x2d9>
    1f98: 4c 9b 22     	jmp	$229b <checkPads+0x5d9>
    1f9b: a0 05        	ldy	#$5
    1f9d: b1 16        	lda	($16),y                 ; 0x16 <__rc6>
    1f9f: a2 01        	ldx	#$1
    1fa1: a8           	tay
    1fa2: f0 02        	beq	$1fa6 <checkPads+0x2e4>
    1fa4: a2 00        	ldx	#$0
    1fa6: a0 01        	ldy	#$1
    1fa8: a9 00        	lda	#$0
    1faa: e0 00        	cpx	#$0
    1fac: d0 02        	bne	$1fb0 <checkPads+0x2ee>
    1fae: a9 01        	lda	#$1
    1fb0: 84 12        	sty	$12                     ; 0x12 <__zp_bss_size>
    1fb2: a6 19        	ldx	$19                     ; 0x19 <__rc9>
    1fb4: d0 02        	bne	$1fb8 <checkPads+0x2f6>
    1fb6: 64 12        	stz	$12                     ; 0x12 <__zp_bss_size>
    1fb8: 05 12        	ora	$12                     ; 0x12 <__zp_bss_size>
    1fba: 29 01        	and	#$1
    1fbc: f0 03        	beq	$1fc1 <checkPads+0x2ff>
    1fbe: 4c 9b 22     	jmp	$229b <checkPads+0x5d9>
    1fc1: a2 18        	ldx	#$18
    1fc3: 64 13        	stz	$13                     ; 0x13 <__rc3>
    1fc5: 80 1a        	bra	$1fe1 <checkPads+0x31f>
    1fc7: a2 80        	ldx	#$80
    1fc9: 86 18        	stx	$18                     ; 0x18 <__rc8>
    1fcb: b2 12        	lda	($12)                   ; 0x12 <__zp_bss_size>
    1fcd: 25 18        	and	$18                     ; 0x18 <__rc8>
    1fcf: f0 03        	beq	$1fd4 <checkPads+0x312>
    1fd1: 4c 9b 22     	jmp	$229b <checkPads+0x5d9>
    1fd4: 64 13        	stz	$13                     ; 0x13 <__rc3>
    1fd6: a2 18        	ldx	#$18
    1fd8: a0 05        	ldy	#$5
    1fda: b1 16        	lda	($16),y                 ; 0x16 <__rc6>
    1fdc: f0 03        	beq	$1fe1 <checkPads+0x31f>
    1fde: 4c 9b 22     	jmp	$229b <checkPads+0x5d9>
    1fe1: 86 43        	stx	$43                     ; 0x43 <__rc31+0x14>
    1fe3: a0 05        	ldy	#$5
    1fe5: a9 01        	lda	#$1
    1fe7: 91 16        	sta	($16),y                 ; 0x16 <__rc6>
    1fe9: a5 42        	lda	$42                     ; 0x42 <__rc31+0x13>
    1feb: d0 02        	bne	$1fef <checkPads+0x32d>
    1fed: a0 04        	ldy	#$4
    1fef: a6 4f        	ldx	$4f                     ; 0x4f <__rc31+0x20>
    1ff1: 8a           	txa
    1ff2: 18           	clc
    1ff3: 69 0a        	adc	#$a
    1ff5: 85 19        	sta	$19                     ; 0x19 <__rc9>
    1ff7: a5 4e        	lda	$4e                     ; 0x4e <__rc31+0x1f>
    1ff9: 69 00        	adc	#$0
    1ffb: 06 19        	asl	$19                     ; 0x19 <__rc9>
    1ffd: 2a           	rol
    1ffe: 06 19        	asl	$19                     ; 0x19 <__rc9>
    2000: 2a           	rol
    2001: 06 19        	asl	$19                     ; 0x19 <__rc9>
    2003: 2a           	rol
    2004: aa           	tax
    2005: 84 1d        	sty	$1d                     ; 0x1d <__rc13>
    2007: a5 19        	lda	$19                     ; 0x19 <__rc9>
    2009: 0a           	asl
    200a: 85 12        	sta	$12                     ; 0x12 <__zp_bss_size>
    200c: 8a           	txa
    200d: 2a           	rol
    200e: 85 18        	sta	$18                     ; 0x18 <__rc8>
    2010: a5 19        	lda	$19                     ; 0x19 <__rc9>
    2012: 85 1e        	sta	$1e                     ; 0x1e <__rc14>
    2014: 18           	clc
    2015: 65 12        	adc	$12                     ; 0x12 <__zp_bss_size>
    2017: 85 12        	sta	$12                     ; 0x12 <__zp_bss_size>
    2019: 86 1f        	stx	$1f                     ; 0x1f <__rc15>
    201b: 8a           	txa
    201c: 65 18        	adc	$18                     ; 0x18 <__rc8>
    201e: 85 18        	sta	$18                     ; 0x18 <__rc8>
    2020: 18           	clc
    2021: a9 a8        	lda	#$a8
    2023: 65 12        	adc	$12                     ; 0x12 <__zp_bss_size>
    2025: 85 12        	sta	$12                     ; 0x12 <__zp_bss_size>
    2027: a9 5f        	lda	#$5f
    2029: 65 18        	adc	$18                     ; 0x18 <__rc8>
    202b: 85 19        	sta	$19                     ; 0x19 <__rc9>
    202d: a5 16        	lda	$16                     ; 0x16 <__rc6>
    202f: 18           	clc
    2030: 69 02        	adc	#$2
    2032: 85 1a        	sta	$1a                     ; 0x1a <__rc10>
    2034: a5 17        	lda	$17                     ; 0x17 <__rc7>
    2036: 69 00        	adc	#$0
    2038: 85 1b        	sta	$1b                     ; 0x1b <__rc11>
    203a: a5 12        	lda	$12                     ; 0x12 <__zp_bss_size>
    203c: 18           	clc
    203d: 69 02        	adc	#$2
    203f: 85 1c        	sta	$1c                     ; 0x1c <__rc12>
    2041: a5 19        	lda	$19                     ; 0x19 <__rc9>
    2043: 69 00        	adc	#$0
    2045: 85 18        	sta	$18                     ; 0x18 <__rc8>
    2047: a0 13        	ldy	#$13
    2049: a5 1d        	lda	$1d                     ; 0x1d <__rc13>
    204b: a6 1d        	ldx	$1d                     ; 0x1d <__rc13>
    204d: 86 54        	stx	$54                     ; 0x54 <__rc31+0x25>
    204f: 91 16        	sta	($16),y                 ; 0x16 <__rc6>
    2051: a6 18        	ldx	$18                     ; 0x18 <__rc8>
    2053: 86 1d        	stx	$1d                     ; 0x1d <__rc13>
    2055: b2 16        	lda	($16)                   ; 0x16 <__rc6>
    2057: 85 23        	sta	$23                     ; 0x23 <__rc19>
    2059: a6 12        	ldx	$12                     ; 0x12 <__zp_bss_size>
    205b: 86 18        	stx	$18                     ; 0x18 <__rc8>
    205d: a6 12        	ldx	$12                     ; 0x12 <__zp_bss_size>
    205f: 86 56        	stx	$56                     ; 0x56 <__rc31+0x27>
    2061: a6 19        	ldx	$19                     ; 0x19 <__rc9>
    2063: 86 55        	stx	$55                     ; 0x55 <__rc31+0x26>
    2065: a0 01        	ldy	#$1
    2067: b1 16        	lda	($16),y                 ; 0x16 <__rc6>
    2069: aa           	tax
    206a: a5 23        	lda	$23                     ; 0x23 <__rc19>
    206c: 85 22        	sta	$22                     ; 0x22 <__rc18>
    206e: a5 23        	lda	$23                     ; 0x23 <__rc19>
    2070: 92 18        	sta	($18)                   ; 0x18 <__rc8>
    2072: 8a           	txa
    2073: 86 23        	stx	$23                     ; 0x23 <__rc19>
    2075: 91 18        	sta	($18),y                 ; 0x18 <__rc8>
    2077: a2 01        	ldx	#$1
    2079: 86 44        	stx	$44                     ; 0x44 <__rc31+0x15>
    207b: c8           	iny
    207c: b1 16        	lda	($16),y                 ; 0x16 <__rc6>
    207e: 85 12        	sta	$12                     ; 0x12 <__zp_bss_size>
    2080: e8           	inx
    2081: a4 44        	ldy	$44                     ; 0x44 <__rc31+0x15>
    2083: b1 1a        	lda	($1a),y                 ; 0x1a <__rc10>
    2085: 85 1a        	sta	$1a                     ; 0x1a <__rc10>
    2087: 84 1b        	sty	$1b                     ; 0x1b <__rc11>
    2089: a5 12        	lda	$12                     ; 0x12 <__zp_bss_size>
    208b: 1a           	inc
    208c: d0 02        	bne	$2090 <checkPads+0x3ce>
    208e: e6 1a        	inc	$1a                     ; 0x1a <__rc10>
    2090: 85 12        	sta	$12                     ; 0x12 <__zp_bss_size>
    2092: a0 02        	ldy	#$2
    2094: 91 18        	sta	($18),y                 ; 0x18 <__rc8>
    2096: a5 1a        	lda	$1a                     ; 0x1a <__rc10>
    2098: a4 1b        	ldy	$1b                     ; 0x1b <__rc11>
    209a: 91 1c        	sta	($1c),y                 ; 0x1c <__rc12>
    209c: a5 1b        	lda	$1b                     ; 0x1b <__rc11>
    209e: a6 42        	ldx	$42                     ; 0x42 <__rc31+0x13>
    20a0: 86 1b        	stx	$1b                     ; 0x1b <__rc11>
    20a2: d0 02        	bne	$20a6 <checkPads+0x3e4>
    20a4: a9 00        	lda	#$0
    20a6: a6 16        	ldx	$16                     ; 0x16 <__rc6>
    20a8: 86 52        	stx	$52                     ; 0x52 <__rc31+0x23>
    20aa: a6 17        	ldx	$17                     ; 0x17 <__rc7>
    20ac: 86 53        	stx	$53                     ; 0x53 <__rc31+0x24>
    20ae: a0 13        	ldy	#$13
    20b0: 91 18        	sta	($18),y                 ; 0x18 <__rc8>
    20b2: a9 04        	lda	#$4
    20b4: a6 1b        	ldx	$1b                     ; 0x1b <__rc11>
    20b6: d0 02        	bne	$20ba <checkPads+0x3f8>
    20b8: a9 00        	lda	#$0
    20ba: a0 0a        	ldy	#$a
    20bc: 91 18        	sta	($18),y                 ; 0x18 <__rc8>
    20be: 18           	clc
    20bf: a5 1e        	lda	$1e                     ; 0x1e <__rc14>
    20c1: 69 04        	adc	#$4
    20c3: 85 16        	sta	$16                     ; 0x16 <__rc6>
    20c5: a5 1f        	lda	$1f                     ; 0x1f <__rc15>
    20c7: 69 d9        	adc	#$d9
    20c9: 85 17        	sta	$17                     ; 0x17 <__rc7>
    20cb: a5 22        	lda	$22                     ; 0x22 <__rc18>
    20cd: 92 16        	sta	($16)                   ; 0x16 <__rc6>
    20cf: a0 01        	ldy	#$1
    20d1: a5 23        	lda	$23                     ; 0x23 <__rc19>
    20d3: 91 16        	sta	($16),y                 ; 0x16 <__rc6>
    20d5: 18           	clc
    20d6: a5 1e        	lda	$1e                     ; 0x1e <__rc14>
    20d8: 69 06        	adc	#$6
    20da: 85 16        	sta	$16                     ; 0x16 <__rc6>
    20dc: a5 1f        	lda	$1f                     ; 0x1f <__rc15>
    20de: 69 d9        	adc	#$d9
    20e0: 85 17        	sta	$17                     ; 0x17 <__rc7>
    20e2: a5 12        	lda	$12                     ; 0x12 <__zp_bss_size>
    20e4: 92 16        	sta	($16)                   ; 0x16 <__rc6>
    20e6: a5 1a        	lda	$1a                     ; 0x1a <__rc10>
    20e8: 91 16        	sta	($16),y                 ; 0x16 <__rc6>
    20ea: 84 12        	sty	$12                     ; 0x12 <__zp_bss_size>
    20ec: 18           	clc
    20ed: a5 1e        	lda	$1e                     ; 0x1e <__rc14>
    20ef: 69 00        	adc	#$0
    20f1: 85 16        	sta	$16                     ; 0x16 <__rc6>
    20f3: a5 1f        	lda	$1f                     ; 0x1f <__rc15>
    20f5: 69 d9        	adc	#$d9
    20f7: 85 17        	sta	$17                     ; 0x17 <__rc7>
    20f9: 98           	tya
    20fa: a6 4f        	ldx	$4f                     ; 0x4f <__rc31+0x20>
    20fc: 1d 72 5f     	ora	$5f72,x                 ; 0x5f72 <_spriteCtl+0xa>
    20ff: 92 16        	sta	($16)                   ; 0x16 <__rc6>
    2101: a2 80        	ldx	#$80
    2103: 86 f3        	stx	$f3                     ; 0xf3 <__rc31+0xc4>
    2105: a2 4d        	ldx	#$4d
    2107: a0 00        	ldy	#$0
    2109: 86 16        	stx	$16                     ; 0x16 <__rc6>
    210b: 84 17        	sty	$17                     ; 0x17 <__rc7>
    210d: a2 88        	ldx	#$88
    210f: 86 1a        	stx	$1a                     ; 0x1a <__rc10>
    2111: a2 61        	ldx	#$61
    2113: 86 1b        	stx	$1b                     ; 0x1b <__rc11>
    2115: 20 f0 ff     	jsr	$fff0 <__heap_start+0x9e66>
    2118: 92 16        	sta	($16)                   ; 0x16 <__rc6>
    211a: a9 00        	lda	#$0
    211c: 6a           	ror
    211d: 85 1a        	sta	$1a                     ; 0x1a <__rc10>
    211f: a2 08        	ldx	#$8
    2121: 18           	clc
    2122: 8a           	txa
    2123: 65 4d        	adc	$4d                     ; 0x4d <__rc31+0x1e>
    2125: 85 17        	sta	$17                     ; 0x17 <__rc7>
    2127: a0 0f        	ldy	#$f
    2129: b1 18        	lda	($18),y                 ; 0x18 <__rc8>
    212b: 85 16        	sta	$16                     ; 0x16 <__rc6>
    212d: c8           	iny
    212e: a5 17        	lda	$17                     ; 0x17 <__rc7>
    2130: 91 18        	sta	($18),y                 ; 0x18 <__rc8>
    2132: a6 16        	ldx	$16                     ; 0x16 <__rc6>
    2134: 86 f3        	stx	$f3                     ; 0xf3 <__rc31+0xc4>
    2136: b1 18        	lda	($18),y                 ; 0x18 <__rc8>
    2138: 85 f4        	sta	$f4                     ; 0xf4 <__rc31+0xc5>
    213a: c8           	iny
    213b: a6 18        	ldx	$18                     ; 0x18 <__rc8>
    213d: 86 16        	stx	$16                     ; 0x16 <__rc6>
    213f: a6 19        	ldx	$19                     ; 0x19 <__rc9>
    2141: 86 17        	stx	$17                     ; 0x17 <__rc7>
    2143: a6 16        	ldx	$16                     ; 0x16 <__rc6>
    2145: 86 50        	stx	$50                     ; 0x50 <__rc31+0x21>
    2147: a6 17        	ldx	$17                     ; 0x17 <__rc7>
    2149: 86 51        	stx	$51                     ; 0x51 <__rc31+0x22>
    214b: b1 18        	lda	($18),y                 ; 0x18 <__rc8>
    214d: 85 f5        	sta	$f5                     ; 0xf5 <__rc31+0xc6>
    214f: a2 4c        	ldx	#$4c
    2151: a0 00        	ldy	#$0
    2153: 86 16        	stx	$16                     ; 0x16 <__rc6>
    2155: 84 17        	sty	$17                     ; 0x17 <__rc7>
    2157: 20 f0 ff     	jsr	$fff0 <__heap_start+0x9e66>
    215a: 92 16        	sta	($16)                   ; 0x16 <__rc6>
    215c: a9 00        	lda	#$0
    215e: 6a           	ror
    215f: 85 1a        	sta	$1a                     ; 0x1a <__rc10>
    2161: b2 14        	lda	($14)                   ; 0x14 <__rc4>
    2163: 85 16        	sta	$16                     ; 0x16 <__rc6>
    2165: a4 12        	ldy	$12                     ; 0x12 <__zp_bss_size>
    2167: b1 14        	lda	($14),y                 ; 0x14 <__rc4>
    2169: a6 43        	ldx	$43                     ; 0x43 <__rc31+0x14>
    216b: 86 12        	stx	$12                     ; 0x12 <__zp_bss_size>
    216d: 64 48        	stz	$48                     ; 0x48 <__rc31+0x19>
    216f: aa           	tax
    2170: a5 16        	lda	$16                     ; 0x16 <__rc6>
    2172: a4 14        	ldy	$14                     ; 0x14 <__rc4>
    2174: 84 44        	sty	$44                     ; 0x44 <__rc31+0x15>
    2176: a4 15        	ldy	$15                     ; 0x15 <__rc5>
    2178: 84 45        	sty	$45                     ; 0x45 <__rc31+0x16>
    217a: 20 2c 3a     	jsr	$3a2c <__mulhi3>
    217d: 86 16        	stx	$16                     ; 0x16 <__rc6>
    217f: 18           	clc
    2180: a6 52        	ldx	$52                     ; 0x52 <__rc31+0x23>
    2182: 86 4a        	stx	$4a                     ; 0x4a <__rc31+0x1b>
    2184: a6 53        	ldx	$53                     ; 0x53 <__rc31+0x24>
    2186: 86 4b        	stx	$4b                     ; 0x4b <__rc31+0x1c>
    2188: 72 4a        	adc	($4a)                   ; 0x4a <__rc31+0x1b>
    218a: aa           	tax
    218b: a0 01        	ldy	#$1
    218d: a5 16        	lda	$16                     ; 0x16 <__rc6>
    218f: 71 4a        	adc	($4a),y                 ; 0x4a <__rc31+0x1b>
    2191: 85 12        	sta	$12                     ; 0x12 <__zp_bss_size>
    2193: 8a           	txa
    2194: 92 4a        	sta	($4a)                   ; 0x4a <__rc31+0x1b>
    2196: a5 12        	lda	$12                     ; 0x12 <__zp_bss_size>
    2198: 91 4a        	sta	($4a),y                 ; 0x4a <__rc31+0x1b>
    219a: a2 01        	ldx	#$1
    219c: 86 13        	stx	$13                     ; 0x13 <__rc3>
    219e: a5 4a        	lda	$4a                     ; 0x4a <__rc31+0x1b>
    21a0: 18           	clc
    21a1: 69 0d        	adc	#$d
    21a3: 85 46        	sta	$46                     ; 0x46 <__rc31+0x17>
    21a5: a5 4b        	lda	$4b                     ; 0x4b <__rc31+0x1c>
    21a7: 69 00        	adc	#$0
    21a9: a0 0d        	ldy	#$d
    21ab: 85 47        	sta	$47                     ; 0x47 <__rc31+0x18>
    21ad: b1 4a        	lda	($4a),y                 ; 0x4a <__rc31+0x1b>
    21af: 85 14        	sta	$14                     ; 0x14 <__rc4>
    21b1: a2 0d        	ldx	#$d
    21b3: 86 49        	stx	$49                     ; 0x49 <__rc31+0x1a>
    21b5: a4 13        	ldy	$13                     ; 0x13 <__rc3>
    21b7: b1 46        	lda	($46),y                 ; 0x46 <__rc31+0x17>
    21b9: a6 43        	ldx	$43                     ; 0x43 <__rc31+0x14>
    21bb: 86 12        	stx	$12                     ; 0x12 <__zp_bss_size>
    21bd: 64 13        	stz	$13                     ; 0x13 <__rc3>
    21bf: aa           	tax
    21c0: a5 14        	lda	$14                     ; 0x14 <__rc4>
    21c2: 20 2c 3a     	jsr	$3a2c <__mulhi3>
    21c5: a8           	tay
    21c6: 18           	clc
    21c7: a5 4a        	lda	$4a                     ; 0x4a <__rc31+0x1b>
    21c9: 69 02        	adc	#$2
    21cb: 85 14        	sta	$14                     ; 0x14 <__rc4>
    21cd: a5 4b        	lda	$4b                     ; 0x4b <__rc31+0x1c>
    21cf: 69 00        	adc	#$0
    21d1: 85 15        	sta	$15                     ; 0x15 <__rc5>
    21d3: 18           	clc
    21d4: 98           	tya
    21d5: a0 02        	ldy	#$2
    21d7: 84 18        	sty	$18                     ; 0x18 <__rc8>
    21d9: 71 4a        	adc	($4a),y                 ; 0x4a <__rc31+0x1b>
    21db: 85 17        	sta	$17                     ; 0x17 <__rc7>
    21dd: 88           	dey
    21de: 8a           	txa
    21df: 71 14        	adc	($14),y                 ; 0x14 <__rc4>
    21e1: 84 19        	sty	$19                     ; 0x19 <__rc9>
    21e3: 85 16        	sta	$16                     ; 0x16 <__rc6>
    21e5: a5 17        	lda	$17                     ; 0x17 <__rc7>
    21e7: a4 18        	ldy	$18                     ; 0x18 <__rc8>
    21e9: 91 4a        	sta	($4a),y                 ; 0x4a <__rc31+0x1b>
    21eb: a5 16        	lda	$16                     ; 0x16 <__rc6>
    21ed: a4 19        	ldy	$19                     ; 0x19 <__rc9>
    21ef: 91 14        	sta	($14),y                 ; 0x14 <__rc4>
    21f1: a9 00        	lda	#$0
    21f3: 92 44        	sta	($44)                   ; 0x44 <__rc31+0x15>
    21f5: 91 44        	sta	($44),y                 ; 0x44 <__rc31+0x15>
    21f7: a2 01        	ldx	#$1
    21f9: 86 14        	stx	$14                     ; 0x14 <__rc4>
    21fb: a4 49        	ldy	$49                     ; 0x49 <__rc31+0x1a>
    21fd: 91 4a        	sta	($4a),y                 ; 0x4a <__rc31+0x1b>
    21ff: a4 14        	ldy	$14                     ; 0x14 <__rc4>
    2201: 91 46        	sta	($46),y                 ; 0x46 <__rc31+0x17>
    2203: a9 03        	lda	#$3
    2205: a6 42        	ldx	$42                     ; 0x42 <__rc31+0x13>
    2207: d0 02        	bne	$220b <checkPads+0x549>
    2209: a9 01        	lda	#$1
    220b: a0 0a        	ldy	#$a
    220d: 91 4a        	sta	($4a),y                 ; 0x4a <__rc31+0x1b>
    220f: 84 14        	sty	$14                     ; 0x14 <__rc4>
    2211: a0 13        	ldy	#$13
    2213: a5 54        	lda	$54                     ; 0x54 <__rc31+0x25>
    2215: 91 4a        	sta	($4a),y                 ; 0x4a <__rc31+0x1b>
    2217: 64 31        	stz	$31                     ; 0x31 <_col>
    2219: 9c 14 d0     	stz	$d014                   ; 0xd014 <__heap_start+0x6e8a>
    221c: 9c 15 d0     	stz	$d015                   ; 0xd015 <__heap_start+0x6e8b>
    221f: 64 32        	stz	$32                     ; 0x32 <_row>
    2221: 9c 16 d0     	stz	$d016                   ; 0xd016 <__heap_start+0x6e8c>
    2224: 9c 17 d0     	stz	$d017                   ; 0xd017 <__heap_start+0x6e8d>
    2227: a6 50        	ldx	$50                     ; 0x50 <__rc31+0x21>
    2229: 86 12        	stx	$12                     ; 0x12 <__zp_bss_size>
    222b: a6 51        	ldx	$51                     ; 0x51 <__rc31+0x22>
    222d: 86 13        	stx	$13                     ; 0x13 <__rc3>
    222f: b1 12        	lda	($12),y                 ; 0x12 <__zp_bss_size>
    2231: 85 17        	sta	$17                     ; 0x17 <__rc7>
    2233: a4 14        	ldy	$14                     ; 0x14 <__rc4>
    2235: b1 12        	lda	($12),y                 ; 0x12 <__zp_bss_size>
    2237: 85 16        	sta	$16                     ; 0x16 <__rc6>
    2239: a0 01        	ldy	#$1
    223b: 84 30        	sty	$30                     ; 0x30 <_ccolor>
    223d: a6 56        	ldx	$56                     ; 0x56 <__rc31+0x27>
    223f: 8a           	txa
    2240: 18           	clc
    2241: 69 02        	adc	#$2
    2243: 85 14        	sta	$14                     ; 0x14 <__rc4>
    2245: a5 55        	lda	$55                     ; 0x55 <__rc31+0x26>
    2247: 69 00        	adc	#$0
    2249: 85 15        	sta	$15                     ; 0x15 <__rc5>
    224b: b2 12        	lda	($12)                   ; 0x12 <__zp_bss_size>
    224d: 85 18        	sta	$18                     ; 0x18 <__rc8>
    224f: b1 12        	lda	($12),y                 ; 0x12 <__zp_bss_size>
    2251: a2 01        	ldx	#$1
    2253: 86 1b        	stx	$1b                     ; 0x1b <__rc11>
    2255: 85 19        	sta	$19                     ; 0x19 <__rc9>
    2257: e8           	inx
    2258: 86 1a        	stx	$1a                     ; 0x1a <__rc10>
    225a: a4 1a        	ldy	$1a                     ; 0x1a <__rc10>
    225c: b1 12        	lda	($12),y                 ; 0x12 <__zp_bss_size>
    225e: 85 13        	sta	$13                     ; 0x13 <__rc3>
    2260: a4 1b        	ldy	$1b                     ; 0x1b <__rc11>
    2262: b1 14        	lda	($14),y                 ; 0x14 <__rc4>
    2264: 85 12        	sta	$12                     ; 0x12 <__zp_bss_size>
    2266: a5 4e        	lda	$4e                     ; 0x4e <__rc31+0x1f>
    2268: 91 10        	sta	($10),y                 ; 0x10 <__rc0>
    226a: a5 18        	lda	$18                     ; 0x18 <__rc8>
    226c: a4 1a        	ldy	$1a                     ; 0x1a <__rc10>
    226e: 91 10        	sta	($10),y                 ; 0x10 <__rc0>
    2270: a0 03        	ldy	#$3
    2272: a5 19        	lda	$19                     ; 0x19 <__rc9>
    2274: 91 10        	sta	($10),y                 ; 0x10 <__rc0>
    2276: c8           	iny
    2277: a5 13        	lda	$13                     ; 0x13 <__rc3>
    2279: 91 10        	sta	($10),y                 ; 0x10 <__rc0>
    227b: c8           	iny
    227c: a5 12        	lda	$12                     ; 0x12 <__zp_bss_size>
    227e: 91 10        	sta	($10),y                 ; 0x10 <__rc0>
    2280: c8           	iny
    2281: a5 17        	lda	$17                     ; 0x17 <__rc7>
    2283: 91 10        	sta	($10),y                 ; 0x10 <__rc0>
    2285: c8           	iny
    2286: a9 00        	lda	#$0
    2288: 91 10        	sta	($10),y                 ; 0x10 <__rc0>
    228a: c8           	iny
    228b: a5 16        	lda	$16                     ; 0x16 <__rc6>
    228d: 91 10        	sta	($10),y                 ; 0x10 <__rc0>
    228f: c8           	iny
    2290: a9 00        	lda	#$0
    2292: 91 10        	sta	($10),y                 ; 0x10 <__rc0>
    2294: a5 4f        	lda	$4f                     ; 0x4f <__rc31+0x20>
    2296: 92 10        	sta	($10)                   ; 0x10 <__rc0>
    2298: 20 d4 27     	jsr	$27d4 <printf>
    229b: 18           	clc
    229c: a5 10        	lda	$10                     ; 0x10 <__rc0>
    229e: 69 0a        	adc	#$a
    22a0: 85 10        	sta	$10                     ; 0x10 <__rc0>
    22a2: a5 11        	lda	$11                     ; 0x11 <__rc1>
    22a4: 69 00        	adc	#$0
    22a6: 85 11        	sta	$11                     ; 0x11 <__rc1>
    22a8: 60           	rts

000022a9 <updateFrames>:
    22a9: ae ae 5f     	ldx	$5fae                   ; 0x5fae <spriteStatuses+0x6>
    22ac: ac af 5f     	ldy	$5faf                   ; 0x5faf <spriteStatuses+0x7>
    22af: a9 00        	lda	#$0
    22b1: 18           	clc
    22b2: 6d ae 5f     	adc	$5fae                   ; 0x5fae <spriteStatuses+0x6>
    22b5: 98           	tya
    22b6: 6d b2 5f     	adc	$5fb2                   ; 0x5fb2 <spriteStatuses+0xa>
    22b9: 85 12        	sta	$12                     ; 0x12 <__zp_bss_size>
    22bb: a9 00        	lda	#$0
    22bd: 6d b0 5f     	adc	$5fb0                   ; 0x5fb0 <spriteStatuses+0x8>
    22c0: 8e 01 d9     	stx	$d901                   ; 0xd901 <__heap_start+0x7777>
    22c3: a6 12        	ldx	$12                     ; 0x12 <__zp_bss_size>
    22c5: 8e 02 d9     	stx	$d902                   ; 0xd902 <__heap_start+0x7778>
    22c8: 8d 03 d9     	sta	$d903                   ; 0xd903 <__heap_start+0x7779>
    22cb: ad b3 5f     	lda	$5fb3                   ; 0x5fb3 <spriteStatuses+0xb>
    22ce: ae b4 5f     	ldx	$5fb4                   ; 0x5fb4 <spriteStatuses+0xc>
    22d1: 86 12        	stx	$12                     ; 0x12 <__zp_bss_size>
    22d3: 18           	clc
    22d4: 6d a8 5f     	adc	$5fa8                   ; 0x5fa8 <spriteStatuses>
    22d7: aa           	tax
    22d8: a5 12        	lda	$12                     ; 0x12 <__zp_bss_size>
    22da: 6d a9 5f     	adc	$5fa9                   ; 0x5fa9 <spriteStatuses+0x1>
    22dd: 85 12        	sta	$12                     ; 0x12 <__zp_bss_size>
    22df: 8e a8 5f     	stx	$5fa8                   ; 0x5fa8 <spriteStatuses>
    22e2: 86 13        	stx	$13                     ; 0x13 <__rc3>
    22e4: 8d a9 5f     	sta	$5fa9                   ; 0x5fa9 <spriteStatuses+0x1>
    22e7: ad b5 5f     	lda	$5fb5                   ; 0x5fb5 <spriteStatuses+0xd>
    22ea: ae b6 5f     	ldx	$5fb6                   ; 0x5fb6 <spriteStatuses+0xe>
    22ed: 18           	clc
    22ee: 6d aa 5f     	adc	$5faa                   ; 0x5faa <spriteStatuses+0x2>
    22f1: a8           	tay
    22f2: 8a           	txa
    22f3: 6d ab 5f     	adc	$5fab                   ; 0x5fab <spriteStatuses+0x3>
    22f6: 8c aa 5f     	sty	$5faa                   ; 0x5faa <spriteStatuses+0x2>
    22f9: 8d ab 5f     	sta	$5fab                   ; 0x5fab <spriteStatuses+0x3>
    22fc: a6 13        	ldx	$13                     ; 0x13 <__rc3>
    22fe: 8e 04 d9     	stx	$d904                   ; 0xd904 <__heap_start+0x777a>
    2301: a6 12        	ldx	$12                     ; 0x12 <__zp_bss_size>
    2303: 8e 05 d9     	stx	$d905                   ; 0xd905 <__heap_start+0x777b>
    2306: 8c 06 d9     	sty	$d906                   ; 0xd906 <__heap_start+0x777c>
    2309: 8d 07 d9     	sta	$d907                   ; 0xd907 <__heap_start+0x777d>
    230c: ae c6 5f     	ldx	$5fc6                   ; 0x5fc6 <spriteStatuses+0x1e>
    230f: ac c7 5f     	ldy	$5fc7                   ; 0x5fc7 <spriteStatuses+0x1f>
    2312: a9 00        	lda	#$0
    2314: 18           	clc
    2315: 6d c6 5f     	adc	$5fc6                   ; 0x5fc6 <spriteStatuses+0x1e>
    2318: 98           	tya
    2319: 6d ca 5f     	adc	$5fca                   ; 0x5fca <spriteStatuses+0x22>
    231c: 85 12        	sta	$12                     ; 0x12 <__zp_bss_size>
    231e: a9 00        	lda	#$0
    2320: 6d c8 5f     	adc	$5fc8                   ; 0x5fc8 <spriteStatuses+0x20>
    2323: 8e 09 d9     	stx	$d909                   ; 0xd909 <__heap_start+0x777f>
    2326: a6 12        	ldx	$12                     ; 0x12 <__zp_bss_size>
    2328: 8e 0a d9     	stx	$d90a                   ; 0xd90a <__heap_start+0x7780>
    232b: 8d 0b d9     	sta	$d90b                   ; 0xd90b <__heap_start+0x7781>
    232e: ad cb 5f     	lda	$5fcb                   ; 0x5fcb <spriteStatuses+0x23>
    2331: ae cc 5f     	ldx	$5fcc                   ; 0x5fcc <spriteStatuses+0x24>
    2334: 86 12        	stx	$12                     ; 0x12 <__zp_bss_size>
    2336: 18           	clc
    2337: 6d c0 5f     	adc	$5fc0                   ; 0x5fc0 <spriteStatuses+0x18>
    233a: aa           	tax
    233b: a5 12        	lda	$12                     ; 0x12 <__zp_bss_size>
    233d: 6d c1 5f     	adc	$5fc1                   ; 0x5fc1 <spriteStatuses+0x19>
    2340: 85 12        	sta	$12                     ; 0x12 <__zp_bss_size>
    2342: 8e c0 5f     	stx	$5fc0                   ; 0x5fc0 <spriteStatuses+0x18>
    2345: 86 13        	stx	$13                     ; 0x13 <__rc3>
    2347: 8d c1 5f     	sta	$5fc1                   ; 0x5fc1 <spriteStatuses+0x19>
    234a: ad cd 5f     	lda	$5fcd                   ; 0x5fcd <spriteStatuses+0x25>
    234d: ae ce 5f     	ldx	$5fce                   ; 0x5fce <spriteStatuses+0x26>
    2350: 18           	clc
    2351: 6d c2 5f     	adc	$5fc2                   ; 0x5fc2 <spriteStatuses+0x1a>
    2354: a8           	tay
    2355: 8a           	txa
    2356: 6d c3 5f     	adc	$5fc3                   ; 0x5fc3 <spriteStatuses+0x1b>
    2359: 8c c2 5f     	sty	$5fc2                   ; 0x5fc2 <spriteStatuses+0x1a>
    235c: 8d c3 5f     	sta	$5fc3                   ; 0x5fc3 <spriteStatuses+0x1b>
    235f: a6 13        	ldx	$13                     ; 0x13 <__rc3>
    2361: 8e 0c d9     	stx	$d90c                   ; 0xd90c <__heap_start+0x7782>
    2364: a6 12        	ldx	$12                     ; 0x12 <__zp_bss_size>
    2366: 8e 0d d9     	stx	$d90d                   ; 0xd90d <__heap_start+0x7783>
    2369: 8c 0e d9     	sty	$d90e                   ; 0xd90e <__heap_start+0x7784>
    236c: 8d 0f d9     	sta	$d90f                   ; 0xd90f <__heap_start+0x7785>
    236f: ae de 5f     	ldx	$5fde                   ; 0x5fde <spriteStatuses+0x36>
    2372: ac df 5f     	ldy	$5fdf                   ; 0x5fdf <spriteStatuses+0x37>
    2375: a9 00        	lda	#$0
    2377: 18           	clc
    2378: 6d de 5f     	adc	$5fde                   ; 0x5fde <spriteStatuses+0x36>
    237b: 98           	tya
    237c: 6d e2 5f     	adc	$5fe2                   ; 0x5fe2 <spriteStatuses+0x3a>
    237f: 85 12        	sta	$12                     ; 0x12 <__zp_bss_size>
    2381: a9 00        	lda	#$0
    2383: 6d e0 5f     	adc	$5fe0                   ; 0x5fe0 <spriteStatuses+0x38>
    2386: 8e 11 d9     	stx	$d911                   ; 0xd911 <__heap_start+0x7787>
    2389: a6 12        	ldx	$12                     ; 0x12 <__zp_bss_size>
    238b: 8e 12 d9     	stx	$d912                   ; 0xd912 <__heap_start+0x7788>
    238e: 8d 13 d9     	sta	$d913                   ; 0xd913 <__heap_start+0x7789>
    2391: ad e3 5f     	lda	$5fe3                   ; 0x5fe3 <spriteStatuses+0x3b>
    2394: ae e4 5f     	ldx	$5fe4                   ; 0x5fe4 <spriteStatuses+0x3c>
    2397: 86 12        	stx	$12                     ; 0x12 <__zp_bss_size>
    2399: 18           	clc
    239a: 6d d8 5f     	adc	$5fd8                   ; 0x5fd8 <spriteStatuses+0x30>
    239d: aa           	tax
    239e: a5 12        	lda	$12                     ; 0x12 <__zp_bss_size>
    23a0: 6d d9 5f     	adc	$5fd9                   ; 0x5fd9 <spriteStatuses+0x31>
    23a3: 85 12        	sta	$12                     ; 0x12 <__zp_bss_size>
    23a5: 8e d8 5f     	stx	$5fd8                   ; 0x5fd8 <spriteStatuses+0x30>
    23a8: 86 13        	stx	$13                     ; 0x13 <__rc3>
    23aa: 8d d9 5f     	sta	$5fd9                   ; 0x5fd9 <spriteStatuses+0x31>
    23ad: ad e5 5f     	lda	$5fe5                   ; 0x5fe5 <spriteStatuses+0x3d>
    23b0: ae e6 5f     	ldx	$5fe6                   ; 0x5fe6 <spriteStatuses+0x3e>
    23b3: 18           	clc
    23b4: 6d da 5f     	adc	$5fda                   ; 0x5fda <spriteStatuses+0x32>
    23b7: a8           	tay
    23b8: 8a           	txa
    23b9: 6d db 5f     	adc	$5fdb                   ; 0x5fdb <spriteStatuses+0x33>
    23bc: 8c da 5f     	sty	$5fda                   ; 0x5fda <spriteStatuses+0x32>
    23bf: 8d db 5f     	sta	$5fdb                   ; 0x5fdb <spriteStatuses+0x33>
    23c2: a6 13        	ldx	$13                     ; 0x13 <__rc3>
    23c4: 8e 14 d9     	stx	$d914                   ; 0xd914 <__heap_start+0x778a>
    23c7: a6 12        	ldx	$12                     ; 0x12 <__zp_bss_size>
    23c9: 8e 15 d9     	stx	$d915                   ; 0xd915 <__heap_start+0x778b>
    23cc: 8c 16 d9     	sty	$d916                   ; 0xd916 <__heap_start+0x778c>
    23cf: 8d 17 d9     	sta	$d917                   ; 0xd917 <__heap_start+0x778d>
    23d2: ae f6 5f     	ldx	$5ff6                   ; 0x5ff6 <spriteStatuses+0x4e>
    23d5: ac f7 5f     	ldy	$5ff7                   ; 0x5ff7 <spriteStatuses+0x4f>
    23d8: a9 00        	lda	#$0
    23da: 18           	clc
    23db: 6d f6 5f     	adc	$5ff6                   ; 0x5ff6 <spriteStatuses+0x4e>
    23de: 98           	tya
    23df: 6d fa 5f     	adc	$5ffa                   ; 0x5ffa <spriteStatuses+0x52>
    23e2: 85 12        	sta	$12                     ; 0x12 <__zp_bss_size>
    23e4: a9 00        	lda	#$0
    23e6: 6d f8 5f     	adc	$5ff8                   ; 0x5ff8 <spriteStatuses+0x50>
    23e9: 8e 19 d9     	stx	$d919                   ; 0xd919 <__heap_start+0x778f>
    23ec: a6 12        	ldx	$12                     ; 0x12 <__zp_bss_size>
    23ee: 8e 1a d9     	stx	$d91a                   ; 0xd91a <__heap_start+0x7790>
    23f1: 8d 1b d9     	sta	$d91b                   ; 0xd91b <__heap_start+0x7791>
    23f4: ad fb 5f     	lda	$5ffb                   ; 0x5ffb <spriteStatuses+0x53>
    23f7: ae fc 5f     	ldx	$5ffc                   ; 0x5ffc <spriteStatuses+0x54>
    23fa: 86 12        	stx	$12                     ; 0x12 <__zp_bss_size>
    23fc: 18           	clc
    23fd: 6d f0 5f     	adc	$5ff0                   ; 0x5ff0 <spriteStatuses+0x48>
    2400: aa           	tax
    2401: a5 12        	lda	$12                     ; 0x12 <__zp_bss_size>
    2403: 6d f1 5f     	adc	$5ff1                   ; 0x5ff1 <spriteStatuses+0x49>
    2406: 85 12        	sta	$12                     ; 0x12 <__zp_bss_size>
    2408: 8e f0 5f     	stx	$5ff0                   ; 0x5ff0 <spriteStatuses+0x48>
    240b: 86 13        	stx	$13                     ; 0x13 <__rc3>
    240d: 8d f1 5f     	sta	$5ff1                   ; 0x5ff1 <spriteStatuses+0x49>
    2410: ad fd 5f     	lda	$5ffd                   ; 0x5ffd <spriteStatuses+0x55>
    2413: ae fe 5f     	ldx	$5ffe                   ; 0x5ffe <spriteStatuses+0x56>
    2416: 18           	clc
    2417: 6d f2 5f     	adc	$5ff2                   ; 0x5ff2 <spriteStatuses+0x4a>
    241a: a8           	tay
    241b: 8a           	txa
    241c: 6d f3 5f     	adc	$5ff3                   ; 0x5ff3 <spriteStatuses+0x4b>
    241f: 8c f2 5f     	sty	$5ff2                   ; 0x5ff2 <spriteStatuses+0x4a>
    2422: 8d f3 5f     	sta	$5ff3                   ; 0x5ff3 <spriteStatuses+0x4b>
    2425: a6 13        	ldx	$13                     ; 0x13 <__rc3>
    2427: 8e 1c d9     	stx	$d91c                   ; 0xd91c <__heap_start+0x7792>
    242a: a6 12        	ldx	$12                     ; 0x12 <__zp_bss_size>
    242c: 8e 1d d9     	stx	$d91d                   ; 0xd91d <__heap_start+0x7793>
    242f: 8c 1e d9     	sty	$d91e                   ; 0xd91e <__heap_start+0x7794>
    2432: 8d 1f d9     	sta	$d91f                   ; 0xd91f <__heap_start+0x7795>
    2435: ae 0e 60     	ldx	$600e                   ; 0x600e <spriteStatuses+0x66>
    2438: ac 0f 60     	ldy	$600f                   ; 0x600f <spriteStatuses+0x67>
    243b: a9 00        	lda	#$0
    243d: 18           	clc
    243e: 6d 0e 60     	adc	$600e                   ; 0x600e <spriteStatuses+0x66>
    2441: 98           	tya
    2442: 6d 12 60     	adc	$6012                   ; 0x6012 <spriteStatuses+0x6a>
    2445: 85 12        	sta	$12                     ; 0x12 <__zp_bss_size>
    2447: a9 00        	lda	#$0
    2449: 6d 10 60     	adc	$6010                   ; 0x6010 <spriteStatuses+0x68>
    244c: 8e 21 d9     	stx	$d921                   ; 0xd921 <__heap_start+0x7797>
    244f: a6 12        	ldx	$12                     ; 0x12 <__zp_bss_size>
    2451: 8e 22 d9     	stx	$d922                   ; 0xd922 <__heap_start+0x7798>
    2454: 8d 23 d9     	sta	$d923                   ; 0xd923 <__heap_start+0x7799>
    2457: ad 13 60     	lda	$6013                   ; 0x6013 <spriteStatuses+0x6b>
    245a: ae 14 60     	ldx	$6014                   ; 0x6014 <spriteStatuses+0x6c>
    245d: 86 12        	stx	$12                     ; 0x12 <__zp_bss_size>
    245f: 18           	clc
    2460: 6d 08 60     	adc	$6008                   ; 0x6008 <spriteStatuses+0x60>
    2463: aa           	tax
    2464: a5 12        	lda	$12                     ; 0x12 <__zp_bss_size>
    2466: 6d 09 60     	adc	$6009                   ; 0x6009 <spriteStatuses+0x61>
    2469: 85 12        	sta	$12                     ; 0x12 <__zp_bss_size>
    246b: 8e 08 60     	stx	$6008                   ; 0x6008 <spriteStatuses+0x60>
    246e: 8d 09 60     	sta	$6009                   ; 0x6009 <spriteStatuses+0x61>
    2471: ad 15 60     	lda	$6015                   ; 0x6015 <spriteStatuses+0x6d>
    2474: ac 16 60     	ldy	$6016                   ; 0x6016 <spriteStatuses+0x6e>
    2477: 84 13        	sty	$13                     ; 0x13 <__rc3>
    2479: 18           	clc
    247a: 6d 0a 60     	adc	$600a                   ; 0x600a <spriteStatuses+0x62>
    247d: a8           	tay
    247e: a5 13        	lda	$13                     ; 0x13 <__rc3>
    2480: 6d 0b 60     	adc	$600b                   ; 0x600b <spriteStatuses+0x63>
    2483: 85 13        	sta	$13                     ; 0x13 <__rc3>
    2485: 98           	tya
    2486: 8c 0a 60     	sty	$600a                   ; 0x600a <spriteStatuses+0x62>
    2489: a4 13        	ldy	$13                     ; 0x13 <__rc3>
    248b: 8c 0b 60     	sty	$600b                   ; 0x600b <spriteStatuses+0x63>
    248e: 8e 24 d9     	stx	$d924                   ; 0xd924 <__heap_start+0x779a>
    2491: a6 12        	ldx	$12                     ; 0x12 <__zp_bss_size>
    2493: 8e 25 d9     	stx	$d925                   ; 0xd925 <__heap_start+0x779b>
    2496: 8d 26 d9     	sta	$d926                   ; 0xd926 <__heap_start+0x779c>
    2499: a6 13        	ldx	$13                     ; 0x13 <__rc3>
    249b: 8e 27 d9     	stx	$d927                   ; 0xd927 <__heap_start+0x779d>
    249e: ae 9e 60     	ldx	$609e                   ; 0x609e <spriteStatuses+0xf6>
    24a1: ac 9f 60     	ldy	$609f                   ; 0x609f <spriteStatuses+0xf7>
    24a4: a9 00        	lda	#$0
    24a6: 18           	clc
    24a7: 6d 9e 60     	adc	$609e                   ; 0x609e <spriteStatuses+0xf6>
    24aa: 98           	tya
    24ab: 6d a2 60     	adc	$60a2                   ; 0x60a2 <spriteStatuses+0xfa>
    24ae: 85 12        	sta	$12                     ; 0x12 <__zp_bss_size>
    24b0: a9 00        	lda	#$0
    24b2: 6d a0 60     	adc	$60a0                   ; 0x60a0 <spriteStatuses+0xf8>
    24b5: 8e 51 d9     	stx	$d951                   ; 0xd951 <__heap_start+0x77c7>
    24b8: a6 12        	ldx	$12                     ; 0x12 <__zp_bss_size>
    24ba: 8e 52 d9     	stx	$d952                   ; 0xd952 <__heap_start+0x77c8>
    24bd: 8d 53 d9     	sta	$d953                   ; 0xd953 <__heap_start+0x77c9>
    24c0: ae 98 60     	ldx	$6098                   ; 0x6098 <spriteStatuses+0xf0>
    24c3: 86 13        	stx	$13                     ; 0x13 <__rc3>
    24c5: ac 99 60     	ldy	$6099                   ; 0x6099 <spriteStatuses+0xf1>
    24c8: ad 9a 60     	lda	$609a                   ; 0x609a <spriteStatuses+0xf2>
    24cb: ae 9b 60     	ldx	$609b                   ; 0x609b <spriteStatuses+0xf3>
    24ce: 86 12        	stx	$12                     ; 0x12 <__zp_bss_size>
    24d0: a6 13        	ldx	$13                     ; 0x13 <__rc3>
    24d2: 8e 54 d9     	stx	$d954                   ; 0xd954 <__heap_start+0x77ca>
    24d5: 8c 55 d9     	sty	$d955                   ; 0xd955 <__heap_start+0x77cb>
    24d8: 8d 56 d9     	sta	$d956                   ; 0xd956 <__heap_start+0x77cc>
    24db: a6 12        	ldx	$12                     ; 0x12 <__zp_bss_size>
    24dd: 8e 57 d9     	stx	$d957                   ; 0xd957 <__heap_start+0x77cd>
    24e0: ae b6 60     	ldx	$60b6                   ; 0x60b6 <spriteStatuses+0x10e>
    24e3: ac b7 60     	ldy	$60b7                   ; 0x60b7 <spriteStatuses+0x10f>
    24e6: a9 00        	lda	#$0
    24e8: 18           	clc
    24e9: 6d b6 60     	adc	$60b6                   ; 0x60b6 <spriteStatuses+0x10e>
    24ec: 98           	tya
    24ed: 6d ba 60     	adc	$60ba                   ; 0x60ba <spriteStatuses+0x112>
    24f0: 85 12        	sta	$12                     ; 0x12 <__zp_bss_size>
    24f2: a9 00        	lda	#$0
    24f4: 6d b8 60     	adc	$60b8                   ; 0x60b8 <spriteStatuses+0x110>
    24f7: 8e 59 d9     	stx	$d959                   ; 0xd959 <__heap_start+0x77cf>
    24fa: a6 12        	ldx	$12                     ; 0x12 <__zp_bss_size>
    24fc: 8e 5a d9     	stx	$d95a                   ; 0xd95a <__heap_start+0x77d0>
    24ff: 8d 5b d9     	sta	$d95b                   ; 0xd95b <__heap_start+0x77d1>
    2502: ae b0 60     	ldx	$60b0                   ; 0x60b0 <spriteStatuses+0x108>
    2505: 86 13        	stx	$13                     ; 0x13 <__rc3>
    2507: ac b1 60     	ldy	$60b1                   ; 0x60b1 <spriteStatuses+0x109>
    250a: ad b2 60     	lda	$60b2                   ; 0x60b2 <spriteStatuses+0x10a>
    250d: ae b3 60     	ldx	$60b3                   ; 0x60b3 <spriteStatuses+0x10b>
    2510: 86 12        	stx	$12                     ; 0x12 <__zp_bss_size>
    2512: a6 13        	ldx	$13                     ; 0x13 <__rc3>
    2514: 8e 5c d9     	stx	$d95c                   ; 0xd95c <__heap_start+0x77d2>
    2517: 8c 5d d9     	sty	$d95d                   ; 0xd95d <__heap_start+0x77d3>
    251a: 8d 5e d9     	sta	$d95e                   ; 0xd95e <__heap_start+0x77d4>
    251d: a6 12        	ldx	$12                     ; 0x12 <__zp_bss_size>
    251f: 8e 5f d9     	stx	$d95f                   ; 0xd95f <__heap_start+0x77d5>
    2522: ae ce 60     	ldx	$60ce                   ; 0x60ce <spriteStatuses+0x126>
    2525: ac cf 60     	ldy	$60cf                   ; 0x60cf <spriteStatuses+0x127>
    2528: a9 00        	lda	#$0
    252a: 18           	clc
    252b: 6d ce 60     	adc	$60ce                   ; 0x60ce <spriteStatuses+0x126>
    252e: 98           	tya
    252f: 6d d2 60     	adc	$60d2                   ; 0x60d2 <spriteStatuses+0x12a>
    2532: 85 12        	sta	$12                     ; 0x12 <__zp_bss_size>
    2534: a9 00        	lda	#$0
    2536: 6d d0 60     	adc	$60d0                   ; 0x60d0 <spriteStatuses+0x128>
    2539: 8e 61 d9     	stx	$d961                   ; 0xd961 <__heap_start+0x77d7>
    253c: a6 12        	ldx	$12                     ; 0x12 <__zp_bss_size>
    253e: 8e 62 d9     	stx	$d962                   ; 0xd962 <__heap_start+0x77d8>
    2541: 8d 63 d9     	sta	$d963                   ; 0xd963 <__heap_start+0x77d9>
    2544: ae c8 60     	ldx	$60c8                   ; 0x60c8 <spriteStatuses+0x120>
    2547: 86 13        	stx	$13                     ; 0x13 <__rc3>
    2549: ac c9 60     	ldy	$60c9                   ; 0x60c9 <spriteStatuses+0x121>
    254c: ad ca 60     	lda	$60ca                   ; 0x60ca <spriteStatuses+0x122>
    254f: ae cb 60     	ldx	$60cb                   ; 0x60cb <spriteStatuses+0x123>
    2552: 86 12        	stx	$12                     ; 0x12 <__zp_bss_size>
    2554: a6 13        	ldx	$13                     ; 0x13 <__rc3>
    2556: 8e 64 d9     	stx	$d964                   ; 0xd964 <__heap_start+0x77da>
    2559: 8c 65 d9     	sty	$d965                   ; 0xd965 <__heap_start+0x77db>
    255c: 8d 66 d9     	sta	$d966                   ; 0xd966 <__heap_start+0x77dc>
    255f: a6 12        	ldx	$12                     ; 0x12 <__zp_bss_size>
    2561: 8e 67 d9     	stx	$d967                   ; 0xd967 <__heap_start+0x77dd>
    2564: ae e6 60     	ldx	$60e6                   ; 0x60e6 <spriteStatuses+0x13e>
    2567: ac e7 60     	ldy	$60e7                   ; 0x60e7 <spriteStatuses+0x13f>
    256a: a9 00        	lda	#$0
    256c: 18           	clc
    256d: 6d e6 60     	adc	$60e6                   ; 0x60e6 <spriteStatuses+0x13e>
    2570: 98           	tya
    2571: 6d ea 60     	adc	$60ea                   ; 0x60ea <spriteStatuses+0x142>
    2574: 85 12        	sta	$12                     ; 0x12 <__zp_bss_size>
    2576: a9 00        	lda	#$0
    2578: 6d e8 60     	adc	$60e8                   ; 0x60e8 <spriteStatuses+0x140>
    257b: 8e 69 d9     	stx	$d969                   ; 0xd969 <__heap_start+0x77df>
    257e: a6 12        	ldx	$12                     ; 0x12 <__zp_bss_size>
    2580: 8e 6a d9     	stx	$d96a                   ; 0xd96a <__heap_start+0x77e0>
    2583: 8d 6b d9     	sta	$d96b                   ; 0xd96b <__heap_start+0x77e1>
    2586: ae e0 60     	ldx	$60e0                   ; 0x60e0 <spriteStatuses+0x138>
    2589: 86 13        	stx	$13                     ; 0x13 <__rc3>
    258b: ac e1 60     	ldy	$60e1                   ; 0x60e1 <spriteStatuses+0x139>
    258e: ad e2 60     	lda	$60e2                   ; 0x60e2 <spriteStatuses+0x13a>
    2591: ae e3 60     	ldx	$60e3                   ; 0x60e3 <spriteStatuses+0x13b>
    2594: 86 12        	stx	$12                     ; 0x12 <__zp_bss_size>
    2596: a6 13        	ldx	$13                     ; 0x13 <__rc3>
    2598: 8e 6c d9     	stx	$d96c                   ; 0xd96c <__heap_start+0x77e2>
    259b: 8c 6d d9     	sty	$d96d                   ; 0xd96d <__heap_start+0x77e3>
    259e: 8d 6e d9     	sta	$d96e                   ; 0xd96e <__heap_start+0x77e4>
    25a1: a6 12        	ldx	$12                     ; 0x12 <__zp_bss_size>
    25a3: 8e 6f d9     	stx	$d96f                   ; 0xd96f <__heap_start+0x77e5>
    25a6: ae fe 60     	ldx	$60fe                   ; 0x60fe <spriteStatuses+0x156>
    25a9: ac ff 60     	ldy	$60ff                   ; 0x60ff <spriteStatuses+0x157>
    25ac: a9 00        	lda	#$0
    25ae: 18           	clc
    25af: 6d fe 60     	adc	$60fe                   ; 0x60fe <spriteStatuses+0x156>
    25b2: 98           	tya
    25b3: 6d 02 61     	adc	$6102                   ; 0x6102 <spriteStatuses+0x15a>
    25b6: 85 12        	sta	$12                     ; 0x12 <__zp_bss_size>
    25b8: a9 00        	lda	#$0
    25ba: 6d 00 61     	adc	$6100                   ; 0x6100 <spriteStatuses+0x158>
    25bd: 8e 71 d9     	stx	$d971                   ; 0xd971 <__heap_start+0x77e7>
    25c0: a6 12        	ldx	$12                     ; 0x12 <__zp_bss_size>
    25c2: 8e 72 d9     	stx	$d972                   ; 0xd972 <__heap_start+0x77e8>
    25c5: 8d 73 d9     	sta	$d973                   ; 0xd973 <__heap_start+0x77e9>
    25c8: ae f8 60     	ldx	$60f8                   ; 0x60f8 <spriteStatuses+0x150>
    25cb: 86 13        	stx	$13                     ; 0x13 <__rc3>
    25cd: ac f9 60     	ldy	$60f9                   ; 0x60f9 <spriteStatuses+0x151>
    25d0: ad fa 60     	lda	$60fa                   ; 0x60fa <spriteStatuses+0x152>
    25d3: ae fb 60     	ldx	$60fb                   ; 0x60fb <spriteStatuses+0x153>
    25d6: 86 12        	stx	$12                     ; 0x12 <__zp_bss_size>
    25d8: a6 13        	ldx	$13                     ; 0x13 <__rc3>
    25da: 8e 74 d9     	stx	$d974                   ; 0xd974 <__heap_start+0x77ea>
    25dd: 8c 75 d9     	sty	$d975                   ; 0xd975 <__heap_start+0x77eb>
    25e0: 8d 76 d9     	sta	$d976                   ; 0xd976 <__heap_start+0x77ec>
    25e3: a6 12        	ldx	$12                     ; 0x12 <__zp_bss_size>
    25e5: 8e 77 d9     	stx	$d977                   ; 0xd977 <__heap_start+0x77ed>
    25e8: 60           	rts

000025e9 <exit>:
    25e9: 20 14 03     	jsr	$314 <_fini>
    25ec: 80 fe        	bra	$25ec <exit+0x3>

000025ee <_ZN12_GLOBAL__N_13putEcP6Status>:
    25ee: 85 18        	sta	$18                     ; 0x18 <__rc8>
    25f0: a6 13        	ldx	$13                     ; 0x13 <__rc3>
    25f2: 18           	clc
    25f3: a5 12        	lda	$12                     ; 0x12 <__zp_bss_size>
    25f5: 69 05        	adc	#$5
    25f7: a8           	tay
    25f8: a5 13        	lda	$13                     ; 0x13 <__rc3>
    25fa: 86 15        	stx	$15                     ; 0x15 <__rc5>
    25fc: 69 00        	adc	#$0
    25fe: 18           	clc
    25ff: 84 16        	sty	$16                     ; 0x16 <__rc6>
    2601: a0 05        	ldy	#$5
    2603: 85 17        	sta	$17                     ; 0x17 <__rc7>
    2605: b1 12        	lda	($12),y                 ; 0x12 <__zp_bss_size>
    2607: aa           	tax
    2608: a5 12        	lda	$12                     ; 0x12 <__zp_bss_size>
    260a: 69 03        	adc	#$3
    260c: 85 14        	sta	$14                     ; 0x14 <__rc4>
    260e: a5 15        	lda	$15                     ; 0x15 <__rc5>
    2610: 69 00        	adc	#$0
    2612: 85 15        	sta	$15                     ; 0x15 <__rc5>
    2614: a0 01        	ldy	#$1
    2616: b1 16        	lda	($16),y                 ; 0x16 <__rc6>
    2618: d1 14        	cmp	($14),y                 ; 0x14 <__rc4>
    261a: d0 11        	bne	$262d <_ZN12_GLOBAL__N_13putEcP6Status+0x3f>
    261c: a0 03        	ldy	#$3
    261e: 85 17        	sta	$17                     ; 0x17 <__rc7>
    2620: b1 12        	lda	($12),y                 ; 0x12 <__zp_bss_size>
    2622: 85 14        	sta	$14                     ; 0x14 <__rc4>
    2624: 86 16        	stx	$16                     ; 0x16 <__rc6>
    2626: e4 14        	cpx	$14                     ; 0x14 <__rc4>
    2628: 90 0e        	bcc	$2638 <_ZN12_GLOBAL__N_13putEcP6Status+0x4a>
    262a: 4c 99 26     	jmp	$2699 <_ZN12_GLOBAL__N_13putEcP6Status+0xab>
    262d: 86 16        	stx	$16                     ; 0x16 <__rc6>
    262f: d1 14        	cmp	($14),y                 ; 0x14 <__rc4>
    2631: 85 17        	sta	$17                     ; 0x17 <__rc7>
    2633: 90 03        	bcc	$2638 <_ZN12_GLOBAL__N_13putEcP6Status+0x4a>
    2635: 4c 99 26     	jmp	$2699 <_ZN12_GLOBAL__N_13putEcP6Status+0xab>
    2638: a5 12        	lda	$12                     ; 0x12 <__zp_bss_size>
    263a: 18           	clc
    263b: 69 0f        	adc	#$f
    263d: 85 14        	sta	$14                     ; 0x14 <__rc4>
    263f: a5 13        	lda	$13                     ; 0x13 <__rc3>
    2641: 69 00        	adc	#$0
    2643: 85 15        	sta	$15                     ; 0x15 <__rc5>
    2645: a0 01        	ldy	#$1
    2647: b1 14        	lda	($14),y                 ; 0x14 <__rc4>
    2649: a2 00        	ldx	#$0
    264b: 86 14        	stx	$14                     ; 0x14 <__rc4>
    264d: a2 00        	ldx	#$0
    264f: 86 15        	stx	$15                     ; 0x15 <__rc5>
    2651: c5 15        	cmp	$15                     ; 0x15 <__rc5>
    2653: d0 2d        	bne	$2682 <_ZN12_GLOBAL__N_13putEcP6Status+0x94>
    2655: a0 0f        	ldy	#$f
    2657: b1 12        	lda	($12),y                 ; 0x12 <__zp_bss_size>
    2659: c5 14        	cmp	$14                     ; 0x14 <__rc4>
    265b: d0 25        	bne	$2682 <_ZN12_GLOBAL__N_13putEcP6Status+0x94>
    265d: a5 12        	lda	$12                     ; 0x12 <__zp_bss_size>
    265f: 18           	clc
    2660: 69 09        	adc	#$9
    2662: 85 14        	sta	$14                     ; 0x14 <__rc4>
    2664: a5 13        	lda	$13                     ; 0x13 <__rc3>
    2666: 69 00        	adc	#$0
    2668: a0 09        	ldy	#$9
    266a: 85 15        	sta	$15                     ; 0x15 <__rc5>
    266c: 18           	clc
    266d: a5 16        	lda	$16                     ; 0x16 <__rc6>
    266f: 71 12        	adc	($12),y                 ; 0x12 <__zp_bss_size>
    2671: aa           	tax
    2672: a0 01        	ldy	#$1
    2674: a5 17        	lda	$17                     ; 0x17 <__rc7>
    2676: 71 14        	adc	($14),y                 ; 0x14 <__rc4>
    2678: 86 14        	stx	$14                     ; 0x14 <__rc4>
    267a: 85 15        	sta	$15                     ; 0x15 <__rc5>
    267c: a5 18        	lda	$18                     ; 0x18 <__rc8>
    267e: 92 14        	sta	($14)                   ; 0x14 <__rc4>
    2680: 80 17        	bra	$2699 <_ZN12_GLOBAL__N_13putEcP6Status+0xab>
    2682: a6 12        	ldx	$12                     ; 0x12 <__zp_bss_size>
    2684: 86 ae        	stx	$ae                     ; 0xae <__rc31+0x7f>
    2686: a6 13        	ldx	$13                     ; 0x13 <__rc3>
    2688: 86 af        	stx	$af                     ; 0xaf <__rc31+0x80>
    268a: a2 00        	ldx	#$0
    268c: a5 18        	lda	$18                     ; 0x18 <__rc8>
    268e: 20 05 35     	jsr	$3505 <putchar>
    2691: a6 ae        	ldx	$ae                     ; 0xae <__rc31+0x7f>
    2693: 86 12        	stx	$12                     ; 0x12 <__zp_bss_size>
    2695: a6 af        	ldx	$af                     ; 0xaf <__rc31+0x80>
    2697: 86 13        	stx	$13                     ; 0x13 <__rc3>
    2699: a0 05        	ldy	#$5
    269b: a5 12        	lda	$12                     ; 0x12 <__zp_bss_size>
    269d: 18           	clc
    269e: 69 05        	adc	#$5
    26a0: 85 14        	sta	$14                     ; 0x14 <__rc4>
    26a2: a5 13        	lda	$13                     ; 0x13 <__rc3>
    26a4: 69 00        	adc	#$0
    26a6: 85 15        	sta	$15                     ; 0x15 <__rc5>
    26a8: b1 12        	lda	($12),y                 ; 0x12 <__zp_bss_size>
    26aa: aa           	tax
    26ab: 84 16        	sty	$16                     ; 0x16 <__rc6>
    26ad: a0 01        	ldy	#$1
    26af: b1 14        	lda	($14),y                 ; 0x14 <__rc4>
    26b1: 84 17        	sty	$17                     ; 0x17 <__rc7>
    26b3: e8           	inx
    26b4: d0 01        	bne	$26b7 <_ZN12_GLOBAL__N_13putEcP6Status+0xc9>
    26b6: 1a           	inc
    26b7: 85 18        	sta	$18                     ; 0x18 <__rc8>
    26b9: 8a           	txa
    26ba: a4 16        	ldy	$16                     ; 0x16 <__rc6>
    26bc: 91 12        	sta	($12),y                 ; 0x12 <__zp_bss_size>
    26be: a4 17        	ldy	$17                     ; 0x17 <__rc7>
    26c0: a5 18        	lda	$18                     ; 0x18 <__rc8>
    26c2: 91 14        	sta	($14),y                 ; 0x14 <__rc4>
    26c4: 60           	rts

000026c5 <_ZN12_GLOBAL__N_112print_stringEPKcP6Status>:
    26c5: a6 12        	ldx	$12                     ; 0x12 <__zp_bss_size>
    26c7: 86 a5        	stx	$a5                     ; 0xa5 <__rc31+0x76>
    26c9: a6 13        	ldx	$13                     ; 0x13 <__rc3>
    26cb: 86 a6        	stx	$a6                     ; 0xa6 <__rc31+0x77>
    26cd: a6 14        	ldx	$14                     ; 0x14 <__rc4>
    26cf: 86 a7        	stx	$a7                     ; 0xa7 <__rc31+0x78>
    26d1: a6 15        	ldx	$15                     ; 0x15 <__rc5>
    26d3: 86 a8        	stx	$a8                     ; 0xa8 <__rc31+0x79>
    26d5: a5 a7        	lda	$a7                     ; 0xa7 <__rc31+0x78>
    26d7: 18           	clc
    26d8: 69 0d        	adc	#$d
    26da: 85 12        	sta	$12                     ; 0x12 <__zp_bss_size>
    26dc: a5 a8        	lda	$a8                     ; 0xa8 <__rc31+0x79>
    26de: 69 00        	adc	#$0
    26e0: 85 13        	sta	$13                     ; 0x13 <__rc3>
    26e2: a0 01        	ldy	#$1
    26e4: b1 12        	lda	($12),y                 ; 0x12 <__zp_bss_size>
    26e6: 30 14        	bmi	$26fc <_ZN12_GLOBAL__N_112print_stringEPKcP6Status+0x37>
    26e8: a0 0d        	ldy	#$d
    26ea: aa           	tax
    26eb: b1 a7        	lda	($a7),y                 ; 0xa7 <__rc31+0x78>
    26ed: 86 aa        	stx	$aa                     ; 0xaa <__rc31+0x7b>
    26ef: e0 00        	cpx	#$0
    26f1: d0 0e        	bne	$2701 <_ZN12_GLOBAL__N_112print_stringEPKcP6Status+0x3c>
    26f3: aa           	tax
    26f4: d0 0b        	bne	$2701 <_ZN12_GLOBAL__N_112print_stringEPKcP6Status+0x3c>
    26f6: 64 a9        	stz	$a9                     ; 0xa9 <__rc31+0x7a>
    26f8: 64 aa        	stz	$aa                     ; 0xaa <__rc31+0x7b>
    26fa: 80 36        	bra	$2732 <_ZN12_GLOBAL__N_112print_stringEPKcP6Status+0x6d>
    26fc: a9 ff        	lda	#$ff
    26fe: aa           	tax
    26ff: 86 aa        	stx	$aa                     ; 0xaa <__rc31+0x7b>
    2701: 85 a9        	sta	$a9                     ; 0xa9 <__rc31+0x7a>
    2703: 64 12        	stz	$12                     ; 0x12 <__zp_bss_size>
    2705: a4 a5        	ldy	$a5                     ; 0xa5 <__rc31+0x76>
    2707: a6 a6        	ldx	$a6                     ; 0xa6 <__rc31+0x77>
    2709: 86 16        	stx	$16                     ; 0x16 <__rc6>
    270b: 64 13        	stz	$13                     ; 0x13 <__rc3>
    270d: 98           	tya
    270e: 18           	clc
    270f: 65 12        	adc	$12                     ; 0x12 <__zp_bss_size>
    2711: 85 14        	sta	$14                     ; 0x14 <__rc4>
    2713: a5 a6        	lda	$a6                     ; 0xa6 <__rc31+0x77>
    2715: 65 13        	adc	$13                     ; 0x13 <__rc3>
    2717: 85 15        	sta	$15                     ; 0x15 <__rc5>
    2719: b2 14        	lda	($14)                   ; 0x14 <__rc4>
    271b: d0 03        	bne	$2720 <_ZN12_GLOBAL__N_112print_stringEPKcP6Status+0x5b>
    271d: 4c c9 27     	jmp	$27c9 <_ZN12_GLOBAL__N_112print_stringEPKcP6Status+0x104>
    2720: e6 12        	inc	$12                     ; 0x12 <__zp_bss_size>
    2722: d0 02        	bne	$2726 <_ZN12_GLOBAL__N_112print_stringEPKcP6Status+0x61>
    2724: e6 13        	inc	$13                     ; 0x13 <__rc3>
    2726: a6 aa        	ldx	$aa                     ; 0xaa <__rc31+0x7b>
    2728: e4 13        	cpx	$13                     ; 0x13 <__rc3>
    272a: d0 e1        	bne	$270d <_ZN12_GLOBAL__N_112print_stringEPKcP6Status+0x48>
    272c: a6 a9        	ldx	$a9                     ; 0xa9 <__rc31+0x7a>
    272e: e4 12        	cpx	$12                     ; 0x12 <__zp_bss_size>
    2730: d0 db        	bne	$270d <_ZN12_GLOBAL__N_112print_stringEPKcP6Status+0x48>
    2732: a0 01        	ldy	#$1
    2734: b1 a7        	lda	($a7),y                 ; 0xa7 <__rc31+0x78>
    2736: 29 01        	and	#$1
    2738: f0 03        	beq	$273d <_ZN12_GLOBAL__N_112print_stringEPKcP6Status+0x78>
    273a: 4c 9b 27     	jmp	$279b <_ZN12_GLOBAL__N_112print_stringEPKcP6Status+0xd6>
    273d: a5 a7        	lda	$a7                     ; 0xa7 <__rc31+0x78>
    273f: 18           	clc
    2740: 69 0b        	adc	#$b
    2742: 85 14        	sta	$14                     ; 0x14 <__rc4>
    2744: a5 a8        	lda	$a8                     ; 0xa8 <__rc31+0x79>
    2746: 69 00        	adc	#$0
    2748: 85 15        	sta	$15                     ; 0x15 <__rc5>
    274a: 84 12        	sty	$12                     ; 0x12 <__zp_bss_size>
    274c: a0 0b        	ldy	#$b
    274e: b1 a7        	lda	($a7),y                 ; 0xa7 <__rc31+0x78>
    2750: 85 13        	sta	$13                     ; 0x13 <__rc3>
    2752: a4 12        	ldy	$12                     ; 0x12 <__zp_bss_size>
    2754: b1 14        	lda	($14),y                 ; 0x14 <__rc4>
    2756: 85 12        	sta	$12                     ; 0x12 <__zp_bss_size>
    2758: a6 aa        	ldx	$aa                     ; 0xaa <__rc31+0x7b>
    275a: e4 12        	cpx	$12                     ; 0x12 <__zp_bss_size>
    275c: d0 08        	bne	$2766 <_ZN12_GLOBAL__N_112print_stringEPKcP6Status+0xa1>
    275e: a6 a9        	ldx	$a9                     ; 0xa9 <__rc31+0x7a>
    2760: e4 13        	cpx	$13                     ; 0x13 <__rc3>
    2762: 90 06        	bcc	$276a <_ZN12_GLOBAL__N_112print_stringEPKcP6Status+0xa5>
    2764: 80 35        	bra	$279b <_ZN12_GLOBAL__N_112print_stringEPKcP6Status+0xd6>
    2766: e4 12        	cpx	$12                     ; 0x12 <__zp_bss_size>
    2768: b0 31        	bcs	$279b <_ZN12_GLOBAL__N_112print_stringEPKcP6Status+0xd6>
    276a: 38           	sec
    276b: a5 a9        	lda	$a9                     ; 0xa9 <__rc31+0x7a>
    276d: e5 13        	sbc	$13                     ; 0x13 <__rc3>
    276f: a8           	tay
    2770: a5 aa        	lda	$aa                     ; 0xaa <__rc31+0x7b>
    2772: e5 12        	sbc	$12                     ; 0x12 <__zp_bss_size>
    2774: 85 ac        	sta	$ac                     ; 0xac <__rc31+0x7d>
    2776: a2 20        	ldx	#$20
    2778: 86 ad        	stx	$ad                     ; 0xad <__rc31+0x7e>
    277a: a6 a7        	ldx	$a7                     ; 0xa7 <__rc31+0x78>
    277c: 86 12        	stx	$12                     ; 0x12 <__zp_bss_size>
    277e: a6 a8        	ldx	$a8                     ; 0xa8 <__rc31+0x79>
    2780: 86 13        	stx	$13                     ; 0x13 <__rc3>
    2782: 84 ab        	sty	$ab                     ; 0xab <__rc31+0x7c>
    2784: a5 ad        	lda	$ad                     ; 0xad <__rc31+0x7e>
    2786: 20 ee 25     	jsr	$25ee <_ZN12_GLOBAL__N_13putEcP6Status>
    2789: a6 ac        	ldx	$ac                     ; 0xac <__rc31+0x7d>
    278b: e6 ab        	inc	$ab                     ; 0xab <__rc31+0x7c>
    278d: d0 01        	bne	$2790 <_ZN12_GLOBAL__N_112print_stringEPKcP6Status+0xcb>
    278f: e8           	inx
    2790: 86 ac        	stx	$ac                     ; 0xac <__rc31+0x7d>
    2792: a4 ab        	ldy	$ab                     ; 0xab <__rc31+0x7c>
    2794: 8a           	txa
    2795: d0 e3        	bne	$277a <_ZN12_GLOBAL__N_112print_stringEPKcP6Status+0xb5>
    2797: a5 ab        	lda	$ab                     ; 0xab <__rc31+0x7c>
    2799: d0 df        	bne	$277a <_ZN12_GLOBAL__N_112print_stringEPKcP6Status+0xb5>
    279b: a5 aa        	lda	$aa                     ; 0xaa <__rc31+0x7b>
    279d: d0 04        	bne	$27a3 <_ZN12_GLOBAL__N_112print_stringEPKcP6Status+0xde>
    279f: a5 a9        	lda	$a9                     ; 0xa9 <__rc31+0x7a>
    27a1: f0 25        	beq	$27c8 <_ZN12_GLOBAL__N_112print_stringEPKcP6Status+0x103>
    27a3: a2 ff        	ldx	#$ff
    27a5: c6 a9        	dec	$a9                     ; 0xa9 <__rc31+0x7a>
    27a7: e4 a9        	cpx	$a9                     ; 0xa9 <__rc31+0x7a>
    27a9: d0 02        	bne	$27ad <_ZN12_GLOBAL__N_112print_stringEPKcP6Status+0xe8>
    27ab: c6 aa        	dec	$aa                     ; 0xaa <__rc31+0x7b>
    27ad: b2 a5        	lda	($a5)                   ; 0xa5 <__rc31+0x76>
    27af: e6 a5        	inc	$a5                     ; 0xa5 <__rc31+0x76>
    27b1: d0 02        	bne	$27b5 <_ZN12_GLOBAL__N_112print_stringEPKcP6Status+0xf0>
    27b3: e6 a6        	inc	$a6                     ; 0xa6 <__rc31+0x77>
    27b5: a6 a7        	ldx	$a7                     ; 0xa7 <__rc31+0x78>
    27b7: 86 12        	stx	$12                     ; 0x12 <__zp_bss_size>
    27b9: a6 a8        	ldx	$a8                     ; 0xa8 <__rc31+0x79>
    27bb: 86 13        	stx	$13                     ; 0x13 <__rc3>
    27bd: 20 ee 25     	jsr	$25ee <_ZN12_GLOBAL__N_13putEcP6Status>
    27c0: a5 aa        	lda	$aa                     ; 0xaa <__rc31+0x7b>
    27c2: d0 df        	bne	$27a3 <_ZN12_GLOBAL__N_112print_stringEPKcP6Status+0xde>
    27c4: a5 a9        	lda	$a9                     ; 0xa9 <__rc31+0x7a>
    27c6: d0 db        	bne	$27a3 <_ZN12_GLOBAL__N_112print_stringEPKcP6Status+0xde>
    27c8: 60           	rts
    27c9: a6 12        	ldx	$12                     ; 0x12 <__zp_bss_size>
    27cb: 86 a9        	stx	$a9                     ; 0xa9 <__rc31+0x7a>
    27cd: a6 13        	ldx	$13                     ; 0x13 <__rc3>
    27cf: 86 aa        	stx	$aa                     ; 0xaa <__rc31+0x7b>
    27d1: 4c 32 27     	jmp	$2732 <_ZN12_GLOBAL__N_112print_stringEPKcP6Status+0x6d>

000027d4 <printf>:
    27d4: 18           	clc
    27d5: a6 10        	ldx	$10                     ; 0x10 <__rc0>
    27d7: a4 11        	ldy	$11                     ; 0x11 <__rc1>
    27d9: 86 9a        	stx	$9a                     ; 0x9a <__rc31+0x6b>
    27db: 84 9b        	sty	$9b                     ; 0x9b <__rc31+0x6c>
    27dd: a6 9a        	ldx	$9a                     ; 0x9a <__rc31+0x6b>
    27df: a4 9b        	ldy	$9b                     ; 0x9b <__rc31+0x6c>
    27e1: 86 85        	stx	$85                     ; 0x85 <__rc31+0x56>
    27e3: 84 86        	sty	$86                     ; 0x86 <__rc31+0x57>
    27e5: a2 ff        	ldx	#$ff
    27e7: 86 8a        	stx	$8a                     ; 0x8a <__rc31+0x5b>
    27e9: 86 8b        	stx	$8b                     ; 0x8b <__rc31+0x5c>
    27eb: 64 8c        	stz	$8c                     ; 0x8c <__rc31+0x5d>
    27ed: 64 8d        	stz	$8d                     ; 0x8d <__rc31+0x5e>
    27ef: e8           	inx
    27f0: 86 12        	stx	$12                     ; 0x12 <__zp_bss_size>
    27f2: a2 00        	ldx	#$0
    27f4: 86 13        	stx	$13                     ; 0x13 <__rc3>
    27f6: a6 12        	ldx	$12                     ; 0x12 <__zp_bss_size>
    27f8: a4 13        	ldy	$13                     ; 0x13 <__rc3>
    27fa: 86 90        	stx	$90                     ; 0x90 <__rc31+0x61>
    27fc: 84 91        	sty	$91                     ; 0x91 <__rc31+0x62>
    27fe: a2 02        	ldx	#$2
    2800: 86 96        	stx	$96                     ; 0x96 <__rc31+0x67>
    2802: 64 97        	stz	$97                     ; 0x97 <__rc31+0x68>
    2804: a6 85        	ldx	$85                     ; 0x85 <__rc31+0x56>
    2806: a4 86        	ldy	$86                     ; 0x86 <__rc31+0x57>
    2808: 86 98        	stx	$98                     ; 0x98 <__rc31+0x69>
    280a: 84 99        	sty	$99                     ; 0x99 <__rc31+0x6a>
    280c: a2 7c        	ldx	#$7c
    280e: a0 00        	ldy	#$0
    2810: 86 12        	stx	$12                     ; 0x12 <__zp_bss_size>
    2812: 84 13        	sty	$13                     ; 0x13 <__rc3>
    2814: a0 01        	ldy	#$1
    2816: a9 63        	lda	#$63
    2818: 18           	clc
    2819: 69 02        	adc	#$2
    281b: 85 a3        	sta	$a3                     ; 0xa3 <__rc31+0x74>
    281d: a9 00        	lda	#$0
    281f: 69 00        	adc	#$0
    2821: 85 a4        	sta	$a4                     ; 0xa4 <__rc31+0x75>
    2823: e6 12        	inc	$12                     ; 0x12 <__zp_bss_size>
    2825: d0 02        	bne	$2829 <printf+0x55>
    2827: e6 13        	inc	$13                     ; 0x13 <__rc3>
    2829: a6 12        	ldx	$12                     ; 0x12 <__zp_bss_size>
    282b: 86 9f        	stx	$9f                     ; 0x9f <__rc31+0x70>
    282d: a6 13        	ldx	$13                     ; 0x13 <__rc3>
    282f: 86 a0        	stx	$a0                     ; 0xa0 <__rc31+0x71>
    2831: a2 c8        	ldx	#$c8
    2833: 86 5b        	stx	$5b                     ; 0x5b <__rc31+0x2c>
    2835: a2 3a        	ldx	#$3a
    2837: 86 5c        	stx	$5c                     ; 0x5c <__rc31+0x2d>
    2839: a6 5b        	ldx	$5b                     ; 0x5b <__rc31+0x2c>
    283b: 86 59        	stx	$59                     ; 0x59 <__rc31+0x2a>
    283d: a6 5c        	ldx	$5c                     ; 0x5c <__rc31+0x2d>
    283f: 86 5a        	stx	$5a                     ; 0x5a <__rc31+0x2b>
    2841: b2 5b        	lda	($5b)                   ; 0x5b <__rc31+0x2c>
    2843: c9 25        	cmp	#$25
    2845: f0 26        	beq	$286d <printf+0x99>
    2847: a2 00        	ldx	#$0
    2849: c9 00        	cmp	#$0
    284b: d0 03        	bne	$2850 <printf+0x7c>
    284d: 4c 04 35     	jmp	$3504 <printf+0xd30>
    2850: 84 5b        	sty	$5b                     ; 0x5b <__rc31+0x2c>
    2852: 20 05 35     	jsr	$3505 <putchar>
    2855: a4 5b        	ldy	$5b                     ; 0x5b <__rc31+0x2c>
    2857: e6 59        	inc	$59                     ; 0x59 <__rc31+0x2a>
    2859: d0 02        	bne	$285d <printf+0x89>
    285b: e6 5a        	inc	$5a                     ; 0x5a <__rc31+0x2b>
    285d: e6 8c        	inc	$8c                     ; 0x8c <__rc31+0x5d>
    285f: d0 02        	bne	$2863 <printf+0x8f>
    2861: e6 8d        	inc	$8d                     ; 0x8d <__rc31+0x5e>
    2863: a6 59        	ldx	$59                     ; 0x59 <__rc31+0x2a>
    2865: 86 5b        	stx	$5b                     ; 0x5b <__rc31+0x2c>
    2867: a6 5a        	ldx	$5a                     ; 0x5a <__rc31+0x2b>
    2869: 86 5c        	stx	$5c                     ; 0x5c <__rc31+0x2d>
    286b: 80 cc        	bra	$2839 <printf+0x65>
    286d: a6 5b        	ldx	$5b                     ; 0x5b <__rc31+0x2c>
    286f: 86 12        	stx	$12                     ; 0x12 <__zp_bss_size>
    2871: a6 5c        	ldx	$5c                     ; 0x5c <__rc31+0x2d>
    2873: 86 13        	stx	$13                     ; 0x13 <__rc3>
    2875: e6 12        	inc	$12                     ; 0x12 <__zp_bss_size>
    2877: d0 02        	bne	$287b <printf+0xa7>
    2879: e6 13        	inc	$13                     ; 0x13 <__rc3>
    287b: b1 59        	lda	($59),y                 ; 0x59 <__rc31+0x2a>
    287d: c9 25        	cmp	#$25
    287f: d0 18        	bne	$2899 <printf+0xc5>
    2881: a2 01        	ldx	#$1
    2883: 86 13        	stx	$13                     ; 0x13 <__rc3>
    2885: a5 8c        	lda	$8c                     ; 0x8c <__rc31+0x5d>
    2887: a4 8d        	ldy	$8d                     ; 0x8d <__rc31+0x5e>
    2889: c4 8b        	cpy	$8b                     ; 0x8b <__rc31+0x5c>
    288b: f0 03        	beq	$2890 <printf+0xbc>
    288d: 4c a9 29     	jmp	$29a9 <printf+0x1d5>
    2890: a6 8a        	ldx	$8a                     ; 0x8a <__rc31+0x5b>
    2892: 86 12        	stx	$12                     ; 0x12 <__zp_bss_size>
    2894: c5 12        	cmp	$12                     ; 0x12 <__zp_bss_size>
    2896: 4c ab 29     	jmp	$29ab <printf+0x1d7>
    2899: a2 01        	ldx	#$1
    289b: 86 15        	stx	$15                     ; 0x15 <__rc5>
    289d: 64 88        	stz	$88                     ; 0x88 <__rc31+0x59>
    289f: 64 89        	stz	$89                     ; 0x89 <__rc31+0x5a>
    28a1: 64 87        	stz	$87                     ; 0x87 <__rc31+0x58>
    28a3: 64 92        	stz	$92                     ; 0x92 <__rc31+0x63>
    28a5: 64 93        	stz	$93                     ; 0x93 <__rc31+0x64>
    28a7: a2 ff        	ldx	#$ff
    28a9: 86 94        	stx	$94                     ; 0x94 <__rc31+0x65>
    28ab: 86 95        	stx	$95                     ; 0x95 <__rc31+0x66>
    28ad: 64 57        	stz	$57                     ; 0x57 <__rc31+0x28>
    28af: 80 33        	bra	$28e4 <printf+0x110>
    28b1: a2 02        	ldx	#$2
    28b3: 80 15        	bra	$28ca <printf+0xf6>
    28b5: e0 20        	cpx	#$20
    28b7: f0 15        	beq	$28ce <printf+0xfa>
    28b9: 86 16        	stx	$16                     ; 0x16 <__rc6>
    28bb: e0 23        	cpx	#$23
    28bd: f0 03        	beq	$28c2 <printf+0xee>
    28bf: 4c 41 29     	jmp	$2941 <printf+0x16d>
    28c2: a5 57        	lda	$57                     ; 0x57 <__rc31+0x28>
    28c4: a2 04        	ldx	#$4
    28c6: 80 02        	bra	$28ca <printf+0xf6>
    28c8: a2 10        	ldx	#$10
    28ca: 86 14        	stx	$14                     ; 0x14 <__rc4>
    28cc: 80 06        	bra	$28d4 <printf+0x100>
    28ce: a2 08        	ldx	#$8
    28d0: 86 14        	stx	$14                     ; 0x14 <__rc4>
    28d2: a5 57        	lda	$57                     ; 0x57 <__rc31+0x28>
    28d4: 05 14        	ora	$14                     ; 0x14 <__rc4>
    28d6: 85 57        	sta	$57                     ; 0x57 <__rc31+0x28>
    28d8: 85 88        	sta	$88                     ; 0x88 <__rc31+0x59>
    28da: a2 00        	ldx	#$0
    28dc: 86 89        	stx	$89                     ; 0x89 <__rc31+0x5a>
    28de: e6 12        	inc	$12                     ; 0x12 <__zp_bss_size>
    28e0: d0 02        	bne	$28e4 <printf+0x110>
    28e2: e6 13        	inc	$13                     ; 0x13 <__rc3>
    28e4: b2 12        	lda	($12)                   ; 0x12 <__zp_bss_size>
    28e6: aa           	tax
    28e7: 18           	clc
    28e8: 69 d6        	adc	#$d6
    28ea: c9 07        	cmp	#$7
    28ec: b0 c7        	bcs	$28b5 <printf+0xe1>
    28ee: 86 16        	stx	$16                     ; 0x16 <__rc6>
    28f0: 0a           	asl
    28f1: aa           	tax
    28f2: a0 01        	ldy	#$1
    28f4: 84 14        	sty	$14                     ; 0x14 <__rc4>
    28f6: a5 57        	lda	$57                     ; 0x57 <__rc31+0x28>
    28f8: 7c 5e 3a     	jmp	($3a5e,x)               ; 0x3a5e <__BLOCK_SIZE+0x1a5e>
    28fb: a5 98        	lda	$98                     ; 0x98 <__rc31+0x69>
    28fd: a6 99        	ldx	$99                     ; 0x99 <__rc31+0x6a>
    28ff: 85 16        	sta	$16                     ; 0x16 <__rc6>
    2901: 86 17        	stx	$17                     ; 0x17 <__rc7>
    2903: 18           	clc
    2904: 69 02        	adc	#$2
    2906: a8           	tay
    2907: 8a           	txa
    2908: 69 00        	adc	#$0
    290a: 84 98        	sty	$98                     ; 0x98 <__rc31+0x69>
    290c: 85 99        	sta	$99                     ; 0x99 <__rc31+0x6a>
    290e: b2 16        	lda	($16)                   ; 0x16 <__rc6>
    2910: 85 15        	sta	$15                     ; 0x15 <__rc5>
    2912: a0 01        	ldy	#$1
    2914: b1 16        	lda	($16),y                 ; 0x16 <__rc6>
    2916: 85 14        	sta	$14                     ; 0x14 <__rc4>
    2918: 10 15        	bpl	$292f <printf+0x15b>
    291a: a5 57        	lda	$57                     ; 0x57 <__rc31+0x28>
    291c: 09 01        	ora	#$1
    291e: 85 57        	sta	$57                     ; 0x57 <__rc31+0x28>
    2920: 85 88        	sta	$88                     ; 0x88 <__rc31+0x59>
    2922: a2 00        	ldx	#$0
    2924: 86 89        	stx	$89                     ; 0x89 <__rc31+0x5a>
    2926: 8a           	txa
    2927: 38           	sec
    2928: e5 15        	sbc	$15                     ; 0x15 <__rc5>
    292a: 85 15        	sta	$15                     ; 0x15 <__rc5>
    292c: 8a           	txa
    292d: e5 14        	sbc	$14                     ; 0x14 <__rc4>
    292f: a6 15        	ldx	$15                     ; 0x15 <__rc5>
    2931: 86 92        	stx	$92                     ; 0x92 <__rc31+0x63>
    2933: 85 93        	sta	$93                     ; 0x93 <__rc31+0x64>
    2935: e6 12        	inc	$12                     ; 0x12 <__zp_bss_size>
    2937: f0 03        	beq	$293c <printf+0x168>
    2939: 4c 0c 2a     	jmp	$2a0c <printf+0x238>
    293c: e6 13        	inc	$13                     ; 0x13 <__rc3>
    293e: 4c 0c 2a     	jmp	$2a0c <printf+0x238>
    2941: a5 16        	lda	$16                     ; 0x16 <__rc6>
    2943: 18           	clc
    2944: 69 d0        	adc	#$d0
    2946: c9 0a        	cmp	#$a
    2948: 90 03        	bcc	$294d <printf+0x179>
    294a: 4c fe 29     	jmp	$29fe <printf+0x22a>
    294d: a6 16        	ldx	$16                     ; 0x16 <__rc6>
    294f: 86 14        	stx	$14                     ; 0x14 <__rc4>
    2951: 64 16        	stz	$16                     ; 0x16 <__rc6>
    2953: 64 15        	stz	$15                     ; 0x15 <__rc5>
    2955: 64 17        	stz	$17                     ; 0x17 <__rc7>
    2957: a0 01        	ldy	#$1
    2959: a2 00        	ldx	#$0
    295b: 06 16        	asl	$16                     ; 0x16 <__rc6>
    295d: 26 17        	rol	$17                     ; 0x17 <__rc7>
    295f: a5 16        	lda	$16                     ; 0x16 <__rc6>
    2961: 0a           	asl
    2962: 85 18        	sta	$18                     ; 0x18 <__rc8>
    2964: a5 17        	lda	$17                     ; 0x17 <__rc7>
    2966: 2a           	rol
    2967: 06 18        	asl	$18                     ; 0x18 <__rc8>
    2969: 2a           	rol
    296a: 85 19        	sta	$19                     ; 0x19 <__rc9>
    296c: a5 18        	lda	$18                     ; 0x18 <__rc8>
    296e: 18           	clc
    296f: 65 16        	adc	$16                     ; 0x16 <__rc6>
    2971: 85 16        	sta	$16                     ; 0x16 <__rc6>
    2973: a5 19        	lda	$19                     ; 0x19 <__rc9>
    2975: 65 17        	adc	$17                     ; 0x17 <__rc7>
    2977: 85 17        	sta	$17                     ; 0x17 <__rc7>
    2979: a5 16        	lda	$16                     ; 0x16 <__rc6>
    297b: 18           	clc
    297c: 65 14        	adc	$14                     ; 0x14 <__rc4>
    297e: 85 14        	sta	$14                     ; 0x14 <__rc4>
    2980: a5 17        	lda	$17                     ; 0x17 <__rc7>
    2982: 65 15        	adc	$15                     ; 0x15 <__rc5>
    2984: 85 15        	sta	$15                     ; 0x15 <__rc5>
    2986: 18           	clc
    2987: a5 14        	lda	$14                     ; 0x14 <__rc4>
    2989: 69 d0        	adc	#$d0
    298b: 85 16        	sta	$16                     ; 0x16 <__rc6>
    298d: a5 15        	lda	$15                     ; 0x15 <__rc5>
    298f: 69 ff        	adc	#$ff
    2991: 85 17        	sta	$17                     ; 0x17 <__rc7>
    2993: b1 12        	lda	($12),y                 ; 0x12 <__zp_bss_size>
    2995: 85 14        	sta	$14                     ; 0x14 <__rc4>
    2997: 18           	clc
    2998: 69 d0        	adc	#$d0
    299a: e6 12        	inc	$12                     ; 0x12 <__zp_bss_size>
    299c: d0 02        	bne	$29a0 <printf+0x1cc>
    299e: e6 13        	inc	$13                     ; 0x13 <__rc3>
    29a0: c9 0a        	cmp	#$a
    29a2: 64 15        	stz	$15                     ; 0x15 <__rc5>
    29a4: 90 b5        	bcc	$295b <printf+0x187>
    29a6: 4c 04 2a     	jmp	$2a04 <printf+0x230>
    29a9: c4 8b        	cpy	$8b                     ; 0x8b <__rc31+0x5c>
    29ab: 84 16        	sty	$16                     ; 0x16 <__rc6>
    29ad: a4 13        	ldy	$13                     ; 0x13 <__rc3>
    29af: b0 37        	bcs	$29e8 <printf+0x214>
    29b1: a2 01        	ldx	#$1
    29b3: 86 14        	stx	$14                     ; 0x14 <__rc4>
    29b5: a6 97        	ldx	$97                     ; 0x97 <__rc31+0x68>
    29b7: a0 00        	ldy	#$0
    29b9: 84 12        	sty	$12                     ; 0x12 <__zp_bss_size>
    29bb: a0 00        	ldy	#$0
    29bd: 84 13        	sty	$13                     ; 0x13 <__rc3>
    29bf: e4 13        	cpx	$13                     ; 0x13 <__rc3>
    29c1: d0 19        	bne	$29dc <printf+0x208>
    29c3: a6 96        	ldx	$96                     ; 0x96 <__rc31+0x67>
    29c5: e4 12        	cpx	$12                     ; 0x12 <__zp_bss_size>
    29c7: d0 13        	bne	$29dc <printf+0x208>
    29c9: a4 14        	ldy	$14                     ; 0x14 <__rc4>
    29cb: 18           	clc
    29cc: 65 90        	adc	$90                     ; 0x90 <__rc31+0x61>
    29ce: 85 12        	sta	$12                     ; 0x12 <__zp_bss_size>
    29d0: a5 16        	lda	$16                     ; 0x16 <__rc6>
    29d2: 65 91        	adc	$91                     ; 0x91 <__rc31+0x62>
    29d4: 85 13        	sta	$13                     ; 0x13 <__rc3>
    29d6: a9 25        	lda	#$25
    29d8: 92 12        	sta	($12)                   ; 0x12 <__zp_bss_size>
    29da: 80 0c        	bra	$29e8 <printf+0x214>
    29dc: a2 01        	ldx	#$1
    29de: 86 5b        	stx	$5b                     ; 0x5b <__rc31+0x2c>
    29e0: ca           	dex
    29e1: a9 25        	lda	#$25
    29e3: 20 05 35     	jsr	$3505 <putchar>
    29e6: a4 5b        	ldy	$5b                     ; 0x5b <__rc31+0x2c>
    29e8: e6 8c        	inc	$8c                     ; 0x8c <__rc31+0x5d>
    29ea: d0 02        	bne	$29ee <printf+0x21a>
    29ec: e6 8d        	inc	$8d                     ; 0x8d <__rc31+0x5e>
    29ee: a5 59        	lda	$59                     ; 0x59 <__rc31+0x2a>
    29f0: 18           	clc
    29f1: 69 02        	adc	#$2
    29f3: 85 5b        	sta	$5b                     ; 0x5b <__rc31+0x2c>
    29f5: a5 5a        	lda	$5a                     ; 0x5a <__rc31+0x2b>
    29f7: 69 00        	adc	#$0
    29f9: 85 5c        	sta	$5c                     ; 0x5c <__rc31+0x2d>
    29fb: 4c 39 28     	jmp	$2839 <printf+0x65>
    29fe: 64 16        	stz	$16                     ; 0x16 <__rc6>
    2a00: 64 17        	stz	$17                     ; 0x17 <__rc7>
    2a02: a4 15        	ldy	$15                     ; 0x15 <__rc5>
    2a04: a6 16        	ldx	$16                     ; 0x16 <__rc6>
    2a06: 86 92        	stx	$92                     ; 0x92 <__rc31+0x63>
    2a08: a5 17        	lda	$17                     ; 0x17 <__rc7>
    2a0a: 85 93        	sta	$93                     ; 0x93 <__rc31+0x64>
    2a0c: 86 1a        	stx	$1a                     ; 0x1a <__rc10>
    2a0e: 85 1e        	sta	$1e                     ; 0x1e <__rc14>
    2a10: b2 12        	lda	($12)                   ; 0x12 <__zp_bss_size>
    2a12: a2 ff        	ldx	#$ff
    2a14: c9 2e        	cmp	#$2e
    2a16: d0 39        	bne	$2a51 <printf+0x27d>
    2a18: b1 12        	lda	($12),y                 ; 0x12 <__zp_bss_size>
    2a1a: c9 2a        	cmp	#$2a
    2a1c: d0 38        	bne	$2a56 <printf+0x282>
    2a1e: a5 98        	lda	$98                     ; 0x98 <__rc31+0x69>
    2a20: a6 99        	ldx	$99                     ; 0x99 <__rc31+0x6a>
    2a22: 85 14        	sta	$14                     ; 0x14 <__rc4>
    2a24: 86 15        	stx	$15                     ; 0x15 <__rc5>
    2a26: 18           	clc
    2a27: 69 02        	adc	#$2
    2a29: 85 16        	sta	$16                     ; 0x16 <__rc6>
    2a2b: 8a           	txa
    2a2c: 69 00        	adc	#$0
    2a2e: a6 16        	ldx	$16                     ; 0x16 <__rc6>
    2a30: 86 98        	stx	$98                     ; 0x98 <__rc31+0x69>
    2a32: 85 99        	sta	$99                     ; 0x99 <__rc31+0x6a>
    2a34: a5 12        	lda	$12                     ; 0x12 <__zp_bss_size>
    2a36: 18           	clc
    2a37: 69 02        	adc	#$2
    2a39: 85 12        	sta	$12                     ; 0x12 <__zp_bss_size>
    2a3b: a5 13        	lda	$13                     ; 0x13 <__rc3>
    2a3d: 69 00        	adc	#$0
    2a3f: 85 13        	sta	$13                     ; 0x13 <__rc3>
    2a41: b2 14        	lda	($14)                   ; 0x14 <__rc4>
    2a43: aa           	tax
    2a44: b1 14        	lda	($14),y                 ; 0x14 <__rc4>
    2a46: 86 18        	stx	$18                     ; 0x18 <__rc8>
    2a48: 86 94        	stx	$94                     ; 0x94 <__rc31+0x65>
    2a4a: 85 19        	sta	$19                     ; 0x19 <__rc9>
    2a4c: 85 95        	sta	$95                     ; 0x95 <__rc31+0x66>
    2a4e: 4c 14 2b     	jmp	$2b14 <printf+0x340>
    2a51: 86 18        	stx	$18                     ; 0x18 <__rc8>
    2a53: 4c 24 2b     	jmp	$2b24 <printf+0x350>
    2a56: 18           	clc
    2a57: 85 17        	sta	$17                     ; 0x17 <__rc7>
    2a59: 69 d0        	adc	#$d0
    2a5b: c9 0a        	cmp	#$a
    2a5d: 90 03        	bcc	$2a62 <printf+0x28e>
    2a5f: 4c 06 2b     	jmp	$2b06 <printf+0x332>
    2a62: 64 16        	stz	$16                     ; 0x16 <__rc6>
    2a64: a2 01        	ldx	#$1
    2a66: 64 18        	stz	$18                     ; 0x18 <__rc8>
    2a68: 64 19        	stz	$19                     ; 0x19 <__rc9>
    2a6a: 84 1b        	sty	$1b                     ; 0x1b <__rc11>
    2a6c: 64 1c        	stz	$1c                     ; 0x1c <__rc12>
    2a6e: 18           	clc
    2a6f: a0 01        	ldy	#$1
    2a71: b0 02        	bcs	$2a75 <printf+0x2a1>
    2a73: a0 00        	ldy	#$0
    2a75: 84 1d        	sty	$1d                     ; 0x1d <__rc13>
    2a77: a4 1c        	ldy	$1c                     ; 0x1c <__rc12>
    2a79: 84 14        	sty	$14                     ; 0x14 <__rc4>
    2a7b: 86 15        	stx	$15                     ; 0x15 <__rc5>
    2a7d: 06 18        	asl	$18                     ; 0x18 <__rc8>
    2a7f: 26 19        	rol	$19                     ; 0x19 <__rc9>
    2a81: a5 18        	lda	$18                     ; 0x18 <__rc8>
    2a83: 0a           	asl
    2a84: a8           	tay
    2a85: a5 19        	lda	$19                     ; 0x19 <__rc9>
    2a87: 2a           	rol
    2a88: 84 1f        	sty	$1f                     ; 0x1f <__rc15>
    2a8a: 06 1f        	asl	$1f                     ; 0x1f <__rc15>
    2a8c: 2a           	rol
    2a8d: 85 22        	sta	$22                     ; 0x22 <__rc18>
    2a8f: a5 1f        	lda	$1f                     ; 0x1f <__rc15>
    2a91: a4 1d        	ldy	$1d                     ; 0x1d <__rc13>
    2a93: c0 01        	cpy	#$1
    2a95: 65 18        	adc	$18                     ; 0x18 <__rc8>
    2a97: 85 18        	sta	$18                     ; 0x18 <__rc8>
    2a99: a5 22        	lda	$22                     ; 0x22 <__rc18>
    2a9b: 65 19        	adc	$19                     ; 0x19 <__rc9>
    2a9d: 85 19        	sta	$19                     ; 0x19 <__rc9>
    2a9f: a5 18        	lda	$18                     ; 0x18 <__rc8>
    2aa1: a4 1d        	ldy	$1d                     ; 0x1d <__rc13>
    2aa3: c0 01        	cpy	#$1
    2aa5: 65 17        	adc	$17                     ; 0x17 <__rc7>
    2aa7: 85 17        	sta	$17                     ; 0x17 <__rc7>
    2aa9: a5 19        	lda	$19                     ; 0x19 <__rc9>
    2aab: 65 16        	adc	$16                     ; 0x16 <__rc6>
    2aad: 85 16        	sta	$16                     ; 0x16 <__rc6>
    2aaf: 18           	clc
    2ab0: a5 17        	lda	$17                     ; 0x17 <__rc7>
    2ab2: 69 d0        	adc	#$d0
    2ab4: 85 18        	sta	$18                     ; 0x18 <__rc8>
    2ab6: a5 16        	lda	$16                     ; 0x16 <__rc6>
    2ab8: 69 ff        	adc	#$ff
    2aba: 85 19        	sta	$19                     ; 0x19 <__rc9>
    2abc: e8           	inx
    2abd: d0 02        	bne	$2ac1 <printf+0x2ed>
    2abf: e6 1c        	inc	$1c                     ; 0x1c <__rc12>
    2ac1: a5 12        	lda	$12                     ; 0x12 <__zp_bss_size>
    2ac3: a4 1d        	ldy	$1d                     ; 0x1d <__rc13>
    2ac5: c0 01        	cpy	#$1
    2ac7: 65 15        	adc	$15                     ; 0x15 <__rc5>
    2ac9: a8           	tay
    2aca: a5 13        	lda	$13                     ; 0x13 <__rc3>
    2acc: 65 14        	adc	$14                     ; 0x14 <__rc4>
    2ace: 84 16        	sty	$16                     ; 0x16 <__rc6>
    2ad0: 85 17        	sta	$17                     ; 0x17 <__rc7>
    2ad2: a4 1b        	ldy	$1b                     ; 0x1b <__rc11>
    2ad4: b1 16        	lda	($16),y                 ; 0x16 <__rc6>
    2ad6: 85 17        	sta	$17                     ; 0x17 <__rc7>
    2ad8: 18           	clc
    2ad9: 69 d0        	adc	#$d0
    2adb: c9 0a        	cmp	#$a
    2add: 64 16        	stz	$16                     ; 0x16 <__rc6>
    2adf: b0 03        	bcs	$2ae4 <printf+0x310>
    2ae1: 4c 77 2a     	jmp	$2a77 <printf+0x2a3>
    2ae4: a5 12        	lda	$12                     ; 0x12 <__zp_bss_size>
    2ae6: a6 1d        	ldx	$1d                     ; 0x1d <__rc13>
    2ae8: e0 01        	cpx	#$1
    2aea: 65 15        	adc	$15                     ; 0x15 <__rc5>
    2aec: 85 12        	sta	$12                     ; 0x12 <__zp_bss_size>
    2aee: a5 13        	lda	$13                     ; 0x13 <__rc3>
    2af0: 65 14        	adc	$14                     ; 0x14 <__rc4>
    2af2: 85 13        	sta	$13                     ; 0x13 <__rc3>
    2af4: e6 12        	inc	$12                     ; 0x12 <__zp_bss_size>
    2af6: d0 02        	bne	$2afa <printf+0x326>
    2af8: e6 13        	inc	$13                     ; 0x13 <__rc3>
    2afa: a6 18        	ldx	$18                     ; 0x18 <__rc8>
    2afc: 86 94        	stx	$94                     ; 0x94 <__rc31+0x65>
    2afe: a6 19        	ldx	$19                     ; 0x19 <__rc9>
    2b00: 86 95        	stx	$95                     ; 0x95 <__rc31+0x66>
    2b02: a4 1b        	ldy	$1b                     ; 0x1b <__rc11>
    2b04: 80 0e        	bra	$2b14 <printf+0x340>
    2b06: e6 12        	inc	$12                     ; 0x12 <__zp_bss_size>
    2b08: d0 02        	bne	$2b0c <printf+0x338>
    2b0a: e6 13        	inc	$13                     ; 0x13 <__rc3>
    2b0c: 64 18        	stz	$18                     ; 0x18 <__rc8>
    2b0e: 64 94        	stz	$94                     ; 0x94 <__rc31+0x65>
    2b10: 64 95        	stz	$95                     ; 0x95 <__rc31+0x66>
    2b12: 64 19        	stz	$19                     ; 0x19 <__rc9>
    2b14: a5 57        	lda	$57                     ; 0x57 <__rc31+0x28>
    2b16: 29 ef        	and	#$ef
    2b18: 85 57        	sta	$57                     ; 0x57 <__rc31+0x28>
    2b1a: 85 88        	sta	$88                     ; 0x88 <__rc31+0x59>
    2b1c: a2 00        	ldx	#$0
    2b1e: 86 89        	stx	$89                     ; 0x89 <__rc31+0x5a>
    2b20: b2 12        	lda	($12)                   ; 0x12 <__zp_bss_size>
    2b22: a6 19        	ldx	$19                     ; 0x19 <__rc9>
    2b24: 86 14        	stx	$14                     ; 0x14 <__rc4>
    2b26: a6 12        	ldx	$12                     ; 0x12 <__zp_bss_size>
    2b28: 86 5b        	stx	$5b                     ; 0x5b <__rc31+0x2c>
    2b2a: a6 13        	ldx	$13                     ; 0x13 <__rc3>
    2b2c: 86 5c        	stx	$5c                     ; 0x5c <__rc31+0x2d>
    2b2e: e6 5b        	inc	$5b                     ; 0x5b <__rc31+0x2c>
    2b30: d0 02        	bne	$2b34 <printf+0x360>
    2b32: e6 5c        	inc	$5c                     ; 0x5c <__rc31+0x2d>
    2b34: 38           	sec
    2b35: aa           	tax
    2b36: e9 6c        	sbc	#$6c
    2b38: 50 02        	bvc	$2b3c <printf+0x368>
    2b3a: 49 80        	eor	#$80
    2b3c: c9 00        	cmp	#$0
    2b3e: 10 1f        	bpl	$2b5f <printf+0x38b>
    2b40: e0 4c        	cpx	#$4c
    2b42: f0 35        	beq	$2b79 <printf+0x3a5>
    2b44: e0 68        	cpx	#$68
    2b46: d0 03        	bne	$2b4b <printf+0x377>
    2b48: 4c f4 2b     	jmp	$2bf4 <printf+0x420>
    2b4b: da           	phx
    2b4c: 7a           	ply
    2b4d: a9 01        	lda	#$1
    2b4f: a2 08        	ldx	#$8
    2b51: c0 6a        	cpy	#$6a
    2b53: d0 20        	bne	$2b75 <printf+0x3a1>
    2b55: a4 5b        	ldy	$5b                     ; 0x5b <__rc31+0x2c>
    2b57: 84 12        	sty	$12                     ; 0x12 <__zp_bss_size>
    2b59: a4 5c        	ldy	$5c                     ; 0x5c <__rc31+0x2d>
    2b5b: 84 13        	sty	$13                     ; 0x13 <__rc3>
    2b5d: 80 50        	bra	$2baf <printf+0x3db>
    2b5f: e0 6c        	cpx	#$6c
    2b61: f0 31        	beq	$2b94 <printf+0x3c0>
    2b63: e0 74        	cpx	#$74
    2b65: f0 1e        	beq	$2b85 <printf+0x3b1>
    2b67: a9 01        	lda	#$1
    2b69: e0 7a        	cpx	#$7a
    2b6b: d0 08        	bne	$2b75 <printf+0x3a1>
    2b6d: a6 5b        	ldx	$5b                     ; 0x5b <__rc31+0x2c>
    2b6f: 86 12        	stx	$12                     ; 0x12 <__zp_bss_size>
    2b71: a6 5c        	ldx	$5c                     ; 0x5c <__rc31+0x2d>
    2b73: 86 13        	stx	$13                     ; 0x13 <__rc3>
    2b75: a2 02        	ldx	#$2
    2b77: 80 17        	bra	$2b90 <printf+0x3bc>
    2b79: a5 57        	lda	$57                     ; 0x57 <__rc31+0x28>
    2b7b: 09 40        	ora	#$40
    2b7d: 85 57        	sta	$57                     ; 0x57 <__rc31+0x28>
    2b7f: 85 88        	sta	$88                     ; 0x88 <__rc31+0x59>
    2b81: a2 00        	ldx	#$0
    2b83: 86 89        	stx	$89                     ; 0x89 <__rc31+0x5a>
    2b85: a6 5b        	ldx	$5b                     ; 0x5b <__rc31+0x2c>
    2b87: 86 12        	stx	$12                     ; 0x12 <__zp_bss_size>
    2b89: a6 5c        	ldx	$5c                     ; 0x5c <__rc31+0x2d>
    2b8b: 86 13        	stx	$13                     ; 0x13 <__rc3>
    2b8d: a2 02        	ldx	#$2
    2b8f: 98           	tya
    2b90: a0 02        	ldy	#$2
    2b92: 80 1d        	bra	$2bb1 <printf+0x3dd>
    2b94: b1 12        	lda	($12),y                 ; 0x12 <__zp_bss_size>
    2b96: a2 04        	ldx	#$4
    2b98: c9 6c        	cmp	#$6c
    2b9a: f0 03        	beq	$2b9f <printf+0x3cb>
    2b9c: 4c 11 2c     	jmp	$2c11 <printf+0x43d>
    2b9f: a5 12        	lda	$12                     ; 0x12 <__zp_bss_size>
    2ba1: 18           	clc
    2ba2: 69 02        	adc	#$2
    2ba4: 85 12        	sta	$12                     ; 0x12 <__zp_bss_size>
    2ba6: a5 13        	lda	$13                     ; 0x13 <__rc3>
    2ba8: 69 00        	adc	#$0
    2baa: 85 13        	sta	$13                     ; 0x13 <__rc3>
    2bac: a2 08        	ldx	#$8
    2bae: 98           	tya
    2baf: a0 08        	ldy	#$8
    2bb1: 84 58        	sty	$58                     ; 0x58 <__rc31+0x29>
    2bb3: a8           	tay
    2bb4: b2 12        	lda	($12)                   ; 0x12 <__zp_bss_size>
    2bb6: 5a           	phy
    2bb7: a4 12        	ldy	$12                     ; 0x12 <__zp_bss_size>
    2bb9: 84 5b        	sty	$5b                     ; 0x5b <__rc31+0x2c>
    2bbb: a4 13        	ldy	$13                     ; 0x13 <__rc3>
    2bbd: 84 5c        	sty	$5c                     ; 0x5c <__rc31+0x2d>
    2bbf: 7a           	ply
    2bc0: 86 61        	stx	$61                     ; 0x61 <__rc31+0x32>
    2bc2: aa           	tax
    2bc3: 18           	clc
    2bc4: 69 9d        	adc	#$9d
    2bc6: c9 16        	cmp	#$16
    2bc8: b0 4c        	bcs	$2c16 <printf+0x442>
    2bca: 0a           	asl
    2bcb: aa           	tax
    2bcc: 7c 6c 3a     	jmp	($3a6c,x)               ; 0x3a6c <__BLOCK_SIZE+0x1a6c>
    2bcf: a6 59        	ldx	$59                     ; 0x59 <__rc31+0x2a>
    2bd1: 86 9d        	stx	$9d                     ; 0x9d <__rc31+0x6e>
    2bd3: a6 5a        	ldx	$5a                     ; 0x5a <__rc31+0x2b>
    2bd5: 86 9e        	stx	$9e                     ; 0x9e <__rc31+0x6f>
    2bd7: a6 14        	ldx	$14                     ; 0x14 <__rc4>
    2bd9: 86 a1        	stx	$a1                     ; 0xa1 <__rc31+0x72>
    2bdb: a6 18        	ldx	$18                     ; 0x18 <__rc8>
    2bdd: 86 9c        	stx	$9c                     ; 0x9c <__rc31+0x6d>
    2bdf: a6 1e        	ldx	$1e                     ; 0x1e <__rc14>
    2be1: 86 a2        	stx	$a2                     ; 0xa2 <__rc31+0x73>
    2be3: a6 1a        	ldx	$1a                     ; 0x1a <__rc10>
    2be5: 86 60        	stx	$60                     ; 0x60 <__rc31+0x31>
    2be7: a0 0a        	ldy	#$a
    2be9: a2 0a        	ldx	#$a
    2beb: 86 62        	stx	$62                     ; 0x62 <__rc31+0x33>
    2bed: 84 87        	sty	$87                     ; 0x87 <__rc31+0x58>
    2bef: 64 5f        	stz	$5f                     ; 0x5f <__rc31+0x30>
    2bf1: 4c 63 2d     	jmp	$2d63 <printf+0x58f>
    2bf4: b1 12        	lda	($12),y                 ; 0x12 <__zp_bss_size>
    2bf6: a2 02        	ldx	#$2
    2bf8: c9 68        	cmp	#$68
    2bfa: d0 15        	bne	$2c11 <printf+0x43d>
    2bfc: a5 12        	lda	$12                     ; 0x12 <__zp_bss_size>
    2bfe: 18           	clc
    2bff: 69 02        	adc	#$2
    2c01: 85 12        	sta	$12                     ; 0x12 <__zp_bss_size>
    2c03: a5 13        	lda	$13                     ; 0x13 <__rc3>
    2c05: 69 00        	adc	#$0
    2c07: 85 13        	sta	$13                     ; 0x13 <__rc3>
    2c09: a2 01        	ldx	#$1
    2c0b: 86 58        	stx	$58                     ; 0x58 <__rc31+0x29>
    2c0d: e8           	inx
    2c0e: 4c b4 2b     	jmp	$2bb4 <printf+0x3e0>
    2c11: 86 58        	stx	$58                     ; 0x58 <__rc31+0x29>
    2c13: 4c c0 2b     	jmp	$2bc0 <printf+0x3ec>
    2c16: e0 58        	cpx	#$58
    2c18: f0 03        	beq	$2c1d <printf+0x449>
    2c1a: 4c b9 34     	jmp	$34b9 <printf+0xce5>
    2c1d: a6 59        	ldx	$59                     ; 0x59 <__rc31+0x2a>
    2c1f: 86 9d        	stx	$9d                     ; 0x9d <__rc31+0x6e>
    2c21: a6 5a        	ldx	$5a                     ; 0x5a <__rc31+0x2b>
    2c23: 86 9e        	stx	$9e                     ; 0x9e <__rc31+0x6f>
    2c25: a6 14        	ldx	$14                     ; 0x14 <__rc4>
    2c27: 86 a1        	stx	$a1                     ; 0xa1 <__rc31+0x72>
    2c29: a6 18        	ldx	$18                     ; 0x18 <__rc8>
    2c2b: 86 9c        	stx	$9c                     ; 0x9c <__rc31+0x6d>
    2c2d: a6 1e        	ldx	$1e                     ; 0x1e <__rc14>
    2c2f: 86 a2        	stx	$a2                     ; 0xa2 <__rc31+0x73>
    2c31: a6 1a        	ldx	$1a                     ; 0x1a <__rc10>
    2c33: 86 60        	stx	$60                     ; 0x60 <__rc31+0x31>
    2c35: a2 10        	ldx	#$10
    2c37: 86 87        	stx	$87                     ; 0x87 <__rc31+0x58>
    2c39: a9 00        	lda	#$0
    2c3b: 09 01        	ora	#$1
    2c3d: a6 57        	ldx	$57                     ; 0x57 <__rc31+0x28>
    2c3f: 80 49        	bra	$2c8a <printf+0x4b6>
    2c41: a6 59        	ldx	$59                     ; 0x59 <__rc31+0x2a>
    2c43: 86 9d        	stx	$9d                     ; 0x9d <__rc31+0x6e>
    2c45: a6 5a        	ldx	$5a                     ; 0x5a <__rc31+0x2b>
    2c47: 86 9e        	stx	$9e                     ; 0x9e <__rc31+0x6f>
    2c49: a6 14        	ldx	$14                     ; 0x14 <__rc4>
    2c4b: 86 a1        	stx	$a1                     ; 0xa1 <__rc31+0x72>
    2c4d: a6 18        	ldx	$18                     ; 0x18 <__rc8>
    2c4f: 86 9c        	stx	$9c                     ; 0x9c <__rc31+0x6d>
    2c51: a6 1e        	ldx	$1e                     ; 0x1e <__rc14>
    2c53: 86 a2        	stx	$a2                     ; 0xa2 <__rc31+0x73>
    2c55: a6 1a        	ldx	$1a                     ; 0x1a <__rc10>
    2c57: 86 60        	stx	$60                     ; 0x60 <__rc31+0x31>
    2c59: a2 10        	ldx	#$10
    2c5b: 86 87        	stx	$87                     ; 0x87 <__rc31+0x58>
    2c5d: a5 57        	lda	$57                     ; 0x57 <__rc31+0x28>
    2c5f: 09 84        	ora	#$84
    2c61: 80 20        	bra	$2c83 <printf+0x4af>
    2c63: a6 59        	ldx	$59                     ; 0x59 <__rc31+0x2a>
    2c65: 86 9d        	stx	$9d                     ; 0x9d <__rc31+0x6e>
    2c67: a6 5a        	ldx	$5a                     ; 0x5a <__rc31+0x2b>
    2c69: 86 9e        	stx	$9e                     ; 0x9e <__rc31+0x6f>
    2c6b: a6 14        	ldx	$14                     ; 0x14 <__rc4>
    2c6d: 86 a1        	stx	$a1                     ; 0xa1 <__rc31+0x72>
    2c6f: a6 18        	ldx	$18                     ; 0x18 <__rc8>
    2c71: 86 9c        	stx	$9c                     ; 0x9c <__rc31+0x6d>
    2c73: a6 1e        	ldx	$1e                     ; 0x1e <__rc14>
    2c75: 86 a2        	stx	$a2                     ; 0xa2 <__rc31+0x73>
    2c77: a6 1a        	ldx	$1a                     ; 0x1a <__rc10>
    2c79: 86 60        	stx	$60                     ; 0x60 <__rc31+0x31>
    2c7b: a2 10        	ldx	#$10
    2c7d: 86 87        	stx	$87                     ; 0x87 <__rc31+0x58>
    2c7f: a5 57        	lda	$57                     ; 0x57 <__rc31+0x28>
    2c81: 09 80        	ora	#$80
    2c83: aa           	tax
    2c84: a9 00        	lda	#$0
    2c86: 09 01        	ora	#$1
    2c88: 86 57        	stx	$57                     ; 0x57 <__rc31+0x28>
    2c8a: 86 88        	stx	$88                     ; 0x88 <__rc31+0x59>
    2c8c: 85 5f        	sta	$5f                     ; 0x5f <__rc31+0x30>
    2c8e: 85 89        	sta	$89                     ; 0x89 <__rc31+0x5a>
    2c90: a2 10        	ldx	#$10
    2c92: 86 62        	stx	$62                     ; 0x62 <__rc31+0x33>
    2c94: 4c 63 2d     	jmp	$2d63 <printf+0x58f>
    2c97: a5 98        	lda	$98                     ; 0x98 <__rc31+0x69>
    2c99: a6 99        	ldx	$99                     ; 0x99 <__rc31+0x6a>
    2c9b: 85 12        	sta	$12                     ; 0x12 <__zp_bss_size>
    2c9d: 86 13        	stx	$13                     ; 0x13 <__rc3>
    2c9f: 18           	clc
    2ca0: 69 02        	adc	#$2
    2ca2: 85 14        	sta	$14                     ; 0x14 <__rc4>
    2ca4: 8a           	txa
    2ca5: 69 00        	adc	#$0
    2ca7: a6 14        	ldx	$14                     ; 0x14 <__rc4>
    2ca9: 86 98        	stx	$98                     ; 0x98 <__rc31+0x69>
    2cab: 85 99        	sta	$99                     ; 0x99 <__rc31+0x6a>
    2cad: b2 12        	lda	($12)                   ; 0x12 <__zp_bss_size>
    2caf: aa           	tax
    2cb0: b1 12        	lda	($12),y                 ; 0x12 <__zp_bss_size>
    2cb2: 86 12        	stx	$12                     ; 0x12 <__zp_bss_size>
    2cb4: 85 13        	sta	$13                     ; 0x13 <__rc3>
    2cb6: a5 8c        	lda	$8c                     ; 0x8c <__rc31+0x5d>
    2cb8: a6 8d        	ldx	$8d                     ; 0x8d <__rc31+0x5e>
    2cba: 92 12        	sta	($12)                   ; 0x12 <__zp_bss_size>
    2cbc: 8a           	txa
    2cbd: 91 12        	sta	($12),y                 ; 0x12 <__zp_bss_size>
    2cbf: 4c a1 34     	jmp	$34a1 <printf+0xccd>
    2cc2: a5 98        	lda	$98                     ; 0x98 <__rc31+0x69>
    2cc4: a6 99        	ldx	$99                     ; 0x99 <__rc31+0x6a>
    2cc6: 85 12        	sta	$12                     ; 0x12 <__zp_bss_size>
    2cc8: 86 13        	stx	$13                     ; 0x13 <__rc3>
    2cca: 18           	clc
    2ccb: 69 02        	adc	#$2
    2ccd: 85 14        	sta	$14                     ; 0x14 <__rc4>
    2ccf: 8a           	txa
    2cd0: 69 00        	adc	#$0
    2cd2: a6 14        	ldx	$14                     ; 0x14 <__rc4>
    2cd4: 86 98        	stx	$98                     ; 0x98 <__rc31+0x69>
    2cd6: 85 99        	sta	$99                     ; 0x99 <__rc31+0x6a>
    2cd8: b2 12        	lda	($12)                   ; 0x12 <__zp_bss_size>
    2cda: aa           	tax
    2cdb: b1 12        	lda	($12),y                 ; 0x12 <__zp_bss_size>
    2cdd: 86 12        	stx	$12                     ; 0x12 <__zp_bss_size>
    2cdf: 85 13        	sta	$13                     ; 0x13 <__rc3>
    2ce1: 80 42        	bra	$2d25 <printf+0x551>
    2ce3: a6 59        	ldx	$59                     ; 0x59 <__rc31+0x2a>
    2ce5: 86 9d        	stx	$9d                     ; 0x9d <__rc31+0x6e>
    2ce7: a6 5a        	ldx	$5a                     ; 0x5a <__rc31+0x2b>
    2ce9: 86 9e        	stx	$9e                     ; 0x9e <__rc31+0x6f>
    2ceb: a6 14        	ldx	$14                     ; 0x14 <__rc4>
    2ced: 86 a1        	stx	$a1                     ; 0xa1 <__rc31+0x72>
    2cef: a6 18        	ldx	$18                     ; 0x18 <__rc8>
    2cf1: 86 9c        	stx	$9c                     ; 0x9c <__rc31+0x6d>
    2cf3: a6 1e        	ldx	$1e                     ; 0x1e <__rc14>
    2cf5: 86 a2        	stx	$a2                     ; 0xa2 <__rc31+0x73>
    2cf7: a6 1a        	ldx	$1a                     ; 0x1a <__rc10>
    2cf9: 86 60        	stx	$60                     ; 0x60 <__rc31+0x31>
    2cfb: a0 08        	ldy	#$8
    2cfd: a2 08        	ldx	#$8
    2cff: 80 52        	bra	$2d53 <printf+0x57f>
    2d01: a5 98        	lda	$98                     ; 0x98 <__rc31+0x69>
    2d03: a6 99        	ldx	$99                     ; 0x99 <__rc31+0x6a>
    2d05: 85 12        	sta	$12                     ; 0x12 <__zp_bss_size>
    2d07: 86 13        	stx	$13                     ; 0x13 <__rc3>
    2d09: 18           	clc
    2d0a: 69 02        	adc	#$2
    2d0c: 85 14        	sta	$14                     ; 0x14 <__rc4>
    2d0e: 8a           	txa
    2d0f: 69 00        	adc	#$0
    2d11: a6 14        	ldx	$14                     ; 0x14 <__rc4>
    2d13: 86 98        	stx	$98                     ; 0x98 <__rc31+0x69>
    2d15: 85 99        	sta	$99                     ; 0x99 <__rc31+0x6a>
    2d17: b2 12        	lda	($12)                   ; 0x12 <__zp_bss_size>
    2d19: 85 7a        	sta	$7a                     ; 0x7a <__rc31+0x4b>
    2d1b: 64 7b        	stz	$7b                     ; 0x7b <__rc31+0x4c>
    2d1d: a2 7a        	ldx	#$7a
    2d1f: 86 12        	stx	$12                     ; 0x12 <__zp_bss_size>
    2d21: a2 00        	ldx	#$0
    2d23: 86 13        	stx	$13                     ; 0x13 <__rc3>
    2d25: a2 87        	ldx	#$87
    2d27: 86 14        	stx	$14                     ; 0x14 <__rc4>
    2d29: a2 00        	ldx	#$0
    2d2b: 86 15        	stx	$15                     ; 0x15 <__rc5>
    2d2d: 84 5d        	sty	$5d                     ; 0x5d <__rc31+0x2e>
    2d2f: 20 c5 26     	jsr	$26c5 <_ZN12_GLOBAL__N_112print_stringEPKcP6Status>
    2d32: a4 5d        	ldy	$5d                     ; 0x5d <__rc31+0x2e>
    2d34: 4c a1 34     	jmp	$34a1 <printf+0xccd>
    2d37: a6 59        	ldx	$59                     ; 0x59 <__rc31+0x2a>
    2d39: 86 9d        	stx	$9d                     ; 0x9d <__rc31+0x6e>
    2d3b: a6 5a        	ldx	$5a                     ; 0x5a <__rc31+0x2b>
    2d3d: 86 9e        	stx	$9e                     ; 0x9e <__rc31+0x6f>
    2d3f: a6 14        	ldx	$14                     ; 0x14 <__rc4>
    2d41: 86 a1        	stx	$a1                     ; 0xa1 <__rc31+0x72>
    2d43: a6 18        	ldx	$18                     ; 0x18 <__rc8>
    2d45: 86 9c        	stx	$9c                     ; 0x9c <__rc31+0x6d>
    2d47: a6 1e        	ldx	$1e                     ; 0x1e <__rc14>
    2d49: 86 a2        	stx	$a2                     ; 0xa2 <__rc31+0x73>
    2d4b: a6 1a        	ldx	$1a                     ; 0x1a <__rc10>
    2d4d: 86 60        	stx	$60                     ; 0x60 <__rc31+0x31>
    2d4f: a0 0a        	ldy	#$a
    2d51: a2 0a        	ldx	#$a
    2d53: 86 62        	stx	$62                     ; 0x62 <__rc31+0x33>
    2d55: 84 87        	sty	$87                     ; 0x87 <__rc31+0x58>
    2d57: a9 00        	lda	#$0
    2d59: 09 01        	ora	#$1
    2d5b: a6 57        	ldx	$57                     ; 0x57 <__rc31+0x28>
    2d5d: 86 88        	stx	$88                     ; 0x88 <__rc31+0x59>
    2d5f: 85 5f        	sta	$5f                     ; 0x5f <__rc31+0x30>
    2d61: 85 89        	sta	$89                     ; 0x89 <__rc31+0x5a>
    2d63: a5 58        	lda	$58                     ; 0x58 <__rc31+0x29>
    2d65: 85 7c        	sta	$7c                     ; 0x7c <__rc31+0x4d>
    2d67: a4 98        	ldy	$98                     ; 0x98 <__rc31+0x69>
    2d69: a6 99        	ldx	$99                     ; 0x99 <__rc31+0x6a>
    2d6b: 86 5d        	stx	$5d                     ; 0x5d <__rc31+0x2e>
    2d6d: 84 14        	sty	$14                     ; 0x14 <__rc4>
    2d6f: 84 59        	sty	$59                     ; 0x59 <__rc31+0x2a>
    2d71: 86 15        	stx	$15                     ; 0x15 <__rc5>
    2d73: a6 9f        	ldx	$9f                     ; 0x9f <__rc31+0x70>
    2d75: 86 12        	stx	$12                     ; 0x12 <__zp_bss_size>
    2d77: a6 a0        	ldx	$a0                     ; 0xa0 <__rc31+0x71>
    2d79: 86 13        	stx	$13                     ; 0x13 <__rc3>
    2d7b: a2 00        	ldx	#$0
    2d7d: 85 5e        	sta	$5e                     ; 0x5e <__rc31+0x2f>
    2d7f: 20 e0 39     	jsr	$39e0 <memcpy>
    2d82: 18           	clc
    2d83: a5 59        	lda	$59                     ; 0x59 <__rc31+0x2a>
    2d85: 65 61        	adc	$61                     ; 0x61 <__rc31+0x32>
    2d87: aa           	tax
    2d88: a5 5d        	lda	$5d                     ; 0x5d <__rc31+0x2e>
    2d8a: 69 00        	adc	#$0
    2d8c: 86 98        	stx	$98                     ; 0x98 <__rc31+0x69>
    2d8e: 85 99        	sta	$99                     ; 0x99 <__rc31+0x6a>
    2d90: a5 5f        	lda	$5f                     ; 0x5f <__rc31+0x30>
    2d92: 29 01        	and	#$1
    2d94: a0 00        	ldy	#$0
    2d96: aa           	tax
    2d97: f0 03        	beq	$2d9c <printf+0x5c8>
    2d99: 4c ee 2d     	jmp	$2dee <printf+0x61a>
    2d9c: a6 5e        	ldx	$5e                     ; 0x5e <__rc31+0x2f>
    2d9e: b5 7c        	lda	$7c,x                   ; 0x7c <__rc31+0x4d>
    2da0: aa           	tax
    2da1: a5 60        	lda	$60                     ; 0x60 <__rc31+0x31>
    2da3: 85 17        	sta	$17                     ; 0x17 <__rc7>
    2da5: a5 a2        	lda	$a2                     ; 0xa2 <__rc31+0x73>
    2da7: 85 1a        	sta	$1a                     ; 0x1a <__rc10>
    2da9: a5 a1        	lda	$a1                     ; 0xa1 <__rc31+0x72>
    2dab: 85 5e        	sta	$5e                     ; 0x5e <__rc31+0x2f>
    2dad: a5 9d        	lda	$9d                     ; 0x9d <__rc31+0x6e>
    2daf: 85 59        	sta	$59                     ; 0x59 <__rc31+0x2a>
    2db1: a5 9e        	lda	$9e                     ; 0x9e <__rc31+0x6f>
    2db3: 85 5a        	sta	$5a                     ; 0x5a <__rc31+0x2b>
    2db5: 8a           	txa
    2db6: 10 4a        	bpl	$2e02 <printf+0x62e>
    2db8: a2 00        	ldx	#$0
    2dba: 64 12        	stz	$12                     ; 0x12 <__zp_bss_size>
    2dbc: a9 00        	lda	#$0
    2dbe: 38           	sec
    2dbf: f5 7d        	sbc	$7d,x                   ; 0x7d <__rc31+0x4e>
    2dc1: a0 01        	ldy	#$1
    2dc3: 84 14        	sty	$14                     ; 0x14 <__rc4>
    2dc5: 88           	dey
    2dc6: b0 02        	bcs	$2dca <printf+0x5f6>
    2dc8: a0 01        	ldy	#$1
    2dca: 38           	sec
    2dcb: e5 12        	sbc	$12                     ; 0x12 <__zp_bss_size>
    2dcd: 85 13        	sta	$13                     ; 0x13 <__rc3>
    2dcf: 64 12        	stz	$12                     ; 0x12 <__zp_bss_size>
    2dd1: b0 04        	bcs	$2dd7 <printf+0x603>
    2dd3: a5 14        	lda	$14                     ; 0x14 <__rc4>
    2dd5: 85 12        	sta	$12                     ; 0x12 <__zp_bss_size>
    2dd7: 98           	tya
    2dd8: 05 12        	ora	$12                     ; 0x12 <__zp_bss_size>
    2dda: 85 12        	sta	$12                     ; 0x12 <__zp_bss_size>
    2ddc: a5 13        	lda	$13                     ; 0x13 <__rc3>
    2dde: 9d 7d 00     	sta	$7d,x                   ; 0x7d <__rc31+0x4e>
    2de1: e8           	inx
    2de2: 86 13        	stx	$13                     ; 0x13 <__rc3>
    2de4: a4 58        	ldy	$58                     ; 0x58 <__rc31+0x29>
    2de6: c4 13        	cpy	$13                     ; 0x13 <__rc3>
    2de8: d0 d2        	bne	$2dbc <printf+0x5e8>
    2dea: a0 01        	ldy	#$1
    2dec: 80 14        	bra	$2e02 <printf+0x62e>
    2dee: a6 60        	ldx	$60                     ; 0x60 <__rc31+0x31>
    2df0: 86 17        	stx	$17                     ; 0x17 <__rc7>
    2df2: a6 a2        	ldx	$a2                     ; 0xa2 <__rc31+0x73>
    2df4: 86 1a        	stx	$1a                     ; 0x1a <__rc10>
    2df6: a6 a1        	ldx	$a1                     ; 0xa1 <__rc31+0x72>
    2df8: 86 5e        	stx	$5e                     ; 0x5e <__rc31+0x2f>
    2dfa: a6 9d        	ldx	$9d                     ; 0x9d <__rc31+0x6e>
    2dfc: 86 59        	stx	$59                     ; 0x59 <__rc31+0x2a>
    2dfe: a6 9e        	ldx	$9e                     ; 0x9e <__rc31+0x6f>
    2e00: 86 5a        	stx	$5a                     ; 0x5a <__rc31+0x2b>
    2e02: 84 18        	sty	$18                     ; 0x18 <__rc8>
    2e04: a5 58        	lda	$58                     ; 0x58 <__rc31+0x29>
    2e06: 0a           	asl
    2e07: 0a           	asl
    2e08: 0a           	asl
    2e09: 85 12        	sta	$12                     ; 0x12 <__zp_bss_size>
    2e0b: a2 00        	ldx	#$0
    2e0d: 8a           	txa
    2e0e: 4c c5 2e     	jmp	$2ec5 <printf+0x6f1>
    2e11: a4 13        	ldy	$13                     ; 0x13 <__rc3>
    2e13: 99 65 00     	sta	$65,y                   ; 0x65 <__rc31+0x36>
    2e16: a4 15        	ldy	$15                     ; 0x15 <__rc5>
    2e18: c4 13        	cpy	$13                     ; 0x13 <__rc3>
    2e1a: f0 38        	beq	$2e54 <printf+0x680>
    2e1c: e6 13        	inc	$13                     ; 0x13 <__rc3>
    2e1e: a4 13        	ldy	$13                     ; 0x13 <__rc3>
    2e20: b9 65 00     	lda	$65,y                   ; 0x65 <__rc31+0x36>
    2e23: 0a           	asl
    2e24: e0 00        	cpx	#$0
    2e26: f0 02        	beq	$2e2a <printf+0x656>
    2e28: 09 01        	ora	#$1
    2e2a: a4 62        	ldy	$62                     ; 0x62 <__rc31+0x33>
    2e2c: 84 14        	sty	$14                     ; 0x14 <__rc4>
    2e2e: c5 14        	cmp	$14                     ; 0x14 <__rc4>
    2e30: a2 01        	ldx	#$1
    2e32: b0 02        	bcs	$2e36 <printf+0x662>
    2e34: a2 00        	ldx	#$0
    2e36: 90 d9        	bcc	$2e11 <printf+0x63d>
    2e38: 84 14        	sty	$14                     ; 0x14 <__rc4>
    2e3a: 38           	sec
    2e3b: e5 14        	sbc	$14                     ; 0x14 <__rc4>
    2e3d: a4 13        	ldy	$13                     ; 0x13 <__rc3>
    2e3f: 99 65 00     	sta	$65,y                   ; 0x65 <__rc31+0x36>
    2e42: a4 15        	ldy	$15                     ; 0x15 <__rc5>
    2e44: c4 13        	cpy	$13                     ; 0x13 <__rc3>
    2e46: d0 d4        	bne	$2e1c <printf+0x648>
    2e48: a4 61        	ldy	$61                     ; 0x61 <__rc31+0x32>
    2e4a: a6 61        	ldx	$61                     ; 0x61 <__rc31+0x32>
    2e4c: e8           	inx
    2e4d: a9 01        	lda	#$1
    2e4f: 99 65 00     	sta	$65,y                   ; 0x65 <__rc31+0x36>
    2e52: 86 61        	stx	$61                     ; 0x61 <__rc31+0x32>
    2e54: a6 58        	ldx	$58                     ; 0x58 <__rc31+0x29>
    2e56: b5 7c        	lda	$7c,x                   ; 0x7c <__rc31+0x4d>
    2e58: aa           	tax
    2e59: 10 41        	bpl	$2e9c <printf+0x6c8>
    2e5b: a5 61        	lda	$61                     ; 0x61 <__rc31+0x32>
    2e5d: f0 2f        	beq	$2e8e <printf+0x6ba>
    2e5f: a2 00        	ldx	#$0
    2e61: a4 62        	ldy	$62                     ; 0x62 <__rc31+0x33>
    2e63: 84 14        	sty	$14                     ; 0x14 <__rc4>
    2e65: b5 65        	lda	$65,x                   ; 0x65 <__rc31+0x36>
    2e67: 1a           	inc
    2e68: f6 65        	inc	$65,x                   ; 0x65 <__rc31+0x36>
    2e6a: c5 14        	cmp	$14                     ; 0x14 <__rc4>
    2e6c: 90 2e        	bcc	$2e9c <printf+0x6c8>
    2e6e: a4 62        	ldy	$62                     ; 0x62 <__rc31+0x33>
    2e70: 84 13        	sty	$13                     ; 0x13 <__rc3>
    2e72: 38           	sec
    2e73: e5 13        	sbc	$13                     ; 0x13 <__rc3>
    2e75: 9d 65 00     	sta	$65,x                   ; 0x65 <__rc31+0x36>
    2e78: e8           	inx
    2e79: 86 13        	stx	$13                     ; 0x13 <__rc3>
    2e7b: a4 61        	ldy	$61                     ; 0x61 <__rc31+0x32>
    2e7d: c4 13        	cpy	$13                     ; 0x13 <__rc3>
    2e7f: d0 e4        	bne	$2e65 <printf+0x691>
    2e81: 80 0d        	bra	$2e90 <printf+0x6bc>
    2e83: a6 58        	ldx	$58                     ; 0x58 <__rc31+0x29>
    2e85: b5 7c        	lda	$7c,x                   ; 0x7c <__rc31+0x4d>
    2e87: aa           	tax
    2e88: 64 61        	stz	$61                     ; 0x61 <__rc31+0x32>
    2e8a: 30 04        	bmi	$2e90 <printf+0x6bc>
    2e8c: 80 0e        	bra	$2e9c <printf+0x6c8>
    2e8e: 64 61        	stz	$61                     ; 0x61 <__rc31+0x32>
    2e90: a4 61        	ldy	$61                     ; 0x61 <__rc31+0x32>
    2e92: a6 61        	ldx	$61                     ; 0x61 <__rc31+0x32>
    2e94: e8           	inx
    2e95: a9 01        	lda	#$1
    2e97: 99 65 00     	sta	$65,y                   ; 0x65 <__rc31+0x36>
    2e9a: 86 61        	stx	$61                     ; 0x61 <__rc31+0x32>
    2e9c: a2 01        	ldx	#$1
    2e9e: 86 16        	stx	$16                     ; 0x16 <__rc6>
    2ea0: 64 13        	stz	$13                     ; 0x13 <__rc3>
    2ea2: ca           	dex
    2ea3: a4 58        	ldy	$58                     ; 0x58 <__rc31+0x29>
    2ea5: b5 7d        	lda	$7d,x                   ; 0x7d <__rc31+0x4e>
    2ea7: 0a           	asl
    2ea8: 64 14        	stz	$14                     ; 0x14 <__rc4>
    2eaa: 26 14        	rol	$14                     ; 0x14 <__rc4>
    2eac: 05 13        	ora	$13                     ; 0x13 <__rc3>
    2eae: 9d 7d 00     	sta	$7d,x                   ; 0x7d <__rc31+0x4e>
    2eb1: e8           	inx
    2eb2: 86 15        	stx	$15                     ; 0x15 <__rc5>
    2eb4: a5 14        	lda	$14                     ; 0x14 <__rc4>
    2eb6: 85 13        	sta	$13                     ; 0x13 <__rc3>
    2eb8: c4 15        	cpy	$15                     ; 0x15 <__rc5>
    2eba: d0 e9        	bne	$2ea5 <printf+0x6d1>
    2ebc: a5 19        	lda	$19                     ; 0x19 <__rc9>
    2ebe: 1a           	inc
    2ebf: c5 12        	cmp	$12                     ; 0x12 <__zp_bss_size>
    2ec1: a6 61        	ldx	$61                     ; 0x61 <__rc31+0x32>
    2ec3: b0 12        	bcs	$2ed7 <printf+0x703>
    2ec5: 85 19        	sta	$19                     ; 0x19 <__rc9>
    2ec7: 8a           	txa
    2ec8: f0 b9        	beq	$2e83 <printf+0x6af>
    2eca: 8a           	txa
    2ecb: 86 61        	stx	$61                     ; 0x61 <__rc31+0x32>
    2ecd: 3a           	dec
    2ece: 85 15        	sta	$15                     ; 0x15 <__rc5>
    2ed0: a2 00        	ldx	#$0
    2ed2: 64 13        	stz	$13                     ; 0x13 <__rc3>
    2ed4: 4c 1e 2e     	jmp	$2e1e <printf+0x64a>
    2ed7: a4 16        	ldy	$16                     ; 0x16 <__rc6>
    2ed9: a5 5e        	lda	$5e                     ; 0x5e <__rc31+0x2f>
    2edb: 30 06        	bmi	$2ee3 <printf+0x70f>
    2edd: a5 9c        	lda	$9c                     ; 0x9c <__rc31+0x6d>
    2edf: 85 5d        	sta	$5d                     ; 0x5d <__rc31+0x2e>
    2ee1: 80 08        	bra	$2eeb <printf+0x717>
    2ee3: a2 01        	ldx	#$1
    2ee5: 64 5e        	stz	$5e                     ; 0x5e <__rc31+0x2f>
    2ee7: 86 5d        	stx	$5d                     ; 0x5d <__rc31+0x2e>
    2ee9: a6 61        	ldx	$61                     ; 0x61 <__rc31+0x32>
    2eeb: a5 57        	lda	$57                     ; 0x57 <__rc31+0x28>
    2eed: 29 04        	and	#$4
    2eef: f0 2f        	beq	$2f20 <printf+0x74c>
    2ef1: a5 62        	lda	$62                     ; 0x62 <__rc31+0x33>
    2ef3: c9 10        	cmp	#$10
    2ef5: f0 14        	beq	$2f0b <printf+0x737>
    2ef7: c9 08        	cmp	#$8
    2ef9: d0 25        	bne	$2f20 <printf+0x74c>
    2efb: a2 00        	ldx	#$0
    2efd: e4 5e        	cpx	$5e                     ; 0x5e <__rc31+0x2f>
    2eff: f0 03        	beq	$2f04 <printf+0x730>
    2f01: 4c c7 34     	jmp	$34c7 <printf+0xcf3>
    2f04: a6 61        	ldx	$61                     ; 0x61 <__rc31+0x32>
    2f06: e4 5d        	cpx	$5d                     ; 0x5d <__rc31+0x2e>
    2f08: 4c c9 34     	jmp	$34c9 <printf+0xcf5>
    2f0b: 8a           	txa
    2f0c: f0 12        	beq	$2f20 <printf+0x74c>
    2f0e: a5 57        	lda	$57                     ; 0x57 <__rc31+0x28>
    2f10: a6 5d        	ldx	$5d                     ; 0x5d <__rc31+0x2e>
    2f12: 29 80        	and	#$80
    2f14: d0 03        	bne	$2f19 <printf+0x745>
    2f16: 4c e2 34     	jmp	$34e2 <printf+0xd0e>
    2f19: 86 9c        	stx	$9c                     ; 0x9c <__rc31+0x6d>
    2f1b: a2 78        	ldx	#$78
    2f1d: 4c e6 34     	jmp	$34e6 <printf+0xd12>
    2f20: a6 57        	ldx	$57                     ; 0x57 <__rc31+0x28>
    2f22: a9 2d        	lda	#$2d
    2f24: 85 9d        	sta	$9d                     ; 0x9d <__rc31+0x6e>
    2f26: a5 18        	lda	$18                     ; 0x18 <__rc8>
    2f28: d0 22        	bne	$2f4c <printf+0x778>
    2f2a: 86 12        	stx	$12                     ; 0x12 <__zp_bss_size>
    2f2c: 8a           	txa
    2f2d: 29 02        	and	#$2
    2f2f: a2 2b        	ldx	#$2b
    2f31: 86 9d        	stx	$9d                     ; 0x9d <__rc31+0x6e>
    2f33: aa           	tax
    2f34: d0 16        	bne	$2f4c <printf+0x778>
    2f36: a6 5d        	ldx	$5d                     ; 0x5d <__rc31+0x2e>
    2f38: 86 9c        	stx	$9c                     ; 0x9c <__rc31+0x6d>
    2f3a: a5 12        	lda	$12                     ; 0x12 <__zp_bss_size>
    2f3c: 29 08        	and	#$8
    2f3e: f0 03        	beq	$2f43 <printf+0x76f>
    2f40: 4c c0 34     	jmp	$34c0 <printf+0xcec>
    2f43: a2 01        	ldx	#$1
    2f45: 86 60        	stx	$60                     ; 0x60 <__rc31+0x31>
    2f47: 64 16        	stz	$16                     ; 0x16 <__rc6>
    2f49: ca           	dex
    2f4a: 80 08        	bra	$2f54 <printf+0x780>
    2f4c: a6 5d        	ldx	$5d                     ; 0x5d <__rc31+0x2e>
    2f4e: 86 9c        	stx	$9c                     ; 0x9c <__rc31+0x6d>
    2f50: a2 00        	ldx	#$0
    2f52: 86 60        	stx	$60                     ; 0x60 <__rc31+0x31>
    2f54: 86 5d        	stx	$5d                     ; 0x5d <__rc31+0x2e>
    2f56: a5 5e        	lda	$5e                     ; 0x5e <__rc31+0x2f>
    2f58: d0 08        	bne	$2f62 <printf+0x78e>
    2f5a: a5 9c        	lda	$9c                     ; 0x9c <__rc31+0x6d>
    2f5c: c5 61        	cmp	$61                     ; 0x61 <__rc31+0x32>
    2f5e: 85 12        	sta	$12                     ; 0x12 <__zp_bss_size>
    2f60: 80 08        	bra	$2f6a <printf+0x796>
    2f62: a6 5e        	ldx	$5e                     ; 0x5e <__rc31+0x2f>
    2f64: e0 00        	cpx	#$0
    2f66: a6 9c        	ldx	$9c                     ; 0x9c <__rc31+0x6d>
    2f68: 86 12        	stx	$12                     ; 0x12 <__zp_bss_size>
    2f6a: a6 5e        	ldx	$5e                     ; 0x5e <__rc31+0x2f>
    2f6c: 86 13        	stx	$13                     ; 0x13 <__rc3>
    2f6e: b0 06        	bcs	$2f76 <printf+0x7a2>
    2f70: a6 61        	ldx	$61                     ; 0x61 <__rc31+0x32>
    2f72: 86 12        	stx	$12                     ; 0x12 <__zp_bss_size>
    2f74: 64 13        	stz	$13                     ; 0x13 <__rc3>
    2f76: a5 16        	lda	$16                     ; 0x16 <__rc6>
    2f78: 18           	clc
    2f79: 65 12        	adc	$12                     ; 0x12 <__zp_bss_size>
    2f7b: aa           	tax
    2f7c: 85 14        	sta	$14                     ; 0x14 <__rc4>
    2f7e: a5 13        	lda	$13                     ; 0x13 <__rc3>
    2f80: 69 00        	adc	#$0
    2f82: 85 15        	sta	$15                     ; 0x15 <__rc5>
    2f84: c5 1a        	cmp	$1a                     ; 0x1a <__rc10>
    2f86: d0 04        	bne	$2f8c <printf+0x7b8>
    2f88: e4 17        	cpx	$17                     ; 0x17 <__rc7>
    2f8a: 80 02        	bra	$2f8e <printf+0x7ba>
    2f8c: c5 1a        	cmp	$1a                     ; 0x1a <__rc10>
    2f8e: 64 62        	stz	$62                     ; 0x62 <__rc31+0x33>
    2f90: 64 58        	stz	$58                     ; 0x58 <__rc31+0x29>
    2f92: a6 61        	ldx	$61                     ; 0x61 <__rc31+0x32>
    2f94: 90 03        	bcc	$2f99 <printf+0x7c5>
    2f96: 4c 4f 30     	jmp	$304f <printf+0x87b>
    2f99: a5 57        	lda	$57                     ; 0x57 <__rc31+0x28>
    2f9b: 29 11        	and	#$11
    2f9d: f0 10        	beq	$2faf <printf+0x7db>
    2f9f: a5 17        	lda	$17                     ; 0x17 <__rc7>
    2fa1: 38           	sec
    2fa2: e5 14        	sbc	$14                     ; 0x14 <__rc4>
    2fa4: 85 62        	sta	$62                     ; 0x62 <__rc31+0x33>
    2fa6: a5 1a        	lda	$1a                     ; 0x1a <__rc10>
    2fa8: e5 15        	sbc	$15                     ; 0x15 <__rc5>
    2faa: 85 58        	sta	$58                     ; 0x58 <__rc31+0x29>
    2fac: 4c 4f 30     	jmp	$304f <printf+0x87b>
    2faf: a2 01        	ldx	#$1
    2fb1: 86 14        	stx	$14                     ; 0x14 <__rc4>
    2fb3: a6 8c        	ldx	$8c                     ; 0x8c <__rc31+0x5d>
    2fb5: 86 15        	stx	$15                     ; 0x15 <__rc5>
    2fb7: 38           	sec
    2fb8: a5 16        	lda	$16                     ; 0x16 <__rc6>
    2fba: e5 17        	sbc	$17                     ; 0x17 <__rc7>
    2fbc: aa           	tax
    2fbd: a9 00        	lda	#$0
    2fbf: e5 1a        	sbc	$1a                     ; 0x1a <__rc10>
    2fc1: a8           	tay
    2fc2: 18           	clc
    2fc3: 8a           	txa
    2fc4: 65 12        	adc	$12                     ; 0x12 <__zp_bss_size>
    2fc6: 85 57        	sta	$57                     ; 0x57 <__rc31+0x28>
    2fc8: 98           	tya
    2fc9: 65 13        	adc	$13                     ; 0x13 <__rc3>
    2fcb: a4 8d        	ldy	$8d                     ; 0x8d <__rc31+0x5e>
    2fcd: 4c 2f 30     	jmp	$302f <printf+0x85b>
    2fd0: 84 16        	sty	$16                     ; 0x16 <__rc6>
    2fd2: c4 8b        	cpy	$8b                     ; 0x8b <__rc31+0x5c>
    2fd4: b0 3b        	bcs	$3011 <printf+0x83d>
    2fd6: a6 97        	ldx	$97                     ; 0x97 <__rc31+0x68>
    2fd8: a0 00        	ldy	#$0
    2fda: 84 12        	sty	$12                     ; 0x12 <__zp_bss_size>
    2fdc: a0 00        	ldy	#$0
    2fde: 84 13        	sty	$13                     ; 0x13 <__rc3>
    2fe0: e4 13        	cpx	$13                     ; 0x13 <__rc3>
    2fe2: d0 1d        	bne	$3001 <printf+0x82d>
    2fe4: a6 96        	ldx	$96                     ; 0x96 <__rc31+0x67>
    2fe6: e4 12        	cpx	$12                     ; 0x12 <__zp_bss_size>
    2fe8: d0 17        	bne	$3001 <printf+0x82d>
    2fea: a2 01        	ldx	#$1
    2fec: 86 14        	stx	$14                     ; 0x14 <__rc4>
    2fee: 18           	clc
    2fef: a5 15        	lda	$15                     ; 0x15 <__rc5>
    2ff1: 65 90        	adc	$90                     ; 0x90 <__rc31+0x61>
    2ff3: 85 12        	sta	$12                     ; 0x12 <__zp_bss_size>
    2ff5: a5 16        	lda	$16                     ; 0x16 <__rc6>
    2ff7: 65 91        	adc	$91                     ; 0x91 <__rc31+0x62>
    2ff9: 85 13        	sta	$13                     ; 0x13 <__rc3>
    2ffb: a9 20        	lda	#$20
    2ffd: 92 12        	sta	($12)                   ; 0x12 <__zp_bss_size>
    2fff: 80 0e        	bra	$300f <printf+0x83b>
    3001: a2 01        	ldx	#$1
    3003: 86 5f        	stx	$5f                     ; 0x5f <__rc31+0x30>
    3005: ca           	dex
    3006: a9 20        	lda	#$20
    3008: 20 05 35     	jsr	$3505 <putchar>
    300b: a6 5f        	ldx	$5f                     ; 0x5f <__rc31+0x30>
    300d: 86 14        	stx	$14                     ; 0x14 <__rc4>
    300f: a5 58        	lda	$58                     ; 0x58 <__rc31+0x29>
    3011: a6 8c        	ldx	$8c                     ; 0x8c <__rc31+0x5d>
    3013: a4 8d        	ldy	$8d                     ; 0x8d <__rc31+0x5e>
    3015: e8           	inx
    3016: d0 01        	bne	$3019 <printf+0x845>
    3018: c8           	iny
    3019: 86 15        	stx	$15                     ; 0x15 <__rc5>
    301b: 86 8c        	stx	$8c                     ; 0x8c <__rc31+0x5d>
    301d: 84 8d        	sty	$8d                     ; 0x8d <__rc31+0x5e>
    301f: a6 57        	ldx	$57                     ; 0x57 <__rc31+0x28>
    3021: e8           	inx
    3022: d0 01        	bne	$3025 <printf+0x851>
    3024: 1a           	inc
    3025: 86 57        	stx	$57                     ; 0x57 <__rc31+0x28>
    3027: c9 00        	cmp	#$0
    3029: d0 04        	bne	$302f <printf+0x85b>
    302b: e0 00        	cpx	#$0
    302d: f0 18        	beq	$3047 <printf+0x873>
    302f: 85 58        	sta	$58                     ; 0x58 <__rc31+0x29>
    3031: c4 8b        	cpy	$8b                     ; 0x8b <__rc31+0x5c>
    3033: f0 03        	beq	$3038 <printf+0x864>
    3035: 4c d0 2f     	jmp	$2fd0 <printf+0x7fc>
    3038: 84 16        	sty	$16                     ; 0x16 <__rc6>
    303a: a6 8a        	ldx	$8a                     ; 0x8a <__rc31+0x5b>
    303c: 86 12        	stx	$12                     ; 0x12 <__zp_bss_size>
    303e: a6 15        	ldx	$15                     ; 0x15 <__rc5>
    3040: e4 12        	cpx	$12                     ; 0x12 <__zp_bss_size>
    3042: b0 cd        	bcs	$3011 <printf+0x83d>
    3044: 4c d6 2f     	jmp	$2fd6 <printf+0x802>
    3047: 64 62        	stz	$62                     ; 0x62 <__rc31+0x33>
    3049: 64 58        	stz	$58                     ; 0x58 <__rc31+0x29>
    304b: a6 61        	ldx	$61                     ; 0x61 <__rc31+0x32>
    304d: a4 14        	ldy	$14                     ; 0x14 <__rc4>
    304f: a5 60        	lda	$60                     ; 0x60 <__rc31+0x31>
    3051: f0 03        	beq	$3056 <printf+0x882>
    3053: 4c b7 30     	jmp	$30b7 <printf+0x8e3>
    3056: a6 8c        	ldx	$8c                     ; 0x8c <__rc31+0x5d>
    3058: a5 8d        	lda	$8d                     ; 0x8d <__rc31+0x5e>
    305a: c5 8b        	cmp	$8b                     ; 0x8b <__rc31+0x5c>
    305c: d0 10        	bne	$306e <printf+0x89a>
    305e: 86 13        	stx	$13                     ; 0x13 <__rc3>
    3060: a6 8a        	ldx	$8a                     ; 0x8a <__rc31+0x5b>
    3062: 86 12        	stx	$12                     ; 0x12 <__zp_bss_size>
    3064: a6 13        	ldx	$13                     ; 0x13 <__rc3>
    3066: 86 15        	stx	$15                     ; 0x15 <__rc5>
    3068: e4 12        	cpx	$12                     ; 0x12 <__zp_bss_size>
    306a: 90 08        	bcc	$3074 <printf+0x8a0>
    306c: 80 41        	bra	$30af <printf+0x8db>
    306e: 86 15        	stx	$15                     ; 0x15 <__rc5>
    3070: c5 8b        	cmp	$8b                     ; 0x8b <__rc31+0x5c>
    3072: b0 3b        	bcs	$30af <printf+0x8db>
    3074: a2 01        	ldx	#$1
    3076: 86 14        	stx	$14                     ; 0x14 <__rc4>
    3078: a6 97        	ldx	$97                     ; 0x97 <__rc31+0x68>
    307a: a0 00        	ldy	#$0
    307c: 84 12        	sty	$12                     ; 0x12 <__zp_bss_size>
    307e: a0 00        	ldy	#$0
    3080: 84 13        	sty	$13                     ; 0x13 <__rc3>
    3082: e4 13        	cpx	$13                     ; 0x13 <__rc3>
    3084: d0 1d        	bne	$30a3 <printf+0x8cf>
    3086: a6 96        	ldx	$96                     ; 0x96 <__rc31+0x67>
    3088: e4 12        	cpx	$12                     ; 0x12 <__zp_bss_size>
    308a: d0 17        	bne	$30a3 <printf+0x8cf>
    308c: a4 14        	ldy	$14                     ; 0x14 <__rc4>
    308e: 18           	clc
    308f: 85 16        	sta	$16                     ; 0x16 <__rc6>
    3091: a5 15        	lda	$15                     ; 0x15 <__rc5>
    3093: 65 90        	adc	$90                     ; 0x90 <__rc31+0x61>
    3095: 85 12        	sta	$12                     ; 0x12 <__zp_bss_size>
    3097: a5 16        	lda	$16                     ; 0x16 <__rc6>
    3099: 65 91        	adc	$91                     ; 0x91 <__rc31+0x62>
    309b: 85 13        	sta	$13                     ; 0x13 <__rc3>
    309d: a5 9d        	lda	$9d                     ; 0x9d <__rc31+0x6e>
    309f: 92 12        	sta	($12)                   ; 0x12 <__zp_bss_size>
    30a1: 80 0c        	bra	$30af <printf+0x8db>
    30a3: a2 01        	ldx	#$1
    30a5: 86 5f        	stx	$5f                     ; 0x5f <__rc31+0x30>
    30a7: ca           	dex
    30a8: a5 9d        	lda	$9d                     ; 0x9d <__rc31+0x6e>
    30aa: 20 05 35     	jsr	$3505 <putchar>
    30ad: a4 5f        	ldy	$5f                     ; 0x5f <__rc31+0x30>
    30af: e6 8c        	inc	$8c                     ; 0x8c <__rc31+0x5d>
    30b1: d0 02        	bne	$30b5 <printf+0x8e1>
    30b3: e6 8d        	inc	$8d                     ; 0x8d <__rc31+0x5e>
    30b5: a6 61        	ldx	$61                     ; 0x61 <__rc31+0x32>
    30b7: a5 5d        	lda	$5d                     ; 0x5d <__rc31+0x2e>
    30b9: d0 03        	bne	$30be <printf+0x8ea>
    30bb: 4c 1f 31     	jmp	$311f <printf+0x94b>
    30be: a6 8c        	ldx	$8c                     ; 0x8c <__rc31+0x5d>
    30c0: a5 8d        	lda	$8d                     ; 0x8d <__rc31+0x5e>
    30c2: c5 8b        	cmp	$8b                     ; 0x8b <__rc31+0x5c>
    30c4: d0 10        	bne	$30d6 <printf+0x902>
    30c6: 86 13        	stx	$13                     ; 0x13 <__rc3>
    30c8: a6 8a        	ldx	$8a                     ; 0x8a <__rc31+0x5b>
    30ca: 86 12        	stx	$12                     ; 0x12 <__zp_bss_size>
    30cc: a6 13        	ldx	$13                     ; 0x13 <__rc3>
    30ce: 86 15        	stx	$15                     ; 0x15 <__rc5>
    30d0: e4 12        	cpx	$12                     ; 0x12 <__zp_bss_size>
    30d2: 90 08        	bcc	$30dc <printf+0x908>
    30d4: 80 41        	bra	$3117 <printf+0x943>
    30d6: 86 15        	stx	$15                     ; 0x15 <__rc5>
    30d8: c5 8b        	cmp	$8b                     ; 0x8b <__rc31+0x5c>
    30da: b0 3b        	bcs	$3117 <printf+0x943>
    30dc: a2 01        	ldx	#$1
    30de: 86 14        	stx	$14                     ; 0x14 <__rc4>
    30e0: a6 97        	ldx	$97                     ; 0x97 <__rc31+0x68>
    30e2: a0 00        	ldy	#$0
    30e4: 84 12        	sty	$12                     ; 0x12 <__zp_bss_size>
    30e6: a0 00        	ldy	#$0
    30e8: 84 13        	sty	$13                     ; 0x13 <__rc3>
    30ea: e4 13        	cpx	$13                     ; 0x13 <__rc3>
    30ec: d0 1d        	bne	$310b <printf+0x937>
    30ee: a6 96        	ldx	$96                     ; 0x96 <__rc31+0x67>
    30f0: e4 12        	cpx	$12                     ; 0x12 <__zp_bss_size>
    30f2: d0 17        	bne	$310b <printf+0x937>
    30f4: a4 14        	ldy	$14                     ; 0x14 <__rc4>
    30f6: 18           	clc
    30f7: 85 16        	sta	$16                     ; 0x16 <__rc6>
    30f9: a5 15        	lda	$15                     ; 0x15 <__rc5>
    30fb: 65 90        	adc	$90                     ; 0x90 <__rc31+0x61>
    30fd: 85 12        	sta	$12                     ; 0x12 <__zp_bss_size>
    30ff: a5 16        	lda	$16                     ; 0x16 <__rc6>
    3101: 65 91        	adc	$91                     ; 0x91 <__rc31+0x62>
    3103: 85 13        	sta	$13                     ; 0x13 <__rc3>
    3105: a5 a1        	lda	$a1                     ; 0xa1 <__rc31+0x72>
    3107: 92 12        	sta	($12)                   ; 0x12 <__zp_bss_size>
    3109: 80 0c        	bra	$3117 <printf+0x943>
    310b: a2 01        	ldx	#$1
    310d: 86 5f        	stx	$5f                     ; 0x5f <__rc31+0x30>
    310f: ca           	dex
    3110: a5 a1        	lda	$a1                     ; 0xa1 <__rc31+0x72>
    3112: 20 05 35     	jsr	$3505 <putchar>
    3115: a4 5f        	ldy	$5f                     ; 0x5f <__rc31+0x30>
    3117: e6 8c        	inc	$8c                     ; 0x8c <__rc31+0x5d>
    3119: d0 02        	bne	$311d <printf+0x949>
    311b: e6 8d        	inc	$8d                     ; 0x8d <__rc31+0x5e>
    311d: a6 61        	ldx	$61                     ; 0x61 <__rc31+0x32>
    311f: a9 10        	lda	#$10
    3121: 25 88        	and	$88                     ; 0x88 <__rc31+0x59>
    3123: d0 07        	bne	$312c <printf+0x958>
    3125: a5 9c        	lda	$9c                     ; 0x9c <__rc31+0x6d>
    3127: 85 60        	sta	$60                     ; 0x60 <__rc31+0x31>
    3129: 4c de 31     	jmp	$31de <printf+0xa0a>
    312c: 86 13        	stx	$13                     ; 0x13 <__rc3>
    312e: a5 88        	lda	$88                     ; 0x88 <__rc31+0x59>
    3130: 29 01        	and	#$1
    3132: a6 9c        	ldx	$9c                     ; 0x9c <__rc31+0x6d>
    3134: 86 60        	stx	$60                     ; 0x60 <__rc31+0x31>
    3136: aa           	tax
    3137: f0 03        	beq	$313c <printf+0x968>
    3139: 4c d4 31     	jmp	$31d4 <printf+0xa00>
    313c: a5 62        	lda	$62                     ; 0x62 <__rc31+0x33>
    313e: a6 58        	ldx	$58                     ; 0x58 <__rc31+0x29>
    3140: 86 12        	stx	$12                     ; 0x12 <__zp_bss_size>
    3142: a6 12        	ldx	$12                     ; 0x12 <__zp_bss_size>
    3144: d0 06        	bne	$314c <printf+0x978>
    3146: aa           	tax
    3147: d0 03        	bne	$314c <printf+0x978>
    3149: 4c fb 34     	jmp	$34fb <printf+0xd27>
    314c: a6 8c        	ldx	$8c                     ; 0x8c <__rc31+0x5d>
    314e: 86 15        	stx	$15                     ; 0x15 <__rc5>
    3150: a5 8d        	lda	$8d                     ; 0x8d <__rc31+0x5e>
    3152: 4c c0 31     	jmp	$31c0 <printf+0x9ec>
    3155: c5 8b        	cmp	$8b                     ; 0x8b <__rc31+0x5c>
    3157: b0 39        	bcs	$3192 <printf+0x9be>
    3159: a2 01        	ldx	#$1
    315b: 86 14        	stx	$14                     ; 0x14 <__rc4>
    315d: a6 97        	ldx	$97                     ; 0x97 <__rc31+0x68>
    315f: a0 00        	ldy	#$0
    3161: 84 12        	sty	$12                     ; 0x12 <__zp_bss_size>
    3163: a0 00        	ldy	#$0
    3165: 84 13        	sty	$13                     ; 0x13 <__rc3>
    3167: e4 13        	cpx	$13                     ; 0x13 <__rc3>
    3169: d0 1b        	bne	$3186 <printf+0x9b2>
    316b: a6 96        	ldx	$96                     ; 0x96 <__rc31+0x67>
    316d: e4 12        	cpx	$12                     ; 0x12 <__zp_bss_size>
    316f: d0 15        	bne	$3186 <printf+0x9b2>
    3171: a4 14        	ldy	$14                     ; 0x14 <__rc4>
    3173: 18           	clc
    3174: aa           	tax
    3175: a5 15        	lda	$15                     ; 0x15 <__rc5>
    3177: 65 90        	adc	$90                     ; 0x90 <__rc31+0x61>
    3179: 85 12        	sta	$12                     ; 0x12 <__zp_bss_size>
    317b: 8a           	txa
    317c: 65 91        	adc	$91                     ; 0x91 <__rc31+0x62>
    317e: 85 13        	sta	$13                     ; 0x13 <__rc3>
    3180: a9 30        	lda	#$30
    3182: 92 12        	sta	($12)                   ; 0x12 <__zp_bss_size>
    3184: 80 0c        	bra	$3192 <printf+0x9be>
    3186: a2 01        	ldx	#$1
    3188: 86 5f        	stx	$5f                     ; 0x5f <__rc31+0x30>
    318a: ca           	dex
    318b: a9 30        	lda	#$30
    318d: 20 05 35     	jsr	$3505 <putchar>
    3190: a4 5f        	ldy	$5f                     ; 0x5f <__rc31+0x30>
    3192: a6 8c        	ldx	$8c                     ; 0x8c <__rc31+0x5d>
    3194: a5 8d        	lda	$8d                     ; 0x8d <__rc31+0x5e>
    3196: e8           	inx
    3197: d0 01        	bne	$319a <printf+0x9c6>
    3199: 1a           	inc
    319a: 86 15        	stx	$15                     ; 0x15 <__rc5>
    319c: 86 8c        	stx	$8c                     ; 0x8c <__rc31+0x5d>
    319e: 85 8d        	sta	$8d                     ; 0x8d <__rc31+0x5e>
    31a0: a6 62        	ldx	$62                     ; 0x62 <__rc31+0x33>
    31a2: 86 12        	stx	$12                     ; 0x12 <__zp_bss_size>
    31a4: a6 58        	ldx	$58                     ; 0x58 <__rc31+0x29>
    31a6: 86 13        	stx	$13                     ; 0x13 <__rc3>
    31a8: a2 ff        	ldx	#$ff
    31aa: c6 12        	dec	$12                     ; 0x12 <__zp_bss_size>
    31ac: e4 12        	cpx	$12                     ; 0x12 <__zp_bss_size>
    31ae: d0 02        	bne	$31b2 <printf+0x9de>
    31b0: c6 13        	dec	$13                     ; 0x13 <__rc3>
    31b2: a6 12        	ldx	$12                     ; 0x12 <__zp_bss_size>
    31b4: 86 62        	stx	$62                     ; 0x62 <__rc31+0x33>
    31b6: a6 13        	ldx	$13                     ; 0x13 <__rc3>
    31b8: 86 58        	stx	$58                     ; 0x58 <__rc31+0x29>
    31ba: d0 04        	bne	$31c0 <printf+0x9ec>
    31bc: a6 12        	ldx	$12                     ; 0x12 <__zp_bss_size>
    31be: f0 18        	beq	$31d8 <printf+0xa04>
    31c0: c5 8b        	cmp	$8b                     ; 0x8b <__rc31+0x5c>
    31c2: f0 03        	beq	$31c7 <printf+0x9f3>
    31c4: 4c 55 31     	jmp	$3155 <printf+0x981>
    31c7: a6 8a        	ldx	$8a                     ; 0x8a <__rc31+0x5b>
    31c9: 86 12        	stx	$12                     ; 0x12 <__zp_bss_size>
    31cb: a6 15        	ldx	$15                     ; 0x15 <__rc5>
    31cd: e4 12        	cpx	$12                     ; 0x12 <__zp_bss_size>
    31cf: b0 c1        	bcs	$3192 <printf+0x9be>
    31d1: 4c 59 31     	jmp	$3159 <printf+0x985>
    31d4: a6 13        	ldx	$13                     ; 0x13 <__rc3>
    31d6: 80 06        	bra	$31de <printf+0xa0a>
    31d8: 64 62        	stz	$62                     ; 0x62 <__rc31+0x33>
    31da: 64 58        	stz	$58                     ; 0x58 <__rc31+0x29>
    31dc: a6 61        	ldx	$61                     ; 0x61 <__rc31+0x32>
    31de: a9 00        	lda	#$0
    31e0: c5 5e        	cmp	$5e                     ; 0x5e <__rc31+0x2f>
    31e2: d0 07        	bne	$31eb <printf+0xa17>
    31e4: e4 60        	cpx	$60                     ; 0x60 <__rc31+0x31>
    31e6: 90 0a        	bcc	$31f2 <printf+0xa1e>
    31e8: 4c 75 32     	jmp	$3275 <printf+0xaa1>
    31eb: c5 5e        	cmp	$5e                     ; 0x5e <__rc31+0x2f>
    31ed: 90 03        	bcc	$31f2 <printf+0xa1e>
    31ef: 4c 75 32     	jmp	$3275 <printf+0xaa1>
    31f2: a6 8c        	ldx	$8c                     ; 0x8c <__rc31+0x5d>
    31f4: 86 15        	stx	$15                     ; 0x15 <__rc5>
    31f6: a5 8d        	lda	$8d                     ; 0x8d <__rc31+0x5e>
    31f8: a2 ff        	ldx	#$ff
    31fa: c6 60        	dec	$60                     ; 0x60 <__rc31+0x31>
    31fc: e4 60        	cpx	$60                     ; 0x60 <__rc31+0x31>
    31fe: d0 02        	bne	$3202 <printf+0xa2e>
    3200: c6 5e        	dec	$5e                     ; 0x5e <__rc31+0x2f>
    3202: c5 8b        	cmp	$8b                     ; 0x8b <__rc31+0x5c>
    3204: d0 0c        	bne	$3212 <printf+0xa3e>
    3206: a6 8a        	ldx	$8a                     ; 0x8a <__rc31+0x5b>
    3208: 86 12        	stx	$12                     ; 0x12 <__zp_bss_size>
    320a: a6 15        	ldx	$15                     ; 0x15 <__rc5>
    320c: e4 12        	cpx	$12                     ; 0x12 <__zp_bss_size>
    320e: 90 06        	bcc	$3216 <printf+0xa42>
    3210: 80 3d        	bra	$324f <printf+0xa7b>
    3212: c5 8b        	cmp	$8b                     ; 0x8b <__rc31+0x5c>
    3214: b0 39        	bcs	$324f <printf+0xa7b>
    3216: a2 01        	ldx	#$1
    3218: 86 14        	stx	$14                     ; 0x14 <__rc4>
    321a: a6 97        	ldx	$97                     ; 0x97 <__rc31+0x68>
    321c: a0 00        	ldy	#$0
    321e: 84 12        	sty	$12                     ; 0x12 <__zp_bss_size>
    3220: a0 00        	ldy	#$0
    3222: 84 13        	sty	$13                     ; 0x13 <__rc3>
    3224: e4 13        	cpx	$13                     ; 0x13 <__rc3>
    3226: d0 1b        	bne	$3243 <printf+0xa6f>
    3228: a6 96        	ldx	$96                     ; 0x96 <__rc31+0x67>
    322a: e4 12        	cpx	$12                     ; 0x12 <__zp_bss_size>
    322c: d0 15        	bne	$3243 <printf+0xa6f>
    322e: a4 14        	ldy	$14                     ; 0x14 <__rc4>
    3230: 18           	clc
    3231: aa           	tax
    3232: a5 15        	lda	$15                     ; 0x15 <__rc5>
    3234: 65 90        	adc	$90                     ; 0x90 <__rc31+0x61>
    3236: 85 12        	sta	$12                     ; 0x12 <__zp_bss_size>
    3238: 8a           	txa
    3239: 65 91        	adc	$91                     ; 0x91 <__rc31+0x62>
    323b: 85 13        	sta	$13                     ; 0x13 <__rc3>
    323d: a9 30        	lda	#$30
    323f: 92 12        	sta	($12)                   ; 0x12 <__zp_bss_size>
    3241: 80 0c        	bra	$324f <printf+0xa7b>
    3243: a2 01        	ldx	#$1
    3245: 86 5f        	stx	$5f                     ; 0x5f <__rc31+0x30>
    3247: ca           	dex
    3248: a9 30        	lda	#$30
    324a: 20 05 35     	jsr	$3505 <putchar>
    324d: a4 5f        	ldy	$5f                     ; 0x5f <__rc31+0x30>
    324f: a6 8c        	ldx	$8c                     ; 0x8c <__rc31+0x5d>
    3251: a5 8d        	lda	$8d                     ; 0x8d <__rc31+0x5e>
    3253: e8           	inx
    3254: d0 01        	bne	$3257 <printf+0xa83>
    3256: 1a           	inc
    3257: 86 15        	stx	$15                     ; 0x15 <__rc5>
    3259: 86 8c        	stx	$8c                     ; 0x8c <__rc31+0x5d>
    325b: 85 8d        	sta	$8d                     ; 0x8d <__rc31+0x5e>
    325d: a2 00        	ldx	#$0
    325f: e4 5e        	cpx	$5e                     ; 0x5e <__rc31+0x2f>
    3261: d0 09        	bne	$326c <printf+0xa98>
    3263: a6 61        	ldx	$61                     ; 0x61 <__rc31+0x32>
    3265: e4 60        	cpx	$60                     ; 0x60 <__rc31+0x31>
    3267: b0 0c        	bcs	$3275 <printf+0xaa1>
    3269: 4c f8 31     	jmp	$31f8 <printf+0xa24>
    326c: e4 5e        	cpx	$5e                     ; 0x5e <__rc31+0x2f>
    326e: a6 61        	ldx	$61                     ; 0x61 <__rc31+0x32>
    3270: b0 03        	bcs	$3275 <printf+0xaa1>
    3272: 4c f8 31     	jmp	$31f8 <printf+0xa24>
    3275: 8a           	txa
    3276: d0 03        	bne	$327b <printf+0xaa7>
    3278: 4c ac 33     	jmp	$33ac <printf+0xbd8>
    327b: ca           	dex
    327c: d0 03        	bne	$3281 <printf+0xaad>
    327e: 4c 2e 33     	jmp	$332e <printf+0xb5a>
    3281: 86 5f        	stx	$5f                     ; 0x5f <__rc31+0x30>
    3283: a6 a3        	ldx	$a3                     ; 0xa3 <__rc31+0x74>
    3285: 8a           	txa
    3286: 18           	clc
    3287: 65 5f        	adc	$5f                     ; 0x5f <__rc31+0x30>
    3289: 85 5d        	sta	$5d                     ; 0x5d <__rc31+0x2e>
    328b: a5 a4        	lda	$a4                     ; 0xa4 <__rc31+0x75>
    328d: 69 00        	adc	#$0
    328f: 85 5e        	sta	$5e                     ; 0x5e <__rc31+0x2f>
    3291: 4c 1c 33     	jmp	$331c <printf+0xb48>
    3294: 85 13        	sta	$13                     ; 0x13 <__rc3>
    3296: a9 80        	lda	#$80
    3298: 25 88        	and	$88                     ; 0x88 <__rc31+0x59>
    329a: f0 04        	beq	$32a0 <printf+0xacc>
    329c: a2 61        	ldx	#$61
    329e: 80 02        	bra	$32a2 <printf+0xace>
    32a0: a2 41        	ldx	#$41
    32a2: 86 12        	stx	$12                     ; 0x12 <__zp_bss_size>
    32a4: a2 01        	ldx	#$1
    32a6: 86 14        	stx	$14                     ; 0x14 <__rc4>
    32a8: 18           	clc
    32a9: a5 13        	lda	$13                     ; 0x13 <__rc3>
    32ab: 65 12        	adc	$12                     ; 0x12 <__zp_bss_size>
    32ad: 18           	clc
    32ae: 69 f6        	adc	#$f6
    32b0: a4 8c        	ldy	$8c                     ; 0x8c <__rc31+0x5d>
    32b2: a6 8d        	ldx	$8d                     ; 0x8d <__rc31+0x5e>
    32b4: e4 8b        	cpx	$8b                     ; 0x8b <__rc31+0x5c>
    32b6: d0 0c        	bne	$32c4 <printf+0xaf0>
    32b8: 86 16        	stx	$16                     ; 0x16 <__rc6>
    32ba: a6 8a        	ldx	$8a                     ; 0x8a <__rc31+0x5b>
    32bc: 86 12        	stx	$12                     ; 0x12 <__zp_bss_size>
    32be: 84 15        	sty	$15                     ; 0x15 <__rc5>
    32c0: c4 12        	cpy	$12                     ; 0x12 <__zp_bss_size>
    32c2: 80 06        	bra	$32ca <printf+0xaf6>
    32c4: 84 15        	sty	$15                     ; 0x15 <__rc5>
    32c6: 86 16        	stx	$16                     ; 0x16 <__rc6>
    32c8: e4 8b        	cpx	$8b                     ; 0x8b <__rc31+0x5c>
    32ca: a4 14        	ldy	$14                     ; 0x14 <__rc4>
    32cc: b0 38        	bcs	$3306 <printf+0xb32>
    32ce: 85 14        	sta	$14                     ; 0x14 <__rc4>
    32d0: a9 01        	lda	#$1
    32d2: a6 97        	ldx	$97                     ; 0x97 <__rc31+0x68>
    32d4: a0 00        	ldy	#$0
    32d6: 84 12        	sty	$12                     ; 0x12 <__zp_bss_size>
    32d8: a0 00        	ldy	#$0
    32da: 84 13        	sty	$13                     ; 0x13 <__rc3>
    32dc: e4 13        	cpx	$13                     ; 0x13 <__rc3>
    32de: d0 1a        	bne	$32fa <printf+0xb26>
    32e0: a6 96        	ldx	$96                     ; 0x96 <__rc31+0x67>
    32e2: e4 12        	cpx	$12                     ; 0x12 <__zp_bss_size>
    32e4: d0 14        	bne	$32fa <printf+0xb26>
    32e6: a8           	tay
    32e7: 18           	clc
    32e8: a5 15        	lda	$15                     ; 0x15 <__rc5>
    32ea: 65 90        	adc	$90                     ; 0x90 <__rc31+0x61>
    32ec: 85 12        	sta	$12                     ; 0x12 <__zp_bss_size>
    32ee: a5 16        	lda	$16                     ; 0x16 <__rc6>
    32f0: 65 91        	adc	$91                     ; 0x91 <__rc31+0x62>
    32f2: 85 13        	sta	$13                     ; 0x13 <__rc3>
    32f4: a5 14        	lda	$14                     ; 0x14 <__rc4>
    32f6: 92 12        	sta	($12)                   ; 0x12 <__zp_bss_size>
    32f8: 80 0c        	bra	$3306 <printf+0xb32>
    32fa: a2 01        	ldx	#$1
    32fc: 86 60        	stx	$60                     ; 0x60 <__rc31+0x31>
    32fe: ca           	dex
    32ff: a5 14        	lda	$14                     ; 0x14 <__rc4>
    3301: 20 05 35     	jsr	$3505 <putchar>
    3304: a4 60        	ldy	$60                     ; 0x60 <__rc31+0x31>
    3306: e6 8c        	inc	$8c                     ; 0x8c <__rc31+0x5d>
    3308: d0 02        	bne	$330c <printf+0xb38>
    330a: e6 8d        	inc	$8d                     ; 0x8d <__rc31+0x5e>
    330c: c6 5f        	dec	$5f                     ; 0x5f <__rc31+0x30>
    330e: a2 ff        	ldx	#$ff
    3310: c6 5d        	dec	$5d                     ; 0x5d <__rc31+0x2e>
    3312: e4 5d        	cpx	$5d                     ; 0x5d <__rc31+0x2e>
    3314: d0 02        	bne	$3318 <printf+0xb44>
    3316: c6 5e        	dec	$5e                     ; 0x5e <__rc31+0x2f>
    3318: a5 5f        	lda	$5f                     ; 0x5f <__rc31+0x30>
    331a: f0 12        	beq	$332e <printf+0xb5a>
    331c: b2 5d        	lda	($5d)                   ; 0x5d <__rc31+0x2e>
    331e: c9 0a        	cmp	#$a
    3320: 90 03        	bcc	$3325 <printf+0xb51>
    3322: 4c 94 32     	jmp	$3294 <printf+0xac0>
    3325: a2 01        	ldx	#$1
    3327: 86 14        	stx	$14                     ; 0x14 <__rc4>
    3329: 09 30        	ora	#$30
    332b: 4c b0 32     	jmp	$32b0 <printf+0xadc>
    332e: a5 65        	lda	$65                     ; 0x65 <__rc31+0x36>
    3330: c9 0a        	cmp	#$a
    3332: b0 04        	bcs	$3338 <printf+0xb64>
    3334: 09 30        	ora	#$30
    3336: 80 18        	bra	$3350 <printf+0xb7c>
    3338: 85 13        	sta	$13                     ; 0x13 <__rc3>
    333a: a9 80        	lda	#$80
    333c: 25 88        	and	$88                     ; 0x88 <__rc31+0x59>
    333e: f0 04        	beq	$3344 <printf+0xb70>
    3340: a2 61        	ldx	#$61
    3342: 80 02        	bra	$3346 <printf+0xb72>
    3344: a2 41        	ldx	#$41
    3346: 86 12        	stx	$12                     ; 0x12 <__zp_bss_size>
    3348: 18           	clc
    3349: a5 13        	lda	$13                     ; 0x13 <__rc3>
    334b: 65 12        	adc	$12                     ; 0x12 <__zp_bss_size>
    334d: 18           	clc
    334e: 69 f6        	adc	#$f6
    3350: a6 8c        	ldx	$8c                     ; 0x8c <__rc31+0x5d>
    3352: 86 15        	stx	$15                     ; 0x15 <__rc5>
    3354: a6 8d        	ldx	$8d                     ; 0x8d <__rc31+0x5e>
    3356: e4 8b        	cpx	$8b                     ; 0x8b <__rc31+0x5c>
    3358: d0 0e        	bne	$3368 <printf+0xb94>
    335a: 86 16        	stx	$16                     ; 0x16 <__rc6>
    335c: a6 8a        	ldx	$8a                     ; 0x8a <__rc31+0x5b>
    335e: 86 12        	stx	$12                     ; 0x12 <__zp_bss_size>
    3360: a6 15        	ldx	$15                     ; 0x15 <__rc5>
    3362: e4 12        	cpx	$12                     ; 0x12 <__zp_bss_size>
    3364: 90 08        	bcc	$336e <printf+0xb9a>
    3366: 80 3e        	bra	$33a6 <printf+0xbd2>
    3368: 86 16        	stx	$16                     ; 0x16 <__rc6>
    336a: e4 8b        	cpx	$8b                     ; 0x8b <__rc31+0x5c>
    336c: b0 38        	bcs	$33a6 <printf+0xbd2>
    336e: 85 14        	sta	$14                     ; 0x14 <__rc4>
    3370: a9 01        	lda	#$1
    3372: a6 97        	ldx	$97                     ; 0x97 <__rc31+0x68>
    3374: a0 00        	ldy	#$0
    3376: 84 12        	sty	$12                     ; 0x12 <__zp_bss_size>
    3378: a0 00        	ldy	#$0
    337a: 84 13        	sty	$13                     ; 0x13 <__rc3>
    337c: e4 13        	cpx	$13                     ; 0x13 <__rc3>
    337e: d0 1a        	bne	$339a <printf+0xbc6>
    3380: a6 96        	ldx	$96                     ; 0x96 <__rc31+0x67>
    3382: e4 12        	cpx	$12                     ; 0x12 <__zp_bss_size>
    3384: d0 14        	bne	$339a <printf+0xbc6>
    3386: a8           	tay
    3387: 18           	clc
    3388: a5 15        	lda	$15                     ; 0x15 <__rc5>
    338a: 65 90        	adc	$90                     ; 0x90 <__rc31+0x61>
    338c: 85 12        	sta	$12                     ; 0x12 <__zp_bss_size>
    338e: a5 16        	lda	$16                     ; 0x16 <__rc6>
    3390: 65 91        	adc	$91                     ; 0x91 <__rc31+0x62>
    3392: 85 13        	sta	$13                     ; 0x13 <__rc3>
    3394: a5 14        	lda	$14                     ; 0x14 <__rc4>
    3396: 92 12        	sta	($12)                   ; 0x12 <__zp_bss_size>
    3398: 80 0c        	bra	$33a6 <printf+0xbd2>
    339a: a2 01        	ldx	#$1
    339c: 86 5d        	stx	$5d                     ; 0x5d <__rc31+0x2e>
    339e: ca           	dex
    339f: a5 14        	lda	$14                     ; 0x14 <__rc4>
    33a1: 20 05 35     	jsr	$3505 <putchar>
    33a4: a4 5d        	ldy	$5d                     ; 0x5d <__rc31+0x2e>
    33a6: e6 8c        	inc	$8c                     ; 0x8c <__rc31+0x5d>
    33a8: d0 02        	bne	$33ac <printf+0xbd8>
    33aa: e6 8d        	inc	$8d                     ; 0x8d <__rc31+0x5e>
    33ac: a5 88        	lda	$88                     ; 0x88 <__rc31+0x59>
    33ae: 29 01        	and	#$1
    33b0: d0 27        	bne	$33d9 <printf+0xc05>
    33b2: a6 8c        	ldx	$8c                     ; 0x8c <__rc31+0x5d>
    33b4: 86 15        	stx	$15                     ; 0x15 <__rc5>
    33b6: a5 8d        	lda	$8d                     ; 0x8d <__rc31+0x5e>
    33b8: a6 8a        	ldx	$8a                     ; 0x8a <__rc31+0x5b>
    33ba: 86 14        	stx	$14                     ; 0x14 <__rc4>
    33bc: a6 8b        	ldx	$8b                     ; 0x8b <__rc31+0x5c>
    33be: 86 12        	stx	$12                     ; 0x12 <__zp_bss_size>
    33c0: 86 13        	stx	$13                     ; 0x13 <__rc3>
    33c2: c5 12        	cmp	$12                     ; 0x12 <__zp_bss_size>
    33c4: f0 03        	beq	$33c9 <printf+0xbf5>
    33c6: 4c 79 34     	jmp	$3479 <printf+0xca5>
    33c9: a5 14        	lda	$14                     ; 0x14 <__rc4>
    33cb: 85 12        	sta	$12                     ; 0x12 <__zp_bss_size>
    33cd: a6 15        	ldx	$15                     ; 0x15 <__rc5>
    33cf: e4 12        	cpx	$12                     ; 0x12 <__zp_bss_size>
    33d1: 90 03        	bcc	$33d6 <printf+0xc02>
    33d3: 4c 81 34     	jmp	$3481 <printf+0xcad>
    33d6: 4c a1 34     	jmp	$34a1 <printf+0xccd>
    33d9: a6 8c        	ldx	$8c                     ; 0x8c <__rc31+0x5d>
    33db: 86 15        	stx	$15                     ; 0x15 <__rc5>
    33dd: a5 8d        	lda	$8d                     ; 0x8d <__rc31+0x5e>
    33df: a6 62        	ldx	$62                     ; 0x62 <__rc31+0x33>
    33e1: 5a           	phy
    33e2: a4 58        	ldy	$58                     ; 0x58 <__rc31+0x29>
    33e4: 84 12        	sty	$12                     ; 0x12 <__zp_bss_size>
    33e6: 7a           	ply
    33e7: e6 12        	inc	$12                     ; 0x12 <__zp_bss_size>
    33e9: c6 12        	dec	$12                     ; 0x12 <__zp_bss_size>
    33eb: f0 03        	beq	$33f0 <printf+0xc1c>
    33ed: 4c 65 34     	jmp	$3465 <printf+0xc91>
    33f0: e0 00        	cpx	#$0
    33f2: f0 c4        	beq	$33b8 <printf+0xbe4>
    33f4: 4c 65 34     	jmp	$3465 <printf+0xc91>
    33f7: c5 8b        	cmp	$8b                     ; 0x8b <__rc31+0x5c>
    33f9: b0 39        	bcs	$3434 <printf+0xc60>
    33fb: a2 01        	ldx	#$1
    33fd: 86 14        	stx	$14                     ; 0x14 <__rc4>
    33ff: a6 97        	ldx	$97                     ; 0x97 <__rc31+0x68>
    3401: a0 00        	ldy	#$0
    3403: 84 12        	sty	$12                     ; 0x12 <__zp_bss_size>
    3405: a0 00        	ldy	#$0
    3407: 84 13        	sty	$13                     ; 0x13 <__rc3>
    3409: e4 13        	cpx	$13                     ; 0x13 <__rc3>
    340b: d0 1b        	bne	$3428 <printf+0xc54>
    340d: a6 96        	ldx	$96                     ; 0x96 <__rc31+0x67>
    340f: e4 12        	cpx	$12                     ; 0x12 <__zp_bss_size>
    3411: d0 15        	bne	$3428 <printf+0xc54>
    3413: a4 14        	ldy	$14                     ; 0x14 <__rc4>
    3415: 18           	clc
    3416: aa           	tax
    3417: a5 15        	lda	$15                     ; 0x15 <__rc5>
    3419: 65 90        	adc	$90                     ; 0x90 <__rc31+0x61>
    341b: 85 12        	sta	$12                     ; 0x12 <__zp_bss_size>
    341d: 8a           	txa
    341e: 65 91        	adc	$91                     ; 0x91 <__rc31+0x62>
    3420: 85 13        	sta	$13                     ; 0x13 <__rc3>
    3422: a9 20        	lda	#$20
    3424: 92 12        	sta	($12)                   ; 0x12 <__zp_bss_size>
    3426: 80 0c        	bra	$3434 <printf+0xc60>
    3428: a2 01        	ldx	#$1
    342a: 86 5d        	stx	$5d                     ; 0x5d <__rc31+0x2e>
    342c: ca           	dex
    342d: a9 20        	lda	#$20
    342f: 20 05 35     	jsr	$3505 <putchar>
    3432: a4 5d        	ldy	$5d                     ; 0x5d <__rc31+0x2e>
    3434: a6 8c        	ldx	$8c                     ; 0x8c <__rc31+0x5d>
    3436: a5 8d        	lda	$8d                     ; 0x8d <__rc31+0x5e>
    3438: e8           	inx
    3439: d0 01        	bne	$343c <printf+0xc68>
    343b: 1a           	inc
    343c: 86 15        	stx	$15                     ; 0x15 <__rc5>
    343e: 86 8c        	stx	$8c                     ; 0x8c <__rc31+0x5d>
    3440: 85 8d        	sta	$8d                     ; 0x8d <__rc31+0x5e>
    3442: a6 62        	ldx	$62                     ; 0x62 <__rc31+0x33>
    3444: 86 12        	stx	$12                     ; 0x12 <__zp_bss_size>
    3446: a6 58        	ldx	$58                     ; 0x58 <__rc31+0x29>
    3448: 86 13        	stx	$13                     ; 0x13 <__rc3>
    344a: a2 ff        	ldx	#$ff
    344c: c6 12        	dec	$12                     ; 0x12 <__zp_bss_size>
    344e: e4 12        	cpx	$12                     ; 0x12 <__zp_bss_size>
    3450: d0 02        	bne	$3454 <printf+0xc80>
    3452: c6 13        	dec	$13                     ; 0x13 <__rc3>
    3454: a6 12        	ldx	$12                     ; 0x12 <__zp_bss_size>
    3456: 86 62        	stx	$62                     ; 0x62 <__rc31+0x33>
    3458: a6 13        	ldx	$13                     ; 0x13 <__rc3>
    345a: 86 58        	stx	$58                     ; 0x58 <__rc31+0x29>
    345c: d0 07        	bne	$3465 <printf+0xc91>
    345e: a6 12        	ldx	$12                     ; 0x12 <__zp_bss_size>
    3460: d0 03        	bne	$3465 <printf+0xc91>
    3462: 4c b8 33     	jmp	$33b8 <printf+0xbe4>
    3465: c5 8b        	cmp	$8b                     ; 0x8b <__rc31+0x5c>
    3467: f0 03        	beq	$346c <printf+0xc98>
    3469: 4c f7 33     	jmp	$33f7 <printf+0xc23>
    346c: a6 8a        	ldx	$8a                     ; 0x8a <__rc31+0x5b>
    346e: 86 12        	stx	$12                     ; 0x12 <__zp_bss_size>
    3470: a6 15        	ldx	$15                     ; 0x15 <__rc5>
    3472: e4 12        	cpx	$12                     ; 0x12 <__zp_bss_size>
    3474: b0 be        	bcs	$3434 <printf+0xc60>
    3476: 4c fb 33     	jmp	$33fb <printf+0xc27>
    3479: 86 12        	stx	$12                     ; 0x12 <__zp_bss_size>
    347b: c5 12        	cmp	$12                     ; 0x12 <__zp_bss_size>
    347d: a5 14        	lda	$14                     ; 0x14 <__rc4>
    347f: 90 20        	bcc	$34a1 <printf+0xccd>
    3481: a6 13        	ldx	$13                     ; 0x13 <__rc3>
    3483: d0 03        	bne	$3488 <printf+0xcb4>
    3485: aa           	tax
    3486: f0 19        	beq	$34a1 <printf+0xccd>
    3488: 18           	clc
    3489: 65 90        	adc	$90                     ; 0x90 <__rc31+0x61>
    348b: 85 12        	sta	$12                     ; 0x12 <__zp_bss_size>
    348d: a5 13        	lda	$13                     ; 0x13 <__rc3>
    348f: 65 91        	adc	$91                     ; 0x91 <__rc31+0x62>
    3491: 85 13        	sta	$13                     ; 0x13 <__rc3>
    3493: a2 ff        	ldx	#$ff
    3495: c6 12        	dec	$12                     ; 0x12 <__zp_bss_size>
    3497: e4 12        	cpx	$12                     ; 0x12 <__zp_bss_size>
    3499: d0 02        	bne	$349d <printf+0xcc9>
    349b: c6 13        	dec	$13                     ; 0x13 <__rc3>
    349d: a9 00        	lda	#$0
    349f: 92 12        	sta	($12)                   ; 0x12 <__zp_bss_size>
    34a1: e6 5b        	inc	$5b                     ; 0x5b <__rc31+0x2c>
    34a3: d0 02        	bne	$34a7 <printf+0xcd3>
    34a5: e6 5c        	inc	$5c                     ; 0x5c <__rc31+0x2d>
    34a7: a6 5c        	ldx	$5c                     ; 0x5c <__rc31+0x2d>
    34a9: e4 5a        	cpx	$5a                     ; 0x5a <__rc31+0x2b>
    34ab: f0 03        	beq	$34b0 <printf+0xcdc>
    34ad: 4c 39 28     	jmp	$2839 <printf+0x65>
    34b0: a6 5b        	ldx	$5b                     ; 0x5b <__rc31+0x2c>
    34b2: e4 59        	cpx	$59                     ; 0x59 <__rc31+0x2a>
    34b4: f0 03        	beq	$34b9 <printf+0xce5>
    34b6: 4c 39 28     	jmp	$2839 <printf+0x65>
    34b9: b2 59        	lda	($59)                   ; 0x59 <__rc31+0x2a>
    34bb: a2 00        	ldx	#$0
    34bd: 4c 50 28     	jmp	$2850 <printf+0x7c>
    34c0: a2 20        	ldx	#$20
    34c2: 86 9d        	stx	$9d                     ; 0x9d <__rc31+0x6e>
    34c4: 4c 50 2f     	jmp	$2f50 <printf+0x77c>
    34c7: e4 5e        	cpx	$5e                     ; 0x5e <__rc31+0x2f>
    34c9: a6 57        	ldx	$57                     ; 0x57 <__rc31+0x28>
    34cb: b0 03        	bcs	$34d0 <printf+0xcfc>
    34cd: 4c 22 2f     	jmp	$2f22 <printf+0x74e>
    34d0: a5 61        	lda	$61                     ; 0x61 <__rc31+0x32>
    34d2: 85 5d        	sta	$5d                     ; 0x5d <__rc31+0x2e>
    34d4: 64 5e        	stz	$5e                     ; 0x5e <__rc31+0x2f>
    34d6: e6 5d        	inc	$5d                     ; 0x5d <__rc31+0x2e>
    34d8: f0 03        	beq	$34dd <printf+0xd09>
    34da: 4c 22 2f     	jmp	$2f22 <printf+0x74e>
    34dd: e6 5e        	inc	$5e                     ; 0x5e <__rc31+0x2f>
    34df: 4c 22 2f     	jmp	$2f22 <printf+0x74e>
    34e2: 86 9c        	stx	$9c                     ; 0x9c <__rc31+0x6d>
    34e4: a2 58        	ldx	#$58
    34e6: 86 a1        	stx	$a1                     ; 0xa1 <__rc31+0x72>
    34e8: a2 01        	ldx	#$1
    34ea: 86 5d        	stx	$5d                     ; 0x5d <__rc31+0x2e>
    34ec: a2 30        	ldx	#$30
    34ee: 86 9d        	stx	$9d                     ; 0x9d <__rc31+0x6e>
    34f0: a2 02        	ldx	#$2
    34f2: 86 16        	stx	$16                     ; 0x16 <__rc6>
    34f4: a2 00        	ldx	#$0
    34f6: 86 60        	stx	$60                     ; 0x60 <__rc31+0x31>
    34f8: 4c 56 2f     	jmp	$2f56 <printf+0x782>
    34fb: a6 13        	ldx	$13                     ; 0x13 <__rc3>
    34fd: 64 62        	stz	$62                     ; 0x62 <__rc31+0x33>
    34ff: 64 58        	stz	$58                     ; 0x58 <__rc31+0x29>
    3501: 4c de 31     	jmp	$31de <printf+0xa0a>
    3504: 60           	rts

00003505 <putchar>:
    3505: 86 12        	stx	$12                     ; 0x12 <__zp_bss_size>
    3507: 85 1b        	sta	$1b                     ; 0x1b <__rc11>
    3509: 85 33        	sta	$33                     ; 0x33 <__putchar.s>
    350b: a6 01        	ldx	$1                      ; 0x1 <__zp_data_size+0x1>
    350d: 86 b0        	stx	$b0                     ; 0xb0 <__rc31+0x81>
    350f: a6 32        	ldx	$32                     ; 0x32 <_row>
    3511: a0 50        	ldy	#$50
    3513: 8c 00 de     	sty	$de00                   ; 0xde00 <__heap_start+0x7c76>
    3516: 9c 01 de     	stz	$de01                   ; 0xde01 <__heap_start+0x7c77>
    3519: 8e 02 de     	stx	$de02                   ; 0xde02 <__heap_start+0x7c78>
    351c: 9c 03 de     	stz	$de03                   ; 0xde03 <__heap_start+0x7c79>
    351f: ae 10 de     	ldx	$de10                   ; 0xde10 <__heap_start+0x7c86>
    3522: 86 13        	stx	$13                     ; 0x13 <__rc3>
    3524: ad 11 de     	lda	$de11                   ; 0xde11 <__heap_start+0x7c87>
    3527: ae 12 de     	ldx	$de12                   ; 0xde12 <__heap_start+0x7c88>
    352a: 86 1a        	stx	$1a                     ; 0x1a <__rc10>
    352c: ae 13 de     	ldx	$de13                   ; 0xde13 <__heap_start+0x7c89>
    352f: 86 1c        	stx	$1c                     ; 0x1c <__rc12>
    3531: 9c 08 de     	stz	$de08                   ; 0xde08 <__heap_start+0x7c7e>
    3534: a2 c0        	ldx	#$c0
    3536: 8e 09 de     	stx	$de09                   ; 0xde09 <__heap_start+0x7c7f>
    3539: 9c 0a de     	stz	$de0a                   ; 0xde0a <__heap_start+0x7c80>
    353c: 9c 0b de     	stz	$de0b                   ; 0xde0b <__heap_start+0x7c81>
    353f: a6 13        	ldx	$13                     ; 0x13 <__rc3>
    3541: 8e 0c de     	stx	$de0c                   ; 0xde0c <__heap_start+0x7c82>
    3544: 8d 0d de     	sta	$de0d                   ; 0xde0d <__heap_start+0x7c83>
    3547: 64 13        	stz	$13                     ; 0x13 <__rc3>
    3549: a2 00        	ldx	#$0
    354b: 86 14        	stx	$14                     ; 0x14 <__rc4>
    354d: a2 c0        	ldx	#$c0
    354f: 86 15        	stx	$15                     ; 0x15 <__rc5>
    3551: a2 11        	ldx	#$11
    3553: 86 16        	stx	$16                     ; 0x16 <__rc6>
    3555: a2 c9        	ldx	#$c9
    3557: 86 17        	stx	$17                     ; 0x17 <__rc7>
    3559: a2 10        	ldx	#$10
    355b: 86 18        	stx	$18                     ; 0x18 <__rc8>
    355d: a2 c9        	ldx	#$c9
    355f: 86 19        	stx	$19                     ; 0x19 <__rc9>
    3561: a6 1a        	ldx	$1a                     ; 0x1a <__rc10>
    3563: 8e 0e de     	stx	$de0e                   ; 0xde0e <__heap_start+0x7c84>
    3566: a6 1c        	ldx	$1c                     ; 0x1c <__rc12>
    3568: 8e 0f de     	stx	$de0f                   ; 0xde0f <__heap_start+0x7c85>
    356b: ae 18 de     	ldx	$de18                   ; 0xde18 <__heap_start+0x7c8e>
    356e: 86 1c        	stx	$1c                     ; 0x1c <__rc12>
    3570: ad 19 de     	lda	$de19                   ; 0xde19 <__heap_start+0x7c8f>
    3573: ae 1a de     	ldx	$de1a                   ; 0xde1a <__heap_start+0x7c90>
    3576: ae 1b de     	ldx	$de1b                   ; 0xde1b <__heap_start+0x7c91>
    3579: 85 1d        	sta	$1d                     ; 0x1d <__rc13>
    357b: 64 1a        	stz	$1a                     ; 0x1a <__rc10>
    357d: a2 20        	ldx	#$20
    357f: 86 b2        	stx	$b2                     ; 0xb2 <__rc31+0x83>
    3581: 80 13        	bra	$3596 <putchar+0x91>
    3583: a5 1c        	lda	$1c                     ; 0x1c <__rc12>
    3585: 18           	clc
    3586: 69 50        	adc	#$50
    3588: 85 1c        	sta	$1c                     ; 0x1c <__rc12>
    358a: a5 1d        	lda	$1d                     ; 0x1d <__rc13>
    358c: 69 00        	adc	#$0
    358e: 85 1d        	sta	$1d                     ; 0x1d <__rc13>
    3590: e6 13        	inc	$13                     ; 0x13 <__rc3>
    3592: d0 02        	bne	$3596 <putchar+0x91>
    3594: e6 1a        	inc	$1a                     ; 0x1a <__rc10>
    3596: a9 33        	lda	#$33
    3598: 18           	clc
    3599: 65 13        	adc	$13                     ; 0x13 <__rc3>
    359b: 85 1e        	sta	$1e                     ; 0x1e <__rc14>
    359d: a9 00        	lda	#$0
    359f: 65 1a        	adc	$1a                     ; 0x1a <__rc10>
    35a1: 85 1f        	sta	$1f                     ; 0x1f <__rc15>
    35a3: b2 1e        	lda	($1e)                   ; 0x1e <__rc14>
    35a5: c9 0a        	cmp	#$a
    35a7: f0 37        	beq	$35e0 <putchar+0xdb>
    35a9: c9 0d        	cmp	#$d
    35ab: f0 33        	beq	$35e0 <putchar+0xdb>
    35ad: aa           	tax
    35ae: d0 03        	bne	$35b3 <putchar+0xae>
    35b0: 4c f9 36     	jmp	$36f9 <putchar+0x1f4>
    35b3: a2 50        	ldx	#$50
    35b5: 86 22        	stx	$22                     ; 0x22 <__rc18>
    35b7: a2 03        	ldx	#$3
    35b9: 86 01        	stx	$1                      ; 0x1 <__zp_data_size+0x1>
    35bb: a5 30        	lda	$30                     ; 0x30 <_ccolor>
    35bd: 29 01        	and	#$1
    35bf: a2 40        	ldx	#$40
    35c1: a8           	tay
    35c2: d0 02        	bne	$35c6 <putchar+0xc1>
    35c4: a2 f0        	ldx	#$f0
    35c6: a4 31        	ldy	$31                     ; 0x31 <_col>
    35c8: 8a           	txa
    35c9: 91 1c        	sta	($1c),y                 ; 0x1c <__rc12>
    35cb: a2 02        	ldx	#$2
    35cd: 86 01        	stx	$1                      ; 0x1 <__zp_data_size+0x1>
    35cf: b2 1e        	lda	($1e)                   ; 0x1e <__rc14>
    35d1: a4 31        	ldy	$31                     ; 0x31 <_col>
    35d3: 91 1c        	sta	($1c),y                 ; 0x1c <__rc12>
    35d5: a6 31        	ldx	$31                     ; 0x31 <_col>
    35d7: e8           	inx
    35d8: e6 31        	inc	$31                     ; 0x31 <_col>
    35da: a4 22        	ldy	$22                     ; 0x22 <__rc18>
    35dc: e0 50        	cpx	#$50
    35de: d0 b0        	bne	$3590 <putchar+0x8b>
    35e0: 64 31        	stz	$31                     ; 0x31 <_col>
    35e2: a6 32        	ldx	$32                     ; 0x32 <_row>
    35e4: e8           	inx
    35e5: e6 32        	inc	$32                     ; 0x32 <_row>
    35e7: e0 1e        	cpx	#$1e
    35e9: f0 03        	beq	$35ee <putchar+0xe9>
    35eb: 4c 83 35     	jmp	$3583 <putchar+0x7e>
    35ee: a2 03        	ldx	#$3
    35f0: 86 01        	stx	$1                      ; 0x1 <__zp_data_size+0x1>
    35f2: a2 09        	ldx	#$9
    35f4: a9 10        	lda	#$10
    35f6: 5a           	phy
    35f7: a0 00        	ldy	#$0
    35f9: 84 1c        	sty	$1c                     ; 0x1c <__rc12>
    35fb: a0 c0        	ldy	#$c0
    35fd: 84 1d        	sty	$1d                     ; 0x1d <__rc13>
    35ff: 7a           	ply
    3600: 85 1e        	sta	$1e                     ; 0x1e <__rc14>
    3602: b1 1c        	lda	($1c),y                 ; 0x1c <__rc12>
    3604: 92 1c        	sta	($1c)                   ; 0x1c <__rc12>
    3606: a9 ff        	lda	#$ff
    3608: c6 1e        	dec	$1e                     ; 0x1e <__rc14>
    360a: c5 1e        	cmp	$1e                     ; 0x1e <__rc14>
    360c: d0 01        	bne	$360f <putchar+0x10a>
    360e: ca           	dex
    360f: e6 1c        	inc	$1c                     ; 0x1c <__rc12>
    3611: d0 02        	bne	$3615 <putchar+0x110>
    3613: e6 1d        	inc	$1d                     ; 0x1d <__rc13>
    3615: 8a           	txa
    3616: d0 ea        	bne	$3602 <putchar+0xfd>
    3618: a5 1e        	lda	$1e                     ; 0x1e <__rc14>
    361a: d0 e6        	bne	$3602 <putchar+0xfd>
    361c: a2 02        	ldx	#$2
    361e: 86 01        	stx	$1                      ; 0x1 <__zp_data_size+0x1>
    3620: a2 09        	ldx	#$9
    3622: a9 10        	lda	#$10
    3624: 5a           	phy
    3625: a0 00        	ldy	#$0
    3627: 84 1c        	sty	$1c                     ; 0x1c <__rc12>
    3629: a0 c0        	ldy	#$c0
    362b: 84 1d        	sty	$1d                     ; 0x1d <__rc13>
    362d: 7a           	ply
    362e: 85 1e        	sta	$1e                     ; 0x1e <__rc14>
    3630: b1 1c        	lda	($1c),y                 ; 0x1c <__rc12>
    3632: 92 1c        	sta	($1c)                   ; 0x1c <__rc12>
    3634: a9 ff        	lda	#$ff
    3636: c6 1e        	dec	$1e                     ; 0x1e <__rc14>
    3638: c5 1e        	cmp	$1e                     ; 0x1e <__rc14>
    363a: d0 01        	bne	$363d <putchar+0x138>
    363c: ca           	dex
    363d: e6 1c        	inc	$1c                     ; 0x1c <__rc12>
    363f: d0 02        	bne	$3643 <putchar+0x13e>
    3641: e6 1d        	inc	$1d                     ; 0x1d <__rc13>
    3643: 8a           	txa
    3644: d0 ea        	bne	$3630 <putchar+0x12b>
    3646: a5 1e        	lda	$1e                     ; 0x1e <__rc14>
    3648: d0 e6        	bne	$3630 <putchar+0x12b>
    364a: a2 50        	ldx	#$50
    364c: 86 b1        	stx	$b1                     ; 0xb1 <__rc31+0x82>
    364e: a2 02        	ldx	#$2
    3650: 86 01        	stx	$1                      ; 0x1 <__zp_data_size+0x1>
    3652: e8           	inx
    3653: 86 01        	stx	$1                      ; 0x1 <__zp_data_size+0x1>
    3655: a5 30        	lda	$30                     ; 0x30 <_ccolor>
    3657: 29 01        	and	#$1
    3659: aa           	tax
    365a: a9 40        	lda	#$40
    365c: e0 00        	cpx	#$0
    365e: d0 02        	bne	$3662 <putchar+0x15d>
    3660: a9 f0        	lda	#$f0
    3662: a2 50        	ldx	#$50
    3664: a0 11        	ldy	#$11
    3666: 84 1c        	sty	$1c                     ; 0x1c <__rc12>
    3668: a0 c9        	ldy	#$c9
    366a: 84 1d        	sty	$1d                     ; 0x1d <__rc13>
    366c: a0 10        	ldy	#$10
    366e: 84 1e        	sty	$1e                     ; 0x1e <__rc14>
    3670: a0 c9        	ldy	#$c9
    3672: 84 1f        	sty	$1f                     ; 0x1f <__rc15>
    3674: a4 1e        	ldy	$1e                     ; 0x1e <__rc14>
    3676: 84 22        	sty	$22                     ; 0x22 <__rc18>
    3678: a4 1f        	ldy	$1f                     ; 0x1f <__rc15>
    367a: 84 23        	sty	$23                     ; 0x23 <__rc19>
    367c: a4 1c        	ldy	$1c                     ; 0x1c <__rc12>
    367e: 84 1e        	sty	$1e                     ; 0x1e <__rc14>
    3680: a4 1d        	ldy	$1d                     ; 0x1d <__rc13>
    3682: 84 1f        	sty	$1f                     ; 0x1f <__rc15>
    3684: 92 22        	sta	($22)                   ; 0x22 <__rc18>
    3686: e6 1c        	inc	$1c                     ; 0x1c <__rc12>
    3688: d0 02        	bne	$368c <putchar+0x187>
    368a: e6 1d        	inc	$1d                     ; 0x1d <__rc13>
    368c: ca           	dex
    368d: d0 e5        	bne	$3674 <putchar+0x16f>
    368f: a2 02        	ldx	#$2
    3691: 86 01        	stx	$1                      ; 0x1 <__zp_data_size+0x1>
    3693: a2 50        	ldx	#$50
    3695: a0 11        	ldy	#$11
    3697: 84 1c        	sty	$1c                     ; 0x1c <__rc12>
    3699: a0 c9        	ldy	#$c9
    369b: 84 1d        	sty	$1d                     ; 0x1d <__rc13>
    369d: a0 10        	ldy	#$10
    369f: 84 1e        	sty	$1e                     ; 0x1e <__rc14>
    36a1: a0 c9        	ldy	#$c9
    36a3: 84 1f        	sty	$1f                     ; 0x1f <__rc15>
    36a5: a5 b2        	lda	$b2                     ; 0xb2 <__rc31+0x83>
    36a7: a4 1e        	ldy	$1e                     ; 0x1e <__rc14>
    36a9: 84 22        	sty	$22                     ; 0x22 <__rc18>
    36ab: a4 1f        	ldy	$1f                     ; 0x1f <__rc15>
    36ad: 84 23        	sty	$23                     ; 0x23 <__rc19>
    36af: a4 1c        	ldy	$1c                     ; 0x1c <__rc12>
    36b1: 84 1e        	sty	$1e                     ; 0x1e <__rc14>
    36b3: a4 1d        	ldy	$1d                     ; 0x1d <__rc13>
    36b5: 84 1f        	sty	$1f                     ; 0x1f <__rc15>
    36b7: 92 22        	sta	($22)                   ; 0x22 <__rc18>
    36b9: e6 1c        	inc	$1c                     ; 0x1c <__rc12>
    36bb: d0 02        	bne	$36bf <putchar+0x1ba>
    36bd: e6 1d        	inc	$1d                     ; 0x1d <__rc13>
    36bf: ca           	dex
    36c0: d0 e5        	bne	$36a7 <putchar+0x1a2>
    36c2: a2 20        	ldx	#$20
    36c4: 86 b2        	stx	$b2                     ; 0xb2 <__rc31+0x83>
    36c6: c6 32        	dec	$32                     ; 0x32 <_row>
    36c8: 9c 08 de     	stz	$de08                   ; 0xde08 <__heap_start+0x7c7e>
    36cb: a2 c0        	ldx	#$c0
    36cd: 8e 09 de     	stx	$de09                   ; 0xde09 <__heap_start+0x7c7f>
    36d0: 9c 0a de     	stz	$de0a                   ; 0xde0a <__heap_start+0x7c80>
    36d3: 9c 0b de     	stz	$de0b                   ; 0xde0b <__heap_start+0x7c81>
    36d6: a2 1d        	ldx	#$1d
    36d8: 8e 0c de     	stx	$de0c                   ; 0xde0c <__heap_start+0x7c82>
    36db: 9c 0d de     	stz	$de0d                   ; 0xde0d <__heap_start+0x7c83>
    36de: 9c 0e de     	stz	$de0e                   ; 0xde0e <__heap_start+0x7c84>
    36e1: 9c 0f de     	stz	$de0f                   ; 0xde0f <__heap_start+0x7c85>
    36e4: ae 18 de     	ldx	$de18                   ; 0xde18 <__heap_start+0x7c8e>
    36e7: ac 19 de     	ldy	$de19                   ; 0xde19 <__heap_start+0x7c8f>
    36ea: ad 1a de     	lda	$de1a                   ; 0xde1a <__heap_start+0x7c90>
    36ed: ad 1b de     	lda	$de1b                   ; 0xde1b <__heap_start+0x7c91>
    36f0: 86 1c        	stx	$1c                     ; 0x1c <__rc12>
    36f2: 84 1d        	sty	$1d                     ; 0x1d <__rc13>
    36f4: a4 b1        	ldy	$b1                     ; 0xb1 <__rc31+0x82>
    36f6: 4c 90 35     	jmp	$3590 <putchar+0x8b>
    36f9: a6 b0        	ldx	$b0                     ; 0xb0 <__rc31+0x81>
    36fb: 86 01        	stx	$1                      ; 0x1 <__zp_data_size+0x1>
    36fd: a6 31        	ldx	$31                     ; 0x31 <_col>
    36ff: a4 32        	ldy	$32                     ; 0x32 <_row>
    3701: 8e 14 d0     	stx	$d014                   ; 0xd014 <__heap_start+0x6e8a>
    3704: 9c 15 d0     	stz	$d015                   ; 0xd015 <__heap_start+0x6e8b>
    3707: 84 32        	sty	$32                     ; 0x32 <_row>
    3709: 8c 16 d0     	sty	$d016                   ; 0xd016 <__heap_start+0x6e8c>
    370c: 9c 17 d0     	stz	$d017                   ; 0xd017 <__heap_start+0x6e8d>
    370f: a6 12        	ldx	$12                     ; 0x12 <__zp_bss_size>
    3711: a5 1b        	lda	$1b                     ; 0x1b <__rc11>
    3713: 60           	rts

00003714 <malloc>:
    3714: a8           	tay
    3715: 8a           	txa
    3716: a2 00        	ldx	#$0
    3718: 86 12        	stx	$12                     ; 0x12 <__zp_bss_size>
    371a: a2 00        	ldx	#$0
    371c: 86 13        	stx	$13                     ; 0x13 <__rc3>
    371e: aa           	tax
    371f: d0 07        	bne	$3728 <malloc+0x14>
    3721: c0 00        	cpy	#$0
    3723: d0 03        	bne	$3728 <malloc+0x14>
    3725: 4c 36 38     	jmp	$3836 <malloc+0x122>
    3728: 84 16        	sty	$16                     ; 0x16 <__rc6>
    372a: aa           	tax
    372b: d0 0e        	bne	$373b <malloc+0x27>
    372d: a6 16        	ldx	$16                     ; 0x16 <__rc6>
    372f: e0 07        	cpx	#$7
    3731: b0 0c        	bcs	$373f <malloc+0x2b>
    3733: a2 08        	ldx	#$8
    3735: 86 42        	stx	$42                     ; 0x42 <__rc31+0x13>
    3737: a9 00        	lda	#$0
    3739: 80 31        	bra	$376c <malloc+0x58>
    373b: c9 00        	cmp	#$0
    373d: 90 f4        	bcc	$3733 <malloc+0x1f>
    373f: a8           	tay
    3740: a5 16        	lda	$16                     ; 0x16 <__rc6>
    3742: 29 01        	and	#$1
    3744: a2 02        	ldx	#$2
    3746: 64 14        	stz	$14                     ; 0x14 <__rc4>
    3748: c9 00        	cmp	#$0
    374a: f0 02        	beq	$374e <malloc+0x3a>
    374c: a2 03        	ldx	#$3
    374e: 86 15        	stx	$15                     ; 0x15 <__rc5>
    3750: 18           	clc
    3751: a5 16        	lda	$16                     ; 0x16 <__rc6>
    3753: 65 15        	adc	$15                     ; 0x15 <__rc5>
    3755: aa           	tax
    3756: 98           	tya
    3757: 65 14        	adc	$14                     ; 0x14 <__rc4>
    3759: 90 03        	bcc	$375e <malloc+0x4a>
    375b: 4c 36 38     	jmp	$3836 <malloc+0x122>
    375e: 86 14        	stx	$14                     ; 0x14 <__rc4>
    3760: 86 42        	stx	$42                     ; 0x42 <__rc31+0x13>
    3762: aa           	tax
    3763: d0 07        	bne	$376c <malloc+0x58>
    3765: a6 14        	ldx	$14                     ; 0x14 <__rc4>
    3767: d0 03        	bne	$376c <malloc+0x58>
    3769: 4c 36 38     	jmp	$3836 <malloc+0x122>
    376c: 85 45        	sta	$45                     ; 0x45 <__rc31+0x16>
    376e: a5 3d        	lda	$3d                     ; 0x3d <_ZN12_GLOBAL__N_111initializedE>
    3770: 29 01        	and	#$1
    3772: d0 39        	bne	$37ad <malloc+0x99>
    3774: a9 00        	lda	#$0
    3776: a2 10        	ldx	#$10
    3778: a0 8a        	ldy	#$8a
    377a: 84 14        	sty	$14                     ; 0x14 <__rc4>
    377c: a0 61        	ldy	#$61
    377e: 84 15        	sty	$15                     ; 0x15 <__rc5>
    3780: a4 12        	ldy	$12                     ; 0x12 <__zp_bss_size>
    3782: 84 43        	sty	$43                     ; 0x43 <__rc31+0x14>
    3784: a4 13        	ldy	$13                     ; 0x13 <__rc3>
    3786: 84 44        	sty	$44                     ; 0x44 <__rc31+0x15>
    3788: a0 8a        	ldy	#$8a
    378a: 84 12        	sty	$12                     ; 0x12 <__zp_bss_size>
    378c: a0 61        	ldy	#$61
    378e: 84 13        	sty	$13                     ; 0x13 <__rc3>
    3790: 20 16 03     	jsr	$316 <_ZN12_GLOBAL__N_19FreeChunk6insertEPvj>
    3793: a6 43        	ldx	$43                     ; 0x43 <__rc31+0x14>
    3795: 86 12        	stx	$12                     ; 0x12 <__zp_bss_size>
    3797: a6 44        	ldx	$44                     ; 0x44 <__rc31+0x15>
    3799: 86 13        	stx	$13                     ; 0x13 <__rc3>
    379b: ae 8b 61     	ldx	$618b                   ; 0x618b <__heap_start+0x1>
    379e: a9 fe        	lda	#$fe
    37a0: 2d 8a 61     	and	$618a                   ; 0x618a <__heap_start>
    37a3: 8d 8a 61     	sta	$618a                   ; 0x618a <__heap_start>
    37a6: 8e 8b 61     	stx	$618b                   ; 0x618b <__heap_start+0x1>
    37a9: a2 01        	ldx	#$1
    37ab: 86 3d        	stx	$3d                     ; 0x3d <_ZN12_GLOBAL__N_111initializedE>
    37ad: a5 40        	lda	$40                     ; 0x40 <_ZN12_GLOBAL__N_19free_listE>
    37af: a6 41        	ldx	$41                     ; 0x41 <_ZN12_GLOBAL__N_19free_listE+0x1>
    37b1: a0 00        	ldy	#$0
    37b3: 84 14        	sty	$14                     ; 0x14 <__rc4>
    37b5: a0 00        	ldy	#$0
    37b7: 84 15        	sty	$15                     ; 0x15 <__rc5>
    37b9: 86 1d        	stx	$1d                     ; 0x1d <__rc13>
    37bb: e4 15        	cpx	$15                     ; 0x15 <__rc5>
    37bd: d0 07        	bne	$37c6 <malloc+0xb2>
    37bf: c5 14        	cmp	$14                     ; 0x14 <__rc4>
    37c1: d0 03        	bne	$37c6 <malloc+0xb2>
    37c3: 4c 36 38     	jmp	$3836 <malloc+0x122>
    37c6: a0 00        	ldy	#$0
    37c8: a2 10        	ldx	#$10
    37ca: 85 18        	sta	$18                     ; 0x18 <__rc8>
    37cc: 84 14        	sty	$14                     ; 0x14 <__rc4>
    37ce: 86 15        	stx	$15                     ; 0x15 <__rc5>
    37d0: 18           	clc
    37d1: a9 8a        	lda	#$8a
    37d3: 65 14        	adc	$14                     ; 0x14 <__rc4>
    37d5: 85 14        	sta	$14                     ; 0x14 <__rc4>
    37d7: a9 61        	lda	#$61
    37d9: 65 15        	adc	$15                     ; 0x15 <__rc5>
    37db: a6 14        	ldx	$14                     ; 0x14 <__rc4>
    37dd: 86 46        	stx	$46                     ; 0x46 <__rc31+0x17>
    37df: a6 18        	ldx	$18                     ; 0x18 <__rc8>
    37e1: 86 43        	stx	$43                     ; 0x43 <__rc31+0x14>
    37e3: 85 17        	sta	$17                     ; 0x17 <__rc7>
    37e5: a6 18        	ldx	$18                     ; 0x18 <__rc8>
    37e7: 86 14        	stx	$14                     ; 0x14 <__rc4>
    37e9: a6 1d        	ldx	$1d                     ; 0x1d <__rc13>
    37eb: 86 15        	stx	$15                     ; 0x15 <__rc5>
    37ed: a0 01        	ldy	#$1
    37ef: a6 45        	ldx	$45                     ; 0x45 <__rc31+0x16>
    37f1: 86 18        	stx	$18                     ; 0x18 <__rc8>
    37f3: b1 14        	lda	($14),y                 ; 0x14 <__rc4>
    37f5: 85 19        	sta	$19                     ; 0x19 <__rc9>
    37f7: aa           	tax
    37f8: a9 fe        	lda	#$fe
    37fa: 32 14        	and	($14)                   ; 0x14 <__rc4>
    37fc: 85 1a        	sta	$1a                     ; 0x1a <__rc10>
    37fe: e4 18        	cpx	$18                     ; 0x18 <__rc8>
    3800: d0 0a        	bne	$380c <malloc+0xf8>
    3802: a6 42        	ldx	$42                     ; 0x42 <__rc31+0x13>
    3804: 86 1b        	stx	$1b                     ; 0x1b <__rc11>
    3806: c5 1b        	cmp	$1b                     ; 0x1b <__rc11>
    3808: b0 2d        	bcs	$3837 <malloc+0x123>
    380a: 80 04        	bra	$3810 <malloc+0xfc>
    380c: e4 18        	cpx	$18                     ; 0x18 <__rc8>
    380e: b0 27        	bcs	$3837 <malloc+0x123>
    3810: a5 14        	lda	$14                     ; 0x14 <__rc4>
    3812: 18           	clc
    3813: 69 02        	adc	#$2
    3815: 85 1a        	sta	$1a                     ; 0x1a <__rc10>
    3817: a5 15        	lda	$15                     ; 0x15 <__rc5>
    3819: 69 00        	adc	#$0
    381b: 85 1b        	sta	$1b                     ; 0x1b <__rc11>
    381d: a0 02        	ldy	#$2
    381f: b1 14        	lda	($14),y                 ; 0x14 <__rc4>
    3821: 85 14        	sta	$14                     ; 0x14 <__rc4>
    3823: 88           	dey
    3824: b1 1a        	lda	($1a),y                 ; 0x1a <__rc10>
    3826: 85 15        	sta	$15                     ; 0x15 <__rc5>
    3828: c5 1d        	cmp	$1d                     ; 0x1d <__rc13>
    382a: d0 c7        	bne	$37f3 <malloc+0xdf>
    382c: a5 14        	lda	$14                     ; 0x14 <__rc4>
    382e: a6 43        	ldx	$43                     ; 0x43 <__rc31+0x14>
    3830: 86 19        	stx	$19                     ; 0x19 <__rc9>
    3832: c5 19        	cmp	$19                     ; 0x19 <__rc9>
    3834: d0 bd        	bne	$37f3 <malloc+0xdf>
    3836: 60           	rts
    3837: a5 3e        	lda	$3e                     ; 0x3e <_ZN12_GLOBAL__N_19free_sizeE>
    3839: a6 3f        	ldx	$3f                     ; 0x3f <_ZN12_GLOBAL__N_19free_sizeE+0x1>
    383b: 86 12        	stx	$12                     ; 0x12 <__zp_bss_size>
    383d: 38           	sec
    383e: e5 1a        	sbc	$1a                     ; 0x1a <__rc10>
    3840: aa           	tax
    3841: a5 12        	lda	$12                     ; 0x12 <__zp_bss_size>
    3843: e5 19        	sbc	$19                     ; 0x19 <__rc9>
    3845: 85 12        	sta	$12                     ; 0x12 <__zp_bss_size>
    3847: 18           	clc
    3848: 8a           	txa
    3849: 69 02        	adc	#$2
    384b: 85 13        	sta	$13                     ; 0x13 <__rc3>
    384d: a5 12        	lda	$12                     ; 0x12 <__zp_bss_size>
    384f: 69 00        	adc	#$0
    3851: a6 13        	ldx	$13                     ; 0x13 <__rc3>
    3853: 86 3e        	stx	$3e                     ; 0x3e <_ZN12_GLOBAL__N_19free_sizeE>
    3855: 85 3f        	sta	$3f                     ; 0x3f <_ZN12_GLOBAL__N_19free_sizeE+0x1>
    3857: a0 02        	ldy	#$2
    3859: a5 14        	lda	$14                     ; 0x14 <__rc4>
    385b: 18           	clc
    385c: 69 02        	adc	#$2
    385e: 85 12        	sta	$12                     ; 0x12 <__zp_bss_size>
    3860: a5 15        	lda	$15                     ; 0x15 <__rc5>
    3862: 69 00        	adc	#$0
    3864: 85 13        	sta	$13                     ; 0x13 <__rc3>
    3866: b1 14        	lda	($14),y                 ; 0x14 <__rc4>
    3868: 85 1e        	sta	$1e                     ; 0x1e <__rc14>
    386a: 88           	dey
    386b: b1 12        	lda	($12),y                 ; 0x12 <__zp_bss_size>
    386d: 85 1f        	sta	$1f                     ; 0x1f <__rc15>
    386f: c5 15        	cmp	$15                     ; 0x15 <__rc5>
    3871: d0 15        	bne	$3888 <malloc+0x174>
    3873: a5 45        	lda	$45                     ; 0x45 <__rc31+0x16>
    3875: a6 1e        	ldx	$1e                     ; 0x1e <__rc14>
    3877: e4 14        	cpx	$14                     ; 0x14 <__rc4>
    3879: d0 0d        	bne	$3888 <malloc+0x174>
    387b: 85 1a        	sta	$1a                     ; 0x1a <__rc10>
    387d: a2 00        	ldx	#$0
    387f: 86 18        	stx	$18                     ; 0x18 <__rc8>
    3881: a2 00        	ldx	#$0
    3883: 86 19        	stx	$19                     ; 0x19 <__rc9>
    3885: 4c 0b 39     	jmp	$390b <malloc+0x1f7>
    3888: 18           	clc
    3889: a5 14        	lda	$14                     ; 0x14 <__rc4>
    388b: 69 04        	adc	#$4
    388d: 85 18        	sta	$18                     ; 0x18 <__rc8>
    388f: a5 15        	lda	$15                     ; 0x15 <__rc5>
    3891: 69 00        	adc	#$0
    3893: 85 19        	sta	$19                     ; 0x19 <__rc9>
    3895: a0 04        	ldy	#$4
    3897: b1 14        	lda	($14),y                 ; 0x14 <__rc4>
    3899: 85 16        	sta	$16                     ; 0x16 <__rc6>
    389b: 18           	clc
    389c: 69 02        	adc	#$2
    389e: 85 1a        	sta	$1a                     ; 0x1a <__rc10>
    38a0: a0 01        	ldy	#$1
    38a2: b1 18        	lda	($18),y                 ; 0x18 <__rc8>
    38a4: aa           	tax
    38a5: 84 22        	sty	$22                     ; 0x22 <__rc18>
    38a7: 69 00        	adc	#$0
    38a9: a4 1a        	ldy	$1a                     ; 0x1a <__rc10>
    38ab: 84 18        	sty	$18                     ; 0x18 <__rc8>
    38ad: 85 19        	sta	$19                     ; 0x19 <__rc9>
    38af: a4 16        	ldy	$16                     ; 0x16 <__rc6>
    38b1: 84 1a        	sty	$1a                     ; 0x1a <__rc10>
    38b3: 86 1b        	stx	$1b                     ; 0x1b <__rc11>
    38b5: a5 1e        	lda	$1e                     ; 0x1e <__rc14>
    38b7: a0 02        	ldy	#$2
    38b9: 91 1a        	sta	($1a),y                 ; 0x1a <__rc10>
    38bb: 84 1e        	sty	$1e                     ; 0x1e <__rc14>
    38bd: a5 1f        	lda	$1f                     ; 0x1f <__rc15>
    38bf: a4 22        	ldy	$22                     ; 0x22 <__rc18>
    38c1: 91 18        	sta	($18),y                 ; 0x18 <__rc8>
    38c3: 18           	clc
    38c4: a5 14        	lda	$14                     ; 0x14 <__rc4>
    38c6: 69 02        	adc	#$2
    38c8: 85 1a        	sta	$1a                     ; 0x1a <__rc10>
    38ca: a5 15        	lda	$15                     ; 0x15 <__rc5>
    38cc: 69 00        	adc	#$0
    38ce: 85 1b        	sta	$1b                     ; 0x1b <__rc11>
    38d0: a4 1e        	ldy	$1e                     ; 0x1e <__rc14>
    38d2: b1 14        	lda	($14),y                 ; 0x14 <__rc4>
    38d4: 85 18        	sta	$18                     ; 0x18 <__rc8>
    38d6: 85 1e        	sta	$1e                     ; 0x1e <__rc14>
    38d8: a4 22        	ldy	$22                     ; 0x22 <__rc18>
    38da: b1 1a        	lda	($1a),y                 ; 0x1a <__rc10>
    38dc: 84 1c        	sty	$1c                     ; 0x1c <__rc12>
    38de: 85 19        	sta	$19                     ; 0x19 <__rc9>
    38e0: 85 1a        	sta	$1a                     ; 0x1a <__rc10>
    38e2: a5 16        	lda	$16                     ; 0x16 <__rc6>
    38e4: a0 04        	ldy	#$4
    38e6: 91 18        	sta	($18),y                 ; 0x18 <__rc8>
    38e8: 18           	clc
    38e9: a5 1e        	lda	$1e                     ; 0x1e <__rc14>
    38eb: 69 04        	adc	#$4
    38ed: a8           	tay
    38ee: a5 1a        	lda	$1a                     ; 0x1a <__rc10>
    38f0: 69 00        	adc	#$0
    38f2: 84 1a        	sty	$1a                     ; 0x1a <__rc10>
    38f4: 85 1b        	sta	$1b                     ; 0x1b <__rc11>
    38f6: 8a           	txa
    38f7: a4 1c        	ldy	$1c                     ; 0x1c <__rc12>
    38f9: 91 1a        	sta	($1a),y                 ; 0x1a <__rc10>
    38fb: a5 45        	lda	$45                     ; 0x45 <__rc31+0x16>
    38fd: 85 1a        	sta	$1a                     ; 0x1a <__rc10>
    38ff: a6 1d        	ldx	$1d                     ; 0x1d <__rc13>
    3901: e4 15        	cpx	$15                     ; 0x15 <__rc5>
    3903: d0 0e        	bne	$3913 <malloc+0x1ff>
    3905: a6 43        	ldx	$43                     ; 0x43 <__rc31+0x14>
    3907: e4 14        	cpx	$14                     ; 0x14 <__rc4>
    3909: d0 08        	bne	$3913 <malloc+0x1ff>
    390b: a6 18        	ldx	$18                     ; 0x18 <__rc8>
    390d: a4 19        	ldy	$19                     ; 0x19 <__rc9>
    390f: 86 40        	stx	$40                     ; 0x40 <_ZN12_GLOBAL__N_19free_listE>
    3911: 84 41        	sty	$41                     ; 0x41 <_ZN12_GLOBAL__N_19free_listE+0x1>
    3913: a0 01        	ldy	#$1
    3915: b1 14        	lda	($14),y                 ; 0x14 <__rc4>
    3917: 85 16        	sta	$16                     ; 0x16 <__rc6>
    3919: a9 fe        	lda	#$fe
    391b: 32 14        	and	($14)                   ; 0x14 <__rc4>
    391d: 38           	sec
    391e: a6 42        	ldx	$42                     ; 0x42 <__rc31+0x13>
    3920: 86 18        	stx	$18                     ; 0x18 <__rc8>
    3922: a8           	tay
    3923: e5 18        	sbc	$18                     ; 0x18 <__rc8>
    3925: 85 19        	sta	$19                     ; 0x19 <__rc9>
    3927: a5 16        	lda	$16                     ; 0x16 <__rc6>
    3929: a6 16        	ldx	$16                     ; 0x16 <__rc6>
    392b: e5 1a        	sbc	$1a                     ; 0x1a <__rc10>
    392d: f0 03        	beq	$3932 <malloc+0x21e>
    392f: 4c be 39     	jmp	$39be <malloc+0x2aa>
    3932: 85 16        	sta	$16                     ; 0x16 <__rc6>
    3934: a5 19        	lda	$19                     ; 0x19 <__rc9>
    3936: c9 08        	cmp	#$8
    3938: 86 18        	stx	$18                     ; 0x18 <__rc8>
    393a: b0 03        	bcs	$393f <malloc+0x22b>
    393c: 4c a1 39     	jmp	$39a1 <malloc+0x28d>
    393f: a6 17        	ldx	$17                     ; 0x17 <__rc7>
    3941: 86 49        	stx	$49                     ; 0x49 <__rc31+0x1a>
    3943: a6 46        	ldx	$46                     ; 0x46 <__rc31+0x17>
    3945: 86 46        	stx	$46                     ; 0x46 <__rc31+0x17>
    3947: a6 12        	ldx	$12                     ; 0x12 <__zp_bss_size>
    3949: 86 43        	stx	$43                     ; 0x43 <__rc31+0x14>
    394b: a6 13        	ldx	$13                     ; 0x13 <__rc3>
    394d: 86 44        	stx	$44                     ; 0x44 <__rc31+0x15>
    394f: a8           	tay
    3950: 18           	clc
    3951: a6 42        	ldx	$42                     ; 0x42 <__rc31+0x13>
    3953: 86 42        	stx	$42                     ; 0x42 <__rc31+0x13>
    3955: 8a           	txa
    3956: 65 14        	adc	$14                     ; 0x14 <__rc4>
    3958: 85 12        	sta	$12                     ; 0x12 <__zp_bss_size>
    395a: a5 1a        	lda	$1a                     ; 0x1a <__rc10>
    395c: a6 1a        	ldx	$1a                     ; 0x1a <__rc10>
    395e: 86 45        	stx	$45                     ; 0x45 <__rc31+0x16>
    3960: 65 15        	adc	$15                     ; 0x15 <__rc5>
    3962: 85 13        	sta	$13                     ; 0x13 <__rc3>
    3964: a6 16        	ldx	$16                     ; 0x16 <__rc6>
    3966: 98           	tya
    3967: a4 14        	ldy	$14                     ; 0x14 <__rc4>
    3969: 84 47        	sty	$47                     ; 0x47 <__rc31+0x18>
    396b: a4 15        	ldy	$15                     ; 0x15 <__rc5>
    396d: 84 48        	sty	$48                     ; 0x48 <__rc31+0x19>
    396f: 20 16 03     	jsr	$316 <_ZN12_GLOBAL__N_19FreeChunk6insertEPvj>
    3972: a6 47        	ldx	$47                     ; 0x47 <__rc31+0x18>
    3974: 86 14        	stx	$14                     ; 0x14 <__rc4>
    3976: a6 48        	ldx	$48                     ; 0x48 <__rc31+0x19>
    3978: 86 15        	stx	$15                     ; 0x15 <__rc5>
    397a: a5 42        	lda	$42                     ; 0x42 <__rc31+0x13>
    397c: 29 fe        	and	#$fe
    397e: 85 12        	sta	$12                     ; 0x12 <__zp_bss_size>
    3980: a0 01        	ldy	#$1
    3982: 98           	tya
    3983: 32 14        	and	($14)                   ; 0x14 <__rc4>
    3985: 05 12        	ora	$12                     ; 0x12 <__zp_bss_size>
    3987: 92 14        	sta	($14)                   ; 0x14 <__rc4>
    3989: a5 45        	lda	$45                     ; 0x45 <__rc31+0x16>
    398b: 91 14        	sta	($14),y                 ; 0x14 <__rc4>
    398d: a4 12        	ldy	$12                     ; 0x12 <__zp_bss_size>
    398f: 85 18        	sta	$18                     ; 0x18 <__rc8>
    3991: a6 43        	ldx	$43                     ; 0x43 <__rc31+0x14>
    3993: 86 12        	stx	$12                     ; 0x12 <__zp_bss_size>
    3995: a6 44        	ldx	$44                     ; 0x44 <__rc31+0x15>
    3997: 86 13        	stx	$13                     ; 0x13 <__rc3>
    3999: a6 46        	ldx	$46                     ; 0x46 <__rc31+0x17>
    399b: 86 46        	stx	$46                     ; 0x46 <__rc31+0x17>
    399d: a6 49        	ldx	$49                     ; 0x49 <__rc31+0x1a>
    399f: 86 17        	stx	$17                     ; 0x17 <__rc7>
    39a1: 18           	clc
    39a2: 98           	tya
    39a3: 65 14        	adc	$14                     ; 0x14 <__rc4>
    39a5: 85 16        	sta	$16                     ; 0x16 <__rc6>
    39a7: a5 15        	lda	$15                     ; 0x15 <__rc5>
    39a9: 65 18        	adc	$18                     ; 0x18 <__rc8>
    39ab: 85 15        	sta	$15                     ; 0x15 <__rc5>
    39ad: c5 17        	cmp	$17                     ; 0x17 <__rc7>
    39af: d0 1a        	bne	$39cb <malloc+0x2b7>
    39b1: a6 46        	ldx	$46                     ; 0x46 <__rc31+0x17>
    39b3: 86 14        	stx	$14                     ; 0x14 <__rc4>
    39b5: a6 16        	ldx	$16                     ; 0x16 <__rc6>
    39b7: e4 14        	cpx	$14                     ; 0x14 <__rc4>
    39b9: d0 12        	bne	$39cd <malloc+0x2b9>
    39bb: 4c 36 38     	jmp	$3836 <malloc+0x122>
    39be: 85 16        	sta	$16                     ; 0x16 <__rc6>
    39c0: c9 00        	cmp	#$0
    39c2: 86 18        	stx	$18                     ; 0x18 <__rc8>
    39c4: a5 19        	lda	$19                     ; 0x19 <__rc9>
    39c6: 90 d9        	bcc	$39a1 <malloc+0x28d>
    39c8: 4c 3f 39     	jmp	$393f <malloc+0x22b>
    39cb: a6 16        	ldx	$16                     ; 0x16 <__rc6>
    39cd: 86 14        	stx	$14                     ; 0x14 <__rc4>
    39cf: a0 01        	ldy	#$1
    39d1: b1 14        	lda	($14),y                 ; 0x14 <__rc4>
    39d3: 85 16        	sta	$16                     ; 0x16 <__rc6>
    39d5: a9 fe        	lda	#$fe
    39d7: 32 14        	and	($14)                   ; 0x14 <__rc4>
    39d9: 92 14        	sta	($14)                   ; 0x14 <__rc4>
    39db: a5 16        	lda	$16                     ; 0x16 <__rc6>
    39dd: 91 14        	sta	($14),y                 ; 0x14 <__rc4>
    39df: 60           	rts

000039e0 <memcpy>:
    39e0: a8           	tay
    39e1: 8a           	txa
    39e2: d0 03        	bne	$39e7 <memcpy+0x7>
    39e4: 98           	tya
    39e5: f0 24        	beq	$3a0b <memcpy+0x2b>
    39e7: a5 12        	lda	$12                     ; 0x12 <__zp_bss_size>
    39e9: 85 16        	sta	$16                     ; 0x16 <__rc6>
    39eb: a5 13        	lda	$13                     ; 0x13 <__rc3>
    39ed: 85 17        	sta	$17                     ; 0x17 <__rc7>
    39ef: b2 14        	lda	($14)                   ; 0x14 <__rc4>
    39f1: 92 16        	sta	($16)                   ; 0x16 <__rc6>
    39f3: e6 16        	inc	$16                     ; 0x16 <__rc6>
    39f5: d0 02        	bne	$39f9 <memcpy+0x19>
    39f7: e6 17        	inc	$17                     ; 0x17 <__rc7>
    39f9: e6 14        	inc	$14                     ; 0x14 <__rc4>
    39fb: d0 02        	bne	$39ff <memcpy+0x1f>
    39fd: e6 15        	inc	$15                     ; 0x15 <__rc5>
    39ff: 88           	dey
    3a00: c0 ff        	cpy	#$ff
    3a02: d0 01        	bne	$3a05 <memcpy+0x25>
    3a04: ca           	dex
    3a05: 8a           	txa
    3a06: d0 e7        	bne	$39ef <memcpy+0xf>
    3a08: 98           	tya
    3a09: d0 e4        	bne	$39ef <memcpy+0xf>
    3a0b: 60           	rts

00003a0c <__memset>:
    3a0c: a4 14        	ldy	$14                     ; 0x14 <__rc4>
    3a0e: d0 04        	bne	$3a14 <__memset+0x8>
    3a10: e0 00        	cpx	#$0
    3a12: f0 17        	beq	$3a2b <__memset+0x1f>
    3a14: 92 12        	sta	($12)                   ; 0x12 <__zp_bss_size>
    3a16: e6 12        	inc	$12                     ; 0x12 <__zp_bss_size>
    3a18: d0 02        	bne	$3a1c <__memset+0x10>
    3a1a: e6 13        	inc	$13                     ; 0x13 <__rc3>
    3a1c: ca           	dex
    3a1d: e0 ff        	cpx	#$ff
    3a1f: d0 02        	bne	$3a23 <__memset+0x17>
    3a21: c6 14        	dec	$14                     ; 0x14 <__rc4>
    3a23: a4 14        	ldy	$14                     ; 0x14 <__rc4>
    3a25: d0 ed        	bne	$3a14 <__memset+0x8>
    3a27: e0 00        	cpx	#$0
    3a29: d0 e9        	bne	$3a14 <__memset+0x8>
    3a2b: 60           	rts

00003a2c <__mulhi3>:
    3a2c: a4 13        	ldy	$13                     ; 0x13 <__rc3>
    3a2e: d0 04        	bne	$3a34 <__mulhi3+0x8>
    3a30: a4 12        	ldy	$12                     ; 0x12 <__zp_bss_size>
    3a32: f0 25        	beq	$3a59 <__mulhi3+0x2d>
    3a34: 85 14        	sta	$14                     ; 0x14 <__rc4>
    3a36: 86 15        	stx	$15                     ; 0x15 <__rc5>
    3a38: a0 00        	ldy	#$0
    3a3a: 98           	tya
    3a3b: 46 13        	lsr	$13                     ; 0x13 <__rc3>
    3a3d: 66 12        	ror	$12                     ; 0x12 <__zp_bss_size>
    3a3f: 90 09        	bcc	$3a4a <__mulhi3+0x1e>
    3a41: aa           	tax
    3a42: 98           	tya
    3a43: 18           	clc
    3a44: 65 14        	adc	$14                     ; 0x14 <__rc4>
    3a46: a8           	tay
    3a47: 8a           	txa
    3a48: 65 15        	adc	$15                     ; 0x15 <__rc5>
    3a4a: 06 14        	asl	$14                     ; 0x14 <__rc4>
    3a4c: 26 15        	rol	$15                     ; 0x15 <__rc5>
    3a4e: a6 13        	ldx	$13                     ; 0x13 <__rc3>
    3a50: d0 e9        	bne	$3a3b <__mulhi3+0xf>
    3a52: a6 12        	ldx	$12                     ; 0x12 <__zp_bss_size>
    3a54: d0 e5        	bne	$3a3b <__mulhi3+0xf>
    3a56: aa           	tax
    3a57: 98           	tya
    3a58: 60           	rts
    3a59: a0 00        	ldy	#$0
    3a5b: 98           	tya
    3a5c: 80 f8        	bra	$3a56 <__mulhi3+0x2a>
