
grudge.elf:	file format elf32-mos

SYMBOL TABLE:
00000000 l    df *ABS*	00000000 zero-bss.c
00000000 l    df *ABS*	00000000 zero-zp-bss.c
00000000 l    df *ABS*	00000000 copy-zp-data.c
00000000 l    df *ABS*	00000000 ld-temp.o
00000498 l     F .text	00000397 f256Init
0000007c l     O .zp.bss	00000007 kernelEventData
00000036 l     O .zp.bss	00000001 _ccolor
00002e9b l     O .rodata	00000030 textColors
00000037 l     O .zp.bss	00000001 _col
00000038 l     O .zp.bss	00000001 _row
00000039 l     O .zp.bss	00000040 _spriteCtl
00005545 l     O .bss	00000001 kernelError
00000835 l     F .text	00000847 f256main
00001812 l     F .text	0000038d mySpriteDefine
00005365 l     O .bss	000001e0 spriteStatuses
00001658 l     F .text	000001ba updateFrames
00002eef l     O .rodata	00002476 bigpatch
00000030 l     O .zp.data	00000006 stateDelays
0000007b l     O .zp.bss	00000001 padTimer.1
0000107c l     F .text	000005dc checkPads
00002e2e l     F .text	00000032 __mulhi3
00001d83 l     F .text	00000bd3 printf
00002b2e l     F .text	000002b4 malloc
00001ba4 l     F .text	000000d3 _ZN12_GLOBAL__N_13putEcP6Status
00002956 l     F .text	000001d8 putchar
00001c77 l     F .text	0000010c _ZN12_GLOBAL__N_112print_stringEPKcP6Status
00000079 l     O .zp.bss	00000002 __putchar.s
00000083 l     O .zp.bss	00000001 _ZN12_GLOBAL__N_111initializedE
0000031e l     F .text	0000013d _ZN12_GLOBAL__N_19FreeChunk6insertEPvj
00005548 l     O .bss	00000002 _ZN12_GLOBAL__N_19free_listE
00005546 l     O .bss	00000002 _ZN12_GLOBAL__N_19free_sizeE
0000082f g     F .text	00000006 main
00010400 g       .palgrudge	00000000 palgrudge_end
00010800 g       .boy1	00000000 boy1_end
00011400 g       .cath	00000000 cath_end
00011000 g       .girl1	00000000 girl1_end
00013000 g       .dash	00000000 dash_start
00010800 g       .thing	00000000 thing_start
00010400 g       .boy1	00000000 boy1_start
00013800 g       .dash	00000000 dash_end
00011400 g       .cat	00000000 cat_start
00011800 g       .cat	00000000 cat_end
00010000 g       .palgrudge	00000000 palgrudge_start
00010c00 g       .thing	00000000 thing_end
00010c00 g       .girl1	00000000 girl1_start
00011000 g       .cath	00000000 cath_start
0000031a g       .text	00000000 __after_main
00000306 g       .text	00000000 __do_init_stack
00000314 g       .text	00000000 __do_copy_zp_data
00000481 g     F .text	00000017 __copy_zp_data
0000030e g       .text	00000000 __do_zero_bss
0000045b g     F .text	00000013 __zero_bss
00000311 g       .text	00000000 __do_zero_zp_bss
0000046e g     F .text	00000013 __zero_zp_bss
00001b9f g     F .text	00000005 exit
0000031d g       .text	00000000 _fini
00002e60 g       .rodata	00000000 __set_v
00002e0e  w    F .text	00000020 __memset
00001000  w      *ABS*	00000000 __heap_default_limit
0000554a g       .noinit	00000000 __heap_start
00002de2  w    F .text	0000002c memcpy
00000010 g       *ABS*	00000000 __rc0
00000012 g       *ABS*	00000000 __rc2
00000014 g       *ABS*	00000000 __rc4
00000016 g       *ABS*	00000000 __rc6
00000018 g       *ABS*	00000000 __rc8
0000001a g       *ABS*	00000000 __rc10
0000001c g       *ABS*	00000000 __rc12
0000001e g       *ABS*	00000000 __rc14
00000020 g       *ABS*	00000000 __rc16
00000022 g       *ABS*	00000000 __rc18
00000024 g       *ABS*	00000000 __rc20
00000026 g       *ABS*	00000000 __rc22
00000028 g       *ABS*	00000000 __rc24
0000002a g       *ABS*	00000000 __rc26
0000002c g       *ABS*	00000000 __rc28
0000002e g       *ABS*	00000000 __rc30
0000002f g       *ABS*	00000000 __rc31
00000300 g       *ABS*	00000000 __f256_start
0000c000 g       *ABS*	00000000 __stack
0000c000 g       *ABS*	00000000 __SLOT_ADDR
0800c000 g       *ABS*	00000000 __block8_lma
00002000 g       *ABS*	00000000 __BLOCK_SIZE
0900c000 g       *ABS*	00000000 __block9_lma
0a00c000 g       *ABS*	00000000 __block10_lma
0b00c000 g       *ABS*	00000000 __block11_lma
0c00c000 g       *ABS*	00000000 __block12_lma
0d00c000 g       *ABS*	00000000 __block13_lma
0e00c000 g       *ABS*	00000000 __block14_lma
0f00c000 g       *ABS*	00000000 __block15_lma
1000c000 g       *ABS*	00000000 __block16_lma
1100c000 g       *ABS*	00000000 __block17_lma
1200c000 g       *ABS*	00000000 __block18_lma
1300c000 g       *ABS*	00000000 __block19_lma
1400c000 g       *ABS*	00000000 __block20_lma
1500c000 g       *ABS*	00000000 __block21_lma
1600c000 g       *ABS*	00000000 __block22_lma
1700c000 g       *ABS*	00000000 __block23_lma
00010000 g       *ABS*	00000000 __palgrudge_lma
00000400 g       *ABS*	00000000 __palgrudge_size
00010400 g       *ABS*	00000000 __boy1_lma
00000400 g       *ABS*	00000000 __boy1_size
00010800 g       *ABS*	00000000 __thing_lma
00000400 g       *ABS*	00000000 __thing_size
00010c00 g       *ABS*	00000000 __girl1_lma
00000400 g       *ABS*	00000000 __girl1_size
00011000 g       *ABS*	00000000 __cath_lma
00000400 g       *ABS*	00000000 __cath_size
00011400 g       *ABS*	00000000 __cat_lma
00000400 g       *ABS*	00000000 __cat_size
00013000 g       *ABS*	00000000 __dash_lma
00000800 g       *ABS*	00000000 __dash_size
00005365 g       .bss	00000000 __bss_start
00010400 g       .palgrudge	00000000 end_palgrudge
00010800 g       .boy1	00000000 end_boy1
00010c00 g       .thing	00000000 end_thing
00011000 g       .girl1	00000000 end_girl1
00011400 g       .cath	00000000 end_cath
00011800 g       .cat	00000000 end_cat
00013800 g       .dash	00000000 end_dash
00000306 g       .text	00000000 _start
0000002d g       *ABS*	00000000 __rc29
0000002b g       *ABS*	00000000 __rc27
00000029 g       *ABS*	00000000 __rc25
00000027 g       *ABS*	00000000 __rc23
00000025 g       *ABS*	00000000 __rc21
00000023 g       *ABS*	00000000 __rc19
00000021 g       *ABS*	00000000 __rc17
0000001f g       *ABS*	00000000 __rc15
0000001d g       *ABS*	00000000 __rc13
0000001b g       *ABS*	00000000 __rc11
00000019 g       *ABS*	00000000 __rc9
00000017 g       *ABS*	00000000 __rc7
00000015 g       *ABS*	00000000 __rc5
00000013 g       *ABS*	00000000 __rc3
00000011 g       *ABS*	00000000 __rc1
00000030 g       .zp.data	00000000 __zp_data_start
00000300 g       *ABS*	00000000 __zp_data_load_start
00000006 g       *ABS*	00000000 __zp_data_size
00000036 g       .zp.bss	00000000 __zp_bss_start
0000004e g       *ABS*	00000000 __zp_bss_size
00000306 g       .text	00000000 _init
00002e60 g       .text	00000000 __init_array_start
00002e60 g       .text	00000000 __init_array_end
00002e60 g       .text	00000000 __fini_array_start
00002e60 g       .text	00000000 __fini_array_end
00005365 g       .data	00000000 __data_start
00005365 g       .data	00000000 __data_end
00005365 g       *ABS*	00000000 __data_load_start
00000000 g       *ABS*	00000000 __data_size
0000554a g       .bss	00000000 __bss_end
000001e5 g       *ABS*	00000000 __bss_size
0000554a g       .noinit	00000000 end_block8
0000554a g       .noinit	00000000 end_block9
0000554a g       .noinit	00000000 end_block10
0000554a g       .noinit	00000000 end_block11
0000554a g       .noinit	00000000 end_block12
0000554a g       .noinit	00000000 end_block13
0000554a g       .noinit	00000000 end_block14
0000554a g       .noinit	00000000 end_block15
0000554a g       .noinit	00000000 end_block16
0000554a g       .noinit	00000000 end_block17
0000554a g       .noinit	00000000 end_block18
0000554a g       .noinit	00000000 end_block19
0000554a g       .noinit	00000000 end_block20
0000554a g       .noinit	00000000 end_block21
0000554a g       .noinit	00000000 end_block22
0000554a g       .noinit	00000000 end_block23

Disassembly of section .text:

00000306 <_start>:
     306: a9 00        	lda	#$0
     308: 85 10        	sta	$10                     ; 0x10 <__rc0>
     30a: a9 c0        	lda	#$c0
     30c: 85 11        	sta	$11                     ; 0x11 <__rc1>

0000030e <__do_zero_bss>:
     30e: 20 5b 04     	jsr	$45b <__zero_bss>

00000311 <__do_zero_zp_bss>:
     311: 20 6e 04     	jsr	$46e <__zero_zp_bss>

00000314 <__do_copy_zp_data>:
     314: 20 81 04     	jsr	$481 <__copy_zp_data>
     317: 20 2f 08     	jsr	$82f <main>

0000031a <__after_main>:
     31a: 4c 9f 1b     	jmp	$1b9f <exit>

0000031d <_fini>:
     31d: 60           	rts

0000031e <_ZN12_GLOBAL__N_19FreeChunk6insertEPvj>:
     31e: 85 16        	sta	$16                     ; 0x16 <__rc6>
     320: 29 fe        	and	#$fe
     322: 85 14        	sta	$14                     ; 0x14 <__rc4>
     324: a0 01        	ldy	#$1
     326: 98           	tya
     327: 32 12        	and	($12)                   ; 0x12 <__rc2>
     329: 05 14        	ora	$14                     ; 0x14 <__rc4>
     32b: 92 12        	sta	($12)                   ; 0x12 <__rc2>
     32d: a5 12        	lda	$12                     ; 0x12 <__rc2>
     32f: 18           	clc
     330: 65 14        	adc	$14                     ; 0x14 <__rc4>
     332: 85 15        	sta	$15                     ; 0x15 <__rc5>
     334: 8a           	txa
     335: 65 13        	adc	$13                     ; 0x13 <__rc3>
     337: 85 14        	sta	$14                     ; 0x14 <__rc4>
     339: 18           	clc
     33a: a5 15        	lda	$15                     ; 0x15 <__rc5>
     33c: 69 fe        	adc	#$fe
     33e: 85 17        	sta	$17                     ; 0x17 <__rc7>
     340: a5 14        	lda	$14                     ; 0x14 <__rc4>
     342: 69 ff        	adc	#$ff
     344: 85 15        	sta	$15                     ; 0x15 <__rc5>
     346: a5 17        	lda	$17                     ; 0x17 <__rc7>
     348: 85 14        	sta	$14                     ; 0x14 <__rc4>
     34a: 8a           	txa
     34b: 91 12        	sta	($12),y                 ; 0x12 <__rc2>
     34d: a5 16        	lda	$16                     ; 0x16 <__rc6>
     34f: 92 14        	sta	($14)                   ; 0x14 <__rc4>
     351: 8a           	txa
     352: 91 14        	sta	($14),y                 ; 0x14 <__rc4>
     354: b1 12        	lda	($12),y                 ; 0x12 <__rc2>
     356: 85 14        	sta	$14                     ; 0x14 <__rc4>
     358: a9 fe        	lda	#$fe
     35a: 32 12        	and	($12)                   ; 0x12 <__rc2>
     35c: 18           	clc
     35d: 6d 46 55     	adc	$5546                   ; 0x5546 <_ZN12_GLOBAL__N_19free_sizeE>
     360: aa           	tax
     361: a5 14        	lda	$14                     ; 0x14 <__rc4>
     363: 6d 47 55     	adc	$5547                   ; 0x5547 <_ZN12_GLOBAL__N_19free_sizeE+0x1>
     366: a8           	tay
     367: 18           	clc
     368: 8a           	txa
     369: 69 fe        	adc	#$fe
     36b: aa           	tax
     36c: 98           	tya
     36d: 69 ff        	adc	#$ff
     36f: 8e 46 55     	stx	$5546                   ; 0x5546 <_ZN12_GLOBAL__N_19free_sizeE>
     372: 8d 47 55     	sta	$5547                   ; 0x5547 <_ZN12_GLOBAL__N_19free_sizeE+0x1>
     375: ae 48 55     	ldx	$5548                   ; 0x5548 <_ZN12_GLOBAL__N_19free_listE>
     378: 86 16        	stx	$16                     ; 0x16 <__rc6>
     37a: ac 49 55     	ldy	$5549                   ; 0x5549 <_ZN12_GLOBAL__N_19free_listE+0x1>
     37d: a2 00        	ldx	#$0
     37f: 86 14        	stx	$14                     ; 0x14 <__rc4>
     381: a2 00        	ldx	#$0
     383: 86 15        	stx	$15                     ; 0x15 <__rc5>
     385: c4 15        	cpy	$15                     ; 0x15 <__rc5>
     387: d0 3e        	bne	$3c7 <_ZN12_GLOBAL__N_19FreeChunk6insertEPvj+0xa9>
     389: a6 16        	ldx	$16                     ; 0x16 <__rc6>
     38b: e4 14        	cpx	$14                     ; 0x14 <__rc4>
     38d: d0 38        	bne	$3c7 <_ZN12_GLOBAL__N_19FreeChunk6insertEPvj+0xa9>
     38f: a0 04        	ldy	#$4
     391: a5 12        	lda	$12                     ; 0x12 <__rc2>
     393: 18           	clc
     394: 69 04        	adc	#$4
     396: 85 14        	sta	$14                     ; 0x14 <__rc4>
     398: a5 13        	lda	$13                     ; 0x13 <__rc3>
     39a: 69 00        	adc	#$0
     39c: 18           	clc
     39d: 85 15        	sta	$15                     ; 0x15 <__rc5>
     39f: a5 12        	lda	$12                     ; 0x12 <__rc2>
     3a1: 91 12        	sta	($12),y                 ; 0x12 <__rc2>
     3a3: a0 02        	ldy	#$2
     3a5: 85 17        	sta	$17                     ; 0x17 <__rc7>
     3a7: 69 02        	adc	#$2
     3a9: 85 16        	sta	$16                     ; 0x16 <__rc6>
     3ab: a5 17        	lda	$17                     ; 0x17 <__rc7>
     3ad: 91 12        	sta	($12),y                 ; 0x12 <__rc2>
     3af: a5 13        	lda	$13                     ; 0x13 <__rc3>
     3b1: 69 00        	adc	#$0
     3b3: 85 17        	sta	$17                     ; 0x17 <__rc7>
     3b5: 88           	dey
     3b6: a5 13        	lda	$13                     ; 0x13 <__rc3>
     3b8: 91 14        	sta	($14),y                 ; 0x14 <__rc4>
     3ba: 91 16        	sta	($16),y                 ; 0x16 <__rc6>
     3bc: a6 12        	ldx	$12                     ; 0x12 <__rc2>
     3be: 8e 48 55     	stx	$5548                   ; 0x5548 <_ZN12_GLOBAL__N_19free_listE>
     3c1: a6 13        	ldx	$13                     ; 0x13 <__rc3>
     3c3: 8e 49 55     	stx	$5549                   ; 0x5549 <_ZN12_GLOBAL__N_19free_listE+0x1>
     3c6: 60           	rts
     3c7: a6 12        	ldx	$12                     ; 0x12 <__rc2>
     3c9: a5 12        	lda	$12                     ; 0x12 <__rc2>
     3cb: 18           	clc
     3cc: 69 02        	adc	#$2
     3ce: 85 14        	sta	$14                     ; 0x14 <__rc4>
     3d0: 84 18        	sty	$18                     ; 0x18 <__rc8>
     3d2: a5 13        	lda	$13                     ; 0x13 <__rc3>
     3d4: 69 00        	adc	#$0
     3d6: 85 15        	sta	$15                     ; 0x15 <__rc5>
     3d8: a5 16        	lda	$16                     ; 0x16 <__rc6>
     3da: 84 17        	sty	$17                     ; 0x17 <__rc7>
     3dc: a0 02        	ldy	#$2
     3de: 91 12        	sta	($12),y                 ; 0x12 <__rc2>
     3e0: 85 19        	sta	$19                     ; 0x19 <__rc9>
     3e2: 88           	dey
     3e3: a5 18        	lda	$18                     ; 0x18 <__rc8>
     3e5: 91 14        	sta	($14),y                 ; 0x14 <__rc4>
     3e7: 18           	clc
     3e8: a5 19        	lda	$19                     ; 0x19 <__rc9>
     3ea: 69 04        	adc	#$4
     3ec: a8           	tay
     3ed: a5 18        	lda	$18                     ; 0x18 <__rc8>
     3ef: 69 00        	adc	#$0
     3f1: 85 19        	sta	$19                     ; 0x19 <__rc9>
     3f3: 84 18        	sty	$18                     ; 0x18 <__rc8>
     3f5: 8a           	txa
     3f6: 18           	clc
     3f7: 69 04        	adc	#$4
     3f9: 85 1a        	sta	$1a                     ; 0x1a <__rc10>
     3fb: a5 13        	lda	$13                     ; 0x13 <__rc3>
     3fd: 69 00        	adc	#$0
     3ff: 85 1b        	sta	$1b                     ; 0x1b <__rc11>
     401: a0 04        	ldy	#$4
     403: b1 16        	lda	($16),y                 ; 0x16 <__rc6>
     405: 85 16        	sta	$16                     ; 0x16 <__rc6>
     407: 85 1d        	sta	$1d                     ; 0x1d <__rc13>
     409: a0 01        	ldy	#$1
     40b: b1 18        	lda	($18),y                 ; 0x18 <__rc8>
     40d: 85 17        	sta	$17                     ; 0x17 <__rc7>
     40f: 85 19        	sta	$19                     ; 0x19 <__rc9>
     411: a0 04        	ldy	#$4
     413: a5 1d        	lda	$1d                     ; 0x1d <__rc13>
     415: 91 12        	sta	($12),y                 ; 0x12 <__rc2>
     417: a5 19        	lda	$19                     ; 0x19 <__rc9>
     419: a0 01        	ldy	#$1
     41b: 91 1a        	sta	($1a),y                 ; 0x1a <__rc10>
     41d: 18           	clc
     41e: a5 1d        	lda	$1d                     ; 0x1d <__rc13>
     420: 69 02        	adc	#$2
     422: 85 18        	sta	$18                     ; 0x18 <__rc8>
     424: a5 19        	lda	$19                     ; 0x19 <__rc9>
     426: 69 00        	adc	#$0
     428: 85 19        	sta	$19                     ; 0x19 <__rc9>
     42a: 8a           	txa
     42b: c8           	iny
     42c: 91 16        	sta	($16),y                 ; 0x16 <__rc6>
     42e: a5 13        	lda	$13                     ; 0x13 <__rc3>
     430: 88           	dey
     431: 91 18        	sta	($18),y                 ; 0x18 <__rc8>
     433: c8           	iny
     434: b1 12        	lda	($12),y                 ; 0x12 <__rc2>
     436: 85 16        	sta	$16                     ; 0x16 <__rc6>
     438: 85 18        	sta	$18                     ; 0x18 <__rc8>
     43a: 88           	dey
     43b: b1 14        	lda	($14),y                 ; 0x14 <__rc4>
     43d: 85 17        	sta	$17                     ; 0x17 <__rc7>
     43f: 85 14        	sta	$14                     ; 0x14 <__rc4>
     441: 8a           	txa
     442: a0 04        	ldy	#$4
     444: 91 16        	sta	($16),y                 ; 0x16 <__rc6>
     446: 18           	clc
     447: a5 18        	lda	$18                     ; 0x18 <__rc8>
     449: 69 04        	adc	#$4
     44b: a8           	tay
     44c: a5 14        	lda	$14                     ; 0x14 <__rc4>
     44e: 69 00        	adc	#$0
     450: 84 14        	sty	$14                     ; 0x14 <__rc4>
     452: 85 15        	sta	$15                     ; 0x15 <__rc5>
     454: a5 13        	lda	$13                     ; 0x13 <__rc3>
     456: a0 01        	ldy	#$1
     458: 91 14        	sta	($14),y                 ; 0x14 <__rc4>
     45a: 60           	rts

0000045b <__zero_bss>:
     45b: a2 e5        	ldx	#$e5
     45d: a0 01        	ldy	#$1
     45f: a9 65        	lda	#$65
     461: 85 12        	sta	$12                     ; 0x12 <__rc2>
     463: a9 53        	lda	#$53
     465: 85 13        	sta	$13                     ; 0x13 <__rc3>
     467: a9 00        	lda	#$0
     469: 84 14        	sty	$14                     ; 0x14 <__rc4>
     46b: 4c 0e 2e     	jmp	$2e0e <__memset>

0000046e <__zero_zp_bss>:
     46e: a2 4e        	ldx	#$4e
     470: a0 00        	ldy	#$0
     472: a9 36        	lda	#$36
     474: 85 12        	sta	$12                     ; 0x12 <__rc2>
     476: a9 00        	lda	#$0
     478: 85 13        	sta	$13                     ; 0x13 <__rc3>
     47a: a9 00        	lda	#$0
     47c: 84 14        	sty	$14                     ; 0x14 <__rc4>
     47e: 4c 0e 2e     	jmp	$2e0e <__memset>

00000481 <__copy_zp_data>:
     481: a9 06        	lda	#$6
     483: a2 00        	ldx	#$0
     485: a0 30        	ldy	#$30
     487: 84 12        	sty	$12                     ; 0x12 <__rc2>
     489: a0 00        	ldy	#$0
     48b: 84 13        	sty	$13                     ; 0x13 <__rc3>
     48d: a0 00        	ldy	#$0
     48f: 84 14        	sty	$14                     ; 0x14 <__rc4>
     491: a0 03        	ldy	#$3
     493: 84 15        	sty	$15                     ; 0x15 <__rc5>
     495: 4c e2 2d     	jmp	$2de2 <memcpy>

00000498 <f256Init>:
     498: 64 14        	stz	$14                     ; 0x14 <__rc4>
     49a: a2 00        	ldx	#$0
     49c: 86 12        	stx	$12                     ; 0x12 <__rc2>
     49e: a2 c0        	ldx	#$c0
     4a0: 86 13        	stx	$13                     ; 0x13 <__rc3>
     4a2: 64 01        	stz	$1                      ; 0x1 <__data_size+0x1>
     4a4: a2 3f        	ldx	#$3f
     4a6: 8e 00 d0     	stx	$d000                   ; 0xd000 <end_block9+0x7ab6>
     4a9: a2 b3        	ldx	#$b3
     4ab: 86 00        	stx	$0                      ; 0x0 <__data_size>
     4ad: 64 08        	stz	$8                      ; 0x8 <__zp_data_size+0x2>
     4af: a2 01        	ldx	#$1
     4b1: 86 09        	stx	$9                      ; 0x9 <__zp_data_size+0x3>
     4b3: e8           	inx
     4b4: 86 0a        	stx	$a                      ; 0xa <__zp_data_size+0x4>
     4b6: e8           	inx
     4b7: 86 0b        	stx	$b                      ; 0xb <__zp_data_size+0x5>
     4b9: e8           	inx
     4ba: 86 0c        	stx	$c                      ; 0xc <__zp_data_size+0x6>
     4bc: e8           	inx
     4bd: 86 0d        	stx	$d                      ; 0xd <__zp_data_size+0x7>
     4bf: a2 7c        	ldx	#$7c
     4c1: a0 00        	ldy	#$0
     4c3: 86 f0        	stx	$f0                     ; 0xf0 <__zp_bss_size+0xa2>
     4c5: 84 f1        	sty	$f1                     ; 0xf1 <__zp_bss_size+0xa3>
     4c7: a2 00        	ldx	#$0
     4c9: 86 18        	stx	$18                     ; 0x18 <__rc8>
     4cb: ca           	dex
     4cc: 86 19        	stx	$19                     ; 0x19 <__rc9>
     4ce: 8a           	txa
     4cf: 0a           	asl
     4d0: 0a           	asl
     4d1: 18           	clc
     4d2: 69 d4        	adc	#$d4
     4d4: 85 1a        	sta	$1a                     ; 0x1a <__rc10>
     4d6: a0 00        	ldy	#$0
     4d8: 64 17        	stz	$17                     ; 0x17 <__rc7>
     4da: 64 16        	stz	$16                     ; 0x16 <__rc6>
     4dc: a6 19        	ldx	$19                     ; 0x19 <__rc9>
     4de: e0 03        	cpx	#$3
     4e0: a6 01        	ldx	$1                      ; 0x1 <__data_size+0x1>
     4e2: 86 1c        	stx	$1c                     ; 0x1c <__rc12>
     4e4: a2 d0        	ldx	#$d0
     4e6: 84 1b        	sty	$1b                     ; 0x1b <__rc11>
     4e8: b0 02        	bcs	$4ec <f256Init+0x54>
     4ea: a6 1a        	ldx	$1a                     ; 0x1a <__rc10>
     4ec: 86 15        	stx	$15                     ; 0x15 <__rc5>
     4ee: a5 17        	lda	$17                     ; 0x17 <__rc7>
     4f0: 18           	clc
     4f1: 65 14        	adc	$14                     ; 0x14 <__rc4>
     4f3: a8           	tay
     4f4: a6 17        	ldx	$17                     ; 0x17 <__rc7>
     4f6: a5 16        	lda	$16                     ; 0x16 <__rc6>
     4f8: 85 1d        	sta	$1d                     ; 0x1d <__rc13>
     4fa: a5 16        	lda	$16                     ; 0x16 <__rc6>
     4fc: 65 15        	adc	$15                     ; 0x15 <__rc5>
     4fe: 84 16        	sty	$16                     ; 0x16 <__rc6>
     500: a0 01        	ldy	#$1
     502: 84 01        	sty	$1                      ; 0x1 <__data_size+0x1>
     504: 85 17        	sta	$17                     ; 0x17 <__rc7>
     506: a5 1b        	lda	$1b                     ; 0x1b <__rc11>
     508: 92 16        	sta	($16)                   ; 0x16 <__rc6>
     50a: 91 16        	sta	($16),y                 ; 0x16 <__rc6>
     50c: c8           	iny
     50d: 91 16        	sta	($16),y                 ; 0x16 <__rc6>
     50f: 85 15        	sta	$15                     ; 0x15 <__rc5>
     511: c8           	iny
     512: a9 ff        	lda	#$ff
     514: 91 16        	sta	($16),y                 ; 0x16 <__rc6>
     516: 8a           	txa
     517: a6 1c        	ldx	$1c                     ; 0x1c <__rc12>
     519: 86 01        	stx	$1                      ; 0x1 <__data_size+0x1>
     51b: 18           	clc
     51c: 69 04        	adc	#$4
     51e: 85 17        	sta	$17                     ; 0x17 <__rc7>
     520: a5 1d        	lda	$1d                     ; 0x1d <__rc13>
     522: 69 00        	adc	#$0
     524: e6 15        	inc	$15                     ; 0x15 <__rc5>
     526: a4 15        	ldy	$15                     ; 0x15 <__rc5>
     528: 85 16        	sta	$16                     ; 0x16 <__rc6>
     52a: c9 04        	cmp	#$4
     52c: f0 03        	beq	$531 <f256Init+0x99>
     52e: 4c dc 04     	jmp	$4dc <f256Init+0x44>
     531: a5 17        	lda	$17                     ; 0x17 <__rc7>
     533: f0 03        	beq	$538 <f256Init+0xa0>
     535: 4c dc 04     	jmp	$4dc <f256Init+0x44>
     538: a6 18        	ldx	$18                     ; 0x18 <__rc8>
     53a: e8           	inx
     53b: e0 04        	cpx	#$4
     53d: f0 03        	beq	$542 <f256Init+0xaa>
     53f: 4c c9 04     	jmp	$4c9 <f256Init+0x31>
     542: ad 02 d0     	lda	$d002                   ; 0xd002 <end_block9+0x7ab8>
     545: 29 f0        	and	#$f0
     547: 8d 02 d0     	sta	$d002                   ; 0xd002 <end_block9+0x7ab8>
     54a: ad 02 d0     	lda	$d002                   ; 0xd002 <end_block9+0x7ab8>
     54d: 29 0f        	and	#$f
     54f: 09 10        	ora	#$10
     551: 8d 02 d0     	sta	$d002                   ; 0xd002 <end_block9+0x7ab8>
     554: a2 02        	ldx	#$2
     556: 8e 03 d0     	stx	$d003                   ; 0xd003 <end_block9+0x7ab9>
     559: 64 36        	stz	$36                     ; 0x36 <_ccolor>
     55b: ad 01 d0     	lda	$d001                   ; 0xd001 <end_block9+0x7ab7>
     55e: 29 f9        	and	#$f9
     560: 09 04        	ora	#$4
     562: 8d 01 d0     	sta	$d001                   ; 0xd001 <end_block9+0x7ab7>
     565: 64 14        	stz	$14                     ; 0x14 <__rc4>
     567: 9c 10 d0     	stz	$d010                   ; 0xd010 <end_block9+0x7ac6>
     56a: a2 00        	ldx	#$0
     56c: 64 15        	stz	$15                     ; 0x15 <__rc5>
     56e: 86 18        	stx	$18                     ; 0x18 <__rc8>
     570: a4 18        	ldy	$18                     ; 0x18 <__rc8>
     572: be 9b 2e     	ldx	$2e9b,y                 ; 0x2e9b <textColors>
     575: 86 19        	stx	$19                     ; 0x19 <__rc9>
     577: be 9c 2e     	ldx	$2e9c,y                 ; 0x2e9c <textColors+0x1>
     57a: 86 1a        	stx	$1a                     ; 0x1a <__rc10>
     57c: be 9d 2e     	ldx	$2e9d,y                 ; 0x2e9d <textColors+0x2>
     57f: 86 1b        	stx	$1b                     ; 0x1b <__rc11>
     581: a6 15        	ldx	$15                     ; 0x15 <__rc5>
     583: 8e 00 de     	stx	$de00                   ; 0xde00 <end_block9+0x88b6>
     586: 86 17        	stx	$17                     ; 0x17 <__rc7>
     588: 9c 01 de     	stz	$de01                   ; 0xde01 <end_block9+0x88b7>
     58b: a2 04        	ldx	#$4
     58d: 8e 02 de     	stx	$de02                   ; 0xde02 <end_block9+0x88b8>
     590: 9c 03 de     	stz	$de03                   ; 0xde03 <end_block9+0x88b9>
     593: ad 10 de     	lda	$de10                   ; 0xde10 <end_block9+0x88c6>
     596: ac 11 de     	ldy	$de11                   ; 0xde11 <end_block9+0x88c7>
     599: 84 15        	sty	$15                     ; 0x15 <__rc5>
     59b: ac 12 de     	ldy	$de12                   ; 0xde12 <end_block9+0x88c8>
     59e: ac 13 de     	ldy	$de13                   ; 0xde13 <end_block9+0x88c9>
     5a1: 18           	clc
     5a2: 65 14        	adc	$14                     ; 0x14 <__rc4>
     5a4: 85 16        	sta	$16                     ; 0x16 <__rc6>
     5a6: a6 17        	ldx	$17                     ; 0x17 <__rc7>
     5a8: a9 d8        	lda	#$d8
     5aa: 65 15        	adc	$15                     ; 0x15 <__rc5>
     5ac: 85 17        	sta	$17                     ; 0x17 <__rc7>
     5ae: a5 1b        	lda	$1b                     ; 0x1b <__rc11>
     5b0: 92 16        	sta	($16)                   ; 0x16 <__rc6>
     5b2: a0 01        	ldy	#$1
     5b4: a5 1a        	lda	$1a                     ; 0x1a <__rc10>
     5b6: 91 16        	sta	($16),y                 ; 0x16 <__rc6>
     5b8: c8           	iny
     5b9: a5 19        	lda	$19                     ; 0x19 <__rc9>
     5bb: 91 16        	sta	($16),y                 ; 0x16 <__rc6>
     5bd: c8           	iny
     5be: a9 ff        	lda	#$ff
     5c0: 91 16        	sta	($16),y                 ; 0x16 <__rc6>
     5c2: 8e 00 de     	stx	$de00                   ; 0xde00 <end_block9+0x88b6>
     5c5: 9c 01 de     	stz	$de01                   ; 0xde01 <end_block9+0x88b7>
     5c8: c8           	iny
     5c9: 8c 02 de     	sty	$de02                   ; 0xde02 <end_block9+0x88b8>
     5cc: 9c 03 de     	stz	$de03                   ; 0xde03 <end_block9+0x88b9>
     5cf: ad 10 de     	lda	$de10                   ; 0xde10 <end_block9+0x88c6>
     5d2: 85 15        	sta	$15                     ; 0x15 <__rc5>
     5d4: ad 11 de     	lda	$de11                   ; 0xde11 <end_block9+0x88c7>
     5d7: 85 16        	sta	$16                     ; 0x16 <__rc6>
     5d9: a9 40        	lda	#$40
     5db: 18           	clc
     5dc: 65 15        	adc	$15                     ; 0x15 <__rc5>
     5de: a8           	tay
     5df: a9 d8        	lda	#$d8
     5e1: 65 16        	adc	$16                     ; 0x16 <__rc6>
     5e3: 85 17        	sta	$17                     ; 0x17 <__rc7>
     5e5: 84 16        	sty	$16                     ; 0x16 <__rc6>
     5e7: ad 12 de     	lda	$de12                   ; 0xde12 <end_block9+0x88c8>
     5ea: ad 13 de     	lda	$de13                   ; 0xde13 <end_block9+0x88c9>
     5ed: a5 1b        	lda	$1b                     ; 0x1b <__rc11>
     5ef: 92 16        	sta	($16)                   ; 0x16 <__rc6>
     5f1: a5 1a        	lda	$1a                     ; 0x1a <__rc10>
     5f3: a0 01        	ldy	#$1
     5f5: 91 16        	sta	($16),y                 ; 0x16 <__rc6>
     5f7: a5 19        	lda	$19                     ; 0x19 <__rc9>
     5f9: c8           	iny
     5fa: 91 16        	sta	($16),y                 ; 0x16 <__rc6>
     5fc: c8           	iny
     5fd: a9 ff        	lda	#$ff
     5ff: 91 16        	sta	($16),y                 ; 0x16 <__rc6>
     601: e8           	inx
     602: 86 15        	stx	$15                     ; 0x15 <__rc5>
     604: 18           	clc
     605: a5 18        	lda	$18                     ; 0x18 <__rc8>
     607: 69 03        	adc	#$3
     609: aa           	tax
     60a: c9 30        	cmp	#$30
     60c: f0 03        	beq	$611 <f256Init+0x179>
     60e: 4c 6e 05     	jmp	$56e <f256Init+0xd6>
     611: a6 01        	ldx	$1                      ; 0x1 <__data_size+0x1>
     613: 86 18        	stx	$18                     ; 0x18 <__rc8>
     615: a2 50        	ldx	#$50
     617: 8e 00 de     	stx	$de00                   ; 0xde00 <end_block9+0x88b6>
     61a: 9c 01 de     	stz	$de01                   ; 0xde01 <end_block9+0x88b7>
     61d: a2 1e        	ldx	#$1e
     61f: 8e 02 de     	stx	$de02                   ; 0xde02 <end_block9+0x88b8>
     622: 9c 03 de     	stz	$de03                   ; 0xde03 <end_block9+0x88b9>
     625: ae 10 de     	ldx	$de10                   ; 0xde10 <end_block9+0x88c6>
     628: ac 11 de     	ldy	$de11                   ; 0xde11 <end_block9+0x88c7>
     62b: ad 12 de     	lda	$de12                   ; 0xde12 <end_block9+0x88c8>
     62e: ad 13 de     	lda	$de13                   ; 0xde13 <end_block9+0x88c9>
     631: a9 02        	lda	#$2
     633: 85 01        	sta	$1                      ; 0x1 <__data_size+0x1>
     635: e0 01        	cpx	#$1
     637: 98           	tya
     638: e9 00        	sbc	#$0
     63a: 50 02        	bvc	$63e <f256Init+0x1a6>
     63c: 49 80        	eor	#$80
     63e: c9 00        	cmp	#$0
     640: 10 03        	bpl	$645 <f256Init+0x1ad>
     642: 4c 9e 06     	jmp	$69e <f256Init+0x206>
     645: a9 20        	lda	#$20
     647: 86 19        	stx	$19                     ; 0x19 <__rc9>
     649: 86 14        	stx	$14                     ; 0x14 <__rc4>
     64b: 84 15        	sty	$15                     ; 0x15 <__rc5>
     64d: a2 00        	ldx	#$0
     64f: 86 16        	stx	$16                     ; 0x16 <__rc6>
     651: a2 c0        	ldx	#$c0
     653: 86 17        	stx	$17                     ; 0x17 <__rc7>
     655: 92 16        	sta	($16)                   ; 0x16 <__rc6>
     657: e6 16        	inc	$16                     ; 0x16 <__rc6>
     659: d0 02        	bne	$65d <f256Init+0x1c5>
     65b: e6 17        	inc	$17                     ; 0x17 <__rc7>
     65d: a2 ff        	ldx	#$ff
     65f: c6 14        	dec	$14                     ; 0x14 <__rc4>
     661: e4 14        	cpx	$14                     ; 0x14 <__rc4>
     663: d0 02        	bne	$667 <f256Init+0x1cf>
     665: c6 15        	dec	$15                     ; 0x15 <__rc5>
     667: a6 15        	ldx	$15                     ; 0x15 <__rc5>
     669: d0 ea        	bne	$655 <f256Init+0x1bd>
     66b: a6 14        	ldx	$14                     ; 0x14 <__rc4>
     66d: d0 e6        	bne	$655 <f256Init+0x1bd>
     66f: a2 03        	ldx	#$3
     671: 86 01        	stx	$1                      ; 0x1 <__data_size+0x1>
     673: a5 36        	lda	$36                     ; 0x36 <_ccolor>
     675: 29 01        	and	#$1
     677: aa           	tax
     678: a9 40        	lda	#$40
     67a: e0 00        	cpx	#$0
     67c: d0 02        	bne	$680 <f256Init+0x1e8>
     67e: a9 f0        	lda	#$f0
     680: a6 19        	ldx	$19                     ; 0x19 <__rc9>
     682: 92 12        	sta	($12)                   ; 0x12 <__rc2>
     684: e6 12        	inc	$12                     ; 0x12 <__rc2>
     686: d0 02        	bne	$68a <f256Init+0x1f2>
     688: e6 13        	inc	$13                     ; 0x13 <__rc3>
     68a: 85 14        	sta	$14                     ; 0x14 <__rc4>
     68c: ca           	dex
     68d: e0 ff        	cpx	#$ff
     68f: d0 01        	bne	$692 <f256Init+0x1fa>
     691: 88           	dey
     692: a5 14        	lda	$14                     ; 0x14 <__rc4>
     694: c0 00        	cpy	#$0
     696: d0 ea        	bne	$682 <f256Init+0x1ea>
     698: e0 00        	cpx	#$0
     69a: d0 e6        	bne	$682 <f256Init+0x1ea>
     69c: 80 04        	bra	$6a2 <f256Init+0x20a>
     69e: a2 03        	ldx	#$3
     6a0: 86 01        	stx	$1                      ; 0x1 <__data_size+0x1>
     6a2: a6 18        	ldx	$18                     ; 0x18 <__rc8>
     6a4: 86 01        	stx	$1                      ; 0x1 <__data_size+0x1>
     6a6: 64 37        	stz	$37                     ; 0x37 <_col>
     6a8: 9c 14 d0     	stz	$d014                   ; 0xd014 <end_block9+0x7aca>
     6ab: 9c 15 d0     	stz	$d015                   ; 0xd015 <end_block9+0x7acb>
     6ae: 64 38        	stz	$38                     ; 0x38 <_row>
     6b0: 9c 16 d0     	stz	$d016                   ; 0xd016 <end_block9+0x7acc>
     6b3: 9c 17 d0     	stz	$d017                   ; 0xd017 <end_block9+0x7acd>
     6b6: a2 40        	ldx	#$40
     6b8: 8e 00 de     	stx	$de00                   ; 0xde00 <end_block9+0x88b6>
     6bb: a2 01        	ldx	#$1
     6bd: 8e 01 de     	stx	$de01                   ; 0xde01 <end_block9+0x88b7>
     6c0: a2 f0        	ldx	#$f0
     6c2: 8e 02 de     	stx	$de02                   ; 0xde02 <end_block9+0x88b8>
     6c5: 9c 03 de     	stz	$de03                   ; 0xde03 <end_block9+0x88b9>
     6c8: ae 10 de     	ldx	$de10                   ; 0xde10 <end_block9+0x88c6>
     6cb: 86 17        	stx	$17                     ; 0x17 <__rc7>
     6cd: ae 11 de     	ldx	$de11                   ; 0xde11 <end_block9+0x88c7>
     6d0: 86 12        	stx	$12                     ; 0x12 <__rc2>
     6d2: ae 12 de     	ldx	$de12                   ; 0xde12 <end_block9+0x88c8>
     6d5: 86 13        	stx	$13                     ; 0x13 <__rc3>
     6d7: ae 13 de     	ldx	$de13                   ; 0xde13 <end_block9+0x88c9>
     6da: 86 14        	stx	$14                     ; 0x14 <__rc4>
     6dc: a4 12        	ldy	$12                     ; 0x12 <__rc2>
     6de: 84 15        	sty	$15                     ; 0x15 <__rc5>
     6e0: 06 15        	asl	$15                     ; 0x15 <__rc5>
     6e2: a5 13        	lda	$13                     ; 0x13 <__rc3>
     6e4: 2a           	rol
     6e5: 86 16        	stx	$16                     ; 0x16 <__rc6>
     6e7: 26 16        	rol	$16                     ; 0x16 <__rc6>
     6e9: 06 15        	asl	$15                     ; 0x15 <__rc5>
     6eb: 2a           	rol
     6ec: 26 16        	rol	$16                     ; 0x16 <__rc6>
     6ee: 06 15        	asl	$15                     ; 0x15 <__rc5>
     6f0: 2a           	rol
     6f1: 26 16        	rol	$16                     ; 0x16 <__rc6>
     6f3: 85 15        	sta	$15                     ; 0x15 <__rc5>
     6f5: 8d 00 de     	sta	$de00                   ; 0xde00 <end_block9+0x88b6>
     6f8: a5 16        	lda	$16                     ; 0x16 <__rc6>
     6fa: 8d 01 de     	sta	$de01                   ; 0xde01 <end_block9+0x88b7>
     6fd: 9c 02 de     	stz	$de02                   ; 0xde02 <end_block9+0x88b8>
     700: a2 20        	ldx	#$20
     702: 8e 03 de     	stx	$de03                   ; 0xde03 <end_block9+0x88b9>
     705: ae 10 de     	ldx	$de10                   ; 0xde10 <end_block9+0x88c6>
     708: 86 16        	stx	$16                     ; 0x16 <__rc6>
     70a: ae 11 de     	ldx	$de11                   ; 0xde11 <end_block9+0x88c7>
     70d: 86 18        	stx	$18                     ; 0x18 <__rc8>
     70f: ac 12 de     	ldy	$de12                   ; 0xde12 <end_block9+0x88c8>
     712: ae 13 de     	ldx	$de13                   ; 0xde13 <end_block9+0x88c9>
     715: e4 14        	cpx	$14                     ; 0x14 <__rc4>
     717: d0 14        	bne	$72d <f256Init+0x295>
     719: c4 13        	cpy	$13                     ; 0x13 <__rc3>
     71b: d0 10        	bne	$72d <f256Init+0x295>
     71d: a6 18        	ldx	$18                     ; 0x18 <__rc8>
     71f: e4 12        	cpx	$12                     ; 0x12 <__rc2>
     721: d0 0a        	bne	$72d <f256Init+0x295>
     723: a6 16        	ldx	$16                     ; 0x16 <__rc6>
     725: e4 17        	cpx	$17                     ; 0x17 <__rc7>
     727: d0 04        	bne	$72d <f256Init+0x295>
     729: a6 15        	ldx	$15                     ; 0x15 <__rc5>
     72b: 80 06        	bra	$733 <f256Init+0x29b>
     72d: a6 15        	ldx	$15                     ; 0x15 <__rc5>
     72f: e8           	inx
     730: d0 01        	bne	$733 <f256Init+0x29b>
     732: 1a           	inc
     733: 8e 00 de     	stx	$de00                   ; 0xde00 <end_block9+0x88b6>
     736: 8d 01 de     	sta	$de01                   ; 0xde01 <end_block9+0x88b7>
     739: 9c 02 de     	stz	$de02                   ; 0xde02 <end_block9+0x88b8>
     73c: a2 20        	ldx	#$20
     73e: 8e 03 de     	stx	$de03                   ; 0xde03 <end_block9+0x88b9>
     741: ae 10 de     	ldx	$de10                   ; 0xde10 <end_block9+0x88c6>
     744: 86 12        	stx	$12                     ; 0x12 <__rc2>
     746: ae 11 de     	ldx	$de11                   ; 0xde11 <end_block9+0x88c7>
     749: 86 13        	stx	$13                     ; 0x13 <__rc3>
     74b: ae 12 de     	ldx	$de12                   ; 0xde12 <end_block9+0x88c8>
     74e: 86 14        	stx	$14                     ; 0x14 <__rc4>
     750: 38           	sec
     751: a9 00        	lda	#$0
     753: e5 12        	sbc	$12                     ; 0x12 <__rc2>
     755: a8           	tay
     756: a9 00        	lda	#$0
     758: e5 13        	sbc	$13                     ; 0x13 <__rc3>
     75a: 85 15        	sta	$15                     ; 0x15 <__rc5>
     75c: a9 08        	lda	#$8
     75e: e5 14        	sbc	$14                     ; 0x14 <__rc4>
     760: aa           	tax
     761: 38           	sec
     762: 98           	tya
     763: 84 17        	sty	$17                     ; 0x17 <__rc7>
     765: e5 12        	sbc	$12                     ; 0x12 <__rc2>
     767: 85 16        	sta	$16                     ; 0x16 <__rc6>
     769: a5 15        	lda	$15                     ; 0x15 <__rc5>
     76b: e5 13        	sbc	$13                     ; 0x13 <__rc3>
     76d: 85 18        	sta	$18                     ; 0x18 <__rc8>
     76f: 8a           	txa
     770: 86 19        	stx	$19                     ; 0x19 <__rc9>
     772: e5 14        	sbc	$14                     ; 0x14 <__rc4>
     774: a8           	tay
     775: 38           	sec
     776: a5 16        	lda	$16                     ; 0x16 <__rc6>
     778: e5 12        	sbc	$12                     ; 0x12 <__rc2>
     77a: 85 12        	sta	$12                     ; 0x12 <__rc2>
     77c: a5 18        	lda	$18                     ; 0x18 <__rc8>
     77e: e5 13        	sbc	$13                     ; 0x13 <__rc3>
     780: 85 13        	sta	$13                     ; 0x13 <__rc3>
     782: 98           	tya
     783: e5 14        	sbc	$14                     ; 0x14 <__rc4>
     785: ae 13 de     	ldx	$de13                   ; 0xde13 <end_block9+0x88c9>
     788: a6 17        	ldx	$17                     ; 0x17 <__rc7>
     78a: 8e 01 d1     	stx	$d101                   ; 0xd101 <end_block9+0x7bb7>
     78d: a6 15        	ldx	$15                     ; 0x15 <__rc5>
     78f: 8e 02 d1     	stx	$d102                   ; 0xd102 <end_block9+0x7bb8>
     792: a6 19        	ldx	$19                     ; 0x19 <__rc9>
     794: 8e 03 d1     	stx	$d103                   ; 0xd103 <end_block9+0x7bb9>
     797: a6 16        	ldx	$16                     ; 0x16 <__rc6>
     799: 8e 09 d1     	stx	$d109                   ; 0xd109 <end_block9+0x7bbf>
     79c: a6 18        	ldx	$18                     ; 0x18 <__rc8>
     79e: 8e 0a d1     	stx	$d10a                   ; 0xd10a <end_block9+0x7bc0>
     7a1: 8c 0b d1     	sty	$d10b                   ; 0xd10b <end_block9+0x7bc1>
     7a4: a6 12        	ldx	$12                     ; 0x12 <__rc2>
     7a6: 8e 11 d1     	stx	$d111                   ; 0xd111 <end_block9+0x7bc7>
     7a9: a6 13        	ldx	$13                     ; 0x13 <__rc3>
     7ab: 8e 12 d1     	stx	$d112                   ; 0xd112 <end_block9+0x7bc8>
     7ae: 8d 13 d1     	sta	$d113                   ; 0xd113 <end_block9+0x7bc9>
     7b1: 9c 00 d1     	stz	$d100                   ; 0xd100 <end_block9+0x7bb6>
     7b4: 9c 08 d1     	stz	$d108                   ; 0xd108 <end_block9+0x7bbe>
     7b7: 9c 10 d1     	stz	$d110                   ; 0xd110 <end_block9+0x7bc6>
     7ba: a2 10        	ldx	#$10
     7bc: 8e 00 d2     	stx	$d200                   ; 0xd200 <end_block9+0x7cb6>
     7bf: 8e 0c d2     	stx	$d20c                   ; 0xd20c <end_block9+0x7cc2>
     7c2: 8e 18 d2     	stx	$d218                   ; 0xd218 <end_block9+0x7cce>
     7c5: a0 d9        	ldy	#$d9
     7c7: 64 12        	stz	$12                     ; 0x12 <__rc2>
     7c9: a2 00        	ldx	#$0
     7cb: 84 13        	sty	$13                     ; 0x13 <__rc3>
     7cd: b5 39        	lda	$39,x                   ; 0x39 <_spriteCtl>
     7cf: 92 12        	sta	($12)                   ; 0x12 <__rc2>
     7d1: a5 12        	lda	$12                     ; 0x12 <__rc2>
     7d3: e8           	inx
     7d4: 18           	clc
     7d5: 69 08        	adc	#$8
     7d7: 85 12        	sta	$12                     ; 0x12 <__rc2>
     7d9: 98           	tya
     7da: 69 00        	adc	#$0
     7dc: a8           	tay
     7dd: e0 40        	cpx	#$40
     7df: d0 ea        	bne	$7cb <f256Init+0x333>
     7e1: a2 84        	ldx	#$84
     7e3: a0 00        	ldy	#$0
     7e5: 86 fb        	stx	$fb                     ; 0xfb <__zp_bss_size+0xad>
     7e7: 84 fc        	sty	$fc                     ; 0xfc <__zp_bss_size+0xae>
     7e9: a2 08        	ldx	#$8
     7eb: 86 fd        	stx	$fd                     ; 0xfd <__zp_bss_size+0xaf>
     7ed: a2 8c        	ldx	#$8c
     7ef: a0 00        	ldy	#$0
     7f1: 86 12        	stx	$12                     ; 0x12 <__rc2>
     7f3: 84 13        	sty	$13                     ; 0x13 <__rc3>
     7f5: a2 45        	ldx	#$45
     7f7: 86 14        	stx	$14                     ; 0x14 <__rc4>
     7f9: a2 55        	ldx	#$55
     7fb: 86 15        	stx	$15                     ; 0x15 <__rc5>
     7fd: 20 dc ff     	jsr	$ffdc <end_block9+0xaa92>
     800: 92 12        	sta	($12)                   ; 0x12 <__rc2>
     802: a9 00        	lda	#$0
     804: 6a           	ror
     805: 85 14        	sta	$14                     ; 0x14 <__rc4>
     807: a6 8a        	ldx	$8a                     ; 0x8a <__zp_bss_size+0x3c>
     809: a4 8b        	ldy	$8b                     ; 0x8b <__zp_bss_size+0x3d>
     80b: 8e 00 de     	stx	$de00                   ; 0xde00 <end_block9+0x88b6>
     80e: 9c 01 de     	stz	$de01                   ; 0xde01 <end_block9+0x88b7>
     811: 8c 02 de     	sty	$de02                   ; 0xde02 <end_block9+0x88b8>
     814: 9c 03 de     	stz	$de03                   ; 0xde03 <end_block9+0x88b9>
     817: ae 10 de     	ldx	$de10                   ; 0xde10 <end_block9+0x88c6>
     81a: ac 11 de     	ldy	$de11                   ; 0xde11 <end_block9+0x88c7>
     81d: ad 12 de     	lda	$de12                   ; 0xde12 <end_block9+0x88c8>
     820: ad 13 de     	lda	$de13                   ; 0xde13 <end_block9+0x88c9>
     823: 8e a4 d6     	stx	$d6a4                   ; 0xd6a4 <end_block9+0x815a>
     826: 8c a5 d6     	sty	$d6a5                   ; 0xd6a5 <end_block9+0x815b>
     829: a2 03        	ldx	#$3
     82b: 8e a6 d6     	stx	$d6a6                   ; 0xd6a6 <end_block9+0x815c>
     82e: 60           	rts

0000082f <main>:
     82f: 20 98 04     	jsr	$498 <f256Init>
     832: 20 35 08     	jsr	$835 <f256main>

00000835 <f256main>:
     835: 18           	clc
     836: a5 10        	lda	$10                     ; 0x10 <__rc0>
     838: 69 ff        	adc	#$ff
     83a: 85 10        	sta	$10                     ; 0x10 <__rc0>
     83c: a5 11        	lda	$11                     ; 0x11 <__rc1>
     83e: 69 ff        	adc	#$ff
     840: 85 11        	sta	$11                     ; 0x11 <__rc1>
     842: 64 01        	stz	$1                      ; 0x1 <__data_size+0x1>
     844: a2 2f        	ldx	#$2f
     846: 8e 00 d0     	stx	$d000                   ; 0xd000 <end_block9+0x7ab6>
     849: a2 04        	ldx	#$4
     84b: 8e 01 d0     	stx	$d001                   ; 0xd001 <end_block9+0x7ab7>
     84e: a2 01        	ldx	#$1
     850: 8e 02 d0     	stx	$d002                   ; 0xd002 <end_block9+0x7ab8>
     853: a0 02        	ldy	#$2
     855: 8c 03 d0     	sty	$d003                   ; 0xd003 <end_block9+0x7ab9>
     858: a0 bb        	ldy	#$bb
     85a: 8c 0d d0     	sty	$d00d                   ; 0xd00d <end_block9+0x7ac3>
     85d: 8c 0e d0     	sty	$d00e                   ; 0xd00e <end_block9+0x7ac4>
     860: 8c 0f d0     	sty	$d00f                   ; 0xd00f <end_block9+0x7ac5>
     863: 86 01        	stx	$1                      ; 0x1 <__data_size+0x1>
     865: a0 fc        	ldy	#$fc
     867: a9 ff        	lda	#$ff
     869: 85 12        	sta	$12                     ; 0x12 <__rc2>
     86b: 85 13        	sta	$13                     ; 0x13 <__rc3>
     86d: a5 0f        	lda	$f                      ; 0xf <__zp_data_size+0x9>
     86f: 85 17        	sta	$17                     ; 0x17 <__rc7>
     871: 78           	sei
     872: a9 08        	lda	#$8
     874: 85 0f        	sta	$f                      ; 0xf <__zp_data_size+0x9>
     876: 18           	clc
     877: 8a           	txa
     878: 69 ff        	adc	#$ff
     87a: 85 16        	sta	$16                     ; 0x16 <__rc6>
     87c: a9 01        	lda	#$1
     87e: b0 02        	bcs	$882 <f256main+0x4d>
     880: a9 00        	lda	#$0
     882: 85 18        	sta	$18                     ; 0x18 <__rc8>
     884: 98           	tya
     885: 69 e3        	adc	#$e3
     887: 5a           	phy
     888: a4 16        	ldy	$16                     ; 0x16 <__rc6>
     88a: 84 14        	sty	$14                     ; 0x14 <__rc4>
     88c: 7a           	ply
     88d: 85 15        	sta	$15                     ; 0x15 <__rc5>
     88f: b2 14        	lda	($14)                   ; 0x14 <__rc4>
     891: 85 19        	sta	$19                     ; 0x19 <__rc9>
     893: a5 17        	lda	$17                     ; 0x17 <__rc7>
     895: 85 0f        	sta	$f                      ; 0xf <__zp_data_size+0x9>
     897: 98           	tya
     898: 5a           	phy
     899: a4 18        	ldy	$18                     ; 0x18 <__rc8>
     89b: c0 01        	cpy	#$1
     89d: 7a           	ply
     89e: 69 d3        	adc	#$d3
     8a0: 58           	cli
     8a1: 85 15        	sta	$15                     ; 0x15 <__rc5>
     8a3: a5 19        	lda	$19                     ; 0x19 <__rc9>
     8a5: 92 14        	sta	($14)                   ; 0x14 <__rc4>
     8a7: e8           	inx
     8a8: d0 c3        	bne	$86d <f256main+0x38>
     8aa: c8           	iny
     8ab: d0 c0        	bne	$86d <f256main+0x38>
     8ad: e6 12        	inc	$12                     ; 0x12 <__rc2>
     8af: d0 bc        	bne	$86d <f256main+0x38>
     8b1: e6 13        	inc	$13                     ; 0x13 <__rc3>
     8b3: d0 b8        	bne	$86d <f256main+0x38>
     8b5: 64 01        	stz	$1                      ; 0x1 <__data_size+0x1>
     8b7: 9c 00 d1     	stz	$d100                   ; 0xd100 <end_block9+0x7bb6>
     8ba: 9c 08 d1     	stz	$d108                   ; 0xd108 <end_block9+0x7bbe>
     8bd: 9c 10 d1     	stz	$d110                   ; 0xd110 <end_block9+0x7bc6>
     8c0: a2 04        	ldx	#$4
     8c2: a0 01        	ldy	#$1
     8c4: a9 64        	lda	#$64
     8c6: 86 12        	stx	$12                     ; 0x12 <__rc2>
     8c8: 84 13        	sty	$13                     ; 0x13 <__rc3>
     8ca: 64 14        	stz	$14                     ; 0x14 <__rc4>
     8cc: 64 15        	stz	$15                     ; 0x15 <__rc5>
     8ce: 85 16        	sta	$16                     ; 0x16 <__rc6>
     8d0: 64 17        	stz	$17                     ; 0x17 <__rc7>
     8d2: a2 32        	ldx	#$32
     8d4: 86 18        	stx	$18                     ; 0x18 <__rc8>
     8d6: 64 19        	stz	$19                     ; 0x19 <__rc9>
     8d8: 84 1a        	sty	$1a                     ; 0x1a <__rc10>
     8da: 64 1b        	stz	$1b                     ; 0x1b <__rc11>
     8dc: a2 00        	ldx	#$0
     8de: 8a           	txa
     8df: 20 12 18     	jsr	$1812 <mySpriteDefine>
     8e2: a9 08        	lda	#$8
     8e4: a0 c8        	ldy	#$c8
     8e6: a2 02        	ldx	#$2
     8e8: 85 12        	sta	$12                     ; 0x12 <__rc2>
     8ea: a9 01        	lda	#$1
     8ec: 85 13        	sta	$13                     ; 0x13 <__rc3>
     8ee: 64 14        	stz	$14                     ; 0x14 <__rc4>
     8f0: 86 15        	stx	$15                     ; 0x15 <__rc5>
     8f2: 84 16        	sty	$16                     ; 0x16 <__rc6>
     8f4: 64 17        	stz	$17                     ; 0x17 <__rc7>
     8f6: a2 32        	ldx	#$32
     8f8: 86 18        	stx	$18                     ; 0x18 <__rc8>
     8fa: 64 19        	stz	$19                     ; 0x19 <__rc9>
     8fc: 85 1a        	sta	$1a                     ; 0x1a <__rc10>
     8fe: 64 1b        	stz	$1b                     ; 0x1b <__rc11>
     900: a2 00        	ldx	#$0
     902: 20 12 18     	jsr	$1812 <mySpriteDefine>
     905: a2 0c        	ldx	#$c
     907: a0 50        	ldy	#$50
     909: 86 12        	stx	$12                     ; 0x12 <__rc2>
     90b: a9 01        	lda	#$1
     90d: 85 13        	sta	$13                     ; 0x13 <__rc3>
     90f: 64 14        	stz	$14                     ; 0x14 <__rc4>
     911: 64 15        	stz	$15                     ; 0x15 <__rc5>
     913: a2 64        	ldx	#$64
     915: 86 16        	stx	$16                     ; 0x16 <__rc6>
     917: 64 17        	stz	$17                     ; 0x17 <__rc7>
     919: 84 18        	sty	$18                     ; 0x18 <__rc8>
     91b: 64 19        	stz	$19                     ; 0x19 <__rc9>
     91d: 85 1a        	sta	$1a                     ; 0x1a <__rc10>
     91f: 64 1b        	stz	$1b                     ; 0x1b <__rc11>
     921: a2 00        	ldx	#$0
     923: 1a           	inc
     924: 20 12 18     	jsr	$1812 <mySpriteDefine>
     927: a2 10        	ldx	#$10
     929: a9 03        	lda	#$3
     92b: 86 12        	stx	$12                     ; 0x12 <__rc2>
     92d: a2 02        	ldx	#$2
     92f: 86 15        	stx	$15                     ; 0x15 <__rc5>
     931: a2 c8        	ldx	#$c8
     933: 86 16        	stx	$16                     ; 0x16 <__rc6>
     935: a2 01        	ldx	#$1
     937: 86 13        	stx	$13                     ; 0x13 <__rc3>
     939: 64 14        	stz	$14                     ; 0x14 <__rc4>
     93b: 64 17        	stz	$17                     ; 0x17 <__rc7>
     93d: a0 50        	ldy	#$50
     93f: 84 18        	sty	$18                     ; 0x18 <__rc8>
     941: 64 19        	stz	$19                     ; 0x19 <__rc9>
     943: 86 1a        	stx	$1a                     ; 0x1a <__rc10>
     945: 64 1b        	stz	$1b                     ; 0x1b <__rc11>
     947: ca           	dex
     948: 20 12 18     	jsr	$1812 <mySpriteDefine>
     94b: a0 14        	ldy	#$14
     94d: a9 6e        	lda	#$6e
     94f: 84 12        	sty	$12                     ; 0x12 <__rc2>
     951: a0 01        	ldy	#$1
     953: 84 13        	sty	$13                     ; 0x13 <__rc3>
     955: 64 14        	stz	$14                     ; 0x14 <__rc4>
     957: 64 15        	stz	$15                     ; 0x15 <__rc5>
     959: a2 64        	ldx	#$64
     95b: 86 16        	stx	$16                     ; 0x16 <__rc6>
     95d: 64 17        	stz	$17                     ; 0x17 <__rc7>
     95f: 85 18        	sta	$18                     ; 0x18 <__rc8>
     961: 64 19        	stz	$19                     ; 0x19 <__rc9>
     963: 84 1a        	sty	$1a                     ; 0x1a <__rc10>
     965: 64 1b        	stz	$1b                     ; 0x1b <__rc11>
     967: a2 00        	ldx	#$0
     969: a9 04        	lda	#$4
     96b: 20 12 18     	jsr	$1812 <mySpriteDefine>
     96e: a2 30        	ldx	#$30
     970: a9 0a        	lda	#$a
     972: 86 12        	stx	$12                     ; 0x12 <__rc2>
     974: a2 01        	ldx	#$1
     976: 86 13        	stx	$13                     ; 0x13 <__rc3>
     978: 64 14        	stz	$14                     ; 0x14 <__rc4>
     97a: 64 15        	stz	$15                     ; 0x15 <__rc5>
     97c: 64 16        	stz	$16                     ; 0x16 <__rc6>
     97e: 64 17        	stz	$17                     ; 0x17 <__rc7>
     980: 64 18        	stz	$18                     ; 0x18 <__rc8>
     982: 64 19        	stz	$19                     ; 0x19 <__rc9>
     984: 64 1a        	stz	$1a                     ; 0x1a <__rc10>
     986: 86 1b        	stx	$1b                     ; 0x1b <__rc11>
     988: ca           	dex
     989: 20 12 18     	jsr	$1812 <mySpriteDefine>
     98c: a9 0b        	lda	#$b
     98e: a2 30        	ldx	#$30
     990: 86 12        	stx	$12                     ; 0x12 <__rc2>
     992: a2 01        	ldx	#$1
     994: 86 13        	stx	$13                     ; 0x13 <__rc3>
     996: 64 14        	stz	$14                     ; 0x14 <__rc4>
     998: 64 15        	stz	$15                     ; 0x15 <__rc5>
     99a: 64 16        	stz	$16                     ; 0x16 <__rc6>
     99c: 64 17        	stz	$17                     ; 0x17 <__rc7>
     99e: 64 18        	stz	$18                     ; 0x18 <__rc8>
     9a0: 64 19        	stz	$19                     ; 0x19 <__rc9>
     9a2: 64 1a        	stz	$1a                     ; 0x1a <__rc10>
     9a4: 86 1b        	stx	$1b                     ; 0x1b <__rc11>
     9a6: ca           	dex
     9a7: 20 12 18     	jsr	$1812 <mySpriteDefine>
     9aa: a9 0c        	lda	#$c
     9ac: a2 30        	ldx	#$30
     9ae: 86 12        	stx	$12                     ; 0x12 <__rc2>
     9b0: a2 01        	ldx	#$1
     9b2: 86 13        	stx	$13                     ; 0x13 <__rc3>
     9b4: 64 14        	stz	$14                     ; 0x14 <__rc4>
     9b6: 64 15        	stz	$15                     ; 0x15 <__rc5>
     9b8: 64 16        	stz	$16                     ; 0x16 <__rc6>
     9ba: 64 17        	stz	$17                     ; 0x17 <__rc7>
     9bc: 64 18        	stz	$18                     ; 0x18 <__rc8>
     9be: 64 19        	stz	$19                     ; 0x19 <__rc9>
     9c0: 64 1a        	stz	$1a                     ; 0x1a <__rc10>
     9c2: 86 1b        	stx	$1b                     ; 0x1b <__rc11>
     9c4: ca           	dex
     9c5: 20 12 18     	jsr	$1812 <mySpriteDefine>
     9c8: a9 0d        	lda	#$d
     9ca: a2 30        	ldx	#$30
     9cc: 86 12        	stx	$12                     ; 0x12 <__rc2>
     9ce: a2 01        	ldx	#$1
     9d0: 86 13        	stx	$13                     ; 0x13 <__rc3>
     9d2: 64 14        	stz	$14                     ; 0x14 <__rc4>
     9d4: 64 15        	stz	$15                     ; 0x15 <__rc5>
     9d6: 64 16        	stz	$16                     ; 0x16 <__rc6>
     9d8: 64 17        	stz	$17                     ; 0x17 <__rc7>
     9da: 64 18        	stz	$18                     ; 0x18 <__rc8>
     9dc: 64 19        	stz	$19                     ; 0x19 <__rc9>
     9de: 64 1a        	stz	$1a                     ; 0x1a <__rc10>
     9e0: 86 1b        	stx	$1b                     ; 0x1b <__rc11>
     9e2: ca           	dex
     9e3: 20 12 18     	jsr	$1812 <mySpriteDefine>
     9e6: a9 0e        	lda	#$e
     9e8: a2 30        	ldx	#$30
     9ea: 86 12        	stx	$12                     ; 0x12 <__rc2>
     9ec: a2 01        	ldx	#$1
     9ee: 86 13        	stx	$13                     ; 0x13 <__rc3>
     9f0: 64 14        	stz	$14                     ; 0x14 <__rc4>
     9f2: 64 15        	stz	$15                     ; 0x15 <__rc5>
     9f4: 64 16        	stz	$16                     ; 0x16 <__rc6>
     9f6: 64 17        	stz	$17                     ; 0x17 <__rc7>
     9f8: 64 18        	stz	$18                     ; 0x18 <__rc8>
     9fa: 64 19        	stz	$19                     ; 0x19 <__rc9>
     9fc: 64 1a        	stz	$1a                     ; 0x1a <__rc10>
     9fe: 86 1b        	stx	$1b                     ; 0x1b <__rc11>
     a00: ca           	dex
     a01: 20 12 18     	jsr	$1812 <mySpriteDefine>
     a04: 9c 78 53     	stz	$5378                   ; 0x5378 <spriteStatuses+0x13>
     a07: a2 01        	ldx	#$1
     a09: 8e 69 53     	stx	$5369                   ; 0x5369 <spriteStatuses+0x4>
     a0c: 8e 90 53     	stx	$5390                   ; 0x5390 <spriteStatuses+0x2b>
     a0f: 9c 81 53     	stz	$5381                   ; 0x5381 <spriteStatuses+0x1c>
     a12: 9c a8 53     	stz	$53a8                   ; 0x53a8 <spriteStatuses+0x43>
     a15: 8e 99 53     	stx	$5399                   ; 0x5399 <spriteStatuses+0x34>
     a18: 8e c0 53     	stx	$53c0                   ; 0x53c0 <spriteStatuses+0x5b>
     a1b: 9c b1 53     	stz	$53b1                   ; 0x53b1 <spriteStatuses+0x4c>
     a1e: 9c d8 53     	stz	$53d8                   ; 0x53d8 <spriteStatuses+0x73>
     a21: 8e c9 53     	stx	$53c9                   ; 0x53c9 <spriteStatuses+0x64>
     a24: 20 58 16     	jsr	$1658 <updateFrames>
     a27: a2 1f        	ldx	#$1f
     a29: 8e 20 d6     	stx	$d620                   ; 0xd620 <end_block9+0x80d6>
     a2c: a2 2a        	ldx	#$2a
     a2e: 8e 21 d6     	stx	$d621                   ; 0xd621 <end_block9+0x80d7>
     a31: a2 01        	ldx	#$1
     a33: 8e 22 d6     	stx	$d622                   ; 0xd622 <end_block9+0x80d8>
     a36: ad 22 d6     	lda	$d622                   ; 0xd622 <end_block9+0x80d8>
     a39: 29 01        	and	#$1
     a3b: d0 f9        	bne	$a36 <f256main+0x201>
     a3d: a2 03        	ldx	#$3
     a3f: 8e 01 d7     	stx	$d701                   ; 0xd701 <end_block9+0x81b7>
     a42: 9c 02 d7     	stz	$d702                   ; 0xd702 <end_block9+0x81b8>
     a45: 9c 02 d7     	stz	$d702                   ; 0xd702 <end_block9+0x81b8>
     a48: a2 e0        	ldx	#$e0
     a4a: 8e 03 d7     	stx	$d703                   ; 0xd703 <end_block9+0x81b9>
     a4d: a2 01        	ldx	#$1
     a4f: 8e 00 d7     	stx	$d700                   ; 0xd700 <end_block9+0x81b6>
     a52: 9c 00 d7     	stz	$d700                   ; 0xd700 <end_block9+0x81b6>
     a55: ae 00 d7     	ldx	$d700                   ; 0xd700 <end_block9+0x81b6>
     a58: 30 fb        	bmi	$a55 <f256main+0x220>
     a5a: 64 12        	stz	$12                     ; 0x12 <__rc2>
     a5c: a0 01        	ldy	#$1
     a5e: a2 00        	ldx	#$0
     a60: a5 12        	lda	$12                     ; 0x12 <__rc2>
     a62: 85 14        	sta	$14                     ; 0x14 <__rc4>
     a64: a5 12        	lda	$12                     ; 0x12 <__rc2>
     a66: 0a           	asl
     a67: 85 12        	sta	$12                     ; 0x12 <__rc2>
     a69: 8a           	txa
     a6a: 2a           	rol
     a6b: 85 13        	sta	$13                     ; 0x13 <__rc3>
     a6d: a9 ef        	lda	#$ef
     a6f: 18           	clc
     a70: 65 12        	adc	$12                     ; 0x12 <__rc2>
     a72: 85 12        	sta	$12                     ; 0x12 <__rc2>
     a74: a9 2e        	lda	#$2e
     a76: 65 13        	adc	$13                     ; 0x13 <__rc3>
     a78: 85 15        	sta	$15                     ; 0x15 <__rc5>
     a7a: a5 12        	lda	$12                     ; 0x12 <__rc2>
     a7c: 85 17        	sta	$17                     ; 0x17 <__rc7>
     a7e: a5 15        	lda	$15                     ; 0x15 <__rc5>
     a80: 85 13        	sta	$13                     ; 0x13 <__rc3>
     a82: b2 12        	lda	($12)                   ; 0x12 <__rc2>
     a84: 85 16        	sta	$16                     ; 0x16 <__rc6>
     a86: 18           	clc
     a87: a5 14        	lda	$14                     ; 0x14 <__rc4>
     a89: 85 1a        	sta	$1a                     ; 0x1a <__rc10>
     a8b: a5 14        	lda	$14                     ; 0x14 <__rc4>
     a8d: 69 02        	adc	#$2
     a8f: 85 18        	sta	$18                     ; 0x18 <__rc8>
     a91: 86 19        	stx	$19                     ; 0x19 <__rc9>
     a93: 8a           	txa
     a94: 69 00        	adc	#$0
     a96: aa           	tax
     a97: 18           	clc
     a98: a5 17        	lda	$17                     ; 0x17 <__rc7>
     a9a: 69 02        	adc	#$2
     a9c: 85 14        	sta	$14                     ; 0x14 <__rc4>
     a9e: a5 15        	lda	$15                     ; 0x15 <__rc5>
     aa0: 69 00        	adc	#$0
     aa2: 85 15        	sta	$15                     ; 0x15 <__rc5>
     aa4: b1 12        	lda	($12),y                 ; 0x12 <__rc2>
     aa6: 85 17        	sta	$17                     ; 0x17 <__rc7>
     aa8: a0 02        	ldy	#$2
     aaa: b1 12        	lda	($12),y                 ; 0x12 <__rc2>
     aac: 85 13        	sta	$13                     ; 0x13 <__rc3>
     aae: 88           	dey
     aaf: b1 14        	lda	($14),y                 ; 0x14 <__rc4>
     ab1: 10 03        	bpl	$ab6 <f256main+0x281>
     ab3: 4c 3e 0b     	jmp	$b3e <f256main+0x309>
     ab6: 85 12        	sta	$12                     ; 0x12 <__rc2>
     ab8: 85 15        	sta	$15                     ; 0x15 <__rc5>
     aba: a5 13        	lda	$13                     ; 0x13 <__rc3>
     abc: e6 12        	inc	$12                     ; 0x12 <__rc2>
     abe: c6 12        	dec	$12                     ; 0x12 <__rc2>
     ac0: d0 07        	bne	$ac9 <f256main+0x294>
     ac2: c9 00        	cmp	#$0
     ac4: d0 03        	bne	$ac9 <f256main+0x294>
     ac6: 4c c2 0b     	jmp	$bc2 <f256main+0x38d>
     ac9: a5 13        	lda	$13                     ; 0x13 <__rc3>
     acb: 85 14        	sta	$14                     ; 0x14 <__rc4>
     acd: a5 18        	lda	$18                     ; 0x18 <__rc8>
     acf: 85 19        	sta	$19                     ; 0x19 <__rc9>
     ad1: a5 18        	lda	$18                     ; 0x18 <__rc8>
     ad3: 0a           	asl
     ad4: 85 12        	sta	$12                     ; 0x12 <__rc2>
     ad6: 86 18        	stx	$18                     ; 0x18 <__rc8>
     ad8: 8a           	txa
     ad9: 2a           	rol
     ada: 85 13        	sta	$13                     ; 0x13 <__rc3>
     adc: a9 ef        	lda	#$ef
     ade: 18           	clc
     adf: 65 12        	adc	$12                     ; 0x12 <__rc2>
     ae1: 85 12        	sta	$12                     ; 0x12 <__rc2>
     ae3: a9 2e        	lda	#$2e
     ae5: 65 13        	adc	$13                     ; 0x13 <__rc3>
     ae7: 85 13        	sta	$13                     ; 0x13 <__rc3>
     ae9: b2 12        	lda	($12)                   ; 0x12 <__rc2>
     aeb: 85 1a        	sta	$1a                     ; 0x1a <__rc10>
     aed: b1 12        	lda	($12),y                 ; 0x12 <__rc2>
     aef: a6 16        	ldx	$16                     ; 0x16 <__rc6>
     af1: 8e 01 d7     	stx	$d701                   ; 0xd701 <end_block9+0x81b7>
     af4: a6 17        	ldx	$17                     ; 0x17 <__rc7>
     af6: 8e 02 d7     	stx	$d702                   ; 0xd702 <end_block9+0x81b8>
     af9: a6 1a        	ldx	$1a                     ; 0x1a <__rc10>
     afb: 8e 02 d7     	stx	$d702                   ; 0xd702 <end_block9+0x81b8>
     afe: 8d 03 d7     	sta	$d703                   ; 0xd703 <end_block9+0x81b9>
     b01: 8c 00 d7     	sty	$d700                   ; 0xd700 <end_block9+0x81b6>
     b04: 9c 00 d7     	stz	$d700                   ; 0xd700 <end_block9+0x81b6>
     b07: ae 00 d7     	ldx	$d700                   ; 0xd700 <end_block9+0x81b6>
     b0a: 30 fb        	bmi	$b07 <f256main+0x2d2>
     b0c: a6 15        	ldx	$15                     ; 0x15 <__rc5>
     b0e: 86 12        	stx	$12                     ; 0x12 <__rc2>
     b10: a2 ff        	ldx	#$ff
     b12: c6 14        	dec	$14                     ; 0x14 <__rc4>
     b14: e4 14        	cpx	$14                     ; 0x14 <__rc4>
     b16: d0 02        	bne	$b1a <f256main+0x2e5>
     b18: c6 12        	dec	$12                     ; 0x12 <__rc2>
     b1a: a6 18        	ldx	$18                     ; 0x18 <__rc8>
     b1c: a5 19        	lda	$19                     ; 0x19 <__rc9>
     b1e: 85 18        	sta	$18                     ; 0x18 <__rc8>
     b20: e6 18        	inc	$18                     ; 0x18 <__rc8>
     b22: d0 01        	bne	$b25 <f256main+0x2f0>
     b24: e8           	inx
     b25: a5 12        	lda	$12                     ; 0x12 <__rc2>
     b27: 85 15        	sta	$15                     ; 0x15 <__rc5>
     b29: a5 14        	lda	$14                     ; 0x14 <__rc4>
     b2b: 85 13        	sta	$13                     ; 0x13 <__rc3>
     b2d: a5 12        	lda	$12                     ; 0x12 <__rc2>
     b2f: f0 03        	beq	$b34 <f256main+0x2ff>
     b31: 4c c9 0a     	jmp	$ac9 <f256main+0x294>
     b34: a5 14        	lda	$14                     ; 0x14 <__rc4>
     b36: f0 03        	beq	$b3b <f256main+0x306>
     b38: 4c c9 0a     	jmp	$ac9 <f256main+0x294>
     b3b: 4c c2 0b     	jmp	$bc2 <f256main+0x38d>
     b3e: 29 7f        	and	#$7f
     b40: 85 1b        	sta	$1b                     ; 0x1b <__rc11>
     b42: 18           	clc
     b43: a5 1a        	lda	$1a                     ; 0x1a <__rc10>
     b45: 69 03        	adc	#$3
     b47: 85 15        	sta	$15                     ; 0x15 <__rc5>
     b49: a5 19        	lda	$19                     ; 0x19 <__rc9>
     b4b: 69 00        	adc	#$0
     b4d: 5a           	phy
     b4e: a4 13        	ldy	$13                     ; 0x13 <__rc3>
     b50: 84 1a        	sty	$1a                     ; 0x1a <__rc10>
     b52: 7a           	ply
     b53: e6 1b        	inc	$1b                     ; 0x1b <__rc11>
     b55: c6 1b        	dec	$1b                     ; 0x1b <__rc11>
     b57: d0 09        	bne	$b62 <f256main+0x32d>
     b59: e6 1a        	inc	$1a                     ; 0x1a <__rc10>
     b5b: c6 1a        	dec	$1a                     ; 0x1a <__rc10>
     b5d: d0 03        	bne	$b62 <f256main+0x32d>
     b5f: 4c 74 10     	jmp	$1074 <f256main+0x83f>
     b62: 5a           	phy
     b63: a4 1b        	ldy	$1b                     ; 0x1b <__rc11>
     b65: 84 14        	sty	$14                     ; 0x14 <__rc4>
     b67: 7a           	ply
     b68: 85 19        	sta	$19                     ; 0x19 <__rc9>
     b6a: a5 18        	lda	$18                     ; 0x18 <__rc8>
     b6c: 85 12        	sta	$12                     ; 0x12 <__rc2>
     b6e: 06 12        	asl	$12                     ; 0x12 <__rc2>
     b70: 86 13        	stx	$13                     ; 0x13 <__rc3>
     b72: 26 13        	rol	$13                     ; 0x13 <__rc3>
     b74: 18           	clc
     b75: a9 ef        	lda	#$ef
     b77: 65 12        	adc	$12                     ; 0x12 <__rc2>
     b79: 85 12        	sta	$12                     ; 0x12 <__rc2>
     b7b: a9 2e        	lda	#$2e
     b7d: 65 13        	adc	$13                     ; 0x13 <__rc3>
     b7f: 85 13        	sta	$13                     ; 0x13 <__rc3>
     b81: b2 12        	lda	($12)                   ; 0x12 <__rc2>
     b83: 85 18        	sta	$18                     ; 0x18 <__rc8>
     b85: b1 12        	lda	($12),y                 ; 0x12 <__rc2>
     b87: a6 16        	ldx	$16                     ; 0x16 <__rc6>
     b89: 8e 01 d7     	stx	$d701                   ; 0xd701 <end_block9+0x81b7>
     b8c: a6 17        	ldx	$17                     ; 0x17 <__rc7>
     b8e: 8e 02 d7     	stx	$d702                   ; 0xd702 <end_block9+0x81b8>
     b91: a6 18        	ldx	$18                     ; 0x18 <__rc8>
     b93: 8e 02 d7     	stx	$d702                   ; 0xd702 <end_block9+0x81b8>
     b96: 8d 03 d7     	sta	$d703                   ; 0xd703 <end_block9+0x81b9>
     b99: 8c 00 d7     	sty	$d700                   ; 0xd700 <end_block9+0x81b6>
     b9c: 9c 00 d7     	stz	$d700                   ; 0xd700 <end_block9+0x81b6>
     b9f: ae 00 d7     	ldx	$d700                   ; 0xd700 <end_block9+0x81b6>
     ba2: 30 fb        	bmi	$b9f <f256main+0x36a>
     ba4: a6 14        	ldx	$14                     ; 0x14 <__rc4>
     ba6: 86 12        	stx	$12                     ; 0x12 <__rc2>
     ba8: a2 ff        	ldx	#$ff
     baa: c6 1a        	dec	$1a                     ; 0x1a <__rc10>
     bac: e4 1a        	cpx	$1a                     ; 0x1a <__rc10>
     bae: d0 02        	bne	$bb2 <f256main+0x37d>
     bb0: c6 12        	dec	$12                     ; 0x12 <__rc2>
     bb2: a6 12        	ldx	$12                     ; 0x12 <__rc2>
     bb4: 86 14        	stx	$14                     ; 0x14 <__rc4>
     bb6: d0 cf        	bne	$b87 <f256main+0x352>
     bb8: a6 1a        	ldx	$1a                     ; 0x1a <__rc10>
     bba: d0 cb        	bne	$b87 <f256main+0x352>
     bbc: a6 15        	ldx	$15                     ; 0x15 <__rc5>
     bbe: 86 18        	stx	$18                     ; 0x18 <__rc8>
     bc0: a6 19        	ldx	$19                     ; 0x19 <__rc9>
     bc2: a5 18        	lda	$18                     ; 0x18 <__rc8>
     bc4: e0 12        	cpx	#$12
     bc6: d0 04        	bne	$bcc <f256main+0x397>
     bc8: c9 3b        	cmp	#$3b
     bca: 80 02        	bra	$bce <f256main+0x399>
     bcc: e0 12        	cpx	#$12
     bce: 85 12        	sta	$12                     ; 0x12 <__rc2>
     bd0: b0 03        	bcs	$bd5 <f256main+0x3a0>
     bd2: 4c 60 0a     	jmp	$a60 <f256main+0x22b>
     bd5: 9c 78 53     	stz	$5378                   ; 0x5378 <spriteStatuses+0x13>
     bd8: a2 02        	ldx	#$2
     bda: 8e 90 53     	stx	$5390                   ; 0x5390 <spriteStatuses+0x2b>
     bdd: 9c a8 53     	stz	$53a8                   ; 0x53a8 <spriteStatuses+0x43>
     be0: 8e c0 53     	stx	$53c0                   ; 0x53c0 <spriteStatuses+0x5b>
     be3: 9c d8 53     	stz	$53d8                   ; 0x53d8 <spriteStatuses+0x73>
     be6: 9c 68 54     	stz	$5468                   ; 0x5468 <spriteStatuses+0x103>
     be9: a0 80        	ldy	#$80
     beb: 84 f3        	sty	$f3                     ; 0xf3 <__zp_bss_size+0xa5>
     bed: 18           	clc
     bee: a6 10        	ldx	$10                     ; 0x10 <__rc0>
     bf0: 86 24        	stx	$24                     ; 0x24 <__rc20>
     bf2: a6 11        	ldx	$11                     ; 0x11 <__rc1>
     bf4: 86 25        	stx	$25                     ; 0x25 <__rc21>
     bf6: a2 45        	ldx	#$45
     bf8: 86 26        	stx	$26                     ; 0x26 <__rc22>
     bfa: a2 55        	ldx	#$55
     bfc: 86 27        	stx	$27                     ; 0x27 <__rc23>
     bfe: 20 f0 ff     	jsr	$fff0 <end_block9+0xaaa6>
     c01: 92 24        	sta	($24)                   ; 0x24 <__rc20>
     c03: a9 00        	lda	#$0
     c05: 6a           	ror
     c06: 85 26        	sta	$26                     ; 0x26 <__rc22>
     c08: b2 24        	lda	($24)                   ; 0x24 <__rc20>
     c0a: ae 78 53     	ldx	$5378                   ; 0x5378 <spriteStatuses+0x13>
     c0d: 18           	clc
     c0e: 75 30        	adc	$30,x                   ; 0x30 <stateDelays>
     c10: 8d 75 53     	sta	$5375                   ; 0x5375 <spriteStatuses+0x10>
     c13: ae 74 53     	ldx	$5374                   ; 0x5374 <spriteStatuses+0xf>
     c16: 86 f3        	stx	$f3                     ; 0xf3 <__zp_bss_size+0xa5>
     c18: ae 75 53     	ldx	$5375                   ; 0x5375 <spriteStatuses+0x10>
     c1b: 86 f4        	stx	$f4                     ; 0xf4 <__zp_bss_size+0xa6>
     c1d: ae 76 53     	ldx	$5376                   ; 0x5376 <spriteStatuses+0x11>
     c20: 86 f5        	stx	$f5                     ; 0xf5 <__zp_bss_size+0xa7>
     c22: 20 f0 ff     	jsr	$fff0 <end_block9+0xaaa6>
     c25: 92 24        	sta	($24)                   ; 0x24 <__rc20>
     c27: a9 00        	lda	#$0
     c29: 6a           	ror
     c2a: 85 26        	sta	$26                     ; 0x26 <__rc22>
     c2c: 84 f3        	sty	$f3                     ; 0xf3 <__zp_bss_size+0xa5>
     c2e: 20 f0 ff     	jsr	$fff0 <end_block9+0xaaa6>
     c31: 92 24        	sta	($24)                   ; 0x24 <__rc20>
     c33: a9 00        	lda	#$0
     c35: 6a           	ror
     c36: 85 26        	sta	$26                     ; 0x26 <__rc22>
     c38: b2 24        	lda	($24)                   ; 0x24 <__rc20>
     c3a: ae 90 53     	ldx	$5390                   ; 0x5390 <spriteStatuses+0x2b>
     c3d: 18           	clc
     c3e: 75 30        	adc	$30,x                   ; 0x30 <stateDelays>
     c40: 8d 8d 53     	sta	$538d                   ; 0x538d <spriteStatuses+0x28>
     c43: ae 8c 53     	ldx	$538c                   ; 0x538c <spriteStatuses+0x27>
     c46: 86 f3        	stx	$f3                     ; 0xf3 <__zp_bss_size+0xa5>
     c48: ae 8d 53     	ldx	$538d                   ; 0x538d <spriteStatuses+0x28>
     c4b: 86 f4        	stx	$f4                     ; 0xf4 <__zp_bss_size+0xa6>
     c4d: ae 8e 53     	ldx	$538e                   ; 0x538e <spriteStatuses+0x29>
     c50: 86 f5        	stx	$f5                     ; 0xf5 <__zp_bss_size+0xa7>
     c52: 20 f0 ff     	jsr	$fff0 <end_block9+0xaaa6>
     c55: 92 24        	sta	($24)                   ; 0x24 <__rc20>
     c57: a9 00        	lda	#$0
     c59: 6a           	ror
     c5a: 85 26        	sta	$26                     ; 0x26 <__rc22>
     c5c: 84 f3        	sty	$f3                     ; 0xf3 <__zp_bss_size+0xa5>
     c5e: 20 f0 ff     	jsr	$fff0 <end_block9+0xaaa6>
     c61: 92 24        	sta	($24)                   ; 0x24 <__rc20>
     c63: a9 00        	lda	#$0
     c65: 6a           	ror
     c66: 85 26        	sta	$26                     ; 0x26 <__rc22>
     c68: b2 24        	lda	($24)                   ; 0x24 <__rc20>
     c6a: ae a8 53     	ldx	$53a8                   ; 0x53a8 <spriteStatuses+0x43>
     c6d: 18           	clc
     c6e: 75 30        	adc	$30,x                   ; 0x30 <stateDelays>
     c70: 8d a5 53     	sta	$53a5                   ; 0x53a5 <spriteStatuses+0x40>
     c73: ae a4 53     	ldx	$53a4                   ; 0x53a4 <spriteStatuses+0x3f>
     c76: 86 f3        	stx	$f3                     ; 0xf3 <__zp_bss_size+0xa5>
     c78: ae a5 53     	ldx	$53a5                   ; 0x53a5 <spriteStatuses+0x40>
     c7b: 86 f4        	stx	$f4                     ; 0xf4 <__zp_bss_size+0xa6>
     c7d: ae a6 53     	ldx	$53a6                   ; 0x53a6 <spriteStatuses+0x41>
     c80: 86 f5        	stx	$f5                     ; 0xf5 <__zp_bss_size+0xa7>
     c82: 20 f0 ff     	jsr	$fff0 <end_block9+0xaaa6>
     c85: 92 24        	sta	($24)                   ; 0x24 <__rc20>
     c87: a9 00        	lda	#$0
     c89: 6a           	ror
     c8a: 85 26        	sta	$26                     ; 0x26 <__rc22>
     c8c: 84 f3        	sty	$f3                     ; 0xf3 <__zp_bss_size+0xa5>
     c8e: 20 f0 ff     	jsr	$fff0 <end_block9+0xaaa6>
     c91: 92 24        	sta	($24)                   ; 0x24 <__rc20>
     c93: a9 00        	lda	#$0
     c95: 6a           	ror
     c96: 85 26        	sta	$26                     ; 0x26 <__rc22>
     c98: b2 24        	lda	($24)                   ; 0x24 <__rc20>
     c9a: ae c0 53     	ldx	$53c0                   ; 0x53c0 <spriteStatuses+0x5b>
     c9d: 18           	clc
     c9e: 75 30        	adc	$30,x                   ; 0x30 <stateDelays>
     ca0: 8d bd 53     	sta	$53bd                   ; 0x53bd <spriteStatuses+0x58>
     ca3: ae bc 53     	ldx	$53bc                   ; 0x53bc <spriteStatuses+0x57>
     ca6: 86 f3        	stx	$f3                     ; 0xf3 <__zp_bss_size+0xa5>
     ca8: ae bd 53     	ldx	$53bd                   ; 0x53bd <spriteStatuses+0x58>
     cab: 86 f4        	stx	$f4                     ; 0xf4 <__zp_bss_size+0xa6>
     cad: ae be 53     	ldx	$53be                   ; 0x53be <spriteStatuses+0x59>
     cb0: 86 f5        	stx	$f5                     ; 0xf5 <__zp_bss_size+0xa7>
     cb2: 20 f0 ff     	jsr	$fff0 <end_block9+0xaaa6>
     cb5: 92 24        	sta	($24)                   ; 0x24 <__rc20>
     cb7: a9 00        	lda	#$0
     cb9: 6a           	ror
     cba: 85 26        	sta	$26                     ; 0x26 <__rc22>
     cbc: 84 f3        	sty	$f3                     ; 0xf3 <__zp_bss_size+0xa5>
     cbe: 20 f0 ff     	jsr	$fff0 <end_block9+0xaaa6>
     cc1: 92 24        	sta	($24)                   ; 0x24 <__rc20>
     cc3: a9 00        	lda	#$0
     cc5: 6a           	ror
     cc6: 85 26        	sta	$26                     ; 0x26 <__rc22>
     cc8: b2 24        	lda	($24)                   ; 0x24 <__rc20>
     cca: ae d8 53     	ldx	$53d8                   ; 0x53d8 <spriteStatuses+0x73>
     ccd: 18           	clc
     cce: 75 30        	adc	$30,x                   ; 0x30 <stateDelays>
     cd0: 8d d5 53     	sta	$53d5                   ; 0x53d5 <spriteStatuses+0x70>
     cd3: ae d4 53     	ldx	$53d4                   ; 0x53d4 <spriteStatuses+0x6f>
     cd6: 86 f3        	stx	$f3                     ; 0xf3 <__zp_bss_size+0xa5>
     cd8: ae d5 53     	ldx	$53d5                   ; 0x53d5 <spriteStatuses+0x70>
     cdb: 86 f4        	stx	$f4                     ; 0xf4 <__zp_bss_size+0xa6>
     cdd: ae d6 53     	ldx	$53d6                   ; 0x53d6 <spriteStatuses+0x71>
     ce0: 86 f5        	stx	$f5                     ; 0xf5 <__zp_bss_size+0xa7>
     ce2: 20 f0 ff     	jsr	$fff0 <end_block9+0xaaa6>
     ce5: 92 24        	sta	($24)                   ; 0x24 <__rc20>
     ce7: a9 00        	lda	#$0
     ce9: 6a           	ror
     cea: 85 26        	sta	$26                     ; 0x26 <__rc22>
     cec: 84 f3        	sty	$f3                     ; 0xf3 <__zp_bss_size+0xa5>
     cee: 20 f0 ff     	jsr	$fff0 <end_block9+0xaaa6>
     cf1: 92 24        	sta	($24)                   ; 0x24 <__rc20>
     cf3: a9 00        	lda	#$0
     cf5: 6a           	ror
     cf6: 85 26        	sta	$26                     ; 0x26 <__rc22>
     cf8: a9 02        	lda	#$2
     cfa: 18           	clc
     cfb: 72 24        	adc	($24)                   ; 0x24 <__rc20>
     cfd: 85 7b        	sta	$7b                     ; 0x7b <padTimer.1>
     cff: 64 f3        	stz	$f3                     ; 0xf3 <__zp_bss_size+0xa5>
     d01: a6 7b        	ldx	$7b                     ; 0x7b <padTimer.1>
     d03: 86 f4        	stx	$f4                     ; 0xf4 <__zp_bss_size+0xa6>
     d05: a2 63        	ldx	#$63
     d07: 86 f5        	stx	$f5                     ; 0xf5 <__zp_bss_size+0xa7>
     d09: a0 0a        	ldy	#$a
     d0b: 20 f0 ff     	jsr	$fff0 <end_block9+0xaaa6>
     d0e: 92 24        	sta	($24)                   ; 0x24 <__rc20>
     d10: a9 00        	lda	#$0
     d12: 6a           	ror
     d13: 85 26        	sta	$26                     ; 0x26 <__rc22>
     d15: 4c 70 0f     	jmp	$f70 <f256main+0x73b>
     d18: a4 15        	ldy	$15                     ; 0x15 <__rc5>
     d1a: aa           	tax
     d1b: 18           	clc
     d1c: 65 13        	adc	$13                     ; 0x13 <__rc3>
     d1e: 85 16        	sta	$16                     ; 0x16 <__rc6>
     d20: 85 14        	sta	$14                     ; 0x14 <__rc4>
     d22: 84 17        	sty	$17                     ; 0x17 <__rc7>
     d24: a5 15        	lda	$15                     ; 0x15 <__rc5>
     d26: 65 12        	adc	$12                     ; 0x12 <__rc2>
     d28: 85 18        	sta	$18                     ; 0x18 <__rc8>
     d2a: 85 15        	sta	$15                     ; 0x15 <__rc5>
     d2c: 18           	clc
     d2d: a9 65        	lda	#$65
     d2f: 65 14        	adc	$14                     ; 0x14 <__rc4>
     d31: 85 14        	sta	$14                     ; 0x14 <__rc4>
     d33: a9 53        	lda	#$53
     d35: 65 15        	adc	$15                     ; 0x15 <__rc5>
     d37: 85 15        	sta	$15                     ; 0x15 <__rc5>
     d39: a0 13        	ldy	#$13
     d3b: b1 14        	lda	($14),y                 ; 0x14 <__rc4>
     d3d: 85 1a        	sta	$1a                     ; 0x1a <__rc10>
     d3f: 29 fe        	and	#$fe
     d41: c9 04        	cmp	#$4
     d43: f0 03        	beq	$d48 <f256main+0x513>
     d45: 4c 08 0e     	jmp	$e08 <f256main+0x5d3>
     d48: 18           	clc
     d49: 8a           	txa
     d4a: 65 13        	adc	$13                     ; 0x13 <__rc3>
     d4c: 85 13        	sta	$13                     ; 0x13 <__rc3>
     d4e: a5 17        	lda	$17                     ; 0x17 <__rc7>
     d50: 65 12        	adc	$12                     ; 0x12 <__rc2>
     d52: 85 12        	sta	$12                     ; 0x12 <__rc2>
     d54: a9 65        	lda	#$65
     d56: 18           	clc
     d57: 65 13        	adc	$13                     ; 0x13 <__rc3>
     d59: aa           	tax
     d5a: a9 53        	lda	#$53
     d5c: 65 12        	adc	$12                     ; 0x12 <__rc2>
     d5e: 86 12        	stx	$12                     ; 0x12 <__rc2>
     d60: 85 13        	sta	$13                     ; 0x13 <__rc3>
     d62: a0 04        	ldy	#$4
     d64: b1 12        	lda	($12),y                 ; 0x12 <__rc2>
     d66: a2 01        	ldx	#$1
     d68: a8           	tay
     d69: f0 02        	beq	$d6d <f256main+0x538>
     d6b: a2 00        	ldx	#$0
     d6d: 8a           	txa
     d6e: d0 03        	bne	$d73 <f256main+0x53e>
     d70: 4c e0 0d     	jmp	$de0 <f256main+0x5ab>
     d73: a9 01        	lda	#$1
     d75: 4c e2 0d     	jmp	$de2 <f256main+0x5ad>
     d78: a2 80        	ldx	#$80
     d7a: 86 f3        	stx	$f3                     ; 0xf3 <__zp_bss_size+0xa5>
     d7c: 20 f0 ff     	jsr	$fff0 <end_block9+0xaaa6>
     d7f: 92 24        	sta	($24)                   ; 0x24 <__rc20>
     d81: a9 00        	lda	#$0
     d83: 6a           	ror
     d84: 85 26        	sta	$26                     ; 0x26 <__rc22>
     d86: a9 08        	lda	#$8
     d88: 18           	clc
     d89: 72 24        	adc	($24)                   ; 0x24 <__rc20>
     d8b: 85 14        	sta	$14                     ; 0x14 <__rc4>
     d8d: a5 80        	lda	$80                     ; 0x80 <kernelEventData+0x4>
     d8f: 0a           	asl
     d90: 64 12        	stz	$12                     ; 0x12 <__rc2>
     d92: 26 12        	rol	$12                     ; 0x12 <__rc2>
     d94: 0a           	asl
     d95: 26 12        	rol	$12                     ; 0x12 <__rc2>
     d97: 0a           	asl
     d98: 85 13        	sta	$13                     ; 0x13 <__rc3>
     d9a: 26 12        	rol	$12                     ; 0x12 <__rc2>
     d9c: 0a           	asl
     d9d: a6 12        	ldx	$12                     ; 0x12 <__rc2>
     d9f: 86 15        	stx	$15                     ; 0x15 <__rc5>
     da1: 26 15        	rol	$15                     ; 0x15 <__rc5>
     da3: 18           	clc
     da4: 65 13        	adc	$13                     ; 0x13 <__rc3>
     da6: 85 13        	sta	$13                     ; 0x13 <__rc3>
     da8: a5 15        	lda	$15                     ; 0x15 <__rc5>
     daa: 65 12        	adc	$12                     ; 0x12 <__rc2>
     dac: 85 12        	sta	$12                     ; 0x12 <__rc2>
     dae: a9 65        	lda	#$65
     db0: 18           	clc
     db1: 65 13        	adc	$13                     ; 0x13 <__rc3>
     db3: aa           	tax
     db4: a9 53        	lda	#$53
     db6: 65 12        	adc	$12                     ; 0x12 <__rc2>
     db8: 86 12        	stx	$12                     ; 0x12 <__rc2>
     dba: 85 13        	sta	$13                     ; 0x13 <__rc3>
     dbc: a0 10        	ldy	#$10
     dbe: a5 14        	lda	$14                     ; 0x14 <__rc4>
     dc0: 91 12        	sta	($12),y                 ; 0x12 <__rc2>
     dc2: 88           	dey
     dc3: b1 12        	lda	($12),y                 ; 0x12 <__rc2>
     dc5: 85 f3        	sta	$f3                     ; 0xf3 <__zp_bss_size+0xa5>
     dc7: c8           	iny
     dc8: b1 12        	lda	($12),y                 ; 0x12 <__rc2>
     dca: 85 f4        	sta	$f4                     ; 0xf4 <__zp_bss_size+0xa6>
     dcc: c8           	iny
     dcd: b1 12        	lda	($12),y                 ; 0x12 <__rc2>
     dcf: 85 f5        	sta	$f5                     ; 0xf5 <__zp_bss_size+0xa7>
     dd1: 20 f0 ff     	jsr	$fff0 <end_block9+0xaaa6>
     dd4: 92 24        	sta	($24)                   ; 0x24 <__rc20>
     dd6: a9 00        	lda	#$0
     dd8: 6a           	ror
     dd9: 85 26        	sta	$26                     ; 0x26 <__rc22>
     ddb: a0 0a        	ldy	#$a
     ddd: 4c 70 0f     	jmp	$f70 <f256main+0x73b>
     de0: a9 00        	lda	#$0
     de2: a0 13        	ldy	#$13
     de4: 85 1a        	sta	$1a                     ; 0x1a <__rc10>
     de6: 91 12        	sta	($12),y                 ; 0x12 <__rc2>
     de8: a0 00        	ldy	#$0
     dea: 8a           	txa
     deb: d0 02        	bne	$def <f256main+0x5ba>
     ded: a0 02        	ldy	#$2
     def: a6 18        	ldx	$18                     ; 0x18 <__rc8>
     df1: 86 13        	stx	$13                     ; 0x13 <__rc3>
     df3: a9 65        	lda	#$65
     df5: 18           	clc
     df6: 65 16        	adc	$16                     ; 0x16 <__rc6>
     df8: 85 12        	sta	$12                     ; 0x12 <__rc2>
     dfa: 84 14        	sty	$14                     ; 0x14 <__rc4>
     dfc: a9 53        	lda	#$53
     dfe: 65 13        	adc	$13                     ; 0x13 <__rc3>
     e00: 85 13        	sta	$13                     ; 0x13 <__rc3>
     e02: a0 0a        	ldy	#$a
     e04: a5 14        	lda	$14                     ; 0x14 <__rc4>
     e06: 91 12        	sta	($12),y                 ; 0x12 <__rc2>
     e08: a2 80        	ldx	#$80
     e0a: 86 f3        	stx	$f3                     ; 0xf3 <__zp_bss_size+0xa5>
     e0c: 20 f0 ff     	jsr	$fff0 <end_block9+0xaaa6>
     e0f: 92 24        	sta	($24)                   ; 0x24 <__rc20>
     e11: a9 00        	lda	#$0
     e13: 6a           	ror
     e14: 85 26        	sta	$26                     ; 0x26 <__rc22>
     e16: b2 24        	lda	($24)                   ; 0x24 <__rc20>
     e18: 85 14        	sta	$14                     ; 0x14 <__rc4>
     e1a: a5 80        	lda	$80                     ; 0x80 <kernelEventData+0x4>
     e1c: 0a           	asl
     e1d: 64 12        	stz	$12                     ; 0x12 <__rc2>
     e1f: 26 12        	rol	$12                     ; 0x12 <__rc2>
     e21: 0a           	asl
     e22: 26 12        	rol	$12                     ; 0x12 <__rc2>
     e24: 0a           	asl
     e25: 85 13        	sta	$13                     ; 0x13 <__rc3>
     e27: 26 12        	rol	$12                     ; 0x12 <__rc2>
     e29: 0a           	asl
     e2a: a6 12        	ldx	$12                     ; 0x12 <__rc2>
     e2c: 86 15        	stx	$15                     ; 0x15 <__rc5>
     e2e: 26 15        	rol	$15                     ; 0x15 <__rc5>
     e30: 18           	clc
     e31: 65 13        	adc	$13                     ; 0x13 <__rc3>
     e33: 85 13        	sta	$13                     ; 0x13 <__rc3>
     e35: a5 15        	lda	$15                     ; 0x15 <__rc5>
     e37: 65 12        	adc	$12                     ; 0x12 <__rc2>
     e39: 85 12        	sta	$12                     ; 0x12 <__rc2>
     e3b: a9 65        	lda	#$65
     e3d: 18           	clc
     e3e: 65 13        	adc	$13                     ; 0x13 <__rc3>
     e40: aa           	tax
     e41: a9 53        	lda	#$53
     e43: 65 12        	adc	$12                     ; 0x12 <__rc2>
     e45: 86 12        	stx	$12                     ; 0x12 <__rc2>
     e47: 85 13        	sta	$13                     ; 0x13 <__rc3>
     e49: a0 13        	ldy	#$13
     e4b: b1 12        	lda	($12),y                 ; 0x12 <__rc2>
     e4d: aa           	tax
     e4e: 18           	clc
     e4f: a5 14        	lda	$14                     ; 0x14 <__rc4>
     e51: 75 30        	adc	$30,x                   ; 0x30 <stateDelays>
     e53: a0 10        	ldy	#$10
     e55: 91 12        	sta	($12),y                 ; 0x12 <__rc2>
     e57: 88           	dey
     e58: b1 12        	lda	($12),y                 ; 0x12 <__rc2>
     e5a: 85 f3        	sta	$f3                     ; 0xf3 <__zp_bss_size+0xa5>
     e5c: c8           	iny
     e5d: b1 12        	lda	($12),y                 ; 0x12 <__rc2>
     e5f: 85 f4        	sta	$f4                     ; 0xf4 <__zp_bss_size+0xa6>
     e61: c8           	iny
     e62: b1 12        	lda	($12),y                 ; 0x12 <__rc2>
     e64: 85 f5        	sta	$f5                     ; 0xf5 <__zp_bss_size+0xa7>
     e66: 20 f0 ff     	jsr	$fff0 <end_block9+0xaaa6>
     e69: 92 24        	sta	($24)                   ; 0x24 <__rc20>
     e6b: a9 00        	lda	#$0
     e6d: 6a           	ror
     e6e: 85 26        	sta	$26                     ; 0x26 <__rc22>
     e70: a5 80        	lda	$80                     ; 0x80 <kernelEventData+0x4>
     e72: 0a           	asl
     e73: 64 12        	stz	$12                     ; 0x12 <__rc2>
     e75: 26 12        	rol	$12                     ; 0x12 <__rc2>
     e77: 0a           	asl
     e78: 26 12        	rol	$12                     ; 0x12 <__rc2>
     e7a: 0a           	asl
     e7b: 85 13        	sta	$13                     ; 0x13 <__rc3>
     e7d: 26 12        	rol	$12                     ; 0x12 <__rc2>
     e7f: 0a           	asl
     e80: a6 12        	ldx	$12                     ; 0x12 <__rc2>
     e82: 86 14        	stx	$14                     ; 0x14 <__rc4>
     e84: 26 14        	rol	$14                     ; 0x14 <__rc4>
     e86: 18           	clc
     e87: 65 13        	adc	$13                     ; 0x13 <__rc3>
     e89: 85 13        	sta	$13                     ; 0x13 <__rc3>
     e8b: a5 14        	lda	$14                     ; 0x14 <__rc4>
     e8d: 65 12        	adc	$12                     ; 0x12 <__rc2>
     e8f: 85 12        	sta	$12                     ; 0x12 <__rc2>
     e91: a9 65        	lda	#$65
     e93: 18           	clc
     e94: 65 13        	adc	$13                     ; 0x13 <__rc3>
     e96: 85 15        	sta	$15                     ; 0x15 <__rc5>
     e98: a9 53        	lda	#$53
     e9a: 65 12        	adc	$12                     ; 0x12 <__rc2>
     e9c: a6 15        	ldx	$15                     ; 0x15 <__rc5>
     e9e: 86 12        	stx	$12                     ; 0x12 <__rc2>
     ea0: 85 13        	sta	$13                     ; 0x13 <__rc3>
     ea2: aa           	tax
     ea3: a0 0a        	ldy	#$a
     ea5: b1 12        	lda	($12),y                 ; 0x12 <__rc2>
     ea7: 1a           	inc
     ea8: 85 14        	sta	$14                     ; 0x14 <__rc4>
     eaa: 91 12        	sta	($12),y                 ; 0x12 <__rc2>
     eac: 18           	clc
     ead: a5 15        	lda	$15                     ; 0x15 <__rc5>
     eaf: 69 16        	adc	#$16
     eb1: 85 16        	sta	$16                     ; 0x16 <__rc6>
     eb3: 8a           	txa
     eb4: 69 00        	adc	#$0
     eb6: 85 17        	sta	$17                     ; 0x17 <__rc7>
     eb8: a0 16        	ldy	#$16
     eba: b1 12        	lda	($12),y                 ; 0x12 <__rc2>
     ebc: 85 18        	sta	$18                     ; 0x18 <__rc8>
     ebe: a0 01        	ldy	#$1
     ec0: b1 16        	lda	($16),y                 ; 0x16 <__rc6>
     ec2: 85 19        	sta	$19                     ; 0x19 <__rc9>
     ec4: a4 1a        	ldy	$1a                     ; 0x1a <__rc10>
     ec6: b1 18        	lda	($18),y                 ; 0x18 <__rc8>
     ec8: c5 14        	cmp	$14                     ; 0x14 <__rc4>
     eca: b0 20        	bcs	$eec <f256main+0x6b7>
     ecc: 18           	clc
     ecd: a5 15        	lda	$15                     ; 0x15 <__rc5>
     ecf: 69 14        	adc	#$14
     ed1: 85 14        	sta	$14                     ; 0x14 <__rc4>
     ed3: 8a           	txa
     ed4: 69 00        	adc	#$0
     ed6: 85 15        	sta	$15                     ; 0x15 <__rc5>
     ed8: a0 14        	ldy	#$14
     eda: b1 12        	lda	($12),y                 ; 0x12 <__rc2>
     edc: 85 16        	sta	$16                     ; 0x16 <__rc6>
     ede: a0 01        	ldy	#$1
     ee0: b1 14        	lda	($14),y                 ; 0x14 <__rc4>
     ee2: 85 17        	sta	$17                     ; 0x17 <__rc7>
     ee4: a4 1a        	ldy	$1a                     ; 0x1a <__rc10>
     ee6: b1 16        	lda	($16),y                 ; 0x16 <__rc6>
     ee8: a0 0a        	ldy	#$a
     eea: 91 12        	sta	($12),y                 ; 0x12 <__rc2>
     eec: 20 58 16     	jsr	$1658 <updateFrames>
     eef: a0 0a        	ldy	#$a
     ef1: 4c 70 0f     	jmp	$f70 <f256main+0x73b>
     ef4: e0 63        	cpx	#$63
     ef6: f0 03        	beq	$efb <f256main+0x6c6>
     ef8: 4c 70 0f     	jmp	$f70 <f256main+0x73b>
     efb: a2 81        	ldx	#$81
     efd: 8e 80 d8     	stx	$d880                   ; 0xd880 <end_block9+0x8336>
     f00: a2 01        	ldx	#$1
     f02: 8e 80 d8     	stx	$d880                   ; 0xd880 <end_block9+0x8336>
     f05: 80 01        	bra	$f08 <f256main+0x6d3>
     f07: ea           	nop
     f08: ad 80 d8     	lda	$d880                   ; 0xd880 <end_block9+0x8336>
     f0b: 29 40        	and	#$40
     f0d: f0 f8        	beq	$f07 <f256main+0x6d2>
     f0f: a0 00        	ldy	#$0
     f11: 84 28        	sty	$28                     ; 0x28 <__rc24>
     f13: 98           	tya
     f14: 20 7c 10     	jsr	$107c <checkPads>
     f17: a4 28        	ldy	$28                     ; 0x28 <__rc24>
     f19: a2 01        	ldx	#$1
     f1b: c8           	iny
     f1c: c0 04        	cpy	#$4
     f1e: d0 f1        	bne	$f11 <f256main+0x6dc>
     f20: a2 85        	ldx	#$85
     f22: 8e 80 d8     	stx	$d880                   ; 0xd880 <end_block9+0x8336>
     f25: a2 05        	ldx	#$5
     f27: 8e 80 d8     	stx	$d880                   ; 0xd880 <end_block9+0x8336>
     f2a: 80 01        	bra	$f2d <f256main+0x6f8>
     f2c: ea           	nop
     f2d: ad 80 d8     	lda	$d880                   ; 0xd880 <end_block9+0x8336>
     f30: 29 40        	and	#$40
     f32: f0 f8        	beq	$f2c <f256main+0x6f7>
     f34: a0 04        	ldy	#$4
     f36: a2 00        	ldx	#$0
     f38: 84 28        	sty	$28                     ; 0x28 <__rc24>
     f3a: 98           	tya
     f3b: 20 7c 10     	jsr	$107c <checkPads>
     f3e: a4 28        	ldy	$28                     ; 0x28 <__rc24>
     f40: c8           	iny
     f41: c0 08        	cpy	#$8
     f43: d0 f1        	bne	$f36 <f256main+0x701>
     f45: a2 80        	ldx	#$80
     f47: 86 f3        	stx	$f3                     ; 0xf3 <__zp_bss_size+0xa5>
     f49: 20 f0 ff     	jsr	$fff0 <end_block9+0xaaa6>
     f4c: 92 24        	sta	($24)                   ; 0x24 <__rc20>
     f4e: a9 00        	lda	#$0
     f50: 6a           	ror
     f51: 85 26        	sta	$26                     ; 0x26 <__rc22>
     f53: 18           	clc
     f54: a9 02        	lda	#$2
     f56: 72 24        	adc	($24)                   ; 0x24 <__rc20>
     f58: 85 7b        	sta	$7b                     ; 0x7b <padTimer.1>
     f5a: 64 f3        	stz	$f3                     ; 0xf3 <__zp_bss_size+0xa5>
     f5c: a6 7b        	ldx	$7b                     ; 0x7b <padTimer.1>
     f5e: 86 f4        	stx	$f4                     ; 0xf4 <__zp_bss_size+0xa6>
     f60: a2 63        	ldx	#$63
     f62: 86 f5        	stx	$f5                     ; 0xf5 <__zp_bss_size+0xa7>
     f64: 20 f0 ff     	jsr	$fff0 <end_block9+0xaaa6>
     f67: 92 24        	sta	($24)                   ; 0x24 <__rc20>
     f69: a9 00        	lda	#$0
     f6b: 6a           	ror
     f6c: 85 26        	sta	$26                     ; 0x26 <__rc22>
     f6e: a0 0a        	ldy	#$a
     f70: 64 7c        	stz	$7c                     ; 0x7c <kernelEventData>
     f72: 20 00 ff     	jsr	$ff00 <end_block9+0xa9b6>
     f75: 92 24        	sta	($24)                   ; 0x24 <__rc20>
     f77: a9 00        	lda	#$0
     f79: 6a           	ror
     f7a: 85 26        	sta	$26                     ; 0x26 <__rc22>
     f7c: a6 7c        	ldx	$7c                     ; 0x7c <kernelEventData>
     f7e: e0 52        	cpx	#$52
     f80: d0 ee        	bne	$f70 <f256main+0x73b>
     f82: a6 80        	ldx	$80                     ; 0x80 <kernelEventData+0x4>
     f84: e0 0a        	cpx	#$a
     f86: 5a           	phy
     f87: a0 01        	ldy	#$1
     f89: b0 02        	bcs	$f8d <f256main+0x758>
     f8b: a0 00        	ldy	#$0
     f8d: 84 14        	sty	$14                     ; 0x14 <__rc4>
     f8f: 8a           	txa
     f90: 0a           	asl
     f91: 64 12        	stz	$12                     ; 0x12 <__rc2>
     f93: 26 12        	rol	$12                     ; 0x12 <__rc2>
     f95: 0a           	asl
     f96: 26 12        	rol	$12                     ; 0x12 <__rc2>
     f98: 0a           	asl
     f99: 85 13        	sta	$13                     ; 0x13 <__rc3>
     f9b: 26 12        	rol	$12                     ; 0x12 <__rc2>
     f9d: 0a           	asl
     f9e: a4 12        	ldy	$12                     ; 0x12 <__rc2>
     fa0: 84 15        	sty	$15                     ; 0x15 <__rc5>
     fa2: 7a           	ply
     fa3: 26 15        	rol	$15                     ; 0x15 <__rc5>
     fa5: e6 14        	inc	$14                     ; 0x14 <__rc4>
     fa7: c6 14        	dec	$14                     ; 0x14 <__rc4>
     fa9: d0 03        	bne	$fae <f256main+0x779>
     fab: 4c 18 0d     	jmp	$d18 <f256main+0x4e3>
     fae: 85 14        	sta	$14                     ; 0x14 <__rc4>
     fb0: 8a           	txa
     fb1: 18           	clc
     fb2: 69 f6        	adc	#$f6
     fb4: c9 0a        	cmp	#$a
     fb6: 90 03        	bcc	$fbb <f256main+0x786>
     fb8: 4c f4 0e     	jmp	$ef4 <f256main+0x6bf>
     fbb: 18           	clc
     fbc: a5 14        	lda	$14                     ; 0x14 <__rc4>
     fbe: 65 13        	adc	$13                     ; 0x13 <__rc3>
     fc0: 85 14        	sta	$14                     ; 0x14 <__rc4>
     fc2: a5 15        	lda	$15                     ; 0x15 <__rc5>
     fc4: 65 12        	adc	$12                     ; 0x12 <__rc2>
     fc6: 85 15        	sta	$15                     ; 0x15 <__rc5>
     fc8: a9 65        	lda	#$65
     fca: 18           	clc
     fcb: 65 14        	adc	$14                     ; 0x14 <__rc4>
     fcd: 85 14        	sta	$14                     ; 0x14 <__rc4>
     fcf: a9 53        	lda	#$53
     fd1: 65 15        	adc	$15                     ; 0x15 <__rc5>
     fd3: 85 18        	sta	$18                     ; 0x18 <__rc8>
     fd5: a5 14        	lda	$14                     ; 0x14 <__rc4>
     fd7: 85 19        	sta	$19                     ; 0x19 <__rc9>
     fd9: a5 18        	lda	$18                     ; 0x18 <__rc8>
     fdb: 85 15        	sta	$15                     ; 0x15 <__rc5>
     fdd: b1 14        	lda	($14),y                 ; 0x14 <__rc4>
     fdf: a0 0a        	ldy	#$a
     fe1: 85 17        	sta	$17                     ; 0x17 <__rc7>
     fe3: 1a           	inc
     fe4: 85 16        	sta	$16                     ; 0x16 <__rc6>
     fe6: 91 14        	sta	($14),y                 ; 0x14 <__rc4>
     fe8: 18           	clc
     fe9: a5 19        	lda	$19                     ; 0x19 <__rc9>
     feb: 69 16        	adc	#$16
     fed: a8           	tay
     fee: a5 18        	lda	$18                     ; 0x18 <__rc8>
     ff0: 69 00        	adc	#$0
     ff2: 84 18        	sty	$18                     ; 0x18 <__rc8>
     ff4: 85 19        	sta	$19                     ; 0x19 <__rc9>
     ff6: a0 16        	ldy	#$16
     ff8: b1 14        	lda	($14),y                 ; 0x14 <__rc4>
     ffa: 85 1a        	sta	$1a                     ; 0x1a <__rc10>
     ffc: a0 01        	ldy	#$1
     ffe: b1 18        	lda	($18),y                 ; 0x18 <__rc8>
    1000: 85 1b        	sta	$1b                     ; 0x1b <__rc11>
    1002: a0 13        	ldy	#$13
    1004: b1 14        	lda	($14),y                 ; 0x14 <__rc4>
    1006: a8           	tay
    1007: b1 1a        	lda	($1a),y                 ; 0x1a <__rc10>
    1009: c5 16        	cmp	$16                     ; 0x16 <__rc6>
    100b: 90 03        	bcc	$1010 <f256main+0x7db>
    100d: 4c 78 0d     	jmp	$d78 <f256main+0x543>
    1010: a5 17        	lda	$17                     ; 0x17 <__rc7>
    1012: a0 0a        	ldy	#$a
    1014: 91 14        	sta	($14),y                 ; 0x14 <__rc4>
    1016: a5 13        	lda	$13                     ; 0x13 <__rc3>
    1018: 18           	clc
    1019: 69 00        	adc	#$0
    101b: a8           	tay
    101c: a5 12        	lda	$12                     ; 0x12 <__rc2>
    101e: 69 d9        	adc	#$d9
    1020: 84 12        	sty	$12                     ; 0x12 <__rc2>
    1022: 85 13        	sta	$13                     ; 0x13 <__rc3>
    1024: b5 39        	lda	$39,x                   ; 0x39 <_spriteCtl>
    1026: 92 12        	sta	($12)                   ; 0x12 <__rc2>
    1028: a5 80        	lda	$80                     ; 0x80 <kernelEventData+0x4>
    102a: 18           	clc
    102b: 69 f6        	adc	#$f6
    102d: aa           	tax
    102e: a9 00        	lda	#$0
    1030: 69 ff        	adc	#$ff
    1032: 85 12        	sta	$12                     ; 0x12 <__rc2>
    1034: 8a           	txa
    1035: 0a           	asl
    1036: 26 12        	rol	$12                     ; 0x12 <__rc2>
    1038: 0a           	asl
    1039: 85 14        	sta	$14                     ; 0x14 <__rc4>
    103b: a5 12        	lda	$12                     ; 0x12 <__rc2>
    103d: 2a           	rol
    103e: 85 13        	sta	$13                     ; 0x13 <__rc3>
    1040: 06 14        	asl	$14                     ; 0x14 <__rc4>
    1042: a6 14        	ldx	$14                     ; 0x14 <__rc4>
    1044: 86 12        	stx	$12                     ; 0x12 <__rc2>
    1046: 26 13        	rol	$13                     ; 0x13 <__rc3>
    1048: a5 14        	lda	$14                     ; 0x14 <__rc4>
    104a: 0a           	asl
    104b: a6 13        	ldx	$13                     ; 0x13 <__rc3>
    104d: 86 14        	stx	$14                     ; 0x14 <__rc4>
    104f: 26 14        	rol	$14                     ; 0x14 <__rc4>
    1051: 18           	clc
    1052: 65 12        	adc	$12                     ; 0x12 <__rc2>
    1054: 85 12        	sta	$12                     ; 0x12 <__rc2>
    1056: a5 14        	lda	$14                     ; 0x14 <__rc4>
    1058: 65 13        	adc	$13                     ; 0x13 <__rc3>
    105a: 85 13        	sta	$13                     ; 0x13 <__rc3>
    105c: a9 65        	lda	#$65
    105e: 18           	clc
    105f: 65 12        	adc	$12                     ; 0x12 <__rc2>
    1061: 85 12        	sta	$12                     ; 0x12 <__rc2>
    1063: a9 53        	lda	#$53
    1065: 65 13        	adc	$13                     ; 0x13 <__rc3>
    1067: 85 13        	sta	$13                     ; 0x13 <__rc3>
    1069: a9 00        	lda	#$0
    106b: a0 05        	ldy	#$5
    106d: 91 12        	sta	($12),y                 ; 0x12 <__rc2>
    106f: a0 0a        	ldy	#$a
    1071: 4c 70 0f     	jmp	$f70 <f256main+0x73b>
    1074: a6 15        	ldx	$15                     ; 0x15 <__rc5>
    1076: 86 18        	stx	$18                     ; 0x18 <__rc8>
    1078: aa           	tax
    1079: 4c c2 0b     	jmp	$bc2 <f256main+0x38d>

0000107c <checkPads>:
    107c: 48           	pha
    107d: 18           	clc
    107e: a5 10        	lda	$10                     ; 0x10 <__rc0>
    1080: 69 f6        	adc	#$f6
    1082: 85 10        	sta	$10                     ; 0x10 <__rc0>
    1084: a5 11        	lda	$11                     ; 0x11 <__rc1>
    1086: 69 ff        	adc	#$ff
    1088: 85 11        	sta	$11                     ; 0x11 <__rc1>
    108a: 68           	pla
    108b: 85 12        	sta	$12                     ; 0x12 <__rc2>
    108d: 86 1d        	stx	$1d                     ; 0x1d <__rc13>
    108f: 64 13        	stz	$13                     ; 0x13 <__rc3>
    1091: 85 8b        	sta	$8b                     ; 0x8b <__zp_bss_size+0x3d>
    1093: 06 12        	asl	$12                     ; 0x12 <__rc2>
    1095: 26 13        	rol	$13                     ; 0x13 <__rc3>
    1097: a2 d8        	ldx	#$d8
    1099: a5 1d        	lda	$1d                     ; 0x1d <__rc13>
    109b: f0 04        	beq	$10a1 <checkPads+0x25>
    109d: a9 84        	lda	#$84
    109f: 80 02        	bra	$10a3 <checkPads+0x27>
    10a1: a9 7c        	lda	#$7c
    10a3: 18           	clc
    10a4: 65 12        	adc	$12                     ; 0x12 <__rc2>
    10a6: 85 18        	sta	$18                     ; 0x18 <__rc8>
    10a8: 8a           	txa
    10a9: 65 13        	adc	$13                     ; 0x13 <__rc3>
    10ab: 85 19        	sta	$19                     ; 0x19 <__rc9>
    10ad: b2 18        	lda	($18)                   ; 0x18 <__rc8>
    10af: 29 02        	and	#$2
    10b1: 06 12        	asl	$12                     ; 0x12 <__rc2>
    10b3: 26 13        	rol	$13                     ; 0x13 <__rc3>
    10b5: 06 12        	asl	$12                     ; 0x12 <__rc2>
    10b7: a6 12        	ldx	$12                     ; 0x12 <__rc2>
    10b9: 86 17        	stx	$17                     ; 0x17 <__rc7>
    10bb: 26 13        	rol	$13                     ; 0x13 <__rc3>
    10bd: a6 13        	ldx	$13                     ; 0x13 <__rc3>
    10bf: 86 16        	stx	$16                     ; 0x16 <__rc6>
    10c1: 06 12        	asl	$12                     ; 0x12 <__rc2>
    10c3: 26 13        	rol	$13                     ; 0x13 <__rc3>
    10c5: a6 13        	ldx	$13                     ; 0x13 <__rc3>
    10c7: 86 1b        	stx	$1b                     ; 0x1b <__rc11>
    10c9: a6 12        	ldx	$12                     ; 0x12 <__rc2>
    10cb: 86 1c        	stx	$1c                     ; 0x1c <__rc12>
    10cd: aa           	tax
    10ce: d0 46        	bne	$1116 <checkPads+0x9a>
    10d0: a5 12        	lda	$12                     ; 0x12 <__rc2>
    10d2: 18           	clc
    10d3: 65 17        	adc	$17                     ; 0x17 <__rc7>
    10d5: 85 12        	sta	$12                     ; 0x12 <__rc2>
    10d7: a5 13        	lda	$13                     ; 0x13 <__rc3>
    10d9: 65 16        	adc	$16                     ; 0x16 <__rc6>
    10db: 85 13        	sta	$13                     ; 0x13 <__rc3>
    10dd: a9 65        	lda	#$65
    10df: a2 00        	ldx	#$0
    10e1: 86 87        	stx	$87                     ; 0x87 <__zp_bss_size+0x39>
    10e3: 18           	clc
    10e4: 65 12        	adc	$12                     ; 0x12 <__rc2>
    10e6: a8           	tay
    10e7: a9 53        	lda	#$53
    10e9: 65 13        	adc	$13                     ; 0x13 <__rc3>
    10eb: aa           	tax
    10ec: 98           	tya
    10ed: 84 12        	sty	$12                     ; 0x12 <__rc2>
    10ef: 86 13        	stx	$13                     ; 0x13 <__rc3>
    10f1: 18           	clc
    10f2: 69 0b        	adc	#$b
    10f4: 85 14        	sta	$14                     ; 0x14 <__rc4>
    10f6: 8a           	txa
    10f7: 69 00        	adc	#$0
    10f9: 85 15        	sta	$15                     ; 0x15 <__rc5>
    10fb: a0 0b        	ldy	#$b
    10fd: a9 ff        	lda	#$ff
    10ff: 91 12        	sta	($12),y                 ; 0x12 <__rc2>
    1101: a0 01        	ldy	#$1
    1103: 91 14        	sta	($14),y                 ; 0x14 <__rc4>
    1105: a0 13        	ldy	#$13
    1107: a9 03        	lda	#$3
    1109: 91 12        	sta	($12),y                 ; 0x12 <__rc2>
    110b: a0 04        	ldy	#$4
    110d: a9 00        	lda	#$0
    110f: 91 12        	sta	($12),y                 ; 0x12 <__rc2>
    1111: a0 01        	ldy	#$1
    1113: 4c 66 11     	jmp	$1166 <checkPads+0xea>
    1116: a5 12        	lda	$12                     ; 0x12 <__rc2>
    1118: 18           	clc
    1119: 65 17        	adc	$17                     ; 0x17 <__rc7>
    111b: 85 12        	sta	$12                     ; 0x12 <__rc2>
    111d: a5 13        	lda	$13                     ; 0x13 <__rc3>
    111f: 65 16        	adc	$16                     ; 0x16 <__rc6>
    1121: 85 13        	sta	$13                     ; 0x13 <__rc3>
    1123: a9 65        	lda	#$65
    1125: 18           	clc
    1126: 65 12        	adc	$12                     ; 0x12 <__rc2>
    1128: aa           	tax
    1129: a9 53        	lda	#$53
    112b: 65 13        	adc	$13                     ; 0x13 <__rc3>
    112d: 85 13        	sta	$13                     ; 0x13 <__rc3>
    112f: b2 18        	lda	($18)                   ; 0x18 <__rc8>
    1131: 29 01        	and	#$1
    1133: 86 14        	stx	$14                     ; 0x14 <__rc4>
    1135: 86 12        	stx	$12                     ; 0x12 <__rc2>
    1137: a6 13        	ldx	$13                     ; 0x13 <__rc3>
    1139: 86 15        	stx	$15                     ; 0x15 <__rc5>
    113b: a8           	tay
    113c: d0 2c        	bne	$116a <checkPads+0xee>
    113e: a0 0b        	ldy	#$b
    1140: a2 00        	ldx	#$0
    1142: 86 87        	stx	$87                     ; 0x87 <__zp_bss_size+0x39>
    1144: 18           	clc
    1145: a5 14        	lda	$14                     ; 0x14 <__rc4>
    1147: 69 0b        	adc	#$b
    1149: 85 14        	sta	$14                     ; 0x14 <__rc4>
    114b: a5 15        	lda	$15                     ; 0x15 <__rc5>
    114d: 69 00        	adc	#$0
    114f: 85 15        	sta	$15                     ; 0x15 <__rc5>
    1151: a9 01        	lda	#$1
    1153: 91 12        	sta	($12),y                 ; 0x12 <__rc2>
    1155: a8           	tay
    1156: 8a           	txa
    1157: 91 14        	sta	($14),y                 ; 0x14 <__rc4>
    1159: a0 13        	ldy	#$13
    115b: a9 02        	lda	#$2
    115d: 91 12        	sta	($12),y                 ; 0x12 <__rc2>
    115f: a0 04        	ldy	#$4
    1161: 3a           	dec
    1162: 91 12        	sta	($12),y                 ; 0x12 <__rc2>
    1164: a0 00        	ldy	#$0
    1166: 84 86        	sty	$86                     ; 0x86 <__zp_bss_size+0x38>
    1168: 80 3b        	bra	$11a5 <checkPads+0x129>
    116a: 86 1a        	stx	$1a                     ; 0x1a <__rc10>
    116c: a0 04        	ldy	#$4
    116e: b1 12        	lda	($12),y                 ; 0x12 <__rc2>
    1170: a0 01        	ldy	#$1
    1172: aa           	tax
    1173: f0 02        	beq	$1177 <checkPads+0xfb>
    1175: a0 00        	ldy	#$0
    1177: a2 01        	ldx	#$1
    1179: 86 15        	stx	$15                     ; 0x15 <__rc5>
    117b: a6 1a        	ldx	$1a                     ; 0x1a <__rc10>
    117d: a5 15        	lda	$15                     ; 0x15 <__rc5>
    117f: c0 00        	cpy	#$0
    1181: d0 02        	bne	$1185 <checkPads+0x109>
    1183: a9 00        	lda	#$0
    1185: 84 86        	sty	$86                     ; 0x86 <__zp_bss_size+0x38>
    1187: a0 13        	ldy	#$13
    1189: 91 12        	sta	($12),y                 ; 0x12 <__rc2>
    118b: a5 14        	lda	$14                     ; 0x14 <__rc4>
    118d: 18           	clc
    118e: 69 0b        	adc	#$b
    1190: 85 14        	sta	$14                     ; 0x14 <__rc4>
    1192: 8a           	txa
    1193: 69 00        	adc	#$0
    1195: 85 15        	sta	$15                     ; 0x15 <__rc5>
    1197: a0 0b        	ldy	#$b
    1199: a9 00        	lda	#$0
    119b: 91 12        	sta	($12),y                 ; 0x12 <__rc2>
    119d: a0 01        	ldy	#$1
    119f: 91 14        	sta	($14),y                 ; 0x14 <__rc4>
    11a1: a2 01        	ldx	#$1
    11a3: 86 87        	stx	$87                     ; 0x87 <__zp_bss_size+0x39>
    11a5: b2 18        	lda	($18)                   ; 0x18 <__rc8>
    11a7: 29 08        	and	#$8
    11a9: a2 ff        	ldx	#$ff
    11ab: a0 ff        	ldy	#$ff
    11ad: 84 89        	sty	$89                     ; 0x89 <__zp_bss_size+0x3b>
    11af: a8           	tay
    11b0: f0 0e        	beq	$11c0 <checkPads+0x144>
    11b2: b2 18        	lda	($18)                   ; 0x18 <__rc8>
    11b4: 29 04        	and	#$4
    11b6: f0 03        	beq	$11bb <checkPads+0x13f>
    11b8: 4c 2d 12     	jmp	$122d <checkPads+0x1b1>
    11bb: a2 00        	ldx	#$0
    11bd: 86 89        	stx	$89                     ; 0x89 <__zp_bss_size+0x3b>
    11bf: e8           	inx
    11c0: 18           	clc
    11c1: a5 1c        	lda	$1c                     ; 0x1c <__rc12>
    11c3: 65 17        	adc	$17                     ; 0x17 <__rc7>
    11c5: 85 12        	sta	$12                     ; 0x12 <__rc2>
    11c7: a5 1b        	lda	$1b                     ; 0x1b <__rc11>
    11c9: 65 16        	adc	$16                     ; 0x16 <__rc6>
    11cb: 85 13        	sta	$13                     ; 0x13 <__rc3>
    11cd: a0 00        	ldy	#$0
    11cf: 84 8c        	sty	$8c                     ; 0x8c <__zp_bss_size+0x3e>
    11d1: a9 65        	lda	#$65
    11d3: 18           	clc
    11d4: 65 12        	adc	$12                     ; 0x12 <__rc2>
    11d6: 85 1a        	sta	$1a                     ; 0x1a <__rc10>
    11d8: a9 53        	lda	#$53
    11da: 65 13        	adc	$13                     ; 0x13 <__rc3>
    11dc: a4 1a        	ldy	$1a                     ; 0x1a <__rc10>
    11de: 84 14        	sty	$14                     ; 0x14 <__rc4>
    11e0: 85 15        	sta	$15                     ; 0x15 <__rc5>
    11e2: 85 12        	sta	$12                     ; 0x12 <__rc2>
    11e4: a0 0d        	ldy	#$d
    11e6: 8a           	txa
    11e7: 91 14        	sta	($14),y                 ; 0x14 <__rc4>
    11e9: 18           	clc
    11ea: a5 1a        	lda	$1a                     ; 0x1a <__rc10>
    11ec: 69 0d        	adc	#$d
    11ee: aa           	tax
    11ef: a4 12        	ldy	$12                     ; 0x12 <__rc2>
    11f1: 84 1e        	sty	$1e                     ; 0x1e <__rc14>
    11f3: a5 12        	lda	$12                     ; 0x12 <__rc2>
    11f5: 69 00        	adc	#$0
    11f7: 86 12        	stx	$12                     ; 0x12 <__rc2>
    11f9: 85 13        	sta	$13                     ; 0x13 <__rc3>
    11fb: a0 01        	ldy	#$1
    11fd: a5 89        	lda	$89                     ; 0x89 <__zp_bss_size+0x3b>
    11ff: 91 12        	sta	($12),y                 ; 0x12 <__rc2>
    1201: a9 03        	lda	#$3
    1203: a4 86        	ldy	$86                     ; 0x86 <__zp_bss_size+0x38>
    1205: d0 02        	bne	$1209 <checkPads+0x18d>
    1207: a9 02        	lda	#$2
    1209: a0 13        	ldy	#$13
    120b: 91 14        	sta	($14),y                 ; 0x14 <__rc4>
    120d: 18           	clc
    120e: a5 1a        	lda	$1a                     ; 0x1a <__rc10>
    1210: 69 0b        	adc	#$b
    1212: 85 12        	sta	$12                     ; 0x12 <__rc2>
    1214: a5 1e        	lda	$1e                     ; 0x1e <__rc14>
    1216: 69 00        	adc	#$0
    1218: 85 13        	sta	$13                     ; 0x13 <__rc3>
    121a: a6 87        	ldx	$87                     ; 0x87 <__zp_bss_size+0x39>
    121c: f0 03        	beq	$1221 <checkPads+0x1a5>
    121e: 4c a2 12     	jmp	$12a2 <checkPads+0x226>
    1221: a5 1d        	lda	$1d                     ; 0x1d <__rc13>
    1223: d0 03        	bne	$1228 <checkPads+0x1ac>
    1225: 4c 78 12     	jmp	$1278 <checkPads+0x1fc>
    1228: a2 40        	ldx	#$40
    122a: 4c 7a 12     	jmp	$127a <checkPads+0x1fe>
    122d: 18           	clc
    122e: a5 1c        	lda	$1c                     ; 0x1c <__rc12>
    1230: 65 17        	adc	$17                     ; 0x17 <__rc7>
    1232: 85 12        	sta	$12                     ; 0x12 <__rc2>
    1234: a5 1b        	lda	$1b                     ; 0x1b <__rc11>
    1236: 65 16        	adc	$16                     ; 0x16 <__rc6>
    1238: 85 13        	sta	$13                     ; 0x13 <__rc3>
    123a: a9 65        	lda	#$65
    123c: 18           	clc
    123d: 65 12        	adc	$12                     ; 0x12 <__rc2>
    123f: a8           	tay
    1240: a9 53        	lda	#$53
    1242: 65 13        	adc	$13                     ; 0x13 <__rc3>
    1244: aa           	tax
    1245: 18           	clc
    1246: 98           	tya
    1247: 69 0d        	adc	#$d
    1249: 85 12        	sta	$12                     ; 0x12 <__rc2>
    124b: 8a           	txa
    124c: 69 00        	adc	#$0
    124e: 85 13        	sta	$13                     ; 0x13 <__rc3>
    1250: 84 14        	sty	$14                     ; 0x14 <__rc4>
    1252: 84 1a        	sty	$1a                     ; 0x1a <__rc10>
    1254: 86 15        	stx	$15                     ; 0x15 <__rc5>
    1256: a0 0d        	ldy	#$d
    1258: a9 00        	lda	#$0
    125a: 91 14        	sta	($14),y                 ; 0x14 <__rc4>
    125c: a0 01        	ldy	#$1
    125e: 91 12        	sta	($12),y                 ; 0x12 <__rc2>
    1260: 18           	clc
    1261: a5 1a        	lda	$1a                     ; 0x1a <__rc10>
    1263: 69 0b        	adc	#$b
    1265: 85 12        	sta	$12                     ; 0x12 <__rc2>
    1267: 8a           	txa
    1268: 69 00        	adc	#$0
    126a: 85 13        	sta	$13                     ; 0x13 <__rc3>
    126c: a6 87        	ldx	$87                     ; 0x87 <__zp_bss_size+0x39>
    126e: f0 1c        	beq	$128c <checkPads+0x210>
    1270: a4 86        	ldy	$86                     ; 0x86 <__zp_bss_size+0x38>
    1272: f0 24        	beq	$1298 <checkPads+0x21c>
    1274: a9 01        	lda	#$1
    1276: 80 22        	bra	$129a <checkPads+0x21e>
    1278: a2 80        	ldx	#$80
    127a: 86 1a        	stx	$1a                     ; 0x1a <__rc10>
    127c: b2 18        	lda	($18)                   ; 0x18 <__rc8>
    127e: 25 1a        	and	$1a                     ; 0x1a <__rc10>
    1280: f0 03        	beq	$1285 <checkPads+0x209>
    1282: 4c 4a 16     	jmp	$164a <checkPads+0x5ce>
    1285: 64 18        	stz	$18                     ; 0x18 <__rc8>
    1287: a2 11        	ldx	#$11
    1289: 4c 22 13     	jmp	$1322 <checkPads+0x2a6>
    128c: a5 1d        	lda	$1d                     ; 0x1d <__rc13>
    128e: d0 03        	bne	$1293 <checkPads+0x217>
    1290: 4c 11 13     	jmp	$1311 <checkPads+0x295>
    1293: a2 40        	ldx	#$40
    1295: 4c 13 13     	jmp	$1313 <checkPads+0x297>
    1298: a9 00        	lda	#$0
    129a: a0 13        	ldy	#$13
    129c: 91 14        	sta	($14),y                 ; 0x14 <__rc4>
    129e: a2 01        	ldx	#$1
    12a0: 86 8c        	stx	$8c                     ; 0x8c <__zp_bss_size+0x3e>
    12a2: a5 1d        	lda	$1d                     ; 0x1d <__rc13>
    12a4: f0 04        	beq	$12aa <checkPads+0x22e>
    12a6: a2 40        	ldx	#$40
    12a8: 80 02        	bra	$12ac <checkPads+0x230>
    12aa: a2 80        	ldx	#$80
    12ac: 86 1a        	stx	$1a                     ; 0x1a <__rc10>
    12ae: b2 18        	lda	($18)                   ; 0x18 <__rc8>
    12b0: 25 1a        	and	$1a                     ; 0x1a <__rc10>
    12b2: f0 03        	beq	$12b7 <checkPads+0x23b>
    12b4: 4c 4a 16     	jmp	$164a <checkPads+0x5ce>
    12b7: 18           	clc
    12b8: a5 1c        	lda	$1c                     ; 0x1c <__rc12>
    12ba: 65 17        	adc	$17                     ; 0x17 <__rc7>
    12bc: 85 17        	sta	$17                     ; 0x17 <__rc7>
    12be: a5 1b        	lda	$1b                     ; 0x1b <__rc11>
    12c0: 65 16        	adc	$16                     ; 0x16 <__rc6>
    12c2: 85 16        	sta	$16                     ; 0x16 <__rc6>
    12c4: a9 65        	lda	#$65
    12c6: 18           	clc
    12c7: 65 17        	adc	$17                     ; 0x17 <__rc7>
    12c9: a8           	tay
    12ca: a9 53        	lda	#$53
    12cc: 65 16        	adc	$16                     ; 0x16 <__rc6>
    12ce: 84 18        	sty	$18                     ; 0x18 <__rc8>
    12d0: 84 16        	sty	$16                     ; 0x16 <__rc6>
    12d2: 85 19        	sta	$19                     ; 0x19 <__rc9>
    12d4: 85 17        	sta	$17                     ; 0x17 <__rc7>
    12d6: a0 05        	ldy	#$5
    12d8: b1 16        	lda	($16),y                 ; 0x16 <__rc6>
    12da: a2 01        	ldx	#$1
    12dc: a8           	tay
    12dd: f0 02        	beq	$12e1 <checkPads+0x265>
    12df: a2 00        	ldx	#$0
    12e1: a0 01        	ldy	#$1
    12e3: a9 00        	lda	#$0
    12e5: e0 00        	cpx	#$0
    12e7: d0 02        	bne	$12eb <checkPads+0x26f>
    12e9: a9 01        	lda	#$1
    12eb: 84 16        	sty	$16                     ; 0x16 <__rc6>
    12ed: a6 8c        	ldx	$8c                     ; 0x8c <__zp_bss_size+0x3e>
    12ef: d0 02        	bne	$12f3 <checkPads+0x277>
    12f1: 64 16        	stz	$16                     ; 0x16 <__rc6>
    12f3: 05 16        	ora	$16                     ; 0x16 <__rc6>
    12f5: 29 01        	and	#$1
    12f7: f0 03        	beq	$12fc <checkPads+0x280>
    12f9: 4c 4a 16     	jmp	$164a <checkPads+0x5ce>
    12fc: 18           	clc
    12fd: a5 18        	lda	$18                     ; 0x18 <__rc8>
    12ff: 69 05        	adc	#$5
    1301: 85 16        	sta	$16                     ; 0x16 <__rc6>
    1303: a5 19        	lda	$19                     ; 0x19 <__rc9>
    1305: 69 00        	adc	#$0
    1307: 85 17        	sta	$17                     ; 0x17 <__rc7>
    1309: a2 18        	ldx	#$18
    130b: 86 8c        	stx	$8c                     ; 0x8c <__zp_bss_size+0x3e>
    130d: 64 18        	stz	$18                     ; 0x18 <__rc8>
    130f: 80 4c        	bra	$135d <checkPads+0x2e1>
    1311: a2 80        	ldx	#$80
    1313: 86 1a        	stx	$1a                     ; 0x1a <__rc10>
    1315: b2 18        	lda	($18)                   ; 0x18 <__rc8>
    1317: 25 1a        	and	$1a                     ; 0x1a <__rc10>
    1319: f0 03        	beq	$131e <checkPads+0x2a2>
    131b: 4c 4a 16     	jmp	$164a <checkPads+0x5ce>
    131e: 64 18        	stz	$18                     ; 0x18 <__rc8>
    1320: a2 18        	ldx	#$18
    1322: 18           	clc
    1323: a5 1c        	lda	$1c                     ; 0x1c <__rc12>
    1325: 65 17        	adc	$17                     ; 0x17 <__rc7>
    1327: 85 17        	sta	$17                     ; 0x17 <__rc7>
    1329: a5 1b        	lda	$1b                     ; 0x1b <__rc11>
    132b: 65 16        	adc	$16                     ; 0x16 <__rc6>
    132d: 85 16        	sta	$16                     ; 0x16 <__rc6>
    132f: a9 65        	lda	#$65
    1331: 18           	clc
    1332: 65 17        	adc	$17                     ; 0x17 <__rc7>
    1334: 85 17        	sta	$17                     ; 0x17 <__rc7>
    1336: a9 53        	lda	#$53
    1338: 65 16        	adc	$16                     ; 0x16 <__rc6>
    133a: a8           	tay
    133b: a5 17        	lda	$17                     ; 0x17 <__rc7>
    133d: 85 19        	sta	$19                     ; 0x19 <__rc9>
    133f: 85 16        	sta	$16                     ; 0x16 <__rc6>
    1341: 84 1a        	sty	$1a                     ; 0x1a <__rc10>
    1343: 84 17        	sty	$17                     ; 0x17 <__rc7>
    1345: a0 05        	ldy	#$5
    1347: b1 16        	lda	($16),y                 ; 0x16 <__rc6>
    1349: f0 03        	beq	$134e <checkPads+0x2d2>
    134b: 4c 4a 16     	jmp	$164a <checkPads+0x5ce>
    134e: 86 8c        	stx	$8c                     ; 0x8c <__zp_bss_size+0x3e>
    1350: 18           	clc
    1351: a5 19        	lda	$19                     ; 0x19 <__rc9>
    1353: 69 05        	adc	#$5
    1355: 85 16        	sta	$16                     ; 0x16 <__rc6>
    1357: a5 1a        	lda	$1a                     ; 0x1a <__rc10>
    1359: 69 00        	adc	#$0
    135b: 85 17        	sta	$17                     ; 0x17 <__rc7>
    135d: a9 01        	lda	#$1
    135f: 92 16        	sta	($16)                   ; 0x16 <__rc6>
    1361: a0 05        	ldy	#$5
    1363: a6 86        	ldx	$86                     ; 0x86 <__zp_bss_size+0x38>
    1365: d0 02        	bne	$1369 <checkPads+0x2ed>
    1367: a0 04        	ldy	#$4
    1369: a6 8b        	ldx	$8b                     ; 0x8b <__zp_bss_size+0x3d>
    136b: 8a           	txa
    136c: 18           	clc
    136d: 69 0a        	adc	#$a
    136f: 85 19        	sta	$19                     ; 0x19 <__rc9>
    1371: 84 1b        	sty	$1b                     ; 0x1b <__rc11>
    1373: a9 00        	lda	#$0
    1375: 69 00        	adc	#$0
    1377: a6 19        	ldx	$19                     ; 0x19 <__rc9>
    1379: 86 16        	stx	$16                     ; 0x16 <__rc6>
    137b: 06 16        	asl	$16                     ; 0x16 <__rc6>
    137d: 2a           	rol
    137e: 06 16        	asl	$16                     ; 0x16 <__rc6>
    1380: 2a           	rol
    1381: 06 16        	asl	$16                     ; 0x16 <__rc6>
    1383: 2a           	rol
    1384: 85 17        	sta	$17                     ; 0x17 <__rc7>
    1386: a5 16        	lda	$16                     ; 0x16 <__rc6>
    1388: 0a           	asl
    1389: a6 17        	ldx	$17                     ; 0x17 <__rc7>
    138b: 86 1a        	stx	$1a                     ; 0x1a <__rc10>
    138d: 26 1a        	rol	$1a                     ; 0x1a <__rc10>
    138f: 18           	clc
    1390: 65 16        	adc	$16                     ; 0x16 <__rc6>
    1392: 85 16        	sta	$16                     ; 0x16 <__rc6>
    1394: a5 1a        	lda	$1a                     ; 0x1a <__rc10>
    1396: 65 17        	adc	$17                     ; 0x17 <__rc7>
    1398: 85 17        	sta	$17                     ; 0x17 <__rc7>
    139a: a9 65        	lda	#$65
    139c: 18           	clc
    139d: 65 16        	adc	$16                     ; 0x16 <__rc6>
    139f: 85 22        	sta	$22                     ; 0x22 <__rc18>
    13a1: a9 53        	lda	#$53
    13a3: 65 17        	adc	$17                     ; 0x17 <__rc7>
    13a5: 85 1d        	sta	$1d                     ; 0x1d <__rc13>
    13a7: a5 14        	lda	$14                     ; 0x14 <__rc4>
    13a9: 18           	clc
    13aa: 69 02        	adc	#$2
    13ac: 85 1a        	sta	$1a                     ; 0x1a <__rc10>
    13ae: a5 15        	lda	$15                     ; 0x15 <__rc5>
    13b0: 69 00        	adc	#$0
    13b2: 85 16        	sta	$16                     ; 0x16 <__rc6>
    13b4: a0 13        	ldy	#$13
    13b6: a6 1b        	ldx	$1b                     ; 0x1b <__rc11>
    13b8: 86 91        	stx	$91                     ; 0x91 <__zp_bss_size+0x43>
    13ba: a5 1b        	lda	$1b                     ; 0x1b <__rc11>
    13bc: 91 14        	sta	($14),y                 ; 0x14 <__rc4>
    13be: a6 16        	ldx	$16                     ; 0x16 <__rc6>
    13c0: 86 1b        	stx	$1b                     ; 0x1b <__rc11>
    13c2: b2 14        	lda	($14)                   ; 0x14 <__rc4>
    13c4: aa           	tax
    13c5: a4 22        	ldy	$22                     ; 0x22 <__rc18>
    13c7: 84 16        	sty	$16                     ; 0x16 <__rc6>
    13c9: a4 1d        	ldy	$1d                     ; 0x1d <__rc13>
    13cb: 84 17        	sty	$17                     ; 0x17 <__rc7>
    13cd: a0 01        	ldy	#$1
    13cf: b1 14        	lda	($14),y                 ; 0x14 <__rc4>
    13d1: 85 1c        	sta	$1c                     ; 0x1c <__rc12>
    13d3: 86 1e        	stx	$1e                     ; 0x1e <__rc14>
    13d5: 8a           	txa
    13d6: 92 16        	sta	($16)                   ; 0x16 <__rc6>
    13d8: a5 1c        	lda	$1c                     ; 0x1c <__rc12>
    13da: 85 1f        	sta	$1f                     ; 0x1f <__rc15>
    13dc: 91 16        	sta	($16),y                 ; 0x16 <__rc6>
    13de: c8           	iny
    13df: b1 14        	lda	($14),y                 ; 0x14 <__rc4>
    13e1: aa           	tax
    13e2: 88           	dey
    13e3: b1 1a        	lda	($1a),y                 ; 0x1a <__rc10>
    13e5: 85 23        	sta	$23                     ; 0x23 <__rc19>
    13e7: e8           	inx
    13e8: d0 02        	bne	$13ec <checkPads+0x370>
    13ea: e6 23        	inc	$23                     ; 0x23 <__rc19>
    13ec: 86 1c        	stx	$1c                     ; 0x1c <__rc12>
    13ee: 8a           	txa
    13ef: a0 02        	ldy	#$2
    13f1: 91 16        	sta	($16),y                 ; 0x16 <__rc6>
    13f3: a5 22        	lda	$22                     ; 0x22 <__rc18>
    13f5: a6 22        	ldx	$22                     ; 0x22 <__rc18>
    13f7: 86 93        	stx	$93                     ; 0x93 <__zp_bss_size+0x45>
    13f9: 18           	clc
    13fa: 69 02        	adc	#$2
    13fc: 85 1a        	sta	$1a                     ; 0x1a <__rc10>
    13fe: a5 1d        	lda	$1d                     ; 0x1d <__rc13>
    1400: a6 1d        	ldx	$1d                     ; 0x1d <__rc13>
    1402: 86 92        	stx	$92                     ; 0x92 <__zp_bss_size+0x44>
    1404: 69 00        	adc	#$0
    1406: 85 1b        	sta	$1b                     ; 0x1b <__rc11>
    1408: a5 23        	lda	$23                     ; 0x23 <__rc19>
    140a: 85 1d        	sta	$1d                     ; 0x1d <__rc13>
    140c: 88           	dey
    140d: 91 1a        	sta	($1a),y                 ; 0x1a <__rc10>
    140f: 98           	tya
    1410: a6 19        	ldx	$19                     ; 0x19 <__rc9>
    1412: a4 86        	ldy	$86                     ; 0x86 <__zp_bss_size+0x38>
    1414: d0 02        	bne	$1418 <checkPads+0x39c>
    1416: a9 00        	lda	#$0
    1418: a4 14        	ldy	$14                     ; 0x14 <__rc4>
    141a: 84 87        	sty	$87                     ; 0x87 <__zp_bss_size+0x39>
    141c: a4 15        	ldy	$15                     ; 0x15 <__rc5>
    141e: 84 88        	sty	$88                     ; 0x88 <__zp_bss_size+0x3a>
    1420: a0 13        	ldy	#$13
    1422: 91 16        	sta	($16),y                 ; 0x16 <__rc6>
    1424: a9 04        	lda	#$4
    1426: a4 86        	ldy	$86                     ; 0x86 <__zp_bss_size+0x38>
    1428: d0 02        	bne	$142c <checkPads+0x3b0>
    142a: a9 00        	lda	#$0
    142c: a0 0a        	ldy	#$a
    142e: 91 16        	sta	($16),y                 ; 0x16 <__rc6>
    1430: a5 19        	lda	$19                     ; 0x19 <__rc9>
    1432: 0a           	asl
    1433: 64 19        	stz	$19                     ; 0x19 <__rc9>
    1435: 26 19        	rol	$19                     ; 0x19 <__rc9>
    1437: 0a           	asl
    1438: 26 19        	rol	$19                     ; 0x19 <__rc9>
    143a: 0a           	asl
    143b: 26 19        	rol	$19                     ; 0x19 <__rc9>
    143d: 18           	clc
    143e: 85 1a        	sta	$1a                     ; 0x1a <__rc10>
    1440: 69 04        	adc	#$4
    1442: 85 14        	sta	$14                     ; 0x14 <__rc4>
    1444: a5 19        	lda	$19                     ; 0x19 <__rc9>
    1446: 69 d9        	adc	#$d9
    1448: 85 15        	sta	$15                     ; 0x15 <__rc5>
    144a: a5 1e        	lda	$1e                     ; 0x1e <__rc14>
    144c: 92 14        	sta	($14)                   ; 0x14 <__rc4>
    144e: a0 01        	ldy	#$1
    1450: a5 1f        	lda	$1f                     ; 0x1f <__rc15>
    1452: 91 14        	sta	($14),y                 ; 0x14 <__rc4>
    1454: 18           	clc
    1455: a5 1a        	lda	$1a                     ; 0x1a <__rc10>
    1457: 69 06        	adc	#$6
    1459: 85 1b        	sta	$1b                     ; 0x1b <__rc11>
    145b: a5 19        	lda	$19                     ; 0x19 <__rc9>
    145d: 69 d9        	adc	#$d9
    145f: 5a           	phy
    1460: a4 1b        	ldy	$1b                     ; 0x1b <__rc11>
    1462: 84 14        	sty	$14                     ; 0x14 <__rc4>
    1464: 7a           	ply
    1465: 85 15        	sta	$15                     ; 0x15 <__rc5>
    1467: a5 1c        	lda	$1c                     ; 0x1c <__rc12>
    1469: 92 14        	sta	($14)                   ; 0x14 <__rc4>
    146b: a5 1d        	lda	$1d                     ; 0x1d <__rc13>
    146d: 91 14        	sta	($14),y                 ; 0x14 <__rc4>
    146f: 18           	clc
    1470: a5 1a        	lda	$1a                     ; 0x1a <__rc10>
    1472: 69 00        	adc	#$0
    1474: 85 14        	sta	$14                     ; 0x14 <__rc4>
    1476: a5 19        	lda	$19                     ; 0x19 <__rc9>
    1478: 69 d9        	adc	#$d9
    147a: 85 15        	sta	$15                     ; 0x15 <__rc5>
    147c: a9 01        	lda	#$1
    147e: 15 39        	ora	$39,x                   ; 0x39 <_spriteCtl>
    1480: 92 14        	sta	($14)                   ; 0x14 <__rc4>
    1482: a2 80        	ldx	#$80
    1484: 86 f3        	stx	$f3                     ; 0xf3 <__zp_bss_size+0xa5>
    1486: a2 85        	ldx	#$85
    1488: a0 00        	ldy	#$0
    148a: 86 14        	stx	$14                     ; 0x14 <__rc4>
    148c: 84 15        	sty	$15                     ; 0x15 <__rc5>
    148e: a2 45        	ldx	#$45
    1490: 86 1a        	stx	$1a                     ; 0x1a <__rc10>
    1492: a2 55        	ldx	#$55
    1494: 86 1b        	stx	$1b                     ; 0x1b <__rc11>
    1496: 20 f0 ff     	jsr	$fff0 <end_block9+0xaaa6>
    1499: 92 14        	sta	($14)                   ; 0x14 <__rc4>
    149b: a9 00        	lda	#$0
    149d: 6a           	ror
    149e: 85 1a        	sta	$1a                     ; 0x1a <__rc10>
    14a0: 18           	clc
    14a1: a9 08        	lda	#$8
    14a3: 65 85        	adc	$85                     ; 0x85 <__zp_bss_size+0x37>
    14a5: 85 15        	sta	$15                     ; 0x15 <__rc5>
    14a7: a0 0f        	ldy	#$f
    14a9: b1 16        	lda	($16),y                 ; 0x16 <__rc6>
    14ab: 85 14        	sta	$14                     ; 0x14 <__rc4>
    14ad: c8           	iny
    14ae: a5 15        	lda	$15                     ; 0x15 <__rc5>
    14b0: 91 16        	sta	($16),y                 ; 0x16 <__rc6>
    14b2: a6 14        	ldx	$14                     ; 0x14 <__rc4>
    14b4: 86 f3        	stx	$f3                     ; 0xf3 <__zp_bss_size+0xa5>
    14b6: b1 16        	lda	($16),y                 ; 0x16 <__rc6>
    14b8: 85 f4        	sta	$f4                     ; 0xf4 <__zp_bss_size+0xa6>
    14ba: c8           	iny
    14bb: a6 16        	ldx	$16                     ; 0x16 <__rc6>
    14bd: 86 14        	stx	$14                     ; 0x14 <__rc4>
    14bf: a6 17        	ldx	$17                     ; 0x17 <__rc7>
    14c1: 86 15        	stx	$15                     ; 0x15 <__rc5>
    14c3: a6 14        	ldx	$14                     ; 0x14 <__rc4>
    14c5: 86 89        	stx	$89                     ; 0x89 <__zp_bss_size+0x3b>
    14c7: a6 15        	ldx	$15                     ; 0x15 <__rc5>
    14c9: 86 8a        	stx	$8a                     ; 0x8a <__zp_bss_size+0x3c>
    14cb: b1 16        	lda	($16),y                 ; 0x16 <__rc6>
    14cd: 85 f5        	sta	$f5                     ; 0xf5 <__zp_bss_size+0xa7>
    14cf: a2 84        	ldx	#$84
    14d1: 86 14        	stx	$14                     ; 0x14 <__rc4>
    14d3: a2 00        	ldx	#$0
    14d5: 86 15        	stx	$15                     ; 0x15 <__rc5>
    14d7: 20 f0 ff     	jsr	$fff0 <end_block9+0xaaa6>
    14da: 92 14        	sta	($14)                   ; 0x14 <__rc4>
    14dc: a9 00        	lda	#$0
    14de: 6a           	ror
    14df: 85 1a        	sta	$1a                     ; 0x1a <__rc10>
    14e1: b2 12        	lda	($12)                   ; 0x12 <__rc2>
    14e3: 85 14        	sta	$14                     ; 0x14 <__rc4>
    14e5: a0 01        	ldy	#$1
    14e7: b1 12        	lda	($12),y                 ; 0x12 <__rc2>
    14e9: a6 12        	ldx	$12                     ; 0x12 <__rc2>
    14eb: 86 8d        	stx	$8d                     ; 0x8d <__zp_bss_size+0x3f>
    14ed: a6 13        	ldx	$13                     ; 0x13 <__rc3>
    14ef: 86 8e        	stx	$8e                     ; 0x8e <__zp_bss_size+0x40>
    14f1: a6 8c        	ldx	$8c                     ; 0x8c <__zp_bss_size+0x3e>
    14f3: 86 12        	stx	$12                     ; 0x12 <__rc2>
    14f5: 86 8c        	stx	$8c                     ; 0x8c <__zp_bss_size+0x3e>
    14f7: a2 00        	ldx	#$0
    14f9: 88           	dey
    14fa: 84 94        	sty	$94                     ; 0x94 <__zp_bss_size+0x46>
    14fc: 64 13        	stz	$13                     ; 0x13 <__rc3>
    14fe: aa           	tax
    14ff: a5 14        	lda	$14                     ; 0x14 <__rc4>
    1501: 20 2e 2e     	jsr	$2e2e <__mulhi3>
    1504: 86 14        	stx	$14                     ; 0x14 <__rc4>
    1506: 18           	clc
    1507: a6 87        	ldx	$87                     ; 0x87 <__zp_bss_size+0x39>
    1509: 86 12        	stx	$12                     ; 0x12 <__rc2>
    150b: a6 88        	ldx	$88                     ; 0x88 <__zp_bss_size+0x3a>
    150d: 86 13        	stx	$13                     ; 0x13 <__rc3>
    150f: 72 12        	adc	($12)                   ; 0x12 <__rc2>
    1511: aa           	tax
    1512: a0 01        	ldy	#$1
    1514: a5 14        	lda	$14                     ; 0x14 <__rc4>
    1516: 71 12        	adc	($12),y                 ; 0x12 <__rc2>
    1518: 85 14        	sta	$14                     ; 0x14 <__rc4>
    151a: 8a           	txa
    151b: 92 12        	sta	($12)                   ; 0x12 <__rc2>
    151d: a5 14        	lda	$14                     ; 0x14 <__rc4>
    151f: 91 12        	sta	($12),y                 ; 0x12 <__rc2>
    1521: a5 12        	lda	$12                     ; 0x12 <__rc2>
    1523: a6 12        	ldx	$12                     ; 0x12 <__rc2>
    1525: 86 95        	stx	$95                     ; 0x95 <__zp_bss_size+0x47>
    1527: a4 13        	ldy	$13                     ; 0x13 <__rc3>
    1529: 84 96        	sty	$96                     ; 0x96 <__zp_bss_size+0x48>
    152b: a6 12        	ldx	$12                     ; 0x12 <__rc2>
    152d: 86 16        	stx	$16                     ; 0x16 <__rc6>
    152f: a6 13        	ldx	$13                     ; 0x13 <__rc3>
    1531: 86 17        	stx	$17                     ; 0x17 <__rc7>
    1533: a4 12        	ldy	$12                     ; 0x12 <__rc2>
    1535: 84 87        	sty	$87                     ; 0x87 <__zp_bss_size+0x39>
    1537: a4 13        	ldy	$13                     ; 0x13 <__rc3>
    1539: 84 88        	sty	$88                     ; 0x88 <__zp_bss_size+0x3a>
    153b: 18           	clc
    153c: 69 0d        	adc	#$d
    153e: 85 12        	sta	$12                     ; 0x12 <__rc2>
    1540: a5 13        	lda	$13                     ; 0x13 <__rc3>
    1542: 69 00        	adc	#$0
    1544: a0 0d        	ldy	#$d
    1546: 85 13        	sta	$13                     ; 0x13 <__rc3>
    1548: a6 12        	ldx	$12                     ; 0x12 <__rc2>
    154a: 86 14        	stx	$14                     ; 0x14 <__rc4>
    154c: 85 15        	sta	$15                     ; 0x15 <__rc5>
    154e: a6 14        	ldx	$14                     ; 0x14 <__rc4>
    1550: 86 8f        	stx	$8f                     ; 0x8f <__zp_bss_size+0x41>
    1552: a6 15        	ldx	$15                     ; 0x15 <__rc5>
    1554: 86 90        	stx	$90                     ; 0x90 <__zp_bss_size+0x42>
    1556: b1 16        	lda	($16),y                 ; 0x16 <__rc6>
    1558: 85 14        	sta	$14                     ; 0x14 <__rc4>
    155a: a0 01        	ldy	#$1
    155c: b1 12        	lda	($12),y                 ; 0x12 <__rc2>
    155e: a6 8c        	ldx	$8c                     ; 0x8c <__zp_bss_size+0x3e>
    1560: 86 12        	stx	$12                     ; 0x12 <__rc2>
    1562: a6 94        	ldx	$94                     ; 0x94 <__zp_bss_size+0x46>
    1564: 86 13        	stx	$13                     ; 0x13 <__rc3>
    1566: aa           	tax
    1567: a5 14        	lda	$14                     ; 0x14 <__rc4>
    1569: 20 2e 2e     	jsr	$2e2e <__mulhi3>
    156c: a4 87        	ldy	$87                     ; 0x87 <__zp_bss_size+0x39>
    156e: 84 12        	sty	$12                     ; 0x12 <__rc2>
    1570: a4 88        	ldy	$88                     ; 0x88 <__zp_bss_size+0x3a>
    1572: 84 13        	sty	$13                     ; 0x13 <__rc3>
    1574: 85 16        	sta	$16                     ; 0x16 <__rc6>
    1576: 18           	clc
    1577: a5 95        	lda	$95                     ; 0x95 <__zp_bss_size+0x47>
    1579: 69 02        	adc	#$2
    157b: 85 14        	sta	$14                     ; 0x14 <__rc4>
    157d: a5 96        	lda	$96                     ; 0x96 <__zp_bss_size+0x48>
    157f: 69 00        	adc	#$0
    1581: 85 15        	sta	$15                     ; 0x15 <__rc5>
    1583: 18           	clc
    1584: a0 02        	ldy	#$2
    1586: a5 16        	lda	$16                     ; 0x16 <__rc6>
    1588: 71 12        	adc	($12),y                 ; 0x12 <__rc2>
    158a: 85 17        	sta	$17                     ; 0x17 <__rc7>
    158c: 88           	dey
    158d: 8a           	txa
    158e: 71 14        	adc	($14),y                 ; 0x14 <__rc4>
    1590: 85 16        	sta	$16                     ; 0x16 <__rc6>
    1592: c8           	iny
    1593: a5 17        	lda	$17                     ; 0x17 <__rc7>
    1595: 91 12        	sta	($12),y                 ; 0x12 <__rc2>
    1597: a5 16        	lda	$16                     ; 0x16 <__rc6>
    1599: 88           	dey
    159a: 91 14        	sta	($14),y                 ; 0x14 <__rc4>
    159c: a9 00        	lda	#$0
    159e: a6 8d        	ldx	$8d                     ; 0x8d <__zp_bss_size+0x3f>
    15a0: 86 14        	stx	$14                     ; 0x14 <__rc4>
    15a2: a6 8e        	ldx	$8e                     ; 0x8e <__zp_bss_size+0x40>
    15a4: 86 15        	stx	$15                     ; 0x15 <__rc5>
    15a6: 92 14        	sta	($14)                   ; 0x14 <__rc4>
    15a8: 91 14        	sta	($14),y                 ; 0x14 <__rc4>
    15aa: a0 0d        	ldy	#$d
    15ac: 91 12        	sta	($12),y                 ; 0x12 <__rc2>
    15ae: a6 8f        	ldx	$8f                     ; 0x8f <__zp_bss_size+0x41>
    15b0: 86 14        	stx	$14                     ; 0x14 <__rc4>
    15b2: a6 90        	ldx	$90                     ; 0x90 <__zp_bss_size+0x42>
    15b4: 86 15        	stx	$15                     ; 0x15 <__rc5>
    15b6: a0 01        	ldy	#$1
    15b8: 91 14        	sta	($14),y                 ; 0x14 <__rc4>
    15ba: a9 03        	lda	#$3
    15bc: a6 86        	ldx	$86                     ; 0x86 <__zp_bss_size+0x38>
    15be: d0 02        	bne	$15c2 <checkPads+0x546>
    15c0: a9 01        	lda	#$1
    15c2: a0 0a        	ldy	#$a
    15c4: 91 12        	sta	($12),y                 ; 0x12 <__rc2>
    15c6: a0 13        	ldy	#$13
    15c8: a5 91        	lda	$91                     ; 0x91 <__zp_bss_size+0x43>
    15ca: 91 12        	sta	($12),y                 ; 0x12 <__rc2>
    15cc: 64 37        	stz	$37                     ; 0x37 <_col>
    15ce: 9c 14 d0     	stz	$d014                   ; 0xd014 <end_block9+0x7aca>
    15d1: 9c 15 d0     	stz	$d015                   ; 0xd015 <end_block9+0x7acb>
    15d4: 64 38        	stz	$38                     ; 0x38 <_row>
    15d6: 9c 16 d0     	stz	$d016                   ; 0xd016 <end_block9+0x7acc>
    15d9: 9c 17 d0     	stz	$d017                   ; 0xd017 <end_block9+0x7acd>
    15dc: a6 89        	ldx	$89                     ; 0x89 <__zp_bss_size+0x3b>
    15de: 86 12        	stx	$12                     ; 0x12 <__rc2>
    15e0: a6 8a        	ldx	$8a                     ; 0x8a <__zp_bss_size+0x3c>
    15e2: 86 13        	stx	$13                     ; 0x13 <__rc3>
    15e4: b1 12        	lda	($12),y                 ; 0x12 <__rc2>
    15e6: 85 17        	sta	$17                     ; 0x17 <__rc7>
    15e8: a0 0a        	ldy	#$a
    15ea: b1 12        	lda	($12),y                 ; 0x12 <__rc2>
    15ec: 85 16        	sta	$16                     ; 0x16 <__rc6>
    15ee: a2 01        	ldx	#$1
    15f0: 86 36        	stx	$36                     ; 0x36 <_ccolor>
    15f2: a0 01        	ldy	#$1
    15f4: a6 93        	ldx	$93                     ; 0x93 <__zp_bss_size+0x45>
    15f6: 8a           	txa
    15f7: 18           	clc
    15f8: 69 02        	adc	#$2
    15fa: 85 14        	sta	$14                     ; 0x14 <__rc4>
    15fc: a5 92        	lda	$92                     ; 0x92 <__zp_bss_size+0x44>
    15fe: 69 00        	adc	#$0
    1600: 85 15        	sta	$15                     ; 0x15 <__rc5>
    1602: b2 12        	lda	($12)                   ; 0x12 <__rc2>
    1604: 85 18        	sta	$18                     ; 0x18 <__rc8>
    1606: b1 12        	lda	($12),y                 ; 0x12 <__rc2>
    1608: 85 19        	sta	$19                     ; 0x19 <__rc9>
    160a: c8           	iny
    160b: b1 12        	lda	($12),y                 ; 0x12 <__rc2>
    160d: 85 13        	sta	$13                     ; 0x13 <__rc3>
    160f: 88           	dey
    1610: b1 14        	lda	($14),y                 ; 0x14 <__rc4>
    1612: 85 12        	sta	$12                     ; 0x12 <__rc2>
    1614: a5 18        	lda	$18                     ; 0x18 <__rc8>
    1616: c8           	iny
    1617: 91 10        	sta	($10),y                 ; 0x10 <__rc0>
    1619: c8           	iny
    161a: a5 19        	lda	$19                     ; 0x19 <__rc9>
    161c: 91 10        	sta	($10),y                 ; 0x10 <__rc0>
    161e: a5 8b        	lda	$8b                     ; 0x8b <__zp_bss_size+0x3d>
    1620: 92 10        	sta	($10)                   ; 0x10 <__rc0>
    1622: a9 00        	lda	#$0
    1624: a0 01        	ldy	#$1
    1626: 91 10        	sta	($10),y                 ; 0x10 <__rc0>
    1628: a0 04        	ldy	#$4
    162a: a5 13        	lda	$13                     ; 0x13 <__rc3>
    162c: 91 10        	sta	($10),y                 ; 0x10 <__rc0>
    162e: c8           	iny
    162f: a5 12        	lda	$12                     ; 0x12 <__rc2>
    1631: 91 10        	sta	($10),y                 ; 0x10 <__rc0>
    1633: c8           	iny
    1634: a5 17        	lda	$17                     ; 0x17 <__rc7>
    1636: 91 10        	sta	($10),y                 ; 0x10 <__rc0>
    1638: c8           	iny
    1639: a9 00        	lda	#$0
    163b: 91 10        	sta	($10),y                 ; 0x10 <__rc0>
    163d: c8           	iny
    163e: a5 16        	lda	$16                     ; 0x16 <__rc6>
    1640: 91 10        	sta	($10),y                 ; 0x10 <__rc0>
    1642: c8           	iny
    1643: a9 00        	lda	#$0
    1645: 91 10        	sta	($10),y                 ; 0x10 <__rc0>
    1647: 20 83 1d     	jsr	$1d83 <printf>
    164a: 18           	clc
    164b: a5 10        	lda	$10                     ; 0x10 <__rc0>
    164d: 69 0a        	adc	#$a
    164f: 85 10        	sta	$10                     ; 0x10 <__rc0>
    1651: a5 11        	lda	$11                     ; 0x11 <__rc1>
    1653: 69 00        	adc	#$0
    1655: 85 11        	sta	$11                     ; 0x11 <__rc1>
    1657: 60           	rts

00001658 <updateFrames>:
    1658: a9 d9        	lda	#$d9
    165a: a2 01        	ldx	#$1
    165c: 64 14        	stz	$14                     ; 0x14 <__rc4>
    165e: 86 12        	stx	$12                     ; 0x12 <__rc2>
    1660: a6 12        	ldx	$12                     ; 0x12 <__rc2>
    1662: 86 18        	stx	$18                     ; 0x18 <__rc8>
    1664: 85 16        	sta	$16                     ; 0x16 <__rc6>
    1666: 85 13        	sta	$13                     ; 0x13 <__rc3>
    1668: a6 14        	ldx	$14                     ; 0x14 <__rc4>
    166a: 86 17        	stx	$17                     ; 0x17 <__rc7>
    166c: a6 14        	ldx	$14                     ; 0x14 <__rc4>
    166e: bd 6b 53     	lda	$536b,x                 ; 0x536b <spriteStatuses+0x6>
    1671: bc 6c 53     	ldy	$536c,x                 ; 0x536c <spriteStatuses+0x7>
    1674: 85 14        	sta	$14                     ; 0x14 <__rc4>
    1676: 85 1a        	sta	$1a                     ; 0x1a <__rc10>
    1678: a9 00        	lda	#$0
    167a: 18           	clc
    167b: 65 14        	adc	$14                     ; 0x14 <__rc4>
    167d: 98           	tya
    167e: 7d 6f 53     	adc	$536f,x                 ; 0x536f <spriteStatuses+0xa>
    1681: 85 19        	sta	$19                     ; 0x19 <__rc9>
    1683: a9 00        	lda	#$0
    1685: 7d 6d 53     	adc	$536d,x                 ; 0x536d <spriteStatuses+0x8>
    1688: a8           	tay
    1689: a5 1a        	lda	$1a                     ; 0x1a <__rc10>
    168b: 92 12        	sta	($12)                   ; 0x12 <__rc2>
    168d: a5 12        	lda	$12                     ; 0x12 <__rc2>
    168f: 5a           	phy
    1690: a4 16        	ldy	$16                     ; 0x16 <__rc6>
    1692: 84 12        	sty	$12                     ; 0x12 <__rc2>
    1694: 7a           	ply
    1695: 1a           	inc
    1696: d0 02        	bne	$169a <updateFrames+0x42>
    1698: e6 12        	inc	$12                     ; 0x12 <__rc2>
    169a: 85 14        	sta	$14                     ; 0x14 <__rc4>
    169c: a5 12        	lda	$12                     ; 0x12 <__rc2>
    169e: 85 15        	sta	$15                     ; 0x15 <__rc5>
    16a0: a5 19        	lda	$19                     ; 0x19 <__rc9>
    16a2: 92 14        	sta	($14)                   ; 0x14 <__rc4>
    16a4: 18           	clc
    16a5: a5 18        	lda	$18                     ; 0x18 <__rc8>
    16a7: 69 02        	adc	#$2
    16a9: 85 12        	sta	$12                     ; 0x12 <__rc2>
    16ab: a5 16        	lda	$16                     ; 0x16 <__rc6>
    16ad: 69 00        	adc	#$0
    16af: 85 13        	sta	$13                     ; 0x13 <__rc3>
    16b1: 98           	tya
    16b2: 92 12        	sta	($12)                   ; 0x12 <__rc2>
    16b4: bc 70 53     	ldy	$5370,x                 ; 0x5370 <spriteStatuses+0xb>
    16b7: bd 71 53     	lda	$5371,x                 ; 0x5371 <spriteStatuses+0xc>
    16ba: 85 12        	sta	$12                     ; 0x12 <__rc2>
    16bc: 18           	clc
    16bd: 98           	tya
    16be: 7d 65 53     	adc	$5365,x                 ; 0x5365 <spriteStatuses>
    16c1: a8           	tay
    16c2: a5 12        	lda	$12                     ; 0x12 <__rc2>
    16c4: 7d 66 53     	adc	$5366,x                 ; 0x5366 <spriteStatuses+0x1>
    16c7: 85 15        	sta	$15                     ; 0x15 <__rc5>
    16c9: 98           	tya
    16ca: 9d 65 53     	sta	$5365,x                 ; 0x5365 <spriteStatuses>
    16cd: 84 1a        	sty	$1a                     ; 0x1a <__rc10>
    16cf: a5 15        	lda	$15                     ; 0x15 <__rc5>
    16d1: 9d 66 53     	sta	$5366,x                 ; 0x5366 <spriteStatuses+0x1>
    16d4: bc 72 53     	ldy	$5372,x                 ; 0x5372 <spriteStatuses+0xd>
    16d7: bd 73 53     	lda	$5373,x                 ; 0x5373 <spriteStatuses+0xe>
    16da: 85 12        	sta	$12                     ; 0x12 <__rc2>
    16dc: 18           	clc
    16dd: 98           	tya
    16de: 7d 67 53     	adc	$5367,x                 ; 0x5367 <spriteStatuses+0x2>
    16e1: a8           	tay
    16e2: a5 12        	lda	$12                     ; 0x12 <__rc2>
    16e4: 7d 68 53     	adc	$5368,x                 ; 0x5368 <spriteStatuses+0x3>
    16e7: 85 14        	sta	$14                     ; 0x14 <__rc4>
    16e9: 98           	tya
    16ea: 9d 67 53     	sta	$5367,x                 ; 0x5367 <spriteStatuses+0x2>
    16ed: 84 19        	sty	$19                     ; 0x19 <__rc9>
    16ef: a5 14        	lda	$14                     ; 0x14 <__rc4>
    16f1: 9d 68 53     	sta	$5368,x                 ; 0x5368 <spriteStatuses+0x3>
    16f4: 18           	clc
    16f5: a5 18        	lda	$18                     ; 0x18 <__rc8>
    16f7: 69 03        	adc	#$3
    16f9: 85 12        	sta	$12                     ; 0x12 <__rc2>
    16fb: a5 16        	lda	$16                     ; 0x16 <__rc6>
    16fd: 69 00        	adc	#$0
    16ff: 85 13        	sta	$13                     ; 0x13 <__rc3>
    1701: a5 1a        	lda	$1a                     ; 0x1a <__rc10>
    1703: 92 12        	sta	($12)                   ; 0x12 <__rc2>
    1705: a5 15        	lda	$15                     ; 0x15 <__rc5>
    1707: a0 01        	ldy	#$1
    1709: 91 12        	sta	($12),y                 ; 0x12 <__rc2>
    170b: 18           	clc
    170c: a5 18        	lda	$18                     ; 0x18 <__rc8>
    170e: 69 05        	adc	#$5
    1710: 85 12        	sta	$12                     ; 0x12 <__rc2>
    1712: a5 16        	lda	$16                     ; 0x16 <__rc6>
    1714: 69 00        	adc	#$0
    1716: 85 13        	sta	$13                     ; 0x13 <__rc3>
    1718: a5 19        	lda	$19                     ; 0x19 <__rc9>
    171a: 92 12        	sta	($12)                   ; 0x12 <__rc2>
    171c: a5 14        	lda	$14                     ; 0x14 <__rc4>
    171e: 91 12        	sta	($12),y                 ; 0x12 <__rc2>
    1720: 18           	clc
    1721: a5 17        	lda	$17                     ; 0x17 <__rc7>
    1723: 69 18        	adc	#$18
    1725: aa           	tax
    1726: 18           	clc
    1727: a5 18        	lda	$18                     ; 0x18 <__rc8>
    1729: 69 08        	adc	#$8
    172b: 85 12        	sta	$12                     ; 0x12 <__rc2>
    172d: a5 16        	lda	$16                     ; 0x16 <__rc6>
    172f: 69 00        	adc	#$0
    1731: 86 14        	stx	$14                     ; 0x14 <__rc4>
    1733: e0 78        	cpx	#$78
    1735: f0 03        	beq	$173a <updateFrames+0xe2>
    1737: 4c 60 16     	jmp	$1660 <updateFrames+0x8>
    173a: a0 51        	ldy	#$51
    173c: a2 55        	ldx	#$55
    173e: 86 12        	stx	$12                     ; 0x12 <__rc2>
    1740: a2 54        	ldx	#$54
    1742: 86 13        	stx	$13                     ; 0x13 <__rc3>
    1744: a2 d9        	ldx	#$d9
    1746: 84 14        	sty	$14                     ; 0x14 <__rc4>
    1748: 86 1c        	stx	$1c                     ; 0x1c <__rc12>
    174a: 86 15        	stx	$15                     ; 0x15 <__rc5>
    174c: a6 12        	ldx	$12                     ; 0x12 <__rc2>
    174e: 86 1a        	stx	$1a                     ; 0x1a <__rc10>
    1750: a6 13        	ldx	$13                     ; 0x13 <__rc3>
    1752: 86 1b        	stx	$1b                     ; 0x1b <__rc11>
    1754: 18           	clc
    1755: a5 12        	lda	$12                     ; 0x12 <__rc2>
    1757: 69 06        	adc	#$6
    1759: 85 16        	sta	$16                     ; 0x16 <__rc6>
    175b: 84 19        	sty	$19                     ; 0x19 <__rc9>
    175d: a5 13        	lda	$13                     ; 0x13 <__rc3>
    175f: 69 00        	adc	#$0
    1761: 85 17        	sta	$17                     ; 0x17 <__rc7>
    1763: a0 06        	ldy	#$6
    1765: b1 12        	lda	($12),y                 ; 0x12 <__rc2>
    1767: aa           	tax
    1768: a0 01        	ldy	#$1
    176a: b1 16        	lda	($16),y                 ; 0x16 <__rc6>
    176c: 85 1d        	sta	$1d                     ; 0x1d <__rc13>
    176e: 86 18        	stx	$18                     ; 0x18 <__rc8>
    1770: a9 00        	lda	#$0
    1772: 18           	clc
    1773: 65 18        	adc	$18                     ; 0x18 <__rc8>
    1775: a0 0a        	ldy	#$a
    1777: a5 1d        	lda	$1d                     ; 0x1d <__rc13>
    1779: 71 12        	adc	($12),y                 ; 0x12 <__rc2>
    177b: 85 18        	sta	$18                     ; 0x18 <__rc8>
    177d: a9 00        	lda	#$0
    177f: a0 02        	ldy	#$2
    1781: 71 16        	adc	($16),y                 ; 0x16 <__rc6>
    1783: a8           	tay
    1784: 8a           	txa
    1785: 92 14        	sta	($14)                   ; 0x14 <__rc4>
    1787: a6 19        	ldx	$19                     ; 0x19 <__rc9>
    1789: a5 1c        	lda	$1c                     ; 0x1c <__rc12>
    178b: e8           	inx
    178c: d0 01        	bne	$178f <updateFrames+0x137>
    178e: 1a           	inc
    178f: 86 14        	stx	$14                     ; 0x14 <__rc4>
    1791: 85 15        	sta	$15                     ; 0x15 <__rc5>
    1793: a5 18        	lda	$18                     ; 0x18 <__rc8>
    1795: 92 14        	sta	($14)                   ; 0x14 <__rc4>
    1797: 18           	clc
    1798: a5 19        	lda	$19                     ; 0x19 <__rc9>
    179a: 69 02        	adc	#$2
    179c: 85 14        	sta	$14                     ; 0x14 <__rc4>
    179e: a5 1c        	lda	$1c                     ; 0x1c <__rc12>
    17a0: 69 00        	adc	#$0
    17a2: 85 15        	sta	$15                     ; 0x15 <__rc5>
    17a4: 98           	tya
    17a5: 92 14        	sta	($14)                   ; 0x14 <__rc4>
    17a7: b2 12        	lda	($12)                   ; 0x12 <__rc2>
    17a9: 85 18        	sta	$18                     ; 0x18 <__rc8>
    17ab: 18           	clc
    17ac: a5 12        	lda	$12                     ; 0x12 <__rc2>
    17ae: 69 02        	adc	#$2
    17b0: 85 14        	sta	$14                     ; 0x14 <__rc4>
    17b2: a5 13        	lda	$13                     ; 0x13 <__rc3>
    17b4: 69 00        	adc	#$0
    17b6: 85 15        	sta	$15                     ; 0x15 <__rc5>
    17b8: 18           	clc
    17b9: a5 19        	lda	$19                     ; 0x19 <__rc9>
    17bb: 69 03        	adc	#$3
    17bd: 85 16        	sta	$16                     ; 0x16 <__rc6>
    17bf: a5 1c        	lda	$1c                     ; 0x1c <__rc12>
    17c1: 69 00        	adc	#$0
    17c3: 85 17        	sta	$17                     ; 0x17 <__rc7>
    17c5: a0 01        	ldy	#$1
    17c7: b1 12        	lda	($12),y                 ; 0x12 <__rc2>
    17c9: 85 1e        	sta	$1e                     ; 0x1e <__rc14>
    17cb: c8           	iny
    17cc: b1 12        	lda	($12),y                 ; 0x12 <__rc2>
    17ce: 85 1d        	sta	$1d                     ; 0x1d <__rc13>
    17d0: 88           	dey
    17d1: b1 14        	lda	($14),y                 ; 0x14 <__rc4>
    17d3: 85 14        	sta	$14                     ; 0x14 <__rc4>
    17d5: a5 18        	lda	$18                     ; 0x18 <__rc8>
    17d7: 92 16        	sta	($16)                   ; 0x16 <__rc6>
    17d9: a5 1e        	lda	$1e                     ; 0x1e <__rc14>
    17db: 91 16        	sta	($16),y                 ; 0x16 <__rc6>
    17dd: 18           	clc
    17de: a5 19        	lda	$19                     ; 0x19 <__rc9>
    17e0: 69 05        	adc	#$5
    17e2: 85 12        	sta	$12                     ; 0x12 <__rc2>
    17e4: a5 1c        	lda	$1c                     ; 0x1c <__rc12>
    17e6: 69 00        	adc	#$0
    17e8: 85 13        	sta	$13                     ; 0x13 <__rc3>
    17ea: a5 1d        	lda	$1d                     ; 0x1d <__rc13>
    17ec: 92 12        	sta	($12)                   ; 0x12 <__rc2>
    17ee: a5 14        	lda	$14                     ; 0x14 <__rc4>
    17f0: 91 12        	sta	($12),y                 ; 0x12 <__rc2>
    17f2: 18           	clc
    17f3: a5 19        	lda	$19                     ; 0x19 <__rc9>
    17f5: 69 08        	adc	#$8
    17f7: a8           	tay
    17f8: a5 1c        	lda	$1c                     ; 0x1c <__rc12>
    17fa: 69 00        	adc	#$0
    17fc: aa           	tax
    17fd: 18           	clc
    17fe: a5 1a        	lda	$1a                     ; 0x1a <__rc10>
    1800: 69 18        	adc	#$18
    1802: 85 12        	sta	$12                     ; 0x12 <__rc2>
    1804: a5 1b        	lda	$1b                     ; 0x1b <__rc11>
    1806: 69 00        	adc	#$0
    1808: 85 13        	sta	$13                     ; 0x13 <__rc3>
    180a: c0 79        	cpy	#$79
    180c: f0 03        	beq	$1811 <updateFrames+0x1b9>
    180e: 4c 46 17     	jmp	$1746 <updateFrames+0xee>
    1811: 60           	rts

00001812 <mySpriteDefine>:
    1812: 85 8c        	sta	$8c                     ; 0x8c <__zp_bss_size+0x3e>
    1814: 86 1c        	stx	$1c                     ; 0x1c <__rc12>
    1816: a6 15        	ldx	$15                     ; 0x15 <__rc5>
    1818: 86 8e        	stx	$8e                     ; 0x8e <__zp_bss_size+0x40>
    181a: a6 18        	ldx	$18                     ; 0x18 <__rc8>
    181c: 86 8d        	stx	$8d                     ; 0x8d <__zp_bss_size+0x3f>
    181e: a5 1b        	lda	$1b                     ; 0x1b <__rc11>
    1820: 29 01        	and	#$1
    1822: 85 8f        	sta	$8f                     ; 0x8f <__zp_bss_size+0x41>
    1824: a6 8e        	ldx	$8e                     ; 0x8e <__zp_bss_size+0x40>
    1826: 86 18        	stx	$18                     ; 0x18 <__rc8>
    1828: 18           	clc
    1829: a5 1c        	lda	$1c                     ; 0x1c <__rc12>
    182b: 65 18        	adc	$18                     ; 0x18 <__rc8>
    182d: aa           	tax
    182e: a5 12        	lda	$12                     ; 0x12 <__rc2>
    1830: 69 00        	adc	#$0
    1832: a8           	tay
    1833: 18           	clc
    1834: 8a           	txa
    1835: 69 00        	adc	#$0
    1837: 85 1d        	sta	$1d                     ; 0x1d <__rc13>
    1839: 98           	tya
    183a: 69 01        	adc	#$1
    183c: a8           	tay
    183d: a6 8c        	ldx	$8c                     ; 0x8c <__zp_bss_size+0x3e>
    183f: 8a           	txa
    1840: 0a           	asl
    1841: 64 86        	stz	$86                     ; 0x86 <__zp_bss_size+0x38>
    1843: 26 86        	rol	$86                     ; 0x86 <__zp_bss_size+0x38>
    1845: 0a           	asl
    1846: 26 86        	rol	$86                     ; 0x86 <__zp_bss_size+0x38>
    1848: 0a           	asl
    1849: 85 1b        	sta	$1b                     ; 0x1b <__rc11>
    184b: 26 86        	rol	$86                     ; 0x86 <__zp_bss_size+0x38>
    184d: 09 01        	ora	#$1
    184f: 85 1e        	sta	$1e                     ; 0x1e <__rc14>
    1851: a5 86        	lda	$86                     ; 0x86 <__zp_bss_size+0x38>
    1853: 09 d9        	ora	#$d9
    1855: a6 1b        	ldx	$1b                     ; 0x1b <__rc11>
    1857: 86 88        	stx	$88                     ; 0x88 <__zp_bss_size+0x3a>
    1859: 85 89        	sta	$89                     ; 0x89 <__zp_bss_size+0x3b>
    185b: 85 15        	sta	$15                     ; 0x15 <__rc5>
    185d: a6 8c        	ldx	$8c                     ; 0x8c <__zp_bss_size+0x3e>
    185f: 86 90        	stx	$90                     ; 0x90 <__zp_bss_size+0x42>
    1861: a9 40        	lda	#$40
    1863: 9d 39 00     	sta	$39,x                   ; 0x39 <_spriteCtl>
    1866: 92 88        	sta	($88)                   ; 0x88 <__zp_bss_size+0x3a>
    1868: a6 15        	ldx	$15                     ; 0x15 <__rc5>
    186a: 86 1f        	stx	$1f                     ; 0x1f <__rc15>
    186c: a5 1d        	lda	$1d                     ; 0x1d <__rc13>
    186e: 92 1e        	sta	($1e)                   ; 0x1e <__rc14>
    1870: a5 1b        	lda	$1b                     ; 0x1b <__rc11>
    1872: 09 02        	ora	#$2
    1874: 85 1e        	sta	$1e                     ; 0x1e <__rc14>
    1876: 98           	tya
    1877: 92 1e        	sta	($1e)                   ; 0x1e <__rc14>
    1879: a5 1b        	lda	$1b                     ; 0x1b <__rc11>
    187b: 09 03        	ora	#$3
    187d: 85 1e        	sta	$1e                     ; 0x1e <__rc14>
    187f: 18           	clc
    1880: a6 8c        	ldx	$8c                     ; 0x8c <__zp_bss_size+0x3e>
    1882: 8a           	txa
    1883: 69 0a        	adc	#$a
    1885: aa           	tax
    1886: 18           	clc
    1887: a5 1c        	lda	$1c                     ; 0x1c <__rc12>
    1889: 69 00        	adc	#$0
    188b: a5 12        	lda	$12                     ; 0x12 <__rc2>
    188d: 69 0a        	adc	#$a
    188f: 85 18        	sta	$18                     ; 0x18 <__rc8>
    1891: 8a           	txa
    1892: 0a           	asl
    1893: 64 1d        	stz	$1d                     ; 0x1d <__rc13>
    1895: 26 1d        	rol	$1d                     ; 0x1d <__rc13>
    1897: 0a           	asl
    1898: 85 87        	sta	$87                     ; 0x87 <__zp_bss_size+0x39>
    189a: 26 1d        	rol	$1d                     ; 0x1d <__rc13>
    189c: a9 01        	lda	#$1
    189e: 92 1e        	sta	($1e)                   ; 0x1e <__rc14>
    18a0: a8           	tay
    18a1: 06 87        	asl	$87                     ; 0x87 <__zp_bss_size+0x39>
    18a3: a5 1d        	lda	$1d                     ; 0x1d <__rc13>
    18a5: 0a           	asl
    18a6: 09 d9        	ora	#$d9
    18a8: 5a           	phy
    18a9: a4 87        	ldy	$87                     ; 0x87 <__zp_bss_size+0x39>
    18ab: 84 22        	sty	$22                     ; 0x22 <__rc18>
    18ad: 85 23        	sta	$23                     ; 0x23 <__rc19>
    18af: 85 1d        	sta	$1d                     ; 0x1d <__rc13>
    18b1: a9 40        	lda	#$40
    18b3: 9d 39 00     	sta	$39,x                   ; 0x39 <_spriteCtl>
    18b6: 92 22        	sta	($22)                   ; 0x22 <__rc18>
    18b8: a5 87        	lda	$87                     ; 0x87 <__zp_bss_size+0x39>
    18ba: 09 01        	ora	#$1
    18bc: 85 84        	sta	$84                     ; 0x84 <__zp_bss_size+0x36>
    18be: a5 87        	lda	$87                     ; 0x87 <__zp_bss_size+0x39>
    18c0: 09 02        	ora	#$2
    18c2: 85 1e        	sta	$1e                     ; 0x1e <__rc14>
    18c4: a4 1d        	ldy	$1d                     ; 0x1d <__rc13>
    18c6: 84 85        	sty	$85                     ; 0x85 <__zp_bss_size+0x37>
    18c8: a5 1c        	lda	$1c                     ; 0x1c <__rc12>
    18ca: 92 84        	sta	($84)                   ; 0x84 <__zp_bss_size+0x36>
    18cc: a4 1d        	ldy	$1d                     ; 0x1d <__rc13>
    18ce: 84 1f        	sty	$1f                     ; 0x1f <__rc15>
    18d0: a5 18        	lda	$18                     ; 0x18 <__rc8>
    18d2: 92 1e        	sta	($1e)                   ; 0x1e <__rc14>
    18d4: a5 87        	lda	$87                     ; 0x87 <__zp_bss_size+0x39>
    18d6: 09 03        	ora	#$3
    18d8: 85 1e        	sta	$1e                     ; 0x1e <__rc14>
    18da: a5 1b        	lda	$1b                     ; 0x1b <__rc11>
    18dc: a4 86        	ldy	$86                     ; 0x86 <__zp_bss_size+0x38>
    18de: 84 18        	sty	$18                     ; 0x18 <__rc8>
    18e0: 7a           	ply
    18e1: 0a           	asl
    18e2: 26 18        	rol	$18                     ; 0x18 <__rc8>
    18e4: 85 1d        	sta	$1d                     ; 0x1d <__rc13>
    18e6: a5 1b        	lda	$1b                     ; 0x1b <__rc11>
    18e8: 18           	clc
    18e9: 65 1d        	adc	$1d                     ; 0x1d <__rc13>
    18eb: 85 1d        	sta	$1d                     ; 0x1d <__rc13>
    18ed: a5 86        	lda	$86                     ; 0x86 <__zp_bss_size+0x38>
    18ef: 65 18        	adc	$18                     ; 0x18 <__rc8>
    18f1: 85 18        	sta	$18                     ; 0x18 <__rc8>
    18f3: 18           	clc
    18f4: a9 65        	lda	#$65
    18f6: 65 1d        	adc	$1d                     ; 0x1d <__rc13>
    18f8: 85 1d        	sta	$1d                     ; 0x1d <__rc13>
    18fa: a9 53        	lda	#$53
    18fc: 65 18        	adc	$18                     ; 0x18 <__rc8>
    18fe: 85 18        	sta	$18                     ; 0x18 <__rc8>
    1900: 84 86        	sty	$86                     ; 0x86 <__zp_bss_size+0x38>
    1902: 98           	tya
    1903: 92 1e        	sta	($1e)                   ; 0x1e <__rc14>
    1905: a4 1d        	ldy	$1d                     ; 0x1d <__rc13>
    1907: 84 84        	sty	$84                     ; 0x84 <__zp_bss_size+0x36>
    1909: a4 18        	ldy	$18                     ; 0x18 <__rc8>
    190b: 84 85        	sty	$85                     ; 0x85 <__zp_bss_size+0x37>
    190d: a0 04        	ldy	#$4
    190f: a5 86        	lda	$86                     ; 0x86 <__zp_bss_size+0x38>
    1911: 91 84        	sta	($84),y                 ; 0x84 <__zp_bss_size+0x36>
    1913: a5 1b        	lda	$1b                     ; 0x1b <__rc11>
    1915: 09 04        	ora	#$4
    1917: 85 86        	sta	$86                     ; 0x86 <__zp_bss_size+0x38>
    1919: a5 1b        	lda	$1b                     ; 0x1b <__rc11>
    191b: 09 06        	ora	#$6
    191d: 85 1e        	sta	$1e                     ; 0x1e <__rc14>
    191f: a4 15        	ldy	$15                     ; 0x15 <__rc5>
    1921: 84 87        	sty	$87                     ; 0x87 <__zp_bss_size+0x39>
    1923: a4 15        	ldy	$15                     ; 0x15 <__rc5>
    1925: 84 1f        	sty	$1f                     ; 0x1f <__rc15>
    1927: a5 16        	lda	$16                     ; 0x16 <__rc6>
    1929: 92 86        	sta	($86)                   ; 0x86 <__zp_bss_size+0x38>
    192b: a5 17        	lda	$17                     ; 0x17 <__rc7>
    192d: a0 01        	ldy	#$1
    192f: 91 86        	sta	($86),y                 ; 0x86 <__zp_bss_size+0x38>
    1931: a5 8d        	lda	$8d                     ; 0x8d <__zp_bss_size+0x3f>
    1933: 92 1e        	sta	($1e)                   ; 0x1e <__rc14>
    1935: a5 19        	lda	$19                     ; 0x19 <__rc9>
    1937: 91 1e        	sta	($1e),y                 ; 0x1e <__rc14>
    1939: a5 1a        	lda	$1a                     ; 0x1a <__rc10>
    193b: a4 90        	ldy	$90                     ; 0x90 <__zp_bss_size+0x42>
    193d: 19 39 00     	ora	$39,y                   ; 0x39 <_spriteCtl>
    1940: 92 88        	sta	($88)                   ; 0x88 <__zp_bss_size+0x3a>
    1942: a5 1a        	lda	$1a                     ; 0x1a <__rc10>
    1944: 15 39        	ora	$39,x                   ; 0x39 <_spriteCtl>
    1946: 92 22        	sta	($22)                   ; 0x22 <__rc18>
    1948: 18           	clc
    1949: a5 16        	lda	$16                     ; 0x16 <__rc6>
    194b: 69 f0        	adc	#$f0
    194d: aa           	tax
    194e: a5 17        	lda	$17                     ; 0x17 <__rc7>
    1950: 69 ff        	adc	#$ff
    1952: 85 15        	sta	$15                     ; 0x15 <__rc5>
    1954: 8a           	txa
    1955: 92 86        	sta	($86)                   ; 0x86 <__zp_bss_size+0x38>
    1957: a0 01        	ldy	#$1
    1959: a5 15        	lda	$15                     ; 0x15 <__rc5>
    195b: 91 86        	sta	($86),y                 ; 0x86 <__zp_bss_size+0x38>
    195d: a5 8d        	lda	$8d                     ; 0x8d <__zp_bss_size+0x3f>
    195f: 92 1e        	sta	($1e)                   ; 0x1e <__rc14>
    1961: a5 19        	lda	$19                     ; 0x19 <__rc9>
    1963: 91 1e        	sta	($1e),y                 ; 0x1e <__rc14>
    1965: a0 06        	ldy	#$6
    1967: a5 1c        	lda	$1c                     ; 0x1c <__rc12>
    1969: 91 84        	sta	($84),y                 ; 0x84 <__zp_bss_size+0x36>
    196b: a0 0a        	ldy	#$a
    196d: a5 8e        	lda	$8e                     ; 0x8e <__zp_bss_size+0x40>
    196f: 91 84        	sta	($84),y                 ; 0x84 <__zp_bss_size+0x36>
    1971: 18           	clc
    1972: a5 1d        	lda	$1d                     ; 0x1d <__rc13>
    1974: 69 06        	adc	#$6
    1976: 85 1a        	sta	$1a                     ; 0x1a <__rc10>
    1978: a5 18        	lda	$18                     ; 0x18 <__rc8>
    197a: 69 00        	adc	#$0
    197c: 85 1b        	sta	$1b                     ; 0x1b <__rc11>
    197e: a0 02        	ldy	#$2
    1980: a5 13        	lda	$13                     ; 0x13 <__rc3>
    1982: 91 1a        	sta	($1a),y                 ; 0x1a <__rc10>
    1984: a5 8d        	lda	$8d                     ; 0x8d <__zp_bss_size+0x3f>
    1986: 91 84        	sta	($84),y                 ; 0x84 <__zp_bss_size+0x36>
    1988: a0 11        	ldy	#$11
    198a: a5 8c        	lda	$8c                     ; 0x8c <__zp_bss_size+0x3e>
    198c: 91 84        	sta	($84),y                 ; 0x84 <__zp_bss_size+0x36>
    198e: a5 12        	lda	$12                     ; 0x12 <__rc2>
    1990: a0 01        	ldy	#$1
    1992: 91 1a        	sta	($1a),y                 ; 0x1a <__rc10>
    1994: a9 00        	lda	#$0
    1996: a0 0b        	ldy	#$b
    1998: 91 84        	sta	($84),y                 ; 0x84 <__zp_bss_size+0x36>
    199a: a0 0d        	ldy	#$d
    199c: 91 84        	sta	($84),y                 ; 0x84 <__zp_bss_size+0x36>
    199e: a0 0f        	ldy	#$f
    19a0: 91 84        	sta	($84),y                 ; 0x84 <__zp_bss_size+0x36>
    19a2: a0 13        	ldy	#$13
    19a4: 91 84        	sta	($84),y                 ; 0x84 <__zp_bss_size+0x36>
    19a6: a0 03        	ldy	#$3
    19a8: a5 14        	lda	$14                     ; 0x14 <__rc4>
    19aa: 91 1a        	sta	($1a),y                 ; 0x1a <__rc10>
    19ac: 18           	clc
    19ad: a5 1d        	lda	$1d                     ; 0x1d <__rc13>
    19af: 69 02        	adc	#$2
    19b1: 85 12        	sta	$12                     ; 0x12 <__rc2>
    19b3: a5 18        	lda	$18                     ; 0x18 <__rc8>
    19b5: 69 00        	adc	#$0
    19b7: 85 13        	sta	$13                     ; 0x13 <__rc3>
    19b9: a5 19        	lda	$19                     ; 0x19 <__rc9>
    19bb: a0 01        	ldy	#$1
    19bd: 91 12        	sta	($12),y                 ; 0x12 <__rc2>
    19bf: 18           	clc
    19c0: a5 1d        	lda	$1d                     ; 0x1d <__rc13>
    19c2: 69 0b        	adc	#$b
    19c4: 85 12        	sta	$12                     ; 0x12 <__rc2>
    19c6: a5 18        	lda	$18                     ; 0x18 <__rc8>
    19c8: 69 00        	adc	#$0
    19ca: 85 13        	sta	$13                     ; 0x13 <__rc3>
    19cc: 18           	clc
    19cd: a6 1d        	ldx	$1d                     ; 0x1d <__rc13>
    19cf: 86 8b        	stx	$8b                     ; 0x8b <__zp_bss_size+0x3d>
    19d1: a5 1d        	lda	$1d                     ; 0x1d <__rc13>
    19d3: 69 0d        	adc	#$d
    19d5: 85 14        	sta	$14                     ; 0x14 <__rc4>
    19d7: a6 18        	ldx	$18                     ; 0x18 <__rc8>
    19d9: 86 8a        	stx	$8a                     ; 0x8a <__zp_bss_size+0x3c>
    19db: a5 18        	lda	$18                     ; 0x18 <__rc8>
    19dd: 69 00        	adc	#$0
    19df: 85 15        	sta	$15                     ; 0x15 <__rc5>
    19e1: a9 00        	lda	#$0
    19e3: 91 12        	sta	($12),y                 ; 0x12 <__rc2>
    19e5: 91 14        	sta	($14),y                 ; 0x14 <__rc4>
    19e7: a0 05        	ldy	#$5
    19e9: 91 84        	sta	($84),y                 ; 0x84 <__zp_bss_size+0x36>
    19eb: a5 16        	lda	$16                     ; 0x16 <__rc6>
    19ed: 92 84        	sta	($84)                   ; 0x84 <__zp_bss_size+0x36>
    19ef: a5 17        	lda	$17                     ; 0x17 <__rc7>
    19f1: a0 01        	ldy	#$1
    19f3: 91 84        	sta	($84),y                 ; 0x84 <__zp_bss_size+0x36>
    19f5: a6 8f        	ldx	$8f                     ; 0x8f <__zp_bss_size+0x41>
    19f7: 86 12        	stx	$12                     ; 0x12 <__rc2>
    19f9: a5 12        	lda	$12                     ; 0x12 <__rc2>
    19fb: d0 03        	bne	$1a00 <mySpriteDefine+0x1ee>
    19fd: 4c 6e 1a     	jmp	$1a6e <mySpriteDefine+0x25c>
    1a00: a2 00        	ldx	#$0
    1a02: a9 02        	lda	#$2
    1a04: 20 2e 2b     	jsr	$2b2e <malloc>
    1a07: 18           	clc
    1a08: a5 8b        	lda	$8b                     ; 0x8b <__zp_bss_size+0x3d>
    1a0a: 69 14        	adc	#$14
    1a0c: 85 88        	sta	$88                     ; 0x88 <__zp_bss_size+0x3a>
    1a0e: a5 8a        	lda	$8a                     ; 0x8a <__zp_bss_size+0x3c>
    1a10: 69 00        	adc	#$0
    1a12: a0 14        	ldy	#$14
    1a14: 85 89        	sta	$89                     ; 0x89 <__zp_bss_size+0x3b>
    1a16: a5 12        	lda	$12                     ; 0x12 <__rc2>
    1a18: 91 84        	sta	($84),y                 ; 0x84 <__zp_bss_size+0x36>
    1a1a: a5 13        	lda	$13                     ; 0x13 <__rc3>
    1a1c: a0 01        	ldy	#$1
    1a1e: 91 88        	sta	($88),y                 ; 0x88 <__zp_bss_size+0x3a>
    1a20: a2 00        	ldx	#$0
    1a22: a9 02        	lda	#$2
    1a24: 20 2e 2b     	jsr	$2b2e <malloc>
    1a27: a5 8b        	lda	$8b                     ; 0x8b <__zp_bss_size+0x3d>
    1a29: 18           	clc
    1a2a: 69 16        	adc	#$16
    1a2c: 85 14        	sta	$14                     ; 0x14 <__rc4>
    1a2e: a5 8a        	lda	$8a                     ; 0x8a <__zp_bss_size+0x3c>
    1a30: 69 00        	adc	#$0
    1a32: 85 15        	sta	$15                     ; 0x15 <__rc5>
    1a34: a0 14        	ldy	#$14
    1a36: b1 84        	lda	($84),y                 ; 0x84 <__zp_bss_size+0x36>
    1a38: aa           	tax
    1a39: a0 16        	ldy	#$16
    1a3b: a5 12        	lda	$12                     ; 0x12 <__rc2>
    1a3d: 91 84        	sta	($84),y                 ; 0x84 <__zp_bss_size+0x36>
    1a3f: a5 13        	lda	$13                     ; 0x13 <__rc3>
    1a41: a0 01        	ldy	#$1
    1a43: 91 14        	sta	($14),y                 ; 0x14 <__rc4>
    1a45: 86 12        	stx	$12                     ; 0x12 <__rc2>
    1a47: b1 88        	lda	($88),y                 ; 0x88 <__zp_bss_size+0x3a>
    1a49: 85 13        	sta	$13                     ; 0x13 <__rc3>
    1a4b: a9 00        	lda	#$0
    1a4d: 92 12        	sta	($12)                   ; 0x12 <__rc2>
    1a4f: a0 16        	ldy	#$16
    1a51: b1 84        	lda	($84),y                 ; 0x84 <__zp_bss_size+0x36>
    1a53: 85 12        	sta	$12                     ; 0x12 <__rc2>
    1a55: a0 01        	ldy	#$1
    1a57: b1 14        	lda	($14),y                 ; 0x14 <__rc4>
    1a59: 85 13        	sta	$13                     ; 0x13 <__rc3>
    1a5b: a9 03        	lda	#$3
    1a5d: 92 12        	sta	($12)                   ; 0x12 <__rc2>
    1a5f: a2 07        	ldx	#$7
    1a61: 86 8d        	stx	$8d                     ; 0x8d <__zp_bss_size+0x3f>
    1a63: a2 04        	ldx	#$4
    1a65: 86 8e        	stx	$8e                     ; 0x8e <__zp_bss_size+0x40>
    1a67: a2 01        	ldx	#$1
    1a69: 86 8c        	stx	$8c                     ; 0x8c <__zp_bss_size+0x3e>
    1a6b: 4c 5e 1b     	jmp	$1b5e <mySpriteDefine+0x34c>
    1a6e: a2 00        	ldx	#$0
    1a70: a9 06        	lda	#$6
    1a72: a0 05        	ldy	#$5
    1a74: 84 8c        	sty	$8c                     ; 0x8c <__zp_bss_size+0x3e>
    1a76: 20 2e 2b     	jsr	$2b2e <malloc>
    1a79: 18           	clc
    1a7a: a5 8b        	lda	$8b                     ; 0x8b <__zp_bss_size+0x3d>
    1a7c: 69 14        	adc	#$14
    1a7e: 85 88        	sta	$88                     ; 0x88 <__zp_bss_size+0x3a>
    1a80: a5 8a        	lda	$8a                     ; 0x8a <__zp_bss_size+0x3c>
    1a82: 69 00        	adc	#$0
    1a84: a0 14        	ldy	#$14
    1a86: 85 89        	sta	$89                     ; 0x89 <__zp_bss_size+0x3b>
    1a88: a5 12        	lda	$12                     ; 0x12 <__rc2>
    1a8a: 91 84        	sta	($84),y                 ; 0x84 <__zp_bss_size+0x36>
    1a8c: a5 13        	lda	$13                     ; 0x13 <__rc3>
    1a8e: a0 01        	ldy	#$1
    1a90: 91 88        	sta	($88),y                 ; 0x88 <__zp_bss_size+0x3a>
    1a92: a2 00        	ldx	#$0
    1a94: a9 06        	lda	#$6
    1a96: 20 2e 2b     	jsr	$2b2e <malloc>
    1a99: a5 8b        	lda	$8b                     ; 0x8b <__zp_bss_size+0x3d>
    1a9b: 18           	clc
    1a9c: 69 16        	adc	#$16
    1a9e: 85 14        	sta	$14                     ; 0x14 <__rc4>
    1aa0: a5 8a        	lda	$8a                     ; 0x8a <__zp_bss_size+0x3c>
    1aa2: 69 00        	adc	#$0
    1aa4: 85 15        	sta	$15                     ; 0x15 <__rc5>
    1aa6: a5 12        	lda	$12                     ; 0x12 <__rc2>
    1aa8: a0 16        	ldy	#$16
    1aaa: 91 84        	sta	($84),y                 ; 0x84 <__zp_bss_size+0x36>
    1aac: a5 13        	lda	$13                     ; 0x13 <__rc3>
    1aae: a0 01        	ldy	#$1
    1ab0: 91 14        	sta	($14),y                 ; 0x14 <__rc4>
    1ab2: a0 14        	ldy	#$14
    1ab4: b1 84        	lda	($84),y                 ; 0x84 <__zp_bss_size+0x36>
    1ab6: 85 12        	sta	$12                     ; 0x12 <__rc2>
    1ab8: a0 01        	ldy	#$1
    1aba: b1 88        	lda	($88),y                 ; 0x88 <__zp_bss_size+0x3a>
    1abc: 85 13        	sta	$13                     ; 0x13 <__rc3>
    1abe: a9 00        	lda	#$0
    1ac0: 92 12        	sta	($12)                   ; 0x12 <__rc2>
    1ac2: a0 16        	ldy	#$16
    1ac4: b1 84        	lda	($84),y                 ; 0x84 <__zp_bss_size+0x36>
    1ac6: 85 12        	sta	$12                     ; 0x12 <__rc2>
    1ac8: a0 01        	ldy	#$1
    1aca: b1 14        	lda	($14),y                 ; 0x14 <__rc4>
    1acc: 85 13        	sta	$13                     ; 0x13 <__rc3>
    1ace: a9 00        	lda	#$0
    1ad0: 92 12        	sta	($12)                   ; 0x12 <__rc2>
    1ad2: a0 14        	ldy	#$14
    1ad4: b1 84        	lda	($84),y                 ; 0x84 <__zp_bss_size+0x36>
    1ad6: 85 12        	sta	$12                     ; 0x12 <__rc2>
    1ad8: a0 01        	ldy	#$1
    1ada: b1 88        	lda	($88),y                 ; 0x88 <__zp_bss_size+0x3a>
    1adc: 85 13        	sta	$13                     ; 0x13 <__rc3>
    1ade: a9 02        	lda	#$2
    1ae0: 91 12        	sta	($12),y                 ; 0x12 <__rc2>
    1ae2: a0 16        	ldy	#$16
    1ae4: b1 84        	lda	($84),y                 ; 0x84 <__zp_bss_size+0x36>
    1ae6: 85 12        	sta	$12                     ; 0x12 <__rc2>
    1ae8: a0 01        	ldy	#$1
    1aea: b1 14        	lda	($14),y                 ; 0x14 <__rc4>
    1aec: 85 13        	sta	$13                     ; 0x13 <__rc3>
    1aee: a9 02        	lda	#$2
    1af0: 91 12        	sta	($12),y                 ; 0x12 <__rc2>
    1af2: a0 14        	ldy	#$14
    1af4: b1 84        	lda	($84),y                 ; 0x84 <__zp_bss_size+0x36>
    1af6: 85 12        	sta	$12                     ; 0x12 <__rc2>
    1af8: a0 01        	ldy	#$1
    1afa: b1 88        	lda	($88),y                 ; 0x88 <__zp_bss_size+0x3a>
    1afc: 85 13        	sta	$13                     ; 0x13 <__rc3>
    1afe: c8           	iny
    1aff: a9 00        	lda	#$0
    1b01: 91 12        	sta	($12),y                 ; 0x12 <__rc2>
    1b03: a0 16        	ldy	#$16
    1b05: b1 84        	lda	($84),y                 ; 0x84 <__zp_bss_size+0x36>
    1b07: 85 12        	sta	$12                     ; 0x12 <__rc2>
    1b09: a0 01        	ldy	#$1
    1b0b: b1 14        	lda	($14),y                 ; 0x14 <__rc4>
    1b0d: 85 13        	sta	$13                     ; 0x13 <__rc3>
    1b0f: 98           	tya
    1b10: c8           	iny
    1b11: 91 12        	sta	($12),y                 ; 0x12 <__rc2>
    1b13: a0 14        	ldy	#$14
    1b15: b1 84        	lda	($84),y                 ; 0x84 <__zp_bss_size+0x36>
    1b17: 85 12        	sta	$12                     ; 0x12 <__rc2>
    1b19: a0 01        	ldy	#$1
    1b1b: b1 88        	lda	($88),y                 ; 0x88 <__zp_bss_size+0x3a>
    1b1d: 85 13        	sta	$13                     ; 0x13 <__rc3>
    1b1f: a0 03        	ldy	#$3
    1b21: a9 02        	lda	#$2
    1b23: 91 12        	sta	($12),y                 ; 0x12 <__rc2>
    1b25: a0 16        	ldy	#$16
    1b27: b1 84        	lda	($84),y                 ; 0x84 <__zp_bss_size+0x36>
    1b29: 85 12        	sta	$12                     ; 0x12 <__rc2>
    1b2b: a0 01        	ldy	#$1
    1b2d: b1 14        	lda	($14),y                 ; 0x14 <__rc4>
    1b2f: 85 13        	sta	$13                     ; 0x13 <__rc3>
    1b31: a9 03        	lda	#$3
    1b33: aa           	tax
    1b34: 86 8e        	stx	$8e                     ; 0x8e <__zp_bss_size+0x40>
    1b36: a8           	tay
    1b37: 91 12        	sta	($12),y                 ; 0x12 <__rc2>
    1b39: a0 14        	ldy	#$14
    1b3b: b1 84        	lda	($84),y                 ; 0x84 <__zp_bss_size+0x36>
    1b3d: 85 12        	sta	$12                     ; 0x12 <__rc2>
    1b3f: a0 01        	ldy	#$1
    1b41: b1 88        	lda	($88),y                 ; 0x88 <__zp_bss_size+0x3a>
    1b43: 85 13        	sta	$13                     ; 0x13 <__rc3>
    1b45: a0 04        	ldy	#$4
    1b47: a9 01        	lda	#$1
    1b49: 91 12        	sta	($12),y                 ; 0x12 <__rc2>
    1b4b: a0 16        	ldy	#$16
    1b4d: b1 84        	lda	($84),y                 ; 0x84 <__zp_bss_size+0x36>
    1b4f: 85 12        	sta	$12                     ; 0x12 <__rc2>
    1b51: a0 01        	ldy	#$1
    1b53: b1 14        	lda	($14),y                 ; 0x14 <__rc4>
    1b55: 85 13        	sta	$13                     ; 0x13 <__rc3>
    1b57: 98           	tya
    1b58: a0 04        	ldy	#$4
    1b5a: 91 12        	sta	($12),y                 ; 0x12 <__rc2>
    1b5c: 86 8d        	stx	$8d                     ; 0x8d <__zp_bss_size+0x3f>
    1b5e: a5 8b        	lda	$8b                     ; 0x8b <__zp_bss_size+0x3d>
    1b60: 18           	clc
    1b61: 69 14        	adc	#$14
    1b63: 85 12        	sta	$12                     ; 0x12 <__rc2>
    1b65: a5 8a        	lda	$8a                     ; 0x8a <__zp_bss_size+0x3c>
    1b67: 69 00        	adc	#$0
    1b69: 85 13        	sta	$13                     ; 0x13 <__rc3>
    1b6b: a0 14        	ldy	#$14
    1b6d: b1 84        	lda	($84),y                 ; 0x84 <__zp_bss_size+0x36>
    1b6f: 85 14        	sta	$14                     ; 0x14 <__rc4>
    1b71: a0 01        	ldy	#$1
    1b73: b1 12        	lda	($12),y                 ; 0x12 <__rc2>
    1b75: 85 15        	sta	$15                     ; 0x15 <__rc5>
    1b77: a4 8c        	ldy	$8c                     ; 0x8c <__zp_bss_size+0x3e>
    1b79: a5 8e        	lda	$8e                     ; 0x8e <__zp_bss_size+0x40>
    1b7b: 91 14        	sta	($14),y                 ; 0x14 <__rc4>
    1b7d: 84 16        	sty	$16                     ; 0x16 <__rc6>
    1b7f: 18           	clc
    1b80: a5 8b        	lda	$8b                     ; 0x8b <__zp_bss_size+0x3d>
    1b82: 69 16        	adc	#$16
    1b84: 85 12        	sta	$12                     ; 0x12 <__rc2>
    1b86: a5 8a        	lda	$8a                     ; 0x8a <__zp_bss_size+0x3c>
    1b88: 69 00        	adc	#$0
    1b8a: 85 13        	sta	$13                     ; 0x13 <__rc3>
    1b8c: a0 16        	ldy	#$16
    1b8e: b1 84        	lda	($84),y                 ; 0x84 <__zp_bss_size+0x36>
    1b90: 85 14        	sta	$14                     ; 0x14 <__rc4>
    1b92: a0 01        	ldy	#$1
    1b94: b1 12        	lda	($12),y                 ; 0x12 <__rc2>
    1b96: 85 15        	sta	$15                     ; 0x15 <__rc5>
    1b98: a5 8d        	lda	$8d                     ; 0x8d <__zp_bss_size+0x3f>
    1b9a: a4 16        	ldy	$16                     ; 0x16 <__rc6>
    1b9c: 91 14        	sta	($14),y                 ; 0x14 <__rc4>
    1b9e: 60           	rts

00001b9f <exit>:
    1b9f: 20 1d 03     	jsr	$31d <_fini>
    1ba2: 80 fe        	bra	$1ba2 <exit+0x3>

00001ba4 <_ZN12_GLOBAL__N_13putEcP6Status>:
    1ba4: 85 18        	sta	$18                     ; 0x18 <__rc8>
    1ba6: a6 13        	ldx	$13                     ; 0x13 <__rc3>
    1ba8: 18           	clc
    1ba9: a5 12        	lda	$12                     ; 0x12 <__rc2>
    1bab: 69 05        	adc	#$5
    1bad: a8           	tay
    1bae: a5 13        	lda	$13                     ; 0x13 <__rc3>
    1bb0: 86 15        	stx	$15                     ; 0x15 <__rc5>
    1bb2: 69 00        	adc	#$0
    1bb4: 18           	clc
    1bb5: 84 16        	sty	$16                     ; 0x16 <__rc6>
    1bb7: a0 05        	ldy	#$5
    1bb9: 85 17        	sta	$17                     ; 0x17 <__rc7>
    1bbb: b1 12        	lda	($12),y                 ; 0x12 <__rc2>
    1bbd: aa           	tax
    1bbe: a5 12        	lda	$12                     ; 0x12 <__rc2>
    1bc0: 69 03        	adc	#$3
    1bc2: 85 14        	sta	$14                     ; 0x14 <__rc4>
    1bc4: a5 15        	lda	$15                     ; 0x15 <__rc5>
    1bc6: 69 00        	adc	#$0
    1bc8: 85 15        	sta	$15                     ; 0x15 <__rc5>
    1bca: a0 01        	ldy	#$1
    1bcc: b1 16        	lda	($16),y                 ; 0x16 <__rc6>
    1bce: d1 14        	cmp	($14),y                 ; 0x14 <__rc4>
    1bd0: d0 11        	bne	$1be3 <_ZN12_GLOBAL__N_13putEcP6Status+0x3f>
    1bd2: a0 03        	ldy	#$3
    1bd4: 85 17        	sta	$17                     ; 0x17 <__rc7>
    1bd6: b1 12        	lda	($12),y                 ; 0x12 <__rc2>
    1bd8: 85 14        	sta	$14                     ; 0x14 <__rc4>
    1bda: 86 16        	stx	$16                     ; 0x16 <__rc6>
    1bdc: e4 14        	cpx	$14                     ; 0x14 <__rc4>
    1bde: 90 0e        	bcc	$1bee <_ZN12_GLOBAL__N_13putEcP6Status+0x4a>
    1be0: 4c 4f 1c     	jmp	$1c4f <_ZN12_GLOBAL__N_13putEcP6Status+0xab>
    1be3: 86 16        	stx	$16                     ; 0x16 <__rc6>
    1be5: d1 14        	cmp	($14),y                 ; 0x14 <__rc4>
    1be7: 85 17        	sta	$17                     ; 0x17 <__rc7>
    1be9: 90 03        	bcc	$1bee <_ZN12_GLOBAL__N_13putEcP6Status+0x4a>
    1beb: 4c 4f 1c     	jmp	$1c4f <_ZN12_GLOBAL__N_13putEcP6Status+0xab>
    1bee: a5 12        	lda	$12                     ; 0x12 <__rc2>
    1bf0: 18           	clc
    1bf1: 69 0f        	adc	#$f
    1bf3: 85 14        	sta	$14                     ; 0x14 <__rc4>
    1bf5: a5 13        	lda	$13                     ; 0x13 <__rc3>
    1bf7: 69 00        	adc	#$0
    1bf9: 85 15        	sta	$15                     ; 0x15 <__rc5>
    1bfb: a0 01        	ldy	#$1
    1bfd: b1 14        	lda	($14),y                 ; 0x14 <__rc4>
    1bff: a2 00        	ldx	#$0
    1c01: 86 14        	stx	$14                     ; 0x14 <__rc4>
    1c03: a2 00        	ldx	#$0
    1c05: 86 15        	stx	$15                     ; 0x15 <__rc5>
    1c07: c5 15        	cmp	$15                     ; 0x15 <__rc5>
    1c09: d0 2d        	bne	$1c38 <_ZN12_GLOBAL__N_13putEcP6Status+0x94>
    1c0b: a0 0f        	ldy	#$f
    1c0d: b1 12        	lda	($12),y                 ; 0x12 <__rc2>
    1c0f: c5 14        	cmp	$14                     ; 0x14 <__rc4>
    1c11: d0 25        	bne	$1c38 <_ZN12_GLOBAL__N_13putEcP6Status+0x94>
    1c13: a5 12        	lda	$12                     ; 0x12 <__rc2>
    1c15: 18           	clc
    1c16: 69 09        	adc	#$9
    1c18: 85 14        	sta	$14                     ; 0x14 <__rc4>
    1c1a: a5 13        	lda	$13                     ; 0x13 <__rc3>
    1c1c: 69 00        	adc	#$0
    1c1e: a0 09        	ldy	#$9
    1c20: 85 15        	sta	$15                     ; 0x15 <__rc5>
    1c22: 18           	clc
    1c23: a5 16        	lda	$16                     ; 0x16 <__rc6>
    1c25: 71 12        	adc	($12),y                 ; 0x12 <__rc2>
    1c27: aa           	tax
    1c28: a0 01        	ldy	#$1
    1c2a: a5 17        	lda	$17                     ; 0x17 <__rc7>
    1c2c: 71 14        	adc	($14),y                 ; 0x14 <__rc4>
    1c2e: 86 14        	stx	$14                     ; 0x14 <__rc4>
    1c30: 85 15        	sta	$15                     ; 0x15 <__rc5>
    1c32: a5 18        	lda	$18                     ; 0x18 <__rc8>
    1c34: 92 14        	sta	($14)                   ; 0x14 <__rc4>
    1c36: 80 17        	bra	$1c4f <_ZN12_GLOBAL__N_13putEcP6Status+0xab>
    1c38: a6 12        	ldx	$12                     ; 0x12 <__rc2>
    1c3a: 86 ec        	stx	$ec                     ; 0xec <__zp_bss_size+0x9e>
    1c3c: a6 13        	ldx	$13                     ; 0x13 <__rc3>
    1c3e: 86 ed        	stx	$ed                     ; 0xed <__zp_bss_size+0x9f>
    1c40: a2 00        	ldx	#$0
    1c42: a5 18        	lda	$18                     ; 0x18 <__rc8>
    1c44: 20 56 29     	jsr	$2956 <putchar>
    1c47: a6 ec        	ldx	$ec                     ; 0xec <__zp_bss_size+0x9e>
    1c49: 86 12        	stx	$12                     ; 0x12 <__rc2>
    1c4b: a6 ed        	ldx	$ed                     ; 0xed <__zp_bss_size+0x9f>
    1c4d: 86 13        	stx	$13                     ; 0x13 <__rc3>
    1c4f: a0 05        	ldy	#$5
    1c51: a5 12        	lda	$12                     ; 0x12 <__rc2>
    1c53: 18           	clc
    1c54: 69 05        	adc	#$5
    1c56: 85 14        	sta	$14                     ; 0x14 <__rc4>
    1c58: a5 13        	lda	$13                     ; 0x13 <__rc3>
    1c5a: 69 00        	adc	#$0
    1c5c: 85 15        	sta	$15                     ; 0x15 <__rc5>
    1c5e: b1 12        	lda	($12),y                 ; 0x12 <__rc2>
    1c60: aa           	tax
    1c61: a0 01        	ldy	#$1
    1c63: b1 14        	lda	($14),y                 ; 0x14 <__rc4>
    1c65: e8           	inx
    1c66: d0 01        	bne	$1c69 <_ZN12_GLOBAL__N_13putEcP6Status+0xc5>
    1c68: 1a           	inc
    1c69: 85 16        	sta	$16                     ; 0x16 <__rc6>
    1c6b: 8a           	txa
    1c6c: a0 05        	ldy	#$5
    1c6e: 91 12        	sta	($12),y                 ; 0x12 <__rc2>
    1c70: a0 01        	ldy	#$1
    1c72: a5 16        	lda	$16                     ; 0x16 <__rc6>
    1c74: 91 14        	sta	($14),y                 ; 0x14 <__rc4>
    1c76: 60           	rts

00001c77 <_ZN12_GLOBAL__N_112print_stringEPKcP6Status>:
    1c77: a6 12        	ldx	$12                     ; 0x12 <__rc2>
    1c79: 86 e4        	stx	$e4                     ; 0xe4 <__zp_bss_size+0x96>
    1c7b: a6 13        	ldx	$13                     ; 0x13 <__rc3>
    1c7d: 86 e5        	stx	$e5                     ; 0xe5 <__zp_bss_size+0x97>
    1c7f: a6 14        	ldx	$14                     ; 0x14 <__rc4>
    1c81: 86 e6        	stx	$e6                     ; 0xe6 <__zp_bss_size+0x98>
    1c83: a6 15        	ldx	$15                     ; 0x15 <__rc5>
    1c85: 86 e7        	stx	$e7                     ; 0xe7 <__zp_bss_size+0x99>
    1c87: a5 e6        	lda	$e6                     ; 0xe6 <__zp_bss_size+0x98>
    1c89: 18           	clc
    1c8a: 69 0d        	adc	#$d
    1c8c: 85 12        	sta	$12                     ; 0x12 <__rc2>
    1c8e: a5 e7        	lda	$e7                     ; 0xe7 <__zp_bss_size+0x99>
    1c90: 69 00        	adc	#$0
    1c92: 85 13        	sta	$13                     ; 0x13 <__rc3>
    1c94: a0 01        	ldy	#$1
    1c96: b1 12        	lda	($12),y                 ; 0x12 <__rc2>
    1c98: 30 16        	bmi	$1cb0 <_ZN12_GLOBAL__N_112print_stringEPKcP6Status+0x39>
    1c9a: a0 0d        	ldy	#$d
    1c9c: 85 12        	sta	$12                     ; 0x12 <__rc2>
    1c9e: b1 e6        	lda	($e6),y                 ; 0xe6 <__zp_bss_size+0x98>
    1ca0: a6 12        	ldx	$12                     ; 0x12 <__rc2>
    1ca2: 86 eb        	stx	$eb                     ; 0xeb <__zp_bss_size+0x9d>
    1ca4: d0 0f        	bne	$1cb5 <_ZN12_GLOBAL__N_112print_stringEPKcP6Status+0x3e>
    1ca6: aa           	tax
    1ca7: d0 0c        	bne	$1cb5 <_ZN12_GLOBAL__N_112print_stringEPKcP6Status+0x3e>
    1ca9: 64 e8        	stz	$e8                     ; 0xe8 <__zp_bss_size+0x9a>
    1cab: a2 00        	ldx	#$0
    1cad: 4c 7e 1d     	jmp	$1d7e <_ZN12_GLOBAL__N_112print_stringEPKcP6Status+0x107>
    1cb0: a9 ff        	lda	#$ff
    1cb2: aa           	tax
    1cb3: 86 eb        	stx	$eb                     ; 0xeb <__zp_bss_size+0x9d>
    1cb5: 85 e8        	sta	$e8                     ; 0xe8 <__zp_bss_size+0x9a>
    1cb7: 64 12        	stz	$12                     ; 0x12 <__rc2>
    1cb9: a4 e4        	ldy	$e4                     ; 0xe4 <__zp_bss_size+0x96>
    1cbb: a6 e5        	ldx	$e5                     ; 0xe5 <__zp_bss_size+0x97>
    1cbd: 86 16        	stx	$16                     ; 0x16 <__rc6>
    1cbf: 64 13        	stz	$13                     ; 0x13 <__rc3>
    1cc1: 98           	tya
    1cc2: 18           	clc
    1cc3: 65 12        	adc	$12                     ; 0x12 <__rc2>
    1cc5: 85 14        	sta	$14                     ; 0x14 <__rc4>
    1cc7: a5 e5        	lda	$e5                     ; 0xe5 <__zp_bss_size+0x97>
    1cc9: 65 13        	adc	$13                     ; 0x13 <__rc3>
    1ccb: 85 15        	sta	$15                     ; 0x15 <__rc5>
    1ccd: b2 14        	lda	($14)                   ; 0x14 <__rc4>
    1ccf: d0 03        	bne	$1cd4 <_ZN12_GLOBAL__N_112print_stringEPKcP6Status+0x5d>
    1cd1: 4c 78 1d     	jmp	$1d78 <_ZN12_GLOBAL__N_112print_stringEPKcP6Status+0x101>
    1cd4: e6 12        	inc	$12                     ; 0x12 <__rc2>
    1cd6: d0 02        	bne	$1cda <_ZN12_GLOBAL__N_112print_stringEPKcP6Status+0x63>
    1cd8: e6 13        	inc	$13                     ; 0x13 <__rc3>
    1cda: a6 eb        	ldx	$eb                     ; 0xeb <__zp_bss_size+0x9d>
    1cdc: e4 13        	cpx	$13                     ; 0x13 <__rc3>
    1cde: d0 e1        	bne	$1cc1 <_ZN12_GLOBAL__N_112print_stringEPKcP6Status+0x4a>
    1ce0: a6 e8        	ldx	$e8                     ; 0xe8 <__zp_bss_size+0x9a>
    1ce2: e4 12        	cpx	$12                     ; 0x12 <__rc2>
    1ce4: d0 db        	bne	$1cc1 <_ZN12_GLOBAL__N_112print_stringEPKcP6Status+0x4a>
    1ce6: a0 01        	ldy	#$1
    1ce8: b1 e6        	lda	($e6),y                 ; 0xe6 <__zp_bss_size+0x98>
    1cea: 29 01        	and	#$1
    1cec: f0 03        	beq	$1cf1 <_ZN12_GLOBAL__N_112print_stringEPKcP6Status+0x7a>
    1cee: 4c 49 1d     	jmp	$1d49 <_ZN12_GLOBAL__N_112print_stringEPKcP6Status+0xd2>
    1cf1: a5 e6        	lda	$e6                     ; 0xe6 <__zp_bss_size+0x98>
    1cf3: 18           	clc
    1cf4: 69 0b        	adc	#$b
    1cf6: 85 14        	sta	$14                     ; 0x14 <__rc4>
    1cf8: a5 e7        	lda	$e7                     ; 0xe7 <__zp_bss_size+0x99>
    1cfa: 69 00        	adc	#$0
    1cfc: 85 15        	sta	$15                     ; 0x15 <__rc5>
    1cfe: a0 0b        	ldy	#$b
    1d00: b1 e6        	lda	($e6),y                 ; 0xe6 <__zp_bss_size+0x98>
    1d02: 85 13        	sta	$13                     ; 0x13 <__rc3>
    1d04: a0 01        	ldy	#$1
    1d06: b1 14        	lda	($14),y                 ; 0x14 <__rc4>
    1d08: 85 12        	sta	$12                     ; 0x12 <__rc2>
    1d0a: a6 eb        	ldx	$eb                     ; 0xeb <__zp_bss_size+0x9d>
    1d0c: e4 12        	cpx	$12                     ; 0x12 <__rc2>
    1d0e: d0 08        	bne	$1d18 <_ZN12_GLOBAL__N_112print_stringEPKcP6Status+0xa1>
    1d10: a6 e8        	ldx	$e8                     ; 0xe8 <__zp_bss_size+0x9a>
    1d12: e4 13        	cpx	$13                     ; 0x13 <__rc3>
    1d14: 90 06        	bcc	$1d1c <_ZN12_GLOBAL__N_112print_stringEPKcP6Status+0xa5>
    1d16: 80 31        	bra	$1d49 <_ZN12_GLOBAL__N_112print_stringEPKcP6Status+0xd2>
    1d18: e4 12        	cpx	$12                     ; 0x12 <__rc2>
    1d1a: b0 2d        	bcs	$1d49 <_ZN12_GLOBAL__N_112print_stringEPKcP6Status+0xd2>
    1d1c: 38           	sec
    1d1d: a5 e8        	lda	$e8                     ; 0xe8 <__zp_bss_size+0x9a>
    1d1f: e5 13        	sbc	$13                     ; 0x13 <__rc3>
    1d21: a8           	tay
    1d22: a5 eb        	lda	$eb                     ; 0xeb <__zp_bss_size+0x9d>
    1d24: e5 12        	sbc	$12                     ; 0x12 <__rc2>
    1d26: 85 ea        	sta	$ea                     ; 0xea <__zp_bss_size+0x9c>
    1d28: a6 e6        	ldx	$e6                     ; 0xe6 <__zp_bss_size+0x98>
    1d2a: 86 12        	stx	$12                     ; 0x12 <__rc2>
    1d2c: a6 e7        	ldx	$e7                     ; 0xe7 <__zp_bss_size+0x99>
    1d2e: 86 13        	stx	$13                     ; 0x13 <__rc3>
    1d30: 84 e9        	sty	$e9                     ; 0xe9 <__zp_bss_size+0x9b>
    1d32: a9 20        	lda	#$20
    1d34: 20 a4 1b     	jsr	$1ba4 <_ZN12_GLOBAL__N_13putEcP6Status>
    1d37: a6 ea        	ldx	$ea                     ; 0xea <__zp_bss_size+0x9c>
    1d39: e6 e9        	inc	$e9                     ; 0xe9 <__zp_bss_size+0x9b>
    1d3b: d0 01        	bne	$1d3e <_ZN12_GLOBAL__N_112print_stringEPKcP6Status+0xc7>
    1d3d: e8           	inx
    1d3e: 86 ea        	stx	$ea                     ; 0xea <__zp_bss_size+0x9c>
    1d40: a4 e9        	ldy	$e9                     ; 0xe9 <__zp_bss_size+0x9b>
    1d42: 8a           	txa
    1d43: d0 e3        	bne	$1d28 <_ZN12_GLOBAL__N_112print_stringEPKcP6Status+0xb1>
    1d45: a5 e9        	lda	$e9                     ; 0xe9 <__zp_bss_size+0x9b>
    1d47: d0 df        	bne	$1d28 <_ZN12_GLOBAL__N_112print_stringEPKcP6Status+0xb1>
    1d49: a4 eb        	ldy	$eb                     ; 0xeb <__zp_bss_size+0x9d>
    1d4b: d0 04        	bne	$1d51 <_ZN12_GLOBAL__N_112print_stringEPKcP6Status+0xda>
    1d4d: a5 e8        	lda	$e8                     ; 0xe8 <__zp_bss_size+0x9a>
    1d4f: f0 26        	beq	$1d77 <_ZN12_GLOBAL__N_112print_stringEPKcP6Status+0x100>
    1d51: a2 ff        	ldx	#$ff
    1d53: c6 e8        	dec	$e8                     ; 0xe8 <__zp_bss_size+0x9a>
    1d55: e4 e8        	cpx	$e8                     ; 0xe8 <__zp_bss_size+0x9a>
    1d57: d0 01        	bne	$1d5a <_ZN12_GLOBAL__N_112print_stringEPKcP6Status+0xe3>
    1d59: 88           	dey
    1d5a: 84 e9        	sty	$e9                     ; 0xe9 <__zp_bss_size+0x9b>
    1d5c: b2 e4        	lda	($e4)                   ; 0xe4 <__zp_bss_size+0x96>
    1d5e: e6 e4        	inc	$e4                     ; 0xe4 <__zp_bss_size+0x96>
    1d60: d0 02        	bne	$1d64 <_ZN12_GLOBAL__N_112print_stringEPKcP6Status+0xed>
    1d62: e6 e5        	inc	$e5                     ; 0xe5 <__zp_bss_size+0x97>
    1d64: a6 e6        	ldx	$e6                     ; 0xe6 <__zp_bss_size+0x98>
    1d66: 86 12        	stx	$12                     ; 0x12 <__rc2>
    1d68: a6 e7        	ldx	$e7                     ; 0xe7 <__zp_bss_size+0x99>
    1d6a: 86 13        	stx	$13                     ; 0x13 <__rc3>
    1d6c: 20 a4 1b     	jsr	$1ba4 <_ZN12_GLOBAL__N_13putEcP6Status>
    1d6f: a4 e9        	ldy	$e9                     ; 0xe9 <__zp_bss_size+0x9b>
    1d71: d0 de        	bne	$1d51 <_ZN12_GLOBAL__N_112print_stringEPKcP6Status+0xda>
    1d73: a5 e8        	lda	$e8                     ; 0xe8 <__zp_bss_size+0x9a>
    1d75: d0 da        	bne	$1d51 <_ZN12_GLOBAL__N_112print_stringEPKcP6Status+0xda>
    1d77: 60           	rts
    1d78: a6 12        	ldx	$12                     ; 0x12 <__rc2>
    1d7a: 86 e8        	stx	$e8                     ; 0xe8 <__zp_bss_size+0x9a>
    1d7c: a6 13        	ldx	$13                     ; 0x13 <__rc3>
    1d7e: 86 eb        	stx	$eb                     ; 0xeb <__zp_bss_size+0x9d>
    1d80: 4c e6 1c     	jmp	$1ce6 <_ZN12_GLOBAL__N_112print_stringEPKcP6Status+0x6f>

00001d83 <printf>:
    1d83: 18           	clc
    1d84: a6 10        	ldx	$10                     ; 0x10 <__rc0>
    1d86: a4 11        	ldy	$11                     ; 0x11 <__rc1>
    1d88: 86 da        	stx	$da                     ; 0xda <__zp_bss_size+0x8c>
    1d8a: 84 db        	sty	$db                     ; 0xdb <__zp_bss_size+0x8d>
    1d8c: a6 da        	ldx	$da                     ; 0xda <__zp_bss_size+0x8c>
    1d8e: a4 db        	ldy	$db                     ; 0xdb <__zp_bss_size+0x8d>
    1d90: 86 c5        	stx	$c5                     ; 0xc5 <__zp_bss_size+0x77>
    1d92: 84 c6        	sty	$c6                     ; 0xc6 <__zp_bss_size+0x78>
    1d94: a2 ff        	ldx	#$ff
    1d96: 86 ca        	stx	$ca                     ; 0xca <__zp_bss_size+0x7c>
    1d98: 86 cb        	stx	$cb                     ; 0xcb <__zp_bss_size+0x7d>
    1d9a: 64 cc        	stz	$cc                     ; 0xcc <__zp_bss_size+0x7e>
    1d9c: 64 cd        	stz	$cd                     ; 0xcd <__zp_bss_size+0x7f>
    1d9e: e8           	inx
    1d9f: 86 99        	stx	$99                     ; 0x99 <__zp_bss_size+0x4b>
    1da1: a2 00        	ldx	#$0
    1da3: 86 9a        	stx	$9a                     ; 0x9a <__zp_bss_size+0x4c>
    1da5: a6 99        	ldx	$99                     ; 0x99 <__zp_bss_size+0x4b>
    1da7: a4 9a        	ldy	$9a                     ; 0x9a <__zp_bss_size+0x4c>
    1da9: 86 d0        	stx	$d0                     ; 0xd0 <__zp_bss_size+0x82>
    1dab: 84 d1        	sty	$d1                     ; 0xd1 <__zp_bss_size+0x83>
    1dad: a2 02        	ldx	#$2
    1daf: 86 d6        	stx	$d6                     ; 0xd6 <__zp_bss_size+0x88>
    1db1: 64 d7        	stz	$d7                     ; 0xd7 <__zp_bss_size+0x89>
    1db3: a6 c5        	ldx	$c5                     ; 0xc5 <__zp_bss_size+0x77>
    1db5: a4 c6        	ldy	$c6                     ; 0xc6 <__zp_bss_size+0x78>
    1db7: 86 d8        	stx	$d8                     ; 0xd8 <__zp_bss_size+0x8a>
    1db9: 84 d9        	sty	$d9                     ; 0xd9 <__zp_bss_size+0x8b>
    1dbb: a2 bc        	ldx	#$bc
    1dbd: a0 00        	ldy	#$0
    1dbf: 86 12        	stx	$12                     ; 0x12 <__rc2>
    1dc1: 84 13        	sty	$13                     ; 0x13 <__rc3>
    1dc3: a0 01        	ldy	#$1
    1dc5: a9 a3        	lda	#$a3
    1dc7: 18           	clc
    1dc8: 69 02        	adc	#$2
    1dca: 85 e2        	sta	$e2                     ; 0xe2 <__zp_bss_size+0x94>
    1dcc: a9 00        	lda	#$0
    1dce: 69 00        	adc	#$0
    1dd0: 85 e3        	sta	$e3                     ; 0xe3 <__zp_bss_size+0x95>
    1dd2: e6 12        	inc	$12                     ; 0x12 <__rc2>
    1dd4: d0 02        	bne	$1dd8 <printf+0x55>
    1dd6: e6 13        	inc	$13                     ; 0x13 <__rc3>
    1dd8: a6 12        	ldx	$12                     ; 0x12 <__rc2>
    1dda: 86 de        	stx	$de                     ; 0xde <__zp_bss_size+0x90>
    1ddc: a6 13        	ldx	$13                     ; 0x13 <__rc3>
    1dde: 86 df        	stx	$df                     ; 0xdf <__zp_bss_size+0x91>
    1de0: a2 cb        	ldx	#$cb
    1de2: 86 9d        	stx	$9d                     ; 0x9d <__zp_bss_size+0x4f>
    1de4: a2 2e        	ldx	#$2e
    1de6: 86 9e        	stx	$9e                     ; 0x9e <__zp_bss_size+0x50>
    1de8: a6 9d        	ldx	$9d                     ; 0x9d <__zp_bss_size+0x4f>
    1dea: 86 9b        	stx	$9b                     ; 0x9b <__zp_bss_size+0x4d>
    1dec: a6 9e        	ldx	$9e                     ; 0x9e <__zp_bss_size+0x50>
    1dee: 86 9c        	stx	$9c                     ; 0x9c <__zp_bss_size+0x4e>
    1df0: b2 9d        	lda	($9d)                   ; 0x9d <__zp_bss_size+0x4f>
    1df2: c9 25        	cmp	#$25
    1df4: f0 23        	beq	$1e19 <printf+0x96>
    1df6: a2 00        	ldx	#$0
    1df8: a8           	tay
    1df9: d0 03        	bne	$1dfe <printf+0x7b>
    1dfb: 4c 55 29     	jmp	$2955 <printf+0xbd2>
    1dfe: 20 56 29     	jsr	$2956 <putchar>
    1e01: a0 01        	ldy	#$1
    1e03: e6 9b        	inc	$9b                     ; 0x9b <__zp_bss_size+0x4d>
    1e05: d0 02        	bne	$1e09 <printf+0x86>
    1e07: e6 9c        	inc	$9c                     ; 0x9c <__zp_bss_size+0x4e>
    1e09: e6 cc        	inc	$cc                     ; 0xcc <__zp_bss_size+0x7e>
    1e0b: d0 02        	bne	$1e0f <printf+0x8c>
    1e0d: e6 cd        	inc	$cd                     ; 0xcd <__zp_bss_size+0x7f>
    1e0f: a6 9b        	ldx	$9b                     ; 0x9b <__zp_bss_size+0x4d>
    1e11: 86 9d        	stx	$9d                     ; 0x9d <__zp_bss_size+0x4f>
    1e13: a6 9c        	ldx	$9c                     ; 0x9c <__zp_bss_size+0x4e>
    1e15: 86 9e        	stx	$9e                     ; 0x9e <__zp_bss_size+0x50>
    1e17: 80 cf        	bra	$1de8 <printf+0x65>
    1e19: a6 9d        	ldx	$9d                     ; 0x9d <__zp_bss_size+0x4f>
    1e1b: 86 12        	stx	$12                     ; 0x12 <__rc2>
    1e1d: a6 9e        	ldx	$9e                     ; 0x9e <__zp_bss_size+0x50>
    1e1f: 86 13        	stx	$13                     ; 0x13 <__rc3>
    1e21: e6 12        	inc	$12                     ; 0x12 <__rc2>
    1e23: d0 02        	bne	$1e27 <printf+0xa4>
    1e25: e6 13        	inc	$13                     ; 0x13 <__rc3>
    1e27: b1 9b        	lda	($9b),y                 ; 0x9b <__zp_bss_size+0x4d>
    1e29: c9 25        	cmp	#$25
    1e2b: d0 16        	bne	$1e43 <printf+0xc0>
    1e2d: a4 cc        	ldy	$cc                     ; 0xcc <__zp_bss_size+0x7e>
    1e2f: a5 cd        	lda	$cd                     ; 0xcd <__zp_bss_size+0x7f>
    1e31: c5 cb        	cmp	$cb                     ; 0xcb <__zp_bss_size+0x7d>
    1e33: f0 03        	beq	$1e38 <printf+0xb5>
    1e35: 4c 49 1f     	jmp	$1f49 <printf+0x1c6>
    1e38: a6 ca        	ldx	$ca                     ; 0xca <__zp_bss_size+0x7c>
    1e3a: 86 12        	stx	$12                     ; 0x12 <__rc2>
    1e3c: 84 13        	sty	$13                     ; 0x13 <__rc3>
    1e3e: c4 12        	cpy	$12                     ; 0x12 <__rc2>
    1e40: 4c 4d 1f     	jmp	$1f4d <printf+0x1ca>
    1e43: 64 c8        	stz	$c8                     ; 0xc8 <__zp_bss_size+0x7a>
    1e45: 64 c9        	stz	$c9                     ; 0xc9 <__zp_bss_size+0x7b>
    1e47: 64 c7        	stz	$c7                     ; 0xc7 <__zp_bss_size+0x79>
    1e49: 64 d2        	stz	$d2                     ; 0xd2 <__zp_bss_size+0x84>
    1e4b: 64 d3        	stz	$d3                     ; 0xd3 <__zp_bss_size+0x85>
    1e4d: a2 ff        	ldx	#$ff
    1e4f: 86 d4        	stx	$d4                     ; 0xd4 <__zp_bss_size+0x86>
    1e51: 86 d5        	stx	$d5                     ; 0xd5 <__zp_bss_size+0x87>
    1e53: 64 98        	stz	$98                     ; 0x98 <__zp_bss_size+0x4a>
    1e55: 80 33        	bra	$1e8a <printf+0x107>
    1e57: a2 02        	ldx	#$2
    1e59: 80 15        	bra	$1e70 <printf+0xed>
    1e5b: e0 20        	cpx	#$20
    1e5d: f0 15        	beq	$1e74 <printf+0xf1>
    1e5f: 86 15        	stx	$15                     ; 0x15 <__rc5>
    1e61: e0 23        	cpx	#$23
    1e63: f0 03        	beq	$1e68 <printf+0xe5>
    1e65: 4c e7 1e     	jmp	$1ee7 <printf+0x164>
    1e68: a5 98        	lda	$98                     ; 0x98 <__zp_bss_size+0x4a>
    1e6a: a2 04        	ldx	#$4
    1e6c: 80 02        	bra	$1e70 <printf+0xed>
    1e6e: a2 10        	ldx	#$10
    1e70: 86 14        	stx	$14                     ; 0x14 <__rc4>
    1e72: 80 06        	bra	$1e7a <printf+0xf7>
    1e74: a2 08        	ldx	#$8
    1e76: 86 14        	stx	$14                     ; 0x14 <__rc4>
    1e78: a5 98        	lda	$98                     ; 0x98 <__zp_bss_size+0x4a>
    1e7a: 05 14        	ora	$14                     ; 0x14 <__rc4>
    1e7c: 85 98        	sta	$98                     ; 0x98 <__zp_bss_size+0x4a>
    1e7e: 85 c8        	sta	$c8                     ; 0xc8 <__zp_bss_size+0x7a>
    1e80: a2 00        	ldx	#$0
    1e82: 86 c9        	stx	$c9                     ; 0xc9 <__zp_bss_size+0x7b>
    1e84: e6 12        	inc	$12                     ; 0x12 <__rc2>
    1e86: d0 02        	bne	$1e8a <printf+0x107>
    1e88: e6 13        	inc	$13                     ; 0x13 <__rc3>
    1e8a: b2 12        	lda	($12)                   ; 0x12 <__rc2>
    1e8c: 18           	clc
    1e8d: aa           	tax
    1e8e: 69 d6        	adc	#$d6
    1e90: c9 07        	cmp	#$7
    1e92: b0 c7        	bcs	$1e5b <printf+0xd8>
    1e94: 86 15        	stx	$15                     ; 0x15 <__rc5>
    1e96: 0a           	asl
    1e97: aa           	tax
    1e98: a0 01        	ldy	#$1
    1e9a: 84 14        	sty	$14                     ; 0x14 <__rc4>
    1e9c: a5 98        	lda	$98                     ; 0x98 <__zp_bss_size+0x4a>
    1e9e: 7c 61 2e     	jmp	($2e61,x)               ; 0x2e61 <__set_v+0x1>
    1ea1: a5 d8        	lda	$d8                     ; 0xd8 <__zp_bss_size+0x8a>
    1ea3: a6 d9        	ldx	$d9                     ; 0xd9 <__zp_bss_size+0x8b>
    1ea5: 85 16        	sta	$16                     ; 0x16 <__rc6>
    1ea7: 86 17        	stx	$17                     ; 0x17 <__rc7>
    1ea9: 18           	clc
    1eaa: 69 02        	adc	#$2
    1eac: a8           	tay
    1ead: 8a           	txa
    1eae: 69 00        	adc	#$0
    1eb0: 84 d8        	sty	$d8                     ; 0xd8 <__zp_bss_size+0x8a>
    1eb2: 85 d9        	sta	$d9                     ; 0xd9 <__zp_bss_size+0x8b>
    1eb4: b2 16        	lda	($16)                   ; 0x16 <__rc6>
    1eb6: 85 15        	sta	$15                     ; 0x15 <__rc5>
    1eb8: a0 01        	ldy	#$1
    1eba: b1 16        	lda	($16),y                 ; 0x16 <__rc6>
    1ebc: 85 14        	sta	$14                     ; 0x14 <__rc4>
    1ebe: 10 15        	bpl	$1ed5 <printf+0x152>
    1ec0: a5 98        	lda	$98                     ; 0x98 <__zp_bss_size+0x4a>
    1ec2: 09 01        	ora	#$1
    1ec4: 85 98        	sta	$98                     ; 0x98 <__zp_bss_size+0x4a>
    1ec6: 85 c8        	sta	$c8                     ; 0xc8 <__zp_bss_size+0x7a>
    1ec8: a2 00        	ldx	#$0
    1eca: 86 c9        	stx	$c9                     ; 0xc9 <__zp_bss_size+0x7b>
    1ecc: 8a           	txa
    1ecd: 38           	sec
    1ece: e5 15        	sbc	$15                     ; 0x15 <__rc5>
    1ed0: 85 15        	sta	$15                     ; 0x15 <__rc5>
    1ed2: 8a           	txa
    1ed3: e5 14        	sbc	$14                     ; 0x14 <__rc4>
    1ed5: a6 15        	ldx	$15                     ; 0x15 <__rc5>
    1ed7: 86 d2        	stx	$d2                     ; 0xd2 <__zp_bss_size+0x84>
    1ed9: 85 d3        	sta	$d3                     ; 0xd3 <__zp_bss_size+0x85>
    1edb: e6 12        	inc	$12                     ; 0x12 <__rc2>
    1edd: f0 03        	beq	$1ee2 <printf+0x15f>
    1edf: 4c 9d 1f     	jmp	$1f9d <printf+0x21a>
    1ee2: e6 13        	inc	$13                     ; 0x13 <__rc3>
    1ee4: 4c 9d 1f     	jmp	$1f9d <printf+0x21a>
    1ee7: 18           	clc
    1ee8: a5 15        	lda	$15                     ; 0x15 <__rc5>
    1eea: 69 d0        	adc	#$d0
    1eec: c9 0a        	cmp	#$a
    1eee: 90 03        	bcc	$1ef3 <printf+0x170>
    1ef0: 4c 8f 1f     	jmp	$1f8f <printf+0x20c>
    1ef3: a6 15        	ldx	$15                     ; 0x15 <__rc5>
    1ef5: 86 14        	stx	$14                     ; 0x14 <__rc4>
    1ef7: 64 16        	stz	$16                     ; 0x16 <__rc6>
    1ef9: 64 15        	stz	$15                     ; 0x15 <__rc5>
    1efb: 64 17        	stz	$17                     ; 0x17 <__rc7>
    1efd: a0 01        	ldy	#$1
    1eff: 06 16        	asl	$16                     ; 0x16 <__rc6>
    1f01: 26 17        	rol	$17                     ; 0x17 <__rc7>
    1f03: a5 16        	lda	$16                     ; 0x16 <__rc6>
    1f05: 0a           	asl
    1f06: aa           	tax
    1f07: a5 17        	lda	$17                     ; 0x17 <__rc7>
    1f09: 2a           	rol
    1f0a: 86 18        	stx	$18                     ; 0x18 <__rc8>
    1f0c: 06 18        	asl	$18                     ; 0x18 <__rc8>
    1f0e: 2a           	rol
    1f0f: aa           	tax
    1f10: a5 18        	lda	$18                     ; 0x18 <__rc8>
    1f12: 18           	clc
    1f13: 65 16        	adc	$16                     ; 0x16 <__rc6>
    1f15: 85 16        	sta	$16                     ; 0x16 <__rc6>
    1f17: 8a           	txa
    1f18: 65 17        	adc	$17                     ; 0x17 <__rc7>
    1f1a: 85 17        	sta	$17                     ; 0x17 <__rc7>
    1f1c: a5 16        	lda	$16                     ; 0x16 <__rc6>
    1f1e: 18           	clc
    1f1f: 65 14        	adc	$14                     ; 0x14 <__rc4>
    1f21: 85 14        	sta	$14                     ; 0x14 <__rc4>
    1f23: a5 17        	lda	$17                     ; 0x17 <__rc7>
    1f25: 65 15        	adc	$15                     ; 0x15 <__rc5>
    1f27: aa           	tax
    1f28: 18           	clc
    1f29: a5 14        	lda	$14                     ; 0x14 <__rc4>
    1f2b: 69 d0        	adc	#$d0
    1f2d: 85 16        	sta	$16                     ; 0x16 <__rc6>
    1f2f: 8a           	txa
    1f30: 69 ff        	adc	#$ff
    1f32: 85 17        	sta	$17                     ; 0x17 <__rc7>
    1f34: b1 12        	lda	($12),y                 ; 0x12 <__rc2>
    1f36: 85 14        	sta	$14                     ; 0x14 <__rc4>
    1f38: 18           	clc
    1f39: 69 d0        	adc	#$d0
    1f3b: e6 12        	inc	$12                     ; 0x12 <__rc2>
    1f3d: d0 02        	bne	$1f41 <printf+0x1be>
    1f3f: e6 13        	inc	$13                     ; 0x13 <__rc3>
    1f41: c9 0a        	cmp	#$a
    1f43: 64 15        	stz	$15                     ; 0x15 <__rc5>
    1f45: 90 b8        	bcc	$1eff <printf+0x17c>
    1f47: 80 4c        	bra	$1f95 <printf+0x212>
    1f49: 84 13        	sty	$13                     ; 0x13 <__rc3>
    1f4b: c5 cb        	cmp	$cb                     ; 0xcb <__zp_bss_size+0x7d>
    1f4d: a0 01        	ldy	#$1
    1f4f: b0 28        	bcs	$1f79 <printf+0x1f6>
    1f51: a6 d7        	ldx	$d7                     ; 0xd7 <__zp_bss_size+0x89>
    1f53: e4 9a        	cpx	$9a                     ; 0x9a <__zp_bss_size+0x4c>
    1f55: d0 19        	bne	$1f70 <printf+0x1ed>
    1f57: a6 d6        	ldx	$d6                     ; 0xd6 <__zp_bss_size+0x88>
    1f59: e4 99        	cpx	$99                     ; 0x99 <__zp_bss_size+0x4b>
    1f5b: d0 13        	bne	$1f70 <printf+0x1ed>
    1f5d: 18           	clc
    1f5e: aa           	tax
    1f5f: a5 13        	lda	$13                     ; 0x13 <__rc3>
    1f61: 65 d0        	adc	$d0                     ; 0xd0 <__zp_bss_size+0x82>
    1f63: 85 12        	sta	$12                     ; 0x12 <__rc2>
    1f65: 8a           	txa
    1f66: 65 d1        	adc	$d1                     ; 0xd1 <__zp_bss_size+0x83>
    1f68: 85 13        	sta	$13                     ; 0x13 <__rc3>
    1f6a: a9 25        	lda	#$25
    1f6c: 92 12        	sta	($12)                   ; 0x12 <__rc2>
    1f6e: 80 09        	bra	$1f79 <printf+0x1f6>
    1f70: a2 00        	ldx	#$0
    1f72: a9 25        	lda	#$25
    1f74: 20 56 29     	jsr	$2956 <putchar>
    1f77: a0 01        	ldy	#$1
    1f79: e6 cc        	inc	$cc                     ; 0xcc <__zp_bss_size+0x7e>
    1f7b: d0 02        	bne	$1f7f <printf+0x1fc>
    1f7d: e6 cd        	inc	$cd                     ; 0xcd <__zp_bss_size+0x7f>
    1f7f: a5 9b        	lda	$9b                     ; 0x9b <__zp_bss_size+0x4d>
    1f81: 18           	clc
    1f82: 69 02        	adc	#$2
    1f84: 85 9d        	sta	$9d                     ; 0x9d <__zp_bss_size+0x4f>
    1f86: a5 9c        	lda	$9c                     ; 0x9c <__zp_bss_size+0x4e>
    1f88: 69 00        	adc	#$0
    1f8a: 85 9e        	sta	$9e                     ; 0x9e <__zp_bss_size+0x50>
    1f8c: 4c e8 1d     	jmp	$1de8 <printf+0x65>
    1f8f: 64 16        	stz	$16                     ; 0x16 <__rc6>
    1f91: 64 17        	stz	$17                     ; 0x17 <__rc7>
    1f93: a0 01        	ldy	#$1
    1f95: a6 16        	ldx	$16                     ; 0x16 <__rc6>
    1f97: 86 d2        	stx	$d2                     ; 0xd2 <__zp_bss_size+0x84>
    1f99: a5 17        	lda	$17                     ; 0x17 <__rc7>
    1f9b: 85 d3        	sta	$d3                     ; 0xd3 <__zp_bss_size+0x85>
    1f9d: 86 a1        	stx	$a1                     ; 0xa1 <__zp_bss_size+0x53>
    1f9f: 85 9f        	sta	$9f                     ; 0x9f <__zp_bss_size+0x51>
    1fa1: b2 12        	lda	($12)                   ; 0x12 <__rc2>
    1fa3: a2 ff        	ldx	#$ff
    1fa5: c9 2e        	cmp	#$2e
    1fa7: d0 39        	bne	$1fe2 <printf+0x25f>
    1fa9: b1 12        	lda	($12),y                 ; 0x12 <__rc2>
    1fab: c9 2a        	cmp	#$2a
    1fad: d0 38        	bne	$1fe7 <printf+0x264>
    1faf: a5 d8        	lda	$d8                     ; 0xd8 <__zp_bss_size+0x8a>
    1fb1: a6 d9        	ldx	$d9                     ; 0xd9 <__zp_bss_size+0x8b>
    1fb3: 85 14        	sta	$14                     ; 0x14 <__rc4>
    1fb5: 86 15        	stx	$15                     ; 0x15 <__rc5>
    1fb7: 18           	clc
    1fb8: 69 02        	adc	#$2
    1fba: 85 16        	sta	$16                     ; 0x16 <__rc6>
    1fbc: 8a           	txa
    1fbd: 69 00        	adc	#$0
    1fbf: a6 16        	ldx	$16                     ; 0x16 <__rc6>
    1fc1: 86 d8        	stx	$d8                     ; 0xd8 <__zp_bss_size+0x8a>
    1fc3: 85 d9        	sta	$d9                     ; 0xd9 <__zp_bss_size+0x8b>
    1fc5: a5 12        	lda	$12                     ; 0x12 <__rc2>
    1fc7: 18           	clc
    1fc8: 69 02        	adc	#$2
    1fca: 85 12        	sta	$12                     ; 0x12 <__rc2>
    1fcc: a5 13        	lda	$13                     ; 0x13 <__rc3>
    1fce: 69 00        	adc	#$0
    1fd0: 85 13        	sta	$13                     ; 0x13 <__rc3>
    1fd2: b2 14        	lda	($14)                   ; 0x14 <__rc4>
    1fd4: aa           	tax
    1fd5: b1 14        	lda	($14),y                 ; 0x14 <__rc4>
    1fd7: 86 18        	stx	$18                     ; 0x18 <__rc8>
    1fd9: 86 d4        	stx	$d4                     ; 0xd4 <__zp_bss_size+0x86>
    1fdb: 85 19        	sta	$19                     ; 0x19 <__rc9>
    1fdd: 85 d5        	sta	$d5                     ; 0xd5 <__zp_bss_size+0x87>
    1fdf: 4c 92 20     	jmp	$2092 <printf+0x30f>
    1fe2: 86 18        	stx	$18                     ; 0x18 <__rc8>
    1fe4: 4c a2 20     	jmp	$20a2 <printf+0x31f>
    1fe7: 18           	clc
    1fe8: 85 17        	sta	$17                     ; 0x17 <__rc7>
    1fea: 69 d0        	adc	#$d0
    1fec: c9 0a        	cmp	#$a
    1fee: 90 03        	bcc	$1ff3 <printf+0x270>
    1ff0: 4c 84 20     	jmp	$2084 <printf+0x301>
    1ff3: 64 16        	stz	$16                     ; 0x16 <__rc6>
    1ff5: a2 01        	ldx	#$1
    1ff7: 64 18        	stz	$18                     ; 0x18 <__rc8>
    1ff9: 64 19        	stz	$19                     ; 0x19 <__rc9>
    1ffb: a0 01        	ldy	#$1
    1ffd: 64 1a        	stz	$1a                     ; 0x1a <__rc10>
    1fff: 5a           	phy
    2000: a4 1a        	ldy	$1a                     ; 0x1a <__rc10>
    2002: 84 14        	sty	$14                     ; 0x14 <__rc4>
    2004: 86 15        	stx	$15                     ; 0x15 <__rc5>
    2006: 06 18        	asl	$18                     ; 0x18 <__rc8>
    2008: 26 19        	rol	$19                     ; 0x19 <__rc9>
    200a: a5 18        	lda	$18                     ; 0x18 <__rc8>
    200c: 0a           	asl
    200d: 85 1d        	sta	$1d                     ; 0x1d <__rc13>
    200f: a5 19        	lda	$19                     ; 0x19 <__rc9>
    2011: 2a           	rol
    2012: 06 1d        	asl	$1d                     ; 0x1d <__rc13>
    2014: 2a           	rol
    2015: 85 1e        	sta	$1e                     ; 0x1e <__rc14>
    2017: a5 1d        	lda	$1d                     ; 0x1d <__rc13>
    2019: 18           	clc
    201a: 65 18        	adc	$18                     ; 0x18 <__rc8>
    201c: 85 18        	sta	$18                     ; 0x18 <__rc8>
    201e: a5 1e        	lda	$1e                     ; 0x1e <__rc14>
    2020: 65 19        	adc	$19                     ; 0x19 <__rc9>
    2022: 85 19        	sta	$19                     ; 0x19 <__rc9>
    2024: a5 18        	lda	$18                     ; 0x18 <__rc8>
    2026: 18           	clc
    2027: 65 17        	adc	$17                     ; 0x17 <__rc7>
    2029: 85 17        	sta	$17                     ; 0x17 <__rc7>
    202b: a5 19        	lda	$19                     ; 0x19 <__rc9>
    202d: 65 16        	adc	$16                     ; 0x16 <__rc6>
    202f: 85 16        	sta	$16                     ; 0x16 <__rc6>
    2031: 18           	clc
    2032: a5 17        	lda	$17                     ; 0x17 <__rc7>
    2034: 69 d0        	adc	#$d0
    2036: 85 18        	sta	$18                     ; 0x18 <__rc8>
    2038: a5 16        	lda	$16                     ; 0x16 <__rc6>
    203a: 69 ff        	adc	#$ff
    203c: 85 19        	sta	$19                     ; 0x19 <__rc9>
    203e: e8           	inx
    203f: d0 02        	bne	$2043 <printf+0x2c0>
    2041: e6 1a        	inc	$1a                     ; 0x1a <__rc10>
    2043: a5 12        	lda	$12                     ; 0x12 <__rc2>
    2045: 18           	clc
    2046: 65 15        	adc	$15                     ; 0x15 <__rc5>
    2048: 85 1d        	sta	$1d                     ; 0x1d <__rc13>
    204a: a5 13        	lda	$13                     ; 0x13 <__rc3>
    204c: 65 14        	adc	$14                     ; 0x14 <__rc4>
    204e: a4 1d        	ldy	$1d                     ; 0x1d <__rc13>
    2050: 84 16        	sty	$16                     ; 0x16 <__rc6>
    2052: 7a           	ply
    2053: 85 17        	sta	$17                     ; 0x17 <__rc7>
    2055: b1 16        	lda	($16),y                 ; 0x16 <__rc6>
    2057: 85 17        	sta	$17                     ; 0x17 <__rc7>
    2059: 18           	clc
    205a: 69 d0        	adc	#$d0
    205c: c9 0a        	cmp	#$a
    205e: 64 16        	stz	$16                     ; 0x16 <__rc6>
    2060: b0 03        	bcs	$2065 <printf+0x2e2>
    2062: 4c ff 1f     	jmp	$1fff <printf+0x27c>
    2065: a5 12        	lda	$12                     ; 0x12 <__rc2>
    2067: 18           	clc
    2068: 65 15        	adc	$15                     ; 0x15 <__rc5>
    206a: 85 12        	sta	$12                     ; 0x12 <__rc2>
    206c: a5 13        	lda	$13                     ; 0x13 <__rc3>
    206e: 65 14        	adc	$14                     ; 0x14 <__rc4>
    2070: 85 13        	sta	$13                     ; 0x13 <__rc3>
    2072: e6 12        	inc	$12                     ; 0x12 <__rc2>
    2074: d0 02        	bne	$2078 <printf+0x2f5>
    2076: e6 13        	inc	$13                     ; 0x13 <__rc3>
    2078: a6 18        	ldx	$18                     ; 0x18 <__rc8>
    207a: 86 d4        	stx	$d4                     ; 0xd4 <__zp_bss_size+0x86>
    207c: a6 19        	ldx	$19                     ; 0x19 <__rc9>
    207e: 86 d5        	stx	$d5                     ; 0xd5 <__zp_bss_size+0x87>
    2080: a0 01        	ldy	#$1
    2082: 80 0e        	bra	$2092 <printf+0x30f>
    2084: e6 12        	inc	$12                     ; 0x12 <__rc2>
    2086: d0 02        	bne	$208a <printf+0x307>
    2088: e6 13        	inc	$13                     ; 0x13 <__rc3>
    208a: 64 18        	stz	$18                     ; 0x18 <__rc8>
    208c: 64 d4        	stz	$d4                     ; 0xd4 <__zp_bss_size+0x86>
    208e: 64 d5        	stz	$d5                     ; 0xd5 <__zp_bss_size+0x87>
    2090: 64 19        	stz	$19                     ; 0x19 <__rc9>
    2092: a5 98        	lda	$98                     ; 0x98 <__zp_bss_size+0x4a>
    2094: 29 ef        	and	#$ef
    2096: 85 98        	sta	$98                     ; 0x98 <__zp_bss_size+0x4a>
    2098: 85 c8        	sta	$c8                     ; 0xc8 <__zp_bss_size+0x7a>
    209a: a2 00        	ldx	#$0
    209c: 86 c9        	stx	$c9                     ; 0xc9 <__zp_bss_size+0x7b>
    209e: b2 12        	lda	($12)                   ; 0x12 <__rc2>
    20a0: a6 19        	ldx	$19                     ; 0x19 <__rc9>
    20a2: 86 15        	stx	$15                     ; 0x15 <__rc5>
    20a4: a6 12        	ldx	$12                     ; 0x12 <__rc2>
    20a6: 86 9d        	stx	$9d                     ; 0x9d <__zp_bss_size+0x4f>
    20a8: a6 13        	ldx	$13                     ; 0x13 <__rc3>
    20aa: 86 9e        	stx	$9e                     ; 0x9e <__zp_bss_size+0x50>
    20ac: e6 9d        	inc	$9d                     ; 0x9d <__zp_bss_size+0x4f>
    20ae: d0 02        	bne	$20b2 <printf+0x32f>
    20b0: e6 9e        	inc	$9e                     ; 0x9e <__zp_bss_size+0x50>
    20b2: 85 14        	sta	$14                     ; 0x14 <__rc4>
    20b4: 38           	sec
    20b5: e9 6c        	sbc	#$6c
    20b7: 50 02        	bvc	$20bb <printf+0x338>
    20b9: 49 80        	eor	#$80
    20bb: aa           	tax
    20bc: 10 1d        	bpl	$20db <printf+0x358>
    20be: a5 14        	lda	$14                     ; 0x14 <__rc4>
    20c0: c9 4c        	cmp	#$4c
    20c2: f0 27        	beq	$20eb <printf+0x368>
    20c4: c9 68        	cmp	#$68
    20c6: d0 03        	bne	$20cb <printf+0x348>
    20c8: 4c 52 21     	jmp	$2152 <printf+0x3cf>
    20cb: a2 08        	ldx	#$8
    20cd: c9 6a        	cmp	#$6a
    20cf: d0 2e        	bne	$20ff <printf+0x37c>
    20d1: a5 9d        	lda	$9d                     ; 0x9d <__zp_bss_size+0x4f>
    20d3: 85 12        	sta	$12                     ; 0x12 <__rc2>
    20d5: a5 9e        	lda	$9e                     ; 0x9e <__zp_bss_size+0x50>
    20d7: 85 13        	sta	$13                     ; 0x13 <__rc3>
    20d9: 80 43        	bra	$211e <printf+0x39b>
    20db: a6 14        	ldx	$14                     ; 0x14 <__rc4>
    20dd: e0 6c        	cpx	#$6c
    20df: f0 23        	beq	$2104 <printf+0x381>
    20e1: e0 74        	cpx	#$74
    20e3: f0 12        	beq	$20f7 <printf+0x374>
    20e5: e0 7a        	cpx	#$7a
    20e7: f0 0e        	beq	$20f7 <printf+0x374>
    20e9: 80 14        	bra	$20ff <printf+0x37c>
    20eb: a5 98        	lda	$98                     ; 0x98 <__zp_bss_size+0x4a>
    20ed: 09 40        	ora	#$40
    20ef: 85 98        	sta	$98                     ; 0x98 <__zp_bss_size+0x4a>
    20f1: 85 c8        	sta	$c8                     ; 0xc8 <__zp_bss_size+0x7a>
    20f3: a2 00        	ldx	#$0
    20f5: 86 c9        	stx	$c9                     ; 0xc9 <__zp_bss_size+0x7b>
    20f7: a6 9d        	ldx	$9d                     ; 0x9d <__zp_bss_size+0x4f>
    20f9: 86 12        	stx	$12                     ; 0x12 <__rc2>
    20fb: a6 9e        	ldx	$9e                     ; 0x9e <__zp_bss_size+0x50>
    20fd: 86 13        	stx	$13                     ; 0x13 <__rc3>
    20ff: a2 02        	ldx	#$2
    2101: 8a           	txa
    2102: 80 1c        	bra	$2120 <printf+0x39d>
    2104: b1 12        	lda	($12),y                 ; 0x12 <__rc2>
    2106: a2 04        	ldx	#$4
    2108: c9 6c        	cmp	#$6c
    210a: f0 03        	beq	$210f <printf+0x38c>
    210c: 4c 61 24     	jmp	$2461 <printf+0x6de>
    210f: a5 12        	lda	$12                     ; 0x12 <__rc2>
    2111: 18           	clc
    2112: 69 02        	adc	#$2
    2114: 85 12        	sta	$12                     ; 0x12 <__rc2>
    2116: a5 13        	lda	$13                     ; 0x13 <__rc3>
    2118: 69 00        	adc	#$0
    211a: 85 13        	sta	$13                     ; 0x13 <__rc3>
    211c: a2 08        	ldx	#$8
    211e: a9 08        	lda	#$8
    2120: 85 dd        	sta	$dd                     ; 0xdd <__zp_bss_size+0x8f>
    2122: b2 12        	lda	($12)                   ; 0x12 <__rc2>
    2124: 5a           	phy
    2125: a4 12        	ldy	$12                     ; 0x12 <__rc2>
    2127: 84 9d        	sty	$9d                     ; 0x9d <__zp_bss_size+0x4f>
    2129: a4 13        	ldy	$13                     ; 0x13 <__rc3>
    212b: 84 9e        	sty	$9e                     ; 0x9e <__zp_bss_size+0x50>
    212d: 7a           	ply
    212e: 86 99        	stx	$99                     ; 0x99 <__zp_bss_size+0x4b>
    2130: aa           	tax
    2131: 18           	clc
    2132: 69 9d        	adc	#$9d
    2134: c9 16        	cmp	#$16
    2136: b0 39        	bcs	$2171 <printf+0x3ee>
    2138: 0a           	asl
    2139: aa           	tax
    213a: 7c 6f 2e     	jmp	($2e6f,x)               ; 0x2e6f <__set_v+0xf>
    213d: a6 15        	ldx	$15                     ; 0x15 <__rc5>
    213f: 86 e0        	stx	$e0                     ; 0xe0 <__zp_bss_size+0x92>
    2141: a6 18        	ldx	$18                     ; 0x18 <__rc8>
    2143: 86 e1        	stx	$e1                     ; 0xe1 <__zp_bss_size+0x93>
    2145: a0 0a        	ldy	#$a
    2147: a2 0a        	ldx	#$a
    2149: 86 dc        	stx	$dc                     ; 0xdc <__zp_bss_size+0x8e>
    214b: 84 c7        	sty	$c7                     ; 0xc7 <__zp_bss_size+0x79>
    214d: 64 a2        	stz	$a2                     ; 0xa2 <__zp_bss_size+0x54>
    214f: 4c 71 22     	jmp	$2271 <printf+0x4ee>
    2152: b1 12        	lda	($12),y                 ; 0x12 <__rc2>
    2154: a2 02        	ldx	#$2
    2156: c9 68        	cmp	#$68
    2158: f0 03        	beq	$215d <printf+0x3da>
    215a: 4c 67 24     	jmp	$2467 <printf+0x6e4>
    215d: a5 12        	lda	$12                     ; 0x12 <__rc2>
    215f: 18           	clc
    2160: 69 02        	adc	#$2
    2162: 85 12        	sta	$12                     ; 0x12 <__rc2>
    2164: a5 13        	lda	$13                     ; 0x13 <__rc3>
    2166: 69 00        	adc	#$0
    2168: 85 13        	sta	$13                     ; 0x13 <__rc3>
    216a: a2 01        	ldx	#$1
    216c: 86 dd        	stx	$dd                     ; 0xdd <__zp_bss_size+0x8f>
    216e: e8           	inx
    216f: 80 b1        	bra	$2122 <printf+0x39f>
    2171: e0 58        	cpx	#$58
    2173: f0 03        	beq	$2178 <printf+0x3f5>
    2175: 4c 0f 29     	jmp	$290f <printf+0xb8c>
    2178: a6 15        	ldx	$15                     ; 0x15 <__rc5>
    217a: 86 e0        	stx	$e0                     ; 0xe0 <__zp_bss_size+0x92>
    217c: a6 18        	ldx	$18                     ; 0x18 <__rc8>
    217e: 86 e1        	stx	$e1                     ; 0xe1 <__zp_bss_size+0x93>
    2180: a2 10        	ldx	#$10
    2182: 86 c7        	stx	$c7                     ; 0xc7 <__zp_bss_size+0x79>
    2184: a9 00        	lda	#$0
    2186: 09 01        	ora	#$1
    2188: a6 98        	ldx	$98                     ; 0x98 <__zp_bss_size+0x4a>
    218a: 80 29        	bra	$21b5 <printf+0x432>
    218c: a6 15        	ldx	$15                     ; 0x15 <__rc5>
    218e: 86 e0        	stx	$e0                     ; 0xe0 <__zp_bss_size+0x92>
    2190: a6 18        	ldx	$18                     ; 0x18 <__rc8>
    2192: 86 e1        	stx	$e1                     ; 0xe1 <__zp_bss_size+0x93>
    2194: a2 10        	ldx	#$10
    2196: 86 c7        	stx	$c7                     ; 0xc7 <__zp_bss_size+0x79>
    2198: a5 98        	lda	$98                     ; 0x98 <__zp_bss_size+0x4a>
    219a: 09 84        	ora	#$84
    219c: 80 10        	bra	$21ae <printf+0x42b>
    219e: a6 15        	ldx	$15                     ; 0x15 <__rc5>
    21a0: 86 e0        	stx	$e0                     ; 0xe0 <__zp_bss_size+0x92>
    21a2: a6 18        	ldx	$18                     ; 0x18 <__rc8>
    21a4: 86 e1        	stx	$e1                     ; 0xe1 <__zp_bss_size+0x93>
    21a6: a2 10        	ldx	#$10
    21a8: 86 c7        	stx	$c7                     ; 0xc7 <__zp_bss_size+0x79>
    21aa: a5 98        	lda	$98                     ; 0x98 <__zp_bss_size+0x4a>
    21ac: 09 80        	ora	#$80
    21ae: aa           	tax
    21af: a9 00        	lda	#$0
    21b1: 09 01        	ora	#$1
    21b3: 86 98        	stx	$98                     ; 0x98 <__zp_bss_size+0x4a>
    21b5: 86 c8        	stx	$c8                     ; 0xc8 <__zp_bss_size+0x7a>
    21b7: 85 a2        	sta	$a2                     ; 0xa2 <__zp_bss_size+0x54>
    21b9: 85 c9        	sta	$c9                     ; 0xc9 <__zp_bss_size+0x7b>
    21bb: a2 10        	ldx	#$10
    21bd: 86 dc        	stx	$dc                     ; 0xdc <__zp_bss_size+0x8e>
    21bf: 4c 71 22     	jmp	$2271 <printf+0x4ee>
    21c2: a5 d8        	lda	$d8                     ; 0xd8 <__zp_bss_size+0x8a>
    21c4: a6 d9        	ldx	$d9                     ; 0xd9 <__zp_bss_size+0x8b>
    21c6: 85 12        	sta	$12                     ; 0x12 <__rc2>
    21c8: 86 13        	stx	$13                     ; 0x13 <__rc3>
    21ca: 18           	clc
    21cb: 69 02        	adc	#$2
    21cd: 85 14        	sta	$14                     ; 0x14 <__rc4>
    21cf: 8a           	txa
    21d0: 69 00        	adc	#$0
    21d2: a6 14        	ldx	$14                     ; 0x14 <__rc4>
    21d4: 86 d8        	stx	$d8                     ; 0xd8 <__zp_bss_size+0x8a>
    21d6: 85 d9        	sta	$d9                     ; 0xd9 <__zp_bss_size+0x8b>
    21d8: b2 12        	lda	($12)                   ; 0x12 <__rc2>
    21da: aa           	tax
    21db: b1 12        	lda	($12),y                 ; 0x12 <__rc2>
    21dd: 86 12        	stx	$12                     ; 0x12 <__rc2>
    21df: 85 13        	sta	$13                     ; 0x13 <__rc3>
    21e1: a5 cc        	lda	$cc                     ; 0xcc <__zp_bss_size+0x7e>
    21e3: a6 cd        	ldx	$cd                     ; 0xcd <__zp_bss_size+0x7f>
    21e5: 92 12        	sta	($12)                   ; 0x12 <__rc2>
    21e7: 8a           	txa
    21e8: 91 12        	sta	($12),y                 ; 0x12 <__rc2>
    21ea: 4c 4a 22     	jmp	$224a <printf+0x4c7>
    21ed: a5 d8        	lda	$d8                     ; 0xd8 <__zp_bss_size+0x8a>
    21ef: a6 d9        	ldx	$d9                     ; 0xd9 <__zp_bss_size+0x8b>
    21f1: 85 12        	sta	$12                     ; 0x12 <__rc2>
    21f3: 86 13        	stx	$13                     ; 0x13 <__rc3>
    21f5: 18           	clc
    21f6: 69 02        	adc	#$2
    21f8: 85 14        	sta	$14                     ; 0x14 <__rc4>
    21fa: 8a           	txa
    21fb: 69 00        	adc	#$0
    21fd: a6 14        	ldx	$14                     ; 0x14 <__rc4>
    21ff: 86 d8        	stx	$d8                     ; 0xd8 <__zp_bss_size+0x8a>
    2201: 85 d9        	sta	$d9                     ; 0xd9 <__zp_bss_size+0x8b>
    2203: b2 12        	lda	($12)                   ; 0x12 <__rc2>
    2205: aa           	tax
    2206: b1 12        	lda	($12),y                 ; 0x12 <__rc2>
    2208: 86 12        	stx	$12                     ; 0x12 <__rc2>
    220a: 85 13        	sta	$13                     ; 0x13 <__rc3>
    220c: 80 2f        	bra	$223d <printf+0x4ba>
    220e: a6 15        	ldx	$15                     ; 0x15 <__rc5>
    2210: 86 e0        	stx	$e0                     ; 0xe0 <__zp_bss_size+0x92>
    2212: a6 18        	ldx	$18                     ; 0x18 <__rc8>
    2214: 86 e1        	stx	$e1                     ; 0xe1 <__zp_bss_size+0x93>
    2216: a0 08        	ldy	#$8
    2218: a2 08        	ldx	#$8
    221a: 80 45        	bra	$2261 <printf+0x4de>
    221c: a5 d8        	lda	$d8                     ; 0xd8 <__zp_bss_size+0x8a>
    221e: a6 d9        	ldx	$d9                     ; 0xd9 <__zp_bss_size+0x8b>
    2220: 85 12        	sta	$12                     ; 0x12 <__rc2>
    2222: 86 13        	stx	$13                     ; 0x13 <__rc3>
    2224: 18           	clc
    2225: 69 02        	adc	#$2
    2227: a8           	tay
    2228: 8a           	txa
    2229: 69 00        	adc	#$0
    222b: 84 d8        	sty	$d8                     ; 0xd8 <__zp_bss_size+0x8a>
    222d: 85 d9        	sta	$d9                     ; 0xd9 <__zp_bss_size+0x8b>
    222f: b2 12        	lda	($12)                   ; 0x12 <__rc2>
    2231: 85 ba        	sta	$ba                     ; 0xba <__zp_bss_size+0x6c>
    2233: 64 bb        	stz	$bb                     ; 0xbb <__zp_bss_size+0x6d>
    2235: a2 ba        	ldx	#$ba
    2237: 86 12        	stx	$12                     ; 0x12 <__rc2>
    2239: a2 00        	ldx	#$0
    223b: 86 13        	stx	$13                     ; 0x13 <__rc3>
    223d: a2 c7        	ldx	#$c7
    223f: 86 14        	stx	$14                     ; 0x14 <__rc4>
    2241: a2 00        	ldx	#$0
    2243: 86 15        	stx	$15                     ; 0x15 <__rc5>
    2245: 20 77 1c     	jsr	$1c77 <_ZN12_GLOBAL__N_112print_stringEPKcP6Status>
    2248: a0 01        	ldy	#$1
    224a: a2 00        	ldx	#$0
    224c: 86 99        	stx	$99                     ; 0x99 <__zp_bss_size+0x4b>
    224e: a2 00        	ldx	#$0
    2250: 86 9a        	stx	$9a                     ; 0x9a <__zp_bss_size+0x4c>
    2252: 4c f7 28     	jmp	$28f7 <printf+0xb74>
    2255: a6 15        	ldx	$15                     ; 0x15 <__rc5>
    2257: 86 e0        	stx	$e0                     ; 0xe0 <__zp_bss_size+0x92>
    2259: a6 18        	ldx	$18                     ; 0x18 <__rc8>
    225b: 86 e1        	stx	$e1                     ; 0xe1 <__zp_bss_size+0x93>
    225d: a0 0a        	ldy	#$a
    225f: a2 0a        	ldx	#$a
    2261: 86 dc        	stx	$dc                     ; 0xdc <__zp_bss_size+0x8e>
    2263: 84 c7        	sty	$c7                     ; 0xc7 <__zp_bss_size+0x79>
    2265: a9 00        	lda	#$0
    2267: 09 01        	ora	#$1
    2269: a6 98        	ldx	$98                     ; 0x98 <__zp_bss_size+0x4a>
    226b: 86 c8        	stx	$c8                     ; 0xc8 <__zp_bss_size+0x7a>
    226d: 85 a2        	sta	$a2                     ; 0xa2 <__zp_bss_size+0x54>
    226f: 85 c9        	sta	$c9                     ; 0xc9 <__zp_bss_size+0x7b>
    2271: a5 dd        	lda	$dd                     ; 0xdd <__zp_bss_size+0x8f>
    2273: 85 bc        	sta	$bc                     ; 0xbc <__zp_bss_size+0x6e>
    2275: a4 d8        	ldy	$d8                     ; 0xd8 <__zp_bss_size+0x8a>
    2277: a6 d9        	ldx	$d9                     ; 0xd9 <__zp_bss_size+0x8b>
    2279: 86 a0        	stx	$a0                     ; 0xa0 <__zp_bss_size+0x52>
    227b: 84 14        	sty	$14                     ; 0x14 <__rc4>
    227d: 84 97        	sty	$97                     ; 0x97 <__zp_bss_size+0x49>
    227f: 86 15        	stx	$15                     ; 0x15 <__rc5>
    2281: a6 de        	ldx	$de                     ; 0xde <__zp_bss_size+0x90>
    2283: 86 12        	stx	$12                     ; 0x12 <__rc2>
    2285: a6 df        	ldx	$df                     ; 0xdf <__zp_bss_size+0x91>
    2287: 86 13        	stx	$13                     ; 0x13 <__rc3>
    2289: a2 00        	ldx	#$0
    228b: 85 9a        	sta	$9a                     ; 0x9a <__zp_bss_size+0x4c>
    228d: 20 e2 2d     	jsr	$2de2 <memcpy>
    2290: 18           	clc
    2291: a5 97        	lda	$97                     ; 0x97 <__zp_bss_size+0x49>
    2293: 65 99        	adc	$99                     ; 0x99 <__zp_bss_size+0x4b>
    2295: aa           	tax
    2296: a5 a0        	lda	$a0                     ; 0xa0 <__zp_bss_size+0x52>
    2298: 69 00        	adc	#$0
    229a: 86 d8        	stx	$d8                     ; 0xd8 <__zp_bss_size+0x8a>
    229c: 85 d9        	sta	$d9                     ; 0xd9 <__zp_bss_size+0x8b>
    229e: a5 a2        	lda	$a2                     ; 0xa2 <__zp_bss_size+0x54>
    22a0: 29 01        	and	#$1
    22a2: b8           	clv
    22a3: f0 03        	beq	$22a8 <printf+0x525>
    22a5: 4c fc 22     	jmp	$22fc <printf+0x579>
    22a8: a6 9a        	ldx	$9a                     ; 0x9a <__zp_bss_size+0x4c>
    22aa: b5 bc        	lda	$bc,x                   ; 0xbc <__zp_bss_size+0x6e>
    22ac: aa           	tax
    22ad: a0 01        	ldy	#$1
    22af: a5 9f        	lda	$9f                     ; 0x9f <__zp_bss_size+0x51>
    22b1: 85 1a        	sta	$1a                     ; 0x1a <__rc10>
    22b3: a5 e1        	lda	$e1                     ; 0xe1 <__zp_bss_size+0x93>
    22b5: 85 9f        	sta	$9f                     ; 0x9f <__zp_bss_size+0x51>
    22b7: a9 00        	lda	#$0
    22b9: 85 99        	sta	$99                     ; 0x99 <__zp_bss_size+0x4b>
    22bb: a9 00        	lda	#$0
    22bd: 85 9a        	sta	$9a                     ; 0x9a <__zp_bss_size+0x4c>
    22bf: a5 e0        	lda	$e0                     ; 0xe0 <__zp_bss_size+0x92>
    22c1: 85 a0        	sta	$a0                     ; 0xa0 <__zp_bss_size+0x52>
    22c3: 8a           	txa
    22c4: 10 4c        	bpl	$2312 <printf+0x58f>
    22c6: a2 00        	ldx	#$0
    22c8: 64 12        	stz	$12                     ; 0x12 <__rc2>
    22ca: a9 00        	lda	#$0
    22cc: 38           	sec
    22cd: f5 bd        	sbc	$bd,x                   ; 0xbd <__zp_bss_size+0x6f>
    22cf: a0 00        	ldy	#$0
    22d1: b0 02        	bcs	$22d5 <printf+0x552>
    22d3: a0 01        	ldy	#$1
    22d5: 38           	sec
    22d6: e5 12        	sbc	$12                     ; 0x12 <__rc2>
    22d8: 85 13        	sta	$13                     ; 0x13 <__rc3>
    22da: 64 12        	stz	$12                     ; 0x12 <__rc2>
    22dc: b0 04        	bcs	$22e2 <printf+0x55f>
    22de: a9 01        	lda	#$1
    22e0: 85 12        	sta	$12                     ; 0x12 <__rc2>
    22e2: 98           	tya
    22e3: 05 12        	ora	$12                     ; 0x12 <__rc2>
    22e5: 85 12        	sta	$12                     ; 0x12 <__rc2>
    22e7: a5 13        	lda	$13                     ; 0x13 <__rc3>
    22e9: 9d bd 00     	sta	$bd,x                   ; 0xbd <__zp_bss_size+0x6f>
    22ec: e8           	inx
    22ed: 86 13        	stx	$13                     ; 0x13 <__rc3>
    22ef: a4 dd        	ldy	$dd                     ; 0xdd <__zp_bss_size+0x8f>
    22f1: c4 13        	cpy	$13                     ; 0x13 <__rc3>
    22f3: d0 d5        	bne	$22ca <printf+0x547>
    22f5: 2c 60 2e     	bit	$2e60                   ; 0x2e60 <__set_v>
    22f8: a0 01        	ldy	#$1
    22fa: 80 16        	bra	$2312 <printf+0x58f>
    22fc: a0 01        	ldy	#$1
    22fe: a6 9f        	ldx	$9f                     ; 0x9f <__zp_bss_size+0x51>
    2300: 86 1a        	stx	$1a                     ; 0x1a <__rc10>
    2302: a6 e1        	ldx	$e1                     ; 0xe1 <__zp_bss_size+0x93>
    2304: 86 9f        	stx	$9f                     ; 0x9f <__zp_bss_size+0x51>
    2306: a2 00        	ldx	#$0
    2308: 86 99        	stx	$99                     ; 0x99 <__zp_bss_size+0x4b>
    230a: a2 00        	ldx	#$0
    230c: 86 9a        	stx	$9a                     ; 0x9a <__zp_bss_size+0x4c>
    230e: a6 e0        	ldx	$e0                     ; 0xe0 <__zp_bss_size+0x92>
    2310: 86 a0        	stx	$a0                     ; 0xa0 <__zp_bss_size+0x52>
    2312: a2 01        	ldx	#$1
    2314: 70 02        	bvs	$2318 <printf+0x595>
    2316: a2 00        	ldx	#$0
    2318: 86 16        	stx	$16                     ; 0x16 <__rc6>
    231a: a5 dd        	lda	$dd                     ; 0xdd <__zp_bss_size+0x8f>
    231c: 0a           	asl
    231d: 0a           	asl
    231e: 0a           	asl
    231f: 85 12        	sta	$12                     ; 0x12 <__rc2>
    2321: a2 00        	ldx	#$0
    2323: 8a           	txa
    2324: e0 00        	cpx	#$0
    2326: d0 03        	bne	$232b <printf+0x5a8>
    2328: 4c b0 23     	jmp	$23b0 <printf+0x62d>
    232b: 85 17        	sta	$17                     ; 0x17 <__rc7>
    232d: 86 97        	stx	$97                     ; 0x97 <__zp_bss_size+0x49>
    232f: ca           	dex
    2330: 86 15        	stx	$15                     ; 0x15 <__rc5>
    2332: a2 00        	ldx	#$0
    2334: 64 13        	stz	$13                     ; 0x13 <__rc3>
    2336: 80 0d        	bra	$2345 <printf+0x5c2>
    2338: a4 13        	ldy	$13                     ; 0x13 <__rc3>
    233a: 99 a5 00     	sta	$a5,y                   ; 0xa5 <__zp_bss_size+0x57>
    233d: a4 15        	ldy	$15                     ; 0x15 <__rc5>
    233f: c4 13        	cpy	$13                     ; 0x13 <__rc3>
    2341: f0 38        	beq	$237b <printf+0x5f8>
    2343: e6 13        	inc	$13                     ; 0x13 <__rc3>
    2345: a4 13        	ldy	$13                     ; 0x13 <__rc3>
    2347: b9 a5 00     	lda	$a5,y                   ; 0xa5 <__zp_bss_size+0x57>
    234a: 0a           	asl
    234b: e0 00        	cpx	#$0
    234d: f0 02        	beq	$2351 <printf+0x5ce>
    234f: 09 01        	ora	#$1
    2351: a4 dc        	ldy	$dc                     ; 0xdc <__zp_bss_size+0x8e>
    2353: 84 14        	sty	$14                     ; 0x14 <__rc4>
    2355: c5 14        	cmp	$14                     ; 0x14 <__rc4>
    2357: a2 01        	ldx	#$1
    2359: b0 02        	bcs	$235d <printf+0x5da>
    235b: a2 00        	ldx	#$0
    235d: 90 d9        	bcc	$2338 <printf+0x5b5>
    235f: 84 14        	sty	$14                     ; 0x14 <__rc4>
    2361: 38           	sec
    2362: e5 14        	sbc	$14                     ; 0x14 <__rc4>
    2364: a4 13        	ldy	$13                     ; 0x13 <__rc3>
    2366: 99 a5 00     	sta	$a5,y                   ; 0xa5 <__zp_bss_size+0x57>
    2369: a4 15        	ldy	$15                     ; 0x15 <__rc5>
    236b: c4 13        	cpy	$13                     ; 0x13 <__rc3>
    236d: d0 d4        	bne	$2343 <printf+0x5c0>
    236f: a4 97        	ldy	$97                     ; 0x97 <__zp_bss_size+0x49>
    2371: a6 97        	ldx	$97                     ; 0x97 <__zp_bss_size+0x49>
    2373: e8           	inx
    2374: a9 01        	lda	#$1
    2376: 99 a5 00     	sta	$a5,y                   ; 0xa5 <__zp_bss_size+0x57>
    2379: 86 97        	stx	$97                     ; 0x97 <__zp_bss_size+0x49>
    237b: a6 dd        	ldx	$dd                     ; 0xdd <__zp_bss_size+0x8f>
    237d: b5 bc        	lda	$bc,x                   ; 0xbc <__zp_bss_size+0x6e>
    237f: aa           	tax
    2380: a0 01        	ldy	#$1
    2382: 8a           	txa
    2383: 10 47        	bpl	$23cc <printf+0x649>
    2385: a5 97        	lda	$97                     ; 0x97 <__zp_bss_size+0x49>
    2387: f0 34        	beq	$23bd <printf+0x63a>
    2389: a2 00        	ldx	#$0
    238b: a4 dc        	ldy	$dc                     ; 0xdc <__zp_bss_size+0x8e>
    238d: 84 14        	sty	$14                     ; 0x14 <__rc4>
    238f: b5 a5        	lda	$a5,x                   ; 0xa5 <__zp_bss_size+0x57>
    2391: 1a           	inc
    2392: f6 a5        	inc	$a5,x                   ; 0xa5 <__zp_bss_size+0x57>
    2394: c5 14        	cmp	$14                     ; 0x14 <__rc4>
    2396: b0 03        	bcs	$239b <printf+0x618>
    2398: 4c f7 23     	jmp	$23f7 <printf+0x674>
    239b: a4 14        	ldy	$14                     ; 0x14 <__rc4>
    239d: 84 13        	sty	$13                     ; 0x13 <__rc3>
    239f: 38           	sec
    23a0: e5 13        	sbc	$13                     ; 0x13 <__rc3>
    23a2: 9d a5 00     	sta	$a5,x                   ; 0xa5 <__zp_bss_size+0x57>
    23a5: e8           	inx
    23a6: 86 13        	stx	$13                     ; 0x13 <__rc3>
    23a8: a4 97        	ldy	$97                     ; 0x97 <__zp_bss_size+0x49>
    23aa: c4 13        	cpy	$13                     ; 0x13 <__rc3>
    23ac: d0 e1        	bne	$238f <printf+0x60c>
    23ae: 80 0f        	bra	$23bf <printf+0x63c>
    23b0: 85 17        	sta	$17                     ; 0x17 <__rc7>
    23b2: a6 dd        	ldx	$dd                     ; 0xdd <__zp_bss_size+0x8f>
    23b4: b5 bc        	lda	$bc,x                   ; 0xbc <__zp_bss_size+0x6e>
    23b6: aa           	tax
    23b7: 64 97        	stz	$97                     ; 0x97 <__zp_bss_size+0x49>
    23b9: 30 04        	bmi	$23bf <printf+0x63c>
    23bb: 80 0f        	bra	$23cc <printf+0x649>
    23bd: 64 97        	stz	$97                     ; 0x97 <__zp_bss_size+0x49>
    23bf: a4 97        	ldy	$97                     ; 0x97 <__zp_bss_size+0x49>
    23c1: a6 97        	ldx	$97                     ; 0x97 <__zp_bss_size+0x49>
    23c3: e8           	inx
    23c4: a9 01        	lda	#$1
    23c6: 99 a5 00     	sta	$a5,y                   ; 0xa5 <__zp_bss_size+0x57>
    23c9: a8           	tay
    23ca: 86 97        	stx	$97                     ; 0x97 <__zp_bss_size+0x49>
    23cc: a2 01        	ldx	#$1
    23ce: 64 13        	stz	$13                     ; 0x13 <__rc3>
    23d0: a5 dd        	lda	$dd                     ; 0xdd <__zp_bss_size+0x8f>
    23d2: 85 14        	sta	$14                     ; 0x14 <__rc4>
    23d4: b5 bc        	lda	$bc,x                   ; 0xbc <__zp_bss_size+0x6e>
    23d6: 0a           	asl
    23d7: 64 15        	stz	$15                     ; 0x15 <__rc5>
    23d9: 26 15        	rol	$15                     ; 0x15 <__rc5>
    23db: 05 13        	ora	$13                     ; 0x13 <__rc3>
    23dd: 9d bc 00     	sta	$bc,x                   ; 0xbc <__zp_bss_size+0x6e>
    23e0: e8           	inx
    23e1: c6 14        	dec	$14                     ; 0x14 <__rc4>
    23e3: a5 15        	lda	$15                     ; 0x15 <__rc5>
    23e5: 85 13        	sta	$13                     ; 0x13 <__rc3>
    23e7: a5 14        	lda	$14                     ; 0x14 <__rc4>
    23e9: d0 e9        	bne	$23d4 <printf+0x651>
    23eb: a5 17        	lda	$17                     ; 0x17 <__rc7>
    23ed: 1a           	inc
    23ee: c5 12        	cmp	$12                     ; 0x12 <__rc2>
    23f0: a6 97        	ldx	$97                     ; 0x97 <__zp_bss_size+0x49>
    23f2: b0 07        	bcs	$23fb <printf+0x678>
    23f4: 4c 24 23     	jmp	$2324 <printf+0x5a1>
    23f7: a0 01        	ldy	#$1
    23f9: 80 d1        	bra	$23cc <printf+0x649>
    23fb: a5 98        	lda	$98                     ; 0x98 <__zp_bss_size+0x4a>
    23fd: e6 a0        	inc	$a0                     ; 0xa0 <__zp_bss_size+0x52>
    23ff: c6 a0        	dec	$a0                     ; 0xa0 <__zp_bss_size+0x52>
    2401: 10 08        	bpl	$240b <printf+0x688>
    2403: a2 01        	ldx	#$1
    2405: 64 a0        	stz	$a0                     ; 0xa0 <__zp_bss_size+0x52>
    2407: 86 9f        	stx	$9f                     ; 0x9f <__zp_bss_size+0x51>
    2409: a6 97        	ldx	$97                     ; 0x97 <__zp_bss_size+0x49>
    240b: 29 04        	and	#$4
    240d: f0 2b        	beq	$243a <printf+0x6b7>
    240f: a5 dc        	lda	$dc                     ; 0xdc <__zp_bss_size+0x8e>
    2411: c9 10        	cmp	#$10
    2413: f0 14        	beq	$2429 <printf+0x6a6>
    2415: c9 08        	cmp	#$8
    2417: d0 21        	bne	$243a <printf+0x6b7>
    2419: a2 00        	ldx	#$0
    241b: e4 a0        	cpx	$a0                     ; 0xa0 <__zp_bss_size+0x52>
    241d: f0 03        	beq	$2422 <printf+0x69f>
    241f: 4c 1e 29     	jmp	$291e <printf+0xb9b>
    2422: a6 97        	ldx	$97                     ; 0x97 <__zp_bss_size+0x49>
    2424: e4 9f        	cpx	$9f                     ; 0x9f <__zp_bss_size+0x51>
    2426: 4c 20 29     	jmp	$2920 <printf+0xb9d>
    2429: 8a           	txa
    242a: f0 0e        	beq	$243a <printf+0x6b7>
    242c: a5 98        	lda	$98                     ; 0x98 <__zp_bss_size+0x4a>
    242e: 29 80        	and	#$80
    2430: d0 03        	bne	$2435 <printf+0x6b2>
    2432: 4c 39 29     	jmp	$2939 <printf+0xbb6>
    2435: a2 78        	ldx	#$78
    2437: 4c 3b 29     	jmp	$293b <printf+0xbb8>
    243a: a6 98        	ldx	$98                     ; 0x98 <__zp_bss_size+0x4a>
    243c: a9 2d        	lda	#$2d
    243e: 85 e0        	sta	$e0                     ; 0xe0 <__zp_bss_size+0x92>
    2440: a5 16        	lda	$16                     ; 0x16 <__rc6>
    2442: d0 32        	bne	$2476 <printf+0x6f3>
    2444: 86 12        	stx	$12                     ; 0x12 <__rc2>
    2446: 8a           	txa
    2447: 29 02        	and	#$2
    2449: a2 2b        	ldx	#$2b
    244b: 86 e0        	stx	$e0                     ; 0xe0 <__zp_bss_size+0x92>
    244d: aa           	tax
    244e: d0 26        	bne	$2476 <printf+0x6f3>
    2450: a5 12        	lda	$12                     ; 0x12 <__rc2>
    2452: 29 08        	and	#$8
    2454: d0 1c        	bne	$2472 <printf+0x6ef>
    2456: a2 01        	ldx	#$1
    2458: 86 dd        	stx	$dd                     ; 0xdd <__zp_bss_size+0x8f>
    245a: a9 00        	lda	#$0
    245c: aa           	tax
    245d: 86 dc        	stx	$dc                     ; 0xdc <__zp_bss_size+0x8e>
    245f: 80 1c        	bra	$247d <printf+0x6fa>
    2461: 85 12        	sta	$12                     ; 0x12 <__rc2>
    2463: a9 04        	lda	#$4
    2465: 80 04        	bra	$246b <printf+0x6e8>
    2467: 85 12        	sta	$12                     ; 0x12 <__rc2>
    2469: a9 02        	lda	#$2
    246b: 85 dd        	sta	$dd                     ; 0xdd <__zp_bss_size+0x8f>
    246d: a5 12        	lda	$12                     ; 0x12 <__rc2>
    246f: 4c 2e 21     	jmp	$212e <printf+0x3ab>
    2472: a2 20        	ldx	#$20
    2474: 86 e0        	stx	$e0                     ; 0xe0 <__zp_bss_size+0x92>
    2476: a2 00        	ldx	#$0
    2478: 86 dd        	stx	$dd                     ; 0xdd <__zp_bss_size+0x8f>
    247a: 86 dc        	stx	$dc                     ; 0xdc <__zp_bss_size+0x8e>
    247c: 98           	tya
    247d: a6 a0        	ldx	$a0                     ; 0xa0 <__zp_bss_size+0x52>
    247f: d0 35        	bne	$24b6 <printf+0x733>
    2481: a6 9f        	ldx	$9f                     ; 0x9f <__zp_bss_size+0x51>
    2483: a4 97        	ldy	$97                     ; 0x97 <__zp_bss_size+0x49>
    2485: 84 12        	sty	$12                     ; 0x12 <__rc2>
    2487: e4 12        	cpx	$12                     ; 0x12 <__rc2>
    2489: a6 9f        	ldx	$9f                     ; 0x9f <__zp_bss_size+0x51>
    248b: 86 12        	stx	$12                     ; 0x12 <__rc2>
    248d: a6 a0        	ldx	$a0                     ; 0xa0 <__zp_bss_size+0x52>
    248f: 86 13        	stx	$13                     ; 0x13 <__rc3>
    2491: b0 04        	bcs	$2497 <printf+0x714>
    2493: 84 12        	sty	$12                     ; 0x12 <__rc2>
    2495: 64 13        	stz	$13                     ; 0x13 <__rc3>
    2497: 85 18        	sta	$18                     ; 0x18 <__rc8>
    2499: 18           	clc
    249a: 65 12        	adc	$12                     ; 0x12 <__rc2>
    249c: 85 16        	sta	$16                     ; 0x16 <__rc6>
    249e: 85 14        	sta	$14                     ; 0x14 <__rc4>
    24a0: a5 13        	lda	$13                     ; 0x13 <__rc3>
    24a2: 69 00        	adc	#$0
    24a4: 85 15        	sta	$15                     ; 0x15 <__rc5>
    24a6: c5 1a        	cmp	$1a                     ; 0x1a <__rc10>
    24a8: d0 1e        	bne	$24c8 <printf+0x745>
    24aa: a6 1a        	ldx	$1a                     ; 0x1a <__rc10>
    24ac: 86 17        	stx	$17                     ; 0x17 <__rc7>
    24ae: a6 a1        	ldx	$a1                     ; 0xa1 <__zp_bss_size+0x53>
    24b0: a5 16        	lda	$16                     ; 0x16 <__rc6>
    24b2: c5 a1        	cmp	$a1                     ; 0xa1 <__zp_bss_size+0x53>
    24b4: 80 1c        	bra	$24d2 <printf+0x74f>
    24b6: a6 a0        	ldx	$a0                     ; 0xa0 <__zp_bss_size+0x52>
    24b8: e0 00        	cpx	#$0
    24ba: a6 9f        	ldx	$9f                     ; 0x9f <__zp_bss_size+0x51>
    24bc: 86 12        	stx	$12                     ; 0x12 <__rc2>
    24be: a6 a0        	ldx	$a0                     ; 0xa0 <__zp_bss_size+0x52>
    24c0: 86 13        	stx	$13                     ; 0x13 <__rc3>
    24c2: a4 97        	ldy	$97                     ; 0x97 <__zp_bss_size+0x49>
    24c4: 90 cd        	bcc	$2493 <printf+0x710>
    24c6: 80 cf        	bra	$2497 <printf+0x714>
    24c8: a6 a1        	ldx	$a1                     ; 0xa1 <__zp_bss_size+0x53>
    24ca: 5a           	phy
    24cb: a4 1a        	ldy	$1a                     ; 0x1a <__rc10>
    24cd: 84 17        	sty	$17                     ; 0x17 <__rc7>
    24cf: 7a           	ply
    24d0: c5 1a        	cmp	$1a                     ; 0x1a <__rc10>
    24d2: 64 a2        	stz	$a2                     ; 0xa2 <__zp_bss_size+0x54>
    24d4: 64 a1        	stz	$a1                     ; 0xa1 <__zp_bss_size+0x53>
    24d6: 90 03        	bcc	$24db <printf+0x758>
    24d8: 4c 70 25     	jmp	$2570 <printf+0x7ed>
    24db: a5 98        	lda	$98                     ; 0x98 <__zp_bss_size+0x4a>
    24dd: 29 11        	and	#$11
    24df: 86 16        	stx	$16                     ; 0x16 <__rc6>
    24e1: f0 0f        	beq	$24f2 <printf+0x76f>
    24e3: 8a           	txa
    24e4: 38           	sec
    24e5: e5 14        	sbc	$14                     ; 0x14 <__rc4>
    24e7: 85 a2        	sta	$a2                     ; 0xa2 <__zp_bss_size+0x54>
    24e9: a5 1a        	lda	$1a                     ; 0x1a <__rc10>
    24eb: e5 15        	sbc	$15                     ; 0x15 <__rc5>
    24ed: 85 a1        	sta	$a1                     ; 0xa1 <__zp_bss_size+0x53>
    24ef: 4c 70 25     	jmp	$2570 <printf+0x7ed>
    24f2: a6 cc        	ldx	$cc                     ; 0xcc <__zp_bss_size+0x7e>
    24f4: 86 14        	stx	$14                     ; 0x14 <__rc4>
    24f6: 38           	sec
    24f7: a5 18        	lda	$18                     ; 0x18 <__rc8>
    24f9: e5 16        	sbc	$16                     ; 0x16 <__rc6>
    24fb: aa           	tax
    24fc: a9 00        	lda	#$0
    24fe: e5 17        	sbc	$17                     ; 0x17 <__rc7>
    2500: a8           	tay
    2501: 18           	clc
    2502: 8a           	txa
    2503: 65 12        	adc	$12                     ; 0x12 <__rc2>
    2505: 85 98        	sta	$98                     ; 0x98 <__zp_bss_size+0x4a>
    2507: 98           	tya
    2508: 65 13        	adc	$13                     ; 0x13 <__rc3>
    250a: a4 cd        	ldy	$cd                     ; 0xcd <__zp_bss_size+0x7f>
    250c: 80 49        	bra	$2557 <printf+0x7d4>
    250e: c4 cb        	cpy	$cb                     ; 0xcb <__zp_bss_size+0x7d>
    2510: b0 27        	bcs	$2539 <printf+0x7b6>
    2512: a6 d7        	ldx	$d7                     ; 0xd7 <__zp_bss_size+0x89>
    2514: e4 9a        	cpx	$9a                     ; 0x9a <__zp_bss_size+0x4c>
    2516: d0 18        	bne	$2530 <printf+0x7ad>
    2518: a6 d6        	ldx	$d6                     ; 0xd6 <__zp_bss_size+0x88>
    251a: e4 99        	cpx	$99                     ; 0x99 <__zp_bss_size+0x4b>
    251c: d0 12        	bne	$2530 <printf+0x7ad>
    251e: 18           	clc
    251f: a5 14        	lda	$14                     ; 0x14 <__rc4>
    2521: 65 d0        	adc	$d0                     ; 0xd0 <__zp_bss_size+0x82>
    2523: 85 12        	sta	$12                     ; 0x12 <__rc2>
    2525: 98           	tya
    2526: 65 d1        	adc	$d1                     ; 0xd1 <__zp_bss_size+0x83>
    2528: 85 13        	sta	$13                     ; 0x13 <__rc3>
    252a: a9 20        	lda	#$20
    252c: 92 12        	sta	($12)                   ; 0x12 <__rc2>
    252e: 80 07        	bra	$2537 <printf+0x7b4>
    2530: a2 00        	ldx	#$0
    2532: a9 20        	lda	#$20
    2534: 20 56 29     	jsr	$2956 <putchar>
    2537: a5 a1        	lda	$a1                     ; 0xa1 <__zp_bss_size+0x53>
    2539: a6 cc        	ldx	$cc                     ; 0xcc <__zp_bss_size+0x7e>
    253b: a4 cd        	ldy	$cd                     ; 0xcd <__zp_bss_size+0x7f>
    253d: e8           	inx
    253e: d0 01        	bne	$2541 <printf+0x7be>
    2540: c8           	iny
    2541: 86 14        	stx	$14                     ; 0x14 <__rc4>
    2543: 86 cc        	stx	$cc                     ; 0xcc <__zp_bss_size+0x7e>
    2545: 84 cd        	sty	$cd                     ; 0xcd <__zp_bss_size+0x7f>
    2547: a6 98        	ldx	$98                     ; 0x98 <__zp_bss_size+0x4a>
    2549: e8           	inx
    254a: d0 01        	bne	$254d <printf+0x7ca>
    254c: 1a           	inc
    254d: 86 98        	stx	$98                     ; 0x98 <__zp_bss_size+0x4a>
    254f: c9 00        	cmp	#$0
    2551: d0 04        	bne	$2557 <printf+0x7d4>
    2553: e0 00        	cpx	#$0
    2555: f0 13        	beq	$256a <printf+0x7e7>
    2557: 85 a1        	sta	$a1                     ; 0xa1 <__zp_bss_size+0x53>
    2559: c4 cb        	cpy	$cb                     ; 0xcb <__zp_bss_size+0x7d>
    255b: d0 b1        	bne	$250e <printf+0x78b>
    255d: a6 ca        	ldx	$ca                     ; 0xca <__zp_bss_size+0x7c>
    255f: 86 12        	stx	$12                     ; 0x12 <__rc2>
    2561: a6 14        	ldx	$14                     ; 0x14 <__rc4>
    2563: e4 12        	cpx	$12                     ; 0x12 <__rc2>
    2565: b0 d2        	bcs	$2539 <printf+0x7b6>
    2567: 4c 12 25     	jmp	$2512 <printf+0x78f>
    256a: 64 a2        	stz	$a2                     ; 0xa2 <__zp_bss_size+0x54>
    256c: 64 a1        	stz	$a1                     ; 0xa1 <__zp_bss_size+0x53>
    256e: a4 97        	ldy	$97                     ; 0x97 <__zp_bss_size+0x49>
    2570: a6 dd        	ldx	$dd                     ; 0xdd <__zp_bss_size+0x8f>
    2572: d0 4f        	bne	$25c3 <printf+0x840>
    2574: a6 cc        	ldx	$cc                     ; 0xcc <__zp_bss_size+0x7e>
    2576: a5 cd        	lda	$cd                     ; 0xcd <__zp_bss_size+0x7f>
    2578: c5 cb        	cmp	$cb                     ; 0xcb <__zp_bss_size+0x7d>
    257a: d0 10        	bne	$258c <printf+0x809>
    257c: 86 13        	stx	$13                     ; 0x13 <__rc3>
    257e: a6 ca        	ldx	$ca                     ; 0xca <__zp_bss_size+0x7c>
    2580: 86 12        	stx	$12                     ; 0x12 <__rc2>
    2582: a4 97        	ldy	$97                     ; 0x97 <__zp_bss_size+0x49>
    2584: a6 13        	ldx	$13                     ; 0x13 <__rc3>
    2586: e4 12        	cpx	$12                     ; 0x12 <__rc2>
    2588: 90 08        	bcc	$2592 <printf+0x80f>
    258a: 80 31        	bra	$25bd <printf+0x83a>
    258c: 86 13        	stx	$13                     ; 0x13 <__rc3>
    258e: c5 cb        	cmp	$cb                     ; 0xcb <__zp_bss_size+0x7d>
    2590: b0 2b        	bcs	$25bd <printf+0x83a>
    2592: a6 d7        	ldx	$d7                     ; 0xd7 <__zp_bss_size+0x89>
    2594: e4 9a        	cpx	$9a                     ; 0x9a <__zp_bss_size+0x4c>
    2596: d0 1c        	bne	$25b4 <printf+0x831>
    2598: a6 d6        	ldx	$d6                     ; 0xd6 <__zp_bss_size+0x88>
    259a: e4 99        	cpx	$99                     ; 0x99 <__zp_bss_size+0x4b>
    259c: d0 16        	bne	$25b4 <printf+0x831>
    259e: 18           	clc
    259f: 85 12        	sta	$12                     ; 0x12 <__rc2>
    25a1: a5 13        	lda	$13                     ; 0x13 <__rc3>
    25a3: 65 d0        	adc	$d0                     ; 0xd0 <__zp_bss_size+0x82>
    25a5: aa           	tax
    25a6: a5 12        	lda	$12                     ; 0x12 <__rc2>
    25a8: 65 d1        	adc	$d1                     ; 0xd1 <__zp_bss_size+0x83>
    25aa: 86 12        	stx	$12                     ; 0x12 <__rc2>
    25ac: 85 13        	sta	$13                     ; 0x13 <__rc3>
    25ae: a5 e0        	lda	$e0                     ; 0xe0 <__zp_bss_size+0x92>
    25b0: 92 12        	sta	($12)                   ; 0x12 <__rc2>
    25b2: 80 07        	bra	$25bb <printf+0x838>
    25b4: a2 00        	ldx	#$0
    25b6: a5 e0        	lda	$e0                     ; 0xe0 <__zp_bss_size+0x92>
    25b8: 20 56 29     	jsr	$2956 <putchar>
    25bb: a4 97        	ldy	$97                     ; 0x97 <__zp_bss_size+0x49>
    25bd: e6 cc        	inc	$cc                     ; 0xcc <__zp_bss_size+0x7e>
    25bf: d0 02        	bne	$25c3 <printf+0x840>
    25c1: e6 cd        	inc	$cd                     ; 0xcd <__zp_bss_size+0x7f>
    25c3: a6 dc        	ldx	$dc                     ; 0xdc <__zp_bss_size+0x8e>
    25c5: f0 4f        	beq	$2616 <printf+0x893>
    25c7: a6 cc        	ldx	$cc                     ; 0xcc <__zp_bss_size+0x7e>
    25c9: a5 cd        	lda	$cd                     ; 0xcd <__zp_bss_size+0x7f>
    25cb: c5 cb        	cmp	$cb                     ; 0xcb <__zp_bss_size+0x7d>
    25cd: d0 10        	bne	$25df <printf+0x85c>
    25cf: 86 13        	stx	$13                     ; 0x13 <__rc3>
    25d1: a6 ca        	ldx	$ca                     ; 0xca <__zp_bss_size+0x7c>
    25d3: 86 12        	stx	$12                     ; 0x12 <__rc2>
    25d5: a4 97        	ldy	$97                     ; 0x97 <__zp_bss_size+0x49>
    25d7: a6 13        	ldx	$13                     ; 0x13 <__rc3>
    25d9: e4 12        	cpx	$12                     ; 0x12 <__rc2>
    25db: 90 08        	bcc	$25e5 <printf+0x862>
    25dd: 80 31        	bra	$2610 <printf+0x88d>
    25df: 86 13        	stx	$13                     ; 0x13 <__rc3>
    25e1: c5 cb        	cmp	$cb                     ; 0xcb <__zp_bss_size+0x7d>
    25e3: b0 2b        	bcs	$2610 <printf+0x88d>
    25e5: a6 d7        	ldx	$d7                     ; 0xd7 <__zp_bss_size+0x89>
    25e7: e4 9a        	cpx	$9a                     ; 0x9a <__zp_bss_size+0x4c>
    25e9: d0 1c        	bne	$2607 <printf+0x884>
    25eb: a6 d6        	ldx	$d6                     ; 0xd6 <__zp_bss_size+0x88>
    25ed: e4 99        	cpx	$99                     ; 0x99 <__zp_bss_size+0x4b>
    25ef: d0 16        	bne	$2607 <printf+0x884>
    25f1: 18           	clc
    25f2: 85 12        	sta	$12                     ; 0x12 <__rc2>
    25f4: a5 13        	lda	$13                     ; 0x13 <__rc3>
    25f6: 65 d0        	adc	$d0                     ; 0xd0 <__zp_bss_size+0x82>
    25f8: aa           	tax
    25f9: a5 12        	lda	$12                     ; 0x12 <__rc2>
    25fb: 65 d1        	adc	$d1                     ; 0xd1 <__zp_bss_size+0x83>
    25fd: 86 12        	stx	$12                     ; 0x12 <__rc2>
    25ff: 85 13        	sta	$13                     ; 0x13 <__rc3>
    2601: a5 e1        	lda	$e1                     ; 0xe1 <__zp_bss_size+0x93>
    2603: 92 12        	sta	($12)                   ; 0x12 <__rc2>
    2605: 80 07        	bra	$260e <printf+0x88b>
    2607: a2 00        	ldx	#$0
    2609: a5 e1        	lda	$e1                     ; 0xe1 <__zp_bss_size+0x93>
    260b: 20 56 29     	jsr	$2956 <putchar>
    260e: a4 97        	ldy	$97                     ; 0x97 <__zp_bss_size+0x49>
    2610: e6 cc        	inc	$cc                     ; 0xcc <__zp_bss_size+0x7e>
    2612: d0 02        	bne	$2616 <printf+0x893>
    2614: e6 cd        	inc	$cd                     ; 0xcd <__zp_bss_size+0x7f>
    2616: a9 10        	lda	#$10
    2618: 25 c8        	and	$c8                     ; 0xc8 <__zp_bss_size+0x7a>
    261a: d0 03        	bne	$261f <printf+0x89c>
    261c: 4c a8 26     	jmp	$26a8 <printf+0x925>
    261f: a5 c8        	lda	$c8                     ; 0xc8 <__zp_bss_size+0x7a>
    2621: 29 01        	and	#$1
    2623: f0 03        	beq	$2628 <printf+0x8a5>
    2625: 4c a8 26     	jmp	$26a8 <printf+0x925>
    2628: a6 a2        	ldx	$a2                     ; 0xa2 <__zp_bss_size+0x54>
    262a: a5 a1        	lda	$a1                     ; 0xa1 <__zp_bss_size+0x53>
    262c: d0 06        	bne	$2634 <printf+0x8b1>
    262e: 8a           	txa
    262f: d0 03        	bne	$2634 <printf+0x8b1>
    2631: 4c 4e 29     	jmp	$294e <printf+0xbcb>
    2634: a6 cc        	ldx	$cc                     ; 0xcc <__zp_bss_size+0x7e>
    2636: 86 13        	stx	$13                     ; 0x13 <__rc3>
    2638: a5 cd        	lda	$cd                     ; 0xcd <__zp_bss_size+0x7f>
    263a: 4c 8e 26     	jmp	$268e <printf+0x90b>
    263d: c5 cb        	cmp	$cb                     ; 0xcb <__zp_bss_size+0x7d>
    263f: b0 26        	bcs	$2667 <printf+0x8e4>
    2641: a6 d7        	ldx	$d7                     ; 0xd7 <__zp_bss_size+0x89>
    2643: e4 9a        	cpx	$9a                     ; 0x9a <__zp_bss_size+0x4c>
    2645: d0 19        	bne	$2660 <printf+0x8dd>
    2647: a6 d6        	ldx	$d6                     ; 0xd6 <__zp_bss_size+0x88>
    2649: e4 99        	cpx	$99                     ; 0x99 <__zp_bss_size+0x4b>
    264b: d0 13        	bne	$2660 <printf+0x8dd>
    264d: 18           	clc
    264e: aa           	tax
    264f: a5 13        	lda	$13                     ; 0x13 <__rc3>
    2651: 65 d0        	adc	$d0                     ; 0xd0 <__zp_bss_size+0x82>
    2653: 85 12        	sta	$12                     ; 0x12 <__rc2>
    2655: 8a           	txa
    2656: 65 d1        	adc	$d1                     ; 0xd1 <__zp_bss_size+0x83>
    2658: 85 13        	sta	$13                     ; 0x13 <__rc3>
    265a: a9 30        	lda	#$30
    265c: 92 12        	sta	($12)                   ; 0x12 <__rc2>
    265e: 80 07        	bra	$2667 <printf+0x8e4>
    2660: a2 00        	ldx	#$0
    2662: a9 30        	lda	#$30
    2664: 20 56 29     	jsr	$2956 <putchar>
    2667: a6 cc        	ldx	$cc                     ; 0xcc <__zp_bss_size+0x7e>
    2669: a5 cd        	lda	$cd                     ; 0xcd <__zp_bss_size+0x7f>
    266b: e8           	inx
    266c: d0 01        	bne	$266f <printf+0x8ec>
    266e: 1a           	inc
    266f: 86 13        	stx	$13                     ; 0x13 <__rc3>
    2671: 86 cc        	stx	$cc                     ; 0xcc <__zp_bss_size+0x7e>
    2673: 85 cd        	sta	$cd                     ; 0xcd <__zp_bss_size+0x7f>
    2675: a4 a2        	ldy	$a2                     ; 0xa2 <__zp_bss_size+0x54>
    2677: a6 a1        	ldx	$a1                     ; 0xa1 <__zp_bss_size+0x53>
    2679: 86 12        	stx	$12                     ; 0x12 <__rc2>
    267b: 88           	dey
    267c: c0 ff        	cpy	#$ff
    267e: d0 02        	bne	$2682 <printf+0x8ff>
    2680: c6 12        	dec	$12                     ; 0x12 <__rc2>
    2682: 84 a2        	sty	$a2                     ; 0xa2 <__zp_bss_size+0x54>
    2684: a6 12        	ldx	$12                     ; 0x12 <__rc2>
    2686: 86 a1        	stx	$a1                     ; 0xa1 <__zp_bss_size+0x53>
    2688: d0 04        	bne	$268e <printf+0x90b>
    268a: c0 00        	cpy	#$0
    268c: f0 14        	beq	$26a2 <printf+0x91f>
    268e: c5 cb        	cmp	$cb                     ; 0xcb <__zp_bss_size+0x7d>
    2690: f0 03        	beq	$2695 <printf+0x912>
    2692: 4c 3d 26     	jmp	$263d <printf+0x8ba>
    2695: a6 ca        	ldx	$ca                     ; 0xca <__zp_bss_size+0x7c>
    2697: 86 12        	stx	$12                     ; 0x12 <__rc2>
    2699: a6 13        	ldx	$13                     ; 0x13 <__rc3>
    269b: e4 12        	cpx	$12                     ; 0x12 <__rc2>
    269d: b0 c8        	bcs	$2667 <printf+0x8e4>
    269f: 4c 41 26     	jmp	$2641 <printf+0x8be>
    26a2: 64 a2        	stz	$a2                     ; 0xa2 <__zp_bss_size+0x54>
    26a4: 64 a1        	stz	$a1                     ; 0xa1 <__zp_bss_size+0x53>
    26a6: a4 97        	ldy	$97                     ; 0x97 <__zp_bss_size+0x49>
    26a8: a2 00        	ldx	#$0
    26aa: e4 a0        	cpx	$a0                     ; 0xa0 <__zp_bss_size+0x52>
    26ac: d0 07        	bne	$26b5 <printf+0x932>
    26ae: c4 9f        	cpy	$9f                     ; 0x9f <__zp_bss_size+0x51>
    26b0: 90 0a        	bcc	$26bc <printf+0x939>
    26b2: 4c 2c 27     	jmp	$272c <printf+0x9a9>
    26b5: e4 a0        	cpx	$a0                     ; 0xa0 <__zp_bss_size+0x52>
    26b7: 90 03        	bcc	$26bc <printf+0x939>
    26b9: 4c 2c 27     	jmp	$272c <printf+0x9a9>
    26bc: a6 cc        	ldx	$cc                     ; 0xcc <__zp_bss_size+0x7e>
    26be: 86 13        	stx	$13                     ; 0x13 <__rc3>
    26c0: a5 cd        	lda	$cd                     ; 0xcd <__zp_bss_size+0x7f>
    26c2: a2 ff        	ldx	#$ff
    26c4: c6 9f        	dec	$9f                     ; 0x9f <__zp_bss_size+0x51>
    26c6: e4 9f        	cpx	$9f                     ; 0x9f <__zp_bss_size+0x51>
    26c8: d0 02        	bne	$26cc <printf+0x949>
    26ca: c6 a0        	dec	$a0                     ; 0xa0 <__zp_bss_size+0x52>
    26cc: c5 cb        	cmp	$cb                     ; 0xcb <__zp_bss_size+0x7d>
    26ce: d0 0c        	bne	$26dc <printf+0x959>
    26d0: a6 ca        	ldx	$ca                     ; 0xca <__zp_bss_size+0x7c>
    26d2: 86 12        	stx	$12                     ; 0x12 <__rc2>
    26d4: a6 13        	ldx	$13                     ; 0x13 <__rc3>
    26d6: e4 12        	cpx	$12                     ; 0x12 <__rc2>
    26d8: 90 06        	bcc	$26e0 <printf+0x95d>
    26da: 80 2a        	bra	$2706 <printf+0x983>
    26dc: c5 cb        	cmp	$cb                     ; 0xcb <__zp_bss_size+0x7d>
    26de: b0 26        	bcs	$2706 <printf+0x983>
    26e0: a6 d7        	ldx	$d7                     ; 0xd7 <__zp_bss_size+0x89>
    26e2: e4 9a        	cpx	$9a                     ; 0x9a <__zp_bss_size+0x4c>
    26e4: d0 19        	bne	$26ff <printf+0x97c>
    26e6: a6 d6        	ldx	$d6                     ; 0xd6 <__zp_bss_size+0x88>
    26e8: e4 99        	cpx	$99                     ; 0x99 <__zp_bss_size+0x4b>
    26ea: d0 13        	bne	$26ff <printf+0x97c>
    26ec: 18           	clc
    26ed: aa           	tax
    26ee: a5 13        	lda	$13                     ; 0x13 <__rc3>
    26f0: 65 d0        	adc	$d0                     ; 0xd0 <__zp_bss_size+0x82>
    26f2: 85 12        	sta	$12                     ; 0x12 <__rc2>
    26f4: 8a           	txa
    26f5: 65 d1        	adc	$d1                     ; 0xd1 <__zp_bss_size+0x83>
    26f7: 85 13        	sta	$13                     ; 0x13 <__rc3>
    26f9: a9 30        	lda	#$30
    26fb: 92 12        	sta	($12)                   ; 0x12 <__rc2>
    26fd: 80 07        	bra	$2706 <printf+0x983>
    26ff: a2 00        	ldx	#$0
    2701: a9 30        	lda	#$30
    2703: 20 56 29     	jsr	$2956 <putchar>
    2706: a6 cc        	ldx	$cc                     ; 0xcc <__zp_bss_size+0x7e>
    2708: a5 cd        	lda	$cd                     ; 0xcd <__zp_bss_size+0x7f>
    270a: e8           	inx
    270b: d0 01        	bne	$270e <printf+0x98b>
    270d: 1a           	inc
    270e: 86 13        	stx	$13                     ; 0x13 <__rc3>
    2710: 86 cc        	stx	$cc                     ; 0xcc <__zp_bss_size+0x7e>
    2712: 85 cd        	sta	$cd                     ; 0xcd <__zp_bss_size+0x7f>
    2714: a2 00        	ldx	#$0
    2716: e4 a0        	cpx	$a0                     ; 0xa0 <__zp_bss_size+0x52>
    2718: d0 09        	bne	$2723 <printf+0x9a0>
    271a: a4 97        	ldy	$97                     ; 0x97 <__zp_bss_size+0x49>
    271c: c4 9f        	cpy	$9f                     ; 0x9f <__zp_bss_size+0x51>
    271e: b0 0c        	bcs	$272c <printf+0x9a9>
    2720: 4c c2 26     	jmp	$26c2 <printf+0x93f>
    2723: e4 a0        	cpx	$a0                     ; 0xa0 <__zp_bss_size+0x52>
    2725: a4 97        	ldy	$97                     ; 0x97 <__zp_bss_size+0x49>
    2727: b0 03        	bcs	$272c <printf+0x9a9>
    2729: 4c c2 26     	jmp	$26c2 <printf+0x93f>
    272c: 98           	tya
    272d: d0 03        	bne	$2732 <printf+0x9af>
    272f: 4c 25 28     	jmp	$2825 <printf+0xaa2>
    2732: 88           	dey
    2733: d0 03        	bne	$2738 <printf+0x9b5>
    2735: 4c c2 27     	jmp	$27c2 <printf+0xa3f>
    2738: 84 9f        	sty	$9f                     ; 0x9f <__zp_bss_size+0x51>
    273a: a6 e2        	ldx	$e2                     ; 0xe2 <__zp_bss_size+0x94>
    273c: 8a           	txa
    273d: 18           	clc
    273e: 65 9f        	adc	$9f                     ; 0x9f <__zp_bss_size+0x51>
    2740: 85 97        	sta	$97                     ; 0x97 <__zp_bss_size+0x49>
    2742: a5 e3        	lda	$e3                     ; 0xe3 <__zp_bss_size+0x95>
    2744: 69 00        	adc	#$0
    2746: 85 98        	sta	$98                     ; 0x98 <__zp_bss_size+0x4a>
    2748: 4c b4 27     	jmp	$27b4 <printf+0xa31>
    274b: a8           	tay
    274c: a9 80        	lda	#$80
    274e: 25 c8        	and	$c8                     ; 0xc8 <__zp_bss_size+0x7a>
    2750: f0 04        	beq	$2756 <printf+0x9d3>
    2752: a2 61        	ldx	#$61
    2754: 80 02        	bra	$2758 <printf+0x9d5>
    2756: a2 41        	ldx	#$41
    2758: 86 12        	stx	$12                     ; 0x12 <__rc2>
    275a: 18           	clc
    275b: 98           	tya
    275c: 65 12        	adc	$12                     ; 0x12 <__rc2>
    275e: 18           	clc
    275f: 69 f6        	adc	#$f6
    2761: a4 cc        	ldy	$cc                     ; 0xcc <__zp_bss_size+0x7e>
    2763: a6 cd        	ldx	$cd                     ; 0xcd <__zp_bss_size+0x7f>
    2765: e4 cb        	cpx	$cb                     ; 0xcb <__zp_bss_size+0x7d>
    2767: d0 0c        	bne	$2775 <printf+0x9f2>
    2769: 86 14        	stx	$14                     ; 0x14 <__rc4>
    276b: a6 ca        	ldx	$ca                     ; 0xca <__zp_bss_size+0x7c>
    276d: 86 12        	stx	$12                     ; 0x12 <__rc2>
    276f: c4 12        	cpy	$12                     ; 0x12 <__rc2>
    2771: 90 08        	bcc	$277b <printf+0x9f8>
    2773: 80 29        	bra	$279e <printf+0xa1b>
    2775: 86 14        	stx	$14                     ; 0x14 <__rc4>
    2777: e4 cb        	cpx	$cb                     ; 0xcb <__zp_bss_size+0x7d>
    2779: b0 23        	bcs	$279e <printf+0xa1b>
    277b: a6 d7        	ldx	$d7                     ; 0xd7 <__zp_bss_size+0x89>
    277d: e4 9a        	cpx	$9a                     ; 0x9a <__zp_bss_size+0x4c>
    277f: d0 18        	bne	$2799 <printf+0xa16>
    2781: a6 d6        	ldx	$d6                     ; 0xd6 <__zp_bss_size+0x88>
    2783: e4 99        	cpx	$99                     ; 0x99 <__zp_bss_size+0x4b>
    2785: d0 12        	bne	$2799 <printf+0xa16>
    2787: 18           	clc
    2788: aa           	tax
    2789: 98           	tya
    278a: 65 d0        	adc	$d0                     ; 0xd0 <__zp_bss_size+0x82>
    278c: 85 12        	sta	$12                     ; 0x12 <__rc2>
    278e: a5 14        	lda	$14                     ; 0x14 <__rc4>
    2790: 65 d1        	adc	$d1                     ; 0xd1 <__zp_bss_size+0x83>
    2792: 85 13        	sta	$13                     ; 0x13 <__rc3>
    2794: 8a           	txa
    2795: 92 12        	sta	($12)                   ; 0x12 <__rc2>
    2797: 80 05        	bra	$279e <printf+0xa1b>
    2799: a2 00        	ldx	#$0
    279b: 20 56 29     	jsr	$2956 <putchar>
    279e: e6 cc        	inc	$cc                     ; 0xcc <__zp_bss_size+0x7e>
    27a0: d0 02        	bne	$27a4 <printf+0xa21>
    27a2: e6 cd        	inc	$cd                     ; 0xcd <__zp_bss_size+0x7f>
    27a4: c6 9f        	dec	$9f                     ; 0x9f <__zp_bss_size+0x51>
    27a6: a2 ff        	ldx	#$ff
    27a8: c6 97        	dec	$97                     ; 0x97 <__zp_bss_size+0x49>
    27aa: e4 97        	cpx	$97                     ; 0x97 <__zp_bss_size+0x49>
    27ac: d0 02        	bne	$27b0 <printf+0xa2d>
    27ae: c6 98        	dec	$98                     ; 0x98 <__zp_bss_size+0x4a>
    27b0: a5 9f        	lda	$9f                     ; 0x9f <__zp_bss_size+0x51>
    27b2: f0 0e        	beq	$27c2 <printf+0xa3f>
    27b4: b2 97        	lda	($97)                   ; 0x97 <__zp_bss_size+0x49>
    27b6: c9 0a        	cmp	#$a
    27b8: 90 03        	bcc	$27bd <printf+0xa3a>
    27ba: 4c 4b 27     	jmp	$274b <printf+0x9c8>
    27bd: 09 30        	ora	#$30
    27bf: 4c 61 27     	jmp	$2761 <printf+0x9de>
    27c2: a5 a5        	lda	$a5                     ; 0xa5 <__zp_bss_size+0x57>
    27c4: c9 0a        	cmp	#$a
    27c6: b0 04        	bcs	$27cc <printf+0xa49>
    27c8: 09 30        	ora	#$30
    27ca: 80 16        	bra	$27e2 <printf+0xa5f>
    27cc: a8           	tay
    27cd: a9 80        	lda	#$80
    27cf: 25 c8        	and	$c8                     ; 0xc8 <__zp_bss_size+0x7a>
    27d1: f0 04        	beq	$27d7 <printf+0xa54>
    27d3: a2 61        	ldx	#$61
    27d5: 80 02        	bra	$27d9 <printf+0xa56>
    27d7: a2 41        	ldx	#$41
    27d9: 86 12        	stx	$12                     ; 0x12 <__rc2>
    27db: 18           	clc
    27dc: 98           	tya
    27dd: 65 12        	adc	$12                     ; 0x12 <__rc2>
    27df: 18           	clc
    27e0: 69 f6        	adc	#$f6
    27e2: a4 cc        	ldy	$cc                     ; 0xcc <__zp_bss_size+0x7e>
    27e4: a6 cd        	ldx	$cd                     ; 0xcd <__zp_bss_size+0x7f>
    27e6: e4 cb        	cpx	$cb                     ; 0xcb <__zp_bss_size+0x7d>
    27e8: d0 0c        	bne	$27f6 <printf+0xa73>
    27ea: 86 14        	stx	$14                     ; 0x14 <__rc4>
    27ec: a6 ca        	ldx	$ca                     ; 0xca <__zp_bss_size+0x7c>
    27ee: 86 12        	stx	$12                     ; 0x12 <__rc2>
    27f0: c4 12        	cpy	$12                     ; 0x12 <__rc2>
    27f2: 90 08        	bcc	$27fc <printf+0xa79>
    27f4: 80 29        	bra	$281f <printf+0xa9c>
    27f6: 86 14        	stx	$14                     ; 0x14 <__rc4>
    27f8: e4 cb        	cpx	$cb                     ; 0xcb <__zp_bss_size+0x7d>
    27fa: b0 23        	bcs	$281f <printf+0xa9c>
    27fc: a6 d7        	ldx	$d7                     ; 0xd7 <__zp_bss_size+0x89>
    27fe: e4 9a        	cpx	$9a                     ; 0x9a <__zp_bss_size+0x4c>
    2800: d0 18        	bne	$281a <printf+0xa97>
    2802: a6 d6        	ldx	$d6                     ; 0xd6 <__zp_bss_size+0x88>
    2804: e4 99        	cpx	$99                     ; 0x99 <__zp_bss_size+0x4b>
    2806: d0 12        	bne	$281a <printf+0xa97>
    2808: 18           	clc
    2809: aa           	tax
    280a: 98           	tya
    280b: 65 d0        	adc	$d0                     ; 0xd0 <__zp_bss_size+0x82>
    280d: 85 12        	sta	$12                     ; 0x12 <__rc2>
    280f: a5 14        	lda	$14                     ; 0x14 <__rc4>
    2811: 65 d1        	adc	$d1                     ; 0xd1 <__zp_bss_size+0x83>
    2813: 85 13        	sta	$13                     ; 0x13 <__rc3>
    2815: 8a           	txa
    2816: 92 12        	sta	($12)                   ; 0x12 <__rc2>
    2818: 80 05        	bra	$281f <printf+0xa9c>
    281a: a2 00        	ldx	#$0
    281c: 20 56 29     	jsr	$2956 <putchar>
    281f: e6 cc        	inc	$cc                     ; 0xcc <__zp_bss_size+0x7e>
    2821: d0 02        	bne	$2825 <printf+0xaa2>
    2823: e6 cd        	inc	$cd                     ; 0xcd <__zp_bss_size+0x7f>
    2825: a5 c8        	lda	$c8                     ; 0xc8 <__zp_bss_size+0x7a>
    2827: 29 01        	and	#$1
    2829: d0 1e        	bne	$2849 <printf+0xac6>
    282b: a6 cc        	ldx	$cc                     ; 0xcc <__zp_bss_size+0x7e>
    282d: 86 14        	stx	$14                     ; 0x14 <__rc4>
    282f: a5 cd        	lda	$cd                     ; 0xcd <__zp_bss_size+0x7f>
    2831: a4 ca        	ldy	$ca                     ; 0xca <__zp_bss_size+0x7c>
    2833: a6 cb        	ldx	$cb                     ; 0xcb <__zp_bss_size+0x7d>
    2835: 86 12        	stx	$12                     ; 0x12 <__rc2>
    2837: 86 13        	stx	$13                     ; 0x13 <__rc3>
    2839: c5 12        	cmp	$12                     ; 0x12 <__rc2>
    283b: f0 03        	beq	$2840 <printf+0xabd>
    283d: 4c ce 28     	jmp	$28ce <printf+0xb4b>
    2840: 84 12        	sty	$12                     ; 0x12 <__rc2>
    2842: a6 14        	ldx	$14                     ; 0x14 <__rc4>
    2844: e4 12        	cpx	$12                     ; 0x12 <__rc2>
    2846: 4c d2 28     	jmp	$28d2 <printf+0xb4f>
    2849: a6 cc        	ldx	$cc                     ; 0xcc <__zp_bss_size+0x7e>
    284b: 86 14        	stx	$14                     ; 0x14 <__rc4>
    284d: a5 cd        	lda	$cd                     ; 0xcd <__zp_bss_size+0x7f>
    284f: a6 a2        	ldx	$a2                     ; 0xa2 <__zp_bss_size+0x54>
    2851: a4 a1        	ldy	$a1                     ; 0xa1 <__zp_bss_size+0x53>
    2853: f0 03        	beq	$2858 <printf+0xad5>
    2855: 4c ba 28     	jmp	$28ba <printf+0xb37>
    2858: e0 00        	cpx	#$0
    285a: f0 d5        	beq	$2831 <printf+0xaae>
    285c: 4c ba 28     	jmp	$28ba <printf+0xb37>
    285f: c5 cb        	cmp	$cb                     ; 0xcb <__zp_bss_size+0x7d>
    2861: b0 26        	bcs	$2889 <printf+0xb06>
    2863: a6 d7        	ldx	$d7                     ; 0xd7 <__zp_bss_size+0x89>
    2865: e4 9a        	cpx	$9a                     ; 0x9a <__zp_bss_size+0x4c>
    2867: d0 19        	bne	$2882 <printf+0xaff>
    2869: a6 d6        	ldx	$d6                     ; 0xd6 <__zp_bss_size+0x88>
    286b: e4 99        	cpx	$99                     ; 0x99 <__zp_bss_size+0x4b>
    286d: d0 13        	bne	$2882 <printf+0xaff>
    286f: 18           	clc
    2870: aa           	tax
    2871: a5 14        	lda	$14                     ; 0x14 <__rc4>
    2873: 65 d0        	adc	$d0                     ; 0xd0 <__zp_bss_size+0x82>
    2875: 85 12        	sta	$12                     ; 0x12 <__rc2>
    2877: 8a           	txa
    2878: 65 d1        	adc	$d1                     ; 0xd1 <__zp_bss_size+0x83>
    287a: 85 13        	sta	$13                     ; 0x13 <__rc3>
    287c: a9 20        	lda	#$20
    287e: 92 12        	sta	($12)                   ; 0x12 <__rc2>
    2880: 80 07        	bra	$2889 <printf+0xb06>
    2882: a2 00        	ldx	#$0
    2884: a9 20        	lda	#$20
    2886: 20 56 29     	jsr	$2956 <putchar>
    2889: a6 cc        	ldx	$cc                     ; 0xcc <__zp_bss_size+0x7e>
    288b: a5 cd        	lda	$cd                     ; 0xcd <__zp_bss_size+0x7f>
    288d: e8           	inx
    288e: d0 01        	bne	$2891 <printf+0xb0e>
    2890: 1a           	inc
    2891: 86 14        	stx	$14                     ; 0x14 <__rc4>
    2893: 86 cc        	stx	$cc                     ; 0xcc <__zp_bss_size+0x7e>
    2895: 85 cd        	sta	$cd                     ; 0xcd <__zp_bss_size+0x7f>
    2897: a6 a2        	ldx	$a2                     ; 0xa2 <__zp_bss_size+0x54>
    2899: 86 12        	stx	$12                     ; 0x12 <__rc2>
    289b: a6 a1        	ldx	$a1                     ; 0xa1 <__zp_bss_size+0x53>
    289d: 86 13        	stx	$13                     ; 0x13 <__rc3>
    289f: a2 ff        	ldx	#$ff
    28a1: c6 12        	dec	$12                     ; 0x12 <__rc2>
    28a3: e4 12        	cpx	$12                     ; 0x12 <__rc2>
    28a5: d0 02        	bne	$28a9 <printf+0xb26>
    28a7: c6 13        	dec	$13                     ; 0x13 <__rc3>
    28a9: a6 12        	ldx	$12                     ; 0x12 <__rc2>
    28ab: 86 a2        	stx	$a2                     ; 0xa2 <__zp_bss_size+0x54>
    28ad: a6 13        	ldx	$13                     ; 0x13 <__rc3>
    28af: 86 a1        	stx	$a1                     ; 0xa1 <__zp_bss_size+0x53>
    28b1: d0 07        	bne	$28ba <printf+0xb37>
    28b3: a6 12        	ldx	$12                     ; 0x12 <__rc2>
    28b5: d0 03        	bne	$28ba <printf+0xb37>
    28b7: 4c 31 28     	jmp	$2831 <printf+0xaae>
    28ba: c5 cb        	cmp	$cb                     ; 0xcb <__zp_bss_size+0x7d>
    28bc: f0 03        	beq	$28c1 <printf+0xb3e>
    28be: 4c 5f 28     	jmp	$285f <printf+0xadc>
    28c1: a6 ca        	ldx	$ca                     ; 0xca <__zp_bss_size+0x7c>
    28c3: 86 12        	stx	$12                     ; 0x12 <__rc2>
    28c5: a6 14        	ldx	$14                     ; 0x14 <__rc4>
    28c7: e4 12        	cpx	$12                     ; 0x12 <__rc2>
    28c9: b0 be        	bcs	$2889 <printf+0xb06>
    28cb: 4c 63 28     	jmp	$2863 <printf+0xae0>
    28ce: 86 12        	stx	$12                     ; 0x12 <__rc2>
    28d0: c5 12        	cmp	$12                     ; 0x12 <__rc2>
    28d2: 98           	tya
    28d3: a0 01        	ldy	#$1
    28d5: 90 20        	bcc	$28f7 <printf+0xb74>
    28d7: a6 13        	ldx	$13                     ; 0x13 <__rc3>
    28d9: d0 03        	bne	$28de <printf+0xb5b>
    28db: aa           	tax
    28dc: f0 19        	beq	$28f7 <printf+0xb74>
    28de: 18           	clc
    28df: 65 d0        	adc	$d0                     ; 0xd0 <__zp_bss_size+0x82>
    28e1: 85 12        	sta	$12                     ; 0x12 <__rc2>
    28e3: a5 13        	lda	$13                     ; 0x13 <__rc3>
    28e5: 65 d1        	adc	$d1                     ; 0xd1 <__zp_bss_size+0x83>
    28e7: 85 13        	sta	$13                     ; 0x13 <__rc3>
    28e9: a2 ff        	ldx	#$ff
    28eb: c6 12        	dec	$12                     ; 0x12 <__rc2>
    28ed: e4 12        	cpx	$12                     ; 0x12 <__rc2>
    28ef: d0 02        	bne	$28f3 <printf+0xb70>
    28f1: c6 13        	dec	$13                     ; 0x13 <__rc3>
    28f3: a9 00        	lda	#$0
    28f5: 92 12        	sta	($12)                   ; 0x12 <__rc2>
    28f7: e6 9d        	inc	$9d                     ; 0x9d <__zp_bss_size+0x4f>
    28f9: d0 02        	bne	$28fd <printf+0xb7a>
    28fb: e6 9e        	inc	$9e                     ; 0x9e <__zp_bss_size+0x50>
    28fd: a6 9e        	ldx	$9e                     ; 0x9e <__zp_bss_size+0x50>
    28ff: e4 9c        	cpx	$9c                     ; 0x9c <__zp_bss_size+0x4e>
    2901: f0 03        	beq	$2906 <printf+0xb83>
    2903: 4c e8 1d     	jmp	$1de8 <printf+0x65>
    2906: a6 9d        	ldx	$9d                     ; 0x9d <__zp_bss_size+0x4f>
    2908: e4 9b        	cpx	$9b                     ; 0x9b <__zp_bss_size+0x4d>
    290a: f0 03        	beq	$290f <printf+0xb8c>
    290c: 4c e8 1d     	jmp	$1de8 <printf+0x65>
    290f: b2 9b        	lda	($9b)                   ; 0x9b <__zp_bss_size+0x4d>
    2911: a2 00        	ldx	#$0
    2913: a0 00        	ldy	#$0
    2915: 84 99        	sty	$99                     ; 0x99 <__zp_bss_size+0x4b>
    2917: a0 00        	ldy	#$0
    2919: 84 9a        	sty	$9a                     ; 0x9a <__zp_bss_size+0x4c>
    291b: 4c fe 1d     	jmp	$1dfe <printf+0x7b>
    291e: e4 a0        	cpx	$a0                     ; 0xa0 <__zp_bss_size+0x52>
    2920: a6 98        	ldx	$98                     ; 0x98 <__zp_bss_size+0x4a>
    2922: b0 03        	bcs	$2927 <printf+0xba4>
    2924: 4c 3c 24     	jmp	$243c <printf+0x6b9>
    2927: a5 97        	lda	$97                     ; 0x97 <__zp_bss_size+0x49>
    2929: 85 9f        	sta	$9f                     ; 0x9f <__zp_bss_size+0x51>
    292b: 64 a0        	stz	$a0                     ; 0xa0 <__zp_bss_size+0x52>
    292d: e6 9f        	inc	$9f                     ; 0x9f <__zp_bss_size+0x51>
    292f: f0 03        	beq	$2934 <printf+0xbb1>
    2931: 4c 3c 24     	jmp	$243c <printf+0x6b9>
    2934: e6 a0        	inc	$a0                     ; 0xa0 <__zp_bss_size+0x52>
    2936: 4c 3c 24     	jmp	$243c <printf+0x6b9>
    2939: a2 58        	ldx	#$58
    293b: 86 e1        	stx	$e1                     ; 0xe1 <__zp_bss_size+0x93>
    293d: a2 01        	ldx	#$1
    293f: 86 dc        	stx	$dc                     ; 0xdc <__zp_bss_size+0x8e>
    2941: a2 30        	ldx	#$30
    2943: 86 e0        	stx	$e0                     ; 0xe0 <__zp_bss_size+0x92>
    2945: a9 02        	lda	#$2
    2947: a2 00        	ldx	#$0
    2949: 86 dd        	stx	$dd                     ; 0xdd <__zp_bss_size+0x8f>
    294b: 4c 7d 24     	jmp	$247d <printf+0x6fa>
    294e: 64 a2        	stz	$a2                     ; 0xa2 <__zp_bss_size+0x54>
    2950: 64 a1        	stz	$a1                     ; 0xa1 <__zp_bss_size+0x53>
    2952: 4c a8 26     	jmp	$26a8 <printf+0x925>
    2955: 60           	rts

00002956 <putchar>:
    2956: 86 12        	stx	$12                     ; 0x12 <__rc2>
    2958: 85 ee        	sta	$ee                     ; 0xee <__zp_bss_size+0xa0>
    295a: 85 79        	sta	$79                     ; 0x79 <__putchar.s>
    295c: a6 01        	ldx	$1                      ; 0x1 <__data_size+0x1>
    295e: 86 ef        	stx	$ef                     ; 0xef <__zp_bss_size+0xa1>
    2960: a6 38        	ldx	$38                     ; 0x38 <_row>
    2962: a0 50        	ldy	#$50
    2964: 8c 00 de     	sty	$de00                   ; 0xde00 <end_block9+0x88b6>
    2967: 9c 01 de     	stz	$de01                   ; 0xde01 <end_block9+0x88b7>
    296a: 8e 02 de     	stx	$de02                   ; 0xde02 <end_block9+0x88b8>
    296d: 9c 03 de     	stz	$de03                   ; 0xde03 <end_block9+0x88b9>
    2970: ae 10 de     	ldx	$de10                   ; 0xde10 <end_block9+0x88c6>
    2973: ad 11 de     	lda	$de11                   ; 0xde11 <end_block9+0x88c7>
    2976: ac 12 de     	ldy	$de12                   ; 0xde12 <end_block9+0x88c8>
    2979: 84 1a        	sty	$1a                     ; 0x1a <__rc10>
    297b: ac 13 de     	ldy	$de13                   ; 0xde13 <end_block9+0x88c9>
    297e: 84 1b        	sty	$1b                     ; 0x1b <__rc11>
    2980: 9c 08 de     	stz	$de08                   ; 0xde08 <end_block9+0x88be>
    2983: a0 c0        	ldy	#$c0
    2985: 8c 09 de     	sty	$de09                   ; 0xde09 <end_block9+0x88bf>
    2988: 9c 0a de     	stz	$de0a                   ; 0xde0a <end_block9+0x88c0>
    298b: 9c 0b de     	stz	$de0b                   ; 0xde0b <end_block9+0x88c1>
    298e: 8e 0c de     	stx	$de0c                   ; 0xde0c <end_block9+0x88c2>
    2991: 8d 0d de     	sta	$de0d                   ; 0xde0d <end_block9+0x88c3>
    2994: 64 13        	stz	$13                     ; 0x13 <__rc3>
    2996: a2 00        	ldx	#$0
    2998: 86 14        	stx	$14                     ; 0x14 <__rc4>
    299a: a2 c0        	ldx	#$c0
    299c: 86 15        	stx	$15                     ; 0x15 <__rc5>
    299e: a2 11        	ldx	#$11
    29a0: 86 16        	stx	$16                     ; 0x16 <__rc6>
    29a2: a2 c9        	ldx	#$c9
    29a4: 86 17        	stx	$17                     ; 0x17 <__rc7>
    29a6: a2 10        	ldx	#$10
    29a8: 86 18        	stx	$18                     ; 0x18 <__rc8>
    29aa: a2 c9        	ldx	#$c9
    29ac: 86 19        	stx	$19                     ; 0x19 <__rc9>
    29ae: a6 1a        	ldx	$1a                     ; 0x1a <__rc10>
    29b0: 8e 0e de     	stx	$de0e                   ; 0xde0e <end_block9+0x88c4>
    29b3: a6 1b        	ldx	$1b                     ; 0x1b <__rc11>
    29b5: 8e 0f de     	stx	$de0f                   ; 0xde0f <end_block9+0x88c5>
    29b8: ac 18 de     	ldy	$de18                   ; 0xde18 <end_block9+0x88ce>
    29bb: ad 19 de     	lda	$de19                   ; 0xde19 <end_block9+0x88cf>
    29be: ae 1a de     	ldx	$de1a                   ; 0xde1a <end_block9+0x88d0>
    29c1: ae 1b de     	ldx	$de1b                   ; 0xde1b <end_block9+0x88d1>
    29c4: 84 1c        	sty	$1c                     ; 0x1c <__rc12>
    29c6: 85 1d        	sta	$1d                     ; 0x1d <__rc13>
    29c8: 64 1a        	stz	$1a                     ; 0x1a <__rc10>
    29ca: 80 13        	bra	$29df <putchar+0x89>
    29cc: a5 1c        	lda	$1c                     ; 0x1c <__rc12>
    29ce: 18           	clc
    29cf: 69 50        	adc	#$50
    29d1: 85 1c        	sta	$1c                     ; 0x1c <__rc12>
    29d3: a5 1d        	lda	$1d                     ; 0x1d <__rc13>
    29d5: 69 00        	adc	#$0
    29d7: 85 1d        	sta	$1d                     ; 0x1d <__rc13>
    29d9: e6 13        	inc	$13                     ; 0x13 <__rc3>
    29db: d0 02        	bne	$29df <putchar+0x89>
    29dd: e6 1a        	inc	$1a                     ; 0x1a <__rc10>
    29df: a9 79        	lda	#$79
    29e1: 18           	clc
    29e2: 65 13        	adc	$13                     ; 0x13 <__rc3>
    29e4: 85 1e        	sta	$1e                     ; 0x1e <__rc14>
    29e6: a9 00        	lda	#$0
    29e8: 65 1a        	adc	$1a                     ; 0x1a <__rc10>
    29ea: 85 1f        	sta	$1f                     ; 0x1f <__rc15>
    29ec: b2 1e        	lda	($1e)                   ; 0x1e <__rc14>
    29ee: c9 0a        	cmp	#$a
    29f0: f0 31        	beq	$2a23 <putchar+0xcd>
    29f2: c9 0d        	cmp	#$d
    29f4: f0 2d        	beq	$2a23 <putchar+0xcd>
    29f6: aa           	tax
    29f7: d0 03        	bne	$29fc <putchar+0xa6>
    29f9: 4c 13 2b     	jmp	$2b13 <putchar+0x1bd>
    29fc: a2 03        	ldx	#$3
    29fe: 86 01        	stx	$1                      ; 0x1 <__data_size+0x1>
    2a00: a5 36        	lda	$36                     ; 0x36 <_ccolor>
    2a02: 29 01        	and	#$1
    2a04: a2 40        	ldx	#$40
    2a06: a8           	tay
    2a07: d0 02        	bne	$2a0b <putchar+0xb5>
    2a09: a2 f0        	ldx	#$f0
    2a0b: a4 37        	ldy	$37                     ; 0x37 <_col>
    2a0d: 8a           	txa
    2a0e: 91 1c        	sta	($1c),y                 ; 0x1c <__rc12>
    2a10: a2 02        	ldx	#$2
    2a12: 86 01        	stx	$1                      ; 0x1 <__data_size+0x1>
    2a14: b2 1e        	lda	($1e)                   ; 0x1e <__rc14>
    2a16: a4 37        	ldy	$37                     ; 0x37 <_col>
    2a18: 91 1c        	sta	($1c),y                 ; 0x1c <__rc12>
    2a1a: a6 37        	ldx	$37                     ; 0x37 <_col>
    2a1c: e8           	inx
    2a1d: e6 37        	inc	$37                     ; 0x37 <_col>
    2a1f: e0 50        	cpx	#$50
    2a21: d0 b6        	bne	$29d9 <putchar+0x83>
    2a23: 64 37        	stz	$37                     ; 0x37 <_col>
    2a25: a6 38        	ldx	$38                     ; 0x38 <_row>
    2a27: e8           	inx
    2a28: e6 38        	inc	$38                     ; 0x38 <_row>
    2a2a: e0 1e        	cpx	#$1e
    2a2c: f0 03        	beq	$2a31 <putchar+0xdb>
    2a2e: 4c cc 29     	jmp	$29cc <putchar+0x76>
    2a31: a2 03        	ldx	#$3
    2a33: 86 01        	stx	$1                      ; 0x1 <__data_size+0x1>
    2a35: a2 01        	ldx	#$1
    2a37: 86 1b        	stx	$1b                     ; 0x1b <__rc11>
    2a39: a2 09        	ldx	#$9
    2a3b: a9 10        	lda	#$10
    2a3d: a0 00        	ldy	#$0
    2a3f: 84 1c        	sty	$1c                     ; 0x1c <__rc12>
    2a41: a0 c0        	ldy	#$c0
    2a43: 84 1d        	sty	$1d                     ; 0x1d <__rc13>
    2a45: 85 1e        	sta	$1e                     ; 0x1e <__rc14>
    2a47: a0 50        	ldy	#$50
    2a49: b1 1c        	lda	($1c),y                 ; 0x1c <__rc12>
    2a4b: 92 1c        	sta	($1c)                   ; 0x1c <__rc12>
    2a4d: a9 ff        	lda	#$ff
    2a4f: c6 1e        	dec	$1e                     ; 0x1e <__rc14>
    2a51: c5 1e        	cmp	$1e                     ; 0x1e <__rc14>
    2a53: d0 01        	bne	$2a56 <putchar+0x100>
    2a55: ca           	dex
    2a56: e6 1c        	inc	$1c                     ; 0x1c <__rc12>
    2a58: d0 02        	bne	$2a5c <putchar+0x106>
    2a5a: e6 1d        	inc	$1d                     ; 0x1d <__rc13>
    2a5c: 8a           	txa
    2a5d: d0 ea        	bne	$2a49 <putchar+0xf3>
    2a5f: a5 1e        	lda	$1e                     ; 0x1e <__rc14>
    2a61: d0 e6        	bne	$2a49 <putchar+0xf3>
    2a63: a2 02        	ldx	#$2
    2a65: 86 01        	stx	$1                      ; 0x1 <__data_size+0x1>
    2a67: a2 00        	ldx	#$0
    2a69: a5 1b        	lda	$1b                     ; 0x1b <__rc11>
    2a6b: d0 ca        	bne	$2a37 <putchar+0xe1>
    2a6d: a2 03        	ldx	#$3
    2a6f: 86 01        	stx	$1                      ; 0x1 <__data_size+0x1>
    2a71: a5 36        	lda	$36                     ; 0x36 <_ccolor>
    2a73: 29 01        	and	#$1
    2a75: aa           	tax
    2a76: a9 40        	lda	#$40
    2a78: e0 00        	cpx	#$0
    2a7a: d0 02        	bne	$2a7e <putchar+0x128>
    2a7c: a9 f0        	lda	#$f0
    2a7e: a2 50        	ldx	#$50
    2a80: a0 11        	ldy	#$11
    2a82: 84 1c        	sty	$1c                     ; 0x1c <__rc12>
    2a84: a0 c9        	ldy	#$c9
    2a86: 84 1d        	sty	$1d                     ; 0x1d <__rc13>
    2a88: a0 10        	ldy	#$10
    2a8a: 84 1e        	sty	$1e                     ; 0x1e <__rc14>
    2a8c: a0 c9        	ldy	#$c9
    2a8e: 84 1f        	sty	$1f                     ; 0x1f <__rc15>
    2a90: a4 1c        	ldy	$1c                     ; 0x1c <__rc12>
    2a92: 84 22        	sty	$22                     ; 0x22 <__rc18>
    2a94: a4 1d        	ldy	$1d                     ; 0x1d <__rc13>
    2a96: 84 23        	sty	$23                     ; 0x23 <__rc19>
    2a98: 92 1e        	sta	($1e)                   ; 0x1e <__rc14>
    2a9a: e6 1c        	inc	$1c                     ; 0x1c <__rc12>
    2a9c: d0 02        	bne	$2aa0 <putchar+0x14a>
    2a9e: e6 1d        	inc	$1d                     ; 0x1d <__rc13>
    2aa0: ca           	dex
    2aa1: a4 22        	ldy	$22                     ; 0x22 <__rc18>
    2aa3: 84 1e        	sty	$1e                     ; 0x1e <__rc14>
    2aa5: a4 23        	ldy	$23                     ; 0x23 <__rc19>
    2aa7: 84 1f        	sty	$1f                     ; 0x1f <__rc15>
    2aa9: e0 00        	cpx	#$0
    2aab: d0 e3        	bne	$2a90 <putchar+0x13a>
    2aad: a2 02        	ldx	#$2
    2aaf: 86 01        	stx	$1                      ; 0x1 <__data_size+0x1>
    2ab1: a2 50        	ldx	#$50
    2ab3: a0 11        	ldy	#$11
    2ab5: 84 1c        	sty	$1c                     ; 0x1c <__rc12>
    2ab7: a0 c9        	ldy	#$c9
    2ab9: 84 1d        	sty	$1d                     ; 0x1d <__rc13>
    2abb: a0 10        	ldy	#$10
    2abd: 84 1e        	sty	$1e                     ; 0x1e <__rc14>
    2abf: a0 c9        	ldy	#$c9
    2ac1: 84 1f        	sty	$1f                     ; 0x1f <__rc15>
    2ac3: a9 20        	lda	#$20
    2ac5: a4 1c        	ldy	$1c                     ; 0x1c <__rc12>
    2ac7: 84 22        	sty	$22                     ; 0x22 <__rc18>
    2ac9: a4 1d        	ldy	$1d                     ; 0x1d <__rc13>
    2acb: 84 23        	sty	$23                     ; 0x23 <__rc19>
    2acd: 92 1e        	sta	($1e)                   ; 0x1e <__rc14>
    2acf: e6 1c        	inc	$1c                     ; 0x1c <__rc12>
    2ad1: d0 02        	bne	$2ad5 <putchar+0x17f>
    2ad3: e6 1d        	inc	$1d                     ; 0x1d <__rc13>
    2ad5: ca           	dex
    2ad6: a4 22        	ldy	$22                     ; 0x22 <__rc18>
    2ad8: 84 1e        	sty	$1e                     ; 0x1e <__rc14>
    2ada: a4 23        	ldy	$23                     ; 0x23 <__rc19>
    2adc: 84 1f        	sty	$1f                     ; 0x1f <__rc15>
    2ade: e0 00        	cpx	#$0
    2ae0: d0 e3        	bne	$2ac5 <putchar+0x16f>
    2ae2: c6 38        	dec	$38                     ; 0x38 <_row>
    2ae4: 9c 08 de     	stz	$de08                   ; 0xde08 <end_block9+0x88be>
    2ae7: a2 c0        	ldx	#$c0
    2ae9: 8e 09 de     	stx	$de09                   ; 0xde09 <end_block9+0x88bf>
    2aec: 9c 0a de     	stz	$de0a                   ; 0xde0a <end_block9+0x88c0>
    2aef: 9c 0b de     	stz	$de0b                   ; 0xde0b <end_block9+0x88c1>
    2af2: a2 1d        	ldx	#$1d
    2af4: 8e 0c de     	stx	$de0c                   ; 0xde0c <end_block9+0x88c2>
    2af7: 9c 0d de     	stz	$de0d                   ; 0xde0d <end_block9+0x88c3>
    2afa: 9c 0e de     	stz	$de0e                   ; 0xde0e <end_block9+0x88c4>
    2afd: 9c 0f de     	stz	$de0f                   ; 0xde0f <end_block9+0x88c5>
    2b00: ae 18 de     	ldx	$de18                   ; 0xde18 <end_block9+0x88ce>
    2b03: ac 19 de     	ldy	$de19                   ; 0xde19 <end_block9+0x88cf>
    2b06: ad 1a de     	lda	$de1a                   ; 0xde1a <end_block9+0x88d0>
    2b09: ad 1b de     	lda	$de1b                   ; 0xde1b <end_block9+0x88d1>
    2b0c: 86 1c        	stx	$1c                     ; 0x1c <__rc12>
    2b0e: 84 1d        	sty	$1d                     ; 0x1d <__rc13>
    2b10: 4c d9 29     	jmp	$29d9 <putchar+0x83>
    2b13: a6 ef        	ldx	$ef                     ; 0xef <__zp_bss_size+0xa1>
    2b15: 86 01        	stx	$1                      ; 0x1 <__data_size+0x1>
    2b17: a6 37        	ldx	$37                     ; 0x37 <_col>
    2b19: a4 38        	ldy	$38                     ; 0x38 <_row>
    2b1b: 8e 14 d0     	stx	$d014                   ; 0xd014 <end_block9+0x7aca>
    2b1e: 9c 15 d0     	stz	$d015                   ; 0xd015 <end_block9+0x7acb>
    2b21: 84 38        	sty	$38                     ; 0x38 <_row>
    2b23: 8c 16 d0     	sty	$d016                   ; 0xd016 <end_block9+0x7acc>
    2b26: 9c 17 d0     	stz	$d017                   ; 0xd017 <end_block9+0x7acd>
    2b29: a6 12        	ldx	$12                     ; 0x12 <__rc2>
    2b2b: a5 ee        	lda	$ee                     ; 0xee <__zp_bss_size+0xa0>
    2b2d: 60           	rts

00002b2e <malloc>:
    2b2e: a8           	tay
    2b2f: 8a           	txa
    2b30: a2 00        	ldx	#$0
    2b32: 86 12        	stx	$12                     ; 0x12 <__rc2>
    2b34: a2 00        	ldx	#$0
    2b36: 86 13        	stx	$13                     ; 0x13 <__rc3>
    2b38: aa           	tax
    2b39: d0 07        	bne	$2b42 <malloc+0x14>
    2b3b: c0 00        	cpy	#$0
    2b3d: d0 03        	bne	$2b42 <malloc+0x14>
    2b3f: 4c 3c 2c     	jmp	$2c3c <malloc+0x10e>
    2b42: 84 16        	sty	$16                     ; 0x16 <__rc6>
    2b44: aa           	tax
    2b45: d0 0e        	bne	$2b55 <malloc+0x27>
    2b47: a6 16        	ldx	$16                     ; 0x16 <__rc6>
    2b49: e0 07        	cpx	#$7
    2b4b: b0 0c        	bcs	$2b59 <malloc+0x2b>
    2b4d: a2 08        	ldx	#$8
    2b4f: 86 91        	stx	$91                     ; 0x91 <__zp_bss_size+0x43>
    2b51: a9 00        	lda	#$0
    2b53: 80 2f        	bra	$2b84 <malloc+0x56>
    2b55: c9 00        	cmp	#$0
    2b57: 90 f4        	bcc	$2b4d <malloc+0x1f>
    2b59: a8           	tay
    2b5a: a5 16        	lda	$16                     ; 0x16 <__rc6>
    2b5c: 29 01        	and	#$1
    2b5e: a2 02        	ldx	#$2
    2b60: 64 14        	stz	$14                     ; 0x14 <__rc4>
    2b62: c9 00        	cmp	#$0
    2b64: f0 02        	beq	$2b68 <malloc+0x3a>
    2b66: a2 03        	ldx	#$3
    2b68: 86 15        	stx	$15                     ; 0x15 <__rc5>
    2b6a: 18           	clc
    2b6b: a5 16        	lda	$16                     ; 0x16 <__rc6>
    2b6d: 65 15        	adc	$15                     ; 0x15 <__rc5>
    2b6f: aa           	tax
    2b70: 98           	tya
    2b71: 65 14        	adc	$14                     ; 0x14 <__rc4>
    2b73: 90 03        	bcc	$2b78 <malloc+0x4a>
    2b75: 4c 3c 2c     	jmp	$2c3c <malloc+0x10e>
    2b78: 86 91        	stx	$91                     ; 0x91 <__zp_bss_size+0x43>
    2b7a: a8           	tay
    2b7b: d0 07        	bne	$2b84 <malloc+0x56>
    2b7d: e0 00        	cpx	#$0
    2b7f: d0 03        	bne	$2b84 <malloc+0x56>
    2b81: 4c 3c 2c     	jmp	$2c3c <malloc+0x10e>
    2b84: 85 92        	sta	$92                     ; 0x92 <__zp_bss_size+0x44>
    2b86: a5 83        	lda	$83                     ; 0x83 <_ZN12_GLOBAL__N_111initializedE>
    2b88: 29 01        	and	#$1
    2b8a: d0 29        	bne	$2bb5 <malloc+0x87>
    2b8c: a9 00        	lda	#$0
    2b8e: a2 10        	ldx	#$10
    2b90: a0 4a        	ldy	#$4a
    2b92: 84 12        	sty	$12                     ; 0x12 <__rc2>
    2b94: a0 55        	ldy	#$55
    2b96: 84 13        	sty	$13                     ; 0x13 <__rc3>
    2b98: 20 1e 03     	jsr	$31e <_ZN12_GLOBAL__N_19FreeChunk6insertEPvj>
    2b9b: a2 00        	ldx	#$0
    2b9d: 86 12        	stx	$12                     ; 0x12 <__rc2>
    2b9f: a2 00        	ldx	#$0
    2ba1: 86 13        	stx	$13                     ; 0x13 <__rc3>
    2ba3: ae 4b 55     	ldx	$554b                   ; 0x554b <end_block9+0x1>
    2ba6: a9 fe        	lda	#$fe
    2ba8: 2d 4a 55     	and	$554a                   ; 0x554a <end_block9>
    2bab: 8d 4a 55     	sta	$554a                   ; 0x554a <end_block9>
    2bae: 8e 4b 55     	stx	$554b                   ; 0x554b <end_block9+0x1>
    2bb1: a2 01        	ldx	#$1
    2bb3: 86 83        	stx	$83                     ; 0x83 <_ZN12_GLOBAL__N_111initializedE>
    2bb5: ad 48 55     	lda	$5548                   ; 0x5548 <_ZN12_GLOBAL__N_19free_listE>
    2bb8: ae 49 55     	ldx	$5549                   ; 0x5549 <_ZN12_GLOBAL__N_19free_listE+0x1>
    2bbb: a0 00        	ldy	#$0
    2bbd: 84 14        	sty	$14                     ; 0x14 <__rc4>
    2bbf: a0 00        	ldy	#$0
    2bc1: 84 15        	sty	$15                     ; 0x15 <__rc5>
    2bc3: 86 1d        	stx	$1d                     ; 0x1d <__rc13>
    2bc5: e4 15        	cpx	$15                     ; 0x15 <__rc5>
    2bc7: d0 07        	bne	$2bd0 <malloc+0xa2>
    2bc9: c5 14        	cmp	$14                     ; 0x14 <__rc4>
    2bcb: d0 03        	bne	$2bd0 <malloc+0xa2>
    2bcd: 4c 3c 2c     	jmp	$2c3c <malloc+0x10e>
    2bd0: a0 00        	ldy	#$0
    2bd2: a2 10        	ldx	#$10
    2bd4: 85 18        	sta	$18                     ; 0x18 <__rc8>
    2bd6: 84 14        	sty	$14                     ; 0x14 <__rc4>
    2bd8: 86 15        	stx	$15                     ; 0x15 <__rc5>
    2bda: 18           	clc
    2bdb: a9 4a        	lda	#$4a
    2bdd: 65 14        	adc	$14                     ; 0x14 <__rc4>
    2bdf: 85 14        	sta	$14                     ; 0x14 <__rc4>
    2be1: a9 55        	lda	#$55
    2be3: 65 15        	adc	$15                     ; 0x15 <__rc5>
    2be5: a6 14        	ldx	$14                     ; 0x14 <__rc4>
    2be7: 86 93        	stx	$93                     ; 0x93 <__zp_bss_size+0x45>
    2be9: 85 17        	sta	$17                     ; 0x17 <__rc7>
    2beb: a6 18        	ldx	$18                     ; 0x18 <__rc8>
    2bed: 86 1c        	stx	$1c                     ; 0x1c <__rc12>
    2bef: a6 18        	ldx	$18                     ; 0x18 <__rc8>
    2bf1: 86 14        	stx	$14                     ; 0x14 <__rc4>
    2bf3: a6 1d        	ldx	$1d                     ; 0x1d <__rc13>
    2bf5: 86 15        	stx	$15                     ; 0x15 <__rc5>
    2bf7: a0 01        	ldy	#$1
    2bf9: a6 92        	ldx	$92                     ; 0x92 <__zp_bss_size+0x44>
    2bfb: 86 18        	stx	$18                     ; 0x18 <__rc8>
    2bfd: b1 14        	lda	($14),y                 ; 0x14 <__rc4>
    2bff: 85 19        	sta	$19                     ; 0x19 <__rc9>
    2c01: aa           	tax
    2c02: a9 fe        	lda	#$fe
    2c04: 32 14        	and	($14)                   ; 0x14 <__rc4>
    2c06: 85 1a        	sta	$1a                     ; 0x1a <__rc10>
    2c08: e4 18        	cpx	$18                     ; 0x18 <__rc8>
    2c0a: d0 0a        	bne	$2c16 <malloc+0xe8>
    2c0c: a6 91        	ldx	$91                     ; 0x91 <__zp_bss_size+0x43>
    2c0e: 86 1b        	stx	$1b                     ; 0x1b <__rc11>
    2c10: c5 1b        	cmp	$1b                     ; 0x1b <__rc11>
    2c12: b0 29        	bcs	$2c3d <malloc+0x10f>
    2c14: 80 04        	bra	$2c1a <malloc+0xec>
    2c16: e4 18        	cpx	$18                     ; 0x18 <__rc8>
    2c18: b0 23        	bcs	$2c3d <malloc+0x10f>
    2c1a: a5 14        	lda	$14                     ; 0x14 <__rc4>
    2c1c: 18           	clc
    2c1d: 69 02        	adc	#$2
    2c1f: 85 1a        	sta	$1a                     ; 0x1a <__rc10>
    2c21: a5 15        	lda	$15                     ; 0x15 <__rc5>
    2c23: 69 00        	adc	#$0
    2c25: 85 1b        	sta	$1b                     ; 0x1b <__rc11>
    2c27: a0 02        	ldy	#$2
    2c29: b1 14        	lda	($14),y                 ; 0x14 <__rc4>
    2c2b: 85 14        	sta	$14                     ; 0x14 <__rc4>
    2c2d: 88           	dey
    2c2e: b1 1a        	lda	($1a),y                 ; 0x1a <__rc10>
    2c30: 85 15        	sta	$15                     ; 0x15 <__rc5>
    2c32: c5 1d        	cmp	$1d                     ; 0x1d <__rc13>
    2c34: d0 c7        	bne	$2bfd <malloc+0xcf>
    2c36: a5 14        	lda	$14                     ; 0x14 <__rc4>
    2c38: c5 1c        	cmp	$1c                     ; 0x1c <__rc12>
    2c3a: d0 c1        	bne	$2bfd <malloc+0xcf>
    2c3c: 60           	rts
    2c3d: ad 46 55     	lda	$5546                   ; 0x5546 <_ZN12_GLOBAL__N_19free_sizeE>
    2c40: ae 47 55     	ldx	$5547                   ; 0x5547 <_ZN12_GLOBAL__N_19free_sizeE+0x1>
    2c43: 86 12        	stx	$12                     ; 0x12 <__rc2>
    2c45: 38           	sec
    2c46: e5 1a        	sbc	$1a                     ; 0x1a <__rc10>
    2c48: aa           	tax
    2c49: a5 12        	lda	$12                     ; 0x12 <__rc2>
    2c4b: e5 19        	sbc	$19                     ; 0x19 <__rc9>
    2c4d: 85 12        	sta	$12                     ; 0x12 <__rc2>
    2c4f: 18           	clc
    2c50: 8a           	txa
    2c51: 69 02        	adc	#$2
    2c53: 85 13        	sta	$13                     ; 0x13 <__rc3>
    2c55: a5 12        	lda	$12                     ; 0x12 <__rc2>
    2c57: 69 00        	adc	#$0
    2c59: a6 13        	ldx	$13                     ; 0x13 <__rc3>
    2c5b: 8e 46 55     	stx	$5546                   ; 0x5546 <_ZN12_GLOBAL__N_19free_sizeE>
    2c5e: 8d 47 55     	sta	$5547                   ; 0x5547 <_ZN12_GLOBAL__N_19free_sizeE+0x1>
    2c61: a0 02        	ldy	#$2
    2c63: a5 14        	lda	$14                     ; 0x14 <__rc4>
    2c65: 18           	clc
    2c66: 69 02        	adc	#$2
    2c68: 85 12        	sta	$12                     ; 0x12 <__rc2>
    2c6a: a5 15        	lda	$15                     ; 0x15 <__rc5>
    2c6c: 69 00        	adc	#$0
    2c6e: 85 13        	sta	$13                     ; 0x13 <__rc3>
    2c70: b1 14        	lda	($14),y                 ; 0x14 <__rc4>
    2c72: 85 1e        	sta	$1e                     ; 0x1e <__rc14>
    2c74: 88           	dey
    2c75: b1 12        	lda	($12),y                 ; 0x12 <__rc2>
    2c77: 85 1f        	sta	$1f                     ; 0x1f <__rc15>
    2c79: c5 15        	cmp	$15                     ; 0x15 <__rc5>
    2c7b: d0 15        	bne	$2c92 <malloc+0x164>
    2c7d: a5 92        	lda	$92                     ; 0x92 <__zp_bss_size+0x44>
    2c7f: a6 1e        	ldx	$1e                     ; 0x1e <__rc14>
    2c81: e4 14        	cpx	$14                     ; 0x14 <__rc4>
    2c83: d0 0d        	bne	$2c92 <malloc+0x164>
    2c85: 85 1a        	sta	$1a                     ; 0x1a <__rc10>
    2c87: a2 00        	ldx	#$0
    2c89: 86 18        	stx	$18                     ; 0x18 <__rc8>
    2c8b: a2 00        	ldx	#$0
    2c8d: 86 19        	stx	$19                     ; 0x19 <__rc9>
    2c8f: 4c 0c 2d     	jmp	$2d0c <malloc+0x1de>
    2c92: 18           	clc
    2c93: a5 14        	lda	$14                     ; 0x14 <__rc4>
    2c95: 69 04        	adc	#$4
    2c97: 85 18        	sta	$18                     ; 0x18 <__rc8>
    2c99: a5 15        	lda	$15                     ; 0x15 <__rc5>
    2c9b: 69 00        	adc	#$0
    2c9d: 85 19        	sta	$19                     ; 0x19 <__rc9>
    2c9f: a0 04        	ldy	#$4
    2ca1: b1 14        	lda	($14),y                 ; 0x14 <__rc4>
    2ca3: 85 23        	sta	$23                     ; 0x23 <__rc19>
    2ca5: 18           	clc
    2ca6: 69 02        	adc	#$2
    2ca8: 85 1a        	sta	$1a                     ; 0x1a <__rc10>
    2caa: a0 01        	ldy	#$1
    2cac: b1 18        	lda	($18),y                 ; 0x18 <__rc8>
    2cae: 85 22        	sta	$22                     ; 0x22 <__rc18>
    2cb0: 69 00        	adc	#$0
    2cb2: a6 1a        	ldx	$1a                     ; 0x1a <__rc10>
    2cb4: 86 18        	stx	$18                     ; 0x18 <__rc8>
    2cb6: 85 19        	sta	$19                     ; 0x19 <__rc9>
    2cb8: a6 23        	ldx	$23                     ; 0x23 <__rc19>
    2cba: 86 1a        	stx	$1a                     ; 0x1a <__rc10>
    2cbc: a6 22        	ldx	$22                     ; 0x22 <__rc18>
    2cbe: 86 1b        	stx	$1b                     ; 0x1b <__rc11>
    2cc0: c8           	iny
    2cc1: a5 1e        	lda	$1e                     ; 0x1e <__rc14>
    2cc3: 91 1a        	sta	($1a),y                 ; 0x1a <__rc10>
    2cc5: a5 1f        	lda	$1f                     ; 0x1f <__rc15>
    2cc7: 88           	dey
    2cc8: 91 18        	sta	($18),y                 ; 0x18 <__rc8>
    2cca: 18           	clc
    2ccb: a5 14        	lda	$14                     ; 0x14 <__rc4>
    2ccd: 69 02        	adc	#$2
    2ccf: 85 1a        	sta	$1a                     ; 0x1a <__rc10>
    2cd1: a5 15        	lda	$15                     ; 0x15 <__rc5>
    2cd3: 69 00        	adc	#$0
    2cd5: 85 1b        	sta	$1b                     ; 0x1b <__rc11>
    2cd7: c8           	iny
    2cd8: b1 14        	lda	($14),y                 ; 0x14 <__rc4>
    2cda: 85 18        	sta	$18                     ; 0x18 <__rc8>
    2cdc: aa           	tax
    2cdd: 88           	dey
    2cde: b1 1a        	lda	($1a),y                 ; 0x1a <__rc10>
    2ce0: 85 19        	sta	$19                     ; 0x19 <__rc9>
    2ce2: 85 16        	sta	$16                     ; 0x16 <__rc6>
    2ce4: a0 04        	ldy	#$4
    2ce6: a5 23        	lda	$23                     ; 0x23 <__rc19>
    2ce8: 91 18        	sta	($18),y                 ; 0x18 <__rc8>
    2cea: 18           	clc
    2ceb: 8a           	txa
    2cec: 69 04        	adc	#$4
    2cee: 85 1a        	sta	$1a                     ; 0x1a <__rc10>
    2cf0: a5 16        	lda	$16                     ; 0x16 <__rc6>
    2cf2: 69 00        	adc	#$0
    2cf4: 85 1b        	sta	$1b                     ; 0x1b <__rc11>
    2cf6: a5 22        	lda	$22                     ; 0x22 <__rc18>
    2cf8: a0 01        	ldy	#$1
    2cfa: 91 1a        	sta	($1a),y                 ; 0x1a <__rc10>
    2cfc: a5 92        	lda	$92                     ; 0x92 <__zp_bss_size+0x44>
    2cfe: 85 1a        	sta	$1a                     ; 0x1a <__rc10>
    2d00: a6 1d        	ldx	$1d                     ; 0x1d <__rc13>
    2d02: e4 15        	cpx	$15                     ; 0x15 <__rc5>
    2d04: d0 10        	bne	$2d16 <malloc+0x1e8>
    2d06: a6 1c        	ldx	$1c                     ; 0x1c <__rc12>
    2d08: e4 14        	cpx	$14                     ; 0x14 <__rc4>
    2d0a: d0 0a        	bne	$2d16 <malloc+0x1e8>
    2d0c: a6 18        	ldx	$18                     ; 0x18 <__rc8>
    2d0e: a4 19        	ldy	$19                     ; 0x19 <__rc9>
    2d10: 8e 48 55     	stx	$5548                   ; 0x5548 <_ZN12_GLOBAL__N_19free_listE>
    2d13: 8c 49 55     	sty	$5549                   ; 0x5549 <_ZN12_GLOBAL__N_19free_listE+0x1>
    2d16: a0 01        	ldy	#$1
    2d18: b1 14        	lda	($14),y                 ; 0x14 <__rc4>
    2d1a: 85 16        	sta	$16                     ; 0x16 <__rc6>
    2d1c: a9 fe        	lda	#$fe
    2d1e: 32 14        	and	($14)                   ; 0x14 <__rc4>
    2d20: 38           	sec
    2d21: a6 91        	ldx	$91                     ; 0x91 <__zp_bss_size+0x43>
    2d23: 86 18        	stx	$18                     ; 0x18 <__rc8>
    2d25: a8           	tay
    2d26: e5 18        	sbc	$18                     ; 0x18 <__rc8>
    2d28: 85 19        	sta	$19                     ; 0x19 <__rc9>
    2d2a: a5 16        	lda	$16                     ; 0x16 <__rc6>
    2d2c: a6 16        	ldx	$16                     ; 0x16 <__rc6>
    2d2e: e5 1a        	sbc	$1a                     ; 0x1a <__rc10>
    2d30: f0 03        	beq	$2d35 <malloc+0x207>
    2d32: 4c c0 2d     	jmp	$2dc0 <malloc+0x292>
    2d35: 85 16        	sta	$16                     ; 0x16 <__rc6>
    2d37: a5 19        	lda	$19                     ; 0x19 <__rc9>
    2d39: c9 08        	cmp	#$8
    2d3b: 86 18        	stx	$18                     ; 0x18 <__rc8>
    2d3d: b0 03        	bcs	$2d42 <malloc+0x214>
    2d3f: 4c a3 2d     	jmp	$2da3 <malloc+0x275>
    2d42: a6 17        	ldx	$17                     ; 0x17 <__rc7>
    2d44: 86 98        	stx	$98                     ; 0x98 <__zp_bss_size+0x4a>
    2d46: a6 93        	ldx	$93                     ; 0x93 <__zp_bss_size+0x45>
    2d48: 86 93        	stx	$93                     ; 0x93 <__zp_bss_size+0x45>
    2d4a: a6 12        	ldx	$12                     ; 0x12 <__rc2>
    2d4c: 86 94        	stx	$94                     ; 0x94 <__zp_bss_size+0x46>
    2d4e: a6 13        	ldx	$13                     ; 0x13 <__rc3>
    2d50: 86 95        	stx	$95                     ; 0x95 <__zp_bss_size+0x47>
    2d52: a8           	tay
    2d53: 18           	clc
    2d54: a5 91        	lda	$91                     ; 0x91 <__zp_bss_size+0x43>
    2d56: 85 91        	sta	$91                     ; 0x91 <__zp_bss_size+0x43>
    2d58: 65 14        	adc	$14                     ; 0x14 <__rc4>
    2d5a: 85 12        	sta	$12                     ; 0x12 <__rc2>
    2d5c: a5 1a        	lda	$1a                     ; 0x1a <__rc10>
    2d5e: a6 1a        	ldx	$1a                     ; 0x1a <__rc10>
    2d60: 86 92        	stx	$92                     ; 0x92 <__zp_bss_size+0x44>
    2d62: 65 15        	adc	$15                     ; 0x15 <__rc5>
    2d64: 85 13        	sta	$13                     ; 0x13 <__rc3>
    2d66: a6 16        	ldx	$16                     ; 0x16 <__rc6>
    2d68: 98           	tya
    2d69: a4 14        	ldy	$14                     ; 0x14 <__rc4>
    2d6b: 84 96        	sty	$96                     ; 0x96 <__zp_bss_size+0x48>
    2d6d: a4 15        	ldy	$15                     ; 0x15 <__rc5>
    2d6f: 84 97        	sty	$97                     ; 0x97 <__zp_bss_size+0x49>
    2d71: 20 1e 03     	jsr	$31e <_ZN12_GLOBAL__N_19FreeChunk6insertEPvj>
    2d74: a6 96        	ldx	$96                     ; 0x96 <__zp_bss_size+0x48>
    2d76: 86 14        	stx	$14                     ; 0x14 <__rc4>
    2d78: a6 97        	ldx	$97                     ; 0x97 <__zp_bss_size+0x49>
    2d7a: 86 15        	stx	$15                     ; 0x15 <__rc5>
    2d7c: a5 91        	lda	$91                     ; 0x91 <__zp_bss_size+0x43>
    2d7e: 29 fe        	and	#$fe
    2d80: 85 12        	sta	$12                     ; 0x12 <__rc2>
    2d82: a0 01        	ldy	#$1
    2d84: 98           	tya
    2d85: 32 14        	and	($14)                   ; 0x14 <__rc4>
    2d87: 05 12        	ora	$12                     ; 0x12 <__rc2>
    2d89: 92 14        	sta	($14)                   ; 0x14 <__rc4>
    2d8b: a5 92        	lda	$92                     ; 0x92 <__zp_bss_size+0x44>
    2d8d: 91 14        	sta	($14),y                 ; 0x14 <__rc4>
    2d8f: a4 12        	ldy	$12                     ; 0x12 <__rc2>
    2d91: 85 18        	sta	$18                     ; 0x18 <__rc8>
    2d93: a6 94        	ldx	$94                     ; 0x94 <__zp_bss_size+0x46>
    2d95: 86 12        	stx	$12                     ; 0x12 <__rc2>
    2d97: a6 95        	ldx	$95                     ; 0x95 <__zp_bss_size+0x47>
    2d99: 86 13        	stx	$13                     ; 0x13 <__rc3>
    2d9b: a6 93        	ldx	$93                     ; 0x93 <__zp_bss_size+0x45>
    2d9d: 86 93        	stx	$93                     ; 0x93 <__zp_bss_size+0x45>
    2d9f: a6 98        	ldx	$98                     ; 0x98 <__zp_bss_size+0x4a>
    2da1: 86 17        	stx	$17                     ; 0x17 <__rc7>
    2da3: 18           	clc
    2da4: 98           	tya
    2da5: 65 14        	adc	$14                     ; 0x14 <__rc4>
    2da7: 85 16        	sta	$16                     ; 0x16 <__rc6>
    2da9: a5 15        	lda	$15                     ; 0x15 <__rc5>
    2dab: 65 18        	adc	$18                     ; 0x18 <__rc8>
    2dad: 85 15        	sta	$15                     ; 0x15 <__rc5>
    2daf: c5 17        	cmp	$17                     ; 0x17 <__rc7>
    2db1: d0 1a        	bne	$2dcd <malloc+0x29f>
    2db3: a6 93        	ldx	$93                     ; 0x93 <__zp_bss_size+0x45>
    2db5: 86 14        	stx	$14                     ; 0x14 <__rc4>
    2db7: a6 16        	ldx	$16                     ; 0x16 <__rc6>
    2db9: e4 14        	cpx	$14                     ; 0x14 <__rc4>
    2dbb: d0 12        	bne	$2dcf <malloc+0x2a1>
    2dbd: 4c 3c 2c     	jmp	$2c3c <malloc+0x10e>
    2dc0: 85 16        	sta	$16                     ; 0x16 <__rc6>
    2dc2: c9 00        	cmp	#$0
    2dc4: 86 18        	stx	$18                     ; 0x18 <__rc8>
    2dc6: a5 19        	lda	$19                     ; 0x19 <__rc9>
    2dc8: 90 d9        	bcc	$2da3 <malloc+0x275>
    2dca: 4c 42 2d     	jmp	$2d42 <malloc+0x214>
    2dcd: a6 16        	ldx	$16                     ; 0x16 <__rc6>
    2dcf: 86 14        	stx	$14                     ; 0x14 <__rc4>
    2dd1: a0 01        	ldy	#$1
    2dd3: b1 14        	lda	($14),y                 ; 0x14 <__rc4>
    2dd5: 85 16        	sta	$16                     ; 0x16 <__rc6>
    2dd7: a9 fe        	lda	#$fe
    2dd9: 32 14        	and	($14)                   ; 0x14 <__rc4>
    2ddb: 92 14        	sta	($14)                   ; 0x14 <__rc4>
    2ddd: a5 16        	lda	$16                     ; 0x16 <__rc6>
    2ddf: 91 14        	sta	($14),y                 ; 0x14 <__rc4>
    2de1: 60           	rts

00002de2 <memcpy>:
    2de2: a8           	tay
    2de3: 8a           	txa
    2de4: d0 03        	bne	$2de9 <memcpy+0x7>
    2de6: 98           	tya
    2de7: f0 24        	beq	$2e0d <memcpy+0x2b>
    2de9: a5 12        	lda	$12                     ; 0x12 <__rc2>
    2deb: 85 16        	sta	$16                     ; 0x16 <__rc6>
    2ded: a5 13        	lda	$13                     ; 0x13 <__rc3>
    2def: 85 17        	sta	$17                     ; 0x17 <__rc7>
    2df1: b2 14        	lda	($14)                   ; 0x14 <__rc4>
    2df3: 92 16        	sta	($16)                   ; 0x16 <__rc6>
    2df5: e6 16        	inc	$16                     ; 0x16 <__rc6>
    2df7: d0 02        	bne	$2dfb <memcpy+0x19>
    2df9: e6 17        	inc	$17                     ; 0x17 <__rc7>
    2dfb: e6 14        	inc	$14                     ; 0x14 <__rc4>
    2dfd: d0 02        	bne	$2e01 <memcpy+0x1f>
    2dff: e6 15        	inc	$15                     ; 0x15 <__rc5>
    2e01: 88           	dey
    2e02: c0 ff        	cpy	#$ff
    2e04: d0 01        	bne	$2e07 <memcpy+0x25>
    2e06: ca           	dex
    2e07: 8a           	txa
    2e08: d0 e7        	bne	$2df1 <memcpy+0xf>
    2e0a: 98           	tya
    2e0b: d0 e4        	bne	$2df1 <memcpy+0xf>
    2e0d: 60           	rts

00002e0e <__memset>:
    2e0e: a4 14        	ldy	$14                     ; 0x14 <__rc4>
    2e10: d0 04        	bne	$2e16 <__memset+0x8>
    2e12: e0 00        	cpx	#$0
    2e14: f0 17        	beq	$2e2d <__memset+0x1f>
    2e16: 92 12        	sta	($12)                   ; 0x12 <__rc2>
    2e18: e6 12        	inc	$12                     ; 0x12 <__rc2>
    2e1a: d0 02        	bne	$2e1e <__memset+0x10>
    2e1c: e6 13        	inc	$13                     ; 0x13 <__rc3>
    2e1e: ca           	dex
    2e1f: e0 ff        	cpx	#$ff
    2e21: d0 02        	bne	$2e25 <__memset+0x17>
    2e23: c6 14        	dec	$14                     ; 0x14 <__rc4>
    2e25: a4 14        	ldy	$14                     ; 0x14 <__rc4>
    2e27: d0 ed        	bne	$2e16 <__memset+0x8>
    2e29: e0 00        	cpx	#$0
    2e2b: d0 e9        	bne	$2e16 <__memset+0x8>
    2e2d: 60           	rts

00002e2e <__mulhi3>:
    2e2e: a4 13        	ldy	$13                     ; 0x13 <__rc3>
    2e30: d0 04        	bne	$2e36 <__mulhi3+0x8>
    2e32: a4 12        	ldy	$12                     ; 0x12 <__rc2>
    2e34: f0 25        	beq	$2e5b <__mulhi3+0x2d>
    2e36: 85 14        	sta	$14                     ; 0x14 <__rc4>
    2e38: 86 15        	stx	$15                     ; 0x15 <__rc5>
    2e3a: a0 00        	ldy	#$0
    2e3c: 98           	tya
    2e3d: 46 13        	lsr	$13                     ; 0x13 <__rc3>
    2e3f: 66 12        	ror	$12                     ; 0x12 <__rc2>
    2e41: 90 09        	bcc	$2e4c <__mulhi3+0x1e>
    2e43: aa           	tax
    2e44: 98           	tya
    2e45: 18           	clc
    2e46: 65 14        	adc	$14                     ; 0x14 <__rc4>
    2e48: a8           	tay
    2e49: 8a           	txa
    2e4a: 65 15        	adc	$15                     ; 0x15 <__rc5>
    2e4c: 06 14        	asl	$14                     ; 0x14 <__rc4>
    2e4e: 26 15        	rol	$15                     ; 0x15 <__rc5>
    2e50: a6 13        	ldx	$13                     ; 0x13 <__rc3>
    2e52: d0 e9        	bne	$2e3d <__mulhi3+0xf>
    2e54: a6 12        	ldx	$12                     ; 0x12 <__rc2>
    2e56: d0 e5        	bne	$2e3d <__mulhi3+0xf>
    2e58: aa           	tax
    2e59: 98           	tya
    2e5a: 60           	rts
    2e5b: a0 00        	ldy	#$0
    2e5d: 98           	tya
    2e5e: 80 f8        	bra	$2e58 <__mulhi3+0x2a>
