
grudge.elf:	file format elf32-mos

SYMBOL TABLE:
00000000 l    df *ABS*	00000000 zero-bss.c
00000000 l    df *ABS*	00000000 zero-zp-bss.c
00000000 l    df *ABS*	00000000 copy-zp-data.c
00000000 l    df *ABS*	00000000 ld-temp.o
00000494 l     F .text	00000397 f256Init
0000007c l     O .zp.bss	00000007 kernelEventData
00000036 l     O .zp.bss	00000001 _ccolor
00002f56 l     O .rodata	00000030 textColors
00000037 l     O .zp.bss	00000001 _col
00000038 l     O .zp.bss	00000001 _row
00000039 l     O .zp.bss	00000040 _spriteCtl
00005600 l     O .bss	00000001 kernelError
00000831 l     F .text	00000832 f256main
000018b1 l     F .text	000003ba mySpriteDefine
00005420 l     O .bss	000001e0 spriteStatuses
000016f7 l     F .text	000001ba updateFrames
00002faa l     O .rodata	00002476 bigpatch
00000030 l     O .zp.data	00000006 stateDelays
0000007b l     O .zp.bss	00000001 padTimer.1
00001063 l     F .text	00000694 checkNESPad
00002ed2 l     F .text	00000017 __ashlsi3
00002ee9 l     F .text	00000032 __mulhi3
0000201e l     F .text	00000bb3 printf
00002bd1 l     F .text	000002b5 malloc
00001c6b l     F .text	000001d0 __putchar
00000079 l     O .zp.bss	00000002 __putchar.s
00001e40 l     F .text	000000d1 _ZN12_GLOBAL__N_13putEcP6Status
00001f11 l     F .text	0000010d _ZN12_GLOBAL__N_112print_stringEPKcP6Status
00000083 l     O .zp.bss	00000001 _ZN12_GLOBAL__N_111initializedE
0000031e l     F .text	00000139 _ZN12_GLOBAL__N_19FreeChunk6insertEPvj
00005603 l     O .bss	00000002 _ZN12_GLOBAL__N_19free_listE
00005601 l     O .bss	00000002 _ZN12_GLOBAL__N_19free_sizeE
0000082b g     F .text	00000006 main
00010400 g       .palgrudge	00000000 palgrudge_end
00010800 g       .boy1	00000000 boy1_end
00011400 g       .cath	00000000 cath_end
00011000 g       .girl1	00000000 girl1_end
00013000 g       .dash	00000000 dash_start
00010800 g       .thing	00000000 thing_start
00010400 g       .boy1	00000000 boy1_start
00013800 g       .dash	00000000 dash_end
00011400 g       .cat	00000000 cat_start
00011800 g       .cat	00000000 cat_end
00010000 g       .palgrudge	00000000 palgrudge_start
00010c00 g       .thing	00000000 thing_end
00010c00 g       .girl1	00000000 girl1_start
00011000 g       .cath	00000000 cath_start
0000031a g       .text	00000000 __after_main
00000306 g       .text	00000000 __do_init_stack
00000314 g       .text	00000000 __do_copy_zp_data
0000047d g     F .text	00000017 __copy_zp_data
0000030e g       .text	00000000 __do_zero_bss
00000457 g     F .text	00000013 __zero_bss
00000311 g       .text	00000000 __do_zero_zp_bss
0000046a g     F .text	00000013 __zero_zp_bss
00001e3b g     F .text	00000005 exit
0000031d g       .text	00000000 _fini
00002f1b g       .rodata	00000000 __set_v
00002eb2  w    F .text	00000020 __memset
00001000  w      *ABS*	00000000 __heap_default_limit
00005606 g       .noinit	00000000 __heap_start
00002e86  w    F .text	0000002c memcpy
00000010 g       *ABS*	00000000 __rc0
00000012 g       *ABS*	00000000 __rc2
00000014 g       *ABS*	00000000 __rc4
00000016 g       *ABS*	00000000 __rc6
00000018 g       *ABS*	00000000 __rc8
0000001a g       *ABS*	00000000 __rc10
0000001c g       *ABS*	00000000 __rc12
0000001e g       *ABS*	00000000 __rc14
00000020 g       *ABS*	00000000 __rc16
00000022 g       *ABS*	00000000 __rc18
00000024 g       *ABS*	00000000 __rc20
00000026 g       *ABS*	00000000 __rc22
00000028 g       *ABS*	00000000 __rc24
0000002a g       *ABS*	00000000 __rc26
0000002c g       *ABS*	00000000 __rc28
0000002e g       *ABS*	00000000 __rc30
0000002f g       *ABS*	00000000 __rc31
00000300 g       *ABS*	00000000 __f256_start
0000a000 g       *ABS*	00000000 __stack
0000a000 g       *ABS*	00000000 __SLOT_ADDR
0800a000 g       *ABS*	00000000 __block8_lma
00002000 g       *ABS*	00000000 __BLOCK_SIZE
0900a000 g       *ABS*	00000000 __block9_lma
0a00a000 g       *ABS*	00000000 __block10_lma
0b00a000 g       *ABS*	00000000 __block11_lma
0c00a000 g       *ABS*	00000000 __block12_lma
0d00a000 g       *ABS*	00000000 __block13_lma
0e00a000 g       *ABS*	00000000 __block14_lma
0f00a000 g       *ABS*	00000000 __block15_lma
1000a000 g       *ABS*	00000000 __block16_lma
1100a000 g       *ABS*	00000000 __block17_lma
1200a000 g       *ABS*	00000000 __block18_lma
1300a000 g       *ABS*	00000000 __block19_lma
1400a000 g       *ABS*	00000000 __block20_lma
1500a000 g       *ABS*	00000000 __block21_lma
1600a000 g       *ABS*	00000000 __block22_lma
1700a000 g       *ABS*	00000000 __block23_lma
00010000 g       *ABS*	00000000 __palgrudge_lma
00000400 g       *ABS*	00000000 __palgrudge_size
00010400 g       *ABS*	00000000 __boy1_lma
00000400 g       *ABS*	00000000 __boy1_size
00010800 g       *ABS*	00000000 __thing_lma
00000400 g       *ABS*	00000000 __thing_size
00010c00 g       *ABS*	00000000 __girl1_lma
00000400 g       *ABS*	00000000 __girl1_size
00011000 g       *ABS*	00000000 __cath_lma
00000400 g       *ABS*	00000000 __cath_size
00011400 g       *ABS*	00000000 __cat_lma
00000400 g       *ABS*	00000000 __cat_size
00013000 g       *ABS*	00000000 __dash_lma
00000800 g       *ABS*	00000000 __dash_size
00005420 g       .bss	00000000 __bss_start
00010400 g       .palgrudge	00000000 end_palgrudge
00010800 g       .boy1	00000000 end_boy1
00010c00 g       .thing	00000000 end_thing
00011000 g       .girl1	00000000 end_girl1
00011400 g       .cath	00000000 end_cath
00011800 g       .cat	00000000 end_cat
00013800 g       .dash	00000000 end_dash
00000306 g       .text	00000000 _start
0000002d g       *ABS*	00000000 __rc29
0000002b g       *ABS*	00000000 __rc27
00000029 g       *ABS*	00000000 __rc25
00000027 g       *ABS*	00000000 __rc23
00000025 g       *ABS*	00000000 __rc21
00000023 g       *ABS*	00000000 __rc19
00000021 g       *ABS*	00000000 __rc17
0000001f g       *ABS*	00000000 __rc15
0000001d g       *ABS*	00000000 __rc13
0000001b g       *ABS*	00000000 __rc11
00000019 g       *ABS*	00000000 __rc9
00000017 g       *ABS*	00000000 __rc7
00000015 g       *ABS*	00000000 __rc5
00000013 g       *ABS*	00000000 __rc3
00000011 g       *ABS*	00000000 __rc1
00000030 g       .zp.data	00000000 __zp_data_start
00000300 g       *ABS*	00000000 __zp_data_load_start
00000006 g       *ABS*	00000000 __zp_data_size
00000036 g       .zp.bss	00000000 __zp_bss_start
0000004e g       *ABS*	00000000 __zp_bss_size
00000306 g       .text	00000000 _init
00002f1b g       .text	00000000 __init_array_start
00002f1b g       .text	00000000 __init_array_end
00002f1b g       .text	00000000 __fini_array_start
00002f1b g       .text	00000000 __fini_array_end
00005420 g       .data	00000000 __data_start
00005420 g       .data	00000000 __data_end
00005420 g       *ABS*	00000000 __data_load_start
00000000 g       *ABS*	00000000 __data_size
00005605 g       .bss	00000000 __bss_end
000001e5 g       *ABS*	00000000 __bss_size
00005605 g       .noinit	00000000 end_block8
00005605 g       .noinit	00000000 end_block9
00005605 g       .noinit	00000000 end_block10
00005605 g       .noinit	00000000 end_block11
00005605 g       .noinit	00000000 end_block12
00005605 g       .noinit	00000000 end_block13
00005605 g       .noinit	00000000 end_block14
00005605 g       .noinit	00000000 end_block15
00005605 g       .noinit	00000000 end_block16
00005605 g       .noinit	00000000 end_block17
00005605 g       .noinit	00000000 end_block18
00005605 g       .noinit	00000000 end_block19
00005605 g       .noinit	00000000 end_block20
00005605 g       .noinit	00000000 end_block21
00005605 g       .noinit	00000000 end_block22
00005605 g       .noinit	00000000 end_block23

Disassembly of section .text:

00000306 <_start>:
     306: a9 00        	lda	#$0
     308: 85 10        	sta	$10                     ; 0x2010 <_ZN12_GLOBAL__N_112print_stringEPKcP6Status+0xff>
     30a: a9 a0        	lda	#$a0
     30c: 85 11        	sta	$11                     ; 0x2011 <_ZN12_GLOBAL__N_112print_stringEPKcP6Status+0x100>

0000030e <__do_zero_bss>:
     30e: 20 57 04     	jsr	$457 <__zero_bss>

00000311 <__do_zero_zp_bss>:
     311: 20 6a 04     	jsr	$46a <__zero_zp_bss>

00000314 <__do_copy_zp_data>:
     314: 20 7d 04     	jsr	$47d <__copy_zp_data>
     317: 20 2b 08     	jsr	$82b <main>

0000031a <__after_main>:
     31a: 4c 3b 1e     	jmp	$1e3b <exit>

0000031d <_fini>:
     31d: 60           	rts

0000031e <_ZN12_GLOBAL__N_19FreeChunk6insertEPvj>:
     31e: 85 16        	sta	$16                     ; 0x2016 <_ZN12_GLOBAL__N_112print_stringEPKcP6Status+0x105>
     320: 29 fe        	and	#$fe
     322: 85 14        	sta	$14                     ; 0x2014 <_ZN12_GLOBAL__N_112print_stringEPKcP6Status+0x103>
     324: a0 01        	ldy	#$1
     326: 98           	tya
     327: 32 12        	and	($12)                   ; 0x2012 <_ZN12_GLOBAL__N_112print_stringEPKcP6Status+0x101>
     329: 05 14        	ora	$14                     ; 0x2014 <_ZN12_GLOBAL__N_112print_stringEPKcP6Status+0x103>
     32b: 92 12        	sta	($12)                   ; 0x2012 <_ZN12_GLOBAL__N_112print_stringEPKcP6Status+0x101>
     32d: a5 12        	lda	$12                     ; 0x2012 <_ZN12_GLOBAL__N_112print_stringEPKcP6Status+0x101>
     32f: 18           	clc
     330: 65 14        	adc	$14                     ; 0x2014 <_ZN12_GLOBAL__N_112print_stringEPKcP6Status+0x103>
     332: 85 15        	sta	$15                     ; 0x2015 <_ZN12_GLOBAL__N_112print_stringEPKcP6Status+0x104>
     334: 8a           	txa
     335: 65 13        	adc	$13                     ; 0x2013 <_ZN12_GLOBAL__N_112print_stringEPKcP6Status+0x102>
     337: 85 14        	sta	$14                     ; 0x2014 <_ZN12_GLOBAL__N_112print_stringEPKcP6Status+0x103>
     339: 18           	clc
     33a: a5 15        	lda	$15                     ; 0x2015 <_ZN12_GLOBAL__N_112print_stringEPKcP6Status+0x104>
     33c: 69 fe        	adc	#$fe
     33e: 85 17        	sta	$17                     ; 0x2017 <_ZN12_GLOBAL__N_112print_stringEPKcP6Status+0x106>
     340: a5 14        	lda	$14                     ; 0x2014 <_ZN12_GLOBAL__N_112print_stringEPKcP6Status+0x103>
     342: 69 ff        	adc	#$ff
     344: 85 15        	sta	$15                     ; 0x2015 <_ZN12_GLOBAL__N_112print_stringEPKcP6Status+0x104>
     346: a5 17        	lda	$17                     ; 0x2017 <_ZN12_GLOBAL__N_112print_stringEPKcP6Status+0x106>
     348: 85 14        	sta	$14                     ; 0x2014 <_ZN12_GLOBAL__N_112print_stringEPKcP6Status+0x103>
     34a: 8a           	txa
     34b: 91 12        	sta	($12),y                 ; 0x2012 <_ZN12_GLOBAL__N_112print_stringEPKcP6Status+0x101>
     34d: a5 16        	lda	$16                     ; 0x2016 <_ZN12_GLOBAL__N_112print_stringEPKcP6Status+0x105>
     34f: 92 14        	sta	($14)                   ; 0x2014 <_ZN12_GLOBAL__N_112print_stringEPKcP6Status+0x103>
     351: 8a           	txa
     352: 91 14        	sta	($14),y                 ; 0x2014 <_ZN12_GLOBAL__N_112print_stringEPKcP6Status+0x103>
     354: b1 12        	lda	($12),y                 ; 0x2012 <_ZN12_GLOBAL__N_112print_stringEPKcP6Status+0x101>
     356: 85 14        	sta	$14                     ; 0x2014 <_ZN12_GLOBAL__N_112print_stringEPKcP6Status+0x103>
     358: a9 fe        	lda	#$fe
     35a: 32 12        	and	($12)                   ; 0x2012 <_ZN12_GLOBAL__N_112print_stringEPKcP6Status+0x101>
     35c: 18           	clc
     35d: 6d 01 56     	adc	$5601                   ; 0x5601 <_ZN12_GLOBAL__N_19free_sizeE>
     360: aa           	tax
     361: a5 14        	lda	$14                     ; 0x2014 <_ZN12_GLOBAL__N_112print_stringEPKcP6Status+0x103>
     363: 6d 02 56     	adc	$5602                   ; 0x5602 <_ZN12_GLOBAL__N_19free_sizeE+0x1>
     366: a8           	tay
     367: 18           	clc
     368: 8a           	txa
     369: 69 fe        	adc	#$fe
     36b: aa           	tax
     36c: 98           	tya
     36d: 69 ff        	adc	#$ff
     36f: 8e 01 56     	stx	$5601                   ; 0x5601 <_ZN12_GLOBAL__N_19free_sizeE>
     372: 8d 02 56     	sta	$5602                   ; 0x5602 <_ZN12_GLOBAL__N_19free_sizeE+0x1>
     375: ae 03 56     	ldx	$5603                   ; 0x5603 <_ZN12_GLOBAL__N_19free_listE>
     378: 86 16        	stx	$16                     ; 0x2016 <_ZN12_GLOBAL__N_112print_stringEPKcP6Status+0x105>
     37a: ac 04 56     	ldy	$5604                   ; 0x5604 <_ZN12_GLOBAL__N_19free_listE+0x1>
     37d: a2 00        	ldx	#$0
     37f: 86 14        	stx	$14                     ; 0x2014 <_ZN12_GLOBAL__N_112print_stringEPKcP6Status+0x103>
     381: a2 00        	ldx	#$0
     383: 86 15        	stx	$15                     ; 0x2015 <_ZN12_GLOBAL__N_112print_stringEPKcP6Status+0x104>
     385: 84 18        	sty	$18                     ; 0x2018 <_ZN12_GLOBAL__N_112print_stringEPKcP6Status+0x107>
     387: c4 15        	cpy	$15                     ; 0x2015 <_ZN12_GLOBAL__N_112print_stringEPKcP6Status+0x104>
     389: d0 31        	bne	$3bc <_ZN12_GLOBAL__N_19FreeChunk6insertEPvj+0x9e>
     38b: a6 16        	ldx	$16                     ; 0x2016 <_ZN12_GLOBAL__N_112print_stringEPKcP6Status+0x105>
     38d: e4 14        	cpx	$14                     ; 0x2014 <_ZN12_GLOBAL__N_112print_stringEPKcP6Status+0x103>
     38f: d0 2b        	bne	$3bc <_ZN12_GLOBAL__N_19FreeChunk6insertEPvj+0x9e>
     391: a0 02        	ldy	#$2
     393: 18           	clc
     394: a5 12        	lda	$12                     ; 0x2012 <_ZN12_GLOBAL__N_112print_stringEPKcP6Status+0x101>
     396: 69 02        	adc	#$2
     398: 85 14        	sta	$14                     ; 0x2014 <_ZN12_GLOBAL__N_112print_stringEPKcP6Status+0x103>
     39a: a5 12        	lda	$12                     ; 0x2012 <_ZN12_GLOBAL__N_112print_stringEPKcP6Status+0x101>
     39c: 91 12        	sta	($12),y                 ; 0x2012 <_ZN12_GLOBAL__N_112print_stringEPKcP6Status+0x101>
     39e: a5 13        	lda	$13                     ; 0x2013 <_ZN12_GLOBAL__N_112print_stringEPKcP6Status+0x102>
     3a0: 69 00        	adc	#$0
     3a2: 85 15        	sta	$15                     ; 0x2015 <_ZN12_GLOBAL__N_112print_stringEPKcP6Status+0x104>
     3a4: 88           	dey
     3a5: a5 13        	lda	$13                     ; 0x2013 <_ZN12_GLOBAL__N_112print_stringEPKcP6Status+0x102>
     3a7: 91 14        	sta	($14),y                 ; 0x2014 <_ZN12_GLOBAL__N_112print_stringEPKcP6Status+0x103>
     3a9: a2 03        	ldx	#$3
     3ab: 86 16        	stx	$16                     ; 0x2016 <_ZN12_GLOBAL__N_112print_stringEPKcP6Status+0x105>
     3ad: a2 56        	ldx	#$56
     3af: 86 17        	stx	$17                     ; 0x2017 <_ZN12_GLOBAL__N_112print_stringEPKcP6Status+0x106>
     3b1: a6 12        	ldx	$12                     ; 0x2012 <_ZN12_GLOBAL__N_112print_stringEPKcP6Status+0x101>
     3b3: 86 14        	stx	$14                     ; 0x2014 <_ZN12_GLOBAL__N_112print_stringEPKcP6Status+0x103>
     3b5: a6 13        	ldx	$13                     ; 0x2013 <_ZN12_GLOBAL__N_112print_stringEPKcP6Status+0x102>
     3b7: 86 15        	stx	$15                     ; 0x2015 <_ZN12_GLOBAL__N_112print_stringEPKcP6Status+0x104>
     3b9: 4c 35 04     	jmp	$435 <_ZN12_GLOBAL__N_19FreeChunk6insertEPvj+0x117>
     3bc: a5 12        	lda	$12                     ; 0x2012 <_ZN12_GLOBAL__N_112print_stringEPKcP6Status+0x101>
     3be: 18           	clc
     3bf: 69 02        	adc	#$2
     3c1: 85 14        	sta	$14                     ; 0x2014 <_ZN12_GLOBAL__N_112print_stringEPKcP6Status+0x103>
     3c3: a4 13        	ldy	$13                     ; 0x2013 <_ZN12_GLOBAL__N_112print_stringEPKcP6Status+0x102>
     3c5: a6 16        	ldx	$16                     ; 0x2016 <_ZN12_GLOBAL__N_112print_stringEPKcP6Status+0x105>
     3c7: 86 19        	stx	$19                     ; 0x2019 <_ZN12_GLOBAL__N_112print_stringEPKcP6Status+0x108>
     3c9: a5 13        	lda	$13                     ; 0x2013 <_ZN12_GLOBAL__N_112print_stringEPKcP6Status+0x102>
     3cb: 84 1a        	sty	$1a                     ; 0x201a <_ZN12_GLOBAL__N_112print_stringEPKcP6Status+0x109>
     3cd: 69 00        	adc	#$0
     3cf: a6 14        	ldx	$14                     ; 0x2014 <_ZN12_GLOBAL__N_112print_stringEPKcP6Status+0x103>
     3d1: 86 16        	stx	$16                     ; 0x2016 <_ZN12_GLOBAL__N_112print_stringEPKcP6Status+0x105>
     3d3: 85 17        	sta	$17                     ; 0x2017 <_ZN12_GLOBAL__N_112print_stringEPKcP6Status+0x106>
     3d5: a6 19        	ldx	$19                     ; 0x2019 <_ZN12_GLOBAL__N_112print_stringEPKcP6Status+0x108>
     3d7: 86 14        	stx	$14                     ; 0x2014 <_ZN12_GLOBAL__N_112print_stringEPKcP6Status+0x103>
     3d9: a4 18        	ldy	$18                     ; 0x2018 <_ZN12_GLOBAL__N_112print_stringEPKcP6Status+0x107>
     3db: 84 15        	sty	$15                     ; 0x2015 <_ZN12_GLOBAL__N_112print_stringEPKcP6Status+0x104>
     3dd: 84 1b        	sty	$1b                     ; 0x201b <_ZN12_GLOBAL__N_112print_stringEPKcP6Status+0x10a>
     3df: a0 02        	ldy	#$2
     3e1: a5 19        	lda	$19                     ; 0x2019 <_ZN12_GLOBAL__N_112print_stringEPKcP6Status+0x108>
     3e3: 91 12        	sta	($12),y                 ; 0x2012 <_ZN12_GLOBAL__N_112print_stringEPKcP6Status+0x101>
     3e5: 88           	dey
     3e6: a5 1b        	lda	$1b                     ; 0x201b <_ZN12_GLOBAL__N_112print_stringEPKcP6Status+0x10a>
     3e8: 91 16        	sta	($16),y                 ; 0x2016 <_ZN12_GLOBAL__N_112print_stringEPKcP6Status+0x105>
     3ea: 18           	clc
     3eb: a5 19        	lda	$19                     ; 0x2019 <_ZN12_GLOBAL__N_112print_stringEPKcP6Status+0x108>
     3ed: 69 04        	adc	#$4
     3ef: 85 18        	sta	$18                     ; 0x2018 <_ZN12_GLOBAL__N_112print_stringEPKcP6Status+0x107>
     3f1: a5 1b        	lda	$1b                     ; 0x201b <_ZN12_GLOBAL__N_112print_stringEPKcP6Status+0x10a>
     3f3: 69 00        	adc	#$0
     3f5: 85 19        	sta	$19                     ; 0x2019 <_ZN12_GLOBAL__N_112print_stringEPKcP6Status+0x108>
     3f7: a0 04        	ldy	#$4
     3f9: b1 14        	lda	($14),y                 ; 0x2014 <_ZN12_GLOBAL__N_112print_stringEPKcP6Status+0x103>
     3fb: 85 14        	sta	$14                     ; 0x2014 <_ZN12_GLOBAL__N_112print_stringEPKcP6Status+0x103>
     3fd: 85 1b        	sta	$1b                     ; 0x201b <_ZN12_GLOBAL__N_112print_stringEPKcP6Status+0x10a>
     3ff: a0 01        	ldy	#$1
     401: b1 18        	lda	($18),y                 ; 0x2018 <_ZN12_GLOBAL__N_112print_stringEPKcP6Status+0x107>
     403: 85 15        	sta	$15                     ; 0x2015 <_ZN12_GLOBAL__N_112print_stringEPKcP6Status+0x104>
     405: a8           	tay
     406: 18           	clc
     407: a5 1b        	lda	$1b                     ; 0x201b <_ZN12_GLOBAL__N_112print_stringEPKcP6Status+0x10a>
     409: 69 02        	adc	#$2
     40b: 85 18        	sta	$18                     ; 0x2018 <_ZN12_GLOBAL__N_112print_stringEPKcP6Status+0x107>
     40d: 98           	tya
     40e: 69 00        	adc	#$0
     410: 85 19        	sta	$19                     ; 0x2019 <_ZN12_GLOBAL__N_112print_stringEPKcP6Status+0x108>
     412: a5 12        	lda	$12                     ; 0x2012 <_ZN12_GLOBAL__N_112print_stringEPKcP6Status+0x101>
     414: a0 02        	ldy	#$2
     416: 91 14        	sta	($14),y                 ; 0x2014 <_ZN12_GLOBAL__N_112print_stringEPKcP6Status+0x103>
     418: a5 1a        	lda	$1a                     ; 0x201a <_ZN12_GLOBAL__N_112print_stringEPKcP6Status+0x109>
     41a: 88           	dey
     41b: 91 18        	sta	($18),y                 ; 0x2018 <_ZN12_GLOBAL__N_112print_stringEPKcP6Status+0x107>
     41d: c8           	iny
     41e: b1 12        	lda	($12),y                 ; 0x2012 <_ZN12_GLOBAL__N_112print_stringEPKcP6Status+0x101>
     420: 85 18        	sta	$18                     ; 0x2018 <_ZN12_GLOBAL__N_112print_stringEPKcP6Status+0x107>
     422: 88           	dey
     423: b1 16        	lda	($16),y                 ; 0x2016 <_ZN12_GLOBAL__N_112print_stringEPKcP6Status+0x105>
     425: 85 16        	sta	$16                     ; 0x2016 <_ZN12_GLOBAL__N_112print_stringEPKcP6Status+0x105>
     427: 18           	clc
     428: a5 18        	lda	$18                     ; 0x2018 <_ZN12_GLOBAL__N_112print_stringEPKcP6Status+0x107>
     42a: 69 04        	adc	#$4
     42c: aa           	tax
     42d: a5 16        	lda	$16                     ; 0x2016 <_ZN12_GLOBAL__N_112print_stringEPKcP6Status+0x105>
     42f: 69 00        	adc	#$0
     431: 86 16        	stx	$16                     ; 0x2016 <_ZN12_GLOBAL__N_112print_stringEPKcP6Status+0x105>
     433: 85 17        	sta	$17                     ; 0x2017 <_ZN12_GLOBAL__N_112print_stringEPKcP6Status+0x106>
     435: 18           	clc
     436: a5 12        	lda	$12                     ; 0x2012 <_ZN12_GLOBAL__N_112print_stringEPKcP6Status+0x101>
     438: 69 04        	adc	#$4
     43a: 85 18        	sta	$18                     ; 0x2018 <_ZN12_GLOBAL__N_112print_stringEPKcP6Status+0x107>
     43c: a5 13        	lda	$13                     ; 0x2013 <_ZN12_GLOBAL__N_112print_stringEPKcP6Status+0x102>
     43e: 69 00        	adc	#$0
     440: a0 04        	ldy	#$4
     442: 85 19        	sta	$19                     ; 0x2019 <_ZN12_GLOBAL__N_112print_stringEPKcP6Status+0x108>
     444: a5 14        	lda	$14                     ; 0x2014 <_ZN12_GLOBAL__N_112print_stringEPKcP6Status+0x103>
     446: 91 12        	sta	($12),y                 ; 0x2012 <_ZN12_GLOBAL__N_112print_stringEPKcP6Status+0x101>
     448: a5 15        	lda	$15                     ; 0x2015 <_ZN12_GLOBAL__N_112print_stringEPKcP6Status+0x104>
     44a: a0 01        	ldy	#$1
     44c: 91 18        	sta	($18),y                 ; 0x2018 <_ZN12_GLOBAL__N_112print_stringEPKcP6Status+0x107>
     44e: a5 13        	lda	$13                     ; 0x2013 <_ZN12_GLOBAL__N_112print_stringEPKcP6Status+0x102>
     450: 91 16        	sta	($16),y                 ; 0x2016 <_ZN12_GLOBAL__N_112print_stringEPKcP6Status+0x105>
     452: a5 12        	lda	$12                     ; 0x2012 <_ZN12_GLOBAL__N_112print_stringEPKcP6Status+0x101>
     454: 92 16        	sta	($16)                   ; 0x2016 <_ZN12_GLOBAL__N_112print_stringEPKcP6Status+0x105>
     456: 60           	rts

00000457 <__zero_bss>:
     457: a2 e5        	ldx	#$e5
     459: a0 01        	ldy	#$1
     45b: a9 20        	lda	#$20
     45d: 85 12        	sta	$12                     ; 0x2012 <_ZN12_GLOBAL__N_112print_stringEPKcP6Status+0x101>
     45f: a9 54        	lda	#$54
     461: 85 13        	sta	$13                     ; 0x2013 <_ZN12_GLOBAL__N_112print_stringEPKcP6Status+0x102>
     463: a9 00        	lda	#$0
     465: 84 14        	sty	$14                     ; 0x2014 <_ZN12_GLOBAL__N_112print_stringEPKcP6Status+0x103>
     467: 4c b2 2e     	jmp	$2eb2 <__memset>

0000046a <__zero_zp_bss>:
     46a: a2 4e        	ldx	#$4e
     46c: a0 00        	ldy	#$0
     46e: a9 36        	lda	#$36
     470: 85 12        	sta	$12                     ; 0x2012 <_ZN12_GLOBAL__N_112print_stringEPKcP6Status+0x101>
     472: a9 00        	lda	#$0
     474: 85 13        	sta	$13                     ; 0x2013 <_ZN12_GLOBAL__N_112print_stringEPKcP6Status+0x102>
     476: a9 00        	lda	#$0
     478: 84 14        	sty	$14                     ; 0x2014 <_ZN12_GLOBAL__N_112print_stringEPKcP6Status+0x103>
     47a: 4c b2 2e     	jmp	$2eb2 <__memset>

0000047d <__copy_zp_data>:
     47d: a9 06        	lda	#$6
     47f: a2 00        	ldx	#$0
     481: a0 30        	ldy	#$30
     483: 84 12        	sty	$12                     ; 0x2012 <_ZN12_GLOBAL__N_112print_stringEPKcP6Status+0x101>
     485: a0 00        	ldy	#$0
     487: 84 13        	sty	$13                     ; 0x2013 <_ZN12_GLOBAL__N_112print_stringEPKcP6Status+0x102>
     489: a0 00        	ldy	#$0
     48b: 84 14        	sty	$14                     ; 0x2014 <_ZN12_GLOBAL__N_112print_stringEPKcP6Status+0x103>
     48d: a0 03        	ldy	#$3
     48f: 84 15        	sty	$15                     ; 0x2015 <_ZN12_GLOBAL__N_112print_stringEPKcP6Status+0x104>
     491: 4c 86 2e     	jmp	$2e86 <memcpy>

00000494 <f256Init>:
     494: 64 14        	stz	$14                     ; 0x2014 <_ZN12_GLOBAL__N_112print_stringEPKcP6Status+0x103>
     496: a2 00        	ldx	#$0
     498: 86 12        	stx	$12                     ; 0x2012 <_ZN12_GLOBAL__N_112print_stringEPKcP6Status+0x101>
     49a: a2 c0        	ldx	#$c0
     49c: 86 13        	stx	$13                     ; 0x2013 <_ZN12_GLOBAL__N_112print_stringEPKcP6Status+0x102>
     49e: 64 01        	stz	$1                      ; 0x2001 <_ZN12_GLOBAL__N_112print_stringEPKcP6Status+0xf0>
     4a0: a2 3f        	ldx	#$3f
     4a2: 8e 00 d0     	stx	$d000                   ; 0xd000 <__heap_start+0x79fa>
     4a5: a2 b3        	ldx	#$b3
     4a7: 86 00        	stx	$0                      ; 0x2000 <_ZN12_GLOBAL__N_112print_stringEPKcP6Status+0xef>
     4a9: 64 08        	stz	$8                      ; 0x2008 <_ZN12_GLOBAL__N_112print_stringEPKcP6Status+0xf7>
     4ab: a2 01        	ldx	#$1
     4ad: 86 09        	stx	$9                      ; 0x2009 <_ZN12_GLOBAL__N_112print_stringEPKcP6Status+0xf8>
     4af: e8           	inx
     4b0: 86 0a        	stx	$a                      ; 0x200a <_ZN12_GLOBAL__N_112print_stringEPKcP6Status+0xf9>
     4b2: e8           	inx
     4b3: 86 0b        	stx	$b                      ; 0x200b <_ZN12_GLOBAL__N_112print_stringEPKcP6Status+0xfa>
     4b5: e8           	inx
     4b6: 86 0c        	stx	$c                      ; 0x200c <_ZN12_GLOBAL__N_112print_stringEPKcP6Status+0xfb>
     4b8: e8           	inx
     4b9: 86 0d        	stx	$d                      ; 0x200d <_ZN12_GLOBAL__N_112print_stringEPKcP6Status+0xfc>
     4bb: a2 7c        	ldx	#$7c
     4bd: a0 00        	ldy	#$0
     4bf: 86 f0        	stx	$f0                     ; 0x20f0 <printf+0xd2>
     4c1: 84 f1        	sty	$f1                     ; 0x20f1 <printf+0xd3>
     4c3: a2 00        	ldx	#$0
     4c5: 86 18        	stx	$18                     ; 0x2018 <_ZN12_GLOBAL__N_112print_stringEPKcP6Status+0x107>
     4c7: ca           	dex
     4c8: 86 19        	stx	$19                     ; 0x2019 <_ZN12_GLOBAL__N_112print_stringEPKcP6Status+0x108>
     4ca: 8a           	txa
     4cb: 0a           	asl
     4cc: 0a           	asl
     4cd: 18           	clc
     4ce: 69 d4        	adc	#$d4
     4d0: 85 1a        	sta	$1a                     ; 0x201a <_ZN12_GLOBAL__N_112print_stringEPKcP6Status+0x109>
     4d2: a0 00        	ldy	#$0
     4d4: 64 17        	stz	$17                     ; 0x2017 <_ZN12_GLOBAL__N_112print_stringEPKcP6Status+0x106>
     4d6: 64 16        	stz	$16                     ; 0x2016 <_ZN12_GLOBAL__N_112print_stringEPKcP6Status+0x105>
     4d8: a6 19        	ldx	$19                     ; 0x2019 <_ZN12_GLOBAL__N_112print_stringEPKcP6Status+0x108>
     4da: e0 03        	cpx	#$3
     4dc: a6 01        	ldx	$1                      ; 0x2001 <_ZN12_GLOBAL__N_112print_stringEPKcP6Status+0xf0>
     4de: 86 1c        	stx	$1c                     ; 0x201c <_ZN12_GLOBAL__N_112print_stringEPKcP6Status+0x10b>
     4e0: a2 d0        	ldx	#$d0
     4e2: 84 1b        	sty	$1b                     ; 0x201b <_ZN12_GLOBAL__N_112print_stringEPKcP6Status+0x10a>
     4e4: b0 02        	bcs	$4e8 <f256Init+0x54>
     4e6: a6 1a        	ldx	$1a                     ; 0x201a <_ZN12_GLOBAL__N_112print_stringEPKcP6Status+0x109>
     4e8: 86 15        	stx	$15                     ; 0x2015 <_ZN12_GLOBAL__N_112print_stringEPKcP6Status+0x104>
     4ea: a5 17        	lda	$17                     ; 0x2017 <_ZN12_GLOBAL__N_112print_stringEPKcP6Status+0x106>
     4ec: 18           	clc
     4ed: 65 14        	adc	$14                     ; 0x2014 <_ZN12_GLOBAL__N_112print_stringEPKcP6Status+0x103>
     4ef: a8           	tay
     4f0: a6 17        	ldx	$17                     ; 0x2017 <_ZN12_GLOBAL__N_112print_stringEPKcP6Status+0x106>
     4f2: a5 16        	lda	$16                     ; 0x2016 <_ZN12_GLOBAL__N_112print_stringEPKcP6Status+0x105>
     4f4: 85 1d        	sta	$1d                     ; 0x201d <_ZN12_GLOBAL__N_112print_stringEPKcP6Status+0x10c>
     4f6: a5 16        	lda	$16                     ; 0x2016 <_ZN12_GLOBAL__N_112print_stringEPKcP6Status+0x105>
     4f8: 65 15        	adc	$15                     ; 0x2015 <_ZN12_GLOBAL__N_112print_stringEPKcP6Status+0x104>
     4fa: 84 16        	sty	$16                     ; 0x2016 <_ZN12_GLOBAL__N_112print_stringEPKcP6Status+0x105>
     4fc: a0 01        	ldy	#$1
     4fe: 84 01        	sty	$1                      ; 0x2001 <_ZN12_GLOBAL__N_112print_stringEPKcP6Status+0xf0>
     500: 85 17        	sta	$17                     ; 0x2017 <_ZN12_GLOBAL__N_112print_stringEPKcP6Status+0x106>
     502: a5 1b        	lda	$1b                     ; 0x201b <_ZN12_GLOBAL__N_112print_stringEPKcP6Status+0x10a>
     504: 92 16        	sta	($16)                   ; 0x2016 <_ZN12_GLOBAL__N_112print_stringEPKcP6Status+0x105>
     506: 91 16        	sta	($16),y                 ; 0x2016 <_ZN12_GLOBAL__N_112print_stringEPKcP6Status+0x105>
     508: c8           	iny
     509: 91 16        	sta	($16),y                 ; 0x2016 <_ZN12_GLOBAL__N_112print_stringEPKcP6Status+0x105>
     50b: 85 15        	sta	$15                     ; 0x2015 <_ZN12_GLOBAL__N_112print_stringEPKcP6Status+0x104>
     50d: c8           	iny
     50e: a9 ff        	lda	#$ff
     510: 91 16        	sta	($16),y                 ; 0x2016 <_ZN12_GLOBAL__N_112print_stringEPKcP6Status+0x105>
     512: 8a           	txa
     513: a6 1c        	ldx	$1c                     ; 0x201c <_ZN12_GLOBAL__N_112print_stringEPKcP6Status+0x10b>
     515: 86 01        	stx	$1                      ; 0x2001 <_ZN12_GLOBAL__N_112print_stringEPKcP6Status+0xf0>
     517: 18           	clc
     518: 69 04        	adc	#$4
     51a: 85 17        	sta	$17                     ; 0x2017 <_ZN12_GLOBAL__N_112print_stringEPKcP6Status+0x106>
     51c: a5 1d        	lda	$1d                     ; 0x201d <_ZN12_GLOBAL__N_112print_stringEPKcP6Status+0x10c>
     51e: 69 00        	adc	#$0
     520: e6 15        	inc	$15                     ; 0x2015 <_ZN12_GLOBAL__N_112print_stringEPKcP6Status+0x104>
     522: a4 15        	ldy	$15                     ; 0x2015 <_ZN12_GLOBAL__N_112print_stringEPKcP6Status+0x104>
     524: 85 16        	sta	$16                     ; 0x2016 <_ZN12_GLOBAL__N_112print_stringEPKcP6Status+0x105>
     526: c9 04        	cmp	#$4
     528: f0 03        	beq	$52d <f256Init+0x99>
     52a: 4c d8 04     	jmp	$4d8 <f256Init+0x44>
     52d: a5 17        	lda	$17                     ; 0x2017 <_ZN12_GLOBAL__N_112print_stringEPKcP6Status+0x106>
     52f: f0 03        	beq	$534 <f256Init+0xa0>
     531: 4c d8 04     	jmp	$4d8 <f256Init+0x44>
     534: a6 18        	ldx	$18                     ; 0x2018 <_ZN12_GLOBAL__N_112print_stringEPKcP6Status+0x107>
     536: e8           	inx
     537: e0 04        	cpx	#$4
     539: f0 03        	beq	$53e <f256Init+0xaa>
     53b: 4c c5 04     	jmp	$4c5 <f256Init+0x31>
     53e: ad 02 d0     	lda	$d002                   ; 0xd002 <__heap_start+0x79fc>
     541: 29 f0        	and	#$f0
     543: 8d 02 d0     	sta	$d002                   ; 0xd002 <__heap_start+0x79fc>
     546: ad 02 d0     	lda	$d002                   ; 0xd002 <__heap_start+0x79fc>
     549: 29 0f        	and	#$f
     54b: 09 10        	ora	#$10
     54d: 8d 02 d0     	sta	$d002                   ; 0xd002 <__heap_start+0x79fc>
     550: a2 02        	ldx	#$2
     552: 8e 03 d0     	stx	$d003                   ; 0xd003 <__heap_start+0x79fd>
     555: 64 36        	stz	$36                     ; 0x2036 <printf+0x18>
     557: ad 01 d0     	lda	$d001                   ; 0xd001 <__heap_start+0x79fb>
     55a: 29 f9        	and	#$f9
     55c: 09 04        	ora	#$4
     55e: 8d 01 d0     	sta	$d001                   ; 0xd001 <__heap_start+0x79fb>
     561: 64 14        	stz	$14                     ; 0x2014 <_ZN12_GLOBAL__N_112print_stringEPKcP6Status+0x103>
     563: 9c 10 d0     	stz	$d010                   ; 0xd010 <__heap_start+0x7a0a>
     566: a2 00        	ldx	#$0
     568: 64 15        	stz	$15                     ; 0x2015 <_ZN12_GLOBAL__N_112print_stringEPKcP6Status+0x104>
     56a: 86 18        	stx	$18                     ; 0x2018 <_ZN12_GLOBAL__N_112print_stringEPKcP6Status+0x107>
     56c: a4 18        	ldy	$18                     ; 0x2018 <_ZN12_GLOBAL__N_112print_stringEPKcP6Status+0x107>
     56e: be 56 2f     	ldx	$2f56,y                 ; 0x2f56 <textColors>
     571: 86 19        	stx	$19                     ; 0x2019 <_ZN12_GLOBAL__N_112print_stringEPKcP6Status+0x108>
     573: be 57 2f     	ldx	$2f57,y                 ; 0x2f57 <textColors+0x1>
     576: 86 1a        	stx	$1a                     ; 0x201a <_ZN12_GLOBAL__N_112print_stringEPKcP6Status+0x109>
     578: be 58 2f     	ldx	$2f58,y                 ; 0x2f58 <textColors+0x2>
     57b: 86 1b        	stx	$1b                     ; 0x201b <_ZN12_GLOBAL__N_112print_stringEPKcP6Status+0x10a>
     57d: a6 15        	ldx	$15                     ; 0x2015 <_ZN12_GLOBAL__N_112print_stringEPKcP6Status+0x104>
     57f: 8e 00 de     	stx	$de00                   ; 0xde00 <__heap_start+0x87fa>
     582: 86 17        	stx	$17                     ; 0x2017 <_ZN12_GLOBAL__N_112print_stringEPKcP6Status+0x106>
     584: 9c 01 de     	stz	$de01                   ; 0xde01 <__heap_start+0x87fb>
     587: a2 04        	ldx	#$4
     589: 8e 02 de     	stx	$de02                   ; 0xde02 <__heap_start+0x87fc>
     58c: 9c 03 de     	stz	$de03                   ; 0xde03 <__heap_start+0x87fd>
     58f: ad 10 de     	lda	$de10                   ; 0xde10 <__heap_start+0x880a>
     592: ac 11 de     	ldy	$de11                   ; 0xde11 <__heap_start+0x880b>
     595: 84 15        	sty	$15                     ; 0x2015 <_ZN12_GLOBAL__N_112print_stringEPKcP6Status+0x104>
     597: ac 12 de     	ldy	$de12                   ; 0xde12 <__heap_start+0x880c>
     59a: ac 13 de     	ldy	$de13                   ; 0xde13 <__heap_start+0x880d>
     59d: 18           	clc
     59e: 65 14        	adc	$14                     ; 0x2014 <_ZN12_GLOBAL__N_112print_stringEPKcP6Status+0x103>
     5a0: 85 16        	sta	$16                     ; 0x2016 <_ZN12_GLOBAL__N_112print_stringEPKcP6Status+0x105>
     5a2: a6 17        	ldx	$17                     ; 0x2017 <_ZN12_GLOBAL__N_112print_stringEPKcP6Status+0x106>
     5a4: a9 d8        	lda	#$d8
     5a6: 65 15        	adc	$15                     ; 0x2015 <_ZN12_GLOBAL__N_112print_stringEPKcP6Status+0x104>
     5a8: 85 17        	sta	$17                     ; 0x2017 <_ZN12_GLOBAL__N_112print_stringEPKcP6Status+0x106>
     5aa: a5 1b        	lda	$1b                     ; 0x201b <_ZN12_GLOBAL__N_112print_stringEPKcP6Status+0x10a>
     5ac: 92 16        	sta	($16)                   ; 0x2016 <_ZN12_GLOBAL__N_112print_stringEPKcP6Status+0x105>
     5ae: a0 01        	ldy	#$1
     5b0: a5 1a        	lda	$1a                     ; 0x201a <_ZN12_GLOBAL__N_112print_stringEPKcP6Status+0x109>
     5b2: 91 16        	sta	($16),y                 ; 0x2016 <_ZN12_GLOBAL__N_112print_stringEPKcP6Status+0x105>
     5b4: c8           	iny
     5b5: a5 19        	lda	$19                     ; 0x2019 <_ZN12_GLOBAL__N_112print_stringEPKcP6Status+0x108>
     5b7: 91 16        	sta	($16),y                 ; 0x2016 <_ZN12_GLOBAL__N_112print_stringEPKcP6Status+0x105>
     5b9: c8           	iny
     5ba: a9 ff        	lda	#$ff
     5bc: 91 16        	sta	($16),y                 ; 0x2016 <_ZN12_GLOBAL__N_112print_stringEPKcP6Status+0x105>
     5be: 8e 00 de     	stx	$de00                   ; 0xde00 <__heap_start+0x87fa>
     5c1: 9c 01 de     	stz	$de01                   ; 0xde01 <__heap_start+0x87fb>
     5c4: c8           	iny
     5c5: 8c 02 de     	sty	$de02                   ; 0xde02 <__heap_start+0x87fc>
     5c8: 9c 03 de     	stz	$de03                   ; 0xde03 <__heap_start+0x87fd>
     5cb: ad 10 de     	lda	$de10                   ; 0xde10 <__heap_start+0x880a>
     5ce: 85 15        	sta	$15                     ; 0x2015 <_ZN12_GLOBAL__N_112print_stringEPKcP6Status+0x104>
     5d0: ad 11 de     	lda	$de11                   ; 0xde11 <__heap_start+0x880b>
     5d3: 85 16        	sta	$16                     ; 0x2016 <_ZN12_GLOBAL__N_112print_stringEPKcP6Status+0x105>
     5d5: a9 40        	lda	#$40
     5d7: 18           	clc
     5d8: 65 15        	adc	$15                     ; 0x2015 <_ZN12_GLOBAL__N_112print_stringEPKcP6Status+0x104>
     5da: a8           	tay
     5db: a9 d8        	lda	#$d8
     5dd: 65 16        	adc	$16                     ; 0x2016 <_ZN12_GLOBAL__N_112print_stringEPKcP6Status+0x105>
     5df: 85 17        	sta	$17                     ; 0x2017 <_ZN12_GLOBAL__N_112print_stringEPKcP6Status+0x106>
     5e1: 84 16        	sty	$16                     ; 0x2016 <_ZN12_GLOBAL__N_112print_stringEPKcP6Status+0x105>
     5e3: ad 12 de     	lda	$de12                   ; 0xde12 <__heap_start+0x880c>
     5e6: ad 13 de     	lda	$de13                   ; 0xde13 <__heap_start+0x880d>
     5e9: a5 1b        	lda	$1b                     ; 0x201b <_ZN12_GLOBAL__N_112print_stringEPKcP6Status+0x10a>
     5eb: 92 16        	sta	($16)                   ; 0x2016 <_ZN12_GLOBAL__N_112print_stringEPKcP6Status+0x105>
     5ed: a5 1a        	lda	$1a                     ; 0x201a <_ZN12_GLOBAL__N_112print_stringEPKcP6Status+0x109>
     5ef: a0 01        	ldy	#$1
     5f1: 91 16        	sta	($16),y                 ; 0x2016 <_ZN12_GLOBAL__N_112print_stringEPKcP6Status+0x105>
     5f3: a5 19        	lda	$19                     ; 0x2019 <_ZN12_GLOBAL__N_112print_stringEPKcP6Status+0x108>
     5f5: c8           	iny
     5f6: 91 16        	sta	($16),y                 ; 0x2016 <_ZN12_GLOBAL__N_112print_stringEPKcP6Status+0x105>
     5f8: c8           	iny
     5f9: a9 ff        	lda	#$ff
     5fb: 91 16        	sta	($16),y                 ; 0x2016 <_ZN12_GLOBAL__N_112print_stringEPKcP6Status+0x105>
     5fd: e8           	inx
     5fe: 86 15        	stx	$15                     ; 0x2015 <_ZN12_GLOBAL__N_112print_stringEPKcP6Status+0x104>
     600: 18           	clc
     601: a5 18        	lda	$18                     ; 0x2018 <_ZN12_GLOBAL__N_112print_stringEPKcP6Status+0x107>
     603: 69 03        	adc	#$3
     605: aa           	tax
     606: c9 30        	cmp	#$30
     608: f0 03        	beq	$60d <f256Init+0x179>
     60a: 4c 6a 05     	jmp	$56a <f256Init+0xd6>
     60d: a6 01        	ldx	$1                      ; 0x2001 <_ZN12_GLOBAL__N_112print_stringEPKcP6Status+0xf0>
     60f: 86 18        	stx	$18                     ; 0x2018 <_ZN12_GLOBAL__N_112print_stringEPKcP6Status+0x107>
     611: a2 50        	ldx	#$50
     613: 8e 00 de     	stx	$de00                   ; 0xde00 <__heap_start+0x87fa>
     616: 9c 01 de     	stz	$de01                   ; 0xde01 <__heap_start+0x87fb>
     619: a2 1e        	ldx	#$1e
     61b: 8e 02 de     	stx	$de02                   ; 0xde02 <__heap_start+0x87fc>
     61e: 9c 03 de     	stz	$de03                   ; 0xde03 <__heap_start+0x87fd>
     621: ae 10 de     	ldx	$de10                   ; 0xde10 <__heap_start+0x880a>
     624: ac 11 de     	ldy	$de11                   ; 0xde11 <__heap_start+0x880b>
     627: ad 12 de     	lda	$de12                   ; 0xde12 <__heap_start+0x880c>
     62a: ad 13 de     	lda	$de13                   ; 0xde13 <__heap_start+0x880d>
     62d: a9 02        	lda	#$2
     62f: 85 01        	sta	$1                      ; 0x2001 <_ZN12_GLOBAL__N_112print_stringEPKcP6Status+0xf0>
     631: e0 01        	cpx	#$1
     633: 98           	tya
     634: e9 00        	sbc	#$0
     636: 50 02        	bvc	$63a <f256Init+0x1a6>
     638: 49 80        	eor	#$80
     63a: c9 00        	cmp	#$0
     63c: 10 03        	bpl	$641 <f256Init+0x1ad>
     63e: 4c 9a 06     	jmp	$69a <f256Init+0x206>
     641: a9 20        	lda	#$20
     643: 86 19        	stx	$19                     ; 0x2019 <_ZN12_GLOBAL__N_112print_stringEPKcP6Status+0x108>
     645: 86 14        	stx	$14                     ; 0x2014 <_ZN12_GLOBAL__N_112print_stringEPKcP6Status+0x103>
     647: 84 15        	sty	$15                     ; 0x2015 <_ZN12_GLOBAL__N_112print_stringEPKcP6Status+0x104>
     649: a2 00        	ldx	#$0
     64b: 86 16        	stx	$16                     ; 0x2016 <_ZN12_GLOBAL__N_112print_stringEPKcP6Status+0x105>
     64d: a2 c0        	ldx	#$c0
     64f: 86 17        	stx	$17                     ; 0x2017 <_ZN12_GLOBAL__N_112print_stringEPKcP6Status+0x106>
     651: 92 16        	sta	($16)                   ; 0x2016 <_ZN12_GLOBAL__N_112print_stringEPKcP6Status+0x105>
     653: e6 16        	inc	$16                     ; 0x2016 <_ZN12_GLOBAL__N_112print_stringEPKcP6Status+0x105>
     655: d0 02        	bne	$659 <f256Init+0x1c5>
     657: e6 17        	inc	$17                     ; 0x2017 <_ZN12_GLOBAL__N_112print_stringEPKcP6Status+0x106>
     659: a2 ff        	ldx	#$ff
     65b: c6 14        	dec	$14                     ; 0x2014 <_ZN12_GLOBAL__N_112print_stringEPKcP6Status+0x103>
     65d: e4 14        	cpx	$14                     ; 0x2014 <_ZN12_GLOBAL__N_112print_stringEPKcP6Status+0x103>
     65f: d0 02        	bne	$663 <f256Init+0x1cf>
     661: c6 15        	dec	$15                     ; 0x2015 <_ZN12_GLOBAL__N_112print_stringEPKcP6Status+0x104>
     663: a6 15        	ldx	$15                     ; 0x2015 <_ZN12_GLOBAL__N_112print_stringEPKcP6Status+0x104>
     665: d0 ea        	bne	$651 <f256Init+0x1bd>
     667: a6 14        	ldx	$14                     ; 0x2014 <_ZN12_GLOBAL__N_112print_stringEPKcP6Status+0x103>
     669: d0 e6        	bne	$651 <f256Init+0x1bd>
     66b: a2 03        	ldx	#$3
     66d: 86 01        	stx	$1                      ; 0x2001 <_ZN12_GLOBAL__N_112print_stringEPKcP6Status+0xf0>
     66f: a5 36        	lda	$36                     ; 0x2036 <printf+0x18>
     671: 29 01        	and	#$1
     673: aa           	tax
     674: a9 40        	lda	#$40
     676: e0 00        	cpx	#$0
     678: d0 02        	bne	$67c <f256Init+0x1e8>
     67a: a9 f0        	lda	#$f0
     67c: a6 19        	ldx	$19                     ; 0x2019 <_ZN12_GLOBAL__N_112print_stringEPKcP6Status+0x108>
     67e: 92 12        	sta	($12)                   ; 0x2012 <_ZN12_GLOBAL__N_112print_stringEPKcP6Status+0x101>
     680: e6 12        	inc	$12                     ; 0x2012 <_ZN12_GLOBAL__N_112print_stringEPKcP6Status+0x101>
     682: d0 02        	bne	$686 <f256Init+0x1f2>
     684: e6 13        	inc	$13                     ; 0x2013 <_ZN12_GLOBAL__N_112print_stringEPKcP6Status+0x102>
     686: 85 14        	sta	$14                     ; 0x2014 <_ZN12_GLOBAL__N_112print_stringEPKcP6Status+0x103>
     688: ca           	dex
     689: e0 ff        	cpx	#$ff
     68b: d0 01        	bne	$68e <f256Init+0x1fa>
     68d: 88           	dey
     68e: a5 14        	lda	$14                     ; 0x2014 <_ZN12_GLOBAL__N_112print_stringEPKcP6Status+0x103>
     690: c0 00        	cpy	#$0
     692: d0 ea        	bne	$67e <f256Init+0x1ea>
     694: e0 00        	cpx	#$0
     696: d0 e6        	bne	$67e <f256Init+0x1ea>
     698: 80 04        	bra	$69e <f256Init+0x20a>
     69a: a2 03        	ldx	#$3
     69c: 86 01        	stx	$1                      ; 0x2001 <_ZN12_GLOBAL__N_112print_stringEPKcP6Status+0xf0>
     69e: a6 18        	ldx	$18                     ; 0x2018 <_ZN12_GLOBAL__N_112print_stringEPKcP6Status+0x107>
     6a0: 86 01        	stx	$1                      ; 0x2001 <_ZN12_GLOBAL__N_112print_stringEPKcP6Status+0xf0>
     6a2: 64 37        	stz	$37                     ; 0x2037 <printf+0x19>
     6a4: 9c 14 d0     	stz	$d014                   ; 0xd014 <__heap_start+0x7a0e>
     6a7: 9c 15 d0     	stz	$d015                   ; 0xd015 <__heap_start+0x7a0f>
     6aa: 64 38        	stz	$38                     ; 0x2038 <printf+0x1a>
     6ac: 9c 16 d0     	stz	$d016                   ; 0xd016 <__heap_start+0x7a10>
     6af: 9c 17 d0     	stz	$d017                   ; 0xd017 <__heap_start+0x7a11>
     6b2: a2 40        	ldx	#$40
     6b4: 8e 00 de     	stx	$de00                   ; 0xde00 <__heap_start+0x87fa>
     6b7: a2 01        	ldx	#$1
     6b9: 8e 01 de     	stx	$de01                   ; 0xde01 <__heap_start+0x87fb>
     6bc: a2 f0        	ldx	#$f0
     6be: 8e 02 de     	stx	$de02                   ; 0xde02 <__heap_start+0x87fc>
     6c1: 9c 03 de     	stz	$de03                   ; 0xde03 <__heap_start+0x87fd>
     6c4: ae 10 de     	ldx	$de10                   ; 0xde10 <__heap_start+0x880a>
     6c7: 86 17        	stx	$17                     ; 0x2017 <_ZN12_GLOBAL__N_112print_stringEPKcP6Status+0x106>
     6c9: ae 11 de     	ldx	$de11                   ; 0xde11 <__heap_start+0x880b>
     6cc: 86 12        	stx	$12                     ; 0x2012 <_ZN12_GLOBAL__N_112print_stringEPKcP6Status+0x101>
     6ce: ae 12 de     	ldx	$de12                   ; 0xde12 <__heap_start+0x880c>
     6d1: 86 13        	stx	$13                     ; 0x2013 <_ZN12_GLOBAL__N_112print_stringEPKcP6Status+0x102>
     6d3: ae 13 de     	ldx	$de13                   ; 0xde13 <__heap_start+0x880d>
     6d6: 86 14        	stx	$14                     ; 0x2014 <_ZN12_GLOBAL__N_112print_stringEPKcP6Status+0x103>
     6d8: a4 12        	ldy	$12                     ; 0x2012 <_ZN12_GLOBAL__N_112print_stringEPKcP6Status+0x101>
     6da: 84 15        	sty	$15                     ; 0x2015 <_ZN12_GLOBAL__N_112print_stringEPKcP6Status+0x104>
     6dc: 06 15        	asl	$15                     ; 0x2015 <_ZN12_GLOBAL__N_112print_stringEPKcP6Status+0x104>
     6de: a5 13        	lda	$13                     ; 0x2013 <_ZN12_GLOBAL__N_112print_stringEPKcP6Status+0x102>
     6e0: 2a           	rol
     6e1: 86 16        	stx	$16                     ; 0x2016 <_ZN12_GLOBAL__N_112print_stringEPKcP6Status+0x105>
     6e3: 26 16        	rol	$16                     ; 0x2016 <_ZN12_GLOBAL__N_112print_stringEPKcP6Status+0x105>
     6e5: 06 15        	asl	$15                     ; 0x2015 <_ZN12_GLOBAL__N_112print_stringEPKcP6Status+0x104>
     6e7: 2a           	rol
     6e8: 26 16        	rol	$16                     ; 0x2016 <_ZN12_GLOBAL__N_112print_stringEPKcP6Status+0x105>
     6ea: 06 15        	asl	$15                     ; 0x2015 <_ZN12_GLOBAL__N_112print_stringEPKcP6Status+0x104>
     6ec: 2a           	rol
     6ed: 26 16        	rol	$16                     ; 0x2016 <_ZN12_GLOBAL__N_112print_stringEPKcP6Status+0x105>
     6ef: 85 15        	sta	$15                     ; 0x2015 <_ZN12_GLOBAL__N_112print_stringEPKcP6Status+0x104>
     6f1: 8d 00 de     	sta	$de00                   ; 0xde00 <__heap_start+0x87fa>
     6f4: a5 16        	lda	$16                     ; 0x2016 <_ZN12_GLOBAL__N_112print_stringEPKcP6Status+0x105>
     6f6: 8d 01 de     	sta	$de01                   ; 0xde01 <__heap_start+0x87fb>
     6f9: 9c 02 de     	stz	$de02                   ; 0xde02 <__heap_start+0x87fc>
     6fc: a2 20        	ldx	#$20
     6fe: 8e 03 de     	stx	$de03                   ; 0xde03 <__heap_start+0x87fd>
     701: ae 10 de     	ldx	$de10                   ; 0xde10 <__heap_start+0x880a>
     704: 86 16        	stx	$16                     ; 0x2016 <_ZN12_GLOBAL__N_112print_stringEPKcP6Status+0x105>
     706: ae 11 de     	ldx	$de11                   ; 0xde11 <__heap_start+0x880b>
     709: 86 18        	stx	$18                     ; 0x2018 <_ZN12_GLOBAL__N_112print_stringEPKcP6Status+0x107>
     70b: ac 12 de     	ldy	$de12                   ; 0xde12 <__heap_start+0x880c>
     70e: ae 13 de     	ldx	$de13                   ; 0xde13 <__heap_start+0x880d>
     711: e4 14        	cpx	$14                     ; 0x2014 <_ZN12_GLOBAL__N_112print_stringEPKcP6Status+0x103>
     713: d0 14        	bne	$729 <f256Init+0x295>
     715: c4 13        	cpy	$13                     ; 0x2013 <_ZN12_GLOBAL__N_112print_stringEPKcP6Status+0x102>
     717: d0 10        	bne	$729 <f256Init+0x295>
     719: a6 18        	ldx	$18                     ; 0x2018 <_ZN12_GLOBAL__N_112print_stringEPKcP6Status+0x107>
     71b: e4 12        	cpx	$12                     ; 0x2012 <_ZN12_GLOBAL__N_112print_stringEPKcP6Status+0x101>
     71d: d0 0a        	bne	$729 <f256Init+0x295>
     71f: a6 16        	ldx	$16                     ; 0x2016 <_ZN12_GLOBAL__N_112print_stringEPKcP6Status+0x105>
     721: e4 17        	cpx	$17                     ; 0x2017 <_ZN12_GLOBAL__N_112print_stringEPKcP6Status+0x106>
     723: d0 04        	bne	$729 <f256Init+0x295>
     725: a6 15        	ldx	$15                     ; 0x2015 <_ZN12_GLOBAL__N_112print_stringEPKcP6Status+0x104>
     727: 80 06        	bra	$72f <f256Init+0x29b>
     729: a6 15        	ldx	$15                     ; 0x2015 <_ZN12_GLOBAL__N_112print_stringEPKcP6Status+0x104>
     72b: e8           	inx
     72c: d0 01        	bne	$72f <f256Init+0x29b>
     72e: 1a           	inc
     72f: 8e 00 de     	stx	$de00                   ; 0xde00 <__heap_start+0x87fa>
     732: 8d 01 de     	sta	$de01                   ; 0xde01 <__heap_start+0x87fb>
     735: 9c 02 de     	stz	$de02                   ; 0xde02 <__heap_start+0x87fc>
     738: a2 20        	ldx	#$20
     73a: 8e 03 de     	stx	$de03                   ; 0xde03 <__heap_start+0x87fd>
     73d: ae 10 de     	ldx	$de10                   ; 0xde10 <__heap_start+0x880a>
     740: 86 12        	stx	$12                     ; 0x2012 <_ZN12_GLOBAL__N_112print_stringEPKcP6Status+0x101>
     742: ae 11 de     	ldx	$de11                   ; 0xde11 <__heap_start+0x880b>
     745: 86 13        	stx	$13                     ; 0x2013 <_ZN12_GLOBAL__N_112print_stringEPKcP6Status+0x102>
     747: ae 12 de     	ldx	$de12                   ; 0xde12 <__heap_start+0x880c>
     74a: 86 14        	stx	$14                     ; 0x2014 <_ZN12_GLOBAL__N_112print_stringEPKcP6Status+0x103>
     74c: 38           	sec
     74d: a9 00        	lda	#$0
     74f: e5 12        	sbc	$12                     ; 0x2012 <_ZN12_GLOBAL__N_112print_stringEPKcP6Status+0x101>
     751: a8           	tay
     752: a9 00        	lda	#$0
     754: e5 13        	sbc	$13                     ; 0x2013 <_ZN12_GLOBAL__N_112print_stringEPKcP6Status+0x102>
     756: 85 15        	sta	$15                     ; 0x2015 <_ZN12_GLOBAL__N_112print_stringEPKcP6Status+0x104>
     758: a9 08        	lda	#$8
     75a: e5 14        	sbc	$14                     ; 0x2014 <_ZN12_GLOBAL__N_112print_stringEPKcP6Status+0x103>
     75c: aa           	tax
     75d: 38           	sec
     75e: 98           	tya
     75f: 84 17        	sty	$17                     ; 0x2017 <_ZN12_GLOBAL__N_112print_stringEPKcP6Status+0x106>
     761: e5 12        	sbc	$12                     ; 0x2012 <_ZN12_GLOBAL__N_112print_stringEPKcP6Status+0x101>
     763: 85 16        	sta	$16                     ; 0x2016 <_ZN12_GLOBAL__N_112print_stringEPKcP6Status+0x105>
     765: a5 15        	lda	$15                     ; 0x2015 <_ZN12_GLOBAL__N_112print_stringEPKcP6Status+0x104>
     767: e5 13        	sbc	$13                     ; 0x2013 <_ZN12_GLOBAL__N_112print_stringEPKcP6Status+0x102>
     769: 85 18        	sta	$18                     ; 0x2018 <_ZN12_GLOBAL__N_112print_stringEPKcP6Status+0x107>
     76b: 8a           	txa
     76c: 86 19        	stx	$19                     ; 0x2019 <_ZN12_GLOBAL__N_112print_stringEPKcP6Status+0x108>
     76e: e5 14        	sbc	$14                     ; 0x2014 <_ZN12_GLOBAL__N_112print_stringEPKcP6Status+0x103>
     770: a8           	tay
     771: 38           	sec
     772: a5 16        	lda	$16                     ; 0x2016 <_ZN12_GLOBAL__N_112print_stringEPKcP6Status+0x105>
     774: e5 12        	sbc	$12                     ; 0x2012 <_ZN12_GLOBAL__N_112print_stringEPKcP6Status+0x101>
     776: 85 12        	sta	$12                     ; 0x2012 <_ZN12_GLOBAL__N_112print_stringEPKcP6Status+0x101>
     778: a5 18        	lda	$18                     ; 0x2018 <_ZN12_GLOBAL__N_112print_stringEPKcP6Status+0x107>
     77a: e5 13        	sbc	$13                     ; 0x2013 <_ZN12_GLOBAL__N_112print_stringEPKcP6Status+0x102>
     77c: 85 13        	sta	$13                     ; 0x2013 <_ZN12_GLOBAL__N_112print_stringEPKcP6Status+0x102>
     77e: 98           	tya
     77f: e5 14        	sbc	$14                     ; 0x2014 <_ZN12_GLOBAL__N_112print_stringEPKcP6Status+0x103>
     781: ae 13 de     	ldx	$de13                   ; 0xde13 <__heap_start+0x880d>
     784: a6 17        	ldx	$17                     ; 0x2017 <_ZN12_GLOBAL__N_112print_stringEPKcP6Status+0x106>
     786: 8e 01 d1     	stx	$d101                   ; 0xd101 <__heap_start+0x7afb>
     789: a6 15        	ldx	$15                     ; 0x2015 <_ZN12_GLOBAL__N_112print_stringEPKcP6Status+0x104>
     78b: 8e 02 d1     	stx	$d102                   ; 0xd102 <__heap_start+0x7afc>
     78e: a6 19        	ldx	$19                     ; 0x2019 <_ZN12_GLOBAL__N_112print_stringEPKcP6Status+0x108>
     790: 8e 03 d1     	stx	$d103                   ; 0xd103 <__heap_start+0x7afd>
     793: a6 16        	ldx	$16                     ; 0x2016 <_ZN12_GLOBAL__N_112print_stringEPKcP6Status+0x105>
     795: 8e 09 d1     	stx	$d109                   ; 0xd109 <__heap_start+0x7b03>
     798: a6 18        	ldx	$18                     ; 0x2018 <_ZN12_GLOBAL__N_112print_stringEPKcP6Status+0x107>
     79a: 8e 0a d1     	stx	$d10a                   ; 0xd10a <__heap_start+0x7b04>
     79d: 8c 0b d1     	sty	$d10b                   ; 0xd10b <__heap_start+0x7b05>
     7a0: a6 12        	ldx	$12                     ; 0x2012 <_ZN12_GLOBAL__N_112print_stringEPKcP6Status+0x101>
     7a2: 8e 11 d1     	stx	$d111                   ; 0xd111 <__heap_start+0x7b0b>
     7a5: a6 13        	ldx	$13                     ; 0x2013 <_ZN12_GLOBAL__N_112print_stringEPKcP6Status+0x102>
     7a7: 8e 12 d1     	stx	$d112                   ; 0xd112 <__heap_start+0x7b0c>
     7aa: 8d 13 d1     	sta	$d113                   ; 0xd113 <__heap_start+0x7b0d>
     7ad: 9c 00 d1     	stz	$d100                   ; 0xd100 <__heap_start+0x7afa>
     7b0: 9c 08 d1     	stz	$d108                   ; 0xd108 <__heap_start+0x7b02>
     7b3: 9c 10 d1     	stz	$d110                   ; 0xd110 <__heap_start+0x7b0a>
     7b6: a2 10        	ldx	#$10
     7b8: 8e 00 d2     	stx	$d200                   ; 0xd200 <__heap_start+0x7bfa>
     7bb: 8e 0c d2     	stx	$d20c                   ; 0xd20c <__heap_start+0x7c06>
     7be: 8e 18 d2     	stx	$d218                   ; 0xd218 <__heap_start+0x7c12>
     7c1: a0 d9        	ldy	#$d9
     7c3: 64 12        	stz	$12                     ; 0x2012 <_ZN12_GLOBAL__N_112print_stringEPKcP6Status+0x101>
     7c5: a2 00        	ldx	#$0
     7c7: 84 13        	sty	$13                     ; 0x2013 <_ZN12_GLOBAL__N_112print_stringEPKcP6Status+0x102>
     7c9: b5 39        	lda	$39,x                   ; 0x2039 <printf+0x1b>
     7cb: 92 12        	sta	($12)                   ; 0x2012 <_ZN12_GLOBAL__N_112print_stringEPKcP6Status+0x101>
     7cd: a5 12        	lda	$12                     ; 0x2012 <_ZN12_GLOBAL__N_112print_stringEPKcP6Status+0x101>
     7cf: e8           	inx
     7d0: 18           	clc
     7d1: 69 08        	adc	#$8
     7d3: 85 12        	sta	$12                     ; 0x2012 <_ZN12_GLOBAL__N_112print_stringEPKcP6Status+0x101>
     7d5: 98           	tya
     7d6: 69 00        	adc	#$0
     7d8: a8           	tay
     7d9: e0 40        	cpx	#$40
     7db: d0 ea        	bne	$7c7 <f256Init+0x333>
     7dd: a2 84        	ldx	#$84
     7df: a0 00        	ldy	#$0
     7e1: 86 fb        	stx	$fb                     ; 0x20fb <printf+0xdd>
     7e3: 84 fc        	sty	$fc                     ; 0x20fc <printf+0xde>
     7e5: a2 08        	ldx	#$8
     7e7: 86 fd        	stx	$fd                     ; 0x20fd <printf+0xdf>
     7e9: a2 8c        	ldx	#$8c
     7eb: a0 00        	ldy	#$0
     7ed: 86 12        	stx	$12                     ; 0x2012 <_ZN12_GLOBAL__N_112print_stringEPKcP6Status+0x101>
     7ef: 84 13        	sty	$13                     ; 0x2013 <_ZN12_GLOBAL__N_112print_stringEPKcP6Status+0x102>
     7f1: a2 00        	ldx	#$0
     7f3: 86 14        	stx	$14                     ; 0x2014 <_ZN12_GLOBAL__N_112print_stringEPKcP6Status+0x103>
     7f5: a2 56        	ldx	#$56
     7f7: 86 15        	stx	$15                     ; 0x2015 <_ZN12_GLOBAL__N_112print_stringEPKcP6Status+0x104>
     7f9: 20 dc ff     	jsr	$ffdc <__heap_start+0xa9d6>
     7fc: 92 12        	sta	($12)                   ; 0x2012 <_ZN12_GLOBAL__N_112print_stringEPKcP6Status+0x101>
     7fe: a9 00        	lda	#$0
     800: 6a           	ror
     801: 85 14        	sta	$14                     ; 0x2014 <_ZN12_GLOBAL__N_112print_stringEPKcP6Status+0x103>
     803: a6 8a        	ldx	$8a                     ; 0x208a <printf+0x6c>
     805: a4 8b        	ldy	$8b                     ; 0x208b <printf+0x6d>
     807: 8e 00 de     	stx	$de00                   ; 0xde00 <__heap_start+0x87fa>
     80a: 9c 01 de     	stz	$de01                   ; 0xde01 <__heap_start+0x87fb>
     80d: 8c 02 de     	sty	$de02                   ; 0xde02 <__heap_start+0x87fc>
     810: 9c 03 de     	stz	$de03                   ; 0xde03 <__heap_start+0x87fd>
     813: ae 10 de     	ldx	$de10                   ; 0xde10 <__heap_start+0x880a>
     816: ac 11 de     	ldy	$de11                   ; 0xde11 <__heap_start+0x880b>
     819: ad 12 de     	lda	$de12                   ; 0xde12 <__heap_start+0x880c>
     81c: ad 13 de     	lda	$de13                   ; 0xde13 <__heap_start+0x880d>
     81f: 8e a4 d6     	stx	$d6a4                   ; 0xd6a4 <__heap_start+0x809e>
     822: 8c a5 d6     	sty	$d6a5                   ; 0xd6a5 <__heap_start+0x809f>
     825: a2 03        	ldx	#$3
     827: 8e a6 d6     	stx	$d6a6                   ; 0xd6a6 <__heap_start+0x80a0>
     82a: 60           	rts

0000082b <main>:
     82b: 20 94 04     	jsr	$494 <f256Init>
     82e: 20 31 08     	jsr	$831 <f256main>

00000831 <f256main>:
     831: 18           	clc
     832: a5 10        	lda	$10                     ; 0x2010 <_ZN12_GLOBAL__N_112print_stringEPKcP6Status+0xff>
     834: 69 ff        	adc	#$ff
     836: 85 10        	sta	$10                     ; 0x2010 <_ZN12_GLOBAL__N_112print_stringEPKcP6Status+0xff>
     838: a5 11        	lda	$11                     ; 0x2011 <_ZN12_GLOBAL__N_112print_stringEPKcP6Status+0x100>
     83a: 69 ff        	adc	#$ff
     83c: 85 11        	sta	$11                     ; 0x2011 <_ZN12_GLOBAL__N_112print_stringEPKcP6Status+0x100>
     83e: 64 01        	stz	$1                      ; 0x2001 <_ZN12_GLOBAL__N_112print_stringEPKcP6Status+0xf0>
     840: a2 2f        	ldx	#$2f
     842: 8e 00 d0     	stx	$d000                   ; 0xd000 <__heap_start+0x79fa>
     845: a2 04        	ldx	#$4
     847: 8e 01 d0     	stx	$d001                   ; 0xd001 <__heap_start+0x79fb>
     84a: a2 01        	ldx	#$1
     84c: 8e 02 d0     	stx	$d002                   ; 0xd002 <__heap_start+0x79fc>
     84f: a0 02        	ldy	#$2
     851: 8c 03 d0     	sty	$d003                   ; 0xd003 <__heap_start+0x79fd>
     854: a0 bb        	ldy	#$bb
     856: 8c 0d d0     	sty	$d00d                   ; 0xd00d <__heap_start+0x7a07>
     859: 8c 0e d0     	sty	$d00e                   ; 0xd00e <__heap_start+0x7a08>
     85c: 8c 0f d0     	sty	$d00f                   ; 0xd00f <__heap_start+0x7a09>
     85f: 86 01        	stx	$1                      ; 0x2001 <_ZN12_GLOBAL__N_112print_stringEPKcP6Status+0xf0>
     861: a0 fc        	ldy	#$fc
     863: a9 ff        	lda	#$ff
     865: 85 12        	sta	$12                     ; 0x2012 <_ZN12_GLOBAL__N_112print_stringEPKcP6Status+0x101>
     867: 85 13        	sta	$13                     ; 0x2013 <_ZN12_GLOBAL__N_112print_stringEPKcP6Status+0x102>
     869: a5 0f        	lda	$f                      ; 0x200f <_ZN12_GLOBAL__N_112print_stringEPKcP6Status+0xfe>
     86b: 85 17        	sta	$17                     ; 0x2017 <_ZN12_GLOBAL__N_112print_stringEPKcP6Status+0x106>
     86d: 78           	sei
     86e: a9 08        	lda	#$8
     870: 85 0f        	sta	$f                      ; 0x200f <_ZN12_GLOBAL__N_112print_stringEPKcP6Status+0xfe>
     872: 18           	clc
     873: 8a           	txa
     874: 69 ff        	adc	#$ff
     876: 85 16        	sta	$16                     ; 0x2016 <_ZN12_GLOBAL__N_112print_stringEPKcP6Status+0x105>
     878: a9 01        	lda	#$1
     87a: b0 02        	bcs	$87e <f256main+0x4d>
     87c: a9 00        	lda	#$0
     87e: 85 18        	sta	$18                     ; 0x2018 <_ZN12_GLOBAL__N_112print_stringEPKcP6Status+0x107>
     880: 98           	tya
     881: 69 e3        	adc	#$e3
     883: 5a           	phy
     884: a4 16        	ldy	$16                     ; 0x2016 <_ZN12_GLOBAL__N_112print_stringEPKcP6Status+0x105>
     886: 84 14        	sty	$14                     ; 0x2014 <_ZN12_GLOBAL__N_112print_stringEPKcP6Status+0x103>
     888: 7a           	ply
     889: 85 15        	sta	$15                     ; 0x2015 <_ZN12_GLOBAL__N_112print_stringEPKcP6Status+0x104>
     88b: b2 14        	lda	($14)                   ; 0x2014 <_ZN12_GLOBAL__N_112print_stringEPKcP6Status+0x103>
     88d: 85 19        	sta	$19                     ; 0x2019 <_ZN12_GLOBAL__N_112print_stringEPKcP6Status+0x108>
     88f: a5 17        	lda	$17                     ; 0x2017 <_ZN12_GLOBAL__N_112print_stringEPKcP6Status+0x106>
     891: 85 0f        	sta	$f                      ; 0x200f <_ZN12_GLOBAL__N_112print_stringEPKcP6Status+0xfe>
     893: 98           	tya
     894: 5a           	phy
     895: a4 18        	ldy	$18                     ; 0x2018 <_ZN12_GLOBAL__N_112print_stringEPKcP6Status+0x107>
     897: c0 01        	cpy	#$1
     899: 7a           	ply
     89a: 69 d3        	adc	#$d3
     89c: 58           	cli
     89d: 85 15        	sta	$15                     ; 0x2015 <_ZN12_GLOBAL__N_112print_stringEPKcP6Status+0x104>
     89f: a5 19        	lda	$19                     ; 0x2019 <_ZN12_GLOBAL__N_112print_stringEPKcP6Status+0x108>
     8a1: 92 14        	sta	($14)                   ; 0x2014 <_ZN12_GLOBAL__N_112print_stringEPKcP6Status+0x103>
     8a3: e8           	inx
     8a4: d0 c3        	bne	$869 <f256main+0x38>
     8a6: c8           	iny
     8a7: d0 c0        	bne	$869 <f256main+0x38>
     8a9: e6 12        	inc	$12                     ; 0x2012 <_ZN12_GLOBAL__N_112print_stringEPKcP6Status+0x101>
     8ab: d0 bc        	bne	$869 <f256main+0x38>
     8ad: e6 13        	inc	$13                     ; 0x2013 <_ZN12_GLOBAL__N_112print_stringEPKcP6Status+0x102>
     8af: d0 b8        	bne	$869 <f256main+0x38>
     8b1: 64 01        	stz	$1                      ; 0x2001 <_ZN12_GLOBAL__N_112print_stringEPKcP6Status+0xf0>
     8b3: a0 01        	ldy	#$1
     8b5: 8c 80 d8     	sty	$d880                   ; 0xd880 <__heap_start+0x827a>
     8b8: 9c 00 d1     	stz	$d100                   ; 0xd100 <__heap_start+0x7afa>
     8bb: 9c 08 d1     	stz	$d108                   ; 0xd108 <__heap_start+0x7b02>
     8be: 9c 10 d1     	stz	$d110                   ; 0xd110 <__heap_start+0x7b0a>
     8c1: a2 04        	ldx	#$4
     8c3: 98           	tya
     8c4: 86 12        	stx	$12                     ; 0x2012 <_ZN12_GLOBAL__N_112print_stringEPKcP6Status+0x101>
     8c6: 85 13        	sta	$13                     ; 0x2013 <_ZN12_GLOBAL__N_112print_stringEPKcP6Status+0x102>
     8c8: 64 14        	stz	$14                     ; 0x2014 <_ZN12_GLOBAL__N_112print_stringEPKcP6Status+0x103>
     8ca: 64 15        	stz	$15                     ; 0x2015 <_ZN12_GLOBAL__N_112print_stringEPKcP6Status+0x104>
     8cc: a2 64        	ldx	#$64
     8ce: 86 16        	stx	$16                     ; 0x2016 <_ZN12_GLOBAL__N_112print_stringEPKcP6Status+0x105>
     8d0: 64 17        	stz	$17                     ; 0x2017 <_ZN12_GLOBAL__N_112print_stringEPKcP6Status+0x106>
     8d2: a2 32        	ldx	#$32
     8d4: 86 18        	stx	$18                     ; 0x2018 <_ZN12_GLOBAL__N_112print_stringEPKcP6Status+0x107>
     8d6: 64 19        	stz	$19                     ; 0x2019 <_ZN12_GLOBAL__N_112print_stringEPKcP6Status+0x108>
     8d8: 84 1a        	sty	$1a                     ; 0x201a <_ZN12_GLOBAL__N_112print_stringEPKcP6Status+0x109>
     8da: 64 1b        	stz	$1b                     ; 0x201b <_ZN12_GLOBAL__N_112print_stringEPKcP6Status+0x10a>
     8dc: a2 00        	ldx	#$0
     8de: 8a           	txa
     8df: 20 b1 18     	jsr	$18b1 <mySpriteDefine>
     8e2: a2 08        	ldx	#$8
     8e4: a0 c8        	ldy	#$c8
     8e6: a9 02        	lda	#$2
     8e8: 86 12        	stx	$12                     ; 0x2012 <_ZN12_GLOBAL__N_112print_stringEPKcP6Status+0x101>
     8ea: a2 01        	ldx	#$1
     8ec: 86 13        	stx	$13                     ; 0x2013 <_ZN12_GLOBAL__N_112print_stringEPKcP6Status+0x102>
     8ee: 64 14        	stz	$14                     ; 0x2014 <_ZN12_GLOBAL__N_112print_stringEPKcP6Status+0x103>
     8f0: 85 15        	sta	$15                     ; 0x2015 <_ZN12_GLOBAL__N_112print_stringEPKcP6Status+0x104>
     8f2: 84 16        	sty	$16                     ; 0x2016 <_ZN12_GLOBAL__N_112print_stringEPKcP6Status+0x105>
     8f4: 64 17        	stz	$17                     ; 0x2017 <_ZN12_GLOBAL__N_112print_stringEPKcP6Status+0x106>
     8f6: a2 32        	ldx	#$32
     8f8: 86 18        	stx	$18                     ; 0x2018 <_ZN12_GLOBAL__N_112print_stringEPKcP6Status+0x107>
     8fa: 64 19        	stz	$19                     ; 0x2019 <_ZN12_GLOBAL__N_112print_stringEPKcP6Status+0x108>
     8fc: 3a           	dec
     8fd: 85 1a        	sta	$1a                     ; 0x201a <_ZN12_GLOBAL__N_112print_stringEPKcP6Status+0x109>
     8ff: 64 1b        	stz	$1b                     ; 0x201b <_ZN12_GLOBAL__N_112print_stringEPKcP6Status+0x10a>
     901: a2 00        	ldx	#$0
     903: 20 b1 18     	jsr	$18b1 <mySpriteDefine>
     906: a2 0c        	ldx	#$c
     908: a0 50        	ldy	#$50
     90a: 86 12        	stx	$12                     ; 0x2012 <_ZN12_GLOBAL__N_112print_stringEPKcP6Status+0x101>
     90c: a2 01        	ldx	#$1
     90e: 86 13        	stx	$13                     ; 0x2013 <_ZN12_GLOBAL__N_112print_stringEPKcP6Status+0x102>
     910: 64 14        	stz	$14                     ; 0x2014 <_ZN12_GLOBAL__N_112print_stringEPKcP6Status+0x103>
     912: 64 15        	stz	$15                     ; 0x2015 <_ZN12_GLOBAL__N_112print_stringEPKcP6Status+0x104>
     914: a2 64        	ldx	#$64
     916: 86 16        	stx	$16                     ; 0x2016 <_ZN12_GLOBAL__N_112print_stringEPKcP6Status+0x105>
     918: 64 17        	stz	$17                     ; 0x2017 <_ZN12_GLOBAL__N_112print_stringEPKcP6Status+0x106>
     91a: 84 18        	sty	$18                     ; 0x2018 <_ZN12_GLOBAL__N_112print_stringEPKcP6Status+0x107>
     91c: 64 19        	stz	$19                     ; 0x2019 <_ZN12_GLOBAL__N_112print_stringEPKcP6Status+0x108>
     91e: a2 01        	ldx	#$1
     920: 86 1a        	stx	$1a                     ; 0x201a <_ZN12_GLOBAL__N_112print_stringEPKcP6Status+0x109>
     922: 64 1b        	stz	$1b                     ; 0x201b <_ZN12_GLOBAL__N_112print_stringEPKcP6Status+0x10a>
     924: ca           	dex
     925: a9 02        	lda	#$2
     927: 20 b1 18     	jsr	$18b1 <mySpriteDefine>
     92a: a2 10        	ldx	#$10
     92c: a9 03        	lda	#$3
     92e: 86 12        	stx	$12                     ; 0x2012 <_ZN12_GLOBAL__N_112print_stringEPKcP6Status+0x101>
     930: a2 02        	ldx	#$2
     932: 86 15        	stx	$15                     ; 0x2015 <_ZN12_GLOBAL__N_112print_stringEPKcP6Status+0x104>
     934: a2 c8        	ldx	#$c8
     936: 86 16        	stx	$16                     ; 0x2016 <_ZN12_GLOBAL__N_112print_stringEPKcP6Status+0x105>
     938: a2 01        	ldx	#$1
     93a: 86 13        	stx	$13                     ; 0x2013 <_ZN12_GLOBAL__N_112print_stringEPKcP6Status+0x102>
     93c: 64 14        	stz	$14                     ; 0x2014 <_ZN12_GLOBAL__N_112print_stringEPKcP6Status+0x103>
     93e: 64 17        	stz	$17                     ; 0x2017 <_ZN12_GLOBAL__N_112print_stringEPKcP6Status+0x106>
     940: a2 50        	ldx	#$50
     942: 86 18        	stx	$18                     ; 0x2018 <_ZN12_GLOBAL__N_112print_stringEPKcP6Status+0x107>
     944: 64 19        	stz	$19                     ; 0x2019 <_ZN12_GLOBAL__N_112print_stringEPKcP6Status+0x108>
     946: a2 01        	ldx	#$1
     948: 86 1a        	stx	$1a                     ; 0x201a <_ZN12_GLOBAL__N_112print_stringEPKcP6Status+0x109>
     94a: 64 1b        	stz	$1b                     ; 0x201b <_ZN12_GLOBAL__N_112print_stringEPKcP6Status+0x10a>
     94c: ca           	dex
     94d: 20 b1 18     	jsr	$18b1 <mySpriteDefine>
     950: a0 14        	ldy	#$14
     952: a2 6e        	ldx	#$6e
     954: a9 04        	lda	#$4
     956: 84 12        	sty	$12                     ; 0x2012 <_ZN12_GLOBAL__N_112print_stringEPKcP6Status+0x101>
     958: a0 64        	ldy	#$64
     95a: 84 16        	sty	$16                     ; 0x2016 <_ZN12_GLOBAL__N_112print_stringEPKcP6Status+0x105>
     95c: a0 01        	ldy	#$1
     95e: 84 13        	sty	$13                     ; 0x2013 <_ZN12_GLOBAL__N_112print_stringEPKcP6Status+0x102>
     960: 64 14        	stz	$14                     ; 0x2014 <_ZN12_GLOBAL__N_112print_stringEPKcP6Status+0x103>
     962: 64 15        	stz	$15                     ; 0x2015 <_ZN12_GLOBAL__N_112print_stringEPKcP6Status+0x104>
     964: 64 17        	stz	$17                     ; 0x2017 <_ZN12_GLOBAL__N_112print_stringEPKcP6Status+0x106>
     966: 86 18        	stx	$18                     ; 0x2018 <_ZN12_GLOBAL__N_112print_stringEPKcP6Status+0x107>
     968: 64 19        	stz	$19                     ; 0x2019 <_ZN12_GLOBAL__N_112print_stringEPKcP6Status+0x108>
     96a: a2 01        	ldx	#$1
     96c: 86 1a        	stx	$1a                     ; 0x201a <_ZN12_GLOBAL__N_112print_stringEPKcP6Status+0x109>
     96e: 64 1b        	stz	$1b                     ; 0x201b <_ZN12_GLOBAL__N_112print_stringEPKcP6Status+0x10a>
     970: ca           	dex
     971: 20 b1 18     	jsr	$18b1 <mySpriteDefine>
     974: a2 30        	ldx	#$30
     976: a9 0a        	lda	#$a
     978: 86 12        	stx	$12                     ; 0x2012 <_ZN12_GLOBAL__N_112print_stringEPKcP6Status+0x101>
     97a: a2 01        	ldx	#$1
     97c: 86 13        	stx	$13                     ; 0x2013 <_ZN12_GLOBAL__N_112print_stringEPKcP6Status+0x102>
     97e: 64 14        	stz	$14                     ; 0x2014 <_ZN12_GLOBAL__N_112print_stringEPKcP6Status+0x103>
     980: 64 15        	stz	$15                     ; 0x2015 <_ZN12_GLOBAL__N_112print_stringEPKcP6Status+0x104>
     982: 64 16        	stz	$16                     ; 0x2016 <_ZN12_GLOBAL__N_112print_stringEPKcP6Status+0x105>
     984: 64 17        	stz	$17                     ; 0x2017 <_ZN12_GLOBAL__N_112print_stringEPKcP6Status+0x106>
     986: 64 18        	stz	$18                     ; 0x2018 <_ZN12_GLOBAL__N_112print_stringEPKcP6Status+0x107>
     988: 64 19        	stz	$19                     ; 0x2019 <_ZN12_GLOBAL__N_112print_stringEPKcP6Status+0x108>
     98a: 64 1a        	stz	$1a                     ; 0x201a <_ZN12_GLOBAL__N_112print_stringEPKcP6Status+0x109>
     98c: 86 1b        	stx	$1b                     ; 0x201b <_ZN12_GLOBAL__N_112print_stringEPKcP6Status+0x10a>
     98e: ca           	dex
     98f: 20 b1 18     	jsr	$18b1 <mySpriteDefine>
     992: a9 0b        	lda	#$b
     994: a2 30        	ldx	#$30
     996: 86 12        	stx	$12                     ; 0x2012 <_ZN12_GLOBAL__N_112print_stringEPKcP6Status+0x101>
     998: a2 01        	ldx	#$1
     99a: 86 13        	stx	$13                     ; 0x2013 <_ZN12_GLOBAL__N_112print_stringEPKcP6Status+0x102>
     99c: 64 14        	stz	$14                     ; 0x2014 <_ZN12_GLOBAL__N_112print_stringEPKcP6Status+0x103>
     99e: 64 15        	stz	$15                     ; 0x2015 <_ZN12_GLOBAL__N_112print_stringEPKcP6Status+0x104>
     9a0: 64 16        	stz	$16                     ; 0x2016 <_ZN12_GLOBAL__N_112print_stringEPKcP6Status+0x105>
     9a2: 64 17        	stz	$17                     ; 0x2017 <_ZN12_GLOBAL__N_112print_stringEPKcP6Status+0x106>
     9a4: 64 18        	stz	$18                     ; 0x2018 <_ZN12_GLOBAL__N_112print_stringEPKcP6Status+0x107>
     9a6: 64 19        	stz	$19                     ; 0x2019 <_ZN12_GLOBAL__N_112print_stringEPKcP6Status+0x108>
     9a8: 64 1a        	stz	$1a                     ; 0x201a <_ZN12_GLOBAL__N_112print_stringEPKcP6Status+0x109>
     9aa: 86 1b        	stx	$1b                     ; 0x201b <_ZN12_GLOBAL__N_112print_stringEPKcP6Status+0x10a>
     9ac: ca           	dex
     9ad: 20 b1 18     	jsr	$18b1 <mySpriteDefine>
     9b0: a9 0c        	lda	#$c
     9b2: a2 30        	ldx	#$30
     9b4: 86 12        	stx	$12                     ; 0x2012 <_ZN12_GLOBAL__N_112print_stringEPKcP6Status+0x101>
     9b6: a2 01        	ldx	#$1
     9b8: 86 13        	stx	$13                     ; 0x2013 <_ZN12_GLOBAL__N_112print_stringEPKcP6Status+0x102>
     9ba: 64 14        	stz	$14                     ; 0x2014 <_ZN12_GLOBAL__N_112print_stringEPKcP6Status+0x103>
     9bc: 64 15        	stz	$15                     ; 0x2015 <_ZN12_GLOBAL__N_112print_stringEPKcP6Status+0x104>
     9be: 64 16        	stz	$16                     ; 0x2016 <_ZN12_GLOBAL__N_112print_stringEPKcP6Status+0x105>
     9c0: 64 17        	stz	$17                     ; 0x2017 <_ZN12_GLOBAL__N_112print_stringEPKcP6Status+0x106>
     9c2: 64 18        	stz	$18                     ; 0x2018 <_ZN12_GLOBAL__N_112print_stringEPKcP6Status+0x107>
     9c4: 64 19        	stz	$19                     ; 0x2019 <_ZN12_GLOBAL__N_112print_stringEPKcP6Status+0x108>
     9c6: 64 1a        	stz	$1a                     ; 0x201a <_ZN12_GLOBAL__N_112print_stringEPKcP6Status+0x109>
     9c8: 86 1b        	stx	$1b                     ; 0x201b <_ZN12_GLOBAL__N_112print_stringEPKcP6Status+0x10a>
     9ca: ca           	dex
     9cb: 20 b1 18     	jsr	$18b1 <mySpriteDefine>
     9ce: a9 0d        	lda	#$d
     9d0: a2 30        	ldx	#$30
     9d2: 86 12        	stx	$12                     ; 0x2012 <_ZN12_GLOBAL__N_112print_stringEPKcP6Status+0x101>
     9d4: a2 01        	ldx	#$1
     9d6: 86 13        	stx	$13                     ; 0x2013 <_ZN12_GLOBAL__N_112print_stringEPKcP6Status+0x102>
     9d8: 64 14        	stz	$14                     ; 0x2014 <_ZN12_GLOBAL__N_112print_stringEPKcP6Status+0x103>
     9da: 64 15        	stz	$15                     ; 0x2015 <_ZN12_GLOBAL__N_112print_stringEPKcP6Status+0x104>
     9dc: 64 16        	stz	$16                     ; 0x2016 <_ZN12_GLOBAL__N_112print_stringEPKcP6Status+0x105>
     9de: 64 17        	stz	$17                     ; 0x2017 <_ZN12_GLOBAL__N_112print_stringEPKcP6Status+0x106>
     9e0: 64 18        	stz	$18                     ; 0x2018 <_ZN12_GLOBAL__N_112print_stringEPKcP6Status+0x107>
     9e2: 64 19        	stz	$19                     ; 0x2019 <_ZN12_GLOBAL__N_112print_stringEPKcP6Status+0x108>
     9e4: 64 1a        	stz	$1a                     ; 0x201a <_ZN12_GLOBAL__N_112print_stringEPKcP6Status+0x109>
     9e6: 86 1b        	stx	$1b                     ; 0x201b <_ZN12_GLOBAL__N_112print_stringEPKcP6Status+0x10a>
     9e8: ca           	dex
     9e9: 20 b1 18     	jsr	$18b1 <mySpriteDefine>
     9ec: a9 0e        	lda	#$e
     9ee: a2 30        	ldx	#$30
     9f0: 86 12        	stx	$12                     ; 0x2012 <_ZN12_GLOBAL__N_112print_stringEPKcP6Status+0x101>
     9f2: a2 01        	ldx	#$1
     9f4: 86 13        	stx	$13                     ; 0x2013 <_ZN12_GLOBAL__N_112print_stringEPKcP6Status+0x102>
     9f6: 64 14        	stz	$14                     ; 0x2014 <_ZN12_GLOBAL__N_112print_stringEPKcP6Status+0x103>
     9f8: 64 15        	stz	$15                     ; 0x2015 <_ZN12_GLOBAL__N_112print_stringEPKcP6Status+0x104>
     9fa: 64 16        	stz	$16                     ; 0x2016 <_ZN12_GLOBAL__N_112print_stringEPKcP6Status+0x105>
     9fc: 64 17        	stz	$17                     ; 0x2017 <_ZN12_GLOBAL__N_112print_stringEPKcP6Status+0x106>
     9fe: 64 18        	stz	$18                     ; 0x2018 <_ZN12_GLOBAL__N_112print_stringEPKcP6Status+0x107>
     a00: 64 19        	stz	$19                     ; 0x2019 <_ZN12_GLOBAL__N_112print_stringEPKcP6Status+0x108>
     a02: 64 1a        	stz	$1a                     ; 0x201a <_ZN12_GLOBAL__N_112print_stringEPKcP6Status+0x109>
     a04: 86 1b        	stx	$1b                     ; 0x201b <_ZN12_GLOBAL__N_112print_stringEPKcP6Status+0x10a>
     a06: ca           	dex
     a07: 20 b1 18     	jsr	$18b1 <mySpriteDefine>
     a0a: 9c 33 54     	stz	$5433                   ; 0x5433 <spriteStatuses+0x13>
     a0d: a2 01        	ldx	#$1
     a0f: 8e 24 54     	stx	$5424                   ; 0x5424 <spriteStatuses+0x4>
     a12: 8e 4b 54     	stx	$544b                   ; 0x544b <spriteStatuses+0x2b>
     a15: 9c 3c 54     	stz	$543c                   ; 0x543c <spriteStatuses+0x1c>
     a18: 9c 63 54     	stz	$5463                   ; 0x5463 <spriteStatuses+0x43>
     a1b: 8e 54 54     	stx	$5454                   ; 0x5454 <spriteStatuses+0x34>
     a1e: 8e 7b 54     	stx	$547b                   ; 0x547b <spriteStatuses+0x5b>
     a21: 9c 6c 54     	stz	$546c                   ; 0x546c <spriteStatuses+0x4c>
     a24: 9c 93 54     	stz	$5493                   ; 0x5493 <spriteStatuses+0x73>
     a27: 8e 84 54     	stx	$5484                   ; 0x5484 <spriteStatuses+0x64>
     a2a: 20 f7 16     	jsr	$16f7 <updateFrames>
     a2d: a2 1f        	ldx	#$1f
     a2f: 8e 20 d6     	stx	$d620                   ; 0xd620 <__heap_start+0x801a>
     a32: a2 2a        	ldx	#$2a
     a34: 8e 21 d6     	stx	$d621                   ; 0xd621 <__heap_start+0x801b>
     a37: a2 01        	ldx	#$1
     a39: 8e 22 d6     	stx	$d622                   ; 0xd622 <__heap_start+0x801c>
     a3c: ad 22 d6     	lda	$d622                   ; 0xd622 <__heap_start+0x801c>
     a3f: 29 01        	and	#$1
     a41: 29 01        	and	#$1
     a43: d0 f7        	bne	$a3c <f256main+0x20b>
     a45: a2 03        	ldx	#$3
     a47: 8e 01 d7     	stx	$d701                   ; 0xd701 <__heap_start+0x80fb>
     a4a: 9c 02 d7     	stz	$d702                   ; 0xd702 <__heap_start+0x80fc>
     a4d: 9c 02 d7     	stz	$d702                   ; 0xd702 <__heap_start+0x80fc>
     a50: a2 e0        	ldx	#$e0
     a52: 8e 03 d7     	stx	$d703                   ; 0xd703 <__heap_start+0x80fd>
     a55: a2 01        	ldx	#$1
     a57: 8e 00 d7     	stx	$d700                   ; 0xd700 <__heap_start+0x80fa>
     a5a: 9c 00 d7     	stz	$d700                   ; 0xd700 <__heap_start+0x80fa>
     a5d: ae 00 d7     	ldx	$d700                   ; 0xd700 <__heap_start+0x80fa>
     a60: 30 fb        	bmi	$a5d <f256main+0x22c>
     a62: 64 12        	stz	$12                     ; 0x2012 <_ZN12_GLOBAL__N_112print_stringEPKcP6Status+0x101>
     a64: a0 01        	ldy	#$1
     a66: a2 00        	ldx	#$0
     a68: a5 12        	lda	$12                     ; 0x2012 <_ZN12_GLOBAL__N_112print_stringEPKcP6Status+0x101>
     a6a: 85 14        	sta	$14                     ; 0x2014 <_ZN12_GLOBAL__N_112print_stringEPKcP6Status+0x103>
     a6c: a5 12        	lda	$12                     ; 0x2012 <_ZN12_GLOBAL__N_112print_stringEPKcP6Status+0x101>
     a6e: 0a           	asl
     a6f: 85 12        	sta	$12                     ; 0x2012 <_ZN12_GLOBAL__N_112print_stringEPKcP6Status+0x101>
     a71: 8a           	txa
     a72: 2a           	rol
     a73: 85 13        	sta	$13                     ; 0x2013 <_ZN12_GLOBAL__N_112print_stringEPKcP6Status+0x102>
     a75: a9 aa        	lda	#$aa
     a77: 18           	clc
     a78: 65 12        	adc	$12                     ; 0x2012 <_ZN12_GLOBAL__N_112print_stringEPKcP6Status+0x101>
     a7a: 85 12        	sta	$12                     ; 0x2012 <_ZN12_GLOBAL__N_112print_stringEPKcP6Status+0x101>
     a7c: a9 2f        	lda	#$2f
     a7e: 65 13        	adc	$13                     ; 0x2013 <_ZN12_GLOBAL__N_112print_stringEPKcP6Status+0x102>
     a80: 85 15        	sta	$15                     ; 0x2015 <_ZN12_GLOBAL__N_112print_stringEPKcP6Status+0x104>
     a82: a5 12        	lda	$12                     ; 0x2012 <_ZN12_GLOBAL__N_112print_stringEPKcP6Status+0x101>
     a84: 85 17        	sta	$17                     ; 0x2017 <_ZN12_GLOBAL__N_112print_stringEPKcP6Status+0x106>
     a86: a5 15        	lda	$15                     ; 0x2015 <_ZN12_GLOBAL__N_112print_stringEPKcP6Status+0x104>
     a88: 85 13        	sta	$13                     ; 0x2013 <_ZN12_GLOBAL__N_112print_stringEPKcP6Status+0x102>
     a8a: b2 12        	lda	($12)                   ; 0x2012 <_ZN12_GLOBAL__N_112print_stringEPKcP6Status+0x101>
     a8c: 85 16        	sta	$16                     ; 0x2016 <_ZN12_GLOBAL__N_112print_stringEPKcP6Status+0x105>
     a8e: a5 14        	lda	$14                     ; 0x2014 <_ZN12_GLOBAL__N_112print_stringEPKcP6Status+0x103>
     a90: 85 1a        	sta	$1a                     ; 0x201a <_ZN12_GLOBAL__N_112print_stringEPKcP6Status+0x109>
     a92: a5 14        	lda	$14                     ; 0x2014 <_ZN12_GLOBAL__N_112print_stringEPKcP6Status+0x103>
     a94: 18           	clc
     a95: 69 02        	adc	#$2
     a97: 85 18        	sta	$18                     ; 0x2018 <_ZN12_GLOBAL__N_112print_stringEPKcP6Status+0x107>
     a99: 86 19        	stx	$19                     ; 0x2019 <_ZN12_GLOBAL__N_112print_stringEPKcP6Status+0x108>
     a9b: 8a           	txa
     a9c: 69 00        	adc	#$0
     a9e: aa           	tax
     a9f: 18           	clc
     aa0: a5 17        	lda	$17                     ; 0x2017 <_ZN12_GLOBAL__N_112print_stringEPKcP6Status+0x106>
     aa2: 69 02        	adc	#$2
     aa4: 85 14        	sta	$14                     ; 0x2014 <_ZN12_GLOBAL__N_112print_stringEPKcP6Status+0x103>
     aa6: a5 15        	lda	$15                     ; 0x2015 <_ZN12_GLOBAL__N_112print_stringEPKcP6Status+0x104>
     aa8: 69 00        	adc	#$0
     aaa: 85 15        	sta	$15                     ; 0x2015 <_ZN12_GLOBAL__N_112print_stringEPKcP6Status+0x104>
     aac: b1 12        	lda	($12),y                 ; 0x2012 <_ZN12_GLOBAL__N_112print_stringEPKcP6Status+0x101>
     aae: 85 17        	sta	$17                     ; 0x2017 <_ZN12_GLOBAL__N_112print_stringEPKcP6Status+0x106>
     ab0: a0 02        	ldy	#$2
     ab2: b1 12        	lda	($12),y                 ; 0x2012 <_ZN12_GLOBAL__N_112print_stringEPKcP6Status+0x101>
     ab4: 85 13        	sta	$13                     ; 0x2013 <_ZN12_GLOBAL__N_112print_stringEPKcP6Status+0x102>
     ab6: 88           	dey
     ab7: b1 14        	lda	($14),y                 ; 0x2014 <_ZN12_GLOBAL__N_112print_stringEPKcP6Status+0x103>
     ab9: 10 03        	bpl	$abe <f256main+0x28d>
     abb: 4c 46 0b     	jmp	$b46 <f256main+0x315>
     abe: 85 12        	sta	$12                     ; 0x2012 <_ZN12_GLOBAL__N_112print_stringEPKcP6Status+0x101>
     ac0: 85 15        	sta	$15                     ; 0x2015 <_ZN12_GLOBAL__N_112print_stringEPKcP6Status+0x104>
     ac2: a5 13        	lda	$13                     ; 0x2013 <_ZN12_GLOBAL__N_112print_stringEPKcP6Status+0x102>
     ac4: e6 12        	inc	$12                     ; 0x2012 <_ZN12_GLOBAL__N_112print_stringEPKcP6Status+0x101>
     ac6: c6 12        	dec	$12                     ; 0x2012 <_ZN12_GLOBAL__N_112print_stringEPKcP6Status+0x101>
     ac8: d0 07        	bne	$ad1 <f256main+0x2a0>
     aca: c9 00        	cmp	#$0
     acc: d0 03        	bne	$ad1 <f256main+0x2a0>
     ace: 4c ca 0b     	jmp	$bca <f256main+0x399>
     ad1: a5 13        	lda	$13                     ; 0x2013 <_ZN12_GLOBAL__N_112print_stringEPKcP6Status+0x102>
     ad3: 85 14        	sta	$14                     ; 0x2014 <_ZN12_GLOBAL__N_112print_stringEPKcP6Status+0x103>
     ad5: a5 18        	lda	$18                     ; 0x2018 <_ZN12_GLOBAL__N_112print_stringEPKcP6Status+0x107>
     ad7: 85 19        	sta	$19                     ; 0x2019 <_ZN12_GLOBAL__N_112print_stringEPKcP6Status+0x108>
     ad9: a5 18        	lda	$18                     ; 0x2018 <_ZN12_GLOBAL__N_112print_stringEPKcP6Status+0x107>
     adb: 0a           	asl
     adc: 85 12        	sta	$12                     ; 0x2012 <_ZN12_GLOBAL__N_112print_stringEPKcP6Status+0x101>
     ade: 86 18        	stx	$18                     ; 0x2018 <_ZN12_GLOBAL__N_112print_stringEPKcP6Status+0x107>
     ae0: 8a           	txa
     ae1: 2a           	rol
     ae2: 85 13        	sta	$13                     ; 0x2013 <_ZN12_GLOBAL__N_112print_stringEPKcP6Status+0x102>
     ae4: a9 aa        	lda	#$aa
     ae6: 18           	clc
     ae7: 65 12        	adc	$12                     ; 0x2012 <_ZN12_GLOBAL__N_112print_stringEPKcP6Status+0x101>
     ae9: 85 12        	sta	$12                     ; 0x2012 <_ZN12_GLOBAL__N_112print_stringEPKcP6Status+0x101>
     aeb: a9 2f        	lda	#$2f
     aed: 65 13        	adc	$13                     ; 0x2013 <_ZN12_GLOBAL__N_112print_stringEPKcP6Status+0x102>
     aef: 85 13        	sta	$13                     ; 0x2013 <_ZN12_GLOBAL__N_112print_stringEPKcP6Status+0x102>
     af1: b2 12        	lda	($12)                   ; 0x2012 <_ZN12_GLOBAL__N_112print_stringEPKcP6Status+0x101>
     af3: 85 1a        	sta	$1a                     ; 0x201a <_ZN12_GLOBAL__N_112print_stringEPKcP6Status+0x109>
     af5: b1 12        	lda	($12),y                 ; 0x2012 <_ZN12_GLOBAL__N_112print_stringEPKcP6Status+0x101>
     af7: a6 16        	ldx	$16                     ; 0x2016 <_ZN12_GLOBAL__N_112print_stringEPKcP6Status+0x105>
     af9: 8e 01 d7     	stx	$d701                   ; 0xd701 <__heap_start+0x80fb>
     afc: a6 17        	ldx	$17                     ; 0x2017 <_ZN12_GLOBAL__N_112print_stringEPKcP6Status+0x106>
     afe: 8e 02 d7     	stx	$d702                   ; 0xd702 <__heap_start+0x80fc>
     b01: a6 1a        	ldx	$1a                     ; 0x201a <_ZN12_GLOBAL__N_112print_stringEPKcP6Status+0x109>
     b03: 8e 02 d7     	stx	$d702                   ; 0xd702 <__heap_start+0x80fc>
     b06: 8d 03 d7     	sta	$d703                   ; 0xd703 <__heap_start+0x80fd>
     b09: 8c 00 d7     	sty	$d700                   ; 0xd700 <__heap_start+0x80fa>
     b0c: 9c 00 d7     	stz	$d700                   ; 0xd700 <__heap_start+0x80fa>
     b0f: ae 00 d7     	ldx	$d700                   ; 0xd700 <__heap_start+0x80fa>
     b12: 30 fb        	bmi	$b0f <f256main+0x2de>
     b14: a6 15        	ldx	$15                     ; 0x2015 <_ZN12_GLOBAL__N_112print_stringEPKcP6Status+0x104>
     b16: 86 12        	stx	$12                     ; 0x2012 <_ZN12_GLOBAL__N_112print_stringEPKcP6Status+0x101>
     b18: a2 ff        	ldx	#$ff
     b1a: c6 14        	dec	$14                     ; 0x2014 <_ZN12_GLOBAL__N_112print_stringEPKcP6Status+0x103>
     b1c: e4 14        	cpx	$14                     ; 0x2014 <_ZN12_GLOBAL__N_112print_stringEPKcP6Status+0x103>
     b1e: d0 02        	bne	$b22 <f256main+0x2f1>
     b20: c6 12        	dec	$12                     ; 0x2012 <_ZN12_GLOBAL__N_112print_stringEPKcP6Status+0x101>
     b22: a6 18        	ldx	$18                     ; 0x2018 <_ZN12_GLOBAL__N_112print_stringEPKcP6Status+0x107>
     b24: a5 19        	lda	$19                     ; 0x2019 <_ZN12_GLOBAL__N_112print_stringEPKcP6Status+0x108>
     b26: 85 18        	sta	$18                     ; 0x2018 <_ZN12_GLOBAL__N_112print_stringEPKcP6Status+0x107>
     b28: e6 18        	inc	$18                     ; 0x2018 <_ZN12_GLOBAL__N_112print_stringEPKcP6Status+0x107>
     b2a: d0 01        	bne	$b2d <f256main+0x2fc>
     b2c: e8           	inx
     b2d: a5 12        	lda	$12                     ; 0x2012 <_ZN12_GLOBAL__N_112print_stringEPKcP6Status+0x101>
     b2f: 85 15        	sta	$15                     ; 0x2015 <_ZN12_GLOBAL__N_112print_stringEPKcP6Status+0x104>
     b31: a5 14        	lda	$14                     ; 0x2014 <_ZN12_GLOBAL__N_112print_stringEPKcP6Status+0x103>
     b33: 85 13        	sta	$13                     ; 0x2013 <_ZN12_GLOBAL__N_112print_stringEPKcP6Status+0x102>
     b35: a5 12        	lda	$12                     ; 0x2012 <_ZN12_GLOBAL__N_112print_stringEPKcP6Status+0x101>
     b37: f0 03        	beq	$b3c <f256main+0x30b>
     b39: 4c d1 0a     	jmp	$ad1 <f256main+0x2a0>
     b3c: a5 14        	lda	$14                     ; 0x2014 <_ZN12_GLOBAL__N_112print_stringEPKcP6Status+0x103>
     b3e: f0 03        	beq	$b43 <f256main+0x312>
     b40: 4c d1 0a     	jmp	$ad1 <f256main+0x2a0>
     b43: 4c ca 0b     	jmp	$bca <f256main+0x399>
     b46: 29 7f        	and	#$7f
     b48: 85 1b        	sta	$1b                     ; 0x201b <_ZN12_GLOBAL__N_112print_stringEPKcP6Status+0x10a>
     b4a: 18           	clc
     b4b: a5 1a        	lda	$1a                     ; 0x201a <_ZN12_GLOBAL__N_112print_stringEPKcP6Status+0x109>
     b4d: 69 03        	adc	#$3
     b4f: 85 15        	sta	$15                     ; 0x2015 <_ZN12_GLOBAL__N_112print_stringEPKcP6Status+0x104>
     b51: a5 19        	lda	$19                     ; 0x2019 <_ZN12_GLOBAL__N_112print_stringEPKcP6Status+0x108>
     b53: 69 00        	adc	#$0
     b55: 5a           	phy
     b56: a4 13        	ldy	$13                     ; 0x2013 <_ZN12_GLOBAL__N_112print_stringEPKcP6Status+0x102>
     b58: 84 1a        	sty	$1a                     ; 0x201a <_ZN12_GLOBAL__N_112print_stringEPKcP6Status+0x109>
     b5a: 7a           	ply
     b5b: e6 1b        	inc	$1b                     ; 0x201b <_ZN12_GLOBAL__N_112print_stringEPKcP6Status+0x10a>
     b5d: c6 1b        	dec	$1b                     ; 0x201b <_ZN12_GLOBAL__N_112print_stringEPKcP6Status+0x10a>
     b5f: d0 09        	bne	$b6a <f256main+0x339>
     b61: e6 1a        	inc	$1a                     ; 0x201a <_ZN12_GLOBAL__N_112print_stringEPKcP6Status+0x109>
     b63: c6 1a        	dec	$1a                     ; 0x201a <_ZN12_GLOBAL__N_112print_stringEPKcP6Status+0x109>
     b65: d0 03        	bne	$b6a <f256main+0x339>
     b67: 4c 5b 10     	jmp	$105b <f256main+0x82a>
     b6a: 5a           	phy
     b6b: a4 1b        	ldy	$1b                     ; 0x201b <_ZN12_GLOBAL__N_112print_stringEPKcP6Status+0x10a>
     b6d: 84 14        	sty	$14                     ; 0x2014 <_ZN12_GLOBAL__N_112print_stringEPKcP6Status+0x103>
     b6f: 7a           	ply
     b70: 85 19        	sta	$19                     ; 0x2019 <_ZN12_GLOBAL__N_112print_stringEPKcP6Status+0x108>
     b72: a5 18        	lda	$18                     ; 0x2018 <_ZN12_GLOBAL__N_112print_stringEPKcP6Status+0x107>
     b74: 85 12        	sta	$12                     ; 0x2012 <_ZN12_GLOBAL__N_112print_stringEPKcP6Status+0x101>
     b76: 06 12        	asl	$12                     ; 0x2012 <_ZN12_GLOBAL__N_112print_stringEPKcP6Status+0x101>
     b78: 86 13        	stx	$13                     ; 0x2013 <_ZN12_GLOBAL__N_112print_stringEPKcP6Status+0x102>
     b7a: 26 13        	rol	$13                     ; 0x2013 <_ZN12_GLOBAL__N_112print_stringEPKcP6Status+0x102>
     b7c: 18           	clc
     b7d: a9 aa        	lda	#$aa
     b7f: 65 12        	adc	$12                     ; 0x2012 <_ZN12_GLOBAL__N_112print_stringEPKcP6Status+0x101>
     b81: 85 12        	sta	$12                     ; 0x2012 <_ZN12_GLOBAL__N_112print_stringEPKcP6Status+0x101>
     b83: a9 2f        	lda	#$2f
     b85: 65 13        	adc	$13                     ; 0x2013 <_ZN12_GLOBAL__N_112print_stringEPKcP6Status+0x102>
     b87: 85 13        	sta	$13                     ; 0x2013 <_ZN12_GLOBAL__N_112print_stringEPKcP6Status+0x102>
     b89: b2 12        	lda	($12)                   ; 0x2012 <_ZN12_GLOBAL__N_112print_stringEPKcP6Status+0x101>
     b8b: 85 18        	sta	$18                     ; 0x2018 <_ZN12_GLOBAL__N_112print_stringEPKcP6Status+0x107>
     b8d: b1 12        	lda	($12),y                 ; 0x2012 <_ZN12_GLOBAL__N_112print_stringEPKcP6Status+0x101>
     b8f: a6 16        	ldx	$16                     ; 0x2016 <_ZN12_GLOBAL__N_112print_stringEPKcP6Status+0x105>
     b91: 8e 01 d7     	stx	$d701                   ; 0xd701 <__heap_start+0x80fb>
     b94: a6 17        	ldx	$17                     ; 0x2017 <_ZN12_GLOBAL__N_112print_stringEPKcP6Status+0x106>
     b96: 8e 02 d7     	stx	$d702                   ; 0xd702 <__heap_start+0x80fc>
     b99: a6 18        	ldx	$18                     ; 0x2018 <_ZN12_GLOBAL__N_112print_stringEPKcP6Status+0x107>
     b9b: 8e 02 d7     	stx	$d702                   ; 0xd702 <__heap_start+0x80fc>
     b9e: 8d 03 d7     	sta	$d703                   ; 0xd703 <__heap_start+0x80fd>
     ba1: 8c 00 d7     	sty	$d700                   ; 0xd700 <__heap_start+0x80fa>
     ba4: 9c 00 d7     	stz	$d700                   ; 0xd700 <__heap_start+0x80fa>
     ba7: ae 00 d7     	ldx	$d700                   ; 0xd700 <__heap_start+0x80fa>
     baa: 30 fb        	bmi	$ba7 <f256main+0x376>
     bac: a6 14        	ldx	$14                     ; 0x2014 <_ZN12_GLOBAL__N_112print_stringEPKcP6Status+0x103>
     bae: 86 12        	stx	$12                     ; 0x2012 <_ZN12_GLOBAL__N_112print_stringEPKcP6Status+0x101>
     bb0: a2 ff        	ldx	#$ff
     bb2: c6 1a        	dec	$1a                     ; 0x201a <_ZN12_GLOBAL__N_112print_stringEPKcP6Status+0x109>
     bb4: e4 1a        	cpx	$1a                     ; 0x201a <_ZN12_GLOBAL__N_112print_stringEPKcP6Status+0x109>
     bb6: d0 02        	bne	$bba <f256main+0x389>
     bb8: c6 12        	dec	$12                     ; 0x2012 <_ZN12_GLOBAL__N_112print_stringEPKcP6Status+0x101>
     bba: a6 12        	ldx	$12                     ; 0x2012 <_ZN12_GLOBAL__N_112print_stringEPKcP6Status+0x101>
     bbc: 86 14        	stx	$14                     ; 0x2014 <_ZN12_GLOBAL__N_112print_stringEPKcP6Status+0x103>
     bbe: d0 cf        	bne	$b8f <f256main+0x35e>
     bc0: a6 1a        	ldx	$1a                     ; 0x201a <_ZN12_GLOBAL__N_112print_stringEPKcP6Status+0x109>
     bc2: d0 cb        	bne	$b8f <f256main+0x35e>
     bc4: a6 15        	ldx	$15                     ; 0x2015 <_ZN12_GLOBAL__N_112print_stringEPKcP6Status+0x104>
     bc6: 86 18        	stx	$18                     ; 0x2018 <_ZN12_GLOBAL__N_112print_stringEPKcP6Status+0x107>
     bc8: a6 19        	ldx	$19                     ; 0x2019 <_ZN12_GLOBAL__N_112print_stringEPKcP6Status+0x108>
     bca: a5 18        	lda	$18                     ; 0x2018 <_ZN12_GLOBAL__N_112print_stringEPKcP6Status+0x107>
     bcc: e0 12        	cpx	#$12
     bce: d0 04        	bne	$bd4 <f256main+0x3a3>
     bd0: c9 3b        	cmp	#$3b
     bd2: 80 02        	bra	$bd6 <f256main+0x3a5>
     bd4: e0 12        	cpx	#$12
     bd6: 85 12        	sta	$12                     ; 0x2012 <_ZN12_GLOBAL__N_112print_stringEPKcP6Status+0x101>
     bd8: b0 03        	bcs	$bdd <f256main+0x3ac>
     bda: 4c 68 0a     	jmp	$a68 <f256main+0x237>
     bdd: 9c 33 54     	stz	$5433                   ; 0x5433 <spriteStatuses+0x13>
     be0: a2 02        	ldx	#$2
     be2: 8e 4b 54     	stx	$544b                   ; 0x544b <spriteStatuses+0x2b>
     be5: 9c 63 54     	stz	$5463                   ; 0x5463 <spriteStatuses+0x43>
     be8: 8e 7b 54     	stx	$547b                   ; 0x547b <spriteStatuses+0x5b>
     beb: 9c 93 54     	stz	$5493                   ; 0x5493 <spriteStatuses+0x73>
     bee: 9c 23 55     	stz	$5523                   ; 0x5523 <spriteStatuses+0x103>
     bf1: a0 80        	ldy	#$80
     bf3: 84 f3        	sty	$f3                     ; 0x20f3 <printf+0xd5>
     bf5: 18           	clc
     bf6: a6 10        	ldx	$10                     ; 0x2010 <_ZN12_GLOBAL__N_112print_stringEPKcP6Status+0xff>
     bf8: 86 24        	stx	$24                     ; 0x2024 <printf+0x6>
     bfa: a6 11        	ldx	$11                     ; 0x2011 <_ZN12_GLOBAL__N_112print_stringEPKcP6Status+0x100>
     bfc: 86 25        	stx	$25                     ; 0x2025 <printf+0x7>
     bfe: a2 00        	ldx	#$0
     c00: 86 26        	stx	$26                     ; 0x2026 <printf+0x8>
     c02: a2 56        	ldx	#$56
     c04: 86 27        	stx	$27                     ; 0x2027 <printf+0x9>
     c06: 20 f0 ff     	jsr	$fff0 <__heap_start+0xa9ea>
     c09: 92 24        	sta	($24)                   ; 0x2024 <printf+0x6>
     c0b: a9 00        	lda	#$0
     c0d: 6a           	ror
     c0e: 85 26        	sta	$26                     ; 0x2026 <printf+0x8>
     c10: b2 24        	lda	($24)                   ; 0x2024 <printf+0x6>
     c12: ae 33 54     	ldx	$5433                   ; 0x5433 <spriteStatuses+0x13>
     c15: 18           	clc
     c16: 75 30        	adc	$30,x                   ; 0x2030 <printf+0x12>
     c18: 8d 30 54     	sta	$5430                   ; 0x5430 <spriteStatuses+0x10>
     c1b: ae 2f 54     	ldx	$542f                   ; 0x542f <spriteStatuses+0xf>
     c1e: 86 f3        	stx	$f3                     ; 0x20f3 <printf+0xd5>
     c20: ae 30 54     	ldx	$5430                   ; 0x5430 <spriteStatuses+0x10>
     c23: 86 f4        	stx	$f4                     ; 0x20f4 <printf+0xd6>
     c25: ae 31 54     	ldx	$5431                   ; 0x5431 <spriteStatuses+0x11>
     c28: 86 f5        	stx	$f5                     ; 0x20f5 <printf+0xd7>
     c2a: 20 f0 ff     	jsr	$fff0 <__heap_start+0xa9ea>
     c2d: 92 24        	sta	($24)                   ; 0x2024 <printf+0x6>
     c2f: a9 00        	lda	#$0
     c31: 6a           	ror
     c32: 85 26        	sta	$26                     ; 0x2026 <printf+0x8>
     c34: 84 f3        	sty	$f3                     ; 0x20f3 <printf+0xd5>
     c36: 20 f0 ff     	jsr	$fff0 <__heap_start+0xa9ea>
     c39: 92 24        	sta	($24)                   ; 0x2024 <printf+0x6>
     c3b: a9 00        	lda	#$0
     c3d: 6a           	ror
     c3e: 85 26        	sta	$26                     ; 0x2026 <printf+0x8>
     c40: b2 24        	lda	($24)                   ; 0x2024 <printf+0x6>
     c42: ae 4b 54     	ldx	$544b                   ; 0x544b <spriteStatuses+0x2b>
     c45: 18           	clc
     c46: 75 30        	adc	$30,x                   ; 0x2030 <printf+0x12>
     c48: 8d 48 54     	sta	$5448                   ; 0x5448 <spriteStatuses+0x28>
     c4b: ae 47 54     	ldx	$5447                   ; 0x5447 <spriteStatuses+0x27>
     c4e: 86 f3        	stx	$f3                     ; 0x20f3 <printf+0xd5>
     c50: ae 48 54     	ldx	$5448                   ; 0x5448 <spriteStatuses+0x28>
     c53: 86 f4        	stx	$f4                     ; 0x20f4 <printf+0xd6>
     c55: ae 49 54     	ldx	$5449                   ; 0x5449 <spriteStatuses+0x29>
     c58: 86 f5        	stx	$f5                     ; 0x20f5 <printf+0xd7>
     c5a: 20 f0 ff     	jsr	$fff0 <__heap_start+0xa9ea>
     c5d: 92 24        	sta	($24)                   ; 0x2024 <printf+0x6>
     c5f: a9 00        	lda	#$0
     c61: 6a           	ror
     c62: 85 26        	sta	$26                     ; 0x2026 <printf+0x8>
     c64: 84 f3        	sty	$f3                     ; 0x20f3 <printf+0xd5>
     c66: 20 f0 ff     	jsr	$fff0 <__heap_start+0xa9ea>
     c69: 92 24        	sta	($24)                   ; 0x2024 <printf+0x6>
     c6b: a9 00        	lda	#$0
     c6d: 6a           	ror
     c6e: 85 26        	sta	$26                     ; 0x2026 <printf+0x8>
     c70: b2 24        	lda	($24)                   ; 0x2024 <printf+0x6>
     c72: ae 63 54     	ldx	$5463                   ; 0x5463 <spriteStatuses+0x43>
     c75: 18           	clc
     c76: 75 30        	adc	$30,x                   ; 0x2030 <printf+0x12>
     c78: 8d 60 54     	sta	$5460                   ; 0x5460 <spriteStatuses+0x40>
     c7b: ae 5f 54     	ldx	$545f                   ; 0x545f <spriteStatuses+0x3f>
     c7e: 86 f3        	stx	$f3                     ; 0x20f3 <printf+0xd5>
     c80: ae 60 54     	ldx	$5460                   ; 0x5460 <spriteStatuses+0x40>
     c83: 86 f4        	stx	$f4                     ; 0x20f4 <printf+0xd6>
     c85: ae 61 54     	ldx	$5461                   ; 0x5461 <spriteStatuses+0x41>
     c88: 86 f5        	stx	$f5                     ; 0x20f5 <printf+0xd7>
     c8a: 20 f0 ff     	jsr	$fff0 <__heap_start+0xa9ea>
     c8d: 92 24        	sta	($24)                   ; 0x2024 <printf+0x6>
     c8f: a9 00        	lda	#$0
     c91: 6a           	ror
     c92: 85 26        	sta	$26                     ; 0x2026 <printf+0x8>
     c94: 84 f3        	sty	$f3                     ; 0x20f3 <printf+0xd5>
     c96: 20 f0 ff     	jsr	$fff0 <__heap_start+0xa9ea>
     c99: 92 24        	sta	($24)                   ; 0x2024 <printf+0x6>
     c9b: a9 00        	lda	#$0
     c9d: 6a           	ror
     c9e: 85 26        	sta	$26                     ; 0x2026 <printf+0x8>
     ca0: b2 24        	lda	($24)                   ; 0x2024 <printf+0x6>
     ca2: ae 7b 54     	ldx	$547b                   ; 0x547b <spriteStatuses+0x5b>
     ca5: 18           	clc
     ca6: 75 30        	adc	$30,x                   ; 0x2030 <printf+0x12>
     ca8: 8d 78 54     	sta	$5478                   ; 0x5478 <spriteStatuses+0x58>
     cab: ae 77 54     	ldx	$5477                   ; 0x5477 <spriteStatuses+0x57>
     cae: 86 f3        	stx	$f3                     ; 0x20f3 <printf+0xd5>
     cb0: ae 78 54     	ldx	$5478                   ; 0x5478 <spriteStatuses+0x58>
     cb3: 86 f4        	stx	$f4                     ; 0x20f4 <printf+0xd6>
     cb5: ae 79 54     	ldx	$5479                   ; 0x5479 <spriteStatuses+0x59>
     cb8: 86 f5        	stx	$f5                     ; 0x20f5 <printf+0xd7>
     cba: 20 f0 ff     	jsr	$fff0 <__heap_start+0xa9ea>
     cbd: 92 24        	sta	($24)                   ; 0x2024 <printf+0x6>
     cbf: a9 00        	lda	#$0
     cc1: 6a           	ror
     cc2: 85 26        	sta	$26                     ; 0x2026 <printf+0x8>
     cc4: 84 f3        	sty	$f3                     ; 0x20f3 <printf+0xd5>
     cc6: 20 f0 ff     	jsr	$fff0 <__heap_start+0xa9ea>
     cc9: 92 24        	sta	($24)                   ; 0x2024 <printf+0x6>
     ccb: a9 00        	lda	#$0
     ccd: 6a           	ror
     cce: 85 26        	sta	$26                     ; 0x2026 <printf+0x8>
     cd0: b2 24        	lda	($24)                   ; 0x2024 <printf+0x6>
     cd2: ae 93 54     	ldx	$5493                   ; 0x5493 <spriteStatuses+0x73>
     cd5: 18           	clc
     cd6: 75 30        	adc	$30,x                   ; 0x2030 <printf+0x12>
     cd8: 8d 90 54     	sta	$5490                   ; 0x5490 <spriteStatuses+0x70>
     cdb: ae 8f 54     	ldx	$548f                   ; 0x548f <spriteStatuses+0x6f>
     cde: 86 f3        	stx	$f3                     ; 0x20f3 <printf+0xd5>
     ce0: ae 90 54     	ldx	$5490                   ; 0x5490 <spriteStatuses+0x70>
     ce3: 86 f4        	stx	$f4                     ; 0x20f4 <printf+0xd6>
     ce5: ae 91 54     	ldx	$5491                   ; 0x5491 <spriteStatuses+0x71>
     ce8: 86 f5        	stx	$f5                     ; 0x20f5 <printf+0xd7>
     cea: 20 f0 ff     	jsr	$fff0 <__heap_start+0xa9ea>
     ced: 92 24        	sta	($24)                   ; 0x2024 <printf+0x6>
     cef: a9 00        	lda	#$0
     cf1: 6a           	ror
     cf2: 85 26        	sta	$26                     ; 0x2026 <printf+0x8>
     cf4: 84 f3        	sty	$f3                     ; 0x20f3 <printf+0xd5>
     cf6: 20 f0 ff     	jsr	$fff0 <__heap_start+0xa9ea>
     cf9: 92 24        	sta	($24)                   ; 0x2024 <printf+0x6>
     cfb: a9 00        	lda	#$0
     cfd: 6a           	ror
     cfe: 85 26        	sta	$26                     ; 0x2026 <printf+0x8>
     d00: a9 02        	lda	#$2
     d02: 18           	clc
     d03: 72 24        	adc	($24)                   ; 0x2024 <printf+0x6>
     d05: 85 7b        	sta	$7b                     ; 0x207b <printf+0x5d>
     d07: 64 f3        	stz	$f3                     ; 0x20f3 <printf+0xd5>
     d09: a6 7b        	ldx	$7b                     ; 0x207b <printf+0x5d>
     d0b: 86 f4        	stx	$f4                     ; 0x20f4 <printf+0xd6>
     d0d: a2 63        	ldx	#$63
     d0f: 86 f5        	stx	$f5                     ; 0x20f5 <printf+0xd7>
     d11: c8           	iny
     d12: 20 f0 ff     	jsr	$fff0 <__heap_start+0xa9ea>
     d15: 92 24        	sta	($24)                   ; 0x2024 <printf+0x6>
     d17: a9 00        	lda	#$0
     d19: 6a           	ror
     d1a: 85 26        	sta	$26                     ; 0x2026 <printf+0x8>
     d1c: 8c 80 d8     	sty	$d880                   ; 0xd880 <__heap_start+0x827a>
     d1f: 64 7c        	stz	$7c                     ; 0x207c <printf+0x5e>
     d21: 20 00 ff     	jsr	$ff00 <__heap_start+0xa8fa>
     d24: 92 24        	sta	($24)                   ; 0x2024 <printf+0x6>
     d26: a9 00        	lda	#$0
     d28: 6a           	ror
     d29: 85 26        	sta	$26                     ; 0x2026 <printf+0x8>
     d2b: a6 7c        	ldx	$7c                     ; 0x207c <printf+0x5e>
     d2d: e0 52        	cpx	#$52
     d2f: d0 eb        	bne	$d1c <f256main+0x4eb>
     d31: a6 80        	ldx	$80                     ; 0x2080 <printf+0x62>
     d33: e0 0a        	cpx	#$a
     d35: 5a           	phy
     d36: a0 01        	ldy	#$1
     d38: b0 02        	bcs	$d3c <f256main+0x50b>
     d3a: a0 00        	ldy	#$0
     d3c: 84 14        	sty	$14                     ; 0x2014 <_ZN12_GLOBAL__N_112print_stringEPKcP6Status+0x103>
     d3e: 8a           	txa
     d3f: 0a           	asl
     d40: 64 12        	stz	$12                     ; 0x2012 <_ZN12_GLOBAL__N_112print_stringEPKcP6Status+0x101>
     d42: 26 12        	rol	$12                     ; 0x2012 <_ZN12_GLOBAL__N_112print_stringEPKcP6Status+0x101>
     d44: 0a           	asl
     d45: 26 12        	rol	$12                     ; 0x2012 <_ZN12_GLOBAL__N_112print_stringEPKcP6Status+0x101>
     d47: 0a           	asl
     d48: 85 13        	sta	$13                     ; 0x2013 <_ZN12_GLOBAL__N_112print_stringEPKcP6Status+0x102>
     d4a: 26 12        	rol	$12                     ; 0x2012 <_ZN12_GLOBAL__N_112print_stringEPKcP6Status+0x101>
     d4c: 0a           	asl
     d4d: a4 12        	ldy	$12                     ; 0x2012 <_ZN12_GLOBAL__N_112print_stringEPKcP6Status+0x101>
     d4f: 84 15        	sty	$15                     ; 0x2015 <_ZN12_GLOBAL__N_112print_stringEPKcP6Status+0x104>
     d51: 7a           	ply
     d52: 26 15        	rol	$15                     ; 0x2015 <_ZN12_GLOBAL__N_112print_stringEPKcP6Status+0x104>
     d54: e6 14        	inc	$14                     ; 0x2014 <_ZN12_GLOBAL__N_112print_stringEPKcP6Status+0x103>
     d56: c6 14        	dec	$14                     ; 0x2014 <_ZN12_GLOBAL__N_112print_stringEPKcP6Status+0x103>
     d58: d0 03        	bne	$d5d <f256main+0x52c>
     d5a: 4c 17 0e     	jmp	$e17 <f256main+0x5e6>
     d5d: 85 14        	sta	$14                     ; 0x2014 <_ZN12_GLOBAL__N_112print_stringEPKcP6Status+0x103>
     d5f: 8a           	txa
     d60: 38           	sec
     d61: e9 0a        	sbc	#$a
     d63: c9 0a        	cmp	#$a
     d65: 90 03        	bcc	$d6a <f256main+0x539>
     d67: 4c f6 0f     	jmp	$ff6 <f256main+0x7c5>
     d6a: 18           	clc
     d6b: a5 14        	lda	$14                     ; 0x2014 <_ZN12_GLOBAL__N_112print_stringEPKcP6Status+0x103>
     d6d: 65 13        	adc	$13                     ; 0x2013 <_ZN12_GLOBAL__N_112print_stringEPKcP6Status+0x102>
     d6f: 85 14        	sta	$14                     ; 0x2014 <_ZN12_GLOBAL__N_112print_stringEPKcP6Status+0x103>
     d71: a5 15        	lda	$15                     ; 0x2015 <_ZN12_GLOBAL__N_112print_stringEPKcP6Status+0x104>
     d73: 65 12        	adc	$12                     ; 0x2012 <_ZN12_GLOBAL__N_112print_stringEPKcP6Status+0x101>
     d75: 85 15        	sta	$15                     ; 0x2015 <_ZN12_GLOBAL__N_112print_stringEPKcP6Status+0x104>
     d77: a9 20        	lda	#$20
     d79: 18           	clc
     d7a: 65 14        	adc	$14                     ; 0x2014 <_ZN12_GLOBAL__N_112print_stringEPKcP6Status+0x103>
     d7c: a8           	tay
     d7d: a9 54        	lda	#$54
     d7f: 65 15        	adc	$15                     ; 0x2015 <_ZN12_GLOBAL__N_112print_stringEPKcP6Status+0x104>
     d81: 85 18        	sta	$18                     ; 0x2018 <_ZN12_GLOBAL__N_112print_stringEPKcP6Status+0x107>
     d83: 84 14        	sty	$14                     ; 0x2014 <_ZN12_GLOBAL__N_112print_stringEPKcP6Status+0x103>
     d85: 84 19        	sty	$19                     ; 0x2019 <_ZN12_GLOBAL__N_112print_stringEPKcP6Status+0x108>
     d87: 85 15        	sta	$15                     ; 0x2015 <_ZN12_GLOBAL__N_112print_stringEPKcP6Status+0x104>
     d89: a0 0a        	ldy	#$a
     d8b: b1 14        	lda	($14),y                 ; 0x2014 <_ZN12_GLOBAL__N_112print_stringEPKcP6Status+0x103>
     d8d: 85 17        	sta	$17                     ; 0x2017 <_ZN12_GLOBAL__N_112print_stringEPKcP6Status+0x106>
     d8f: 85 16        	sta	$16                     ; 0x2016 <_ZN12_GLOBAL__N_112print_stringEPKcP6Status+0x105>
     d91: e6 16        	inc	$16                     ; 0x2016 <_ZN12_GLOBAL__N_112print_stringEPKcP6Status+0x105>
     d93: a5 16        	lda	$16                     ; 0x2016 <_ZN12_GLOBAL__N_112print_stringEPKcP6Status+0x105>
     d95: 91 14        	sta	($14),y                 ; 0x2014 <_ZN12_GLOBAL__N_112print_stringEPKcP6Status+0x103>
     d97: 18           	clc
     d98: a5 19        	lda	$19                     ; 0x2019 <_ZN12_GLOBAL__N_112print_stringEPKcP6Status+0x108>
     d9a: 69 16        	adc	#$16
     d9c: a8           	tay
     d9d: a5 18        	lda	$18                     ; 0x2018 <_ZN12_GLOBAL__N_112print_stringEPKcP6Status+0x107>
     d9f: 69 00        	adc	#$0
     da1: 84 18        	sty	$18                     ; 0x2018 <_ZN12_GLOBAL__N_112print_stringEPKcP6Status+0x107>
     da3: 85 19        	sta	$19                     ; 0x2019 <_ZN12_GLOBAL__N_112print_stringEPKcP6Status+0x108>
     da5: a0 16        	ldy	#$16
     da7: b1 14        	lda	($14),y                 ; 0x2014 <_ZN12_GLOBAL__N_112print_stringEPKcP6Status+0x103>
     da9: 85 1a        	sta	$1a                     ; 0x201a <_ZN12_GLOBAL__N_112print_stringEPKcP6Status+0x109>
     dab: a0 01        	ldy	#$1
     dad: b1 18        	lda	($18),y                 ; 0x2018 <_ZN12_GLOBAL__N_112print_stringEPKcP6Status+0x107>
     daf: 85 1b        	sta	$1b                     ; 0x201b <_ZN12_GLOBAL__N_112print_stringEPKcP6Status+0x10a>
     db1: a0 13        	ldy	#$13
     db3: b1 14        	lda	($14),y                 ; 0x2014 <_ZN12_GLOBAL__N_112print_stringEPKcP6Status+0x103>
     db5: a8           	tay
     db6: b1 1a        	lda	($1a),y                 ; 0x201a <_ZN12_GLOBAL__N_112print_stringEPKcP6Status+0x109>
     db8: c5 16        	cmp	$16                     ; 0x2016 <_ZN12_GLOBAL__N_112print_stringEPKcP6Status+0x105>
     dba: 90 03        	bcc	$dbf <f256main+0x58e>
     dbc: 4c 77 0e     	jmp	$e77 <f256main+0x646>
     dbf: a0 0a        	ldy	#$a
     dc1: a5 17        	lda	$17                     ; 0x2017 <_ZN12_GLOBAL__N_112print_stringEPKcP6Status+0x106>
     dc3: 91 14        	sta	($14),y                 ; 0x2014 <_ZN12_GLOBAL__N_112print_stringEPKcP6Status+0x103>
     dc5: a5 13        	lda	$13                     ; 0x2013 <_ZN12_GLOBAL__N_112print_stringEPKcP6Status+0x102>
     dc7: 18           	clc
     dc8: 69 00        	adc	#$0
     dca: a8           	tay
     dcb: a5 12        	lda	$12                     ; 0x2012 <_ZN12_GLOBAL__N_112print_stringEPKcP6Status+0x101>
     dcd: 69 d9        	adc	#$d9
     dcf: 84 12        	sty	$12                     ; 0x2012 <_ZN12_GLOBAL__N_112print_stringEPKcP6Status+0x101>
     dd1: 85 13        	sta	$13                     ; 0x2013 <_ZN12_GLOBAL__N_112print_stringEPKcP6Status+0x102>
     dd3: b5 39        	lda	$39,x                   ; 0x2039 <printf+0x1b>
     dd5: 92 12        	sta	($12)                   ; 0x2012 <_ZN12_GLOBAL__N_112print_stringEPKcP6Status+0x101>
     dd7: a5 80        	lda	$80                     ; 0x2080 <printf+0x62>
     dd9: 18           	clc
     dda: 69 f6        	adc	#$f6
     ddc: 85 12        	sta	$12                     ; 0x2012 <_ZN12_GLOBAL__N_112print_stringEPKcP6Status+0x101>
     dde: a9 00        	lda	#$0
     de0: 69 ff        	adc	#$ff
     de2: 06 12        	asl	$12                     ; 0x2012 <_ZN12_GLOBAL__N_112print_stringEPKcP6Status+0x101>
     de4: 2a           	rol
     de5: 06 12        	asl	$12                     ; 0x2012 <_ZN12_GLOBAL__N_112print_stringEPKcP6Status+0x101>
     de7: 2a           	rol
     de8: 06 12        	asl	$12                     ; 0x2012 <_ZN12_GLOBAL__N_112print_stringEPKcP6Status+0x101>
     dea: 2a           	rol
     deb: 85 13        	sta	$13                     ; 0x2013 <_ZN12_GLOBAL__N_112print_stringEPKcP6Status+0x102>
     ded: a5 12        	lda	$12                     ; 0x2012 <_ZN12_GLOBAL__N_112print_stringEPKcP6Status+0x101>
     def: 0a           	asl
     df0: a6 13        	ldx	$13                     ; 0x2013 <_ZN12_GLOBAL__N_112print_stringEPKcP6Status+0x102>
     df2: 86 14        	stx	$14                     ; 0x2014 <_ZN12_GLOBAL__N_112print_stringEPKcP6Status+0x103>
     df4: 26 14        	rol	$14                     ; 0x2014 <_ZN12_GLOBAL__N_112print_stringEPKcP6Status+0x103>
     df6: 18           	clc
     df7: 65 12        	adc	$12                     ; 0x2012 <_ZN12_GLOBAL__N_112print_stringEPKcP6Status+0x101>
     df9: 85 12        	sta	$12                     ; 0x2012 <_ZN12_GLOBAL__N_112print_stringEPKcP6Status+0x101>
     dfb: a5 14        	lda	$14                     ; 0x2014 <_ZN12_GLOBAL__N_112print_stringEPKcP6Status+0x103>
     dfd: 65 13        	adc	$13                     ; 0x2013 <_ZN12_GLOBAL__N_112print_stringEPKcP6Status+0x102>
     dff: 85 13        	sta	$13                     ; 0x2013 <_ZN12_GLOBAL__N_112print_stringEPKcP6Status+0x102>
     e01: a9 20        	lda	#$20
     e03: 18           	clc
     e04: 65 12        	adc	$12                     ; 0x2012 <_ZN12_GLOBAL__N_112print_stringEPKcP6Status+0x101>
     e06: 85 12        	sta	$12                     ; 0x2012 <_ZN12_GLOBAL__N_112print_stringEPKcP6Status+0x101>
     e08: a9 54        	lda	#$54
     e0a: 65 13        	adc	$13                     ; 0x2013 <_ZN12_GLOBAL__N_112print_stringEPKcP6Status+0x102>
     e0c: 85 13        	sta	$13                     ; 0x2013 <_ZN12_GLOBAL__N_112print_stringEPKcP6Status+0x102>
     e0e: a9 00        	lda	#$0
     e10: a0 05        	ldy	#$5
     e12: 91 12        	sta	($12),y                 ; 0x2012 <_ZN12_GLOBAL__N_112print_stringEPKcP6Status+0x101>
     e14: 4c ec 0f     	jmp	$fec <f256main+0x7bb>
     e17: a4 15        	ldy	$15                     ; 0x2015 <_ZN12_GLOBAL__N_112print_stringEPKcP6Status+0x104>
     e19: aa           	tax
     e1a: 18           	clc
     e1b: 65 13        	adc	$13                     ; 0x2013 <_ZN12_GLOBAL__N_112print_stringEPKcP6Status+0x102>
     e1d: 85 16        	sta	$16                     ; 0x2016 <_ZN12_GLOBAL__N_112print_stringEPKcP6Status+0x105>
     e1f: 85 14        	sta	$14                     ; 0x2014 <_ZN12_GLOBAL__N_112print_stringEPKcP6Status+0x103>
     e21: 84 17        	sty	$17                     ; 0x2017 <_ZN12_GLOBAL__N_112print_stringEPKcP6Status+0x106>
     e23: a5 15        	lda	$15                     ; 0x2015 <_ZN12_GLOBAL__N_112print_stringEPKcP6Status+0x104>
     e25: 65 12        	adc	$12                     ; 0x2012 <_ZN12_GLOBAL__N_112print_stringEPKcP6Status+0x101>
     e27: 85 18        	sta	$18                     ; 0x2018 <_ZN12_GLOBAL__N_112print_stringEPKcP6Status+0x107>
     e29: 85 15        	sta	$15                     ; 0x2015 <_ZN12_GLOBAL__N_112print_stringEPKcP6Status+0x104>
     e2b: 18           	clc
     e2c: a9 20        	lda	#$20
     e2e: 65 14        	adc	$14                     ; 0x2014 <_ZN12_GLOBAL__N_112print_stringEPKcP6Status+0x103>
     e30: 85 14        	sta	$14                     ; 0x2014 <_ZN12_GLOBAL__N_112print_stringEPKcP6Status+0x103>
     e32: a9 54        	lda	#$54
     e34: 65 15        	adc	$15                     ; 0x2015 <_ZN12_GLOBAL__N_112print_stringEPKcP6Status+0x104>
     e36: 85 15        	sta	$15                     ; 0x2015 <_ZN12_GLOBAL__N_112print_stringEPKcP6Status+0x104>
     e38: a0 13        	ldy	#$13
     e3a: b1 14        	lda	($14),y                 ; 0x2014 <_ZN12_GLOBAL__N_112print_stringEPKcP6Status+0x103>
     e3c: 85 1a        	sta	$1a                     ; 0x201a <_ZN12_GLOBAL__N_112print_stringEPKcP6Status+0x109>
     e3e: 29 fe        	and	#$fe
     e40: c9 04        	cmp	#$4
     e42: f0 03        	beq	$e47 <f256main+0x616>
     e44: 4c 05 0f     	jmp	$f05 <f256main+0x6d4>
     e47: 18           	clc
     e48: 8a           	txa
     e49: 65 13        	adc	$13                     ; 0x2013 <_ZN12_GLOBAL__N_112print_stringEPKcP6Status+0x102>
     e4b: 85 13        	sta	$13                     ; 0x2013 <_ZN12_GLOBAL__N_112print_stringEPKcP6Status+0x102>
     e4d: a5 17        	lda	$17                     ; 0x2017 <_ZN12_GLOBAL__N_112print_stringEPKcP6Status+0x106>
     e4f: 65 12        	adc	$12                     ; 0x2012 <_ZN12_GLOBAL__N_112print_stringEPKcP6Status+0x101>
     e51: 85 12        	sta	$12                     ; 0x2012 <_ZN12_GLOBAL__N_112print_stringEPKcP6Status+0x101>
     e53: a9 20        	lda	#$20
     e55: 18           	clc
     e56: 65 13        	adc	$13                     ; 0x2013 <_ZN12_GLOBAL__N_112print_stringEPKcP6Status+0x102>
     e58: aa           	tax
     e59: a9 54        	lda	#$54
     e5b: 65 12        	adc	$12                     ; 0x2012 <_ZN12_GLOBAL__N_112print_stringEPKcP6Status+0x101>
     e5d: 86 12        	stx	$12                     ; 0x2012 <_ZN12_GLOBAL__N_112print_stringEPKcP6Status+0x101>
     e5f: 85 13        	sta	$13                     ; 0x2013 <_ZN12_GLOBAL__N_112print_stringEPKcP6Status+0x102>
     e61: a0 04        	ldy	#$4
     e63: b1 12        	lda	($12),y                 ; 0x2012 <_ZN12_GLOBAL__N_112print_stringEPKcP6Status+0x101>
     e65: a2 01        	ldx	#$1
     e67: a8           	tay
     e68: f0 02        	beq	$e6c <f256main+0x63b>
     e6a: a2 00        	ldx	#$0
     e6c: 8a           	txa
     e6d: d0 03        	bne	$e72 <f256main+0x641>
     e6f: 4c dd 0e     	jmp	$edd <f256main+0x6ac>
     e72: a9 01        	lda	#$1
     e74: 4c df 0e     	jmp	$edf <f256main+0x6ae>
     e77: a2 80        	ldx	#$80
     e79: 86 f3        	stx	$f3                     ; 0x20f3 <printf+0xd5>
     e7b: 20 f0 ff     	jsr	$fff0 <__heap_start+0xa9ea>
     e7e: 92 24        	sta	($24)                   ; 0x2024 <printf+0x6>
     e80: a9 00        	lda	#$0
     e82: 6a           	ror
     e83: 85 26        	sta	$26                     ; 0x2026 <printf+0x8>
     e85: a9 08        	lda	#$8
     e87: 18           	clc
     e88: 72 24        	adc	($24)                   ; 0x2024 <printf+0x6>
     e8a: 85 14        	sta	$14                     ; 0x2014 <_ZN12_GLOBAL__N_112print_stringEPKcP6Status+0x103>
     e8c: a5 80        	lda	$80                     ; 0x2080 <printf+0x62>
     e8e: 0a           	asl
     e8f: 64 12        	stz	$12                     ; 0x2012 <_ZN12_GLOBAL__N_112print_stringEPKcP6Status+0x101>
     e91: 26 12        	rol	$12                     ; 0x2012 <_ZN12_GLOBAL__N_112print_stringEPKcP6Status+0x101>
     e93: 0a           	asl
     e94: 26 12        	rol	$12                     ; 0x2012 <_ZN12_GLOBAL__N_112print_stringEPKcP6Status+0x101>
     e96: 0a           	asl
     e97: 85 13        	sta	$13                     ; 0x2013 <_ZN12_GLOBAL__N_112print_stringEPKcP6Status+0x102>
     e99: 26 12        	rol	$12                     ; 0x2012 <_ZN12_GLOBAL__N_112print_stringEPKcP6Status+0x101>
     e9b: 0a           	asl
     e9c: a6 12        	ldx	$12                     ; 0x2012 <_ZN12_GLOBAL__N_112print_stringEPKcP6Status+0x101>
     e9e: 86 15        	stx	$15                     ; 0x2015 <_ZN12_GLOBAL__N_112print_stringEPKcP6Status+0x104>
     ea0: 26 15        	rol	$15                     ; 0x2015 <_ZN12_GLOBAL__N_112print_stringEPKcP6Status+0x104>
     ea2: 18           	clc
     ea3: 65 13        	adc	$13                     ; 0x2013 <_ZN12_GLOBAL__N_112print_stringEPKcP6Status+0x102>
     ea5: 85 13        	sta	$13                     ; 0x2013 <_ZN12_GLOBAL__N_112print_stringEPKcP6Status+0x102>
     ea7: a5 15        	lda	$15                     ; 0x2015 <_ZN12_GLOBAL__N_112print_stringEPKcP6Status+0x104>
     ea9: 65 12        	adc	$12                     ; 0x2012 <_ZN12_GLOBAL__N_112print_stringEPKcP6Status+0x101>
     eab: 85 12        	sta	$12                     ; 0x2012 <_ZN12_GLOBAL__N_112print_stringEPKcP6Status+0x101>
     ead: a9 20        	lda	#$20
     eaf: 18           	clc
     eb0: 65 13        	adc	$13                     ; 0x2013 <_ZN12_GLOBAL__N_112print_stringEPKcP6Status+0x102>
     eb2: aa           	tax
     eb3: a9 54        	lda	#$54
     eb5: 65 12        	adc	$12                     ; 0x2012 <_ZN12_GLOBAL__N_112print_stringEPKcP6Status+0x101>
     eb7: 86 12        	stx	$12                     ; 0x2012 <_ZN12_GLOBAL__N_112print_stringEPKcP6Status+0x101>
     eb9: 85 13        	sta	$13                     ; 0x2013 <_ZN12_GLOBAL__N_112print_stringEPKcP6Status+0x102>
     ebb: a0 10        	ldy	#$10
     ebd: a5 14        	lda	$14                     ; 0x2014 <_ZN12_GLOBAL__N_112print_stringEPKcP6Status+0x103>
     ebf: 91 12        	sta	($12),y                 ; 0x2012 <_ZN12_GLOBAL__N_112print_stringEPKcP6Status+0x101>
     ec1: 88           	dey
     ec2: b1 12        	lda	($12),y                 ; 0x2012 <_ZN12_GLOBAL__N_112print_stringEPKcP6Status+0x101>
     ec4: 85 f3        	sta	$f3                     ; 0x20f3 <printf+0xd5>
     ec6: c8           	iny
     ec7: b1 12        	lda	($12),y                 ; 0x2012 <_ZN12_GLOBAL__N_112print_stringEPKcP6Status+0x101>
     ec9: 85 f4        	sta	$f4                     ; 0x20f4 <printf+0xd6>
     ecb: c8           	iny
     ecc: b1 12        	lda	($12),y                 ; 0x2012 <_ZN12_GLOBAL__N_112print_stringEPKcP6Status+0x101>
     ece: 85 f5        	sta	$f5                     ; 0x20f5 <printf+0xd7>
     ed0: 20 f0 ff     	jsr	$fff0 <__heap_start+0xa9ea>
     ed3: 92 24        	sta	($24)                   ; 0x2024 <printf+0x6>
     ed5: a9 00        	lda	#$0
     ed7: 6a           	ror
     ed8: 85 26        	sta	$26                     ; 0x2026 <printf+0x8>
     eda: 4c ec 0f     	jmp	$fec <f256main+0x7bb>
     edd: a9 00        	lda	#$0
     edf: a0 13        	ldy	#$13
     ee1: 85 1a        	sta	$1a                     ; 0x201a <_ZN12_GLOBAL__N_112print_stringEPKcP6Status+0x109>
     ee3: 91 12        	sta	($12),y                 ; 0x2012 <_ZN12_GLOBAL__N_112print_stringEPKcP6Status+0x101>
     ee5: a0 00        	ldy	#$0
     ee7: 8a           	txa
     ee8: d0 02        	bne	$eec <f256main+0x6bb>
     eea: a0 02        	ldy	#$2
     eec: a6 18        	ldx	$18                     ; 0x2018 <_ZN12_GLOBAL__N_112print_stringEPKcP6Status+0x107>
     eee: 86 13        	stx	$13                     ; 0x2013 <_ZN12_GLOBAL__N_112print_stringEPKcP6Status+0x102>
     ef0: a9 20        	lda	#$20
     ef2: 18           	clc
     ef3: 65 16        	adc	$16                     ; 0x2016 <_ZN12_GLOBAL__N_112print_stringEPKcP6Status+0x105>
     ef5: 85 12        	sta	$12                     ; 0x2012 <_ZN12_GLOBAL__N_112print_stringEPKcP6Status+0x101>
     ef7: 84 14        	sty	$14                     ; 0x2014 <_ZN12_GLOBAL__N_112print_stringEPKcP6Status+0x103>
     ef9: a9 54        	lda	#$54
     efb: 65 13        	adc	$13                     ; 0x2013 <_ZN12_GLOBAL__N_112print_stringEPKcP6Status+0x102>
     efd: 85 13        	sta	$13                     ; 0x2013 <_ZN12_GLOBAL__N_112print_stringEPKcP6Status+0x102>
     eff: a0 0a        	ldy	#$a
     f01: a5 14        	lda	$14                     ; 0x2014 <_ZN12_GLOBAL__N_112print_stringEPKcP6Status+0x103>
     f03: 91 12        	sta	($12),y                 ; 0x2012 <_ZN12_GLOBAL__N_112print_stringEPKcP6Status+0x101>
     f05: a2 80        	ldx	#$80
     f07: 86 f3        	stx	$f3                     ; 0x20f3 <printf+0xd5>
     f09: 20 f0 ff     	jsr	$fff0 <__heap_start+0xa9ea>
     f0c: 92 24        	sta	($24)                   ; 0x2024 <printf+0x6>
     f0e: a9 00        	lda	#$0
     f10: 6a           	ror
     f11: 85 26        	sta	$26                     ; 0x2026 <printf+0x8>
     f13: b2 24        	lda	($24)                   ; 0x2024 <printf+0x6>
     f15: 85 14        	sta	$14                     ; 0x2014 <_ZN12_GLOBAL__N_112print_stringEPKcP6Status+0x103>
     f17: a5 80        	lda	$80                     ; 0x2080 <printf+0x62>
     f19: 0a           	asl
     f1a: 64 12        	stz	$12                     ; 0x2012 <_ZN12_GLOBAL__N_112print_stringEPKcP6Status+0x101>
     f1c: 26 12        	rol	$12                     ; 0x2012 <_ZN12_GLOBAL__N_112print_stringEPKcP6Status+0x101>
     f1e: 0a           	asl
     f1f: 26 12        	rol	$12                     ; 0x2012 <_ZN12_GLOBAL__N_112print_stringEPKcP6Status+0x101>
     f21: 0a           	asl
     f22: 85 13        	sta	$13                     ; 0x2013 <_ZN12_GLOBAL__N_112print_stringEPKcP6Status+0x102>
     f24: 26 12        	rol	$12                     ; 0x2012 <_ZN12_GLOBAL__N_112print_stringEPKcP6Status+0x101>
     f26: 0a           	asl
     f27: a6 12        	ldx	$12                     ; 0x2012 <_ZN12_GLOBAL__N_112print_stringEPKcP6Status+0x101>
     f29: 86 15        	stx	$15                     ; 0x2015 <_ZN12_GLOBAL__N_112print_stringEPKcP6Status+0x104>
     f2b: 26 15        	rol	$15                     ; 0x2015 <_ZN12_GLOBAL__N_112print_stringEPKcP6Status+0x104>
     f2d: 18           	clc
     f2e: 65 13        	adc	$13                     ; 0x2013 <_ZN12_GLOBAL__N_112print_stringEPKcP6Status+0x102>
     f30: 85 13        	sta	$13                     ; 0x2013 <_ZN12_GLOBAL__N_112print_stringEPKcP6Status+0x102>
     f32: a5 15        	lda	$15                     ; 0x2015 <_ZN12_GLOBAL__N_112print_stringEPKcP6Status+0x104>
     f34: 65 12        	adc	$12                     ; 0x2012 <_ZN12_GLOBAL__N_112print_stringEPKcP6Status+0x101>
     f36: 85 12        	sta	$12                     ; 0x2012 <_ZN12_GLOBAL__N_112print_stringEPKcP6Status+0x101>
     f38: a9 20        	lda	#$20
     f3a: 18           	clc
     f3b: 65 13        	adc	$13                     ; 0x2013 <_ZN12_GLOBAL__N_112print_stringEPKcP6Status+0x102>
     f3d: aa           	tax
     f3e: a9 54        	lda	#$54
     f40: 65 12        	adc	$12                     ; 0x2012 <_ZN12_GLOBAL__N_112print_stringEPKcP6Status+0x101>
     f42: 86 12        	stx	$12                     ; 0x2012 <_ZN12_GLOBAL__N_112print_stringEPKcP6Status+0x101>
     f44: 85 13        	sta	$13                     ; 0x2013 <_ZN12_GLOBAL__N_112print_stringEPKcP6Status+0x102>
     f46: a0 13        	ldy	#$13
     f48: b1 12        	lda	($12),y                 ; 0x2012 <_ZN12_GLOBAL__N_112print_stringEPKcP6Status+0x101>
     f4a: aa           	tax
     f4b: 18           	clc
     f4c: a5 14        	lda	$14                     ; 0x2014 <_ZN12_GLOBAL__N_112print_stringEPKcP6Status+0x103>
     f4e: 75 30        	adc	$30,x                   ; 0x2030 <printf+0x12>
     f50: a0 10        	ldy	#$10
     f52: 91 12        	sta	($12),y                 ; 0x2012 <_ZN12_GLOBAL__N_112print_stringEPKcP6Status+0x101>
     f54: 88           	dey
     f55: b1 12        	lda	($12),y                 ; 0x2012 <_ZN12_GLOBAL__N_112print_stringEPKcP6Status+0x101>
     f57: 85 f3        	sta	$f3                     ; 0x20f3 <printf+0xd5>
     f59: c8           	iny
     f5a: b1 12        	lda	($12),y                 ; 0x2012 <_ZN12_GLOBAL__N_112print_stringEPKcP6Status+0x101>
     f5c: 85 f4        	sta	$f4                     ; 0x20f4 <printf+0xd6>
     f5e: c8           	iny
     f5f: b1 12        	lda	($12),y                 ; 0x2012 <_ZN12_GLOBAL__N_112print_stringEPKcP6Status+0x101>
     f61: 85 f5        	sta	$f5                     ; 0x20f5 <printf+0xd7>
     f63: 20 f0 ff     	jsr	$fff0 <__heap_start+0xa9ea>
     f66: 92 24        	sta	($24)                   ; 0x2024 <printf+0x6>
     f68: a9 00        	lda	#$0
     f6a: 6a           	ror
     f6b: 85 26        	sta	$26                     ; 0x2026 <printf+0x8>
     f6d: a5 80        	lda	$80                     ; 0x2080 <printf+0x62>
     f6f: 0a           	asl
     f70: 64 12        	stz	$12                     ; 0x2012 <_ZN12_GLOBAL__N_112print_stringEPKcP6Status+0x101>
     f72: 26 12        	rol	$12                     ; 0x2012 <_ZN12_GLOBAL__N_112print_stringEPKcP6Status+0x101>
     f74: 0a           	asl
     f75: 26 12        	rol	$12                     ; 0x2012 <_ZN12_GLOBAL__N_112print_stringEPKcP6Status+0x101>
     f77: 0a           	asl
     f78: 85 13        	sta	$13                     ; 0x2013 <_ZN12_GLOBAL__N_112print_stringEPKcP6Status+0x102>
     f7a: 26 12        	rol	$12                     ; 0x2012 <_ZN12_GLOBAL__N_112print_stringEPKcP6Status+0x101>
     f7c: 0a           	asl
     f7d: a6 12        	ldx	$12                     ; 0x2012 <_ZN12_GLOBAL__N_112print_stringEPKcP6Status+0x101>
     f7f: 86 14        	stx	$14                     ; 0x2014 <_ZN12_GLOBAL__N_112print_stringEPKcP6Status+0x103>
     f81: 26 14        	rol	$14                     ; 0x2014 <_ZN12_GLOBAL__N_112print_stringEPKcP6Status+0x103>
     f83: 18           	clc
     f84: 65 13        	adc	$13                     ; 0x2013 <_ZN12_GLOBAL__N_112print_stringEPKcP6Status+0x102>
     f86: 85 13        	sta	$13                     ; 0x2013 <_ZN12_GLOBAL__N_112print_stringEPKcP6Status+0x102>
     f88: a5 14        	lda	$14                     ; 0x2014 <_ZN12_GLOBAL__N_112print_stringEPKcP6Status+0x103>
     f8a: 65 12        	adc	$12                     ; 0x2012 <_ZN12_GLOBAL__N_112print_stringEPKcP6Status+0x101>
     f8c: 85 12        	sta	$12                     ; 0x2012 <_ZN12_GLOBAL__N_112print_stringEPKcP6Status+0x101>
     f8e: a9 20        	lda	#$20
     f90: 18           	clc
     f91: 65 13        	adc	$13                     ; 0x2013 <_ZN12_GLOBAL__N_112print_stringEPKcP6Status+0x102>
     f93: 85 15        	sta	$15                     ; 0x2015 <_ZN12_GLOBAL__N_112print_stringEPKcP6Status+0x104>
     f95: a9 54        	lda	#$54
     f97: 65 12        	adc	$12                     ; 0x2012 <_ZN12_GLOBAL__N_112print_stringEPKcP6Status+0x101>
     f99: a6 15        	ldx	$15                     ; 0x2015 <_ZN12_GLOBAL__N_112print_stringEPKcP6Status+0x104>
     f9b: 86 12        	stx	$12                     ; 0x2012 <_ZN12_GLOBAL__N_112print_stringEPKcP6Status+0x101>
     f9d: 85 13        	sta	$13                     ; 0x2013 <_ZN12_GLOBAL__N_112print_stringEPKcP6Status+0x102>
     f9f: aa           	tax
     fa0: a0 0a        	ldy	#$a
     fa2: b1 12        	lda	($12),y                 ; 0x2012 <_ZN12_GLOBAL__N_112print_stringEPKcP6Status+0x101>
     fa4: 1a           	inc
     fa5: 85 14        	sta	$14                     ; 0x2014 <_ZN12_GLOBAL__N_112print_stringEPKcP6Status+0x103>
     fa7: 91 12        	sta	($12),y                 ; 0x2012 <_ZN12_GLOBAL__N_112print_stringEPKcP6Status+0x101>
     fa9: 18           	clc
     faa: a5 15        	lda	$15                     ; 0x2015 <_ZN12_GLOBAL__N_112print_stringEPKcP6Status+0x104>
     fac: 69 16        	adc	#$16
     fae: 85 16        	sta	$16                     ; 0x2016 <_ZN12_GLOBAL__N_112print_stringEPKcP6Status+0x105>
     fb0: 8a           	txa
     fb1: 69 00        	adc	#$0
     fb3: 85 17        	sta	$17                     ; 0x2017 <_ZN12_GLOBAL__N_112print_stringEPKcP6Status+0x106>
     fb5: a0 16        	ldy	#$16
     fb7: b1 12        	lda	($12),y                 ; 0x2012 <_ZN12_GLOBAL__N_112print_stringEPKcP6Status+0x101>
     fb9: 85 18        	sta	$18                     ; 0x2018 <_ZN12_GLOBAL__N_112print_stringEPKcP6Status+0x107>
     fbb: a0 01        	ldy	#$1
     fbd: b1 16        	lda	($16),y                 ; 0x2016 <_ZN12_GLOBAL__N_112print_stringEPKcP6Status+0x105>
     fbf: 85 19        	sta	$19                     ; 0x2019 <_ZN12_GLOBAL__N_112print_stringEPKcP6Status+0x108>
     fc1: a4 1a        	ldy	$1a                     ; 0x201a <_ZN12_GLOBAL__N_112print_stringEPKcP6Status+0x109>
     fc3: b1 18        	lda	($18),y                 ; 0x2018 <_ZN12_GLOBAL__N_112print_stringEPKcP6Status+0x107>
     fc5: c5 14        	cmp	$14                     ; 0x2014 <_ZN12_GLOBAL__N_112print_stringEPKcP6Status+0x103>
     fc7: b0 20        	bcs	$fe9 <f256main+0x7b8>
     fc9: 18           	clc
     fca: a5 15        	lda	$15                     ; 0x2015 <_ZN12_GLOBAL__N_112print_stringEPKcP6Status+0x104>
     fcc: 69 14        	adc	#$14
     fce: 85 14        	sta	$14                     ; 0x2014 <_ZN12_GLOBAL__N_112print_stringEPKcP6Status+0x103>
     fd0: 8a           	txa
     fd1: 69 00        	adc	#$0
     fd3: 85 15        	sta	$15                     ; 0x2015 <_ZN12_GLOBAL__N_112print_stringEPKcP6Status+0x104>
     fd5: a0 14        	ldy	#$14
     fd7: b1 12        	lda	($12),y                 ; 0x2012 <_ZN12_GLOBAL__N_112print_stringEPKcP6Status+0x101>
     fd9: 85 16        	sta	$16                     ; 0x2016 <_ZN12_GLOBAL__N_112print_stringEPKcP6Status+0x105>
     fdb: a0 01        	ldy	#$1
     fdd: b1 14        	lda	($14),y                 ; 0x2014 <_ZN12_GLOBAL__N_112print_stringEPKcP6Status+0x103>
     fdf: 85 17        	sta	$17                     ; 0x2017 <_ZN12_GLOBAL__N_112print_stringEPKcP6Status+0x106>
     fe1: a4 1a        	ldy	$1a                     ; 0x201a <_ZN12_GLOBAL__N_112print_stringEPKcP6Status+0x109>
     fe3: b1 16        	lda	($16),y                 ; 0x2016 <_ZN12_GLOBAL__N_112print_stringEPKcP6Status+0x105>
     fe5: a0 0a        	ldy	#$a
     fe7: 91 12        	sta	($12),y                 ; 0x2012 <_ZN12_GLOBAL__N_112print_stringEPKcP6Status+0x101>
     fe9: 20 f7 16     	jsr	$16f7 <updateFrames>
     fec: a0 81        	ldy	#$81
     fee: a2 01        	ldx	#$1
     ff0: 8e 80 d8     	stx	$d880                   ; 0xd880 <__heap_start+0x827a>
     ff3: 4c 1c 0d     	jmp	$d1c <f256main+0x4eb>
     ff6: e0 63        	cpx	#$63
     ff8: d0 f4        	bne	$fee <f256main+0x7bd>
     ffa: ad 80 d8     	lda	$d880                   ; 0xd880 <__heap_start+0x827a>
     ffd: 29 40        	and	#$40
     fff: f0 f9        	beq	$ffa <f256main+0x7c9>
    1001: a0 00        	ldy	#$0
    1003: a2 01        	ldx	#$1
    1005: 84 28        	sty	$28                     ; 0x2028 <printf+0xa>
    1007: 98           	tya
    1008: 20 63 10     	jsr	$1063 <checkNESPad>
    100b: a4 28        	ldy	$28                     ; 0x2028 <printf+0xa>
    100d: c8           	iny
    100e: c0 04        	cpy	#$4
    1010: d0 f1        	bne	$1003 <f256main+0x7d2>
    1012: a2 85        	ldx	#$85
    1014: 8e 80 d8     	stx	$d880                   ; 0xd880 <__heap_start+0x827a>
    1017: ad 80 d8     	lda	$d880                   ; 0xd880 <__heap_start+0x827a>
    101a: 29 40        	and	#$40
    101c: f0 f9        	beq	$1017 <f256main+0x7e6>
    101e: a0 04        	ldy	#$4
    1020: a2 00        	ldx	#$0
    1022: 84 28        	sty	$28                     ; 0x2028 <printf+0xa>
    1024: 98           	tya
    1025: 20 63 10     	jsr	$1063 <checkNESPad>
    1028: a4 28        	ldy	$28                     ; 0x2028 <printf+0xa>
    102a: c8           	iny
    102b: c0 08        	cpy	#$8
    102d: d0 f1        	bne	$1020 <f256main+0x7ef>
    102f: a2 80        	ldx	#$80
    1031: 86 f3        	stx	$f3                     ; 0x20f3 <printf+0xd5>
    1033: 20 f0 ff     	jsr	$fff0 <__heap_start+0xa9ea>
    1036: 92 24        	sta	($24)                   ; 0x2024 <printf+0x6>
    1038: a9 00        	lda	#$0
    103a: 6a           	ror
    103b: 85 26        	sta	$26                     ; 0x2026 <printf+0x8>
    103d: a9 02        	lda	#$2
    103f: 18           	clc
    1040: 72 24        	adc	($24)                   ; 0x2024 <printf+0x6>
    1042: 85 7b        	sta	$7b                     ; 0x207b <printf+0x5d>
    1044: 64 f3        	stz	$f3                     ; 0x20f3 <printf+0xd5>
    1046: a6 7b        	ldx	$7b                     ; 0x207b <printf+0x5d>
    1048: 86 f4        	stx	$f4                     ; 0x20f4 <printf+0xd6>
    104a: a2 63        	ldx	#$63
    104c: 86 f5        	stx	$f5                     ; 0x20f5 <printf+0xd7>
    104e: 20 f0 ff     	jsr	$fff0 <__heap_start+0xa9ea>
    1051: 92 24        	sta	($24)                   ; 0x2024 <printf+0x6>
    1053: a9 00        	lda	#$0
    1055: 6a           	ror
    1056: 85 26        	sta	$26                     ; 0x2026 <printf+0x8>
    1058: 4c ec 0f     	jmp	$fec <f256main+0x7bb>
    105b: a6 15        	ldx	$15                     ; 0x2015 <_ZN12_GLOBAL__N_112print_stringEPKcP6Status+0x104>
    105d: 86 18        	stx	$18                     ; 0x2018 <_ZN12_GLOBAL__N_112print_stringEPKcP6Status+0x107>
    105f: aa           	tax
    1060: 4c ca 0b     	jmp	$bca <f256main+0x399>

00001063 <checkNESPad>:
    1063: 48           	pha
    1064: 18           	clc
    1065: a5 10        	lda	$10                     ; 0x2010 <_ZN12_GLOBAL__N_112print_stringEPKcP6Status+0xff>
    1067: 69 f6        	adc	#$f6
    1069: 85 10        	sta	$10                     ; 0x2010 <_ZN12_GLOBAL__N_112print_stringEPKcP6Status+0xff>
    106b: a5 11        	lda	$11                     ; 0x2011 <_ZN12_GLOBAL__N_112print_stringEPKcP6Status+0x100>
    106d: 69 ff        	adc	#$ff
    106f: 85 11        	sta	$11                     ; 0x2011 <_ZN12_GLOBAL__N_112print_stringEPKcP6Status+0x100>
    1071: 68           	pla
    1072: 85 14        	sta	$14                     ; 0x2014 <_ZN12_GLOBAL__N_112print_stringEPKcP6Status+0x103>
    1074: 85 92        	sta	$92                     ; 0x2092 <printf+0x74>
    1076: 06 14        	asl	$14                     ; 0x2014 <_ZN12_GLOBAL__N_112print_stringEPKcP6Status+0x103>
    1078: 64 15        	stz	$15                     ; 0x2015 <_ZN12_GLOBAL__N_112print_stringEPKcP6Status+0x104>
    107a: 26 15        	rol	$15                     ; 0x2015 <_ZN12_GLOBAL__N_112print_stringEPKcP6Status+0x104>
    107c: a9 84        	lda	#$84
    107e: 86 1a        	stx	$1a                     ; 0x201a <_ZN12_GLOBAL__N_112print_stringEPKcP6Status+0x109>
    1080: e0 01        	cpx	#$1
    1082: f0 02        	beq	$1086 <checkNESPad+0x23>
    1084: a9 7c        	lda	#$7c
    1086: 18           	clc
    1087: 65 14        	adc	$14                     ; 0x2014 <_ZN12_GLOBAL__N_112print_stringEPKcP6Status+0x103>
    1089: 85 12        	sta	$12                     ; 0x2012 <_ZN12_GLOBAL__N_112print_stringEPKcP6Status+0x101>
    108b: a9 d8        	lda	#$d8
    108d: 65 15        	adc	$15                     ; 0x2015 <_ZN12_GLOBAL__N_112print_stringEPKcP6Status+0x104>
    108f: 85 13        	sta	$13                     ; 0x2013 <_ZN12_GLOBAL__N_112print_stringEPKcP6Status+0x102>
    1091: b2 12        	lda	($12)                   ; 0x2012 <_ZN12_GLOBAL__N_112print_stringEPKcP6Status+0x101>
    1093: 29 02        	and	#$2
    1095: 06 14        	asl	$14                     ; 0x2014 <_ZN12_GLOBAL__N_112print_stringEPKcP6Status+0x103>
    1097: 26 15        	rol	$15                     ; 0x2015 <_ZN12_GLOBAL__N_112print_stringEPKcP6Status+0x104>
    1099: 06 14        	asl	$14                     ; 0x2014 <_ZN12_GLOBAL__N_112print_stringEPKcP6Status+0x103>
    109b: 26 15        	rol	$15                     ; 0x2015 <_ZN12_GLOBAL__N_112print_stringEPKcP6Status+0x104>
    109d: a6 14        	ldx	$14                     ; 0x2014 <_ZN12_GLOBAL__N_112print_stringEPKcP6Status+0x103>
    109f: 86 16        	stx	$16                     ; 0x2016 <_ZN12_GLOBAL__N_112print_stringEPKcP6Status+0x105>
    10a1: 06 16        	asl	$16                     ; 0x2016 <_ZN12_GLOBAL__N_112print_stringEPKcP6Status+0x105>
    10a3: a6 15        	ldx	$15                     ; 0x2015 <_ZN12_GLOBAL__N_112print_stringEPKcP6Status+0x104>
    10a5: 86 17        	stx	$17                     ; 0x2017 <_ZN12_GLOBAL__N_112print_stringEPKcP6Status+0x106>
    10a7: 26 17        	rol	$17                     ; 0x2017 <_ZN12_GLOBAL__N_112print_stringEPKcP6Status+0x106>
    10a9: a6 17        	ldx	$17                     ; 0x2017 <_ZN12_GLOBAL__N_112print_stringEPKcP6Status+0x106>
    10ab: 86 88        	stx	$88                     ; 0x2088 <printf+0x6a>
    10ad: a6 16        	ldx	$16                     ; 0x2016 <_ZN12_GLOBAL__N_112print_stringEPKcP6Status+0x105>
    10af: 86 87        	stx	$87                     ; 0x2087 <printf+0x69>
    10b1: aa           	tax
    10b2: d0 46        	bne	$10fa <checkNESPad+0x97>
    10b4: a5 16        	lda	$16                     ; 0x2016 <_ZN12_GLOBAL__N_112print_stringEPKcP6Status+0x105>
    10b6: 18           	clc
    10b7: 65 14        	adc	$14                     ; 0x2014 <_ZN12_GLOBAL__N_112print_stringEPKcP6Status+0x103>
    10b9: 85 16        	sta	$16                     ; 0x2016 <_ZN12_GLOBAL__N_112print_stringEPKcP6Status+0x105>
    10bb: a5 17        	lda	$17                     ; 0x2017 <_ZN12_GLOBAL__N_112print_stringEPKcP6Status+0x106>
    10bd: 65 15        	adc	$15                     ; 0x2015 <_ZN12_GLOBAL__N_112print_stringEPKcP6Status+0x104>
    10bf: 85 17        	sta	$17                     ; 0x2017 <_ZN12_GLOBAL__N_112print_stringEPKcP6Status+0x106>
    10c1: a9 20        	lda	#$20
    10c3: a2 00        	ldx	#$0
    10c5: 86 8c        	stx	$8c                     ; 0x208c <printf+0x6e>
    10c7: 18           	clc
    10c8: 65 16        	adc	$16                     ; 0x2016 <_ZN12_GLOBAL__N_112print_stringEPKcP6Status+0x105>
    10ca: a8           	tay
    10cb: a9 54        	lda	#$54
    10cd: 65 17        	adc	$17                     ; 0x2017 <_ZN12_GLOBAL__N_112print_stringEPKcP6Status+0x106>
    10cf: aa           	tax
    10d0: 98           	tya
    10d1: 84 16        	sty	$16                     ; 0x2016 <_ZN12_GLOBAL__N_112print_stringEPKcP6Status+0x105>
    10d3: 86 17        	stx	$17                     ; 0x2017 <_ZN12_GLOBAL__N_112print_stringEPKcP6Status+0x106>
    10d5: 18           	clc
    10d6: 69 0b        	adc	#$b
    10d8: 85 18        	sta	$18                     ; 0x2018 <_ZN12_GLOBAL__N_112print_stringEPKcP6Status+0x107>
    10da: 8a           	txa
    10db: 69 00        	adc	#$0
    10dd: 85 19        	sta	$19                     ; 0x2019 <_ZN12_GLOBAL__N_112print_stringEPKcP6Status+0x108>
    10df: a0 0b        	ldy	#$b
    10e1: a9 ff        	lda	#$ff
    10e3: 91 16        	sta	($16),y                 ; 0x2016 <_ZN12_GLOBAL__N_112print_stringEPKcP6Status+0x105>
    10e5: a0 01        	ldy	#$1
    10e7: 91 18        	sta	($18),y                 ; 0x2018 <_ZN12_GLOBAL__N_112print_stringEPKcP6Status+0x107>
    10e9: a0 13        	ldy	#$13
    10eb: a9 03        	lda	#$3
    10ed: 91 16        	sta	($16),y                 ; 0x2016 <_ZN12_GLOBAL__N_112print_stringEPKcP6Status+0x105>
    10ef: a0 04        	ldy	#$4
    10f1: a9 00        	lda	#$0
    10f3: 91 16        	sta	($16),y                 ; 0x2016 <_ZN12_GLOBAL__N_112print_stringEPKcP6Status+0x105>
    10f5: a2 01        	ldx	#$1
    10f7: 4c 84 11     	jmp	$1184 <checkNESPad+0x121>
    10fa: a5 16        	lda	$16                     ; 0x2016 <_ZN12_GLOBAL__N_112print_stringEPKcP6Status+0x105>
    10fc: 18           	clc
    10fd: 65 14        	adc	$14                     ; 0x2014 <_ZN12_GLOBAL__N_112print_stringEPKcP6Status+0x103>
    10ff: 85 16        	sta	$16                     ; 0x2016 <_ZN12_GLOBAL__N_112print_stringEPKcP6Status+0x105>
    1101: a5 17        	lda	$17                     ; 0x2017 <_ZN12_GLOBAL__N_112print_stringEPKcP6Status+0x106>
    1103: 65 15        	adc	$15                     ; 0x2015 <_ZN12_GLOBAL__N_112print_stringEPKcP6Status+0x104>
    1105: 85 17        	sta	$17                     ; 0x2017 <_ZN12_GLOBAL__N_112print_stringEPKcP6Status+0x106>
    1107: a9 20        	lda	#$20
    1109: 18           	clc
    110a: 65 16        	adc	$16                     ; 0x2016 <_ZN12_GLOBAL__N_112print_stringEPKcP6Status+0x105>
    110c: a8           	tay
    110d: a9 54        	lda	#$54
    110f: 65 17        	adc	$17                     ; 0x2017 <_ZN12_GLOBAL__N_112print_stringEPKcP6Status+0x106>
    1111: aa           	tax
    1112: b2 12        	lda	($12)                   ; 0x2012 <_ZN12_GLOBAL__N_112print_stringEPKcP6Status+0x101>
    1114: 29 01        	and	#$1
    1116: 29 01        	and	#$1
    1118: 84 19        	sty	$19                     ; 0x2019 <_ZN12_GLOBAL__N_112print_stringEPKcP6Status+0x108>
    111a: 84 16        	sty	$16                     ; 0x2016 <_ZN12_GLOBAL__N_112print_stringEPKcP6Status+0x105>
    111c: 86 18        	stx	$18                     ; 0x2018 <_ZN12_GLOBAL__N_112print_stringEPKcP6Status+0x107>
    111e: 86 17        	stx	$17                     ; 0x2017 <_ZN12_GLOBAL__N_112print_stringEPKcP6Status+0x106>
    1120: d0 2b        	bne	$114d <checkNESPad+0xea>
    1122: a0 0b        	ldy	#$b
    1124: a2 00        	ldx	#$0
    1126: 86 8c        	stx	$8c                     ; 0x208c <printf+0x6e>
    1128: 18           	clc
    1129: a5 19        	lda	$19                     ; 0x2019 <_ZN12_GLOBAL__N_112print_stringEPKcP6Status+0x108>
    112b: 69 0b        	adc	#$b
    112d: aa           	tax
    112e: a5 18        	lda	$18                     ; 0x2018 <_ZN12_GLOBAL__N_112print_stringEPKcP6Status+0x107>
    1130: 69 00        	adc	#$0
    1132: 86 18        	stx	$18                     ; 0x2018 <_ZN12_GLOBAL__N_112print_stringEPKcP6Status+0x107>
    1134: 85 19        	sta	$19                     ; 0x2019 <_ZN12_GLOBAL__N_112print_stringEPKcP6Status+0x108>
    1136: a9 01        	lda	#$1
    1138: 91 16        	sta	($16),y                 ; 0x2016 <_ZN12_GLOBAL__N_112print_stringEPKcP6Status+0x105>
    113a: a8           	tay
    113b: 3a           	dec
    113c: 91 18        	sta	($18),y                 ; 0x2018 <_ZN12_GLOBAL__N_112print_stringEPKcP6Status+0x107>
    113e: a0 13        	ldy	#$13
    1140: a9 02        	lda	#$2
    1142: 91 16        	sta	($16),y                 ; 0x2016 <_ZN12_GLOBAL__N_112print_stringEPKcP6Status+0x105>
    1144: a0 04        	ldy	#$4
    1146: 3a           	dec
    1147: 91 16        	sta	($16),y                 ; 0x2016 <_ZN12_GLOBAL__N_112print_stringEPKcP6Status+0x105>
    1149: a2 00        	ldx	#$0
    114b: 80 37        	bra	$1184 <checkNESPad+0x121>
    114d: a0 04        	ldy	#$4
    114f: b1 16        	lda	($16),y                 ; 0x2016 <_ZN12_GLOBAL__N_112print_stringEPKcP6Status+0x105>
    1151: a0 01        	ldy	#$1
    1153: aa           	tax
    1154: f0 02        	beq	$1158 <checkNESPad+0xf5>
    1156: a0 00        	ldy	#$0
    1158: a9 01        	lda	#$1
    115a: 84 1b        	sty	$1b                     ; 0x201b <_ZN12_GLOBAL__N_112print_stringEPKcP6Status+0x10a>
    115c: c0 00        	cpy	#$0
    115e: d0 02        	bne	$1162 <checkNESPad+0xff>
    1160: a9 00        	lda	#$0
    1162: a0 13        	ldy	#$13
    1164: 91 16        	sta	($16),y                 ; 0x2016 <_ZN12_GLOBAL__N_112print_stringEPKcP6Status+0x105>
    1166: a5 19        	lda	$19                     ; 0x2019 <_ZN12_GLOBAL__N_112print_stringEPKcP6Status+0x108>
    1168: 18           	clc
    1169: 69 0b        	adc	#$b
    116b: aa           	tax
    116c: a5 18        	lda	$18                     ; 0x2018 <_ZN12_GLOBAL__N_112print_stringEPKcP6Status+0x107>
    116e: 69 00        	adc	#$0
    1170: 86 18        	stx	$18                     ; 0x2018 <_ZN12_GLOBAL__N_112print_stringEPKcP6Status+0x107>
    1172: 85 19        	sta	$19                     ; 0x2019 <_ZN12_GLOBAL__N_112print_stringEPKcP6Status+0x108>
    1174: a0 0b        	ldy	#$b
    1176: a9 00        	lda	#$0
    1178: 91 16        	sta	($16),y                 ; 0x2016 <_ZN12_GLOBAL__N_112print_stringEPKcP6Status+0x105>
    117a: a0 01        	ldy	#$1
    117c: 91 18        	sta	($18),y                 ; 0x2018 <_ZN12_GLOBAL__N_112print_stringEPKcP6Status+0x107>
    117e: a2 01        	ldx	#$1
    1180: 86 8c        	stx	$8c                     ; 0x208c <printf+0x6e>
    1182: a6 1b        	ldx	$1b                     ; 0x201b <_ZN12_GLOBAL__N_112print_stringEPKcP6Status+0x10a>
    1184: 86 8b        	stx	$8b                     ; 0x208b <printf+0x6d>
    1186: b2 12        	lda	($12)                   ; 0x2012 <_ZN12_GLOBAL__N_112print_stringEPKcP6Status+0x101>
    1188: 29 08        	and	#$8
    118a: a2 ff        	ldx	#$ff
    118c: a0 ff        	ldy	#$ff
    118e: 84 8e        	sty	$8e                     ; 0x208e <printf+0x70>
    1190: a8           	tay
    1191: f0 0e        	beq	$11a1 <checkNESPad+0x13e>
    1193: b2 12        	lda	($12)                   ; 0x2012 <_ZN12_GLOBAL__N_112print_stringEPKcP6Status+0x101>
    1195: 29 04        	and	#$4
    1197: f0 03        	beq	$119c <checkNESPad+0x139>
    1199: 4c 2e 12     	jmp	$122e <checkNESPad+0x1cb>
    119c: a2 00        	ldx	#$0
    119e: 86 8e        	stx	$8e                     ; 0x208e <printf+0x70>
    11a0: e8           	inx
    11a1: 18           	clc
    11a2: a5 87        	lda	$87                     ; 0x2087 <printf+0x69>
    11a4: 65 14        	adc	$14                     ; 0x2014 <_ZN12_GLOBAL__N_112print_stringEPKcP6Status+0x103>
    11a6: 85 16        	sta	$16                     ; 0x2016 <_ZN12_GLOBAL__N_112print_stringEPKcP6Status+0x105>
    11a8: a5 88        	lda	$88                     ; 0x2088 <printf+0x6a>
    11aa: 65 15        	adc	$15                     ; 0x2015 <_ZN12_GLOBAL__N_112print_stringEPKcP6Status+0x104>
    11ac: 85 17        	sta	$17                     ; 0x2017 <_ZN12_GLOBAL__N_112print_stringEPKcP6Status+0x106>
    11ae: a9 00        	lda	#$0
    11b0: 85 93        	sta	$93                     ; 0x2093 <printf+0x75>
    11b2: a9 20        	lda	#$20
    11b4: 18           	clc
    11b5: 65 16        	adc	$16                     ; 0x2016 <_ZN12_GLOBAL__N_112print_stringEPKcP6Status+0x105>
    11b7: 85 19        	sta	$19                     ; 0x2019 <_ZN12_GLOBAL__N_112print_stringEPKcP6Status+0x108>
    11b9: a9 54        	lda	#$54
    11bb: 65 17        	adc	$17                     ; 0x2017 <_ZN12_GLOBAL__N_112print_stringEPKcP6Status+0x106>
    11bd: a4 19        	ldy	$19                     ; 0x2019 <_ZN12_GLOBAL__N_112print_stringEPKcP6Status+0x108>
    11bf: 84 84        	sty	$84                     ; 0x2084 <printf+0x66>
    11c1: 85 85        	sta	$85                     ; 0x2085 <printf+0x67>
    11c3: 85 16        	sta	$16                     ; 0x2016 <_ZN12_GLOBAL__N_112print_stringEPKcP6Status+0x105>
    11c5: a4 8b        	ldy	$8b                     ; 0x208b <printf+0x6d>
    11c7: 84 18        	sty	$18                     ; 0x2018 <_ZN12_GLOBAL__N_112print_stringEPKcP6Status+0x107>
    11c9: a0 0d        	ldy	#$d
    11cb: 8a           	txa
    11cc: 91 84        	sta	($84),y                 ; 0x2084 <printf+0x66>
    11ce: 18           	clc
    11cf: a5 19        	lda	$19                     ; 0x2019 <_ZN12_GLOBAL__N_112print_stringEPKcP6Status+0x108>
    11d1: 69 0d        	adc	#$d
    11d3: aa           	tax
    11d4: a4 16        	ldy	$16                     ; 0x2016 <_ZN12_GLOBAL__N_112print_stringEPKcP6Status+0x105>
    11d6: 84 1b        	sty	$1b                     ; 0x201b <_ZN12_GLOBAL__N_112print_stringEPKcP6Status+0x10a>
    11d8: a5 16        	lda	$16                     ; 0x2016 <_ZN12_GLOBAL__N_112print_stringEPKcP6Status+0x105>
    11da: 69 00        	adc	#$0
    11dc: 86 16        	stx	$16                     ; 0x2016 <_ZN12_GLOBAL__N_112print_stringEPKcP6Status+0x105>
    11de: 85 17        	sta	$17                     ; 0x2017 <_ZN12_GLOBAL__N_112print_stringEPKcP6Status+0x106>
    11e0: a0 01        	ldy	#$1
    11e2: a5 8e        	lda	$8e                     ; 0x208e <printf+0x70>
    11e4: 91 16        	sta	($16),y                 ; 0x2016 <_ZN12_GLOBAL__N_112print_stringEPKcP6Status+0x105>
    11e6: a9 03        	lda	#$3
    11e8: a4 18        	ldy	$18                     ; 0x2018 <_ZN12_GLOBAL__N_112print_stringEPKcP6Status+0x107>
    11ea: 84 8b        	sty	$8b                     ; 0x208b <printf+0x6d>
    11ec: a6 18        	ldx	$18                     ; 0x2018 <_ZN12_GLOBAL__N_112print_stringEPKcP6Status+0x107>
    11ee: d0 02        	bne	$11f2 <checkNESPad+0x18f>
    11f0: a9 02        	lda	#$2
    11f2: a0 13        	ldy	#$13
    11f4: 91 84        	sta	($84),y                 ; 0x2084 <printf+0x66>
    11f6: 18           	clc
    11f7: a5 19        	lda	$19                     ; 0x2019 <_ZN12_GLOBAL__N_112print_stringEPKcP6Status+0x108>
    11f9: 69 0b        	adc	#$b
    11fb: 85 16        	sta	$16                     ; 0x2016 <_ZN12_GLOBAL__N_112print_stringEPKcP6Status+0x105>
    11fd: a5 1b        	lda	$1b                     ; 0x201b <_ZN12_GLOBAL__N_112print_stringEPKcP6Status+0x10a>
    11ff: 69 00        	adc	#$0
    1201: 85 17        	sta	$17                     ; 0x2017 <_ZN12_GLOBAL__N_112print_stringEPKcP6Status+0x106>
    1203: a6 8c        	ldx	$8c                     ; 0x208c <printf+0x6e>
    1205: f0 03        	beq	$120a <checkNESPad+0x1a7>
    1207: 4c e8 12     	jmp	$12e8 <checkNESPad+0x285>
    120a: a5 1a        	lda	$1a                     ; 0x201a <_ZN12_GLOBAL__N_112print_stringEPKcP6Status+0x109>
    120c: d0 03        	bne	$1211 <checkNESPad+0x1ae>
    120e: 4c 81 12     	jmp	$1281 <checkNESPad+0x21e>
    1211: a6 14        	ldx	$14                     ; 0x2014 <_ZN12_GLOBAL__N_112print_stringEPKcP6Status+0x103>
    1213: 86 90        	stx	$90                     ; 0x2090 <printf+0x72>
    1215: a6 15        	ldx	$15                     ; 0x2015 <_ZN12_GLOBAL__N_112print_stringEPKcP6Status+0x104>
    1217: 86 8e        	stx	$8e                     ; 0x208e <printf+0x70>
    1219: a6 16        	ldx	$16                     ; 0x2016 <_ZN12_GLOBAL__N_112print_stringEPKcP6Status+0x105>
    121b: 86 14        	stx	$14                     ; 0x2014 <_ZN12_GLOBAL__N_112print_stringEPKcP6Status+0x103>
    121d: a6 17        	ldx	$17                     ; 0x2017 <_ZN12_GLOBAL__N_112print_stringEPKcP6Status+0x106>
    121f: 86 15        	stx	$15                     ; 0x2015 <_ZN12_GLOBAL__N_112print_stringEPKcP6Status+0x104>
    1221: a6 14        	ldx	$14                     ; 0x2014 <_ZN12_GLOBAL__N_112print_stringEPKcP6Status+0x103>
    1223: 86 8c        	stx	$8c                     ; 0x208c <printf+0x6e>
    1225: a6 15        	ldx	$15                     ; 0x2015 <_ZN12_GLOBAL__N_112print_stringEPKcP6Status+0x104>
    1227: 86 8d        	stx	$8d                     ; 0x208d <printf+0x6f>
    1229: a2 06        	ldx	#$6
    122b: 4c 9b 12     	jmp	$129b <checkNESPad+0x238>
    122e: a4 8b        	ldy	$8b                     ; 0x208b <printf+0x6d>
    1230: 84 8b        	sty	$8b                     ; 0x208b <printf+0x6d>
    1232: 18           	clc
    1233: a5 87        	lda	$87                     ; 0x2087 <printf+0x69>
    1235: 65 14        	adc	$14                     ; 0x2014 <_ZN12_GLOBAL__N_112print_stringEPKcP6Status+0x103>
    1237: 85 16        	sta	$16                     ; 0x2016 <_ZN12_GLOBAL__N_112print_stringEPKcP6Status+0x105>
    1239: a5 88        	lda	$88                     ; 0x2088 <printf+0x6a>
    123b: 65 15        	adc	$15                     ; 0x2015 <_ZN12_GLOBAL__N_112print_stringEPKcP6Status+0x104>
    123d: 85 17        	sta	$17                     ; 0x2017 <_ZN12_GLOBAL__N_112print_stringEPKcP6Status+0x106>
    123f: a9 20        	lda	#$20
    1241: 18           	clc
    1242: 65 16        	adc	$16                     ; 0x2016 <_ZN12_GLOBAL__N_112print_stringEPKcP6Status+0x105>
    1244: a8           	tay
    1245: a9 54        	lda	#$54
    1247: 65 17        	adc	$17                     ; 0x2017 <_ZN12_GLOBAL__N_112print_stringEPKcP6Status+0x106>
    1249: aa           	tax
    124a: 18           	clc
    124b: 98           	tya
    124c: 69 0d        	adc	#$d
    124e: 85 16        	sta	$16                     ; 0x2016 <_ZN12_GLOBAL__N_112print_stringEPKcP6Status+0x105>
    1250: 8a           	txa
    1251: 69 00        	adc	#$0
    1253: 85 17        	sta	$17                     ; 0x2017 <_ZN12_GLOBAL__N_112print_stringEPKcP6Status+0x106>
    1255: 84 84        	sty	$84                     ; 0x2084 <printf+0x66>
    1257: 84 18        	sty	$18                     ; 0x2018 <_ZN12_GLOBAL__N_112print_stringEPKcP6Status+0x107>
    1259: 86 85        	stx	$85                     ; 0x2085 <printf+0x67>
    125b: a0 0d        	ldy	#$d
    125d: a9 00        	lda	#$0
    125f: 91 84        	sta	($84),y                 ; 0x2084 <printf+0x66>
    1261: a0 01        	ldy	#$1
    1263: 91 16        	sta	($16),y                 ; 0x2016 <_ZN12_GLOBAL__N_112print_stringEPKcP6Status+0x105>
    1265: 18           	clc
    1266: a5 18        	lda	$18                     ; 0x2018 <_ZN12_GLOBAL__N_112print_stringEPKcP6Status+0x107>
    1268: 69 0b        	adc	#$b
    126a: 85 16        	sta	$16                     ; 0x2016 <_ZN12_GLOBAL__N_112print_stringEPKcP6Status+0x105>
    126c: 8a           	txa
    126d: 69 00        	adc	#$0
    126f: 85 17        	sta	$17                     ; 0x2017 <_ZN12_GLOBAL__N_112print_stringEPKcP6Status+0x106>
    1271: a6 8c        	ldx	$8c                     ; 0x208c <printf+0x6e>
    1273: f0 45        	beq	$12ba <checkNESPad+0x257>
    1275: a4 8b        	ldy	$8b                     ; 0x208b <printf+0x6d>
    1277: d0 03        	bne	$127c <checkNESPad+0x219>
    1279: 4c de 12     	jmp	$12de <checkNESPad+0x27b>
    127c: a9 01        	lda	#$1
    127e: 4c e0 12     	jmp	$12e0 <checkNESPad+0x27d>
    1281: a6 14        	ldx	$14                     ; 0x2014 <_ZN12_GLOBAL__N_112print_stringEPKcP6Status+0x103>
    1283: 86 90        	stx	$90                     ; 0x2090 <printf+0x72>
    1285: a6 15        	ldx	$15                     ; 0x2015 <_ZN12_GLOBAL__N_112print_stringEPKcP6Status+0x104>
    1287: 86 8e        	stx	$8e                     ; 0x208e <printf+0x70>
    1289: a6 16        	ldx	$16                     ; 0x2016 <_ZN12_GLOBAL__N_112print_stringEPKcP6Status+0x105>
    128b: 86 14        	stx	$14                     ; 0x2014 <_ZN12_GLOBAL__N_112print_stringEPKcP6Status+0x103>
    128d: a6 17        	ldx	$17                     ; 0x2017 <_ZN12_GLOBAL__N_112print_stringEPKcP6Status+0x106>
    128f: 86 15        	stx	$15                     ; 0x2015 <_ZN12_GLOBAL__N_112print_stringEPKcP6Status+0x104>
    1291: a6 14        	ldx	$14                     ; 0x2014 <_ZN12_GLOBAL__N_112print_stringEPKcP6Status+0x103>
    1293: 86 8c        	stx	$8c                     ; 0x208c <printf+0x6e>
    1295: a6 15        	ldx	$15                     ; 0x2015 <_ZN12_GLOBAL__N_112print_stringEPKcP6Status+0x104>
    1297: 86 8d        	stx	$8d                     ; 0x208d <printf+0x6f>
    1299: a2 07        	ldx	#$7
    129b: b2 12        	lda	($12)                   ; 0x2012 <_ZN12_GLOBAL__N_112print_stringEPKcP6Status+0x101>
    129d: 85 86        	sta	$86                     ; 0x2086 <printf+0x68>
    129f: a9 01        	lda	#$1
    12a1: 64 12        	stz	$12                     ; 0x2012 <_ZN12_GLOBAL__N_112print_stringEPKcP6Status+0x101>
    12a3: 64 13        	stz	$13                     ; 0x2013 <_ZN12_GLOBAL__N_112print_stringEPKcP6Status+0x102>
    12a5: 86 14        	stx	$14                     ; 0x2014 <_ZN12_GLOBAL__N_112print_stringEPKcP6Status+0x103>
    12a7: a2 00        	ldx	#$0
    12a9: 86 93        	stx	$93                     ; 0x2093 <printf+0x75>
    12ab: 20 d2 2e     	jsr	$2ed2 <__ashlsi3>
    12ae: 25 86        	and	$86                     ; 0x2086 <printf+0x68>
    12b0: f0 03        	beq	$12b5 <checkNESPad+0x252>
    12b2: 4c e9 16     	jmp	$16e9 <checkNESPad+0x686>
    12b5: a2 11        	ldx	#$11
    12b7: 4c cf 13     	jmp	$13cf <checkNESPad+0x36c>
    12ba: a6 14        	ldx	$14                     ; 0x2014 <_ZN12_GLOBAL__N_112print_stringEPKcP6Status+0x103>
    12bc: a5 1a        	lda	$1a                     ; 0x201a <_ZN12_GLOBAL__N_112print_stringEPKcP6Status+0x109>
    12be: d0 03        	bne	$12c3 <checkNESPad+0x260>
    12c0: 4c 9b 13     	jmp	$139b <checkNESPad+0x338>
    12c3: 86 90        	stx	$90                     ; 0x2090 <printf+0x72>
    12c5: a6 15        	ldx	$15                     ; 0x2015 <_ZN12_GLOBAL__N_112print_stringEPKcP6Status+0x104>
    12c7: 86 8e        	stx	$8e                     ; 0x208e <printf+0x70>
    12c9: a6 16        	ldx	$16                     ; 0x2016 <_ZN12_GLOBAL__N_112print_stringEPKcP6Status+0x105>
    12cb: 86 14        	stx	$14                     ; 0x2014 <_ZN12_GLOBAL__N_112print_stringEPKcP6Status+0x103>
    12cd: a6 17        	ldx	$17                     ; 0x2017 <_ZN12_GLOBAL__N_112print_stringEPKcP6Status+0x106>
    12cf: 86 15        	stx	$15                     ; 0x2015 <_ZN12_GLOBAL__N_112print_stringEPKcP6Status+0x104>
    12d1: a6 14        	ldx	$14                     ; 0x2014 <_ZN12_GLOBAL__N_112print_stringEPKcP6Status+0x103>
    12d3: 86 8c        	stx	$8c                     ; 0x208c <printf+0x6e>
    12d5: a6 15        	ldx	$15                     ; 0x2015 <_ZN12_GLOBAL__N_112print_stringEPKcP6Status+0x104>
    12d7: 86 8d        	stx	$8d                     ; 0x208d <printf+0x6f>
    12d9: a2 06        	ldx	#$6
    12db: 4c b3 13     	jmp	$13b3 <checkNESPad+0x350>
    12de: a9 00        	lda	#$0
    12e0: a0 13        	ldy	#$13
    12e2: 91 84        	sta	($84),y                 ; 0x2084 <printf+0x66>
    12e4: a2 01        	ldx	#$1
    12e6: 86 93        	stx	$93                     ; 0x2093 <printf+0x75>
    12e8: a6 14        	ldx	$14                     ; 0x2014 <_ZN12_GLOBAL__N_112print_stringEPKcP6Status+0x103>
    12ea: a5 1a        	lda	$1a                     ; 0x201a <_ZN12_GLOBAL__N_112print_stringEPKcP6Status+0x109>
    12ec: f0 1a        	beq	$1308 <checkNESPad+0x2a5>
    12ee: 86 90        	stx	$90                     ; 0x2090 <printf+0x72>
    12f0: a6 15        	ldx	$15                     ; 0x2015 <_ZN12_GLOBAL__N_112print_stringEPKcP6Status+0x104>
    12f2: 86 8e        	stx	$8e                     ; 0x208e <printf+0x70>
    12f4: a6 16        	ldx	$16                     ; 0x2016 <_ZN12_GLOBAL__N_112print_stringEPKcP6Status+0x105>
    12f6: 86 14        	stx	$14                     ; 0x2014 <_ZN12_GLOBAL__N_112print_stringEPKcP6Status+0x103>
    12f8: a6 17        	ldx	$17                     ; 0x2017 <_ZN12_GLOBAL__N_112print_stringEPKcP6Status+0x106>
    12fa: 86 15        	stx	$15                     ; 0x2015 <_ZN12_GLOBAL__N_112print_stringEPKcP6Status+0x104>
    12fc: a6 14        	ldx	$14                     ; 0x2014 <_ZN12_GLOBAL__N_112print_stringEPKcP6Status+0x103>
    12fe: 86 8c        	stx	$8c                     ; 0x208c <printf+0x6e>
    1300: a6 15        	ldx	$15                     ; 0x2015 <_ZN12_GLOBAL__N_112print_stringEPKcP6Status+0x104>
    1302: 86 8d        	stx	$8d                     ; 0x208d <printf+0x6f>
    1304: a2 06        	ldx	#$6
    1306: 80 18        	bra	$1320 <checkNESPad+0x2bd>
    1308: 86 90        	stx	$90                     ; 0x2090 <printf+0x72>
    130a: a6 15        	ldx	$15                     ; 0x2015 <_ZN12_GLOBAL__N_112print_stringEPKcP6Status+0x104>
    130c: 86 8e        	stx	$8e                     ; 0x208e <printf+0x70>
    130e: a6 16        	ldx	$16                     ; 0x2016 <_ZN12_GLOBAL__N_112print_stringEPKcP6Status+0x105>
    1310: 86 14        	stx	$14                     ; 0x2014 <_ZN12_GLOBAL__N_112print_stringEPKcP6Status+0x103>
    1312: a6 17        	ldx	$17                     ; 0x2017 <_ZN12_GLOBAL__N_112print_stringEPKcP6Status+0x106>
    1314: 86 15        	stx	$15                     ; 0x2015 <_ZN12_GLOBAL__N_112print_stringEPKcP6Status+0x104>
    1316: a6 14        	ldx	$14                     ; 0x2014 <_ZN12_GLOBAL__N_112print_stringEPKcP6Status+0x103>
    1318: 86 8c        	stx	$8c                     ; 0x208c <printf+0x6e>
    131a: a6 15        	ldx	$15                     ; 0x2015 <_ZN12_GLOBAL__N_112print_stringEPKcP6Status+0x104>
    131c: 86 8d        	stx	$8d                     ; 0x208d <printf+0x6f>
    131e: a2 07        	ldx	#$7
    1320: b2 12        	lda	($12)                   ; 0x2012 <_ZN12_GLOBAL__N_112print_stringEPKcP6Status+0x101>
    1322: 85 86        	sta	$86                     ; 0x2086 <printf+0x68>
    1324: a9 01        	lda	#$1
    1326: 64 12        	stz	$12                     ; 0x2012 <_ZN12_GLOBAL__N_112print_stringEPKcP6Status+0x101>
    1328: 64 13        	stz	$13                     ; 0x2013 <_ZN12_GLOBAL__N_112print_stringEPKcP6Status+0x102>
    132a: 86 14        	stx	$14                     ; 0x2014 <_ZN12_GLOBAL__N_112print_stringEPKcP6Status+0x103>
    132c: a2 00        	ldx	#$0
    132e: 20 d2 2e     	jsr	$2ed2 <__ashlsi3>
    1331: 25 86        	and	$86                     ; 0x2086 <printf+0x68>
    1333: f0 03        	beq	$1338 <checkNESPad+0x2d5>
    1335: 4c e9 16     	jmp	$16e9 <checkNESPad+0x686>
    1338: 18           	clc
    1339: a6 90        	ldx	$90                     ; 0x2090 <printf+0x72>
    133b: 86 12        	stx	$12                     ; 0x2012 <_ZN12_GLOBAL__N_112print_stringEPKcP6Status+0x101>
    133d: a5 87        	lda	$87                     ; 0x2087 <printf+0x69>
    133f: 65 12        	adc	$12                     ; 0x2012 <_ZN12_GLOBAL__N_112print_stringEPKcP6Status+0x101>
    1341: 85 13        	sta	$13                     ; 0x2013 <_ZN12_GLOBAL__N_112print_stringEPKcP6Status+0x102>
    1343: a6 8e        	ldx	$8e                     ; 0x208e <printf+0x70>
    1345: 86 12        	stx	$12                     ; 0x2012 <_ZN12_GLOBAL__N_112print_stringEPKcP6Status+0x101>
    1347: a5 88        	lda	$88                     ; 0x2088 <printf+0x6a>
    1349: 65 12        	adc	$12                     ; 0x2012 <_ZN12_GLOBAL__N_112print_stringEPKcP6Status+0x101>
    134b: 85 12        	sta	$12                     ; 0x2012 <_ZN12_GLOBAL__N_112print_stringEPKcP6Status+0x101>
    134d: a9 20        	lda	#$20
    134f: 18           	clc
    1350: 65 13        	adc	$13                     ; 0x2013 <_ZN12_GLOBAL__N_112print_stringEPKcP6Status+0x102>
    1352: a8           	tay
    1353: a9 54        	lda	#$54
    1355: 65 12        	adc	$12                     ; 0x2012 <_ZN12_GLOBAL__N_112print_stringEPKcP6Status+0x101>
    1357: 84 14        	sty	$14                     ; 0x2014 <_ZN12_GLOBAL__N_112print_stringEPKcP6Status+0x103>
    1359: 84 12        	sty	$12                     ; 0x2012 <_ZN12_GLOBAL__N_112print_stringEPKcP6Status+0x101>
    135b: 85 15        	sta	$15                     ; 0x2015 <_ZN12_GLOBAL__N_112print_stringEPKcP6Status+0x104>
    135d: 85 13        	sta	$13                     ; 0x2013 <_ZN12_GLOBAL__N_112print_stringEPKcP6Status+0x102>
    135f: a0 05        	ldy	#$5
    1361: b1 12        	lda	($12),y                 ; 0x2012 <_ZN12_GLOBAL__N_112print_stringEPKcP6Status+0x101>
    1363: a2 01        	ldx	#$1
    1365: a8           	tay
    1366: f0 02        	beq	$136a <checkNESPad+0x307>
    1368: a2 00        	ldx	#$0
    136a: a0 01        	ldy	#$1
    136c: a9 00        	lda	#$0
    136e: e0 00        	cpx	#$0
    1370: d0 02        	bne	$1374 <checkNESPad+0x311>
    1372: a9 01        	lda	#$1
    1374: 84 12        	sty	$12                     ; 0x2012 <_ZN12_GLOBAL__N_112print_stringEPKcP6Status+0x101>
    1376: a6 93        	ldx	$93                     ; 0x2093 <printf+0x75>
    1378: d0 02        	bne	$137c <checkNESPad+0x319>
    137a: 64 12        	stz	$12                     ; 0x2012 <_ZN12_GLOBAL__N_112print_stringEPKcP6Status+0x101>
    137c: 05 12        	ora	$12                     ; 0x2012 <_ZN12_GLOBAL__N_112print_stringEPKcP6Status+0x101>
    137e: 29 01        	and	#$1
    1380: f0 03        	beq	$1385 <checkNESPad+0x322>
    1382: 4c e9 16     	jmp	$16e9 <checkNESPad+0x686>
    1385: 18           	clc
    1386: a5 14        	lda	$14                     ; 0x2014 <_ZN12_GLOBAL__N_112print_stringEPKcP6Status+0x103>
    1388: 69 05        	adc	#$5
    138a: 85 14        	sta	$14                     ; 0x2014 <_ZN12_GLOBAL__N_112print_stringEPKcP6Status+0x103>
    138c: a5 15        	lda	$15                     ; 0x2015 <_ZN12_GLOBAL__N_112print_stringEPKcP6Status+0x104>
    138e: 69 00        	adc	#$0
    1390: 85 15        	sta	$15                     ; 0x2015 <_ZN12_GLOBAL__N_112print_stringEPKcP6Status+0x104>
    1392: a2 18        	ldx	#$18
    1394: 86 94        	stx	$94                     ; 0x2094 <printf+0x76>
    1396: 64 13        	stz	$13                     ; 0x2013 <_ZN12_GLOBAL__N_112print_stringEPKcP6Status+0x102>
    1398: 4c 12 14     	jmp	$1412 <checkNESPad+0x3af>
    139b: 86 90        	stx	$90                     ; 0x2090 <printf+0x72>
    139d: a6 15        	ldx	$15                     ; 0x2015 <_ZN12_GLOBAL__N_112print_stringEPKcP6Status+0x104>
    139f: 86 8e        	stx	$8e                     ; 0x208e <printf+0x70>
    13a1: a6 16        	ldx	$16                     ; 0x2016 <_ZN12_GLOBAL__N_112print_stringEPKcP6Status+0x105>
    13a3: 86 14        	stx	$14                     ; 0x2014 <_ZN12_GLOBAL__N_112print_stringEPKcP6Status+0x103>
    13a5: a6 17        	ldx	$17                     ; 0x2017 <_ZN12_GLOBAL__N_112print_stringEPKcP6Status+0x106>
    13a7: 86 15        	stx	$15                     ; 0x2015 <_ZN12_GLOBAL__N_112print_stringEPKcP6Status+0x104>
    13a9: a6 14        	ldx	$14                     ; 0x2014 <_ZN12_GLOBAL__N_112print_stringEPKcP6Status+0x103>
    13ab: 86 8c        	stx	$8c                     ; 0x208c <printf+0x6e>
    13ad: a6 15        	ldx	$15                     ; 0x2015 <_ZN12_GLOBAL__N_112print_stringEPKcP6Status+0x104>
    13af: 86 8d        	stx	$8d                     ; 0x208d <printf+0x6f>
    13b1: a2 07        	ldx	#$7
    13b3: b2 12        	lda	($12)                   ; 0x2012 <_ZN12_GLOBAL__N_112print_stringEPKcP6Status+0x101>
    13b5: 85 86        	sta	$86                     ; 0x2086 <printf+0x68>
    13b7: a9 01        	lda	#$1
    13b9: 64 12        	stz	$12                     ; 0x2012 <_ZN12_GLOBAL__N_112print_stringEPKcP6Status+0x101>
    13bb: 64 13        	stz	$13                     ; 0x2013 <_ZN12_GLOBAL__N_112print_stringEPKcP6Status+0x102>
    13bd: 86 14        	stx	$14                     ; 0x2014 <_ZN12_GLOBAL__N_112print_stringEPKcP6Status+0x103>
    13bf: a2 00        	ldx	#$0
    13c1: 86 93        	stx	$93                     ; 0x2093 <printf+0x75>
    13c3: 20 d2 2e     	jsr	$2ed2 <__ashlsi3>
    13c6: 25 86        	and	$86                     ; 0x2086 <printf+0x68>
    13c8: f0 03        	beq	$13cd <checkNESPad+0x36a>
    13ca: 4c e9 16     	jmp	$16e9 <checkNESPad+0x686>
    13cd: a2 18        	ldx	#$18
    13cf: 86 94        	stx	$94                     ; 0x2094 <printf+0x76>
    13d1: 18           	clc
    13d2: a6 90        	ldx	$90                     ; 0x2090 <printf+0x72>
    13d4: 86 12        	stx	$12                     ; 0x2012 <_ZN12_GLOBAL__N_112print_stringEPKcP6Status+0x101>
    13d6: a5 87        	lda	$87                     ; 0x2087 <printf+0x69>
    13d8: 65 12        	adc	$12                     ; 0x2012 <_ZN12_GLOBAL__N_112print_stringEPKcP6Status+0x101>
    13da: 85 13        	sta	$13                     ; 0x2013 <_ZN12_GLOBAL__N_112print_stringEPKcP6Status+0x102>
    13dc: a6 8e        	ldx	$8e                     ; 0x208e <printf+0x70>
    13de: 86 12        	stx	$12                     ; 0x2012 <_ZN12_GLOBAL__N_112print_stringEPKcP6Status+0x101>
    13e0: a5 88        	lda	$88                     ; 0x2088 <printf+0x6a>
    13e2: 65 12        	adc	$12                     ; 0x2012 <_ZN12_GLOBAL__N_112print_stringEPKcP6Status+0x101>
    13e4: 85 12        	sta	$12                     ; 0x2012 <_ZN12_GLOBAL__N_112print_stringEPKcP6Status+0x101>
    13e6: a9 20        	lda	#$20
    13e8: 18           	clc
    13e9: 65 13        	adc	$13                     ; 0x2013 <_ZN12_GLOBAL__N_112print_stringEPKcP6Status+0x102>
    13eb: a8           	tay
    13ec: a9 54        	lda	#$54
    13ee: 65 12        	adc	$12                     ; 0x2012 <_ZN12_GLOBAL__N_112print_stringEPKcP6Status+0x101>
    13f0: 84 14        	sty	$14                     ; 0x2014 <_ZN12_GLOBAL__N_112print_stringEPKcP6Status+0x103>
    13f2: 84 12        	sty	$12                     ; 0x2012 <_ZN12_GLOBAL__N_112print_stringEPKcP6Status+0x101>
    13f4: 85 15        	sta	$15                     ; 0x2015 <_ZN12_GLOBAL__N_112print_stringEPKcP6Status+0x104>
    13f6: 85 13        	sta	$13                     ; 0x2013 <_ZN12_GLOBAL__N_112print_stringEPKcP6Status+0x102>
    13f8: a0 05        	ldy	#$5
    13fa: b1 12        	lda	($12),y                 ; 0x2012 <_ZN12_GLOBAL__N_112print_stringEPKcP6Status+0x101>
    13fc: f0 03        	beq	$1401 <checkNESPad+0x39e>
    13fe: 4c e9 16     	jmp	$16e9 <checkNESPad+0x686>
    1401: 18           	clc
    1402: a5 14        	lda	$14                     ; 0x2014 <_ZN12_GLOBAL__N_112print_stringEPKcP6Status+0x103>
    1404: 69 05        	adc	#$5
    1406: 85 14        	sta	$14                     ; 0x2014 <_ZN12_GLOBAL__N_112print_stringEPKcP6Status+0x103>
    1408: a5 15        	lda	$15                     ; 0x2015 <_ZN12_GLOBAL__N_112print_stringEPKcP6Status+0x104>
    140a: 69 00        	adc	#$0
    140c: 85 15        	sta	$15                     ; 0x2015 <_ZN12_GLOBAL__N_112print_stringEPKcP6Status+0x104>
    140e: a6 93        	ldx	$93                     ; 0x2093 <printf+0x75>
    1410: 86 13        	stx	$13                     ; 0x2013 <_ZN12_GLOBAL__N_112print_stringEPKcP6Status+0x102>
    1412: a9 01        	lda	#$1
    1414: 92 14        	sta	($14)                   ; 0x2014 <_ZN12_GLOBAL__N_112print_stringEPKcP6Status+0x103>
    1416: a9 05        	lda	#$5
    1418: a6 8b        	ldx	$8b                     ; 0x208b <printf+0x6d>
    141a: 86 8b        	stx	$8b                     ; 0x208b <printf+0x6d>
    141c: d0 02        	bne	$1420 <checkNESPad+0x3bd>
    141e: a9 04        	lda	#$4
    1420: a6 92        	ldx	$92                     ; 0x2092 <printf+0x74>
    1422: 85 15        	sta	$15                     ; 0x2015 <_ZN12_GLOBAL__N_112print_stringEPKcP6Status+0x104>
    1424: 8a           	txa
    1425: 18           	clc
    1426: 69 0a        	adc	#$a
    1428: 85 18        	sta	$18                     ; 0x2018 <_ZN12_GLOBAL__N_112print_stringEPKcP6Status+0x107>
    142a: a9 00        	lda	#$0
    142c: 69 00        	adc	#$0
    142e: a6 18        	ldx	$18                     ; 0x2018 <_ZN12_GLOBAL__N_112print_stringEPKcP6Status+0x107>
    1430: 86 12        	stx	$12                     ; 0x2012 <_ZN12_GLOBAL__N_112print_stringEPKcP6Status+0x101>
    1432: 06 12        	asl	$12                     ; 0x2012 <_ZN12_GLOBAL__N_112print_stringEPKcP6Status+0x101>
    1434: 2a           	rol
    1435: 06 12        	asl	$12                     ; 0x2012 <_ZN12_GLOBAL__N_112print_stringEPKcP6Status+0x101>
    1437: 2a           	rol
    1438: 06 12        	asl	$12                     ; 0x2012 <_ZN12_GLOBAL__N_112print_stringEPKcP6Status+0x101>
    143a: 2a           	rol
    143b: 85 14        	sta	$14                     ; 0x2014 <_ZN12_GLOBAL__N_112print_stringEPKcP6Status+0x103>
    143d: a5 12        	lda	$12                     ; 0x2012 <_ZN12_GLOBAL__N_112print_stringEPKcP6Status+0x101>
    143f: 0a           	asl
    1440: a6 14        	ldx	$14                     ; 0x2014 <_ZN12_GLOBAL__N_112print_stringEPKcP6Status+0x103>
    1442: 86 16        	stx	$16                     ; 0x2016 <_ZN12_GLOBAL__N_112print_stringEPKcP6Status+0x105>
    1444: 26 16        	rol	$16                     ; 0x2016 <_ZN12_GLOBAL__N_112print_stringEPKcP6Status+0x105>
    1446: 18           	clc
    1447: 65 12        	adc	$12                     ; 0x2012 <_ZN12_GLOBAL__N_112print_stringEPKcP6Status+0x101>
    1449: 85 12        	sta	$12                     ; 0x2012 <_ZN12_GLOBAL__N_112print_stringEPKcP6Status+0x101>
    144b: a5 16        	lda	$16                     ; 0x2016 <_ZN12_GLOBAL__N_112print_stringEPKcP6Status+0x105>
    144d: 65 14        	adc	$14                     ; 0x2014 <_ZN12_GLOBAL__N_112print_stringEPKcP6Status+0x103>
    144f: 85 14        	sta	$14                     ; 0x2014 <_ZN12_GLOBAL__N_112print_stringEPKcP6Status+0x103>
    1451: a9 20        	lda	#$20
    1453: 18           	clc
    1454: 65 12        	adc	$12                     ; 0x2012 <_ZN12_GLOBAL__N_112print_stringEPKcP6Status+0x101>
    1456: 85 1a        	sta	$1a                     ; 0x201a <_ZN12_GLOBAL__N_112print_stringEPKcP6Status+0x109>
    1458: a9 54        	lda	#$54
    145a: 65 14        	adc	$14                     ; 0x2014 <_ZN12_GLOBAL__N_112print_stringEPKcP6Status+0x103>
    145c: 85 12        	sta	$12                     ; 0x2012 <_ZN12_GLOBAL__N_112print_stringEPKcP6Status+0x101>
    145e: a5 84        	lda	$84                     ; 0x2084 <printf+0x66>
    1460: 18           	clc
    1461: 69 02        	adc	#$2
    1463: 85 16        	sta	$16                     ; 0x2016 <_ZN12_GLOBAL__N_112print_stringEPKcP6Status+0x105>
    1465: a5 85        	lda	$85                     ; 0x2085 <printf+0x67>
    1467: 69 00        	adc	#$0
    1469: 85 17        	sta	$17                     ; 0x2017 <_ZN12_GLOBAL__N_112print_stringEPKcP6Status+0x106>
    146b: a0 13        	ldy	#$13
    146d: a6 15        	ldx	$15                     ; 0x2015 <_ZN12_GLOBAL__N_112print_stringEPKcP6Status+0x104>
    146f: 86 95        	stx	$95                     ; 0x2095 <printf+0x77>
    1471: a5 15        	lda	$15                     ; 0x2015 <_ZN12_GLOBAL__N_112print_stringEPKcP6Status+0x104>
    1473: 91 84        	sta	($84),y                 ; 0x2084 <printf+0x66>
    1475: b2 84        	lda	($84)                   ; 0x2084 <printf+0x66>
    1477: aa           	tax
    1478: a4 1a        	ldy	$1a                     ; 0x201a <_ZN12_GLOBAL__N_112print_stringEPKcP6Status+0x109>
    147a: 84 14        	sty	$14                     ; 0x2014 <_ZN12_GLOBAL__N_112print_stringEPKcP6Status+0x103>
    147c: a4 12        	ldy	$12                     ; 0x2012 <_ZN12_GLOBAL__N_112print_stringEPKcP6Status+0x101>
    147e: 84 15        	sty	$15                     ; 0x2015 <_ZN12_GLOBAL__N_112print_stringEPKcP6Status+0x104>
    1480: a0 01        	ldy	#$1
    1482: b1 84        	lda	($84),y                 ; 0x2084 <printf+0x66>
    1484: 85 19        	sta	$19                     ; 0x2019 <_ZN12_GLOBAL__N_112print_stringEPKcP6Status+0x108>
    1486: 86 1b        	stx	$1b                     ; 0x201b <_ZN12_GLOBAL__N_112print_stringEPKcP6Status+0x10a>
    1488: 8a           	txa
    1489: 92 14        	sta	($14)                   ; 0x2014 <_ZN12_GLOBAL__N_112print_stringEPKcP6Status+0x103>
    148b: a5 19        	lda	$19                     ; 0x2019 <_ZN12_GLOBAL__N_112print_stringEPKcP6Status+0x108>
    148d: 85 1c        	sta	$1c                     ; 0x201c <_ZN12_GLOBAL__N_112print_stringEPKcP6Status+0x10b>
    148f: 91 14        	sta	($14),y                 ; 0x2014 <_ZN12_GLOBAL__N_112print_stringEPKcP6Status+0x103>
    1491: c8           	iny
    1492: b1 84        	lda	($84),y                 ; 0x2084 <printf+0x66>
    1494: aa           	tax
    1495: 88           	dey
    1496: b1 16        	lda	($16),y                 ; 0x2016 <_ZN12_GLOBAL__N_112print_stringEPKcP6Status+0x105>
    1498: 85 1d        	sta	$1d                     ; 0x201d <_ZN12_GLOBAL__N_112print_stringEPKcP6Status+0x10c>
    149a: e8           	inx
    149b: d0 02        	bne	$149f <checkNESPad+0x43c>
    149d: e6 1d        	inc	$1d                     ; 0x201d <_ZN12_GLOBAL__N_112print_stringEPKcP6Status+0x10c>
    149f: 86 19        	stx	$19                     ; 0x2019 <_ZN12_GLOBAL__N_112print_stringEPKcP6Status+0x108>
    14a1: 8a           	txa
    14a2: a0 02        	ldy	#$2
    14a4: 91 14        	sta	($14),y                 ; 0x2014 <_ZN12_GLOBAL__N_112print_stringEPKcP6Status+0x103>
    14a6: a5 1a        	lda	$1a                     ; 0x201a <_ZN12_GLOBAL__N_112print_stringEPKcP6Status+0x109>
    14a8: a6 1a        	ldx	$1a                     ; 0x201a <_ZN12_GLOBAL__N_112print_stringEPKcP6Status+0x109>
    14aa: 86 96        	stx	$96                     ; 0x2096 <printf+0x78>
    14ac: 18           	clc
    14ad: 69 02        	adc	#$2
    14af: 85 16        	sta	$16                     ; 0x2016 <_ZN12_GLOBAL__N_112print_stringEPKcP6Status+0x105>
    14b1: a5 12        	lda	$12                     ; 0x2012 <_ZN12_GLOBAL__N_112print_stringEPKcP6Status+0x101>
    14b3: a6 12        	ldx	$12                     ; 0x2012 <_ZN12_GLOBAL__N_112print_stringEPKcP6Status+0x101>
    14b5: 86 97        	stx	$97                     ; 0x2097 <printf+0x79>
    14b7: 69 00        	adc	#$0
    14b9: 85 17        	sta	$17                     ; 0x2017 <_ZN12_GLOBAL__N_112print_stringEPKcP6Status+0x106>
    14bb: a5 1d        	lda	$1d                     ; 0x201d <_ZN12_GLOBAL__N_112print_stringEPKcP6Status+0x10c>
    14bd: 85 1a        	sta	$1a                     ; 0x201a <_ZN12_GLOBAL__N_112print_stringEPKcP6Status+0x109>
    14bf: 88           	dey
    14c0: 91 16        	sta	($16),y                 ; 0x2016 <_ZN12_GLOBAL__N_112print_stringEPKcP6Status+0x105>
    14c2: 98           	tya
    14c3: a6 18        	ldx	$18                     ; 0x2018 <_ZN12_GLOBAL__N_112print_stringEPKcP6Status+0x107>
    14c5: a4 8b        	ldy	$8b                     ; 0x208b <printf+0x6d>
    14c7: 84 12        	sty	$12                     ; 0x2012 <_ZN12_GLOBAL__N_112print_stringEPKcP6Status+0x101>
    14c9: d0 02        	bne	$14cd <checkNESPad+0x46a>
    14cb: a9 00        	lda	#$0
    14cd: a0 13        	ldy	#$13
    14cf: 91 14        	sta	($14),y                 ; 0x2014 <_ZN12_GLOBAL__N_112print_stringEPKcP6Status+0x103>
    14d1: a9 04        	lda	#$4
    14d3: a4 12        	ldy	$12                     ; 0x2012 <_ZN12_GLOBAL__N_112print_stringEPKcP6Status+0x101>
    14d5: d0 02        	bne	$14d9 <checkNESPad+0x476>
    14d7: a9 00        	lda	#$0
    14d9: a0 0a        	ldy	#$a
    14db: 91 14        	sta	($14),y                 ; 0x2014 <_ZN12_GLOBAL__N_112print_stringEPKcP6Status+0x103>
    14dd: a5 18        	lda	$18                     ; 0x2018 <_ZN12_GLOBAL__N_112print_stringEPKcP6Status+0x107>
    14df: 0a           	asl
    14e0: 64 12        	stz	$12                     ; 0x2012 <_ZN12_GLOBAL__N_112print_stringEPKcP6Status+0x101>
    14e2: 26 12        	rol	$12                     ; 0x2012 <_ZN12_GLOBAL__N_112print_stringEPKcP6Status+0x101>
    14e4: 0a           	asl
    14e5: 26 12        	rol	$12                     ; 0x2012 <_ZN12_GLOBAL__N_112print_stringEPKcP6Status+0x101>
    14e7: 0a           	asl
    14e8: 26 12        	rol	$12                     ; 0x2012 <_ZN12_GLOBAL__N_112print_stringEPKcP6Status+0x101>
    14ea: 18           	clc
    14eb: 85 18        	sta	$18                     ; 0x2018 <_ZN12_GLOBAL__N_112print_stringEPKcP6Status+0x107>
    14ed: 69 04        	adc	#$4
    14ef: 85 16        	sta	$16                     ; 0x2016 <_ZN12_GLOBAL__N_112print_stringEPKcP6Status+0x105>
    14f1: a5 12        	lda	$12                     ; 0x2012 <_ZN12_GLOBAL__N_112print_stringEPKcP6Status+0x101>
    14f3: 69 d9        	adc	#$d9
    14f5: 85 17        	sta	$17                     ; 0x2017 <_ZN12_GLOBAL__N_112print_stringEPKcP6Status+0x106>
    14f7: a5 1b        	lda	$1b                     ; 0x201b <_ZN12_GLOBAL__N_112print_stringEPKcP6Status+0x10a>
    14f9: 92 16        	sta	($16)                   ; 0x2016 <_ZN12_GLOBAL__N_112print_stringEPKcP6Status+0x105>
    14fb: a0 01        	ldy	#$1
    14fd: a5 1c        	lda	$1c                     ; 0x201c <_ZN12_GLOBAL__N_112print_stringEPKcP6Status+0x10b>
    14ff: 91 16        	sta	($16),y                 ; 0x2016 <_ZN12_GLOBAL__N_112print_stringEPKcP6Status+0x105>
    1501: 18           	clc
    1502: a5 18        	lda	$18                     ; 0x2018 <_ZN12_GLOBAL__N_112print_stringEPKcP6Status+0x107>
    1504: 69 06        	adc	#$6
    1506: 85 1b        	sta	$1b                     ; 0x201b <_ZN12_GLOBAL__N_112print_stringEPKcP6Status+0x10a>
    1508: a5 12        	lda	$12                     ; 0x2012 <_ZN12_GLOBAL__N_112print_stringEPKcP6Status+0x101>
    150a: 69 d9        	adc	#$d9
    150c: 5a           	phy
    150d: a4 1b        	ldy	$1b                     ; 0x201b <_ZN12_GLOBAL__N_112print_stringEPKcP6Status+0x10a>
    150f: 84 16        	sty	$16                     ; 0x2016 <_ZN12_GLOBAL__N_112print_stringEPKcP6Status+0x105>
    1511: 7a           	ply
    1512: 85 17        	sta	$17                     ; 0x2017 <_ZN12_GLOBAL__N_112print_stringEPKcP6Status+0x106>
    1514: a5 19        	lda	$19                     ; 0x2019 <_ZN12_GLOBAL__N_112print_stringEPKcP6Status+0x108>
    1516: 92 16        	sta	($16)                   ; 0x2016 <_ZN12_GLOBAL__N_112print_stringEPKcP6Status+0x105>
    1518: a5 1a        	lda	$1a                     ; 0x201a <_ZN12_GLOBAL__N_112print_stringEPKcP6Status+0x109>
    151a: 91 16        	sta	($16),y                 ; 0x2016 <_ZN12_GLOBAL__N_112print_stringEPKcP6Status+0x105>
    151c: 18           	clc
    151d: a5 18        	lda	$18                     ; 0x2018 <_ZN12_GLOBAL__N_112print_stringEPKcP6Status+0x107>
    151f: 69 00        	adc	#$0
    1521: 85 16        	sta	$16                     ; 0x2016 <_ZN12_GLOBAL__N_112print_stringEPKcP6Status+0x105>
    1523: a5 12        	lda	$12                     ; 0x2012 <_ZN12_GLOBAL__N_112print_stringEPKcP6Status+0x101>
    1525: 69 d9        	adc	#$d9
    1527: 85 17        	sta	$17                     ; 0x2017 <_ZN12_GLOBAL__N_112print_stringEPKcP6Status+0x106>
    1529: a9 01        	lda	#$1
    152b: 15 39        	ora	$39,x                   ; 0x2039 <printf+0x1b>
    152d: 92 16        	sta	($16)                   ; 0x2016 <_ZN12_GLOBAL__N_112print_stringEPKcP6Status+0x105>
    152f: a2 80        	ldx	#$80
    1531: 86 f3        	stx	$f3                     ; 0x20f3 <printf+0xd5>
    1533: a2 8a        	ldx	#$8a
    1535: a0 00        	ldy	#$0
    1537: 86 16        	stx	$16                     ; 0x2016 <_ZN12_GLOBAL__N_112print_stringEPKcP6Status+0x105>
    1539: 84 17        	sty	$17                     ; 0x2017 <_ZN12_GLOBAL__N_112print_stringEPKcP6Status+0x106>
    153b: a2 00        	ldx	#$0
    153d: 86 18        	stx	$18                     ; 0x2018 <_ZN12_GLOBAL__N_112print_stringEPKcP6Status+0x107>
    153f: a2 56        	ldx	#$56
    1541: 86 19        	stx	$19                     ; 0x2019 <_ZN12_GLOBAL__N_112print_stringEPKcP6Status+0x108>
    1543: 20 f0 ff     	jsr	$fff0 <__heap_start+0xa9ea>
    1546: 92 16        	sta	($16)                   ; 0x2016 <_ZN12_GLOBAL__N_112print_stringEPKcP6Status+0x105>
    1548: a9 00        	lda	#$0
    154a: 6a           	ror
    154b: 85 18        	sta	$18                     ; 0x2018 <_ZN12_GLOBAL__N_112print_stringEPKcP6Status+0x107>
    154d: 18           	clc
    154e: a9 08        	lda	#$8
    1550: 65 8a        	adc	$8a                     ; 0x208a <printf+0x6c>
    1552: 85 16        	sta	$16                     ; 0x2016 <_ZN12_GLOBAL__N_112print_stringEPKcP6Status+0x105>
    1554: a0 0f        	ldy	#$f
    1556: b1 14        	lda	($14),y                 ; 0x2014 <_ZN12_GLOBAL__N_112print_stringEPKcP6Status+0x103>
    1558: 85 12        	sta	$12                     ; 0x2012 <_ZN12_GLOBAL__N_112print_stringEPKcP6Status+0x101>
    155a: c8           	iny
    155b: a5 16        	lda	$16                     ; 0x2016 <_ZN12_GLOBAL__N_112print_stringEPKcP6Status+0x105>
    155d: 91 14        	sta	($14),y                 ; 0x2014 <_ZN12_GLOBAL__N_112print_stringEPKcP6Status+0x103>
    155f: a6 12        	ldx	$12                     ; 0x2012 <_ZN12_GLOBAL__N_112print_stringEPKcP6Status+0x101>
    1561: 86 f3        	stx	$f3                     ; 0x20f3 <printf+0xd5>
    1563: b1 14        	lda	($14),y                 ; 0x2014 <_ZN12_GLOBAL__N_112print_stringEPKcP6Status+0x103>
    1565: 85 f4        	sta	$f4                     ; 0x20f4 <printf+0xd6>
    1567: c8           	iny
    1568: a6 14        	ldx	$14                     ; 0x2014 <_ZN12_GLOBAL__N_112print_stringEPKcP6Status+0x103>
    156a: 86 16        	stx	$16                     ; 0x2016 <_ZN12_GLOBAL__N_112print_stringEPKcP6Status+0x105>
    156c: a6 15        	ldx	$15                     ; 0x2015 <_ZN12_GLOBAL__N_112print_stringEPKcP6Status+0x104>
    156e: 86 17        	stx	$17                     ; 0x2017 <_ZN12_GLOBAL__N_112print_stringEPKcP6Status+0x106>
    1570: a6 16        	ldx	$16                     ; 0x2016 <_ZN12_GLOBAL__N_112print_stringEPKcP6Status+0x105>
    1572: 86 8e        	stx	$8e                     ; 0x208e <printf+0x70>
    1574: a6 17        	ldx	$17                     ; 0x2017 <_ZN12_GLOBAL__N_112print_stringEPKcP6Status+0x106>
    1576: 86 8f        	stx	$8f                     ; 0x208f <printf+0x71>
    1578: b1 14        	lda	($14),y                 ; 0x2014 <_ZN12_GLOBAL__N_112print_stringEPKcP6Status+0x103>
    157a: 85 f5        	sta	$f5                     ; 0x20f5 <printf+0xd7>
    157c: a2 89        	ldx	#$89
    157e: 86 14        	stx	$14                     ; 0x2014 <_ZN12_GLOBAL__N_112print_stringEPKcP6Status+0x103>
    1580: a2 00        	ldx	#$0
    1582: 86 15        	stx	$15                     ; 0x2015 <_ZN12_GLOBAL__N_112print_stringEPKcP6Status+0x104>
    1584: 20 f0 ff     	jsr	$fff0 <__heap_start+0xa9ea>
    1587: 92 14        	sta	($14)                   ; 0x2014 <_ZN12_GLOBAL__N_112print_stringEPKcP6Status+0x103>
    1589: a9 00        	lda	#$0
    158b: 6a           	ror
    158c: 85 18        	sta	$18                     ; 0x2018 <_ZN12_GLOBAL__N_112print_stringEPKcP6Status+0x107>
    158e: a6 8c        	ldx	$8c                     ; 0x208c <printf+0x6e>
    1590: 86 14        	stx	$14                     ; 0x2014 <_ZN12_GLOBAL__N_112print_stringEPKcP6Status+0x103>
    1592: a6 8d        	ldx	$8d                     ; 0x208d <printf+0x6f>
    1594: 86 15        	stx	$15                     ; 0x2015 <_ZN12_GLOBAL__N_112print_stringEPKcP6Status+0x104>
    1596: a4 14        	ldy	$14                     ; 0x2014 <_ZN12_GLOBAL__N_112print_stringEPKcP6Status+0x103>
    1598: 84 16        	sty	$16                     ; 0x2016 <_ZN12_GLOBAL__N_112print_stringEPKcP6Status+0x105>
    159a: 86 17        	stx	$17                     ; 0x2017 <_ZN12_GLOBAL__N_112print_stringEPKcP6Status+0x106>
    159c: a6 16        	ldx	$16                     ; 0x2016 <_ZN12_GLOBAL__N_112print_stringEPKcP6Status+0x105>
    159e: 86 8c        	stx	$8c                     ; 0x208c <printf+0x6e>
    15a0: a6 17        	ldx	$17                     ; 0x2017 <_ZN12_GLOBAL__N_112print_stringEPKcP6Status+0x106>
    15a2: 86 8d        	stx	$8d                     ; 0x208d <printf+0x6f>
    15a4: b2 14        	lda	($14)                   ; 0x2014 <_ZN12_GLOBAL__N_112print_stringEPKcP6Status+0x103>
    15a6: 85 16        	sta	$16                     ; 0x2016 <_ZN12_GLOBAL__N_112print_stringEPKcP6Status+0x105>
    15a8: a0 01        	ldy	#$1
    15aa: b1 14        	lda	($14),y                 ; 0x2014 <_ZN12_GLOBAL__N_112print_stringEPKcP6Status+0x103>
    15ac: a6 94        	ldx	$94                     ; 0x2094 <printf+0x76>
    15ae: 86 86        	stx	$86                     ; 0x2086 <printf+0x68>
    15b0: 86 12        	stx	$12                     ; 0x2012 <_ZN12_GLOBAL__N_112print_stringEPKcP6Status+0x101>
    15b2: a6 13        	ldx	$13                     ; 0x2013 <_ZN12_GLOBAL__N_112print_stringEPKcP6Status+0x102>
    15b4: 86 93        	stx	$93                     ; 0x2093 <printf+0x75>
    15b6: aa           	tax
    15b7: a5 16        	lda	$16                     ; 0x2016 <_ZN12_GLOBAL__N_112print_stringEPKcP6Status+0x105>
    15b9: 20 e9 2e     	jsr	$2ee9 <__mulhi3>
    15bc: 18           	clc
    15bd: 72 84        	adc	($84)                   ; 0x2084 <printf+0x66>
    15bf: 85 13        	sta	$13                     ; 0x2013 <_ZN12_GLOBAL__N_112print_stringEPKcP6Status+0x102>
    15c1: a0 01        	ldy	#$1
    15c3: 8a           	txa
    15c4: 71 84        	adc	($84),y                 ; 0x2084 <printf+0x66>
    15c6: 85 12        	sta	$12                     ; 0x2012 <_ZN12_GLOBAL__N_112print_stringEPKcP6Status+0x101>
    15c8: a5 13        	lda	$13                     ; 0x2013 <_ZN12_GLOBAL__N_112print_stringEPKcP6Status+0x102>
    15ca: 92 84        	sta	($84)                   ; 0x2084 <printf+0x66>
    15cc: a5 12        	lda	$12                     ; 0x2012 <_ZN12_GLOBAL__N_112print_stringEPKcP6Status+0x101>
    15ce: 91 84        	sta	($84),y                 ; 0x2084 <printf+0x66>
    15d0: a5 84        	lda	$84                     ; 0x2084 <printf+0x66>
    15d2: a6 84        	ldx	$84                     ; 0x2084 <printf+0x66>
    15d4: 86 98        	stx	$98                     ; 0x2098 <printf+0x7a>
    15d6: 18           	clc
    15d7: 69 0d        	adc	#$d
    15d9: 85 12        	sta	$12                     ; 0x2012 <_ZN12_GLOBAL__N_112print_stringEPKcP6Status+0x101>
    15db: a5 85        	lda	$85                     ; 0x2085 <printf+0x67>
    15dd: 69 00        	adc	#$0
    15df: a0 0d        	ldy	#$d
    15e1: 85 13        	sta	$13                     ; 0x2013 <_ZN12_GLOBAL__N_112print_stringEPKcP6Status+0x102>
    15e3: a6 12        	ldx	$12                     ; 0x2012 <_ZN12_GLOBAL__N_112print_stringEPKcP6Status+0x101>
    15e5: 86 14        	stx	$14                     ; 0x2014 <_ZN12_GLOBAL__N_112print_stringEPKcP6Status+0x103>
    15e7: 85 15        	sta	$15                     ; 0x2015 <_ZN12_GLOBAL__N_112print_stringEPKcP6Status+0x104>
    15e9: a6 14        	ldx	$14                     ; 0x2014 <_ZN12_GLOBAL__N_112print_stringEPKcP6Status+0x103>
    15eb: 86 90        	stx	$90                     ; 0x2090 <printf+0x72>
    15ed: a6 15        	ldx	$15                     ; 0x2015 <_ZN12_GLOBAL__N_112print_stringEPKcP6Status+0x104>
    15ef: 86 91        	stx	$91                     ; 0x2091 <printf+0x73>
    15f1: b1 84        	lda	($84),y                 ; 0x2084 <printf+0x66>
    15f3: 85 14        	sta	$14                     ; 0x2014 <_ZN12_GLOBAL__N_112print_stringEPKcP6Status+0x103>
    15f5: a0 01        	ldy	#$1
    15f7: b1 12        	lda	($12),y                 ; 0x2012 <_ZN12_GLOBAL__N_112print_stringEPKcP6Status+0x101>
    15f9: a6 86        	ldx	$86                     ; 0x2086 <printf+0x68>
    15fb: 86 12        	stx	$12                     ; 0x2012 <_ZN12_GLOBAL__N_112print_stringEPKcP6Status+0x101>
    15fd: a6 93        	ldx	$93                     ; 0x2093 <printf+0x75>
    15ff: 86 13        	stx	$13                     ; 0x2013 <_ZN12_GLOBAL__N_112print_stringEPKcP6Status+0x102>
    1601: aa           	tax
    1602: a5 14        	lda	$14                     ; 0x2014 <_ZN12_GLOBAL__N_112print_stringEPKcP6Status+0x103>
    1604: 20 e9 2e     	jsr	$2ee9 <__mulhi3>
    1607: 85 14        	sta	$14                     ; 0x2014 <_ZN12_GLOBAL__N_112print_stringEPKcP6Status+0x103>
    1609: 18           	clc
    160a: a5 98        	lda	$98                     ; 0x2098 <printf+0x7a>
    160c: 69 02        	adc	#$2
    160e: 85 12        	sta	$12                     ; 0x2012 <_ZN12_GLOBAL__N_112print_stringEPKcP6Status+0x101>
    1610: a5 85        	lda	$85                     ; 0x2085 <printf+0x67>
    1612: 69 00        	adc	#$0
    1614: 85 13        	sta	$13                     ; 0x2013 <_ZN12_GLOBAL__N_112print_stringEPKcP6Status+0x102>
    1616: 18           	clc
    1617: a0 02        	ldy	#$2
    1619: a5 14        	lda	$14                     ; 0x2014 <_ZN12_GLOBAL__N_112print_stringEPKcP6Status+0x103>
    161b: 71 84        	adc	($84),y                 ; 0x2084 <printf+0x66>
    161d: 85 15        	sta	$15                     ; 0x2015 <_ZN12_GLOBAL__N_112print_stringEPKcP6Status+0x104>
    161f: 88           	dey
    1620: 8a           	txa
    1621: 71 12        	adc	($12),y                 ; 0x2012 <_ZN12_GLOBAL__N_112print_stringEPKcP6Status+0x101>
    1623: 85 14        	sta	$14                     ; 0x2014 <_ZN12_GLOBAL__N_112print_stringEPKcP6Status+0x103>
    1625: c8           	iny
    1626: a5 15        	lda	$15                     ; 0x2015 <_ZN12_GLOBAL__N_112print_stringEPKcP6Status+0x104>
    1628: 91 84        	sta	($84),y                 ; 0x2084 <printf+0x66>
    162a: a5 14        	lda	$14                     ; 0x2014 <_ZN12_GLOBAL__N_112print_stringEPKcP6Status+0x103>
    162c: 88           	dey
    162d: 91 12        	sta	($12),y                 ; 0x2012 <_ZN12_GLOBAL__N_112print_stringEPKcP6Status+0x101>
    162f: a9 00        	lda	#$0
    1631: a6 8c        	ldx	$8c                     ; 0x208c <printf+0x6e>
    1633: 86 12        	stx	$12                     ; 0x2012 <_ZN12_GLOBAL__N_112print_stringEPKcP6Status+0x101>
    1635: a6 8d        	ldx	$8d                     ; 0x208d <printf+0x6f>
    1637: 86 13        	stx	$13                     ; 0x2013 <_ZN12_GLOBAL__N_112print_stringEPKcP6Status+0x102>
    1639: 92 12        	sta	($12)                   ; 0x2012 <_ZN12_GLOBAL__N_112print_stringEPKcP6Status+0x101>
    163b: 91 12        	sta	($12),y                 ; 0x2012 <_ZN12_GLOBAL__N_112print_stringEPKcP6Status+0x101>
    163d: a6 84        	ldx	$84                     ; 0x2084 <printf+0x66>
    163f: 86 12        	stx	$12                     ; 0x2012 <_ZN12_GLOBAL__N_112print_stringEPKcP6Status+0x101>
    1641: a6 85        	ldx	$85                     ; 0x2085 <printf+0x67>
    1643: 86 13        	stx	$13                     ; 0x2013 <_ZN12_GLOBAL__N_112print_stringEPKcP6Status+0x102>
    1645: a0 0d        	ldy	#$d
    1647: 91 84        	sta	($84),y                 ; 0x2084 <printf+0x66>
    1649: a6 90        	ldx	$90                     ; 0x2090 <printf+0x72>
    164b: 86 14        	stx	$14                     ; 0x2014 <_ZN12_GLOBAL__N_112print_stringEPKcP6Status+0x103>
    164d: a6 91        	ldx	$91                     ; 0x2091 <printf+0x73>
    164f: 86 15        	stx	$15                     ; 0x2015 <_ZN12_GLOBAL__N_112print_stringEPKcP6Status+0x104>
    1651: a0 01        	ldy	#$1
    1653: 91 14        	sta	($14),y                 ; 0x2014 <_ZN12_GLOBAL__N_112print_stringEPKcP6Status+0x103>
    1655: a9 03        	lda	#$3
    1657: a6 8b        	ldx	$8b                     ; 0x208b <printf+0x6d>
    1659: d0 02        	bne	$165d <checkNESPad+0x5fa>
    165b: a9 01        	lda	#$1
    165d: a0 0a        	ldy	#$a
    165f: 91 12        	sta	($12),y                 ; 0x2012 <_ZN12_GLOBAL__N_112print_stringEPKcP6Status+0x101>
    1661: a0 13        	ldy	#$13
    1663: a5 95        	lda	$95                     ; 0x2095 <printf+0x77>
    1665: 91 12        	sta	($12),y                 ; 0x2012 <_ZN12_GLOBAL__N_112print_stringEPKcP6Status+0x101>
    1667: 64 37        	stz	$37                     ; 0x2037 <printf+0x19>
    1669: 9c 14 d0     	stz	$d014                   ; 0xd014 <__heap_start+0x7a0e>
    166c: 9c 15 d0     	stz	$d015                   ; 0xd015 <__heap_start+0x7a0f>
    166f: 64 38        	stz	$38                     ; 0x2038 <printf+0x1a>
    1671: 9c 16 d0     	stz	$d016                   ; 0xd016 <__heap_start+0x7a10>
    1674: 9c 17 d0     	stz	$d017                   ; 0xd017 <__heap_start+0x7a11>
    1677: a6 8e        	ldx	$8e                     ; 0x208e <printf+0x70>
    1679: 86 12        	stx	$12                     ; 0x2012 <_ZN12_GLOBAL__N_112print_stringEPKcP6Status+0x101>
    167b: a6 8f        	ldx	$8f                     ; 0x208f <printf+0x71>
    167d: 86 13        	stx	$13                     ; 0x2013 <_ZN12_GLOBAL__N_112print_stringEPKcP6Status+0x102>
    167f: b1 12        	lda	($12),y                 ; 0x2012 <_ZN12_GLOBAL__N_112print_stringEPKcP6Status+0x101>
    1681: 85 17        	sta	$17                     ; 0x2017 <_ZN12_GLOBAL__N_112print_stringEPKcP6Status+0x106>
    1683: a0 0a        	ldy	#$a
    1685: b1 12        	lda	($12),y                 ; 0x2012 <_ZN12_GLOBAL__N_112print_stringEPKcP6Status+0x101>
    1687: 85 16        	sta	$16                     ; 0x2016 <_ZN12_GLOBAL__N_112print_stringEPKcP6Status+0x105>
    1689: a2 01        	ldx	#$1
    168b: 86 36        	stx	$36                     ; 0x2036 <printf+0x18>
    168d: a0 01        	ldy	#$1
    168f: a5 96        	lda	$96                     ; 0x2096 <printf+0x78>
    1691: 18           	clc
    1692: 69 02        	adc	#$2
    1694: 85 19        	sta	$19                     ; 0x2019 <_ZN12_GLOBAL__N_112print_stringEPKcP6Status+0x108>
    1696: a6 97        	ldx	$97                     ; 0x2097 <printf+0x79>
    1698: 8a           	txa
    1699: 69 00        	adc	#$0
    169b: 85 15        	sta	$15                     ; 0x2015 <_ZN12_GLOBAL__N_112print_stringEPKcP6Status+0x104>
    169d: b2 12        	lda	($12)                   ; 0x2012 <_ZN12_GLOBAL__N_112print_stringEPKcP6Status+0x101>
    169f: 85 18        	sta	$18                     ; 0x2018 <_ZN12_GLOBAL__N_112print_stringEPKcP6Status+0x107>
    16a1: a6 19        	ldx	$19                     ; 0x2019 <_ZN12_GLOBAL__N_112print_stringEPKcP6Status+0x108>
    16a3: 86 14        	stx	$14                     ; 0x2014 <_ZN12_GLOBAL__N_112print_stringEPKcP6Status+0x103>
    16a5: b1 12        	lda	($12),y                 ; 0x2012 <_ZN12_GLOBAL__N_112print_stringEPKcP6Status+0x101>
    16a7: 85 19        	sta	$19                     ; 0x2019 <_ZN12_GLOBAL__N_112print_stringEPKcP6Status+0x108>
    16a9: c8           	iny
    16aa: b1 12        	lda	($12),y                 ; 0x2012 <_ZN12_GLOBAL__N_112print_stringEPKcP6Status+0x101>
    16ac: 85 13        	sta	$13                     ; 0x2013 <_ZN12_GLOBAL__N_112print_stringEPKcP6Status+0x102>
    16ae: 88           	dey
    16af: b1 14        	lda	($14),y                 ; 0x2014 <_ZN12_GLOBAL__N_112print_stringEPKcP6Status+0x103>
    16b1: 85 12        	sta	$12                     ; 0x2012 <_ZN12_GLOBAL__N_112print_stringEPKcP6Status+0x101>
    16b3: a5 18        	lda	$18                     ; 0x2018 <_ZN12_GLOBAL__N_112print_stringEPKcP6Status+0x107>
    16b5: c8           	iny
    16b6: 91 10        	sta	($10),y                 ; 0x2010 <_ZN12_GLOBAL__N_112print_stringEPKcP6Status+0xff>
    16b8: c8           	iny
    16b9: a5 19        	lda	$19                     ; 0x2019 <_ZN12_GLOBAL__N_112print_stringEPKcP6Status+0x108>
    16bb: 91 10        	sta	($10),y                 ; 0x2010 <_ZN12_GLOBAL__N_112print_stringEPKcP6Status+0xff>
    16bd: a5 92        	lda	$92                     ; 0x2092 <printf+0x74>
    16bf: 92 10        	sta	($10)                   ; 0x2010 <_ZN12_GLOBAL__N_112print_stringEPKcP6Status+0xff>
    16c1: a9 00        	lda	#$0
    16c3: a0 01        	ldy	#$1
    16c5: 91 10        	sta	($10),y                 ; 0x2010 <_ZN12_GLOBAL__N_112print_stringEPKcP6Status+0xff>
    16c7: a0 04        	ldy	#$4
    16c9: a5 13        	lda	$13                     ; 0x2013 <_ZN12_GLOBAL__N_112print_stringEPKcP6Status+0x102>
    16cb: 91 10        	sta	($10),y                 ; 0x2010 <_ZN12_GLOBAL__N_112print_stringEPKcP6Status+0xff>
    16cd: c8           	iny
    16ce: a5 12        	lda	$12                     ; 0x2012 <_ZN12_GLOBAL__N_112print_stringEPKcP6Status+0x101>
    16d0: 91 10        	sta	($10),y                 ; 0x2010 <_ZN12_GLOBAL__N_112print_stringEPKcP6Status+0xff>
    16d2: c8           	iny
    16d3: a5 17        	lda	$17                     ; 0x2017 <_ZN12_GLOBAL__N_112print_stringEPKcP6Status+0x106>
    16d5: 91 10        	sta	($10),y                 ; 0x2010 <_ZN12_GLOBAL__N_112print_stringEPKcP6Status+0xff>
    16d7: c8           	iny
    16d8: a9 00        	lda	#$0
    16da: 91 10        	sta	($10),y                 ; 0x2010 <_ZN12_GLOBAL__N_112print_stringEPKcP6Status+0xff>
    16dc: c8           	iny
    16dd: a5 16        	lda	$16                     ; 0x2016 <_ZN12_GLOBAL__N_112print_stringEPKcP6Status+0x105>
    16df: 91 10        	sta	($10),y                 ; 0x2010 <_ZN12_GLOBAL__N_112print_stringEPKcP6Status+0xff>
    16e1: c8           	iny
    16e2: a9 00        	lda	#$0
    16e4: 91 10        	sta	($10),y                 ; 0x2010 <_ZN12_GLOBAL__N_112print_stringEPKcP6Status+0xff>
    16e6: 20 1e 20     	jsr	$201e <printf>
    16e9: 18           	clc
    16ea: a5 10        	lda	$10                     ; 0x2010 <_ZN12_GLOBAL__N_112print_stringEPKcP6Status+0xff>
    16ec: 69 0a        	adc	#$a
    16ee: 85 10        	sta	$10                     ; 0x2010 <_ZN12_GLOBAL__N_112print_stringEPKcP6Status+0xff>
    16f0: a5 11        	lda	$11                     ; 0x2011 <_ZN12_GLOBAL__N_112print_stringEPKcP6Status+0x100>
    16f2: 69 00        	adc	#$0
    16f4: 85 11        	sta	$11                     ; 0x2011 <_ZN12_GLOBAL__N_112print_stringEPKcP6Status+0x100>
    16f6: 60           	rts

000016f7 <updateFrames>:
    16f7: a9 d9        	lda	#$d9
    16f9: a2 01        	ldx	#$1
    16fb: 64 14        	stz	$14                     ; 0x2014 <_ZN12_GLOBAL__N_112print_stringEPKcP6Status+0x103>
    16fd: 86 12        	stx	$12                     ; 0x2012 <_ZN12_GLOBAL__N_112print_stringEPKcP6Status+0x101>
    16ff: a6 12        	ldx	$12                     ; 0x2012 <_ZN12_GLOBAL__N_112print_stringEPKcP6Status+0x101>
    1701: 86 18        	stx	$18                     ; 0x2018 <_ZN12_GLOBAL__N_112print_stringEPKcP6Status+0x107>
    1703: 85 16        	sta	$16                     ; 0x2016 <_ZN12_GLOBAL__N_112print_stringEPKcP6Status+0x105>
    1705: 85 13        	sta	$13                     ; 0x2013 <_ZN12_GLOBAL__N_112print_stringEPKcP6Status+0x102>
    1707: a6 14        	ldx	$14                     ; 0x2014 <_ZN12_GLOBAL__N_112print_stringEPKcP6Status+0x103>
    1709: 86 17        	stx	$17                     ; 0x2017 <_ZN12_GLOBAL__N_112print_stringEPKcP6Status+0x106>
    170b: a6 14        	ldx	$14                     ; 0x2014 <_ZN12_GLOBAL__N_112print_stringEPKcP6Status+0x103>
    170d: bd 26 54     	lda	$5426,x                 ; 0x5426 <spriteStatuses+0x6>
    1710: bc 27 54     	ldy	$5427,x                 ; 0x5427 <spriteStatuses+0x7>
    1713: 85 14        	sta	$14                     ; 0x2014 <_ZN12_GLOBAL__N_112print_stringEPKcP6Status+0x103>
    1715: 85 1a        	sta	$1a                     ; 0x201a <_ZN12_GLOBAL__N_112print_stringEPKcP6Status+0x109>
    1717: a9 00        	lda	#$0
    1719: 18           	clc
    171a: 65 14        	adc	$14                     ; 0x2014 <_ZN12_GLOBAL__N_112print_stringEPKcP6Status+0x103>
    171c: 98           	tya
    171d: 7d 2a 54     	adc	$542a,x                 ; 0x542a <spriteStatuses+0xa>
    1720: 85 19        	sta	$19                     ; 0x2019 <_ZN12_GLOBAL__N_112print_stringEPKcP6Status+0x108>
    1722: a9 00        	lda	#$0
    1724: 7d 28 54     	adc	$5428,x                 ; 0x5428 <spriteStatuses+0x8>
    1727: a8           	tay
    1728: a5 1a        	lda	$1a                     ; 0x201a <_ZN12_GLOBAL__N_112print_stringEPKcP6Status+0x109>
    172a: 92 12        	sta	($12)                   ; 0x2012 <_ZN12_GLOBAL__N_112print_stringEPKcP6Status+0x101>
    172c: a5 12        	lda	$12                     ; 0x2012 <_ZN12_GLOBAL__N_112print_stringEPKcP6Status+0x101>
    172e: 5a           	phy
    172f: a4 16        	ldy	$16                     ; 0x2016 <_ZN12_GLOBAL__N_112print_stringEPKcP6Status+0x105>
    1731: 84 12        	sty	$12                     ; 0x2012 <_ZN12_GLOBAL__N_112print_stringEPKcP6Status+0x101>
    1733: 7a           	ply
    1734: 1a           	inc
    1735: d0 02        	bne	$1739 <updateFrames+0x42>
    1737: e6 12        	inc	$12                     ; 0x2012 <_ZN12_GLOBAL__N_112print_stringEPKcP6Status+0x101>
    1739: 85 14        	sta	$14                     ; 0x2014 <_ZN12_GLOBAL__N_112print_stringEPKcP6Status+0x103>
    173b: a5 12        	lda	$12                     ; 0x2012 <_ZN12_GLOBAL__N_112print_stringEPKcP6Status+0x101>
    173d: 85 15        	sta	$15                     ; 0x2015 <_ZN12_GLOBAL__N_112print_stringEPKcP6Status+0x104>
    173f: a5 19        	lda	$19                     ; 0x2019 <_ZN12_GLOBAL__N_112print_stringEPKcP6Status+0x108>
    1741: 92 14        	sta	($14)                   ; 0x2014 <_ZN12_GLOBAL__N_112print_stringEPKcP6Status+0x103>
    1743: 18           	clc
    1744: a5 18        	lda	$18                     ; 0x2018 <_ZN12_GLOBAL__N_112print_stringEPKcP6Status+0x107>
    1746: 69 02        	adc	#$2
    1748: 85 12        	sta	$12                     ; 0x2012 <_ZN12_GLOBAL__N_112print_stringEPKcP6Status+0x101>
    174a: a5 16        	lda	$16                     ; 0x2016 <_ZN12_GLOBAL__N_112print_stringEPKcP6Status+0x105>
    174c: 69 00        	adc	#$0
    174e: 85 13        	sta	$13                     ; 0x2013 <_ZN12_GLOBAL__N_112print_stringEPKcP6Status+0x102>
    1750: 98           	tya
    1751: 92 12        	sta	($12)                   ; 0x2012 <_ZN12_GLOBAL__N_112print_stringEPKcP6Status+0x101>
    1753: bc 2b 54     	ldy	$542b,x                 ; 0x542b <spriteStatuses+0xb>
    1756: bd 2c 54     	lda	$542c,x                 ; 0x542c <spriteStatuses+0xc>
    1759: 85 12        	sta	$12                     ; 0x2012 <_ZN12_GLOBAL__N_112print_stringEPKcP6Status+0x101>
    175b: 18           	clc
    175c: 98           	tya
    175d: 7d 20 54     	adc	$5420,x                 ; 0x5420 <spriteStatuses>
    1760: a8           	tay
    1761: a5 12        	lda	$12                     ; 0x2012 <_ZN12_GLOBAL__N_112print_stringEPKcP6Status+0x101>
    1763: 7d 21 54     	adc	$5421,x                 ; 0x5421 <spriteStatuses+0x1>
    1766: 85 15        	sta	$15                     ; 0x2015 <_ZN12_GLOBAL__N_112print_stringEPKcP6Status+0x104>
    1768: 98           	tya
    1769: 9d 20 54     	sta	$5420,x                 ; 0x5420 <spriteStatuses>
    176c: 84 1a        	sty	$1a                     ; 0x201a <_ZN12_GLOBAL__N_112print_stringEPKcP6Status+0x109>
    176e: a5 15        	lda	$15                     ; 0x2015 <_ZN12_GLOBAL__N_112print_stringEPKcP6Status+0x104>
    1770: 9d 21 54     	sta	$5421,x                 ; 0x5421 <spriteStatuses+0x1>
    1773: bc 2d 54     	ldy	$542d,x                 ; 0x542d <spriteStatuses+0xd>
    1776: bd 2e 54     	lda	$542e,x                 ; 0x542e <spriteStatuses+0xe>
    1779: 85 12        	sta	$12                     ; 0x2012 <_ZN12_GLOBAL__N_112print_stringEPKcP6Status+0x101>
    177b: 18           	clc
    177c: 98           	tya
    177d: 7d 22 54     	adc	$5422,x                 ; 0x5422 <spriteStatuses+0x2>
    1780: a8           	tay
    1781: a5 12        	lda	$12                     ; 0x2012 <_ZN12_GLOBAL__N_112print_stringEPKcP6Status+0x101>
    1783: 7d 23 54     	adc	$5423,x                 ; 0x5423 <spriteStatuses+0x3>
    1786: 85 14        	sta	$14                     ; 0x2014 <_ZN12_GLOBAL__N_112print_stringEPKcP6Status+0x103>
    1788: 98           	tya
    1789: 9d 22 54     	sta	$5422,x                 ; 0x5422 <spriteStatuses+0x2>
    178c: 84 19        	sty	$19                     ; 0x2019 <_ZN12_GLOBAL__N_112print_stringEPKcP6Status+0x108>
    178e: a5 14        	lda	$14                     ; 0x2014 <_ZN12_GLOBAL__N_112print_stringEPKcP6Status+0x103>
    1790: 9d 23 54     	sta	$5423,x                 ; 0x5423 <spriteStatuses+0x3>
    1793: 18           	clc
    1794: a5 18        	lda	$18                     ; 0x2018 <_ZN12_GLOBAL__N_112print_stringEPKcP6Status+0x107>
    1796: 69 03        	adc	#$3
    1798: 85 12        	sta	$12                     ; 0x2012 <_ZN12_GLOBAL__N_112print_stringEPKcP6Status+0x101>
    179a: a5 16        	lda	$16                     ; 0x2016 <_ZN12_GLOBAL__N_112print_stringEPKcP6Status+0x105>
    179c: 69 00        	adc	#$0
    179e: 85 13        	sta	$13                     ; 0x2013 <_ZN12_GLOBAL__N_112print_stringEPKcP6Status+0x102>
    17a0: a5 1a        	lda	$1a                     ; 0x201a <_ZN12_GLOBAL__N_112print_stringEPKcP6Status+0x109>
    17a2: 92 12        	sta	($12)                   ; 0x2012 <_ZN12_GLOBAL__N_112print_stringEPKcP6Status+0x101>
    17a4: a5 15        	lda	$15                     ; 0x2015 <_ZN12_GLOBAL__N_112print_stringEPKcP6Status+0x104>
    17a6: a0 01        	ldy	#$1
    17a8: 91 12        	sta	($12),y                 ; 0x2012 <_ZN12_GLOBAL__N_112print_stringEPKcP6Status+0x101>
    17aa: 18           	clc
    17ab: a5 18        	lda	$18                     ; 0x2018 <_ZN12_GLOBAL__N_112print_stringEPKcP6Status+0x107>
    17ad: 69 05        	adc	#$5
    17af: 85 12        	sta	$12                     ; 0x2012 <_ZN12_GLOBAL__N_112print_stringEPKcP6Status+0x101>
    17b1: a5 16        	lda	$16                     ; 0x2016 <_ZN12_GLOBAL__N_112print_stringEPKcP6Status+0x105>
    17b3: 69 00        	adc	#$0
    17b5: 85 13        	sta	$13                     ; 0x2013 <_ZN12_GLOBAL__N_112print_stringEPKcP6Status+0x102>
    17b7: a5 19        	lda	$19                     ; 0x2019 <_ZN12_GLOBAL__N_112print_stringEPKcP6Status+0x108>
    17b9: 92 12        	sta	($12)                   ; 0x2012 <_ZN12_GLOBAL__N_112print_stringEPKcP6Status+0x101>
    17bb: a5 14        	lda	$14                     ; 0x2014 <_ZN12_GLOBAL__N_112print_stringEPKcP6Status+0x103>
    17bd: 91 12        	sta	($12),y                 ; 0x2012 <_ZN12_GLOBAL__N_112print_stringEPKcP6Status+0x101>
    17bf: 18           	clc
    17c0: a5 17        	lda	$17                     ; 0x2017 <_ZN12_GLOBAL__N_112print_stringEPKcP6Status+0x106>
    17c2: 69 18        	adc	#$18
    17c4: aa           	tax
    17c5: 18           	clc
    17c6: a5 18        	lda	$18                     ; 0x2018 <_ZN12_GLOBAL__N_112print_stringEPKcP6Status+0x107>
    17c8: 69 08        	adc	#$8
    17ca: 85 12        	sta	$12                     ; 0x2012 <_ZN12_GLOBAL__N_112print_stringEPKcP6Status+0x101>
    17cc: a5 16        	lda	$16                     ; 0x2016 <_ZN12_GLOBAL__N_112print_stringEPKcP6Status+0x105>
    17ce: 69 00        	adc	#$0
    17d0: 86 14        	stx	$14                     ; 0x2014 <_ZN12_GLOBAL__N_112print_stringEPKcP6Status+0x103>
    17d2: e0 78        	cpx	#$78
    17d4: f0 03        	beq	$17d9 <updateFrames+0xe2>
    17d6: 4c ff 16     	jmp	$16ff <updateFrames+0x8>
    17d9: a0 51        	ldy	#$51
    17db: a2 10        	ldx	#$10
    17dd: 86 12        	stx	$12                     ; 0x2012 <_ZN12_GLOBAL__N_112print_stringEPKcP6Status+0x101>
    17df: a2 55        	ldx	#$55
    17e1: 86 13        	stx	$13                     ; 0x2013 <_ZN12_GLOBAL__N_112print_stringEPKcP6Status+0x102>
    17e3: a2 d9        	ldx	#$d9
    17e5: 84 14        	sty	$14                     ; 0x2014 <_ZN12_GLOBAL__N_112print_stringEPKcP6Status+0x103>
    17e7: 86 1c        	stx	$1c                     ; 0x201c <_ZN12_GLOBAL__N_112print_stringEPKcP6Status+0x10b>
    17e9: 86 15        	stx	$15                     ; 0x2015 <_ZN12_GLOBAL__N_112print_stringEPKcP6Status+0x104>
    17eb: a6 12        	ldx	$12                     ; 0x2012 <_ZN12_GLOBAL__N_112print_stringEPKcP6Status+0x101>
    17ed: 86 1a        	stx	$1a                     ; 0x201a <_ZN12_GLOBAL__N_112print_stringEPKcP6Status+0x109>
    17ef: a6 13        	ldx	$13                     ; 0x2013 <_ZN12_GLOBAL__N_112print_stringEPKcP6Status+0x102>
    17f1: 86 1b        	stx	$1b                     ; 0x201b <_ZN12_GLOBAL__N_112print_stringEPKcP6Status+0x10a>
    17f3: 18           	clc
    17f4: a5 12        	lda	$12                     ; 0x2012 <_ZN12_GLOBAL__N_112print_stringEPKcP6Status+0x101>
    17f6: 69 06        	adc	#$6
    17f8: 85 16        	sta	$16                     ; 0x2016 <_ZN12_GLOBAL__N_112print_stringEPKcP6Status+0x105>
    17fa: 84 19        	sty	$19                     ; 0x2019 <_ZN12_GLOBAL__N_112print_stringEPKcP6Status+0x108>
    17fc: a5 13        	lda	$13                     ; 0x2013 <_ZN12_GLOBAL__N_112print_stringEPKcP6Status+0x102>
    17fe: 69 00        	adc	#$0
    1800: 85 17        	sta	$17                     ; 0x2017 <_ZN12_GLOBAL__N_112print_stringEPKcP6Status+0x106>
    1802: a0 06        	ldy	#$6
    1804: b1 12        	lda	($12),y                 ; 0x2012 <_ZN12_GLOBAL__N_112print_stringEPKcP6Status+0x101>
    1806: aa           	tax
    1807: a0 01        	ldy	#$1
    1809: b1 16        	lda	($16),y                 ; 0x2016 <_ZN12_GLOBAL__N_112print_stringEPKcP6Status+0x105>
    180b: 85 1d        	sta	$1d                     ; 0x201d <_ZN12_GLOBAL__N_112print_stringEPKcP6Status+0x10c>
    180d: 86 18        	stx	$18                     ; 0x2018 <_ZN12_GLOBAL__N_112print_stringEPKcP6Status+0x107>
    180f: a9 00        	lda	#$0
    1811: 18           	clc
    1812: 65 18        	adc	$18                     ; 0x2018 <_ZN12_GLOBAL__N_112print_stringEPKcP6Status+0x107>
    1814: a0 0a        	ldy	#$a
    1816: a5 1d        	lda	$1d                     ; 0x201d <_ZN12_GLOBAL__N_112print_stringEPKcP6Status+0x10c>
    1818: 71 12        	adc	($12),y                 ; 0x2012 <_ZN12_GLOBAL__N_112print_stringEPKcP6Status+0x101>
    181a: 85 18        	sta	$18                     ; 0x2018 <_ZN12_GLOBAL__N_112print_stringEPKcP6Status+0x107>
    181c: a9 00        	lda	#$0
    181e: a0 02        	ldy	#$2
    1820: 71 16        	adc	($16),y                 ; 0x2016 <_ZN12_GLOBAL__N_112print_stringEPKcP6Status+0x105>
    1822: a8           	tay
    1823: 8a           	txa
    1824: 92 14        	sta	($14)                   ; 0x2014 <_ZN12_GLOBAL__N_112print_stringEPKcP6Status+0x103>
    1826: a6 19        	ldx	$19                     ; 0x2019 <_ZN12_GLOBAL__N_112print_stringEPKcP6Status+0x108>
    1828: a5 1c        	lda	$1c                     ; 0x201c <_ZN12_GLOBAL__N_112print_stringEPKcP6Status+0x10b>
    182a: e8           	inx
    182b: d0 01        	bne	$182e <updateFrames+0x137>
    182d: 1a           	inc
    182e: 86 14        	stx	$14                     ; 0x2014 <_ZN12_GLOBAL__N_112print_stringEPKcP6Status+0x103>
    1830: 85 15        	sta	$15                     ; 0x2015 <_ZN12_GLOBAL__N_112print_stringEPKcP6Status+0x104>
    1832: a5 18        	lda	$18                     ; 0x2018 <_ZN12_GLOBAL__N_112print_stringEPKcP6Status+0x107>
    1834: 92 14        	sta	($14)                   ; 0x2014 <_ZN12_GLOBAL__N_112print_stringEPKcP6Status+0x103>
    1836: 18           	clc
    1837: a5 19        	lda	$19                     ; 0x2019 <_ZN12_GLOBAL__N_112print_stringEPKcP6Status+0x108>
    1839: 69 02        	adc	#$2
    183b: 85 14        	sta	$14                     ; 0x2014 <_ZN12_GLOBAL__N_112print_stringEPKcP6Status+0x103>
    183d: a5 1c        	lda	$1c                     ; 0x201c <_ZN12_GLOBAL__N_112print_stringEPKcP6Status+0x10b>
    183f: 69 00        	adc	#$0
    1841: 85 15        	sta	$15                     ; 0x2015 <_ZN12_GLOBAL__N_112print_stringEPKcP6Status+0x104>
    1843: 98           	tya
    1844: 92 14        	sta	($14)                   ; 0x2014 <_ZN12_GLOBAL__N_112print_stringEPKcP6Status+0x103>
    1846: b2 12        	lda	($12)                   ; 0x2012 <_ZN12_GLOBAL__N_112print_stringEPKcP6Status+0x101>
    1848: 85 18        	sta	$18                     ; 0x2018 <_ZN12_GLOBAL__N_112print_stringEPKcP6Status+0x107>
    184a: 18           	clc
    184b: a5 12        	lda	$12                     ; 0x2012 <_ZN12_GLOBAL__N_112print_stringEPKcP6Status+0x101>
    184d: 69 02        	adc	#$2
    184f: 85 14        	sta	$14                     ; 0x2014 <_ZN12_GLOBAL__N_112print_stringEPKcP6Status+0x103>
    1851: a5 13        	lda	$13                     ; 0x2013 <_ZN12_GLOBAL__N_112print_stringEPKcP6Status+0x102>
    1853: 69 00        	adc	#$0
    1855: 85 15        	sta	$15                     ; 0x2015 <_ZN12_GLOBAL__N_112print_stringEPKcP6Status+0x104>
    1857: 18           	clc
    1858: a5 19        	lda	$19                     ; 0x2019 <_ZN12_GLOBAL__N_112print_stringEPKcP6Status+0x108>
    185a: 69 03        	adc	#$3
    185c: 85 16        	sta	$16                     ; 0x2016 <_ZN12_GLOBAL__N_112print_stringEPKcP6Status+0x105>
    185e: a5 1c        	lda	$1c                     ; 0x201c <_ZN12_GLOBAL__N_112print_stringEPKcP6Status+0x10b>
    1860: 69 00        	adc	#$0
    1862: 85 17        	sta	$17                     ; 0x2017 <_ZN12_GLOBAL__N_112print_stringEPKcP6Status+0x106>
    1864: a0 01        	ldy	#$1
    1866: b1 12        	lda	($12),y                 ; 0x2012 <_ZN12_GLOBAL__N_112print_stringEPKcP6Status+0x101>
    1868: 85 1e        	sta	$1e                     ; 0x201e <printf>
    186a: c8           	iny
    186b: b1 12        	lda	($12),y                 ; 0x2012 <_ZN12_GLOBAL__N_112print_stringEPKcP6Status+0x101>
    186d: 85 1d        	sta	$1d                     ; 0x201d <_ZN12_GLOBAL__N_112print_stringEPKcP6Status+0x10c>
    186f: 88           	dey
    1870: b1 14        	lda	($14),y                 ; 0x2014 <_ZN12_GLOBAL__N_112print_stringEPKcP6Status+0x103>
    1872: 85 14        	sta	$14                     ; 0x2014 <_ZN12_GLOBAL__N_112print_stringEPKcP6Status+0x103>
    1874: a5 18        	lda	$18                     ; 0x2018 <_ZN12_GLOBAL__N_112print_stringEPKcP6Status+0x107>
    1876: 92 16        	sta	($16)                   ; 0x2016 <_ZN12_GLOBAL__N_112print_stringEPKcP6Status+0x105>
    1878: a5 1e        	lda	$1e                     ; 0x201e <printf>
    187a: 91 16        	sta	($16),y                 ; 0x2016 <_ZN12_GLOBAL__N_112print_stringEPKcP6Status+0x105>
    187c: 18           	clc
    187d: a5 19        	lda	$19                     ; 0x2019 <_ZN12_GLOBAL__N_112print_stringEPKcP6Status+0x108>
    187f: 69 05        	adc	#$5
    1881: 85 12        	sta	$12                     ; 0x2012 <_ZN12_GLOBAL__N_112print_stringEPKcP6Status+0x101>
    1883: a5 1c        	lda	$1c                     ; 0x201c <_ZN12_GLOBAL__N_112print_stringEPKcP6Status+0x10b>
    1885: 69 00        	adc	#$0
    1887: 85 13        	sta	$13                     ; 0x2013 <_ZN12_GLOBAL__N_112print_stringEPKcP6Status+0x102>
    1889: a5 1d        	lda	$1d                     ; 0x201d <_ZN12_GLOBAL__N_112print_stringEPKcP6Status+0x10c>
    188b: 92 12        	sta	($12)                   ; 0x2012 <_ZN12_GLOBAL__N_112print_stringEPKcP6Status+0x101>
    188d: a5 14        	lda	$14                     ; 0x2014 <_ZN12_GLOBAL__N_112print_stringEPKcP6Status+0x103>
    188f: 91 12        	sta	($12),y                 ; 0x2012 <_ZN12_GLOBAL__N_112print_stringEPKcP6Status+0x101>
    1891: 18           	clc
    1892: a5 19        	lda	$19                     ; 0x2019 <_ZN12_GLOBAL__N_112print_stringEPKcP6Status+0x108>
    1894: 69 08        	adc	#$8
    1896: a8           	tay
    1897: a5 1c        	lda	$1c                     ; 0x201c <_ZN12_GLOBAL__N_112print_stringEPKcP6Status+0x10b>
    1899: 69 00        	adc	#$0
    189b: aa           	tax
    189c: 18           	clc
    189d: a5 1a        	lda	$1a                     ; 0x201a <_ZN12_GLOBAL__N_112print_stringEPKcP6Status+0x109>
    189f: 69 18        	adc	#$18
    18a1: 85 12        	sta	$12                     ; 0x2012 <_ZN12_GLOBAL__N_112print_stringEPKcP6Status+0x101>
    18a3: a5 1b        	lda	$1b                     ; 0x201b <_ZN12_GLOBAL__N_112print_stringEPKcP6Status+0x10a>
    18a5: 69 00        	adc	#$0
    18a7: 85 13        	sta	$13                     ; 0x2013 <_ZN12_GLOBAL__N_112print_stringEPKcP6Status+0x102>
    18a9: c0 79        	cpy	#$79
    18ab: f0 03        	beq	$18b0 <updateFrames+0x1b9>
    18ad: 4c e5 17     	jmp	$17e5 <updateFrames+0xee>
    18b0: 60           	rts

000018b1 <mySpriteDefine>:
    18b1: 85 1d        	sta	$1d                     ; 0x201d <_ZN12_GLOBAL__N_112print_stringEPKcP6Status+0x10c>
    18b3: 85 8c        	sta	$8c                     ; 0x208c <printf+0x6e>
    18b5: 86 87        	stx	$87                     ; 0x2087 <printf+0x69>
    18b7: a4 12        	ldy	$12                     ; 0x2012 <_ZN12_GLOBAL__N_112print_stringEPKcP6Status+0x101>
    18b9: 84 8e        	sty	$8e                     ; 0x208e <printf+0x70>
    18bb: a4 15        	ldy	$15                     ; 0x2015 <_ZN12_GLOBAL__N_112print_stringEPKcP6Status+0x104>
    18bd: 84 8f        	sty	$8f                     ; 0x208f <printf+0x71>
    18bf: a4 18        	ldy	$18                     ; 0x2018 <_ZN12_GLOBAL__N_112print_stringEPKcP6Status+0x107>
    18c1: 84 8d        	sty	$8d                     ; 0x208d <printf+0x6f>
    18c3: 18           	clc
    18c4: 8a           	txa
    18c5: 65 15        	adc	$15                     ; 0x2015 <_ZN12_GLOBAL__N_112print_stringEPKcP6Status+0x104>
    18c7: a8           	tay
    18c8: a5 12        	lda	$12                     ; 0x2012 <_ZN12_GLOBAL__N_112print_stringEPKcP6Status+0x101>
    18ca: 69 00        	adc	#$0
    18cc: aa           	tax
    18cd: 18           	clc
    18ce: 98           	tya
    18cf: 69 00        	adc	#$0
    18d1: 85 15        	sta	$15                     ; 0x2015 <_ZN12_GLOBAL__N_112print_stringEPKcP6Status+0x104>
    18d3: 8a           	txa
    18d4: 69 01        	adc	#$1
    18d6: a8           	tay
    18d7: a6 1d        	ldx	$1d                     ; 0x201d <_ZN12_GLOBAL__N_112print_stringEPKcP6Status+0x10c>
    18d9: 86 12        	stx	$12                     ; 0x2012 <_ZN12_GLOBAL__N_112print_stringEPKcP6Status+0x101>
    18db: 06 12        	asl	$12                     ; 0x2012 <_ZN12_GLOBAL__N_112print_stringEPKcP6Status+0x101>
    18dd: 64 86        	stz	$86                     ; 0x2086 <printf+0x68>
    18df: 26 86        	rol	$86                     ; 0x2086 <printf+0x68>
    18e1: 06 12        	asl	$12                     ; 0x2012 <_ZN12_GLOBAL__N_112print_stringEPKcP6Status+0x101>
    18e3: 26 86        	rol	$86                     ; 0x2086 <printf+0x68>
    18e5: 06 12        	asl	$12                     ; 0x2012 <_ZN12_GLOBAL__N_112print_stringEPKcP6Status+0x101>
    18e7: 26 86        	rol	$86                     ; 0x2086 <printf+0x68>
    18e9: 18           	clc
    18ea: a5 12        	lda	$12                     ; 0x2012 <_ZN12_GLOBAL__N_112print_stringEPKcP6Status+0x101>
    18ec: 69 00        	adc	#$0
    18ee: 85 88        	sta	$88                     ; 0x2088 <printf+0x6a>
    18f0: a5 86        	lda	$86                     ; 0x2086 <printf+0x68>
    18f2: 69 d9        	adc	#$d9
    18f4: 85 89        	sta	$89                     ; 0x2089 <printf+0x6b>
    18f6: 18           	clc
    18f7: a5 12        	lda	$12                     ; 0x2012 <_ZN12_GLOBAL__N_112print_stringEPKcP6Status+0x101>
    18f9: 69 01        	adc	#$1
    18fb: 85 1c        	sta	$1c                     ; 0x201c <_ZN12_GLOBAL__N_112print_stringEPKcP6Status+0x10b>
    18fd: a5 86        	lda	$86                     ; 0x2086 <printf+0x68>
    18ff: 69 d9        	adc	#$d9
    1901: 85 1d        	sta	$1d                     ; 0x201d <_ZN12_GLOBAL__N_112print_stringEPKcP6Status+0x10c>
    1903: a9 40        	lda	#$40
    1905: a6 8c        	ldx	$8c                     ; 0x208c <printf+0x6e>
    1907: 86 90        	stx	$90                     ; 0x2090 <printf+0x72>
    1909: 9d 39 00     	sta	$39,x                   ; 0x39 <_spriteCtl>
    190c: 92 88        	sta	($88)                   ; 0x2088 <printf+0x6a>
    190e: a5 15        	lda	$15                     ; 0x2015 <_ZN12_GLOBAL__N_112print_stringEPKcP6Status+0x104>
    1910: 92 1c        	sta	($1c)                   ; 0x201c <_ZN12_GLOBAL__N_112print_stringEPKcP6Status+0x10b>
    1912: 18           	clc
    1913: a5 12        	lda	$12                     ; 0x2012 <_ZN12_GLOBAL__N_112print_stringEPKcP6Status+0x101>
    1915: 69 02        	adc	#$2
    1917: 85 1c        	sta	$1c                     ; 0x201c <_ZN12_GLOBAL__N_112print_stringEPKcP6Status+0x10b>
    1919: a5 86        	lda	$86                     ; 0x2086 <printf+0x68>
    191b: 69 d9        	adc	#$d9
    191d: 85 1d        	sta	$1d                     ; 0x201d <_ZN12_GLOBAL__N_112print_stringEPKcP6Status+0x10c>
    191f: 98           	tya
    1920: 92 1c        	sta	($1c)                   ; 0x201c <_ZN12_GLOBAL__N_112print_stringEPKcP6Status+0x10b>
    1922: 18           	clc
    1923: a5 12        	lda	$12                     ; 0x2012 <_ZN12_GLOBAL__N_112print_stringEPKcP6Status+0x101>
    1925: 69 03        	adc	#$3
    1927: 85 1c        	sta	$1c                     ; 0x201c <_ZN12_GLOBAL__N_112print_stringEPKcP6Status+0x10b>
    1929: a5 86        	lda	$86                     ; 0x2086 <printf+0x68>
    192b: 69 d9        	adc	#$d9
    192d: 85 1d        	sta	$1d                     ; 0x201d <_ZN12_GLOBAL__N_112print_stringEPKcP6Status+0x10c>
    192f: 18           	clc
    1930: a6 8c        	ldx	$8c                     ; 0x208c <printf+0x6e>
    1932: 8a           	txa
    1933: 69 0a        	adc	#$a
    1935: a8           	tay
    1936: 18           	clc
    1937: a5 87        	lda	$87                     ; 0x2087 <printf+0x69>
    1939: 69 00        	adc	#$0
    193b: a6 8e        	ldx	$8e                     ; 0x208e <printf+0x70>
    193d: 8a           	txa
    193e: 69 0a        	adc	#$a
    1940: 85 18        	sta	$18                     ; 0x2018 <_ZN12_GLOBAL__N_112print_stringEPKcP6Status+0x107>
    1942: 98           	tya
    1943: aa           	tax
    1944: 0a           	asl
    1945: 64 15        	stz	$15                     ; 0x2015 <_ZN12_GLOBAL__N_112print_stringEPKcP6Status+0x104>
    1947: 26 15        	rol	$15                     ; 0x2015 <_ZN12_GLOBAL__N_112print_stringEPKcP6Status+0x104>
    1949: 0a           	asl
    194a: 26 15        	rol	$15                     ; 0x2015 <_ZN12_GLOBAL__N_112print_stringEPKcP6Status+0x104>
    194c: 0a           	asl
    194d: 26 15        	rol	$15                     ; 0x2015 <_ZN12_GLOBAL__N_112print_stringEPKcP6Status+0x104>
    194f: 85 1e        	sta	$1e                     ; 0x201e <printf>
    1951: 18           	clc
    1952: 69 00        	adc	#$0
    1954: 85 22        	sta	$22                     ; 0x2022 <printf+0x4>
    1956: a5 15        	lda	$15                     ; 0x2015 <_ZN12_GLOBAL__N_112print_stringEPKcP6Status+0x104>
    1958: 69 d9        	adc	#$d9
    195a: 85 23        	sta	$23                     ; 0x2023 <printf+0x5>
    195c: a9 01        	lda	#$1
    195e: 92 1c        	sta	($1c)                   ; 0x201c <_ZN12_GLOBAL__N_112print_stringEPKcP6Status+0x10b>
    1960: a8           	tay
    1961: a9 40        	lda	#$40
    1963: 9d 39 00     	sta	$39,x                   ; 0x39 <_spriteCtl>
    1966: 92 22        	sta	($22)                   ; 0x2022 <printf+0x4>
    1968: a5 1e        	lda	$1e                     ; 0x201e <printf>
    196a: 18           	clc
    196b: 69 01        	adc	#$1
    196d: 85 1f        	sta	$1f                     ; 0x201f <printf+0x1>
    196f: a5 15        	lda	$15                     ; 0x2015 <_ZN12_GLOBAL__N_112print_stringEPKcP6Status+0x104>
    1971: 69 d9        	adc	#$d9
    1973: 5a           	phy
    1974: a4 1f        	ldy	$1f                     ; 0x201f <printf+0x1>
    1976: 84 1c        	sty	$1c                     ; 0x201c <_ZN12_GLOBAL__N_112print_stringEPKcP6Status+0x10b>
    1978: 85 1d        	sta	$1d                     ; 0x201d <_ZN12_GLOBAL__N_112print_stringEPKcP6Status+0x10c>
    197a: a5 1e        	lda	$1e                     ; 0x201e <printf>
    197c: a4 1e        	ldy	$1e                     ; 0x201e <printf>
    197e: 84 84        	sty	$84                     ; 0x2084 <printf+0x66>
    1980: 18           	clc
    1981: 69 02        	adc	#$2
    1983: 85 85        	sta	$85                     ; 0x2085 <printf+0x67>
    1985: a5 15        	lda	$15                     ; 0x2015 <_ZN12_GLOBAL__N_112print_stringEPKcP6Status+0x104>
    1987: 69 d9        	adc	#$d9
    1989: a4 85        	ldy	$85                     ; 0x2085 <printf+0x67>
    198b: 84 1e        	sty	$1e                     ; 0x201e <printf>
    198d: 85 1f        	sta	$1f                     ; 0x201f <printf+0x1>
    198f: a5 87        	lda	$87                     ; 0x2087 <printf+0x69>
    1991: 92 1c        	sta	($1c)                   ; 0x201c <_ZN12_GLOBAL__N_112print_stringEPKcP6Status+0x10b>
    1993: a5 18        	lda	$18                     ; 0x2018 <_ZN12_GLOBAL__N_112print_stringEPKcP6Status+0x107>
    1995: 92 1e        	sta	($1e)                   ; 0x201e <printf>
    1997: 18           	clc
    1998: a5 84        	lda	$84                     ; 0x2084 <printf+0x66>
    199a: 69 03        	adc	#$3
    199c: 85 1c        	sta	$1c                     ; 0x201c <_ZN12_GLOBAL__N_112print_stringEPKcP6Status+0x10b>
    199e: a5 15        	lda	$15                     ; 0x2015 <_ZN12_GLOBAL__N_112print_stringEPKcP6Status+0x104>
    19a0: 69 d9        	adc	#$d9
    19a2: 85 1d        	sta	$1d                     ; 0x201d <_ZN12_GLOBAL__N_112print_stringEPKcP6Status+0x10c>
    19a4: a5 12        	lda	$12                     ; 0x2012 <_ZN12_GLOBAL__N_112print_stringEPKcP6Status+0x101>
    19a6: a4 86        	ldy	$86                     ; 0x2086 <printf+0x68>
    19a8: 84 18        	sty	$18                     ; 0x2018 <_ZN12_GLOBAL__N_112print_stringEPKcP6Status+0x107>
    19aa: 7a           	ply
    19ab: 0a           	asl
    19ac: 26 18        	rol	$18                     ; 0x2018 <_ZN12_GLOBAL__N_112print_stringEPKcP6Status+0x107>
    19ae: 85 1e        	sta	$1e                     ; 0x201e <printf>
    19b0: a5 12        	lda	$12                     ; 0x2012 <_ZN12_GLOBAL__N_112print_stringEPKcP6Status+0x101>
    19b2: 18           	clc
    19b3: 65 1e        	adc	$1e                     ; 0x201e <printf>
    19b5: 85 1e        	sta	$1e                     ; 0x201e <printf>
    19b7: a5 86        	lda	$86                     ; 0x2086 <printf+0x68>
    19b9: 65 18        	adc	$18                     ; 0x2018 <_ZN12_GLOBAL__N_112print_stringEPKcP6Status+0x107>
    19bb: 85 18        	sta	$18                     ; 0x2018 <_ZN12_GLOBAL__N_112print_stringEPKcP6Status+0x107>
    19bd: 18           	clc
    19be: a9 20        	lda	#$20
    19c0: 65 1e        	adc	$1e                     ; 0x201e <printf>
    19c2: 85 15        	sta	$15                     ; 0x2015 <_ZN12_GLOBAL__N_112print_stringEPKcP6Status+0x104>
    19c4: a9 54        	lda	#$54
    19c6: 65 18        	adc	$18                     ; 0x2018 <_ZN12_GLOBAL__N_112print_stringEPKcP6Status+0x107>
    19c8: 85 18        	sta	$18                     ; 0x2018 <_ZN12_GLOBAL__N_112print_stringEPKcP6Status+0x107>
    19ca: 84 1e        	sty	$1e                     ; 0x201e <printf>
    19cc: 98           	tya
    19cd: 92 1c        	sta	($1c)                   ; 0x201c <_ZN12_GLOBAL__N_112print_stringEPKcP6Status+0x10b>
    19cf: a4 15        	ldy	$15                     ; 0x2015 <_ZN12_GLOBAL__N_112print_stringEPKcP6Status+0x104>
    19d1: 84 84        	sty	$84                     ; 0x2084 <printf+0x66>
    19d3: a4 18        	ldy	$18                     ; 0x2018 <_ZN12_GLOBAL__N_112print_stringEPKcP6Status+0x107>
    19d5: 84 85        	sty	$85                     ; 0x2085 <printf+0x67>
    19d7: a0 04        	ldy	#$4
    19d9: a5 1e        	lda	$1e                     ; 0x201e <printf>
    19db: 91 84        	sta	($84),y                 ; 0x2084 <printf+0x66>
    19dd: 18           	clc
    19de: a5 12        	lda	$12                     ; 0x2012 <_ZN12_GLOBAL__N_112print_stringEPKcP6Status+0x101>
    19e0: 69 04        	adc	#$4
    19e2: 85 1c        	sta	$1c                     ; 0x201c <_ZN12_GLOBAL__N_112print_stringEPKcP6Status+0x10b>
    19e4: a5 86        	lda	$86                     ; 0x2086 <printf+0x68>
    19e6: 69 d9        	adc	#$d9
    19e8: 85 1d        	sta	$1d                     ; 0x201d <_ZN12_GLOBAL__N_112print_stringEPKcP6Status+0x10c>
    19ea: 18           	clc
    19eb: a5 12        	lda	$12                     ; 0x2012 <_ZN12_GLOBAL__N_112print_stringEPKcP6Status+0x101>
    19ed: 69 06        	adc	#$6
    19ef: 85 1e        	sta	$1e                     ; 0x201e <printf>
    19f1: a5 86        	lda	$86                     ; 0x2086 <printf+0x68>
    19f3: 69 d9        	adc	#$d9
    19f5: 85 1f        	sta	$1f                     ; 0x201f <printf+0x1>
    19f7: a5 16        	lda	$16                     ; 0x2016 <_ZN12_GLOBAL__N_112print_stringEPKcP6Status+0x105>
    19f9: 92 1c        	sta	($1c)                   ; 0x201c <_ZN12_GLOBAL__N_112print_stringEPKcP6Status+0x10b>
    19fb: a5 17        	lda	$17                     ; 0x2017 <_ZN12_GLOBAL__N_112print_stringEPKcP6Status+0x106>
    19fd: a0 01        	ldy	#$1
    19ff: 91 1c        	sta	($1c),y                 ; 0x201c <_ZN12_GLOBAL__N_112print_stringEPKcP6Status+0x10b>
    1a01: a5 8d        	lda	$8d                     ; 0x208d <printf+0x6f>
    1a03: 92 1e        	sta	($1e)                   ; 0x201e <printf>
    1a05: a5 19        	lda	$19                     ; 0x2019 <_ZN12_GLOBAL__N_112print_stringEPKcP6Status+0x108>
    1a07: 91 1e        	sta	($1e),y                 ; 0x201e <printf>
    1a09: a5 1a        	lda	$1a                     ; 0x201a <_ZN12_GLOBAL__N_112print_stringEPKcP6Status+0x109>
    1a0b: a4 90        	ldy	$90                     ; 0x2090 <printf+0x72>
    1a0d: 19 39 00     	ora	$39,y                   ; 0x39 <_spriteCtl>
    1a10: 92 88        	sta	($88)                   ; 0x2088 <printf+0x6a>
    1a12: a5 1a        	lda	$1a                     ; 0x201a <_ZN12_GLOBAL__N_112print_stringEPKcP6Status+0x109>
    1a14: 15 39        	ora	$39,x                   ; 0x2039 <printf+0x1b>
    1a16: 92 22        	sta	($22)                   ; 0x2022 <printf+0x4>
    1a18: 18           	clc
    1a19: a5 16        	lda	$16                     ; 0x2016 <_ZN12_GLOBAL__N_112print_stringEPKcP6Status+0x105>
    1a1b: 69 f0        	adc	#$f0
    1a1d: aa           	tax
    1a1e: a5 17        	lda	$17                     ; 0x2017 <_ZN12_GLOBAL__N_112print_stringEPKcP6Status+0x106>
    1a20: 69 ff        	adc	#$ff
    1a22: 85 12        	sta	$12                     ; 0x2012 <_ZN12_GLOBAL__N_112print_stringEPKcP6Status+0x101>
    1a24: 8a           	txa
    1a25: 92 1c        	sta	($1c)                   ; 0x201c <_ZN12_GLOBAL__N_112print_stringEPKcP6Status+0x10b>
    1a27: a0 01        	ldy	#$1
    1a29: a5 12        	lda	$12                     ; 0x2012 <_ZN12_GLOBAL__N_112print_stringEPKcP6Status+0x101>
    1a2b: 91 1c        	sta	($1c),y                 ; 0x201c <_ZN12_GLOBAL__N_112print_stringEPKcP6Status+0x10b>
    1a2d: a5 8d        	lda	$8d                     ; 0x208d <printf+0x6f>
    1a2f: 92 1e        	sta	($1e)                   ; 0x201e <printf>
    1a31: a5 19        	lda	$19                     ; 0x2019 <_ZN12_GLOBAL__N_112print_stringEPKcP6Status+0x108>
    1a33: 91 1e        	sta	($1e),y                 ; 0x201e <printf>
    1a35: a0 06        	ldy	#$6
    1a37: a5 87        	lda	$87                     ; 0x2087 <printf+0x69>
    1a39: 91 84        	sta	($84),y                 ; 0x2084 <printf+0x66>
    1a3b: a0 0a        	ldy	#$a
    1a3d: a5 8f        	lda	$8f                     ; 0x208f <printf+0x71>
    1a3f: 91 84        	sta	($84),y                 ; 0x2084 <printf+0x66>
    1a41: 18           	clc
    1a42: a5 15        	lda	$15                     ; 0x2015 <_ZN12_GLOBAL__N_112print_stringEPKcP6Status+0x104>
    1a44: 69 06        	adc	#$6
    1a46: 85 1c        	sta	$1c                     ; 0x201c <_ZN12_GLOBAL__N_112print_stringEPKcP6Status+0x10b>
    1a48: a5 18        	lda	$18                     ; 0x2018 <_ZN12_GLOBAL__N_112print_stringEPKcP6Status+0x107>
    1a4a: 69 00        	adc	#$0
    1a4c: 85 1d        	sta	$1d                     ; 0x201d <_ZN12_GLOBAL__N_112print_stringEPKcP6Status+0x10c>
    1a4e: a0 02        	ldy	#$2
    1a50: a5 13        	lda	$13                     ; 0x2013 <_ZN12_GLOBAL__N_112print_stringEPKcP6Status+0x102>
    1a52: 91 1c        	sta	($1c),y                 ; 0x201c <_ZN12_GLOBAL__N_112print_stringEPKcP6Status+0x10b>
    1a54: a5 8d        	lda	$8d                     ; 0x208d <printf+0x6f>
    1a56: 91 84        	sta	($84),y                 ; 0x2084 <printf+0x66>
    1a58: a0 11        	ldy	#$11
    1a5a: a5 8c        	lda	$8c                     ; 0x208c <printf+0x6e>
    1a5c: 91 84        	sta	($84),y                 ; 0x2084 <printf+0x66>
    1a5e: a5 8e        	lda	$8e                     ; 0x208e <printf+0x70>
    1a60: a0 01        	ldy	#$1
    1a62: 91 1c        	sta	($1c),y                 ; 0x201c <_ZN12_GLOBAL__N_112print_stringEPKcP6Status+0x10b>
    1a64: a9 00        	lda	#$0
    1a66: a0 0b        	ldy	#$b
    1a68: 91 84        	sta	($84),y                 ; 0x2084 <printf+0x66>
    1a6a: a0 0d        	ldy	#$d
    1a6c: 91 84        	sta	($84),y                 ; 0x2084 <printf+0x66>
    1a6e: a0 0f        	ldy	#$f
    1a70: 91 84        	sta	($84),y                 ; 0x2084 <printf+0x66>
    1a72: a0 13        	ldy	#$13
    1a74: 91 84        	sta	($84),y                 ; 0x2084 <printf+0x66>
    1a76: a0 03        	ldy	#$3
    1a78: a5 14        	lda	$14                     ; 0x2014 <_ZN12_GLOBAL__N_112print_stringEPKcP6Status+0x103>
    1a7a: 91 1c        	sta	($1c),y                 ; 0x201c <_ZN12_GLOBAL__N_112print_stringEPKcP6Status+0x10b>
    1a7c: 18           	clc
    1a7d: a5 15        	lda	$15                     ; 0x2015 <_ZN12_GLOBAL__N_112print_stringEPKcP6Status+0x104>
    1a7f: 69 02        	adc	#$2
    1a81: 85 12        	sta	$12                     ; 0x2012 <_ZN12_GLOBAL__N_112print_stringEPKcP6Status+0x101>
    1a83: a5 18        	lda	$18                     ; 0x2018 <_ZN12_GLOBAL__N_112print_stringEPKcP6Status+0x107>
    1a85: 69 00        	adc	#$0
    1a87: 85 13        	sta	$13                     ; 0x2013 <_ZN12_GLOBAL__N_112print_stringEPKcP6Status+0x102>
    1a89: a5 19        	lda	$19                     ; 0x2019 <_ZN12_GLOBAL__N_112print_stringEPKcP6Status+0x108>
    1a8b: a0 01        	ldy	#$1
    1a8d: 91 12        	sta	($12),y                 ; 0x2012 <_ZN12_GLOBAL__N_112print_stringEPKcP6Status+0x101>
    1a8f: 18           	clc
    1a90: a5 15        	lda	$15                     ; 0x2015 <_ZN12_GLOBAL__N_112print_stringEPKcP6Status+0x104>
    1a92: 69 0b        	adc	#$b
    1a94: 85 12        	sta	$12                     ; 0x2012 <_ZN12_GLOBAL__N_112print_stringEPKcP6Status+0x101>
    1a96: a5 18        	lda	$18                     ; 0x2018 <_ZN12_GLOBAL__N_112print_stringEPKcP6Status+0x107>
    1a98: 69 00        	adc	#$0
    1a9a: 85 13        	sta	$13                     ; 0x2013 <_ZN12_GLOBAL__N_112print_stringEPKcP6Status+0x102>
    1a9c: 18           	clc
    1a9d: a6 15        	ldx	$15                     ; 0x2015 <_ZN12_GLOBAL__N_112print_stringEPKcP6Status+0x104>
    1a9f: 86 8b        	stx	$8b                     ; 0x208b <printf+0x6d>
    1aa1: a5 15        	lda	$15                     ; 0x2015 <_ZN12_GLOBAL__N_112print_stringEPKcP6Status+0x104>
    1aa3: 69 0d        	adc	#$d
    1aa5: 85 14        	sta	$14                     ; 0x2014 <_ZN12_GLOBAL__N_112print_stringEPKcP6Status+0x103>
    1aa7: a6 18        	ldx	$18                     ; 0x2018 <_ZN12_GLOBAL__N_112print_stringEPKcP6Status+0x107>
    1aa9: 86 8a        	stx	$8a                     ; 0x208a <printf+0x6c>
    1aab: a5 18        	lda	$18                     ; 0x2018 <_ZN12_GLOBAL__N_112print_stringEPKcP6Status+0x107>
    1aad: 69 00        	adc	#$0
    1aaf: 85 15        	sta	$15                     ; 0x2015 <_ZN12_GLOBAL__N_112print_stringEPKcP6Status+0x104>
    1ab1: a9 00        	lda	#$0
    1ab3: 91 12        	sta	($12),y                 ; 0x2012 <_ZN12_GLOBAL__N_112print_stringEPKcP6Status+0x101>
    1ab5: 91 14        	sta	($14),y                 ; 0x2014 <_ZN12_GLOBAL__N_112print_stringEPKcP6Status+0x103>
    1ab7: a0 05        	ldy	#$5
    1ab9: 91 84        	sta	($84),y                 ; 0x2084 <printf+0x66>
    1abb: a5 16        	lda	$16                     ; 0x2016 <_ZN12_GLOBAL__N_112print_stringEPKcP6Status+0x105>
    1abd: 92 84        	sta	($84)                   ; 0x2084 <printf+0x66>
    1abf: a5 17        	lda	$17                     ; 0x2017 <_ZN12_GLOBAL__N_112print_stringEPKcP6Status+0x106>
    1ac1: a0 01        	ldy	#$1
    1ac3: 91 84        	sta	($84),y                 ; 0x2084 <printf+0x66>
    1ac5: a5 1b        	lda	$1b                     ; 0x201b <_ZN12_GLOBAL__N_112print_stringEPKcP6Status+0x10a>
    1ac7: d0 03        	bne	$1acc <mySpriteDefine+0x21b>
    1ac9: 4c 3a 1b     	jmp	$1b3a <mySpriteDefine+0x289>
    1acc: a2 00        	ldx	#$0
    1ace: a9 02        	lda	#$2
    1ad0: 20 d1 2b     	jsr	$2bd1 <malloc>
    1ad3: 18           	clc
    1ad4: a5 8b        	lda	$8b                     ; 0x208b <printf+0x6d>
    1ad6: 69 14        	adc	#$14
    1ad8: 85 88        	sta	$88                     ; 0x2088 <printf+0x6a>
    1ada: a5 8a        	lda	$8a                     ; 0x208a <printf+0x6c>
    1adc: 69 00        	adc	#$0
    1ade: a0 14        	ldy	#$14
    1ae0: 85 89        	sta	$89                     ; 0x2089 <printf+0x6b>
    1ae2: a5 12        	lda	$12                     ; 0x2012 <_ZN12_GLOBAL__N_112print_stringEPKcP6Status+0x101>
    1ae4: 91 84        	sta	($84),y                 ; 0x2084 <printf+0x66>
    1ae6: a5 13        	lda	$13                     ; 0x2013 <_ZN12_GLOBAL__N_112print_stringEPKcP6Status+0x102>
    1ae8: a0 01        	ldy	#$1
    1aea: 91 88        	sta	($88),y                 ; 0x2088 <printf+0x6a>
    1aec: a2 00        	ldx	#$0
    1aee: a9 02        	lda	#$2
    1af0: 20 d1 2b     	jsr	$2bd1 <malloc>
    1af3: a5 8b        	lda	$8b                     ; 0x208b <printf+0x6d>
    1af5: 18           	clc
    1af6: 69 16        	adc	#$16
    1af8: 85 14        	sta	$14                     ; 0x2014 <_ZN12_GLOBAL__N_112print_stringEPKcP6Status+0x103>
    1afa: a5 8a        	lda	$8a                     ; 0x208a <printf+0x6c>
    1afc: 69 00        	adc	#$0
    1afe: 85 15        	sta	$15                     ; 0x2015 <_ZN12_GLOBAL__N_112print_stringEPKcP6Status+0x104>
    1b00: a0 14        	ldy	#$14
    1b02: b1 84        	lda	($84),y                 ; 0x2084 <printf+0x66>
    1b04: aa           	tax
    1b05: a0 16        	ldy	#$16
    1b07: a5 12        	lda	$12                     ; 0x2012 <_ZN12_GLOBAL__N_112print_stringEPKcP6Status+0x101>
    1b09: 91 84        	sta	($84),y                 ; 0x2084 <printf+0x66>
    1b0b: a5 13        	lda	$13                     ; 0x2013 <_ZN12_GLOBAL__N_112print_stringEPKcP6Status+0x102>
    1b0d: a0 01        	ldy	#$1
    1b0f: 91 14        	sta	($14),y                 ; 0x2014 <_ZN12_GLOBAL__N_112print_stringEPKcP6Status+0x103>
    1b11: 86 12        	stx	$12                     ; 0x2012 <_ZN12_GLOBAL__N_112print_stringEPKcP6Status+0x101>
    1b13: b1 88        	lda	($88),y                 ; 0x2088 <printf+0x6a>
    1b15: 85 13        	sta	$13                     ; 0x2013 <_ZN12_GLOBAL__N_112print_stringEPKcP6Status+0x102>
    1b17: a9 00        	lda	#$0
    1b19: 92 12        	sta	($12)                   ; 0x2012 <_ZN12_GLOBAL__N_112print_stringEPKcP6Status+0x101>
    1b1b: a0 16        	ldy	#$16
    1b1d: b1 84        	lda	($84),y                 ; 0x2084 <printf+0x66>
    1b1f: 85 12        	sta	$12                     ; 0x2012 <_ZN12_GLOBAL__N_112print_stringEPKcP6Status+0x101>
    1b21: a0 01        	ldy	#$1
    1b23: b1 14        	lda	($14),y                 ; 0x2014 <_ZN12_GLOBAL__N_112print_stringEPKcP6Status+0x103>
    1b25: 85 13        	sta	$13                     ; 0x2013 <_ZN12_GLOBAL__N_112print_stringEPKcP6Status+0x102>
    1b27: a9 03        	lda	#$3
    1b29: 92 12        	sta	($12)                   ; 0x2012 <_ZN12_GLOBAL__N_112print_stringEPKcP6Status+0x101>
    1b2b: a2 07        	ldx	#$7
    1b2d: 86 8d        	stx	$8d                     ; 0x208d <printf+0x6f>
    1b2f: a2 04        	ldx	#$4
    1b31: 86 8e        	stx	$8e                     ; 0x208e <printf+0x70>
    1b33: a2 01        	ldx	#$1
    1b35: 86 8c        	stx	$8c                     ; 0x208c <printf+0x6e>
    1b37: 4c 2a 1c     	jmp	$1c2a <mySpriteDefine+0x379>
    1b3a: a2 00        	ldx	#$0
    1b3c: a9 06        	lda	#$6
    1b3e: a0 05        	ldy	#$5
    1b40: 84 8c        	sty	$8c                     ; 0x208c <printf+0x6e>
    1b42: 20 d1 2b     	jsr	$2bd1 <malloc>
    1b45: 18           	clc
    1b46: a5 8b        	lda	$8b                     ; 0x208b <printf+0x6d>
    1b48: 69 14        	adc	#$14
    1b4a: 85 88        	sta	$88                     ; 0x2088 <printf+0x6a>
    1b4c: a5 8a        	lda	$8a                     ; 0x208a <printf+0x6c>
    1b4e: 69 00        	adc	#$0
    1b50: a0 14        	ldy	#$14
    1b52: 85 89        	sta	$89                     ; 0x2089 <printf+0x6b>
    1b54: a5 12        	lda	$12                     ; 0x2012 <_ZN12_GLOBAL__N_112print_stringEPKcP6Status+0x101>
    1b56: 91 84        	sta	($84),y                 ; 0x2084 <printf+0x66>
    1b58: a0 01        	ldy	#$1
    1b5a: a5 13        	lda	$13                     ; 0x2013 <_ZN12_GLOBAL__N_112print_stringEPKcP6Status+0x102>
    1b5c: 91 88        	sta	($88),y                 ; 0x2088 <printf+0x6a>
    1b5e: a2 00        	ldx	#$0
    1b60: a9 06        	lda	#$6
    1b62: 20 d1 2b     	jsr	$2bd1 <malloc>
    1b65: a5 8b        	lda	$8b                     ; 0x208b <printf+0x6d>
    1b67: 18           	clc
    1b68: 69 16        	adc	#$16
    1b6a: 85 14        	sta	$14                     ; 0x2014 <_ZN12_GLOBAL__N_112print_stringEPKcP6Status+0x103>
    1b6c: a5 8a        	lda	$8a                     ; 0x208a <printf+0x6c>
    1b6e: 69 00        	adc	#$0
    1b70: 85 15        	sta	$15                     ; 0x2015 <_ZN12_GLOBAL__N_112print_stringEPKcP6Status+0x104>
    1b72: a5 12        	lda	$12                     ; 0x2012 <_ZN12_GLOBAL__N_112print_stringEPKcP6Status+0x101>
    1b74: a0 16        	ldy	#$16
    1b76: 91 84        	sta	($84),y                 ; 0x2084 <printf+0x66>
    1b78: a5 13        	lda	$13                     ; 0x2013 <_ZN12_GLOBAL__N_112print_stringEPKcP6Status+0x102>
    1b7a: a0 01        	ldy	#$1
    1b7c: 91 14        	sta	($14),y                 ; 0x2014 <_ZN12_GLOBAL__N_112print_stringEPKcP6Status+0x103>
    1b7e: a0 14        	ldy	#$14
    1b80: b1 84        	lda	($84),y                 ; 0x2084 <printf+0x66>
    1b82: 85 12        	sta	$12                     ; 0x2012 <_ZN12_GLOBAL__N_112print_stringEPKcP6Status+0x101>
    1b84: a0 01        	ldy	#$1
    1b86: b1 88        	lda	($88),y                 ; 0x2088 <printf+0x6a>
    1b88: 85 13        	sta	$13                     ; 0x2013 <_ZN12_GLOBAL__N_112print_stringEPKcP6Status+0x102>
    1b8a: a9 00        	lda	#$0
    1b8c: 92 12        	sta	($12)                   ; 0x2012 <_ZN12_GLOBAL__N_112print_stringEPKcP6Status+0x101>
    1b8e: a0 16        	ldy	#$16
    1b90: b1 84        	lda	($84),y                 ; 0x2084 <printf+0x66>
    1b92: 85 12        	sta	$12                     ; 0x2012 <_ZN12_GLOBAL__N_112print_stringEPKcP6Status+0x101>
    1b94: a0 01        	ldy	#$1
    1b96: b1 14        	lda	($14),y                 ; 0x2014 <_ZN12_GLOBAL__N_112print_stringEPKcP6Status+0x103>
    1b98: 85 13        	sta	$13                     ; 0x2013 <_ZN12_GLOBAL__N_112print_stringEPKcP6Status+0x102>
    1b9a: a9 00        	lda	#$0
    1b9c: 92 12        	sta	($12)                   ; 0x2012 <_ZN12_GLOBAL__N_112print_stringEPKcP6Status+0x101>
    1b9e: a0 14        	ldy	#$14
    1ba0: b1 84        	lda	($84),y                 ; 0x2084 <printf+0x66>
    1ba2: 85 12        	sta	$12                     ; 0x2012 <_ZN12_GLOBAL__N_112print_stringEPKcP6Status+0x101>
    1ba4: a0 01        	ldy	#$1
    1ba6: b1 88        	lda	($88),y                 ; 0x2088 <printf+0x6a>
    1ba8: 85 13        	sta	$13                     ; 0x2013 <_ZN12_GLOBAL__N_112print_stringEPKcP6Status+0x102>
    1baa: a9 02        	lda	#$2
    1bac: 91 12        	sta	($12),y                 ; 0x2012 <_ZN12_GLOBAL__N_112print_stringEPKcP6Status+0x101>
    1bae: a0 16        	ldy	#$16
    1bb0: b1 84        	lda	($84),y                 ; 0x2084 <printf+0x66>
    1bb2: 85 12        	sta	$12                     ; 0x2012 <_ZN12_GLOBAL__N_112print_stringEPKcP6Status+0x101>
    1bb4: a0 01        	ldy	#$1
    1bb6: b1 14        	lda	($14),y                 ; 0x2014 <_ZN12_GLOBAL__N_112print_stringEPKcP6Status+0x103>
    1bb8: 85 13        	sta	$13                     ; 0x2013 <_ZN12_GLOBAL__N_112print_stringEPKcP6Status+0x102>
    1bba: a9 02        	lda	#$2
    1bbc: 91 12        	sta	($12),y                 ; 0x2012 <_ZN12_GLOBAL__N_112print_stringEPKcP6Status+0x101>
    1bbe: a0 14        	ldy	#$14
    1bc0: b1 84        	lda	($84),y                 ; 0x2084 <printf+0x66>
    1bc2: 85 12        	sta	$12                     ; 0x2012 <_ZN12_GLOBAL__N_112print_stringEPKcP6Status+0x101>
    1bc4: a0 01        	ldy	#$1
    1bc6: b1 88        	lda	($88),y                 ; 0x2088 <printf+0x6a>
    1bc8: 85 13        	sta	$13                     ; 0x2013 <_ZN12_GLOBAL__N_112print_stringEPKcP6Status+0x102>
    1bca: c8           	iny
    1bcb: a9 00        	lda	#$0
    1bcd: 91 12        	sta	($12),y                 ; 0x2012 <_ZN12_GLOBAL__N_112print_stringEPKcP6Status+0x101>
    1bcf: a0 16        	ldy	#$16
    1bd1: b1 84        	lda	($84),y                 ; 0x2084 <printf+0x66>
    1bd3: 85 12        	sta	$12                     ; 0x2012 <_ZN12_GLOBAL__N_112print_stringEPKcP6Status+0x101>
    1bd5: a0 01        	ldy	#$1
    1bd7: b1 14        	lda	($14),y                 ; 0x2014 <_ZN12_GLOBAL__N_112print_stringEPKcP6Status+0x103>
    1bd9: 85 13        	sta	$13                     ; 0x2013 <_ZN12_GLOBAL__N_112print_stringEPKcP6Status+0x102>
    1bdb: 98           	tya
    1bdc: c8           	iny
    1bdd: 91 12        	sta	($12),y                 ; 0x2012 <_ZN12_GLOBAL__N_112print_stringEPKcP6Status+0x101>
    1bdf: a0 14        	ldy	#$14
    1be1: b1 84        	lda	($84),y                 ; 0x2084 <printf+0x66>
    1be3: 85 12        	sta	$12                     ; 0x2012 <_ZN12_GLOBAL__N_112print_stringEPKcP6Status+0x101>
    1be5: a0 01        	ldy	#$1
    1be7: b1 88        	lda	($88),y                 ; 0x2088 <printf+0x6a>
    1be9: 85 13        	sta	$13                     ; 0x2013 <_ZN12_GLOBAL__N_112print_stringEPKcP6Status+0x102>
    1beb: a0 03        	ldy	#$3
    1bed: a9 02        	lda	#$2
    1bef: 91 12        	sta	($12),y                 ; 0x2012 <_ZN12_GLOBAL__N_112print_stringEPKcP6Status+0x101>
    1bf1: a0 16        	ldy	#$16
    1bf3: b1 84        	lda	($84),y                 ; 0x2084 <printf+0x66>
    1bf5: 85 12        	sta	$12                     ; 0x2012 <_ZN12_GLOBAL__N_112print_stringEPKcP6Status+0x101>
    1bf7: a0 01        	ldy	#$1
    1bf9: b1 14        	lda	($14),y                 ; 0x2014 <_ZN12_GLOBAL__N_112print_stringEPKcP6Status+0x103>
    1bfb: 85 13        	sta	$13                     ; 0x2013 <_ZN12_GLOBAL__N_112print_stringEPKcP6Status+0x102>
    1bfd: a9 03        	lda	#$3
    1bff: aa           	tax
    1c00: 86 8e        	stx	$8e                     ; 0x208e <printf+0x70>
    1c02: a8           	tay
    1c03: 91 12        	sta	($12),y                 ; 0x2012 <_ZN12_GLOBAL__N_112print_stringEPKcP6Status+0x101>
    1c05: a0 14        	ldy	#$14
    1c07: b1 84        	lda	($84),y                 ; 0x2084 <printf+0x66>
    1c09: 85 12        	sta	$12                     ; 0x2012 <_ZN12_GLOBAL__N_112print_stringEPKcP6Status+0x101>
    1c0b: a0 01        	ldy	#$1
    1c0d: b1 88        	lda	($88),y                 ; 0x2088 <printf+0x6a>
    1c0f: 85 13        	sta	$13                     ; 0x2013 <_ZN12_GLOBAL__N_112print_stringEPKcP6Status+0x102>
    1c11: a0 04        	ldy	#$4
    1c13: a9 01        	lda	#$1
    1c15: 91 12        	sta	($12),y                 ; 0x2012 <_ZN12_GLOBAL__N_112print_stringEPKcP6Status+0x101>
    1c17: a0 16        	ldy	#$16
    1c19: b1 84        	lda	($84),y                 ; 0x2084 <printf+0x66>
    1c1b: 85 12        	sta	$12                     ; 0x2012 <_ZN12_GLOBAL__N_112print_stringEPKcP6Status+0x101>
    1c1d: a0 01        	ldy	#$1
    1c1f: b1 14        	lda	($14),y                 ; 0x2014 <_ZN12_GLOBAL__N_112print_stringEPKcP6Status+0x103>
    1c21: 85 13        	sta	$13                     ; 0x2013 <_ZN12_GLOBAL__N_112print_stringEPKcP6Status+0x102>
    1c23: 98           	tya
    1c24: a0 04        	ldy	#$4
    1c26: 91 12        	sta	($12),y                 ; 0x2012 <_ZN12_GLOBAL__N_112print_stringEPKcP6Status+0x101>
    1c28: 86 8d        	stx	$8d                     ; 0x208d <printf+0x6f>
    1c2a: 18           	clc
    1c2b: a5 8b        	lda	$8b                     ; 0x208b <printf+0x6d>
    1c2d: 69 14        	adc	#$14
    1c2f: 85 12        	sta	$12                     ; 0x2012 <_ZN12_GLOBAL__N_112print_stringEPKcP6Status+0x101>
    1c31: a5 8a        	lda	$8a                     ; 0x208a <printf+0x6c>
    1c33: 69 00        	adc	#$0
    1c35: 85 13        	sta	$13                     ; 0x2013 <_ZN12_GLOBAL__N_112print_stringEPKcP6Status+0x102>
    1c37: a0 14        	ldy	#$14
    1c39: b1 84        	lda	($84),y                 ; 0x2084 <printf+0x66>
    1c3b: 85 14        	sta	$14                     ; 0x2014 <_ZN12_GLOBAL__N_112print_stringEPKcP6Status+0x103>
    1c3d: a0 01        	ldy	#$1
    1c3f: b1 12        	lda	($12),y                 ; 0x2012 <_ZN12_GLOBAL__N_112print_stringEPKcP6Status+0x101>
    1c41: 85 15        	sta	$15                     ; 0x2015 <_ZN12_GLOBAL__N_112print_stringEPKcP6Status+0x104>
    1c43: a4 8c        	ldy	$8c                     ; 0x208c <printf+0x6e>
    1c45: a5 8e        	lda	$8e                     ; 0x208e <printf+0x70>
    1c47: 91 14        	sta	($14),y                 ; 0x2014 <_ZN12_GLOBAL__N_112print_stringEPKcP6Status+0x103>
    1c49: 84 16        	sty	$16                     ; 0x2016 <_ZN12_GLOBAL__N_112print_stringEPKcP6Status+0x105>
    1c4b: 18           	clc
    1c4c: a5 8b        	lda	$8b                     ; 0x208b <printf+0x6d>
    1c4e: 69 16        	adc	#$16
    1c50: 85 12        	sta	$12                     ; 0x2012 <_ZN12_GLOBAL__N_112print_stringEPKcP6Status+0x101>
    1c52: a5 8a        	lda	$8a                     ; 0x208a <printf+0x6c>
    1c54: 69 00        	adc	#$0
    1c56: 85 13        	sta	$13                     ; 0x2013 <_ZN12_GLOBAL__N_112print_stringEPKcP6Status+0x102>
    1c58: a0 16        	ldy	#$16
    1c5a: b1 84        	lda	($84),y                 ; 0x2084 <printf+0x66>
    1c5c: 85 14        	sta	$14                     ; 0x2014 <_ZN12_GLOBAL__N_112print_stringEPKcP6Status+0x103>
    1c5e: a0 01        	ldy	#$1
    1c60: b1 12        	lda	($12),y                 ; 0x2012 <_ZN12_GLOBAL__N_112print_stringEPKcP6Status+0x101>
    1c62: 85 15        	sta	$15                     ; 0x2015 <_ZN12_GLOBAL__N_112print_stringEPKcP6Status+0x104>
    1c64: a5 8d        	lda	$8d                     ; 0x208d <printf+0x6f>
    1c66: a4 16        	ldy	$16                     ; 0x2016 <_ZN12_GLOBAL__N_112print_stringEPKcP6Status+0x105>
    1c68: 91 14        	sta	($14),y                 ; 0x2014 <_ZN12_GLOBAL__N_112print_stringEPKcP6Status+0x103>
    1c6a: 60           	rts

00001c6b <__putchar>:
    1c6b: 85 79        	sta	$79                     ; 0x2079 <printf+0x5b>
    1c6d: a6 01        	ldx	$1                      ; 0x2001 <_ZN12_GLOBAL__N_112print_stringEPKcP6Status+0xf0>
    1c6f: 86 22        	stx	$22                     ; 0x2022 <printf+0x4>
    1c71: a6 38        	ldx	$38                     ; 0x2038 <printf+0x1a>
    1c73: a0 50        	ldy	#$50
    1c75: 8c 00 de     	sty	$de00                   ; 0xde00 <__heap_start+0x87fa>
    1c78: 9c 01 de     	stz	$de01                   ; 0xde01 <__heap_start+0x87fb>
    1c7b: 8e 02 de     	stx	$de02                   ; 0xde02 <__heap_start+0x87fc>
    1c7e: 9c 03 de     	stz	$de03                   ; 0xde03 <__heap_start+0x87fd>
    1c81: ae 10 de     	ldx	$de10                   ; 0xde10 <__heap_start+0x880a>
    1c84: ac 11 de     	ldy	$de11                   ; 0xde11 <__heap_start+0x880b>
    1c87: 84 13        	sty	$13                     ; 0x2013 <_ZN12_GLOBAL__N_112print_stringEPKcP6Status+0x102>
    1c89: ad 12 de     	lda	$de12                   ; 0xde12 <__heap_start+0x880c>
    1c8c: ac 13 de     	ldy	$de13                   ; 0xde13 <__heap_start+0x880d>
    1c8f: 84 1a        	sty	$1a                     ; 0x201a <_ZN12_GLOBAL__N_112print_stringEPKcP6Status+0x109>
    1c91: 9c 08 de     	stz	$de08                   ; 0xde08 <__heap_start+0x8802>
    1c94: a0 c0        	ldy	#$c0
    1c96: 8c 09 de     	sty	$de09                   ; 0xde09 <__heap_start+0x8803>
    1c99: 9c 0a de     	stz	$de0a                   ; 0xde0a <__heap_start+0x8804>
    1c9c: 9c 0b de     	stz	$de0b                   ; 0xde0b <__heap_start+0x8805>
    1c9f: 8e 0c de     	stx	$de0c                   ; 0xde0c <__heap_start+0x8806>
    1ca2: 64 12        	stz	$12                     ; 0x2012 <_ZN12_GLOBAL__N_112print_stringEPKcP6Status+0x101>
    1ca4: a2 00        	ldx	#$0
    1ca6: 86 14        	stx	$14                     ; 0x2014 <_ZN12_GLOBAL__N_112print_stringEPKcP6Status+0x103>
    1ca8: a2 c0        	ldx	#$c0
    1caa: 86 15        	stx	$15                     ; 0x2015 <_ZN12_GLOBAL__N_112print_stringEPKcP6Status+0x104>
    1cac: a2 11        	ldx	#$11
    1cae: 86 16        	stx	$16                     ; 0x2016 <_ZN12_GLOBAL__N_112print_stringEPKcP6Status+0x105>
    1cb0: a2 c9        	ldx	#$c9
    1cb2: 86 17        	stx	$17                     ; 0x2017 <_ZN12_GLOBAL__N_112print_stringEPKcP6Status+0x106>
    1cb4: a2 10        	ldx	#$10
    1cb6: 86 18        	stx	$18                     ; 0x2018 <_ZN12_GLOBAL__N_112print_stringEPKcP6Status+0x107>
    1cb8: a2 c9        	ldx	#$c9
    1cba: 86 19        	stx	$19                     ; 0x2019 <_ZN12_GLOBAL__N_112print_stringEPKcP6Status+0x108>
    1cbc: a6 13        	ldx	$13                     ; 0x2013 <_ZN12_GLOBAL__N_112print_stringEPKcP6Status+0x102>
    1cbe: 8e 0d de     	stx	$de0d                   ; 0xde0d <__heap_start+0x8807>
    1cc1: 8d 0e de     	sta	$de0e                   ; 0xde0e <__heap_start+0x8808>
    1cc4: a6 1a        	ldx	$1a                     ; 0x201a <_ZN12_GLOBAL__N_112print_stringEPKcP6Status+0x109>
    1cc6: 8e 0f de     	stx	$de0f                   ; 0xde0f <__heap_start+0x8809>
    1cc9: ac 18 de     	ldy	$de18                   ; 0xde18 <__heap_start+0x8812>
    1ccc: ad 19 de     	lda	$de19                   ; 0xde19 <__heap_start+0x8813>
    1ccf: ae 1a de     	ldx	$de1a                   ; 0xde1a <__heap_start+0x8814>
    1cd2: ae 1b de     	ldx	$de1b                   ; 0xde1b <__heap_start+0x8815>
    1cd5: 84 1a        	sty	$1a                     ; 0x201a <_ZN12_GLOBAL__N_112print_stringEPKcP6Status+0x109>
    1cd7: 85 1b        	sta	$1b                     ; 0x201b <_ZN12_GLOBAL__N_112print_stringEPKcP6Status+0x10a>
    1cd9: 64 13        	stz	$13                     ; 0x2013 <_ZN12_GLOBAL__N_112print_stringEPKcP6Status+0x102>
    1cdb: 80 13        	bra	$1cf0 <__putchar+0x85>
    1cdd: a5 1a        	lda	$1a                     ; 0x201a <_ZN12_GLOBAL__N_112print_stringEPKcP6Status+0x109>
    1cdf: 18           	clc
    1ce0: 69 50        	adc	#$50
    1ce2: 85 1a        	sta	$1a                     ; 0x201a <_ZN12_GLOBAL__N_112print_stringEPKcP6Status+0x109>
    1ce4: a5 1b        	lda	$1b                     ; 0x201b <_ZN12_GLOBAL__N_112print_stringEPKcP6Status+0x10a>
    1ce6: 69 00        	adc	#$0
    1ce8: 85 1b        	sta	$1b                     ; 0x201b <_ZN12_GLOBAL__N_112print_stringEPKcP6Status+0x10a>
    1cea: e6 12        	inc	$12                     ; 0x2012 <_ZN12_GLOBAL__N_112print_stringEPKcP6Status+0x101>
    1cec: d0 02        	bne	$1cf0 <__putchar+0x85>
    1cee: e6 13        	inc	$13                     ; 0x2013 <_ZN12_GLOBAL__N_112print_stringEPKcP6Status+0x102>
    1cf0: a9 79        	lda	#$79
    1cf2: 18           	clc
    1cf3: 65 12        	adc	$12                     ; 0x2012 <_ZN12_GLOBAL__N_112print_stringEPKcP6Status+0x101>
    1cf5: 85 1c        	sta	$1c                     ; 0x201c <_ZN12_GLOBAL__N_112print_stringEPKcP6Status+0x10b>
    1cf7: a9 00        	lda	#$0
    1cf9: 65 13        	adc	$13                     ; 0x2013 <_ZN12_GLOBAL__N_112print_stringEPKcP6Status+0x102>
    1cfb: 85 1d        	sta	$1d                     ; 0x201d <_ZN12_GLOBAL__N_112print_stringEPKcP6Status+0x10c>
    1cfd: b2 1c        	lda	($1c)                   ; 0x201c <_ZN12_GLOBAL__N_112print_stringEPKcP6Status+0x10b>
    1cff: c9 0a        	cmp	#$a
    1d01: f0 31        	beq	$1d34 <__putchar+0xc9>
    1d03: c9 0d        	cmp	#$d
    1d05: f0 2d        	beq	$1d34 <__putchar+0xc9>
    1d07: aa           	tax
    1d08: d0 03        	bne	$1d0d <__putchar+0xa2>
    1d0a: 4c 24 1e     	jmp	$1e24 <__putchar+0x1b9>
    1d0d: a2 03        	ldx	#$3
    1d0f: 86 01        	stx	$1                      ; 0x2001 <_ZN12_GLOBAL__N_112print_stringEPKcP6Status+0xf0>
    1d11: a5 36        	lda	$36                     ; 0x2036 <printf+0x18>
    1d13: 29 01        	and	#$1
    1d15: a2 40        	ldx	#$40
    1d17: a8           	tay
    1d18: d0 02        	bne	$1d1c <__putchar+0xb1>
    1d1a: a2 f0        	ldx	#$f0
    1d1c: a4 37        	ldy	$37                     ; 0x2037 <printf+0x19>
    1d1e: 8a           	txa
    1d1f: 91 1a        	sta	($1a),y                 ; 0x201a <_ZN12_GLOBAL__N_112print_stringEPKcP6Status+0x109>
    1d21: a2 02        	ldx	#$2
    1d23: 86 01        	stx	$1                      ; 0x2001 <_ZN12_GLOBAL__N_112print_stringEPKcP6Status+0xf0>
    1d25: b2 1c        	lda	($1c)                   ; 0x201c <_ZN12_GLOBAL__N_112print_stringEPKcP6Status+0x10b>
    1d27: a4 37        	ldy	$37                     ; 0x2037 <printf+0x19>
    1d29: 91 1a        	sta	($1a),y                 ; 0x201a <_ZN12_GLOBAL__N_112print_stringEPKcP6Status+0x109>
    1d2b: a6 37        	ldx	$37                     ; 0x2037 <printf+0x19>
    1d2d: e8           	inx
    1d2e: e6 37        	inc	$37                     ; 0x2037 <printf+0x19>
    1d30: e0 50        	cpx	#$50
    1d32: d0 b6        	bne	$1cea <__putchar+0x7f>
    1d34: 64 37        	stz	$37                     ; 0x2037 <printf+0x19>
    1d36: a6 38        	ldx	$38                     ; 0x2038 <printf+0x1a>
    1d38: e8           	inx
    1d39: e6 38        	inc	$38                     ; 0x2038 <printf+0x1a>
    1d3b: e0 1e        	cpx	#$1e
    1d3d: f0 03        	beq	$1d42 <__putchar+0xd7>
    1d3f: 4c dd 1c     	jmp	$1cdd <__putchar+0x72>
    1d42: a2 03        	ldx	#$3
    1d44: 86 01        	stx	$1                      ; 0x2001 <_ZN12_GLOBAL__N_112print_stringEPKcP6Status+0xf0>
    1d46: a2 01        	ldx	#$1
    1d48: 86 1a        	stx	$1a                     ; 0x201a <_ZN12_GLOBAL__N_112print_stringEPKcP6Status+0x109>
    1d4a: a2 09        	ldx	#$9
    1d4c: a9 10        	lda	#$10
    1d4e: a0 00        	ldy	#$0
    1d50: 84 1c        	sty	$1c                     ; 0x201c <_ZN12_GLOBAL__N_112print_stringEPKcP6Status+0x10b>
    1d52: a0 c0        	ldy	#$c0
    1d54: 84 1d        	sty	$1d                     ; 0x201d <_ZN12_GLOBAL__N_112print_stringEPKcP6Status+0x10c>
    1d56: 85 1b        	sta	$1b                     ; 0x201b <_ZN12_GLOBAL__N_112print_stringEPKcP6Status+0x10a>
    1d58: a0 50        	ldy	#$50
    1d5a: b1 1c        	lda	($1c),y                 ; 0x201c <_ZN12_GLOBAL__N_112print_stringEPKcP6Status+0x10b>
    1d5c: 92 1c        	sta	($1c)                   ; 0x201c <_ZN12_GLOBAL__N_112print_stringEPKcP6Status+0x10b>
    1d5e: a9 ff        	lda	#$ff
    1d60: c6 1b        	dec	$1b                     ; 0x201b <_ZN12_GLOBAL__N_112print_stringEPKcP6Status+0x10a>
    1d62: c5 1b        	cmp	$1b                     ; 0x201b <_ZN12_GLOBAL__N_112print_stringEPKcP6Status+0x10a>
    1d64: d0 01        	bne	$1d67 <__putchar+0xfc>
    1d66: ca           	dex
    1d67: e6 1c        	inc	$1c                     ; 0x201c <_ZN12_GLOBAL__N_112print_stringEPKcP6Status+0x10b>
    1d69: d0 02        	bne	$1d6d <__putchar+0x102>
    1d6b: e6 1d        	inc	$1d                     ; 0x201d <_ZN12_GLOBAL__N_112print_stringEPKcP6Status+0x10c>
    1d6d: 8a           	txa
    1d6e: d0 ea        	bne	$1d5a <__putchar+0xef>
    1d70: a5 1b        	lda	$1b                     ; 0x201b <_ZN12_GLOBAL__N_112print_stringEPKcP6Status+0x10a>
    1d72: d0 e6        	bne	$1d5a <__putchar+0xef>
    1d74: a2 02        	ldx	#$2
    1d76: 86 01        	stx	$1                      ; 0x2001 <_ZN12_GLOBAL__N_112print_stringEPKcP6Status+0xf0>
    1d78: a2 00        	ldx	#$0
    1d7a: a5 1a        	lda	$1a                     ; 0x201a <_ZN12_GLOBAL__N_112print_stringEPKcP6Status+0x109>
    1d7c: d0 ca        	bne	$1d48 <__putchar+0xdd>
    1d7e: a2 03        	ldx	#$3
    1d80: 86 01        	stx	$1                      ; 0x2001 <_ZN12_GLOBAL__N_112print_stringEPKcP6Status+0xf0>
    1d82: a5 36        	lda	$36                     ; 0x2036 <printf+0x18>
    1d84: 29 01        	and	#$1
    1d86: aa           	tax
    1d87: a9 40        	lda	#$40
    1d89: e0 00        	cpx	#$0
    1d8b: d0 02        	bne	$1d8f <__putchar+0x124>
    1d8d: a9 f0        	lda	#$f0
    1d8f: a2 50        	ldx	#$50
    1d91: a0 11        	ldy	#$11
    1d93: 84 1a        	sty	$1a                     ; 0x201a <_ZN12_GLOBAL__N_112print_stringEPKcP6Status+0x109>
    1d95: a0 c9        	ldy	#$c9
    1d97: 84 1b        	sty	$1b                     ; 0x201b <_ZN12_GLOBAL__N_112print_stringEPKcP6Status+0x10a>
    1d99: a0 10        	ldy	#$10
    1d9b: 84 1c        	sty	$1c                     ; 0x201c <_ZN12_GLOBAL__N_112print_stringEPKcP6Status+0x10b>
    1d9d: a0 c9        	ldy	#$c9
    1d9f: 84 1d        	sty	$1d                     ; 0x201d <_ZN12_GLOBAL__N_112print_stringEPKcP6Status+0x10c>
    1da1: a4 1a        	ldy	$1a                     ; 0x201a <_ZN12_GLOBAL__N_112print_stringEPKcP6Status+0x109>
    1da3: 84 1e        	sty	$1e                     ; 0x201e <printf>
    1da5: a4 1b        	ldy	$1b                     ; 0x201b <_ZN12_GLOBAL__N_112print_stringEPKcP6Status+0x10a>
    1da7: 84 1f        	sty	$1f                     ; 0x201f <printf+0x1>
    1da9: 92 1c        	sta	($1c)                   ; 0x201c <_ZN12_GLOBAL__N_112print_stringEPKcP6Status+0x10b>
    1dab: e6 1a        	inc	$1a                     ; 0x201a <_ZN12_GLOBAL__N_112print_stringEPKcP6Status+0x109>
    1dad: d0 02        	bne	$1db1 <__putchar+0x146>
    1daf: e6 1b        	inc	$1b                     ; 0x201b <_ZN12_GLOBAL__N_112print_stringEPKcP6Status+0x10a>
    1db1: ca           	dex
    1db2: a4 1e        	ldy	$1e                     ; 0x201e <printf>
    1db4: 84 1c        	sty	$1c                     ; 0x201c <_ZN12_GLOBAL__N_112print_stringEPKcP6Status+0x10b>
    1db6: a4 1f        	ldy	$1f                     ; 0x201f <printf+0x1>
    1db8: 84 1d        	sty	$1d                     ; 0x201d <_ZN12_GLOBAL__N_112print_stringEPKcP6Status+0x10c>
    1dba: e0 00        	cpx	#$0
    1dbc: d0 e3        	bne	$1da1 <__putchar+0x136>
    1dbe: a2 02        	ldx	#$2
    1dc0: 86 01        	stx	$1                      ; 0x2001 <_ZN12_GLOBAL__N_112print_stringEPKcP6Status+0xf0>
    1dc2: a2 50        	ldx	#$50
    1dc4: a0 11        	ldy	#$11
    1dc6: 84 1a        	sty	$1a                     ; 0x201a <_ZN12_GLOBAL__N_112print_stringEPKcP6Status+0x109>
    1dc8: a0 c9        	ldy	#$c9
    1dca: 84 1b        	sty	$1b                     ; 0x201b <_ZN12_GLOBAL__N_112print_stringEPKcP6Status+0x10a>
    1dcc: a0 10        	ldy	#$10
    1dce: 84 1c        	sty	$1c                     ; 0x201c <_ZN12_GLOBAL__N_112print_stringEPKcP6Status+0x10b>
    1dd0: a0 c9        	ldy	#$c9
    1dd2: 84 1d        	sty	$1d                     ; 0x201d <_ZN12_GLOBAL__N_112print_stringEPKcP6Status+0x10c>
    1dd4: a9 20        	lda	#$20
    1dd6: a4 1a        	ldy	$1a                     ; 0x201a <_ZN12_GLOBAL__N_112print_stringEPKcP6Status+0x109>
    1dd8: 84 1e        	sty	$1e                     ; 0x201e <printf>
    1dda: a4 1b        	ldy	$1b                     ; 0x201b <_ZN12_GLOBAL__N_112print_stringEPKcP6Status+0x10a>
    1ddc: 84 1f        	sty	$1f                     ; 0x201f <printf+0x1>
    1dde: 92 1c        	sta	($1c)                   ; 0x201c <_ZN12_GLOBAL__N_112print_stringEPKcP6Status+0x10b>
    1de0: e6 1a        	inc	$1a                     ; 0x201a <_ZN12_GLOBAL__N_112print_stringEPKcP6Status+0x109>
    1de2: d0 02        	bne	$1de6 <__putchar+0x17b>
    1de4: e6 1b        	inc	$1b                     ; 0x201b <_ZN12_GLOBAL__N_112print_stringEPKcP6Status+0x10a>
    1de6: ca           	dex
    1de7: a4 1e        	ldy	$1e                     ; 0x201e <printf>
    1de9: 84 1c        	sty	$1c                     ; 0x201c <_ZN12_GLOBAL__N_112print_stringEPKcP6Status+0x10b>
    1deb: a4 1f        	ldy	$1f                     ; 0x201f <printf+0x1>
    1ded: 84 1d        	sty	$1d                     ; 0x201d <_ZN12_GLOBAL__N_112print_stringEPKcP6Status+0x10c>
    1def: e0 00        	cpx	#$0
    1df1: d0 e3        	bne	$1dd6 <__putchar+0x16b>
    1df3: c6 38        	dec	$38                     ; 0x2038 <printf+0x1a>
    1df5: 9c 08 de     	stz	$de08                   ; 0xde08 <__heap_start+0x8802>
    1df8: a2 c0        	ldx	#$c0
    1dfa: 8e 09 de     	stx	$de09                   ; 0xde09 <__heap_start+0x8803>
    1dfd: 9c 0a de     	stz	$de0a                   ; 0xde0a <__heap_start+0x8804>
    1e00: 9c 0b de     	stz	$de0b                   ; 0xde0b <__heap_start+0x8805>
    1e03: a2 1d        	ldx	#$1d
    1e05: 8e 0c de     	stx	$de0c                   ; 0xde0c <__heap_start+0x8806>
    1e08: 9c 0d de     	stz	$de0d                   ; 0xde0d <__heap_start+0x8807>
    1e0b: 9c 0e de     	stz	$de0e                   ; 0xde0e <__heap_start+0x8808>
    1e0e: 9c 0f de     	stz	$de0f                   ; 0xde0f <__heap_start+0x8809>
    1e11: ae 18 de     	ldx	$de18                   ; 0xde18 <__heap_start+0x8812>
    1e14: ac 19 de     	ldy	$de19                   ; 0xde19 <__heap_start+0x8813>
    1e17: ad 1a de     	lda	$de1a                   ; 0xde1a <__heap_start+0x8814>
    1e1a: ad 1b de     	lda	$de1b                   ; 0xde1b <__heap_start+0x8815>
    1e1d: 86 1a        	stx	$1a                     ; 0x201a <_ZN12_GLOBAL__N_112print_stringEPKcP6Status+0x109>
    1e1f: 84 1b        	sty	$1b                     ; 0x201b <_ZN12_GLOBAL__N_112print_stringEPKcP6Status+0x10a>
    1e21: 4c ea 1c     	jmp	$1cea <__putchar+0x7f>
    1e24: a6 22        	ldx	$22                     ; 0x2022 <printf+0x4>
    1e26: 86 01        	stx	$1                      ; 0x2001 <_ZN12_GLOBAL__N_112print_stringEPKcP6Status+0xf0>
    1e28: a6 37        	ldx	$37                     ; 0x2037 <printf+0x19>
    1e2a: a4 38        	ldy	$38                     ; 0x2038 <printf+0x1a>
    1e2c: 8e 14 d0     	stx	$d014                   ; 0xd014 <__heap_start+0x7a0e>
    1e2f: 9c 15 d0     	stz	$d015                   ; 0xd015 <__heap_start+0x7a0f>
    1e32: 84 38        	sty	$38                     ; 0x2038 <printf+0x1a>
    1e34: 8c 16 d0     	sty	$d016                   ; 0xd016 <__heap_start+0x7a10>
    1e37: 9c 17 d0     	stz	$d017                   ; 0xd017 <__heap_start+0x7a11>
    1e3a: 60           	rts

00001e3b <exit>:
    1e3b: 20 1d 03     	jsr	$31d <_fini>
    1e3e: 80 fe        	bra	$1e3e <exit+0x3>

00001e40 <_ZN12_GLOBAL__N_13putEcP6Status>:
    1e40: 85 18        	sta	$18                     ; 0x2018 <_ZN12_GLOBAL__N_112print_stringEPKcP6Status+0x107>
    1e42: a6 13        	ldx	$13                     ; 0x2013 <_ZN12_GLOBAL__N_112print_stringEPKcP6Status+0x102>
    1e44: 18           	clc
    1e45: a5 12        	lda	$12                     ; 0x2012 <_ZN12_GLOBAL__N_112print_stringEPKcP6Status+0x101>
    1e47: 69 05        	adc	#$5
    1e49: a8           	tay
    1e4a: a5 13        	lda	$13                     ; 0x2013 <_ZN12_GLOBAL__N_112print_stringEPKcP6Status+0x102>
    1e4c: 86 15        	stx	$15                     ; 0x2015 <_ZN12_GLOBAL__N_112print_stringEPKcP6Status+0x104>
    1e4e: 69 00        	adc	#$0
    1e50: 18           	clc
    1e51: 84 16        	sty	$16                     ; 0x2016 <_ZN12_GLOBAL__N_112print_stringEPKcP6Status+0x105>
    1e53: a0 05        	ldy	#$5
    1e55: 85 17        	sta	$17                     ; 0x2017 <_ZN12_GLOBAL__N_112print_stringEPKcP6Status+0x106>
    1e57: b1 12        	lda	($12),y                 ; 0x2012 <_ZN12_GLOBAL__N_112print_stringEPKcP6Status+0x101>
    1e59: aa           	tax
    1e5a: a5 12        	lda	$12                     ; 0x2012 <_ZN12_GLOBAL__N_112print_stringEPKcP6Status+0x101>
    1e5c: 69 03        	adc	#$3
    1e5e: 85 14        	sta	$14                     ; 0x2014 <_ZN12_GLOBAL__N_112print_stringEPKcP6Status+0x103>
    1e60: a5 15        	lda	$15                     ; 0x2015 <_ZN12_GLOBAL__N_112print_stringEPKcP6Status+0x104>
    1e62: 69 00        	adc	#$0
    1e64: 85 15        	sta	$15                     ; 0x2015 <_ZN12_GLOBAL__N_112print_stringEPKcP6Status+0x104>
    1e66: a0 01        	ldy	#$1
    1e68: b1 16        	lda	($16),y                 ; 0x2016 <_ZN12_GLOBAL__N_112print_stringEPKcP6Status+0x105>
    1e6a: d1 14        	cmp	($14),y                 ; 0x2014 <_ZN12_GLOBAL__N_112print_stringEPKcP6Status+0x103>
    1e6c: d0 11        	bne	$1e7f <_ZN12_GLOBAL__N_13putEcP6Status+0x3f>
    1e6e: a0 03        	ldy	#$3
    1e70: 85 17        	sta	$17                     ; 0x2017 <_ZN12_GLOBAL__N_112print_stringEPKcP6Status+0x106>
    1e72: b1 12        	lda	($12),y                 ; 0x2012 <_ZN12_GLOBAL__N_112print_stringEPKcP6Status+0x101>
    1e74: 85 14        	sta	$14                     ; 0x2014 <_ZN12_GLOBAL__N_112print_stringEPKcP6Status+0x103>
    1e76: 86 16        	stx	$16                     ; 0x2016 <_ZN12_GLOBAL__N_112print_stringEPKcP6Status+0x105>
    1e78: e4 14        	cpx	$14                     ; 0x2014 <_ZN12_GLOBAL__N_112print_stringEPKcP6Status+0x103>
    1e7a: 90 0e        	bcc	$1e8a <_ZN12_GLOBAL__N_13putEcP6Status+0x4a>
    1e7c: 4c e9 1e     	jmp	$1ee9 <_ZN12_GLOBAL__N_13putEcP6Status+0xa9>
    1e7f: 86 16        	stx	$16                     ; 0x2016 <_ZN12_GLOBAL__N_112print_stringEPKcP6Status+0x105>
    1e81: d1 14        	cmp	($14),y                 ; 0x2014 <_ZN12_GLOBAL__N_112print_stringEPKcP6Status+0x103>
    1e83: 85 17        	sta	$17                     ; 0x2017 <_ZN12_GLOBAL__N_112print_stringEPKcP6Status+0x106>
    1e85: 90 03        	bcc	$1e8a <_ZN12_GLOBAL__N_13putEcP6Status+0x4a>
    1e87: 4c e9 1e     	jmp	$1ee9 <_ZN12_GLOBAL__N_13putEcP6Status+0xa9>
    1e8a: a5 12        	lda	$12                     ; 0x2012 <_ZN12_GLOBAL__N_112print_stringEPKcP6Status+0x101>
    1e8c: 18           	clc
    1e8d: 69 0f        	adc	#$f
    1e8f: 85 14        	sta	$14                     ; 0x2014 <_ZN12_GLOBAL__N_112print_stringEPKcP6Status+0x103>
    1e91: a5 13        	lda	$13                     ; 0x2013 <_ZN12_GLOBAL__N_112print_stringEPKcP6Status+0x102>
    1e93: 69 00        	adc	#$0
    1e95: 85 15        	sta	$15                     ; 0x2015 <_ZN12_GLOBAL__N_112print_stringEPKcP6Status+0x104>
    1e97: a0 01        	ldy	#$1
    1e99: b1 14        	lda	($14),y                 ; 0x2014 <_ZN12_GLOBAL__N_112print_stringEPKcP6Status+0x103>
    1e9b: a2 00        	ldx	#$0
    1e9d: 86 14        	stx	$14                     ; 0x2014 <_ZN12_GLOBAL__N_112print_stringEPKcP6Status+0x103>
    1e9f: a2 00        	ldx	#$0
    1ea1: 86 15        	stx	$15                     ; 0x2015 <_ZN12_GLOBAL__N_112print_stringEPKcP6Status+0x104>
    1ea3: c5 15        	cmp	$15                     ; 0x2015 <_ZN12_GLOBAL__N_112print_stringEPKcP6Status+0x104>
    1ea5: d0 2d        	bne	$1ed4 <_ZN12_GLOBAL__N_13putEcP6Status+0x94>
    1ea7: a0 0f        	ldy	#$f
    1ea9: b1 12        	lda	($12),y                 ; 0x2012 <_ZN12_GLOBAL__N_112print_stringEPKcP6Status+0x101>
    1eab: c5 14        	cmp	$14                     ; 0x2014 <_ZN12_GLOBAL__N_112print_stringEPKcP6Status+0x103>
    1ead: d0 25        	bne	$1ed4 <_ZN12_GLOBAL__N_13putEcP6Status+0x94>
    1eaf: a5 12        	lda	$12                     ; 0x2012 <_ZN12_GLOBAL__N_112print_stringEPKcP6Status+0x101>
    1eb1: 18           	clc
    1eb2: 69 09        	adc	#$9
    1eb4: 85 14        	sta	$14                     ; 0x2014 <_ZN12_GLOBAL__N_112print_stringEPKcP6Status+0x103>
    1eb6: a5 13        	lda	$13                     ; 0x2013 <_ZN12_GLOBAL__N_112print_stringEPKcP6Status+0x102>
    1eb8: 69 00        	adc	#$0
    1eba: a0 09        	ldy	#$9
    1ebc: 85 15        	sta	$15                     ; 0x2015 <_ZN12_GLOBAL__N_112print_stringEPKcP6Status+0x104>
    1ebe: 18           	clc
    1ebf: a5 16        	lda	$16                     ; 0x2016 <_ZN12_GLOBAL__N_112print_stringEPKcP6Status+0x105>
    1ec1: 71 12        	adc	($12),y                 ; 0x2012 <_ZN12_GLOBAL__N_112print_stringEPKcP6Status+0x101>
    1ec3: aa           	tax
    1ec4: a0 01        	ldy	#$1
    1ec6: a5 17        	lda	$17                     ; 0x2017 <_ZN12_GLOBAL__N_112print_stringEPKcP6Status+0x106>
    1ec8: 71 14        	adc	($14),y                 ; 0x2014 <_ZN12_GLOBAL__N_112print_stringEPKcP6Status+0x103>
    1eca: 86 14        	stx	$14                     ; 0x2014 <_ZN12_GLOBAL__N_112print_stringEPKcP6Status+0x103>
    1ecc: 85 15        	sta	$15                     ; 0x2015 <_ZN12_GLOBAL__N_112print_stringEPKcP6Status+0x104>
    1ece: a5 18        	lda	$18                     ; 0x2018 <_ZN12_GLOBAL__N_112print_stringEPKcP6Status+0x107>
    1ed0: 92 14        	sta	($14)                   ; 0x2014 <_ZN12_GLOBAL__N_112print_stringEPKcP6Status+0x103>
    1ed2: 80 15        	bra	$1ee9 <_ZN12_GLOBAL__N_13putEcP6Status+0xa9>
    1ed4: a6 12        	ldx	$12                     ; 0x2012 <_ZN12_GLOBAL__N_112print_stringEPKcP6Status+0x101>
    1ed6: 86 ee        	stx	$ee                     ; 0x20ee <printf+0xd0>
    1ed8: a6 13        	ldx	$13                     ; 0x2013 <_ZN12_GLOBAL__N_112print_stringEPKcP6Status+0x102>
    1eda: 86 ef        	stx	$ef                     ; 0x20ef <printf+0xd1>
    1edc: a5 18        	lda	$18                     ; 0x2018 <_ZN12_GLOBAL__N_112print_stringEPKcP6Status+0x107>
    1ede: 20 6b 1c     	jsr	$1c6b <__putchar>
    1ee1: a6 ee        	ldx	$ee                     ; 0x20ee <printf+0xd0>
    1ee3: 86 12        	stx	$12                     ; 0x2012 <_ZN12_GLOBAL__N_112print_stringEPKcP6Status+0x101>
    1ee5: a6 ef        	ldx	$ef                     ; 0x20ef <printf+0xd1>
    1ee7: 86 13        	stx	$13                     ; 0x2013 <_ZN12_GLOBAL__N_112print_stringEPKcP6Status+0x102>
    1ee9: a0 05        	ldy	#$5
    1eeb: a5 12        	lda	$12                     ; 0x2012 <_ZN12_GLOBAL__N_112print_stringEPKcP6Status+0x101>
    1eed: 18           	clc
    1eee: 69 05        	adc	#$5
    1ef0: 85 14        	sta	$14                     ; 0x2014 <_ZN12_GLOBAL__N_112print_stringEPKcP6Status+0x103>
    1ef2: a5 13        	lda	$13                     ; 0x2013 <_ZN12_GLOBAL__N_112print_stringEPKcP6Status+0x102>
    1ef4: 69 00        	adc	#$0
    1ef6: 85 15        	sta	$15                     ; 0x2015 <_ZN12_GLOBAL__N_112print_stringEPKcP6Status+0x104>
    1ef8: b1 12        	lda	($12),y                 ; 0x2012 <_ZN12_GLOBAL__N_112print_stringEPKcP6Status+0x101>
    1efa: aa           	tax
    1efb: a0 01        	ldy	#$1
    1efd: b1 14        	lda	($14),y                 ; 0x2014 <_ZN12_GLOBAL__N_112print_stringEPKcP6Status+0x103>
    1eff: e8           	inx
    1f00: d0 01        	bne	$1f03 <_ZN12_GLOBAL__N_13putEcP6Status+0xc3>
    1f02: 1a           	inc
    1f03: 85 16        	sta	$16                     ; 0x2016 <_ZN12_GLOBAL__N_112print_stringEPKcP6Status+0x105>
    1f05: 8a           	txa
    1f06: a0 05        	ldy	#$5
    1f08: 91 12        	sta	($12),y                 ; 0x2012 <_ZN12_GLOBAL__N_112print_stringEPKcP6Status+0x101>
    1f0a: a0 01        	ldy	#$1
    1f0c: a5 16        	lda	$16                     ; 0x2016 <_ZN12_GLOBAL__N_112print_stringEPKcP6Status+0x105>
    1f0e: 91 14        	sta	($14),y                 ; 0x2014 <_ZN12_GLOBAL__N_112print_stringEPKcP6Status+0x103>
    1f10: 60           	rts

00001f11 <_ZN12_GLOBAL__N_112print_stringEPKcP6Status>:
    1f11: a6 12        	ldx	$12                     ; 0x2012 <_ZN12_GLOBAL__N_112print_stringEPKcP6Status+0x101>
    1f13: 86 e6        	stx	$e6                     ; 0x20e6 <printf+0xc8>
    1f15: a6 13        	ldx	$13                     ; 0x2013 <_ZN12_GLOBAL__N_112print_stringEPKcP6Status+0x102>
    1f17: 86 e7        	stx	$e7                     ; 0x20e7 <printf+0xc9>
    1f19: a6 14        	ldx	$14                     ; 0x2014 <_ZN12_GLOBAL__N_112print_stringEPKcP6Status+0x103>
    1f1b: 86 e8        	stx	$e8                     ; 0x20e8 <printf+0xca>
    1f1d: a6 15        	ldx	$15                     ; 0x2015 <_ZN12_GLOBAL__N_112print_stringEPKcP6Status+0x104>
    1f1f: 86 e9        	stx	$e9                     ; 0x20e9 <printf+0xcb>
    1f21: a5 e8        	lda	$e8                     ; 0x20e8 <printf+0xca>
    1f23: 18           	clc
    1f24: 69 0d        	adc	#$d
    1f26: 85 12        	sta	$12                     ; 0x2012 <_ZN12_GLOBAL__N_112print_stringEPKcP6Status+0x101>
    1f28: a5 e9        	lda	$e9                     ; 0x20e9 <printf+0xcb>
    1f2a: 69 00        	adc	#$0
    1f2c: 85 13        	sta	$13                     ; 0x2013 <_ZN12_GLOBAL__N_112print_stringEPKcP6Status+0x102>
    1f2e: a0 01        	ldy	#$1
    1f30: b1 12        	lda	($12),y                 ; 0x2012 <_ZN12_GLOBAL__N_112print_stringEPKcP6Status+0x101>
    1f32: 30 16        	bmi	$1f4a <_ZN12_GLOBAL__N_112print_stringEPKcP6Status+0x39>
    1f34: a0 0d        	ldy	#$d
    1f36: 85 12        	sta	$12                     ; 0x2012 <_ZN12_GLOBAL__N_112print_stringEPKcP6Status+0x101>
    1f38: b1 e8        	lda	($e8),y                 ; 0x20e8 <printf+0xca>
    1f3a: a6 12        	ldx	$12                     ; 0x2012 <_ZN12_GLOBAL__N_112print_stringEPKcP6Status+0x101>
    1f3c: 86 ed        	stx	$ed                     ; 0x20ed <printf+0xcf>
    1f3e: d0 0f        	bne	$1f4f <_ZN12_GLOBAL__N_112print_stringEPKcP6Status+0x3e>
    1f40: aa           	tax
    1f41: d0 0c        	bne	$1f4f <_ZN12_GLOBAL__N_112print_stringEPKcP6Status+0x3e>
    1f43: 64 ea        	stz	$ea                     ; 0x20ea <printf+0xcc>
    1f45: a2 00        	ldx	#$0
    1f47: 4c 19 20     	jmp	$2019 <_ZN12_GLOBAL__N_112print_stringEPKcP6Status+0x108>
    1f4a: a9 ff        	lda	#$ff
    1f4c: aa           	tax
    1f4d: 86 ed        	stx	$ed                     ; 0x20ed <printf+0xcf>
    1f4f: 85 ea        	sta	$ea                     ; 0x20ea <printf+0xcc>
    1f51: 64 12        	stz	$12                     ; 0x2012 <_ZN12_GLOBAL__N_112print_stringEPKcP6Status+0x101>
    1f53: a4 e6        	ldy	$e6                     ; 0x20e6 <printf+0xc8>
    1f55: a6 e7        	ldx	$e7                     ; 0x20e7 <printf+0xc9>
    1f57: 86 16        	stx	$16                     ; 0x2016 <_ZN12_GLOBAL__N_112print_stringEPKcP6Status+0x105>
    1f59: 64 13        	stz	$13                     ; 0x2013 <_ZN12_GLOBAL__N_112print_stringEPKcP6Status+0x102>
    1f5b: 98           	tya
    1f5c: 18           	clc
    1f5d: 65 12        	adc	$12                     ; 0x2012 <_ZN12_GLOBAL__N_112print_stringEPKcP6Status+0x101>
    1f5f: 85 14        	sta	$14                     ; 0x2014 <_ZN12_GLOBAL__N_112print_stringEPKcP6Status+0x103>
    1f61: a5 e7        	lda	$e7                     ; 0x20e7 <printf+0xc9>
    1f63: 65 13        	adc	$13                     ; 0x2013 <_ZN12_GLOBAL__N_112print_stringEPKcP6Status+0x102>
    1f65: 85 15        	sta	$15                     ; 0x2015 <_ZN12_GLOBAL__N_112print_stringEPKcP6Status+0x104>
    1f67: b2 14        	lda	($14)                   ; 0x2014 <_ZN12_GLOBAL__N_112print_stringEPKcP6Status+0x103>
    1f69: d0 03        	bne	$1f6e <_ZN12_GLOBAL__N_112print_stringEPKcP6Status+0x5d>
    1f6b: 4c 13 20     	jmp	$2013 <_ZN12_GLOBAL__N_112print_stringEPKcP6Status+0x102>
    1f6e: e6 12        	inc	$12                     ; 0x2012 <_ZN12_GLOBAL__N_112print_stringEPKcP6Status+0x101>
    1f70: d0 02        	bne	$1f74 <_ZN12_GLOBAL__N_112print_stringEPKcP6Status+0x63>
    1f72: e6 13        	inc	$13                     ; 0x2013 <_ZN12_GLOBAL__N_112print_stringEPKcP6Status+0x102>
    1f74: a6 ed        	ldx	$ed                     ; 0x20ed <printf+0xcf>
    1f76: e4 13        	cpx	$13                     ; 0x2013 <_ZN12_GLOBAL__N_112print_stringEPKcP6Status+0x102>
    1f78: d0 e1        	bne	$1f5b <_ZN12_GLOBAL__N_112print_stringEPKcP6Status+0x4a>
    1f7a: a6 ea        	ldx	$ea                     ; 0x20ea <printf+0xcc>
    1f7c: e4 12        	cpx	$12                     ; 0x2012 <_ZN12_GLOBAL__N_112print_stringEPKcP6Status+0x101>
    1f7e: d0 db        	bne	$1f5b <_ZN12_GLOBAL__N_112print_stringEPKcP6Status+0x4a>
    1f80: a0 01        	ldy	#$1
    1f82: 98           	tya
    1f83: 31 e8        	and	($e8),y                 ; 0x20e8 <printf+0xca>
    1f85: 29 01        	and	#$1
    1f87: f0 03        	beq	$1f8c <_ZN12_GLOBAL__N_112print_stringEPKcP6Status+0x7b>
    1f89: 4c e4 1f     	jmp	$1fe4 <_ZN12_GLOBAL__N_112print_stringEPKcP6Status+0xd3>
    1f8c: a0 0b        	ldy	#$b
    1f8e: a5 e8        	lda	$e8                     ; 0x20e8 <printf+0xca>
    1f90: 18           	clc
    1f91: 69 0b        	adc	#$b
    1f93: 85 14        	sta	$14                     ; 0x2014 <_ZN12_GLOBAL__N_112print_stringEPKcP6Status+0x103>
    1f95: a5 e9        	lda	$e9                     ; 0x20e9 <printf+0xcb>
    1f97: 69 00        	adc	#$0
    1f99: 85 15        	sta	$15                     ; 0x2015 <_ZN12_GLOBAL__N_112print_stringEPKcP6Status+0x104>
    1f9b: b1 e8        	lda	($e8),y                 ; 0x20e8 <printf+0xca>
    1f9d: 85 12        	sta	$12                     ; 0x2012 <_ZN12_GLOBAL__N_112print_stringEPKcP6Status+0x101>
    1f9f: a0 01        	ldy	#$1
    1fa1: b1 14        	lda	($14),y                 ; 0x2014 <_ZN12_GLOBAL__N_112print_stringEPKcP6Status+0x103>
    1fa3: 85 13        	sta	$13                     ; 0x2013 <_ZN12_GLOBAL__N_112print_stringEPKcP6Status+0x102>
    1fa5: a6 ed        	ldx	$ed                     ; 0x20ed <printf+0xcf>
    1fa7: e4 13        	cpx	$13                     ; 0x2013 <_ZN12_GLOBAL__N_112print_stringEPKcP6Status+0x102>
    1fa9: d0 08        	bne	$1fb3 <_ZN12_GLOBAL__N_112print_stringEPKcP6Status+0xa2>
    1fab: a6 ea        	ldx	$ea                     ; 0x20ea <printf+0xcc>
    1fad: e4 12        	cpx	$12                     ; 0x2012 <_ZN12_GLOBAL__N_112print_stringEPKcP6Status+0x101>
    1faf: 90 06        	bcc	$1fb7 <_ZN12_GLOBAL__N_112print_stringEPKcP6Status+0xa6>
    1fb1: 80 31        	bra	$1fe4 <_ZN12_GLOBAL__N_112print_stringEPKcP6Status+0xd3>
    1fb3: e4 13        	cpx	$13                     ; 0x2013 <_ZN12_GLOBAL__N_112print_stringEPKcP6Status+0x102>
    1fb5: b0 2d        	bcs	$1fe4 <_ZN12_GLOBAL__N_112print_stringEPKcP6Status+0xd3>
    1fb7: 38           	sec
    1fb8: a5 ea        	lda	$ea                     ; 0x20ea <printf+0xcc>
    1fba: e5 12        	sbc	$12                     ; 0x2012 <_ZN12_GLOBAL__N_112print_stringEPKcP6Status+0x101>
    1fbc: a8           	tay
    1fbd: a5 ed        	lda	$ed                     ; 0x20ed <printf+0xcf>
    1fbf: e5 13        	sbc	$13                     ; 0x2013 <_ZN12_GLOBAL__N_112print_stringEPKcP6Status+0x102>
    1fc1: 85 ec        	sta	$ec                     ; 0x20ec <printf+0xce>
    1fc3: a6 e8        	ldx	$e8                     ; 0x20e8 <printf+0xca>
    1fc5: 86 12        	stx	$12                     ; 0x2012 <_ZN12_GLOBAL__N_112print_stringEPKcP6Status+0x101>
    1fc7: a6 e9        	ldx	$e9                     ; 0x20e9 <printf+0xcb>
    1fc9: 86 13        	stx	$13                     ; 0x2013 <_ZN12_GLOBAL__N_112print_stringEPKcP6Status+0x102>
    1fcb: 84 eb        	sty	$eb                     ; 0x20eb <printf+0xcd>
    1fcd: a9 20        	lda	#$20
    1fcf: 20 40 1e     	jsr	$1e40 <_ZN12_GLOBAL__N_13putEcP6Status>
    1fd2: a6 ec        	ldx	$ec                     ; 0x20ec <printf+0xce>
    1fd4: e6 eb        	inc	$eb                     ; 0x20eb <printf+0xcd>
    1fd6: d0 01        	bne	$1fd9 <_ZN12_GLOBAL__N_112print_stringEPKcP6Status+0xc8>
    1fd8: e8           	inx
    1fd9: 86 ec        	stx	$ec                     ; 0x20ec <printf+0xce>
    1fdb: a4 eb        	ldy	$eb                     ; 0x20eb <printf+0xcd>
    1fdd: 8a           	txa
    1fde: d0 e3        	bne	$1fc3 <_ZN12_GLOBAL__N_112print_stringEPKcP6Status+0xb2>
    1fe0: a5 eb        	lda	$eb                     ; 0x20eb <printf+0xcd>
    1fe2: d0 df        	bne	$1fc3 <_ZN12_GLOBAL__N_112print_stringEPKcP6Status+0xb2>
    1fe4: a4 ed        	ldy	$ed                     ; 0x20ed <printf+0xcf>
    1fe6: d0 04        	bne	$1fec <_ZN12_GLOBAL__N_112print_stringEPKcP6Status+0xdb>
    1fe8: a5 ea        	lda	$ea                     ; 0x20ea <printf+0xcc>
    1fea: f0 26        	beq	$2012 <_ZN12_GLOBAL__N_112print_stringEPKcP6Status+0x101>
    1fec: a2 ff        	ldx	#$ff
    1fee: c6 ea        	dec	$ea                     ; 0x20ea <printf+0xcc>
    1ff0: e4 ea        	cpx	$ea                     ; 0x20ea <printf+0xcc>
    1ff2: d0 01        	bne	$1ff5 <_ZN12_GLOBAL__N_112print_stringEPKcP6Status+0xe4>
    1ff4: 88           	dey
    1ff5: 84 eb        	sty	$eb                     ; 0x20eb <printf+0xcd>
    1ff7: b2 e6        	lda	($e6)                   ; 0x20e6 <printf+0xc8>
    1ff9: e6 e6        	inc	$e6                     ; 0x20e6 <printf+0xc8>
    1ffb: d0 02        	bne	$1fff <_ZN12_GLOBAL__N_112print_stringEPKcP6Status+0xee>
    1ffd: e6 e7        	inc	$e7                     ; 0x20e7 <printf+0xc9>
    1fff: a6 e8        	ldx	$e8                     ; 0x20e8 <printf+0xca>
    2001: 86 12        	stx	$12                     ; 0x2012 <_ZN12_GLOBAL__N_112print_stringEPKcP6Status+0x101>
    2003: a6 e9        	ldx	$e9                     ; 0x20e9 <printf+0xcb>
    2005: 86 13        	stx	$13                     ; 0x2013 <_ZN12_GLOBAL__N_112print_stringEPKcP6Status+0x102>
    2007: 20 40 1e     	jsr	$1e40 <_ZN12_GLOBAL__N_13putEcP6Status>
    200a: a4 eb        	ldy	$eb                     ; 0x20eb <printf+0xcd>
    200c: d0 de        	bne	$1fec <_ZN12_GLOBAL__N_112print_stringEPKcP6Status+0xdb>
    200e: a5 ea        	lda	$ea                     ; 0x20ea <printf+0xcc>
    2010: d0 da        	bne	$1fec <_ZN12_GLOBAL__N_112print_stringEPKcP6Status+0xdb>
    2012: 60           	rts
    2013: a6 12        	ldx	$12                     ; 0x2012 <_ZN12_GLOBAL__N_112print_stringEPKcP6Status+0x101>
    2015: 86 ea        	stx	$ea                     ; 0x20ea <printf+0xcc>
    2017: a6 13        	ldx	$13                     ; 0x2013 <_ZN12_GLOBAL__N_112print_stringEPKcP6Status+0x102>
    2019: 86 ed        	stx	$ed                     ; 0x20ed <printf+0xcf>
    201b: 4c 80 1f     	jmp	$1f80 <_ZN12_GLOBAL__N_112print_stringEPKcP6Status+0x6f>

0000201e <printf>:
    201e: 18           	clc
    201f: a6 10        	ldx	$10                     ; 0x2010 <_ZN12_GLOBAL__N_112print_stringEPKcP6Status+0xff>
    2021: a4 11        	ldy	$11                     ; 0x2011 <_ZN12_GLOBAL__N_112print_stringEPKcP6Status+0x100>
    2023: 86 dc        	stx	$dc                     ; 0x20dc <printf+0xbe>
    2025: 84 dd        	sty	$dd                     ; 0x20dd <printf+0xbf>
    2027: a6 dc        	ldx	$dc                     ; 0x20dc <printf+0xbe>
    2029: a4 dd        	ldy	$dd                     ; 0x20dd <printf+0xbf>
    202b: 86 c7        	stx	$c7                     ; 0x20c7 <printf+0xa9>
    202d: 84 c8        	sty	$c8                     ; 0x20c8 <printf+0xaa>
    202f: a2 ff        	ldx	#$ff
    2031: 86 cc        	stx	$cc                     ; 0x20cc <printf+0xae>
    2033: 86 cd        	stx	$cd                     ; 0x20cd <printf+0xaf>
    2035: 64 ce        	stz	$ce                     ; 0x20ce <printf+0xb0>
    2037: 64 cf        	stz	$cf                     ; 0x20cf <printf+0xb1>
    2039: e8           	inx
    203a: 86 9b        	stx	$9b                     ; 0x209b <printf+0x7d>
    203c: a2 00        	ldx	#$0
    203e: 86 9c        	stx	$9c                     ; 0x209c <printf+0x7e>
    2040: a6 9b        	ldx	$9b                     ; 0x209b <printf+0x7d>
    2042: a4 9c        	ldy	$9c                     ; 0x209c <printf+0x7e>
    2044: 86 d2        	stx	$d2                     ; 0x20d2 <printf+0xb4>
    2046: 84 d3        	sty	$d3                     ; 0x20d3 <printf+0xb5>
    2048: a2 02        	ldx	#$2
    204a: 86 d8        	stx	$d8                     ; 0x20d8 <printf+0xba>
    204c: 64 d9        	stz	$d9                     ; 0x20d9 <printf+0xbb>
    204e: a6 c7        	ldx	$c7                     ; 0x20c7 <printf+0xa9>
    2050: a4 c8        	ldy	$c8                     ; 0x20c8 <printf+0xaa>
    2052: 86 da        	stx	$da                     ; 0x20da <printf+0xbc>
    2054: 84 db        	sty	$db                     ; 0x20db <printf+0xbd>
    2056: a2 be        	ldx	#$be
    2058: a0 00        	ldy	#$0
    205a: 86 12        	stx	$12                     ; 0x2012 <_ZN12_GLOBAL__N_112print_stringEPKcP6Status+0x101>
    205c: 84 13        	sty	$13                     ; 0x2013 <_ZN12_GLOBAL__N_112print_stringEPKcP6Status+0x102>
    205e: a0 01        	ldy	#$1
    2060: a9 a5        	lda	#$a5
    2062: 18           	clc
    2063: 69 02        	adc	#$2
    2065: 85 e4        	sta	$e4                     ; 0x20e4 <printf+0xc6>
    2067: a9 00        	lda	#$0
    2069: 69 00        	adc	#$0
    206b: 85 e5        	sta	$e5                     ; 0x20e5 <printf+0xc7>
    206d: e6 12        	inc	$12                     ; 0x2012 <_ZN12_GLOBAL__N_112print_stringEPKcP6Status+0x101>
    206f: d0 02        	bne	$2073 <printf+0x55>
    2071: e6 13        	inc	$13                     ; 0x2013 <_ZN12_GLOBAL__N_112print_stringEPKcP6Status+0x102>
    2073: a6 12        	ldx	$12                     ; 0x2012 <_ZN12_GLOBAL__N_112print_stringEPKcP6Status+0x101>
    2075: 86 e1        	stx	$e1                     ; 0x20e1 <printf+0xc3>
    2077: a6 13        	ldx	$13                     ; 0x2013 <_ZN12_GLOBAL__N_112print_stringEPKcP6Status+0x102>
    2079: 86 e2        	stx	$e2                     ; 0x20e2 <printf+0xc4>
    207b: a2 86        	ldx	#$86
    207d: 86 9f        	stx	$9f                     ; 0x209f <printf+0x81>
    207f: a2 2f        	ldx	#$2f
    2081: 86 a0        	stx	$a0                     ; 0x20a0 <printf+0x82>
    2083: a6 9f        	ldx	$9f                     ; 0x209f <printf+0x81>
    2085: 86 9d        	stx	$9d                     ; 0x209d <printf+0x7f>
    2087: a6 a0        	ldx	$a0                     ; 0x20a0 <printf+0x82>
    2089: 86 9e        	stx	$9e                     ; 0x209e <printf+0x80>
    208b: b2 9f        	lda	($9f)                   ; 0x209f <printf+0x81>
    208d: c9 25        	cmp	#$25
    208f: f0 21        	beq	$20b2 <printf+0x94>
    2091: aa           	tax
    2092: d0 03        	bne	$2097 <printf+0x79>
    2094: 4c d0 2b     	jmp	$2bd0 <printf+0xbb2>
    2097: 20 6b 1c     	jsr	$1c6b <__putchar>
    209a: a0 01        	ldy	#$1
    209c: e6 9d        	inc	$9d                     ; 0x209d <printf+0x7f>
    209e: d0 02        	bne	$20a2 <printf+0x84>
    20a0: e6 9e        	inc	$9e                     ; 0x209e <printf+0x80>
    20a2: e6 ce        	inc	$ce                     ; 0x20ce <printf+0xb0>
    20a4: d0 02        	bne	$20a8 <printf+0x8a>
    20a6: e6 cf        	inc	$cf                     ; 0x20cf <printf+0xb1>
    20a8: a6 9d        	ldx	$9d                     ; 0x209d <printf+0x7f>
    20aa: 86 9f        	stx	$9f                     ; 0x209f <printf+0x81>
    20ac: a6 9e        	ldx	$9e                     ; 0x209e <printf+0x80>
    20ae: 86 a0        	stx	$a0                     ; 0x20a0 <printf+0x82>
    20b0: 80 d1        	bra	$2083 <printf+0x65>
    20b2: a6 9f        	ldx	$9f                     ; 0x209f <printf+0x81>
    20b4: 86 12        	stx	$12                     ; 0x2012 <_ZN12_GLOBAL__N_112print_stringEPKcP6Status+0x101>
    20b6: a6 a0        	ldx	$a0                     ; 0x20a0 <printf+0x82>
    20b8: 86 13        	stx	$13                     ; 0x2013 <_ZN12_GLOBAL__N_112print_stringEPKcP6Status+0x102>
    20ba: e6 12        	inc	$12                     ; 0x2012 <_ZN12_GLOBAL__N_112print_stringEPKcP6Status+0x101>
    20bc: d0 02        	bne	$20c0 <printf+0xa2>
    20be: e6 13        	inc	$13                     ; 0x2013 <_ZN12_GLOBAL__N_112print_stringEPKcP6Status+0x102>
    20c0: b1 9d        	lda	($9d),y                 ; 0x209d <printf+0x7f>
    20c2: c9 25        	cmp	#$25
    20c4: d0 16        	bne	$20dc <printf+0xbe>
    20c6: a4 ce        	ldy	$ce                     ; 0x20ce <printf+0xb0>
    20c8: a5 cf        	lda	$cf                     ; 0x20cf <printf+0xb1>
    20ca: c5 cd        	cmp	$cd                     ; 0x20cd <printf+0xaf>
    20cc: f0 03        	beq	$20d1 <printf+0xb3>
    20ce: 4c e2 21     	jmp	$21e2 <printf+0x1c4>
    20d1: a6 cc        	ldx	$cc                     ; 0x20cc <printf+0xae>
    20d3: 86 12        	stx	$12                     ; 0x2012 <_ZN12_GLOBAL__N_112print_stringEPKcP6Status+0x101>
    20d5: 84 13        	sty	$13                     ; 0x2013 <_ZN12_GLOBAL__N_112print_stringEPKcP6Status+0x102>
    20d7: c4 12        	cpy	$12                     ; 0x2012 <_ZN12_GLOBAL__N_112print_stringEPKcP6Status+0x101>
    20d9: 4c e6 21     	jmp	$21e6 <printf+0x1c8>
    20dc: 64 ca        	stz	$ca                     ; 0x20ca <printf+0xac>
    20de: 64 cb        	stz	$cb                     ; 0x20cb <printf+0xad>
    20e0: 64 c9        	stz	$c9                     ; 0x20c9 <printf+0xab>
    20e2: 64 d4        	stz	$d4                     ; 0x20d4 <printf+0xb6>
    20e4: 64 d5        	stz	$d5                     ; 0x20d5 <printf+0xb7>
    20e6: a2 ff        	ldx	#$ff
    20e8: 86 d6        	stx	$d6                     ; 0x20d6 <printf+0xb8>
    20ea: 86 d7        	stx	$d7                     ; 0x20d7 <printf+0xb9>
    20ec: 64 9a        	stz	$9a                     ; 0x209a <printf+0x7c>
    20ee: 80 33        	bra	$2123 <printf+0x105>
    20f0: a2 02        	ldx	#$2
    20f2: 80 15        	bra	$2109 <printf+0xeb>
    20f4: e0 20        	cpx	#$20
    20f6: f0 15        	beq	$210d <printf+0xef>
    20f8: 86 15        	stx	$15                     ; 0x2015 <_ZN12_GLOBAL__N_112print_stringEPKcP6Status+0x104>
    20fa: e0 23        	cpx	#$23
    20fc: f0 03        	beq	$2101 <printf+0xe3>
    20fe: 4c 80 21     	jmp	$2180 <printf+0x162>
    2101: a5 9a        	lda	$9a                     ; 0x209a <printf+0x7c>
    2103: a2 04        	ldx	#$4
    2105: 80 02        	bra	$2109 <printf+0xeb>
    2107: a2 10        	ldx	#$10
    2109: 86 14        	stx	$14                     ; 0x2014 <_ZN12_GLOBAL__N_112print_stringEPKcP6Status+0x103>
    210b: 80 06        	bra	$2113 <printf+0xf5>
    210d: a2 08        	ldx	#$8
    210f: 86 14        	stx	$14                     ; 0x2014 <_ZN12_GLOBAL__N_112print_stringEPKcP6Status+0x103>
    2111: a5 9a        	lda	$9a                     ; 0x209a <printf+0x7c>
    2113: 05 14        	ora	$14                     ; 0x2014 <_ZN12_GLOBAL__N_112print_stringEPKcP6Status+0x103>
    2115: 85 9a        	sta	$9a                     ; 0x209a <printf+0x7c>
    2117: 85 ca        	sta	$ca                     ; 0x20ca <printf+0xac>
    2119: a2 00        	ldx	#$0
    211b: 86 cb        	stx	$cb                     ; 0x20cb <printf+0xad>
    211d: e6 12        	inc	$12                     ; 0x2012 <_ZN12_GLOBAL__N_112print_stringEPKcP6Status+0x101>
    211f: d0 02        	bne	$2123 <printf+0x105>
    2121: e6 13        	inc	$13                     ; 0x2013 <_ZN12_GLOBAL__N_112print_stringEPKcP6Status+0x102>
    2123: b2 12        	lda	($12)                   ; 0x2012 <_ZN12_GLOBAL__N_112print_stringEPKcP6Status+0x101>
    2125: 38           	sec
    2126: aa           	tax
    2127: e9 2a        	sbc	#$2a
    2129: c9 07        	cmp	#$7
    212b: b0 c7        	bcs	$20f4 <printf+0xd6>
    212d: 86 15        	stx	$15                     ; 0x2015 <_ZN12_GLOBAL__N_112print_stringEPKcP6Status+0x104>
    212f: 0a           	asl
    2130: aa           	tax
    2131: a0 01        	ldy	#$1
    2133: 84 14        	sty	$14                     ; 0x2014 <_ZN12_GLOBAL__N_112print_stringEPKcP6Status+0x103>
    2135: a5 9a        	lda	$9a                     ; 0x209a <printf+0x7c>
    2137: 7c 1c 2f     	jmp	($2f1c,x)               ; 0x2f1c <__set_v+0x1>
    213a: a5 da        	lda	$da                     ; 0x20da <printf+0xbc>
    213c: a6 db        	ldx	$db                     ; 0x20db <printf+0xbd>
    213e: 85 16        	sta	$16                     ; 0x2016 <_ZN12_GLOBAL__N_112print_stringEPKcP6Status+0x105>
    2140: 86 17        	stx	$17                     ; 0x2017 <_ZN12_GLOBAL__N_112print_stringEPKcP6Status+0x106>
    2142: 18           	clc
    2143: 69 02        	adc	#$2
    2145: a8           	tay
    2146: 8a           	txa
    2147: 69 00        	adc	#$0
    2149: 84 da        	sty	$da                     ; 0x20da <printf+0xbc>
    214b: 85 db        	sta	$db                     ; 0x20db <printf+0xbd>
    214d: b2 16        	lda	($16)                   ; 0x2016 <_ZN12_GLOBAL__N_112print_stringEPKcP6Status+0x105>
    214f: 85 15        	sta	$15                     ; 0x2015 <_ZN12_GLOBAL__N_112print_stringEPKcP6Status+0x104>
    2151: a0 01        	ldy	#$1
    2153: b1 16        	lda	($16),y                 ; 0x2016 <_ZN12_GLOBAL__N_112print_stringEPKcP6Status+0x105>
    2155: 85 14        	sta	$14                     ; 0x2014 <_ZN12_GLOBAL__N_112print_stringEPKcP6Status+0x103>
    2157: 10 15        	bpl	$216e <printf+0x150>
    2159: a5 9a        	lda	$9a                     ; 0x209a <printf+0x7c>
    215b: 09 01        	ora	#$1
    215d: 85 9a        	sta	$9a                     ; 0x209a <printf+0x7c>
    215f: 85 ca        	sta	$ca                     ; 0x20ca <printf+0xac>
    2161: a2 00        	ldx	#$0
    2163: 86 cb        	stx	$cb                     ; 0x20cb <printf+0xad>
    2165: 8a           	txa
    2166: 38           	sec
    2167: e5 15        	sbc	$15                     ; 0x2015 <_ZN12_GLOBAL__N_112print_stringEPKcP6Status+0x104>
    2169: 85 15        	sta	$15                     ; 0x2015 <_ZN12_GLOBAL__N_112print_stringEPKcP6Status+0x104>
    216b: 8a           	txa
    216c: e5 14        	sbc	$14                     ; 0x2014 <_ZN12_GLOBAL__N_112print_stringEPKcP6Status+0x103>
    216e: a6 15        	ldx	$15                     ; 0x2015 <_ZN12_GLOBAL__N_112print_stringEPKcP6Status+0x104>
    2170: 86 d4        	stx	$d4                     ; 0x20d4 <printf+0xb6>
    2172: 85 d5        	sta	$d5                     ; 0x20d5 <printf+0xb7>
    2174: e6 12        	inc	$12                     ; 0x2012 <_ZN12_GLOBAL__N_112print_stringEPKcP6Status+0x101>
    2176: f0 03        	beq	$217b <printf+0x15d>
    2178: 4c 34 22     	jmp	$2234 <printf+0x216>
    217b: e6 13        	inc	$13                     ; 0x2013 <_ZN12_GLOBAL__N_112print_stringEPKcP6Status+0x102>
    217d: 4c 34 22     	jmp	$2234 <printf+0x216>
    2180: 18           	clc
    2181: a5 15        	lda	$15                     ; 0x2015 <_ZN12_GLOBAL__N_112print_stringEPKcP6Status+0x104>
    2183: 69 d0        	adc	#$d0
    2185: c9 0a        	cmp	#$a
    2187: 90 03        	bcc	$218c <printf+0x16e>
    2189: 4c 26 22     	jmp	$2226 <printf+0x208>
    218c: a6 15        	ldx	$15                     ; 0x2015 <_ZN12_GLOBAL__N_112print_stringEPKcP6Status+0x104>
    218e: 86 14        	stx	$14                     ; 0x2014 <_ZN12_GLOBAL__N_112print_stringEPKcP6Status+0x103>
    2190: 64 16        	stz	$16                     ; 0x2016 <_ZN12_GLOBAL__N_112print_stringEPKcP6Status+0x105>
    2192: 64 15        	stz	$15                     ; 0x2015 <_ZN12_GLOBAL__N_112print_stringEPKcP6Status+0x104>
    2194: 64 17        	stz	$17                     ; 0x2017 <_ZN12_GLOBAL__N_112print_stringEPKcP6Status+0x106>
    2196: a0 01        	ldy	#$1
    2198: 06 16        	asl	$16                     ; 0x2016 <_ZN12_GLOBAL__N_112print_stringEPKcP6Status+0x105>
    219a: 26 17        	rol	$17                     ; 0x2017 <_ZN12_GLOBAL__N_112print_stringEPKcP6Status+0x106>
    219c: a5 16        	lda	$16                     ; 0x2016 <_ZN12_GLOBAL__N_112print_stringEPKcP6Status+0x105>
    219e: 0a           	asl
    219f: aa           	tax
    21a0: a5 17        	lda	$17                     ; 0x2017 <_ZN12_GLOBAL__N_112print_stringEPKcP6Status+0x106>
    21a2: 2a           	rol
    21a3: 86 18        	stx	$18                     ; 0x2018 <_ZN12_GLOBAL__N_112print_stringEPKcP6Status+0x107>
    21a5: 06 18        	asl	$18                     ; 0x2018 <_ZN12_GLOBAL__N_112print_stringEPKcP6Status+0x107>
    21a7: 2a           	rol
    21a8: aa           	tax
    21a9: a5 18        	lda	$18                     ; 0x2018 <_ZN12_GLOBAL__N_112print_stringEPKcP6Status+0x107>
    21ab: 18           	clc
    21ac: 65 16        	adc	$16                     ; 0x2016 <_ZN12_GLOBAL__N_112print_stringEPKcP6Status+0x105>
    21ae: 85 16        	sta	$16                     ; 0x2016 <_ZN12_GLOBAL__N_112print_stringEPKcP6Status+0x105>
    21b0: 8a           	txa
    21b1: 65 17        	adc	$17                     ; 0x2017 <_ZN12_GLOBAL__N_112print_stringEPKcP6Status+0x106>
    21b3: 85 17        	sta	$17                     ; 0x2017 <_ZN12_GLOBAL__N_112print_stringEPKcP6Status+0x106>
    21b5: a5 16        	lda	$16                     ; 0x2016 <_ZN12_GLOBAL__N_112print_stringEPKcP6Status+0x105>
    21b7: 18           	clc
    21b8: 65 14        	adc	$14                     ; 0x2014 <_ZN12_GLOBAL__N_112print_stringEPKcP6Status+0x103>
    21ba: 85 14        	sta	$14                     ; 0x2014 <_ZN12_GLOBAL__N_112print_stringEPKcP6Status+0x103>
    21bc: a5 17        	lda	$17                     ; 0x2017 <_ZN12_GLOBAL__N_112print_stringEPKcP6Status+0x106>
    21be: 65 15        	adc	$15                     ; 0x2015 <_ZN12_GLOBAL__N_112print_stringEPKcP6Status+0x104>
    21c0: aa           	tax
    21c1: 18           	clc
    21c2: a5 14        	lda	$14                     ; 0x2014 <_ZN12_GLOBAL__N_112print_stringEPKcP6Status+0x103>
    21c4: 69 d0        	adc	#$d0
    21c6: 85 16        	sta	$16                     ; 0x2016 <_ZN12_GLOBAL__N_112print_stringEPKcP6Status+0x105>
    21c8: 8a           	txa
    21c9: 69 ff        	adc	#$ff
    21cb: 85 17        	sta	$17                     ; 0x2017 <_ZN12_GLOBAL__N_112print_stringEPKcP6Status+0x106>
    21cd: b1 12        	lda	($12),y                 ; 0x2012 <_ZN12_GLOBAL__N_112print_stringEPKcP6Status+0x101>
    21cf: 85 14        	sta	$14                     ; 0x2014 <_ZN12_GLOBAL__N_112print_stringEPKcP6Status+0x103>
    21d1: 18           	clc
    21d2: 69 d0        	adc	#$d0
    21d4: e6 12        	inc	$12                     ; 0x2012 <_ZN12_GLOBAL__N_112print_stringEPKcP6Status+0x101>
    21d6: d0 02        	bne	$21da <printf+0x1bc>
    21d8: e6 13        	inc	$13                     ; 0x2013 <_ZN12_GLOBAL__N_112print_stringEPKcP6Status+0x102>
    21da: c9 0a        	cmp	#$a
    21dc: 64 15        	stz	$15                     ; 0x2015 <_ZN12_GLOBAL__N_112print_stringEPKcP6Status+0x104>
    21de: 90 b8        	bcc	$2198 <printf+0x17a>
    21e0: 80 4a        	bra	$222c <printf+0x20e>
    21e2: 84 13        	sty	$13                     ; 0x2013 <_ZN12_GLOBAL__N_112print_stringEPKcP6Status+0x102>
    21e4: c5 cd        	cmp	$cd                     ; 0x20cd <printf+0xaf>
    21e6: a0 01        	ldy	#$1
    21e8: b0 26        	bcs	$2210 <printf+0x1f2>
    21ea: a6 d9        	ldx	$d9                     ; 0x20d9 <printf+0xbb>
    21ec: e4 9c        	cpx	$9c                     ; 0x209c <printf+0x7e>
    21ee: d0 19        	bne	$2209 <printf+0x1eb>
    21f0: a6 d8        	ldx	$d8                     ; 0x20d8 <printf+0xba>
    21f2: e4 9b        	cpx	$9b                     ; 0x209b <printf+0x7d>
    21f4: d0 13        	bne	$2209 <printf+0x1eb>
    21f6: 18           	clc
    21f7: aa           	tax
    21f8: a5 13        	lda	$13                     ; 0x2013 <_ZN12_GLOBAL__N_112print_stringEPKcP6Status+0x102>
    21fa: 65 d2        	adc	$d2                     ; 0x20d2 <printf+0xb4>
    21fc: 85 12        	sta	$12                     ; 0x2012 <_ZN12_GLOBAL__N_112print_stringEPKcP6Status+0x101>
    21fe: 8a           	txa
    21ff: 65 d3        	adc	$d3                     ; 0x20d3 <printf+0xb5>
    2201: 85 13        	sta	$13                     ; 0x2013 <_ZN12_GLOBAL__N_112print_stringEPKcP6Status+0x102>
    2203: a9 25        	lda	#$25
    2205: 92 12        	sta	($12)                   ; 0x2012 <_ZN12_GLOBAL__N_112print_stringEPKcP6Status+0x101>
    2207: 80 07        	bra	$2210 <printf+0x1f2>
    2209: a9 25        	lda	#$25
    220b: 20 6b 1c     	jsr	$1c6b <__putchar>
    220e: a0 01        	ldy	#$1
    2210: e6 ce        	inc	$ce                     ; 0x20ce <printf+0xb0>
    2212: d0 02        	bne	$2216 <printf+0x1f8>
    2214: e6 cf        	inc	$cf                     ; 0x20cf <printf+0xb1>
    2216: a5 9d        	lda	$9d                     ; 0x209d <printf+0x7f>
    2218: 18           	clc
    2219: 69 02        	adc	#$2
    221b: 85 9f        	sta	$9f                     ; 0x209f <printf+0x81>
    221d: a5 9e        	lda	$9e                     ; 0x209e <printf+0x80>
    221f: 69 00        	adc	#$0
    2221: 85 a0        	sta	$a0                     ; 0x20a0 <printf+0x82>
    2223: 4c 83 20     	jmp	$2083 <printf+0x65>
    2226: 64 16        	stz	$16                     ; 0x2016 <_ZN12_GLOBAL__N_112print_stringEPKcP6Status+0x105>
    2228: 64 17        	stz	$17                     ; 0x2017 <_ZN12_GLOBAL__N_112print_stringEPKcP6Status+0x106>
    222a: a0 01        	ldy	#$1
    222c: a6 16        	ldx	$16                     ; 0x2016 <_ZN12_GLOBAL__N_112print_stringEPKcP6Status+0x105>
    222e: 86 d4        	stx	$d4                     ; 0x20d4 <printf+0xb6>
    2230: a5 17        	lda	$17                     ; 0x2017 <_ZN12_GLOBAL__N_112print_stringEPKcP6Status+0x106>
    2232: 85 d5        	sta	$d5                     ; 0x20d5 <printf+0xb7>
    2234: 86 a3        	stx	$a3                     ; 0x20a3 <printf+0x85>
    2236: 85 a1        	sta	$a1                     ; 0x20a1 <printf+0x83>
    2238: b2 12        	lda	($12)                   ; 0x2012 <_ZN12_GLOBAL__N_112print_stringEPKcP6Status+0x101>
    223a: a2 ff        	ldx	#$ff
    223c: c9 2e        	cmp	#$2e
    223e: d0 39        	bne	$2279 <printf+0x25b>
    2240: b1 12        	lda	($12),y                 ; 0x2012 <_ZN12_GLOBAL__N_112print_stringEPKcP6Status+0x101>
    2242: c9 2a        	cmp	#$2a
    2244: d0 38        	bne	$227e <printf+0x260>
    2246: a5 da        	lda	$da                     ; 0x20da <printf+0xbc>
    2248: a6 db        	ldx	$db                     ; 0x20db <printf+0xbd>
    224a: 85 14        	sta	$14                     ; 0x2014 <_ZN12_GLOBAL__N_112print_stringEPKcP6Status+0x103>
    224c: 86 15        	stx	$15                     ; 0x2015 <_ZN12_GLOBAL__N_112print_stringEPKcP6Status+0x104>
    224e: 18           	clc
    224f: 69 02        	adc	#$2
    2251: 85 16        	sta	$16                     ; 0x2016 <_ZN12_GLOBAL__N_112print_stringEPKcP6Status+0x105>
    2253: 8a           	txa
    2254: 69 00        	adc	#$0
    2256: a6 16        	ldx	$16                     ; 0x2016 <_ZN12_GLOBAL__N_112print_stringEPKcP6Status+0x105>
    2258: 86 da        	stx	$da                     ; 0x20da <printf+0xbc>
    225a: 85 db        	sta	$db                     ; 0x20db <printf+0xbd>
    225c: a5 12        	lda	$12                     ; 0x2012 <_ZN12_GLOBAL__N_112print_stringEPKcP6Status+0x101>
    225e: 18           	clc
    225f: 69 02        	adc	#$2
    2261: 85 12        	sta	$12                     ; 0x2012 <_ZN12_GLOBAL__N_112print_stringEPKcP6Status+0x101>
    2263: a5 13        	lda	$13                     ; 0x2013 <_ZN12_GLOBAL__N_112print_stringEPKcP6Status+0x102>
    2265: 69 00        	adc	#$0
    2267: 85 13        	sta	$13                     ; 0x2013 <_ZN12_GLOBAL__N_112print_stringEPKcP6Status+0x102>
    2269: b2 14        	lda	($14)                   ; 0x2014 <_ZN12_GLOBAL__N_112print_stringEPKcP6Status+0x103>
    226b: aa           	tax
    226c: b1 14        	lda	($14),y                 ; 0x2014 <_ZN12_GLOBAL__N_112print_stringEPKcP6Status+0x103>
    226e: 86 18        	stx	$18                     ; 0x2018 <_ZN12_GLOBAL__N_112print_stringEPKcP6Status+0x107>
    2270: 86 d6        	stx	$d6                     ; 0x20d6 <printf+0xb8>
    2272: 85 19        	sta	$19                     ; 0x2019 <_ZN12_GLOBAL__N_112print_stringEPKcP6Status+0x108>
    2274: 85 d7        	sta	$d7                     ; 0x20d7 <printf+0xb9>
    2276: 4c 29 23     	jmp	$2329 <printf+0x30b>
    2279: 86 18        	stx	$18                     ; 0x2018 <_ZN12_GLOBAL__N_112print_stringEPKcP6Status+0x107>
    227b: 4c 39 23     	jmp	$2339 <printf+0x31b>
    227e: 18           	clc
    227f: 85 17        	sta	$17                     ; 0x2017 <_ZN12_GLOBAL__N_112print_stringEPKcP6Status+0x106>
    2281: 69 d0        	adc	#$d0
    2283: c9 0a        	cmp	#$a
    2285: 90 03        	bcc	$228a <printf+0x26c>
    2287: 4c 1b 23     	jmp	$231b <printf+0x2fd>
    228a: 64 16        	stz	$16                     ; 0x2016 <_ZN12_GLOBAL__N_112print_stringEPKcP6Status+0x105>
    228c: a2 01        	ldx	#$1
    228e: 64 18        	stz	$18                     ; 0x2018 <_ZN12_GLOBAL__N_112print_stringEPKcP6Status+0x107>
    2290: 64 19        	stz	$19                     ; 0x2019 <_ZN12_GLOBAL__N_112print_stringEPKcP6Status+0x108>
    2292: a0 01        	ldy	#$1
    2294: 64 1a        	stz	$1a                     ; 0x201a <_ZN12_GLOBAL__N_112print_stringEPKcP6Status+0x109>
    2296: 5a           	phy
    2297: a4 1a        	ldy	$1a                     ; 0x201a <_ZN12_GLOBAL__N_112print_stringEPKcP6Status+0x109>
    2299: 84 14        	sty	$14                     ; 0x2014 <_ZN12_GLOBAL__N_112print_stringEPKcP6Status+0x103>
    229b: 86 15        	stx	$15                     ; 0x2015 <_ZN12_GLOBAL__N_112print_stringEPKcP6Status+0x104>
    229d: 06 18        	asl	$18                     ; 0x2018 <_ZN12_GLOBAL__N_112print_stringEPKcP6Status+0x107>
    229f: 26 19        	rol	$19                     ; 0x2019 <_ZN12_GLOBAL__N_112print_stringEPKcP6Status+0x108>
    22a1: a5 18        	lda	$18                     ; 0x2018 <_ZN12_GLOBAL__N_112print_stringEPKcP6Status+0x107>
    22a3: 0a           	asl
    22a4: 85 1d        	sta	$1d                     ; 0x201d <_ZN12_GLOBAL__N_112print_stringEPKcP6Status+0x10c>
    22a6: a5 19        	lda	$19                     ; 0x2019 <_ZN12_GLOBAL__N_112print_stringEPKcP6Status+0x108>
    22a8: 2a           	rol
    22a9: 06 1d        	asl	$1d                     ; 0x201d <_ZN12_GLOBAL__N_112print_stringEPKcP6Status+0x10c>
    22ab: 2a           	rol
    22ac: 85 1e        	sta	$1e                     ; 0x201e <printf>
    22ae: a5 1d        	lda	$1d                     ; 0x201d <_ZN12_GLOBAL__N_112print_stringEPKcP6Status+0x10c>
    22b0: 18           	clc
    22b1: 65 18        	adc	$18                     ; 0x2018 <_ZN12_GLOBAL__N_112print_stringEPKcP6Status+0x107>
    22b3: 85 18        	sta	$18                     ; 0x2018 <_ZN12_GLOBAL__N_112print_stringEPKcP6Status+0x107>
    22b5: a5 1e        	lda	$1e                     ; 0x201e <printf>
    22b7: 65 19        	adc	$19                     ; 0x2019 <_ZN12_GLOBAL__N_112print_stringEPKcP6Status+0x108>
    22b9: 85 19        	sta	$19                     ; 0x2019 <_ZN12_GLOBAL__N_112print_stringEPKcP6Status+0x108>
    22bb: a5 18        	lda	$18                     ; 0x2018 <_ZN12_GLOBAL__N_112print_stringEPKcP6Status+0x107>
    22bd: 18           	clc
    22be: 65 17        	adc	$17                     ; 0x2017 <_ZN12_GLOBAL__N_112print_stringEPKcP6Status+0x106>
    22c0: 85 17        	sta	$17                     ; 0x2017 <_ZN12_GLOBAL__N_112print_stringEPKcP6Status+0x106>
    22c2: a5 19        	lda	$19                     ; 0x2019 <_ZN12_GLOBAL__N_112print_stringEPKcP6Status+0x108>
    22c4: 65 16        	adc	$16                     ; 0x2016 <_ZN12_GLOBAL__N_112print_stringEPKcP6Status+0x105>
    22c6: 85 16        	sta	$16                     ; 0x2016 <_ZN12_GLOBAL__N_112print_stringEPKcP6Status+0x105>
    22c8: 18           	clc
    22c9: a5 17        	lda	$17                     ; 0x2017 <_ZN12_GLOBAL__N_112print_stringEPKcP6Status+0x106>
    22cb: 69 d0        	adc	#$d0
    22cd: 85 18        	sta	$18                     ; 0x2018 <_ZN12_GLOBAL__N_112print_stringEPKcP6Status+0x107>
    22cf: a5 16        	lda	$16                     ; 0x2016 <_ZN12_GLOBAL__N_112print_stringEPKcP6Status+0x105>
    22d1: 69 ff        	adc	#$ff
    22d3: 85 19        	sta	$19                     ; 0x2019 <_ZN12_GLOBAL__N_112print_stringEPKcP6Status+0x108>
    22d5: e8           	inx
    22d6: d0 02        	bne	$22da <printf+0x2bc>
    22d8: e6 1a        	inc	$1a                     ; 0x201a <_ZN12_GLOBAL__N_112print_stringEPKcP6Status+0x109>
    22da: a5 12        	lda	$12                     ; 0x2012 <_ZN12_GLOBAL__N_112print_stringEPKcP6Status+0x101>
    22dc: 18           	clc
    22dd: 65 15        	adc	$15                     ; 0x2015 <_ZN12_GLOBAL__N_112print_stringEPKcP6Status+0x104>
    22df: 85 1d        	sta	$1d                     ; 0x201d <_ZN12_GLOBAL__N_112print_stringEPKcP6Status+0x10c>
    22e1: a5 13        	lda	$13                     ; 0x2013 <_ZN12_GLOBAL__N_112print_stringEPKcP6Status+0x102>
    22e3: 65 14        	adc	$14                     ; 0x2014 <_ZN12_GLOBAL__N_112print_stringEPKcP6Status+0x103>
    22e5: a4 1d        	ldy	$1d                     ; 0x201d <_ZN12_GLOBAL__N_112print_stringEPKcP6Status+0x10c>
    22e7: 84 16        	sty	$16                     ; 0x2016 <_ZN12_GLOBAL__N_112print_stringEPKcP6Status+0x105>
    22e9: 7a           	ply
    22ea: 85 17        	sta	$17                     ; 0x2017 <_ZN12_GLOBAL__N_112print_stringEPKcP6Status+0x106>
    22ec: b1 16        	lda	($16),y                 ; 0x2016 <_ZN12_GLOBAL__N_112print_stringEPKcP6Status+0x105>
    22ee: 85 17        	sta	$17                     ; 0x2017 <_ZN12_GLOBAL__N_112print_stringEPKcP6Status+0x106>
    22f0: 18           	clc
    22f1: 69 d0        	adc	#$d0
    22f3: c9 0a        	cmp	#$a
    22f5: 64 16        	stz	$16                     ; 0x2016 <_ZN12_GLOBAL__N_112print_stringEPKcP6Status+0x105>
    22f7: b0 03        	bcs	$22fc <printf+0x2de>
    22f9: 4c 96 22     	jmp	$2296 <printf+0x278>
    22fc: a5 12        	lda	$12                     ; 0x2012 <_ZN12_GLOBAL__N_112print_stringEPKcP6Status+0x101>
    22fe: 18           	clc
    22ff: 65 15        	adc	$15                     ; 0x2015 <_ZN12_GLOBAL__N_112print_stringEPKcP6Status+0x104>
    2301: 85 12        	sta	$12                     ; 0x2012 <_ZN12_GLOBAL__N_112print_stringEPKcP6Status+0x101>
    2303: a5 13        	lda	$13                     ; 0x2013 <_ZN12_GLOBAL__N_112print_stringEPKcP6Status+0x102>
    2305: 65 14        	adc	$14                     ; 0x2014 <_ZN12_GLOBAL__N_112print_stringEPKcP6Status+0x103>
    2307: 85 13        	sta	$13                     ; 0x2013 <_ZN12_GLOBAL__N_112print_stringEPKcP6Status+0x102>
    2309: e6 12        	inc	$12                     ; 0x2012 <_ZN12_GLOBAL__N_112print_stringEPKcP6Status+0x101>
    230b: d0 02        	bne	$230f <printf+0x2f1>
    230d: e6 13        	inc	$13                     ; 0x2013 <_ZN12_GLOBAL__N_112print_stringEPKcP6Status+0x102>
    230f: a6 18        	ldx	$18                     ; 0x2018 <_ZN12_GLOBAL__N_112print_stringEPKcP6Status+0x107>
    2311: 86 d6        	stx	$d6                     ; 0x20d6 <printf+0xb8>
    2313: a6 19        	ldx	$19                     ; 0x2019 <_ZN12_GLOBAL__N_112print_stringEPKcP6Status+0x108>
    2315: 86 d7        	stx	$d7                     ; 0x20d7 <printf+0xb9>
    2317: a0 01        	ldy	#$1
    2319: 80 0e        	bra	$2329 <printf+0x30b>
    231b: e6 12        	inc	$12                     ; 0x2012 <_ZN12_GLOBAL__N_112print_stringEPKcP6Status+0x101>
    231d: d0 02        	bne	$2321 <printf+0x303>
    231f: e6 13        	inc	$13                     ; 0x2013 <_ZN12_GLOBAL__N_112print_stringEPKcP6Status+0x102>
    2321: 64 18        	stz	$18                     ; 0x2018 <_ZN12_GLOBAL__N_112print_stringEPKcP6Status+0x107>
    2323: 64 d6        	stz	$d6                     ; 0x20d6 <printf+0xb8>
    2325: 64 d7        	stz	$d7                     ; 0x20d7 <printf+0xb9>
    2327: 64 19        	stz	$19                     ; 0x2019 <_ZN12_GLOBAL__N_112print_stringEPKcP6Status+0x108>
    2329: a5 9a        	lda	$9a                     ; 0x209a <printf+0x7c>
    232b: 29 ef        	and	#$ef
    232d: 85 9a        	sta	$9a                     ; 0x209a <printf+0x7c>
    232f: 85 ca        	sta	$ca                     ; 0x20ca <printf+0xac>
    2331: a2 00        	ldx	#$0
    2333: 86 cb        	stx	$cb                     ; 0x20cb <printf+0xad>
    2335: b2 12        	lda	($12)                   ; 0x2012 <_ZN12_GLOBAL__N_112print_stringEPKcP6Status+0x101>
    2337: a6 19        	ldx	$19                     ; 0x2019 <_ZN12_GLOBAL__N_112print_stringEPKcP6Status+0x108>
    2339: 86 15        	stx	$15                     ; 0x2015 <_ZN12_GLOBAL__N_112print_stringEPKcP6Status+0x104>
    233b: a6 12        	ldx	$12                     ; 0x2012 <_ZN12_GLOBAL__N_112print_stringEPKcP6Status+0x101>
    233d: 86 9f        	stx	$9f                     ; 0x209f <printf+0x81>
    233f: a6 13        	ldx	$13                     ; 0x2013 <_ZN12_GLOBAL__N_112print_stringEPKcP6Status+0x102>
    2341: 86 a0        	stx	$a0                     ; 0x20a0 <printf+0x82>
    2343: e6 9f        	inc	$9f                     ; 0x209f <printf+0x81>
    2345: d0 02        	bne	$2349 <printf+0x32b>
    2347: e6 a0        	inc	$a0                     ; 0x20a0 <printf+0x82>
    2349: 85 14        	sta	$14                     ; 0x2014 <_ZN12_GLOBAL__N_112print_stringEPKcP6Status+0x103>
    234b: 38           	sec
    234c: e9 6c        	sbc	#$6c
    234e: 50 02        	bvc	$2352 <printf+0x334>
    2350: 49 80        	eor	#$80
    2352: aa           	tax
    2353: 10 1d        	bpl	$2372 <printf+0x354>
    2355: a5 14        	lda	$14                     ; 0x2014 <_ZN12_GLOBAL__N_112print_stringEPKcP6Status+0x103>
    2357: c9 4c        	cmp	#$4c
    2359: f0 27        	beq	$2382 <printf+0x364>
    235b: c9 68        	cmp	#$68
    235d: d0 03        	bne	$2362 <printf+0x344>
    235f: 4c e9 23     	jmp	$23e9 <printf+0x3cb>
    2362: a2 08        	ldx	#$8
    2364: c9 6a        	cmp	#$6a
    2366: d0 2e        	bne	$2396 <printf+0x378>
    2368: a5 9f        	lda	$9f                     ; 0x209f <printf+0x81>
    236a: 85 12        	sta	$12                     ; 0x2012 <_ZN12_GLOBAL__N_112print_stringEPKcP6Status+0x101>
    236c: a5 a0        	lda	$a0                     ; 0x20a0 <printf+0x82>
    236e: 85 13        	sta	$13                     ; 0x2013 <_ZN12_GLOBAL__N_112print_stringEPKcP6Status+0x102>
    2370: 80 43        	bra	$23b5 <printf+0x397>
    2372: a6 14        	ldx	$14                     ; 0x2014 <_ZN12_GLOBAL__N_112print_stringEPKcP6Status+0x103>
    2374: e0 6c        	cpx	#$6c
    2376: f0 23        	beq	$239b <printf+0x37d>
    2378: e0 74        	cpx	#$74
    237a: f0 12        	beq	$238e <printf+0x370>
    237c: e0 7a        	cpx	#$7a
    237e: f0 0e        	beq	$238e <printf+0x370>
    2380: 80 14        	bra	$2396 <printf+0x378>
    2382: a5 9a        	lda	$9a                     ; 0x209a <printf+0x7c>
    2384: 09 40        	ora	#$40
    2386: 85 9a        	sta	$9a                     ; 0x209a <printf+0x7c>
    2388: 85 ca        	sta	$ca                     ; 0x20ca <printf+0xac>
    238a: a2 00        	ldx	#$0
    238c: 86 cb        	stx	$cb                     ; 0x20cb <printf+0xad>
    238e: a6 9f        	ldx	$9f                     ; 0x209f <printf+0x81>
    2390: 86 12        	stx	$12                     ; 0x2012 <_ZN12_GLOBAL__N_112print_stringEPKcP6Status+0x101>
    2392: a6 a0        	ldx	$a0                     ; 0x20a0 <printf+0x82>
    2394: 86 13        	stx	$13                     ; 0x2013 <_ZN12_GLOBAL__N_112print_stringEPKcP6Status+0x102>
    2396: a2 02        	ldx	#$2
    2398: 8a           	txa
    2399: 80 1c        	bra	$23b7 <printf+0x399>
    239b: b1 12        	lda	($12),y                 ; 0x2012 <_ZN12_GLOBAL__N_112print_stringEPKcP6Status+0x101>
    239d: a2 04        	ldx	#$4
    239f: c9 6c        	cmp	#$6c
    23a1: f0 03        	beq	$23a6 <printf+0x388>
    23a3: 4c e8 26     	jmp	$26e8 <printf+0x6ca>
    23a6: a5 12        	lda	$12                     ; 0x2012 <_ZN12_GLOBAL__N_112print_stringEPKcP6Status+0x101>
    23a8: 18           	clc
    23a9: 69 02        	adc	#$2
    23ab: 85 12        	sta	$12                     ; 0x2012 <_ZN12_GLOBAL__N_112print_stringEPKcP6Status+0x101>
    23ad: a5 13        	lda	$13                     ; 0x2013 <_ZN12_GLOBAL__N_112print_stringEPKcP6Status+0x102>
    23af: 69 00        	adc	#$0
    23b1: 85 13        	sta	$13                     ; 0x2013 <_ZN12_GLOBAL__N_112print_stringEPKcP6Status+0x102>
    23b3: a2 08        	ldx	#$8
    23b5: a9 08        	lda	#$8
    23b7: 85 e0        	sta	$e0                     ; 0x20e0 <printf+0xc2>
    23b9: b2 12        	lda	($12)                   ; 0x2012 <_ZN12_GLOBAL__N_112print_stringEPKcP6Status+0x101>
    23bb: 5a           	phy
    23bc: a4 12        	ldy	$12                     ; 0x2012 <_ZN12_GLOBAL__N_112print_stringEPKcP6Status+0x101>
    23be: 84 9f        	sty	$9f                     ; 0x209f <printf+0x81>
    23c0: a4 13        	ldy	$13                     ; 0x2013 <_ZN12_GLOBAL__N_112print_stringEPKcP6Status+0x102>
    23c2: 84 a0        	sty	$a0                     ; 0x20a0 <printf+0x82>
    23c4: 7a           	ply
    23c5: 86 9b        	stx	$9b                     ; 0x209b <printf+0x7d>
    23c7: aa           	tax
    23c8: 38           	sec
    23c9: e9 63        	sbc	#$63
    23cb: c9 16        	cmp	#$16
    23cd: b0 39        	bcs	$2408 <printf+0x3ea>
    23cf: 0a           	asl
    23d0: aa           	tax
    23d1: 7c 2a 2f     	jmp	($2f2a,x)               ; 0x2f2a <__set_v+0xf>
    23d4: a6 15        	ldx	$15                     ; 0x2015 <_ZN12_GLOBAL__N_112print_stringEPKcP6Status+0x104>
    23d6: 86 de        	stx	$de                     ; 0x20de <printf+0xc0>
    23d8: a6 18        	ldx	$18                     ; 0x2018 <_ZN12_GLOBAL__N_112print_stringEPKcP6Status+0x107>
    23da: 86 e3        	stx	$e3                     ; 0x20e3 <printf+0xc5>
    23dc: a0 0a        	ldy	#$a
    23de: a2 0a        	ldx	#$a
    23e0: 86 df        	stx	$df                     ; 0x20df <printf+0xc1>
    23e2: 84 c9        	sty	$c9                     ; 0x20c9 <printf+0xab>
    23e4: 64 a4        	stz	$a4                     ; 0x20a4 <printf+0x86>
    23e6: 4c 08 25     	jmp	$2508 <printf+0x4ea>
    23e9: b1 12        	lda	($12),y                 ; 0x2012 <_ZN12_GLOBAL__N_112print_stringEPKcP6Status+0x101>
    23eb: a2 02        	ldx	#$2
    23ed: c9 68        	cmp	#$68
    23ef: f0 03        	beq	$23f4 <printf+0x3d6>
    23f1: 4c ee 26     	jmp	$26ee <printf+0x6d0>
    23f4: a5 12        	lda	$12                     ; 0x2012 <_ZN12_GLOBAL__N_112print_stringEPKcP6Status+0x101>
    23f6: 18           	clc
    23f7: 69 02        	adc	#$2
    23f9: 85 12        	sta	$12                     ; 0x2012 <_ZN12_GLOBAL__N_112print_stringEPKcP6Status+0x101>
    23fb: a5 13        	lda	$13                     ; 0x2013 <_ZN12_GLOBAL__N_112print_stringEPKcP6Status+0x102>
    23fd: 69 00        	adc	#$0
    23ff: 85 13        	sta	$13                     ; 0x2013 <_ZN12_GLOBAL__N_112print_stringEPKcP6Status+0x102>
    2401: a2 01        	ldx	#$1
    2403: 86 e0        	stx	$e0                     ; 0x20e0 <printf+0xc2>
    2405: e8           	inx
    2406: 80 b1        	bra	$23b9 <printf+0x39b>
    2408: e0 58        	cpx	#$58
    240a: f0 03        	beq	$240f <printf+0x3f1>
    240c: 4c 8c 2b     	jmp	$2b8c <printf+0xb6e>
    240f: a6 15        	ldx	$15                     ; 0x2015 <_ZN12_GLOBAL__N_112print_stringEPKcP6Status+0x104>
    2411: 86 de        	stx	$de                     ; 0x20de <printf+0xc0>
    2413: a6 18        	ldx	$18                     ; 0x2018 <_ZN12_GLOBAL__N_112print_stringEPKcP6Status+0x107>
    2415: 86 e3        	stx	$e3                     ; 0x20e3 <printf+0xc5>
    2417: a2 10        	ldx	#$10
    2419: 86 c9        	stx	$c9                     ; 0x20c9 <printf+0xab>
    241b: a9 00        	lda	#$0
    241d: 09 01        	ora	#$1
    241f: a6 9a        	ldx	$9a                     ; 0x209a <printf+0x7c>
    2421: 80 29        	bra	$244c <printf+0x42e>
    2423: a6 15        	ldx	$15                     ; 0x2015 <_ZN12_GLOBAL__N_112print_stringEPKcP6Status+0x104>
    2425: 86 de        	stx	$de                     ; 0x20de <printf+0xc0>
    2427: a6 18        	ldx	$18                     ; 0x2018 <_ZN12_GLOBAL__N_112print_stringEPKcP6Status+0x107>
    2429: 86 e3        	stx	$e3                     ; 0x20e3 <printf+0xc5>
    242b: a2 10        	ldx	#$10
    242d: 86 c9        	stx	$c9                     ; 0x20c9 <printf+0xab>
    242f: a5 9a        	lda	$9a                     ; 0x209a <printf+0x7c>
    2431: 09 84        	ora	#$84
    2433: 80 10        	bra	$2445 <printf+0x427>
    2435: a6 15        	ldx	$15                     ; 0x2015 <_ZN12_GLOBAL__N_112print_stringEPKcP6Status+0x104>
    2437: 86 de        	stx	$de                     ; 0x20de <printf+0xc0>
    2439: a6 18        	ldx	$18                     ; 0x2018 <_ZN12_GLOBAL__N_112print_stringEPKcP6Status+0x107>
    243b: 86 e3        	stx	$e3                     ; 0x20e3 <printf+0xc5>
    243d: a2 10        	ldx	#$10
    243f: 86 c9        	stx	$c9                     ; 0x20c9 <printf+0xab>
    2441: a5 9a        	lda	$9a                     ; 0x209a <printf+0x7c>
    2443: 09 80        	ora	#$80
    2445: aa           	tax
    2446: a9 00        	lda	#$0
    2448: 09 01        	ora	#$1
    244a: 86 9a        	stx	$9a                     ; 0x209a <printf+0x7c>
    244c: 86 ca        	stx	$ca                     ; 0x20ca <printf+0xac>
    244e: 85 a4        	sta	$a4                     ; 0x20a4 <printf+0x86>
    2450: 85 cb        	sta	$cb                     ; 0x20cb <printf+0xad>
    2452: a2 10        	ldx	#$10
    2454: 86 df        	stx	$df                     ; 0x20df <printf+0xc1>
    2456: 4c 08 25     	jmp	$2508 <printf+0x4ea>
    2459: a5 da        	lda	$da                     ; 0x20da <printf+0xbc>
    245b: a6 db        	ldx	$db                     ; 0x20db <printf+0xbd>
    245d: 85 12        	sta	$12                     ; 0x2012 <_ZN12_GLOBAL__N_112print_stringEPKcP6Status+0x101>
    245f: 86 13        	stx	$13                     ; 0x2013 <_ZN12_GLOBAL__N_112print_stringEPKcP6Status+0x102>
    2461: 18           	clc
    2462: 69 02        	adc	#$2
    2464: 85 14        	sta	$14                     ; 0x2014 <_ZN12_GLOBAL__N_112print_stringEPKcP6Status+0x103>
    2466: 8a           	txa
    2467: 69 00        	adc	#$0
    2469: a6 14        	ldx	$14                     ; 0x2014 <_ZN12_GLOBAL__N_112print_stringEPKcP6Status+0x103>
    246b: 86 da        	stx	$da                     ; 0x20da <printf+0xbc>
    246d: 85 db        	sta	$db                     ; 0x20db <printf+0xbd>
    246f: b2 12        	lda	($12)                   ; 0x2012 <_ZN12_GLOBAL__N_112print_stringEPKcP6Status+0x101>
    2471: aa           	tax
    2472: b1 12        	lda	($12),y                 ; 0x2012 <_ZN12_GLOBAL__N_112print_stringEPKcP6Status+0x101>
    2474: 86 12        	stx	$12                     ; 0x2012 <_ZN12_GLOBAL__N_112print_stringEPKcP6Status+0x101>
    2476: 85 13        	sta	$13                     ; 0x2013 <_ZN12_GLOBAL__N_112print_stringEPKcP6Status+0x102>
    2478: a5 ce        	lda	$ce                     ; 0x20ce <printf+0xb0>
    247a: a6 cf        	ldx	$cf                     ; 0x20cf <printf+0xb1>
    247c: 92 12        	sta	($12)                   ; 0x2012 <_ZN12_GLOBAL__N_112print_stringEPKcP6Status+0x101>
    247e: 8a           	txa
    247f: 91 12        	sta	($12),y                 ; 0x2012 <_ZN12_GLOBAL__N_112print_stringEPKcP6Status+0x101>
    2481: 4c e1 24     	jmp	$24e1 <printf+0x4c3>
    2484: a5 da        	lda	$da                     ; 0x20da <printf+0xbc>
    2486: a6 db        	ldx	$db                     ; 0x20db <printf+0xbd>
    2488: 85 12        	sta	$12                     ; 0x2012 <_ZN12_GLOBAL__N_112print_stringEPKcP6Status+0x101>
    248a: 86 13        	stx	$13                     ; 0x2013 <_ZN12_GLOBAL__N_112print_stringEPKcP6Status+0x102>
    248c: 18           	clc
    248d: 69 02        	adc	#$2
    248f: 85 14        	sta	$14                     ; 0x2014 <_ZN12_GLOBAL__N_112print_stringEPKcP6Status+0x103>
    2491: 8a           	txa
    2492: 69 00        	adc	#$0
    2494: a6 14        	ldx	$14                     ; 0x2014 <_ZN12_GLOBAL__N_112print_stringEPKcP6Status+0x103>
    2496: 86 da        	stx	$da                     ; 0x20da <printf+0xbc>
    2498: 85 db        	sta	$db                     ; 0x20db <printf+0xbd>
    249a: b2 12        	lda	($12)                   ; 0x2012 <_ZN12_GLOBAL__N_112print_stringEPKcP6Status+0x101>
    249c: aa           	tax
    249d: b1 12        	lda	($12),y                 ; 0x2012 <_ZN12_GLOBAL__N_112print_stringEPKcP6Status+0x101>
    249f: 86 12        	stx	$12                     ; 0x2012 <_ZN12_GLOBAL__N_112print_stringEPKcP6Status+0x101>
    24a1: 85 13        	sta	$13                     ; 0x2013 <_ZN12_GLOBAL__N_112print_stringEPKcP6Status+0x102>
    24a3: 80 2f        	bra	$24d4 <printf+0x4b6>
    24a5: a6 15        	ldx	$15                     ; 0x2015 <_ZN12_GLOBAL__N_112print_stringEPKcP6Status+0x104>
    24a7: 86 de        	stx	$de                     ; 0x20de <printf+0xc0>
    24a9: a6 18        	ldx	$18                     ; 0x2018 <_ZN12_GLOBAL__N_112print_stringEPKcP6Status+0x107>
    24ab: 86 e3        	stx	$e3                     ; 0x20e3 <printf+0xc5>
    24ad: a0 08        	ldy	#$8
    24af: a2 08        	ldx	#$8
    24b1: 80 45        	bra	$24f8 <printf+0x4da>
    24b3: a5 da        	lda	$da                     ; 0x20da <printf+0xbc>
    24b5: a6 db        	ldx	$db                     ; 0x20db <printf+0xbd>
    24b7: 85 12        	sta	$12                     ; 0x2012 <_ZN12_GLOBAL__N_112print_stringEPKcP6Status+0x101>
    24b9: 86 13        	stx	$13                     ; 0x2013 <_ZN12_GLOBAL__N_112print_stringEPKcP6Status+0x102>
    24bb: 18           	clc
    24bc: 69 02        	adc	#$2
    24be: a8           	tay
    24bf: 8a           	txa
    24c0: 69 00        	adc	#$0
    24c2: 84 da        	sty	$da                     ; 0x20da <printf+0xbc>
    24c4: 85 db        	sta	$db                     ; 0x20db <printf+0xbd>
    24c6: b2 12        	lda	($12)                   ; 0x2012 <_ZN12_GLOBAL__N_112print_stringEPKcP6Status+0x101>
    24c8: 85 bc        	sta	$bc                     ; 0x20bc <printf+0x9e>
    24ca: 64 bd        	stz	$bd                     ; 0x20bd <printf+0x9f>
    24cc: a2 bc        	ldx	#$bc
    24ce: 86 12        	stx	$12                     ; 0x2012 <_ZN12_GLOBAL__N_112print_stringEPKcP6Status+0x101>
    24d0: a2 00        	ldx	#$0
    24d2: 86 13        	stx	$13                     ; 0x2013 <_ZN12_GLOBAL__N_112print_stringEPKcP6Status+0x102>
    24d4: a2 c9        	ldx	#$c9
    24d6: 86 14        	stx	$14                     ; 0x2014 <_ZN12_GLOBAL__N_112print_stringEPKcP6Status+0x103>
    24d8: a2 00        	ldx	#$0
    24da: 86 15        	stx	$15                     ; 0x2015 <_ZN12_GLOBAL__N_112print_stringEPKcP6Status+0x104>
    24dc: 20 11 1f     	jsr	$1f11 <_ZN12_GLOBAL__N_112print_stringEPKcP6Status>
    24df: a0 01        	ldy	#$1
    24e1: a2 00        	ldx	#$0
    24e3: 86 9b        	stx	$9b                     ; 0x209b <printf+0x7d>
    24e5: a2 00        	ldx	#$0
    24e7: 86 9c        	stx	$9c                     ; 0x209c <printf+0x7e>
    24e9: 4c 74 2b     	jmp	$2b74 <printf+0xb56>
    24ec: a6 15        	ldx	$15                     ; 0x2015 <_ZN12_GLOBAL__N_112print_stringEPKcP6Status+0x104>
    24ee: 86 de        	stx	$de                     ; 0x20de <printf+0xc0>
    24f0: a6 18        	ldx	$18                     ; 0x2018 <_ZN12_GLOBAL__N_112print_stringEPKcP6Status+0x107>
    24f2: 86 e3        	stx	$e3                     ; 0x20e3 <printf+0xc5>
    24f4: a0 0a        	ldy	#$a
    24f6: a2 0a        	ldx	#$a
    24f8: 86 df        	stx	$df                     ; 0x20df <printf+0xc1>
    24fa: 84 c9        	sty	$c9                     ; 0x20c9 <printf+0xab>
    24fc: a9 00        	lda	#$0
    24fe: 09 01        	ora	#$1
    2500: a6 9a        	ldx	$9a                     ; 0x209a <printf+0x7c>
    2502: 86 ca        	stx	$ca                     ; 0x20ca <printf+0xac>
    2504: 85 a4        	sta	$a4                     ; 0x20a4 <printf+0x86>
    2506: 85 cb        	sta	$cb                     ; 0x20cb <printf+0xad>
    2508: a5 e0        	lda	$e0                     ; 0x20e0 <printf+0xc2>
    250a: 85 be        	sta	$be                     ; 0x20be <printf+0xa0>
    250c: a4 da        	ldy	$da                     ; 0x20da <printf+0xbc>
    250e: a6 db        	ldx	$db                     ; 0x20db <printf+0xbd>
    2510: 86 a2        	stx	$a2                     ; 0x20a2 <printf+0x84>
    2512: 84 14        	sty	$14                     ; 0x2014 <_ZN12_GLOBAL__N_112print_stringEPKcP6Status+0x103>
    2514: 84 99        	sty	$99                     ; 0x2099 <printf+0x7b>
    2516: 86 15        	stx	$15                     ; 0x2015 <_ZN12_GLOBAL__N_112print_stringEPKcP6Status+0x104>
    2518: a6 e1        	ldx	$e1                     ; 0x20e1 <printf+0xc3>
    251a: 86 12        	stx	$12                     ; 0x2012 <_ZN12_GLOBAL__N_112print_stringEPKcP6Status+0x101>
    251c: a6 e2        	ldx	$e2                     ; 0x20e2 <printf+0xc4>
    251e: 86 13        	stx	$13                     ; 0x2013 <_ZN12_GLOBAL__N_112print_stringEPKcP6Status+0x102>
    2520: a2 00        	ldx	#$0
    2522: 85 9c        	sta	$9c                     ; 0x209c <printf+0x7e>
    2524: 20 86 2e     	jsr	$2e86 <memcpy>
    2527: 18           	clc
    2528: a5 99        	lda	$99                     ; 0x2099 <printf+0x7b>
    252a: 65 9b        	adc	$9b                     ; 0x209b <printf+0x7d>
    252c: aa           	tax
    252d: a5 a2        	lda	$a2                     ; 0x20a2 <printf+0x84>
    252f: 69 00        	adc	#$0
    2531: 86 da        	stx	$da                     ; 0x20da <printf+0xbc>
    2533: 85 db        	sta	$db                     ; 0x20db <printf+0xbd>
    2535: a5 a4        	lda	$a4                     ; 0x20a4 <printf+0x86>
    2537: 29 01        	and	#$1
    2539: b8           	clv
    253a: f0 03        	beq	$253f <printf+0x521>
    253c: 4c 93 25     	jmp	$2593 <printf+0x575>
    253f: a6 9c        	ldx	$9c                     ; 0x209c <printf+0x7e>
    2541: b5 be        	lda	$be,x                   ; 0x20be <printf+0xa0>
    2543: aa           	tax
    2544: a0 01        	ldy	#$1
    2546: a5 a1        	lda	$a1                     ; 0x20a1 <printf+0x83>
    2548: 85 1a        	sta	$1a                     ; 0x201a <_ZN12_GLOBAL__N_112print_stringEPKcP6Status+0x109>
    254a: a5 e3        	lda	$e3                     ; 0x20e3 <printf+0xc5>
    254c: 85 a1        	sta	$a1                     ; 0x20a1 <printf+0x83>
    254e: a9 00        	lda	#$0
    2550: 85 9b        	sta	$9b                     ; 0x209b <printf+0x7d>
    2552: a9 00        	lda	#$0
    2554: 85 9c        	sta	$9c                     ; 0x209c <printf+0x7e>
    2556: a5 de        	lda	$de                     ; 0x20de <printf+0xc0>
    2558: 85 a2        	sta	$a2                     ; 0x20a2 <printf+0x84>
    255a: 8a           	txa
    255b: 10 4c        	bpl	$25a9 <printf+0x58b>
    255d: a2 00        	ldx	#$0
    255f: 64 12        	stz	$12                     ; 0x2012 <_ZN12_GLOBAL__N_112print_stringEPKcP6Status+0x101>
    2561: a9 00        	lda	#$0
    2563: 38           	sec
    2564: f5 bf        	sbc	$bf,x                   ; 0x20bf <printf+0xa1>
    2566: a0 00        	ldy	#$0
    2568: b0 02        	bcs	$256c <printf+0x54e>
    256a: a0 01        	ldy	#$1
    256c: 38           	sec
    256d: e5 12        	sbc	$12                     ; 0x2012 <_ZN12_GLOBAL__N_112print_stringEPKcP6Status+0x101>
    256f: 85 13        	sta	$13                     ; 0x2013 <_ZN12_GLOBAL__N_112print_stringEPKcP6Status+0x102>
    2571: 64 12        	stz	$12                     ; 0x2012 <_ZN12_GLOBAL__N_112print_stringEPKcP6Status+0x101>
    2573: b0 04        	bcs	$2579 <printf+0x55b>
    2575: a9 01        	lda	#$1
    2577: 85 12        	sta	$12                     ; 0x2012 <_ZN12_GLOBAL__N_112print_stringEPKcP6Status+0x101>
    2579: 98           	tya
    257a: 05 12        	ora	$12                     ; 0x2012 <_ZN12_GLOBAL__N_112print_stringEPKcP6Status+0x101>
    257c: 85 12        	sta	$12                     ; 0x2012 <_ZN12_GLOBAL__N_112print_stringEPKcP6Status+0x101>
    257e: a5 13        	lda	$13                     ; 0x2013 <_ZN12_GLOBAL__N_112print_stringEPKcP6Status+0x102>
    2580: 9d bf 00     	sta	$bf,x                   ; 0xbf <__zp_bss_size+0x71>
    2583: e8           	inx
    2584: 86 13        	stx	$13                     ; 0x2013 <_ZN12_GLOBAL__N_112print_stringEPKcP6Status+0x102>
    2586: a4 e0        	ldy	$e0                     ; 0x20e0 <printf+0xc2>
    2588: c4 13        	cpy	$13                     ; 0x2013 <_ZN12_GLOBAL__N_112print_stringEPKcP6Status+0x102>
    258a: d0 d5        	bne	$2561 <printf+0x543>
    258c: 2c 1b 2f     	bit	$2f1b                   ; 0x2f1b <__set_v>
    258f: a0 01        	ldy	#$1
    2591: 80 16        	bra	$25a9 <printf+0x58b>
    2593: a0 01        	ldy	#$1
    2595: a6 a1        	ldx	$a1                     ; 0x20a1 <printf+0x83>
    2597: 86 1a        	stx	$1a                     ; 0x201a <_ZN12_GLOBAL__N_112print_stringEPKcP6Status+0x109>
    2599: a6 e3        	ldx	$e3                     ; 0x20e3 <printf+0xc5>
    259b: 86 a1        	stx	$a1                     ; 0x20a1 <printf+0x83>
    259d: a2 00        	ldx	#$0
    259f: 86 9b        	stx	$9b                     ; 0x209b <printf+0x7d>
    25a1: a2 00        	ldx	#$0
    25a3: 86 9c        	stx	$9c                     ; 0x209c <printf+0x7e>
    25a5: a6 de        	ldx	$de                     ; 0x20de <printf+0xc0>
    25a7: 86 a2        	stx	$a2                     ; 0x20a2 <printf+0x84>
    25a9: a2 01        	ldx	#$1
    25ab: 70 02        	bvs	$25af <printf+0x591>
    25ad: a2 00        	ldx	#$0
    25af: 86 16        	stx	$16                     ; 0x2016 <_ZN12_GLOBAL__N_112print_stringEPKcP6Status+0x105>
    25b1: a5 e0        	lda	$e0                     ; 0x20e0 <printf+0xc2>
    25b3: 0a           	asl
    25b4: 0a           	asl
    25b5: 0a           	asl
    25b6: 85 12        	sta	$12                     ; 0x2012 <_ZN12_GLOBAL__N_112print_stringEPKcP6Status+0x101>
    25b8: a2 00        	ldx	#$0
    25ba: 8a           	txa
    25bb: 4c 6f 26     	jmp	$266f <printf+0x651>
    25be: da           	phx
    25bf: 7a           	ply
    25c0: c8           	iny
    25c1: 9d a7 00     	sta	$a7,x                   ; 0xa7 <__zp_bss_size+0x59>
    25c4: 5a           	phy
    25c5: fa           	plx
    25c6: c4 99        	cpy	$99                     ; 0x2099 <printf+0x7b>
    25c8: f0 30        	beq	$25fa <printf+0x5dc>
    25ca: b5 a7        	lda	$a7,x                   ; 0x20a7 <printf+0x89>
    25cc: 0a           	asl
    25cd: a4 de        	ldy	$de                     ; 0x20de <printf+0xc0>
    25cf: f0 02        	beq	$25d3 <printf+0x5b5>
    25d1: 09 01        	ora	#$1
    25d3: a4 df        	ldy	$df                     ; 0x20df <printf+0xc1>
    25d5: 84 14        	sty	$14                     ; 0x2014 <_ZN12_GLOBAL__N_112print_stringEPKcP6Status+0x103>
    25d7: c5 14        	cmp	$14                     ; 0x2014 <_ZN12_GLOBAL__N_112print_stringEPKcP6Status+0x103>
    25d9: a0 01        	ldy	#$1
    25db: b0 02        	bcs	$25df <printf+0x5c1>
    25dd: a0 00        	ldy	#$0
    25df: 84 de        	sty	$de                     ; 0x20de <printf+0xc0>
    25e1: 90 db        	bcc	$25be <printf+0x5a0>
    25e3: 38           	sec
    25e4: e5 14        	sbc	$14                     ; 0x2014 <_ZN12_GLOBAL__N_112print_stringEPKcP6Status+0x103>
    25e6: 9d a7 00     	sta	$a7,x                   ; 0xa7 <__zp_bss_size+0x59>
    25e9: e8           	inx
    25ea: e4 99        	cpx	$99                     ; 0x2099 <printf+0x7b>
    25ec: d0 dc        	bne	$25ca <printf+0x5ac>
    25ee: a4 99        	ldy	$99                     ; 0x2099 <printf+0x7b>
    25f0: a6 99        	ldx	$99                     ; 0x2099 <printf+0x7b>
    25f2: e8           	inx
    25f3: a9 01        	lda	#$1
    25f5: 99 a7 00     	sta	$a7,y                   ; 0xa7 <__zp_bss_size+0x59>
    25f8: 86 99        	stx	$99                     ; 0x2099 <printf+0x7b>
    25fa: a6 e0        	ldx	$e0                     ; 0x20e0 <printf+0xc2>
    25fc: b5 be        	lda	$be,x                   ; 0x20be <printf+0xa0>
    25fe: aa           	tax
    25ff: 30 0f        	bmi	$2610 <printf+0x5f2>
    2601: a0 01        	ldy	#$1
    2603: 80 42        	bra	$2647 <printf+0x629>
    2605: a6 e0        	ldx	$e0                     ; 0x20e0 <printf+0xc2>
    2607: b5 be        	lda	$be,x                   ; 0x20be <printf+0xa0>
    2609: aa           	tax
    260a: 64 99        	stz	$99                     ; 0x2099 <printf+0x7b>
    260c: 10 39        	bpl	$2647 <printf+0x629>
    260e: 80 2a        	bra	$263a <printf+0x61c>
    2610: a5 99        	lda	$99                     ; 0x2099 <printf+0x7b>
    2612: f0 24        	beq	$2638 <printf+0x61a>
    2614: a2 00        	ldx	#$0
    2616: a4 df        	ldy	$df                     ; 0x20df <printf+0xc1>
    2618: 84 14        	sty	$14                     ; 0x2014 <_ZN12_GLOBAL__N_112print_stringEPKcP6Status+0x103>
    261a: b5 a7        	lda	$a7,x                   ; 0x20a7 <printf+0x89>
    261c: 1a           	inc
    261d: f6 a7        	inc	$a7,x                   ; 0x20a7 <printf+0x89>
    261f: c5 14        	cmp	$14                     ; 0x2014 <_ZN12_GLOBAL__N_112print_stringEPKcP6Status+0x103>
    2621: 90 de        	bcc	$2601 <printf+0x5e3>
    2623: a4 14        	ldy	$14                     ; 0x2014 <_ZN12_GLOBAL__N_112print_stringEPKcP6Status+0x103>
    2625: 84 13        	sty	$13                     ; 0x2013 <_ZN12_GLOBAL__N_112print_stringEPKcP6Status+0x102>
    2627: 38           	sec
    2628: e5 13        	sbc	$13                     ; 0x2013 <_ZN12_GLOBAL__N_112print_stringEPKcP6Status+0x102>
    262a: 9d a7 00     	sta	$a7,x                   ; 0xa7 <__zp_bss_size+0x59>
    262d: e8           	inx
    262e: 86 13        	stx	$13                     ; 0x2013 <_ZN12_GLOBAL__N_112print_stringEPKcP6Status+0x102>
    2630: a4 99        	ldy	$99                     ; 0x2099 <printf+0x7b>
    2632: c4 13        	cpy	$13                     ; 0x2013 <_ZN12_GLOBAL__N_112print_stringEPKcP6Status+0x102>
    2634: d0 e4        	bne	$261a <printf+0x5fc>
    2636: 80 02        	bra	$263a <printf+0x61c>
    2638: 64 99        	stz	$99                     ; 0x2099 <printf+0x7b>
    263a: a4 99        	ldy	$99                     ; 0x2099 <printf+0x7b>
    263c: a6 99        	ldx	$99                     ; 0x2099 <printf+0x7b>
    263e: e8           	inx
    263f: a9 01        	lda	#$1
    2641: 99 a7 00     	sta	$a7,y                   ; 0xa7 <__zp_bss_size+0x59>
    2644: a8           	tay
    2645: 86 99        	stx	$99                     ; 0x2099 <printf+0x7b>
    2647: a2 01        	ldx	#$1
    2649: 64 13        	stz	$13                     ; 0x2013 <_ZN12_GLOBAL__N_112print_stringEPKcP6Status+0x102>
    264b: a5 e0        	lda	$e0                     ; 0x20e0 <printf+0xc2>
    264d: 85 14        	sta	$14                     ; 0x2014 <_ZN12_GLOBAL__N_112print_stringEPKcP6Status+0x103>
    264f: b5 be        	lda	$be,x                   ; 0x20be <printf+0xa0>
    2651: 0a           	asl
    2652: 64 15        	stz	$15                     ; 0x2015 <_ZN12_GLOBAL__N_112print_stringEPKcP6Status+0x104>
    2654: 26 15        	rol	$15                     ; 0x2015 <_ZN12_GLOBAL__N_112print_stringEPKcP6Status+0x104>
    2656: 05 13        	ora	$13                     ; 0x2013 <_ZN12_GLOBAL__N_112print_stringEPKcP6Status+0x102>
    2658: 9d be 00     	sta	$be,x                   ; 0xbe <__zp_bss_size+0x70>
    265b: e8           	inx
    265c: c6 14        	dec	$14                     ; 0x2014 <_ZN12_GLOBAL__N_112print_stringEPKcP6Status+0x103>
    265e: a5 15        	lda	$15                     ; 0x2015 <_ZN12_GLOBAL__N_112print_stringEPKcP6Status+0x104>
    2660: 85 13        	sta	$13                     ; 0x2013 <_ZN12_GLOBAL__N_112print_stringEPKcP6Status+0x102>
    2662: a5 14        	lda	$14                     ; 0x2014 <_ZN12_GLOBAL__N_112print_stringEPKcP6Status+0x103>
    2664: d0 e9        	bne	$264f <printf+0x631>
    2666: a5 17        	lda	$17                     ; 0x2017 <_ZN12_GLOBAL__N_112print_stringEPKcP6Status+0x106>
    2668: 1a           	inc
    2669: c5 12        	cmp	$12                     ; 0x2012 <_ZN12_GLOBAL__N_112print_stringEPKcP6Status+0x101>
    266b: a6 99        	ldx	$99                     ; 0x2099 <printf+0x7b>
    266d: b0 13        	bcs	$2682 <printf+0x664>
    266f: 85 17        	sta	$17                     ; 0x2017 <_ZN12_GLOBAL__N_112print_stringEPKcP6Status+0x106>
    2671: 8a           	txa
    2672: d0 03        	bne	$2677 <printf+0x659>
    2674: 4c 05 26     	jmp	$2605 <printf+0x5e7>
    2677: 86 99        	stx	$99                     ; 0x2099 <printf+0x7b>
    2679: a2 00        	ldx	#$0
    267b: 86 de        	stx	$de                     ; 0x20de <printf+0xc0>
    267d: a2 00        	ldx	#$0
    267f: 4c ca 25     	jmp	$25ca <printf+0x5ac>
    2682: a5 9a        	lda	$9a                     ; 0x209a <printf+0x7c>
    2684: e6 a2        	inc	$a2                     ; 0x20a2 <printf+0x84>
    2686: c6 a2        	dec	$a2                     ; 0x20a2 <printf+0x84>
    2688: 10 08        	bpl	$2692 <printf+0x674>
    268a: a2 01        	ldx	#$1
    268c: 64 a2        	stz	$a2                     ; 0x20a2 <printf+0x84>
    268e: 86 a1        	stx	$a1                     ; 0x20a1 <printf+0x83>
    2690: a6 99        	ldx	$99                     ; 0x2099 <printf+0x7b>
    2692: 29 04        	and	#$4
    2694: f0 2b        	beq	$26c1 <printf+0x6a3>
    2696: a5 df        	lda	$df                     ; 0x20df <printf+0xc1>
    2698: c9 10        	cmp	#$10
    269a: f0 14        	beq	$26b0 <printf+0x692>
    269c: c9 08        	cmp	#$8
    269e: d0 21        	bne	$26c1 <printf+0x6a3>
    26a0: a2 00        	ldx	#$0
    26a2: e4 a2        	cpx	$a2                     ; 0x20a2 <printf+0x84>
    26a4: f0 03        	beq	$26a9 <printf+0x68b>
    26a6: 4c 99 2b     	jmp	$2b99 <printf+0xb7b>
    26a9: a6 99        	ldx	$99                     ; 0x2099 <printf+0x7b>
    26ab: e4 a1        	cpx	$a1                     ; 0x20a1 <printf+0x83>
    26ad: 4c 9b 2b     	jmp	$2b9b <printf+0xb7d>
    26b0: 8a           	txa
    26b1: f0 0e        	beq	$26c1 <printf+0x6a3>
    26b3: a5 9a        	lda	$9a                     ; 0x209a <printf+0x7c>
    26b5: 29 80        	and	#$80
    26b7: d0 03        	bne	$26bc <printf+0x69e>
    26b9: 4c b4 2b     	jmp	$2bb4 <printf+0xb96>
    26bc: a2 78        	ldx	#$78
    26be: 4c b6 2b     	jmp	$2bb6 <printf+0xb98>
    26c1: a6 9a        	ldx	$9a                     ; 0x209a <printf+0x7c>
    26c3: a9 2d        	lda	#$2d
    26c5: 85 e0        	sta	$e0                     ; 0x20e0 <printf+0xc2>
    26c7: a5 16        	lda	$16                     ; 0x2016 <_ZN12_GLOBAL__N_112print_stringEPKcP6Status+0x105>
    26c9: d0 32        	bne	$26fd <printf+0x6df>
    26cb: 86 12        	stx	$12                     ; 0x2012 <_ZN12_GLOBAL__N_112print_stringEPKcP6Status+0x101>
    26cd: 8a           	txa
    26ce: 29 02        	and	#$2
    26d0: a2 2b        	ldx	#$2b
    26d2: 86 e0        	stx	$e0                     ; 0x20e0 <printf+0xc2>
    26d4: aa           	tax
    26d5: d0 26        	bne	$26fd <printf+0x6df>
    26d7: a5 12        	lda	$12                     ; 0x2012 <_ZN12_GLOBAL__N_112print_stringEPKcP6Status+0x101>
    26d9: 29 08        	and	#$8
    26db: d0 1c        	bne	$26f9 <printf+0x6db>
    26dd: a2 01        	ldx	#$1
    26df: 86 df        	stx	$df                     ; 0x20df <printf+0xc1>
    26e1: a9 00        	lda	#$0
    26e3: aa           	tax
    26e4: 86 de        	stx	$de                     ; 0x20de <printf+0xc0>
    26e6: 80 1c        	bra	$2704 <printf+0x6e6>
    26e8: 85 12        	sta	$12                     ; 0x2012 <_ZN12_GLOBAL__N_112print_stringEPKcP6Status+0x101>
    26ea: a9 04        	lda	#$4
    26ec: 80 04        	bra	$26f2 <printf+0x6d4>
    26ee: 85 12        	sta	$12                     ; 0x2012 <_ZN12_GLOBAL__N_112print_stringEPKcP6Status+0x101>
    26f0: a9 02        	lda	#$2
    26f2: 85 e0        	sta	$e0                     ; 0x20e0 <printf+0xc2>
    26f4: a5 12        	lda	$12                     ; 0x2012 <_ZN12_GLOBAL__N_112print_stringEPKcP6Status+0x101>
    26f6: 4c c5 23     	jmp	$23c5 <printf+0x3a7>
    26f9: a2 20        	ldx	#$20
    26fb: 86 e0        	stx	$e0                     ; 0x20e0 <printf+0xc2>
    26fd: a2 00        	ldx	#$0
    26ff: 86 df        	stx	$df                     ; 0x20df <printf+0xc1>
    2701: 86 de        	stx	$de                     ; 0x20de <printf+0xc0>
    2703: 98           	tya
    2704: a6 a2        	ldx	$a2                     ; 0x20a2 <printf+0x84>
    2706: d0 35        	bne	$273d <printf+0x71f>
    2708: a6 a1        	ldx	$a1                     ; 0x20a1 <printf+0x83>
    270a: a4 99        	ldy	$99                     ; 0x2099 <printf+0x7b>
    270c: 84 12        	sty	$12                     ; 0x2012 <_ZN12_GLOBAL__N_112print_stringEPKcP6Status+0x101>
    270e: e4 12        	cpx	$12                     ; 0x2012 <_ZN12_GLOBAL__N_112print_stringEPKcP6Status+0x101>
    2710: a6 a1        	ldx	$a1                     ; 0x20a1 <printf+0x83>
    2712: 86 12        	stx	$12                     ; 0x2012 <_ZN12_GLOBAL__N_112print_stringEPKcP6Status+0x101>
    2714: a6 a2        	ldx	$a2                     ; 0x20a2 <printf+0x84>
    2716: 86 13        	stx	$13                     ; 0x2013 <_ZN12_GLOBAL__N_112print_stringEPKcP6Status+0x102>
    2718: b0 04        	bcs	$271e <printf+0x700>
    271a: 84 12        	sty	$12                     ; 0x2012 <_ZN12_GLOBAL__N_112print_stringEPKcP6Status+0x101>
    271c: 64 13        	stz	$13                     ; 0x2013 <_ZN12_GLOBAL__N_112print_stringEPKcP6Status+0x102>
    271e: 85 18        	sta	$18                     ; 0x2018 <_ZN12_GLOBAL__N_112print_stringEPKcP6Status+0x107>
    2720: 18           	clc
    2721: 65 12        	adc	$12                     ; 0x2012 <_ZN12_GLOBAL__N_112print_stringEPKcP6Status+0x101>
    2723: 85 16        	sta	$16                     ; 0x2016 <_ZN12_GLOBAL__N_112print_stringEPKcP6Status+0x105>
    2725: 85 14        	sta	$14                     ; 0x2014 <_ZN12_GLOBAL__N_112print_stringEPKcP6Status+0x103>
    2727: a5 13        	lda	$13                     ; 0x2013 <_ZN12_GLOBAL__N_112print_stringEPKcP6Status+0x102>
    2729: 69 00        	adc	#$0
    272b: 85 15        	sta	$15                     ; 0x2015 <_ZN12_GLOBAL__N_112print_stringEPKcP6Status+0x104>
    272d: c5 1a        	cmp	$1a                     ; 0x201a <_ZN12_GLOBAL__N_112print_stringEPKcP6Status+0x109>
    272f: d0 1e        	bne	$274f <printf+0x731>
    2731: a6 1a        	ldx	$1a                     ; 0x201a <_ZN12_GLOBAL__N_112print_stringEPKcP6Status+0x109>
    2733: 86 17        	stx	$17                     ; 0x2017 <_ZN12_GLOBAL__N_112print_stringEPKcP6Status+0x106>
    2735: a6 a3        	ldx	$a3                     ; 0x20a3 <printf+0x85>
    2737: a5 16        	lda	$16                     ; 0x2016 <_ZN12_GLOBAL__N_112print_stringEPKcP6Status+0x105>
    2739: c5 a3        	cmp	$a3                     ; 0x20a3 <printf+0x85>
    273b: 80 1c        	bra	$2759 <printf+0x73b>
    273d: a6 a2        	ldx	$a2                     ; 0x20a2 <printf+0x84>
    273f: e0 00        	cpx	#$0
    2741: a6 a1        	ldx	$a1                     ; 0x20a1 <printf+0x83>
    2743: 86 12        	stx	$12                     ; 0x2012 <_ZN12_GLOBAL__N_112print_stringEPKcP6Status+0x101>
    2745: a6 a2        	ldx	$a2                     ; 0x20a2 <printf+0x84>
    2747: 86 13        	stx	$13                     ; 0x2013 <_ZN12_GLOBAL__N_112print_stringEPKcP6Status+0x102>
    2749: a4 99        	ldy	$99                     ; 0x2099 <printf+0x7b>
    274b: 90 cd        	bcc	$271a <printf+0x6fc>
    274d: 80 cf        	bra	$271e <printf+0x700>
    274f: a6 a3        	ldx	$a3                     ; 0x20a3 <printf+0x85>
    2751: 5a           	phy
    2752: a4 1a        	ldy	$1a                     ; 0x201a <_ZN12_GLOBAL__N_112print_stringEPKcP6Status+0x109>
    2754: 84 17        	sty	$17                     ; 0x2017 <_ZN12_GLOBAL__N_112print_stringEPKcP6Status+0x106>
    2756: 7a           	ply
    2757: c5 1a        	cmp	$1a                     ; 0x201a <_ZN12_GLOBAL__N_112print_stringEPKcP6Status+0x109>
    2759: 64 a4        	stz	$a4                     ; 0x20a4 <printf+0x86>
    275b: 64 a3        	stz	$a3                     ; 0x20a3 <printf+0x85>
    275d: 90 03        	bcc	$2762 <printf+0x744>
    275f: 4c f8 27     	jmp	$27f8 <printf+0x7da>
    2762: a5 9a        	lda	$9a                     ; 0x209a <printf+0x7c>
    2764: 29 11        	and	#$11
    2766: 86 16        	stx	$16                     ; 0x2016 <_ZN12_GLOBAL__N_112print_stringEPKcP6Status+0x105>
    2768: f0 0f        	beq	$2779 <printf+0x75b>
    276a: 8a           	txa
    276b: 38           	sec
    276c: e5 14        	sbc	$14                     ; 0x2014 <_ZN12_GLOBAL__N_112print_stringEPKcP6Status+0x103>
    276e: 85 a4        	sta	$a4                     ; 0x20a4 <printf+0x86>
    2770: a5 1a        	lda	$1a                     ; 0x201a <_ZN12_GLOBAL__N_112print_stringEPKcP6Status+0x109>
    2772: e5 15        	sbc	$15                     ; 0x2015 <_ZN12_GLOBAL__N_112print_stringEPKcP6Status+0x104>
    2774: 85 a3        	sta	$a3                     ; 0x20a3 <printf+0x85>
    2776: 4c f8 27     	jmp	$27f8 <printf+0x7da>
    2779: a6 ce        	ldx	$ce                     ; 0x20ce <printf+0xb0>
    277b: 86 14        	stx	$14                     ; 0x2014 <_ZN12_GLOBAL__N_112print_stringEPKcP6Status+0x103>
    277d: 38           	sec
    277e: a5 18        	lda	$18                     ; 0x2018 <_ZN12_GLOBAL__N_112print_stringEPKcP6Status+0x107>
    2780: e5 16        	sbc	$16                     ; 0x2016 <_ZN12_GLOBAL__N_112print_stringEPKcP6Status+0x105>
    2782: a8           	tay
    2783: a9 00        	lda	#$0
    2785: e5 17        	sbc	$17                     ; 0x2017 <_ZN12_GLOBAL__N_112print_stringEPKcP6Status+0x106>
    2787: aa           	tax
    2788: 18           	clc
    2789: 98           	tya
    278a: 65 12        	adc	$12                     ; 0x2012 <_ZN12_GLOBAL__N_112print_stringEPKcP6Status+0x101>
    278c: 85 9a        	sta	$9a                     ; 0x209a <printf+0x7c>
    278e: 8a           	txa
    278f: 65 13        	adc	$13                     ; 0x2013 <_ZN12_GLOBAL__N_112print_stringEPKcP6Status+0x102>
    2791: 85 a3        	sta	$a3                     ; 0x20a3 <printf+0x85>
    2793: a5 cf        	lda	$cf                     ; 0x20cf <printf+0xb1>
    2795: 80 4c        	bra	$27e3 <printf+0x7c5>
    2797: c5 cd        	cmp	$cd                     ; 0x20cd <printf+0xaf>
    2799: a4 a3        	ldy	$a3                     ; 0x20a3 <printf+0x85>
    279b: b0 26        	bcs	$27c3 <printf+0x7a5>
    279d: a6 d9        	ldx	$d9                     ; 0x20d9 <printf+0xbb>
    279f: e4 9c        	cpx	$9c                     ; 0x209c <printf+0x7e>
    27a1: d0 19        	bne	$27bc <printf+0x79e>
    27a3: a6 d8        	ldx	$d8                     ; 0x20d8 <printf+0xba>
    27a5: e4 9b        	cpx	$9b                     ; 0x209b <printf+0x7d>
    27a7: d0 13        	bne	$27bc <printf+0x79e>
    27a9: 18           	clc
    27aa: aa           	tax
    27ab: a5 14        	lda	$14                     ; 0x2014 <_ZN12_GLOBAL__N_112print_stringEPKcP6Status+0x103>
    27ad: 65 d2        	adc	$d2                     ; 0x20d2 <printf+0xb4>
    27af: 85 12        	sta	$12                     ; 0x2012 <_ZN12_GLOBAL__N_112print_stringEPKcP6Status+0x101>
    27b1: 8a           	txa
    27b2: 65 d3        	adc	$d3                     ; 0x20d3 <printf+0xb5>
    27b4: 85 13        	sta	$13                     ; 0x2013 <_ZN12_GLOBAL__N_112print_stringEPKcP6Status+0x102>
    27b6: a9 20        	lda	#$20
    27b8: 92 12        	sta	($12)                   ; 0x2012 <_ZN12_GLOBAL__N_112print_stringEPKcP6Status+0x101>
    27ba: 80 05        	bra	$27c1 <printf+0x7a3>
    27bc: a9 20        	lda	#$20
    27be: 20 6b 1c     	jsr	$1c6b <__putchar>
    27c1: a4 a3        	ldy	$a3                     ; 0x20a3 <printf+0x85>
    27c3: a6 ce        	ldx	$ce                     ; 0x20ce <printf+0xb0>
    27c5: a5 cf        	lda	$cf                     ; 0x20cf <printf+0xb1>
    27c7: e8           	inx
    27c8: d0 01        	bne	$27cb <printf+0x7ad>
    27ca: 1a           	inc
    27cb: 86 14        	stx	$14                     ; 0x2014 <_ZN12_GLOBAL__N_112print_stringEPKcP6Status+0x103>
    27cd: 86 ce        	stx	$ce                     ; 0x20ce <printf+0xb0>
    27cf: 85 cf        	sta	$cf                     ; 0x20cf <printf+0xb1>
    27d1: a6 9a        	ldx	$9a                     ; 0x209a <printf+0x7c>
    27d3: e8           	inx
    27d4: d0 01        	bne	$27d7 <printf+0x7b9>
    27d6: c8           	iny
    27d7: 86 9a        	stx	$9a                     ; 0x209a <printf+0x7c>
    27d9: 84 a3        	sty	$a3                     ; 0x20a3 <printf+0x85>
    27db: c0 00        	cpy	#$0
    27dd: d0 04        	bne	$27e3 <printf+0x7c5>
    27df: e0 00        	cpx	#$0
    27e1: f0 0f        	beq	$27f2 <printf+0x7d4>
    27e3: c5 cd        	cmp	$cd                     ; 0x20cd <printf+0xaf>
    27e5: d0 b0        	bne	$2797 <printf+0x779>
    27e7: a6 cc        	ldx	$cc                     ; 0x20cc <printf+0xae>
    27e9: 86 12        	stx	$12                     ; 0x2012 <_ZN12_GLOBAL__N_112print_stringEPKcP6Status+0x101>
    27eb: a6 14        	ldx	$14                     ; 0x2014 <_ZN12_GLOBAL__N_112print_stringEPKcP6Status+0x103>
    27ed: e4 12        	cpx	$12                     ; 0x2012 <_ZN12_GLOBAL__N_112print_stringEPKcP6Status+0x101>
    27ef: 4c 99 27     	jmp	$2799 <printf+0x77b>
    27f2: 64 a4        	stz	$a4                     ; 0x20a4 <printf+0x86>
    27f4: 64 a3        	stz	$a3                     ; 0x20a3 <printf+0x85>
    27f6: a4 99        	ldy	$99                     ; 0x2099 <printf+0x7b>
    27f8: a6 df        	ldx	$df                     ; 0x20df <printf+0xc1>
    27fa: d0 4d        	bne	$2849 <printf+0x82b>
    27fc: a6 ce        	ldx	$ce                     ; 0x20ce <printf+0xb0>
    27fe: a5 cf        	lda	$cf                     ; 0x20cf <printf+0xb1>
    2800: c5 cd        	cmp	$cd                     ; 0x20cd <printf+0xaf>
    2802: d0 10        	bne	$2814 <printf+0x7f6>
    2804: 86 13        	stx	$13                     ; 0x2013 <_ZN12_GLOBAL__N_112print_stringEPKcP6Status+0x102>
    2806: a6 cc        	ldx	$cc                     ; 0x20cc <printf+0xae>
    2808: 86 12        	stx	$12                     ; 0x2012 <_ZN12_GLOBAL__N_112print_stringEPKcP6Status+0x101>
    280a: a4 99        	ldy	$99                     ; 0x2099 <printf+0x7b>
    280c: a6 13        	ldx	$13                     ; 0x2013 <_ZN12_GLOBAL__N_112print_stringEPKcP6Status+0x102>
    280e: e4 12        	cpx	$12                     ; 0x2012 <_ZN12_GLOBAL__N_112print_stringEPKcP6Status+0x101>
    2810: 90 08        	bcc	$281a <printf+0x7fc>
    2812: 80 2f        	bra	$2843 <printf+0x825>
    2814: 86 13        	stx	$13                     ; 0x2013 <_ZN12_GLOBAL__N_112print_stringEPKcP6Status+0x102>
    2816: c5 cd        	cmp	$cd                     ; 0x20cd <printf+0xaf>
    2818: b0 29        	bcs	$2843 <printf+0x825>
    281a: a6 d9        	ldx	$d9                     ; 0x20d9 <printf+0xbb>
    281c: e4 9c        	cpx	$9c                     ; 0x209c <printf+0x7e>
    281e: d0 1c        	bne	$283c <printf+0x81e>
    2820: a6 d8        	ldx	$d8                     ; 0x20d8 <printf+0xba>
    2822: e4 9b        	cpx	$9b                     ; 0x209b <printf+0x7d>
    2824: d0 16        	bne	$283c <printf+0x81e>
    2826: 18           	clc
    2827: 85 12        	sta	$12                     ; 0x2012 <_ZN12_GLOBAL__N_112print_stringEPKcP6Status+0x101>
    2829: a5 13        	lda	$13                     ; 0x2013 <_ZN12_GLOBAL__N_112print_stringEPKcP6Status+0x102>
    282b: 65 d2        	adc	$d2                     ; 0x20d2 <printf+0xb4>
    282d: aa           	tax
    282e: a5 12        	lda	$12                     ; 0x2012 <_ZN12_GLOBAL__N_112print_stringEPKcP6Status+0x101>
    2830: 65 d3        	adc	$d3                     ; 0x20d3 <printf+0xb5>
    2832: 86 12        	stx	$12                     ; 0x2012 <_ZN12_GLOBAL__N_112print_stringEPKcP6Status+0x101>
    2834: 85 13        	sta	$13                     ; 0x2013 <_ZN12_GLOBAL__N_112print_stringEPKcP6Status+0x102>
    2836: a5 e0        	lda	$e0                     ; 0x20e0 <printf+0xc2>
    2838: 92 12        	sta	($12)                   ; 0x2012 <_ZN12_GLOBAL__N_112print_stringEPKcP6Status+0x101>
    283a: 80 05        	bra	$2841 <printf+0x823>
    283c: a5 e0        	lda	$e0                     ; 0x20e0 <printf+0xc2>
    283e: 20 6b 1c     	jsr	$1c6b <__putchar>
    2841: a4 99        	ldy	$99                     ; 0x2099 <printf+0x7b>
    2843: e6 ce        	inc	$ce                     ; 0x20ce <printf+0xb0>
    2845: d0 02        	bne	$2849 <printf+0x82b>
    2847: e6 cf        	inc	$cf                     ; 0x20cf <printf+0xb1>
    2849: a6 de        	ldx	$de                     ; 0x20de <printf+0xc0>
    284b: f0 4d        	beq	$289a <printf+0x87c>
    284d: a6 ce        	ldx	$ce                     ; 0x20ce <printf+0xb0>
    284f: a5 cf        	lda	$cf                     ; 0x20cf <printf+0xb1>
    2851: c5 cd        	cmp	$cd                     ; 0x20cd <printf+0xaf>
    2853: d0 10        	bne	$2865 <printf+0x847>
    2855: 86 13        	stx	$13                     ; 0x2013 <_ZN12_GLOBAL__N_112print_stringEPKcP6Status+0x102>
    2857: a6 cc        	ldx	$cc                     ; 0x20cc <printf+0xae>
    2859: 86 12        	stx	$12                     ; 0x2012 <_ZN12_GLOBAL__N_112print_stringEPKcP6Status+0x101>
    285b: a4 99        	ldy	$99                     ; 0x2099 <printf+0x7b>
    285d: a6 13        	ldx	$13                     ; 0x2013 <_ZN12_GLOBAL__N_112print_stringEPKcP6Status+0x102>
    285f: e4 12        	cpx	$12                     ; 0x2012 <_ZN12_GLOBAL__N_112print_stringEPKcP6Status+0x101>
    2861: 90 08        	bcc	$286b <printf+0x84d>
    2863: 80 2f        	bra	$2894 <printf+0x876>
    2865: 86 13        	stx	$13                     ; 0x2013 <_ZN12_GLOBAL__N_112print_stringEPKcP6Status+0x102>
    2867: c5 cd        	cmp	$cd                     ; 0x20cd <printf+0xaf>
    2869: b0 29        	bcs	$2894 <printf+0x876>
    286b: a6 d9        	ldx	$d9                     ; 0x20d9 <printf+0xbb>
    286d: e4 9c        	cpx	$9c                     ; 0x209c <printf+0x7e>
    286f: d0 1c        	bne	$288d <printf+0x86f>
    2871: a6 d8        	ldx	$d8                     ; 0x20d8 <printf+0xba>
    2873: e4 9b        	cpx	$9b                     ; 0x209b <printf+0x7d>
    2875: d0 16        	bne	$288d <printf+0x86f>
    2877: 18           	clc
    2878: 85 12        	sta	$12                     ; 0x2012 <_ZN12_GLOBAL__N_112print_stringEPKcP6Status+0x101>
    287a: a5 13        	lda	$13                     ; 0x2013 <_ZN12_GLOBAL__N_112print_stringEPKcP6Status+0x102>
    287c: 65 d2        	adc	$d2                     ; 0x20d2 <printf+0xb4>
    287e: aa           	tax
    287f: a5 12        	lda	$12                     ; 0x2012 <_ZN12_GLOBAL__N_112print_stringEPKcP6Status+0x101>
    2881: 65 d3        	adc	$d3                     ; 0x20d3 <printf+0xb5>
    2883: 86 12        	stx	$12                     ; 0x2012 <_ZN12_GLOBAL__N_112print_stringEPKcP6Status+0x101>
    2885: 85 13        	sta	$13                     ; 0x2013 <_ZN12_GLOBAL__N_112print_stringEPKcP6Status+0x102>
    2887: a5 e3        	lda	$e3                     ; 0x20e3 <printf+0xc5>
    2889: 92 12        	sta	($12)                   ; 0x2012 <_ZN12_GLOBAL__N_112print_stringEPKcP6Status+0x101>
    288b: 80 05        	bra	$2892 <printf+0x874>
    288d: a5 e3        	lda	$e3                     ; 0x20e3 <printf+0xc5>
    288f: 20 6b 1c     	jsr	$1c6b <__putchar>
    2892: a4 99        	ldy	$99                     ; 0x2099 <printf+0x7b>
    2894: e6 ce        	inc	$ce                     ; 0x20ce <printf+0xb0>
    2896: d0 02        	bne	$289a <printf+0x87c>
    2898: e6 cf        	inc	$cf                     ; 0x20cf <printf+0xb1>
    289a: a9 10        	lda	#$10
    289c: 25 ca        	and	$ca                     ; 0x20ca <printf+0xac>
    289e: d0 03        	bne	$28a3 <printf+0x885>
    28a0: 4c 2b 29     	jmp	$292b <printf+0x90d>
    28a3: a5 ca        	lda	$ca                     ; 0x20ca <printf+0xac>
    28a5: 29 01        	and	#$1
    28a7: 29 01        	and	#$1
    28a9: f0 03        	beq	$28ae <printf+0x890>
    28ab: 4c 2b 29     	jmp	$292b <printf+0x90d>
    28ae: a6 a4        	ldx	$a4                     ; 0x20a4 <printf+0x86>
    28b0: a5 a3        	lda	$a3                     ; 0x20a3 <printf+0x85>
    28b2: d0 06        	bne	$28ba <printf+0x89c>
    28b4: 8a           	txa
    28b5: d0 03        	bne	$28ba <printf+0x89c>
    28b7: 4c c9 2b     	jmp	$2bc9 <printf+0xbab>
    28ba: a6 ce        	ldx	$ce                     ; 0x20ce <printf+0xb0>
    28bc: 86 13        	stx	$13                     ; 0x2013 <_ZN12_GLOBAL__N_112print_stringEPKcP6Status+0x102>
    28be: a5 cf        	lda	$cf                     ; 0x20cf <printf+0xb1>
    28c0: 80 4f        	bra	$2911 <printf+0x8f3>
    28c2: c5 cd        	cmp	$cd                     ; 0x20cd <printf+0xaf>
    28c4: b0 24        	bcs	$28ea <printf+0x8cc>
    28c6: a6 d9        	ldx	$d9                     ; 0x20d9 <printf+0xbb>
    28c8: e4 9c        	cpx	$9c                     ; 0x209c <printf+0x7e>
    28ca: d0 19        	bne	$28e5 <printf+0x8c7>
    28cc: a6 d8        	ldx	$d8                     ; 0x20d8 <printf+0xba>
    28ce: e4 9b        	cpx	$9b                     ; 0x209b <printf+0x7d>
    28d0: d0 13        	bne	$28e5 <printf+0x8c7>
    28d2: 18           	clc
    28d3: aa           	tax
    28d4: a5 13        	lda	$13                     ; 0x2013 <_ZN12_GLOBAL__N_112print_stringEPKcP6Status+0x102>
    28d6: 65 d2        	adc	$d2                     ; 0x20d2 <printf+0xb4>
    28d8: 85 12        	sta	$12                     ; 0x2012 <_ZN12_GLOBAL__N_112print_stringEPKcP6Status+0x101>
    28da: 8a           	txa
    28db: 65 d3        	adc	$d3                     ; 0x20d3 <printf+0xb5>
    28dd: 85 13        	sta	$13                     ; 0x2013 <_ZN12_GLOBAL__N_112print_stringEPKcP6Status+0x102>
    28df: a9 30        	lda	#$30
    28e1: 92 12        	sta	($12)                   ; 0x2012 <_ZN12_GLOBAL__N_112print_stringEPKcP6Status+0x101>
    28e3: 80 05        	bra	$28ea <printf+0x8cc>
    28e5: a9 30        	lda	#$30
    28e7: 20 6b 1c     	jsr	$1c6b <__putchar>
    28ea: a6 ce        	ldx	$ce                     ; 0x20ce <printf+0xb0>
    28ec: a5 cf        	lda	$cf                     ; 0x20cf <printf+0xb1>
    28ee: e8           	inx
    28ef: d0 01        	bne	$28f2 <printf+0x8d4>
    28f1: 1a           	inc
    28f2: 86 13        	stx	$13                     ; 0x2013 <_ZN12_GLOBAL__N_112print_stringEPKcP6Status+0x102>
    28f4: 86 ce        	stx	$ce                     ; 0x20ce <printf+0xb0>
    28f6: 85 cf        	sta	$cf                     ; 0x20cf <printf+0xb1>
    28f8: a4 a4        	ldy	$a4                     ; 0x20a4 <printf+0x86>
    28fa: a6 a3        	ldx	$a3                     ; 0x20a3 <printf+0x85>
    28fc: 86 12        	stx	$12                     ; 0x2012 <_ZN12_GLOBAL__N_112print_stringEPKcP6Status+0x101>
    28fe: 88           	dey
    28ff: c0 ff        	cpy	#$ff
    2901: d0 02        	bne	$2905 <printf+0x8e7>
    2903: c6 12        	dec	$12                     ; 0x2012 <_ZN12_GLOBAL__N_112print_stringEPKcP6Status+0x101>
    2905: 84 a4        	sty	$a4                     ; 0x20a4 <printf+0x86>
    2907: a6 12        	ldx	$12                     ; 0x2012 <_ZN12_GLOBAL__N_112print_stringEPKcP6Status+0x101>
    2909: 86 a3        	stx	$a3                     ; 0x20a3 <printf+0x85>
    290b: d0 04        	bne	$2911 <printf+0x8f3>
    290d: c0 00        	cpy	#$0
    290f: f0 14        	beq	$2925 <printf+0x907>
    2911: c5 cd        	cmp	$cd                     ; 0x20cd <printf+0xaf>
    2913: f0 03        	beq	$2918 <printf+0x8fa>
    2915: 4c c2 28     	jmp	$28c2 <printf+0x8a4>
    2918: a6 cc        	ldx	$cc                     ; 0x20cc <printf+0xae>
    291a: 86 12        	stx	$12                     ; 0x2012 <_ZN12_GLOBAL__N_112print_stringEPKcP6Status+0x101>
    291c: a6 13        	ldx	$13                     ; 0x2013 <_ZN12_GLOBAL__N_112print_stringEPKcP6Status+0x102>
    291e: e4 12        	cpx	$12                     ; 0x2012 <_ZN12_GLOBAL__N_112print_stringEPKcP6Status+0x101>
    2920: b0 c8        	bcs	$28ea <printf+0x8cc>
    2922: 4c c6 28     	jmp	$28c6 <printf+0x8a8>
    2925: 64 a4        	stz	$a4                     ; 0x20a4 <printf+0x86>
    2927: 64 a3        	stz	$a3                     ; 0x20a3 <printf+0x85>
    2929: a4 99        	ldy	$99                     ; 0x2099 <printf+0x7b>
    292b: a2 00        	ldx	#$0
    292d: e4 a2        	cpx	$a2                     ; 0x20a2 <printf+0x84>
    292f: d0 07        	bne	$2938 <printf+0x91a>
    2931: c4 a1        	cpy	$a1                     ; 0x20a1 <printf+0x83>
    2933: 90 0a        	bcc	$293f <printf+0x921>
    2935: 4c ad 29     	jmp	$29ad <printf+0x98f>
    2938: e4 a2        	cpx	$a2                     ; 0x20a2 <printf+0x84>
    293a: 90 03        	bcc	$293f <printf+0x921>
    293c: 4c ad 29     	jmp	$29ad <printf+0x98f>
    293f: a6 ce        	ldx	$ce                     ; 0x20ce <printf+0xb0>
    2941: 86 13        	stx	$13                     ; 0x2013 <_ZN12_GLOBAL__N_112print_stringEPKcP6Status+0x102>
    2943: a5 cf        	lda	$cf                     ; 0x20cf <printf+0xb1>
    2945: a2 ff        	ldx	#$ff
    2947: c6 a1        	dec	$a1                     ; 0x20a1 <printf+0x83>
    2949: e4 a1        	cpx	$a1                     ; 0x20a1 <printf+0x83>
    294b: d0 02        	bne	$294f <printf+0x931>
    294d: c6 a2        	dec	$a2                     ; 0x20a2 <printf+0x84>
    294f: c5 cd        	cmp	$cd                     ; 0x20cd <printf+0xaf>
    2951: d0 0c        	bne	$295f <printf+0x941>
    2953: a6 cc        	ldx	$cc                     ; 0x20cc <printf+0xae>
    2955: 86 12        	stx	$12                     ; 0x2012 <_ZN12_GLOBAL__N_112print_stringEPKcP6Status+0x101>
    2957: a6 13        	ldx	$13                     ; 0x2013 <_ZN12_GLOBAL__N_112print_stringEPKcP6Status+0x102>
    2959: e4 12        	cpx	$12                     ; 0x2012 <_ZN12_GLOBAL__N_112print_stringEPKcP6Status+0x101>
    295b: 90 06        	bcc	$2963 <printf+0x945>
    295d: 80 28        	bra	$2987 <printf+0x969>
    295f: c5 cd        	cmp	$cd                     ; 0x20cd <printf+0xaf>
    2961: b0 24        	bcs	$2987 <printf+0x969>
    2963: a6 d9        	ldx	$d9                     ; 0x20d9 <printf+0xbb>
    2965: e4 9c        	cpx	$9c                     ; 0x209c <printf+0x7e>
    2967: d0 19        	bne	$2982 <printf+0x964>
    2969: a6 d8        	ldx	$d8                     ; 0x20d8 <printf+0xba>
    296b: e4 9b        	cpx	$9b                     ; 0x209b <printf+0x7d>
    296d: d0 13        	bne	$2982 <printf+0x964>
    296f: 18           	clc
    2970: aa           	tax
    2971: a5 13        	lda	$13                     ; 0x2013 <_ZN12_GLOBAL__N_112print_stringEPKcP6Status+0x102>
    2973: 65 d2        	adc	$d2                     ; 0x20d2 <printf+0xb4>
    2975: 85 12        	sta	$12                     ; 0x2012 <_ZN12_GLOBAL__N_112print_stringEPKcP6Status+0x101>
    2977: 8a           	txa
    2978: 65 d3        	adc	$d3                     ; 0x20d3 <printf+0xb5>
    297a: 85 13        	sta	$13                     ; 0x2013 <_ZN12_GLOBAL__N_112print_stringEPKcP6Status+0x102>
    297c: a9 30        	lda	#$30
    297e: 92 12        	sta	($12)                   ; 0x2012 <_ZN12_GLOBAL__N_112print_stringEPKcP6Status+0x101>
    2980: 80 05        	bra	$2987 <printf+0x969>
    2982: a9 30        	lda	#$30
    2984: 20 6b 1c     	jsr	$1c6b <__putchar>
    2987: a6 ce        	ldx	$ce                     ; 0x20ce <printf+0xb0>
    2989: a5 cf        	lda	$cf                     ; 0x20cf <printf+0xb1>
    298b: e8           	inx
    298c: d0 01        	bne	$298f <printf+0x971>
    298e: 1a           	inc
    298f: 86 13        	stx	$13                     ; 0x2013 <_ZN12_GLOBAL__N_112print_stringEPKcP6Status+0x102>
    2991: 86 ce        	stx	$ce                     ; 0x20ce <printf+0xb0>
    2993: 85 cf        	sta	$cf                     ; 0x20cf <printf+0xb1>
    2995: a2 00        	ldx	#$0
    2997: e4 a2        	cpx	$a2                     ; 0x20a2 <printf+0x84>
    2999: d0 09        	bne	$29a4 <printf+0x986>
    299b: a4 99        	ldy	$99                     ; 0x2099 <printf+0x7b>
    299d: c4 a1        	cpy	$a1                     ; 0x20a1 <printf+0x83>
    299f: b0 0c        	bcs	$29ad <printf+0x98f>
    29a1: 4c 45 29     	jmp	$2945 <printf+0x927>
    29a4: e4 a2        	cpx	$a2                     ; 0x20a2 <printf+0x84>
    29a6: a4 99        	ldy	$99                     ; 0x2099 <printf+0x7b>
    29a8: b0 03        	bcs	$29ad <printf+0x98f>
    29aa: 4c 45 29     	jmp	$2945 <printf+0x927>
    29ad: 98           	tya
    29ae: d0 03        	bne	$29b3 <printf+0x995>
    29b0: 4c a2 2a     	jmp	$2aa2 <printf+0xa84>
    29b3: 88           	dey
    29b4: d0 03        	bne	$29b9 <printf+0x99b>
    29b6: 4c 41 2a     	jmp	$2a41 <printf+0xa23>
    29b9: 84 a1        	sty	$a1                     ; 0x20a1 <printf+0x83>
    29bb: a6 e4        	ldx	$e4                     ; 0x20e4 <printf+0xc6>
    29bd: 8a           	txa
    29be: 18           	clc
    29bf: 65 a1        	adc	$a1                     ; 0x20a1 <printf+0x83>
    29c1: 85 99        	sta	$99                     ; 0x2099 <printf+0x7b>
    29c3: a5 e5        	lda	$e5                     ; 0x20e5 <printf+0xc7>
    29c5: 69 00        	adc	#$0
    29c7: 85 9a        	sta	$9a                     ; 0x209a <printf+0x7c>
    29c9: 4c 33 2a     	jmp	$2a33 <printf+0xa15>
    29cc: a8           	tay
    29cd: a9 80        	lda	#$80
    29cf: 25 ca        	and	$ca                     ; 0x20ca <printf+0xac>
    29d1: f0 04        	beq	$29d7 <printf+0x9b9>
    29d3: a2 61        	ldx	#$61
    29d5: 80 02        	bra	$29d9 <printf+0x9bb>
    29d7: a2 41        	ldx	#$41
    29d9: 86 12        	stx	$12                     ; 0x2012 <_ZN12_GLOBAL__N_112print_stringEPKcP6Status+0x101>
    29db: 18           	clc
    29dc: 98           	tya
    29dd: 65 12        	adc	$12                     ; 0x2012 <_ZN12_GLOBAL__N_112print_stringEPKcP6Status+0x101>
    29df: 18           	clc
    29e0: 69 f6        	adc	#$f6
    29e2: a4 ce        	ldy	$ce                     ; 0x20ce <printf+0xb0>
    29e4: a6 cf        	ldx	$cf                     ; 0x20cf <printf+0xb1>
    29e6: e4 cd        	cpx	$cd                     ; 0x20cd <printf+0xaf>
    29e8: d0 0c        	bne	$29f6 <printf+0x9d8>
    29ea: 86 14        	stx	$14                     ; 0x2014 <_ZN12_GLOBAL__N_112print_stringEPKcP6Status+0x103>
    29ec: a6 cc        	ldx	$cc                     ; 0x20cc <printf+0xae>
    29ee: 86 12        	stx	$12                     ; 0x2012 <_ZN12_GLOBAL__N_112print_stringEPKcP6Status+0x101>
    29f0: c4 12        	cpy	$12                     ; 0x2012 <_ZN12_GLOBAL__N_112print_stringEPKcP6Status+0x101>
    29f2: 90 08        	bcc	$29fc <printf+0x9de>
    29f4: 80 27        	bra	$2a1d <printf+0x9ff>
    29f6: 86 14        	stx	$14                     ; 0x2014 <_ZN12_GLOBAL__N_112print_stringEPKcP6Status+0x103>
    29f8: e4 cd        	cpx	$cd                     ; 0x20cd <printf+0xaf>
    29fa: b0 21        	bcs	$2a1d <printf+0x9ff>
    29fc: a6 d9        	ldx	$d9                     ; 0x20d9 <printf+0xbb>
    29fe: e4 9c        	cpx	$9c                     ; 0x209c <printf+0x7e>
    2a00: d0 18        	bne	$2a1a <printf+0x9fc>
    2a02: a6 d8        	ldx	$d8                     ; 0x20d8 <printf+0xba>
    2a04: e4 9b        	cpx	$9b                     ; 0x209b <printf+0x7d>
    2a06: d0 12        	bne	$2a1a <printf+0x9fc>
    2a08: 18           	clc
    2a09: aa           	tax
    2a0a: 98           	tya
    2a0b: 65 d2        	adc	$d2                     ; 0x20d2 <printf+0xb4>
    2a0d: 85 12        	sta	$12                     ; 0x2012 <_ZN12_GLOBAL__N_112print_stringEPKcP6Status+0x101>
    2a0f: a5 14        	lda	$14                     ; 0x2014 <_ZN12_GLOBAL__N_112print_stringEPKcP6Status+0x103>
    2a11: 65 d3        	adc	$d3                     ; 0x20d3 <printf+0xb5>
    2a13: 85 13        	sta	$13                     ; 0x2013 <_ZN12_GLOBAL__N_112print_stringEPKcP6Status+0x102>
    2a15: 8a           	txa
    2a16: 92 12        	sta	($12)                   ; 0x2012 <_ZN12_GLOBAL__N_112print_stringEPKcP6Status+0x101>
    2a18: 80 03        	bra	$2a1d <printf+0x9ff>
    2a1a: 20 6b 1c     	jsr	$1c6b <__putchar>
    2a1d: e6 ce        	inc	$ce                     ; 0x20ce <printf+0xb0>
    2a1f: d0 02        	bne	$2a23 <printf+0xa05>
    2a21: e6 cf        	inc	$cf                     ; 0x20cf <printf+0xb1>
    2a23: c6 a1        	dec	$a1                     ; 0x20a1 <printf+0x83>
    2a25: a2 ff        	ldx	#$ff
    2a27: c6 99        	dec	$99                     ; 0x2099 <printf+0x7b>
    2a29: e4 99        	cpx	$99                     ; 0x2099 <printf+0x7b>
    2a2b: d0 02        	bne	$2a2f <printf+0xa11>
    2a2d: c6 9a        	dec	$9a                     ; 0x209a <printf+0x7c>
    2a2f: a5 a1        	lda	$a1                     ; 0x20a1 <printf+0x83>
    2a31: f0 0e        	beq	$2a41 <printf+0xa23>
    2a33: b2 99        	lda	($99)                   ; 0x2099 <printf+0x7b>
    2a35: c9 0a        	cmp	#$a
    2a37: 90 03        	bcc	$2a3c <printf+0xa1e>
    2a39: 4c cc 29     	jmp	$29cc <printf+0x9ae>
    2a3c: 09 30        	ora	#$30
    2a3e: 4c e2 29     	jmp	$29e2 <printf+0x9c4>
    2a41: a5 a7        	lda	$a7                     ; 0x20a7 <printf+0x89>
    2a43: c9 0a        	cmp	#$a
    2a45: b0 04        	bcs	$2a4b <printf+0xa2d>
    2a47: 09 30        	ora	#$30
    2a49: 80 16        	bra	$2a61 <printf+0xa43>
    2a4b: a8           	tay
    2a4c: a9 80        	lda	#$80
    2a4e: 25 ca        	and	$ca                     ; 0x20ca <printf+0xac>
    2a50: f0 04        	beq	$2a56 <printf+0xa38>
    2a52: a2 61        	ldx	#$61
    2a54: 80 02        	bra	$2a58 <printf+0xa3a>
    2a56: a2 41        	ldx	#$41
    2a58: 86 12        	stx	$12                     ; 0x2012 <_ZN12_GLOBAL__N_112print_stringEPKcP6Status+0x101>
    2a5a: 18           	clc
    2a5b: 98           	tya
    2a5c: 65 12        	adc	$12                     ; 0x2012 <_ZN12_GLOBAL__N_112print_stringEPKcP6Status+0x101>
    2a5e: 18           	clc
    2a5f: 69 f6        	adc	#$f6
    2a61: a4 ce        	ldy	$ce                     ; 0x20ce <printf+0xb0>
    2a63: a6 cf        	ldx	$cf                     ; 0x20cf <printf+0xb1>
    2a65: e4 cd        	cpx	$cd                     ; 0x20cd <printf+0xaf>
    2a67: d0 0c        	bne	$2a75 <printf+0xa57>
    2a69: 86 14        	stx	$14                     ; 0x2014 <_ZN12_GLOBAL__N_112print_stringEPKcP6Status+0x103>
    2a6b: a6 cc        	ldx	$cc                     ; 0x20cc <printf+0xae>
    2a6d: 86 12        	stx	$12                     ; 0x2012 <_ZN12_GLOBAL__N_112print_stringEPKcP6Status+0x101>
    2a6f: c4 12        	cpy	$12                     ; 0x2012 <_ZN12_GLOBAL__N_112print_stringEPKcP6Status+0x101>
    2a71: 90 08        	bcc	$2a7b <printf+0xa5d>
    2a73: 80 27        	bra	$2a9c <printf+0xa7e>
    2a75: 86 14        	stx	$14                     ; 0x2014 <_ZN12_GLOBAL__N_112print_stringEPKcP6Status+0x103>
    2a77: e4 cd        	cpx	$cd                     ; 0x20cd <printf+0xaf>
    2a79: b0 21        	bcs	$2a9c <printf+0xa7e>
    2a7b: a6 d9        	ldx	$d9                     ; 0x20d9 <printf+0xbb>
    2a7d: e4 9c        	cpx	$9c                     ; 0x209c <printf+0x7e>
    2a7f: d0 18        	bne	$2a99 <printf+0xa7b>
    2a81: a6 d8        	ldx	$d8                     ; 0x20d8 <printf+0xba>
    2a83: e4 9b        	cpx	$9b                     ; 0x209b <printf+0x7d>
    2a85: d0 12        	bne	$2a99 <printf+0xa7b>
    2a87: 18           	clc
    2a88: aa           	tax
    2a89: 98           	tya
    2a8a: 65 d2        	adc	$d2                     ; 0x20d2 <printf+0xb4>
    2a8c: 85 12        	sta	$12                     ; 0x2012 <_ZN12_GLOBAL__N_112print_stringEPKcP6Status+0x101>
    2a8e: a5 14        	lda	$14                     ; 0x2014 <_ZN12_GLOBAL__N_112print_stringEPKcP6Status+0x103>
    2a90: 65 d3        	adc	$d3                     ; 0x20d3 <printf+0xb5>
    2a92: 85 13        	sta	$13                     ; 0x2013 <_ZN12_GLOBAL__N_112print_stringEPKcP6Status+0x102>
    2a94: 8a           	txa
    2a95: 92 12        	sta	($12)                   ; 0x2012 <_ZN12_GLOBAL__N_112print_stringEPKcP6Status+0x101>
    2a97: 80 03        	bra	$2a9c <printf+0xa7e>
    2a99: 20 6b 1c     	jsr	$1c6b <__putchar>
    2a9c: e6 ce        	inc	$ce                     ; 0x20ce <printf+0xb0>
    2a9e: d0 02        	bne	$2aa2 <printf+0xa84>
    2aa0: e6 cf        	inc	$cf                     ; 0x20cf <printf+0xb1>
    2aa2: a9 01        	lda	#$1
    2aa4: 25 ca        	and	$ca                     ; 0x20ca <printf+0xac>
    2aa6: 29 01        	and	#$1
    2aa8: d0 1e        	bne	$2ac8 <printf+0xaaa>
    2aaa: a6 ce        	ldx	$ce                     ; 0x20ce <printf+0xb0>
    2aac: 86 14        	stx	$14                     ; 0x2014 <_ZN12_GLOBAL__N_112print_stringEPKcP6Status+0x103>
    2aae: a5 cf        	lda	$cf                     ; 0x20cf <printf+0xb1>
    2ab0: a4 cc        	ldy	$cc                     ; 0x20cc <printf+0xae>
    2ab2: a6 cd        	ldx	$cd                     ; 0x20cd <printf+0xaf>
    2ab4: 86 12        	stx	$12                     ; 0x2012 <_ZN12_GLOBAL__N_112print_stringEPKcP6Status+0x101>
    2ab6: 86 13        	stx	$13                     ; 0x2013 <_ZN12_GLOBAL__N_112print_stringEPKcP6Status+0x102>
    2ab8: c5 12        	cmp	$12                     ; 0x2012 <_ZN12_GLOBAL__N_112print_stringEPKcP6Status+0x101>
    2aba: f0 03        	beq	$2abf <printf+0xaa1>
    2abc: 4c 4b 2b     	jmp	$2b4b <printf+0xb2d>
    2abf: 84 12        	sty	$12                     ; 0x2012 <_ZN12_GLOBAL__N_112print_stringEPKcP6Status+0x101>
    2ac1: a6 14        	ldx	$14                     ; 0x2014 <_ZN12_GLOBAL__N_112print_stringEPKcP6Status+0x103>
    2ac3: e4 12        	cpx	$12                     ; 0x2012 <_ZN12_GLOBAL__N_112print_stringEPKcP6Status+0x101>
    2ac5: 4c 4f 2b     	jmp	$2b4f <printf+0xb31>
    2ac8: a6 ce        	ldx	$ce                     ; 0x20ce <printf+0xb0>
    2aca: 86 14        	stx	$14                     ; 0x2014 <_ZN12_GLOBAL__N_112print_stringEPKcP6Status+0x103>
    2acc: a5 cf        	lda	$cf                     ; 0x20cf <printf+0xb1>
    2ace: a6 a4        	ldx	$a4                     ; 0x20a4 <printf+0x86>
    2ad0: a4 a3        	ldy	$a3                     ; 0x20a3 <printf+0x85>
    2ad2: f0 03        	beq	$2ad7 <printf+0xab9>
    2ad4: 4c 37 2b     	jmp	$2b37 <printf+0xb19>
    2ad7: e0 00        	cpx	#$0
    2ad9: f0 d5        	beq	$2ab0 <printf+0xa92>
    2adb: 4c 37 2b     	jmp	$2b37 <printf+0xb19>
    2ade: c5 cd        	cmp	$cd                     ; 0x20cd <printf+0xaf>
    2ae0: b0 24        	bcs	$2b06 <printf+0xae8>
    2ae2: a6 d9        	ldx	$d9                     ; 0x20d9 <printf+0xbb>
    2ae4: e4 9c        	cpx	$9c                     ; 0x209c <printf+0x7e>
    2ae6: d0 19        	bne	$2b01 <printf+0xae3>
    2ae8: a6 d8        	ldx	$d8                     ; 0x20d8 <printf+0xba>
    2aea: e4 9b        	cpx	$9b                     ; 0x209b <printf+0x7d>
    2aec: d0 13        	bne	$2b01 <printf+0xae3>
    2aee: 18           	clc
    2aef: aa           	tax
    2af0: a5 14        	lda	$14                     ; 0x2014 <_ZN12_GLOBAL__N_112print_stringEPKcP6Status+0x103>
    2af2: 65 d2        	adc	$d2                     ; 0x20d2 <printf+0xb4>
    2af4: 85 12        	sta	$12                     ; 0x2012 <_ZN12_GLOBAL__N_112print_stringEPKcP6Status+0x101>
    2af6: 8a           	txa
    2af7: 65 d3        	adc	$d3                     ; 0x20d3 <printf+0xb5>
    2af9: 85 13        	sta	$13                     ; 0x2013 <_ZN12_GLOBAL__N_112print_stringEPKcP6Status+0x102>
    2afb: a9 20        	lda	#$20
    2afd: 92 12        	sta	($12)                   ; 0x2012 <_ZN12_GLOBAL__N_112print_stringEPKcP6Status+0x101>
    2aff: 80 05        	bra	$2b06 <printf+0xae8>
    2b01: a9 20        	lda	#$20
    2b03: 20 6b 1c     	jsr	$1c6b <__putchar>
    2b06: a6 ce        	ldx	$ce                     ; 0x20ce <printf+0xb0>
    2b08: a5 cf        	lda	$cf                     ; 0x20cf <printf+0xb1>
    2b0a: e8           	inx
    2b0b: d0 01        	bne	$2b0e <printf+0xaf0>
    2b0d: 1a           	inc
    2b0e: 86 14        	stx	$14                     ; 0x2014 <_ZN12_GLOBAL__N_112print_stringEPKcP6Status+0x103>
    2b10: 86 ce        	stx	$ce                     ; 0x20ce <printf+0xb0>
    2b12: 85 cf        	sta	$cf                     ; 0x20cf <printf+0xb1>
    2b14: a6 a4        	ldx	$a4                     ; 0x20a4 <printf+0x86>
    2b16: 86 12        	stx	$12                     ; 0x2012 <_ZN12_GLOBAL__N_112print_stringEPKcP6Status+0x101>
    2b18: a6 a3        	ldx	$a3                     ; 0x20a3 <printf+0x85>
    2b1a: 86 13        	stx	$13                     ; 0x2013 <_ZN12_GLOBAL__N_112print_stringEPKcP6Status+0x102>
    2b1c: a2 ff        	ldx	#$ff
    2b1e: c6 12        	dec	$12                     ; 0x2012 <_ZN12_GLOBAL__N_112print_stringEPKcP6Status+0x101>
    2b20: e4 12        	cpx	$12                     ; 0x2012 <_ZN12_GLOBAL__N_112print_stringEPKcP6Status+0x101>
    2b22: d0 02        	bne	$2b26 <printf+0xb08>
    2b24: c6 13        	dec	$13                     ; 0x2013 <_ZN12_GLOBAL__N_112print_stringEPKcP6Status+0x102>
    2b26: a6 12        	ldx	$12                     ; 0x2012 <_ZN12_GLOBAL__N_112print_stringEPKcP6Status+0x101>
    2b28: 86 a4        	stx	$a4                     ; 0x20a4 <printf+0x86>
    2b2a: a6 13        	ldx	$13                     ; 0x2013 <_ZN12_GLOBAL__N_112print_stringEPKcP6Status+0x102>
    2b2c: 86 a3        	stx	$a3                     ; 0x20a3 <printf+0x85>
    2b2e: d0 07        	bne	$2b37 <printf+0xb19>
    2b30: a6 12        	ldx	$12                     ; 0x2012 <_ZN12_GLOBAL__N_112print_stringEPKcP6Status+0x101>
    2b32: d0 03        	bne	$2b37 <printf+0xb19>
    2b34: 4c b0 2a     	jmp	$2ab0 <printf+0xa92>
    2b37: c5 cd        	cmp	$cd                     ; 0x20cd <printf+0xaf>
    2b39: f0 03        	beq	$2b3e <printf+0xb20>
    2b3b: 4c de 2a     	jmp	$2ade <printf+0xac0>
    2b3e: a6 cc        	ldx	$cc                     ; 0x20cc <printf+0xae>
    2b40: 86 12        	stx	$12                     ; 0x2012 <_ZN12_GLOBAL__N_112print_stringEPKcP6Status+0x101>
    2b42: a6 14        	ldx	$14                     ; 0x2014 <_ZN12_GLOBAL__N_112print_stringEPKcP6Status+0x103>
    2b44: e4 12        	cpx	$12                     ; 0x2012 <_ZN12_GLOBAL__N_112print_stringEPKcP6Status+0x101>
    2b46: b0 be        	bcs	$2b06 <printf+0xae8>
    2b48: 4c e2 2a     	jmp	$2ae2 <printf+0xac4>
    2b4b: 86 12        	stx	$12                     ; 0x2012 <_ZN12_GLOBAL__N_112print_stringEPKcP6Status+0x101>
    2b4d: c5 12        	cmp	$12                     ; 0x2012 <_ZN12_GLOBAL__N_112print_stringEPKcP6Status+0x101>
    2b4f: 98           	tya
    2b50: a0 01        	ldy	#$1
    2b52: 90 20        	bcc	$2b74 <printf+0xb56>
    2b54: a6 13        	ldx	$13                     ; 0x2013 <_ZN12_GLOBAL__N_112print_stringEPKcP6Status+0x102>
    2b56: d0 03        	bne	$2b5b <printf+0xb3d>
    2b58: aa           	tax
    2b59: f0 19        	beq	$2b74 <printf+0xb56>
    2b5b: 18           	clc
    2b5c: 65 d2        	adc	$d2                     ; 0x20d2 <printf+0xb4>
    2b5e: 85 12        	sta	$12                     ; 0x2012 <_ZN12_GLOBAL__N_112print_stringEPKcP6Status+0x101>
    2b60: a5 13        	lda	$13                     ; 0x2013 <_ZN12_GLOBAL__N_112print_stringEPKcP6Status+0x102>
    2b62: 65 d3        	adc	$d3                     ; 0x20d3 <printf+0xb5>
    2b64: 85 13        	sta	$13                     ; 0x2013 <_ZN12_GLOBAL__N_112print_stringEPKcP6Status+0x102>
    2b66: a2 ff        	ldx	#$ff
    2b68: c6 12        	dec	$12                     ; 0x2012 <_ZN12_GLOBAL__N_112print_stringEPKcP6Status+0x101>
    2b6a: e4 12        	cpx	$12                     ; 0x2012 <_ZN12_GLOBAL__N_112print_stringEPKcP6Status+0x101>
    2b6c: d0 02        	bne	$2b70 <printf+0xb52>
    2b6e: c6 13        	dec	$13                     ; 0x2013 <_ZN12_GLOBAL__N_112print_stringEPKcP6Status+0x102>
    2b70: a9 00        	lda	#$0
    2b72: 92 12        	sta	($12)                   ; 0x2012 <_ZN12_GLOBAL__N_112print_stringEPKcP6Status+0x101>
    2b74: e6 9f        	inc	$9f                     ; 0x209f <printf+0x81>
    2b76: d0 02        	bne	$2b7a <printf+0xb5c>
    2b78: e6 a0        	inc	$a0                     ; 0x20a0 <printf+0x82>
    2b7a: a6 a0        	ldx	$a0                     ; 0x20a0 <printf+0x82>
    2b7c: e4 9e        	cpx	$9e                     ; 0x209e <printf+0x80>
    2b7e: f0 03        	beq	$2b83 <printf+0xb65>
    2b80: 4c 83 20     	jmp	$2083 <printf+0x65>
    2b83: a6 9f        	ldx	$9f                     ; 0x209f <printf+0x81>
    2b85: e4 9d        	cpx	$9d                     ; 0x209d <printf+0x7f>
    2b87: f0 03        	beq	$2b8c <printf+0xb6e>
    2b89: 4c 83 20     	jmp	$2083 <printf+0x65>
    2b8c: b2 9d        	lda	($9d)                   ; 0x209d <printf+0x7f>
    2b8e: a2 00        	ldx	#$0
    2b90: 86 9b        	stx	$9b                     ; 0x209b <printf+0x7d>
    2b92: a2 00        	ldx	#$0
    2b94: 86 9c        	stx	$9c                     ; 0x209c <printf+0x7e>
    2b96: 4c 97 20     	jmp	$2097 <printf+0x79>
    2b99: e4 a2        	cpx	$a2                     ; 0x20a2 <printf+0x84>
    2b9b: a6 9a        	ldx	$9a                     ; 0x209a <printf+0x7c>
    2b9d: b0 03        	bcs	$2ba2 <printf+0xb84>
    2b9f: 4c c3 26     	jmp	$26c3 <printf+0x6a5>
    2ba2: a5 99        	lda	$99                     ; 0x2099 <printf+0x7b>
    2ba4: 85 a1        	sta	$a1                     ; 0x20a1 <printf+0x83>
    2ba6: 64 a2        	stz	$a2                     ; 0x20a2 <printf+0x84>
    2ba8: e6 a1        	inc	$a1                     ; 0x20a1 <printf+0x83>
    2baa: f0 03        	beq	$2baf <printf+0xb91>
    2bac: 4c c3 26     	jmp	$26c3 <printf+0x6a5>
    2baf: e6 a2        	inc	$a2                     ; 0x20a2 <printf+0x84>
    2bb1: 4c c3 26     	jmp	$26c3 <printf+0x6a5>
    2bb4: a2 58        	ldx	#$58
    2bb6: 86 e3        	stx	$e3                     ; 0x20e3 <printf+0xc5>
    2bb8: a2 01        	ldx	#$1
    2bba: 86 de        	stx	$de                     ; 0x20de <printf+0xc0>
    2bbc: a2 30        	ldx	#$30
    2bbe: 86 e0        	stx	$e0                     ; 0x20e0 <printf+0xc2>
    2bc0: a9 02        	lda	#$2
    2bc2: a2 00        	ldx	#$0
    2bc4: 86 df        	stx	$df                     ; 0x20df <printf+0xc1>
    2bc6: 4c 04 27     	jmp	$2704 <printf+0x6e6>
    2bc9: 64 a4        	stz	$a4                     ; 0x20a4 <printf+0x86>
    2bcb: 64 a3        	stz	$a3                     ; 0x20a3 <printf+0x85>
    2bcd: 4c 2b 29     	jmp	$292b <printf+0x90d>
    2bd0: 60           	rts

00002bd1 <malloc>:
    2bd1: a8           	tay
    2bd2: 8a           	txa
    2bd3: a2 00        	ldx	#$0
    2bd5: 86 12        	stx	$12                     ; 0x2012 <_ZN12_GLOBAL__N_112print_stringEPKcP6Status+0x101>
    2bd7: a2 00        	ldx	#$0
    2bd9: 86 13        	stx	$13                     ; 0x2013 <_ZN12_GLOBAL__N_112print_stringEPKcP6Status+0x102>
    2bdb: aa           	tax
    2bdc: d0 07        	bne	$2be5 <malloc+0x14>
    2bde: c0 00        	cpy	#$0
    2be0: d0 03        	bne	$2be5 <malloc+0x14>
    2be2: 4c df 2c     	jmp	$2cdf <malloc+0x10e>
    2be5: 84 16        	sty	$16                     ; 0x2016 <_ZN12_GLOBAL__N_112print_stringEPKcP6Status+0x105>
    2be7: aa           	tax
    2be8: d0 0e        	bne	$2bf8 <malloc+0x27>
    2bea: a6 16        	ldx	$16                     ; 0x2016 <_ZN12_GLOBAL__N_112print_stringEPKcP6Status+0x105>
    2bec: e0 07        	cpx	#$7
    2bee: b0 0c        	bcs	$2bfc <malloc+0x2b>
    2bf0: a2 08        	ldx	#$8
    2bf2: 86 91        	stx	$91                     ; 0x2091 <printf+0x73>
    2bf4: a9 00        	lda	#$0
    2bf6: 80 2f        	bra	$2c27 <malloc+0x56>
    2bf8: c9 00        	cmp	#$0
    2bfa: 90 f4        	bcc	$2bf0 <malloc+0x1f>
    2bfc: a8           	tay
    2bfd: a5 16        	lda	$16                     ; 0x2016 <_ZN12_GLOBAL__N_112print_stringEPKcP6Status+0x105>
    2bff: 29 01        	and	#$1
    2c01: a2 02        	ldx	#$2
    2c03: 64 14        	stz	$14                     ; 0x2014 <_ZN12_GLOBAL__N_112print_stringEPKcP6Status+0x103>
    2c05: c9 00        	cmp	#$0
    2c07: f0 02        	beq	$2c0b <malloc+0x3a>
    2c09: a2 03        	ldx	#$3
    2c0b: 86 15        	stx	$15                     ; 0x2015 <_ZN12_GLOBAL__N_112print_stringEPKcP6Status+0x104>
    2c0d: 18           	clc
    2c0e: a5 16        	lda	$16                     ; 0x2016 <_ZN12_GLOBAL__N_112print_stringEPKcP6Status+0x105>
    2c10: 65 15        	adc	$15                     ; 0x2015 <_ZN12_GLOBAL__N_112print_stringEPKcP6Status+0x104>
    2c12: aa           	tax
    2c13: 98           	tya
    2c14: 65 14        	adc	$14                     ; 0x2014 <_ZN12_GLOBAL__N_112print_stringEPKcP6Status+0x103>
    2c16: 90 03        	bcc	$2c1b <malloc+0x4a>
    2c18: 4c df 2c     	jmp	$2cdf <malloc+0x10e>
    2c1b: 86 91        	stx	$91                     ; 0x2091 <printf+0x73>
    2c1d: a8           	tay
    2c1e: d0 07        	bne	$2c27 <malloc+0x56>
    2c20: e0 00        	cpx	#$0
    2c22: d0 03        	bne	$2c27 <malloc+0x56>
    2c24: 4c df 2c     	jmp	$2cdf <malloc+0x10e>
    2c27: 85 92        	sta	$92                     ; 0x2092 <printf+0x74>
    2c29: a5 83        	lda	$83                     ; 0x2083 <printf+0x65>
    2c2b: 29 01        	and	#$1
    2c2d: d0 29        	bne	$2c58 <malloc+0x87>
    2c2f: a9 00        	lda	#$0
    2c31: a2 10        	ldx	#$10
    2c33: a0 06        	ldy	#$6
    2c35: 84 12        	sty	$12                     ; 0x2012 <_ZN12_GLOBAL__N_112print_stringEPKcP6Status+0x101>
    2c37: a0 56        	ldy	#$56
    2c39: 84 13        	sty	$13                     ; 0x2013 <_ZN12_GLOBAL__N_112print_stringEPKcP6Status+0x102>
    2c3b: 20 1e 03     	jsr	$31e <_ZN12_GLOBAL__N_19FreeChunk6insertEPvj>
    2c3e: a2 00        	ldx	#$0
    2c40: 86 12        	stx	$12                     ; 0x2012 <_ZN12_GLOBAL__N_112print_stringEPKcP6Status+0x101>
    2c42: a2 00        	ldx	#$0
    2c44: 86 13        	stx	$13                     ; 0x2013 <_ZN12_GLOBAL__N_112print_stringEPKcP6Status+0x102>
    2c46: ae 07 56     	ldx	$5607                   ; 0x5607 <__heap_start+0x1>
    2c49: a9 fe        	lda	#$fe
    2c4b: 2d 06 56     	and	$5606                   ; 0x5606 <__heap_start>
    2c4e: 8d 06 56     	sta	$5606                   ; 0x5606 <__heap_start>
    2c51: 8e 07 56     	stx	$5607                   ; 0x5607 <__heap_start+0x1>
    2c54: a2 01        	ldx	#$1
    2c56: 86 83        	stx	$83                     ; 0x2083 <printf+0x65>
    2c58: ad 03 56     	lda	$5603                   ; 0x5603 <_ZN12_GLOBAL__N_19free_listE>
    2c5b: ae 04 56     	ldx	$5604                   ; 0x5604 <_ZN12_GLOBAL__N_19free_listE+0x1>
    2c5e: a0 00        	ldy	#$0
    2c60: 84 14        	sty	$14                     ; 0x2014 <_ZN12_GLOBAL__N_112print_stringEPKcP6Status+0x103>
    2c62: a0 00        	ldy	#$0
    2c64: 84 15        	sty	$15                     ; 0x2015 <_ZN12_GLOBAL__N_112print_stringEPKcP6Status+0x104>
    2c66: 86 1d        	stx	$1d                     ; 0x201d <_ZN12_GLOBAL__N_112print_stringEPKcP6Status+0x10c>
    2c68: e4 15        	cpx	$15                     ; 0x2015 <_ZN12_GLOBAL__N_112print_stringEPKcP6Status+0x104>
    2c6a: d0 07        	bne	$2c73 <malloc+0xa2>
    2c6c: c5 14        	cmp	$14                     ; 0x2014 <_ZN12_GLOBAL__N_112print_stringEPKcP6Status+0x103>
    2c6e: d0 03        	bne	$2c73 <malloc+0xa2>
    2c70: 4c df 2c     	jmp	$2cdf <malloc+0x10e>
    2c73: a0 00        	ldy	#$0
    2c75: a2 10        	ldx	#$10
    2c77: 85 18        	sta	$18                     ; 0x2018 <_ZN12_GLOBAL__N_112print_stringEPKcP6Status+0x107>
    2c79: 84 14        	sty	$14                     ; 0x2014 <_ZN12_GLOBAL__N_112print_stringEPKcP6Status+0x103>
    2c7b: 86 15        	stx	$15                     ; 0x2015 <_ZN12_GLOBAL__N_112print_stringEPKcP6Status+0x104>
    2c7d: 18           	clc
    2c7e: a9 06        	lda	#$6
    2c80: 65 14        	adc	$14                     ; 0x2014 <_ZN12_GLOBAL__N_112print_stringEPKcP6Status+0x103>
    2c82: 85 14        	sta	$14                     ; 0x2014 <_ZN12_GLOBAL__N_112print_stringEPKcP6Status+0x103>
    2c84: a9 56        	lda	#$56
    2c86: 65 15        	adc	$15                     ; 0x2015 <_ZN12_GLOBAL__N_112print_stringEPKcP6Status+0x104>
    2c88: a6 14        	ldx	$14                     ; 0x2014 <_ZN12_GLOBAL__N_112print_stringEPKcP6Status+0x103>
    2c8a: 86 93        	stx	$93                     ; 0x2093 <printf+0x75>
    2c8c: 85 17        	sta	$17                     ; 0x2017 <_ZN12_GLOBAL__N_112print_stringEPKcP6Status+0x106>
    2c8e: a6 18        	ldx	$18                     ; 0x2018 <_ZN12_GLOBAL__N_112print_stringEPKcP6Status+0x107>
    2c90: 86 1c        	stx	$1c                     ; 0x201c <_ZN12_GLOBAL__N_112print_stringEPKcP6Status+0x10b>
    2c92: a6 18        	ldx	$18                     ; 0x2018 <_ZN12_GLOBAL__N_112print_stringEPKcP6Status+0x107>
    2c94: 86 14        	stx	$14                     ; 0x2014 <_ZN12_GLOBAL__N_112print_stringEPKcP6Status+0x103>
    2c96: a6 1d        	ldx	$1d                     ; 0x201d <_ZN12_GLOBAL__N_112print_stringEPKcP6Status+0x10c>
    2c98: 86 15        	stx	$15                     ; 0x2015 <_ZN12_GLOBAL__N_112print_stringEPKcP6Status+0x104>
    2c9a: a0 01        	ldy	#$1
    2c9c: a6 92        	ldx	$92                     ; 0x2092 <printf+0x74>
    2c9e: 86 18        	stx	$18                     ; 0x2018 <_ZN12_GLOBAL__N_112print_stringEPKcP6Status+0x107>
    2ca0: b1 14        	lda	($14),y                 ; 0x2014 <_ZN12_GLOBAL__N_112print_stringEPKcP6Status+0x103>
    2ca2: 85 19        	sta	$19                     ; 0x2019 <_ZN12_GLOBAL__N_112print_stringEPKcP6Status+0x108>
    2ca4: aa           	tax
    2ca5: a9 fe        	lda	#$fe
    2ca7: 32 14        	and	($14)                   ; 0x2014 <_ZN12_GLOBAL__N_112print_stringEPKcP6Status+0x103>
    2ca9: 85 1a        	sta	$1a                     ; 0x201a <_ZN12_GLOBAL__N_112print_stringEPKcP6Status+0x109>
    2cab: e4 18        	cpx	$18                     ; 0x2018 <_ZN12_GLOBAL__N_112print_stringEPKcP6Status+0x107>
    2cad: d0 0a        	bne	$2cb9 <malloc+0xe8>
    2caf: a6 91        	ldx	$91                     ; 0x2091 <printf+0x73>
    2cb1: 86 1b        	stx	$1b                     ; 0x201b <_ZN12_GLOBAL__N_112print_stringEPKcP6Status+0x10a>
    2cb3: c5 1b        	cmp	$1b                     ; 0x201b <_ZN12_GLOBAL__N_112print_stringEPKcP6Status+0x10a>
    2cb5: b0 29        	bcs	$2ce0 <malloc+0x10f>
    2cb7: 80 04        	bra	$2cbd <malloc+0xec>
    2cb9: e4 18        	cpx	$18                     ; 0x2018 <_ZN12_GLOBAL__N_112print_stringEPKcP6Status+0x107>
    2cbb: b0 23        	bcs	$2ce0 <malloc+0x10f>
    2cbd: a5 14        	lda	$14                     ; 0x2014 <_ZN12_GLOBAL__N_112print_stringEPKcP6Status+0x103>
    2cbf: 18           	clc
    2cc0: 69 02        	adc	#$2
    2cc2: 85 1a        	sta	$1a                     ; 0x201a <_ZN12_GLOBAL__N_112print_stringEPKcP6Status+0x109>
    2cc4: a5 15        	lda	$15                     ; 0x2015 <_ZN12_GLOBAL__N_112print_stringEPKcP6Status+0x104>
    2cc6: 69 00        	adc	#$0
    2cc8: 85 1b        	sta	$1b                     ; 0x201b <_ZN12_GLOBAL__N_112print_stringEPKcP6Status+0x10a>
    2cca: a0 02        	ldy	#$2
    2ccc: b1 14        	lda	($14),y                 ; 0x2014 <_ZN12_GLOBAL__N_112print_stringEPKcP6Status+0x103>
    2cce: 85 14        	sta	$14                     ; 0x2014 <_ZN12_GLOBAL__N_112print_stringEPKcP6Status+0x103>
    2cd0: 88           	dey
    2cd1: b1 1a        	lda	($1a),y                 ; 0x201a <_ZN12_GLOBAL__N_112print_stringEPKcP6Status+0x109>
    2cd3: 85 15        	sta	$15                     ; 0x2015 <_ZN12_GLOBAL__N_112print_stringEPKcP6Status+0x104>
    2cd5: c5 1d        	cmp	$1d                     ; 0x201d <_ZN12_GLOBAL__N_112print_stringEPKcP6Status+0x10c>
    2cd7: d0 c7        	bne	$2ca0 <malloc+0xcf>
    2cd9: a5 14        	lda	$14                     ; 0x2014 <_ZN12_GLOBAL__N_112print_stringEPKcP6Status+0x103>
    2cdb: c5 1c        	cmp	$1c                     ; 0x201c <_ZN12_GLOBAL__N_112print_stringEPKcP6Status+0x10b>
    2cdd: d0 c1        	bne	$2ca0 <malloc+0xcf>
    2cdf: 60           	rts
    2ce0: ad 01 56     	lda	$5601                   ; 0x5601 <_ZN12_GLOBAL__N_19free_sizeE>
    2ce3: ae 02 56     	ldx	$5602                   ; 0x5602 <_ZN12_GLOBAL__N_19free_sizeE+0x1>
    2ce6: 86 12        	stx	$12                     ; 0x2012 <_ZN12_GLOBAL__N_112print_stringEPKcP6Status+0x101>
    2ce8: 38           	sec
    2ce9: e5 1a        	sbc	$1a                     ; 0x201a <_ZN12_GLOBAL__N_112print_stringEPKcP6Status+0x109>
    2ceb: aa           	tax
    2cec: a5 12        	lda	$12                     ; 0x2012 <_ZN12_GLOBAL__N_112print_stringEPKcP6Status+0x101>
    2cee: e5 19        	sbc	$19                     ; 0x2019 <_ZN12_GLOBAL__N_112print_stringEPKcP6Status+0x108>
    2cf0: 85 12        	sta	$12                     ; 0x2012 <_ZN12_GLOBAL__N_112print_stringEPKcP6Status+0x101>
    2cf2: 18           	clc
    2cf3: 8a           	txa
    2cf4: 69 02        	adc	#$2
    2cf6: 85 13        	sta	$13                     ; 0x2013 <_ZN12_GLOBAL__N_112print_stringEPKcP6Status+0x102>
    2cf8: a5 12        	lda	$12                     ; 0x2012 <_ZN12_GLOBAL__N_112print_stringEPKcP6Status+0x101>
    2cfa: 69 00        	adc	#$0
    2cfc: a6 13        	ldx	$13                     ; 0x2013 <_ZN12_GLOBAL__N_112print_stringEPKcP6Status+0x102>
    2cfe: 8e 01 56     	stx	$5601                   ; 0x5601 <_ZN12_GLOBAL__N_19free_sizeE>
    2d01: 8d 02 56     	sta	$5602                   ; 0x5602 <_ZN12_GLOBAL__N_19free_sizeE+0x1>
    2d04: a0 02        	ldy	#$2
    2d06: a5 14        	lda	$14                     ; 0x2014 <_ZN12_GLOBAL__N_112print_stringEPKcP6Status+0x103>
    2d08: 18           	clc
    2d09: 69 02        	adc	#$2
    2d0b: 85 12        	sta	$12                     ; 0x2012 <_ZN12_GLOBAL__N_112print_stringEPKcP6Status+0x101>
    2d0d: a5 15        	lda	$15                     ; 0x2015 <_ZN12_GLOBAL__N_112print_stringEPKcP6Status+0x104>
    2d0f: 69 00        	adc	#$0
    2d11: 85 13        	sta	$13                     ; 0x2013 <_ZN12_GLOBAL__N_112print_stringEPKcP6Status+0x102>
    2d13: b1 14        	lda	($14),y                 ; 0x2014 <_ZN12_GLOBAL__N_112print_stringEPKcP6Status+0x103>
    2d15: 85 1e        	sta	$1e                     ; 0x201e <printf>
    2d17: 88           	dey
    2d18: b1 12        	lda	($12),y                 ; 0x2012 <_ZN12_GLOBAL__N_112print_stringEPKcP6Status+0x101>
    2d1a: 85 1f        	sta	$1f                     ; 0x201f <printf+0x1>
    2d1c: c5 15        	cmp	$15                     ; 0x2015 <_ZN12_GLOBAL__N_112print_stringEPKcP6Status+0x104>
    2d1e: d0 15        	bne	$2d35 <malloc+0x164>
    2d20: a5 92        	lda	$92                     ; 0x2092 <printf+0x74>
    2d22: a6 1e        	ldx	$1e                     ; 0x201e <printf>
    2d24: e4 14        	cpx	$14                     ; 0x2014 <_ZN12_GLOBAL__N_112print_stringEPKcP6Status+0x103>
    2d26: d0 0d        	bne	$2d35 <malloc+0x164>
    2d28: 85 1a        	sta	$1a                     ; 0x201a <_ZN12_GLOBAL__N_112print_stringEPKcP6Status+0x109>
    2d2a: a2 00        	ldx	#$0
    2d2c: 86 18        	stx	$18                     ; 0x2018 <_ZN12_GLOBAL__N_112print_stringEPKcP6Status+0x107>
    2d2e: a2 00        	ldx	#$0
    2d30: 86 19        	stx	$19                     ; 0x2019 <_ZN12_GLOBAL__N_112print_stringEPKcP6Status+0x108>
    2d32: 4c af 2d     	jmp	$2daf <malloc+0x1de>
    2d35: 18           	clc
    2d36: a5 14        	lda	$14                     ; 0x2014 <_ZN12_GLOBAL__N_112print_stringEPKcP6Status+0x103>
    2d38: 69 04        	adc	#$4
    2d3a: 85 18        	sta	$18                     ; 0x2018 <_ZN12_GLOBAL__N_112print_stringEPKcP6Status+0x107>
    2d3c: a5 15        	lda	$15                     ; 0x2015 <_ZN12_GLOBAL__N_112print_stringEPKcP6Status+0x104>
    2d3e: 69 00        	adc	#$0
    2d40: 85 19        	sta	$19                     ; 0x2019 <_ZN12_GLOBAL__N_112print_stringEPKcP6Status+0x108>
    2d42: a0 04        	ldy	#$4
    2d44: b1 14        	lda	($14),y                 ; 0x2014 <_ZN12_GLOBAL__N_112print_stringEPKcP6Status+0x103>
    2d46: 85 23        	sta	$23                     ; 0x2023 <printf+0x5>
    2d48: 18           	clc
    2d49: 69 02        	adc	#$2
    2d4b: 85 1a        	sta	$1a                     ; 0x201a <_ZN12_GLOBAL__N_112print_stringEPKcP6Status+0x109>
    2d4d: a0 01        	ldy	#$1
    2d4f: b1 18        	lda	($18),y                 ; 0x2018 <_ZN12_GLOBAL__N_112print_stringEPKcP6Status+0x107>
    2d51: 85 22        	sta	$22                     ; 0x2022 <printf+0x4>
    2d53: 69 00        	adc	#$0
    2d55: a6 1a        	ldx	$1a                     ; 0x201a <_ZN12_GLOBAL__N_112print_stringEPKcP6Status+0x109>
    2d57: 86 18        	stx	$18                     ; 0x2018 <_ZN12_GLOBAL__N_112print_stringEPKcP6Status+0x107>
    2d59: 85 19        	sta	$19                     ; 0x2019 <_ZN12_GLOBAL__N_112print_stringEPKcP6Status+0x108>
    2d5b: a6 23        	ldx	$23                     ; 0x2023 <printf+0x5>
    2d5d: 86 1a        	stx	$1a                     ; 0x201a <_ZN12_GLOBAL__N_112print_stringEPKcP6Status+0x109>
    2d5f: a6 22        	ldx	$22                     ; 0x2022 <printf+0x4>
    2d61: 86 1b        	stx	$1b                     ; 0x201b <_ZN12_GLOBAL__N_112print_stringEPKcP6Status+0x10a>
    2d63: c8           	iny
    2d64: a5 1e        	lda	$1e                     ; 0x201e <printf>
    2d66: 91 1a        	sta	($1a),y                 ; 0x201a <_ZN12_GLOBAL__N_112print_stringEPKcP6Status+0x109>
    2d68: a5 1f        	lda	$1f                     ; 0x201f <printf+0x1>
    2d6a: 88           	dey
    2d6b: 91 18        	sta	($18),y                 ; 0x2018 <_ZN12_GLOBAL__N_112print_stringEPKcP6Status+0x107>
    2d6d: 18           	clc
    2d6e: a5 14        	lda	$14                     ; 0x2014 <_ZN12_GLOBAL__N_112print_stringEPKcP6Status+0x103>
    2d70: 69 02        	adc	#$2
    2d72: 85 1a        	sta	$1a                     ; 0x201a <_ZN12_GLOBAL__N_112print_stringEPKcP6Status+0x109>
    2d74: a5 15        	lda	$15                     ; 0x2015 <_ZN12_GLOBAL__N_112print_stringEPKcP6Status+0x104>
    2d76: 69 00        	adc	#$0
    2d78: 85 1b        	sta	$1b                     ; 0x201b <_ZN12_GLOBAL__N_112print_stringEPKcP6Status+0x10a>
    2d7a: c8           	iny
    2d7b: b1 14        	lda	($14),y                 ; 0x2014 <_ZN12_GLOBAL__N_112print_stringEPKcP6Status+0x103>
    2d7d: 85 18        	sta	$18                     ; 0x2018 <_ZN12_GLOBAL__N_112print_stringEPKcP6Status+0x107>
    2d7f: aa           	tax
    2d80: 88           	dey
    2d81: b1 1a        	lda	($1a),y                 ; 0x201a <_ZN12_GLOBAL__N_112print_stringEPKcP6Status+0x109>
    2d83: 85 19        	sta	$19                     ; 0x2019 <_ZN12_GLOBAL__N_112print_stringEPKcP6Status+0x108>
    2d85: 85 16        	sta	$16                     ; 0x2016 <_ZN12_GLOBAL__N_112print_stringEPKcP6Status+0x105>
    2d87: a0 04        	ldy	#$4
    2d89: a5 23        	lda	$23                     ; 0x2023 <printf+0x5>
    2d8b: 91 18        	sta	($18),y                 ; 0x2018 <_ZN12_GLOBAL__N_112print_stringEPKcP6Status+0x107>
    2d8d: 18           	clc
    2d8e: 8a           	txa
    2d8f: 69 04        	adc	#$4
    2d91: 85 1a        	sta	$1a                     ; 0x201a <_ZN12_GLOBAL__N_112print_stringEPKcP6Status+0x109>
    2d93: a5 16        	lda	$16                     ; 0x2016 <_ZN12_GLOBAL__N_112print_stringEPKcP6Status+0x105>
    2d95: 69 00        	adc	#$0
    2d97: 85 1b        	sta	$1b                     ; 0x201b <_ZN12_GLOBAL__N_112print_stringEPKcP6Status+0x10a>
    2d99: a5 22        	lda	$22                     ; 0x2022 <printf+0x4>
    2d9b: a0 01        	ldy	#$1
    2d9d: 91 1a        	sta	($1a),y                 ; 0x201a <_ZN12_GLOBAL__N_112print_stringEPKcP6Status+0x109>
    2d9f: a5 92        	lda	$92                     ; 0x2092 <printf+0x74>
    2da1: 85 1a        	sta	$1a                     ; 0x201a <_ZN12_GLOBAL__N_112print_stringEPKcP6Status+0x109>
    2da3: a6 1d        	ldx	$1d                     ; 0x201d <_ZN12_GLOBAL__N_112print_stringEPKcP6Status+0x10c>
    2da5: e4 15        	cpx	$15                     ; 0x2015 <_ZN12_GLOBAL__N_112print_stringEPKcP6Status+0x104>
    2da7: d0 10        	bne	$2db9 <malloc+0x1e8>
    2da9: a6 1c        	ldx	$1c                     ; 0x201c <_ZN12_GLOBAL__N_112print_stringEPKcP6Status+0x10b>
    2dab: e4 14        	cpx	$14                     ; 0x2014 <_ZN12_GLOBAL__N_112print_stringEPKcP6Status+0x103>
    2dad: d0 0a        	bne	$2db9 <malloc+0x1e8>
    2daf: a6 18        	ldx	$18                     ; 0x2018 <_ZN12_GLOBAL__N_112print_stringEPKcP6Status+0x107>
    2db1: a4 19        	ldy	$19                     ; 0x2019 <_ZN12_GLOBAL__N_112print_stringEPKcP6Status+0x108>
    2db3: 8e 03 56     	stx	$5603                   ; 0x5603 <_ZN12_GLOBAL__N_19free_listE>
    2db6: 8c 04 56     	sty	$5604                   ; 0x5604 <_ZN12_GLOBAL__N_19free_listE+0x1>
    2db9: a0 01        	ldy	#$1
    2dbb: b1 14        	lda	($14),y                 ; 0x2014 <_ZN12_GLOBAL__N_112print_stringEPKcP6Status+0x103>
    2dbd: 85 16        	sta	$16                     ; 0x2016 <_ZN12_GLOBAL__N_112print_stringEPKcP6Status+0x105>
    2dbf: a9 fe        	lda	#$fe
    2dc1: 32 14        	and	($14)                   ; 0x2014 <_ZN12_GLOBAL__N_112print_stringEPKcP6Status+0x103>
    2dc3: 38           	sec
    2dc4: a6 91        	ldx	$91                     ; 0x2091 <printf+0x73>
    2dc6: 86 18        	stx	$18                     ; 0x2018 <_ZN12_GLOBAL__N_112print_stringEPKcP6Status+0x107>
    2dc8: a8           	tay
    2dc9: e5 18        	sbc	$18                     ; 0x2018 <_ZN12_GLOBAL__N_112print_stringEPKcP6Status+0x107>
    2dcb: 85 19        	sta	$19                     ; 0x2019 <_ZN12_GLOBAL__N_112print_stringEPKcP6Status+0x108>
    2dcd: a5 16        	lda	$16                     ; 0x2016 <_ZN12_GLOBAL__N_112print_stringEPKcP6Status+0x105>
    2dcf: a6 16        	ldx	$16                     ; 0x2016 <_ZN12_GLOBAL__N_112print_stringEPKcP6Status+0x105>
    2dd1: e5 1a        	sbc	$1a                     ; 0x201a <_ZN12_GLOBAL__N_112print_stringEPKcP6Status+0x109>
    2dd3: f0 03        	beq	$2dd8 <malloc+0x207>
    2dd5: 4c 64 2e     	jmp	$2e64 <malloc+0x293>
    2dd8: 85 16        	sta	$16                     ; 0x2016 <_ZN12_GLOBAL__N_112print_stringEPKcP6Status+0x105>
    2dda: a5 19        	lda	$19                     ; 0x2019 <_ZN12_GLOBAL__N_112print_stringEPKcP6Status+0x108>
    2ddc: c9 08        	cmp	#$8
    2dde: 86 18        	stx	$18                     ; 0x2018 <_ZN12_GLOBAL__N_112print_stringEPKcP6Status+0x107>
    2de0: b0 03        	bcs	$2de5 <malloc+0x214>
    2de2: 4c 47 2e     	jmp	$2e47 <malloc+0x276>
    2de5: a6 17        	ldx	$17                     ; 0x2017 <_ZN12_GLOBAL__N_112print_stringEPKcP6Status+0x106>
    2de7: 86 98        	stx	$98                     ; 0x2098 <printf+0x7a>
    2de9: a6 93        	ldx	$93                     ; 0x2093 <printf+0x75>
    2deb: 86 93        	stx	$93                     ; 0x2093 <printf+0x75>
    2ded: a6 12        	ldx	$12                     ; 0x2012 <_ZN12_GLOBAL__N_112print_stringEPKcP6Status+0x101>
    2def: 86 94        	stx	$94                     ; 0x2094 <printf+0x76>
    2df1: a6 13        	ldx	$13                     ; 0x2013 <_ZN12_GLOBAL__N_112print_stringEPKcP6Status+0x102>
    2df3: 86 95        	stx	$95                     ; 0x2095 <printf+0x77>
    2df5: a8           	tay
    2df6: 18           	clc
    2df7: a6 91        	ldx	$91                     ; 0x2091 <printf+0x73>
    2df9: 86 91        	stx	$91                     ; 0x2091 <printf+0x73>
    2dfb: 8a           	txa
    2dfc: 65 14        	adc	$14                     ; 0x2014 <_ZN12_GLOBAL__N_112print_stringEPKcP6Status+0x103>
    2dfe: 85 12        	sta	$12                     ; 0x2012 <_ZN12_GLOBAL__N_112print_stringEPKcP6Status+0x101>
    2e00: a5 1a        	lda	$1a                     ; 0x201a <_ZN12_GLOBAL__N_112print_stringEPKcP6Status+0x109>
    2e02: a6 1a        	ldx	$1a                     ; 0x201a <_ZN12_GLOBAL__N_112print_stringEPKcP6Status+0x109>
    2e04: 86 92        	stx	$92                     ; 0x2092 <printf+0x74>
    2e06: 65 15        	adc	$15                     ; 0x2015 <_ZN12_GLOBAL__N_112print_stringEPKcP6Status+0x104>
    2e08: 85 13        	sta	$13                     ; 0x2013 <_ZN12_GLOBAL__N_112print_stringEPKcP6Status+0x102>
    2e0a: a6 16        	ldx	$16                     ; 0x2016 <_ZN12_GLOBAL__N_112print_stringEPKcP6Status+0x105>
    2e0c: 98           	tya
    2e0d: a4 14        	ldy	$14                     ; 0x2014 <_ZN12_GLOBAL__N_112print_stringEPKcP6Status+0x103>
    2e0f: 84 96        	sty	$96                     ; 0x2096 <printf+0x78>
    2e11: a4 15        	ldy	$15                     ; 0x2015 <_ZN12_GLOBAL__N_112print_stringEPKcP6Status+0x104>
    2e13: 84 97        	sty	$97                     ; 0x2097 <printf+0x79>
    2e15: 20 1e 03     	jsr	$31e <_ZN12_GLOBAL__N_19FreeChunk6insertEPvj>
    2e18: a6 96        	ldx	$96                     ; 0x2096 <printf+0x78>
    2e1a: 86 14        	stx	$14                     ; 0x2014 <_ZN12_GLOBAL__N_112print_stringEPKcP6Status+0x103>
    2e1c: a6 97        	ldx	$97                     ; 0x2097 <printf+0x79>
    2e1e: 86 15        	stx	$15                     ; 0x2015 <_ZN12_GLOBAL__N_112print_stringEPKcP6Status+0x104>
    2e20: a5 91        	lda	$91                     ; 0x2091 <printf+0x73>
    2e22: 29 fe        	and	#$fe
    2e24: 85 12        	sta	$12                     ; 0x2012 <_ZN12_GLOBAL__N_112print_stringEPKcP6Status+0x101>
    2e26: a0 01        	ldy	#$1
    2e28: 98           	tya
    2e29: 32 14        	and	($14)                   ; 0x2014 <_ZN12_GLOBAL__N_112print_stringEPKcP6Status+0x103>
    2e2b: 05 12        	ora	$12                     ; 0x2012 <_ZN12_GLOBAL__N_112print_stringEPKcP6Status+0x101>
    2e2d: 92 14        	sta	($14)                   ; 0x2014 <_ZN12_GLOBAL__N_112print_stringEPKcP6Status+0x103>
    2e2f: a5 92        	lda	$92                     ; 0x2092 <printf+0x74>
    2e31: 91 14        	sta	($14),y                 ; 0x2014 <_ZN12_GLOBAL__N_112print_stringEPKcP6Status+0x103>
    2e33: a4 12        	ldy	$12                     ; 0x2012 <_ZN12_GLOBAL__N_112print_stringEPKcP6Status+0x101>
    2e35: 85 18        	sta	$18                     ; 0x2018 <_ZN12_GLOBAL__N_112print_stringEPKcP6Status+0x107>
    2e37: a6 94        	ldx	$94                     ; 0x2094 <printf+0x76>
    2e39: 86 12        	stx	$12                     ; 0x2012 <_ZN12_GLOBAL__N_112print_stringEPKcP6Status+0x101>
    2e3b: a6 95        	ldx	$95                     ; 0x2095 <printf+0x77>
    2e3d: 86 13        	stx	$13                     ; 0x2013 <_ZN12_GLOBAL__N_112print_stringEPKcP6Status+0x102>
    2e3f: a6 93        	ldx	$93                     ; 0x2093 <printf+0x75>
    2e41: 86 93        	stx	$93                     ; 0x2093 <printf+0x75>
    2e43: a6 98        	ldx	$98                     ; 0x2098 <printf+0x7a>
    2e45: 86 17        	stx	$17                     ; 0x2017 <_ZN12_GLOBAL__N_112print_stringEPKcP6Status+0x106>
    2e47: 18           	clc
    2e48: 98           	tya
    2e49: 65 14        	adc	$14                     ; 0x2014 <_ZN12_GLOBAL__N_112print_stringEPKcP6Status+0x103>
    2e4b: 85 16        	sta	$16                     ; 0x2016 <_ZN12_GLOBAL__N_112print_stringEPKcP6Status+0x105>
    2e4d: a5 15        	lda	$15                     ; 0x2015 <_ZN12_GLOBAL__N_112print_stringEPKcP6Status+0x104>
    2e4f: 65 18        	adc	$18                     ; 0x2018 <_ZN12_GLOBAL__N_112print_stringEPKcP6Status+0x107>
    2e51: 85 15        	sta	$15                     ; 0x2015 <_ZN12_GLOBAL__N_112print_stringEPKcP6Status+0x104>
    2e53: c5 17        	cmp	$17                     ; 0x2017 <_ZN12_GLOBAL__N_112print_stringEPKcP6Status+0x106>
    2e55: d0 1a        	bne	$2e71 <malloc+0x2a0>
    2e57: a6 93        	ldx	$93                     ; 0x2093 <printf+0x75>
    2e59: 86 14        	stx	$14                     ; 0x2014 <_ZN12_GLOBAL__N_112print_stringEPKcP6Status+0x103>
    2e5b: a6 16        	ldx	$16                     ; 0x2016 <_ZN12_GLOBAL__N_112print_stringEPKcP6Status+0x105>
    2e5d: e4 14        	cpx	$14                     ; 0x2014 <_ZN12_GLOBAL__N_112print_stringEPKcP6Status+0x103>
    2e5f: d0 12        	bne	$2e73 <malloc+0x2a2>
    2e61: 4c df 2c     	jmp	$2cdf <malloc+0x10e>
    2e64: 85 16        	sta	$16                     ; 0x2016 <_ZN12_GLOBAL__N_112print_stringEPKcP6Status+0x105>
    2e66: c9 00        	cmp	#$0
    2e68: 86 18        	stx	$18                     ; 0x2018 <_ZN12_GLOBAL__N_112print_stringEPKcP6Status+0x107>
    2e6a: a5 19        	lda	$19                     ; 0x2019 <_ZN12_GLOBAL__N_112print_stringEPKcP6Status+0x108>
    2e6c: 90 d9        	bcc	$2e47 <malloc+0x276>
    2e6e: 4c e5 2d     	jmp	$2de5 <malloc+0x214>
    2e71: a6 16        	ldx	$16                     ; 0x2016 <_ZN12_GLOBAL__N_112print_stringEPKcP6Status+0x105>
    2e73: 86 14        	stx	$14                     ; 0x2014 <_ZN12_GLOBAL__N_112print_stringEPKcP6Status+0x103>
    2e75: a0 01        	ldy	#$1
    2e77: b1 14        	lda	($14),y                 ; 0x2014 <_ZN12_GLOBAL__N_112print_stringEPKcP6Status+0x103>
    2e79: 85 16        	sta	$16                     ; 0x2016 <_ZN12_GLOBAL__N_112print_stringEPKcP6Status+0x105>
    2e7b: a9 fe        	lda	#$fe
    2e7d: 32 14        	and	($14)                   ; 0x2014 <_ZN12_GLOBAL__N_112print_stringEPKcP6Status+0x103>
    2e7f: 92 14        	sta	($14)                   ; 0x2014 <_ZN12_GLOBAL__N_112print_stringEPKcP6Status+0x103>
    2e81: a5 16        	lda	$16                     ; 0x2016 <_ZN12_GLOBAL__N_112print_stringEPKcP6Status+0x105>
    2e83: 91 14        	sta	($14),y                 ; 0x2014 <_ZN12_GLOBAL__N_112print_stringEPKcP6Status+0x103>
    2e85: 60           	rts

00002e86 <memcpy>:
    2e86: a8           	tay
    2e87: 8a           	txa
    2e88: d0 03        	bne	$2e8d <memcpy+0x7>
    2e8a: 98           	tya
    2e8b: f0 24        	beq	$2eb1 <memcpy+0x2b>
    2e8d: a5 12        	lda	$12                     ; 0x2012 <_ZN12_GLOBAL__N_112print_stringEPKcP6Status+0x101>
    2e8f: 85 16        	sta	$16                     ; 0x2016 <_ZN12_GLOBAL__N_112print_stringEPKcP6Status+0x105>
    2e91: a5 13        	lda	$13                     ; 0x2013 <_ZN12_GLOBAL__N_112print_stringEPKcP6Status+0x102>
    2e93: 85 17        	sta	$17                     ; 0x2017 <_ZN12_GLOBAL__N_112print_stringEPKcP6Status+0x106>
    2e95: b2 14        	lda	($14)                   ; 0x2014 <_ZN12_GLOBAL__N_112print_stringEPKcP6Status+0x103>
    2e97: 92 16        	sta	($16)                   ; 0x2016 <_ZN12_GLOBAL__N_112print_stringEPKcP6Status+0x105>
    2e99: e6 16        	inc	$16                     ; 0x2016 <_ZN12_GLOBAL__N_112print_stringEPKcP6Status+0x105>
    2e9b: d0 02        	bne	$2e9f <memcpy+0x19>
    2e9d: e6 17        	inc	$17                     ; 0x2017 <_ZN12_GLOBAL__N_112print_stringEPKcP6Status+0x106>
    2e9f: e6 14        	inc	$14                     ; 0x2014 <_ZN12_GLOBAL__N_112print_stringEPKcP6Status+0x103>
    2ea1: d0 02        	bne	$2ea5 <memcpy+0x1f>
    2ea3: e6 15        	inc	$15                     ; 0x2015 <_ZN12_GLOBAL__N_112print_stringEPKcP6Status+0x104>
    2ea5: 88           	dey
    2ea6: c0 ff        	cpy	#$ff
    2ea8: d0 01        	bne	$2eab <memcpy+0x25>
    2eaa: ca           	dex
    2eab: 8a           	txa
    2eac: d0 e7        	bne	$2e95 <memcpy+0xf>
    2eae: 98           	tya
    2eaf: d0 e4        	bne	$2e95 <memcpy+0xf>
    2eb1: 60           	rts

00002eb2 <__memset>:
    2eb2: a4 14        	ldy	$14                     ; 0x2014 <_ZN12_GLOBAL__N_112print_stringEPKcP6Status+0x103>
    2eb4: d0 04        	bne	$2eba <__memset+0x8>
    2eb6: e0 00        	cpx	#$0
    2eb8: f0 17        	beq	$2ed1 <__memset+0x1f>
    2eba: 92 12        	sta	($12)                   ; 0x2012 <_ZN12_GLOBAL__N_112print_stringEPKcP6Status+0x101>
    2ebc: e6 12        	inc	$12                     ; 0x2012 <_ZN12_GLOBAL__N_112print_stringEPKcP6Status+0x101>
    2ebe: d0 02        	bne	$2ec2 <__memset+0x10>
    2ec0: e6 13        	inc	$13                     ; 0x2013 <_ZN12_GLOBAL__N_112print_stringEPKcP6Status+0x102>
    2ec2: ca           	dex
    2ec3: e0 ff        	cpx	#$ff
    2ec5: d0 02        	bne	$2ec9 <__memset+0x17>
    2ec7: c6 14        	dec	$14                     ; 0x2014 <_ZN12_GLOBAL__N_112print_stringEPKcP6Status+0x103>
    2ec9: a4 14        	ldy	$14                     ; 0x2014 <_ZN12_GLOBAL__N_112print_stringEPKcP6Status+0x103>
    2ecb: d0 ed        	bne	$2eba <__memset+0x8>
    2ecd: e0 00        	cpx	#$0
    2ecf: d0 e9        	bne	$2eba <__memset+0x8>
    2ed1: 60           	rts

00002ed2 <__ashlsi3>:
    2ed2: 86 15        	stx	$15                     ; 0x2015 <_ZN12_GLOBAL__N_112print_stringEPKcP6Status+0x104>
    2ed4: a6 14        	ldx	$14                     ; 0x2014 <_ZN12_GLOBAL__N_112print_stringEPKcP6Status+0x103>
    2ed6: f0 0e        	beq	$2ee6 <__ashlsi3+0x14>
    2ed8: a6 14        	ldx	$14                     ; 0x2014 <_ZN12_GLOBAL__N_112print_stringEPKcP6Status+0x103>
    2eda: ca           	dex
    2edb: 0a           	asl
    2edc: 26 15        	rol	$15                     ; 0x2015 <_ZN12_GLOBAL__N_112print_stringEPKcP6Status+0x104>
    2ede: 26 12        	rol	$12                     ; 0x2012 <_ZN12_GLOBAL__N_112print_stringEPKcP6Status+0x101>
    2ee0: 26 13        	rol	$13                     ; 0x2013 <_ZN12_GLOBAL__N_112print_stringEPKcP6Status+0x102>
    2ee2: e0 00        	cpx	#$0
    2ee4: d0 f4        	bne	$2eda <__ashlsi3+0x8>
    2ee6: a6 15        	ldx	$15                     ; 0x2015 <_ZN12_GLOBAL__N_112print_stringEPKcP6Status+0x104>
    2ee8: 60           	rts

00002ee9 <__mulhi3>:
    2ee9: a4 13        	ldy	$13                     ; 0x2013 <_ZN12_GLOBAL__N_112print_stringEPKcP6Status+0x102>
    2eeb: d0 04        	bne	$2ef1 <__mulhi3+0x8>
    2eed: a4 12        	ldy	$12                     ; 0x2012 <_ZN12_GLOBAL__N_112print_stringEPKcP6Status+0x101>
    2eef: f0 25        	beq	$2f16 <__mulhi3+0x2d>
    2ef1: 85 14        	sta	$14                     ; 0x2014 <_ZN12_GLOBAL__N_112print_stringEPKcP6Status+0x103>
    2ef3: 86 15        	stx	$15                     ; 0x2015 <_ZN12_GLOBAL__N_112print_stringEPKcP6Status+0x104>
    2ef5: a0 00        	ldy	#$0
    2ef7: 98           	tya
    2ef8: 46 13        	lsr	$13                     ; 0x2013 <_ZN12_GLOBAL__N_112print_stringEPKcP6Status+0x102>
    2efa: 66 12        	ror	$12                     ; 0x2012 <_ZN12_GLOBAL__N_112print_stringEPKcP6Status+0x101>
    2efc: 90 09        	bcc	$2f07 <__mulhi3+0x1e>
    2efe: aa           	tax
    2eff: 98           	tya
    2f00: 18           	clc
    2f01: 65 14        	adc	$14                     ; 0x2014 <_ZN12_GLOBAL__N_112print_stringEPKcP6Status+0x103>
    2f03: a8           	tay
    2f04: 8a           	txa
    2f05: 65 15        	adc	$15                     ; 0x2015 <_ZN12_GLOBAL__N_112print_stringEPKcP6Status+0x104>
    2f07: 06 14        	asl	$14                     ; 0x2014 <_ZN12_GLOBAL__N_112print_stringEPKcP6Status+0x103>
    2f09: 26 15        	rol	$15                     ; 0x2015 <_ZN12_GLOBAL__N_112print_stringEPKcP6Status+0x104>
    2f0b: a6 13        	ldx	$13                     ; 0x2013 <_ZN12_GLOBAL__N_112print_stringEPKcP6Status+0x102>
    2f0d: d0 e9        	bne	$2ef8 <__mulhi3+0xf>
    2f0f: a6 12        	ldx	$12                     ; 0x2012 <_ZN12_GLOBAL__N_112print_stringEPKcP6Status+0x101>
    2f11: d0 e5        	bne	$2ef8 <__mulhi3+0xf>
    2f13: aa           	tax
    2f14: 98           	tya
    2f15: 60           	rts
    2f16: a0 00        	ldy	#$0
    2f18: 98           	tya
    2f19: 80 f8        	bra	$2f13 <__mulhi3+0x2a>
