
grudge.elf:	file format elf32-mos

SYMBOL TABLE:
00000000 l    df *ABS*	00000000 zero-bss.c
00000000 l    df *ABS*	00000000 zero-zp-bss.c
00000000 l    df *ABS*	00000000 copy-zp-data.c
00000000 l    df *ABS*	00000000 ld-temp.o
00000647 l     F .text	0000017b f256Init
0000006e l     O .zp.bss	00000002 kernelArgs
000000d4 l     O .zp.bss	00000007 kernelEventData
000007c2 l     F .text	00000173 textReset
00000935 l     F .text	00000156 bitmapReset
00000085 l     O .zp.bss	00000003 _tileSize
00000088 l     O .zp.bss	00000040 _spriteCtl
000000c8 l     O .zp.bss	00000008 _dirStream
000000d3 l     O .zp.bss	00000001 kernelError
00000062 l     O .zp.data	00000001 _ccolor
00000060 l     O .zp.data	00000001 _MAX_COL
00000061 l     O .zp.data	00000001 _MAX_ROW
00000030 l     O .zp.data	00000030 textColors
00000070 l     O .zp.bss	00000001 _col
00000071 l     O .zp.bss	00000001 _row
00000080 l     O .zp.bss	00000001 _MAX_X
00000081 l     O .zp.bss	00000001 _MAX_Y
0000007e l     O .zp.bss	00000001 _active
0000007f l     O .zp.bss	00000001 _color
00000072 l     O .zp.bss	0000000c _BITMAP_BASE
00000082 l     O .zp.bss	00000003 _BITMAP_CLUT
00000a91 l     F .text	000003cd f256main
00000e5e l     F .text	00000bcc setup
00005ea8 l     O .bss	000001e0 spriteStatuses
00002506 l     F .text	00000021 getTimerAbsolute
00000063 l     O .zp.data	00000006 stateDelays
000024d3 l     F .text	00000033 setTimer
000000d0 l     O .zp.bss	00000003 padTimer
00002075 l     F .text	000001ba updateFrames
00000069 l     O .zp.data	00000001 dashDelay
00002497 l     F .text	0000000d pollNES
000024b1 l     F .text	0000000b padPollDelayUntilReady
00001a2a l     F .text	0000064b checkPads
000024a4 l     F .text	0000000d pollSNES
0000372f l     F .text	00000100 malloc
000024bc l     F .text	00000017 openAllCODEC
00002527 l     F .text	0000001e boostVSClock
00002545 l     F .text	00000192 initBigPatch
0000399f l     F .text	00000032 __mulhi3
00003698 l     F .text	00000057 printf
0000222f l     F .text	0000025a textPrint
00002489 l     F .text	0000000e __putchar
00005ea6 l     O .bss	00000002 __putchar.s
00003a30 l     O .rodata	00002476 bigpatch
000026e5 l     F .text	00000002 _Exit
000026e7 l     F .text	00000218 vfprintf
00003721 l     F .text	00000003 putc
000028ff l     F .text	00000b44 _ZN12_GLOBAL__N_15printEPKcP6Status
00003443 l     F .text	000000e1 _ZN12_GLOBAL__N_13putEcP6Status
00003931 l     F .text	0000006e __simple_strtoui
00003524 l     F .text	00000174 _ZN12_GLOBAL__N_112print_stringEPKcP6Status
00000564 l     F .text	00000003 _ZN6__impl6VarInt4makeEPvc
00000576 l     F .text	0000000d _ZNK6__impl6VarInt8negativeEv
00000584 l     F .text	00000047 _ZN6__impl6VarInt6negateEv
00000568 l     F .text	0000000d _ZNK6__impl6VarInt8high_bitEv
000005cc l     F .text	0000003b _ZN6__impl6VarInt3shlEv
0000006a l     O .zp.data	00000002 stdout
000036ef l     F .text	00000003 fputc
000036f2 l     F .text	00000028 putchar
0000371a l     F .text	00000007 putchar_wrapper
00003724 l     F .text	0000000b __from_ascii
000000db l     O .zp.bss	00000001 _ZN12_GLOBAL__N_111initializedE
0000006c l     O .zp.data	00000002 _ZN12_GLOBAL__N_110heap_limitE
00000356 l     F .text	00000135 _ZN12_GLOBAL__N_19FreeChunk6insertEPvj
000000dc l     O .zp.bss	00000001 _ZN12_GLOBAL__N_19last_freeE
000000df l     O .zp.bss	00000002 _ZN12_GLOBAL__N_19free_listE
0000382f l     F .text	000000b6 _ZN12_GLOBAL__N_119allocate_free_chunkEPNS_9FreeChunkEj
000000dd l     O .zp.bss	00000002 _ZN12_GLOBAL__N_19free_sizeE
0000048c l     F .text	000000d7 _ZN12_GLOBAL__N_19FreeChunk6removeEv
00000a8b g     F .text	00000006 main
00010400 g       .palgrudge	00000000 palgrudge_end
00010800 g       .boy1	00000000 boy1_end
00011400 g       .cath	00000000 cath_end
00011000 g       .girl1	00000000 girl1_end
00013000 g       .dash	00000000 dash_start
00010800 g       .thing	00000000 thing_start
00010400 g       .boy1	00000000 boy1_start
00013800 g       .dash	00000000 dash_end
00011400 g       .cat	00000000 cat_start
00011800 g       .cat	00000000 cat_end
00010000 g       .palgrudge	00000000 palgrudge_start
00010c00 g       .thing	00000000 thing_end
00010c00 g       .girl1	00000000 girl1_start
00011000 g       .cath	00000000 cath_start
00000352 g       .text	00000000 __after_main
0000033e g       .text	00000000 __do_init_stack
0000034c g       .text	00000000 __do_copy_zp_data
00000630 g     F .text	00000017 __copy_zp_data
00000346 g       .text	00000000 __do_zero_bss
0000060a g     F .text	00000013 __zero_bss
00000349 g       .text	00000000 __do_zero_zp_bss
0000061d g     F .text	00000013 __zero_zp_bss
000026d7 g     F .text	0000000e exit
00000355 g       .text	00000000 _fini
000039d1 g       .rodata	00000000 __set_v
00000607 g       .text	00000000 __call_indir
00003911  w    F .text	00000020 __memset
00001000  w      *ABS*	00000000 __heap_default_limit
00006088 g       .noinit	00000000 __heap_start
000038e5  w    F .text	0000002c memcpy
00000010 g       *ABS*	00000000 __rc0
00000012 g       *ABS*	00000000 __rc2
00000014 g       *ABS*	00000000 __rc4
00000016 g       *ABS*	00000000 __rc6
00000018 g       *ABS*	00000000 __rc8
0000001a g       *ABS*	00000000 __rc10
0000001c g       *ABS*	00000000 __rc12
0000001e g       *ABS*	00000000 __rc14
00000020 g       *ABS*	00000000 __rc16
00000022 g       *ABS*	00000000 __rc18
00000024 g       *ABS*	00000000 __rc20
00000026 g       *ABS*	00000000 __rc22
00000028 g       *ABS*	00000000 __rc24
0000002a g       *ABS*	00000000 __rc26
0000002c g       *ABS*	00000000 __rc28
0000002e g       *ABS*	00000000 __rc30
0000002f g       *ABS*	00000000 __rc31
00000300 g       *ABS*	00000000 __f256_start
0000c000 g       *ABS*	00000000 __stack
0000c000 g       *ABS*	00000000 __SLOT_ADDR
0800c000 g       *ABS*	00000000 __block8_lma
00002000 g       *ABS*	00000000 __BLOCK_SIZE
0900c000 g       *ABS*	00000000 __block9_lma
0a00c000 g       *ABS*	00000000 __block10_lma
0b00c000 g       *ABS*	00000000 __block11_lma
0c00c000 g       *ABS*	00000000 __block12_lma
0d00c000 g       *ABS*	00000000 __block13_lma
0e00c000 g       *ABS*	00000000 __block14_lma
0f00c000 g       *ABS*	00000000 __block15_lma
1000c000 g       *ABS*	00000000 __block16_lma
1100c000 g       *ABS*	00000000 __block17_lma
1200c000 g       *ABS*	00000000 __block18_lma
1300c000 g       *ABS*	00000000 __block19_lma
1400c000 g       *ABS*	00000000 __block20_lma
1500c000 g       *ABS*	00000000 __block21_lma
1600c000 g       *ABS*	00000000 __block22_lma
1700c000 g       *ABS*	00000000 __block23_lma
00010000 g       *ABS*	00000000 __palgrudge_lma
00000400 g       *ABS*	00000000 __palgrudge_size
00010400 g       *ABS*	00000000 __boy1_lma
00000400 g       *ABS*	00000000 __boy1_size
00010800 g       *ABS*	00000000 __thing_lma
00000400 g       *ABS*	00000000 __thing_size
00010c00 g       *ABS*	00000000 __girl1_lma
00000400 g       *ABS*	00000000 __girl1_size
00011000 g       *ABS*	00000000 __cath_lma
00000400 g       *ABS*	00000000 __cath_size
00011400 g       *ABS*	00000000 __cat_lma
00000400 g       *ABS*	00000000 __cat_size
00013000 g       *ABS*	00000000 __dash_lma
00000800 g       *ABS*	00000000 __dash_size
00005ea6 g       .bss	00000000 __bss_start
00010400 g       .palgrudge	00000000 end_palgrudge
00010800 g       .boy1	00000000 end_boy1
00010c00 g       .thing	00000000 end_thing
00011000 g       .girl1	00000000 end_girl1
00011400 g       .cath	00000000 end_cath
00011800 g       .cat	00000000 end_cat
00013800 g       .dash	00000000 end_dash
0000033e g       .text	00000000 _start
0000002d g       *ABS*	00000000 __rc29
0000002b g       *ABS*	00000000 __rc27
00000029 g       *ABS*	00000000 __rc25
00000027 g       *ABS*	00000000 __rc23
00000025 g       *ABS*	00000000 __rc21
00000023 g       *ABS*	00000000 __rc19
00000021 g       *ABS*	00000000 __rc17
0000001f g       *ABS*	00000000 __rc15
0000001d g       *ABS*	00000000 __rc13
0000001b g       *ABS*	00000000 __rc11
00000019 g       *ABS*	00000000 __rc9
00000017 g       *ABS*	00000000 __rc7
00000015 g       *ABS*	00000000 __rc5
00000013 g       *ABS*	00000000 __rc3
00000011 g       *ABS*	00000000 __rc1
00000030 g       .zp.data	00000000 __zp_data_start
00000300 g       *ABS*	00000000 __zp_data_load_start
0000003e g       *ABS*	00000000 __zp_data_size
0000006e g       .zp.bss	00000000 __zp_bss_start
00000073 g       *ABS*	00000000 __zp_bss_size
0000033e g       .text	00000000 _init
000039d1 g       .text	00000000 __init_array_start
000039d1 g       .text	00000000 __init_array_end
000039d1 g       .text	00000000 __fini_array_start
000039d1 g       .text	00000000 __fini_array_end
00005ea6 g       .data	00000000 __data_start
00005ea6 g       .data	00000000 __data_end
00005ea6 g       *ABS*	00000000 __data_load_start
00000000 g       *ABS*	00000000 __data_size
00006088 g       .bss	00000000 __bss_end
000001e2 g       *ABS*	00000000 __bss_size
00006088 g       .noinit	00000000 end_block8
00006088 g       .noinit	00000000 end_block9
00006088 g       .noinit	00000000 end_block10
00006088 g       .noinit	00000000 end_block11
00006088 g       .noinit	00000000 end_block12
00006088 g       .noinit	00000000 end_block13
00006088 g       .noinit	00000000 end_block14
00006088 g       .noinit	00000000 end_block15
00006088 g       .noinit	00000000 end_block16
00006088 g       .noinit	00000000 end_block17
00006088 g       .noinit	00000000 end_block18
00006088 g       .noinit	00000000 end_block19
00006088 g       .noinit	00000000 end_block20
00006088 g       .noinit	00000000 end_block21
00006088 g       .noinit	00000000 end_block22
00006088 g       .noinit	00000000 end_block23

Disassembly of section .text:

0000033e <_start>:
     33e: a9 00        	lda	#$0
     340: 85 10        	sta	$10                     ; 0x10 <__rc0>
     342: a9 c0        	lda	#$c0
     344: 85 11        	sta	$11                     ; 0x11 <__rc1>

00000346 <__do_zero_bss>:
     346: 20 0a 06     	jsr	$60a <__zero_bss>

00000349 <__do_zero_zp_bss>:
     349: 20 1d 06     	jsr	$61d <__zero_zp_bss>

0000034c <__do_copy_zp_data>:
     34c: 20 30 06     	jsr	$630 <__copy_zp_data>
     34f: 20 8b 0a     	jsr	$a8b <main>

00000352 <__after_main>:
     352: 4c d7 26     	jmp	$26d7 <exit>

00000355 <_fini>:
     355: 60           	rts

00000356 <_ZN12_GLOBAL__N_19FreeChunk6insertEPvj>:
     356: 85 16        	sta	$16                     ; 0x16 <__rc6>
     358: 29 fe        	and	#$fe
     35a: 85 14        	sta	$14                     ; 0x14 <__rc4>
     35c: a0 01        	ldy	#$1
     35e: 98           	tya
     35f: 32 12        	and	($12)                   ; 0x12 <__rc2>
     361: 05 14        	ora	$14                     ; 0x14 <__rc4>
     363: 92 12        	sta	($12)                   ; 0x12 <__rc2>
     365: a5 12        	lda	$12                     ; 0x12 <__rc2>
     367: 18           	clc
     368: 65 14        	adc	$14                     ; 0x14 <__rc4>
     36a: 85 15        	sta	$15                     ; 0x15 <__rc5>
     36c: 8a           	txa
     36d: 65 13        	adc	$13                     ; 0x13 <__rc3>
     36f: 85 14        	sta	$14                     ; 0x14 <__rc4>
     371: 18           	clc
     372: a5 15        	lda	$15                     ; 0x15 <__rc5>
     374: 69 fe        	adc	#$fe
     376: 85 17        	sta	$17                     ; 0x17 <__rc7>
     378: a5 14        	lda	$14                     ; 0x14 <__rc4>
     37a: 69 ff        	adc	#$ff
     37c: 85 15        	sta	$15                     ; 0x15 <__rc5>
     37e: a5 17        	lda	$17                     ; 0x17 <__rc7>
     380: 85 14        	sta	$14                     ; 0x14 <__rc4>
     382: 8a           	txa
     383: 91 12        	sta	($12),y                 ; 0x12 <__rc2>
     385: a5 16        	lda	$16                     ; 0x16 <__rc6>
     387: 92 14        	sta	($14)                   ; 0x14 <__rc4>
     389: 8a           	txa
     38a: 91 14        	sta	($14),y                 ; 0x14 <__rc4>
     38c: b1 12        	lda	($12),y                 ; 0x12 <__rc2>
     38e: 85 14        	sta	$14                     ; 0x14 <__rc4>
     390: a9 fe        	lda	#$fe
     392: 32 12        	and	($12)                   ; 0x12 <__rc2>
     394: 18           	clc
     395: 65 dd        	adc	$dd                     ; 0xdd <_ZN12_GLOBAL__N_19free_sizeE>
     397: aa           	tax
     398: a5 14        	lda	$14                     ; 0x14 <__rc4>
     39a: 65 de        	adc	$de                     ; 0xde <_ZN12_GLOBAL__N_19free_sizeE+0x1>
     39c: a8           	tay
     39d: 18           	clc
     39e: 8a           	txa
     39f: 69 fe        	adc	#$fe
     3a1: aa           	tax
     3a2: 98           	tya
     3a3: 69 ff        	adc	#$ff
     3a5: 86 dd        	stx	$dd                     ; 0xdd <_ZN12_GLOBAL__N_19free_sizeE>
     3a7: 85 de        	sta	$de                     ; 0xde <_ZN12_GLOBAL__N_19free_sizeE+0x1>
     3a9: a6 df        	ldx	$df                     ; 0xdf <_ZN12_GLOBAL__N_19free_listE>
     3ab: 86 16        	stx	$16                     ; 0x16 <__rc6>
     3ad: a4 e0        	ldy	$e0                     ; 0xe0 <_ZN12_GLOBAL__N_19free_listE+0x1>
     3af: a2 00        	ldx	#$0
     3b1: 86 14        	stx	$14                     ; 0x14 <__rc4>
     3b3: a2 00        	ldx	#$0
     3b5: 86 15        	stx	$15                     ; 0x15 <__rc5>
     3b7: c4 15        	cpy	$15                     ; 0x15 <__rc5>
     3b9: d0 3c        	bne	$3f7 <_ZN12_GLOBAL__N_19FreeChunk6insertEPvj+0xa1>
     3bb: a6 16        	ldx	$16                     ; 0x16 <__rc6>
     3bd: e4 14        	cpx	$14                     ; 0x14 <__rc4>
     3bf: d0 36        	bne	$3f7 <_ZN12_GLOBAL__N_19FreeChunk6insertEPvj+0xa1>
     3c1: a0 04        	ldy	#$4
     3c3: a5 12        	lda	$12                     ; 0x12 <__rc2>
     3c5: 18           	clc
     3c6: 69 04        	adc	#$4
     3c8: 85 14        	sta	$14                     ; 0x14 <__rc4>
     3ca: a5 13        	lda	$13                     ; 0x13 <__rc3>
     3cc: 69 00        	adc	#$0
     3ce: 18           	clc
     3cf: 85 15        	sta	$15                     ; 0x15 <__rc5>
     3d1: a5 12        	lda	$12                     ; 0x12 <__rc2>
     3d3: 91 12        	sta	($12),y                 ; 0x12 <__rc2>
     3d5: a0 02        	ldy	#$2
     3d7: 85 17        	sta	$17                     ; 0x17 <__rc7>
     3d9: 69 02        	adc	#$2
     3db: 85 16        	sta	$16                     ; 0x16 <__rc6>
     3dd: a5 17        	lda	$17                     ; 0x17 <__rc7>
     3df: 91 12        	sta	($12),y                 ; 0x12 <__rc2>
     3e1: a5 13        	lda	$13                     ; 0x13 <__rc3>
     3e3: 69 00        	adc	#$0
     3e5: 85 17        	sta	$17                     ; 0x17 <__rc7>
     3e7: 88           	dey
     3e8: a5 13        	lda	$13                     ; 0x13 <__rc3>
     3ea: 91 14        	sta	($14),y                 ; 0x14 <__rc4>
     3ec: 91 16        	sta	($16),y                 ; 0x16 <__rc6>
     3ee: a6 12        	ldx	$12                     ; 0x12 <__rc2>
     3f0: 86 df        	stx	$df                     ; 0xdf <_ZN12_GLOBAL__N_19free_listE>
     3f2: a6 13        	ldx	$13                     ; 0x13 <__rc3>
     3f4: 86 e0        	stx	$e0                     ; 0xe0 <_ZN12_GLOBAL__N_19free_listE+0x1>
     3f6: 60           	rts
     3f7: a6 12        	ldx	$12                     ; 0x12 <__rc2>
     3f9: a5 12        	lda	$12                     ; 0x12 <__rc2>
     3fb: 18           	clc
     3fc: 69 02        	adc	#$2
     3fe: 85 14        	sta	$14                     ; 0x14 <__rc4>
     400: 84 18        	sty	$18                     ; 0x18 <__rc8>
     402: a5 13        	lda	$13                     ; 0x13 <__rc3>
     404: 69 00        	adc	#$0
     406: 85 15        	sta	$15                     ; 0x15 <__rc5>
     408: a5 16        	lda	$16                     ; 0x16 <__rc6>
     40a: 84 17        	sty	$17                     ; 0x17 <__rc7>
     40c: a0 02        	ldy	#$2
     40e: 91 12        	sta	($12),y                 ; 0x12 <__rc2>
     410: 85 19        	sta	$19                     ; 0x19 <__rc9>
     412: 88           	dey
     413: a5 18        	lda	$18                     ; 0x18 <__rc8>
     415: 91 14        	sta	($14),y                 ; 0x14 <__rc4>
     417: 18           	clc
     418: a5 19        	lda	$19                     ; 0x19 <__rc9>
     41a: 69 04        	adc	#$4
     41c: a8           	tay
     41d: a5 18        	lda	$18                     ; 0x18 <__rc8>
     41f: 69 00        	adc	#$0
     421: 85 19        	sta	$19                     ; 0x19 <__rc9>
     423: 84 18        	sty	$18                     ; 0x18 <__rc8>
     425: 8a           	txa
     426: 18           	clc
     427: 69 04        	adc	#$4
     429: 85 1a        	sta	$1a                     ; 0x1a <__rc10>
     42b: a5 13        	lda	$13                     ; 0x13 <__rc3>
     42d: 69 00        	adc	#$0
     42f: 85 1b        	sta	$1b                     ; 0x1b <__rc11>
     431: a0 04        	ldy	#$4
     433: b1 16        	lda	($16),y                 ; 0x16 <__rc6>
     435: 85 16        	sta	$16                     ; 0x16 <__rc6>
     437: 85 1d        	sta	$1d                     ; 0x1d <__rc13>
     439: a0 01        	ldy	#$1
     43b: b1 18        	lda	($18),y                 ; 0x18 <__rc8>
     43d: 85 17        	sta	$17                     ; 0x17 <__rc7>
     43f: 85 19        	sta	$19                     ; 0x19 <__rc9>
     441: a0 04        	ldy	#$4
     443: a5 1d        	lda	$1d                     ; 0x1d <__rc13>
     445: 91 12        	sta	($12),y                 ; 0x12 <__rc2>
     447: a5 19        	lda	$19                     ; 0x19 <__rc9>
     449: a0 01        	ldy	#$1
     44b: 91 1a        	sta	($1a),y                 ; 0x1a <__rc10>
     44d: 18           	clc
     44e: a5 1d        	lda	$1d                     ; 0x1d <__rc13>
     450: 69 02        	adc	#$2
     452: 85 18        	sta	$18                     ; 0x18 <__rc8>
     454: a5 19        	lda	$19                     ; 0x19 <__rc9>
     456: 69 00        	adc	#$0
     458: 85 19        	sta	$19                     ; 0x19 <__rc9>
     45a: 8a           	txa
     45b: c8           	iny
     45c: 91 16        	sta	($16),y                 ; 0x16 <__rc6>
     45e: a5 13        	lda	$13                     ; 0x13 <__rc3>
     460: 88           	dey
     461: 91 18        	sta	($18),y                 ; 0x18 <__rc8>
     463: c8           	iny
     464: b1 12        	lda	($12),y                 ; 0x12 <__rc2>
     466: 85 16        	sta	$16                     ; 0x16 <__rc6>
     468: 85 18        	sta	$18                     ; 0x18 <__rc8>
     46a: 88           	dey
     46b: b1 14        	lda	($14),y                 ; 0x14 <__rc4>
     46d: 85 17        	sta	$17                     ; 0x17 <__rc7>
     46f: 85 14        	sta	$14                     ; 0x14 <__rc4>
     471: 8a           	txa
     472: a0 04        	ldy	#$4
     474: 91 16        	sta	($16),y                 ; 0x16 <__rc6>
     476: 18           	clc
     477: a5 18        	lda	$18                     ; 0x18 <__rc8>
     479: 69 04        	adc	#$4
     47b: a8           	tay
     47c: a5 14        	lda	$14                     ; 0x14 <__rc4>
     47e: 69 00        	adc	#$0
     480: 84 14        	sty	$14                     ; 0x14 <__rc4>
     482: 85 15        	sta	$15                     ; 0x15 <__rc5>
     484: a5 13        	lda	$13                     ; 0x13 <__rc3>
     486: a0 01        	ldy	#$1
     488: 91 14        	sta	($14),y                 ; 0x14 <__rc4>
     48a: 60           	rts
     48b: 00           	brk

0000048c <_ZN12_GLOBAL__N_19FreeChunk6removeEv>:
     48c: a0 01        	ldy	#$1
     48e: a9 fe        	lda	#$fe
     490: 32 12        	and	($12)                   ; 0x12 <__rc2>
     492: 85 14        	sta	$14                     ; 0x14 <__rc4>
     494: a5 dd        	lda	$dd                     ; 0xdd <_ZN12_GLOBAL__N_19free_sizeE>
     496: a6 de        	ldx	$de                     ; 0xde <_ZN12_GLOBAL__N_19free_sizeE+0x1>
     498: 86 15        	stx	$15                     ; 0x15 <__rc5>
     49a: 38           	sec
     49b: e5 14        	sbc	$14                     ; 0x14 <__rc4>
     49d: aa           	tax
     49e: a5 15        	lda	$15                     ; 0x15 <__rc5>
     4a0: f1 12        	sbc	($12),y                 ; 0x12 <__rc2>
     4a2: 85 14        	sta	$14                     ; 0x14 <__rc4>
     4a4: 18           	clc
     4a5: 8a           	txa
     4a6: 69 02        	adc	#$2
     4a8: 85 15        	sta	$15                     ; 0x15 <__rc5>
     4aa: a5 14        	lda	$14                     ; 0x14 <__rc4>
     4ac: 69 00        	adc	#$0
     4ae: a6 15        	ldx	$15                     ; 0x15 <__rc5>
     4b0: 86 dd        	stx	$dd                     ; 0xdd <_ZN12_GLOBAL__N_19free_sizeE>
     4b2: 85 de        	sta	$de                     ; 0xde <_ZN12_GLOBAL__N_19free_sizeE+0x1>
     4b4: a5 12        	lda	$12                     ; 0x12 <__rc2>
     4b6: 18           	clc
     4b7: 69 02        	adc	#$2
     4b9: 85 14        	sta	$14                     ; 0x14 <__rc4>
     4bb: a5 13        	lda	$13                     ; 0x13 <__rc3>
     4bd: 69 00        	adc	#$0
     4bf: c8           	iny
     4c0: 85 15        	sta	$15                     ; 0x15 <__rc5>
     4c2: b1 12        	lda	($12),y                 ; 0x12 <__rc2>
     4c4: aa           	tax
     4c5: 88           	dey
     4c6: b1 14        	lda	($14),y                 ; 0x14 <__rc4>
     4c8: 85 19        	sta	$19                     ; 0x19 <__rc9>
     4ca: c5 13        	cmp	$13                     ; 0x13 <__rc3>
     4cc: d0 0f        	bne	$4dd <_ZN12_GLOBAL__N_19FreeChunk6removeEv+0x51>
     4ce: e4 12        	cpx	$12                     ; 0x12 <__rc2>
     4d0: d0 0b        	bne	$4dd <_ZN12_GLOBAL__N_19FreeChunk6removeEv+0x51>
     4d2: a2 00        	ldx	#$0
     4d4: 86 14        	stx	$14                     ; 0x14 <__rc4>
     4d6: a2 00        	ldx	#$0
     4d8: 86 15        	stx	$15                     ; 0x15 <__rc5>
     4da: 4c 5a 05     	jmp	$55a <_ZN12_GLOBAL__N_19FreeChunk6removeEv+0xce>
     4dd: 86 18        	stx	$18                     ; 0x18 <__rc8>
     4df: a6 12        	ldx	$12                     ; 0x12 <__rc2>
     4e1: a5 12        	lda	$12                     ; 0x12 <__rc2>
     4e3: 86 1b        	stx	$1b                     ; 0x1b <__rc11>
     4e5: 18           	clc
     4e6: 69 04        	adc	#$4
     4e8: 85 14        	sta	$14                     ; 0x14 <__rc4>
     4ea: a5 13        	lda	$13                     ; 0x13 <__rc3>
     4ec: 69 00        	adc	#$0
     4ee: a0 04        	ldy	#$4
     4f0: 85 15        	sta	$15                     ; 0x15 <__rc5>
     4f2: b1 12        	lda	($12),y                 ; 0x12 <__rc2>
     4f4: 85 1c        	sta	$1c                     ; 0x1c <__rc12>
     4f6: 18           	clc
     4f7: 69 02        	adc	#$2
     4f9: 85 16        	sta	$16                     ; 0x16 <__rc6>
     4fb: a0 01        	ldy	#$1
     4fd: b1 14        	lda	($14),y                 ; 0x14 <__rc4>
     4ff: aa           	tax
     500: 69 00        	adc	#$0
     502: a4 16        	ldy	$16                     ; 0x16 <__rc6>
     504: 84 14        	sty	$14                     ; 0x14 <__rc4>
     506: 85 15        	sta	$15                     ; 0x15 <__rc5>
     508: a4 1c        	ldy	$1c                     ; 0x1c <__rc12>
     50a: 84 16        	sty	$16                     ; 0x16 <__rc6>
     50c: 86 17        	stx	$17                     ; 0x17 <__rc7>
     50e: a0 02        	ldy	#$2
     510: a5 18        	lda	$18                     ; 0x18 <__rc8>
     512: 91 16        	sta	($16),y                 ; 0x16 <__rc6>
     514: a5 19        	lda	$19                     ; 0x19 <__rc9>
     516: 88           	dey
     517: 91 14        	sta	($14),y                 ; 0x14 <__rc4>
     519: 18           	clc
     51a: a5 1b        	lda	$1b                     ; 0x1b <__rc11>
     51c: 69 02        	adc	#$2
     51e: 85 14        	sta	$14                     ; 0x14 <__rc4>
     520: a5 13        	lda	$13                     ; 0x13 <__rc3>
     522: 69 00        	adc	#$0
     524: 85 15        	sta	$15                     ; 0x15 <__rc5>
     526: c8           	iny
     527: b1 12        	lda	($12),y                 ; 0x12 <__rc2>
     529: 85 16        	sta	$16                     ; 0x16 <__rc6>
     52b: 88           	dey
     52c: b1 14        	lda	($14),y                 ; 0x14 <__rc4>
     52e: a4 16        	ldy	$16                     ; 0x16 <__rc6>
     530: 84 14        	sty	$14                     ; 0x14 <__rc4>
     532: 85 15        	sta	$15                     ; 0x15 <__rc5>
     534: 85 17        	sta	$17                     ; 0x17 <__rc7>
     536: a0 04        	ldy	#$4
     538: a5 1c        	lda	$1c                     ; 0x1c <__rc12>
     53a: 91 14        	sta	($14),y                 ; 0x14 <__rc4>
     53c: 18           	clc
     53d: a5 16        	lda	$16                     ; 0x16 <__rc6>
     53f: 69 04        	adc	#$4
     541: 85 16        	sta	$16                     ; 0x16 <__rc6>
     543: a5 17        	lda	$17                     ; 0x17 <__rc7>
     545: 69 00        	adc	#$0
     547: 85 17        	sta	$17                     ; 0x17 <__rc7>
     549: 8a           	txa
     54a: a0 01        	ldy	#$1
     54c: 91 16        	sta	($16),y                 ; 0x16 <__rc6>
     54e: a6 e0        	ldx	$e0                     ; 0xe0 <_ZN12_GLOBAL__N_19free_listE+0x1>
     550: e4 13        	cpx	$13                     ; 0x13 <__rc3>
     552: d0 0e        	bne	$562 <_ZN12_GLOBAL__N_19FreeChunk6removeEv+0xd6>
     554: a6 df        	ldx	$df                     ; 0xdf <_ZN12_GLOBAL__N_19free_listE>
     556: e4 12        	cpx	$12                     ; 0x12 <__rc2>
     558: d0 08        	bne	$562 <_ZN12_GLOBAL__N_19FreeChunk6removeEv+0xd6>
     55a: a6 14        	ldx	$14                     ; 0x14 <__rc4>
     55c: a4 15        	ldy	$15                     ; 0x15 <__rc5>
     55e: 86 df        	stx	$df                     ; 0xdf <_ZN12_GLOBAL__N_19free_listE>
     560: 84 e0        	sty	$e0                     ; 0xe0 <_ZN12_GLOBAL__N_19free_listE+0x1>
     562: 60           	rts
     563: 00           	brk

00000564 <_ZN6__impl6VarInt4makeEPvc>:
     564: 92 12        	sta	($12)                   ; 0x12 <__rc2>
     566: 60           	rts
     567: 00           	brk

00000568 <_ZNK6__impl6VarInt8high_bitEv>:
     568: b2 12        	lda	($12)                   ; 0x12 <__rc2>
     56a: a8           	tay
     56b: b1 12        	lda	($12),y                 ; 0x12 <__rc2>
     56d: 10 03        	bpl	$572 <_ZNK6__impl6VarInt8high_bitEv+0xa>
     56f: a9 01        	lda	#$1
     571: 60           	rts
     572: a9 00        	lda	#$0
     574: 60           	rts
     575: 00           	brk

00000576 <_ZNK6__impl6VarInt8negativeEv>:
     576: b2 12        	lda	($12)                   ; 0x12 <__rc2>
     578: a8           	tay
     579: b1 12        	lda	($12),y                 ; 0x12 <__rc2>
     57b: 10 03        	bpl	$580 <_ZNK6__impl6VarInt8negativeEv+0xa>
     57d: a9 01        	lda	#$1
     57f: 60           	rts
     580: a9 00        	lda	#$0
     582: 60           	rts
     583: 00           	brk

00000584 <_ZN6__impl6VarInt6negateEv>:
     584: b2 12        	lda	($12)                   ; 0x12 <__rc2>
     586: f0 42        	beq	$5ca <_ZN6__impl6VarInt6negateEv+0x46>
     588: aa           	tax
     589: a4 12        	ldy	$12                     ; 0x12 <__rc2>
     58b: 84 16        	sty	$16                     ; 0x16 <__rc6>
     58d: a4 13        	ldy	$13                     ; 0x13 <__rc3>
     58f: 84 17        	sty	$17                     ; 0x17 <__rc7>
     591: 64 12        	stz	$12                     ; 0x12 <__rc2>
     593: 64 13        	stz	$13                     ; 0x13 <__rc3>
     595: a0 01        	ldy	#$1
     597: a5 16        	lda	$16                     ; 0x16 <__rc6>
     599: 18           	clc
     59a: 65 12        	adc	$12                     ; 0x12 <__rc2>
     59c: 85 14        	sta	$14                     ; 0x14 <__rc4>
     59e: a5 17        	lda	$17                     ; 0x17 <__rc7>
     5a0: 69 00        	adc	#$0
     5a2: 85 15        	sta	$15                     ; 0x15 <__rc5>
     5a4: a9 00        	lda	#$0
     5a6: 38           	sec
     5a7: f1 14        	sbc	($14),y                 ; 0x14 <__rc4>
     5a9: 64 19        	stz	$19                     ; 0x19 <__rc9>
     5ab: b0 02        	bcs	$5af <_ZN6__impl6VarInt6negateEv+0x2b>
     5ad: 84 19        	sty	$19                     ; 0x19 <__rc9>
     5af: 38           	sec
     5b0: e5 13        	sbc	$13                     ; 0x13 <__rc3>
     5b2: 85 18        	sta	$18                     ; 0x18 <__rc8>
     5b4: 64 13        	stz	$13                     ; 0x13 <__rc3>
     5b6: b0 02        	bcs	$5ba <_ZN6__impl6VarInt6negateEv+0x36>
     5b8: 84 13        	sty	$13                     ; 0x13 <__rc3>
     5ba: a5 19        	lda	$19                     ; 0x19 <__rc9>
     5bc: 05 13        	ora	$13                     ; 0x13 <__rc3>
     5be: 85 13        	sta	$13                     ; 0x13 <__rc3>
     5c0: a5 18        	lda	$18                     ; 0x18 <__rc8>
     5c2: 91 14        	sta	($14),y                 ; 0x14 <__rc4>
     5c4: e6 12        	inc	$12                     ; 0x12 <__rc2>
     5c6: e4 12        	cpx	$12                     ; 0x12 <__rc2>
     5c8: d0 cd        	bne	$597 <_ZN6__impl6VarInt6negateEv+0x13>
     5ca: 60           	rts
     5cb: 00           	brk

000005cc <_ZN6__impl6VarInt3shlEv>:
     5cc: b2 12        	lda	($12)                   ; 0x12 <__rc2>
     5ce: f0 36        	beq	$606 <_ZN6__impl6VarInt3shlEv+0x3a>
     5d0: 85 17        	sta	$17                     ; 0x17 <__rc7>
     5d2: 64 14        	stz	$14                     ; 0x14 <__rc4>
     5d4: a6 12        	ldx	$12                     ; 0x12 <__rc2>
     5d6: 86 15        	stx	$15                     ; 0x15 <__rc5>
     5d8: a6 13        	ldx	$13                     ; 0x13 <__rc3>
     5da: 86 18        	stx	$18                     ; 0x18 <__rc8>
     5dc: a0 01        	ldy	#$1
     5de: 64 12        	stz	$12                     ; 0x12 <__rc2>
     5e0: a5 15        	lda	$15                     ; 0x15 <__rc5>
     5e2: 18           	clc
     5e3: 65 12        	adc	$12                     ; 0x12 <__rc2>
     5e5: 85 16        	sta	$16                     ; 0x16 <__rc6>
     5e7: a6 17        	ldx	$17                     ; 0x17 <__rc7>
     5e9: a5 18        	lda	$18                     ; 0x18 <__rc8>
     5eb: 69 00        	adc	#$0
     5ed: 85 17        	sta	$17                     ; 0x17 <__rc7>
     5ef: b1 16        	lda	($16),y                 ; 0x16 <__rc6>
     5f1: 0a           	asl
     5f2: 64 13        	stz	$13                     ; 0x13 <__rc3>
     5f4: 26 13        	rol	$13                     ; 0x13 <__rc3>
     5f6: 05 14        	ora	$14                     ; 0x14 <__rc4>
     5f8: 91 16        	sta	($16),y                 ; 0x16 <__rc6>
     5fa: e6 12        	inc	$12                     ; 0x12 <__rc2>
     5fc: a5 13        	lda	$13                     ; 0x13 <__rc3>
     5fe: 85 14        	sta	$14                     ; 0x14 <__rc4>
     600: 86 17        	stx	$17                     ; 0x17 <__rc7>
     602: e4 12        	cpx	$12                     ; 0x12 <__rc2>
     604: d0 da        	bne	$5e0 <_ZN6__impl6VarInt3shlEv+0x14>
     606: 60           	rts

00000607 <__call_indir>:
     607: 6c 22 00     	jmp	($22)                   ; 0x22 <__rc18>

0000060a <__zero_bss>:
     60a: a2 e2        	ldx	#$e2
     60c: a0 01        	ldy	#$1
     60e: a9 a6        	lda	#$a6
     610: 85 12        	sta	$12                     ; 0x12 <__rc2>
     612: a9 5e        	lda	#$5e
     614: 85 13        	sta	$13                     ; 0x13 <__rc3>
     616: a9 00        	lda	#$0
     618: 84 14        	sty	$14                     ; 0x14 <__rc4>
     61a: 4c 11 39     	jmp	$3911 <__memset>

0000061d <__zero_zp_bss>:
     61d: a2 73        	ldx	#$73
     61f: a0 00        	ldy	#$0
     621: a9 6e        	lda	#$6e
     623: 85 12        	sta	$12                     ; 0x12 <__rc2>
     625: a9 00        	lda	#$0
     627: 85 13        	sta	$13                     ; 0x13 <__rc3>
     629: a9 00        	lda	#$0
     62b: 84 14        	sty	$14                     ; 0x14 <__rc4>
     62d: 4c 11 39     	jmp	$3911 <__memset>

00000630 <__copy_zp_data>:
     630: a9 3e        	lda	#$3e
     632: a2 00        	ldx	#$0
     634: a0 30        	ldy	#$30
     636: 84 12        	sty	$12                     ; 0x12 <__rc2>
     638: a0 00        	ldy	#$0
     63a: 84 13        	sty	$13                     ; 0x13 <__rc3>
     63c: a0 00        	ldy	#$0
     63e: 84 14        	sty	$14                     ; 0x14 <__rc4>
     640: a0 03        	ldy	#$3
     642: 84 15        	sty	$15                     ; 0x15 <__rc5>
     644: 4c e5 38     	jmp	$38e5 <memcpy>

00000647 <f256Init>:
     647: 64 12        	stz	$12                     ; 0x12 <__rc2>
     649: 64 01        	stz	$1                      ; 0x1 <__data_size+0x1>
     64b: a2 3f        	ldx	#$3f
     64d: 8e 00 d0     	stx	$d000                   ; 0xd000 <end_block9+0x6f78>
     650: a2 b3        	ldx	#$b3
     652: 86 00        	stx	$0                      ; 0x0 <__data_size>
     654: 64 08        	stz	$8                      ; 0x8 <__data_size+0x8>
     656: a2 01        	ldx	#$1
     658: 86 09        	stx	$9                      ; 0x9 <__data_size+0x9>
     65a: e8           	inx
     65b: 86 0a        	stx	$a                      ; 0xa <__data_size+0xa>
     65d: e8           	inx
     65e: 86 0b        	stx	$b                      ; 0xb <__data_size+0xb>
     660: e8           	inx
     661: 86 0c        	stx	$c                      ; 0xc <__data_size+0xc>
     663: e8           	inx
     664: 86 0d        	stx	$d                      ; 0xd <__data_size+0xd>
     666: a2 f0        	ldx	#$f0
     668: 86 6e        	stx	$6e                     ; 0x6e <kernelArgs>
     66a: 64 6f        	stz	$6f                     ; 0x6f <kernelArgs+0x1>
     66c: a2 d4        	ldx	#$d4
     66e: a0 00        	ldy	#$0
     670: 86 f0        	stx	$f0                     ; 0xf0 <__zp_bss_size+0x7d>
     672: 84 f1        	sty	$f1                     ; 0xf1 <__zp_bss_size+0x7e>
     674: a2 00        	ldx	#$0
     676: 86 16        	stx	$16                     ; 0x16 <__rc6>
     678: ca           	dex
     679: 86 17        	stx	$17                     ; 0x17 <__rc7>
     67b: 8a           	txa
     67c: 0a           	asl
     67d: 0a           	asl
     67e: 18           	clc
     67f: 69 d4        	adc	#$d4
     681: 85 18        	sta	$18                     ; 0x18 <__rc8>
     683: a0 00        	ldy	#$0
     685: 64 15        	stz	$15                     ; 0x15 <__rc5>
     687: 64 14        	stz	$14                     ; 0x14 <__rc4>
     689: a6 17        	ldx	$17                     ; 0x17 <__rc7>
     68b: e0 03        	cpx	#$3
     68d: a6 01        	ldx	$1                      ; 0x1 <__data_size+0x1>
     68f: 86 1a        	stx	$1a                     ; 0x1a <__rc10>
     691: a2 d0        	ldx	#$d0
     693: 84 19        	sty	$19                     ; 0x19 <__rc9>
     695: b0 02        	bcs	$699 <f256Init+0x52>
     697: a6 18        	ldx	$18                     ; 0x18 <__rc8>
     699: 86 13        	stx	$13                     ; 0x13 <__rc3>
     69b: a5 15        	lda	$15                     ; 0x15 <__rc5>
     69d: 18           	clc
     69e: 65 12        	adc	$12                     ; 0x12 <__rc2>
     6a0: a8           	tay
     6a1: a6 15        	ldx	$15                     ; 0x15 <__rc5>
     6a3: a5 14        	lda	$14                     ; 0x14 <__rc4>
     6a5: 85 1b        	sta	$1b                     ; 0x1b <__rc11>
     6a7: a5 14        	lda	$14                     ; 0x14 <__rc4>
     6a9: 65 13        	adc	$13                     ; 0x13 <__rc3>
     6ab: 84 14        	sty	$14                     ; 0x14 <__rc4>
     6ad: a0 01        	ldy	#$1
     6af: 84 01        	sty	$1                      ; 0x1 <__data_size+0x1>
     6b1: 85 15        	sta	$15                     ; 0x15 <__rc5>
     6b3: a5 19        	lda	$19                     ; 0x19 <__rc9>
     6b5: 92 14        	sta	($14)                   ; 0x14 <__rc4>
     6b7: 91 14        	sta	($14),y                 ; 0x14 <__rc4>
     6b9: c8           	iny
     6ba: 91 14        	sta	($14),y                 ; 0x14 <__rc4>
     6bc: 85 13        	sta	$13                     ; 0x13 <__rc3>
     6be: c8           	iny
     6bf: a9 ff        	lda	#$ff
     6c1: 91 14        	sta	($14),y                 ; 0x14 <__rc4>
     6c3: 8a           	txa
     6c4: a6 1a        	ldx	$1a                     ; 0x1a <__rc10>
     6c6: 86 01        	stx	$1                      ; 0x1 <__data_size+0x1>
     6c8: 18           	clc
     6c9: 69 04        	adc	#$4
     6cb: 85 15        	sta	$15                     ; 0x15 <__rc5>
     6cd: a5 1b        	lda	$1b                     ; 0x1b <__rc11>
     6cf: 69 00        	adc	#$0
     6d1: e6 13        	inc	$13                     ; 0x13 <__rc3>
     6d3: a4 13        	ldy	$13                     ; 0x13 <__rc3>
     6d5: 85 14        	sta	$14                     ; 0x14 <__rc4>
     6d7: c9 04        	cmp	#$4
     6d9: f0 03        	beq	$6de <f256Init+0x97>
     6db: 4c 89 06     	jmp	$689 <f256Init+0x42>
     6de: a5 15        	lda	$15                     ; 0x15 <__rc5>
     6e0: f0 03        	beq	$6e5 <f256Init+0x9e>
     6e2: 4c 89 06     	jmp	$689 <f256Init+0x42>
     6e5: a6 16        	ldx	$16                     ; 0x16 <__rc6>
     6e7: e8           	inx
     6e8: e0 04        	cpx	#$4
     6ea: f0 03        	beq	$6ef <f256Init+0xa8>
     6ec: 4c 76 06     	jmp	$676 <f256Init+0x2f>
     6ef: ad 02 d0     	lda	$d002                   ; 0xd002 <end_block9+0x6f7a>
     6f2: 29 f0        	and	#$f0
     6f4: 8d 02 d0     	sta	$d002                   ; 0xd002 <end_block9+0x6f7a>
     6f7: ad 02 d0     	lda	$d002                   ; 0xd002 <end_block9+0x6f7a>
     6fa: 29 0f        	and	#$f
     6fc: 09 10        	ora	#$10
     6fe: 8d 02 d0     	sta	$d002                   ; 0xd002 <end_block9+0x6f7a>
     701: a2 02        	ldx	#$2
     703: 8e 03 d0     	stx	$d003                   ; 0xd003 <end_block9+0x6f7b>
     706: 20 c2 07     	jsr	$7c2 <textReset>
     709: 20 35 09     	jsr	$935 <bitmapReset>
     70c: a9 10        	lda	#$10
     70e: a2 08        	ldx	#$8
     710: 86 85        	stx	$85                     ; 0x85 <_tileSize>
     712: 86 86        	stx	$86                     ; 0x86 <_tileSize+0x1>
     714: 86 87        	stx	$87                     ; 0x87 <_tileSize+0x2>
     716: 8d 00 d2     	sta	$d200                   ; 0xd200 <end_block9+0x7178>
     719: a4 86        	ldy	$86                     ; 0x86 <_tileSize+0x1>
     71b: aa           	tax
     71c: c0 08        	cpy	#$8
     71e: f0 02        	beq	$722 <f256Init+0xdb>
     720: a2 00        	ldx	#$0
     722: 8e 0c d2     	stx	$d20c                   ; 0xd20c <end_block9+0x7184>
     725: a6 87        	ldx	$87                     ; 0x87 <_tileSize+0x2>
     727: e0 08        	cpx	#$8
     729: f0 02        	beq	$72d <f256Init+0xe6>
     72b: a9 00        	lda	#$0
     72d: 8d 18 d2     	sta	$d218                   ; 0xd218 <end_block9+0x7190>
     730: a0 d9        	ldy	#$d9
     732: a2 00        	ldx	#$0
     734: 64 12        	stz	$12                     ; 0x12 <__rc2>
     736: 84 13        	sty	$13                     ; 0x13 <__rc3>
     738: b5 88        	lda	$88,x                   ; 0x88 <_spriteCtl>
     73a: 92 12        	sta	($12)                   ; 0x12 <__rc2>
     73c: e8           	inx
     73d: 18           	clc
     73e: a5 12        	lda	$12                     ; 0x12 <__rc2>
     740: 69 08        	adc	#$8
     742: 85 12        	sta	$12                     ; 0x12 <__rc2>
     744: 98           	tya
     745: 69 00        	adc	#$0
     747: a8           	tay
     748: e0 40        	cpx	#$40
     74a: d0 ea        	bne	$736 <f256Init+0xef>
     74c: 64 c8        	stz	$c8                     ; 0xc8 <_dirStream>
     74e: 64 c9        	stz	$c9                     ; 0xc9 <_dirStream+0x1>
     750: 64 ca        	stz	$ca                     ; 0xca <_dirStream+0x2>
     752: 64 cb        	stz	$cb                     ; 0xcb <_dirStream+0x3>
     754: 64 cc        	stz	$cc                     ; 0xcc <_dirStream+0x4>
     756: 64 cd        	stz	$cd                     ; 0xcd <_dirStream+0x5>
     758: 64 ce        	stz	$ce                     ; 0xce <_dirStream+0x6>
     75a: 64 cf        	stz	$cf                     ; 0xcf <_dirStream+0x7>
     75c: a5 6e        	lda	$6e                     ; 0x6e <kernelArgs>
     75e: a6 6f        	ldx	$6f                     ; 0x6f <kernelArgs+0x1>
     760: 85 12        	sta	$12                     ; 0x12 <__rc2>
     762: 86 13        	stx	$13                     ; 0x13 <__rc3>
     764: a0 0b        	ldy	#$b
     766: 18           	clc
     767: 69 0b        	adc	#$b
     769: 85 14        	sta	$14                     ; 0x14 <__rc4>
     76b: 8a           	txa
     76c: 69 00        	adc	#$0
     76e: 85 15        	sta	$15                     ; 0x15 <__rc5>
     770: a9 e1        	lda	#$e1
     772: 91 12        	sta	($12),y                 ; 0x12 <__rc2>
     774: a0 01        	ldy	#$1
     776: a9 00        	lda	#$0
     778: 91 14        	sta	($14),y                 ; 0x14 <__rc4>
     77a: a0 0d        	ldy	#$d
     77c: a9 08        	lda	#$8
     77e: 91 12        	sta	($12),y                 ; 0x12 <__rc2>
     780: a2 e9        	ldx	#$e9
     782: a0 00        	ldy	#$0
     784: 86 12        	stx	$12                     ; 0x12 <__rc2>
     786: 84 13        	sty	$13                     ; 0x13 <__rc3>
     788: a2 d3        	ldx	#$d3
     78a: 86 14        	stx	$14                     ; 0x14 <__rc4>
     78c: a2 00        	ldx	#$0
     78e: 86 15        	stx	$15                     ; 0x15 <__rc5>
     790: 20 dc ff     	jsr	$ffdc <end_block9+0x9f54>
     793: 92 12        	sta	($12)                   ; 0x12 <__rc2>
     795: a9 00        	lda	#$0
     797: 6a           	ror
     798: 85 14        	sta	$14                     ; 0x14 <__rc4>
     79a: a6 e7        	ldx	$e7                     ; 0xe7 <__zp_bss_size+0x74>
     79c: a4 e8        	ldy	$e8                     ; 0xe8 <__zp_bss_size+0x75>
     79e: 8e 00 de     	stx	$de00                   ; 0xde00 <end_block9+0x7d78>
     7a1: 9c 01 de     	stz	$de01                   ; 0xde01 <end_block9+0x7d79>
     7a4: 8c 02 de     	sty	$de02                   ; 0xde02 <end_block9+0x7d7a>
     7a7: 9c 03 de     	stz	$de03                   ; 0xde03 <end_block9+0x7d7b>
     7aa: ae 10 de     	ldx	$de10                   ; 0xde10 <end_block9+0x7d88>
     7ad: ac 11 de     	ldy	$de11                   ; 0xde11 <end_block9+0x7d89>
     7b0: ad 12 de     	lda	$de12                   ; 0xde12 <end_block9+0x7d8a>
     7b3: ad 13 de     	lda	$de13                   ; 0xde13 <end_block9+0x7d8b>
     7b6: 8e a4 d6     	stx	$d6a4                   ; 0xd6a4 <end_block9+0x761c>
     7b9: 8c a5 d6     	sty	$d6a5                   ; 0xd6a5 <end_block9+0x761d>
     7bc: a2 03        	ldx	#$3
     7be: 8e a6 d6     	stx	$d6a6                   ; 0xd6a6 <end_block9+0x761e>
     7c1: 60           	rts

000007c2 <textReset>:
     7c2: 64 14        	stz	$14                     ; 0x14 <__rc4>
     7c4: a2 00        	ldx	#$0
     7c6: 86 12        	stx	$12                     ; 0x12 <__rc2>
     7c8: a2 c0        	ldx	#$c0
     7ca: 86 13        	stx	$13                     ; 0x13 <__rc3>
     7cc: a2 f0        	ldx	#$f0
     7ce: 86 62        	stx	$62                     ; 0x62 <_ccolor>
     7d0: ad 01 d0     	lda	$d001                   ; 0xd001 <end_block9+0x6f79>
     7d3: 29 f9        	and	#$f9
     7d5: 09 04        	ora	#$4
     7d7: 8d 01 d0     	sta	$d001                   ; 0xd001 <end_block9+0x6f79>
     7da: a2 50        	ldx	#$50
     7dc: 86 60        	stx	$60                     ; 0x60 <_MAX_COL>
     7de: a2 1e        	ldx	#$1e
     7e0: 86 61        	stx	$61                     ; 0x61 <_MAX_ROW>
     7e2: 9c 10 d0     	stz	$d010                   ; 0xd010 <end_block9+0x6f88>
     7e5: a0 00        	ldy	#$0
     7e7: a2 00        	ldx	#$0
     7e9: 84 18        	sty	$18                     ; 0x18 <__rc8>
     7eb: b9 30 00     	lda	$30,y                   ; 0x30 <textColors>
     7ee: 85 1b        	sta	$1b                     ; 0x1b <__rc11>
     7f0: b9 31 00     	lda	$31,y                   ; 0x31 <textColors+0x1>
     7f3: 85 1c        	sta	$1c                     ; 0x1c <__rc12>
     7f5: b9 32 00     	lda	$32,y                   ; 0x32 <textColors+0x2>
     7f8: 85 1d        	sta	$1d                     ; 0x1d <__rc13>
     7fa: 84 1a        	sty	$1a                     ; 0x1a <__rc10>
     7fc: 8e 00 de     	stx	$de00                   ; 0xde00 <end_block9+0x7d78>
     7ff: 9c 01 de     	stz	$de01                   ; 0xde01 <end_block9+0x7d79>
     802: a0 04        	ldy	#$4
     804: 8c 02 de     	sty	$de02                   ; 0xde02 <end_block9+0x7d7a>
     807: 9c 03 de     	stz	$de03                   ; 0xde03 <end_block9+0x7d7b>
     80a: ac 10 de     	ldy	$de10                   ; 0xde10 <end_block9+0x7d88>
     80d: ad 11 de     	lda	$de11                   ; 0xde11 <end_block9+0x7d89>
     810: 85 15        	sta	$15                     ; 0x15 <__rc5>
     812: 18           	clc
     813: 98           	tya
     814: 65 14        	adc	$14                     ; 0x14 <__rc4>
     816: 85 16        	sta	$16                     ; 0x16 <__rc6>
     818: a9 d8        	lda	#$d8
     81a: 65 15        	adc	$15                     ; 0x15 <__rc5>
     81c: 86 19        	stx	$19                     ; 0x19 <__rc9>
     81e: ae 12 de     	ldx	$de12                   ; 0xde12 <end_block9+0x7d8a>
     821: ae 13 de     	ldx	$de13                   ; 0xde13 <end_block9+0x7d8b>
     824: 85 17        	sta	$17                     ; 0x17 <__rc7>
     826: a5 1d        	lda	$1d                     ; 0x1d <__rc13>
     828: 92 16        	sta	($16)                   ; 0x16 <__rc6>
     82a: a0 01        	ldy	#$1
     82c: a5 1c        	lda	$1c                     ; 0x1c <__rc12>
     82e: 91 16        	sta	($16),y                 ; 0x16 <__rc6>
     830: c8           	iny
     831: a5 1b        	lda	$1b                     ; 0x1b <__rc11>
     833: 91 16        	sta	($16),y                 ; 0x16 <__rc6>
     835: c8           	iny
     836: a9 ff        	lda	#$ff
     838: 91 16        	sta	($16),y                 ; 0x16 <__rc6>
     83a: a6 1a        	ldx	$1a                     ; 0x1a <__rc10>
     83c: b4 30        	ldy	$30,x                   ; 0x30 <textColors>
     83e: 84 1a        	sty	$1a                     ; 0x1a <__rc10>
     840: b4 31        	ldy	$31,x                   ; 0x31 <textColors+0x1>
     842: 84 1b        	sty	$1b                     ; 0x1b <__rc11>
     844: b5 32        	lda	$32,x                   ; 0x32 <textColors+0x2>
     846: aa           	tax
     847: 86 1c        	stx	$1c                     ; 0x1c <__rc12>
     849: a6 19        	ldx	$19                     ; 0x19 <__rc9>
     84b: 8e 00 de     	stx	$de00                   ; 0xde00 <end_block9+0x7d78>
     84e: 9c 01 de     	stz	$de01                   ; 0xde01 <end_block9+0x7d79>
     851: a2 04        	ldx	#$4
     853: 8e 02 de     	stx	$de02                   ; 0xde02 <end_block9+0x7d7a>
     856: 9c 03 de     	stz	$de03                   ; 0xde03 <end_block9+0x7d7b>
     859: ae 10 de     	ldx	$de10                   ; 0xde10 <end_block9+0x7d88>
     85c: 86 15        	stx	$15                     ; 0x15 <__rc5>
     85e: ae 11 de     	ldx	$de11                   ; 0xde11 <end_block9+0x7d89>
     861: 86 16        	stx	$16                     ; 0x16 <__rc6>
     863: a9 40        	lda	#$40
     865: 18           	clc
     866: 65 15        	adc	$15                     ; 0x15 <__rc5>
     868: aa           	tax
     869: a9 d8        	lda	#$d8
     86b: 65 16        	adc	$16                     ; 0x16 <__rc6>
     86d: 86 16        	stx	$16                     ; 0x16 <__rc6>
     86f: ae 12 de     	ldx	$de12                   ; 0xde12 <end_block9+0x7d8a>
     872: 85 17        	sta	$17                     ; 0x17 <__rc7>
     874: ae 13 de     	ldx	$de13                   ; 0xde13 <end_block9+0x7d8b>
     877: a6 19        	ldx	$19                     ; 0x19 <__rc9>
     879: a5 1c        	lda	$1c                     ; 0x1c <__rc12>
     87b: 92 16        	sta	($16)                   ; 0x16 <__rc6>
     87d: a0 01        	ldy	#$1
     87f: a5 1b        	lda	$1b                     ; 0x1b <__rc11>
     881: 91 16        	sta	($16),y                 ; 0x16 <__rc6>
     883: c8           	iny
     884: a5 1a        	lda	$1a                     ; 0x1a <__rc10>
     886: 91 16        	sta	($16),y                 ; 0x16 <__rc6>
     888: a9 ff        	lda	#$ff
     88a: c8           	iny
     88b: 91 16        	sta	($16),y                 ; 0x16 <__rc6>
     88d: e8           	inx
     88e: 18           	clc
     88f: a5 18        	lda	$18                     ; 0x18 <__rc8>
     891: 69 03        	adc	#$3
     893: a8           	tay
     894: c9 30        	cmp	#$30
     896: f0 03        	beq	$89b <textReset+0xd9>
     898: 4c e9 07     	jmp	$7e9 <textReset+0x27>
     89b: a6 01        	ldx	$1                      ; 0x1 <__data_size+0x1>
     89d: 86 18        	stx	$18                     ; 0x18 <__rc8>
     89f: a6 60        	ldx	$60                     ; 0x60 <_MAX_COL>
     8a1: a4 61        	ldy	$61                     ; 0x61 <_MAX_ROW>
     8a3: 8e 00 de     	stx	$de00                   ; 0xde00 <end_block9+0x7d78>
     8a6: 9c 01 de     	stz	$de01                   ; 0xde01 <end_block9+0x7d79>
     8a9: 8c 02 de     	sty	$de02                   ; 0xde02 <end_block9+0x7d7a>
     8ac: 9c 03 de     	stz	$de03                   ; 0xde03 <end_block9+0x7d7b>
     8af: ae 10 de     	ldx	$de10                   ; 0xde10 <end_block9+0x7d88>
     8b2: ac 11 de     	ldy	$de11                   ; 0xde11 <end_block9+0x7d89>
     8b5: ad 12 de     	lda	$de12                   ; 0xde12 <end_block9+0x7d8a>
     8b8: ad 13 de     	lda	$de13                   ; 0xde13 <end_block9+0x7d8b>
     8bb: a9 02        	lda	#$2
     8bd: 85 01        	sta	$1                      ; 0x1 <__data_size+0x1>
     8bf: e0 01        	cpx	#$1
     8c1: 98           	tya
     8c2: e9 00        	sbc	#$0
     8c4: 50 02        	bvc	$8c8 <textReset+0x106>
     8c6: 49 80        	eor	#$80
     8c8: c9 00        	cmp	#$0
     8ca: 30 50        	bmi	$91c <textReset+0x15a>
     8cc: a9 20        	lda	#$20
     8ce: 86 19        	stx	$19                     ; 0x19 <__rc9>
     8d0: 86 14        	stx	$14                     ; 0x14 <__rc4>
     8d2: 84 15        	sty	$15                     ; 0x15 <__rc5>
     8d4: a2 00        	ldx	#$0
     8d6: 86 16        	stx	$16                     ; 0x16 <__rc6>
     8d8: a2 c0        	ldx	#$c0
     8da: 86 17        	stx	$17                     ; 0x17 <__rc7>
     8dc: 80 04        	bra	$8e2 <textReset+0x120>
     8de: a6 15        	ldx	$15                     ; 0x15 <__rc5>
     8e0: f0 14        	beq	$8f6 <textReset+0x134>
     8e2: 92 16        	sta	($16)                   ; 0x16 <__rc6>
     8e4: e6 16        	inc	$16                     ; 0x16 <__rc6>
     8e6: d0 02        	bne	$8ea <textReset+0x128>
     8e8: e6 17        	inc	$17                     ; 0x17 <__rc7>
     8ea: a2 ff        	ldx	#$ff
     8ec: c6 14        	dec	$14                     ; 0x14 <__rc4>
     8ee: e4 14        	cpx	$14                     ; 0x14 <__rc4>
     8f0: d0 ec        	bne	$8de <textReset+0x11c>
     8f2: c6 15        	dec	$15                     ; 0x15 <__rc5>
     8f4: 80 e8        	bra	$8de <textReset+0x11c>
     8f6: a6 14        	ldx	$14                     ; 0x14 <__rc4>
     8f8: d0 e8        	bne	$8e2 <textReset+0x120>
     8fa: a2 03        	ldx	#$3
     8fc: 86 01        	stx	$1                      ; 0x1 <__data_size+0x1>
     8fe: a6 19        	ldx	$19                     ; 0x19 <__rc9>
     900: 80 03        	bra	$905 <textReset+0x143>
     902: 98           	tya
     903: f0 12        	beq	$917 <textReset+0x155>
     905: a5 62        	lda	$62                     ; 0x62 <_ccolor>
     907: 92 12        	sta	($12)                   ; 0x12 <__rc2>
     909: e6 12        	inc	$12                     ; 0x12 <__rc2>
     90b: d0 02        	bne	$90f <textReset+0x14d>
     90d: e6 13        	inc	$13                     ; 0x13 <__rc3>
     90f: ca           	dex
     910: e0 ff        	cpx	#$ff
     912: d0 ee        	bne	$902 <textReset+0x140>
     914: 88           	dey
     915: 80 eb        	bra	$902 <textReset+0x140>
     917: 8a           	txa
     918: d0 eb        	bne	$905 <textReset+0x143>
     91a: 80 04        	bra	$920 <textReset+0x15e>
     91c: a2 03        	ldx	#$3
     91e: 86 01        	stx	$1                      ; 0x1 <__data_size+0x1>
     920: a6 18        	ldx	$18                     ; 0x18 <__rc8>
     922: 86 01        	stx	$1                      ; 0x1 <__data_size+0x1>
     924: 64 70        	stz	$70                     ; 0x70 <_col>
     926: 9c 14 d0     	stz	$d014                   ; 0xd014 <end_block9+0x6f8c>
     929: 9c 15 d0     	stz	$d015                   ; 0xd015 <end_block9+0x6f8d>
     92c: 64 71        	stz	$71                     ; 0x71 <_row>
     92e: 9c 16 d0     	stz	$d016                   ; 0xd016 <end_block9+0x6f8e>
     931: 9c 17 d0     	stz	$d017                   ; 0xd017 <end_block9+0x6f8f>
     934: 60           	rts

00000935 <bitmapReset>:
     935: a2 01        	ldx	#$1
     937: 86 80        	stx	$80                     ; 0x80 <_MAX_X>
     939: 86 81        	stx	$81                     ; 0x81 <_MAX_Y>
     93b: a0 40        	ldy	#$40
     93d: 8c 00 de     	sty	$de00                   ; 0xde00 <end_block9+0x7d78>
     940: 8e 01 de     	stx	$de01                   ; 0xde01 <end_block9+0x7d79>
     943: a2 f0        	ldx	#$f0
     945: 8e 02 de     	stx	$de02                   ; 0xde02 <end_block9+0x7d7a>
     948: 9c 03 de     	stz	$de03                   ; 0xde03 <end_block9+0x7d7b>
     94b: ae 10 de     	ldx	$de10                   ; 0xde10 <end_block9+0x7d88>
     94e: 86 17        	stx	$17                     ; 0x17 <__rc7>
     950: ae 11 de     	ldx	$de11                   ; 0xde11 <end_block9+0x7d89>
     953: 86 12        	stx	$12                     ; 0x12 <__rc2>
     955: ae 12 de     	ldx	$de12                   ; 0xde12 <end_block9+0x7d8a>
     958: 86 13        	stx	$13                     ; 0x13 <__rc3>
     95a: ae 13 de     	ldx	$de13                   ; 0xde13 <end_block9+0x7d8b>
     95d: 86 14        	stx	$14                     ; 0x14 <__rc4>
     95f: 64 7e        	stz	$7e                     ; 0x7e <_active>
     961: a2 ff        	ldx	#$ff
     963: 86 7f        	stx	$7f                     ; 0x7f <_color>
     965: a6 12        	ldx	$12                     ; 0x12 <__rc2>
     967: 86 15        	stx	$15                     ; 0x15 <__rc5>
     969: 06 15        	asl	$15                     ; 0x15 <__rc5>
     96b: a5 13        	lda	$13                     ; 0x13 <__rc3>
     96d: 2a           	rol
     96e: a6 14        	ldx	$14                     ; 0x14 <__rc4>
     970: 86 16        	stx	$16                     ; 0x16 <__rc6>
     972: 26 16        	rol	$16                     ; 0x16 <__rc6>
     974: 06 15        	asl	$15                     ; 0x15 <__rc5>
     976: 2a           	rol
     977: 26 16        	rol	$16                     ; 0x16 <__rc6>
     979: 06 15        	asl	$15                     ; 0x15 <__rc5>
     97b: 2a           	rol
     97c: 26 16        	rol	$16                     ; 0x16 <__rc6>
     97e: 85 15        	sta	$15                     ; 0x15 <__rc5>
     980: 8d 00 de     	sta	$de00                   ; 0xde00 <end_block9+0x7d78>
     983: a5 16        	lda	$16                     ; 0x16 <__rc6>
     985: 8d 01 de     	sta	$de01                   ; 0xde01 <end_block9+0x7d79>
     988: 9c 02 de     	stz	$de02                   ; 0xde02 <end_block9+0x7d7a>
     98b: a2 20        	ldx	#$20
     98d: 8e 03 de     	stx	$de03                   ; 0xde03 <end_block9+0x7d7b>
     990: ae 10 de     	ldx	$de10                   ; 0xde10 <end_block9+0x7d88>
     993: 86 16        	stx	$16                     ; 0x16 <__rc6>
     995: ae 11 de     	ldx	$de11                   ; 0xde11 <end_block9+0x7d89>
     998: 86 18        	stx	$18                     ; 0x18 <__rc8>
     99a: ac 12 de     	ldy	$de12                   ; 0xde12 <end_block9+0x7d8a>
     99d: ae 13 de     	ldx	$de13                   ; 0xde13 <end_block9+0x7d8b>
     9a0: e4 14        	cpx	$14                     ; 0x14 <__rc4>
     9a2: d0 14        	bne	$9b8 <bitmapReset+0x83>
     9a4: c4 13        	cpy	$13                     ; 0x13 <__rc3>
     9a6: d0 10        	bne	$9b8 <bitmapReset+0x83>
     9a8: a6 18        	ldx	$18                     ; 0x18 <__rc8>
     9aa: e4 12        	cpx	$12                     ; 0x12 <__rc2>
     9ac: d0 0a        	bne	$9b8 <bitmapReset+0x83>
     9ae: a6 16        	ldx	$16                     ; 0x16 <__rc6>
     9b0: e4 17        	cpx	$17                     ; 0x17 <__rc7>
     9b2: d0 04        	bne	$9b8 <bitmapReset+0x83>
     9b4: a6 15        	ldx	$15                     ; 0x15 <__rc5>
     9b6: 80 06        	bra	$9be <bitmapReset+0x89>
     9b8: a6 15        	ldx	$15                     ; 0x15 <__rc5>
     9ba: e8           	inx
     9bb: d0 01        	bne	$9be <bitmapReset+0x89>
     9bd: 1a           	inc
     9be: 8e 00 de     	stx	$de00                   ; 0xde00 <end_block9+0x7d78>
     9c1: 8d 01 de     	sta	$de01                   ; 0xde01 <end_block9+0x7d79>
     9c4: 9c 02 de     	stz	$de02                   ; 0xde02 <end_block9+0x7d7a>
     9c7: a2 20        	ldx	#$20
     9c9: 8e 03 de     	stx	$de03                   ; 0xde03 <end_block9+0x7d7b>
     9cc: ae 10 de     	ldx	$de10                   ; 0xde10 <end_block9+0x7d88>
     9cf: 86 12        	stx	$12                     ; 0x12 <__rc2>
     9d1: ae 11 de     	ldx	$de11                   ; 0xde11 <end_block9+0x7d89>
     9d4: 86 13        	stx	$13                     ; 0x13 <__rc3>
     9d6: ae 12 de     	ldx	$de12                   ; 0xde12 <end_block9+0x7d8a>
     9d9: 86 14        	stx	$14                     ; 0x14 <__rc4>
     9db: ae 13 de     	ldx	$de13                   ; 0xde13 <end_block9+0x7d8b>
     9de: 86 15        	stx	$15                     ; 0x15 <__rc5>
     9e0: a9 00        	lda	#$0
     9e2: 38           	sec
     9e3: e5 12        	sbc	$12                     ; 0x12 <__rc2>
     9e5: 85 1a        	sta	$1a                     ; 0x1a <__rc10>
     9e7: a9 00        	lda	#$0
     9e9: e5 13        	sbc	$13                     ; 0x13 <__rc3>
     9eb: 85 18        	sta	$18                     ; 0x18 <__rc8>
     9ed: a9 08        	lda	#$8
     9ef: e5 14        	sbc	$14                     ; 0x14 <__rc4>
     9f1: a8           	tay
     9f2: a9 00        	lda	#$0
     9f4: e5 15        	sbc	$15                     ; 0x15 <__rc5>
     9f6: 85 16        	sta	$16                     ; 0x16 <__rc6>
     9f8: a6 18        	ldx	$18                     ; 0x18 <__rc8>
     9fa: 86 73        	stx	$73                     ; 0x73 <_BITMAP_BASE+0x1>
     9fc: 84 74        	sty	$74                     ; 0x74 <_BITMAP_BASE+0x2>
     9fe: 85 75        	sta	$75                     ; 0x75 <_BITMAP_BASE+0x3>
     a00: a5 1a        	lda	$1a                     ; 0x1a <__rc10>
     a02: 38           	sec
     a03: e5 12        	sbc	$12                     ; 0x12 <__rc2>
     a05: 85 17        	sta	$17                     ; 0x17 <__rc7>
     a07: a5 18        	lda	$18                     ; 0x18 <__rc8>
     a09: e5 13        	sbc	$13                     ; 0x13 <__rc3>
     a0b: 85 18        	sta	$18                     ; 0x18 <__rc8>
     a0d: 98           	tya
     a0e: e5 14        	sbc	$14                     ; 0x14 <__rc4>
     a10: 85 19        	sta	$19                     ; 0x19 <__rc9>
     a12: a5 16        	lda	$16                     ; 0x16 <__rc6>
     a14: e5 15        	sbc	$15                     ; 0x15 <__rc5>
     a16: 85 16        	sta	$16                     ; 0x16 <__rc6>
     a18: 38           	sec
     a19: a6 17        	ldx	$17                     ; 0x17 <__rc7>
     a1b: 86 76        	stx	$76                     ; 0x76 <_BITMAP_BASE+0x4>
     a1d: a4 18        	ldy	$18                     ; 0x18 <__rc8>
     a1f: 84 77        	sty	$77                     ; 0x77 <_BITMAP_BASE+0x5>
     a21: a6 19        	ldx	$19                     ; 0x19 <__rc9>
     a23: 86 78        	stx	$78                     ; 0x78 <_BITMAP_BASE+0x6>
     a25: 85 79        	sta	$79                     ; 0x79 <_BITMAP_BASE+0x7>
     a27: a5 17        	lda	$17                     ; 0x17 <__rc7>
     a29: e5 12        	sbc	$12                     ; 0x12 <__rc2>
     a2b: 85 17        	sta	$17                     ; 0x17 <__rc7>
     a2d: a5 18        	lda	$18                     ; 0x18 <__rc8>
     a2f: e5 13        	sbc	$13                     ; 0x13 <__rc3>
     a31: aa           	tax
     a32: a5 19        	lda	$19                     ; 0x19 <__rc9>
     a34: e5 14        	sbc	$14                     ; 0x14 <__rc4>
     a36: 85 13        	sta	$13                     ; 0x13 <__rc3>
     a38: a5 16        	lda	$16                     ; 0x16 <__rc6>
     a3a: e5 15        	sbc	$15                     ; 0x15 <__rc5>
     a3c: 85 12        	sta	$12                     ; 0x12 <__rc2>
     a3e: a5 17        	lda	$17                     ; 0x17 <__rc7>
     a40: 85 7a        	sta	$7a                     ; 0x7a <_BITMAP_BASE+0x8>
     a42: 86 7b        	stx	$7b                     ; 0x7b <_BITMAP_BASE+0x9>
     a44: a6 13        	ldx	$13                     ; 0x13 <__rc3>
     a46: 86 7c        	stx	$7c                     ; 0x7c <_BITMAP_BASE+0xa>
     a48: a6 12        	ldx	$12                     ; 0x12 <__rc2>
     a4a: 86 7d        	stx	$7d                     ; 0x7d <_BITMAP_BASE+0xb>
     a4c: a6 1a        	ldx	$1a                     ; 0x1a <__rc10>
     a4e: 86 72        	stx	$72                     ; 0x72 <_BITMAP_BASE>
     a50: 64 82        	stz	$82                     ; 0x82 <_BITMAP_CLUT>
     a52: 64 83        	stz	$83                     ; 0x83 <_BITMAP_CLUT+0x1>
     a54: 64 84        	stz	$84                     ; 0x84 <_BITMAP_CLUT+0x2>
     a56: 8e 01 d1     	stx	$d101                   ; 0xd101 <end_block9+0x7079>
     a59: a6 73        	ldx	$73                     ; 0x73 <_BITMAP_BASE+0x1>
     a5b: 8e 02 d1     	stx	$d102                   ; 0xd102 <end_block9+0x707a>
     a5e: a6 74        	ldx	$74                     ; 0x74 <_BITMAP_BASE+0x2>
     a60: 8e 03 d1     	stx	$d103                   ; 0xd103 <end_block9+0x707b>
     a63: a6 76        	ldx	$76                     ; 0x76 <_BITMAP_BASE+0x4>
     a65: 8e 09 d1     	stx	$d109                   ; 0xd109 <end_block9+0x7081>
     a68: a6 77        	ldx	$77                     ; 0x77 <_BITMAP_BASE+0x5>
     a6a: 8e 0a d1     	stx	$d10a                   ; 0xd10a <end_block9+0x7082>
     a6d: a6 78        	ldx	$78                     ; 0x78 <_BITMAP_BASE+0x6>
     a6f: 8e 0b d1     	stx	$d10b                   ; 0xd10b <end_block9+0x7083>
     a72: a6 7a        	ldx	$7a                     ; 0x7a <_BITMAP_BASE+0x8>
     a74: 8e 11 d1     	stx	$d111                   ; 0xd111 <end_block9+0x7089>
     a77: a6 7b        	ldx	$7b                     ; 0x7b <_BITMAP_BASE+0x9>
     a79: 8e 12 d1     	stx	$d112                   ; 0xd112 <end_block9+0x708a>
     a7c: a6 7c        	ldx	$7c                     ; 0x7c <_BITMAP_BASE+0xa>
     a7e: 8e 13 d1     	stx	$d113                   ; 0xd113 <end_block9+0x708b>
     a81: 9c 00 d1     	stz	$d100                   ; 0xd100 <end_block9+0x7078>
     a84: 9c 08 d1     	stz	$d108                   ; 0xd108 <end_block9+0x7080>
     a87: 9c 10 d1     	stz	$d110                   ; 0xd110 <end_block9+0x7088>
     a8a: 60           	rts

00000a8b <main>:
     a8b: 20 47 06     	jsr	$647 <f256Init>
     a8e: 20 91 0a     	jsr	$a91 <f256main>

00000a91 <f256main>:
     a91: 18           	clc
     a92: a5 10        	lda	$10                     ; 0x10 <__rc0>
     a94: 69 ff        	adc	#$ff
     a96: 85 10        	sta	$10                     ; 0x10 <__rc0>
     a98: a5 11        	lda	$11                     ; 0x11 <__rc1>
     a9a: 69 ff        	adc	#$ff
     a9c: 85 11        	sta	$11                     ; 0x11 <__rc1>
     a9e: 20 5e 0e     	jsr	$e5e <setup>
     aa1: 9c bb 5e     	stz	$5ebb                   ; 0x5ebb <spriteStatuses+0x13>
     aa4: a2 02        	ldx	#$2
     aa6: 8e d3 5e     	stx	$5ed3                   ; 0x5ed3 <spriteStatuses+0x2b>
     aa9: 9c eb 5e     	stz	$5eeb                   ; 0x5eeb <spriteStatuses+0x43>
     aac: 8e 03 5f     	stx	$5f03                   ; 0x5f03 <spriteStatuses+0x5b>
     aaf: 9c 1b 5f     	stz	$5f1b                   ; 0x5f1b <spriteStatuses+0x73>
     ab2: 9c ab 5f     	stz	$5fab                   ; 0x5fab <spriteStatuses+0x103>
     ab5: a9 00        	lda	#$0
     ab7: 20 06 25     	jsr	$2506 <getTimerAbsolute>
     aba: ae bb 5e     	ldx	$5ebb                   ; 0x5ebb <spriteStatuses+0x13>
     abd: 18           	clc
     abe: 75 63        	adc	$63,x                   ; 0x63 <stateDelays>
     ac0: 8d b8 5e     	sta	$5eb8                   ; 0x5eb8 <spriteStatuses+0x10>
     ac3: a2 b7        	ldx	#$b7
     ac5: 86 12        	stx	$12                     ; 0x12 <__rc2>
     ac7: a2 5e        	ldx	#$5e
     ac9: 86 13        	stx	$13                     ; 0x13 <__rc3>
     acb: 20 d3 24     	jsr	$24d3 <setTimer>
     ace: a9 00        	lda	#$0
     ad0: 20 06 25     	jsr	$2506 <getTimerAbsolute>
     ad3: ae d3 5e     	ldx	$5ed3                   ; 0x5ed3 <spriteStatuses+0x2b>
     ad6: 18           	clc
     ad7: 75 63        	adc	$63,x                   ; 0x63 <stateDelays>
     ad9: 8d d0 5e     	sta	$5ed0                   ; 0x5ed0 <spriteStatuses+0x28>
     adc: a2 cf        	ldx	#$cf
     ade: 86 12        	stx	$12                     ; 0x12 <__rc2>
     ae0: a2 5e        	ldx	#$5e
     ae2: 86 13        	stx	$13                     ; 0x13 <__rc3>
     ae4: 20 d3 24     	jsr	$24d3 <setTimer>
     ae7: a9 00        	lda	#$0
     ae9: 20 06 25     	jsr	$2506 <getTimerAbsolute>
     aec: ae eb 5e     	ldx	$5eeb                   ; 0x5eeb <spriteStatuses+0x43>
     aef: 18           	clc
     af0: 75 63        	adc	$63,x                   ; 0x63 <stateDelays>
     af2: 8d e8 5e     	sta	$5ee8                   ; 0x5ee8 <spriteStatuses+0x40>
     af5: a2 e7        	ldx	#$e7
     af7: 86 12        	stx	$12                     ; 0x12 <__rc2>
     af9: a2 5e        	ldx	#$5e
     afb: 86 13        	stx	$13                     ; 0x13 <__rc3>
     afd: 20 d3 24     	jsr	$24d3 <setTimer>
     b00: a9 00        	lda	#$0
     b02: 20 06 25     	jsr	$2506 <getTimerAbsolute>
     b05: ae 03 5f     	ldx	$5f03                   ; 0x5f03 <spriteStatuses+0x5b>
     b08: 18           	clc
     b09: 75 63        	adc	$63,x                   ; 0x63 <stateDelays>
     b0b: 8d 00 5f     	sta	$5f00                   ; 0x5f00 <spriteStatuses+0x58>
     b0e: a2 ff        	ldx	#$ff
     b10: 86 12        	stx	$12                     ; 0x12 <__rc2>
     b12: a2 5e        	ldx	#$5e
     b14: 86 13        	stx	$13                     ; 0x13 <__rc3>
     b16: 20 d3 24     	jsr	$24d3 <setTimer>
     b19: a9 00        	lda	#$0
     b1b: 20 06 25     	jsr	$2506 <getTimerAbsolute>
     b1e: ae 1b 5f     	ldx	$5f1b                   ; 0x5f1b <spriteStatuses+0x73>
     b21: 18           	clc
     b22: 75 63        	adc	$63,x                   ; 0x63 <stateDelays>
     b24: 8d 18 5f     	sta	$5f18                   ; 0x5f18 <spriteStatuses+0x70>
     b27: a2 17        	ldx	#$17
     b29: 86 12        	stx	$12                     ; 0x12 <__rc2>
     b2b: a2 5f        	ldx	#$5f
     b2d: 86 13        	stx	$13                     ; 0x13 <__rc3>
     b2f: 20 d3 24     	jsr	$24d3 <setTimer>
     b32: a9 00        	lda	#$0
     b34: 20 06 25     	jsr	$2506 <getTimerAbsolute>
     b37: 18           	clc
     b38: 69 02        	adc	#$2
     b3a: 85 d1        	sta	$d1                     ; 0xd1 <padTimer+0x1>
     b3c: a2 d0        	ldx	#$d0
     b3e: 86 12        	stx	$12                     ; 0x12 <__rc2>
     b40: a2 00        	ldx	#$0
     b42: 86 13        	stx	$13                     ; 0x13 <__rc3>
     b44: 20 d3 24     	jsr	$24d3 <setTimer>
     b47: a2 d3        	ldx	#$d3
     b49: 86 24        	stx	$24                     ; 0x24 <__rc20>
     b4b: a2 00        	ldx	#$0
     b4d: 86 25        	stx	$25                     ; 0x25 <__rc21>
     b4f: 80 03        	bra	$b54 <f256main+0xc3>
     b51: 20 75 20     	jsr	$2075 <updateFrames>
     b54: a0 0a        	ldy	#$a
     b56: 64 d4        	stz	$d4                     ; 0xd4 <kernelEventData>
     b58: 18           	clc
     b59: a6 10        	ldx	$10                     ; 0x10 <__rc0>
     b5b: 86 12        	stx	$12                     ; 0x12 <__rc2>
     b5d: a6 11        	ldx	$11                     ; 0x11 <__rc1>
     b5f: 86 13        	stx	$13                     ; 0x13 <__rc3>
     b61: 20 00 ff     	jsr	$ff00 <end_block9+0x9e78>
     b64: 92 12        	sta	($12)                   ; 0x12 <__rc2>
     b66: a9 00        	lda	#$0
     b68: 6a           	ror
     b69: 85 24        	sta	$24                     ; 0x24 <__rc20>
     b6b: a6 d4        	ldx	$d4                     ; 0xd4 <kernelEventData>
     b6d: e0 52        	cpx	#$52
     b6f: d0 e5        	bne	$b56 <f256main+0xc5>
     b71: a6 d8        	ldx	$d8                     ; 0xd8 <kernelEventData+0x4>
     b73: e0 0a        	cpx	#$a
     b75: 5a           	phy
     b76: a0 01        	ldy	#$1
     b78: b0 02        	bcs	$b7c <f256main+0xeb>
     b7a: a0 00        	ldy	#$0
     b7c: 84 14        	sty	$14                     ; 0x14 <__rc4>
     b7e: 8a           	txa
     b7f: 0a           	asl
     b80: 64 12        	stz	$12                     ; 0x12 <__rc2>
     b82: 26 12        	rol	$12                     ; 0x12 <__rc2>
     b84: 0a           	asl
     b85: 26 12        	rol	$12                     ; 0x12 <__rc2>
     b87: 0a           	asl
     b88: 85 13        	sta	$13                     ; 0x13 <__rc3>
     b8a: 26 12        	rol	$12                     ; 0x12 <__rc2>
     b8c: 0a           	asl
     b8d: a4 12        	ldy	$12                     ; 0x12 <__rc2>
     b8f: 84 15        	sty	$15                     ; 0x15 <__rc5>
     b91: 7a           	ply
     b92: 26 15        	rol	$15                     ; 0x15 <__rc5>
     b94: e6 14        	inc	$14                     ; 0x14 <__rc4>
     b96: c6 14        	dec	$14                     ; 0x14 <__rc4>
     b98: d0 03        	bne	$b9d <f256main+0x10c>
     b9a: 4c 57 0c     	jmp	$c57 <f256main+0x1c6>
     b9d: 85 14        	sta	$14                     ; 0x14 <__rc4>
     b9f: 8a           	txa
     ba0: 18           	clc
     ba1: 69 f6        	adc	#$f6
     ba3: c9 0a        	cmp	#$a
     ba5: 90 03        	bcc	$baa <f256main+0x119>
     ba7: 4c 11 0e     	jmp	$e11 <f256main+0x380>
     baa: 18           	clc
     bab: a5 14        	lda	$14                     ; 0x14 <__rc4>
     bad: 65 13        	adc	$13                     ; 0x13 <__rc3>
     baf: 85 14        	sta	$14                     ; 0x14 <__rc4>
     bb1: a5 15        	lda	$15                     ; 0x15 <__rc5>
     bb3: 65 12        	adc	$12                     ; 0x12 <__rc2>
     bb5: 85 15        	sta	$15                     ; 0x15 <__rc5>
     bb7: a9 a8        	lda	#$a8
     bb9: 18           	clc
     bba: 65 14        	adc	$14                     ; 0x14 <__rc4>
     bbc: 85 14        	sta	$14                     ; 0x14 <__rc4>
     bbe: a9 5e        	lda	#$5e
     bc0: 65 15        	adc	$15                     ; 0x15 <__rc5>
     bc2: 85 18        	sta	$18                     ; 0x18 <__rc8>
     bc4: a5 14        	lda	$14                     ; 0x14 <__rc4>
     bc6: 85 19        	sta	$19                     ; 0x19 <__rc9>
     bc8: a5 18        	lda	$18                     ; 0x18 <__rc8>
     bca: 85 15        	sta	$15                     ; 0x15 <__rc5>
     bcc: b1 14        	lda	($14),y                 ; 0x14 <__rc4>
     bce: a0 0a        	ldy	#$a
     bd0: 85 17        	sta	$17                     ; 0x17 <__rc7>
     bd2: 1a           	inc
     bd3: 85 16        	sta	$16                     ; 0x16 <__rc6>
     bd5: 91 14        	sta	($14),y                 ; 0x14 <__rc4>
     bd7: 18           	clc
     bd8: a5 19        	lda	$19                     ; 0x19 <__rc9>
     bda: 69 16        	adc	#$16
     bdc: a8           	tay
     bdd: a5 18        	lda	$18                     ; 0x18 <__rc8>
     bdf: 69 00        	adc	#$0
     be1: 84 18        	sty	$18                     ; 0x18 <__rc8>
     be3: 85 19        	sta	$19                     ; 0x19 <__rc9>
     be5: a0 16        	ldy	#$16
     be7: b1 14        	lda	($14),y                 ; 0x14 <__rc4>
     be9: 85 1a        	sta	$1a                     ; 0x1a <__rc10>
     beb: a0 01        	ldy	#$1
     bed: b1 18        	lda	($18),y                 ; 0x18 <__rc8>
     bef: 85 1b        	sta	$1b                     ; 0x1b <__rc11>
     bf1: a0 13        	ldy	#$13
     bf3: b1 14        	lda	($14),y                 ; 0x14 <__rc4>
     bf5: a8           	tay
     bf6: b1 1a        	lda	($1a),y                 ; 0x1a <__rc10>
     bf8: c5 16        	cmp	$16                     ; 0x16 <__rc6>
     bfa: 90 03        	bcc	$bff <f256main+0x16e>
     bfc: 4c b7 0c     	jmp	$cb7 <f256main+0x226>
     bff: a5 17        	lda	$17                     ; 0x17 <__rc7>
     c01: a0 0a        	ldy	#$a
     c03: 91 14        	sta	($14),y                 ; 0x14 <__rc4>
     c05: a5 13        	lda	$13                     ; 0x13 <__rc3>
     c07: 18           	clc
     c08: 69 00        	adc	#$0
     c0a: a8           	tay
     c0b: a5 12        	lda	$12                     ; 0x12 <__rc2>
     c0d: 69 d9        	adc	#$d9
     c0f: 84 12        	sty	$12                     ; 0x12 <__rc2>
     c11: 85 13        	sta	$13                     ; 0x13 <__rc3>
     c13: b5 88        	lda	$88,x                   ; 0x88 <_spriteCtl>
     c15: 92 12        	sta	($12)                   ; 0x12 <__rc2>
     c17: a5 d8        	lda	$d8                     ; 0xd8 <kernelEventData+0x4>
     c19: 18           	clc
     c1a: 69 f6        	adc	#$f6
     c1c: 85 12        	sta	$12                     ; 0x12 <__rc2>
     c1e: a9 00        	lda	#$0
     c20: 69 ff        	adc	#$ff
     c22: 06 12        	asl	$12                     ; 0x12 <__rc2>
     c24: 2a           	rol
     c25: 06 12        	asl	$12                     ; 0x12 <__rc2>
     c27: 2a           	rol
     c28: 06 12        	asl	$12                     ; 0x12 <__rc2>
     c2a: 2a           	rol
     c2b: 85 13        	sta	$13                     ; 0x13 <__rc3>
     c2d: a5 12        	lda	$12                     ; 0x12 <__rc2>
     c2f: 0a           	asl
     c30: a6 13        	ldx	$13                     ; 0x13 <__rc3>
     c32: 86 14        	stx	$14                     ; 0x14 <__rc4>
     c34: 26 14        	rol	$14                     ; 0x14 <__rc4>
     c36: 18           	clc
     c37: 65 12        	adc	$12                     ; 0x12 <__rc2>
     c39: 85 12        	sta	$12                     ; 0x12 <__rc2>
     c3b: a5 14        	lda	$14                     ; 0x14 <__rc4>
     c3d: 65 13        	adc	$13                     ; 0x13 <__rc3>
     c3f: 85 13        	sta	$13                     ; 0x13 <__rc3>
     c41: a9 a8        	lda	#$a8
     c43: 18           	clc
     c44: 65 12        	adc	$12                     ; 0x12 <__rc2>
     c46: 85 12        	sta	$12                     ; 0x12 <__rc2>
     c48: a9 5e        	lda	#$5e
     c4a: 65 13        	adc	$13                     ; 0x13 <__rc3>
     c4c: 85 13        	sta	$13                     ; 0x13 <__rc3>
     c4e: a9 00        	lda	#$0
     c50: a0 05        	ldy	#$5
     c52: 91 12        	sta	($12),y                 ; 0x12 <__rc2>
     c54: 4c 54 0b     	jmp	$b54 <f256main+0xc3>
     c57: a4 15        	ldy	$15                     ; 0x15 <__rc5>
     c59: aa           	tax
     c5a: 18           	clc
     c5b: 65 13        	adc	$13                     ; 0x13 <__rc3>
     c5d: 85 16        	sta	$16                     ; 0x16 <__rc6>
     c5f: 85 14        	sta	$14                     ; 0x14 <__rc4>
     c61: 84 17        	sty	$17                     ; 0x17 <__rc7>
     c63: a5 15        	lda	$15                     ; 0x15 <__rc5>
     c65: 65 12        	adc	$12                     ; 0x12 <__rc2>
     c67: 85 18        	sta	$18                     ; 0x18 <__rc8>
     c69: 85 15        	sta	$15                     ; 0x15 <__rc5>
     c6b: 18           	clc
     c6c: a9 a8        	lda	#$a8
     c6e: 65 14        	adc	$14                     ; 0x14 <__rc4>
     c70: 85 14        	sta	$14                     ; 0x14 <__rc4>
     c72: a9 5e        	lda	#$5e
     c74: 65 15        	adc	$15                     ; 0x15 <__rc5>
     c76: 85 15        	sta	$15                     ; 0x15 <__rc5>
     c78: a0 13        	ldy	#$13
     c7a: b1 14        	lda	($14),y                 ; 0x14 <__rc4>
     c7c: 85 26        	sta	$26                     ; 0x26 <__rc22>
     c7e: 29 fe        	and	#$fe
     c80: c9 04        	cmp	#$4
     c82: f0 03        	beq	$c87 <f256main+0x1f6>
     c84: 4c 33 0d     	jmp	$d33 <f256main+0x2a2>
     c87: 18           	clc
     c88: 8a           	txa
     c89: 65 13        	adc	$13                     ; 0x13 <__rc3>
     c8b: 85 13        	sta	$13                     ; 0x13 <__rc3>
     c8d: a5 17        	lda	$17                     ; 0x17 <__rc7>
     c8f: 65 12        	adc	$12                     ; 0x12 <__rc2>
     c91: 85 12        	sta	$12                     ; 0x12 <__rc2>
     c93: a9 a8        	lda	#$a8
     c95: 18           	clc
     c96: 65 13        	adc	$13                     ; 0x13 <__rc3>
     c98: aa           	tax
     c99: a9 5e        	lda	#$5e
     c9b: 65 12        	adc	$12                     ; 0x12 <__rc2>
     c9d: 86 12        	stx	$12                     ; 0x12 <__rc2>
     c9f: 85 13        	sta	$13                     ; 0x13 <__rc3>
     ca1: a0 04        	ldy	#$4
     ca3: b1 12        	lda	($12),y                 ; 0x12 <__rc2>
     ca5: a2 01        	ldx	#$1
     ca7: a8           	tay
     ca8: f0 02        	beq	$cac <f256main+0x21b>
     caa: a2 00        	ldx	#$0
     cac: 8a           	txa
     cad: d0 03        	bne	$cb2 <f256main+0x221>
     caf: 4c 0b 0d     	jmp	$d0b <f256main+0x27a>
     cb2: a9 01        	lda	#$1
     cb4: 4c 0d 0d     	jmp	$d0d <f256main+0x27c>
     cb7: a9 00        	lda	#$0
     cb9: 20 06 25     	jsr	$2506 <getTimerAbsolute>
     cbc: 18           	clc
     cbd: 65 69        	adc	$69                     ; 0x69 <dashDelay>
     cbf: aa           	tax
     cc0: a5 d8        	lda	$d8                     ; 0xd8 <kernelEventData+0x4>
     cc2: 0a           	asl
     cc3: 64 12        	stz	$12                     ; 0x12 <__rc2>
     cc5: 26 12        	rol	$12                     ; 0x12 <__rc2>
     cc7: 0a           	asl
     cc8: 26 12        	rol	$12                     ; 0x12 <__rc2>
     cca: 0a           	asl
     ccb: 85 13        	sta	$13                     ; 0x13 <__rc3>
     ccd: 26 12        	rol	$12                     ; 0x12 <__rc2>
     ccf: 0a           	asl
     cd0: a4 12        	ldy	$12                     ; 0x12 <__rc2>
     cd2: 84 14        	sty	$14                     ; 0x14 <__rc4>
     cd4: 26 14        	rol	$14                     ; 0x14 <__rc4>
     cd6: 18           	clc
     cd7: 65 13        	adc	$13                     ; 0x13 <__rc3>
     cd9: 85 13        	sta	$13                     ; 0x13 <__rc3>
     cdb: a5 14        	lda	$14                     ; 0x14 <__rc4>
     cdd: 65 12        	adc	$12                     ; 0x12 <__rc2>
     cdf: 85 12        	sta	$12                     ; 0x12 <__rc2>
     ce1: a9 a8        	lda	#$a8
     ce3: 18           	clc
     ce4: 65 13        	adc	$13                     ; 0x13 <__rc3>
     ce6: a8           	tay
     ce7: a9 5e        	lda	#$5e
     ce9: 65 12        	adc	$12                     ; 0x12 <__rc2>
     ceb: 85 14        	sta	$14                     ; 0x14 <__rc4>
     ced: 84 12        	sty	$12                     ; 0x12 <__rc2>
     cef: 84 15        	sty	$15                     ; 0x15 <__rc5>
     cf1: 85 13        	sta	$13                     ; 0x13 <__rc3>
     cf3: a0 10        	ldy	#$10
     cf5: 8a           	txa
     cf6: 91 12        	sta	($12),y                 ; 0x12 <__rc2>
     cf8: 18           	clc
     cf9: a5 15        	lda	$15                     ; 0x15 <__rc5>
     cfb: 69 0f        	adc	#$f
     cfd: 85 12        	sta	$12                     ; 0x12 <__rc2>
     cff: a5 14        	lda	$14                     ; 0x14 <__rc4>
     d01: 69 00        	adc	#$0
     d03: 85 13        	sta	$13                     ; 0x13 <__rc3>
     d05: 20 d3 24     	jsr	$24d3 <setTimer>
     d08: 4c 54 0b     	jmp	$b54 <f256main+0xc3>
     d0b: a9 00        	lda	#$0
     d0d: a0 13        	ldy	#$13
     d0f: 85 26        	sta	$26                     ; 0x26 <__rc22>
     d11: 91 12        	sta	($12),y                 ; 0x12 <__rc2>
     d13: a0 00        	ldy	#$0
     d15: 8a           	txa
     d16: d0 02        	bne	$d1a <f256main+0x289>
     d18: a0 02        	ldy	#$2
     d1a: a6 18        	ldx	$18                     ; 0x18 <__rc8>
     d1c: 86 13        	stx	$13                     ; 0x13 <__rc3>
     d1e: a9 a8        	lda	#$a8
     d20: 18           	clc
     d21: 65 16        	adc	$16                     ; 0x16 <__rc6>
     d23: 85 12        	sta	$12                     ; 0x12 <__rc2>
     d25: 84 14        	sty	$14                     ; 0x14 <__rc4>
     d27: a9 5e        	lda	#$5e
     d29: 65 13        	adc	$13                     ; 0x13 <__rc3>
     d2b: 85 13        	sta	$13                     ; 0x13 <__rc3>
     d2d: a0 0a        	ldy	#$a
     d2f: a5 14        	lda	$14                     ; 0x14 <__rc4>
     d31: 91 12        	sta	($12),y                 ; 0x12 <__rc2>
     d33: a9 00        	lda	#$0
     d35: 20 06 25     	jsr	$2506 <getTimerAbsolute>
     d38: 85 14        	sta	$14                     ; 0x14 <__rc4>
     d3a: a5 d8        	lda	$d8                     ; 0xd8 <kernelEventData+0x4>
     d3c: 0a           	asl
     d3d: 64 12        	stz	$12                     ; 0x12 <__rc2>
     d3f: 26 12        	rol	$12                     ; 0x12 <__rc2>
     d41: 0a           	asl
     d42: 26 12        	rol	$12                     ; 0x12 <__rc2>
     d44: 0a           	asl
     d45: 85 13        	sta	$13                     ; 0x13 <__rc3>
     d47: 26 12        	rol	$12                     ; 0x12 <__rc2>
     d49: 0a           	asl
     d4a: a6 12        	ldx	$12                     ; 0x12 <__rc2>
     d4c: 86 15        	stx	$15                     ; 0x15 <__rc5>
     d4e: 26 15        	rol	$15                     ; 0x15 <__rc5>
     d50: 18           	clc
     d51: 65 13        	adc	$13                     ; 0x13 <__rc3>
     d53: 85 13        	sta	$13                     ; 0x13 <__rc3>
     d55: a5 15        	lda	$15                     ; 0x15 <__rc5>
     d57: 65 12        	adc	$12                     ; 0x12 <__rc2>
     d59: 85 12        	sta	$12                     ; 0x12 <__rc2>
     d5b: a9 a8        	lda	#$a8
     d5d: 18           	clc
     d5e: 65 13        	adc	$13                     ; 0x13 <__rc3>
     d60: aa           	tax
     d61: a9 5e        	lda	#$5e
     d63: 65 12        	adc	$12                     ; 0x12 <__rc2>
     d65: 85 15        	sta	$15                     ; 0x15 <__rc5>
     d67: 86 12        	stx	$12                     ; 0x12 <__rc2>
     d69: 86 16        	stx	$16                     ; 0x16 <__rc6>
     d6b: 85 13        	sta	$13                     ; 0x13 <__rc3>
     d6d: a0 13        	ldy	#$13
     d6f: b1 12        	lda	($12),y                 ; 0x12 <__rc2>
     d71: aa           	tax
     d72: 18           	clc
     d73: a5 14        	lda	$14                     ; 0x14 <__rc4>
     d75: 75 63        	adc	$63,x                   ; 0x63 <stateDelays>
     d77: a0 10        	ldy	#$10
     d79: 91 12        	sta	($12),y                 ; 0x12 <__rc2>
     d7b: 18           	clc
     d7c: a5 16        	lda	$16                     ; 0x16 <__rc6>
     d7e: 69 0f        	adc	#$f
     d80: 85 12        	sta	$12                     ; 0x12 <__rc2>
     d82: a5 15        	lda	$15                     ; 0x15 <__rc5>
     d84: 69 00        	adc	#$0
     d86: 85 13        	sta	$13                     ; 0x13 <__rc3>
     d88: 20 d3 24     	jsr	$24d3 <setTimer>
     d8b: a5 d8        	lda	$d8                     ; 0xd8 <kernelEventData+0x4>
     d8d: 0a           	asl
     d8e: 64 12        	stz	$12                     ; 0x12 <__rc2>
     d90: 26 12        	rol	$12                     ; 0x12 <__rc2>
     d92: 0a           	asl
     d93: 26 12        	rol	$12                     ; 0x12 <__rc2>
     d95: 0a           	asl
     d96: 85 13        	sta	$13                     ; 0x13 <__rc3>
     d98: 26 12        	rol	$12                     ; 0x12 <__rc2>
     d9a: 0a           	asl
     d9b: a6 12        	ldx	$12                     ; 0x12 <__rc2>
     d9d: 86 14        	stx	$14                     ; 0x14 <__rc4>
     d9f: 26 14        	rol	$14                     ; 0x14 <__rc4>
     da1: 18           	clc
     da2: 65 13        	adc	$13                     ; 0x13 <__rc3>
     da4: 85 13        	sta	$13                     ; 0x13 <__rc3>
     da6: a5 14        	lda	$14                     ; 0x14 <__rc4>
     da8: 65 12        	adc	$12                     ; 0x12 <__rc2>
     daa: 85 12        	sta	$12                     ; 0x12 <__rc2>
     dac: a9 a8        	lda	#$a8
     dae: 18           	clc
     daf: 65 13        	adc	$13                     ; 0x13 <__rc3>
     db1: aa           	tax
     db2: a9 5e        	lda	#$5e
     db4: 65 12        	adc	$12                     ; 0x12 <__rc2>
     db6: 85 14        	sta	$14                     ; 0x14 <__rc4>
     db8: 86 12        	stx	$12                     ; 0x12 <__rc2>
     dba: 85 13        	sta	$13                     ; 0x13 <__rc3>
     dbc: a0 0a        	ldy	#$a
     dbe: b1 12        	lda	($12),y                 ; 0x12 <__rc2>
     dc0: 1a           	inc
     dc1: 91 12        	sta	($12),y                 ; 0x12 <__rc2>
     dc3: 18           	clc
     dc4: 86 18        	stx	$18                     ; 0x18 <__rc8>
     dc6: 8a           	txa
     dc7: 69 16        	adc	#$16
     dc9: aa           	tax
     dca: a5 14        	lda	$14                     ; 0x14 <__rc4>
     dcc: 85 19        	sta	$19                     ; 0x19 <__rc9>
     dce: 69 00        	adc	#$0
     dd0: 86 14        	stx	$14                     ; 0x14 <__rc4>
     dd2: 85 15        	sta	$15                     ; 0x15 <__rc5>
     dd4: a0 16        	ldy	#$16
     dd6: b1 12        	lda	($12),y                 ; 0x12 <__rc2>
     dd8: 85 16        	sta	$16                     ; 0x16 <__rc6>
     dda: a0 01        	ldy	#$1
     ddc: b1 14        	lda	($14),y                 ; 0x14 <__rc4>
     dde: 85 17        	sta	$17                     ; 0x17 <__rc7>
     de0: a4 26        	ldy	$26                     ; 0x26 <__rc22>
     de2: b1 16        	lda	($16),y                 ; 0x16 <__rc6>
     de4: a0 0a        	ldy	#$a
     de6: d1 12        	cmp	($12),y                 ; 0x12 <__rc2>
     de8: 90 03        	bcc	$ded <f256main+0x35c>
     dea: 4c 51 0b     	jmp	$b51 <f256main+0xc0>
     ded: 18           	clc
     dee: a5 18        	lda	$18                     ; 0x18 <__rc8>
     df0: 69 14        	adc	#$14
     df2: 85 14        	sta	$14                     ; 0x14 <__rc4>
     df4: a5 19        	lda	$19                     ; 0x19 <__rc9>
     df6: 69 00        	adc	#$0
     df8: 85 15        	sta	$15                     ; 0x15 <__rc5>
     dfa: a0 14        	ldy	#$14
     dfc: b1 12        	lda	($12),y                 ; 0x12 <__rc2>
     dfe: 85 16        	sta	$16                     ; 0x16 <__rc6>
     e00: a0 01        	ldy	#$1
     e02: b1 14        	lda	($14),y                 ; 0x14 <__rc4>
     e04: 85 17        	sta	$17                     ; 0x17 <__rc7>
     e06: a4 26        	ldy	$26                     ; 0x26 <__rc22>
     e08: b1 16        	lda	($16),y                 ; 0x16 <__rc6>
     e0a: a0 0a        	ldy	#$a
     e0c: 91 12        	sta	($12),y                 ; 0x12 <__rc2>
     e0e: 4c 51 0b     	jmp	$b51 <f256main+0xc0>
     e11: e0 63        	cpx	#$63
     e13: f0 03        	beq	$e18 <f256main+0x387>
     e15: 4c 56 0b     	jmp	$b56 <f256main+0xc5>
     e18: 20 97 24     	jsr	$2497 <pollNES>
     e1b: 20 b1 24     	jsr	$24b1 <padPollDelayUntilReady>
     e1e: a0 00        	ldy	#$0
     e20: a2 01        	ldx	#$1
     e22: 84 26        	sty	$26                     ; 0x26 <__rc22>
     e24: 98           	tya
     e25: 20 2a 1a     	jsr	$1a2a <checkPads>
     e28: a4 26        	ldy	$26                     ; 0x26 <__rc22>
     e2a: c8           	iny
     e2b: c0 04        	cpy	#$4
     e2d: d0 f1        	bne	$e20 <f256main+0x38f>
     e2f: 20 a4 24     	jsr	$24a4 <pollSNES>
     e32: 20 b1 24     	jsr	$24b1 <padPollDelayUntilReady>
     e35: a0 04        	ldy	#$4
     e37: a2 00        	ldx	#$0
     e39: 84 26        	sty	$26                     ; 0x26 <__rc22>
     e3b: 98           	tya
     e3c: 20 2a 1a     	jsr	$1a2a <checkPads>
     e3f: a4 26        	ldy	$26                     ; 0x26 <__rc22>
     e41: c8           	iny
     e42: c0 08        	cpy	#$8
     e44: d0 f1        	bne	$e37 <f256main+0x3a6>
     e46: a9 00        	lda	#$0
     e48: 20 06 25     	jsr	$2506 <getTimerAbsolute>
     e4b: 18           	clc
     e4c: 69 02        	adc	#$2
     e4e: 85 d1        	sta	$d1                     ; 0xd1 <padTimer+0x1>
     e50: a2 d0        	ldx	#$d0
     e52: 86 12        	stx	$12                     ; 0x12 <__rc2>
     e54: a2 00        	ldx	#$0
     e56: 86 13        	stx	$13                     ; 0x13 <__rc3>
     e58: 20 d3 24     	jsr	$24d3 <setTimer>
     e5b: 4c 54 0b     	jmp	$b54 <f256main+0xc3>

00000e5e <setup>:
     e5e: 64 01        	stz	$1                      ; 0x1 <__data_size+0x1>
     e60: a2 2f        	ldx	#$2f
     e62: 8e 00 d0     	stx	$d000                   ; 0xd000 <end_block9+0x6f78>
     e65: a2 04        	ldx	#$4
     e67: 8e 01 d0     	stx	$d001                   ; 0xd001 <end_block9+0x6f79>
     e6a: a2 01        	ldx	#$1
     e6c: 8e 02 d0     	stx	$d002                   ; 0xd002 <end_block9+0x6f7a>
     e6f: a0 02        	ldy	#$2
     e71: 8c 03 d0     	sty	$d003                   ; 0xd003 <end_block9+0x6f7b>
     e74: a0 bb        	ldy	#$bb
     e76: 8c 0d d0     	sty	$d00d                   ; 0xd00d <end_block9+0x6f85>
     e79: 8c 0e d0     	sty	$d00e                   ; 0xd00e <end_block9+0x6f86>
     e7c: 8c 0f d0     	sty	$d00f                   ; 0xd00f <end_block9+0x6f87>
     e7f: 86 01        	stx	$1                      ; 0x1 <__data_size+0x1>
     e81: a0 fc        	ldy	#$fc
     e83: a9 ff        	lda	#$ff
     e85: 85 12        	sta	$12                     ; 0x12 <__rc2>
     e87: 85 13        	sta	$13                     ; 0x13 <__rc3>
     e89: 80 2b        	bra	$eb6 <setup+0x58>
     e8b: 84 18        	sty	$18                     ; 0x18 <__rc8>
     e8d: 7a           	ply
     e8e: 85 16        	sta	$16                     ; 0x16 <__rc6>
     e90: 98           	tya
     e91: 69 e3        	adc	#$e3
     e93: 5a           	phy
     e94: a4 16        	ldy	$16                     ; 0x16 <__rc6>
     e96: 84 14        	sty	$14                     ; 0x14 <__rc4>
     e98: 7a           	ply
     e99: 85 15        	sta	$15                     ; 0x15 <__rc5>
     e9b: b2 14        	lda	($14)                   ; 0x14 <__rc4>
     e9d: 85 19        	sta	$19                     ; 0x19 <__rc9>
     e9f: a5 17        	lda	$17                     ; 0x17 <__rc7>
     ea1: 85 0f        	sta	$f                      ; 0xf <__data_size+0xf>
     ea3: 98           	tya
     ea4: 5a           	phy
     ea5: a4 18        	ldy	$18                     ; 0x18 <__rc8>
     ea7: c0 01        	cpy	#$1
     ea9: 7a           	ply
     eaa: 69 d3        	adc	#$d3
     eac: 58           	cli
     ead: 85 15        	sta	$15                     ; 0x15 <__rc5>
     eaf: a5 19        	lda	$19                     ; 0x19 <__rc9>
     eb1: 92 14        	sta	($14)                   ; 0x14 <__rc4>
     eb3: e8           	inx
     eb4: f0 16        	beq	$ecc <setup+0x6e>
     eb6: a5 0f        	lda	$f                      ; 0xf <__data_size+0xf>
     eb8: 85 17        	sta	$17                     ; 0x17 <__rc7>
     eba: 78           	sei
     ebb: a9 08        	lda	#$8
     ebd: 85 0f        	sta	$f                      ; 0xf <__data_size+0xf>
     ebf: 8a           	txa
     ec0: 18           	clc
     ec1: 69 ff        	adc	#$ff
     ec3: 5a           	phy
     ec4: a0 01        	ldy	#$1
     ec6: b0 c3        	bcs	$e8b <setup+0x2d>
     ec8: a0 00        	ldy	#$0
     eca: 80 bf        	bra	$e8b <setup+0x2d>
     ecc: c8           	iny
     ecd: d0 e7        	bne	$eb6 <setup+0x58>
     ecf: e6 12        	inc	$12                     ; 0x12 <__rc2>
     ed1: d0 e3        	bne	$eb6 <setup+0x58>
     ed3: e6 13        	inc	$13                     ; 0x13 <__rc3>
     ed5: d0 df        	bne	$eb6 <setup+0x58>
     ed7: 64 01        	stz	$1                      ; 0x1 <__data_size+0x1>
     ed9: 9c 00 d1     	stz	$d100                   ; 0xd100 <end_block9+0x7078>
     edc: 9c 08 d1     	stz	$d108                   ; 0xd108 <end_block9+0x7080>
     edf: 9c 10 d1     	stz	$d110                   ; 0xd110 <end_block9+0x7088>
     ee2: a9 40        	lda	#$40
     ee4: 85 88        	sta	$88                     ; 0x88 <_spriteCtl>
     ee6: 8d 00 d9     	sta	$d900                   ; 0xd900 <end_block9+0x7878>
     ee9: 9c 01 d9     	stz	$d901                   ; 0xd901 <end_block9+0x7879>
     eec: a2 05        	ldx	#$5
     eee: 8e 02 d9     	stx	$d902                   ; 0xd902 <end_block9+0x787a>
     ef1: a0 01        	ldy	#$1
     ef3: 8c 03 d9     	sty	$d903                   ; 0xd903 <end_block9+0x787b>
     ef6: 85 92        	sta	$92                     ; 0x92 <_spriteCtl+0xa>
     ef8: 8d 50 d9     	sta	$d950                   ; 0xd950 <end_block9+0x78c8>
     efb: 9c 51 d9     	stz	$d951                   ; 0xd951 <end_block9+0x78c9>
     efe: a2 0e        	ldx	#$e
     f00: 8e 52 d9     	stx	$d952                   ; 0xd952 <end_block9+0x78ca>
     f03: 8c 53 d9     	sty	$d953                   ; 0xd953 <end_block9+0x78cb>
     f06: 8c ac 5e     	sty	$5eac                   ; 0x5eac <spriteStatuses+0x4>
     f09: a2 64        	ldx	#$64
     f0b: 8e 04 d9     	stx	$d904                   ; 0xd904 <end_block9+0x787c>
     f0e: a0 64        	ldy	#$64
     f10: 9c 05 d9     	stz	$d905                   ; 0xd905 <end_block9+0x787d>
     f13: a2 32        	ldx	#$32
     f15: 8e 06 d9     	stx	$d906                   ; 0xd906 <end_block9+0x787e>
     f18: 9c 07 d9     	stz	$d907                   ; 0xd907 <end_block9+0x787f>
     f1b: a9 01        	lda	#$1
     f1d: 05 88        	ora	$88                     ; 0x88 <_spriteCtl>
     f1f: 8d 00 d9     	sta	$d900                   ; 0xd900 <end_block9+0x7878>
     f22: a9 01        	lda	#$1
     f24: 05 92        	ora	$92                     ; 0x92 <_spriteCtl+0xa>
     f26: 8d 50 d9     	sta	$d950                   ; 0xd950 <end_block9+0x78c8>
     f29: a2 54        	ldx	#$54
     f2b: 8e 04 d9     	stx	$d904                   ; 0xd904 <end_block9+0x787c>
     f2e: 9c 05 d9     	stz	$d905                   ; 0xd905 <end_block9+0x787d>
     f31: a9 32        	lda	#$32
     f33: 8d 06 d9     	sta	$d906                   ; 0xd906 <end_block9+0x787e>
     f36: 9c 07 d9     	stz	$d907                   ; 0xd907 <end_block9+0x787f>
     f39: 9c ae 5e     	stz	$5eae                   ; 0x5eae <spriteStatuses+0x6>
     f3c: a2 04        	ldx	#$4
     f3e: 8e af 5e     	stx	$5eaf                   ; 0x5eaf <spriteStatuses+0x7>
     f41: a2 01        	ldx	#$1
     f43: 8e b0 5e     	stx	$5eb0                   ; 0x5eb0 <spriteStatuses+0x8>
     f46: 9c b1 5e     	stz	$5eb1                   ; 0x5eb1 <spriteStatuses+0x9>
     f49: 9c b2 5e     	stz	$5eb2                   ; 0x5eb2 <spriteStatuses+0xa>
     f4c: 9c ad 5e     	stz	$5ead                   ; 0x5ead <spriteStatuses+0x5>
     f4f: 8c a8 5e     	sty	$5ea8                   ; 0x5ea8 <spriteStatuses>
     f52: 9c a9 5e     	stz	$5ea9                   ; 0x5ea9 <spriteStatuses+0x1>
     f55: 8d aa 5e     	sta	$5eaa                   ; 0x5eaa <spriteStatuses+0x2>
     f58: 9c ab 5e     	stz	$5eab                   ; 0x5eab <spriteStatuses+0x3>
     f5b: 9c b3 5e     	stz	$5eb3                   ; 0x5eb3 <spriteStatuses+0xb>
     f5e: 9c b4 5e     	stz	$5eb4                   ; 0x5eb4 <spriteStatuses+0xc>
     f61: 9c b5 5e     	stz	$5eb5                   ; 0x5eb5 <spriteStatuses+0xd>
     f64: 9c b6 5e     	stz	$5eb6                   ; 0x5eb6 <spriteStatuses+0xe>
     f67: 9c b7 5e     	stz	$5eb7                   ; 0x5eb7 <spriteStatuses+0xf>
     f6a: 9c b9 5e     	stz	$5eb9                   ; 0x5eb9 <spriteStatuses+0x11>
     f6d: 9c bb 5e     	stz	$5ebb                   ; 0x5ebb <spriteStatuses+0x13>
     f70: ca           	dex
     f71: a9 06        	lda	#$6
     f73: 20 2f 37     	jsr	$372f <malloc>
     f76: a6 12        	ldx	$12                     ; 0x12 <__rc2>
     f78: a4 13        	ldy	$13                     ; 0x13 <__rc3>
     f7a: 8e bc 5e     	stx	$5ebc                   ; 0x5ebc <spriteStatuses+0x14>
     f7d: 8c bd 5e     	sty	$5ebd                   ; 0x5ebd <spriteStatuses+0x15>
     f80: a2 00        	ldx	#$0
     f82: a9 06        	lda	#$6
     f84: 20 2f 37     	jsr	$372f <malloc>
     f87: a6 12        	ldx	$12                     ; 0x12 <__rc2>
     f89: a4 13        	ldy	$13                     ; 0x13 <__rc3>
     f8b: 8e be 5e     	stx	$5ebe                   ; 0x5ebe <spriteStatuses+0x16>
     f8e: 8c bf 5e     	sty	$5ebf                   ; 0x5ebf <spriteStatuses+0x17>
     f91: ae bc 5e     	ldx	$5ebc                   ; 0x5ebc <spriteStatuses+0x14>
     f94: ac bd 5e     	ldy	$5ebd                   ; 0x5ebd <spriteStatuses+0x15>
     f97: 86 12        	stx	$12                     ; 0x12 <__rc2>
     f99: 84 13        	sty	$13                     ; 0x13 <__rc3>
     f9b: a9 00        	lda	#$0
     f9d: 92 12        	sta	($12)                   ; 0x12 <__rc2>
     f9f: ae be 5e     	ldx	$5ebe                   ; 0x5ebe <spriteStatuses+0x16>
     fa2: ac bf 5e     	ldy	$5ebf                   ; 0x5ebf <spriteStatuses+0x17>
     fa5: 86 12        	stx	$12                     ; 0x12 <__rc2>
     fa7: 84 13        	sty	$13                     ; 0x13 <__rc3>
     fa9: 92 12        	sta	($12)                   ; 0x12 <__rc2>
     fab: ae bc 5e     	ldx	$5ebc                   ; 0x5ebc <spriteStatuses+0x14>
     fae: ac bd 5e     	ldy	$5ebd                   ; 0x5ebd <spriteStatuses+0x15>
     fb1: 86 12        	stx	$12                     ; 0x12 <__rc2>
     fb3: 84 13        	sty	$13                     ; 0x13 <__rc3>
     fb5: a0 01        	ldy	#$1
     fb7: a9 02        	lda	#$2
     fb9: 91 12        	sta	($12),y                 ; 0x12 <__rc2>
     fbb: ae be 5e     	ldx	$5ebe                   ; 0x5ebe <spriteStatuses+0x16>
     fbe: ad bf 5e     	lda	$5ebf                   ; 0x5ebf <spriteStatuses+0x17>
     fc1: 86 12        	stx	$12                     ; 0x12 <__rc2>
     fc3: 85 13        	sta	$13                     ; 0x13 <__rc3>
     fc5: a9 02        	lda	#$2
     fc7: 91 12        	sta	($12),y                 ; 0x12 <__rc2>
     fc9: ae bc 5e     	ldx	$5ebc                   ; 0x5ebc <spriteStatuses+0x14>
     fcc: ac bd 5e     	ldy	$5ebd                   ; 0x5ebd <spriteStatuses+0x15>
     fcf: 86 12        	stx	$12                     ; 0x12 <__rc2>
     fd1: 84 13        	sty	$13                     ; 0x13 <__rc3>
     fd3: a8           	tay
     fd4: a9 00        	lda	#$0
     fd6: 91 12        	sta	($12),y                 ; 0x12 <__rc2>
     fd8: ae be 5e     	ldx	$5ebe                   ; 0x5ebe <spriteStatuses+0x16>
     fdb: ad bf 5e     	lda	$5ebf                   ; 0x5ebf <spriteStatuses+0x17>
     fde: 86 12        	stx	$12                     ; 0x12 <__rc2>
     fe0: 85 13        	sta	$13                     ; 0x13 <__rc3>
     fe2: a9 01        	lda	#$1
     fe4: 91 12        	sta	($12),y                 ; 0x12 <__rc2>
     fe6: ae bc 5e     	ldx	$5ebc                   ; 0x5ebc <spriteStatuses+0x14>
     fe9: ac bd 5e     	ldy	$5ebd                   ; 0x5ebd <spriteStatuses+0x15>
     fec: 86 12        	stx	$12                     ; 0x12 <__rc2>
     fee: 84 13        	sty	$13                     ; 0x13 <__rc3>
     ff0: a0 03        	ldy	#$3
     ff2: 1a           	inc
     ff3: 91 12        	sta	($12),y                 ; 0x12 <__rc2>
     ff5: ae be 5e     	ldx	$5ebe                   ; 0x5ebe <spriteStatuses+0x16>
     ff8: 86 12        	stx	$12                     ; 0x12 <__rc2>
     ffa: ae bf 5e     	ldx	$5ebf                   ; 0x5ebf <spriteStatuses+0x17>
     ffd: 86 13        	stx	$13                     ; 0x13 <__rc3>
     fff: 98           	tya
    1000: 91 12        	sta	($12),y                 ; 0x12 <__rc2>
    1002: ae bc 5e     	ldx	$5ebc                   ; 0x5ebc <spriteStatuses+0x14>
    1005: 86 12        	stx	$12                     ; 0x12 <__rc2>
    1007: ae bd 5e     	ldx	$5ebd                   ; 0x5ebd <spriteStatuses+0x15>
    100a: 86 13        	stx	$13                     ; 0x13 <__rc3>
    100c: c8           	iny
    100d: a9 01        	lda	#$1
    100f: 91 12        	sta	($12),y                 ; 0x12 <__rc2>
    1011: ae be 5e     	ldx	$5ebe                   ; 0x5ebe <spriteStatuses+0x16>
    1014: 86 12        	stx	$12                     ; 0x12 <__rc2>
    1016: ae bf 5e     	ldx	$5ebf                   ; 0x5ebf <spriteStatuses+0x17>
    1019: 86 13        	stx	$13                     ; 0x13 <__rc3>
    101b: 91 12        	sta	($12),y                 ; 0x12 <__rc2>
    101d: ae bc 5e     	ldx	$5ebc                   ; 0x5ebc <spriteStatuses+0x14>
    1020: 86 12        	stx	$12                     ; 0x12 <__rc2>
    1022: ae bd 5e     	ldx	$5ebd                   ; 0x5ebd <spriteStatuses+0x15>
    1025: 86 13        	stx	$13                     ; 0x13 <__rc3>
    1027: c8           	iny
    1028: a9 03        	lda	#$3
    102a: 91 12        	sta	($12),y                 ; 0x12 <__rc2>
    102c: ae be 5e     	ldx	$5ebe                   ; 0x5ebe <spriteStatuses+0x16>
    102f: 86 12        	stx	$12                     ; 0x12 <__rc2>
    1031: ae bf 5e     	ldx	$5ebf                   ; 0x5ebf <spriteStatuses+0x17>
    1034: 86 13        	stx	$13                     ; 0x13 <__rc3>
    1036: 91 12        	sta	($12),y                 ; 0x12 <__rc2>
    1038: a0 40        	ldy	#$40
    103a: 84 89        	sty	$89                     ; 0x89 <_spriteCtl+0x1>
    103c: 8c 08 d9     	sty	$d908                   ; 0xd908 <end_block9+0x7880>
    103f: a2 02        	ldx	#$2
    1041: 8e 09 d9     	stx	$d909                   ; 0xd909 <end_block9+0x7881>
    1044: a2 09        	ldx	#$9
    1046: 8e 0a d9     	stx	$d90a                   ; 0xd90a <end_block9+0x7882>
    1049: a9 01        	lda	#$1
    104b: 8d 0b d9     	sta	$d90b                   ; 0xd90b <end_block9+0x7883>
    104e: 84 93        	sty	$93                     ; 0x93 <_spriteCtl+0xb>
    1050: 8c 58 d9     	sty	$d958                   ; 0xd958 <end_block9+0x78d0>
    1053: 9c 59 d9     	stz	$d959                   ; 0xd959 <end_block9+0x78d1>
    1056: a2 12        	ldx	#$12
    1058: 8e 5a d9     	stx	$d95a                   ; 0xd95a <end_block9+0x78d2>
    105b: 8d 5b d9     	sta	$d95b                   ; 0xd95b <end_block9+0x78d3>
    105e: 8d c4 5e     	sta	$5ec4                   ; 0x5ec4 <spriteStatuses+0x1c>
    1061: a2 c8        	ldx	#$c8
    1063: 8e 0c d9     	stx	$d90c                   ; 0xd90c <end_block9+0x7884>
    1066: 9c 0d d9     	stz	$d90d                   ; 0xd90d <end_block9+0x7885>
    1069: a0 32        	ldy	#$32
    106b: 8c 0e d9     	sty	$d90e                   ; 0xd90e <end_block9+0x7886>
    106e: 9c 0f d9     	stz	$d90f                   ; 0xd90f <end_block9+0x7887>
    1071: 05 89        	ora	$89                     ; 0x89 <_spriteCtl+0x1>
    1073: 8d 08 d9     	sta	$d908                   ; 0xd908 <end_block9+0x7880>
    1076: a9 01        	lda	#$1
    1078: 05 93        	ora	$93                     ; 0x93 <_spriteCtl+0xb>
    107a: 8d 58 d9     	sta	$d958                   ; 0xd958 <end_block9+0x78d0>
    107d: a2 b8        	ldx	#$b8
    107f: 8e 0c d9     	stx	$d90c                   ; 0xd90c <end_block9+0x7884>
    1082: 9c 0d d9     	stz	$d90d                   ; 0xd90d <end_block9+0x7885>
    1085: 8c 0e d9     	sty	$d90e                   ; 0xd90e <end_block9+0x7886>
    1088: 9c 0f d9     	stz	$d90f                   ; 0xd90f <end_block9+0x7887>
    108b: a2 08        	ldx	#$8
    108d: 8e c7 5e     	stx	$5ec7                   ; 0x5ec7 <spriteStatuses+0x1f>
    1090: 8c c2 5e     	sty	$5ec2                   ; 0x5ec2 <spriteStatuses+0x1a>
    1093: 9c c6 5e     	stz	$5ec6                   ; 0x5ec6 <spriteStatuses+0x1e>
    1096: a2 01        	ldx	#$1
    1098: 8e c8 5e     	stx	$5ec8                   ; 0x5ec8 <spriteStatuses+0x20>
    109b: 9c c9 5e     	stz	$5ec9                   ; 0x5ec9 <spriteStatuses+0x21>
    109e: a0 02        	ldy	#$2
    10a0: 8c ca 5e     	sty	$5eca                   ; 0x5eca <spriteStatuses+0x22>
    10a3: 9c c5 5e     	stz	$5ec5                   ; 0x5ec5 <spriteStatuses+0x1d>
    10a6: a0 c8        	ldy	#$c8
    10a8: 8c c0 5e     	sty	$5ec0                   ; 0x5ec0 <spriteStatuses+0x18>
    10ab: 9c c1 5e     	stz	$5ec1                   ; 0x5ec1 <spriteStatuses+0x19>
    10ae: 9c c3 5e     	stz	$5ec3                   ; 0x5ec3 <spriteStatuses+0x1b>
    10b1: 9c cb 5e     	stz	$5ecb                   ; 0x5ecb <spriteStatuses+0x23>
    10b4: 9c cc 5e     	stz	$5ecc                   ; 0x5ecc <spriteStatuses+0x24>
    10b7: 9c cd 5e     	stz	$5ecd                   ; 0x5ecd <spriteStatuses+0x25>
    10ba: 9c ce 5e     	stz	$5ece                   ; 0x5ece <spriteStatuses+0x26>
    10bd: 9c cf 5e     	stz	$5ecf                   ; 0x5ecf <spriteStatuses+0x27>
    10c0: 8e d1 5e     	stx	$5ed1                   ; 0x5ed1 <spriteStatuses+0x29>
    10c3: 9c d3 5e     	stz	$5ed3                   ; 0x5ed3 <spriteStatuses+0x2b>
    10c6: ca           	dex
    10c7: a9 06        	lda	#$6
    10c9: 20 2f 37     	jsr	$372f <malloc>
    10cc: a6 12        	ldx	$12                     ; 0x12 <__rc2>
    10ce: a4 13        	ldy	$13                     ; 0x13 <__rc3>
    10d0: 8e d4 5e     	stx	$5ed4                   ; 0x5ed4 <spriteStatuses+0x2c>
    10d3: 8c d5 5e     	sty	$5ed5                   ; 0x5ed5 <spriteStatuses+0x2d>
    10d6: a2 00        	ldx	#$0
    10d8: a9 06        	lda	#$6
    10da: 20 2f 37     	jsr	$372f <malloc>
    10dd: a6 12        	ldx	$12                     ; 0x12 <__rc2>
    10df: a4 13        	ldy	$13                     ; 0x13 <__rc3>
    10e1: 8e d6 5e     	stx	$5ed6                   ; 0x5ed6 <spriteStatuses+0x2e>
    10e4: 8c d7 5e     	sty	$5ed7                   ; 0x5ed7 <spriteStatuses+0x2f>
    10e7: ae d4 5e     	ldx	$5ed4                   ; 0x5ed4 <spriteStatuses+0x2c>
    10ea: ac d5 5e     	ldy	$5ed5                   ; 0x5ed5 <spriteStatuses+0x2d>
    10ed: 86 12        	stx	$12                     ; 0x12 <__rc2>
    10ef: 84 13        	sty	$13                     ; 0x13 <__rc3>
    10f1: a9 00        	lda	#$0
    10f3: 92 12        	sta	($12)                   ; 0x12 <__rc2>
    10f5: ae d6 5e     	ldx	$5ed6                   ; 0x5ed6 <spriteStatuses+0x2e>
    10f8: ac d7 5e     	ldy	$5ed7                   ; 0x5ed7 <spriteStatuses+0x2f>
    10fb: 86 12        	stx	$12                     ; 0x12 <__rc2>
    10fd: 84 13        	sty	$13                     ; 0x13 <__rc3>
    10ff: 92 12        	sta	($12)                   ; 0x12 <__rc2>
    1101: ae d4 5e     	ldx	$5ed4                   ; 0x5ed4 <spriteStatuses+0x2c>
    1104: ac d5 5e     	ldy	$5ed5                   ; 0x5ed5 <spriteStatuses+0x2d>
    1107: 86 12        	stx	$12                     ; 0x12 <__rc2>
    1109: 84 13        	sty	$13                     ; 0x13 <__rc3>
    110b: a9 02        	lda	#$2
    110d: a0 01        	ldy	#$1
    110f: 91 12        	sta	($12),y                 ; 0x12 <__rc2>
    1111: ae d6 5e     	ldx	$5ed6                   ; 0x5ed6 <spriteStatuses+0x2e>
    1114: ac d7 5e     	ldy	$5ed7                   ; 0x5ed7 <spriteStatuses+0x2f>
    1117: 86 12        	stx	$12                     ; 0x12 <__rc2>
    1119: 84 13        	sty	$13                     ; 0x13 <__rc3>
    111b: a0 01        	ldy	#$1
    111d: 91 12        	sta	($12),y                 ; 0x12 <__rc2>
    111f: ae d4 5e     	ldx	$5ed4                   ; 0x5ed4 <spriteStatuses+0x2c>
    1122: ac d5 5e     	ldy	$5ed5                   ; 0x5ed5 <spriteStatuses+0x2d>
    1125: 86 12        	stx	$12                     ; 0x12 <__rc2>
    1127: 84 13        	sty	$13                     ; 0x13 <__rc3>
    1129: a8           	tay
    112a: a9 00        	lda	#$0
    112c: 91 12        	sta	($12),y                 ; 0x12 <__rc2>
    112e: ae d6 5e     	ldx	$5ed6                   ; 0x5ed6 <spriteStatuses+0x2e>
    1131: ad d7 5e     	lda	$5ed7                   ; 0x5ed7 <spriteStatuses+0x2f>
    1134: 86 12        	stx	$12                     ; 0x12 <__rc2>
    1136: 85 13        	sta	$13                     ; 0x13 <__rc3>
    1138: a9 01        	lda	#$1
    113a: 91 12        	sta	($12),y                 ; 0x12 <__rc2>
    113c: ae d4 5e     	ldx	$5ed4                   ; 0x5ed4 <spriteStatuses+0x2c>
    113f: ac d5 5e     	ldy	$5ed5                   ; 0x5ed5 <spriteStatuses+0x2d>
    1142: 86 12        	stx	$12                     ; 0x12 <__rc2>
    1144: 84 13        	sty	$13                     ; 0x13 <__rc3>
    1146: a0 03        	ldy	#$3
    1148: 1a           	inc
    1149: 91 12        	sta	($12),y                 ; 0x12 <__rc2>
    114b: ae d6 5e     	ldx	$5ed6                   ; 0x5ed6 <spriteStatuses+0x2e>
    114e: ad d7 5e     	lda	$5ed7                   ; 0x5ed7 <spriteStatuses+0x2f>
    1151: 86 12        	stx	$12                     ; 0x12 <__rc2>
    1153: 85 13        	sta	$13                     ; 0x13 <__rc3>
    1155: 98           	tya
    1156: 91 12        	sta	($12),y                 ; 0x12 <__rc2>
    1158: ae d4 5e     	ldx	$5ed4                   ; 0x5ed4 <spriteStatuses+0x2c>
    115b: ac d5 5e     	ldy	$5ed5                   ; 0x5ed5 <spriteStatuses+0x2d>
    115e: 86 12        	stx	$12                     ; 0x12 <__rc2>
    1160: 84 13        	sty	$13                     ; 0x13 <__rc3>
    1162: a0 04        	ldy	#$4
    1164: a9 01        	lda	#$1
    1166: 91 12        	sta	($12),y                 ; 0x12 <__rc2>
    1168: ae d6 5e     	ldx	$5ed6                   ; 0x5ed6 <spriteStatuses+0x2e>
    116b: ac d7 5e     	ldy	$5ed7                   ; 0x5ed7 <spriteStatuses+0x2f>
    116e: 86 12        	stx	$12                     ; 0x12 <__rc2>
    1170: 84 13        	sty	$13                     ; 0x13 <__rc3>
    1172: a0 04        	ldy	#$4
    1174: 91 12        	sta	($12),y                 ; 0x12 <__rc2>
    1176: ae d4 5e     	ldx	$5ed4                   ; 0x5ed4 <spriteStatuses+0x2c>
    1179: ac d5 5e     	ldy	$5ed5                   ; 0x5ed5 <spriteStatuses+0x2d>
    117c: 86 12        	stx	$12                     ; 0x12 <__rc2>
    117e: 84 13        	sty	$13                     ; 0x13 <__rc3>
    1180: a0 05        	ldy	#$5
    1182: a9 03        	lda	#$3
    1184: 91 12        	sta	($12),y                 ; 0x12 <__rc2>
    1186: ae d6 5e     	ldx	$5ed6                   ; 0x5ed6 <spriteStatuses+0x2e>
    1189: ac d7 5e     	ldy	$5ed7                   ; 0x5ed7 <spriteStatuses+0x2f>
    118c: 86 12        	stx	$12                     ; 0x12 <__rc2>
    118e: 84 13        	sty	$13                     ; 0x13 <__rc3>
    1190: a0 05        	ldy	#$5
    1192: 91 12        	sta	($12),y                 ; 0x12 <__rc2>
    1194: a0 40        	ldy	#$40
    1196: 84 8a        	sty	$8a                     ; 0x8a <_spriteCtl+0x2>
    1198: 8c 10 d9     	sty	$d910                   ; 0xd910 <end_block9+0x7888>
    119b: 9c 11 d9     	stz	$d911                   ; 0xd911 <end_block9+0x7889>
    119e: a2 0d        	ldx	#$d
    11a0: 8e 12 d9     	stx	$d912                   ; 0xd912 <end_block9+0x788a>
    11a3: a9 01        	lda	#$1
    11a5: 8d 13 d9     	sta	$d913                   ; 0xd913 <end_block9+0x788b>
    11a8: 84 94        	sty	$94                     ; 0x94 <_spriteCtl+0xc>
    11aa: 8c 60 d9     	sty	$d960                   ; 0xd960 <end_block9+0x78d8>
    11ad: 9c 61 d9     	stz	$d961                   ; 0xd961 <end_block9+0x78d9>
    11b0: a2 16        	ldx	#$16
    11b2: 8e 62 d9     	stx	$d962                   ; 0xd962 <end_block9+0x78da>
    11b5: 8d 63 d9     	sta	$d963                   ; 0xd963 <end_block9+0x78db>
    11b8: 8d dc 5e     	sta	$5edc                   ; 0x5edc <spriteStatuses+0x34>
    11bb: a0 64        	ldy	#$64
    11bd: 8c 14 d9     	sty	$d914                   ; 0xd914 <end_block9+0x788c>
    11c0: 9c 15 d9     	stz	$d915                   ; 0xd915 <end_block9+0x788d>
    11c3: a2 50        	ldx	#$50
    11c5: 8e 16 d9     	stx	$d916                   ; 0xd916 <end_block9+0x788e>
    11c8: 9c 17 d9     	stz	$d917                   ; 0xd917 <end_block9+0x788f>
    11cb: 05 8a        	ora	$8a                     ; 0x8a <_spriteCtl+0x2>
    11cd: 8d 10 d9     	sta	$d910                   ; 0xd910 <end_block9+0x7888>
    11d0: a9 01        	lda	#$1
    11d2: 05 94        	ora	$94                     ; 0x94 <_spriteCtl+0xc>
    11d4: 8d 60 d9     	sta	$d960                   ; 0xd960 <end_block9+0x78d8>
    11d7: a2 54        	ldx	#$54
    11d9: 8e 14 d9     	stx	$d914                   ; 0xd914 <end_block9+0x788c>
    11dc: 9c 15 d9     	stz	$d915                   ; 0xd915 <end_block9+0x788d>
    11df: a9 50        	lda	#$50
    11e1: 8d 16 d9     	sta	$d916                   ; 0xd916 <end_block9+0x788e>
    11e4: 9c 17 d9     	stz	$d917                   ; 0xd917 <end_block9+0x788f>
    11e7: 9c de 5e     	stz	$5ede                   ; 0x5ede <spriteStatuses+0x36>
    11ea: a2 0c        	ldx	#$c
    11ec: 8e df 5e     	stx	$5edf                   ; 0x5edf <spriteStatuses+0x37>
    11ef: a2 01        	ldx	#$1
    11f1: 8e e0 5e     	stx	$5ee0                   ; 0x5ee0 <spriteStatuses+0x38>
    11f4: 9c e1 5e     	stz	$5ee1                   ; 0x5ee1 <spriteStatuses+0x39>
    11f7: 9c e2 5e     	stz	$5ee2                   ; 0x5ee2 <spriteStatuses+0x3a>
    11fa: 9c dd 5e     	stz	$5edd                   ; 0x5edd <spriteStatuses+0x35>
    11fd: 8c d8 5e     	sty	$5ed8                   ; 0x5ed8 <spriteStatuses+0x30>
    1200: 9c d9 5e     	stz	$5ed9                   ; 0x5ed9 <spriteStatuses+0x31>
    1203: 8d da 5e     	sta	$5eda                   ; 0x5eda <spriteStatuses+0x32>
    1206: 9c db 5e     	stz	$5edb                   ; 0x5edb <spriteStatuses+0x33>
    1209: 9c e3 5e     	stz	$5ee3                   ; 0x5ee3 <spriteStatuses+0x3b>
    120c: 9c e4 5e     	stz	$5ee4                   ; 0x5ee4 <spriteStatuses+0x3c>
    120f: 9c e5 5e     	stz	$5ee5                   ; 0x5ee5 <spriteStatuses+0x3d>
    1212: 9c e6 5e     	stz	$5ee6                   ; 0x5ee6 <spriteStatuses+0x3e>
    1215: 9c e7 5e     	stz	$5ee7                   ; 0x5ee7 <spriteStatuses+0x3f>
    1218: e8           	inx
    1219: 8e e9 5e     	stx	$5ee9                   ; 0x5ee9 <spriteStatuses+0x41>
    121c: 9c eb 5e     	stz	$5eeb                   ; 0x5eeb <spriteStatuses+0x43>
    121f: a2 00        	ldx	#$0
    1221: a9 06        	lda	#$6
    1223: 20 2f 37     	jsr	$372f <malloc>
    1226: a6 12        	ldx	$12                     ; 0x12 <__rc2>
    1228: a4 13        	ldy	$13                     ; 0x13 <__rc3>
    122a: 8e ec 5e     	stx	$5eec                   ; 0x5eec <spriteStatuses+0x44>
    122d: 8c ed 5e     	sty	$5eed                   ; 0x5eed <spriteStatuses+0x45>
    1230: a2 00        	ldx	#$0
    1232: a9 06        	lda	#$6
    1234: 20 2f 37     	jsr	$372f <malloc>
    1237: a6 12        	ldx	$12                     ; 0x12 <__rc2>
    1239: 8e ee 5e     	stx	$5eee                   ; 0x5eee <spriteStatuses+0x46>
    123c: a6 13        	ldx	$13                     ; 0x13 <__rc3>
    123e: 8e ef 5e     	stx	$5eef                   ; 0x5eef <spriteStatuses+0x47>
    1241: ae ec 5e     	ldx	$5eec                   ; 0x5eec <spriteStatuses+0x44>
    1244: 86 12        	stx	$12                     ; 0x12 <__rc2>
    1246: ae ed 5e     	ldx	$5eed                   ; 0x5eed <spriteStatuses+0x45>
    1249: 86 13        	stx	$13                     ; 0x13 <__rc3>
    124b: a9 00        	lda	#$0
    124d: 92 12        	sta	($12)                   ; 0x12 <__rc2>
    124f: ae ee 5e     	ldx	$5eee                   ; 0x5eee <spriteStatuses+0x46>
    1252: 86 12        	stx	$12                     ; 0x12 <__rc2>
    1254: ae ef 5e     	ldx	$5eef                   ; 0x5eef <spriteStatuses+0x47>
    1257: 86 13        	stx	$13                     ; 0x13 <__rc3>
    1259: 92 12        	sta	($12)                   ; 0x12 <__rc2>
    125b: ae ec 5e     	ldx	$5eec                   ; 0x5eec <spriteStatuses+0x44>
    125e: 86 12        	stx	$12                     ; 0x12 <__rc2>
    1260: ae ed 5e     	ldx	$5eed                   ; 0x5eed <spriteStatuses+0x45>
    1263: 86 13        	stx	$13                     ; 0x13 <__rc3>
    1265: a9 02        	lda	#$2
    1267: a0 01        	ldy	#$1
    1269: 91 12        	sta	($12),y                 ; 0x12 <__rc2>
    126b: ae ee 5e     	ldx	$5eee                   ; 0x5eee <spriteStatuses+0x46>
    126e: 86 12        	stx	$12                     ; 0x12 <__rc2>
    1270: ae ef 5e     	ldx	$5eef                   ; 0x5eef <spriteStatuses+0x47>
    1273: 86 13        	stx	$13                     ; 0x13 <__rc3>
    1275: 91 12        	sta	($12),y                 ; 0x12 <__rc2>
    1277: ae ec 5e     	ldx	$5eec                   ; 0x5eec <spriteStatuses+0x44>
    127a: 86 12        	stx	$12                     ; 0x12 <__rc2>
    127c: ae ed 5e     	ldx	$5eed                   ; 0x5eed <spriteStatuses+0x45>
    127f: 86 13        	stx	$13                     ; 0x13 <__rc3>
    1281: a8           	tay
    1282: a9 00        	lda	#$0
    1284: 91 12        	sta	($12),y                 ; 0x12 <__rc2>
    1286: ae ee 5e     	ldx	$5eee                   ; 0x5eee <spriteStatuses+0x46>
    1289: 86 12        	stx	$12                     ; 0x12 <__rc2>
    128b: ae ef 5e     	ldx	$5eef                   ; 0x5eef <spriteStatuses+0x47>
    128e: 86 13        	stx	$13                     ; 0x13 <__rc3>
    1290: 1a           	inc
    1291: 91 12        	sta	($12),y                 ; 0x12 <__rc2>
    1293: ae ec 5e     	ldx	$5eec                   ; 0x5eec <spriteStatuses+0x44>
    1296: 86 12        	stx	$12                     ; 0x12 <__rc2>
    1298: ae ed 5e     	ldx	$5eed                   ; 0x5eed <spriteStatuses+0x45>
    129b: 86 13        	stx	$13                     ; 0x13 <__rc3>
    129d: c8           	iny
    129e: 1a           	inc
    129f: 91 12        	sta	($12),y                 ; 0x12 <__rc2>
    12a1: ae ee 5e     	ldx	$5eee                   ; 0x5eee <spriteStatuses+0x46>
    12a4: 86 12        	stx	$12                     ; 0x12 <__rc2>
    12a6: ae ef 5e     	ldx	$5eef                   ; 0x5eef <spriteStatuses+0x47>
    12a9: 86 13        	stx	$13                     ; 0x13 <__rc3>
    12ab: 98           	tya
    12ac: 91 12        	sta	($12),y                 ; 0x12 <__rc2>
    12ae: ae ec 5e     	ldx	$5eec                   ; 0x5eec <spriteStatuses+0x44>
    12b1: 86 12        	stx	$12                     ; 0x12 <__rc2>
    12b3: ae ed 5e     	ldx	$5eed                   ; 0x5eed <spriteStatuses+0x45>
    12b6: 86 13        	stx	$13                     ; 0x13 <__rc3>
    12b8: c8           	iny
    12b9: a9 01        	lda	#$1
    12bb: 91 12        	sta	($12),y                 ; 0x12 <__rc2>
    12bd: ae ee 5e     	ldx	$5eee                   ; 0x5eee <spriteStatuses+0x46>
    12c0: 86 12        	stx	$12                     ; 0x12 <__rc2>
    12c2: ae ef 5e     	ldx	$5eef                   ; 0x5eef <spriteStatuses+0x47>
    12c5: 86 13        	stx	$13                     ; 0x13 <__rc3>
    12c7: 91 12        	sta	($12),y                 ; 0x12 <__rc2>
    12c9: ae ec 5e     	ldx	$5eec                   ; 0x5eec <spriteStatuses+0x44>
    12cc: 86 12        	stx	$12                     ; 0x12 <__rc2>
    12ce: ae ed 5e     	ldx	$5eed                   ; 0x5eed <spriteStatuses+0x45>
    12d1: 86 13        	stx	$13                     ; 0x13 <__rc3>
    12d3: c8           	iny
    12d4: a9 03        	lda	#$3
    12d6: 91 12        	sta	($12),y                 ; 0x12 <__rc2>
    12d8: ae ee 5e     	ldx	$5eee                   ; 0x5eee <spriteStatuses+0x46>
    12db: 86 12        	stx	$12                     ; 0x12 <__rc2>
    12dd: ae ef 5e     	ldx	$5eef                   ; 0x5eef <spriteStatuses+0x47>
    12e0: 86 13        	stx	$13                     ; 0x13 <__rc3>
    12e2: 91 12        	sta	($12),y                 ; 0x12 <__rc2>
    12e4: a0 40        	ldy	#$40
    12e6: 84 8b        	sty	$8b                     ; 0x8b <_spriteCtl+0x3>
    12e8: 8c 18 d9     	sty	$d918                   ; 0xd918 <end_block9+0x7890>
    12eb: a2 02        	ldx	#$2
    12ed: 8e 19 d9     	stx	$d919                   ; 0xd919 <end_block9+0x7891>
    12f0: a2 11        	ldx	#$11
    12f2: 8e 1a d9     	stx	$d91a                   ; 0xd91a <end_block9+0x7892>
    12f5: a9 01        	lda	#$1
    12f7: 8d 1b d9     	sta	$d91b                   ; 0xd91b <end_block9+0x7893>
    12fa: 84 95        	sty	$95                     ; 0x95 <_spriteCtl+0xd>
    12fc: 8c 68 d9     	sty	$d968                   ; 0xd968 <end_block9+0x78e0>
    12ff: 9c 69 d9     	stz	$d969                   ; 0xd969 <end_block9+0x78e1>
    1302: a2 1a        	ldx	#$1a
    1304: 8e 6a d9     	stx	$d96a                   ; 0xd96a <end_block9+0x78e2>
    1307: 8d 6b d9     	sta	$d96b                   ; 0xd96b <end_block9+0x78e3>
    130a: 8d f4 5e     	sta	$5ef4                   ; 0x5ef4 <spriteStatuses+0x4c>
    130d: a0 c8        	ldy	#$c8
    130f: 8c 1c d9     	sty	$d91c                   ; 0xd91c <end_block9+0x7894>
    1312: 9c 1d d9     	stz	$d91d                   ; 0xd91d <end_block9+0x7895>
    1315: a2 50        	ldx	#$50
    1317: 8e 1e d9     	stx	$d91e                   ; 0xd91e <end_block9+0x7896>
    131a: 9c 1f d9     	stz	$d91f                   ; 0xd91f <end_block9+0x7897>
    131d: 05 8b        	ora	$8b                     ; 0x8b <_spriteCtl+0x3>
    131f: 8d 18 d9     	sta	$d918                   ; 0xd918 <end_block9+0x7890>
    1322: a9 01        	lda	#$1
    1324: 05 95        	ora	$95                     ; 0x95 <_spriteCtl+0xd>
    1326: 8d 68 d9     	sta	$d968                   ; 0xd968 <end_block9+0x78e0>
    1329: a2 b8        	ldx	#$b8
    132b: 8e 1c d9     	stx	$d91c                   ; 0xd91c <end_block9+0x7894>
    132e: 9c 1d d9     	stz	$d91d                   ; 0xd91d <end_block9+0x7895>
    1331: a9 50        	lda	#$50
    1333: 8d 1e d9     	sta	$d91e                   ; 0xd91e <end_block9+0x7896>
    1336: 9c 1f d9     	stz	$d91f                   ; 0xd91f <end_block9+0x7897>
    1339: a2 10        	ldx	#$10
    133b: 8e f7 5e     	stx	$5ef7                   ; 0x5ef7 <spriteStatuses+0x4f>
    133e: 8c f0 5e     	sty	$5ef0                   ; 0x5ef0 <spriteStatuses+0x48>
    1341: 8d f2 5e     	sta	$5ef2                   ; 0x5ef2 <spriteStatuses+0x4a>
    1344: 9c f6 5e     	stz	$5ef6                   ; 0x5ef6 <spriteStatuses+0x4e>
    1347: a2 01        	ldx	#$1
    1349: 8e f8 5e     	stx	$5ef8                   ; 0x5ef8 <spriteStatuses+0x50>
    134c: 9c f9 5e     	stz	$5ef9                   ; 0x5ef9 <spriteStatuses+0x51>
    134f: e8           	inx
    1350: 8e fa 5e     	stx	$5efa                   ; 0x5efa <spriteStatuses+0x52>
    1353: 9c f5 5e     	stz	$5ef5                   ; 0x5ef5 <spriteStatuses+0x4d>
    1356: 9c f1 5e     	stz	$5ef1                   ; 0x5ef1 <spriteStatuses+0x49>
    1359: 9c f3 5e     	stz	$5ef3                   ; 0x5ef3 <spriteStatuses+0x4b>
    135c: 9c fb 5e     	stz	$5efb                   ; 0x5efb <spriteStatuses+0x53>
    135f: 9c fc 5e     	stz	$5efc                   ; 0x5efc <spriteStatuses+0x54>
    1362: 9c fd 5e     	stz	$5efd                   ; 0x5efd <spriteStatuses+0x55>
    1365: 9c fe 5e     	stz	$5efe                   ; 0x5efe <spriteStatuses+0x56>
    1368: 9c ff 5e     	stz	$5eff                   ; 0x5eff <spriteStatuses+0x57>
    136b: e8           	inx
    136c: 8e 01 5f     	stx	$5f01                   ; 0x5f01 <spriteStatuses+0x59>
    136f: 9c 03 5f     	stz	$5f03                   ; 0x5f03 <spriteStatuses+0x5b>
    1372: a2 00        	ldx	#$0
    1374: a9 06        	lda	#$6
    1376: 20 2f 37     	jsr	$372f <malloc>
    1379: a6 12        	ldx	$12                     ; 0x12 <__rc2>
    137b: a4 13        	ldy	$13                     ; 0x13 <__rc3>
    137d: 8e 04 5f     	stx	$5f04                   ; 0x5f04 <spriteStatuses+0x5c>
    1380: 8c 05 5f     	sty	$5f05                   ; 0x5f05 <spriteStatuses+0x5d>
    1383: a2 00        	ldx	#$0
    1385: a9 06        	lda	#$6
    1387: 20 2f 37     	jsr	$372f <malloc>
    138a: a6 12        	ldx	$12                     ; 0x12 <__rc2>
    138c: a4 13        	ldy	$13                     ; 0x13 <__rc3>
    138e: 8e 06 5f     	stx	$5f06                   ; 0x5f06 <spriteStatuses+0x5e>
    1391: 8c 07 5f     	sty	$5f07                   ; 0x5f07 <spriteStatuses+0x5f>
    1394: ae 04 5f     	ldx	$5f04                   ; 0x5f04 <spriteStatuses+0x5c>
    1397: ac 05 5f     	ldy	$5f05                   ; 0x5f05 <spriteStatuses+0x5d>
    139a: 86 12        	stx	$12                     ; 0x12 <__rc2>
    139c: 84 13        	sty	$13                     ; 0x13 <__rc3>
    139e: a9 00        	lda	#$0
    13a0: 92 12        	sta	($12)                   ; 0x12 <__rc2>
    13a2: ae 06 5f     	ldx	$5f06                   ; 0x5f06 <spriteStatuses+0x5e>
    13a5: ac 07 5f     	ldy	$5f07                   ; 0x5f07 <spriteStatuses+0x5f>
    13a8: 86 12        	stx	$12                     ; 0x12 <__rc2>
    13aa: 84 13        	sty	$13                     ; 0x13 <__rc3>
    13ac: 92 12        	sta	($12)                   ; 0x12 <__rc2>
    13ae: ae 04 5f     	ldx	$5f04                   ; 0x5f04 <spriteStatuses+0x5c>
    13b1: ac 05 5f     	ldy	$5f05                   ; 0x5f05 <spriteStatuses+0x5d>
    13b4: 86 12        	stx	$12                     ; 0x12 <__rc2>
    13b6: 84 13        	sty	$13                     ; 0x13 <__rc3>
    13b8: a9 02        	lda	#$2
    13ba: a0 01        	ldy	#$1
    13bc: 91 12        	sta	($12),y                 ; 0x12 <__rc2>
    13be: ae 06 5f     	ldx	$5f06                   ; 0x5f06 <spriteStatuses+0x5e>
    13c1: ac 07 5f     	ldy	$5f07                   ; 0x5f07 <spriteStatuses+0x5f>
    13c4: 86 12        	stx	$12                     ; 0x12 <__rc2>
    13c6: 84 13        	sty	$13                     ; 0x13 <__rc3>
    13c8: a0 01        	ldy	#$1
    13ca: 91 12        	sta	($12),y                 ; 0x12 <__rc2>
    13cc: ae 04 5f     	ldx	$5f04                   ; 0x5f04 <spriteStatuses+0x5c>
    13cf: ac 05 5f     	ldy	$5f05                   ; 0x5f05 <spriteStatuses+0x5d>
    13d2: 86 12        	stx	$12                     ; 0x12 <__rc2>
    13d4: 84 13        	sty	$13                     ; 0x13 <__rc3>
    13d6: a8           	tay
    13d7: a9 00        	lda	#$0
    13d9: 91 12        	sta	($12),y                 ; 0x12 <__rc2>
    13db: ae 06 5f     	ldx	$5f06                   ; 0x5f06 <spriteStatuses+0x5e>
    13de: ad 07 5f     	lda	$5f07                   ; 0x5f07 <spriteStatuses+0x5f>
    13e1: 86 12        	stx	$12                     ; 0x12 <__rc2>
    13e3: 85 13        	sta	$13                     ; 0x13 <__rc3>
    13e5: a9 01        	lda	#$1
    13e7: 91 12        	sta	($12),y                 ; 0x12 <__rc2>
    13e9: ae 04 5f     	ldx	$5f04                   ; 0x5f04 <spriteStatuses+0x5c>
    13ec: ac 05 5f     	ldy	$5f05                   ; 0x5f05 <spriteStatuses+0x5d>
    13ef: 86 12        	stx	$12                     ; 0x12 <__rc2>
    13f1: 84 13        	sty	$13                     ; 0x13 <__rc3>
    13f3: a0 03        	ldy	#$3
    13f5: 1a           	inc
    13f6: 91 12        	sta	($12),y                 ; 0x12 <__rc2>
    13f8: ae 06 5f     	ldx	$5f06                   ; 0x5f06 <spriteStatuses+0x5e>
    13fb: ad 07 5f     	lda	$5f07                   ; 0x5f07 <spriteStatuses+0x5f>
    13fe: 86 12        	stx	$12                     ; 0x12 <__rc2>
    1400: 85 13        	sta	$13                     ; 0x13 <__rc3>
    1402: 98           	tya
    1403: 91 12        	sta	($12),y                 ; 0x12 <__rc2>
    1405: ae 04 5f     	ldx	$5f04                   ; 0x5f04 <spriteStatuses+0x5c>
    1408: ac 05 5f     	ldy	$5f05                   ; 0x5f05 <spriteStatuses+0x5d>
    140b: 86 12        	stx	$12                     ; 0x12 <__rc2>
    140d: 84 13        	sty	$13                     ; 0x13 <__rc3>
    140f: a0 04        	ldy	#$4
    1411: a9 01        	lda	#$1
    1413: 91 12        	sta	($12),y                 ; 0x12 <__rc2>
    1415: ae 06 5f     	ldx	$5f06                   ; 0x5f06 <spriteStatuses+0x5e>
    1418: ac 07 5f     	ldy	$5f07                   ; 0x5f07 <spriteStatuses+0x5f>
    141b: 86 12        	stx	$12                     ; 0x12 <__rc2>
    141d: 84 13        	sty	$13                     ; 0x13 <__rc3>
    141f: a0 04        	ldy	#$4
    1421: 91 12        	sta	($12),y                 ; 0x12 <__rc2>
    1423: ae 04 5f     	ldx	$5f04                   ; 0x5f04 <spriteStatuses+0x5c>
    1426: ac 05 5f     	ldy	$5f05                   ; 0x5f05 <spriteStatuses+0x5d>
    1429: 86 12        	stx	$12                     ; 0x12 <__rc2>
    142b: 84 13        	sty	$13                     ; 0x13 <__rc3>
    142d: a0 05        	ldy	#$5
    142f: a9 03        	lda	#$3
    1431: 91 12        	sta	($12),y                 ; 0x12 <__rc2>
    1433: ae 06 5f     	ldx	$5f06                   ; 0x5f06 <spriteStatuses+0x5e>
    1436: ad 07 5f     	lda	$5f07                   ; 0x5f07 <spriteStatuses+0x5f>
    1439: 86 12        	stx	$12                     ; 0x12 <__rc2>
    143b: 85 13        	sta	$13                     ; 0x13 <__rc3>
    143d: a9 03        	lda	#$3
    143f: 91 12        	sta	($12),y                 ; 0x12 <__rc2>
    1441: a0 40        	ldy	#$40
    1443: 84 8c        	sty	$8c                     ; 0x8c <_spriteCtl+0x4>
    1445: 8c 20 d9     	sty	$d920                   ; 0xd920 <end_block9+0x7898>
    1448: 9c 21 d9     	stz	$d921                   ; 0xd921 <end_block9+0x7899>
    144b: a2 15        	ldx	#$15
    144d: 8e 22 d9     	stx	$d922                   ; 0xd922 <end_block9+0x789a>
    1450: a9 01        	lda	#$1
    1452: 8d 23 d9     	sta	$d923                   ; 0xd923 <end_block9+0x789b>
    1455: 84 96        	sty	$96                     ; 0x96 <_spriteCtl+0xe>
    1457: 8c 70 d9     	sty	$d970                   ; 0xd970 <end_block9+0x78e8>
    145a: 9c 71 d9     	stz	$d971                   ; 0xd971 <end_block9+0x78e9>
    145d: a2 1e        	ldx	#$1e
    145f: 8e 72 d9     	stx	$d972                   ; 0xd972 <end_block9+0x78ea>
    1462: 8d 73 d9     	sta	$d973                   ; 0xd973 <end_block9+0x78eb>
    1465: 8d 0c 5f     	sta	$5f0c                   ; 0x5f0c <spriteStatuses+0x64>
    1468: a2 64        	ldx	#$64
    146a: 8e 24 d9     	stx	$d924                   ; 0xd924 <end_block9+0x789c>
    146d: 9c 25 d9     	stz	$d925                   ; 0xd925 <end_block9+0x789d>
    1470: a2 6e        	ldx	#$6e
    1472: 8e 26 d9     	stx	$d926                   ; 0xd926 <end_block9+0x789e>
    1475: 9c 27 d9     	stz	$d927                   ; 0xd927 <end_block9+0x789f>
    1478: 05 8c        	ora	$8c                     ; 0x8c <_spriteCtl+0x4>
    147a: 8d 20 d9     	sta	$d920                   ; 0xd920 <end_block9+0x7898>
    147d: a9 01        	lda	#$1
    147f: 05 96        	ora	$96                     ; 0x96 <_spriteCtl+0xe>
    1481: 8d 70 d9     	sta	$d970                   ; 0xd970 <end_block9+0x78e8>
    1484: a0 54        	ldy	#$54
    1486: 8c 24 d9     	sty	$d924                   ; 0xd924 <end_block9+0x789c>
    1489: 9c 25 d9     	stz	$d925                   ; 0xd925 <end_block9+0x789d>
    148c: 8e 26 d9     	stx	$d926                   ; 0xd926 <end_block9+0x789e>
    148f: 9c 27 d9     	stz	$d927                   ; 0xd927 <end_block9+0x789f>
    1492: a0 14        	ldy	#$14
    1494: 8c 0f 5f     	sty	$5f0f                   ; 0x5f0f <spriteStatuses+0x67>
    1497: a0 64        	ldy	#$64
    1499: 8c 08 5f     	sty	$5f08                   ; 0x5f08 <spriteStatuses+0x60>
    149c: 8e 0a 5f     	stx	$5f0a                   ; 0x5f0a <spriteStatuses+0x62>
    149f: 9c 0e 5f     	stz	$5f0e                   ; 0x5f0e <spriteStatuses+0x66>
    14a2: a2 01        	ldx	#$1
    14a4: 8e 10 5f     	stx	$5f10                   ; 0x5f10 <spriteStatuses+0x68>
    14a7: 9c 11 5f     	stz	$5f11                   ; 0x5f11 <spriteStatuses+0x69>
    14aa: 9c 12 5f     	stz	$5f12                   ; 0x5f12 <spriteStatuses+0x6a>
    14ad: 9c 0d 5f     	stz	$5f0d                   ; 0x5f0d <spriteStatuses+0x65>
    14b0: 9c 09 5f     	stz	$5f09                   ; 0x5f09 <spriteStatuses+0x61>
    14b3: 9c 0b 5f     	stz	$5f0b                   ; 0x5f0b <spriteStatuses+0x63>
    14b6: 9c 13 5f     	stz	$5f13                   ; 0x5f13 <spriteStatuses+0x6b>
    14b9: 9c 14 5f     	stz	$5f14                   ; 0x5f14 <spriteStatuses+0x6c>
    14bc: 9c 15 5f     	stz	$5f15                   ; 0x5f15 <spriteStatuses+0x6d>
    14bf: 9c 16 5f     	stz	$5f16                   ; 0x5f16 <spriteStatuses+0x6e>
    14c2: 9c 17 5f     	stz	$5f17                   ; 0x5f17 <spriteStatuses+0x6f>
    14c5: a2 04        	ldx	#$4
    14c7: 8e 19 5f     	stx	$5f19                   ; 0x5f19 <spriteStatuses+0x71>
    14ca: 9c 1b 5f     	stz	$5f1b                   ; 0x5f1b <spriteStatuses+0x73>
    14cd: a2 00        	ldx	#$0
    14cf: a9 06        	lda	#$6
    14d1: 20 2f 37     	jsr	$372f <malloc>
    14d4: a6 12        	ldx	$12                     ; 0x12 <__rc2>
    14d6: a4 13        	ldy	$13                     ; 0x13 <__rc3>
    14d8: 8e 1c 5f     	stx	$5f1c                   ; 0x5f1c <spriteStatuses+0x74>
    14db: 8c 1d 5f     	sty	$5f1d                   ; 0x5f1d <spriteStatuses+0x75>
    14de: a2 00        	ldx	#$0
    14e0: a9 06        	lda	#$6
    14e2: 20 2f 37     	jsr	$372f <malloc>
    14e5: a6 12        	ldx	$12                     ; 0x12 <__rc2>
    14e7: 8e 1e 5f     	stx	$5f1e                   ; 0x5f1e <spriteStatuses+0x76>
    14ea: a6 13        	ldx	$13                     ; 0x13 <__rc3>
    14ec: 8e 1f 5f     	stx	$5f1f                   ; 0x5f1f <spriteStatuses+0x77>
    14ef: ae 1c 5f     	ldx	$5f1c                   ; 0x5f1c <spriteStatuses+0x74>
    14f2: 86 12        	stx	$12                     ; 0x12 <__rc2>
    14f4: ae 1d 5f     	ldx	$5f1d                   ; 0x5f1d <spriteStatuses+0x75>
    14f7: 86 13        	stx	$13                     ; 0x13 <__rc3>
    14f9: a9 00        	lda	#$0
    14fb: 92 12        	sta	($12)                   ; 0x12 <__rc2>
    14fd: ae 1e 5f     	ldx	$5f1e                   ; 0x5f1e <spriteStatuses+0x76>
    1500: 86 12        	stx	$12                     ; 0x12 <__rc2>
    1502: ae 1f 5f     	ldx	$5f1f                   ; 0x5f1f <spriteStatuses+0x77>
    1505: 86 13        	stx	$13                     ; 0x13 <__rc3>
    1507: 92 12        	sta	($12)                   ; 0x12 <__rc2>
    1509: ae 1c 5f     	ldx	$5f1c                   ; 0x5f1c <spriteStatuses+0x74>
    150c: 86 12        	stx	$12                     ; 0x12 <__rc2>
    150e: ae 1d 5f     	ldx	$5f1d                   ; 0x5f1d <spriteStatuses+0x75>
    1511: 86 13        	stx	$13                     ; 0x13 <__rc3>
    1513: a0 01        	ldy	#$1
    1515: a9 02        	lda	#$2
    1517: 91 12        	sta	($12),y                 ; 0x12 <__rc2>
    1519: ae 1e 5f     	ldx	$5f1e                   ; 0x5f1e <spriteStatuses+0x76>
    151c: 86 12        	stx	$12                     ; 0x12 <__rc2>
    151e: ae 1f 5f     	ldx	$5f1f                   ; 0x5f1f <spriteStatuses+0x77>
    1521: 86 13        	stx	$13                     ; 0x13 <__rc3>
    1523: 91 12        	sta	($12),y                 ; 0x12 <__rc2>
    1525: ae 1c 5f     	ldx	$5f1c                   ; 0x5f1c <spriteStatuses+0x74>
    1528: 86 12        	stx	$12                     ; 0x12 <__rc2>
    152a: ae 1d 5f     	ldx	$5f1d                   ; 0x5f1d <spriteStatuses+0x75>
    152d: 86 13        	stx	$13                     ; 0x13 <__rc3>
    152f: a8           	tay
    1530: a9 00        	lda	#$0
    1532: 91 12        	sta	($12),y                 ; 0x12 <__rc2>
    1534: ae 1e 5f     	ldx	$5f1e                   ; 0x5f1e <spriteStatuses+0x76>
    1537: 86 12        	stx	$12                     ; 0x12 <__rc2>
    1539: ae 1f 5f     	ldx	$5f1f                   ; 0x5f1f <spriteStatuses+0x77>
    153c: 86 13        	stx	$13                     ; 0x13 <__rc3>
    153e: 1a           	inc
    153f: 91 12        	sta	($12),y                 ; 0x12 <__rc2>
    1541: ae 1c 5f     	ldx	$5f1c                   ; 0x5f1c <spriteStatuses+0x74>
    1544: 86 12        	stx	$12                     ; 0x12 <__rc2>
    1546: ae 1d 5f     	ldx	$5f1d                   ; 0x5f1d <spriteStatuses+0x75>
    1549: 86 13        	stx	$13                     ; 0x13 <__rc3>
    154b: c8           	iny
    154c: 1a           	inc
    154d: 91 12        	sta	($12),y                 ; 0x12 <__rc2>
    154f: ae 1e 5f     	ldx	$5f1e                   ; 0x5f1e <spriteStatuses+0x76>
    1552: ac 1f 5f     	ldy	$5f1f                   ; 0x5f1f <spriteStatuses+0x77>
    1555: 86 12        	stx	$12                     ; 0x12 <__rc2>
    1557: 84 13        	sty	$13                     ; 0x13 <__rc3>
    1559: 1a           	inc
    155a: a8           	tay
    155b: 91 12        	sta	($12),y                 ; 0x12 <__rc2>
    155d: ae 1c 5f     	ldx	$5f1c                   ; 0x5f1c <spriteStatuses+0x74>
    1560: ac 1d 5f     	ldy	$5f1d                   ; 0x5f1d <spriteStatuses+0x75>
    1563: 86 12        	stx	$12                     ; 0x12 <__rc2>
    1565: 84 13        	sty	$13                     ; 0x13 <__rc3>
    1567: a0 04        	ldy	#$4
    1569: a9 01        	lda	#$1
    156b: 91 12        	sta	($12),y                 ; 0x12 <__rc2>
    156d: ae 1e 5f     	ldx	$5f1e                   ; 0x5f1e <spriteStatuses+0x76>
    1570: ac 1f 5f     	ldy	$5f1f                   ; 0x5f1f <spriteStatuses+0x77>
    1573: 86 12        	stx	$12                     ; 0x12 <__rc2>
    1575: 84 13        	sty	$13                     ; 0x13 <__rc3>
    1577: a0 04        	ldy	#$4
    1579: 91 12        	sta	($12),y                 ; 0x12 <__rc2>
    157b: ae 1c 5f     	ldx	$5f1c                   ; 0x5f1c <spriteStatuses+0x74>
    157e: ac 1d 5f     	ldy	$5f1d                   ; 0x5f1d <spriteStatuses+0x75>
    1581: 86 12        	stx	$12                     ; 0x12 <__rc2>
    1583: 84 13        	sty	$13                     ; 0x13 <__rc3>
    1585: a0 05        	ldy	#$5
    1587: a9 03        	lda	#$3
    1589: 91 12        	sta	($12),y                 ; 0x12 <__rc2>
    158b: ae 1e 5f     	ldx	$5f1e                   ; 0x5f1e <spriteStatuses+0x76>
    158e: ac 1f 5f     	ldy	$5f1f                   ; 0x5f1f <spriteStatuses+0x77>
    1591: 86 12        	stx	$12                     ; 0x12 <__rc2>
    1593: 84 13        	sty	$13                     ; 0x13 <__rc3>
    1595: a0 05        	ldy	#$5
    1597: 91 12        	sta	($12),y                 ; 0x12 <__rc2>
    1599: a0 40        	ldy	#$40
    159b: 84 92        	sty	$92                     ; 0x92 <_spriteCtl+0xa>
    159d: 8c 50 d9     	sty	$d950                   ; 0xd950 <end_block9+0x78c8>
    15a0: 9c 51 d9     	stz	$d951                   ; 0xd951 <end_block9+0x78c9>
    15a3: a2 31        	ldx	#$31
    15a5: 8e 52 d9     	stx	$d952                   ; 0xd952 <end_block9+0x78ca>
    15a8: a9 01        	lda	#$1
    15aa: 8d 53 d9     	sta	$d953                   ; 0xd953 <end_block9+0x78cb>
    15ad: 84 9c        	sty	$9c                     ; 0x9c <_spriteCtl+0x14>
    15af: 8c a0 d9     	sty	$d9a0                   ; 0xd9a0 <end_block9+0x7918>
    15b2: 9c a1 d9     	stz	$d9a1                   ; 0xd9a1 <end_block9+0x7919>
    15b5: a2 3a        	ldx	#$3a
    15b7: 8e a2 d9     	stx	$d9a2                   ; 0xd9a2 <end_block9+0x791a>
    15ba: 8d a3 d9     	sta	$d9a3                   ; 0xd9a3 <end_block9+0x791b>
    15bd: 8d 9c 5f     	sta	$5f9c                   ; 0x5f9c <spriteStatuses+0xf4>
    15c0: a8           	tay
    15c1: 9c 54 d9     	stz	$d954                   ; 0xd954 <end_block9+0x78cc>
    15c4: 9c 55 d9     	stz	$d955                   ; 0xd955 <end_block9+0x78cd>
    15c7: 9c 56 d9     	stz	$d956                   ; 0xd956 <end_block9+0x78ce>
    15ca: 9c 57 d9     	stz	$d957                   ; 0xd957 <end_block9+0x78cf>
    15cd: a6 92        	ldx	$92                     ; 0x92 <_spriteCtl+0xa>
    15cf: 8e 50 d9     	stx	$d950                   ; 0xd950 <end_block9+0x78c8>
    15d2: a6 9c        	ldx	$9c                     ; 0x9c <_spriteCtl+0x14>
    15d4: 8e a0 d9     	stx	$d9a0                   ; 0xd9a0 <end_block9+0x7918>
    15d7: a2 f0        	ldx	#$f0
    15d9: 8e 54 d9     	stx	$d954                   ; 0xd954 <end_block9+0x78cc>
    15dc: a2 ff        	ldx	#$ff
    15de: 8e 55 d9     	stx	$d955                   ; 0xd955 <end_block9+0x78cd>
    15e1: 9c 56 d9     	stz	$d956                   ; 0xd956 <end_block9+0x78ce>
    15e4: 9c 57 d9     	stz	$d957                   ; 0xd957 <end_block9+0x78cf>
    15e7: 9c 9e 5f     	stz	$5f9e                   ; 0x5f9e <spriteStatuses+0xf6>
    15ea: a2 0a        	ldx	#$a
    15ec: 8e a9 5f     	stx	$5fa9                   ; 0x5fa9 <spriteStatuses+0x101>
    15ef: a2 30        	ldx	#$30
    15f1: 8e 9f 5f     	stx	$5f9f                   ; 0x5f9f <spriteStatuses+0xf7>
    15f4: 8c a0 5f     	sty	$5fa0                   ; 0x5fa0 <spriteStatuses+0xf8>
    15f7: 9c a1 5f     	stz	$5fa1                   ; 0x5fa1 <spriteStatuses+0xf9>
    15fa: 9c 9d 5f     	stz	$5f9d                   ; 0x5f9d <spriteStatuses+0xf5>
    15fd: 9c 98 5f     	stz	$5f98                   ; 0x5f98 <spriteStatuses+0xf0>
    1600: 9c 99 5f     	stz	$5f99                   ; 0x5f99 <spriteStatuses+0xf1>
    1603: 9c 9a 5f     	stz	$5f9a                   ; 0x5f9a <spriteStatuses+0xf2>
    1606: 9c 9b 5f     	stz	$5f9b                   ; 0x5f9b <spriteStatuses+0xf3>
    1609: 9c a2 5f     	stz	$5fa2                   ; 0x5fa2 <spriteStatuses+0xfa>
    160c: 9c a3 5f     	stz	$5fa3                   ; 0x5fa3 <spriteStatuses+0xfb>
    160f: 9c a4 5f     	stz	$5fa4                   ; 0x5fa4 <spriteStatuses+0xfc>
    1612: 9c a5 5f     	stz	$5fa5                   ; 0x5fa5 <spriteStatuses+0xfd>
    1615: 9c a6 5f     	stz	$5fa6                   ; 0x5fa6 <spriteStatuses+0xfe>
    1618: 9c a7 5f     	stz	$5fa7                   ; 0x5fa7 <spriteStatuses+0xff>
    161b: 9c ab 5f     	stz	$5fab                   ; 0x5fab <spriteStatuses+0x103>
    161e: a2 00        	ldx	#$0
    1620: 1a           	inc
    1621: 20 2f 37     	jsr	$372f <malloc>
    1624: a6 12        	ldx	$12                     ; 0x12 <__rc2>
    1626: a4 13        	ldy	$13                     ; 0x13 <__rc3>
    1628: 8e ac 5f     	stx	$5fac                   ; 0x5fac <spriteStatuses+0x104>
    162b: 8c ad 5f     	sty	$5fad                   ; 0x5fad <spriteStatuses+0x105>
    162e: a2 00        	ldx	#$0
    1630: a9 02        	lda	#$2
    1632: 20 2f 37     	jsr	$372f <malloc>
    1635: a6 12        	ldx	$12                     ; 0x12 <__rc2>
    1637: a4 13        	ldy	$13                     ; 0x13 <__rc3>
    1639: 8e ae 5f     	stx	$5fae                   ; 0x5fae <spriteStatuses+0x106>
    163c: 8c af 5f     	sty	$5faf                   ; 0x5faf <spriteStatuses+0x107>
    163f: ae ac 5f     	ldx	$5fac                   ; 0x5fac <spriteStatuses+0x104>
    1642: ac ad 5f     	ldy	$5fad                   ; 0x5fad <spriteStatuses+0x105>
    1645: 86 12        	stx	$12                     ; 0x12 <__rc2>
    1647: 84 13        	sty	$13                     ; 0x13 <__rc3>
    1649: a9 00        	lda	#$0
    164b: 92 12        	sta	($12)                   ; 0x12 <__rc2>
    164d: ae ae 5f     	ldx	$5fae                   ; 0x5fae <spriteStatuses+0x106>
    1650: ac af 5f     	ldy	$5faf                   ; 0x5faf <spriteStatuses+0x107>
    1653: 86 12        	stx	$12                     ; 0x12 <__rc2>
    1655: 84 13        	sty	$13                     ; 0x13 <__rc3>
    1657: a9 03        	lda	#$3
    1659: 92 12        	sta	($12)                   ; 0x12 <__rc2>
    165b: ae ac 5f     	ldx	$5fac                   ; 0x5fac <spriteStatuses+0x104>
    165e: ac ad 5f     	ldy	$5fad                   ; 0x5fad <spriteStatuses+0x105>
    1661: 86 12        	stx	$12                     ; 0x12 <__rc2>
    1663: 84 13        	sty	$13                     ; 0x13 <__rc3>
    1665: 1a           	inc
    1666: a0 01        	ldy	#$1
    1668: 91 12        	sta	($12),y                 ; 0x12 <__rc2>
    166a: ae ae 5f     	ldx	$5fae                   ; 0x5fae <spriteStatuses+0x106>
    166d: ad af 5f     	lda	$5faf                   ; 0x5faf <spriteStatuses+0x107>
    1670: 86 12        	stx	$12                     ; 0x12 <__rc2>
    1672: 85 13        	sta	$13                     ; 0x13 <__rc3>
    1674: a9 07        	lda	#$7
    1676: 91 12        	sta	($12),y                 ; 0x12 <__rc2>
    1678: a2 40        	ldx	#$40
    167a: 86 93        	stx	$93                     ; 0x93 <_spriteCtl+0xb>
    167c: 8e 58 d9     	stx	$d958                   ; 0xd958 <end_block9+0x78d0>
    167f: 9c 59 d9     	stz	$d959                   ; 0xd959 <end_block9+0x78d1>
    1682: a0 31        	ldy	#$31
    1684: 8c 5a d9     	sty	$d95a                   ; 0xd95a <end_block9+0x78d2>
    1687: a0 01        	ldy	#$1
    1689: 8c 5b d9     	sty	$d95b                   ; 0xd95b <end_block9+0x78d3>
    168c: 86 9d        	stx	$9d                     ; 0x9d <_spriteCtl+0x15>
    168e: 8e a8 d9     	stx	$d9a8                   ; 0xd9a8 <end_block9+0x7920>
    1691: 9c a9 d9     	stz	$d9a9                   ; 0xd9a9 <end_block9+0x7921>
    1694: a2 3a        	ldx	#$3a
    1696: 8e aa d9     	stx	$d9aa                   ; 0xd9aa <end_block9+0x7922>
    1699: 8c ab d9     	sty	$d9ab                   ; 0xd9ab <end_block9+0x7923>
    169c: 8c b4 5f     	sty	$5fb4                   ; 0x5fb4 <spriteStatuses+0x10c>
    169f: 9c 5c d9     	stz	$d95c                   ; 0xd95c <end_block9+0x78d4>
    16a2: 9c 5d d9     	stz	$d95d                   ; 0xd95d <end_block9+0x78d5>
    16a5: 9c 5e d9     	stz	$d95e                   ; 0xd95e <end_block9+0x78d6>
    16a8: 9c 5f d9     	stz	$d95f                   ; 0xd95f <end_block9+0x78d7>
    16ab: a6 93        	ldx	$93                     ; 0x93 <_spriteCtl+0xb>
    16ad: 8e 58 d9     	stx	$d958                   ; 0xd958 <end_block9+0x78d0>
    16b0: a6 9d        	ldx	$9d                     ; 0x9d <_spriteCtl+0x15>
    16b2: 8e a8 d9     	stx	$d9a8                   ; 0xd9a8 <end_block9+0x7920>
    16b5: a2 f0        	ldx	#$f0
    16b7: 8e 5c d9     	stx	$d95c                   ; 0xd95c <end_block9+0x78d4>
    16ba: a2 ff        	ldx	#$ff
    16bc: 8e 5d d9     	stx	$d95d                   ; 0xd95d <end_block9+0x78d5>
    16bf: 9c 5e d9     	stz	$d95e                   ; 0xd95e <end_block9+0x78d6>
    16c2: 9c 5f d9     	stz	$d95f                   ; 0xd95f <end_block9+0x78d7>
    16c5: a2 0b        	ldx	#$b
    16c7: 8e c1 5f     	stx	$5fc1                   ; 0x5fc1 <spriteStatuses+0x119>
    16ca: 9c b6 5f     	stz	$5fb6                   ; 0x5fb6 <spriteStatuses+0x10e>
    16cd: a2 30        	ldx	#$30
    16cf: 8e b7 5f     	stx	$5fb7                   ; 0x5fb7 <spriteStatuses+0x10f>
    16d2: 8c b8 5f     	sty	$5fb8                   ; 0x5fb8 <spriteStatuses+0x110>
    16d5: 9c b9 5f     	stz	$5fb9                   ; 0x5fb9 <spriteStatuses+0x111>
    16d8: 9c b5 5f     	stz	$5fb5                   ; 0x5fb5 <spriteStatuses+0x10d>
    16db: 9c b0 5f     	stz	$5fb0                   ; 0x5fb0 <spriteStatuses+0x108>
    16de: 9c b1 5f     	stz	$5fb1                   ; 0x5fb1 <spriteStatuses+0x109>
    16e1: 9c b2 5f     	stz	$5fb2                   ; 0x5fb2 <spriteStatuses+0x10a>
    16e4: 9c b3 5f     	stz	$5fb3                   ; 0x5fb3 <spriteStatuses+0x10b>
    16e7: 9c ba 5f     	stz	$5fba                   ; 0x5fba <spriteStatuses+0x112>
    16ea: 9c bb 5f     	stz	$5fbb                   ; 0x5fbb <spriteStatuses+0x113>
    16ed: 9c bc 5f     	stz	$5fbc                   ; 0x5fbc <spriteStatuses+0x114>
    16f0: 9c bd 5f     	stz	$5fbd                   ; 0x5fbd <spriteStatuses+0x115>
    16f3: 9c be 5f     	stz	$5fbe                   ; 0x5fbe <spriteStatuses+0x116>
    16f6: 9c bf 5f     	stz	$5fbf                   ; 0x5fbf <spriteStatuses+0x117>
    16f9: 9c c3 5f     	stz	$5fc3                   ; 0x5fc3 <spriteStatuses+0x11b>
    16fc: a2 00        	ldx	#$0
    16fe: a9 02        	lda	#$2
    1700: 20 2f 37     	jsr	$372f <malloc>
    1703: a6 12        	ldx	$12                     ; 0x12 <__rc2>
    1705: a4 13        	ldy	$13                     ; 0x13 <__rc3>
    1707: 8e c4 5f     	stx	$5fc4                   ; 0x5fc4 <spriteStatuses+0x11c>
    170a: 8c c5 5f     	sty	$5fc5                   ; 0x5fc5 <spriteStatuses+0x11d>
    170d: a2 00        	ldx	#$0
    170f: a9 02        	lda	#$2
    1711: 20 2f 37     	jsr	$372f <malloc>
    1714: a6 12        	ldx	$12                     ; 0x12 <__rc2>
    1716: 8e c6 5f     	stx	$5fc6                   ; 0x5fc6 <spriteStatuses+0x11e>
    1719: a6 13        	ldx	$13                     ; 0x13 <__rc3>
    171b: 8e c7 5f     	stx	$5fc7                   ; 0x5fc7 <spriteStatuses+0x11f>
    171e: ae c4 5f     	ldx	$5fc4                   ; 0x5fc4 <spriteStatuses+0x11c>
    1721: 86 12        	stx	$12                     ; 0x12 <__rc2>
    1723: ae c5 5f     	ldx	$5fc5                   ; 0x5fc5 <spriteStatuses+0x11d>
    1726: 86 13        	stx	$13                     ; 0x13 <__rc3>
    1728: a9 00        	lda	#$0
    172a: 92 12        	sta	($12)                   ; 0x12 <__rc2>
    172c: ae c6 5f     	ldx	$5fc6                   ; 0x5fc6 <spriteStatuses+0x11e>
    172f: 86 12        	stx	$12                     ; 0x12 <__rc2>
    1731: ae c7 5f     	ldx	$5fc7                   ; 0x5fc7 <spriteStatuses+0x11f>
    1734: 86 13        	stx	$13                     ; 0x13 <__rc3>
    1736: a9 03        	lda	#$3
    1738: 92 12        	sta	($12)                   ; 0x12 <__rc2>
    173a: ae c4 5f     	ldx	$5fc4                   ; 0x5fc4 <spriteStatuses+0x11c>
    173d: 86 12        	stx	$12                     ; 0x12 <__rc2>
    173f: ae c5 5f     	ldx	$5fc5                   ; 0x5fc5 <spriteStatuses+0x11d>
    1742: 86 13        	stx	$13                     ; 0x13 <__rc3>
    1744: 1a           	inc
    1745: a0 01        	ldy	#$1
    1747: 91 12        	sta	($12),y                 ; 0x12 <__rc2>
    1749: ae c6 5f     	ldx	$5fc6                   ; 0x5fc6 <spriteStatuses+0x11e>
    174c: 86 12        	stx	$12                     ; 0x12 <__rc2>
    174e: ae c7 5f     	ldx	$5fc7                   ; 0x5fc7 <spriteStatuses+0x11f>
    1751: 86 13        	stx	$13                     ; 0x13 <__rc3>
    1753: a9 07        	lda	#$7
    1755: 91 12        	sta	($12),y                 ; 0x12 <__rc2>
    1757: a0 40        	ldy	#$40
    1759: 84 94        	sty	$94                     ; 0x94 <_spriteCtl+0xc>
    175b: 8c 60 d9     	sty	$d960                   ; 0xd960 <end_block9+0x78d8>
    175e: 9c 61 d9     	stz	$d961                   ; 0xd961 <end_block9+0x78d9>
    1761: a2 31        	ldx	#$31
    1763: 8e 62 d9     	stx	$d962                   ; 0xd962 <end_block9+0x78da>
    1766: a2 01        	ldx	#$1
    1768: 8e 63 d9     	stx	$d963                   ; 0xd963 <end_block9+0x78db>
    176b: 84 9e        	sty	$9e                     ; 0x9e <_spriteCtl+0x16>
    176d: 8c b0 d9     	sty	$d9b0                   ; 0xd9b0 <end_block9+0x7928>
    1770: 9c b1 d9     	stz	$d9b1                   ; 0xd9b1 <end_block9+0x7929>
    1773: a0 3a        	ldy	#$3a
    1775: 8c b2 d9     	sty	$d9b2                   ; 0xd9b2 <end_block9+0x792a>
    1778: 8e b3 d9     	stx	$d9b3                   ; 0xd9b3 <end_block9+0x792b>
    177b: 8e cc 5f     	stx	$5fcc                   ; 0x5fcc <spriteStatuses+0x124>
    177e: a0 01        	ldy	#$1
    1780: 9c 64 d9     	stz	$d964                   ; 0xd964 <end_block9+0x78dc>
    1783: 9c 65 d9     	stz	$d965                   ; 0xd965 <end_block9+0x78dd>
    1786: 9c 66 d9     	stz	$d966                   ; 0xd966 <end_block9+0x78de>
    1789: 9c 67 d9     	stz	$d967                   ; 0xd967 <end_block9+0x78df>
    178c: a6 94        	ldx	$94                     ; 0x94 <_spriteCtl+0xc>
    178e: 8e 60 d9     	stx	$d960                   ; 0xd960 <end_block9+0x78d8>
    1791: a6 9e        	ldx	$9e                     ; 0x9e <_spriteCtl+0x16>
    1793: 8e b0 d9     	stx	$d9b0                   ; 0xd9b0 <end_block9+0x7928>
    1796: a2 f0        	ldx	#$f0
    1798: 8e 64 d9     	stx	$d964                   ; 0xd964 <end_block9+0x78dc>
    179b: a2 ff        	ldx	#$ff
    179d: 8e 65 d9     	stx	$d965                   ; 0xd965 <end_block9+0x78dd>
    17a0: 9c 66 d9     	stz	$d966                   ; 0xd966 <end_block9+0x78de>
    17a3: 9c 67 d9     	stz	$d967                   ; 0xd967 <end_block9+0x78df>
    17a6: a2 0c        	ldx	#$c
    17a8: 8e d9 5f     	stx	$5fd9                   ; 0x5fd9 <spriteStatuses+0x131>
    17ab: 9c ce 5f     	stz	$5fce                   ; 0x5fce <spriteStatuses+0x126>
    17ae: a2 30        	ldx	#$30
    17b0: 8e cf 5f     	stx	$5fcf                   ; 0x5fcf <spriteStatuses+0x127>
    17b3: 8c d0 5f     	sty	$5fd0                   ; 0x5fd0 <spriteStatuses+0x128>
    17b6: 9c d1 5f     	stz	$5fd1                   ; 0x5fd1 <spriteStatuses+0x129>
    17b9: 9c cd 5f     	stz	$5fcd                   ; 0x5fcd <spriteStatuses+0x125>
    17bc: 9c c8 5f     	stz	$5fc8                   ; 0x5fc8 <spriteStatuses+0x120>
    17bf: 9c c9 5f     	stz	$5fc9                   ; 0x5fc9 <spriteStatuses+0x121>
    17c2: 9c ca 5f     	stz	$5fca                   ; 0x5fca <spriteStatuses+0x122>
    17c5: 9c cb 5f     	stz	$5fcb                   ; 0x5fcb <spriteStatuses+0x123>
    17c8: 9c d2 5f     	stz	$5fd2                   ; 0x5fd2 <spriteStatuses+0x12a>
    17cb: 9c d3 5f     	stz	$5fd3                   ; 0x5fd3 <spriteStatuses+0x12b>
    17ce: 9c d4 5f     	stz	$5fd4                   ; 0x5fd4 <spriteStatuses+0x12c>
    17d1: 9c d5 5f     	stz	$5fd5                   ; 0x5fd5 <spriteStatuses+0x12d>
    17d4: 9c d6 5f     	stz	$5fd6                   ; 0x5fd6 <spriteStatuses+0x12e>
    17d7: 9c d7 5f     	stz	$5fd7                   ; 0x5fd7 <spriteStatuses+0x12f>
    17da: 9c db 5f     	stz	$5fdb                   ; 0x5fdb <spriteStatuses+0x133>
    17dd: a2 00        	ldx	#$0
    17df: a9 02        	lda	#$2
    17e1: 20 2f 37     	jsr	$372f <malloc>
    17e4: a6 12        	ldx	$12                     ; 0x12 <__rc2>
    17e6: a4 13        	ldy	$13                     ; 0x13 <__rc3>
    17e8: 8e dc 5f     	stx	$5fdc                   ; 0x5fdc <spriteStatuses+0x134>
    17eb: 8c dd 5f     	sty	$5fdd                   ; 0x5fdd <spriteStatuses+0x135>
    17ee: a2 00        	ldx	#$0
    17f0: a9 02        	lda	#$2
    17f2: 20 2f 37     	jsr	$372f <malloc>
    17f5: a6 12        	ldx	$12                     ; 0x12 <__rc2>
    17f7: 8e de 5f     	stx	$5fde                   ; 0x5fde <spriteStatuses+0x136>
    17fa: a6 13        	ldx	$13                     ; 0x13 <__rc3>
    17fc: 8e df 5f     	stx	$5fdf                   ; 0x5fdf <spriteStatuses+0x137>
    17ff: ae dc 5f     	ldx	$5fdc                   ; 0x5fdc <spriteStatuses+0x134>
    1802: 86 12        	stx	$12                     ; 0x12 <__rc2>
    1804: ae dd 5f     	ldx	$5fdd                   ; 0x5fdd <spriteStatuses+0x135>
    1807: 86 13        	stx	$13                     ; 0x13 <__rc3>
    1809: a9 00        	lda	#$0
    180b: 92 12        	sta	($12)                   ; 0x12 <__rc2>
    180d: ae de 5f     	ldx	$5fde                   ; 0x5fde <spriteStatuses+0x136>
    1810: 86 12        	stx	$12                     ; 0x12 <__rc2>
    1812: ae df 5f     	ldx	$5fdf                   ; 0x5fdf <spriteStatuses+0x137>
    1815: 86 13        	stx	$13                     ; 0x13 <__rc3>
    1817: a9 03        	lda	#$3
    1819: 92 12        	sta	($12)                   ; 0x12 <__rc2>
    181b: ae dc 5f     	ldx	$5fdc                   ; 0x5fdc <spriteStatuses+0x134>
    181e: 86 12        	stx	$12                     ; 0x12 <__rc2>
    1820: ae dd 5f     	ldx	$5fdd                   ; 0x5fdd <spriteStatuses+0x135>
    1823: 86 13        	stx	$13                     ; 0x13 <__rc3>
    1825: 1a           	inc
    1826: a0 01        	ldy	#$1
    1828: 91 12        	sta	($12),y                 ; 0x12 <__rc2>
    182a: ae de 5f     	ldx	$5fde                   ; 0x5fde <spriteStatuses+0x136>
    182d: 86 12        	stx	$12                     ; 0x12 <__rc2>
    182f: ae df 5f     	ldx	$5fdf                   ; 0x5fdf <spriteStatuses+0x137>
    1832: 86 13        	stx	$13                     ; 0x13 <__rc3>
    1834: a9 07        	lda	#$7
    1836: 91 12        	sta	($12),y                 ; 0x12 <__rc2>
    1838: a2 40        	ldx	#$40
    183a: 86 95        	stx	$95                     ; 0x95 <_spriteCtl+0xd>
    183c: 8e 68 d9     	stx	$d968                   ; 0xd968 <end_block9+0x78e0>
    183f: 9c 69 d9     	stz	$d969                   ; 0xd969 <end_block9+0x78e1>
    1842: a0 31        	ldy	#$31
    1844: 8c 6a d9     	sty	$d96a                   ; 0xd96a <end_block9+0x78e2>
    1847: a0 01        	ldy	#$1
    1849: 8c 6b d9     	sty	$d96b                   ; 0xd96b <end_block9+0x78e3>
    184c: 86 9f        	stx	$9f                     ; 0x9f <_spriteCtl+0x17>
    184e: 8e b8 d9     	stx	$d9b8                   ; 0xd9b8 <end_block9+0x7930>
    1851: 9c b9 d9     	stz	$d9b9                   ; 0xd9b9 <end_block9+0x7931>
    1854: a2 3a        	ldx	#$3a
    1856: 8e ba d9     	stx	$d9ba                   ; 0xd9ba <end_block9+0x7932>
    1859: 8c bb d9     	sty	$d9bb                   ; 0xd9bb <end_block9+0x7933>
    185c: 8c e4 5f     	sty	$5fe4                   ; 0x5fe4 <spriteStatuses+0x13c>
    185f: 9c 6c d9     	stz	$d96c                   ; 0xd96c <end_block9+0x78e4>
    1862: 9c 6d d9     	stz	$d96d                   ; 0xd96d <end_block9+0x78e5>
    1865: 9c 6e d9     	stz	$d96e                   ; 0xd96e <end_block9+0x78e6>
    1868: 9c 6f d9     	stz	$d96f                   ; 0xd96f <end_block9+0x78e7>
    186b: a6 95        	ldx	$95                     ; 0x95 <_spriteCtl+0xd>
    186d: 8e 68 d9     	stx	$d968                   ; 0xd968 <end_block9+0x78e0>
    1870: a6 9f        	ldx	$9f                     ; 0x9f <_spriteCtl+0x17>
    1872: 8e b8 d9     	stx	$d9b8                   ; 0xd9b8 <end_block9+0x7930>
    1875: a2 f0        	ldx	#$f0
    1877: 8e 6c d9     	stx	$d96c                   ; 0xd96c <end_block9+0x78e4>
    187a: a2 ff        	ldx	#$ff
    187c: 8e 6d d9     	stx	$d96d                   ; 0xd96d <end_block9+0x78e5>
    187f: 9c 6e d9     	stz	$d96e                   ; 0xd96e <end_block9+0x78e6>
    1882: 9c 6f d9     	stz	$d96f                   ; 0xd96f <end_block9+0x78e7>
    1885: a2 0d        	ldx	#$d
    1887: 8e f1 5f     	stx	$5ff1                   ; 0x5ff1 <spriteStatuses+0x149>
    188a: 9c e6 5f     	stz	$5fe6                   ; 0x5fe6 <spriteStatuses+0x13e>
    188d: a2 30        	ldx	#$30
    188f: 8e e7 5f     	stx	$5fe7                   ; 0x5fe7 <spriteStatuses+0x13f>
    1892: 8c e8 5f     	sty	$5fe8                   ; 0x5fe8 <spriteStatuses+0x140>
    1895: 9c e9 5f     	stz	$5fe9                   ; 0x5fe9 <spriteStatuses+0x141>
    1898: 9c e5 5f     	stz	$5fe5                   ; 0x5fe5 <spriteStatuses+0x13d>
    189b: 9c e0 5f     	stz	$5fe0                   ; 0x5fe0 <spriteStatuses+0x138>
    189e: 9c e1 5f     	stz	$5fe1                   ; 0x5fe1 <spriteStatuses+0x139>
    18a1: 9c e2 5f     	stz	$5fe2                   ; 0x5fe2 <spriteStatuses+0x13a>
    18a4: 9c e3 5f     	stz	$5fe3                   ; 0x5fe3 <spriteStatuses+0x13b>
    18a7: 9c ea 5f     	stz	$5fea                   ; 0x5fea <spriteStatuses+0x142>
    18aa: 9c eb 5f     	stz	$5feb                   ; 0x5feb <spriteStatuses+0x143>
    18ad: 9c ec 5f     	stz	$5fec                   ; 0x5fec <spriteStatuses+0x144>
    18b0: 9c ed 5f     	stz	$5fed                   ; 0x5fed <spriteStatuses+0x145>
    18b3: 9c ee 5f     	stz	$5fee                   ; 0x5fee <spriteStatuses+0x146>
    18b6: 9c ef 5f     	stz	$5fef                   ; 0x5fef <spriteStatuses+0x147>
    18b9: 9c f3 5f     	stz	$5ff3                   ; 0x5ff3 <spriteStatuses+0x14b>
    18bc: a2 00        	ldx	#$0
    18be: a9 02        	lda	#$2
    18c0: 20 2f 37     	jsr	$372f <malloc>
    18c3: a6 12        	ldx	$12                     ; 0x12 <__rc2>
    18c5: a4 13        	ldy	$13                     ; 0x13 <__rc3>
    18c7: 8e f4 5f     	stx	$5ff4                   ; 0x5ff4 <spriteStatuses+0x14c>
    18ca: 8c f5 5f     	sty	$5ff5                   ; 0x5ff5 <spriteStatuses+0x14d>
    18cd: a2 00        	ldx	#$0
    18cf: a9 02        	lda	#$2
    18d1: 20 2f 37     	jsr	$372f <malloc>
    18d4: a6 12        	ldx	$12                     ; 0x12 <__rc2>
    18d6: 8e f6 5f     	stx	$5ff6                   ; 0x5ff6 <spriteStatuses+0x14e>
    18d9: a6 13        	ldx	$13                     ; 0x13 <__rc3>
    18db: 8e f7 5f     	stx	$5ff7                   ; 0x5ff7 <spriteStatuses+0x14f>
    18de: ae f4 5f     	ldx	$5ff4                   ; 0x5ff4 <spriteStatuses+0x14c>
    18e1: 86 12        	stx	$12                     ; 0x12 <__rc2>
    18e3: ae f5 5f     	ldx	$5ff5                   ; 0x5ff5 <spriteStatuses+0x14d>
    18e6: 86 13        	stx	$13                     ; 0x13 <__rc3>
    18e8: a9 00        	lda	#$0
    18ea: 92 12        	sta	($12)                   ; 0x12 <__rc2>
    18ec: ae f6 5f     	ldx	$5ff6                   ; 0x5ff6 <spriteStatuses+0x14e>
    18ef: 86 12        	stx	$12                     ; 0x12 <__rc2>
    18f1: ae f7 5f     	ldx	$5ff7                   ; 0x5ff7 <spriteStatuses+0x14f>
    18f4: 86 13        	stx	$13                     ; 0x13 <__rc3>
    18f6: a9 03        	lda	#$3
    18f8: 92 12        	sta	($12)                   ; 0x12 <__rc2>
    18fa: ae f4 5f     	ldx	$5ff4                   ; 0x5ff4 <spriteStatuses+0x14c>
    18fd: 86 12        	stx	$12                     ; 0x12 <__rc2>
    18ff: ae f5 5f     	ldx	$5ff5                   ; 0x5ff5 <spriteStatuses+0x14d>
    1902: 86 13        	stx	$13                     ; 0x13 <__rc3>
    1904: 1a           	inc
    1905: a0 01        	ldy	#$1
    1907: 91 12        	sta	($12),y                 ; 0x12 <__rc2>
    1909: ae f6 5f     	ldx	$5ff6                   ; 0x5ff6 <spriteStatuses+0x14e>
    190c: 86 12        	stx	$12                     ; 0x12 <__rc2>
    190e: ae f7 5f     	ldx	$5ff7                   ; 0x5ff7 <spriteStatuses+0x14f>
    1911: 86 13        	stx	$13                     ; 0x13 <__rc3>
    1913: a9 07        	lda	#$7
    1915: 91 12        	sta	($12),y                 ; 0x12 <__rc2>
    1917: a0 40        	ldy	#$40
    1919: 84 96        	sty	$96                     ; 0x96 <_spriteCtl+0xe>
    191b: 8c 70 d9     	sty	$d970                   ; 0xd970 <end_block9+0x78e8>
    191e: 9c 71 d9     	stz	$d971                   ; 0xd971 <end_block9+0x78e9>
    1921: a2 31        	ldx	#$31
    1923: 8e 72 d9     	stx	$d972                   ; 0xd972 <end_block9+0x78ea>
    1926: a2 01        	ldx	#$1
    1928: 8e 73 d9     	stx	$d973                   ; 0xd973 <end_block9+0x78eb>
    192b: 84 a0        	sty	$a0                     ; 0xa0 <_spriteCtl+0x18>
    192d: 8c c0 d9     	sty	$d9c0                   ; 0xd9c0 <end_block9+0x7938>
    1930: 9c c1 d9     	stz	$d9c1                   ; 0xd9c1 <end_block9+0x7939>
    1933: a0 3a        	ldy	#$3a
    1935: 8c c2 d9     	sty	$d9c2                   ; 0xd9c2 <end_block9+0x793a>
    1938: 8e c3 d9     	stx	$d9c3                   ; 0xd9c3 <end_block9+0x793b>
    193b: 8e fc 5f     	stx	$5ffc                   ; 0x5ffc <spriteStatuses+0x154>
    193e: a0 01        	ldy	#$1
    1940: 9c 74 d9     	stz	$d974                   ; 0xd974 <end_block9+0x78ec>
    1943: 9c 75 d9     	stz	$d975                   ; 0xd975 <end_block9+0x78ed>
    1946: 9c 76 d9     	stz	$d976                   ; 0xd976 <end_block9+0x78ee>
    1949: 9c 77 d9     	stz	$d977                   ; 0xd977 <end_block9+0x78ef>
    194c: a6 96        	ldx	$96                     ; 0x96 <_spriteCtl+0xe>
    194e: 8e 70 d9     	stx	$d970                   ; 0xd970 <end_block9+0x78e8>
    1951: a6 a0        	ldx	$a0                     ; 0xa0 <_spriteCtl+0x18>
    1953: 8e c0 d9     	stx	$d9c0                   ; 0xd9c0 <end_block9+0x7938>
    1956: a2 f0        	ldx	#$f0
    1958: 8e 74 d9     	stx	$d974                   ; 0xd974 <end_block9+0x78ec>
    195b: a2 ff        	ldx	#$ff
    195d: 8e 75 d9     	stx	$d975                   ; 0xd975 <end_block9+0x78ed>
    1960: 9c 76 d9     	stz	$d976                   ; 0xd976 <end_block9+0x78ee>
    1963: 9c 77 d9     	stz	$d977                   ; 0xd977 <end_block9+0x78ef>
    1966: a2 30        	ldx	#$30
    1968: 8e ff 5f     	stx	$5fff                   ; 0x5fff <spriteStatuses+0x157>
    196b: a2 0e        	ldx	#$e
    196d: 8e 09 60     	stx	$6009                   ; 0x6009 <spriteStatuses+0x161>
    1970: 9c fe 5f     	stz	$5ffe                   ; 0x5ffe <spriteStatuses+0x156>
    1973: 8c 00 60     	sty	$6000                   ; 0x6000 <spriteStatuses+0x158>
    1976: 9c 01 60     	stz	$6001                   ; 0x6001 <spriteStatuses+0x159>
    1979: 9c fd 5f     	stz	$5ffd                   ; 0x5ffd <spriteStatuses+0x155>
    197c: 9c f8 5f     	stz	$5ff8                   ; 0x5ff8 <spriteStatuses+0x150>
    197f: 9c f9 5f     	stz	$5ff9                   ; 0x5ff9 <spriteStatuses+0x151>
    1982: 9c fa 5f     	stz	$5ffa                   ; 0x5ffa <spriteStatuses+0x152>
    1985: 9c fb 5f     	stz	$5ffb                   ; 0x5ffb <spriteStatuses+0x153>
    1988: 9c 02 60     	stz	$6002                   ; 0x6002 <spriteStatuses+0x15a>
    198b: 9c 03 60     	stz	$6003                   ; 0x6003 <spriteStatuses+0x15b>
    198e: 9c 04 60     	stz	$6004                   ; 0x6004 <spriteStatuses+0x15c>
    1991: 9c 05 60     	stz	$6005                   ; 0x6005 <spriteStatuses+0x15d>
    1994: 9c 06 60     	stz	$6006                   ; 0x6006 <spriteStatuses+0x15e>
    1997: 9c 07 60     	stz	$6007                   ; 0x6007 <spriteStatuses+0x15f>
    199a: 9c 0b 60     	stz	$600b                   ; 0x600b <spriteStatuses+0x163>
    199d: a2 00        	ldx	#$0
    199f: a9 02        	lda	#$2
    19a1: 20 2f 37     	jsr	$372f <malloc>
    19a4: a6 12        	ldx	$12                     ; 0x12 <__rc2>
    19a6: a4 13        	ldy	$13                     ; 0x13 <__rc3>
    19a8: 8e 0c 60     	stx	$600c                   ; 0x600c <spriteStatuses+0x164>
    19ab: 8c 0d 60     	sty	$600d                   ; 0x600d <spriteStatuses+0x165>
    19ae: a2 00        	ldx	#$0
    19b0: a9 02        	lda	#$2
    19b2: 20 2f 37     	jsr	$372f <malloc>
    19b5: a6 12        	ldx	$12                     ; 0x12 <__rc2>
    19b7: 8e 0e 60     	stx	$600e                   ; 0x600e <spriteStatuses+0x166>
    19ba: a6 13        	ldx	$13                     ; 0x13 <__rc3>
    19bc: 8e 0f 60     	stx	$600f                   ; 0x600f <spriteStatuses+0x167>
    19bf: ae 0c 60     	ldx	$600c                   ; 0x600c <spriteStatuses+0x164>
    19c2: 86 12        	stx	$12                     ; 0x12 <__rc2>
    19c4: ae 0d 60     	ldx	$600d                   ; 0x600d <spriteStatuses+0x165>
    19c7: 86 13        	stx	$13                     ; 0x13 <__rc3>
    19c9: a9 00        	lda	#$0
    19cb: 92 12        	sta	($12)                   ; 0x12 <__rc2>
    19cd: ae 0e 60     	ldx	$600e                   ; 0x600e <spriteStatuses+0x166>
    19d0: 86 12        	stx	$12                     ; 0x12 <__rc2>
    19d2: ae 0f 60     	ldx	$600f                   ; 0x600f <spriteStatuses+0x167>
    19d5: 86 13        	stx	$13                     ; 0x13 <__rc3>
    19d7: a9 03        	lda	#$3
    19d9: 92 12        	sta	($12)                   ; 0x12 <__rc2>
    19db: ae 0c 60     	ldx	$600c                   ; 0x600c <spriteStatuses+0x164>
    19de: 86 12        	stx	$12                     ; 0x12 <__rc2>
    19e0: ae 0d 60     	ldx	$600d                   ; 0x600d <spriteStatuses+0x165>
    19e3: 86 13        	stx	$13                     ; 0x13 <__rc3>
    19e5: 1a           	inc
    19e6: a0 01        	ldy	#$1
    19e8: 91 12        	sta	($12),y                 ; 0x12 <__rc2>
    19ea: ae 0e 60     	ldx	$600e                   ; 0x600e <spriteStatuses+0x166>
    19ed: 86 12        	stx	$12                     ; 0x12 <__rc2>
    19ef: ae 0f 60     	ldx	$600f                   ; 0x600f <spriteStatuses+0x167>
    19f2: 86 13        	stx	$13                     ; 0x13 <__rc3>
    19f4: a9 07        	lda	#$7
    19f6: 91 12        	sta	($12),y                 ; 0x12 <__rc2>
    19f8: a2 01        	ldx	#$1
    19fa: 8e ac 5e     	stx	$5eac                   ; 0x5eac <spriteStatuses+0x4>
    19fd: 8e d3 5e     	stx	$5ed3                   ; 0x5ed3 <spriteStatuses+0x2b>
    1a00: 8e dc 5e     	stx	$5edc                   ; 0x5edc <spriteStatuses+0x34>
    1a03: 8e 03 5f     	stx	$5f03                   ; 0x5f03 <spriteStatuses+0x5b>
    1a06: 8e 0c 5f     	stx	$5f0c                   ; 0x5f0c <spriteStatuses+0x64>
    1a09: 9c bb 5e     	stz	$5ebb                   ; 0x5ebb <spriteStatuses+0x13>
    1a0c: 9c c4 5e     	stz	$5ec4                   ; 0x5ec4 <spriteStatuses+0x1c>
    1a0f: 9c eb 5e     	stz	$5eeb                   ; 0x5eeb <spriteStatuses+0x43>
    1a12: 9c f4 5e     	stz	$5ef4                   ; 0x5ef4 <spriteStatuses+0x4c>
    1a15: 9c 1b 5f     	stz	$5f1b                   ; 0x5f1b <spriteStatuses+0x73>
    1a18: 20 75 20     	jsr	$2075 <updateFrames>
    1a1b: 64 d0        	stz	$d0                     ; 0xd0 <padTimer>
    1a1d: a2 63        	ldx	#$63
    1a1f: 86 d2        	stx	$d2                     ; 0xd2 <padTimer+0x2>
    1a21: 20 bc 24     	jsr	$24bc <openAllCODEC>
    1a24: 20 27 25     	jsr	$2527 <boostVSClock>
    1a27: 4c 45 25     	jmp	$2545 <initBigPatch>

00001a2a <checkPads>:
    1a2a: 48           	pha
    1a2b: 18           	clc
    1a2c: a5 10        	lda	$10                     ; 0x10 <__rc0>
    1a2e: 69 e7        	adc	#$e7
    1a30: 85 10        	sta	$10                     ; 0x10 <__rc0>
    1a32: a5 11        	lda	$11                     ; 0x11 <__rc1>
    1a34: 69 ff        	adc	#$ff
    1a36: 85 11        	sta	$11                     ; 0x11 <__rc1>
    1a38: 68           	pla
    1a39: a4 24        	ldy	$24                     ; 0x24 <__rc20>
    1a3b: 5a           	phy
    1a3c: a4 25        	ldy	$25                     ; 0x25 <__rc21>
    1a3e: 5a           	phy
    1a3f: a4 26        	ldy	$26                     ; 0x26 <__rc22>
    1a41: 5a           	phy
    1a42: a4 27        	ldy	$27                     ; 0x27 <__rc23>
    1a44: 5a           	phy
    1a45: 48           	pha
    1a46: a5 28        	lda	$28                     ; 0x28 <__rc24>
    1a48: a0 10        	ldy	#$10
    1a4a: 91 10        	sta	($10),y                 ; 0x10 <__rc0>
    1a4c: a5 29        	lda	$29                     ; 0x29 <__rc25>
    1a4e: 88           	dey
    1a4f: 91 10        	sta	($10),y                 ; 0x10 <__rc0>
    1a51: a5 2a        	lda	$2a                     ; 0x2a <__rc26>
    1a53: 88           	dey
    1a54: 91 10        	sta	($10),y                 ; 0x10 <__rc0>
    1a56: a5 2b        	lda	$2b                     ; 0x2b <__rc27>
    1a58: 88           	dey
    1a59: 91 10        	sta	($10),y                 ; 0x10 <__rc0>
    1a5b: a5 2c        	lda	$2c                     ; 0x2c <__rc28>
    1a5d: 88           	dey
    1a5e: 91 10        	sta	($10),y                 ; 0x10 <__rc0>
    1a60: a5 2d        	lda	$2d                     ; 0x2d <__rc29>
    1a62: 88           	dey
    1a63: 91 10        	sta	($10),y                 ; 0x10 <__rc0>
    1a65: a5 2e        	lda	$2e                     ; 0x2e <__rc30>
    1a67: 88           	dey
    1a68: 91 10        	sta	($10),y                 ; 0x10 <__rc0>
    1a6a: 68           	pla
    1a6b: 85 14        	sta	$14                     ; 0x14 <__rc4>
    1a6d: 8a           	txa
    1a6e: a6 14        	ldx	$14                     ; 0x14 <__rc4>
    1a70: 86 2e        	stx	$2e                     ; 0x2e <__rc30>
    1a72: 06 14        	asl	$14                     ; 0x14 <__rc4>
    1a74: a2 01        	ldx	#$1
    1a76: b0 02        	bcs	$1a7a <checkPads+0x50>
    1a78: a2 00        	ldx	#$0
    1a7a: 86 1a        	stx	$1a                     ; 0x1a <__rc10>
    1a7c: 64 13        	stz	$13                     ; 0x13 <__rc3>
    1a7e: 26 13        	rol	$13                     ; 0x13 <__rc3>
    1a80: a2 d8        	ldx	#$d8
    1a82: 85 1b        	sta	$1b                     ; 0x1b <__rc11>
    1a84: c9 01        	cmp	#$1
    1a86: d0 06        	bne	$1a8e <checkPads+0x64>
    1a88: 86 12        	stx	$12                     ; 0x12 <__rc2>
    1a8a: a0 84        	ldy	#$84
    1a8c: 80 04        	bra	$1a92 <checkPads+0x68>
    1a8e: a0 7c        	ldy	#$7c
    1a90: 86 12        	stx	$12                     ; 0x12 <__rc2>
    1a92: 18           	clc
    1a93: 98           	tya
    1a94: 65 14        	adc	$14                     ; 0x14 <__rc4>
    1a96: aa           	tax
    1a97: a5 13        	lda	$13                     ; 0x13 <__rc3>
    1a99: 65 12        	adc	$12                     ; 0x12 <__rc2>
    1a9b: 86 12        	stx	$12                     ; 0x12 <__rc2>
    1a9d: 85 13        	sta	$13                     ; 0x13 <__rc3>
    1a9f: b2 12        	lda	($12)                   ; 0x12 <__rc2>
    1aa1: 29 02        	and	#$2
    1aa3: f0 03        	beq	$1aa8 <checkPads+0x7e>
    1aa5: 4c 02 1b     	jmp	$1b02 <checkPads+0xd8>
    1aa8: a9 00        	lda	#$0
    1aaa: a6 1a        	ldx	$1a                     ; 0x1a <__rc10>
    1aac: e0 01        	cpx	#$1
    1aae: 2a           	rol
    1aaf: a6 14        	ldx	$14                     ; 0x14 <__rc4>
    1ab1: 86 15        	stx	$15                     ; 0x15 <__rc5>
    1ab3: 06 15        	asl	$15                     ; 0x15 <__rc5>
    1ab5: 2a           	rol
    1ab6: 06 15        	asl	$15                     ; 0x15 <__rc5>
    1ab8: 2a           	rol
    1ab9: 85 16        	sta	$16                     ; 0x16 <__rc6>
    1abb: a5 15        	lda	$15                     ; 0x15 <__rc5>
    1abd: 0a           	asl
    1abe: a6 16        	ldx	$16                     ; 0x16 <__rc6>
    1ac0: 86 17        	stx	$17                     ; 0x17 <__rc7>
    1ac2: 26 17        	rol	$17                     ; 0x17 <__rc7>
    1ac4: 18           	clc
    1ac5: 65 15        	adc	$15                     ; 0x15 <__rc5>
    1ac7: 85 15        	sta	$15                     ; 0x15 <__rc5>
    1ac9: a5 17        	lda	$17                     ; 0x17 <__rc7>
    1acb: 65 16        	adc	$16                     ; 0x16 <__rc6>
    1acd: 85 16        	sta	$16                     ; 0x16 <__rc6>
    1acf: a9 a8        	lda	#$a8
    1ad1: 18           	clc
    1ad2: 65 15        	adc	$15                     ; 0x15 <__rc5>
    1ad4: aa           	tax
    1ad5: a9 5e        	lda	#$5e
    1ad7: 65 16        	adc	$16                     ; 0x16 <__rc6>
    1ad9: a8           	tay
    1ada: 8a           	txa
    1adb: 86 16        	stx	$16                     ; 0x16 <__rc6>
    1add: 84 17        	sty	$17                     ; 0x17 <__rc7>
    1adf: 18           	clc
    1ae0: 69 0b        	adc	#$b
    1ae2: 85 18        	sta	$18                     ; 0x18 <__rc8>
    1ae4: 98           	tya
    1ae5: 69 00        	adc	#$0
    1ae7: 85 19        	sta	$19                     ; 0x19 <__rc9>
    1ae9: a0 0b        	ldy	#$b
    1aeb: a9 ff        	lda	#$ff
    1aed: 91 16        	sta	($16),y                 ; 0x16 <__rc6>
    1aef: a0 01        	ldy	#$1
    1af1: 91 18        	sta	($18),y                 ; 0x18 <__rc8>
    1af3: a0 13        	ldy	#$13
    1af5: a9 03        	lda	#$3
    1af7: 91 16        	sta	($16),y                 ; 0x16 <__rc6>
    1af9: a9 00        	lda	#$0
    1afb: a0 04        	ldy	#$4
    1afd: 91 16        	sta	($16),y                 ; 0x16 <__rc6>
    1aff: 4c 8f 1b     	jmp	$1b8f <checkPads+0x165>
    1b02: b2 12        	lda	($12)                   ; 0x12 <__rc2>
    1b04: 29 01        	and	#$1
    1b06: a8           	tay
    1b07: a9 00        	lda	#$0
    1b09: a6 1a        	ldx	$1a                     ; 0x1a <__rc10>
    1b0b: e0 01        	cpx	#$1
    1b0d: 2a           	rol
    1b0e: a6 14        	ldx	$14                     ; 0x14 <__rc4>
    1b10: 86 15        	stx	$15                     ; 0x15 <__rc5>
    1b12: 06 15        	asl	$15                     ; 0x15 <__rc5>
    1b14: 2a           	rol
    1b15: 06 15        	asl	$15                     ; 0x15 <__rc5>
    1b17: 2a           	rol
    1b18: 85 16        	sta	$16                     ; 0x16 <__rc6>
    1b1a: a5 15        	lda	$15                     ; 0x15 <__rc5>
    1b1c: 0a           	asl
    1b1d: a6 16        	ldx	$16                     ; 0x16 <__rc6>
    1b1f: 86 17        	stx	$17                     ; 0x17 <__rc7>
    1b21: 26 17        	rol	$17                     ; 0x17 <__rc7>
    1b23: 18           	clc
    1b24: 65 15        	adc	$15                     ; 0x15 <__rc5>
    1b26: 85 15        	sta	$15                     ; 0x15 <__rc5>
    1b28: a5 17        	lda	$17                     ; 0x17 <__rc7>
    1b2a: 65 16        	adc	$16                     ; 0x16 <__rc6>
    1b2c: 85 16        	sta	$16                     ; 0x16 <__rc6>
    1b2e: 18           	clc
    1b2f: a9 a8        	lda	#$a8
    1b31: 65 15        	adc	$15                     ; 0x15 <__rc5>
    1b33: aa           	tax
    1b34: a9 5e        	lda	#$5e
    1b36: 65 16        	adc	$16                     ; 0x16 <__rc6>
    1b38: 86 16        	stx	$16                     ; 0x16 <__rc6>
    1b3a: 85 15        	sta	$15                     ; 0x15 <__rc5>
    1b3c: 85 17        	sta	$17                     ; 0x17 <__rc7>
    1b3e: 98           	tya
    1b3f: d0 23        	bne	$1b64 <checkPads+0x13a>
    1b41: a0 0b        	ldy	#$b
    1b43: 18           	clc
    1b44: 8a           	txa
    1b45: 69 0b        	adc	#$b
    1b47: 85 18        	sta	$18                     ; 0x18 <__rc8>
    1b49: a5 15        	lda	$15                     ; 0x15 <__rc5>
    1b4b: 69 00        	adc	#$0
    1b4d: 85 19        	sta	$19                     ; 0x19 <__rc9>
    1b4f: a9 01        	lda	#$1
    1b51: 91 16        	sta	($16),y                 ; 0x16 <__rc6>
    1b53: a8           	tay
    1b54: 3a           	dec
    1b55: 91 18        	sta	($18),y                 ; 0x18 <__rc8>
    1b57: a0 13        	ldy	#$13
    1b59: a9 02        	lda	#$2
    1b5b: 91 16        	sta	($16),y                 ; 0x16 <__rc6>
    1b5d: a0 04        	ldy	#$4
    1b5f: 3a           	dec
    1b60: 91 16        	sta	($16),y                 ; 0x16 <__rc6>
    1b62: 80 2b        	bra	$1b8f <checkPads+0x165>
    1b64: a0 04        	ldy	#$4
    1b66: b1 16        	lda	($16),y                 ; 0x16 <__rc6>
    1b68: 2c d1 39     	bit	$39d1                   ; 0x39d1 <__set_v>
    1b6b: a8           	tay
    1b6c: f0 01        	beq	$1b6f <checkPads+0x145>
    1b6e: b8           	clv
    1b6f: a9 01        	lda	#$1
    1b71: 70 02        	bvs	$1b75 <checkPads+0x14b>
    1b73: a9 00        	lda	#$0
    1b75: a0 13        	ldy	#$13
    1b77: 91 16        	sta	($16),y                 ; 0x16 <__rc6>
    1b79: 18           	clc
    1b7a: 8a           	txa
    1b7b: 69 0b        	adc	#$b
    1b7d: 85 18        	sta	$18                     ; 0x18 <__rc8>
    1b7f: a5 15        	lda	$15                     ; 0x15 <__rc5>
    1b81: 69 00        	adc	#$0
    1b83: 85 19        	sta	$19                     ; 0x19 <__rc9>
    1b85: a0 0b        	ldy	#$b
    1b87: a9 00        	lda	#$0
    1b89: 91 16        	sta	($16),y                 ; 0x16 <__rc6>
    1b8b: a0 01        	ldy	#$1
    1b8d: 91 18        	sta	($18),y                 ; 0x18 <__rc8>
    1b8f: b2 12        	lda	($12)                   ; 0x12 <__rc2>
    1b91: 29 08        	and	#$8
    1b93: f0 03        	beq	$1b98 <checkPads+0x16e>
    1b95: 4c e4 1b     	jmp	$1be4 <checkPads+0x1ba>
    1b98: a9 00        	lda	#$0
    1b9a: a6 1a        	ldx	$1a                     ; 0x1a <__rc10>
    1b9c: e0 01        	cpx	#$1
    1b9e: 2a           	rol
    1b9f: a6 14        	ldx	$14                     ; 0x14 <__rc4>
    1ba1: 86 15        	stx	$15                     ; 0x15 <__rc5>
    1ba3: 06 15        	asl	$15                     ; 0x15 <__rc5>
    1ba5: 2a           	rol
    1ba6: 06 15        	asl	$15                     ; 0x15 <__rc5>
    1ba8: 2a           	rol
    1ba9: 85 16        	sta	$16                     ; 0x16 <__rc6>
    1bab: a5 15        	lda	$15                     ; 0x15 <__rc5>
    1bad: 0a           	asl
    1bae: a6 16        	ldx	$16                     ; 0x16 <__rc6>
    1bb0: 86 17        	stx	$17                     ; 0x17 <__rc7>
    1bb2: 26 17        	rol	$17                     ; 0x17 <__rc7>
    1bb4: 18           	clc
    1bb5: 65 15        	adc	$15                     ; 0x15 <__rc5>
    1bb7: 85 15        	sta	$15                     ; 0x15 <__rc5>
    1bb9: a5 17        	lda	$17                     ; 0x17 <__rc7>
    1bbb: 65 16        	adc	$16                     ; 0x16 <__rc6>
    1bbd: 85 16        	sta	$16                     ; 0x16 <__rc6>
    1bbf: a9 a8        	lda	#$a8
    1bc1: 18           	clc
    1bc2: 65 15        	adc	$15                     ; 0x15 <__rc5>
    1bc4: aa           	tax
    1bc5: a9 5e        	lda	#$5e
    1bc7: 65 16        	adc	$16                     ; 0x16 <__rc6>
    1bc9: a8           	tay
    1bca: 8a           	txa
    1bcb: 86 16        	stx	$16                     ; 0x16 <__rc6>
    1bcd: 84 17        	sty	$17                     ; 0x17 <__rc7>
    1bcf: 18           	clc
    1bd0: 69 0d        	adc	#$d
    1bd2: 85 18        	sta	$18                     ; 0x18 <__rc8>
    1bd4: 98           	tya
    1bd5: 69 00        	adc	#$0
    1bd7: 85 19        	sta	$19                     ; 0x19 <__rc9>
    1bd9: a0 0d        	ldy	#$d
    1bdb: a9 ff        	lda	#$ff
    1bdd: 91 16        	sta	($16),y                 ; 0x16 <__rc6>
    1bdf: a0 01        	ldy	#$1
    1be1: 4c 3a 1c     	jmp	$1c3a <checkPads+0x210>
    1be4: b2 12        	lda	($12)                   ; 0x12 <__rc2>
    1be6: 29 04        	and	#$4
    1be8: a8           	tay
    1be9: a9 00        	lda	#$0
    1beb: a6 1a        	ldx	$1a                     ; 0x1a <__rc10>
    1bed: e0 01        	cpx	#$1
    1bef: 2a           	rol
    1bf0: a6 14        	ldx	$14                     ; 0x14 <__rc4>
    1bf2: 86 16        	stx	$16                     ; 0x16 <__rc6>
    1bf4: 06 16        	asl	$16                     ; 0x16 <__rc6>
    1bf6: 2a           	rol
    1bf7: 06 16        	asl	$16                     ; 0x16 <__rc6>
    1bf9: 2a           	rol
    1bfa: 85 15        	sta	$15                     ; 0x15 <__rc5>
    1bfc: a5 16        	lda	$16                     ; 0x16 <__rc6>
    1bfe: 0a           	asl
    1bff: a6 15        	ldx	$15                     ; 0x15 <__rc5>
    1c01: 86 17        	stx	$17                     ; 0x17 <__rc7>
    1c03: 26 17        	rol	$17                     ; 0x17 <__rc7>
    1c05: c0 00        	cpy	#$0
    1c07: d0 45        	bne	$1c4e <checkPads+0x224>
    1c09: 18           	clc
    1c0a: 65 16        	adc	$16                     ; 0x16 <__rc6>
    1c0c: 85 16        	sta	$16                     ; 0x16 <__rc6>
    1c0e: a5 17        	lda	$17                     ; 0x17 <__rc7>
    1c10: 65 15        	adc	$15                     ; 0x15 <__rc5>
    1c12: 85 15        	sta	$15                     ; 0x15 <__rc5>
    1c14: a9 a8        	lda	#$a8
    1c16: 18           	clc
    1c17: 65 16        	adc	$16                     ; 0x16 <__rc6>
    1c19: aa           	tax
    1c1a: a9 5e        	lda	#$5e
    1c1c: 65 15        	adc	$15                     ; 0x15 <__rc5>
    1c1e: 85 15        	sta	$15                     ; 0x15 <__rc5>
    1c20: 8a           	txa
    1c21: 86 16        	stx	$16                     ; 0x16 <__rc6>
    1c23: a6 15        	ldx	$15                     ; 0x15 <__rc5>
    1c25: 86 17        	stx	$17                     ; 0x17 <__rc7>
    1c27: a0 0d        	ldy	#$d
    1c29: 18           	clc
    1c2a: 69 0d        	adc	#$d
    1c2c: 85 18        	sta	$18                     ; 0x18 <__rc8>
    1c2e: a5 15        	lda	$15                     ; 0x15 <__rc5>
    1c30: 69 00        	adc	#$0
    1c32: 85 19        	sta	$19                     ; 0x19 <__rc9>
    1c34: a9 01        	lda	#$1
    1c36: 91 16        	sta	($16),y                 ; 0x16 <__rc6>
    1c38: a8           	tay
    1c39: 3a           	dec
    1c3a: 91 18        	sta	($18),y                 ; 0x18 <__rc8>
    1c3c: a0 04        	ldy	#$4
    1c3e: b1 16        	lda	($16),y                 ; 0x16 <__rc6>
    1c40: f0 04        	beq	$1c46 <checkPads+0x21c>
    1c42: a9 02        	lda	#$2
    1c44: 80 02        	bra	$1c48 <checkPads+0x21e>
    1c46: a9 03        	lda	#$3
    1c48: a0 13        	ldy	#$13
    1c4a: 91 16        	sta	($16),y                 ; 0x16 <__rc6>
    1c4c: 80 33        	bra	$1c81 <checkPads+0x257>
    1c4e: 18           	clc
    1c4f: 65 16        	adc	$16                     ; 0x16 <__rc6>
    1c51: 85 16        	sta	$16                     ; 0x16 <__rc6>
    1c53: a5 17        	lda	$17                     ; 0x17 <__rc7>
    1c55: 65 15        	adc	$15                     ; 0x15 <__rc5>
    1c57: 85 15        	sta	$15                     ; 0x15 <__rc5>
    1c59: a9 a8        	lda	#$a8
    1c5b: 18           	clc
    1c5c: 65 16        	adc	$16                     ; 0x16 <__rc6>
    1c5e: aa           	tax
    1c5f: a9 5e        	lda	#$5e
    1c61: 65 15        	adc	$15                     ; 0x15 <__rc5>
    1c63: 85 15        	sta	$15                     ; 0x15 <__rc5>
    1c65: 8a           	txa
    1c66: 86 16        	stx	$16                     ; 0x16 <__rc6>
    1c68: a6 15        	ldx	$15                     ; 0x15 <__rc5>
    1c6a: 86 17        	stx	$17                     ; 0x17 <__rc7>
    1c6c: a0 0d        	ldy	#$d
    1c6e: 18           	clc
    1c6f: 69 0d        	adc	#$d
    1c71: 85 18        	sta	$18                     ; 0x18 <__rc8>
    1c73: a5 15        	lda	$15                     ; 0x15 <__rc5>
    1c75: 69 00        	adc	#$0
    1c77: 85 19        	sta	$19                     ; 0x19 <__rc9>
    1c79: a9 00        	lda	#$0
    1c7b: 91 16        	sta	($16),y                 ; 0x16 <__rc6>
    1c7d: a0 01        	ldy	#$1
    1c7f: 91 18        	sta	($18),y                 ; 0x18 <__rc8>
    1c81: a9 00        	lda	#$0
    1c83: a6 1a        	ldx	$1a                     ; 0x1a <__rc10>
    1c85: e0 01        	cpx	#$1
    1c87: 2a           	rol
    1c88: 06 14        	asl	$14                     ; 0x14 <__rc4>
    1c8a: 2a           	rol
    1c8b: 06 14        	asl	$14                     ; 0x14 <__rc4>
    1c8d: 2a           	rol
    1c8e: 85 15        	sta	$15                     ; 0x15 <__rc5>
    1c90: a5 14        	lda	$14                     ; 0x14 <__rc4>
    1c92: 0a           	asl
    1c93: a6 15        	ldx	$15                     ; 0x15 <__rc5>
    1c95: 86 16        	stx	$16                     ; 0x16 <__rc6>
    1c97: 26 16        	rol	$16                     ; 0x16 <__rc6>
    1c99: 18           	clc
    1c9a: 65 14        	adc	$14                     ; 0x14 <__rc4>
    1c9c: 85 14        	sta	$14                     ; 0x14 <__rc4>
    1c9e: a5 16        	lda	$16                     ; 0x16 <__rc6>
    1ca0: 65 15        	adc	$15                     ; 0x15 <__rc5>
    1ca2: 85 15        	sta	$15                     ; 0x15 <__rc5>
    1ca4: a9 a8        	lda	#$a8
    1ca6: 18           	clc
    1ca7: 65 14        	adc	$14                     ; 0x14 <__rc4>
    1ca9: aa           	tax
    1caa: a9 5e        	lda	#$5e
    1cac: 65 15        	adc	$15                     ; 0x15 <__rc5>
    1cae: a8           	tay
    1caf: 86 14        	stx	$14                     ; 0x14 <__rc4>
    1cb1: 8a           	txa
    1cb2: 18           	clc
    1cb3: 69 0b        	adc	#$b
    1cb5: 85 16        	sta	$16                     ; 0x16 <__rc6>
    1cb7: 98           	tya
    1cb8: 69 00        	adc	#$0
    1cba: 86 27        	stx	$27                     ; 0x27 <__rc23>
    1cbc: 84 26        	sty	$26                     ; 0x26 <__rc22>
    1cbe: 84 15        	sty	$15                     ; 0x15 <__rc5>
    1cc0: 85 17        	sta	$17                     ; 0x17 <__rc7>
    1cc2: a0 0b        	ldy	#$b
    1cc4: b1 14        	lda	($14),y                 ; 0x14 <__rc4>
    1cc6: aa           	tax
    1cc7: a0 01        	ldy	#$1
    1cc9: b1 16        	lda	($16),y                 ; 0x16 <__rc6>
    1ccb: 86 18        	stx	$18                     ; 0x18 <__rc8>
    1ccd: 85 19        	sta	$19                     ; 0x19 <__rc9>
    1ccf: d0 30        	bne	$1d01 <checkPads+0x2d7>
    1cd1: 8a           	txa
    1cd2: d0 2d        	bne	$1d01 <checkPads+0x2d7>
    1cd4: a5 27        	lda	$27                     ; 0x27 <__rc23>
    1cd6: 18           	clc
    1cd7: 69 0d        	adc	#$d
    1cd9: 85 16        	sta	$16                     ; 0x16 <__rc6>
    1cdb: a5 26        	lda	$26                     ; 0x26 <__rc22>
    1cdd: 69 00        	adc	#$0
    1cdf: 85 17        	sta	$17                     ; 0x17 <__rc7>
    1ce1: a0 0d        	ldy	#$d
    1ce3: b1 14        	lda	($14),y                 ; 0x14 <__rc4>
    1ce5: 85 1a        	sta	$1a                     ; 0x1a <__rc10>
    1ce7: a0 01        	ldy	#$1
    1ce9: b1 16        	lda	($16),y                 ; 0x16 <__rc6>
    1ceb: d0 14        	bne	$1d01 <checkPads+0x2d7>
    1ced: a5 1a        	lda	$1a                     ; 0x1a <__rc10>
    1cef: d0 10        	bne	$1d01 <checkPads+0x2d7>
    1cf1: a0 04        	ldy	#$4
    1cf3: b1 14        	lda	($14),y                 ; 0x14 <__rc4>
    1cf5: d0 04        	bne	$1cfb <checkPads+0x2d1>
    1cf7: a9 01        	lda	#$1
    1cf9: 80 02        	bra	$1cfd <checkPads+0x2d3>
    1cfb: a9 00        	lda	#$0
    1cfd: a0 13        	ldy	#$13
    1cff: 91 14        	sta	($14),y                 ; 0x14 <__rc4>
    1d01: a5 1b        	lda	$1b                     ; 0x1b <__rc11>
    1d03: f0 04        	beq	$1d09 <checkPads+0x2df>
    1d05: a2 40        	ldx	#$40
    1d07: 80 02        	bra	$1d0b <checkPads+0x2e1>
    1d09: a2 80        	ldx	#$80
    1d0b: 86 16        	stx	$16                     ; 0x16 <__rc6>
    1d0d: b2 12        	lda	($12)                   ; 0x12 <__rc2>
    1d0f: 25 16        	and	$16                     ; 0x16 <__rc6>
    1d11: f0 03        	beq	$1d16 <checkPads+0x2ec>
    1d13: 4c 37 20     	jmp	$2037 <checkPads+0x60d>
    1d16: a2 18        	ldx	#$18
    1d18: 8a           	txa
    1d19: a0 18        	ldy	#$18
    1d1b: 91 10        	sta	($10),y                 ; 0x10 <__rc0>
    1d1d: a6 18        	ldx	$18                     ; 0x18 <__rc8>
    1d1f: a4 19        	ldy	$19                     ; 0x19 <__rc9>
    1d21: d0 03        	bne	$1d26 <checkPads+0x2fc>
    1d23: 8a           	txa
    1d24: f0 24        	beq	$1d4a <checkPads+0x320>
    1d26: 18           	clc
    1d27: a5 27        	lda	$27                     ; 0x27 <__rc23>
    1d29: 69 0d        	adc	#$d
    1d2b: 85 12        	sta	$12                     ; 0x12 <__rc2>
    1d2d: a5 26        	lda	$26                     ; 0x26 <__rc22>
    1d2f: 69 00        	adc	#$0
    1d31: a0 0d        	ldy	#$d
    1d33: 85 13        	sta	$13                     ; 0x13 <__rc3>
    1d35: b1 14        	lda	($14),y                 ; 0x14 <__rc4>
    1d37: 85 16        	sta	$16                     ; 0x16 <__rc6>
    1d39: a0 01        	ldy	#$1
    1d3b: b1 12        	lda	($12),y                 ; 0x12 <__rc2>
    1d3d: d0 04        	bne	$1d43 <checkPads+0x319>
    1d3f: a5 16        	lda	$16                     ; 0x16 <__rc6>
    1d41: f0 07        	beq	$1d4a <checkPads+0x320>
    1d43: a2 11        	ldx	#$11
    1d45: 8a           	txa
    1d46: a0 18        	ldy	#$18
    1d48: 91 10        	sta	($10),y                 ; 0x10 <__rc0>
    1d4a: a0 05        	ldy	#$5
    1d4c: b1 14        	lda	($14),y                 ; 0x14 <__rc4>
    1d4e: f0 03        	beq	$1d53 <checkPads+0x329>
    1d50: 4c 37 20     	jmp	$2037 <checkPads+0x60d>
    1d53: a5 19        	lda	$19                     ; 0x19 <__rc9>
    1d55: d0 24        	bne	$1d7b <checkPads+0x351>
    1d57: a5 18        	lda	$18                     ; 0x18 <__rc8>
    1d59: d0 20        	bne	$1d7b <checkPads+0x351>
    1d5b: 18           	clc
    1d5c: a5 27        	lda	$27                     ; 0x27 <__rc23>
    1d5e: 69 0d        	adc	#$d
    1d60: 85 12        	sta	$12                     ; 0x12 <__rc2>
    1d62: a5 26        	lda	$26                     ; 0x26 <__rc22>
    1d64: 69 00        	adc	#$0
    1d66: a0 0d        	ldy	#$d
    1d68: 85 13        	sta	$13                     ; 0x13 <__rc3>
    1d6a: b1 14        	lda	($14),y                 ; 0x14 <__rc4>
    1d6c: 85 16        	sta	$16                     ; 0x16 <__rc6>
    1d6e: a0 01        	ldy	#$1
    1d70: b1 12        	lda	($12),y                 ; 0x12 <__rc2>
    1d72: d0 07        	bne	$1d7b <checkPads+0x351>
    1d74: a5 16        	lda	$16                     ; 0x16 <__rc6>
    1d76: d0 03        	bne	$1d7b <checkPads+0x351>
    1d78: 4c 37 20     	jmp	$2037 <checkPads+0x60d>
    1d7b: a0 05        	ldy	#$5
    1d7d: a9 01        	lda	#$1
    1d7f: 91 14        	sta	($14),y                 ; 0x14 <__rc4>
    1d81: a2 05        	ldx	#$5
    1d83: 88           	dey
    1d84: b1 14        	lda	($14),y                 ; 0x14 <__rc4>
    1d86: 48           	pha
    1d87: 8a           	txa
    1d88: a0 17        	ldy	#$17
    1d8a: 91 10        	sta	($10),y                 ; 0x10 <__rc0>
    1d8c: 68           	pla
    1d8d: f0 07        	beq	$1d96 <checkPads+0x36c>
    1d8f: a2 04        	ldx	#$4
    1d91: 48           	pha
    1d92: 8a           	txa
    1d93: 91 10        	sta	($10),y                 ; 0x10 <__rc0>
    1d95: 68           	pla
    1d96: a2 01        	ldx	#$1
    1d98: a0 11        	ldy	#$11
    1d9a: 91 10        	sta	($10),y                 ; 0x10 <__rc0>
    1d9c: a8           	tay
    1d9d: f0 02        	beq	$1da1 <checkPads+0x377>
    1d9f: a2 00        	ldx	#$0
    1da1: a5 2e        	lda	$2e                     ; 0x2e <__rc30>
    1da3: 18           	clc
    1da4: 69 0a        	adc	#$a
    1da6: 85 19        	sta	$19                     ; 0x19 <__rc9>
    1da8: a9 00        	lda	#$0
    1daa: 69 00        	adc	#$0
    1dac: a4 19        	ldy	$19                     ; 0x19 <__rc9>
    1dae: 84 12        	sty	$12                     ; 0x12 <__rc2>
    1db0: 06 12        	asl	$12                     ; 0x12 <__rc2>
    1db2: 2a           	rol
    1db3: 06 12        	asl	$12                     ; 0x12 <__rc2>
    1db5: 2a           	rol
    1db6: 06 12        	asl	$12                     ; 0x12 <__rc2>
    1db8: 2a           	rol
    1db9: 85 13        	sta	$13                     ; 0x13 <__rc3>
    1dbb: a5 12        	lda	$12                     ; 0x12 <__rc2>
    1dbd: 0a           	asl
    1dbe: a4 13        	ldy	$13                     ; 0x13 <__rc3>
    1dc0: 84 16        	sty	$16                     ; 0x16 <__rc6>
    1dc2: 26 16        	rol	$16                     ; 0x16 <__rc6>
    1dc4: 18           	clc
    1dc5: 65 12        	adc	$12                     ; 0x12 <__rc2>
    1dc7: 85 12        	sta	$12                     ; 0x12 <__rc2>
    1dc9: a5 16        	lda	$16                     ; 0x16 <__rc6>
    1dcb: 65 13        	adc	$13                     ; 0x13 <__rc3>
    1dcd: 85 13        	sta	$13                     ; 0x13 <__rc3>
    1dcf: a9 a8        	lda	#$a8
    1dd1: 18           	clc
    1dd2: 65 12        	adc	$12                     ; 0x12 <__rc2>
    1dd4: 85 1b        	sta	$1b                     ; 0x1b <__rc11>
    1dd6: a9 5e        	lda	#$5e
    1dd8: 65 13        	adc	$13                     ; 0x13 <__rc3>
    1dda: 85 18        	sta	$18                     ; 0x18 <__rc8>
    1ddc: a5 27        	lda	$27                     ; 0x27 <__rc23>
    1dde: 18           	clc
    1ddf: 69 02        	adc	#$2
    1de1: 85 16        	sta	$16                     ; 0x16 <__rc6>
    1de3: a5 26        	lda	$26                     ; 0x26 <__rc22>
    1de5: 69 00        	adc	#$0
    1de7: 85 17        	sta	$17                     ; 0x17 <__rc7>
    1de9: a0 13        	ldy	#$13
    1deb: 5a           	phy
    1dec: a0 17        	ldy	#$17
    1dee: b1 10        	lda	($10),y                 ; 0x10 <__rc0>
    1df0: 7a           	ply
    1df1: 91 14        	sta	($14),y                 ; 0x14 <__rc4>
    1df3: b2 14        	lda	($14)                   ; 0x14 <__rc4>
    1df5: a4 1b        	ldy	$1b                     ; 0x1b <__rc11>
    1df7: 84 12        	sty	$12                     ; 0x12 <__rc2>
    1df9: a4 18        	ldy	$18                     ; 0x18 <__rc8>
    1dfb: 84 13        	sty	$13                     ; 0x13 <__rc3>
    1dfd: 85 1c        	sta	$1c                     ; 0x1c <__rc12>
    1dff: 92 12        	sta	($12)                   ; 0x12 <__rc2>
    1e01: a0 01        	ldy	#$1
    1e03: b1 14        	lda	($14),y                 ; 0x14 <__rc4>
    1e05: 85 1d        	sta	$1d                     ; 0x1d <__rc13>
    1e07: 91 12        	sta	($12),y                 ; 0x12 <__rc2>
    1e09: c8           	iny
    1e0a: b1 14        	lda	($14),y                 ; 0x14 <__rc4>
    1e0c: 85 1a        	sta	$1a                     ; 0x1a <__rc10>
    1e0e: 88           	dey
    1e0f: b1 16        	lda	($16),y                 ; 0x16 <__rc6>
    1e11: 85 1e        	sta	$1e                     ; 0x1e <__rc14>
    1e13: a5 1a        	lda	$1a                     ; 0x1a <__rc10>
    1e15: 1a           	inc
    1e16: d0 02        	bne	$1e1a <checkPads+0x3f0>
    1e18: e6 1e        	inc	$1e                     ; 0x1e <__rc14>
    1e1a: 85 1a        	sta	$1a                     ; 0x1a <__rc10>
    1e1c: a0 02        	ldy	#$2
    1e1e: 91 12        	sta	($12),y                 ; 0x12 <__rc2>
    1e20: a5 1b        	lda	$1b                     ; 0x1b <__rc11>
    1e22: a0 16        	ldy	#$16
    1e24: 91 10        	sta	($10),y                 ; 0x10 <__rc0>
    1e26: 18           	clc
    1e27: 69 02        	adc	#$2
    1e29: 85 16        	sta	$16                     ; 0x16 <__rc6>
    1e2b: a5 18        	lda	$18                     ; 0x18 <__rc8>
    1e2d: 85 24        	sta	$24                     ; 0x24 <__rc20>
    1e2f: 69 00        	adc	#$0
    1e31: 85 17        	sta	$17                     ; 0x17 <__rc7>
    1e33: a5 1e        	lda	$1e                     ; 0x1e <__rc14>
    1e35: 85 1b        	sta	$1b                     ; 0x1b <__rc11>
    1e37: a0 01        	ldy	#$1
    1e39: 91 16        	sta	($16),y                 ; 0x16 <__rc6>
    1e3b: 98           	tya
    1e3c: e0 00        	cpx	#$0
    1e3e: d0 02        	bne	$1e42 <checkPads+0x418>
    1e40: a9 00        	lda	#$0
    1e42: 48           	pha
    1e43: a5 14        	lda	$14                     ; 0x14 <__rc4>
    1e45: a0 12        	ldy	#$12
    1e47: 91 10        	sta	($10),y                 ; 0x10 <__rc0>
    1e49: a5 15        	lda	$15                     ; 0x15 <__rc5>
    1e4b: c8           	iny
    1e4c: 91 10        	sta	($10),y                 ; 0x10 <__rc0>
    1e4e: 68           	pla
    1e4f: 91 12        	sta	($12),y                 ; 0x12 <__rc2>
    1e51: a9 04        	lda	#$4
    1e53: e0 00        	cpx	#$0
    1e55: d0 02        	bne	$1e59 <checkPads+0x42f>
    1e57: a9 00        	lda	#$0
    1e59: a0 0a        	ldy	#$a
    1e5b: 91 12        	sta	($12),y                 ; 0x12 <__rc2>
    1e5d: a5 19        	lda	$19                     ; 0x19 <__rc9>
    1e5f: 0a           	asl
    1e60: 64 16        	stz	$16                     ; 0x16 <__rc6>
    1e62: 26 16        	rol	$16                     ; 0x16 <__rc6>
    1e64: 0a           	asl
    1e65: 26 16        	rol	$16                     ; 0x16 <__rc6>
    1e67: 0a           	asl
    1e68: 26 16        	rol	$16                     ; 0x16 <__rc6>
    1e6a: aa           	tax
    1e6b: 18           	clc
    1e6c: 69 04        	adc	#$4
    1e6e: 85 14        	sta	$14                     ; 0x14 <__rc4>
    1e70: a5 16        	lda	$16                     ; 0x16 <__rc6>
    1e72: 69 d9        	adc	#$d9
    1e74: 85 15        	sta	$15                     ; 0x15 <__rc5>
    1e76: a5 1c        	lda	$1c                     ; 0x1c <__rc12>
    1e78: 92 14        	sta	($14)                   ; 0x14 <__rc4>
    1e7a: a0 01        	ldy	#$1
    1e7c: a5 1d        	lda	$1d                     ; 0x1d <__rc13>
    1e7e: 91 14        	sta	($14),y                 ; 0x14 <__rc4>
    1e80: 8a           	txa
    1e81: 18           	clc
    1e82: 69 06        	adc	#$6
    1e84: 85 17        	sta	$17                     ; 0x17 <__rc7>
    1e86: a5 16        	lda	$16                     ; 0x16 <__rc6>
    1e88: 69 d9        	adc	#$d9
    1e8a: 5a           	phy
    1e8b: a4 17        	ldy	$17                     ; 0x17 <__rc7>
    1e8d: 84 14        	sty	$14                     ; 0x14 <__rc4>
    1e8f: 7a           	ply
    1e90: 85 15        	sta	$15                     ; 0x15 <__rc5>
    1e92: a5 1a        	lda	$1a                     ; 0x1a <__rc10>
    1e94: 92 14        	sta	($14)                   ; 0x14 <__rc4>
    1e96: a5 1b        	lda	$1b                     ; 0x1b <__rc11>
    1e98: 91 14        	sta	($14),y                 ; 0x14 <__rc4>
    1e9a: 18           	clc
    1e9b: 8a           	txa
    1e9c: 69 00        	adc	#$0
    1e9e: 85 14        	sta	$14                     ; 0x14 <__rc4>
    1ea0: a5 16        	lda	$16                     ; 0x16 <__rc6>
    1ea2: 69 d9        	adc	#$d9
    1ea4: 85 15        	sta	$15                     ; 0x15 <__rc5>
    1ea6: a9 01        	lda	#$1
    1ea8: a6 19        	ldx	$19                     ; 0x19 <__rc9>
    1eaa: 15 88        	ora	$88,x                   ; 0x88 <_spriteCtl>
    1eac: 92 14        	sta	($14)                   ; 0x14 <__rc4>
    1eae: a9 00        	lda	#$0
    1eb0: a6 12        	ldx	$12                     ; 0x12 <__rc2>
    1eb2: 86 28        	stx	$28                     ; 0x28 <__rc24>
    1eb4: a6 13        	ldx	$13                     ; 0x13 <__rc3>
    1eb6: 86 29        	stx	$29                     ; 0x29 <__rc25>
    1eb8: 20 06 25     	jsr	$2506 <getTimerAbsolute>
    1ebb: 18           	clc
    1ebc: 65 69        	adc	$69                     ; 0x69 <dashDelay>
    1ebe: 85 14        	sta	$14                     ; 0x14 <__rc4>
    1ec0: a0 16        	ldy	#$16
    1ec2: b1 10        	lda	($10),y                 ; 0x10 <__rc0>
    1ec4: 18           	clc
    1ec5: 69 0f        	adc	#$f
    1ec7: aa           	tax
    1ec8: a0 10        	ldy	#$10
    1eca: 5a           	phy
    1ecb: a5 28        	lda	$28                     ; 0x28 <__rc24>
    1ecd: a0 14        	ldy	#$14
    1ecf: 91 10        	sta	($10),y                 ; 0x10 <__rc0>
    1ed1: a5 29        	lda	$29                     ; 0x29 <__rc25>
    1ed3: c8           	iny
    1ed4: 91 10        	sta	($10),y                 ; 0x10 <__rc0>
    1ed6: 7a           	ply
    1ed7: a5 14        	lda	$14                     ; 0x14 <__rc4>
    1ed9: 91 28        	sta	($28),y                 ; 0x28 <__rc24>
    1edb: a5 24        	lda	$24                     ; 0x24 <__rc20>
    1edd: 69 00        	adc	#$0
    1edf: 86 12        	stx	$12                     ; 0x12 <__rc2>
    1ee1: 85 13        	sta	$13                     ; 0x13 <__rc3>
    1ee3: 20 d3 24     	jsr	$24d3 <setTimer>
    1ee6: a5 27        	lda	$27                     ; 0x27 <__rc23>
    1ee8: 18           	clc
    1ee9: 69 0b        	adc	#$b
    1eeb: 85 28        	sta	$28                     ; 0x28 <__rc24>
    1eed: a5 26        	lda	$26                     ; 0x26 <__rc22>
    1eef: 69 00        	adc	#$0
    1ef1: a0 0b        	ldy	#$b
    1ef3: 85 29        	sta	$29                     ; 0x29 <__rc25>
    1ef5: 5a           	phy
    1ef6: a0 12        	ldy	#$12
    1ef8: b1 10        	lda	($10),y                 ; 0x10 <__rc0>
    1efa: 85 2a        	sta	$2a                     ; 0x2a <__rc26>
    1efc: c8           	iny
    1efd: b1 10        	lda	($10),y                 ; 0x10 <__rc0>
    1eff: 7a           	ply
    1f00: 85 2b        	sta	$2b                     ; 0x2b <__rc27>
    1f02: b1 2a        	lda	($2a),y                 ; 0x2a <__rc26>
    1f04: 85 14        	sta	$14                     ; 0x14 <__rc4>
    1f06: a0 01        	ldy	#$1
    1f08: b1 28        	lda	($28),y                 ; 0x28 <__rc24>
    1f0a: 48           	pha
    1f0b: a0 18        	ldy	#$18
    1f0d: b1 10        	lda	($10),y                 ; 0x10 <__rc0>
    1f0f: 85 25        	sta	$25                     ; 0x25 <__rc21>
    1f11: 68           	pla
    1f12: a6 25        	ldx	$25                     ; 0x25 <__rc21>
    1f14: 86 12        	stx	$12                     ; 0x12 <__rc2>
    1f16: 64 13        	stz	$13                     ; 0x13 <__rc3>
    1f18: aa           	tax
    1f19: a5 14        	lda	$14                     ; 0x14 <__rc4>
    1f1b: 20 9f 39     	jsr	$399f <__mulhi3>
    1f1e: 18           	clc
    1f1f: 72 2a        	adc	($2a)                   ; 0x2a <__rc26>
    1f21: 85 13        	sta	$13                     ; 0x13 <__rc3>
    1f23: a0 01        	ldy	#$1
    1f25: 8a           	txa
    1f26: 71 2a        	adc	($2a),y                 ; 0x2a <__rc26>
    1f28: 85 12        	sta	$12                     ; 0x12 <__rc2>
    1f2a: a5 13        	lda	$13                     ; 0x13 <__rc3>
    1f2c: 92 2a        	sta	($2a)                   ; 0x2a <__rc26>
    1f2e: a5 12        	lda	$12                     ; 0x12 <__rc2>
    1f30: 91 2a        	sta	($2a),y                 ; 0x2a <__rc26>
    1f32: a5 27        	lda	$27                     ; 0x27 <__rc23>
    1f34: 18           	clc
    1f35: 69 0d        	adc	#$d
    1f37: 85 2c        	sta	$2c                     ; 0x2c <__rc28>
    1f39: a5 26        	lda	$26                     ; 0x26 <__rc22>
    1f3b: 69 00        	adc	#$0
    1f3d: a0 0d        	ldy	#$d
    1f3f: 85 2d        	sta	$2d                     ; 0x2d <__rc29>
    1f41: b1 2a        	lda	($2a),y                 ; 0x2a <__rc26>
    1f43: 85 14        	sta	$14                     ; 0x14 <__rc4>
    1f45: a0 01        	ldy	#$1
    1f47: b1 2c        	lda	($2c),y                 ; 0x2c <__rc28>
    1f49: a6 25        	ldx	$25                     ; 0x25 <__rc21>
    1f4b: 86 12        	stx	$12                     ; 0x12 <__rc2>
    1f4d: 64 13        	stz	$13                     ; 0x13 <__rc3>
    1f4f: aa           	tax
    1f50: a5 14        	lda	$14                     ; 0x14 <__rc4>
    1f52: 20 9f 39     	jsr	$399f <__mulhi3>
    1f55: 85 16        	sta	$16                     ; 0x16 <__rc6>
    1f57: 18           	clc
    1f58: a5 27        	lda	$27                     ; 0x27 <__rc23>
    1f5a: 69 02        	adc	#$2
    1f5c: 85 14        	sta	$14                     ; 0x14 <__rc4>
    1f5e: a5 26        	lda	$26                     ; 0x26 <__rc22>
    1f60: 69 00        	adc	#$0
    1f62: 85 15        	sta	$15                     ; 0x15 <__rc5>
    1f64: 18           	clc
    1f65: a0 02        	ldy	#$2
    1f67: a5 16        	lda	$16                     ; 0x16 <__rc6>
    1f69: 71 2a        	adc	($2a),y                 ; 0x2a <__rc26>
    1f6b: 85 17        	sta	$17                     ; 0x17 <__rc7>
    1f6d: 88           	dey
    1f6e: 8a           	txa
    1f6f: 71 14        	adc	($14),y                 ; 0x14 <__rc4>
    1f71: 85 16        	sta	$16                     ; 0x16 <__rc6>
    1f73: a9 00        	lda	#$0
    1f75: a0 0b        	ldy	#$b
    1f77: 91 2a        	sta	($2a),y                 ; 0x2a <__rc26>
    1f79: a0 0d        	ldy	#$d
    1f7b: 91 2a        	sta	($2a),y                 ; 0x2a <__rc26>
    1f7d: a0 02        	ldy	#$2
    1f7f: a5 17        	lda	$17                     ; 0x17 <__rc7>
    1f81: 91 2a        	sta	($2a),y                 ; 0x2a <__rc26>
    1f83: a5 16        	lda	$16                     ; 0x16 <__rc6>
    1f85: 88           	dey
    1f86: 91 14        	sta	($14),y                 ; 0x14 <__rc4>
    1f88: a9 00        	lda	#$0
    1f8a: 91 28        	sta	($28),y                 ; 0x28 <__rc24>
    1f8c: 91 2c        	sta	($2c),y                 ; 0x2c <__rc28>
    1f8e: a9 03        	lda	#$3
    1f90: 48           	pha
    1f91: a0 11        	ldy	#$11
    1f93: b1 10        	lda	($10),y                 ; 0x10 <__rc0>
    1f95: aa           	tax
    1f96: 68           	pla
    1f97: e0 00        	cpx	#$0
    1f99: f0 02        	beq	$1f9d <checkPads+0x573>
    1f9b: a9 01        	lda	#$1
    1f9d: a0 0a        	ldy	#$a
    1f9f: 91 2a        	sta	($2a),y                 ; 0x2a <__rc26>
    1fa1: a0 13        	ldy	#$13
    1fa3: 5a           	phy
    1fa4: a0 17        	ldy	#$17
    1fa6: b1 10        	lda	($10),y                 ; 0x10 <__rc0>
    1fa8: 7a           	ply
    1fa9: 91 2a        	sta	($2a),y                 ; 0x2a <__rc26>
    1fab: 64 70        	stz	$70                     ; 0x70 <_col>
    1fad: 9c 14 d0     	stz	$d014                   ; 0xd014 <end_block9+0x6f8c>
    1fb0: 9c 15 d0     	stz	$d015                   ; 0xd015 <end_block9+0x6f8d>
    1fb3: 64 71        	stz	$71                     ; 0x71 <_row>
    1fb5: 9c 16 d0     	stz	$d016                   ; 0xd016 <end_block9+0x6f8e>
    1fb8: 9c 17 d0     	stz	$d017                   ; 0xd017 <end_block9+0x6f8f>
    1fbb: 5a           	phy
    1fbc: a0 14        	ldy	#$14
    1fbe: b1 10        	lda	($10),y                 ; 0x10 <__rc0>
    1fc0: 85 14        	sta	$14                     ; 0x14 <__rc4>
    1fc2: c8           	iny
    1fc3: b1 10        	lda	($10),y                 ; 0x10 <__rc0>
    1fc5: 7a           	ply
    1fc6: 85 15        	sta	$15                     ; 0x15 <__rc5>
    1fc8: b1 14        	lda	($14),y                 ; 0x14 <__rc4>
    1fca: 85 16        	sta	$16                     ; 0x16 <__rc6>
    1fcc: a2 40        	ldx	#$40
    1fce: 86 62        	stx	$62                     ; 0x62 <_ccolor>
    1fd0: b2 14        	lda	($14)                   ; 0x14 <__rc4>
    1fd2: 85 18        	sta	$18                     ; 0x18 <__rc8>
    1fd4: a0 16        	ldy	#$16
    1fd6: b1 10        	lda	($10),y                 ; 0x10 <__rc0>
    1fd8: 18           	clc
    1fd9: 69 02        	adc	#$2
    1fdb: 85 12        	sta	$12                     ; 0x12 <__rc2>
    1fdd: a5 24        	lda	$24                     ; 0x24 <__rc20>
    1fdf: 69 00        	adc	#$0
    1fe1: 85 13        	sta	$13                     ; 0x13 <__rc3>
    1fe3: a0 0a        	ldy	#$a
    1fe5: b1 14        	lda	($14),y                 ; 0x14 <__rc4>
    1fe7: 85 17        	sta	$17                     ; 0x17 <__rc7>
    1fe9: a0 01        	ldy	#$1
    1feb: b1 14        	lda	($14),y                 ; 0x14 <__rc4>
    1fed: 85 19        	sta	$19                     ; 0x19 <__rc9>
    1fef: c8           	iny
    1ff0: b1 14        	lda	($14),y                 ; 0x14 <__rc4>
    1ff2: 85 14        	sta	$14                     ; 0x14 <__rc4>
    1ff4: 88           	dey
    1ff5: b1 12        	lda	($12),y                 ; 0x12 <__rc2>
    1ff7: 85 12        	sta	$12                     ; 0x12 <__rc2>
    1ff9: a5 18        	lda	$18                     ; 0x18 <__rc8>
    1ffb: c8           	iny
    1ffc: 91 10        	sta	($10),y                 ; 0x10 <__rc0>
    1ffe: c8           	iny
    1fff: a5 19        	lda	$19                     ; 0x19 <__rc9>
    2001: 91 10        	sta	($10),y                 ; 0x10 <__rc0>
    2003: a5 2e        	lda	$2e                     ; 0x2e <__rc30>
    2005: 92 10        	sta	($10)                   ; 0x10 <__rc0>
    2007: a9 00        	lda	#$0
    2009: a0 01        	ldy	#$1
    200b: 91 10        	sta	($10),y                 ; 0x10 <__rc0>
    200d: a0 04        	ldy	#$4
    200f: a5 14        	lda	$14                     ; 0x14 <__rc4>
    2011: 91 10        	sta	($10),y                 ; 0x10 <__rc0>
    2013: c8           	iny
    2014: a5 12        	lda	$12                     ; 0x12 <__rc2>
    2016: 91 10        	sta	($10),y                 ; 0x10 <__rc0>
    2018: c8           	iny
    2019: a5 16        	lda	$16                     ; 0x16 <__rc6>
    201b: 91 10        	sta	($10),y                 ; 0x10 <__rc0>
    201d: c8           	iny
    201e: a9 00        	lda	#$0
    2020: 91 10        	sta	($10),y                 ; 0x10 <__rc0>
    2022: c8           	iny
    2023: a5 17        	lda	$17                     ; 0x17 <__rc7>
    2025: 91 10        	sta	($10),y                 ; 0x10 <__rc0>
    2027: c8           	iny
    2028: a9 00        	lda	#$0
    202a: 91 10        	sta	($10),y                 ; 0x10 <__rc0>
    202c: a2 0c        	ldx	#$c
    202e: 86 12        	stx	$12                     ; 0x12 <__rc2>
    2030: a2 3a        	ldx	#$3a
    2032: 86 13        	stx	$13                     ; 0x13 <__rc3>
    2034: 20 98 36     	jsr	$3698 <printf>
    2037: a0 0a        	ldy	#$a
    2039: b1 10        	lda	($10),y                 ; 0x10 <__rc0>
    203b: 85 2e        	sta	$2e                     ; 0x2e <__rc30>
    203d: c8           	iny
    203e: b1 10        	lda	($10),y                 ; 0x10 <__rc0>
    2040: 85 2d        	sta	$2d                     ; 0x2d <__rc29>
    2042: c8           	iny
    2043: b1 10        	lda	($10),y                 ; 0x10 <__rc0>
    2045: 85 2c        	sta	$2c                     ; 0x2c <__rc28>
    2047: c8           	iny
    2048: b1 10        	lda	($10),y                 ; 0x10 <__rc0>
    204a: 85 2b        	sta	$2b                     ; 0x2b <__rc27>
    204c: c8           	iny
    204d: b1 10        	lda	($10),y                 ; 0x10 <__rc0>
    204f: 85 2a        	sta	$2a                     ; 0x2a <__rc26>
    2051: c8           	iny
    2052: b1 10        	lda	($10),y                 ; 0x10 <__rc0>
    2054: 85 29        	sta	$29                     ; 0x29 <__rc25>
    2056: c8           	iny
    2057: b1 10        	lda	($10),y                 ; 0x10 <__rc0>
    2059: 85 28        	sta	$28                     ; 0x28 <__rc24>
    205b: fa           	plx
    205c: 86 27        	stx	$27                     ; 0x27 <__rc23>
    205e: fa           	plx
    205f: 86 26        	stx	$26                     ; 0x26 <__rc22>
    2061: fa           	plx
    2062: 86 25        	stx	$25                     ; 0x25 <__rc21>
    2064: fa           	plx
    2065: 86 24        	stx	$24                     ; 0x24 <__rc20>
    2067: 18           	clc
    2068: a5 10        	lda	$10                     ; 0x10 <__rc0>
    206a: 69 19        	adc	#$19
    206c: 85 10        	sta	$10                     ; 0x10 <__rc0>
    206e: a5 11        	lda	$11                     ; 0x11 <__rc1>
    2070: 69 00        	adc	#$0
    2072: 85 11        	sta	$11                     ; 0x11 <__rc1>
    2074: 60           	rts

00002075 <updateFrames>:
    2075: a9 d9        	lda	#$d9
    2077: a2 01        	ldx	#$1
    2079: 64 14        	stz	$14                     ; 0x14 <__rc4>
    207b: 86 12        	stx	$12                     ; 0x12 <__rc2>
    207d: a6 12        	ldx	$12                     ; 0x12 <__rc2>
    207f: 86 18        	stx	$18                     ; 0x18 <__rc8>
    2081: 85 16        	sta	$16                     ; 0x16 <__rc6>
    2083: 85 13        	sta	$13                     ; 0x13 <__rc3>
    2085: a6 14        	ldx	$14                     ; 0x14 <__rc4>
    2087: 86 17        	stx	$17                     ; 0x17 <__rc7>
    2089: a6 14        	ldx	$14                     ; 0x14 <__rc4>
    208b: bd ae 5e     	lda	$5eae,x                 ; 0x5eae <spriteStatuses+0x6>
    208e: bc af 5e     	ldy	$5eaf,x                 ; 0x5eaf <spriteStatuses+0x7>
    2091: 85 14        	sta	$14                     ; 0x14 <__rc4>
    2093: 85 1a        	sta	$1a                     ; 0x1a <__rc10>
    2095: a9 00        	lda	#$0
    2097: 18           	clc
    2098: 65 14        	adc	$14                     ; 0x14 <__rc4>
    209a: 98           	tya
    209b: 7d b2 5e     	adc	$5eb2,x                 ; 0x5eb2 <spriteStatuses+0xa>
    209e: 85 19        	sta	$19                     ; 0x19 <__rc9>
    20a0: a9 00        	lda	#$0
    20a2: 7d b0 5e     	adc	$5eb0,x                 ; 0x5eb0 <spriteStatuses+0x8>
    20a5: a8           	tay
    20a6: a5 1a        	lda	$1a                     ; 0x1a <__rc10>
    20a8: 92 12        	sta	($12)                   ; 0x12 <__rc2>
    20aa: a5 12        	lda	$12                     ; 0x12 <__rc2>
    20ac: 5a           	phy
    20ad: a4 16        	ldy	$16                     ; 0x16 <__rc6>
    20af: 84 12        	sty	$12                     ; 0x12 <__rc2>
    20b1: 7a           	ply
    20b2: 1a           	inc
    20b3: d0 02        	bne	$20b7 <updateFrames+0x42>
    20b5: e6 12        	inc	$12                     ; 0x12 <__rc2>
    20b7: 85 14        	sta	$14                     ; 0x14 <__rc4>
    20b9: a5 12        	lda	$12                     ; 0x12 <__rc2>
    20bb: 85 15        	sta	$15                     ; 0x15 <__rc5>
    20bd: a5 19        	lda	$19                     ; 0x19 <__rc9>
    20bf: 92 14        	sta	($14)                   ; 0x14 <__rc4>
    20c1: 18           	clc
    20c2: a5 18        	lda	$18                     ; 0x18 <__rc8>
    20c4: 69 02        	adc	#$2
    20c6: 85 12        	sta	$12                     ; 0x12 <__rc2>
    20c8: a5 16        	lda	$16                     ; 0x16 <__rc6>
    20ca: 69 00        	adc	#$0
    20cc: 85 13        	sta	$13                     ; 0x13 <__rc3>
    20ce: 98           	tya
    20cf: 92 12        	sta	($12)                   ; 0x12 <__rc2>
    20d1: bc b3 5e     	ldy	$5eb3,x                 ; 0x5eb3 <spriteStatuses+0xb>
    20d4: bd b4 5e     	lda	$5eb4,x                 ; 0x5eb4 <spriteStatuses+0xc>
    20d7: 85 12        	sta	$12                     ; 0x12 <__rc2>
    20d9: 18           	clc
    20da: 98           	tya
    20db: 7d a8 5e     	adc	$5ea8,x                 ; 0x5ea8 <spriteStatuses>
    20de: a8           	tay
    20df: a5 12        	lda	$12                     ; 0x12 <__rc2>
    20e1: 7d a9 5e     	adc	$5ea9,x                 ; 0x5ea9 <spriteStatuses+0x1>
    20e4: 85 15        	sta	$15                     ; 0x15 <__rc5>
    20e6: 98           	tya
    20e7: 9d a8 5e     	sta	$5ea8,x                 ; 0x5ea8 <spriteStatuses>
    20ea: 84 1a        	sty	$1a                     ; 0x1a <__rc10>
    20ec: a5 15        	lda	$15                     ; 0x15 <__rc5>
    20ee: 9d a9 5e     	sta	$5ea9,x                 ; 0x5ea9 <spriteStatuses+0x1>
    20f1: bc b5 5e     	ldy	$5eb5,x                 ; 0x5eb5 <spriteStatuses+0xd>
    20f4: bd b6 5e     	lda	$5eb6,x                 ; 0x5eb6 <spriteStatuses+0xe>
    20f7: 85 12        	sta	$12                     ; 0x12 <__rc2>
    20f9: 18           	clc
    20fa: 98           	tya
    20fb: 7d aa 5e     	adc	$5eaa,x                 ; 0x5eaa <spriteStatuses+0x2>
    20fe: a8           	tay
    20ff: a5 12        	lda	$12                     ; 0x12 <__rc2>
    2101: 7d ab 5e     	adc	$5eab,x                 ; 0x5eab <spriteStatuses+0x3>
    2104: 85 14        	sta	$14                     ; 0x14 <__rc4>
    2106: 98           	tya
    2107: 9d aa 5e     	sta	$5eaa,x                 ; 0x5eaa <spriteStatuses+0x2>
    210a: 84 19        	sty	$19                     ; 0x19 <__rc9>
    210c: a5 14        	lda	$14                     ; 0x14 <__rc4>
    210e: 9d ab 5e     	sta	$5eab,x                 ; 0x5eab <spriteStatuses+0x3>
    2111: 18           	clc
    2112: a5 18        	lda	$18                     ; 0x18 <__rc8>
    2114: 69 03        	adc	#$3
    2116: 85 12        	sta	$12                     ; 0x12 <__rc2>
    2118: a5 16        	lda	$16                     ; 0x16 <__rc6>
    211a: 69 00        	adc	#$0
    211c: 85 13        	sta	$13                     ; 0x13 <__rc3>
    211e: a5 1a        	lda	$1a                     ; 0x1a <__rc10>
    2120: 92 12        	sta	($12)                   ; 0x12 <__rc2>
    2122: a5 15        	lda	$15                     ; 0x15 <__rc5>
    2124: a0 01        	ldy	#$1
    2126: 91 12        	sta	($12),y                 ; 0x12 <__rc2>
    2128: 18           	clc
    2129: a5 18        	lda	$18                     ; 0x18 <__rc8>
    212b: 69 05        	adc	#$5
    212d: 85 12        	sta	$12                     ; 0x12 <__rc2>
    212f: a5 16        	lda	$16                     ; 0x16 <__rc6>
    2131: 69 00        	adc	#$0
    2133: 85 13        	sta	$13                     ; 0x13 <__rc3>
    2135: a5 19        	lda	$19                     ; 0x19 <__rc9>
    2137: 92 12        	sta	($12)                   ; 0x12 <__rc2>
    2139: a5 14        	lda	$14                     ; 0x14 <__rc4>
    213b: 91 12        	sta	($12),y                 ; 0x12 <__rc2>
    213d: 18           	clc
    213e: a5 17        	lda	$17                     ; 0x17 <__rc7>
    2140: 69 18        	adc	#$18
    2142: aa           	tax
    2143: 18           	clc
    2144: a5 18        	lda	$18                     ; 0x18 <__rc8>
    2146: 69 08        	adc	#$8
    2148: 85 12        	sta	$12                     ; 0x12 <__rc2>
    214a: a5 16        	lda	$16                     ; 0x16 <__rc6>
    214c: 69 00        	adc	#$0
    214e: 86 14        	stx	$14                     ; 0x14 <__rc4>
    2150: e0 78        	cpx	#$78
    2152: f0 03        	beq	$2157 <updateFrames+0xe2>
    2154: 4c 7d 20     	jmp	$207d <updateFrames+0x8>
    2157: a0 51        	ldy	#$51
    2159: a2 98        	ldx	#$98
    215b: 86 12        	stx	$12                     ; 0x12 <__rc2>
    215d: a2 5f        	ldx	#$5f
    215f: 86 13        	stx	$13                     ; 0x13 <__rc3>
    2161: a2 d9        	ldx	#$d9
    2163: 84 14        	sty	$14                     ; 0x14 <__rc4>
    2165: 86 1c        	stx	$1c                     ; 0x1c <__rc12>
    2167: 86 15        	stx	$15                     ; 0x15 <__rc5>
    2169: a6 12        	ldx	$12                     ; 0x12 <__rc2>
    216b: 86 1a        	stx	$1a                     ; 0x1a <__rc10>
    216d: a6 13        	ldx	$13                     ; 0x13 <__rc3>
    216f: 86 1b        	stx	$1b                     ; 0x1b <__rc11>
    2171: 18           	clc
    2172: a5 12        	lda	$12                     ; 0x12 <__rc2>
    2174: 69 06        	adc	#$6
    2176: 85 16        	sta	$16                     ; 0x16 <__rc6>
    2178: 84 19        	sty	$19                     ; 0x19 <__rc9>
    217a: a5 13        	lda	$13                     ; 0x13 <__rc3>
    217c: 69 00        	adc	#$0
    217e: 85 17        	sta	$17                     ; 0x17 <__rc7>
    2180: a0 06        	ldy	#$6
    2182: b1 12        	lda	($12),y                 ; 0x12 <__rc2>
    2184: aa           	tax
    2185: a0 01        	ldy	#$1
    2187: b1 16        	lda	($16),y                 ; 0x16 <__rc6>
    2189: 85 1d        	sta	$1d                     ; 0x1d <__rc13>
    218b: 86 18        	stx	$18                     ; 0x18 <__rc8>
    218d: a9 00        	lda	#$0
    218f: 18           	clc
    2190: 65 18        	adc	$18                     ; 0x18 <__rc8>
    2192: a0 0a        	ldy	#$a
    2194: a5 1d        	lda	$1d                     ; 0x1d <__rc13>
    2196: 71 12        	adc	($12),y                 ; 0x12 <__rc2>
    2198: 85 18        	sta	$18                     ; 0x18 <__rc8>
    219a: a9 00        	lda	#$0
    219c: a0 02        	ldy	#$2
    219e: 71 16        	adc	($16),y                 ; 0x16 <__rc6>
    21a0: a8           	tay
    21a1: 8a           	txa
    21a2: 92 14        	sta	($14)                   ; 0x14 <__rc4>
    21a4: a6 19        	ldx	$19                     ; 0x19 <__rc9>
    21a6: a5 1c        	lda	$1c                     ; 0x1c <__rc12>
    21a8: e8           	inx
    21a9: d0 01        	bne	$21ac <updateFrames+0x137>
    21ab: 1a           	inc
    21ac: 86 14        	stx	$14                     ; 0x14 <__rc4>
    21ae: 85 15        	sta	$15                     ; 0x15 <__rc5>
    21b0: a5 18        	lda	$18                     ; 0x18 <__rc8>
    21b2: 92 14        	sta	($14)                   ; 0x14 <__rc4>
    21b4: 18           	clc
    21b5: a5 19        	lda	$19                     ; 0x19 <__rc9>
    21b7: 69 02        	adc	#$2
    21b9: 85 14        	sta	$14                     ; 0x14 <__rc4>
    21bb: a5 1c        	lda	$1c                     ; 0x1c <__rc12>
    21bd: 69 00        	adc	#$0
    21bf: 85 15        	sta	$15                     ; 0x15 <__rc5>
    21c1: 98           	tya
    21c2: 92 14        	sta	($14)                   ; 0x14 <__rc4>
    21c4: b2 12        	lda	($12)                   ; 0x12 <__rc2>
    21c6: 85 18        	sta	$18                     ; 0x18 <__rc8>
    21c8: 18           	clc
    21c9: a5 12        	lda	$12                     ; 0x12 <__rc2>
    21cb: 69 02        	adc	#$2
    21cd: 85 14        	sta	$14                     ; 0x14 <__rc4>
    21cf: a5 13        	lda	$13                     ; 0x13 <__rc3>
    21d1: 69 00        	adc	#$0
    21d3: 85 15        	sta	$15                     ; 0x15 <__rc5>
    21d5: 18           	clc
    21d6: a5 19        	lda	$19                     ; 0x19 <__rc9>
    21d8: 69 03        	adc	#$3
    21da: 85 16        	sta	$16                     ; 0x16 <__rc6>
    21dc: a5 1c        	lda	$1c                     ; 0x1c <__rc12>
    21de: 69 00        	adc	#$0
    21e0: 85 17        	sta	$17                     ; 0x17 <__rc7>
    21e2: a0 01        	ldy	#$1
    21e4: b1 12        	lda	($12),y                 ; 0x12 <__rc2>
    21e6: 85 1e        	sta	$1e                     ; 0x1e <__rc14>
    21e8: c8           	iny
    21e9: b1 12        	lda	($12),y                 ; 0x12 <__rc2>
    21eb: 85 1d        	sta	$1d                     ; 0x1d <__rc13>
    21ed: 88           	dey
    21ee: b1 14        	lda	($14),y                 ; 0x14 <__rc4>
    21f0: 85 14        	sta	$14                     ; 0x14 <__rc4>
    21f2: a5 18        	lda	$18                     ; 0x18 <__rc8>
    21f4: 92 16        	sta	($16)                   ; 0x16 <__rc6>
    21f6: a5 1e        	lda	$1e                     ; 0x1e <__rc14>
    21f8: 91 16        	sta	($16),y                 ; 0x16 <__rc6>
    21fa: 18           	clc
    21fb: a5 19        	lda	$19                     ; 0x19 <__rc9>
    21fd: 69 05        	adc	#$5
    21ff: 85 12        	sta	$12                     ; 0x12 <__rc2>
    2201: a5 1c        	lda	$1c                     ; 0x1c <__rc12>
    2203: 69 00        	adc	#$0
    2205: 85 13        	sta	$13                     ; 0x13 <__rc3>
    2207: a5 1d        	lda	$1d                     ; 0x1d <__rc13>
    2209: 92 12        	sta	($12)                   ; 0x12 <__rc2>
    220b: a5 14        	lda	$14                     ; 0x14 <__rc4>
    220d: 91 12        	sta	($12),y                 ; 0x12 <__rc2>
    220f: 18           	clc
    2210: a5 19        	lda	$19                     ; 0x19 <__rc9>
    2212: 69 08        	adc	#$8
    2214: a8           	tay
    2215: a5 1c        	lda	$1c                     ; 0x1c <__rc12>
    2217: 69 00        	adc	#$0
    2219: aa           	tax
    221a: 18           	clc
    221b: a5 1a        	lda	$1a                     ; 0x1a <__rc10>
    221d: 69 18        	adc	#$18
    221f: 85 12        	sta	$12                     ; 0x12 <__rc2>
    2221: a5 1b        	lda	$1b                     ; 0x1b <__rc11>
    2223: 69 00        	adc	#$0
    2225: 85 13        	sta	$13                     ; 0x13 <__rc3>
    2227: c0 79        	cpy	#$79
    2229: f0 03        	beq	$222e <updateFrames+0x1b9>
    222b: 4c 63 21     	jmp	$2163 <updateFrames+0xee>
    222e: 60           	rts

0000222f <textPrint>:
    222f: a6 12        	ldx	$12                     ; 0x12 <__rc2>
    2231: 86 e1        	stx	$e1                     ; 0xe1 <__zp_bss_size+0x6e>
    2233: a6 13        	ldx	$13                     ; 0x13 <__rc3>
    2235: 86 e2        	stx	$e2                     ; 0xe2 <__zp_bss_size+0x6f>
    2237: a2 00        	ldx	#$0
    2239: 86 e3        	stx	$e3                     ; 0xe3 <__zp_bss_size+0x70>
    223b: a2 c0        	ldx	#$c0
    223d: 86 e4        	stx	$e4                     ; 0xe4 <__zp_bss_size+0x71>
    223f: a6 01        	ldx	$1                      ; 0x1 <__data_size+0x1>
    2241: 86 e8        	stx	$e8                     ; 0xe8 <__zp_bss_size+0x75>
    2243: a6 60        	ldx	$60                     ; 0x60 <_MAX_COL>
    2245: a4 71        	ldy	$71                     ; 0x71 <_row>
    2247: 8e 00 de     	stx	$de00                   ; 0xde00 <end_block9+0x7d78>
    224a: 9c 01 de     	stz	$de01                   ; 0xde01 <end_block9+0x7d79>
    224d: 8c 02 de     	sty	$de02                   ; 0xde02 <end_block9+0x7d7a>
    2250: 9c 03 de     	stz	$de03                   ; 0xde03 <end_block9+0x7d7b>
    2253: ae 10 de     	ldx	$de10                   ; 0xde10 <end_block9+0x7d88>
    2256: 86 12        	stx	$12                     ; 0x12 <__rc2>
    2258: ac 11 de     	ldy	$de11                   ; 0xde11 <end_block9+0x7d89>
    225b: ad 12 de     	lda	$de12                   ; 0xde12 <end_block9+0x7d8a>
    225e: ae 13 de     	ldx	$de13                   ; 0xde13 <end_block9+0x7d8b>
    2261: 86 13        	stx	$13                     ; 0x13 <__rc3>
    2263: 9c 08 de     	stz	$de08                   ; 0xde08 <end_block9+0x7d80>
    2266: a2 c0        	ldx	#$c0
    2268: 8e 09 de     	stx	$de09                   ; 0xde09 <end_block9+0x7d81>
    226b: 9c 0a de     	stz	$de0a                   ; 0xde0a <end_block9+0x7d82>
    226e: 9c 0b de     	stz	$de0b                   ; 0xde0b <end_block9+0x7d83>
    2271: a6 12        	ldx	$12                     ; 0x12 <__rc2>
    2273: 8e 0c de     	stx	$de0c                   ; 0xde0c <end_block9+0x7d84>
    2276: 8c 0d de     	sty	$de0d                   ; 0xde0d <end_block9+0x7d85>
    2279: 8d 0e de     	sta	$de0e                   ; 0xde0e <end_block9+0x7d86>
    227c: a6 13        	ldx	$13                     ; 0x13 <__rc3>
    227e: 8e 0f de     	stx	$de0f                   ; 0xde0f <end_block9+0x7d87>
    2281: ae 18 de     	ldx	$de18                   ; 0xde18 <end_block9+0x7d90>
    2284: ac 19 de     	ldy	$de19                   ; 0xde19 <end_block9+0x7d91>
    2287: ad 1a de     	lda	$de1a                   ; 0xde1a <end_block9+0x7d92>
    228a: ad 1b de     	lda	$de1b                   ; 0xde1b <end_block9+0x7d93>
    228d: 86 12        	stx	$12                     ; 0x12 <__rc2>
    228f: 84 13        	sty	$13                     ; 0x13 <__rc3>
    2291: 64 e5        	stz	$e5                     ; 0xe5 <__zp_bss_size+0x72>
    2293: 64 e6        	stz	$e6                     ; 0xe6 <__zp_bss_size+0x73>
    2295: 80 00        	bra	$2297 <textPrint+0x68>
    2297: a5 e1        	lda	$e1                     ; 0xe1 <__zp_bss_size+0x6e>
    2299: 18           	clc
    229a: 65 e5        	adc	$e5                     ; 0xe5 <__zp_bss_size+0x72>
    229c: 85 14        	sta	$14                     ; 0x14 <__rc4>
    229e: a5 e2        	lda	$e2                     ; 0xe2 <__zp_bss_size+0x6f>
    22a0: 65 e6        	adc	$e6                     ; 0xe6 <__zp_bss_size+0x73>
    22a2: 85 15        	sta	$15                     ; 0x15 <__rc5>
    22a4: b2 14        	lda	($14)                   ; 0x14 <__rc4>
    22a6: c9 0a        	cmp	#$a
    22a8: f0 29        	beq	$22d3 <textPrint+0xa4>
    22aa: c9 0d        	cmp	#$d
    22ac: f0 25        	beq	$22d3 <textPrint+0xa4>
    22ae: aa           	tax
    22af: d0 03        	bne	$22b4 <textPrint+0x85>
    22b1: 4c 72 24     	jmp	$2472 <textPrint+0x243>
    22b4: a2 03        	ldx	#$3
    22b6: 86 01        	stx	$1                      ; 0x1 <__data_size+0x1>
    22b8: a5 62        	lda	$62                     ; 0x62 <_ccolor>
    22ba: a4 70        	ldy	$70                     ; 0x70 <_col>
    22bc: 91 12        	sta	($12),y                 ; 0x12 <__rc2>
    22be: ca           	dex
    22bf: 86 01        	stx	$1                      ; 0x1 <__data_size+0x1>
    22c1: b2 14        	lda	($14)                   ; 0x14 <__rc4>
    22c3: a4 70        	ldy	$70                     ; 0x70 <_col>
    22c5: 91 12        	sta	($12),y                 ; 0x12 <__rc2>
    22c7: a6 70        	ldx	$70                     ; 0x70 <_col>
    22c9: e8           	inx
    22ca: e6 70        	inc	$70                     ; 0x70 <_col>
    22cc: e4 60        	cpx	$60                     ; 0x60 <_MAX_COL>
    22ce: f0 03        	beq	$22d3 <textPrint+0xa4>
    22d0: 4c a4 23     	jmp	$23a4 <textPrint+0x175>
    22d3: 64 70        	stz	$70                     ; 0x70 <_col>
    22d5: a6 71        	ldx	$71                     ; 0x71 <_row>
    22d7: e8           	inx
    22d8: e6 71        	inc	$71                     ; 0x71 <_row>
    22da: a4 61        	ldy	$61                     ; 0x61 <_MAX_ROW>
    22dc: 84 e7        	sty	$e7                     ; 0xe7 <__zp_bss_size+0x74>
    22de: e4 e7        	cpx	$e7                     ; 0xe7 <__zp_bss_size+0x74>
    22e0: f0 03        	beq	$22e5 <textPrint+0xb6>
    22e2: 4c 97 23     	jmp	$2397 <textPrint+0x168>
    22e5: a6 60        	ldx	$60                     ; 0x60 <_MAX_COL>
    22e7: 86 eb        	stx	$eb                     ; 0xeb <__zp_bss_size+0x78>
    22e9: 98           	tya
    22ea: a2 00        	ldx	#$0
    22ec: 3a           	dec
    22ed: c9 ff        	cmp	#$ff
    22ef: d0 01        	bne	$22f2 <textPrint+0xc3>
    22f1: ca           	dex
    22f2: a4 eb        	ldy	$eb                     ; 0xeb <__zp_bss_size+0x78>
    22f4: 84 12        	sty	$12                     ; 0x12 <__rc2>
    22f6: 64 13        	stz	$13                     ; 0x13 <__rc3>
    22f8: 20 9f 39     	jsr	$399f <__mulhi3>
    22fb: 85 e9        	sta	$e9                     ; 0xe9 <__zp_bss_size+0x76>
    22fd: 86 ea        	stx	$ea                     ; 0xea <__zp_bss_size+0x77>
    22ff: a2 03        	ldx	#$3
    2301: 86 01        	stx	$1                      ; 0x1 <__data_size+0x1>
    2303: 38           	sec
    2304: a9 01        	lda	#$1
    2306: e5 e7        	sbc	$e7                     ; 0xe7 <__zp_bss_size+0x74>
    2308: a8           	tay
    2309: 64 e7        	stz	$e7                     ; 0xe7 <__zp_bss_size+0x74>
    230b: a9 00        	lda	#$0
    230d: e9 00        	sbc	#$0
    230f: a6 eb        	ldx	$eb                     ; 0xeb <__zp_bss_size+0x78>
    2311: 86 12        	stx	$12                     ; 0x12 <__rc2>
    2313: 64 13        	stz	$13                     ; 0x13 <__rc3>
    2315: aa           	tax
    2316: 98           	tya
    2317: 20 9f 39     	jsr	$399f <__mulhi3>
    231a: 85 1a        	sta	$1a                     ; 0x1a <__rc10>
    231c: a9 00        	lda	#$0
    231e: 80 1d        	bra	$233d <textPrint+0x10e>
    2320: 64 14        	stz	$14                     ; 0x14 <__rc4>
    2322: 64 15        	stz	$15                     ; 0x15 <__rc5>
    2324: a0 02        	ldy	#$2
    2326: 84 01        	sty	$1                      ; 0x1 <__data_size+0x1>
    2328: a5 12        	lda	$12                     ; 0x12 <__rc2>
    232a: e6 e7        	inc	$e7                     ; 0xe7 <__zp_bss_size+0x74>
    232c: d0 01        	bne	$232f <textPrint+0x100>
    232e: 1a           	inc
    232f: a4 12        	ldy	$12                     ; 0x12 <__rc2>
    2331: f0 03        	beq	$2336 <textPrint+0x107>
    2333: 4c b0 23     	jmp	$23b0 <textPrint+0x181>
    2336: a4 13        	ldy	$13                     ; 0x13 <__rc3>
    2338: f0 03        	beq	$233d <textPrint+0x10e>
    233a: 4c b0 23     	jmp	$23b0 <textPrint+0x181>
    233d: 85 12        	sta	$12                     ; 0x12 <__rc2>
    233f: a4 e7        	ldy	$e7                     ; 0xe7 <__zp_bss_size+0x74>
    2341: 84 13        	sty	$13                     ; 0x13 <__rc3>
    2343: a4 e9        	ldy	$e9                     ; 0xe9 <__zp_bss_size+0x76>
    2345: c0 01        	cpy	#$1
    2347: a5 ea        	lda	$ea                     ; 0xea <__zp_bss_size+0x77>
    2349: e9 00        	sbc	#$0
    234b: 50 02        	bvc	$234f <textPrint+0x120>
    234d: 49 80        	eor	#$80
    234f: a8           	tay
    2350: 30 ce        	bmi	$2320 <textPrint+0xf1>
    2352: 64 15        	stz	$15                     ; 0x15 <__rc5>
    2354: a0 00        	ldy	#$0
    2356: 84 18        	sty	$18                     ; 0x18 <__rc8>
    2358: a0 c0        	ldy	#$c0
    235a: 84 19        	sty	$19                     ; 0x19 <__rc9>
    235c: 64 17        	stz	$17                     ; 0x17 <__rc7>
    235e: a4 17        	ldy	$17                     ; 0x17 <__rc7>
    2360: 84 14        	sty	$14                     ; 0x14 <__rc4>
    2362: a4 15        	ldy	$15                     ; 0x15 <__rc5>
    2364: 84 16        	sty	$16                     ; 0x16 <__rc6>
    2366: a4 60        	ldy	$60                     ; 0x60 <_MAX_COL>
    2368: b1 18        	lda	($18),y                 ; 0x18 <__rc8>
    236a: 92 18        	sta	($18)                   ; 0x18 <__rc8>
    236c: a0 ff        	ldy	#$ff
    236e: c6 15        	dec	$15                     ; 0x15 <__rc5>
    2370: c4 15        	cpy	$15                     ; 0x15 <__rc5>
    2372: d0 02        	bne	$2376 <textPrint+0x147>
    2374: c6 17        	dec	$17                     ; 0x17 <__rc7>
    2376: e6 18        	inc	$18                     ; 0x18 <__rc8>
    2378: d0 02        	bne	$237c <textPrint+0x14d>
    237a: e6 19        	inc	$19                     ; 0x19 <__rc9>
    237c: e4 17        	cpx	$17                     ; 0x17 <__rc7>
    237e: d0 de        	bne	$235e <textPrint+0x12f>
    2380: a4 1a        	ldy	$1a                     ; 0x1a <__rc10>
    2382: c4 15        	cpy	$15                     ; 0x15 <__rc5>
    2384: d0 d8        	bne	$235e <textPrint+0x12f>
    2386: 38           	sec
    2387: a9 01        	lda	#$1
    2389: e5 16        	sbc	$16                     ; 0x16 <__rc6>
    238b: a8           	tay
    238c: a9 00        	lda	#$0
    238e: e5 14        	sbc	$14                     ; 0x14 <__rc4>
    2390: 84 14        	sty	$14                     ; 0x14 <__rc4>
    2392: 85 15        	sta	$15                     ; 0x15 <__rc5>
    2394: 4c 24 23     	jmp	$2324 <textPrint+0xf5>
    2397: a5 12        	lda	$12                     ; 0x12 <__rc2>
    2399: 18           	clc
    239a: 65 60        	adc	$60                     ; 0x60 <_MAX_COL>
    239c: 85 12        	sta	$12                     ; 0x12 <__rc2>
    239e: a5 13        	lda	$13                     ; 0x13 <__rc3>
    23a0: 69 00        	adc	#$0
    23a2: 85 13        	sta	$13                     ; 0x13 <__rc3>
    23a4: e6 e5        	inc	$e5                     ; 0xe5 <__zp_bss_size+0x72>
    23a6: f0 03        	beq	$23ab <textPrint+0x17c>
    23a8: 4c 97 22     	jmp	$2297 <textPrint+0x68>
    23ab: e6 e6        	inc	$e6                     ; 0xe6 <__zp_bss_size+0x73>
    23ad: 4c 97 22     	jmp	$2297 <textPrint+0x68>
    23b0: a9 00        	lda	#$0
    23b2: 18           	clc
    23b3: 65 14        	adc	$14                     ; 0x14 <__rc4>
    23b5: 85 12        	sta	$12                     ; 0x12 <__rc2>
    23b7: a9 c0        	lda	#$c0
    23b9: 65 15        	adc	$15                     ; 0x15 <__rc5>
    23bb: 85 13        	sta	$13                     ; 0x13 <__rc3>
    23bd: a2 03        	ldx	#$3
    23bf: 86 01        	stx	$1                      ; 0x1 <__data_size+0x1>
    23c1: a6 60        	ldx	$60                     ; 0x60 <_MAX_COL>
    23c3: f0 37        	beq	$23fc <textPrint+0x1cd>
    23c5: a9 01        	lda	#$1
    23c7: 18           	clc
    23c8: 65 14        	adc	$14                     ; 0x14 <__rc4>
    23ca: 85 17        	sta	$17                     ; 0x17 <__rc7>
    23cc: a9 c0        	lda	#$c0
    23ce: 65 15        	adc	$15                     ; 0x15 <__rc5>
    23d0: a8           	tay
    23d1: 64 16        	stz	$16                     ; 0x16 <__rc6>
    23d3: a6 12        	ldx	$12                     ; 0x12 <__rc2>
    23d5: 86 18        	stx	$18                     ; 0x18 <__rc8>
    23d7: a6 13        	ldx	$13                     ; 0x13 <__rc3>
    23d9: 86 19        	stx	$19                     ; 0x19 <__rc9>
    23db: a5 17        	lda	$17                     ; 0x17 <__rc7>
    23dd: 18           	clc
    23de: 65 16        	adc	$16                     ; 0x16 <__rc6>
    23e0: 85 1a        	sta	$1a                     ; 0x1a <__rc10>
    23e2: 98           	tya
    23e3: 69 00        	adc	#$0
    23e5: 85 1b        	sta	$1b                     ; 0x1b <__rc11>
    23e7: a5 62        	lda	$62                     ; 0x62 <_ccolor>
    23e9: 92 18        	sta	($18)                   ; 0x18 <__rc8>
    23eb: a6 16        	ldx	$16                     ; 0x16 <__rc6>
    23ed: e8           	inx
    23ee: 86 16        	stx	$16                     ; 0x16 <__rc6>
    23f0: e4 60        	cpx	$60                     ; 0x60 <_MAX_COL>
    23f2: a6 1a        	ldx	$1a                     ; 0x1a <__rc10>
    23f4: 86 18        	stx	$18                     ; 0x18 <__rc8>
    23f6: a6 1b        	ldx	$1b                     ; 0x1b <__rc11>
    23f8: 86 19        	stx	$19                     ; 0x19 <__rc9>
    23fa: 90 df        	bcc	$23db <textPrint+0x1ac>
    23fc: a2 02        	ldx	#$2
    23fe: 86 01        	stx	$1                      ; 0x1 <__data_size+0x1>
    2400: a6 60        	ldx	$60                     ; 0x60 <_MAX_COL>
    2402: f0 2f        	beq	$2433 <textPrint+0x204>
    2404: a9 01        	lda	#$1
    2406: 18           	clc
    2407: 65 14        	adc	$14                     ; 0x14 <__rc4>
    2409: 85 18        	sta	$18                     ; 0x18 <__rc8>
    240b: a9 c0        	lda	#$c0
    240d: 65 15        	adc	$15                     ; 0x15 <__rc5>
    240f: a8           	tay
    2410: 64 14        	stz	$14                     ; 0x14 <__rc4>
    2412: a5 18        	lda	$18                     ; 0x18 <__rc8>
    2414: 18           	clc
    2415: 65 14        	adc	$14                     ; 0x14 <__rc4>
    2417: 85 16        	sta	$16                     ; 0x16 <__rc6>
    2419: 98           	tya
    241a: 69 00        	adc	#$0
    241c: 85 17        	sta	$17                     ; 0x17 <__rc7>
    241e: a9 20        	lda	#$20
    2420: 92 12        	sta	($12)                   ; 0x12 <__rc2>
    2422: a6 14        	ldx	$14                     ; 0x14 <__rc4>
    2424: e8           	inx
    2425: 86 14        	stx	$14                     ; 0x14 <__rc4>
    2427: e4 60        	cpx	$60                     ; 0x60 <_MAX_COL>
    2429: a6 16        	ldx	$16                     ; 0x16 <__rc6>
    242b: 86 12        	stx	$12                     ; 0x12 <__rc2>
    242d: a6 17        	ldx	$17                     ; 0x17 <__rc7>
    242f: 86 13        	stx	$13                     ; 0x13 <__rc3>
    2431: 90 df        	bcc	$2412 <textPrint+0x1e3>
    2433: c6 71        	dec	$71                     ; 0x71 <_row>
    2435: a6 61        	ldx	$61                     ; 0x61 <_MAX_ROW>
    2437: a0 00        	ldy	#$0
    2439: ca           	dex
    243a: e0 ff        	cpx	#$ff
    243c: d0 01        	bne	$243f <textPrint+0x210>
    243e: 88           	dey
    243f: 9c 08 de     	stz	$de08                   ; 0xde08 <end_block9+0x7d80>
    2442: a9 c0        	lda	#$c0
    2444: 8d 09 de     	sta	$de09                   ; 0xde09 <end_block9+0x7d81>
    2447: 9c 0a de     	stz	$de0a                   ; 0xde0a <end_block9+0x7d82>
    244a: 9c 0b de     	stz	$de0b                   ; 0xde0b <end_block9+0x7d83>
    244d: 8e 0c de     	stx	$de0c                   ; 0xde0c <end_block9+0x7d84>
    2450: 8c 0d de     	sty	$de0d                   ; 0xde0d <end_block9+0x7d85>
    2453: 9c 0e de     	stz	$de0e                   ; 0xde0e <end_block9+0x7d86>
    2456: 9c 0f de     	stz	$de0f                   ; 0xde0f <end_block9+0x7d87>
    2459: ae 18 de     	ldx	$de18                   ; 0xde18 <end_block9+0x7d90>
    245c: ac 19 de     	ldy	$de19                   ; 0xde19 <end_block9+0x7d91>
    245f: ad 1a de     	lda	$de1a                   ; 0xde1a <end_block9+0x7d92>
    2462: ad 1b de     	lda	$de1b                   ; 0xde1b <end_block9+0x7d93>
    2465: 86 12        	stx	$12                     ; 0x12 <__rc2>
    2467: 84 13        	sty	$13                     ; 0x13 <__rc3>
    2469: e6 e5        	inc	$e5                     ; 0xe5 <__zp_bss_size+0x72>
    246b: d0 02        	bne	$246f <textPrint+0x240>
    246d: e6 e6        	inc	$e6                     ; 0xe6 <__zp_bss_size+0x73>
    246f: 4c 97 22     	jmp	$2297 <textPrint+0x68>
    2472: a6 e8        	ldx	$e8                     ; 0xe8 <__zp_bss_size+0x75>
    2474: 86 01        	stx	$1                      ; 0x1 <__data_size+0x1>
    2476: a6 70        	ldx	$70                     ; 0x70 <_col>
    2478: a4 71        	ldy	$71                     ; 0x71 <_row>
    247a: 8e 14 d0     	stx	$d014                   ; 0xd014 <end_block9+0x6f8c>
    247d: 9c 15 d0     	stz	$d015                   ; 0xd015 <end_block9+0x6f8d>
    2480: 84 71        	sty	$71                     ; 0x71 <_row>
    2482: 8c 16 d0     	sty	$d016                   ; 0xd016 <end_block9+0x6f8e>
    2485: 9c 17 d0     	stz	$d017                   ; 0xd017 <end_block9+0x6f8f>
    2488: 60           	rts

00002489 <__putchar>:
    2489: 8d a6 5e     	sta	$5ea6                   ; 0x5ea6 <__putchar.s>
    248c: a2 a6        	ldx	#$a6
    248e: 86 12        	stx	$12                     ; 0x12 <__rc2>
    2490: a2 5e        	ldx	#$5e
    2492: 86 13        	stx	$13                     ; 0x13 <__rc3>
    2494: 4c 2f 22     	jmp	$222f <textPrint>

00002497 <pollNES>:
    2497: a2 81        	ldx	#$81
    2499: 8e 80 d8     	stx	$d880                   ; 0xd880 <end_block9+0x77f8>
    249c: ea           	nop
    249d: ea           	nop
    249e: a2 01        	ldx	#$1
    24a0: 8e 80 d8     	stx	$d880                   ; 0xd880 <end_block9+0x77f8>
    24a3: 60           	rts

000024a4 <pollSNES>:
    24a4: a2 85        	ldx	#$85
    24a6: 8e 80 d8     	stx	$d880                   ; 0xd880 <end_block9+0x77f8>
    24a9: ea           	nop
    24aa: ea           	nop
    24ab: a2 05        	ldx	#$5
    24ad: 8e 80 d8     	stx	$d880                   ; 0xd880 <end_block9+0x77f8>
    24b0: 60           	rts

000024b1 <padPollDelayUntilReady>:
    24b1: 80 01        	bra	$24b4 <padPollDelayUntilReady+0x3>
    24b3: ea           	nop
    24b4: ad 80 d8     	lda	$d880                   ; 0xd880 <end_block9+0x77f8>
    24b7: 29 40        	and	#$40
    24b9: f0 f8        	beq	$24b3 <padPollDelayUntilReady+0x2>
    24bb: 60           	rts

000024bc <openAllCODEC>:
    24bc: a2 1f        	ldx	#$1f
    24be: 8e 20 d6     	stx	$d620                   ; 0xd620 <end_block9+0x7598>
    24c1: a2 2a        	ldx	#$2a
    24c3: 8e 21 d6     	stx	$d621                   ; 0xd621 <end_block9+0x7599>
    24c6: a2 01        	ldx	#$1
    24c8: 8e 22 d6     	stx	$d622                   ; 0xd622 <end_block9+0x759a>
    24cb: ad 22 d6     	lda	$d622                   ; 0xd622 <end_block9+0x759a>
    24ce: 29 01        	and	#$1
    24d0: d0 f9        	bne	$24cb <openAllCODEC+0xf>
    24d2: 60           	rts

000024d3 <setTimer>:
    24d3: b2 12        	lda	($12)                   ; 0x12 <__rc2>
    24d5: 85 f3        	sta	$f3                     ; 0xf3 <__zp_bss_size+0x80>
    24d7: a0 01        	ldy	#$1
    24d9: b1 12        	lda	($12),y                 ; 0x12 <__rc2>
    24db: 85 f4        	sta	$f4                     ; 0xf4 <__zp_bss_size+0x81>
    24dd: c8           	iny
    24de: b1 12        	lda	($12),y                 ; 0x12 <__rc2>
    24e0: 85 f5        	sta	$f5                     ; 0xf5 <__zp_bss_size+0x82>
    24e2: a2 e1        	ldx	#$e1
    24e4: a0 00        	ldy	#$0
    24e6: 86 12        	stx	$12                     ; 0x12 <__rc2>
    24e8: 84 13        	sty	$13                     ; 0x13 <__rc3>
    24ea: a2 d3        	ldx	#$d3
    24ec: 86 14        	stx	$14                     ; 0x14 <__rc4>
    24ee: a2 00        	ldx	#$0
    24f0: 86 15        	stx	$15                     ; 0x15 <__rc5>
    24f2: 20 f0 ff     	jsr	$fff0 <end_block9+0x9f68>
    24f5: 92 12        	sta	($12)                   ; 0x12 <__rc2>
    24f7: a9 00        	lda	#$0
    24f9: 6a           	ror
    24fa: 85 14        	sta	$14                     ; 0x14 <__rc4>
    24fc: a6 d3        	ldx	$d3                     ; 0xd3 <kernelError>
    24fe: d0 03        	bne	$2503 <setTimer+0x30>
    2500: a9 01        	lda	#$1
    2502: 60           	rts
    2503: a9 00        	lda	#$0
    2505: 60           	rts

00002506 <getTimerAbsolute>:
    2506: 09 80        	ora	#$80
    2508: 85 f3        	sta	$f3                     ; 0xf3 <__zp_bss_size+0x80>
    250a: a2 e1        	ldx	#$e1
    250c: a0 00        	ldy	#$0
    250e: 86 12        	stx	$12                     ; 0x12 <__rc2>
    2510: 84 13        	sty	$13                     ; 0x13 <__rc3>
    2512: a2 d3        	ldx	#$d3
    2514: 86 14        	stx	$14                     ; 0x14 <__rc4>
    2516: a2 00        	ldx	#$0
    2518: 86 15        	stx	$15                     ; 0x15 <__rc5>
    251a: 20 f0 ff     	jsr	$fff0 <end_block9+0x9f68>
    251d: 92 12        	sta	($12)                   ; 0x12 <__rc2>
    251f: a9 00        	lda	#$0
    2521: 6a           	ror
    2522: 85 14        	sta	$14                     ; 0x14 <__rc4>
    2524: a5 e1        	lda	$e1                     ; 0xe1 <__zp_bss_size+0x6e>
    2526: 60           	rts

00002527 <boostVSClock>:
    2527: a2 03        	ldx	#$3
    2529: 8e 01 d7     	stx	$d701                   ; 0xd701 <end_block9+0x7679>
    252c: 9c 02 d7     	stz	$d702                   ; 0xd702 <end_block9+0x767a>
    252f: 9c 02 d7     	stz	$d702                   ; 0xd702 <end_block9+0x767a>
    2532: a2 e0        	ldx	#$e0
    2534: 8e 03 d7     	stx	$d703                   ; 0xd703 <end_block9+0x767b>
    2537: a2 01        	ldx	#$1
    2539: 8e 00 d7     	stx	$d700                   ; 0xd700 <end_block9+0x7678>
    253c: 9c 00 d7     	stz	$d700                   ; 0xd700 <end_block9+0x7678>
    253f: ae 00 d7     	ldx	$d700                   ; 0xd700 <end_block9+0x7678>
    2542: 30 fb        	bmi	$253f <boostVSClock+0x18>
    2544: 60           	rts

00002545 <initBigPatch>:
    2545: 64 12        	stz	$12                     ; 0x12 <__rc2>
    2547: a0 01        	ldy	#$1
    2549: a2 00        	ldx	#$0
    254b: a5 12        	lda	$12                     ; 0x12 <__rc2>
    254d: 85 14        	sta	$14                     ; 0x14 <__rc4>
    254f: a5 12        	lda	$12                     ; 0x12 <__rc2>
    2551: 0a           	asl
    2552: 85 12        	sta	$12                     ; 0x12 <__rc2>
    2554: 8a           	txa
    2555: 2a           	rol
    2556: 85 13        	sta	$13                     ; 0x13 <__rc3>
    2558: a9 30        	lda	#$30
    255a: 18           	clc
    255b: 65 12        	adc	$12                     ; 0x12 <__rc2>
    255d: 85 12        	sta	$12                     ; 0x12 <__rc2>
    255f: a9 3a        	lda	#$3a
    2561: 65 13        	adc	$13                     ; 0x13 <__rc3>
    2563: 85 15        	sta	$15                     ; 0x15 <__rc5>
    2565: a5 12        	lda	$12                     ; 0x12 <__rc2>
    2567: 85 17        	sta	$17                     ; 0x17 <__rc7>
    2569: a5 15        	lda	$15                     ; 0x15 <__rc5>
    256b: 85 13        	sta	$13                     ; 0x13 <__rc3>
    256d: b2 12        	lda	($12)                   ; 0x12 <__rc2>
    256f: 85 16        	sta	$16                     ; 0x16 <__rc6>
    2571: 18           	clc
    2572: a5 14        	lda	$14                     ; 0x14 <__rc4>
    2574: 85 1a        	sta	$1a                     ; 0x1a <__rc10>
    2576: a5 14        	lda	$14                     ; 0x14 <__rc4>
    2578: 69 02        	adc	#$2
    257a: 85 18        	sta	$18                     ; 0x18 <__rc8>
    257c: 86 19        	stx	$19                     ; 0x19 <__rc9>
    257e: 8a           	txa
    257f: 69 00        	adc	#$0
    2581: aa           	tax
    2582: 18           	clc
    2583: a5 17        	lda	$17                     ; 0x17 <__rc7>
    2585: 69 02        	adc	#$2
    2587: 85 14        	sta	$14                     ; 0x14 <__rc4>
    2589: a5 15        	lda	$15                     ; 0x15 <__rc5>
    258b: 69 00        	adc	#$0
    258d: 85 15        	sta	$15                     ; 0x15 <__rc5>
    258f: b1 12        	lda	($12),y                 ; 0x12 <__rc2>
    2591: 85 17        	sta	$17                     ; 0x17 <__rc7>
    2593: a0 02        	ldy	#$2
    2595: b1 12        	lda	($12),y                 ; 0x12 <__rc2>
    2597: 85 13        	sta	$13                     ; 0x13 <__rc3>
    2599: 88           	dey
    259a: b1 14        	lda	($14),y                 ; 0x14 <__rc4>
    259c: 10 03        	bpl	$25a1 <initBigPatch+0x5c>
    259e: 4c 2f 26     	jmp	$262f <initBigPatch+0xea>
    25a1: 85 12        	sta	$12                     ; 0x12 <__rc2>
    25a3: 85 15        	sta	$15                     ; 0x15 <__rc5>
    25a5: a5 13        	lda	$13                     ; 0x13 <__rc3>
    25a7: e6 12        	inc	$12                     ; 0x12 <__rc2>
    25a9: c6 12        	dec	$12                     ; 0x12 <__rc2>
    25ab: d0 16        	bne	$25c3 <initBigPatch+0x7e>
    25ad: c9 00        	cmp	#$0
    25af: d0 12        	bne	$25c3 <initBigPatch+0x7e>
    25b1: 4c b7 26     	jmp	$26b7 <initBigPatch+0x172>
    25b4: a5 12        	lda	$12                     ; 0x12 <__rc2>
    25b6: 85 15        	sta	$15                     ; 0x15 <__rc5>
    25b8: a5 14        	lda	$14                     ; 0x14 <__rc4>
    25ba: 85 13        	sta	$13                     ; 0x13 <__rc3>
    25bc: a5 12        	lda	$12                     ; 0x12 <__rc2>
    25be: d0 03        	bne	$25c3 <initBigPatch+0x7e>
    25c0: 4c 25 26     	jmp	$2625 <initBigPatch+0xe0>
    25c3: a5 13        	lda	$13                     ; 0x13 <__rc3>
    25c5: 85 14        	sta	$14                     ; 0x14 <__rc4>
    25c7: a5 18        	lda	$18                     ; 0x18 <__rc8>
    25c9: 85 19        	sta	$19                     ; 0x19 <__rc9>
    25cb: a5 18        	lda	$18                     ; 0x18 <__rc8>
    25cd: 0a           	asl
    25ce: 85 12        	sta	$12                     ; 0x12 <__rc2>
    25d0: 86 18        	stx	$18                     ; 0x18 <__rc8>
    25d2: 8a           	txa
    25d3: 2a           	rol
    25d4: 85 13        	sta	$13                     ; 0x13 <__rc3>
    25d6: a9 30        	lda	#$30
    25d8: 18           	clc
    25d9: 65 12        	adc	$12                     ; 0x12 <__rc2>
    25db: 85 12        	sta	$12                     ; 0x12 <__rc2>
    25dd: a9 3a        	lda	#$3a
    25df: 65 13        	adc	$13                     ; 0x13 <__rc3>
    25e1: 85 13        	sta	$13                     ; 0x13 <__rc3>
    25e3: b2 12        	lda	($12)                   ; 0x12 <__rc2>
    25e5: 85 1a        	sta	$1a                     ; 0x1a <__rc10>
    25e7: b1 12        	lda	($12),y                 ; 0x12 <__rc2>
    25e9: a6 16        	ldx	$16                     ; 0x16 <__rc6>
    25eb: 8e 01 d7     	stx	$d701                   ; 0xd701 <end_block9+0x7679>
    25ee: a6 17        	ldx	$17                     ; 0x17 <__rc7>
    25f0: 8e 02 d7     	stx	$d702                   ; 0xd702 <end_block9+0x767a>
    25f3: a6 1a        	ldx	$1a                     ; 0x1a <__rc10>
    25f5: 8e 02 d7     	stx	$d702                   ; 0xd702 <end_block9+0x767a>
    25f8: 8d 03 d7     	sta	$d703                   ; 0xd703 <end_block9+0x767b>
    25fb: 8c 00 d7     	sty	$d700                   ; 0xd700 <end_block9+0x7678>
    25fe: 9c 00 d7     	stz	$d700                   ; 0xd700 <end_block9+0x7678>
    2601: ae 00 d7     	ldx	$d700                   ; 0xd700 <end_block9+0x7678>
    2604: 30 fb        	bmi	$2601 <initBigPatch+0xbc>
    2606: a6 15        	ldx	$15                     ; 0x15 <__rc5>
    2608: 86 12        	stx	$12                     ; 0x12 <__rc2>
    260a: a2 ff        	ldx	#$ff
    260c: c6 14        	dec	$14                     ; 0x14 <__rc4>
    260e: e4 14        	cpx	$14                     ; 0x14 <__rc4>
    2610: d0 02        	bne	$2614 <initBigPatch+0xcf>
    2612: c6 12        	dec	$12                     ; 0x12 <__rc2>
    2614: a6 18        	ldx	$18                     ; 0x18 <__rc8>
    2616: a5 19        	lda	$19                     ; 0x19 <__rc9>
    2618: 85 18        	sta	$18                     ; 0x18 <__rc8>
    261a: e6 18        	inc	$18                     ; 0x18 <__rc8>
    261c: f0 03        	beq	$2621 <initBigPatch+0xdc>
    261e: 4c b4 25     	jmp	$25b4 <initBigPatch+0x6f>
    2621: e8           	inx
    2622: 4c b4 25     	jmp	$25b4 <initBigPatch+0x6f>
    2625: a5 14        	lda	$14                     ; 0x14 <__rc4>
    2627: f0 03        	beq	$262c <initBigPatch+0xe7>
    2629: 4c c3 25     	jmp	$25c3 <initBigPatch+0x7e>
    262c: 4c b7 26     	jmp	$26b7 <initBigPatch+0x172>
    262f: 29 7f        	and	#$7f
    2631: 85 1b        	sta	$1b                     ; 0x1b <__rc11>
    2633: 18           	clc
    2634: a5 1a        	lda	$1a                     ; 0x1a <__rc10>
    2636: 69 03        	adc	#$3
    2638: 85 15        	sta	$15                     ; 0x15 <__rc5>
    263a: a5 19        	lda	$19                     ; 0x19 <__rc9>
    263c: 69 00        	adc	#$0
    263e: 5a           	phy
    263f: a4 13        	ldy	$13                     ; 0x13 <__rc3>
    2641: 84 1a        	sty	$1a                     ; 0x1a <__rc10>
    2643: 7a           	ply
    2644: e6 1b        	inc	$1b                     ; 0x1b <__rc11>
    2646: c6 1b        	dec	$1b                     ; 0x1b <__rc11>
    2648: d0 09        	bne	$2653 <initBigPatch+0x10e>
    264a: e6 1a        	inc	$1a                     ; 0x1a <__rc10>
    264c: c6 1a        	dec	$1a                     ; 0x1a <__rc10>
    264e: d0 03        	bne	$2653 <initBigPatch+0x10e>
    2650: 4c d0 26     	jmp	$26d0 <initBigPatch+0x18b>
    2653: 5a           	phy
    2654: a4 1b        	ldy	$1b                     ; 0x1b <__rc11>
    2656: 84 14        	sty	$14                     ; 0x14 <__rc4>
    2658: 7a           	ply
    2659: 85 19        	sta	$19                     ; 0x19 <__rc9>
    265b: a5 18        	lda	$18                     ; 0x18 <__rc8>
    265d: 85 12        	sta	$12                     ; 0x12 <__rc2>
    265f: 06 12        	asl	$12                     ; 0x12 <__rc2>
    2661: 86 13        	stx	$13                     ; 0x13 <__rc3>
    2663: 26 13        	rol	$13                     ; 0x13 <__rc3>
    2665: 18           	clc
    2666: a9 30        	lda	#$30
    2668: 65 12        	adc	$12                     ; 0x12 <__rc2>
    266a: 85 12        	sta	$12                     ; 0x12 <__rc2>
    266c: a9 3a        	lda	#$3a
    266e: 65 13        	adc	$13                     ; 0x13 <__rc3>
    2670: 85 13        	sta	$13                     ; 0x13 <__rc3>
    2672: b2 12        	lda	($12)                   ; 0x12 <__rc2>
    2674: 85 18        	sta	$18                     ; 0x18 <__rc8>
    2676: b1 12        	lda	($12),y                 ; 0x12 <__rc2>
    2678: 80 06        	bra	$2680 <initBigPatch+0x13b>
    267a: a6 12        	ldx	$12                     ; 0x12 <__rc2>
    267c: 86 14        	stx	$14                     ; 0x14 <__rc4>
    267e: f0 2d        	beq	$26ad <initBigPatch+0x168>
    2680: a6 16        	ldx	$16                     ; 0x16 <__rc6>
    2682: 8e 01 d7     	stx	$d701                   ; 0xd701 <end_block9+0x7679>
    2685: a6 17        	ldx	$17                     ; 0x17 <__rc7>
    2687: 8e 02 d7     	stx	$d702                   ; 0xd702 <end_block9+0x767a>
    268a: a6 18        	ldx	$18                     ; 0x18 <__rc8>
    268c: 8e 02 d7     	stx	$d702                   ; 0xd702 <end_block9+0x767a>
    268f: 8d 03 d7     	sta	$d703                   ; 0xd703 <end_block9+0x767b>
    2692: 8c 00 d7     	sty	$d700                   ; 0xd700 <end_block9+0x7678>
    2695: 9c 00 d7     	stz	$d700                   ; 0xd700 <end_block9+0x7678>
    2698: ae 00 d7     	ldx	$d700                   ; 0xd700 <end_block9+0x7678>
    269b: 30 fb        	bmi	$2698 <initBigPatch+0x153>
    269d: a6 14        	ldx	$14                     ; 0x14 <__rc4>
    269f: 86 12        	stx	$12                     ; 0x12 <__rc2>
    26a1: a2 ff        	ldx	#$ff
    26a3: c6 1a        	dec	$1a                     ; 0x1a <__rc10>
    26a5: e4 1a        	cpx	$1a                     ; 0x1a <__rc10>
    26a7: d0 d1        	bne	$267a <initBigPatch+0x135>
    26a9: c6 12        	dec	$12                     ; 0x12 <__rc2>
    26ab: 80 cd        	bra	$267a <initBigPatch+0x135>
    26ad: a6 1a        	ldx	$1a                     ; 0x1a <__rc10>
    26af: d0 cf        	bne	$2680 <initBigPatch+0x13b>
    26b1: a6 15        	ldx	$15                     ; 0x15 <__rc5>
    26b3: 86 18        	stx	$18                     ; 0x18 <__rc8>
    26b5: a6 19        	ldx	$19                     ; 0x19 <__rc9>
    26b7: a5 18        	lda	$18                     ; 0x18 <__rc8>
    26b9: e0 12        	cpx	#$12
    26bb: d0 09        	bne	$26c6 <initBigPatch+0x181>
    26bd: c9 3b        	cmp	#$3b
    26bf: 85 12        	sta	$12                     ; 0x12 <__rc2>
    26c1: b0 0c        	bcs	$26cf <initBigPatch+0x18a>
    26c3: 4c 4b 25     	jmp	$254b <initBigPatch+0x6>
    26c6: e0 12        	cpx	#$12
    26c8: 85 12        	sta	$12                     ; 0x12 <__rc2>
    26ca: b0 03        	bcs	$26cf <initBigPatch+0x18a>
    26cc: 4c 4b 25     	jmp	$254b <initBigPatch+0x6>
    26cf: 60           	rts
    26d0: a6 15        	ldx	$15                     ; 0x15 <__rc5>
    26d2: 86 18        	stx	$18                     ; 0x18 <__rc8>
    26d4: aa           	tax
    26d5: 80 e0        	bra	$26b7 <initBigPatch+0x172>

000026d7 <exit>:
    26d7: 85 e1        	sta	$e1                     ; 0xe1 <__zp_bss_size+0x6e>
    26d9: 86 e2        	stx	$e2                     ; 0xe2 <__zp_bss_size+0x6f>
    26db: 20 55 03     	jsr	$355 <_fini>
    26de: a6 e2        	ldx	$e2                     ; 0xe2 <__zp_bss_size+0x6f>
    26e0: a5 e1        	lda	$e1                     ; 0xe1 <__zp_bss_size+0x6e>
    26e2: 20 e5 26     	jsr	$26e5 <_Exit>

000026e5 <_Exit>:
    26e5: 80 fe        	bra	$26e5 <_Exit>

000026e7 <vfprintf>:
    26e7: 18           	clc
    26e8: a5 10        	lda	$10                     ; 0x10 <__rc0>
    26ea: 69 e8        	adc	#$e8
    26ec: 85 10        	sta	$10                     ; 0x10 <__rc0>
    26ee: a5 11        	lda	$11                     ; 0x11 <__rc1>
    26f0: 69 ff        	adc	#$ff
    26f2: 85 11        	sta	$11                     ; 0x11 <__rc1>
    26f4: a6 24        	ldx	$24                     ; 0x24 <__rc20>
    26f6: da           	phx
    26f7: a6 25        	ldx	$25                     ; 0x25 <__rc21>
    26f9: da           	phx
    26fa: a6 26        	ldx	$26                     ; 0x26 <__rc22>
    26fc: da           	phx
    26fd: a6 27        	ldx	$27                     ; 0x27 <__rc23>
    26ff: da           	phx
    2700: a5 28        	lda	$28                     ; 0x28 <__rc24>
    2702: a0 01        	ldy	#$1
    2704: 91 10        	sta	($10),y                 ; 0x10 <__rc0>
    2706: a5 29        	lda	$29                     ; 0x29 <__rc25>
    2708: 88           	dey
    2709: 91 10        	sta	($10),y                 ; 0x10 <__rc0>
    270b: a6 12        	ldx	$12                     ; 0x12 <__rc2>
    270d: 86 24        	stx	$24                     ; 0x24 <__rc20>
    270f: a6 13        	ldx	$13                     ; 0x13 <__rc3>
    2711: 86 25        	stx	$25                     ; 0x25 <__rc21>
    2713: a5 16        	lda	$16                     ; 0x16 <__rc6>
    2715: 18           	clc
    2716: 48           	pha
    2717: a5 10        	lda	$10                     ; 0x10 <__rc0>
    2719: 69 16        	adc	#$16
    271b: 85 12        	sta	$12                     ; 0x12 <__rc2>
    271d: a5 11        	lda	$11                     ; 0x11 <__rc1>
    271f: 69 00        	adc	#$0
    2721: 85 13        	sta	$13                     ; 0x13 <__rc3>
    2723: 68           	pla
    2724: 92 12        	sta	($12)                   ; 0x12 <__rc2>
    2726: c8           	iny
    2727: a5 17        	lda	$17                     ; 0x17 <__rc7>
    2729: 91 12        	sta	($12),y                 ; 0x12 <__rc2>
    272b: 18           	clc
    272c: a5 10        	lda	$10                     ; 0x10 <__rc0>
    272e: 69 03        	adc	#$3
    2730: 48           	pha
    2731: a5 11        	lda	$11                     ; 0x11 <__rc1>
    2733: 69 00        	adc	#$0
    2735: a8           	tay
    2736: 68           	pla
    2737: 85 16        	sta	$16                     ; 0x16 <__rc6>
    2739: 84 17        	sty	$17                     ; 0x17 <__rc7>
    273b: 85 28        	sta	$28                     ; 0x28 <__rc24>
    273d: 18           	clc
    273e: 69 03        	adc	#$3
    2740: 85 18        	sta	$18                     ; 0x18 <__rc8>
    2742: 84 29        	sty	$29                     ; 0x29 <__rc25>
    2744: 98           	tya
    2745: 69 00        	adc	#$0
    2747: a0 03        	ldy	#$3
    2749: 85 19        	sta	$19                     ; 0x19 <__rc9>
    274b: a9 ff        	lda	#$ff
    274d: 91 16        	sta	($16),y                 ; 0x16 <__rc6>
    274f: 18           	clc
    2750: a5 10        	lda	$10                     ; 0x10 <__rc0>
    2752: 69 03        	adc	#$3
    2754: 85 1b        	sta	$1b                     ; 0x1b <__rc11>
    2756: a5 11        	lda	$11                     ; 0x11 <__rc1>
    2758: 69 00        	adc	#$0
    275a: 85 1a        	sta	$1a                     ; 0x1a <__rc10>
    275c: a0 01        	ldy	#$1
    275e: a9 ff        	lda	#$ff
    2760: 91 18        	sta	($18),y                 ; 0x18 <__rc8>
    2762: 18           	clc
    2763: a5 1b        	lda	$1b                     ; 0x1b <__rc11>
    2765: 69 05        	adc	#$5
    2767: 85 18        	sta	$18                     ; 0x18 <__rc8>
    2769: a5 1a        	lda	$1a                     ; 0x1a <__rc10>
    276b: 69 00        	adc	#$0
    276d: 85 19        	sta	$19                     ; 0x19 <__rc9>
    276f: 18           	clc
    2770: a5 10        	lda	$10                     ; 0x10 <__rc0>
    2772: 69 03        	adc	#$3
    2774: 48           	pha
    2775: a5 11        	lda	$11                     ; 0x11 <__rc1>
    2777: 69 00        	adc	#$0
    2779: 85 1b        	sta	$1b                     ; 0x1b <__rc11>
    277b: 68           	pla
    277c: 18           	clc
    277d: 69 09        	adc	#$9
    277f: 85 1a        	sta	$1a                     ; 0x1a <__rc10>
    2781: a5 1b        	lda	$1b                     ; 0x1b <__rc11>
    2783: 69 00        	adc	#$0
    2785: 85 1b        	sta	$1b                     ; 0x1b <__rc11>
    2787: a0 09        	ldy	#$9
    2789: a2 00        	ldx	#$0
    278b: 86 1c        	stx	$1c                     ; 0x1c <__rc12>
    278d: a2 00        	ldx	#$0
    278f: 86 1d        	stx	$1d                     ; 0x1d <__rc13>
    2791: a5 1c        	lda	$1c                     ; 0x1c <__rc12>
    2793: 91 16        	sta	($16),y                 ; 0x16 <__rc6>
    2795: a0 0f        	ldy	#$f
    2797: a5 24        	lda	$24                     ; 0x24 <__rc20>
    2799: 91 16        	sta	($16),y                 ; 0x16 <__rc6>
    279b: 18           	clc
    279c: a5 10        	lda	$10                     ; 0x10 <__rc0>
    279e: 69 03        	adc	#$3
    27a0: 85 1c        	sta	$1c                     ; 0x1c <__rc12>
    27a2: a5 11        	lda	$11                     ; 0x11 <__rc1>
    27a4: 69 00        	adc	#$0
    27a6: aa           	tax
    27a7: a5 1d        	lda	$1d                     ; 0x1d <__rc13>
    27a9: a0 01        	ldy	#$1
    27ab: 91 1a        	sta	($1a),y                 ; 0x1a <__rc10>
    27ad: 18           	clc
    27ae: a5 1c        	lda	$1c                     ; 0x1c <__rc12>
    27b0: 69 0f        	adc	#$f
    27b2: 85 1a        	sta	$1a                     ; 0x1a <__rc10>
    27b4: 8a           	txa
    27b5: 69 00        	adc	#$0
    27b7: aa           	tax
    27b8: a0 05        	ldy	#$5
    27ba: a9 00        	lda	#$0
    27bc: 91 16        	sta	($16),y                 ; 0x16 <__rc6>
    27be: 64 1b        	stz	$1b                     ; 0x1b <__rc11>
    27c0: a9 00        	lda	#$0
    27c2: a0 02        	ldy	#$2
    27c4: 91 10        	sta	($10),y                 ; 0x10 <__rc0>
    27c6: 88           	dey
    27c7: a9 00        	lda	#$0
    27c9: 91 18        	sta	($18),y                 ; 0x18 <__rc8>
    27cb: 86 1b        	stx	$1b                     ; 0x1b <__rc11>
    27cd: a5 25        	lda	$25                     ; 0x25 <__rc21>
    27cf: 91 1a        	sta	($1a),y                 ; 0x1a <__rc10>
    27d1: b2 12        	lda	($12)                   ; 0x12 <__rc2>
    27d3: 85 19        	sta	$19                     ; 0x19 <__rc9>
    27d5: b1 12        	lda	($12),y                 ; 0x12 <__rc2>
    27d7: 85 18        	sta	$18                     ; 0x18 <__rc8>
    27d9: a0 11        	ldy	#$11
    27db: a5 19        	lda	$19                     ; 0x19 <__rc9>
    27dd: 91 16        	sta	($16),y                 ; 0x16 <__rc6>
    27df: 18           	clc
    27e0: a5 10        	lda	$10                     ; 0x10 <__rc0>
    27e2: 69 03        	adc	#$3
    27e4: 48           	pha
    27e5: a5 11        	lda	$11                     ; 0x11 <__rc1>
    27e7: 69 00        	adc	#$0
    27e9: 85 12        	sta	$12                     ; 0x12 <__rc2>
    27eb: 68           	pla
    27ec: 18           	clc
    27ed: 69 11        	adc	#$11
    27ef: aa           	tax
    27f0: a5 12        	lda	$12                     ; 0x12 <__rc2>
    27f2: 69 00        	adc	#$0
    27f4: 86 12        	stx	$12                     ; 0x12 <__rc2>
    27f6: 85 13        	sta	$13                     ; 0x13 <__rc3>
    27f8: a5 18        	lda	$18                     ; 0x18 <__rc8>
    27fa: a0 01        	ldy	#$1
    27fc: 91 12        	sta	($12),y                 ; 0x12 <__rc2>
    27fe: a6 14        	ldx	$14                     ; 0x14 <__rc4>
    2800: 86 12        	stx	$12                     ; 0x12 <__rc2>
    2802: a6 15        	ldx	$15                     ; 0x15 <__rc5>
    2804: 86 13        	stx	$13                     ; 0x13 <__rc3>
    2806: a6 12        	ldx	$12                     ; 0x12 <__rc2>
    2808: 86 26        	stx	$26                     ; 0x26 <__rc22>
    280a: a6 13        	ldx	$13                     ; 0x13 <__rc3>
    280c: 86 27        	stx	$27                     ; 0x27 <__rc23>
    280e: b2 12        	lda	($12)                   ; 0x12 <__rc2>
    2810: c9 25        	cmp	#$25
    2812: d0 03        	bne	$2817 <vfprintf+0x130>
    2814: 4c 7f 28     	jmp	$287f <vfprintf+0x198>
    2817: aa           	tax
    2818: d0 03        	bne	$281d <vfprintf+0x136>
    281a: 4c d7 28     	jmp	$28d7 <vfprintf+0x1f0>
    281d: a6 24        	ldx	$24                     ; 0x24 <__rc20>
    281f: 86 12        	stx	$12                     ; 0x12 <__rc2>
    2821: a6 25        	ldx	$25                     ; 0x25 <__rc21>
    2823: 86 13        	stx	$13                     ; 0x13 <__rc3>
    2825: 48           	pha
    2826: a0 02        	ldy	#$2
    2828: b1 10        	lda	($10),y                 ; 0x10 <__rc0>
    282a: aa           	tax
    282b: 68           	pla
    282c: 20 21 37     	jsr	$3721 <putc>
    282f: e0 ff        	cpx	#$ff
    2831: d0 07        	bne	$283a <vfprintf+0x153>
    2833: c9 ff        	cmp	#$ff
    2835: d0 03        	bne	$283a <vfprintf+0x153>
    2837: 4c a1 28     	jmp	$28a1 <vfprintf+0x1ba>
    283a: e6 26        	inc	$26                     ; 0x26 <__rc22>
    283c: d0 02        	bne	$2840 <vfprintf+0x159>
    283e: e6 27        	inc	$27                     ; 0x27 <__rc23>
    2840: 18           	clc
    2841: a5 10        	lda	$10                     ; 0x10 <__rc0>
    2843: 69 03        	adc	#$3
    2845: 48           	pha
    2846: a5 11        	lda	$11                     ; 0x11 <__rc1>
    2848: 69 00        	adc	#$0
    284a: aa           	tax
    284b: 68           	pla
    284c: 85 12        	sta	$12                     ; 0x12 <__rc2>
    284e: 86 13        	stx	$13                     ; 0x13 <__rc3>
    2850: 18           	clc
    2851: 69 05        	adc	#$5
    2853: 85 14        	sta	$14                     ; 0x14 <__rc4>
    2855: 8a           	txa
    2856: 69 00        	adc	#$0
    2858: 85 15        	sta	$15                     ; 0x15 <__rc5>
    285a: a0 05        	ldy	#$5
    285c: b1 12        	lda	($12),y                 ; 0x12 <__rc2>
    285e: 85 16        	sta	$16                     ; 0x16 <__rc6>
    2860: a0 01        	ldy	#$1
    2862: b1 14        	lda	($14),y                 ; 0x14 <__rc4>
    2864: aa           	tax
    2865: a5 16        	lda	$16                     ; 0x16 <__rc6>
    2867: 1a           	inc
    2868: d0 01        	bne	$286b <vfprintf+0x184>
    286a: e8           	inx
    286b: a0 05        	ldy	#$5
    286d: 91 12        	sta	($12),y                 ; 0x12 <__rc2>
    286f: 8a           	txa
    2870: a0 01        	ldy	#$1
    2872: 91 14        	sta	($14),y                 ; 0x14 <__rc4>
    2874: a6 26        	ldx	$26                     ; 0x26 <__rc22>
    2876: 86 12        	stx	$12                     ; 0x12 <__rc2>
    2878: a6 27        	ldx	$27                     ; 0x27 <__rc23>
    287a: 86 13        	stx	$13                     ; 0x13 <__rc3>
    287c: 4c 06 28     	jmp	$2806 <vfprintf+0x11f>
    287f: a6 28        	ldx	$28                     ; 0x28 <__rc24>
    2881: 86 14        	stx	$14                     ; 0x14 <__rc4>
    2883: a6 29        	ldx	$29                     ; 0x29 <__rc25>
    2885: 86 15        	stx	$15                     ; 0x15 <__rc5>
    2887: 20 ff 28     	jsr	$28ff <_ZN12_GLOBAL__N_15printEPKcP6Status>
    288a: a6 13        	ldx	$13                     ; 0x13 <__rc3>
    288c: e4 27        	cpx	$27                     ; 0x27 <__rc23>
    288e: f0 03        	beq	$2893 <vfprintf+0x1ac>
    2890: 4c 06 28     	jmp	$2806 <vfprintf+0x11f>
    2893: a6 12        	ldx	$12                     ; 0x12 <__rc2>
    2895: e4 26        	cpx	$26                     ; 0x26 <__rc22>
    2897: f0 03        	beq	$289c <vfprintf+0x1b5>
    2899: 4c 06 28     	jmp	$2806 <vfprintf+0x11f>
    289c: b2 26        	lda	($26)                   ; 0x26 <__rc22>
    289e: 4c 1d 28     	jmp	$281d <vfprintf+0x136>
    28a1: a2 ff        	ldx	#$ff
    28a3: 8a           	txa
    28a4: a0 02        	ldy	#$2
    28a6: 91 10        	sta	($10),y                 ; 0x10 <__rc0>
    28a8: 8a           	txa
    28a9: aa           	tax
    28aa: a0 02        	ldy	#$2
    28ac: b1 10        	lda	($10),y                 ; 0x10 <__rc0>
    28ae: 85 20        	sta	$20                     ; 0x20 <__rc16>
    28b0: a0 00        	ldy	#$0
    28b2: b1 10        	lda	($10),y                 ; 0x10 <__rc0>
    28b4: 85 29        	sta	$29                     ; 0x29 <__rc25>
    28b6: c8           	iny
    28b7: b1 10        	lda	($10),y                 ; 0x10 <__rc0>
    28b9: 85 28        	sta	$28                     ; 0x28 <__rc24>
    28bb: 7a           	ply
    28bc: 84 27        	sty	$27                     ; 0x27 <__rc23>
    28be: 7a           	ply
    28bf: 84 26        	sty	$26                     ; 0x26 <__rc22>
    28c1: 7a           	ply
    28c2: 84 25        	sty	$25                     ; 0x25 <__rc21>
    28c4: 7a           	ply
    28c5: 84 24        	sty	$24                     ; 0x24 <__rc20>
    28c7: 18           	clc
    28c8: a5 10        	lda	$10                     ; 0x10 <__rc0>
    28ca: 69 18        	adc	#$18
    28cc: 85 10        	sta	$10                     ; 0x10 <__rc0>
    28ce: a5 11        	lda	$11                     ; 0x11 <__rc1>
    28d0: 69 00        	adc	#$0
    28d2: 85 11        	sta	$11                     ; 0x11 <__rc1>
    28d4: a5 20        	lda	$20                     ; 0x20 <__rc16>
    28d6: 60           	rts
    28d7: a0 05        	ldy	#$5
    28d9: 18           	clc
    28da: a5 10        	lda	$10                     ; 0x10 <__rc0>
    28dc: 69 03        	adc	#$3
    28de: 48           	pha
    28df: a5 11        	lda	$11                     ; 0x11 <__rc1>
    28e1: 69 00        	adc	#$0
    28e3: aa           	tax
    28e4: 68           	pla
    28e5: 85 12        	sta	$12                     ; 0x12 <__rc2>
    28e7: 86 13        	stx	$13                     ; 0x13 <__rc3>
    28e9: 18           	clc
    28ea: 69 05        	adc	#$5
    28ec: 85 14        	sta	$14                     ; 0x14 <__rc4>
    28ee: 8a           	txa
    28ef: 69 00        	adc	#$0
    28f1: 85 15        	sta	$15                     ; 0x15 <__rc5>
    28f3: b1 12        	lda	($12),y                 ; 0x12 <__rc2>
    28f5: a0 02        	ldy	#$2
    28f7: 91 10        	sta	($10),y                 ; 0x10 <__rc0>
    28f9: 88           	dey
    28fa: b1 14        	lda	($14),y                 ; 0x14 <__rc4>
    28fc: 4c a9 28     	jmp	$28a9 <vfprintf+0x1c2>

000028ff <_ZN12_GLOBAL__N_15printEPKcP6Status>:
    28ff: 18           	clc
    2900: a5 10        	lda	$10                     ; 0x10 <__rc0>
    2902: 69 d1        	adc	#$d1
    2904: 85 10        	sta	$10                     ; 0x10 <__rc0>
    2906: a5 11        	lda	$11                     ; 0x11 <__rc1>
    2908: 69 ff        	adc	#$ff
    290a: 85 11        	sta	$11                     ; 0x11 <__rc1>
    290c: a6 24        	ldx	$24                     ; 0x24 <__rc20>
    290e: da           	phx
    290f: a6 25        	ldx	$25                     ; 0x25 <__rc21>
    2911: da           	phx
    2912: a6 26        	ldx	$26                     ; 0x26 <__rc22>
    2914: da           	phx
    2915: a6 27        	ldx	$27                     ; 0x27 <__rc23>
    2917: da           	phx
    2918: a5 28        	lda	$28                     ; 0x28 <__rc24>
    291a: a0 07        	ldy	#$7
    291c: 91 10        	sta	($10),y                 ; 0x10 <__rc0>
    291e: a5 29        	lda	$29                     ; 0x29 <__rc25>
    2920: 88           	dey
    2921: 91 10        	sta	($10),y                 ; 0x10 <__rc0>
    2923: a5 2a        	lda	$2a                     ; 0x2a <__rc26>
    2925: 88           	dey
    2926: 91 10        	sta	($10),y                 ; 0x10 <__rc0>
    2928: a5 2b        	lda	$2b                     ; 0x2b <__rc27>
    292a: 88           	dey
    292b: 91 10        	sta	($10),y                 ; 0x10 <__rc0>
    292d: a5 2c        	lda	$2c                     ; 0x2c <__rc28>
    292f: 88           	dey
    2930: 91 10        	sta	($10),y                 ; 0x10 <__rc0>
    2932: a5 2d        	lda	$2d                     ; 0x2d <__rc29>
    2934: 88           	dey
    2935: 91 10        	sta	($10),y                 ; 0x10 <__rc0>
    2937: a5 2e        	lda	$2e                     ; 0x2e <__rc30>
    2939: 88           	dey
    293a: 91 10        	sta	($10),y                 ; 0x10 <__rc0>
    293c: a5 2f        	lda	$2f                     ; 0x2f <__rc31>
    293e: 88           	dey
    293f: 91 10        	sta	($10),y                 ; 0x10 <__rc0>
    2941: a6 12        	ldx	$12                     ; 0x12 <__rc2>
    2943: 86 28        	stx	$28                     ; 0x28 <__rc24>
    2945: a6 13        	ldx	$13                     ; 0x13 <__rc3>
    2947: 86 29        	stx	$29                     ; 0x29 <__rc25>
    2949: a6 14        	ldx	$14                     ; 0x14 <__rc4>
    294b: 86 24        	stx	$24                     ; 0x24 <__rc20>
    294d: a6 15        	ldx	$15                     ; 0x15 <__rc5>
    294f: 86 25        	stx	$25                     ; 0x25 <__rc21>
    2951: e6 12        	inc	$12                     ; 0x12 <__rc2>
    2953: d0 02        	bne	$2957 <_ZN12_GLOBAL__N_15printEPKcP6Status+0x58>
    2955: e6 13        	inc	$13                     ; 0x13 <__rc3>
    2957: a5 12        	lda	$12                     ; 0x12 <__rc2>
    2959: 18           	clc
    295a: 48           	pha
    295b: a5 10        	lda	$10                     ; 0x10 <__rc0>
    295d: 69 16        	adc	#$16
    295f: 85 26        	sta	$26                     ; 0x26 <__rc22>
    2961: a5 11        	lda	$11                     ; 0x11 <__rc1>
    2963: 69 00        	adc	#$0
    2965: 85 27        	sta	$27                     ; 0x27 <__rc23>
    2967: 68           	pla
    2968: 92 26        	sta	($26)                   ; 0x26 <__rc22>
    296a: a0 01        	ldy	#$1
    296c: a5 13        	lda	$13                     ; 0x13 <__rc3>
    296e: 91 26        	sta	($26),y                 ; 0x26 <__rc22>
    2970: b1 28        	lda	($28),y                 ; 0x28 <__rc24>
    2972: c9 25        	cmp	#$25
    2974: d0 1d        	bne	$2993 <_ZN12_GLOBAL__N_15printEPKcP6Status+0x94>
    2976: a9 25        	lda	#$25
    2978: a6 14        	ldx	$14                     ; 0x14 <__rc4>
    297a: 86 12        	stx	$12                     ; 0x12 <__rc2>
    297c: a6 15        	ldx	$15                     ; 0x15 <__rc5>
    297e: 86 13        	stx	$13                     ; 0x13 <__rc3>
    2980: 20 43 34     	jsr	$3443 <_ZN12_GLOBAL__N_13putEcP6Status>
    2983: a5 28        	lda	$28                     ; 0x28 <__rc24>
    2985: 18           	clc
    2986: 69 02        	adc	#$2
    2988: 85 28        	sta	$28                     ; 0x28 <__rc24>
    298a: a5 29        	lda	$29                     ; 0x29 <__rc25>
    298c: 69 00        	adc	#$0
    298e: 85 29        	sta	$29                     ; 0x29 <__rc25>
    2990: 4c f8 33     	jmp	$33f8 <_ZN12_GLOBAL__N_15printEPKcP6Status+0xaf9>
    2993: 64 2a        	stz	$2a                     ; 0x2a <__rc26>
    2995: 18           	clc
    2996: a5 24        	lda	$24                     ; 0x24 <__rc20>
    2998: 69 0b        	adc	#$b
    299a: 85 16        	sta	$16                     ; 0x16 <__rc6>
    299c: a5 25        	lda	$25                     ; 0x25 <__rc21>
    299e: 69 00        	adc	#$0
    29a0: 85 17        	sta	$17                     ; 0x17 <__rc7>
    29a2: 18           	clc
    29a3: a9 00        	lda	#$0
    29a5: a0 0b        	ldy	#$b
    29a7: 91 10        	sta	($10),y                 ; 0x10 <__rc0>
    29a9: a9 00        	lda	#$0
    29ab: 91 24        	sta	($24),y                 ; 0x24 <__rc20>
    29ad: a5 24        	lda	$24                     ; 0x24 <__rc20>
    29af: 69 0d        	adc	#$d
    29b1: 85 18        	sta	$18                     ; 0x18 <__rc8>
    29b3: a5 25        	lda	$25                     ; 0x25 <__rc21>
    29b5: 69 00        	adc	#$0
    29b7: e6 14        	inc	$14                     ; 0x14 <__rc4>
    29b9: d0 02        	bne	$29bd <_ZN12_GLOBAL__N_15printEPKcP6Status+0xbe>
    29bb: e6 15        	inc	$15                     ; 0x15 <__rc5>
    29bd: a0 0d        	ldy	#$d
    29bf: 85 19        	sta	$19                     ; 0x19 <__rc9>
    29c1: a9 ff        	lda	#$ff
    29c3: 91 24        	sta	($24),y                 ; 0x24 <__rc20>
    29c5: a0 01        	ldy	#$1
    29c7: 1a           	inc
    29c8: 91 24        	sta	($24),y                 ; 0x24 <__rc20>
    29ca: 91 14        	sta	($14),y                 ; 0x14 <__rc4>
    29cc: 92 24        	sta	($24)                   ; 0x24 <__rc20>
    29ce: 91 16        	sta	($16),y                 ; 0x16 <__rc6>
    29d0: 3a           	dec
    29d1: 91 18        	sta	($18),y                 ; 0x18 <__rc8>
    29d3: 64 18        	stz	$18                     ; 0x18 <__rc8>
    29d5: 80 35        	bra	$2a0c <_ZN12_GLOBAL__N_15printEPKcP6Status+0x10d>
    29d7: a2 02        	ldx	#$2
    29d9: 80 15        	bra	$29f0 <_ZN12_GLOBAL__N_15printEPKcP6Status+0xf1>
    29db: e0 20        	cpx	#$20
    29dd: f0 0f        	beq	$29ee <_ZN12_GLOBAL__N_15printEPKcP6Status+0xef>
    29df: e0 23        	cpx	#$23
    29e1: f0 03        	beq	$29e6 <_ZN12_GLOBAL__N_15printEPKcP6Status+0xe7>
    29e3: 4c 51 2a     	jmp	$2a51 <_ZN12_GLOBAL__N_15printEPKcP6Status+0x152>
    29e6: a2 04        	ldx	#$4
    29e8: 80 06        	bra	$29f0 <_ZN12_GLOBAL__N_15printEPKcP6Status+0xf1>
    29ea: a2 10        	ldx	#$10
    29ec: 80 02        	bra	$29f0 <_ZN12_GLOBAL__N_15printEPKcP6Status+0xf1>
    29ee: a2 08        	ldx	#$8
    29f0: 86 16        	stx	$16                     ; 0x16 <__rc6>
    29f2: a5 18        	lda	$18                     ; 0x18 <__rc8>
    29f4: 05 16        	ora	$16                     ; 0x16 <__rc6>
    29f6: 85 18        	sta	$18                     ; 0x18 <__rc8>
    29f8: 91 24        	sta	($24),y                 ; 0x24 <__rc20>
    29fa: a9 00        	lda	#$0
    29fc: 91 14        	sta	($14),y                 ; 0x14 <__rc4>
    29fe: e6 12        	inc	$12                     ; 0x12 <__rc2>
    2a00: d0 02        	bne	$2a04 <_ZN12_GLOBAL__N_15printEPKcP6Status+0x105>
    2a02: e6 13        	inc	$13                     ; 0x13 <__rc3>
    2a04: a5 12        	lda	$12                     ; 0x12 <__rc2>
    2a06: 92 26        	sta	($26)                   ; 0x26 <__rc22>
    2a08: a5 13        	lda	$13                     ; 0x13 <__rc3>
    2a0a: 91 26        	sta	($26),y                 ; 0x26 <__rc22>
    2a0c: b2 12        	lda	($12)                   ; 0x12 <__rc2>
    2a0e: 18           	clc
    2a0f: aa           	tax
    2a10: 69 d6        	adc	#$d6
    2a12: c9 07        	cmp	#$7
    2a14: b0 c5        	bcs	$29db <_ZN12_GLOBAL__N_15printEPKcP6Status+0xdc>
    2a16: 0a           	asl
    2a17: aa           	tax
    2a18: a9 01        	lda	#$1
    2a1a: 85 16        	sta	$16                     ; 0x16 <__rc6>
    2a1c: 7c d2 39     	jmp	($39d2,x)               ; 0x39d2 <__set_v+0x1>
    2a1f: a0 11        	ldy	#$11
    2a21: a5 24        	lda	$24                     ; 0x24 <__rc20>
    2a23: 18           	clc
    2a24: 69 11        	adc	#$11
    2a26: 85 14        	sta	$14                     ; 0x14 <__rc4>
    2a28: a5 25        	lda	$25                     ; 0x25 <__rc21>
    2a2a: 69 00        	adc	#$0
    2a2c: 85 15        	sta	$15                     ; 0x15 <__rc5>
    2a2e: b1 24        	lda	($24),y                 ; 0x24 <__rc20>
    2a30: 85 16        	sta	$16                     ; 0x16 <__rc6>
    2a32: 18           	clc
    2a33: 69 02        	adc	#$2
    2a35: 91 24        	sta	($24),y                 ; 0x24 <__rc20>
    2a37: a0 01        	ldy	#$1
    2a39: b1 14        	lda	($14),y                 ; 0x14 <__rc4>
    2a3b: 85 17        	sta	$17                     ; 0x17 <__rc7>
    2a3d: 69 00        	adc	#$0
    2a3f: 91 14        	sta	($14),y                 ; 0x14 <__rc4>
    2a41: b2 16        	lda	($16)                   ; 0x16 <__rc6>
    2a43: 85 15        	sta	$15                     ; 0x15 <__rc5>
    2a45: b1 16        	lda	($16),y                 ; 0x16 <__rc6>
    2a47: 85 14        	sta	$14                     ; 0x14 <__rc4>
    2a49: 30 31        	bmi	$2a7c <_ZN12_GLOBAL__N_15printEPKcP6Status+0x17d>
    2a4b: a5 15        	lda	$15                     ; 0x15 <__rc5>
    2a4d: a6 14        	ldx	$14                     ; 0x14 <__rc4>
    2a4f: 80 4d        	bra	$2a9e <_ZN12_GLOBAL__N_15printEPKcP6Status+0x19f>
    2a51: a6 26        	ldx	$26                     ; 0x26 <__rc22>
    2a53: 86 14        	stx	$14                     ; 0x14 <__rc4>
    2a55: a6 27        	ldx	$27                     ; 0x27 <__rc23>
    2a57: 86 15        	stx	$15                     ; 0x15 <__rc5>
    2a59: 20 31 39     	jsr	$3931 <__simple_strtoui>
    2a5c: a0 0b        	ldy	#$b
    2a5e: 91 24        	sta	($24),y                 ; 0x24 <__rc20>
    2a60: 18           	clc
    2a61: a5 24        	lda	$24                     ; 0x24 <__rc20>
    2a63: 69 0b        	adc	#$b
    2a65: 85 12        	sta	$12                     ; 0x12 <__rc2>
    2a67: a5 25        	lda	$25                     ; 0x25 <__rc21>
    2a69: 69 00        	adc	#$0
    2a6b: 85 13        	sta	$13                     ; 0x13 <__rc3>
    2a6d: a0 01        	ldy	#$1
    2a6f: 8a           	txa
    2a70: 91 12        	sta	($12),y                 ; 0x12 <__rc2>
    2a72: b2 26        	lda	($26)                   ; 0x26 <__rc22>
    2a74: 85 12        	sta	$12                     ; 0x12 <__rc2>
    2a76: b1 26        	lda	($26),y                 ; 0x26 <__rc22>
    2a78: 85 13        	sta	$13                     ; 0x13 <__rc3>
    2a7a: 80 46        	bra	$2ac2 <_ZN12_GLOBAL__N_15printEPKcP6Status+0x1c3>
    2a7c: a5 18        	lda	$18                     ; 0x18 <__rc8>
    2a7e: 09 01        	ora	#$1
    2a80: a6 24        	ldx	$24                     ; 0x24 <__rc20>
    2a82: 86 16        	stx	$16                     ; 0x16 <__rc6>
    2a84: a6 25        	ldx	$25                     ; 0x25 <__rc21>
    2a86: 86 17        	stx	$17                     ; 0x17 <__rc7>
    2a88: e6 16        	inc	$16                     ; 0x16 <__rc6>
    2a8a: d0 02        	bne	$2a8e <_ZN12_GLOBAL__N_15printEPKcP6Status+0x18f>
    2a8c: e6 17        	inc	$17                     ; 0x17 <__rc7>
    2a8e: 91 24        	sta	($24),y                 ; 0x24 <__rc20>
    2a90: a9 00        	lda	#$0
    2a92: 91 16        	sta	($16),y                 ; 0x16 <__rc6>
    2a94: 38           	sec
    2a95: e5 15        	sbc	$15                     ; 0x15 <__rc5>
    2a97: a8           	tay
    2a98: a9 00        	lda	#$0
    2a9a: e5 14        	sbc	$14                     ; 0x14 <__rc4>
    2a9c: aa           	tax
    2a9d: 98           	tya
    2a9e: a0 0b        	ldy	#$b
    2aa0: 91 24        	sta	($24),y                 ; 0x24 <__rc20>
    2aa2: 18           	clc
    2aa3: a5 24        	lda	$24                     ; 0x24 <__rc20>
    2aa5: 69 0b        	adc	#$b
    2aa7: 85 14        	sta	$14                     ; 0x14 <__rc4>
    2aa9: a5 25        	lda	$25                     ; 0x25 <__rc21>
    2aab: 69 00        	adc	#$0
    2aad: 85 15        	sta	$15                     ; 0x15 <__rc5>
    2aaf: 8a           	txa
    2ab0: a0 01        	ldy	#$1
    2ab2: 91 14        	sta	($14),y                 ; 0x14 <__rc4>
    2ab4: e6 12        	inc	$12                     ; 0x12 <__rc2>
    2ab6: d0 02        	bne	$2aba <_ZN12_GLOBAL__N_15printEPKcP6Status+0x1bb>
    2ab8: e6 13        	inc	$13                     ; 0x13 <__rc3>
    2aba: a5 13        	lda	$13                     ; 0x13 <__rc3>
    2abc: 91 26        	sta	($26),y                 ; 0x26 <__rc22>
    2abe: a5 12        	lda	$12                     ; 0x12 <__rc2>
    2ac0: 92 26        	sta	($26)                   ; 0x26 <__rc22>
    2ac2: b2 12        	lda	($12)                   ; 0x12 <__rc2>
    2ac4: c9 2e        	cmp	#$2e
    2ac6: f0 03        	beq	$2acb <_ZN12_GLOBAL__N_15printEPKcP6Status+0x1cc>
    2ac8: 4c e0 2b     	jmp	$2be0 <_ZN12_GLOBAL__N_15printEPKcP6Status+0x2e1>
    2acb: a6 12        	ldx	$12                     ; 0x12 <__rc2>
    2acd: 86 14        	stx	$14                     ; 0x14 <__rc4>
    2acf: a6 13        	ldx	$13                     ; 0x13 <__rc3>
    2ad1: 86 15        	stx	$15                     ; 0x15 <__rc5>
    2ad3: e6 14        	inc	$14                     ; 0x14 <__rc4>
    2ad5: d0 02        	bne	$2ad9 <_ZN12_GLOBAL__N_15printEPKcP6Status+0x1da>
    2ad7: e6 15        	inc	$15                     ; 0x15 <__rc5>
    2ad9: a5 14        	lda	$14                     ; 0x14 <__rc4>
    2adb: 92 26        	sta	($26)                   ; 0x26 <__rc22>
    2add: a5 15        	lda	$15                     ; 0x15 <__rc5>
    2adf: 91 26        	sta	($26),y                 ; 0x26 <__rc22>
    2ae1: b1 12        	lda	($12),y                 ; 0x12 <__rc2>
    2ae3: c9 2a        	cmp	#$2a
    2ae5: f0 03        	beq	$2aea <_ZN12_GLOBAL__N_15printEPKcP6Status+0x1eb>
    2ae7: 4c 55 2b     	jmp	$2b55 <_ZN12_GLOBAL__N_15printEPKcP6Status+0x256>
    2aea: a4 24        	ldy	$24                     ; 0x24 <__rc20>
    2aec: a5 24        	lda	$24                     ; 0x24 <__rc20>
    2aee: 84 18        	sty	$18                     ; 0x18 <__rc8>
    2af0: 18           	clc
    2af1: 69 11        	adc	#$11
    2af3: 85 14        	sta	$14                     ; 0x14 <__rc4>
    2af5: a5 25        	lda	$25                     ; 0x25 <__rc21>
    2af7: 69 00        	adc	#$0
    2af9: a0 11        	ldy	#$11
    2afb: 85 15        	sta	$15                     ; 0x15 <__rc5>
    2afd: b1 24        	lda	($24),y                 ; 0x24 <__rc20>
    2aff: 85 16        	sta	$16                     ; 0x16 <__rc6>
    2b01: a0 01        	ldy	#$1
    2b03: b1 14        	lda	($14),y                 ; 0x14 <__rc4>
    2b05: 85 19        	sta	$19                     ; 0x19 <__rc9>
    2b07: a5 16        	lda	$16                     ; 0x16 <__rc6>
    2b09: a6 19        	ldx	$19                     ; 0x19 <__rc9>
    2b0b: 86 17        	stx	$17                     ; 0x17 <__rc7>
    2b0d: 18           	clc
    2b0e: 69 02        	adc	#$2
    2b10: 85 1a        	sta	$1a                     ; 0x1a <__rc10>
    2b12: a5 19        	lda	$19                     ; 0x19 <__rc9>
    2b14: 69 00        	adc	#$0
    2b16: 85 19        	sta	$19                     ; 0x19 <__rc9>
    2b18: a0 11        	ldy	#$11
    2b1a: a5 1a        	lda	$1a                     ; 0x1a <__rc10>
    2b1c: 91 24        	sta	($24),y                 ; 0x24 <__rc20>
    2b1e: a5 19        	lda	$19                     ; 0x19 <__rc9>
    2b20: a0 01        	ldy	#$1
    2b22: 91 14        	sta	($14),y                 ; 0x14 <__rc4>
    2b24: b2 16        	lda	($16)                   ; 0x16 <__rc6>
    2b26: 85 14        	sta	$14                     ; 0x14 <__rc4>
    2b28: b1 16        	lda	($16),y                 ; 0x16 <__rc6>
    2b2a: 85 16        	sta	$16                     ; 0x16 <__rc6>
    2b2c: a0 0d        	ldy	#$d
    2b2e: a5 14        	lda	$14                     ; 0x14 <__rc4>
    2b30: 91 24        	sta	($24),y                 ; 0x24 <__rc20>
    2b32: 18           	clc
    2b33: a5 18        	lda	$18                     ; 0x18 <__rc8>
    2b35: 69 0d        	adc	#$d
    2b37: 85 14        	sta	$14                     ; 0x14 <__rc4>
    2b39: a5 25        	lda	$25                     ; 0x25 <__rc21>
    2b3b: 69 00        	adc	#$0
    2b3d: 18           	clc
    2b3e: 85 15        	sta	$15                     ; 0x15 <__rc5>
    2b40: a5 16        	lda	$16                     ; 0x16 <__rc6>
    2b42: a0 01        	ldy	#$1
    2b44: 91 14        	sta	($14),y                 ; 0x14 <__rc4>
    2b46: a5 12        	lda	$12                     ; 0x12 <__rc2>
    2b48: 69 02        	adc	#$2
    2b4a: 85 12        	sta	$12                     ; 0x12 <__rc2>
    2b4c: a5 13        	lda	$13                     ; 0x13 <__rc3>
    2b4e: 69 00        	adc	#$0
    2b50: 85 13        	sta	$13                     ; 0x13 <__rc3>
    2b52: 4c c4 2b     	jmp	$2bc4 <_ZN12_GLOBAL__N_15printEPKcP6Status+0x2c5>
    2b55: a6 28        	ldx	$28                     ; 0x28 <__rc24>
    2b57: 86 2c        	stx	$2c                     ; 0x2c <__rc28>
    2b59: a6 29        	ldx	$29                     ; 0x29 <__rc25>
    2b5b: 86 2d        	stx	$2d                     ; 0x2d <__rc29>
    2b5d: a6 14        	ldx	$14                     ; 0x14 <__rc4>
    2b5f: 86 12        	stx	$12                     ; 0x12 <__rc2>
    2b61: a6 15        	ldx	$15                     ; 0x15 <__rc5>
    2b63: 86 13        	stx	$13                     ; 0x13 <__rc3>
    2b65: 18           	clc
    2b66: a5 10        	lda	$10                     ; 0x10 <__rc0>
    2b68: 69 18        	adc	#$18
    2b6a: 85 28        	sta	$28                     ; 0x28 <__rc24>
    2b6c: a5 11        	lda	$11                     ; 0x11 <__rc1>
    2b6e: 69 00        	adc	#$0
    2b70: 85 29        	sta	$29                     ; 0x29 <__rc25>
    2b72: a6 28        	ldx	$28                     ; 0x28 <__rc24>
    2b74: 86 14        	stx	$14                     ; 0x14 <__rc4>
    2b76: 85 15        	sta	$15                     ; 0x15 <__rc5>
    2b78: 20 31 39     	jsr	$3931 <__simple_strtoui>
    2b7b: a0 0d        	ldy	#$d
    2b7d: 91 24        	sta	($24),y                 ; 0x24 <__rc20>
    2b7f: 18           	clc
    2b80: a5 24        	lda	$24                     ; 0x24 <__rc20>
    2b82: 69 0d        	adc	#$d
    2b84: 85 12        	sta	$12                     ; 0x12 <__rc2>
    2b86: a5 25        	lda	$25                     ; 0x25 <__rc21>
    2b88: 69 00        	adc	#$0
    2b8a: 85 13        	sta	$13                     ; 0x13 <__rc3>
    2b8c: a0 01        	ldy	#$1
    2b8e: 8a           	txa
    2b8f: 91 12        	sta	($12),y                 ; 0x12 <__rc2>
    2b91: b2 28        	lda	($28)                   ; 0x28 <__rc24>
    2b93: 85 12        	sta	$12                     ; 0x12 <__rc2>
    2b95: b1 28        	lda	($28),y                 ; 0x28 <__rc24>
    2b97: 85 13        	sta	$13                     ; 0x13 <__rc3>
    2b99: b1 26        	lda	($26),y                 ; 0x26 <__rc22>
    2b9b: c5 13        	cmp	$13                     ; 0x13 <__rc3>
    2b9d: d0 1d        	bne	$2bbc <_ZN12_GLOBAL__N_15printEPKcP6Status+0x2bd>
    2b9f: b2 26        	lda	($26)                   ; 0x26 <__rc22>
    2ba1: c5 12        	cmp	$12                     ; 0x12 <__rc2>
    2ba3: d0 17        	bne	$2bbc <_ZN12_GLOBAL__N_15printEPKcP6Status+0x2bd>
    2ba5: a0 0d        	ldy	#$d
    2ba7: a5 24        	lda	$24                     ; 0x24 <__rc20>
    2ba9: 18           	clc
    2baa: 69 0d        	adc	#$d
    2bac: 85 14        	sta	$14                     ; 0x14 <__rc4>
    2bae: a5 25        	lda	$25                     ; 0x25 <__rc21>
    2bb0: 69 00        	adc	#$0
    2bb2: 85 15        	sta	$15                     ; 0x15 <__rc5>
    2bb4: a9 00        	lda	#$0
    2bb6: 91 24        	sta	($24),y                 ; 0x24 <__rc20>
    2bb8: a0 01        	ldy	#$1
    2bba: 91 14        	sta	($14),y                 ; 0x14 <__rc4>
    2bbc: a6 2c        	ldx	$2c                     ; 0x2c <__rc28>
    2bbe: 86 28        	stx	$28                     ; 0x28 <__rc24>
    2bc0: a6 2d        	ldx	$2d                     ; 0x2d <__rc29>
    2bc2: 86 29        	stx	$29                     ; 0x29 <__rc25>
    2bc4: a6 24        	ldx	$24                     ; 0x24 <__rc20>
    2bc6: 86 14        	stx	$14                     ; 0x14 <__rc4>
    2bc8: a6 25        	ldx	$25                     ; 0x25 <__rc21>
    2bca: 86 15        	stx	$15                     ; 0x15 <__rc5>
    2bcc: e6 14        	inc	$14                     ; 0x14 <__rc4>
    2bce: d0 02        	bne	$2bd2 <_ZN12_GLOBAL__N_15printEPKcP6Status+0x2d3>
    2bd0: e6 15        	inc	$15                     ; 0x15 <__rc5>
    2bd2: b1 14        	lda	($14),y                 ; 0x14 <__rc4>
    2bd4: 85 16        	sta	$16                     ; 0x16 <__rc6>
    2bd6: a9 ef        	lda	#$ef
    2bd8: 31 24        	and	($24),y                 ; 0x24 <__rc20>
    2bda: 91 24        	sta	($24),y                 ; 0x24 <__rc20>
    2bdc: a5 16        	lda	$16                     ; 0x16 <__rc6>
    2bde: 91 14        	sta	($14),y                 ; 0x14 <__rc4>
    2be0: a6 12        	ldx	$12                     ; 0x12 <__rc2>
    2be2: 86 14        	stx	$14                     ; 0x14 <__rc4>
    2be4: a6 13        	ldx	$13                     ; 0x13 <__rc3>
    2be6: 86 15        	stx	$15                     ; 0x15 <__rc5>
    2be8: e6 14        	inc	$14                     ; 0x14 <__rc4>
    2bea: d0 02        	bne	$2bee <_ZN12_GLOBAL__N_15printEPKcP6Status+0x2ef>
    2bec: e6 15        	inc	$15                     ; 0x15 <__rc5>
    2bee: a5 14        	lda	$14                     ; 0x14 <__rc4>
    2bf0: 92 26        	sta	($26)                   ; 0x26 <__rc22>
    2bf2: a5 15        	lda	$15                     ; 0x15 <__rc5>
    2bf4: 91 26        	sta	($26),y                 ; 0x26 <__rc22>
    2bf6: b2 12        	lda	($12)                   ; 0x12 <__rc2>
    2bf8: 38           	sec
    2bf9: aa           	tax
    2bfa: e9 6c        	sbc	#$6c
    2bfc: 50 02        	bvc	$2c00 <_ZN12_GLOBAL__N_15printEPKcP6Status+0x301>
    2bfe: 49 80        	eor	#$80
    2c00: c9 00        	cmp	#$0
    2c02: 10 16        	bpl	$2c1a <_ZN12_GLOBAL__N_15printEPKcP6Status+0x31b>
    2c04: e0 4c        	cpx	#$4c
    2c06: f0 3c        	beq	$2c44 <_ZN12_GLOBAL__N_15printEPKcP6Status+0x345>
    2c08: 8a           	txa
    2c09: e0 68        	cpx	#$68
    2c0b: d0 03        	bne	$2c10 <_ZN12_GLOBAL__N_15printEPKcP6Status+0x311>
    2c0d: 4c c0 2c     	jmp	$2cc0 <_ZN12_GLOBAL__N_15printEPKcP6Status+0x3c1>
    2c10: a2 08        	ldx	#$8
    2c12: a0 08        	ldy	#$8
    2c14: c9 6a        	cmp	#$6a
    2c16: d0 14        	bne	$2c2c <_ZN12_GLOBAL__N_15printEPKcP6Status+0x32d>
    2c18: 80 4a        	bra	$2c64 <_ZN12_GLOBAL__N_15printEPKcP6Status+0x365>
    2c1a: e0 6c        	cpx	#$6c
    2c1c: d0 03        	bne	$2c21 <_ZN12_GLOBAL__N_15printEPKcP6Status+0x322>
    2c1e: 4c 8b 2c     	jmp	$2c8b <_ZN12_GLOBAL__N_15printEPKcP6Status+0x38c>
    2c21: 8a           	txa
    2c22: e0 74        	cpx	#$74
    2c24: f0 3a        	beq	$2c60 <_ZN12_GLOBAL__N_15printEPKcP6Status+0x361>
    2c26: a2 02        	ldx	#$2
    2c28: c9 7a        	cmp	#$7a
    2c2a: f0 14        	beq	$2c40 <_ZN12_GLOBAL__N_15printEPKcP6Status+0x341>
    2c2c: a5 12        	lda	$12                     ; 0x12 <__rc2>
    2c2e: 92 26        	sta	($26)                   ; 0x26 <__rc22>
    2c30: a0 01        	ldy	#$1
    2c32: a5 13        	lda	$13                     ; 0x13 <__rc3>
    2c34: 91 26        	sta	($26),y                 ; 0x26 <__rc22>
    2c36: a6 12        	ldx	$12                     ; 0x12 <__rc2>
    2c38: 86 14        	stx	$14                     ; 0x14 <__rc4>
    2c3a: a6 13        	ldx	$13                     ; 0x13 <__rc3>
    2c3c: 86 15        	stx	$15                     ; 0x15 <__rc5>
    2c3e: a2 02        	ldx	#$2
    2c40: a0 02        	ldy	#$2
    2c42: 80 20        	bra	$2c64 <_ZN12_GLOBAL__N_15printEPKcP6Status+0x365>
    2c44: a6 24        	ldx	$24                     ; 0x24 <__rc20>
    2c46: 86 12        	stx	$12                     ; 0x12 <__rc2>
    2c48: a6 25        	ldx	$25                     ; 0x25 <__rc21>
    2c4a: 86 13        	stx	$13                     ; 0x13 <__rc3>
    2c4c: e6 12        	inc	$12                     ; 0x12 <__rc2>
    2c4e: d0 02        	bne	$2c52 <_ZN12_GLOBAL__N_15printEPKcP6Status+0x353>
    2c50: e6 13        	inc	$13                     ; 0x13 <__rc3>
    2c52: b1 12        	lda	($12),y                 ; 0x12 <__rc2>
    2c54: 85 16        	sta	$16                     ; 0x16 <__rc6>
    2c56: a9 40        	lda	#$40
    2c58: 11 24        	ora	($24),y                 ; 0x24 <__rc20>
    2c5a: 91 24        	sta	($24),y                 ; 0x24 <__rc20>
    2c5c: a5 16        	lda	$16                     ; 0x16 <__rc6>
    2c5e: 91 12        	sta	($12),y                 ; 0x12 <__rc2>
    2c60: a0 02        	ldy	#$2
    2c62: a2 02        	ldx	#$2
    2c64: b2 14        	lda	($14)                   ; 0x14 <__rc4>
    2c66: 85 16        	sta	$16                     ; 0x16 <__rc6>
    2c68: 86 2b        	stx	$2b                     ; 0x2b <__rc27>
    2c6a: 98           	tya
    2c6b: a0 0c        	ldy	#$c
    2c6d: 91 10        	sta	($10),y                 ; 0x10 <__rc0>
    2c6f: 18           	clc
    2c70: a5 16        	lda	$16                     ; 0x16 <__rc6>
    2c72: 69 9d        	adc	#$9d
    2c74: c9 16        	cmp	#$16
    2c76: 90 03        	bcc	$2c7b <_ZN12_GLOBAL__N_15printEPKcP6Status+0x37c>
    2c78: 4c f4 2c     	jmp	$2cf4 <_ZN12_GLOBAL__N_15printEPKcP6Status+0x3f5>
    2c7b: aa           	tax
    2c7c: b1 10        	lda	($10),y                 ; 0x10 <__rc0>
    2c7e: 8a           	txa
    2c7f: 0a           	asl
    2c80: aa           	tax
    2c81: 7c e0 39     	jmp	($39e0,x)               ; 0x39e0 <__set_v+0xf>
    2c84: a9 0a        	lda	#$a
    2c86: 92 24        	sta	($24)                   ; 0x24 <__rc20>
    2c88: 4c 5d 2e     	jmp	$2e5d <_ZN12_GLOBAL__N_15printEPKcP6Status+0x55e>
    2c8b: b1 12        	lda	($12),y                 ; 0x12 <__rc2>
    2c8d: a2 04        	ldx	#$4
    2c8f: a0 04        	ldy	#$4
    2c91: 48           	pha
    2c92: 98           	tya
    2c93: a0 0c        	ldy	#$c
    2c95: 91 10        	sta	($10),y                 ; 0x10 <__rc0>
    2c97: 68           	pla
    2c98: 86 2b        	stx	$2b                     ; 0x2b <__rc27>
    2c9a: 85 16        	sta	$16                     ; 0x16 <__rc6>
    2c9c: c9 6c        	cmp	#$6c
    2c9e: d0 cf        	bne	$2c6f <_ZN12_GLOBAL__N_15printEPKcP6Status+0x370>
    2ca0: a5 12        	lda	$12                     ; 0x12 <__rc2>
    2ca2: 18           	clc
    2ca3: 69 02        	adc	#$2
    2ca5: aa           	tax
    2ca6: a5 13        	lda	$13                     ; 0x13 <__rc3>
    2ca8: 69 00        	adc	#$0
    2caa: 86 14        	stx	$14                     ; 0x14 <__rc4>
    2cac: 85 15        	sta	$15                     ; 0x15 <__rc5>
    2cae: 85 12        	sta	$12                     ; 0x12 <__rc2>
    2cb0: 8a           	txa
    2cb1: 92 26        	sta	($26)                   ; 0x26 <__rc22>
    2cb3: a0 01        	ldy	#$1
    2cb5: a5 12        	lda	$12                     ; 0x12 <__rc2>
    2cb7: 91 26        	sta	($26),y                 ; 0x26 <__rc22>
    2cb9: a2 08        	ldx	#$8
    2cbb: a0 08        	ldy	#$8
    2cbd: 4c 64 2c     	jmp	$2c64 <_ZN12_GLOBAL__N_15printEPKcP6Status+0x365>
    2cc0: b1 12        	lda	($12),y                 ; 0x12 <__rc2>
    2cc2: a2 02        	ldx	#$2
    2cc4: a0 02        	ldy	#$2
    2cc6: 48           	pha
    2cc7: 98           	tya
    2cc8: a0 0c        	ldy	#$c
    2cca: 91 10        	sta	($10),y                 ; 0x10 <__rc0>
    2ccc: 68           	pla
    2ccd: 86 2b        	stx	$2b                     ; 0x2b <__rc27>
    2ccf: 85 16        	sta	$16                     ; 0x16 <__rc6>
    2cd1: c9 68        	cmp	#$68
    2cd3: f0 03        	beq	$2cd8 <_ZN12_GLOBAL__N_15printEPKcP6Status+0x3d9>
    2cd5: 4c 6f 2c     	jmp	$2c6f <_ZN12_GLOBAL__N_15printEPKcP6Status+0x370>
    2cd8: a5 12        	lda	$12                     ; 0x12 <__rc2>
    2cda: 18           	clc
    2cdb: 69 02        	adc	#$2
    2cdd: aa           	tax
    2cde: a5 13        	lda	$13                     ; 0x13 <__rc3>
    2ce0: 69 00        	adc	#$0
    2ce2: 86 14        	stx	$14                     ; 0x14 <__rc4>
    2ce4: 85 15        	sta	$15                     ; 0x15 <__rc5>
    2ce6: 85 12        	sta	$12                     ; 0x12 <__rc2>
    2ce8: 8a           	txa
    2ce9: 92 26        	sta	($26)                   ; 0x26 <__rc22>
    2ceb: a0 01        	ldy	#$1
    2ced: a5 12        	lda	$12                     ; 0x12 <__rc2>
    2cef: 91 26        	sta	($26),y                 ; 0x26 <__rc22>
    2cf1: 4c 62 2c     	jmp	$2c62 <_ZN12_GLOBAL__N_15printEPKcP6Status+0x363>
    2cf4: a6 16        	ldx	$16                     ; 0x16 <__rc6>
    2cf6: e0 58        	cpx	#$58
    2cf8: f0 03        	beq	$2cfd <_ZN12_GLOBAL__N_15printEPKcP6Status+0x3fe>
    2cfa: 4c f8 33     	jmp	$33f8 <_ZN12_GLOBAL__N_15printEPKcP6Status+0xaf9>
    2cfd: a9 10        	lda	#$10
    2cff: 4c 3c 2e     	jmp	$2e3c <_ZN12_GLOBAL__N_15printEPKcP6Status+0x53d>
    2d02: a9 10        	lda	#$10
    2d04: 92 24        	sta	($24)                   ; 0x24 <__rc20>
    2d06: a6 24        	ldx	$24                     ; 0x24 <__rc20>
    2d08: 86 12        	stx	$12                     ; 0x12 <__rc2>
    2d0a: a6 25        	ldx	$25                     ; 0x25 <__rc21>
    2d0c: 86 13        	stx	$13                     ; 0x13 <__rc3>
    2d0e: e6 12        	inc	$12                     ; 0x12 <__rc2>
    2d10: d0 02        	bne	$2d14 <_ZN12_GLOBAL__N_15printEPKcP6Status+0x415>
    2d12: e6 13        	inc	$13                     ; 0x13 <__rc3>
    2d14: a0 01        	ldy	#$1
    2d16: a9 84        	lda	#$84
    2d18: 80 16        	bra	$2d30 <_ZN12_GLOBAL__N_15printEPKcP6Status+0x431>
    2d1a: a9 10        	lda	#$10
    2d1c: 92 24        	sta	($24)                   ; 0x24 <__rc20>
    2d1e: a6 24        	ldx	$24                     ; 0x24 <__rc20>
    2d20: 86 12        	stx	$12                     ; 0x12 <__rc2>
    2d22: a6 25        	ldx	$25                     ; 0x25 <__rc21>
    2d24: 86 13        	stx	$13                     ; 0x13 <__rc3>
    2d26: e6 12        	inc	$12                     ; 0x12 <__rc2>
    2d28: d0 02        	bne	$2d2c <_ZN12_GLOBAL__N_15printEPKcP6Status+0x42d>
    2d2a: e6 13        	inc	$13                     ; 0x13 <__rc3>
    2d2c: a0 01        	ldy	#$1
    2d2e: a9 80        	lda	#$80
    2d30: 11 24        	ora	($24),y                 ; 0x24 <__rc20>
    2d32: aa           	tax
    2d33: a9 01        	lda	#$1
    2d35: 11 12        	ora	($12),y                 ; 0x12 <__rc2>
    2d37: 85 14        	sta	$14                     ; 0x14 <__rc4>
    2d39: 8a           	txa
    2d3a: 91 24        	sta	($24),y                 ; 0x24 <__rc20>
    2d3c: a5 14        	lda	$14                     ; 0x14 <__rc4>
    2d3e: 4c 5b 2e     	jmp	$2e5b <_ZN12_GLOBAL__N_15printEPKcP6Status+0x55c>
    2d41: a4 24        	ldy	$24                     ; 0x24 <__rc20>
    2d43: 18           	clc
    2d44: a5 24        	lda	$24                     ; 0x24 <__rc20>
    2d46: 84 18        	sty	$18                     ; 0x18 <__rc8>
    2d48: 69 11        	adc	#$11
    2d4a: 85 12        	sta	$12                     ; 0x12 <__rc2>
    2d4c: a5 25        	lda	$25                     ; 0x25 <__rc21>
    2d4e: 69 00        	adc	#$0
    2d50: 85 13        	sta	$13                     ; 0x13 <__rc3>
    2d52: a0 11        	ldy	#$11
    2d54: b1 24        	lda	($24),y                 ; 0x24 <__rc20>
    2d56: 85 16        	sta	$16                     ; 0x16 <__rc6>
    2d58: 18           	clc
    2d59: 69 02        	adc	#$2
    2d5b: 91 24        	sta	($24),y                 ; 0x24 <__rc20>
    2d5d: a0 01        	ldy	#$1
    2d5f: b1 12        	lda	($12),y                 ; 0x12 <__rc2>
    2d61: 85 17        	sta	$17                     ; 0x17 <__rc7>
    2d63: 69 00        	adc	#$0
    2d65: 18           	clc
    2d66: 91 12        	sta	($12),y                 ; 0x12 <__rc2>
    2d68: b2 16        	lda	($16)                   ; 0x16 <__rc6>
    2d6a: 85 12        	sta	$12                     ; 0x12 <__rc2>
    2d6c: b1 16        	lda	($16),y                 ; 0x16 <__rc6>
    2d6e: 85 13        	sta	$13                     ; 0x13 <__rc3>
    2d70: a5 18        	lda	$18                     ; 0x18 <__rc8>
    2d72: 69 05        	adc	#$5
    2d74: 85 16        	sta	$16                     ; 0x16 <__rc6>
    2d76: a5 25        	lda	$25                     ; 0x25 <__rc21>
    2d78: 69 00        	adc	#$0
    2d7a: 85 17        	sta	$17                     ; 0x17 <__rc7>
    2d7c: a0 05        	ldy	#$5
    2d7e: b1 24        	lda	($24),y                 ; 0x24 <__rc20>
    2d80: 85 18        	sta	$18                     ; 0x18 <__rc8>
    2d82: a0 01        	ldy	#$1
    2d84: b1 16        	lda	($16),y                 ; 0x16 <__rc6>
    2d86: 85 16        	sta	$16                     ; 0x16 <__rc6>
    2d88: a5 18        	lda	$18                     ; 0x18 <__rc8>
    2d8a: 92 12        	sta	($12)                   ; 0x12 <__rc2>
    2d8c: a5 16        	lda	$16                     ; 0x16 <__rc6>
    2d8e: 91 12        	sta	($12),y                 ; 0x12 <__rc2>
    2d90: e6 14        	inc	$14                     ; 0x14 <__rc4>
    2d92: d0 02        	bne	$2d96 <_ZN12_GLOBAL__N_15printEPKcP6Status+0x497>
    2d94: e6 15        	inc	$15                     ; 0x15 <__rc5>
    2d96: a6 14        	ldx	$14                     ; 0x14 <__rc4>
    2d98: 86 28        	stx	$28                     ; 0x28 <__rc24>
    2d9a: a6 15        	ldx	$15                     ; 0x15 <__rc5>
    2d9c: 86 29        	stx	$29                     ; 0x29 <__rc25>
    2d9e: 4c f8 33     	jmp	$33f8 <_ZN12_GLOBAL__N_15printEPKcP6Status+0xaf9>
    2da1: a0 11        	ldy	#$11
    2da3: a5 24        	lda	$24                     ; 0x24 <__rc20>
    2da5: 18           	clc
    2da6: 69 11        	adc	#$11
    2da8: 85 12        	sta	$12                     ; 0x12 <__rc2>
    2daa: a5 25        	lda	$25                     ; 0x25 <__rc21>
    2dac: 69 00        	adc	#$0
    2dae: 85 13        	sta	$13                     ; 0x13 <__rc3>
    2db0: b1 24        	lda	($24),y                 ; 0x24 <__rc20>
    2db2: aa           	tax
    2db3: a0 01        	ldy	#$1
    2db5: b1 12        	lda	($12),y                 ; 0x12 <__rc2>
    2db7: 86 14        	stx	$14                     ; 0x14 <__rc4>
    2db9: 85 15        	sta	$15                     ; 0x15 <__rc5>
    2dbb: a8           	tay
    2dbc: 18           	clc
    2dbd: 8a           	txa
    2dbe: 69 02        	adc	#$2
    2dc0: 85 16        	sta	$16                     ; 0x16 <__rc6>
    2dc2: 98           	tya
    2dc3: 69 00        	adc	#$0
    2dc5: 85 17        	sta	$17                     ; 0x17 <__rc7>
    2dc7: a5 16        	lda	$16                     ; 0x16 <__rc6>
    2dc9: a0 11        	ldy	#$11
    2dcb: 91 24        	sta	($24),y                 ; 0x24 <__rc20>
    2dcd: a0 01        	ldy	#$1
    2dcf: a5 17        	lda	$17                     ; 0x17 <__rc7>
    2dd1: 91 12        	sta	($12),y                 ; 0x12 <__rc2>
    2dd3: b2 14        	lda	($14)                   ; 0x14 <__rc4>
    2dd5: 85 12        	sta	$12                     ; 0x12 <__rc2>
    2dd7: b1 14        	lda	($14),y                 ; 0x14 <__rc4>
    2dd9: 85 13        	sta	$13                     ; 0x13 <__rc3>
    2ddb: 4c 2c 2e     	jmp	$2e2c <_ZN12_GLOBAL__N_15printEPKcP6Status+0x52d>
    2dde: a9 08        	lda	#$8
    2de0: 4c 3c 2e     	jmp	$2e3c <_ZN12_GLOBAL__N_15printEPKcP6Status+0x53d>
    2de3: a0 11        	ldy	#$11
    2de5: a5 24        	lda	$24                     ; 0x24 <__rc20>
    2de7: 18           	clc
    2de8: 69 11        	adc	#$11
    2dea: 85 12        	sta	$12                     ; 0x12 <__rc2>
    2dec: a5 25        	lda	$25                     ; 0x25 <__rc21>
    2dee: 69 00        	adc	#$0
    2df0: 85 13        	sta	$13                     ; 0x13 <__rc3>
    2df2: b1 24        	lda	($24),y                 ; 0x24 <__rc20>
    2df4: aa           	tax
    2df5: a0 01        	ldy	#$1
    2df7: b1 12        	lda	($12),y                 ; 0x12 <__rc2>
    2df9: 86 14        	stx	$14                     ; 0x14 <__rc4>
    2dfb: 85 15        	sta	$15                     ; 0x15 <__rc5>
    2dfd: a8           	tay
    2dfe: 18           	clc
    2dff: 8a           	txa
    2e00: 69 02        	adc	#$2
    2e02: 85 16        	sta	$16                     ; 0x16 <__rc6>
    2e04: 98           	tya
    2e05: 69 00        	adc	#$0
    2e07: 85 17        	sta	$17                     ; 0x17 <__rc7>
    2e09: a5 16        	lda	$16                     ; 0x16 <__rc6>
    2e0b: a0 11        	ldy	#$11
    2e0d: 91 24        	sta	($24),y                 ; 0x24 <__rc20>
    2e0f: a0 01        	ldy	#$1
    2e11: a5 17        	lda	$17                     ; 0x17 <__rc7>
    2e13: 91 12        	sta	($12),y                 ; 0x12 <__rc2>
    2e15: b2 14        	lda	($14)                   ; 0x14 <__rc4>
    2e17: 18           	clc
    2e18: 48           	pha
    2e19: a5 10        	lda	$10                     ; 0x10 <__rc0>
    2e1b: 69 18        	adc	#$18
    2e1d: 85 12        	sta	$12                     ; 0x12 <__rc2>
    2e1f: a5 11        	lda	$11                     ; 0x11 <__rc1>
    2e21: 69 00        	adc	#$0
    2e23: 85 13        	sta	$13                     ; 0x13 <__rc3>
    2e25: 68           	pla
    2e26: 92 12        	sta	($12)                   ; 0x12 <__rc2>
    2e28: a9 00        	lda	#$0
    2e2a: 91 12        	sta	($12),y                 ; 0x12 <__rc2>
    2e2c: a6 24        	ldx	$24                     ; 0x24 <__rc20>
    2e2e: 86 14        	stx	$14                     ; 0x14 <__rc4>
    2e30: a6 25        	ldx	$25                     ; 0x25 <__rc21>
    2e32: 86 15        	stx	$15                     ; 0x15 <__rc5>
    2e34: 20 24 35     	jsr	$3524 <_ZN12_GLOBAL__N_112print_stringEPKcP6Status>
    2e37: 4c e8 33     	jmp	$33e8 <_ZN12_GLOBAL__N_15printEPKcP6Status+0xae9>
    2e3a: a9 0a        	lda	#$a
    2e3c: 92 24        	sta	($24)                   ; 0x24 <__rc20>
    2e3e: a6 24        	ldx	$24                     ; 0x24 <__rc20>
    2e40: 86 12        	stx	$12                     ; 0x12 <__rc2>
    2e42: a6 25        	ldx	$25                     ; 0x25 <__rc21>
    2e44: 86 13        	stx	$13                     ; 0x13 <__rc3>
    2e46: e6 12        	inc	$12                     ; 0x12 <__rc2>
    2e48: d0 02        	bne	$2e4c <_ZN12_GLOBAL__N_15printEPKcP6Status+0x54d>
    2e4a: e6 13        	inc	$13                     ; 0x13 <__rc3>
    2e4c: a0 01        	ldy	#$1
    2e4e: b1 24        	lda	($24),y                 ; 0x24 <__rc20>
    2e50: 85 14        	sta	$14                     ; 0x14 <__rc4>
    2e52: 98           	tya
    2e53: 11 12        	ora	($12),y                 ; 0x12 <__rc2>
    2e55: aa           	tax
    2e56: a5 14        	lda	$14                     ; 0x14 <__rc4>
    2e58: 91 24        	sta	($24),y                 ; 0x24 <__rc20>
    2e5a: 8a           	txa
    2e5b: 91 12        	sta	($12),y                 ; 0x12 <__rc2>
    2e5d: 18           	clc
    2e5e: a5 10        	lda	$10                     ; 0x10 <__rc0>
    2e60: 69 0d        	adc	#$d
    2e62: 85 28        	sta	$28                     ; 0x28 <__rc24>
    2e64: a5 11        	lda	$11                     ; 0x11 <__rc1>
    2e66: 69 00        	adc	#$0
    2e68: 85 29        	sta	$29                     ; 0x29 <__rc25>
    2e6a: a6 28        	ldx	$28                     ; 0x28 <__rc24>
    2e6c: 86 12        	stx	$12                     ; 0x12 <__rc2>
    2e6e: 85 13        	sta	$13                     ; 0x13 <__rc3>
    2e70: a0 0c        	ldy	#$c
    2e72: b1 10        	lda	($10),y                 ; 0x10 <__rc0>
    2e74: 20 64 05     	jsr	$564 <_ZN6__impl6VarInt4makeEPvc>
    2e77: a6 28        	ldx	$28                     ; 0x28 <__rc24>
    2e79: 86 12        	stx	$12                     ; 0x12 <__rc2>
    2e7b: a6 29        	ldx	$29                     ; 0x29 <__rc25>
    2e7d: 86 13        	stx	$13                     ; 0x13 <__rc3>
    2e7f: e6 12        	inc	$12                     ; 0x12 <__rc2>
    2e81: d0 02        	bne	$2e85 <_ZN12_GLOBAL__N_15printEPKcP6Status+0x586>
    2e83: e6 13        	inc	$13                     ; 0x13 <__rc3>
    2e85: a0 11        	ldy	#$11
    2e87: a2 00        	ldx	#$0
    2e89: a5 24        	lda	$24                     ; 0x24 <__rc20>
    2e8b: 18           	clc
    2e8c: 69 11        	adc	#$11
    2e8e: 85 2c        	sta	$2c                     ; 0x2c <__rc28>
    2e90: a5 25        	lda	$25                     ; 0x25 <__rc21>
    2e92: 69 00        	adc	#$0
    2e94: 85 2d        	sta	$2d                     ; 0x2d <__rc29>
    2e96: b1 24        	lda	($24),y                 ; 0x24 <__rc20>
    2e98: 85 2f        	sta	$2f                     ; 0x2f <__rc31>
    2e9a: a0 01        	ldy	#$1
    2e9c: b1 2c        	lda	($2c),y                 ; 0x2c <__rc28>
    2e9e: a4 2f        	ldy	$2f                     ; 0x2f <__rc31>
    2ea0: 84 14        	sty	$14                     ; 0x14 <__rc4>
    2ea2: 85 15        	sta	$15                     ; 0x15 <__rc5>
    2ea4: 85 2e        	sta	$2e                     ; 0x2e <__rc30>
    2ea6: b2 28        	lda	($28)                   ; 0x28 <__rc24>
    2ea8: 64 16        	stz	$16                     ; 0x16 <__rc6>
    2eaa: 48           	pha
    2eab: 8a           	txa
    2eac: a0 0c        	ldy	#$c
    2eae: 91 10        	sta	($10),y                 ; 0x10 <__rc0>
    2eb0: 68           	pla
    2eb1: 20 e5 38     	jsr	$38e5 <memcpy>
    2eb4: 18           	clc
    2eb5: a9 00        	lda	#$0
    2eb7: a0 0a        	ldy	#$a
    2eb9: 91 10        	sta	($10),y                 ; 0x10 <__rc0>
    2ebb: a5 2f        	lda	$2f                     ; 0x2f <__rc31>
    2ebd: 65 2b        	adc	$2b                     ; 0x2b <__rc27>
    2ebf: aa           	tax
    2ec0: a5 2e        	lda	$2e                     ; 0x2e <__rc30>
    2ec2: 69 00        	adc	#$0
    2ec4: 85 12        	sta	$12                     ; 0x12 <__rc2>
    2ec6: a0 11        	ldy	#$11
    2ec8: 8a           	txa
    2ec9: 91 24        	sta	($24),y                 ; 0x24 <__rc20>
    2ecb: a0 01        	ldy	#$1
    2ecd: a5 12        	lda	$12                     ; 0x12 <__rc2>
    2ecf: 91 2c        	sta	($2c),y                 ; 0x2c <__rc28>
    2ed1: a6 24        	ldx	$24                     ; 0x24 <__rc20>
    2ed3: 86 12        	stx	$12                     ; 0x12 <__rc2>
    2ed5: a6 25        	ldx	$25                     ; 0x25 <__rc21>
    2ed7: 86 13        	stx	$13                     ; 0x13 <__rc3>
    2ed9: e6 12        	inc	$12                     ; 0x12 <__rc2>
    2edb: d0 02        	bne	$2edf <_ZN12_GLOBAL__N_15printEPKcP6Status+0x5e0>
    2edd: e6 13        	inc	$13                     ; 0x13 <__rc3>
    2edf: a9 01        	lda	#$1
    2ee1: 31 12        	and	($12),y                 ; 0x12 <__rc2>
    2ee3: d0 21        	bne	$2f06 <_ZN12_GLOBAL__N_15printEPKcP6Status+0x607>
    2ee5: a6 28        	ldx	$28                     ; 0x28 <__rc24>
    2ee7: 86 12        	stx	$12                     ; 0x12 <__rc2>
    2ee9: a6 29        	ldx	$29                     ; 0x29 <__rc25>
    2eeb: 86 13        	stx	$13                     ; 0x13 <__rc3>
    2eed: 20 76 05     	jsr	$576 <_ZNK6__impl6VarInt8negativeEv>
    2ef0: 29 01        	and	#$1
    2ef2: f0 12        	beq	$2f06 <_ZN12_GLOBAL__N_15printEPKcP6Status+0x607>
    2ef4: a6 28        	ldx	$28                     ; 0x28 <__rc24>
    2ef6: 86 12        	stx	$12                     ; 0x12 <__rc2>
    2ef8: a6 29        	ldx	$29                     ; 0x29 <__rc25>
    2efa: 86 13        	stx	$13                     ; 0x13 <__rc3>
    2efc: 20 84 05     	jsr	$584 <_ZN6__impl6VarInt6negateEv>
    2eff: 38           	sec
    2f00: a9 01        	lda	#$1
    2f02: a0 0a        	ldy	#$a
    2f04: 91 10        	sta	($10),y                 ; 0x10 <__rc0>
    2f06: b2 28        	lda	($28)                   ; 0x28 <__rc24>
    2f08: d0 03        	bne	$2f0d <_ZN12_GLOBAL__N_15printEPKcP6Status+0x60e>
    2f0a: 4c 04 30     	jmp	$3004 <_ZN12_GLOBAL__N_15printEPKcP6Status+0x705>
    2f0d: b2 24        	lda	($24)                   ; 0x24 <__rc20>
    2f0f: 85 2b        	sta	$2b                     ; 0x2b <__rc27>
    2f11: 18           	clc
    2f12: a5 10        	lda	$10                     ; 0x10 <__rc0>
    2f14: 69 18        	adc	#$18
    2f16: 48           	pha
    2f17: a5 11        	lda	$11                     ; 0x11 <__rc1>
    2f19: 69 00        	adc	#$0
    2f1b: 85 12        	sta	$12                     ; 0x12 <__rc2>
    2f1d: 68           	pla
    2f1e: 18           	clc
    2f1f: 69 02        	adc	#$2
    2f21: 85 2c        	sta	$2c                     ; 0x2c <__rc28>
    2f23: a5 12        	lda	$12                     ; 0x12 <__rc2>
    2f25: 69 00        	adc	#$0
    2f27: 85 2d        	sta	$2d                     ; 0x2d <__rc29>
    2f29: a2 00        	ldx	#$0
    2f2b: a0 00        	ldy	#$0
    2f2d: 8a           	txa
    2f2e: d0 03        	bne	$2f33 <_ZN12_GLOBAL__N_15printEPKcP6Status+0x634>
    2f30: 4c ad 2f     	jmp	$2fad <_ZN12_GLOBAL__N_15printEPKcP6Status+0x6ae>
    2f33: 84 2f        	sty	$2f                     ; 0x2f <__rc31>
    2f35: 86 2e        	stx	$2e                     ; 0x2e <__rc30>
    2f37: ca           	dex
    2f38: 86 13        	stx	$13                     ; 0x13 <__rc3>
    2f3a: a2 00        	ldx	#$0
    2f3c: 64 12        	stz	$12                     ; 0x12 <__rc2>
    2f3e: 80 0c        	bra	$2f4c <_ZN12_GLOBAL__N_15printEPKcP6Status+0x64d>
    2f40: a4 12        	ldy	$12                     ; 0x12 <__rc2>
    2f42: 91 2c        	sta	($2c),y                 ; 0x2c <__rc28>
    2f44: a4 13        	ldy	$13                     ; 0x13 <__rc3>
    2f46: c4 12        	cpy	$12                     ; 0x12 <__rc2>
    2f48: f0 2f        	beq	$2f79 <_ZN12_GLOBAL__N_15printEPKcP6Status+0x67a>
    2f4a: e6 12        	inc	$12                     ; 0x12 <__rc2>
    2f4c: a4 12        	ldy	$12                     ; 0x12 <__rc2>
    2f4e: b1 2c        	lda	($2c),y                 ; 0x2c <__rc28>
    2f50: 0a           	asl
    2f51: e0 00        	cpx	#$0
    2f53: f0 02        	beq	$2f57 <_ZN12_GLOBAL__N_15printEPKcP6Status+0x658>
    2f55: 09 01        	ora	#$1
    2f57: c5 2b        	cmp	$2b                     ; 0x2b <__rc27>
    2f59: a2 01        	ldx	#$1
    2f5b: b0 02        	bcs	$2f5f <_ZN12_GLOBAL__N_15printEPKcP6Status+0x660>
    2f5d: a2 00        	ldx	#$0
    2f5f: 90 df        	bcc	$2f40 <_ZN12_GLOBAL__N_15printEPKcP6Status+0x641>
    2f61: 38           	sec
    2f62: e5 2b        	sbc	$2b                     ; 0x2b <__rc27>
    2f64: a4 12        	ldy	$12                     ; 0x12 <__rc2>
    2f66: 91 2c        	sta	($2c),y                 ; 0x2c <__rc28>
    2f68: a4 13        	ldy	$13                     ; 0x13 <__rc3>
    2f6a: c4 12        	cpy	$12                     ; 0x12 <__rc2>
    2f6c: d0 dc        	bne	$2f4a <_ZN12_GLOBAL__N_15printEPKcP6Status+0x64b>
    2f6e: a4 2e        	ldy	$2e                     ; 0x2e <__rc30>
    2f70: a6 2e        	ldx	$2e                     ; 0x2e <__rc30>
    2f72: e8           	inx
    2f73: a9 01        	lda	#$1
    2f75: 91 2c        	sta	($2c),y                 ; 0x2c <__rc28>
    2f77: 86 2e        	stx	$2e                     ; 0x2e <__rc30>
    2f79: a6 28        	ldx	$28                     ; 0x28 <__rc24>
    2f7b: 86 12        	stx	$12                     ; 0x12 <__rc2>
    2f7d: a6 29        	ldx	$29                     ; 0x29 <__rc25>
    2f7f: 86 13        	stx	$13                     ; 0x13 <__rc3>
    2f81: 20 68 05     	jsr	$568 <_ZNK6__impl6VarInt8high_bitEv>
    2f84: 29 01        	and	#$1
    2f86: f0 21        	beq	$2fa9 <_ZN12_GLOBAL__N_15printEPKcP6Status+0x6aa>
    2f88: a0 00        	ldy	#$0
    2f8a: a5 2e        	lda	$2e                     ; 0x2e <__rc30>
    2f8c: f0 33        	beq	$2fc1 <_ZN12_GLOBAL__N_15printEPKcP6Status+0x6c2>
    2f8e: b1 2c        	lda	($2c),y                 ; 0x2c <__rc28>
    2f90: 1a           	inc
    2f91: 91 2c        	sta	($2c),y                 ; 0x2c <__rc28>
    2f93: c5 2b        	cmp	$2b                     ; 0x2b <__rc27>
    2f95: 90 12        	bcc	$2fa9 <_ZN12_GLOBAL__N_15printEPKcP6Status+0x6aa>
    2f97: 38           	sec
    2f98: e5 2b        	sbc	$2b                     ; 0x2b <__rc27>
    2f9a: 91 2c        	sta	($2c),y                 ; 0x2c <__rc28>
    2f9c: c8           	iny
    2f9d: 84 12        	sty	$12                     ; 0x12 <__rc2>
    2f9f: a6 2e        	ldx	$2e                     ; 0x2e <__rc30>
    2fa1: e4 12        	cpx	$12                     ; 0x12 <__rc2>
    2fa3: d0 e9        	bne	$2f8e <_ZN12_GLOBAL__N_15printEPKcP6Status+0x68f>
    2fa5: a4 2e        	ldy	$2e                     ; 0x2e <__rc30>
    2fa7: 80 18        	bra	$2fc1 <_ZN12_GLOBAL__N_15printEPKcP6Status+0x6c2>
    2fa9: a4 2e        	ldy	$2e                     ; 0x2e <__rc30>
    2fab: 80 1d        	bra	$2fca <_ZN12_GLOBAL__N_15printEPKcP6Status+0x6cb>
    2fad: 84 2f        	sty	$2f                     ; 0x2f <__rc31>
    2faf: a6 28        	ldx	$28                     ; 0x28 <__rc24>
    2fb1: 86 12        	stx	$12                     ; 0x12 <__rc2>
    2fb3: a6 29        	ldx	$29                     ; 0x29 <__rc25>
    2fb5: 86 13        	stx	$13                     ; 0x13 <__rc3>
    2fb7: 20 68 05     	jsr	$568 <_ZNK6__impl6VarInt8high_bitEv>
    2fba: 29 01        	and	#$1
    2fbc: a0 00        	ldy	#$0
    2fbe: aa           	tax
    2fbf: f0 09        	beq	$2fca <_ZN12_GLOBAL__N_15printEPKcP6Status+0x6cb>
    2fc1: 5a           	phy
    2fc2: fa           	plx
    2fc3: e8           	inx
    2fc4: a9 01        	lda	#$1
    2fc6: 91 2c        	sta	($2c),y                 ; 0x2c <__rc28>
    2fc8: da           	phx
    2fc9: 7a           	ply
    2fca: 98           	tya
    2fcb: a0 0c        	ldy	#$c
    2fcd: 91 10        	sta	($10),y                 ; 0x10 <__rc0>
    2fcf: a6 28        	ldx	$28                     ; 0x28 <__rc24>
    2fd1: 86 12        	stx	$12                     ; 0x12 <__rc2>
    2fd3: a6 29        	ldx	$29                     ; 0x29 <__rc25>
    2fd5: 86 13        	stx	$13                     ; 0x13 <__rc3>
    2fd7: 20 cc 05     	jsr	$5cc <_ZN6__impl6VarInt3shlEv>
    2fda: a4 2f        	ldy	$2f                     ; 0x2f <__rc31>
    2fdc: c8           	iny
    2fdd: b2 28        	lda	($28)                   ; 0x28 <__rc24>
    2fdf: 0a           	asl
    2fe0: 64 13        	stz	$13                     ; 0x13 <__rc3>
    2fe2: 26 13        	rol	$13                     ; 0x13 <__rc3>
    2fe4: 0a           	asl
    2fe5: 26 13        	rol	$13                     ; 0x13 <__rc3>
    2fe7: 0a           	asl
    2fe8: 26 13        	rol	$13                     ; 0x13 <__rc3>
    2fea: a2 00        	ldx	#$0
    2fec: e4 13        	cpx	$13                     ; 0x13 <__rc3>
    2fee: d0 06        	bne	$2ff6 <_ZN12_GLOBAL__N_15printEPKcP6Status+0x6f7>
    2ff0: 85 12        	sta	$12                     ; 0x12 <__rc2>
    2ff2: c4 12        	cpy	$12                     ; 0x12 <__rc2>
    2ff4: 80 02        	bra	$2ff8 <_ZN12_GLOBAL__N_15printEPKcP6Status+0x6f9>
    2ff6: e4 13        	cpx	$13                     ; 0x13 <__rc3>
    2ff8: 5a           	phy
    2ff9: a0 0c        	ldy	#$c
    2ffb: b1 10        	lda	($10),y                 ; 0x10 <__rc0>
    2ffd: 7a           	ply
    2ffe: aa           	tax
    2fff: b0 03        	bcs	$3004 <_ZN12_GLOBAL__N_15printEPKcP6Status+0x705>
    3001: 4c 2d 2f     	jmp	$2f2d <_ZN12_GLOBAL__N_15printEPKcP6Status+0x62e>
    3004: a5 24        	lda	$24                     ; 0x24 <__rc20>
    3006: 18           	clc
    3007: 69 0d        	adc	#$d
    3009: 85 12        	sta	$12                     ; 0x12 <__rc2>
    300b: a5 25        	lda	$25                     ; 0x25 <__rc21>
    300d: 69 00        	adc	#$0
    300f: 85 13        	sta	$13                     ; 0x13 <__rc3>
    3011: a0 01        	ldy	#$1
    3013: b1 12        	lda	($12),y                 ; 0x12 <__rc2>
    3015: 30 0a        	bmi	$3021 <_ZN12_GLOBAL__N_15printEPKcP6Status+0x722>
    3017: a0 0d        	ldy	#$d
    3019: 85 29        	sta	$29                     ; 0x29 <__rc25>
    301b: b1 24        	lda	($24),y                 ; 0x24 <__rc20>
    301d: 85 28        	sta	$28                     ; 0x28 <__rc24>
    301f: 80 04        	bra	$3025 <_ZN12_GLOBAL__N_15printEPKcP6Status+0x726>
    3021: 64 29        	stz	$29                     ; 0x29 <__rc25>
    3023: 84 28        	sty	$28                     ; 0x28 <__rc24>
    3025: a0 01        	ldy	#$1
    3027: b1 24        	lda	($24),y                 ; 0x24 <__rc20>
    3029: 85 18        	sta	$18                     ; 0x18 <__rc8>
    302b: 29 04        	and	#$4
    302d: f0 35        	beq	$3064 <_ZN12_GLOBAL__N_15printEPKcP6Status+0x765>
    302f: b2 24        	lda	($24)                   ; 0x24 <__rc20>
    3031: c9 10        	cmp	#$10
    3033: f0 18        	beq	$304d <_ZN12_GLOBAL__N_15printEPKcP6Status+0x74e>
    3035: c9 08        	cmp	#$8
    3037: d0 2b        	bne	$3064 <_ZN12_GLOBAL__N_15printEPKcP6Status+0x765>
    3039: a2 00        	ldx	#$0
    303b: e4 29        	cpx	$29                     ; 0x29 <__rc25>
    303d: f0 03        	beq	$3042 <_ZN12_GLOBAL__N_15printEPKcP6Status+0x743>
    303f: 4c 03 32     	jmp	$3203 <_ZN12_GLOBAL__N_15printEPKcP6Status+0x904>
    3042: 5a           	phy
    3043: a0 0c        	ldy	#$c
    3045: b1 10        	lda	($10),y                 ; 0x10 <__rc0>
    3047: 7a           	ply
    3048: c5 28        	cmp	$28                     ; 0x28 <__rc24>
    304a: 4c 05 32     	jmp	$3205 <_ZN12_GLOBAL__N_15printEPKcP6Status+0x906>
    304d: 5a           	phy
    304e: a0 0c        	ldy	#$c
    3050: b1 10        	lda	($10),y                 ; 0x10 <__rc0>
    3052: 7a           	ply
    3053: aa           	tax
    3054: f0 0e        	beq	$3064 <_ZN12_GLOBAL__N_15printEPKcP6Status+0x765>
    3056: a5 18        	lda	$18                     ; 0x18 <__rc8>
    3058: 29 80        	and	#$80
    305a: d0 03        	bne	$305f <_ZN12_GLOBAL__N_15printEPKcP6Status+0x760>
    305c: 4c 20 32     	jmp	$3220 <_ZN12_GLOBAL__N_15printEPKcP6Status+0x921>
    305f: a2 78        	ldx	#$78
    3061: 4c 22 32     	jmp	$3222 <_ZN12_GLOBAL__N_15printEPKcP6Status+0x923>
    3064: a5 18        	lda	$18                     ; 0x18 <__rc8>
    3066: a2 2d        	ldx	#$2d
    3068: 48           	pha
    3069: 5a           	phy
    306a: 8a           	txa
    306b: a0 09        	ldy	#$9
    306d: 91 10        	sta	($10),y                 ; 0x10 <__rc0>
    306f: c8           	iny
    3070: b1 10        	lda	($10),y                 ; 0x10 <__rc0>
    3072: 7a           	ply
    3073: 85 12        	sta	$12                     ; 0x12 <__rc2>
    3075: 68           	pla
    3076: a6 12        	ldx	$12                     ; 0x12 <__rc2>
    3078: f0 0d        	beq	$3087 <_ZN12_GLOBAL__N_15printEPKcP6Status+0x788>
    307a: 18           	clc
    307b: a9 00        	lda	#$0
    307d: 5a           	phy
    307e: a0 0a        	ldy	#$a
    3080: 91 10        	sta	($10),y                 ; 0x10 <__rc0>
    3082: 7a           	ply
    3083: 84 12        	sty	$12                     ; 0x12 <__rc2>
    3085: 80 2f        	bra	$30b6 <_ZN12_GLOBAL__N_15printEPKcP6Status+0x7b7>
    3087: aa           	tax
    3088: 29 02        	and	#$2
    308a: a0 2b        	ldy	#$2b
    308c: 48           	pha
    308d: 98           	tya
    308e: a0 09        	ldy	#$9
    3090: 91 10        	sta	($10),y                 ; 0x10 <__rc0>
    3092: 68           	pla
    3093: d0 16        	bne	$30ab <_ZN12_GLOBAL__N_15printEPKcP6Status+0x7ac>
    3095: 8a           	txa
    3096: 29 08        	and	#$8
    3098: a0 01        	ldy	#$1
    309a: aa           	tax
    309b: f0 03        	beq	$30a0 <_ZN12_GLOBAL__N_15printEPKcP6Status+0x7a1>
    309d: 4c f5 31     	jmp	$31f5 <_ZN12_GLOBAL__N_15printEPKcP6Status+0x8f6>
    30a0: 38           	sec
    30a1: a9 01        	lda	#$1
    30a3: a0 0a        	ldy	#$a
    30a5: 91 10        	sta	($10),y                 ; 0x10 <__rc0>
    30a7: 64 12        	stz	$12                     ; 0x12 <__rc2>
    30a9: 80 0b        	bra	$30b6 <_ZN12_GLOBAL__N_15printEPKcP6Status+0x7b7>
    30ab: 18           	clc
    30ac: a9 00        	lda	#$0
    30ae: a0 0a        	ldy	#$a
    30b0: 91 10        	sta	($10),y                 ; 0x10 <__rc0>
    30b2: a2 01        	ldx	#$1
    30b4: 86 12        	stx	$12                     ; 0x12 <__rc2>
    30b6: a0 0c        	ldy	#$c
    30b8: b1 10        	lda	($10),y                 ; 0x10 <__rc0>
    30ba: a8           	tay
    30bb: a5 29        	lda	$29                     ; 0x29 <__rc25>
    30bd: d0 4d        	bne	$310c <_ZN12_GLOBAL__N_15printEPKcP6Status+0x80d>
    30bf: a6 28        	ldx	$28                     ; 0x28 <__rc24>
    30c1: 84 13        	sty	$13                     ; 0x13 <__rc3>
    30c3: e4 13        	cpx	$13                     ; 0x13 <__rc3>
    30c5: a5 28        	lda	$28                     ; 0x28 <__rc24>
    30c7: a6 29        	ldx	$29                     ; 0x29 <__rc25>
    30c9: b0 03        	bcs	$30ce <_ZN12_GLOBAL__N_15printEPKcP6Status+0x7cf>
    30cb: 98           	tya
    30cc: a2 00        	ldx	#$0
    30ce: 18           	clc
    30cf: 85 19        	sta	$19                     ; 0x19 <__rc9>
    30d1: 65 12        	adc	$12                     ; 0x12 <__rc2>
    30d3: 85 1c        	sta	$1c                     ; 0x1c <__rc12>
    30d5: 85 13        	sta	$13                     ; 0x13 <__rc3>
    30d7: 86 1a        	stx	$1a                     ; 0x1a <__rc10>
    30d9: 8a           	txa
    30da: 69 00        	adc	#$0
    30dc: 85 14        	sta	$14                     ; 0x14 <__rc4>
    30de: 85 1d        	sta	$1d                     ; 0x1d <__rc13>
    30e0: a5 24        	lda	$24                     ; 0x24 <__rc20>
    30e2: 18           	clc
    30e3: 69 0b        	adc	#$b
    30e5: 85 16        	sta	$16                     ; 0x16 <__rc6>
    30e7: a5 25        	lda	$25                     ; 0x25 <__rc21>
    30e9: 69 00        	adc	#$0
    30eb: a0 0b        	ldy	#$b
    30ed: 85 17        	sta	$17                     ; 0x17 <__rc7>
    30ef: b1 24        	lda	($24),y                 ; 0x24 <__rc20>
    30f1: 85 1b        	sta	$1b                     ; 0x1b <__rc11>
    30f3: 85 15        	sta	$15                     ; 0x15 <__rc5>
    30f5: a0 01        	ldy	#$1
    30f7: b1 16        	lda	($16),y                 ; 0x16 <__rc6>
    30f9: 85 17        	sta	$17                     ; 0x17 <__rc7>
    30fb: 85 16        	sta	$16                     ; 0x16 <__rc6>
    30fd: a5 1d        	lda	$1d                     ; 0x1d <__rc13>
    30ff: c5 16        	cmp	$16                     ; 0x16 <__rc6>
    3101: d0 13        	bne	$3116 <_ZN12_GLOBAL__N_15printEPKcP6Status+0x817>
    3103: a6 1c        	ldx	$1c                     ; 0x1c <__rc12>
    3105: e4 15        	cpx	$15                     ; 0x15 <__rc5>
    3107: 90 13        	bcc	$311c <_ZN12_GLOBAL__N_15printEPKcP6Status+0x81d>
    3109: 4c 64 31     	jmp	$3164 <_ZN12_GLOBAL__N_15printEPKcP6Status+0x865>
    310c: a6 29        	ldx	$29                     ; 0x29 <__rc25>
    310e: e0 00        	cpx	#$0
    3110: a5 28        	lda	$28                     ; 0x28 <__rc24>
    3112: 90 b7        	bcc	$30cb <_ZN12_GLOBAL__N_15printEPKcP6Status+0x7cc>
    3114: 80 b8        	bra	$30ce <_ZN12_GLOBAL__N_15printEPKcP6Status+0x7cf>
    3116: a6 1d        	ldx	$1d                     ; 0x1d <__rc13>
    3118: e4 16        	cpx	$16                     ; 0x16 <__rc6>
    311a: b0 48        	bcs	$3164 <_ZN12_GLOBAL__N_15printEPKcP6Status+0x865>
    311c: a5 18        	lda	$18                     ; 0x18 <__rc8>
    311e: 29 11        	and	#$11
    3120: f0 0d        	beq	$312f <_ZN12_GLOBAL__N_15printEPKcP6Status+0x830>
    3122: a5 1b        	lda	$1b                     ; 0x1b <__rc11>
    3124: 38           	sec
    3125: e5 13        	sbc	$13                     ; 0x13 <__rc3>
    3127: 85 2a        	sta	$2a                     ; 0x2a <__rc26>
    3129: a5 17        	lda	$17                     ; 0x17 <__rc7>
    312b: e5 14        	sbc	$14                     ; 0x14 <__rc4>
    312d: 80 37        	bra	$3166 <_ZN12_GLOBAL__N_15printEPKcP6Status+0x867>
    312f: 18           	clc
    3130: a5 19        	lda	$19                     ; 0x19 <__rc9>
    3132: 65 12        	adc	$12                     ; 0x12 <__rc2>
    3134: aa           	tax
    3135: a5 1a        	lda	$1a                     ; 0x1a <__rc10>
    3137: 69 00        	adc	#$0
    3139: 85 12        	sta	$12                     ; 0x12 <__rc2>
    313b: 38           	sec
    313c: 8a           	txa
    313d: e5 15        	sbc	$15                     ; 0x15 <__rc5>
    313f: 85 2b        	sta	$2b                     ; 0x2b <__rc27>
    3141: a5 12        	lda	$12                     ; 0x12 <__rc2>
    3143: e5 16        	sbc	$16                     ; 0x16 <__rc6>
    3145: 85 2c        	sta	$2c                     ; 0x2c <__rc28>
    3147: a6 24        	ldx	$24                     ; 0x24 <__rc20>
    3149: 86 12        	stx	$12                     ; 0x12 <__rc2>
    314b: a6 25        	ldx	$25                     ; 0x25 <__rc21>
    314d: 86 13        	stx	$13                     ; 0x13 <__rc3>
    314f: a9 20        	lda	#$20
    3151: 20 43 34     	jsr	$3443 <_ZN12_GLOBAL__N_13putEcP6Status>
    3154: a6 2c        	ldx	$2c                     ; 0x2c <__rc28>
    3156: e6 2b        	inc	$2b                     ; 0x2b <__rc27>
    3158: d0 01        	bne	$315b <_ZN12_GLOBAL__N_15printEPKcP6Status+0x85c>
    315a: e8           	inx
    315b: 86 2c        	stx	$2c                     ; 0x2c <__rc28>
    315d: 8a           	txa
    315e: d0 e7        	bne	$3147 <_ZN12_GLOBAL__N_15printEPKcP6Status+0x848>
    3160: a5 2b        	lda	$2b                     ; 0x2b <__rc27>
    3162: d0 e3        	bne	$3147 <_ZN12_GLOBAL__N_15printEPKcP6Status+0x848>
    3164: a9 00        	lda	#$0
    3166: 85 2b        	sta	$2b                     ; 0x2b <__rc27>
    3168: a0 0a        	ldy	#$a
    316a: b1 10        	lda	($10),y                 ; 0x10 <__rc0>
    316c: 85 12        	sta	$12                     ; 0x12 <__rc2>
    316e: a5 12        	lda	$12                     ; 0x12 <__rc2>
    3170: d0 0f        	bne	$3181 <_ZN12_GLOBAL__N_15printEPKcP6Status+0x882>
    3172: a6 24        	ldx	$24                     ; 0x24 <__rc20>
    3174: 86 12        	stx	$12                     ; 0x12 <__rc2>
    3176: a6 25        	ldx	$25                     ; 0x25 <__rc21>
    3178: 86 13        	stx	$13                     ; 0x13 <__rc3>
    317a: a0 09        	ldy	#$9
    317c: b1 10        	lda	($10),y                 ; 0x10 <__rc0>
    317e: 20 43 34     	jsr	$3443 <_ZN12_GLOBAL__N_13putEcP6Status>
    3181: a0 0b        	ldy	#$b
    3183: b1 10        	lda	($10),y                 ; 0x10 <__rc0>
    3185: 85 12        	sta	$12                     ; 0x12 <__rc2>
    3187: a5 12        	lda	$12                     ; 0x12 <__rc2>
    3189: f0 0f        	beq	$319a <_ZN12_GLOBAL__N_15printEPKcP6Status+0x89b>
    318b: a6 24        	ldx	$24                     ; 0x24 <__rc20>
    318d: 86 12        	stx	$12                     ; 0x12 <__rc2>
    318f: a6 25        	ldx	$25                     ; 0x25 <__rc21>
    3191: 86 13        	stx	$13                     ; 0x13 <__rc3>
    3193: a0 08        	ldy	#$8
    3195: b1 10        	lda	($10),y                 ; 0x10 <__rc0>
    3197: 20 43 34     	jsr	$3443 <_ZN12_GLOBAL__N_13putEcP6Status>
    319a: a0 01        	ldy	#$1
    319c: b1 24        	lda	($24),y                 ; 0x24 <__rc20>
    319e: aa           	tax
    319f: 29 10        	and	#$10
    31a1: f0 3a        	beq	$31dd <_ZN12_GLOBAL__N_15printEPKcP6Status+0x8de>
    31a3: 8a           	txa
    31a4: 29 01        	and	#$1
    31a6: 48           	pha
    31a7: a0 0c        	ldy	#$c
    31a9: b1 10        	lda	($10),y                 ; 0x10 <__rc0>
    31ab: aa           	tax
    31ac: 68           	pla
    31ad: d0 33        	bne	$31e2 <_ZN12_GLOBAL__N_15printEPKcP6Status+0x8e3>
    31af: a5 2b        	lda	$2b                     ; 0x2b <__rc27>
    31b1: d0 07        	bne	$31ba <_ZN12_GLOBAL__N_15printEPKcP6Status+0x8bb>
    31b3: a5 2a        	lda	$2a                     ; 0x2a <__rc26>
    31b5: d0 03        	bne	$31ba <_ZN12_GLOBAL__N_15printEPKcP6Status+0x8bb>
    31b7: 4c 49 32     	jmp	$3249 <_ZN12_GLOBAL__N_15printEPKcP6Status+0x94a>
    31ba: a6 24        	ldx	$24                     ; 0x24 <__rc20>
    31bc: 86 12        	stx	$12                     ; 0x12 <__rc2>
    31be: a6 25        	ldx	$25                     ; 0x25 <__rc21>
    31c0: 86 13        	stx	$13                     ; 0x13 <__rc3>
    31c2: a9 30        	lda	#$30
    31c4: 20 43 34     	jsr	$3443 <_ZN12_GLOBAL__N_13putEcP6Status>
    31c7: a2 ff        	ldx	#$ff
    31c9: c6 2a        	dec	$2a                     ; 0x2a <__rc26>
    31cb: e4 2a        	cpx	$2a                     ; 0x2a <__rc26>
    31cd: d0 02        	bne	$31d1 <_ZN12_GLOBAL__N_15printEPKcP6Status+0x8d2>
    31cf: c6 2b        	dec	$2b                     ; 0x2b <__rc27>
    31d1: a5 2b        	lda	$2b                     ; 0x2b <__rc27>
    31d3: d0 e5        	bne	$31ba <_ZN12_GLOBAL__N_15printEPKcP6Status+0x8bb>
    31d5: a5 2a        	lda	$2a                     ; 0x2a <__rc26>
    31d7: d0 e1        	bne	$31ba <_ZN12_GLOBAL__N_15printEPKcP6Status+0x8bb>
    31d9: 64 2a        	stz	$2a                     ; 0x2a <__rc26>
    31db: 64 2b        	stz	$2b                     ; 0x2b <__rc27>
    31dd: a0 0c        	ldy	#$c
    31df: b1 10        	lda	($10),y                 ; 0x10 <__rc0>
    31e1: aa           	tax
    31e2: a0 00        	ldy	#$0
    31e4: c4 29        	cpy	$29                     ; 0x29 <__rc25>
    31e6: d0 03        	bne	$31eb <_ZN12_GLOBAL__N_15printEPKcP6Status+0x8ec>
    31e8: 4c 55 32     	jmp	$3255 <_ZN12_GLOBAL__N_15printEPKcP6Status+0x956>
    31eb: c4 29        	cpy	$29                     ; 0x29 <__rc25>
    31ed: b0 03        	bcs	$31f2 <_ZN12_GLOBAL__N_15printEPKcP6Status+0x8f3>
    31ef: 4c 59 32     	jmp	$3259 <_ZN12_GLOBAL__N_15printEPKcP6Status+0x95a>
    31f2: 4c 7f 32     	jmp	$327f <_ZN12_GLOBAL__N_15printEPKcP6Status+0x980>
    31f5: a2 20        	ldx	#$20
    31f7: 5a           	phy
    31f8: 8a           	txa
    31f9: a0 09        	ldy	#$9
    31fb: 91 10        	sta	($10),y                 ; 0x10 <__rc0>
    31fd: 18           	clc
    31fe: a9 00        	lda	#$0
    3200: 4c 7e 30     	jmp	$307e <_ZN12_GLOBAL__N_15printEPKcP6Status+0x77f>
    3203: e4 29        	cpx	$29                     ; 0x29 <__rc25>
    3205: a5 18        	lda	$18                     ; 0x18 <__rc8>
    3207: b0 03        	bcs	$320c <_ZN12_GLOBAL__N_15printEPKcP6Status+0x90d>
    3209: 4c 66 30     	jmp	$3066 <_ZN12_GLOBAL__N_15printEPKcP6Status+0x767>
    320c: 48           	pha
    320d: 5a           	phy
    320e: a0 0c        	ldy	#$c
    3210: b1 10        	lda	($10),y                 ; 0x10 <__rc0>
    3212: 7a           	ply
    3213: 85 28        	sta	$28                     ; 0x28 <__rc24>
    3215: 68           	pla
    3216: e6 28        	inc	$28                     ; 0x28 <__rc24>
    3218: d0 01        	bne	$321b <_ZN12_GLOBAL__N_15printEPKcP6Status+0x91c>
    321a: e8           	inx
    321b: 86 29        	stx	$29                     ; 0x29 <__rc25>
    321d: 4c 66 30     	jmp	$3066 <_ZN12_GLOBAL__N_15printEPKcP6Status+0x767>
    3220: a2 58        	ldx	#$58
    3222: 8a           	txa
    3223: a0 08        	ldy	#$8
    3225: 91 10        	sta	($10),y                 ; 0x10 <__rc0>
    3227: a0 0c        	ldy	#$c
    3229: b1 10        	lda	($10),y                 ; 0x10 <__rc0>
    322b: a8           	tay
    322c: 38           	sec
    322d: 5a           	phy
    322e: a9 01        	lda	#$1
    3230: a0 0b        	ldy	#$b
    3232: 91 10        	sta	($10),y                 ; 0x10 <__rc0>
    3234: a2 30        	ldx	#$30
    3236: 8a           	txa
    3237: a0 09        	ldy	#$9
    3239: 91 10        	sta	($10),y                 ; 0x10 <__rc0>
    323b: a2 02        	ldx	#$2
    323d: 18           	clc
    323e: a9 00        	lda	#$0
    3240: c8           	iny
    3241: 91 10        	sta	($10),y                 ; 0x10 <__rc0>
    3243: 7a           	ply
    3244: 86 12        	stx	$12                     ; 0x12 <__rc2>
    3246: 4c bb 30     	jmp	$30bb <_ZN12_GLOBAL__N_15printEPKcP6Status+0x7bc>
    3249: 64 2a        	stz	$2a                     ; 0x2a <__rc26>
    324b: 64 2b        	stz	$2b                     ; 0x2b <__rc27>
    324d: 4c e2 31     	jmp	$31e2 <_ZN12_GLOBAL__N_15printEPKcP6Status+0x8e3>
    3250: a0 0c        	ldy	#$c
    3252: b1 10        	lda	($10),y                 ; 0x10 <__rc0>
    3254: aa           	tax
    3255: e4 28        	cpx	$28                     ; 0x28 <__rc24>
    3257: b0 26        	bcs	$327f <_ZN12_GLOBAL__N_15printEPKcP6Status+0x980>
    3259: a2 ff        	ldx	#$ff
    325b: c6 28        	dec	$28                     ; 0x28 <__rc24>
    325d: e4 28        	cpx	$28                     ; 0x28 <__rc24>
    325f: d0 02        	bne	$3263 <_ZN12_GLOBAL__N_15printEPKcP6Status+0x964>
    3261: c6 29        	dec	$29                     ; 0x29 <__rc25>
    3263: a6 24        	ldx	$24                     ; 0x24 <__rc20>
    3265: 86 12        	stx	$12                     ; 0x12 <__rc2>
    3267: a6 25        	ldx	$25                     ; 0x25 <__rc21>
    3269: 86 13        	stx	$13                     ; 0x13 <__rc3>
    326b: a9 30        	lda	#$30
    326d: 20 43 34     	jsr	$3443 <_ZN12_GLOBAL__N_13putEcP6Status>
    3270: a2 00        	ldx	#$0
    3272: e4 29        	cpx	$29                     ; 0x29 <__rc25>
    3274: f0 da        	beq	$3250 <_ZN12_GLOBAL__N_15printEPKcP6Status+0x951>
    3276: e4 29        	cpx	$29                     ; 0x29 <__rc25>
    3278: a0 0c        	ldy	#$c
    327a: b1 10        	lda	($10),y                 ; 0x10 <__rc0>
    327c: aa           	tax
    327d: 90 da        	bcc	$3259 <_ZN12_GLOBAL__N_15printEPKcP6Status+0x95a>
    327f: a4 2b        	ldy	$2b                     ; 0x2b <__rc27>
    3281: 84 2c        	sty	$2c                     ; 0x2c <__rc28>
    3283: 8a           	txa
    3284: d0 03        	bne	$3289 <_ZN12_GLOBAL__N_15printEPKcP6Status+0x98a>
    3286: 4c 33 33     	jmp	$3333 <_ZN12_GLOBAL__N_15printEPKcP6Status+0xa34>
    3289: ca           	dex
    328a: d0 03        	bne	$328f <_ZN12_GLOBAL__N_15printEPKcP6Status+0x990>
    328c: 4c f5 32     	jmp	$32f5 <_ZN12_GLOBAL__N_15printEPKcP6Status+0x9f6>
    328f: 86 2b        	stx	$2b                     ; 0x2b <__rc27>
    3291: 18           	clc
    3292: a5 10        	lda	$10                     ; 0x10 <__rc0>
    3294: 69 18        	adc	#$18
    3296: 48           	pha
    3297: a5 11        	lda	$11                     ; 0x11 <__rc1>
    3299: 69 00        	adc	#$0
    329b: 85 12        	sta	$12                     ; 0x12 <__rc2>
    329d: 68           	pla
    329e: 18           	clc
    329f: 65 2b        	adc	$2b                     ; 0x2b <__rc27>
    32a1: aa           	tax
    32a2: a5 12        	lda	$12                     ; 0x12 <__rc2>
    32a4: 69 00        	adc	#$0
    32a6: 85 12        	sta	$12                     ; 0x12 <__rc2>
    32a8: 18           	clc
    32a9: 8a           	txa
    32aa: 69 02        	adc	#$2
    32ac: 85 28        	sta	$28                     ; 0x28 <__rc24>
    32ae: a5 12        	lda	$12                     ; 0x12 <__rc2>
    32b0: 69 00        	adc	#$0
    32b2: 85 29        	sta	$29                     ; 0x29 <__rc25>
    32b4: 80 35        	bra	$32eb <_ZN12_GLOBAL__N_15printEPKcP6Status+0x9ec>
    32b6: 85 13        	sta	$13                     ; 0x13 <__rc3>
    32b8: a9 80        	lda	#$80
    32ba: a0 01        	ldy	#$1
    32bc: 31 24        	and	($24),y                 ; 0x24 <__rc20>
    32be: f0 04        	beq	$32c4 <_ZN12_GLOBAL__N_15printEPKcP6Status+0x9c5>
    32c0: a2 61        	ldx	#$61
    32c2: 80 02        	bra	$32c6 <_ZN12_GLOBAL__N_15printEPKcP6Status+0x9c7>
    32c4: a2 41        	ldx	#$41
    32c6: 86 12        	stx	$12                     ; 0x12 <__rc2>
    32c8: 18           	clc
    32c9: a5 13        	lda	$13                     ; 0x13 <__rc3>
    32cb: 65 12        	adc	$12                     ; 0x12 <__rc2>
    32cd: 18           	clc
    32ce: 69 f6        	adc	#$f6
    32d0: a6 24        	ldx	$24                     ; 0x24 <__rc20>
    32d2: 86 12        	stx	$12                     ; 0x12 <__rc2>
    32d4: a6 25        	ldx	$25                     ; 0x25 <__rc21>
    32d6: 86 13        	stx	$13                     ; 0x13 <__rc3>
    32d8: 20 43 34     	jsr	$3443 <_ZN12_GLOBAL__N_13putEcP6Status>
    32db: c6 2b        	dec	$2b                     ; 0x2b <__rc27>
    32dd: a2 ff        	ldx	#$ff
    32df: c6 28        	dec	$28                     ; 0x28 <__rc24>
    32e1: e4 28        	cpx	$28                     ; 0x28 <__rc24>
    32e3: d0 02        	bne	$32e7 <_ZN12_GLOBAL__N_15printEPKcP6Status+0x9e8>
    32e5: c6 29        	dec	$29                     ; 0x29 <__rc25>
    32e7: a5 2b        	lda	$2b                     ; 0x2b <__rc27>
    32e9: f0 0a        	beq	$32f5 <_ZN12_GLOBAL__N_15printEPKcP6Status+0x9f6>
    32eb: b2 28        	lda	($28)                   ; 0x28 <__rc24>
    32ed: c9 0a        	cmp	#$a
    32ef: b0 c5        	bcs	$32b6 <_ZN12_GLOBAL__N_15printEPKcP6Status+0x9b7>
    32f1: 09 30        	ora	#$30
    32f3: 80 db        	bra	$32d0 <_ZN12_GLOBAL__N_15printEPKcP6Status+0x9d1>
    32f5: a0 02        	ldy	#$2
    32f7: 18           	clc
    32f8: a5 10        	lda	$10                     ; 0x10 <__rc0>
    32fa: 69 18        	adc	#$18
    32fc: 85 12        	sta	$12                     ; 0x12 <__rc2>
    32fe: a5 11        	lda	$11                     ; 0x11 <__rc1>
    3300: 69 00        	adc	#$0
    3302: 85 13        	sta	$13                     ; 0x13 <__rc3>
    3304: b1 12        	lda	($12),y                 ; 0x12 <__rc2>
    3306: c9 0a        	cmp	#$a
    3308: b0 04        	bcs	$330e <_ZN12_GLOBAL__N_15printEPKcP6Status+0xa0f>
    330a: 09 30        	ora	#$30
    330c: 80 1a        	bra	$3328 <_ZN12_GLOBAL__N_15printEPKcP6Status+0xa29>
    330e: 85 13        	sta	$13                     ; 0x13 <__rc3>
    3310: a0 01        	ldy	#$1
    3312: a9 80        	lda	#$80
    3314: 31 24        	and	($24),y                 ; 0x24 <__rc20>
    3316: f0 04        	beq	$331c <_ZN12_GLOBAL__N_15printEPKcP6Status+0xa1d>
    3318: a2 61        	ldx	#$61
    331a: 80 02        	bra	$331e <_ZN12_GLOBAL__N_15printEPKcP6Status+0xa1f>
    331c: a2 41        	ldx	#$41
    331e: 86 12        	stx	$12                     ; 0x12 <__rc2>
    3320: a5 13        	lda	$13                     ; 0x13 <__rc3>
    3322: 18           	clc
    3323: 65 12        	adc	$12                     ; 0x12 <__rc2>
    3325: 18           	clc
    3326: 69 f6        	adc	#$f6
    3328: a6 24        	ldx	$24                     ; 0x24 <__rc20>
    332a: 86 12        	stx	$12                     ; 0x12 <__rc2>
    332c: a6 25        	ldx	$25                     ; 0x25 <__rc21>
    332e: 86 13        	stx	$13                     ; 0x13 <__rc3>
    3330: 20 43 34     	jsr	$3443 <_ZN12_GLOBAL__N_13putEcP6Status>
    3333: a0 01        	ldy	#$1
    3335: 98           	tya
    3336: 31 24        	and	($24),y                 ; 0x24 <__rc20>
    3338: f0 21        	beq	$335b <_ZN12_GLOBAL__N_15printEPKcP6Status+0xa5c>
    333a: a5 2c        	lda	$2c                     ; 0x2c <__rc28>
    333c: f0 19        	beq	$3357 <_ZN12_GLOBAL__N_15printEPKcP6Status+0xa58>
    333e: a6 24        	ldx	$24                     ; 0x24 <__rc20>
    3340: 86 12        	stx	$12                     ; 0x12 <__rc2>
    3342: a6 25        	ldx	$25                     ; 0x25 <__rc21>
    3344: 86 13        	stx	$13                     ; 0x13 <__rc3>
    3346: a9 20        	lda	#$20
    3348: 20 43 34     	jsr	$3443 <_ZN12_GLOBAL__N_13putEcP6Status>
    334b: a2 ff        	ldx	#$ff
    334d: c6 2a        	dec	$2a                     ; 0x2a <__rc26>
    334f: e4 2a        	cpx	$2a                     ; 0x2a <__rc26>
    3351: d0 e7        	bne	$333a <_ZN12_GLOBAL__N_15printEPKcP6Status+0xa3b>
    3353: c6 2c        	dec	$2c                     ; 0x2c <__rc28>
    3355: 80 e3        	bra	$333a <_ZN12_GLOBAL__N_15printEPKcP6Status+0xa3b>
    3357: a5 2a        	lda	$2a                     ; 0x2a <__rc26>
    3359: d0 e3        	bne	$333e <_ZN12_GLOBAL__N_15printEPKcP6Status+0xa3f>
    335b: a4 24        	ldy	$24                     ; 0x24 <__rc20>
    335d: a5 24        	lda	$24                     ; 0x24 <__rc20>
    335f: 84 14        	sty	$14                     ; 0x14 <__rc4>
    3361: 18           	clc
    3362: 69 05        	adc	#$5
    3364: 85 12        	sta	$12                     ; 0x12 <__rc2>
    3366: a5 25        	lda	$25                     ; 0x25 <__rc21>
    3368: 69 00        	adc	#$0
    336a: 18           	clc
    336b: 85 13        	sta	$13                     ; 0x13 <__rc3>
    336d: a0 01        	ldy	#$1
    336f: a5 14        	lda	$14                     ; 0x14 <__rc4>
    3371: 69 03        	adc	#$3
    3373: 85 14        	sta	$14                     ; 0x14 <__rc4>
    3375: a5 25        	lda	$25                     ; 0x25 <__rc21>
    3377: 69 00        	adc	#$0
    3379: aa           	tax
    337a: b1 12        	lda	($12),y                 ; 0x12 <__rc2>
    337c: 85 15        	sta	$15                     ; 0x15 <__rc5>
    337e: a4 14        	ldy	$14                     ; 0x14 <__rc4>
    3380: 84 12        	sty	$12                     ; 0x12 <__rc2>
    3382: 86 13        	stx	$13                     ; 0x13 <__rc3>
    3384: a0 03        	ldy	#$3
    3386: b1 24        	lda	($24),y                 ; 0x24 <__rc20>
    3388: aa           	tax
    3389: a0 01        	ldy	#$1
    338b: b1 12        	lda	($12),y                 ; 0x12 <__rc2>
    338d: 85 12        	sta	$12                     ; 0x12 <__rc2>
    338f: a4 15        	ldy	$15                     ; 0x15 <__rc5>
    3391: c4 12        	cpy	$12                     ; 0x12 <__rc2>
    3393: d0 10        	bne	$33a5 <_ZN12_GLOBAL__N_15printEPKcP6Status+0xaa6>
    3395: a0 05        	ldy	#$5
    3397: 85 15        	sta	$15                     ; 0x15 <__rc5>
    3399: b1 24        	lda	($24),y                 ; 0x24 <__rc20>
    339b: 86 13        	stx	$13                     ; 0x13 <__rc3>
    339d: 86 12        	stx	$12                     ; 0x12 <__rc2>
    339f: c5 12        	cmp	$12                     ; 0x12 <__rc2>
    33a1: b0 10        	bcs	$33b3 <_ZN12_GLOBAL__N_15printEPKcP6Status+0xab4>
    33a3: 80 43        	bra	$33e8 <_ZN12_GLOBAL__N_15printEPKcP6Status+0xae9>
    33a5: 84 14        	sty	$14                     ; 0x14 <__rc4>
    33a7: 86 13        	stx	$13                     ; 0x13 <__rc3>
    33a9: 85 12        	sta	$12                     ; 0x12 <__rc2>
    33ab: a6 14        	ldx	$14                     ; 0x14 <__rc4>
    33ad: e4 12        	cpx	$12                     ; 0x12 <__rc2>
    33af: 85 15        	sta	$15                     ; 0x15 <__rc5>
    33b1: 90 35        	bcc	$33e8 <_ZN12_GLOBAL__N_15printEPKcP6Status+0xae9>
    33b3: a6 13        	ldx	$13                     ; 0x13 <__rc3>
    33b5: a5 15        	lda	$15                     ; 0x15 <__rc5>
    33b7: d0 03        	bne	$33bc <_ZN12_GLOBAL__N_15printEPKcP6Status+0xabd>
    33b9: 8a           	txa
    33ba: f0 2c        	beq	$33e8 <_ZN12_GLOBAL__N_15printEPKcP6Status+0xae9>
    33bc: a5 24        	lda	$24                     ; 0x24 <__rc20>
    33be: 18           	clc
    33bf: 69 09        	adc	#$9
    33c1: 85 12        	sta	$12                     ; 0x12 <__rc2>
    33c3: a5 25        	lda	$25                     ; 0x25 <__rc21>
    33c5: 69 00        	adc	#$0
    33c7: a0 09        	ldy	#$9
    33c9: 85 13        	sta	$13                     ; 0x13 <__rc3>
    33cb: 18           	clc
    33cc: 8a           	txa
    33cd: 71 24        	adc	($24),y                 ; 0x24 <__rc20>
    33cf: aa           	tax
    33d0: a0 01        	ldy	#$1
    33d2: a5 15        	lda	$15                     ; 0x15 <__rc5>
    33d4: 71 12        	adc	($12),y                 ; 0x12 <__rc2>
    33d6: 86 12        	stx	$12                     ; 0x12 <__rc2>
    33d8: 85 13        	sta	$13                     ; 0x13 <__rc3>
    33da: a2 ff        	ldx	#$ff
    33dc: c6 12        	dec	$12                     ; 0x12 <__rc2>
    33de: e4 12        	cpx	$12                     ; 0x12 <__rc2>
    33e0: d0 02        	bne	$33e4 <_ZN12_GLOBAL__N_15printEPKcP6Status+0xae5>
    33e2: c6 13        	dec	$13                     ; 0x13 <__rc3>
    33e4: a9 00        	lda	#$0
    33e6: 92 12        	sta	($12)                   ; 0x12 <__rc2>
    33e8: b2 26        	lda	($26)                   ; 0x26 <__rc22>
    33ea: 85 28        	sta	$28                     ; 0x28 <__rc24>
    33ec: a0 01        	ldy	#$1
    33ee: b1 26        	lda	($26),y                 ; 0x26 <__rc22>
    33f0: 85 29        	sta	$29                     ; 0x29 <__rc25>
    33f2: e6 28        	inc	$28                     ; 0x28 <__rc24>
    33f4: d0 02        	bne	$33f8 <_ZN12_GLOBAL__N_15printEPKcP6Status+0xaf9>
    33f6: e6 29        	inc	$29                     ; 0x29 <__rc25>
    33f8: a6 28        	ldx	$28                     ; 0x28 <__rc24>
    33fa: 86 12        	stx	$12                     ; 0x12 <__rc2>
    33fc: a6 29        	ldx	$29                     ; 0x29 <__rc25>
    33fe: 86 13        	stx	$13                     ; 0x13 <__rc3>
    3400: a0 00        	ldy	#$0
    3402: b1 10        	lda	($10),y                 ; 0x10 <__rc0>
    3404: 85 2f        	sta	$2f                     ; 0x2f <__rc31>
    3406: c8           	iny
    3407: b1 10        	lda	($10),y                 ; 0x10 <__rc0>
    3409: 85 2e        	sta	$2e                     ; 0x2e <__rc30>
    340b: c8           	iny
    340c: b1 10        	lda	($10),y                 ; 0x10 <__rc0>
    340e: 85 2d        	sta	$2d                     ; 0x2d <__rc29>
    3410: c8           	iny
    3411: b1 10        	lda	($10),y                 ; 0x10 <__rc0>
    3413: 85 2c        	sta	$2c                     ; 0x2c <__rc28>
    3415: c8           	iny
    3416: b1 10        	lda	($10),y                 ; 0x10 <__rc0>
    3418: 85 2b        	sta	$2b                     ; 0x2b <__rc27>
    341a: c8           	iny
    341b: b1 10        	lda	($10),y                 ; 0x10 <__rc0>
    341d: 85 2a        	sta	$2a                     ; 0x2a <__rc26>
    341f: c8           	iny
    3420: b1 10        	lda	($10),y                 ; 0x10 <__rc0>
    3422: 85 29        	sta	$29                     ; 0x29 <__rc25>
    3424: c8           	iny
    3425: b1 10        	lda	($10),y                 ; 0x10 <__rc0>
    3427: 85 28        	sta	$28                     ; 0x28 <__rc24>
    3429: fa           	plx
    342a: 86 27        	stx	$27                     ; 0x27 <__rc23>
    342c: fa           	plx
    342d: 86 26        	stx	$26                     ; 0x26 <__rc22>
    342f: fa           	plx
    3430: 86 25        	stx	$25                     ; 0x25 <__rc21>
    3432: fa           	plx
    3433: 86 24        	stx	$24                     ; 0x24 <__rc20>
    3435: 18           	clc
    3436: a5 10        	lda	$10                     ; 0x10 <__rc0>
    3438: 69 2f        	adc	#$2f
    343a: 85 10        	sta	$10                     ; 0x10 <__rc0>
    343c: a5 11        	lda	$11                     ; 0x11 <__rc1>
    343e: 69 00        	adc	#$0
    3440: 85 11        	sta	$11                     ; 0x11 <__rc1>
    3442: 60           	rts

00003443 <_ZN12_GLOBAL__N_13putEcP6Status>:
    3443: a6 24        	ldx	$24                     ; 0x24 <__rc20>
    3445: da           	phx
    3446: a6 25        	ldx	$25                     ; 0x25 <__rc21>
    3448: da           	phx
    3449: 85 16        	sta	$16                     ; 0x16 <__rc6>
    344b: a6 12        	ldx	$12                     ; 0x12 <__rc2>
    344d: 86 24        	stx	$24                     ; 0x24 <__rc20>
    344f: a6 13        	ldx	$13                     ; 0x13 <__rc3>
    3451: 86 25        	stx	$25                     ; 0x25 <__rc21>
    3453: a6 25        	ldx	$25                     ; 0x25 <__rc21>
    3455: 18           	clc
    3456: a5 12        	lda	$12                     ; 0x12 <__rc2>
    3458: 69 05        	adc	#$5
    345a: a8           	tay
    345b: a5 25        	lda	$25                     ; 0x25 <__rc21>
    345d: 86 13        	stx	$13                     ; 0x13 <__rc3>
    345f: 69 00        	adc	#$0
    3461: 18           	clc
    3462: 84 14        	sty	$14                     ; 0x14 <__rc4>
    3464: a0 05        	ldy	#$5
    3466: 85 15        	sta	$15                     ; 0x15 <__rc5>
    3468: b1 24        	lda	($24),y                 ; 0x24 <__rc20>
    346a: aa           	tax
    346b: a5 12        	lda	$12                     ; 0x12 <__rc2>
    346d: 69 03        	adc	#$3
    346f: 85 12        	sta	$12                     ; 0x12 <__rc2>
    3471: a5 13        	lda	$13                     ; 0x13 <__rc3>
    3473: 69 00        	adc	#$0
    3475: 85 13        	sta	$13                     ; 0x13 <__rc3>
    3477: a0 01        	ldy	#$1
    3479: b1 14        	lda	($14),y                 ; 0x14 <__rc4>
    347b: d1 12        	cmp	($12),y                 ; 0x12 <__rc2>
    347d: d0 11        	bne	$3490 <_ZN12_GLOBAL__N_13putEcP6Status+0x4d>
    347f: a0 03        	ldy	#$3
    3481: 85 15        	sta	$15                     ; 0x15 <__rc5>
    3483: b1 24        	lda	($24),y                 ; 0x24 <__rc20>
    3485: 85 12        	sta	$12                     ; 0x12 <__rc2>
    3487: 86 14        	stx	$14                     ; 0x14 <__rc4>
    3489: e4 12        	cpx	$12                     ; 0x12 <__rc2>
    348b: 90 0e        	bcc	$349b <_ZN12_GLOBAL__N_13putEcP6Status+0x58>
    348d: 4c f6 34     	jmp	$34f6 <_ZN12_GLOBAL__N_13putEcP6Status+0xb3>
    3490: 86 14        	stx	$14                     ; 0x14 <__rc4>
    3492: d1 12        	cmp	($12),y                 ; 0x12 <__rc2>
    3494: 85 15        	sta	$15                     ; 0x15 <__rc5>
    3496: 90 03        	bcc	$349b <_ZN12_GLOBAL__N_13putEcP6Status+0x58>
    3498: 4c f6 34     	jmp	$34f6 <_ZN12_GLOBAL__N_13putEcP6Status+0xb3>
    349b: a0 0f        	ldy	#$f
    349d: a5 24        	lda	$24                     ; 0x24 <__rc20>
    349f: 18           	clc
    34a0: 69 0f        	adc	#$f
    34a2: 85 12        	sta	$12                     ; 0x12 <__rc2>
    34a4: a5 25        	lda	$25                     ; 0x25 <__rc21>
    34a6: 69 00        	adc	#$0
    34a8: 85 13        	sta	$13                     ; 0x13 <__rc3>
    34aa: b1 24        	lda	($24),y                 ; 0x24 <__rc20>
    34ac: 85 17        	sta	$17                     ; 0x17 <__rc7>
    34ae: a0 01        	ldy	#$1
    34b0: b1 12        	lda	($12),y                 ; 0x12 <__rc2>
    34b2: a2 00        	ldx	#$0
    34b4: 86 12        	stx	$12                     ; 0x12 <__rc2>
    34b6: a2 00        	ldx	#$0
    34b8: 86 13        	stx	$13                     ; 0x13 <__rc3>
    34ba: c5 13        	cmp	$13                     ; 0x13 <__rc3>
    34bc: d0 2b        	bne	$34e9 <_ZN12_GLOBAL__N_13putEcP6Status+0xa6>
    34be: a4 17        	ldy	$17                     ; 0x17 <__rc7>
    34c0: c4 12        	cpy	$12                     ; 0x12 <__rc2>
    34c2: d0 27        	bne	$34eb <_ZN12_GLOBAL__N_13putEcP6Status+0xa8>
    34c4: a5 24        	lda	$24                     ; 0x24 <__rc20>
    34c6: 18           	clc
    34c7: 69 09        	adc	#$9
    34c9: 85 12        	sta	$12                     ; 0x12 <__rc2>
    34cb: a5 25        	lda	$25                     ; 0x25 <__rc21>
    34cd: 69 00        	adc	#$0
    34cf: a0 09        	ldy	#$9
    34d1: 85 13        	sta	$13                     ; 0x13 <__rc3>
    34d3: 18           	clc
    34d4: a5 14        	lda	$14                     ; 0x14 <__rc4>
    34d6: 71 24        	adc	($24),y                 ; 0x24 <__rc20>
    34d8: aa           	tax
    34d9: a0 01        	ldy	#$1
    34db: a5 15        	lda	$15                     ; 0x15 <__rc5>
    34dd: 71 12        	adc	($12),y                 ; 0x12 <__rc2>
    34df: 86 12        	stx	$12                     ; 0x12 <__rc2>
    34e1: 85 13        	sta	$13                     ; 0x13 <__rc3>
    34e3: a5 16        	lda	$16                     ; 0x16 <__rc6>
    34e5: 92 12        	sta	($12)                   ; 0x12 <__rc2>
    34e7: 80 0d        	bra	$34f6 <_ZN12_GLOBAL__N_13putEcP6Status+0xb3>
    34e9: a4 17        	ldy	$17                     ; 0x17 <__rc7>
    34eb: 84 12        	sty	$12                     ; 0x12 <__rc2>
    34ed: 85 13        	sta	$13                     ; 0x13 <__rc3>
    34ef: a2 00        	ldx	#$0
    34f1: a5 16        	lda	$16                     ; 0x16 <__rc6>
    34f3: 20 21 37     	jsr	$3721 <putc>
    34f6: a0 05        	ldy	#$5
    34f8: a5 24        	lda	$24                     ; 0x24 <__rc20>
    34fa: 18           	clc
    34fb: 69 05        	adc	#$5
    34fd: 85 12        	sta	$12                     ; 0x12 <__rc2>
    34ff: a5 25        	lda	$25                     ; 0x25 <__rc21>
    3501: 69 00        	adc	#$0
    3503: 85 13        	sta	$13                     ; 0x13 <__rc3>
    3505: b1 24        	lda	($24),y                 ; 0x24 <__rc20>
    3507: aa           	tax
    3508: a0 01        	ldy	#$1
    350a: b1 12        	lda	($12),y                 ; 0x12 <__rc2>
    350c: e8           	inx
    350d: d0 01        	bne	$3510 <_ZN12_GLOBAL__N_13putEcP6Status+0xcd>
    350f: 1a           	inc
    3510: 85 14        	sta	$14                     ; 0x14 <__rc4>
    3512: 8a           	txa
    3513: a0 05        	ldy	#$5
    3515: 91 24        	sta	($24),y                 ; 0x24 <__rc20>
    3517: a0 01        	ldy	#$1
    3519: a5 14        	lda	$14                     ; 0x14 <__rc4>
    351b: 91 12        	sta	($12),y                 ; 0x12 <__rc2>
    351d: fa           	plx
    351e: 86 25        	stx	$25                     ; 0x25 <__rc21>
    3520: fa           	plx
    3521: 86 24        	stx	$24                     ; 0x24 <__rc20>
    3523: 60           	rts

00003524 <_ZN12_GLOBAL__N_112print_stringEPKcP6Status>:
    3524: 18           	clc
    3525: a5 10        	lda	$10                     ; 0x10 <__rc0>
    3527: 69 fc        	adc	#$fc
    3529: 85 10        	sta	$10                     ; 0x10 <__rc0>
    352b: a5 11        	lda	$11                     ; 0x11 <__rc1>
    352d: 69 ff        	adc	#$ff
    352f: 85 11        	sta	$11                     ; 0x11 <__rc1>
    3531: a6 24        	ldx	$24                     ; 0x24 <__rc20>
    3533: da           	phx
    3534: a6 25        	ldx	$25                     ; 0x25 <__rc21>
    3536: da           	phx
    3537: a6 26        	ldx	$26                     ; 0x26 <__rc22>
    3539: da           	phx
    353a: a6 27        	ldx	$27                     ; 0x27 <__rc23>
    353c: da           	phx
    353d: a5 28        	lda	$28                     ; 0x28 <__rc24>
    353f: a0 02        	ldy	#$2
    3541: 91 10        	sta	($10),y                 ; 0x10 <__rc0>
    3543: a5 29        	lda	$29                     ; 0x29 <__rc25>
    3545: 88           	dey
    3546: 91 10        	sta	($10),y                 ; 0x10 <__rc0>
    3548: a5 2a        	lda	$2a                     ; 0x2a <__rc26>
    354a: 88           	dey
    354b: 91 10        	sta	($10),y                 ; 0x10 <__rc0>
    354d: a6 12        	ldx	$12                     ; 0x12 <__rc2>
    354f: 86 24        	stx	$24                     ; 0x24 <__rc20>
    3551: a6 13        	ldx	$13                     ; 0x13 <__rc3>
    3553: 86 25        	stx	$25                     ; 0x25 <__rc21>
    3555: a6 14        	ldx	$14                     ; 0x14 <__rc4>
    3557: 86 26        	stx	$26                     ; 0x26 <__rc22>
    3559: a6 15        	ldx	$15                     ; 0x15 <__rc5>
    355b: 86 27        	stx	$27                     ; 0x27 <__rc23>
    355d: a5 26        	lda	$26                     ; 0x26 <__rc22>
    355f: 18           	clc
    3560: 69 0d        	adc	#$d
    3562: 85 12        	sta	$12                     ; 0x12 <__rc2>
    3564: a5 27        	lda	$27                     ; 0x27 <__rc23>
    3566: 69 00        	adc	#$0
    3568: 85 13        	sta	$13                     ; 0x13 <__rc3>
    356a: c8           	iny
    356b: b1 12        	lda	($12),y                 ; 0x12 <__rc2>
    356d: 30 1c        	bmi	$358b <_ZN12_GLOBAL__N_112print_stringEPKcP6Status+0x67>
    356f: a0 0d        	ldy	#$d
    3571: aa           	tax
    3572: b1 26        	lda	($26),y                 ; 0x26 <__rc22>
    3574: 48           	pha
    3575: 8a           	txa
    3576: a0 03        	ldy	#$3
    3578: 91 10        	sta	($10),y                 ; 0x10 <__rc0>
    357a: 68           	pla
    357b: e0 00        	cpx	#$0
    357d: d0 16        	bne	$3595 <_ZN12_GLOBAL__N_112print_stringEPKcP6Status+0x71>
    357f: aa           	tax
    3580: d0 13        	bne	$3595 <_ZN12_GLOBAL__N_112print_stringEPKcP6Status+0x71>
    3582: 64 28        	stz	$28                     ; 0x28 <__rc24>
    3584: 64 12        	stz	$12                     ; 0x12 <__rc2>
    3586: a9 00        	lda	#$0
    3588: 4c 93 36     	jmp	$3693 <_ZN12_GLOBAL__N_112print_stringEPKcP6Status+0x16f>
    358b: a9 ff        	lda	#$ff
    358d: aa           	tax
    358e: 48           	pha
    358f: 8a           	txa
    3590: a0 03        	ldy	#$3
    3592: 91 10        	sta	($10),y                 ; 0x10 <__rc0>
    3594: 68           	pla
    3595: 85 28        	sta	$28                     ; 0x28 <__rc24>
    3597: 64 12        	stz	$12                     ; 0x12 <__rc2>
    3599: a4 24        	ldy	$24                     ; 0x24 <__rc20>
    359b: a6 25        	ldx	$25                     ; 0x25 <__rc21>
    359d: 86 16        	stx	$16                     ; 0x16 <__rc6>
    359f: 64 13        	stz	$13                     ; 0x13 <__rc3>
    35a1: 98           	tya
    35a2: 18           	clc
    35a3: 65 12        	adc	$12                     ; 0x12 <__rc2>
    35a5: 85 14        	sta	$14                     ; 0x14 <__rc4>
    35a7: a5 25        	lda	$25                     ; 0x25 <__rc21>
    35a9: 65 13        	adc	$13                     ; 0x13 <__rc3>
    35ab: 85 15        	sta	$15                     ; 0x15 <__rc5>
    35ad: b2 14        	lda	($14)                   ; 0x14 <__rc4>
    35af: d0 03        	bne	$35b4 <_ZN12_GLOBAL__N_112print_stringEPKcP6Status+0x90>
    35b1: 4c 8b 36     	jmp	$368b <_ZN12_GLOBAL__N_112print_stringEPKcP6Status+0x167>
    35b4: e6 12        	inc	$12                     ; 0x12 <__rc2>
    35b6: d0 02        	bne	$35ba <_ZN12_GLOBAL__N_112print_stringEPKcP6Status+0x96>
    35b8: e6 13        	inc	$13                     ; 0x13 <__rc3>
    35ba: 5a           	phy
    35bb: a0 03        	ldy	#$3
    35bd: b1 10        	lda	($10),y                 ; 0x10 <__rc0>
    35bf: 7a           	ply
    35c0: c5 13        	cmp	$13                     ; 0x13 <__rc3>
    35c2: d0 dd        	bne	$35a1 <_ZN12_GLOBAL__N_112print_stringEPKcP6Status+0x7d>
    35c4: a6 28        	ldx	$28                     ; 0x28 <__rc24>
    35c6: e4 12        	cpx	$12                     ; 0x12 <__rc2>
    35c8: d0 d7        	bne	$35a1 <_ZN12_GLOBAL__N_112print_stringEPKcP6Status+0x7d>
    35ca: a0 01        	ldy	#$1
    35cc: b1 26        	lda	($26),y                 ; 0x26 <__rc22>
    35ce: 29 01        	and	#$1
    35d0: f0 03        	beq	$35d5 <_ZN12_GLOBAL__N_112print_stringEPKcP6Status+0xb1>
    35d2: 4c 30 36     	jmp	$3630 <_ZN12_GLOBAL__N_112print_stringEPKcP6Status+0x10c>
    35d5: a5 26        	lda	$26                     ; 0x26 <__rc22>
    35d7: 18           	clc
    35d8: 69 0b        	adc	#$b
    35da: 85 14        	sta	$14                     ; 0x14 <__rc4>
    35dc: a5 27        	lda	$27                     ; 0x27 <__rc23>
    35de: 69 00        	adc	#$0
    35e0: 85 15        	sta	$15                     ; 0x15 <__rc5>
    35e2: a0 0b        	ldy	#$b
    35e4: b1 26        	lda	($26),y                 ; 0x26 <__rc22>
    35e6: 85 13        	sta	$13                     ; 0x13 <__rc3>
    35e8: a0 01        	ldy	#$1
    35ea: b1 14        	lda	($14),y                 ; 0x14 <__rc4>
    35ec: 85 12        	sta	$12                     ; 0x12 <__rc2>
    35ee: a0 03        	ldy	#$3
    35f0: b1 10        	lda	($10),y                 ; 0x10 <__rc0>
    35f2: aa           	tax
    35f3: c5 12        	cmp	$12                     ; 0x12 <__rc2>
    35f5: d0 08        	bne	$35ff <_ZN12_GLOBAL__N_112print_stringEPKcP6Status+0xdb>
    35f7: a6 28        	ldx	$28                     ; 0x28 <__rc24>
    35f9: e4 13        	cpx	$13                     ; 0x13 <__rc3>
    35fb: 90 06        	bcc	$3603 <_ZN12_GLOBAL__N_112print_stringEPKcP6Status+0xdf>
    35fd: 80 31        	bra	$3630 <_ZN12_GLOBAL__N_112print_stringEPKcP6Status+0x10c>
    35ff: e4 12        	cpx	$12                     ; 0x12 <__rc2>
    3601: b0 2d        	bcs	$3630 <_ZN12_GLOBAL__N_112print_stringEPKcP6Status+0x10c>
    3603: 38           	sec
    3604: a5 28        	lda	$28                     ; 0x28 <__rc24>
    3606: e5 13        	sbc	$13                     ; 0x13 <__rc3>
    3608: aa           	tax
    3609: b1 10        	lda	($10),y                 ; 0x10 <__rc0>
    360b: e5 12        	sbc	$12                     ; 0x12 <__rc2>
    360d: 85 2a        	sta	$2a                     ; 0x2a <__rc26>
    360f: a4 26        	ldy	$26                     ; 0x26 <__rc22>
    3611: 84 12        	sty	$12                     ; 0x12 <__rc2>
    3613: a4 27        	ldy	$27                     ; 0x27 <__rc23>
    3615: 84 13        	sty	$13                     ; 0x13 <__rc3>
    3617: 86 29        	stx	$29                     ; 0x29 <__rc25>
    3619: a9 20        	lda	#$20
    361b: 20 43 34     	jsr	$3443 <_ZN12_GLOBAL__N_13putEcP6Status>
    361e: a4 2a        	ldy	$2a                     ; 0x2a <__rc26>
    3620: e6 29        	inc	$29                     ; 0x29 <__rc25>
    3622: d0 01        	bne	$3625 <_ZN12_GLOBAL__N_112print_stringEPKcP6Status+0x101>
    3624: c8           	iny
    3625: 84 2a        	sty	$2a                     ; 0x2a <__rc26>
    3627: a6 29        	ldx	$29                     ; 0x29 <__rc25>
    3629: 98           	tya
    362a: d0 e3        	bne	$360f <_ZN12_GLOBAL__N_112print_stringEPKcP6Status+0xeb>
    362c: a5 29        	lda	$29                     ; 0x29 <__rc25>
    362e: d0 df        	bne	$360f <_ZN12_GLOBAL__N_112print_stringEPKcP6Status+0xeb>
    3630: a0 03        	ldy	#$3
    3632: b1 10        	lda	($10),y                 ; 0x10 <__rc0>
    3634: a8           	tay
    3635: d0 04        	bne	$363b <_ZN12_GLOBAL__N_112print_stringEPKcP6Status+0x117>
    3637: a5 28        	lda	$28                     ; 0x28 <__rc24>
    3639: f0 26        	beq	$3661 <_ZN12_GLOBAL__N_112print_stringEPKcP6Status+0x13d>
    363b: a2 ff        	ldx	#$ff
    363d: c6 28        	dec	$28                     ; 0x28 <__rc24>
    363f: e4 28        	cpx	$28                     ; 0x28 <__rc24>
    3641: d0 01        	bne	$3644 <_ZN12_GLOBAL__N_112print_stringEPKcP6Status+0x120>
    3643: 88           	dey
    3644: 84 29        	sty	$29                     ; 0x29 <__rc25>
    3646: b2 24        	lda	($24)                   ; 0x24 <__rc20>
    3648: e6 24        	inc	$24                     ; 0x24 <__rc20>
    364a: d0 02        	bne	$364e <_ZN12_GLOBAL__N_112print_stringEPKcP6Status+0x12a>
    364c: e6 25        	inc	$25                     ; 0x25 <__rc21>
    364e: a6 26        	ldx	$26                     ; 0x26 <__rc22>
    3650: 86 12        	stx	$12                     ; 0x12 <__rc2>
    3652: a6 27        	ldx	$27                     ; 0x27 <__rc23>
    3654: 86 13        	stx	$13                     ; 0x13 <__rc3>
    3656: 20 43 34     	jsr	$3443 <_ZN12_GLOBAL__N_13putEcP6Status>
    3659: a4 29        	ldy	$29                     ; 0x29 <__rc25>
    365b: d0 de        	bne	$363b <_ZN12_GLOBAL__N_112print_stringEPKcP6Status+0x117>
    365d: a5 28        	lda	$28                     ; 0x28 <__rc24>
    365f: d0 da        	bne	$363b <_ZN12_GLOBAL__N_112print_stringEPKcP6Status+0x117>
    3661: a0 00        	ldy	#$0
    3663: b1 10        	lda	($10),y                 ; 0x10 <__rc0>
    3665: 85 2a        	sta	$2a                     ; 0x2a <__rc26>
    3667: c8           	iny
    3668: b1 10        	lda	($10),y                 ; 0x10 <__rc0>
    366a: 85 29        	sta	$29                     ; 0x29 <__rc25>
    366c: c8           	iny
    366d: b1 10        	lda	($10),y                 ; 0x10 <__rc0>
    366f: 85 28        	sta	$28                     ; 0x28 <__rc24>
    3671: fa           	plx
    3672: 86 27        	stx	$27                     ; 0x27 <__rc23>
    3674: fa           	plx
    3675: 86 26        	stx	$26                     ; 0x26 <__rc22>
    3677: fa           	plx
    3678: 86 25        	stx	$25                     ; 0x25 <__rc21>
    367a: fa           	plx
    367b: 86 24        	stx	$24                     ; 0x24 <__rc20>
    367d: 18           	clc
    367e: a5 10        	lda	$10                     ; 0x10 <__rc0>
    3680: 69 04        	adc	#$4
    3682: 85 10        	sta	$10                     ; 0x10 <__rc0>
    3684: a5 11        	lda	$11                     ; 0x11 <__rc1>
    3686: 69 00        	adc	#$0
    3688: 85 11        	sta	$11                     ; 0x11 <__rc1>
    368a: 60           	rts
    368b: a6 12        	ldx	$12                     ; 0x12 <__rc2>
    368d: 86 28        	stx	$28                     ; 0x28 <__rc24>
    368f: a5 13        	lda	$13                     ; 0x13 <__rc3>
    3691: a0 03        	ldy	#$3
    3693: 91 10        	sta	($10),y                 ; 0x10 <__rc0>
    3695: 4c ca 35     	jmp	$35ca <_ZN12_GLOBAL__N_112print_stringEPKcP6Status+0xa6>

00003698 <printf>:
    3698: 18           	clc
    3699: a5 10        	lda	$10                     ; 0x10 <__rc0>
    369b: 69 fe        	adc	#$fe
    369d: 85 10        	sta	$10                     ; 0x10 <__rc0>
    369f: a5 11        	lda	$11                     ; 0x11 <__rc1>
    36a1: 69 ff        	adc	#$ff
    36a3: 85 11        	sta	$11                     ; 0x11 <__rc1>
    36a5: a6 12        	ldx	$12                     ; 0x12 <__rc2>
    36a7: 86 14        	stx	$14                     ; 0x14 <__rc4>
    36a9: a6 13        	ldx	$13                     ; 0x13 <__rc3>
    36ab: 86 15        	stx	$15                     ; 0x15 <__rc5>
    36ad: 18           	clc
    36ae: a5 10        	lda	$10                     ; 0x10 <__rc0>
    36b0: 69 02        	adc	#$2
    36b2: 48           	pha
    36b3: a5 11        	lda	$11                     ; 0x11 <__rc1>
    36b5: 69 00        	adc	#$0
    36b7: 85 12        	sta	$12                     ; 0x12 <__rc2>
    36b9: 68           	pla
    36ba: 18           	clc
    36bb: a6 10        	ldx	$10                     ; 0x10 <__rc0>
    36bd: 86 16        	stx	$16                     ; 0x16 <__rc6>
    36bf: a6 11        	ldx	$11                     ; 0x11 <__rc1>
    36c1: 86 17        	stx	$17                     ; 0x17 <__rc7>
    36c3: 92 16        	sta	($16)                   ; 0x16 <__rc6>
    36c5: a0 01        	ldy	#$1
    36c7: a5 12        	lda	$12                     ; 0x12 <__rc2>
    36c9: 91 16        	sta	($16),y                 ; 0x16 <__rc6>
    36cb: a6 6a        	ldx	$6a                     ; 0x6a <stdout>
    36cd: a5 6b        	lda	$6b                     ; 0x6b <stdout+0x1>
    36cf: 86 12        	stx	$12                     ; 0x12 <__rc2>
    36d1: 85 13        	sta	$13                     ; 0x13 <__rc3>
    36d3: b2 16        	lda	($16)                   ; 0x16 <__rc6>
    36d5: aa           	tax
    36d6: b1 16        	lda	($16),y                 ; 0x16 <__rc6>
    36d8: 86 16        	stx	$16                     ; 0x16 <__rc6>
    36da: 85 17        	sta	$17                     ; 0x17 <__rc7>
    36dc: 20 e7 26     	jsr	$26e7 <vfprintf>
    36df: 48           	pha
    36e0: 18           	clc
    36e1: a5 10        	lda	$10                     ; 0x10 <__rc0>
    36e3: 69 02        	adc	#$2
    36e5: 85 10        	sta	$10                     ; 0x10 <__rc0>
    36e7: a5 11        	lda	$11                     ; 0x11 <__rc1>
    36e9: 69 00        	adc	#$0
    36eb: 85 11        	sta	$11                     ; 0x11 <__rc1>
    36ed: 68           	pla
    36ee: 60           	rts

000036ef <fputc>:
    36ef: 4c f2 36     	jmp	$36f2 <putchar>

000036f2 <putchar>:
    36f2: a4 24        	ldy	$24                     ; 0x24 <__rc20>
    36f4: 5a           	phy
    36f5: a4 25        	ldy	$25                     ; 0x25 <__rc21>
    36f7: 5a           	phy
    36f8: 85 24        	sta	$24                     ; 0x24 <__rc20>
    36fa: 86 25        	stx	$25                     ; 0x25 <__rc21>
    36fc: a2 00        	ldx	#$0
    36fe: 86 12        	stx	$12                     ; 0x12 <__rc2>
    3700: a2 00        	ldx	#$0
    3702: 86 13        	stx	$13                     ; 0x13 <__rc3>
    3704: a2 1a        	ldx	#$1a
    3706: 86 14        	stx	$14                     ; 0x14 <__rc4>
    3708: a2 37        	ldx	#$37
    370a: 86 15        	stx	$15                     ; 0x15 <__rc5>
    370c: 20 24 37     	jsr	$3724 <__from_ascii>
    370f: a6 25        	ldx	$25                     ; 0x25 <__rc21>
    3711: a5 24        	lda	$24                     ; 0x24 <__rc20>
    3713: 7a           	ply
    3714: 84 25        	sty	$25                     ; 0x25 <__rc21>
    3716: 7a           	ply
    3717: 84 24        	sty	$24                     ; 0x24 <__rc20>
    3719: 60           	rts

0000371a <putchar_wrapper>:
    371a: 20 89 24     	jsr	$2489 <__putchar>
    371d: a2 00        	ldx	#$0
    371f: 8a           	txa
    3720: 60           	rts

00003721 <putc>:
    3721: 4c ef 36     	jmp	$36ef <fputc>

00003724 <__from_ascii>:
    3724: a6 14        	ldx	$14                     ; 0x14 <__rc4>
    3726: 86 22        	stx	$22                     ; 0x22 <__rc18>
    3728: a6 15        	ldx	$15                     ; 0x15 <__rc5>
    372a: 86 23        	stx	$23                     ; 0x23 <__rc19>
    372c: 4c 07 06     	jmp	$607 <__call_indir>

0000372f <malloc>:
    372f: a8           	tay
    3730: 8a           	txa
    3731: a2 00        	ldx	#$0
    3733: 86 12        	stx	$12                     ; 0x12 <__rc2>
    3735: a2 00        	ldx	#$0
    3737: 86 13        	stx	$13                     ; 0x13 <__rc3>
    3739: aa           	tax
    373a: d0 07        	bne	$3743 <malloc+0x14>
    373c: c0 00        	cpy	#$0
    373e: d0 03        	bne	$3743 <malloc+0x14>
    3740: 4c 1f 38     	jmp	$381f <malloc+0xf0>
    3743: 84 16        	sty	$16                     ; 0x16 <__rc6>
    3745: aa           	tax
    3746: d0 0e        	bne	$3756 <malloc+0x27>
    3748: a6 16        	ldx	$16                     ; 0x16 <__rc6>
    374a: e0 07        	cpx	#$7
    374c: b0 0c        	bcs	$375a <malloc+0x2b>
    374e: a2 08        	ldx	#$8
    3750: 64 17        	stz	$17                     ; 0x17 <__rc7>
    3752: 86 16        	stx	$16                     ; 0x16 <__rc6>
    3754: 80 30        	bra	$3786 <malloc+0x57>
    3756: c9 00        	cmp	#$0
    3758: 90 f4        	bcc	$374e <malloc+0x1f>
    375a: a8           	tay
    375b: a5 16        	lda	$16                     ; 0x16 <__rc6>
    375d: 29 01        	and	#$1
    375f: a2 02        	ldx	#$2
    3761: 64 14        	stz	$14                     ; 0x14 <__rc4>
    3763: c9 00        	cmp	#$0
    3765: f0 02        	beq	$3769 <malloc+0x3a>
    3767: a2 03        	ldx	#$3
    3769: 86 15        	stx	$15                     ; 0x15 <__rc5>
    376b: 18           	clc
    376c: a5 16        	lda	$16                     ; 0x16 <__rc6>
    376e: 65 15        	adc	$15                     ; 0x15 <__rc5>
    3770: aa           	tax
    3771: 98           	tya
    3772: 65 14        	adc	$14                     ; 0x14 <__rc4>
    3774: 90 03        	bcc	$3779 <malloc+0x4a>
    3776: 4c 1f 38     	jmp	$381f <malloc+0xf0>
    3779: 86 16        	stx	$16                     ; 0x16 <__rc6>
    377b: 85 17        	sta	$17                     ; 0x17 <__rc7>
    377d: a8           	tay
    377e: d0 06        	bne	$3786 <malloc+0x57>
    3780: 8a           	txa
    3781: d0 03        	bne	$3786 <malloc+0x57>
    3783: 4c 1f 38     	jmp	$381f <malloc+0xf0>
    3786: a5 db        	lda	$db                     ; 0xdb <_ZN12_GLOBAL__N_111initializedE>
    3788: 29 01        	and	#$1
    378a: d0 3b        	bne	$37c7 <malloc+0x98>
    378c: a5 6c        	lda	$6c                     ; 0x6c <_ZN12_GLOBAL__N_110heap_limitE>
    378e: a6 6d        	ldx	$6d                     ; 0x6d <_ZN12_GLOBAL__N_110heap_limitE+0x1>
    3790: a0 88        	ldy	#$88
    3792: 84 12        	sty	$12                     ; 0x12 <__rc2>
    3794: a0 60        	ldy	#$60
    3796: 84 13        	sty	$13                     ; 0x13 <__rc3>
    3798: a4 16        	ldy	$16                     ; 0x16 <__rc6>
    379a: 84 e1        	sty	$e1                     ; 0xe1 <__zp_bss_size+0x6e>
    379c: a4 17        	ldy	$17                     ; 0x17 <__rc7>
    379e: 84 e2        	sty	$e2                     ; 0xe2 <__zp_bss_size+0x6f>
    37a0: 20 56 03     	jsr	$356 <_ZN12_GLOBAL__N_19FreeChunk6insertEPvj>
    37a3: a6 e2        	ldx	$e2                     ; 0xe2 <__zp_bss_size+0x6f>
    37a5: 86 17        	stx	$17                     ; 0x17 <__rc7>
    37a7: a6 e1        	ldx	$e1                     ; 0xe1 <__zp_bss_size+0x6e>
    37a9: 86 16        	stx	$16                     ; 0x16 <__rc6>
    37ab: a2 00        	ldx	#$0
    37ad: 86 12        	stx	$12                     ; 0x12 <__rc2>
    37af: a2 00        	ldx	#$0
    37b1: 86 13        	stx	$13                     ; 0x13 <__rc3>
    37b3: ae 89 60     	ldx	$6089                   ; 0x6089 <end_block9+0x1>
    37b6: a9 fe        	lda	#$fe
    37b8: 2d 88 60     	and	$6088                   ; 0x6088 <end_block9>
    37bb: 8d 88 60     	sta	$6088                   ; 0x6088 <end_block9>
    37be: 8e 89 60     	stx	$6089                   ; 0x6089 <end_block9+0x1>
    37c1: a2 01        	ldx	#$1
    37c3: 86 dc        	stx	$dc                     ; 0xdc <_ZN12_GLOBAL__N_19last_freeE>
    37c5: 86 db        	stx	$db                     ; 0xdb <_ZN12_GLOBAL__N_111initializedE>
    37c7: a6 df        	ldx	$df                     ; 0xdf <_ZN12_GLOBAL__N_19free_listE>
    37c9: 86 18        	stx	$18                     ; 0x18 <__rc8>
    37cb: a4 e0        	ldy	$e0                     ; 0xe0 <_ZN12_GLOBAL__N_19free_listE+0x1>
    37cd: 84 19        	sty	$19                     ; 0x19 <__rc9>
    37cf: a9 00        	lda	#$0
    37d1: 85 14        	sta	$14                     ; 0x14 <__rc4>
    37d3: a9 00        	lda	#$0
    37d5: 85 15        	sta	$15                     ; 0x15 <__rc5>
    37d7: c4 15        	cpy	$15                     ; 0x15 <__rc5>
    37d9: d0 04        	bne	$37df <malloc+0xb0>
    37db: e4 14        	cpx	$14                     ; 0x14 <__rc4>
    37dd: f0 40        	beq	$381f <malloc+0xf0>
    37df: a0 01        	ldy	#$1
    37e1: a6 18        	ldx	$18                     ; 0x18 <__rc8>
    37e3: 86 14        	stx	$14                     ; 0x14 <__rc4>
    37e5: a6 19        	ldx	$19                     ; 0x19 <__rc9>
    37e7: 86 15        	stx	$15                     ; 0x15 <__rc5>
    37e9: b1 14        	lda	($14),y                 ; 0x14 <__rc4>
    37eb: c5 17        	cmp	$17                     ; 0x17 <__rc7>
    37ed: d0 0a        	bne	$37f9 <malloc+0xca>
    37ef: b2 14        	lda	($14)                   ; 0x14 <__rc4>
    37f1: 29 fe        	and	#$fe
    37f3: c5 16        	cmp	$16                     ; 0x16 <__rc6>
    37f5: b0 29        	bcs	$3820 <malloc+0xf1>
    37f7: 80 04        	bra	$37fd <malloc+0xce>
    37f9: c5 17        	cmp	$17                     ; 0x17 <__rc7>
    37fb: b0 23        	bcs	$3820 <malloc+0xf1>
    37fd: a5 14        	lda	$14                     ; 0x14 <__rc4>
    37ff: 18           	clc
    3800: 69 02        	adc	#$2
    3802: 85 1a        	sta	$1a                     ; 0x1a <__rc10>
    3804: a5 15        	lda	$15                     ; 0x15 <__rc5>
    3806: 69 00        	adc	#$0
    3808: 85 1b        	sta	$1b                     ; 0x1b <__rc11>
    380a: a0 02        	ldy	#$2
    380c: b1 14        	lda	($14),y                 ; 0x14 <__rc4>
    380e: 85 14        	sta	$14                     ; 0x14 <__rc4>
    3810: 88           	dey
    3811: b1 1a        	lda	($1a),y                 ; 0x1a <__rc10>
    3813: 85 15        	sta	$15                     ; 0x15 <__rc5>
    3815: c5 19        	cmp	$19                     ; 0x19 <__rc9>
    3817: d0 d0        	bne	$37e9 <malloc+0xba>
    3819: a5 14        	lda	$14                     ; 0x14 <__rc4>
    381b: c5 18        	cmp	$18                     ; 0x18 <__rc8>
    381d: d0 ca        	bne	$37e9 <malloc+0xba>
    381f: 60           	rts
    3820: a6 14        	ldx	$14                     ; 0x14 <__rc4>
    3822: 86 12        	stx	$12                     ; 0x12 <__rc2>
    3824: a6 15        	ldx	$15                     ; 0x15 <__rc5>
    3826: 86 13        	stx	$13                     ; 0x13 <__rc3>
    3828: a6 17        	ldx	$17                     ; 0x17 <__rc7>
    382a: a5 16        	lda	$16                     ; 0x16 <__rc6>
    382c: 4c 2f 38     	jmp	$382f <_ZN12_GLOBAL__N_119allocate_free_chunkEPNS_9FreeChunkEj>

0000382f <_ZN12_GLOBAL__N_119allocate_free_chunkEPNS_9FreeChunkEj>:
    382f: 85 e3        	sta	$e3                     ; 0xe3 <__zp_bss_size+0x70>
    3831: 86 e6        	stx	$e6                     ; 0xe6 <__zp_bss_size+0x73>
    3833: a6 12        	ldx	$12                     ; 0x12 <__rc2>
    3835: 86 e4        	stx	$e4                     ; 0xe4 <__zp_bss_size+0x71>
    3837: a6 13        	ldx	$13                     ; 0x13 <__rc3>
    3839: 86 e5        	stx	$e5                     ; 0xe5 <__zp_bss_size+0x72>
    383b: 20 8c 04     	jsr	$48c <_ZN12_GLOBAL__N_19FreeChunk6removeEv>
    383e: a0 01        	ldy	#$1
    3840: b1 e4        	lda	($e4),y                 ; 0xe4 <__zp_bss_size+0x71>
    3842: 85 14        	sta	$14                     ; 0x14 <__rc4>
    3844: a9 fe        	lda	#$fe
    3846: 32 e4        	and	($e4)                   ; 0xe4 <__zp_bss_size+0x71>
    3848: 38           	sec
    3849: a6 e3        	ldx	$e3                     ; 0xe3 <__zp_bss_size+0x70>
    384b: a8           	tay
    384c: e5 e3        	sbc	$e3                     ; 0xe3 <__zp_bss_size+0x70>
    384e: 85 16        	sta	$16                     ; 0x16 <__rc6>
    3850: a5 e6        	lda	$e6                     ; 0xe6 <__zp_bss_size+0x73>
    3852: 85 13        	sta	$13                     ; 0x13 <__rc3>
    3854: 85 12        	sta	$12                     ; 0x12 <__rc2>
    3856: a5 14        	lda	$14                     ; 0x14 <__rc4>
    3858: e5 12        	sbc	$12                     ; 0x12 <__rc2>
    385a: f0 03        	beq	$385f <_ZN12_GLOBAL__N_119allocate_free_chunkEPNS_9FreeChunkEj+0x30>
    385c: 4c da 38     	jmp	$38da <_ZN12_GLOBAL__N_119allocate_free_chunkEPNS_9FreeChunkEj+0xab>
    385f: 85 15        	sta	$15                     ; 0x15 <__rc5>
    3861: a5 16        	lda	$16                     ; 0x16 <__rc6>
    3863: c9 08        	cmp	#$8
    3865: 90 2e        	bcc	$3895 <_ZN12_GLOBAL__N_119allocate_free_chunkEPNS_9FreeChunkEj+0x66>
    3867: a8           	tay
    3868: 18           	clc
    3869: 8a           	txa
    386a: 65 e4        	adc	$e4                     ; 0xe4 <__zp_bss_size+0x71>
    386c: 85 12        	sta	$12                     ; 0x12 <__rc2>
    386e: a5 13        	lda	$13                     ; 0x13 <__rc3>
    3870: a6 13        	ldx	$13                     ; 0x13 <__rc3>
    3872: 86 e6        	stx	$e6                     ; 0xe6 <__zp_bss_size+0x73>
    3874: 65 e5        	adc	$e5                     ; 0xe5 <__zp_bss_size+0x72>
    3876: 85 13        	sta	$13                     ; 0x13 <__rc3>
    3878: a6 15        	ldx	$15                     ; 0x15 <__rc5>
    387a: 98           	tya
    387b: 20 56 03     	jsr	$356 <_ZN12_GLOBAL__N_19FreeChunk6insertEPvj>
    387e: a5 e3        	lda	$e3                     ; 0xe3 <__zp_bss_size+0x70>
    3880: 29 fe        	and	#$fe
    3882: 85 12        	sta	$12                     ; 0x12 <__rc2>
    3884: a0 01        	ldy	#$1
    3886: 98           	tya
    3887: 32 e4        	and	($e4)                   ; 0xe4 <__zp_bss_size+0x71>
    3889: 05 12        	ora	$12                     ; 0x12 <__rc2>
    388b: 92 e4        	sta	($e4)                   ; 0xe4 <__zp_bss_size+0x71>
    388d: a5 e6        	lda	$e6                     ; 0xe6 <__zp_bss_size+0x73>
    388f: 91 e4        	sta	($e4),y                 ; 0xe4 <__zp_bss_size+0x71>
    3891: a4 12        	ldy	$12                     ; 0x12 <__rc2>
    3893: 85 14        	sta	$14                     ; 0x14 <__rc4>
    3895: 18           	clc
    3896: 98           	tya
    3897: 65 e4        	adc	$e4                     ; 0xe4 <__zp_bss_size+0x71>
    3899: a8           	tay
    389a: a5 14        	lda	$14                     ; 0x14 <__rc4>
    389c: 65 e5        	adc	$e5                     ; 0xe5 <__zp_bss_size+0x72>
    389e: aa           	tax
    389f: 18           	clc
    38a0: a9 88        	lda	#$88
    38a2: 65 6c        	adc	$6c                     ; 0x6c <_ZN12_GLOBAL__N_110heap_limitE>
    38a4: 85 13        	sta	$13                     ; 0x13 <__rc3>
    38a6: a9 60        	lda	#$60
    38a8: 65 6d        	adc	$6d                     ; 0x6d <_ZN12_GLOBAL__N_110heap_limitE+0x1>
    38aa: 85 12        	sta	$12                     ; 0x12 <__rc2>
    38ac: e4 12        	cpx	$12                     ; 0x12 <__rc2>
    38ae: d0 08        	bne	$38b8 <_ZN12_GLOBAL__N_119allocate_free_chunkEPNS_9FreeChunkEj+0x89>
    38b0: c4 13        	cpy	$13                     ; 0x13 <__rc3>
    38b2: d0 04        	bne	$38b8 <_ZN12_GLOBAL__N_119allocate_free_chunkEPNS_9FreeChunkEj+0x89>
    38b4: 64 dc        	stz	$dc                     ; 0xdc <_ZN12_GLOBAL__N_19last_freeE>
    38b6: 80 14        	bra	$38cc <_ZN12_GLOBAL__N_119allocate_free_chunkEPNS_9FreeChunkEj+0x9d>
    38b8: 84 12        	sty	$12                     ; 0x12 <__rc2>
    38ba: 86 13        	stx	$13                     ; 0x13 <__rc3>
    38bc: a0 01        	ldy	#$1
    38be: b1 12        	lda	($12),y                 ; 0x12 <__rc2>
    38c0: 85 14        	sta	$14                     ; 0x14 <__rc4>
    38c2: a9 fe        	lda	#$fe
    38c4: 32 12        	and	($12)                   ; 0x12 <__rc2>
    38c6: 92 12        	sta	($12)                   ; 0x12 <__rc2>
    38c8: a5 14        	lda	$14                     ; 0x14 <__rc4>
    38ca: 91 12        	sta	($12),y                 ; 0x12 <__rc2>
    38cc: a5 e4        	lda	$e4                     ; 0xe4 <__zp_bss_size+0x71>
    38ce: 18           	clc
    38cf: 69 02        	adc	#$2
    38d1: 85 12        	sta	$12                     ; 0x12 <__rc2>
    38d3: a5 e5        	lda	$e5                     ; 0xe5 <__zp_bss_size+0x72>
    38d5: 69 00        	adc	#$0
    38d7: 85 13        	sta	$13                     ; 0x13 <__rc3>
    38d9: 60           	rts
    38da: 85 15        	sta	$15                     ; 0x15 <__rc5>
    38dc: c9 00        	cmp	#$0
    38de: a5 16        	lda	$16                     ; 0x16 <__rc6>
    38e0: 90 b3        	bcc	$3895 <_ZN12_GLOBAL__N_119allocate_free_chunkEPNS_9FreeChunkEj+0x66>
    38e2: 4c 67 38     	jmp	$3867 <_ZN12_GLOBAL__N_119allocate_free_chunkEPNS_9FreeChunkEj+0x38>

000038e5 <memcpy>:
    38e5: a8           	tay
    38e6: 8a           	txa
    38e7: d0 03        	bne	$38ec <memcpy+0x7>
    38e9: 98           	tya
    38ea: f0 24        	beq	$3910 <memcpy+0x2b>
    38ec: a5 12        	lda	$12                     ; 0x12 <__rc2>
    38ee: 85 16        	sta	$16                     ; 0x16 <__rc6>
    38f0: a5 13        	lda	$13                     ; 0x13 <__rc3>
    38f2: 85 17        	sta	$17                     ; 0x17 <__rc7>
    38f4: b2 14        	lda	($14)                   ; 0x14 <__rc4>
    38f6: 92 16        	sta	($16)                   ; 0x16 <__rc6>
    38f8: e6 16        	inc	$16                     ; 0x16 <__rc6>
    38fa: d0 02        	bne	$38fe <memcpy+0x19>
    38fc: e6 17        	inc	$17                     ; 0x17 <__rc7>
    38fe: e6 14        	inc	$14                     ; 0x14 <__rc4>
    3900: d0 02        	bne	$3904 <memcpy+0x1f>
    3902: e6 15        	inc	$15                     ; 0x15 <__rc5>
    3904: 88           	dey
    3905: c0 ff        	cpy	#$ff
    3907: d0 01        	bne	$390a <memcpy+0x25>
    3909: ca           	dex
    390a: 8a           	txa
    390b: d0 e7        	bne	$38f4 <memcpy+0xf>
    390d: 98           	tya
    390e: d0 e4        	bne	$38f4 <memcpy+0xf>
    3910: 60           	rts

00003911 <__memset>:
    3911: a4 14        	ldy	$14                     ; 0x14 <__rc4>
    3913: d0 04        	bne	$3919 <__memset+0x8>
    3915: e0 00        	cpx	#$0
    3917: f0 17        	beq	$3930 <__memset+0x1f>
    3919: 92 12        	sta	($12)                   ; 0x12 <__rc2>
    391b: e6 12        	inc	$12                     ; 0x12 <__rc2>
    391d: d0 02        	bne	$3921 <__memset+0x10>
    391f: e6 13        	inc	$13                     ; 0x13 <__rc3>
    3921: ca           	dex
    3922: e0 ff        	cpx	#$ff
    3924: d0 02        	bne	$3928 <__memset+0x17>
    3926: c6 14        	dec	$14                     ; 0x14 <__rc4>
    3928: a4 14        	ldy	$14                     ; 0x14 <__rc4>
    392a: d0 ed        	bne	$3919 <__memset+0x8>
    392c: e0 00        	cpx	#$0
    392e: d0 e9        	bne	$3919 <__memset+0x8>
    3930: 60           	rts

00003931 <__simple_strtoui>:
    3931: a9 d0        	lda	#$d0
    3933: 18           	clc
    3934: 72 12        	adc	($12)                   ; 0x12 <__rc2>
    3936: c9 0a        	cmp	#$a
    3938: 90 03        	bcc	$393d <__simple_strtoui+0xc>
    393a: 4c 8e 39     	jmp	$398e <__simple_strtoui+0x5d>
    393d: b2 12        	lda	($12)                   ; 0x12 <__rc2>
    393f: 64 16        	stz	$16                     ; 0x16 <__rc6>
    3941: a0 01        	ldy	#$1
    3943: 85 17        	sta	$17                     ; 0x17 <__rc7>
    3945: 64 18        	stz	$18                     ; 0x18 <__rc8>
    3947: a2 00        	ldx	#$0
    3949: 06 18        	asl	$18                     ; 0x18 <__rc8>
    394b: 8a           	txa
    394c: 2a           	rol
    394d: 85 19        	sta	$19                     ; 0x19 <__rc9>
    394f: a5 18        	lda	$18                     ; 0x18 <__rc8>
    3951: 0a           	asl
    3952: a6 19        	ldx	$19                     ; 0x19 <__rc9>
    3954: 86 1a        	stx	$1a                     ; 0x1a <__rc10>
    3956: 26 1a        	rol	$1a                     ; 0x1a <__rc10>
    3958: 0a           	asl
    3959: 26 1a        	rol	$1a                     ; 0x1a <__rc10>
    395b: 18           	clc
    395c: 65 18        	adc	$18                     ; 0x18 <__rc8>
    395e: aa           	tax
    395f: a5 1a        	lda	$1a                     ; 0x1a <__rc10>
    3961: 65 19        	adc	$19                     ; 0x19 <__rc9>
    3963: 85 18        	sta	$18                     ; 0x18 <__rc8>
    3965: 8a           	txa
    3966: 18           	clc
    3967: 65 17        	adc	$17                     ; 0x17 <__rc7>
    3969: 85 17        	sta	$17                     ; 0x17 <__rc7>
    396b: a5 18        	lda	$18                     ; 0x18 <__rc8>
    396d: 65 16        	adc	$16                     ; 0x16 <__rc6>
    396f: aa           	tax
    3970: 18           	clc
    3971: a5 17        	lda	$17                     ; 0x17 <__rc7>
    3973: 69 d0        	adc	#$d0
    3975: 85 18        	sta	$18                     ; 0x18 <__rc8>
    3977: 8a           	txa
    3978: 69 ff        	adc	#$ff
    397a: aa           	tax
    397b: b1 12        	lda	($12),y                 ; 0x12 <__rc2>
    397d: 85 17        	sta	$17                     ; 0x17 <__rc7>
    397f: 18           	clc
    3980: 69 d0        	adc	#$d0
    3982: e6 12        	inc	$12                     ; 0x12 <__rc2>
    3984: d0 02        	bne	$3988 <__simple_strtoui+0x57>
    3986: e6 13        	inc	$13                     ; 0x13 <__rc3>
    3988: c9 0a        	cmp	#$a
    398a: 90 bd        	bcc	$3949 <__simple_strtoui+0x18>
    398c: 80 04        	bra	$3992 <__simple_strtoui+0x61>
    398e: 64 18        	stz	$18                     ; 0x18 <__rc8>
    3990: a2 00        	ldx	#$0
    3992: a5 12        	lda	$12                     ; 0x12 <__rc2>
    3994: 92 14        	sta	($14)                   ; 0x14 <__rc4>
    3996: a0 01        	ldy	#$1
    3998: a5 13        	lda	$13                     ; 0x13 <__rc3>
    399a: 91 14        	sta	($14),y                 ; 0x14 <__rc4>
    399c: a5 18        	lda	$18                     ; 0x18 <__rc8>
    399e: 60           	rts

0000399f <__mulhi3>:
    399f: a4 13        	ldy	$13                     ; 0x13 <__rc3>
    39a1: d0 04        	bne	$39a7 <__mulhi3+0x8>
    39a3: a4 12        	ldy	$12                     ; 0x12 <__rc2>
    39a5: f0 25        	beq	$39cc <__mulhi3+0x2d>
    39a7: 85 14        	sta	$14                     ; 0x14 <__rc4>
    39a9: 86 15        	stx	$15                     ; 0x15 <__rc5>
    39ab: a0 00        	ldy	#$0
    39ad: 98           	tya
    39ae: 46 13        	lsr	$13                     ; 0x13 <__rc3>
    39b0: 66 12        	ror	$12                     ; 0x12 <__rc2>
    39b2: 90 09        	bcc	$39bd <__mulhi3+0x1e>
    39b4: aa           	tax
    39b5: 98           	tya
    39b6: 18           	clc
    39b7: 65 14        	adc	$14                     ; 0x14 <__rc4>
    39b9: a8           	tay
    39ba: 8a           	txa
    39bb: 65 15        	adc	$15                     ; 0x15 <__rc5>
    39bd: 06 14        	asl	$14                     ; 0x14 <__rc4>
    39bf: 26 15        	rol	$15                     ; 0x15 <__rc5>
    39c1: a6 13        	ldx	$13                     ; 0x13 <__rc3>
    39c3: d0 e9        	bne	$39ae <__mulhi3+0xf>
    39c5: a6 12        	ldx	$12                     ; 0x12 <__rc2>
    39c7: d0 e5        	bne	$39ae <__mulhi3+0xf>
    39c9: aa           	tax
    39ca: 98           	tya
    39cb: 60           	rts
    39cc: a0 00        	ldy	#$0
    39ce: 98           	tya
    39cf: 80 f8        	bra	$39c9 <__mulhi3+0x2a>
